ARM GAS  /tmp/cc3XjLgi.s 			page 1


   1              		.cpu cortex-m7
   2              		.arch armv7e-m
   3              		.fpu fpv5-sp-d16
   4              		.eabi_attribute 27, 1
   5              		.eabi_attribute 28, 1
   6              		.eabi_attribute 20, 1
   7              		.eabi_attribute 21, 1
   8              		.eabi_attribute 23, 3
   9              		.eabi_attribute 24, 1
  10              		.eabi_attribute 25, 1
  11              		.eabi_attribute 26, 1
  12              		.eabi_attribute 30, 1
  13              		.eabi_attribute 34, 1
  14              		.eabi_attribute 18, 4
  15              		.file	"arm_correlate_q7.c"
  16              		.text
  17              	.Ltext0:
  18              		.cfi_sections	.debug_frame
  19              		.file 1 "Drivers/CMSIS/DSP/Source/FilteringFunctions/arm_correlate_q7.c"
  20              		.section	.text.arm_correlate_q7,"ax",%progbits
  21              		.align	1
  22              		.global	arm_correlate_q7
  23              		.syntax unified
  24              		.thumb
  25              		.thumb_func
  27              	arm_correlate_q7:
  28              	.LVL0:
  29              	.LFB135:
   1:Drivers/CMSIS/DSP/Source/FilteringFunctions/arm_correlate_q7.c **** /* ----------------------------------------------------------------------
   2:Drivers/CMSIS/DSP/Source/FilteringFunctions/arm_correlate_q7.c ****  * Project:      CMSIS DSP Library
   3:Drivers/CMSIS/DSP/Source/FilteringFunctions/arm_correlate_q7.c ****  * Title:        arm_correlate_q7.c
   4:Drivers/CMSIS/DSP/Source/FilteringFunctions/arm_correlate_q7.c ****  * Description:  Correlation of Q7 sequences
   5:Drivers/CMSIS/DSP/Source/FilteringFunctions/arm_correlate_q7.c ****  *
   6:Drivers/CMSIS/DSP/Source/FilteringFunctions/arm_correlate_q7.c ****  * $Date:        27. January 2017
   7:Drivers/CMSIS/DSP/Source/FilteringFunctions/arm_correlate_q7.c ****  * $Revision:    V.1.5.1
   8:Drivers/CMSIS/DSP/Source/FilteringFunctions/arm_correlate_q7.c ****  *
   9:Drivers/CMSIS/DSP/Source/FilteringFunctions/arm_correlate_q7.c ****  * Target Processor: Cortex-M cores
  10:Drivers/CMSIS/DSP/Source/FilteringFunctions/arm_correlate_q7.c ****  * -------------------------------------------------------------------- */
  11:Drivers/CMSIS/DSP/Source/FilteringFunctions/arm_correlate_q7.c **** /*
  12:Drivers/CMSIS/DSP/Source/FilteringFunctions/arm_correlate_q7.c ****  * Copyright (C) 2010-2017 ARM Limited or its affiliates. All rights reserved.
  13:Drivers/CMSIS/DSP/Source/FilteringFunctions/arm_correlate_q7.c ****  *
  14:Drivers/CMSIS/DSP/Source/FilteringFunctions/arm_correlate_q7.c ****  * SPDX-License-Identifier: Apache-2.0
  15:Drivers/CMSIS/DSP/Source/FilteringFunctions/arm_correlate_q7.c ****  *
  16:Drivers/CMSIS/DSP/Source/FilteringFunctions/arm_correlate_q7.c ****  * Licensed under the Apache License, Version 2.0 (the License); you may
  17:Drivers/CMSIS/DSP/Source/FilteringFunctions/arm_correlate_q7.c ****  * not use this file except in compliance with the License.
  18:Drivers/CMSIS/DSP/Source/FilteringFunctions/arm_correlate_q7.c ****  * You may obtain a copy of the License at
  19:Drivers/CMSIS/DSP/Source/FilteringFunctions/arm_correlate_q7.c ****  *
  20:Drivers/CMSIS/DSP/Source/FilteringFunctions/arm_correlate_q7.c ****  * www.apache.org/licenses/LICENSE-2.0
  21:Drivers/CMSIS/DSP/Source/FilteringFunctions/arm_correlate_q7.c ****  *
  22:Drivers/CMSIS/DSP/Source/FilteringFunctions/arm_correlate_q7.c ****  * Unless required by applicable law or agreed to in writing, software
  23:Drivers/CMSIS/DSP/Source/FilteringFunctions/arm_correlate_q7.c ****  * distributed under the License is distributed on an AS IS BASIS, WITHOUT
  24:Drivers/CMSIS/DSP/Source/FilteringFunctions/arm_correlate_q7.c ****  * WARRANTIES OR CONDITIONS OF ANY KIND, either express or implied.
  25:Drivers/CMSIS/DSP/Source/FilteringFunctions/arm_correlate_q7.c ****  * See the License for the specific language governing permissions and
  26:Drivers/CMSIS/DSP/Source/FilteringFunctions/arm_correlate_q7.c ****  * limitations under the License.
  27:Drivers/CMSIS/DSP/Source/FilteringFunctions/arm_correlate_q7.c ****  */
  28:Drivers/CMSIS/DSP/Source/FilteringFunctions/arm_correlate_q7.c **** 
  29:Drivers/CMSIS/DSP/Source/FilteringFunctions/arm_correlate_q7.c **** #include "arm_math.h"
ARM GAS  /tmp/cc3XjLgi.s 			page 2


  30:Drivers/CMSIS/DSP/Source/FilteringFunctions/arm_correlate_q7.c **** 
  31:Drivers/CMSIS/DSP/Source/FilteringFunctions/arm_correlate_q7.c **** /**
  32:Drivers/CMSIS/DSP/Source/FilteringFunctions/arm_correlate_q7.c ****  * @ingroup groupFilters
  33:Drivers/CMSIS/DSP/Source/FilteringFunctions/arm_correlate_q7.c ****  */
  34:Drivers/CMSIS/DSP/Source/FilteringFunctions/arm_correlate_q7.c **** 
  35:Drivers/CMSIS/DSP/Source/FilteringFunctions/arm_correlate_q7.c **** /**
  36:Drivers/CMSIS/DSP/Source/FilteringFunctions/arm_correlate_q7.c ****  * @addtogroup Corr
  37:Drivers/CMSIS/DSP/Source/FilteringFunctions/arm_correlate_q7.c ****  * @{
  38:Drivers/CMSIS/DSP/Source/FilteringFunctions/arm_correlate_q7.c ****  */
  39:Drivers/CMSIS/DSP/Source/FilteringFunctions/arm_correlate_q7.c **** 
  40:Drivers/CMSIS/DSP/Source/FilteringFunctions/arm_correlate_q7.c **** /**
  41:Drivers/CMSIS/DSP/Source/FilteringFunctions/arm_correlate_q7.c ****  * @brief Correlation of Q7 sequences.
  42:Drivers/CMSIS/DSP/Source/FilteringFunctions/arm_correlate_q7.c ****  * @param[in] *pSrcA points to the first input sequence.
  43:Drivers/CMSIS/DSP/Source/FilteringFunctions/arm_correlate_q7.c ****  * @param[in] srcALen length of the first input sequence.
  44:Drivers/CMSIS/DSP/Source/FilteringFunctions/arm_correlate_q7.c ****  * @param[in] *pSrcB points to the second input sequence.
  45:Drivers/CMSIS/DSP/Source/FilteringFunctions/arm_correlate_q7.c ****  * @param[in] srcBLen length of the second input sequence.
  46:Drivers/CMSIS/DSP/Source/FilteringFunctions/arm_correlate_q7.c ****  * @param[out] *pDst points to the location where the output result is written.  Length 2 * max(src
  47:Drivers/CMSIS/DSP/Source/FilteringFunctions/arm_correlate_q7.c ****  * @return none.
  48:Drivers/CMSIS/DSP/Source/FilteringFunctions/arm_correlate_q7.c ****  *
  49:Drivers/CMSIS/DSP/Source/FilteringFunctions/arm_correlate_q7.c ****  * @details
  50:Drivers/CMSIS/DSP/Source/FilteringFunctions/arm_correlate_q7.c ****  * <b>Scaling and Overflow Behavior:</b>
  51:Drivers/CMSIS/DSP/Source/FilteringFunctions/arm_correlate_q7.c ****  *
  52:Drivers/CMSIS/DSP/Source/FilteringFunctions/arm_correlate_q7.c ****  * \par
  53:Drivers/CMSIS/DSP/Source/FilteringFunctions/arm_correlate_q7.c ****  * The function is implemented using a 32-bit internal accumulator.
  54:Drivers/CMSIS/DSP/Source/FilteringFunctions/arm_correlate_q7.c ****  * Both the inputs are represented in 1.7 format and multiplications yield a 2.14 result.
  55:Drivers/CMSIS/DSP/Source/FilteringFunctions/arm_correlate_q7.c ****  * The 2.14 intermediate results are accumulated in a 32-bit accumulator in 18.14 format.
  56:Drivers/CMSIS/DSP/Source/FilteringFunctions/arm_correlate_q7.c ****  * This approach provides 17 guard bits and there is no risk of overflow as long as <code>max(srcAL
  57:Drivers/CMSIS/DSP/Source/FilteringFunctions/arm_correlate_q7.c ****  * The 18.14 result is then truncated to 18.7 format by discarding the low 7 bits and saturated to 
  58:Drivers/CMSIS/DSP/Source/FilteringFunctions/arm_correlate_q7.c ****  *
  59:Drivers/CMSIS/DSP/Source/FilteringFunctions/arm_correlate_q7.c ****  * \par
  60:Drivers/CMSIS/DSP/Source/FilteringFunctions/arm_correlate_q7.c ****  * Refer the function <code>arm_correlate_opt_q7()</code> for a faster implementation of this funct
  61:Drivers/CMSIS/DSP/Source/FilteringFunctions/arm_correlate_q7.c ****  *
  62:Drivers/CMSIS/DSP/Source/FilteringFunctions/arm_correlate_q7.c ****  */
  63:Drivers/CMSIS/DSP/Source/FilteringFunctions/arm_correlate_q7.c **** 
  64:Drivers/CMSIS/DSP/Source/FilteringFunctions/arm_correlate_q7.c **** void arm_correlate_q7(
  65:Drivers/CMSIS/DSP/Source/FilteringFunctions/arm_correlate_q7.c ****   q7_t * pSrcA,
  66:Drivers/CMSIS/DSP/Source/FilteringFunctions/arm_correlate_q7.c ****   uint32_t srcALen,
  67:Drivers/CMSIS/DSP/Source/FilteringFunctions/arm_correlate_q7.c ****   q7_t * pSrcB,
  68:Drivers/CMSIS/DSP/Source/FilteringFunctions/arm_correlate_q7.c ****   uint32_t srcBLen,
  69:Drivers/CMSIS/DSP/Source/FilteringFunctions/arm_correlate_q7.c ****   q7_t * pDst)
  70:Drivers/CMSIS/DSP/Source/FilteringFunctions/arm_correlate_q7.c **** {
  30              		.loc 1 70 1 view -0
  31              		.cfi_startproc
  32              		@ args = 4, pretend = 0, frame = 40
  33              		@ frame_needed = 0, uses_anonymous_args = 0
  34              		.loc 1 70 1 is_stmt 0 view .LVU1
  35 0000 2DE9F04F 		push	{r4, r5, r6, r7, r8, r9, r10, fp, lr}
  36              	.LCFI0:
  37              		.cfi_def_cfa_offset 36
  38              		.cfi_offset 4, -36
  39              		.cfi_offset 5, -32
  40              		.cfi_offset 6, -28
  41              		.cfi_offset 7, -24
  42              		.cfi_offset 8, -20
  43              		.cfi_offset 9, -16
  44              		.cfi_offset 10, -12
  45              		.cfi_offset 11, -8
ARM GAS  /tmp/cc3XjLgi.s 			page 3


  46              		.cfi_offset 14, -4
  47 0004 8BB0     		sub	sp, sp, #44
  48              	.LCFI1:
  49              		.cfi_def_cfa_offset 80
  50 0006 0290     		str	r0, [sp, #8]
  51 0008 0192     		str	r2, [sp, #4]
  52 000a 9B46     		mov	fp, r3
  71:Drivers/CMSIS/DSP/Source/FilteringFunctions/arm_correlate_q7.c **** 
  72:Drivers/CMSIS/DSP/Source/FilteringFunctions/arm_correlate_q7.c **** 
  73:Drivers/CMSIS/DSP/Source/FilteringFunctions/arm_correlate_q7.c **** #if defined (ARM_MATH_DSP)
  74:Drivers/CMSIS/DSP/Source/FilteringFunctions/arm_correlate_q7.c **** 
  75:Drivers/CMSIS/DSP/Source/FilteringFunctions/arm_correlate_q7.c ****   /* Run the below code for Cortex-M4 and Cortex-M3 */
  76:Drivers/CMSIS/DSP/Source/FilteringFunctions/arm_correlate_q7.c **** 
  77:Drivers/CMSIS/DSP/Source/FilteringFunctions/arm_correlate_q7.c ****   q7_t *pIn1;                                    /* inputA pointer               */
  53              		.loc 1 77 3 is_stmt 1 view .LVU2
  78:Drivers/CMSIS/DSP/Source/FilteringFunctions/arm_correlate_q7.c ****   q7_t *pIn2;                                    /* inputB pointer               */
  54              		.loc 1 78 3 view .LVU3
  79:Drivers/CMSIS/DSP/Source/FilteringFunctions/arm_correlate_q7.c ****   q7_t *pOut = pDst;                             /* output pointer               */
  55              		.loc 1 79 3 view .LVU4
  56              	.LVL1:
  80:Drivers/CMSIS/DSP/Source/FilteringFunctions/arm_correlate_q7.c ****   q7_t *px;                                      /* Intermediate inputA pointer  */
  57              		.loc 1 80 3 view .LVU5
  81:Drivers/CMSIS/DSP/Source/FilteringFunctions/arm_correlate_q7.c ****   q7_t *py;                                      /* Intermediate inputB pointer  */
  58              		.loc 1 81 3 view .LVU6
  82:Drivers/CMSIS/DSP/Source/FilteringFunctions/arm_correlate_q7.c ****   q7_t *pSrc1;                                   /* Intermediate pointers        */
  59              		.loc 1 82 3 view .LVU7
  83:Drivers/CMSIS/DSP/Source/FilteringFunctions/arm_correlate_q7.c ****   q31_t sum, acc0, acc1, acc2, acc3;             /* Accumulators                  */
  60              		.loc 1 83 3 view .LVU8
  84:Drivers/CMSIS/DSP/Source/FilteringFunctions/arm_correlate_q7.c ****   q31_t input1, input2;                          /* temporary variables */
  61              		.loc 1 84 3 view .LVU9
  85:Drivers/CMSIS/DSP/Source/FilteringFunctions/arm_correlate_q7.c ****   q15_t in1, in2;                                /* temporary variables */
  62              		.loc 1 85 3 view .LVU10
  86:Drivers/CMSIS/DSP/Source/FilteringFunctions/arm_correlate_q7.c ****   q7_t x0, x1, x2, x3, c0, c1;                   /* temporary variables for holding input and coeff
  63              		.loc 1 86 3 view .LVU11
  87:Drivers/CMSIS/DSP/Source/FilteringFunctions/arm_correlate_q7.c ****   uint32_t j, k = 0U, count, blkCnt, outBlockSize, blockSize1, blockSize2, blockSize3;  /* loop cou
  64              		.loc 1 87 3 view .LVU12
  88:Drivers/CMSIS/DSP/Source/FilteringFunctions/arm_correlate_q7.c ****   int32_t inc = 1;
  65              		.loc 1 88 3 view .LVU13
  89:Drivers/CMSIS/DSP/Source/FilteringFunctions/arm_correlate_q7.c **** 
  90:Drivers/CMSIS/DSP/Source/FilteringFunctions/arm_correlate_q7.c **** 
  91:Drivers/CMSIS/DSP/Source/FilteringFunctions/arm_correlate_q7.c ****   /* The algorithm implementation is based on the lengths of the inputs. */
  92:Drivers/CMSIS/DSP/Source/FilteringFunctions/arm_correlate_q7.c ****   /* srcB is always made to slide across srcA. */
  93:Drivers/CMSIS/DSP/Source/FilteringFunctions/arm_correlate_q7.c ****   /* So srcBLen is always considered as shorter or equal to srcALen */
  94:Drivers/CMSIS/DSP/Source/FilteringFunctions/arm_correlate_q7.c ****   /* But CORR(x, y) is reverse of CORR(y, x) */
  95:Drivers/CMSIS/DSP/Source/FilteringFunctions/arm_correlate_q7.c ****   /* So, when srcBLen > srcALen, output pointer is made to point to the end of the output buffer */
  96:Drivers/CMSIS/DSP/Source/FilteringFunctions/arm_correlate_q7.c ****   /* and the destination pointer modifier, inc is set to -1 */
  97:Drivers/CMSIS/DSP/Source/FilteringFunctions/arm_correlate_q7.c ****   /* If srcALen > srcBLen, zero pad has to be done to srcB to make the two inputs of same length */
  98:Drivers/CMSIS/DSP/Source/FilteringFunctions/arm_correlate_q7.c ****   /* But to improve the performance,
  99:Drivers/CMSIS/DSP/Source/FilteringFunctions/arm_correlate_q7.c ****    * we include zeroes in the output instead of zero padding either of the the inputs*/
 100:Drivers/CMSIS/DSP/Source/FilteringFunctions/arm_correlate_q7.c ****   /* If srcALen > srcBLen,
 101:Drivers/CMSIS/DSP/Source/FilteringFunctions/arm_correlate_q7.c ****    * (srcALen - srcBLen) zeroes has to included in the starting of the output buffer */
 102:Drivers/CMSIS/DSP/Source/FilteringFunctions/arm_correlate_q7.c ****   /* If srcALen < srcBLen,
 103:Drivers/CMSIS/DSP/Source/FilteringFunctions/arm_correlate_q7.c ****    * (srcALen - srcBLen) zeroes has to included in the ending of the output buffer */
 104:Drivers/CMSIS/DSP/Source/FilteringFunctions/arm_correlate_q7.c ****   if (srcALen >= srcBLen)
  66              		.loc 1 104 3 view .LVU14
  67              		.loc 1 104 6 is_stmt 0 view .LVU15
  68 000c 9942     		cmp	r1, r3
ARM GAS  /tmp/cc3XjLgi.s 			page 4


  69 000e 18D3     		bcc	.L2
 105:Drivers/CMSIS/DSP/Source/FilteringFunctions/arm_correlate_q7.c ****   {
 106:Drivers/CMSIS/DSP/Source/FilteringFunctions/arm_correlate_q7.c ****     /* Initialization of inputA pointer */
 107:Drivers/CMSIS/DSP/Source/FilteringFunctions/arm_correlate_q7.c ****     pIn1 = (pSrcA);
  70              		.loc 1 107 5 is_stmt 1 view .LVU16
  71              	.LVL2:
 108:Drivers/CMSIS/DSP/Source/FilteringFunctions/arm_correlate_q7.c **** 
 109:Drivers/CMSIS/DSP/Source/FilteringFunctions/arm_correlate_q7.c ****     /* Initialization of inputB pointer */
 110:Drivers/CMSIS/DSP/Source/FilteringFunctions/arm_correlate_q7.c ****     pIn2 = (pSrcB);
  72              		.loc 1 110 5 view .LVU17
 111:Drivers/CMSIS/DSP/Source/FilteringFunctions/arm_correlate_q7.c **** 
 112:Drivers/CMSIS/DSP/Source/FilteringFunctions/arm_correlate_q7.c ****     /* Number of output samples is calculated */
 113:Drivers/CMSIS/DSP/Source/FilteringFunctions/arm_correlate_q7.c ****     outBlockSize = (2U * srcALen) - 1U;
  73              		.loc 1 113 5 view .LVU18
  74              		.loc 1 113 24 is_stmt 0 view .LVU19
  75 0010 4B00     		lsls	r3, r1, #1
  76              	.LVL3:
  77              		.loc 1 113 18 view .LVU20
  78 0012 013B     		subs	r3, r3, #1
  79              	.LVL4:
 114:Drivers/CMSIS/DSP/Source/FilteringFunctions/arm_correlate_q7.c **** 
 115:Drivers/CMSIS/DSP/Source/FilteringFunctions/arm_correlate_q7.c ****     /* When srcALen > srcBLen, zero padding is done to srcB
 116:Drivers/CMSIS/DSP/Source/FilteringFunctions/arm_correlate_q7.c ****      * to make their lengths equal.
 117:Drivers/CMSIS/DSP/Source/FilteringFunctions/arm_correlate_q7.c ****      * Instead, (outBlockSize - (srcALen + srcBLen - 1))
 118:Drivers/CMSIS/DSP/Source/FilteringFunctions/arm_correlate_q7.c ****      * number of output samples are made zero */
 119:Drivers/CMSIS/DSP/Source/FilteringFunctions/arm_correlate_q7.c ****     j = outBlockSize - (srcALen + (srcBLen - 1U));
  80              		.loc 1 119 5 is_stmt 1 view .LVU21
  81              		.loc 1 119 33 is_stmt 0 view .LVU22
  82 0014 01EB0B02 		add	r2, r1, fp
  83              	.LVL5:
  84              		.loc 1 119 22 view .LVU23
  85 0018 9B1A     		subs	r3, r3, r2
  86              	.LVL6:
  87              		.loc 1 119 7 view .LVU24
  88 001a 0133     		adds	r3, r3, #1
  89              	.LVL7:
 120:Drivers/CMSIS/DSP/Source/FilteringFunctions/arm_correlate_q7.c **** 
 121:Drivers/CMSIS/DSP/Source/FilteringFunctions/arm_correlate_q7.c ****     /* Updating the pointer position to non zero value */
 122:Drivers/CMSIS/DSP/Source/FilteringFunctions/arm_correlate_q7.c ****     pOut += j;
  90              		.loc 1 122 5 is_stmt 1 view .LVU25
  91              		.loc 1 122 10 is_stmt 0 view .LVU26
  92 001c 149A     		ldr	r2, [sp, #80]
  93 001e 02EB0308 		add	r8, r2, r3
  94              	.LVL8:
  88:Drivers/CMSIS/DSP/Source/FilteringFunctions/arm_correlate_q7.c **** 
  95              		.loc 1 88 11 view .LVU27
  96 0022 0127     		movs	r7, #1
  97              	.LVL9:
  98              	.L3:
 123:Drivers/CMSIS/DSP/Source/FilteringFunctions/arm_correlate_q7.c **** 
 124:Drivers/CMSIS/DSP/Source/FilteringFunctions/arm_correlate_q7.c ****   }
 125:Drivers/CMSIS/DSP/Source/FilteringFunctions/arm_correlate_q7.c ****   else
 126:Drivers/CMSIS/DSP/Source/FilteringFunctions/arm_correlate_q7.c ****   {
 127:Drivers/CMSIS/DSP/Source/FilteringFunctions/arm_correlate_q7.c ****     /* Initialization of inputA pointer */
 128:Drivers/CMSIS/DSP/Source/FilteringFunctions/arm_correlate_q7.c ****     pIn1 = (pSrcB);
 129:Drivers/CMSIS/DSP/Source/FilteringFunctions/arm_correlate_q7.c **** 
 130:Drivers/CMSIS/DSP/Source/FilteringFunctions/arm_correlate_q7.c ****     /* Initialization of inputB pointer */
ARM GAS  /tmp/cc3XjLgi.s 			page 5


 131:Drivers/CMSIS/DSP/Source/FilteringFunctions/arm_correlate_q7.c ****     pIn2 = (pSrcA);
 132:Drivers/CMSIS/DSP/Source/FilteringFunctions/arm_correlate_q7.c **** 
 133:Drivers/CMSIS/DSP/Source/FilteringFunctions/arm_correlate_q7.c ****     /* srcBLen is always considered as shorter or equal to srcALen */
 134:Drivers/CMSIS/DSP/Source/FilteringFunctions/arm_correlate_q7.c ****     j = srcBLen;
 135:Drivers/CMSIS/DSP/Source/FilteringFunctions/arm_correlate_q7.c ****     srcBLen = srcALen;
 136:Drivers/CMSIS/DSP/Source/FilteringFunctions/arm_correlate_q7.c ****     srcALen = j;
 137:Drivers/CMSIS/DSP/Source/FilteringFunctions/arm_correlate_q7.c **** 
 138:Drivers/CMSIS/DSP/Source/FilteringFunctions/arm_correlate_q7.c ****     /* CORR(x, y) = Reverse order(CORR(y, x)) */
 139:Drivers/CMSIS/DSP/Source/FilteringFunctions/arm_correlate_q7.c ****     /* Hence set the destination pointer to point to the last output sample */
 140:Drivers/CMSIS/DSP/Source/FilteringFunctions/arm_correlate_q7.c ****     pOut = pDst + ((srcALen + srcBLen) - 2U);
 141:Drivers/CMSIS/DSP/Source/FilteringFunctions/arm_correlate_q7.c **** 
 142:Drivers/CMSIS/DSP/Source/FilteringFunctions/arm_correlate_q7.c ****     /* Destination address modifier is set to -1 */
 143:Drivers/CMSIS/DSP/Source/FilteringFunctions/arm_correlate_q7.c ****     inc = -1;
 144:Drivers/CMSIS/DSP/Source/FilteringFunctions/arm_correlate_q7.c **** 
 145:Drivers/CMSIS/DSP/Source/FilteringFunctions/arm_correlate_q7.c ****   }
 146:Drivers/CMSIS/DSP/Source/FilteringFunctions/arm_correlate_q7.c **** 
 147:Drivers/CMSIS/DSP/Source/FilteringFunctions/arm_correlate_q7.c ****   /* The function is internally
 148:Drivers/CMSIS/DSP/Source/FilteringFunctions/arm_correlate_q7.c ****    * divided into three parts according to the number of multiplications that has to be
 149:Drivers/CMSIS/DSP/Source/FilteringFunctions/arm_correlate_q7.c ****    * taken place between inputA samples and inputB samples. In the first part of the
 150:Drivers/CMSIS/DSP/Source/FilteringFunctions/arm_correlate_q7.c ****    * algorithm, the multiplications increase by one for every iteration.
 151:Drivers/CMSIS/DSP/Source/FilteringFunctions/arm_correlate_q7.c ****    * In the second part of the algorithm, srcBLen number of multiplications are done.
 152:Drivers/CMSIS/DSP/Source/FilteringFunctions/arm_correlate_q7.c ****    * In the third part of the algorithm, the multiplications decrease by one
 153:Drivers/CMSIS/DSP/Source/FilteringFunctions/arm_correlate_q7.c ****    * for every iteration.*/
 154:Drivers/CMSIS/DSP/Source/FilteringFunctions/arm_correlate_q7.c ****   /* The algorithm is implemented in three stages.
 155:Drivers/CMSIS/DSP/Source/FilteringFunctions/arm_correlate_q7.c ****    * The loop counters of each stage is initiated here. */
 156:Drivers/CMSIS/DSP/Source/FilteringFunctions/arm_correlate_q7.c ****   blockSize1 = srcBLen - 1U;
  99              		.loc 1 156 3 is_stmt 1 view .LVU28
 100              		.loc 1 156 14 is_stmt 0 view .LVU29
 101 0024 0BF1FF30 		add	r0, fp, #-1
 102              	.LVL10:
 157:Drivers/CMSIS/DSP/Source/FilteringFunctions/arm_correlate_q7.c ****   blockSize2 = srcALen - (srcBLen - 1U);
 103              		.loc 1 157 3 is_stmt 1 view .LVU30
 104              		.loc 1 157 24 is_stmt 0 view .LVU31
 105 0028 A1EB0B01 		sub	r1, r1, fp
 106              	.LVL11:
 107              		.loc 1 157 14 view .LVU32
 108 002c 01F1010C 		add	ip, r1, #1
 109              	.LVL12:
 158:Drivers/CMSIS/DSP/Source/FilteringFunctions/arm_correlate_q7.c ****   blockSize3 = blockSize1;
 110              		.loc 1 158 3 is_stmt 1 view .LVU33
 159:Drivers/CMSIS/DSP/Source/FilteringFunctions/arm_correlate_q7.c **** 
 160:Drivers/CMSIS/DSP/Source/FilteringFunctions/arm_correlate_q7.c ****   /* --------------------------
 161:Drivers/CMSIS/DSP/Source/FilteringFunctions/arm_correlate_q7.c ****    * Initializations of stage1
 162:Drivers/CMSIS/DSP/Source/FilteringFunctions/arm_correlate_q7.c ****    * -------------------------*/
 163:Drivers/CMSIS/DSP/Source/FilteringFunctions/arm_correlate_q7.c **** 
 164:Drivers/CMSIS/DSP/Source/FilteringFunctions/arm_correlate_q7.c ****   /* sum = x[0] * y[srcBlen - 1]
 165:Drivers/CMSIS/DSP/Source/FilteringFunctions/arm_correlate_q7.c ****    * sum = x[0] * y[srcBlen - 2] + x[1] * y[srcBlen - 1]
 166:Drivers/CMSIS/DSP/Source/FilteringFunctions/arm_correlate_q7.c ****    * ....
 167:Drivers/CMSIS/DSP/Source/FilteringFunctions/arm_correlate_q7.c ****    * sum = x[0] * y[0] + x[1] * y[1] +...+ x[srcBLen - 1] * y[srcBLen - 1]
 168:Drivers/CMSIS/DSP/Source/FilteringFunctions/arm_correlate_q7.c ****    */
 169:Drivers/CMSIS/DSP/Source/FilteringFunctions/arm_correlate_q7.c **** 
 170:Drivers/CMSIS/DSP/Source/FilteringFunctions/arm_correlate_q7.c ****   /* In this stage the MAC operations are increased by 1 for every iteration.
 171:Drivers/CMSIS/DSP/Source/FilteringFunctions/arm_correlate_q7.c ****      The count variable holds the number of MAC operations performed */
 172:Drivers/CMSIS/DSP/Source/FilteringFunctions/arm_correlate_q7.c ****   count = 1U;
 111              		.loc 1 172 3 view .LVU34
 173:Drivers/CMSIS/DSP/Source/FilteringFunctions/arm_correlate_q7.c **** 
 174:Drivers/CMSIS/DSP/Source/FilteringFunctions/arm_correlate_q7.c ****   /* Working pointer of inputA */
ARM GAS  /tmp/cc3XjLgi.s 			page 6


 175:Drivers/CMSIS/DSP/Source/FilteringFunctions/arm_correlate_q7.c ****   px = pIn1;
 112              		.loc 1 175 3 view .LVU35
 176:Drivers/CMSIS/DSP/Source/FilteringFunctions/arm_correlate_q7.c **** 
 177:Drivers/CMSIS/DSP/Source/FilteringFunctions/arm_correlate_q7.c ****   /* Working pointer of inputB */
 178:Drivers/CMSIS/DSP/Source/FilteringFunctions/arm_correlate_q7.c ****   pSrc1 = pIn2 + (srcBLen - 1U);
 113              		.loc 1 178 3 view .LVU36
 114              		.loc 1 178 9 is_stmt 0 view .LVU37
 115 0030 019B     		ldr	r3, [sp, #4]
 116 0032 03EB0009 		add	r9, r3, r0
 117              	.LVL13:
 179:Drivers/CMSIS/DSP/Source/FilteringFunctions/arm_correlate_q7.c ****   py = pSrc1;
 118              		.loc 1 179 3 is_stmt 1 view .LVU38
 180:Drivers/CMSIS/DSP/Source/FilteringFunctions/arm_correlate_q7.c **** 
 181:Drivers/CMSIS/DSP/Source/FilteringFunctions/arm_correlate_q7.c ****   /* ------------------------
 182:Drivers/CMSIS/DSP/Source/FilteringFunctions/arm_correlate_q7.c ****    * Stage1 process
 183:Drivers/CMSIS/DSP/Source/FilteringFunctions/arm_correlate_q7.c ****    * ----------------------*/
 184:Drivers/CMSIS/DSP/Source/FilteringFunctions/arm_correlate_q7.c **** 
 185:Drivers/CMSIS/DSP/Source/FilteringFunctions/arm_correlate_q7.c ****   /* The first stage starts here */
 186:Drivers/CMSIS/DSP/Source/FilteringFunctions/arm_correlate_q7.c ****   while (blockSize1 > 0U)
 119              		.loc 1 186 3 view .LVU39
 156:Drivers/CMSIS/DSP/Source/FilteringFunctions/arm_correlate_q7.c ****   blockSize2 = srcALen - (srcBLen - 1U);
 120              		.loc 1 156 14 is_stmt 0 view .LVU40
 121 0036 0246     		mov	r2, r0
 179:Drivers/CMSIS/DSP/Source/FilteringFunctions/arm_correlate_q7.c ****   py = pSrc1;
 122              		.loc 1 179 6 view .LVU41
 123 0038 4C46     		mov	r4, r9
 172:Drivers/CMSIS/DSP/Source/FilteringFunctions/arm_correlate_q7.c **** 
 124              		.loc 1 172 9 view .LVU42
 125 003a 4FF0010E 		mov	lr, #1
 126 003e 8246     		mov	r10, r0
 127              		.loc 1 186 9 view .LVU43
 128 0040 4FE0     		b	.L4
 129              	.LVL14:
 130              	.L2:
 128:Drivers/CMSIS/DSP/Source/FilteringFunctions/arm_correlate_q7.c **** 
 131              		.loc 1 128 5 is_stmt 1 view .LVU44
 131:Drivers/CMSIS/DSP/Source/FilteringFunctions/arm_correlate_q7.c **** 
 132              		.loc 1 131 5 view .LVU45
 134:Drivers/CMSIS/DSP/Source/FilteringFunctions/arm_correlate_q7.c ****     srcBLen = srcALen;
 133              		.loc 1 134 5 view .LVU46
 135:Drivers/CMSIS/DSP/Source/FilteringFunctions/arm_correlate_q7.c ****     srcALen = j;
 134              		.loc 1 135 5 view .LVU47
 136:Drivers/CMSIS/DSP/Source/FilteringFunctions/arm_correlate_q7.c **** 
 135              		.loc 1 136 5 view .LVU48
 140:Drivers/CMSIS/DSP/Source/FilteringFunctions/arm_correlate_q7.c **** 
 136              		.loc 1 140 5 view .LVU49
 140:Drivers/CMSIS/DSP/Source/FilteringFunctions/arm_correlate_q7.c **** 
 137              		.loc 1 140 29 is_stmt 0 view .LVU50
 138 0042 CB18     		adds	r3, r1, r3
 139              	.LVL15:
 140:Drivers/CMSIS/DSP/Source/FilteringFunctions/arm_correlate_q7.c **** 
 140              		.loc 1 140 17 view .LVU51
 141 0044 023B     		subs	r3, r3, #2
 140:Drivers/CMSIS/DSP/Source/FilteringFunctions/arm_correlate_q7.c **** 
 142              		.loc 1 140 10 view .LVU52
 143 0046 149A     		ldr	r2, [sp, #80]
 144              	.LVL16:
ARM GAS  /tmp/cc3XjLgi.s 			page 7


 140:Drivers/CMSIS/DSP/Source/FilteringFunctions/arm_correlate_q7.c **** 
 145              		.loc 1 140 10 view .LVU53
 146 0048 02EB0308 		add	r8, r2, r3
 147              	.LVL17:
 143:Drivers/CMSIS/DSP/Source/FilteringFunctions/arm_correlate_q7.c **** 
 148              		.loc 1 143 5 is_stmt 1 view .LVU54
 140:Drivers/CMSIS/DSP/Source/FilteringFunctions/arm_correlate_q7.c **** 
 149              		.loc 1 140 10 is_stmt 0 view .LVU55
 150 004c 029B     		ldr	r3, [sp, #8]
 128:Drivers/CMSIS/DSP/Source/FilteringFunctions/arm_correlate_q7.c **** 
 151              		.loc 1 128 10 view .LVU56
 152 004e 019A     		ldr	r2, [sp, #4]
 153 0050 0292     		str	r2, [sp, #8]
 154              	.LVL18:
 131:Drivers/CMSIS/DSP/Source/FilteringFunctions/arm_correlate_q7.c **** 
 155              		.loc 1 131 10 view .LVU57
 156 0052 0193     		str	r3, [sp, #4]
 157              	.LVL19:
 140:Drivers/CMSIS/DSP/Source/FilteringFunctions/arm_correlate_q7.c **** 
 158              		.loc 1 140 10 view .LVU58
 159 0054 0B46     		mov	r3, r1
 160              	.LVL20:
 136:Drivers/CMSIS/DSP/Source/FilteringFunctions/arm_correlate_q7.c **** 
 161              		.loc 1 136 13 view .LVU59
 162 0056 5946     		mov	r1, fp
 163              	.LVL21:
 135:Drivers/CMSIS/DSP/Source/FilteringFunctions/arm_correlate_q7.c ****     srcALen = j;
 164              		.loc 1 135 13 view .LVU60
 165 0058 9B46     		mov	fp, r3
 166              	.LVL22:
 143:Drivers/CMSIS/DSP/Source/FilteringFunctions/arm_correlate_q7.c **** 
 167              		.loc 1 143 9 view .LVU61
 168 005a 4FF0FF37 		mov	r7, #-1
 169 005e E1E7     		b	.L3
 170              	.LVL23:
 171              	.L6:
 187:Drivers/CMSIS/DSP/Source/FilteringFunctions/arm_correlate_q7.c ****   {
 188:Drivers/CMSIS/DSP/Source/FilteringFunctions/arm_correlate_q7.c ****     /* Accumulator is made zero for every iteration */
 189:Drivers/CMSIS/DSP/Source/FilteringFunctions/arm_correlate_q7.c ****     sum = 0;
 190:Drivers/CMSIS/DSP/Source/FilteringFunctions/arm_correlate_q7.c **** 
 191:Drivers/CMSIS/DSP/Source/FilteringFunctions/arm_correlate_q7.c ****     /* Apply loop unrolling and compute 4 MACs simultaneously. */
 192:Drivers/CMSIS/DSP/Source/FilteringFunctions/arm_correlate_q7.c ****     k = count >> 2;
 193:Drivers/CMSIS/DSP/Source/FilteringFunctions/arm_correlate_q7.c **** 
 194:Drivers/CMSIS/DSP/Source/FilteringFunctions/arm_correlate_q7.c ****     /* First part of the processing with loop unrolling.  Compute 4 MACs at a time.
 195:Drivers/CMSIS/DSP/Source/FilteringFunctions/arm_correlate_q7.c ****      ** a second loop below computes MACs for the remaining 1 to 3 samples. */
 196:Drivers/CMSIS/DSP/Source/FilteringFunctions/arm_correlate_q7.c ****     while (k > 0U)
 197:Drivers/CMSIS/DSP/Source/FilteringFunctions/arm_correlate_q7.c ****     {
 198:Drivers/CMSIS/DSP/Source/FilteringFunctions/arm_correlate_q7.c ****       /* x[0] , x[1] */
 199:Drivers/CMSIS/DSP/Source/FilteringFunctions/arm_correlate_q7.c ****       in1 = (q15_t) * px++;
 172              		.loc 1 199 7 is_stmt 1 view .LVU62
 173              		.loc 1 199 21 is_stmt 0 view .LVU63
 174 0060 93F90000 		ldrsb	r0, [r3]
 175              	.LVL24:
 200:Drivers/CMSIS/DSP/Source/FilteringFunctions/arm_correlate_q7.c ****       in2 = (q15_t) * px++;
 176              		.loc 1 200 7 is_stmt 1 view .LVU64
 177              		.loc 1 200 21 is_stmt 0 view .LVU65
 178 0064 93F90160 		ldrsb	r6, [r3, #1]
ARM GAS  /tmp/cc3XjLgi.s 			page 8


 179              	.LVL25:
 201:Drivers/CMSIS/DSP/Source/FilteringFunctions/arm_correlate_q7.c ****       input1 = ((q31_t) in1 & 0x0000FFFF) | ((q31_t) in2 << 16);
 180              		.loc 1 201 7 is_stmt 1 view .LVU66
 181              		.loc 1 201 29 is_stmt 0 view .LVU67
 182 0068 80B2     		uxth	r0, r0
 183              		.loc 1 201 14 view .LVU68
 184 006a 40EA0640 		orr	r0, r0, r6, lsl #16
 185              	.LVL26:
 202:Drivers/CMSIS/DSP/Source/FilteringFunctions/arm_correlate_q7.c **** 
 203:Drivers/CMSIS/DSP/Source/FilteringFunctions/arm_correlate_q7.c ****       /* y[srcBLen - 4] , y[srcBLen - 3] */
 204:Drivers/CMSIS/DSP/Source/FilteringFunctions/arm_correlate_q7.c ****       in1 = (q15_t) * py++;
 186              		.loc 1 204 7 is_stmt 1 view .LVU69
 187              		.loc 1 204 21 is_stmt 0 view .LVU70
 188 006e 94F90060 		ldrsb	r6, [r4]
 189              	.LVL27:
 205:Drivers/CMSIS/DSP/Source/FilteringFunctions/arm_correlate_q7.c ****       in2 = (q15_t) * py++;
 190              		.loc 1 205 7 is_stmt 1 view .LVU71
 191              		.loc 1 205 21 is_stmt 0 view .LVU72
 192 0072 94F90180 		ldrsb	r8, [r4, #1]
 193              	.LVL28:
 206:Drivers/CMSIS/DSP/Source/FilteringFunctions/arm_correlate_q7.c ****       input2 = ((q31_t) in1 & 0x0000FFFF) | ((q31_t) in2 << 16);
 194              		.loc 1 206 7 is_stmt 1 view .LVU73
 195              		.loc 1 206 29 is_stmt 0 view .LVU74
 196 0076 B6B2     		uxth	r6, r6
 197              		.loc 1 206 14 view .LVU75
 198 0078 46EA0846 		orr	r6, r6, r8, lsl #16
 199              	.LVL29:
 207:Drivers/CMSIS/DSP/Source/FilteringFunctions/arm_correlate_q7.c **** 
 208:Drivers/CMSIS/DSP/Source/FilteringFunctions/arm_correlate_q7.c ****       /* x[0] * y[srcBLen - 4] */
 209:Drivers/CMSIS/DSP/Source/FilteringFunctions/arm_correlate_q7.c ****       /* x[1] * y[srcBLen - 3] */
 210:Drivers/CMSIS/DSP/Source/FilteringFunctions/arm_correlate_q7.c ****       sum = __SMLAD(input1, input2, sum);
 200              		.loc 1 210 7 is_stmt 1 view .LVU76
 201              	.LBB38:
 202              	.LBI38:
 203              		.file 2 "Drivers/CMSIS/Include/cmsis_gcc.h"
   1:Drivers/CMSIS/Include/cmsis_gcc.h **** /**************************************************************************//**
   2:Drivers/CMSIS/Include/cmsis_gcc.h ****  * @file     cmsis_gcc.h
   3:Drivers/CMSIS/Include/cmsis_gcc.h ****  * @brief    CMSIS compiler GCC header file
   4:Drivers/CMSIS/Include/cmsis_gcc.h ****  * @version  V5.0.4
   5:Drivers/CMSIS/Include/cmsis_gcc.h ****  * @date     09. April 2018
   6:Drivers/CMSIS/Include/cmsis_gcc.h ****  ******************************************************************************/
   7:Drivers/CMSIS/Include/cmsis_gcc.h **** /*
   8:Drivers/CMSIS/Include/cmsis_gcc.h ****  * Copyright (c) 2009-2018 Arm Limited. All rights reserved.
   9:Drivers/CMSIS/Include/cmsis_gcc.h ****  *
  10:Drivers/CMSIS/Include/cmsis_gcc.h ****  * SPDX-License-Identifier: Apache-2.0
  11:Drivers/CMSIS/Include/cmsis_gcc.h ****  *
  12:Drivers/CMSIS/Include/cmsis_gcc.h ****  * Licensed under the Apache License, Version 2.0 (the License); you may
  13:Drivers/CMSIS/Include/cmsis_gcc.h ****  * not use this file except in compliance with the License.
  14:Drivers/CMSIS/Include/cmsis_gcc.h ****  * You may obtain a copy of the License at
  15:Drivers/CMSIS/Include/cmsis_gcc.h ****  *
  16:Drivers/CMSIS/Include/cmsis_gcc.h ****  * www.apache.org/licenses/LICENSE-2.0
  17:Drivers/CMSIS/Include/cmsis_gcc.h ****  *
  18:Drivers/CMSIS/Include/cmsis_gcc.h ****  * Unless required by applicable law or agreed to in writing, software
  19:Drivers/CMSIS/Include/cmsis_gcc.h ****  * distributed under the License is distributed on an AS IS BASIS, WITHOUT
  20:Drivers/CMSIS/Include/cmsis_gcc.h ****  * WARRANTIES OR CONDITIONS OF ANY KIND, either express or implied.
  21:Drivers/CMSIS/Include/cmsis_gcc.h ****  * See the License for the specific language governing permissions and
  22:Drivers/CMSIS/Include/cmsis_gcc.h ****  * limitations under the License.
ARM GAS  /tmp/cc3XjLgi.s 			page 9


  23:Drivers/CMSIS/Include/cmsis_gcc.h ****  */
  24:Drivers/CMSIS/Include/cmsis_gcc.h **** 
  25:Drivers/CMSIS/Include/cmsis_gcc.h **** #ifndef __CMSIS_GCC_H
  26:Drivers/CMSIS/Include/cmsis_gcc.h **** #define __CMSIS_GCC_H
  27:Drivers/CMSIS/Include/cmsis_gcc.h **** 
  28:Drivers/CMSIS/Include/cmsis_gcc.h **** /* ignore some GCC warnings */
  29:Drivers/CMSIS/Include/cmsis_gcc.h **** #pragma GCC diagnostic push
  30:Drivers/CMSIS/Include/cmsis_gcc.h **** #pragma GCC diagnostic ignored "-Wsign-conversion"
  31:Drivers/CMSIS/Include/cmsis_gcc.h **** #pragma GCC diagnostic ignored "-Wconversion"
  32:Drivers/CMSIS/Include/cmsis_gcc.h **** #pragma GCC diagnostic ignored "-Wunused-parameter"
  33:Drivers/CMSIS/Include/cmsis_gcc.h **** 
  34:Drivers/CMSIS/Include/cmsis_gcc.h **** /* Fallback for __has_builtin */
  35:Drivers/CMSIS/Include/cmsis_gcc.h **** #ifndef __has_builtin
  36:Drivers/CMSIS/Include/cmsis_gcc.h ****   #define __has_builtin(x) (0)
  37:Drivers/CMSIS/Include/cmsis_gcc.h **** #endif
  38:Drivers/CMSIS/Include/cmsis_gcc.h **** 
  39:Drivers/CMSIS/Include/cmsis_gcc.h **** /* CMSIS compiler specific defines */
  40:Drivers/CMSIS/Include/cmsis_gcc.h **** #ifndef   __ASM
  41:Drivers/CMSIS/Include/cmsis_gcc.h ****   #define __ASM                                  __asm
  42:Drivers/CMSIS/Include/cmsis_gcc.h **** #endif
  43:Drivers/CMSIS/Include/cmsis_gcc.h **** #ifndef   __INLINE
  44:Drivers/CMSIS/Include/cmsis_gcc.h ****   #define __INLINE                               inline
  45:Drivers/CMSIS/Include/cmsis_gcc.h **** #endif
  46:Drivers/CMSIS/Include/cmsis_gcc.h **** #ifndef   __STATIC_INLINE
  47:Drivers/CMSIS/Include/cmsis_gcc.h ****   #define __STATIC_INLINE                        static inline
  48:Drivers/CMSIS/Include/cmsis_gcc.h **** #endif
  49:Drivers/CMSIS/Include/cmsis_gcc.h **** #ifndef   __STATIC_FORCEINLINE                 
  50:Drivers/CMSIS/Include/cmsis_gcc.h ****   #define __STATIC_FORCEINLINE                   __attribute__((always_inline)) static inline
  51:Drivers/CMSIS/Include/cmsis_gcc.h **** #endif                                           
  52:Drivers/CMSIS/Include/cmsis_gcc.h **** #ifndef   __NO_RETURN
  53:Drivers/CMSIS/Include/cmsis_gcc.h ****   #define __NO_RETURN                            __attribute__((__noreturn__))
  54:Drivers/CMSIS/Include/cmsis_gcc.h **** #endif
  55:Drivers/CMSIS/Include/cmsis_gcc.h **** #ifndef   __USED
  56:Drivers/CMSIS/Include/cmsis_gcc.h ****   #define __USED                                 __attribute__((used))
  57:Drivers/CMSIS/Include/cmsis_gcc.h **** #endif
  58:Drivers/CMSIS/Include/cmsis_gcc.h **** #ifndef   __WEAK
  59:Drivers/CMSIS/Include/cmsis_gcc.h ****   #define __WEAK                                 __attribute__((weak))
  60:Drivers/CMSIS/Include/cmsis_gcc.h **** #endif
  61:Drivers/CMSIS/Include/cmsis_gcc.h **** #ifndef   __PACKED
  62:Drivers/CMSIS/Include/cmsis_gcc.h ****   #define __PACKED                               __attribute__((packed, aligned(1)))
  63:Drivers/CMSIS/Include/cmsis_gcc.h **** #endif
  64:Drivers/CMSIS/Include/cmsis_gcc.h **** #ifndef   __PACKED_STRUCT
  65:Drivers/CMSIS/Include/cmsis_gcc.h ****   #define __PACKED_STRUCT                        struct __attribute__((packed, aligned(1)))
  66:Drivers/CMSIS/Include/cmsis_gcc.h **** #endif
  67:Drivers/CMSIS/Include/cmsis_gcc.h **** #ifndef   __PACKED_UNION
  68:Drivers/CMSIS/Include/cmsis_gcc.h ****   #define __PACKED_UNION                         union __attribute__((packed, aligned(1)))
  69:Drivers/CMSIS/Include/cmsis_gcc.h **** #endif
  70:Drivers/CMSIS/Include/cmsis_gcc.h **** #ifndef   __UNALIGNED_UINT32        /* deprecated */
  71:Drivers/CMSIS/Include/cmsis_gcc.h ****   #pragma GCC diagnostic push
  72:Drivers/CMSIS/Include/cmsis_gcc.h ****   #pragma GCC diagnostic ignored "-Wpacked"
  73:Drivers/CMSIS/Include/cmsis_gcc.h ****   #pragma GCC diagnostic ignored "-Wattributes"
  74:Drivers/CMSIS/Include/cmsis_gcc.h ****   struct __attribute__((packed)) T_UINT32 { uint32_t v; };
  75:Drivers/CMSIS/Include/cmsis_gcc.h ****   #pragma GCC diagnostic pop
  76:Drivers/CMSIS/Include/cmsis_gcc.h ****   #define __UNALIGNED_UINT32(x)                  (((struct T_UINT32 *)(x))->v)
  77:Drivers/CMSIS/Include/cmsis_gcc.h **** #endif
  78:Drivers/CMSIS/Include/cmsis_gcc.h **** #ifndef   __UNALIGNED_UINT16_WRITE
  79:Drivers/CMSIS/Include/cmsis_gcc.h ****   #pragma GCC diagnostic push
ARM GAS  /tmp/cc3XjLgi.s 			page 10


  80:Drivers/CMSIS/Include/cmsis_gcc.h ****   #pragma GCC diagnostic ignored "-Wpacked"
  81:Drivers/CMSIS/Include/cmsis_gcc.h ****   #pragma GCC diagnostic ignored "-Wattributes"
  82:Drivers/CMSIS/Include/cmsis_gcc.h ****   __PACKED_STRUCT T_UINT16_WRITE { uint16_t v; };
  83:Drivers/CMSIS/Include/cmsis_gcc.h ****   #pragma GCC diagnostic pop
  84:Drivers/CMSIS/Include/cmsis_gcc.h ****   #define __UNALIGNED_UINT16_WRITE(addr, val)    (void)((((struct T_UINT16_WRITE *)(void *)(addr))-
  85:Drivers/CMSIS/Include/cmsis_gcc.h **** #endif
  86:Drivers/CMSIS/Include/cmsis_gcc.h **** #ifndef   __UNALIGNED_UINT16_READ
  87:Drivers/CMSIS/Include/cmsis_gcc.h ****   #pragma GCC diagnostic push
  88:Drivers/CMSIS/Include/cmsis_gcc.h ****   #pragma GCC diagnostic ignored "-Wpacked"
  89:Drivers/CMSIS/Include/cmsis_gcc.h ****   #pragma GCC diagnostic ignored "-Wattributes"
  90:Drivers/CMSIS/Include/cmsis_gcc.h ****   __PACKED_STRUCT T_UINT16_READ { uint16_t v; };
  91:Drivers/CMSIS/Include/cmsis_gcc.h ****   #pragma GCC diagnostic pop
  92:Drivers/CMSIS/Include/cmsis_gcc.h ****   #define __UNALIGNED_UINT16_READ(addr)          (((const struct T_UINT16_READ *)(const void *)(add
  93:Drivers/CMSIS/Include/cmsis_gcc.h **** #endif
  94:Drivers/CMSIS/Include/cmsis_gcc.h **** #ifndef   __UNALIGNED_UINT32_WRITE
  95:Drivers/CMSIS/Include/cmsis_gcc.h ****   #pragma GCC diagnostic push
  96:Drivers/CMSIS/Include/cmsis_gcc.h ****   #pragma GCC diagnostic ignored "-Wpacked"
  97:Drivers/CMSIS/Include/cmsis_gcc.h ****   #pragma GCC diagnostic ignored "-Wattributes"
  98:Drivers/CMSIS/Include/cmsis_gcc.h ****   __PACKED_STRUCT T_UINT32_WRITE { uint32_t v; };
  99:Drivers/CMSIS/Include/cmsis_gcc.h ****   #pragma GCC diagnostic pop
 100:Drivers/CMSIS/Include/cmsis_gcc.h ****   #define __UNALIGNED_UINT32_WRITE(addr, val)    (void)((((struct T_UINT32_WRITE *)(void *)(addr))-
 101:Drivers/CMSIS/Include/cmsis_gcc.h **** #endif
 102:Drivers/CMSIS/Include/cmsis_gcc.h **** #ifndef   __UNALIGNED_UINT32_READ
 103:Drivers/CMSIS/Include/cmsis_gcc.h ****   #pragma GCC diagnostic push
 104:Drivers/CMSIS/Include/cmsis_gcc.h ****   #pragma GCC diagnostic ignored "-Wpacked"
 105:Drivers/CMSIS/Include/cmsis_gcc.h ****   #pragma GCC diagnostic ignored "-Wattributes"
 106:Drivers/CMSIS/Include/cmsis_gcc.h ****   __PACKED_STRUCT T_UINT32_READ { uint32_t v; };
 107:Drivers/CMSIS/Include/cmsis_gcc.h ****   #pragma GCC diagnostic pop
 108:Drivers/CMSIS/Include/cmsis_gcc.h ****   #define __UNALIGNED_UINT32_READ(addr)          (((const struct T_UINT32_READ *)(const void *)(add
 109:Drivers/CMSIS/Include/cmsis_gcc.h **** #endif
 110:Drivers/CMSIS/Include/cmsis_gcc.h **** #ifndef   __ALIGNED
 111:Drivers/CMSIS/Include/cmsis_gcc.h ****   #define __ALIGNED(x)                           __attribute__((aligned(x)))
 112:Drivers/CMSIS/Include/cmsis_gcc.h **** #endif
 113:Drivers/CMSIS/Include/cmsis_gcc.h **** #ifndef   __RESTRICT
 114:Drivers/CMSIS/Include/cmsis_gcc.h ****   #define __RESTRICT                             __restrict
 115:Drivers/CMSIS/Include/cmsis_gcc.h **** #endif
 116:Drivers/CMSIS/Include/cmsis_gcc.h **** 
 117:Drivers/CMSIS/Include/cmsis_gcc.h **** 
 118:Drivers/CMSIS/Include/cmsis_gcc.h **** /* ###########################  Core Function Access  ########################### */
 119:Drivers/CMSIS/Include/cmsis_gcc.h **** /** \ingroup  CMSIS_Core_FunctionInterface
 120:Drivers/CMSIS/Include/cmsis_gcc.h ****     \defgroup CMSIS_Core_RegAccFunctions CMSIS Core Register Access Functions
 121:Drivers/CMSIS/Include/cmsis_gcc.h ****   @{
 122:Drivers/CMSIS/Include/cmsis_gcc.h ****  */
 123:Drivers/CMSIS/Include/cmsis_gcc.h **** 
 124:Drivers/CMSIS/Include/cmsis_gcc.h **** /**
 125:Drivers/CMSIS/Include/cmsis_gcc.h ****   \brief   Enable IRQ Interrupts
 126:Drivers/CMSIS/Include/cmsis_gcc.h ****   \details Enables IRQ interrupts by clearing the I-bit in the CPSR.
 127:Drivers/CMSIS/Include/cmsis_gcc.h ****            Can only be executed in Privileged modes.
 128:Drivers/CMSIS/Include/cmsis_gcc.h ****  */
 129:Drivers/CMSIS/Include/cmsis_gcc.h **** __STATIC_FORCEINLINE void __enable_irq(void)
 130:Drivers/CMSIS/Include/cmsis_gcc.h **** {
 131:Drivers/CMSIS/Include/cmsis_gcc.h ****   __ASM volatile ("cpsie i" : : : "memory");
 132:Drivers/CMSIS/Include/cmsis_gcc.h **** }
 133:Drivers/CMSIS/Include/cmsis_gcc.h **** 
 134:Drivers/CMSIS/Include/cmsis_gcc.h **** 
 135:Drivers/CMSIS/Include/cmsis_gcc.h **** /**
 136:Drivers/CMSIS/Include/cmsis_gcc.h ****   \brief   Disable IRQ Interrupts
ARM GAS  /tmp/cc3XjLgi.s 			page 11


 137:Drivers/CMSIS/Include/cmsis_gcc.h ****   \details Disables IRQ interrupts by setting the I-bit in the CPSR.
 138:Drivers/CMSIS/Include/cmsis_gcc.h ****            Can only be executed in Privileged modes.
 139:Drivers/CMSIS/Include/cmsis_gcc.h ****  */
 140:Drivers/CMSIS/Include/cmsis_gcc.h **** __STATIC_FORCEINLINE void __disable_irq(void)
 141:Drivers/CMSIS/Include/cmsis_gcc.h **** {
 142:Drivers/CMSIS/Include/cmsis_gcc.h ****   __ASM volatile ("cpsid i" : : : "memory");
 143:Drivers/CMSIS/Include/cmsis_gcc.h **** }
 144:Drivers/CMSIS/Include/cmsis_gcc.h **** 
 145:Drivers/CMSIS/Include/cmsis_gcc.h **** 
 146:Drivers/CMSIS/Include/cmsis_gcc.h **** /**
 147:Drivers/CMSIS/Include/cmsis_gcc.h ****   \brief   Get Control Register
 148:Drivers/CMSIS/Include/cmsis_gcc.h ****   \details Returns the content of the Control Register.
 149:Drivers/CMSIS/Include/cmsis_gcc.h ****   \return               Control Register value
 150:Drivers/CMSIS/Include/cmsis_gcc.h ****  */
 151:Drivers/CMSIS/Include/cmsis_gcc.h **** __STATIC_FORCEINLINE uint32_t __get_CONTROL(void)
 152:Drivers/CMSIS/Include/cmsis_gcc.h **** {
 153:Drivers/CMSIS/Include/cmsis_gcc.h ****   uint32_t result;
 154:Drivers/CMSIS/Include/cmsis_gcc.h **** 
 155:Drivers/CMSIS/Include/cmsis_gcc.h ****   __ASM volatile ("MRS %0, control" : "=r" (result) );
 156:Drivers/CMSIS/Include/cmsis_gcc.h ****   return(result);
 157:Drivers/CMSIS/Include/cmsis_gcc.h **** }
 158:Drivers/CMSIS/Include/cmsis_gcc.h **** 
 159:Drivers/CMSIS/Include/cmsis_gcc.h **** 
 160:Drivers/CMSIS/Include/cmsis_gcc.h **** #if (defined (__ARM_FEATURE_CMSE ) && (__ARM_FEATURE_CMSE == 3))
 161:Drivers/CMSIS/Include/cmsis_gcc.h **** /**
 162:Drivers/CMSIS/Include/cmsis_gcc.h ****   \brief   Get Control Register (non-secure)
 163:Drivers/CMSIS/Include/cmsis_gcc.h ****   \details Returns the content of the non-secure Control Register when in secure mode.
 164:Drivers/CMSIS/Include/cmsis_gcc.h ****   \return               non-secure Control Register value
 165:Drivers/CMSIS/Include/cmsis_gcc.h ****  */
 166:Drivers/CMSIS/Include/cmsis_gcc.h **** __STATIC_FORCEINLINE uint32_t __TZ_get_CONTROL_NS(void)
 167:Drivers/CMSIS/Include/cmsis_gcc.h **** {
 168:Drivers/CMSIS/Include/cmsis_gcc.h ****   uint32_t result;
 169:Drivers/CMSIS/Include/cmsis_gcc.h **** 
 170:Drivers/CMSIS/Include/cmsis_gcc.h ****   __ASM volatile ("MRS %0, control_ns" : "=r" (result) );
 171:Drivers/CMSIS/Include/cmsis_gcc.h ****   return(result);
 172:Drivers/CMSIS/Include/cmsis_gcc.h **** }
 173:Drivers/CMSIS/Include/cmsis_gcc.h **** #endif
 174:Drivers/CMSIS/Include/cmsis_gcc.h **** 
 175:Drivers/CMSIS/Include/cmsis_gcc.h **** 
 176:Drivers/CMSIS/Include/cmsis_gcc.h **** /**
 177:Drivers/CMSIS/Include/cmsis_gcc.h ****   \brief   Set Control Register
 178:Drivers/CMSIS/Include/cmsis_gcc.h ****   \details Writes the given value to the Control Register.
 179:Drivers/CMSIS/Include/cmsis_gcc.h ****   \param [in]    control  Control Register value to set
 180:Drivers/CMSIS/Include/cmsis_gcc.h ****  */
 181:Drivers/CMSIS/Include/cmsis_gcc.h **** __STATIC_FORCEINLINE void __set_CONTROL(uint32_t control)
 182:Drivers/CMSIS/Include/cmsis_gcc.h **** {
 183:Drivers/CMSIS/Include/cmsis_gcc.h ****   __ASM volatile ("MSR control, %0" : : "r" (control) : "memory");
 184:Drivers/CMSIS/Include/cmsis_gcc.h **** }
 185:Drivers/CMSIS/Include/cmsis_gcc.h **** 
 186:Drivers/CMSIS/Include/cmsis_gcc.h **** 
 187:Drivers/CMSIS/Include/cmsis_gcc.h **** #if (defined (__ARM_FEATURE_CMSE ) && (__ARM_FEATURE_CMSE == 3))
 188:Drivers/CMSIS/Include/cmsis_gcc.h **** /**
 189:Drivers/CMSIS/Include/cmsis_gcc.h ****   \brief   Set Control Register (non-secure)
 190:Drivers/CMSIS/Include/cmsis_gcc.h ****   \details Writes the given value to the non-secure Control Register when in secure state.
 191:Drivers/CMSIS/Include/cmsis_gcc.h ****   \param [in]    control  Control Register value to set
 192:Drivers/CMSIS/Include/cmsis_gcc.h ****  */
 193:Drivers/CMSIS/Include/cmsis_gcc.h **** __STATIC_FORCEINLINE void __TZ_set_CONTROL_NS(uint32_t control)
ARM GAS  /tmp/cc3XjLgi.s 			page 12


 194:Drivers/CMSIS/Include/cmsis_gcc.h **** {
 195:Drivers/CMSIS/Include/cmsis_gcc.h ****   __ASM volatile ("MSR control_ns, %0" : : "r" (control) : "memory");
 196:Drivers/CMSIS/Include/cmsis_gcc.h **** }
 197:Drivers/CMSIS/Include/cmsis_gcc.h **** #endif
 198:Drivers/CMSIS/Include/cmsis_gcc.h **** 
 199:Drivers/CMSIS/Include/cmsis_gcc.h **** 
 200:Drivers/CMSIS/Include/cmsis_gcc.h **** /**
 201:Drivers/CMSIS/Include/cmsis_gcc.h ****   \brief   Get IPSR Register
 202:Drivers/CMSIS/Include/cmsis_gcc.h ****   \details Returns the content of the IPSR Register.
 203:Drivers/CMSIS/Include/cmsis_gcc.h ****   \return               IPSR Register value
 204:Drivers/CMSIS/Include/cmsis_gcc.h ****  */
 205:Drivers/CMSIS/Include/cmsis_gcc.h **** __STATIC_FORCEINLINE uint32_t __get_IPSR(void)
 206:Drivers/CMSIS/Include/cmsis_gcc.h **** {
 207:Drivers/CMSIS/Include/cmsis_gcc.h ****   uint32_t result;
 208:Drivers/CMSIS/Include/cmsis_gcc.h **** 
 209:Drivers/CMSIS/Include/cmsis_gcc.h ****   __ASM volatile ("MRS %0, ipsr" : "=r" (result) );
 210:Drivers/CMSIS/Include/cmsis_gcc.h ****   return(result);
 211:Drivers/CMSIS/Include/cmsis_gcc.h **** }
 212:Drivers/CMSIS/Include/cmsis_gcc.h **** 
 213:Drivers/CMSIS/Include/cmsis_gcc.h **** 
 214:Drivers/CMSIS/Include/cmsis_gcc.h **** /**
 215:Drivers/CMSIS/Include/cmsis_gcc.h ****   \brief   Get APSR Register
 216:Drivers/CMSIS/Include/cmsis_gcc.h ****   \details Returns the content of the APSR Register.
 217:Drivers/CMSIS/Include/cmsis_gcc.h ****   \return               APSR Register value
 218:Drivers/CMSIS/Include/cmsis_gcc.h ****  */
 219:Drivers/CMSIS/Include/cmsis_gcc.h **** __STATIC_FORCEINLINE uint32_t __get_APSR(void)
 220:Drivers/CMSIS/Include/cmsis_gcc.h **** {
 221:Drivers/CMSIS/Include/cmsis_gcc.h ****   uint32_t result;
 222:Drivers/CMSIS/Include/cmsis_gcc.h **** 
 223:Drivers/CMSIS/Include/cmsis_gcc.h ****   __ASM volatile ("MRS %0, apsr" : "=r" (result) );
 224:Drivers/CMSIS/Include/cmsis_gcc.h ****   return(result);
 225:Drivers/CMSIS/Include/cmsis_gcc.h **** }
 226:Drivers/CMSIS/Include/cmsis_gcc.h **** 
 227:Drivers/CMSIS/Include/cmsis_gcc.h **** 
 228:Drivers/CMSIS/Include/cmsis_gcc.h **** /**
 229:Drivers/CMSIS/Include/cmsis_gcc.h ****   \brief   Get xPSR Register
 230:Drivers/CMSIS/Include/cmsis_gcc.h ****   \details Returns the content of the xPSR Register.
 231:Drivers/CMSIS/Include/cmsis_gcc.h ****   \return               xPSR Register value
 232:Drivers/CMSIS/Include/cmsis_gcc.h ****  */
 233:Drivers/CMSIS/Include/cmsis_gcc.h **** __STATIC_FORCEINLINE uint32_t __get_xPSR(void)
 234:Drivers/CMSIS/Include/cmsis_gcc.h **** {
 235:Drivers/CMSIS/Include/cmsis_gcc.h ****   uint32_t result;
 236:Drivers/CMSIS/Include/cmsis_gcc.h **** 
 237:Drivers/CMSIS/Include/cmsis_gcc.h ****   __ASM volatile ("MRS %0, xpsr" : "=r" (result) );
 238:Drivers/CMSIS/Include/cmsis_gcc.h ****   return(result);
 239:Drivers/CMSIS/Include/cmsis_gcc.h **** }
 240:Drivers/CMSIS/Include/cmsis_gcc.h **** 
 241:Drivers/CMSIS/Include/cmsis_gcc.h **** 
 242:Drivers/CMSIS/Include/cmsis_gcc.h **** /**
 243:Drivers/CMSIS/Include/cmsis_gcc.h ****   \brief   Get Process Stack Pointer
 244:Drivers/CMSIS/Include/cmsis_gcc.h ****   \details Returns the current value of the Process Stack Pointer (PSP).
 245:Drivers/CMSIS/Include/cmsis_gcc.h ****   \return               PSP Register value
 246:Drivers/CMSIS/Include/cmsis_gcc.h ****  */
 247:Drivers/CMSIS/Include/cmsis_gcc.h **** __STATIC_FORCEINLINE uint32_t __get_PSP(void)
 248:Drivers/CMSIS/Include/cmsis_gcc.h **** {
 249:Drivers/CMSIS/Include/cmsis_gcc.h ****   uint32_t result;
 250:Drivers/CMSIS/Include/cmsis_gcc.h **** 
ARM GAS  /tmp/cc3XjLgi.s 			page 13


 251:Drivers/CMSIS/Include/cmsis_gcc.h ****   __ASM volatile ("MRS %0, psp"  : "=r" (result) );
 252:Drivers/CMSIS/Include/cmsis_gcc.h ****   return(result);
 253:Drivers/CMSIS/Include/cmsis_gcc.h **** }
 254:Drivers/CMSIS/Include/cmsis_gcc.h **** 
 255:Drivers/CMSIS/Include/cmsis_gcc.h **** 
 256:Drivers/CMSIS/Include/cmsis_gcc.h **** #if (defined (__ARM_FEATURE_CMSE ) && (__ARM_FEATURE_CMSE == 3))
 257:Drivers/CMSIS/Include/cmsis_gcc.h **** /**
 258:Drivers/CMSIS/Include/cmsis_gcc.h ****   \brief   Get Process Stack Pointer (non-secure)
 259:Drivers/CMSIS/Include/cmsis_gcc.h ****   \details Returns the current value of the non-secure Process Stack Pointer (PSP) when in secure s
 260:Drivers/CMSIS/Include/cmsis_gcc.h ****   \return               PSP Register value
 261:Drivers/CMSIS/Include/cmsis_gcc.h ****  */
 262:Drivers/CMSIS/Include/cmsis_gcc.h **** __STATIC_FORCEINLINE uint32_t __TZ_get_PSP_NS(void)
 263:Drivers/CMSIS/Include/cmsis_gcc.h **** {
 264:Drivers/CMSIS/Include/cmsis_gcc.h ****   uint32_t result;
 265:Drivers/CMSIS/Include/cmsis_gcc.h **** 
 266:Drivers/CMSIS/Include/cmsis_gcc.h ****   __ASM volatile ("MRS %0, psp_ns"  : "=r" (result) );
 267:Drivers/CMSIS/Include/cmsis_gcc.h ****   return(result);
 268:Drivers/CMSIS/Include/cmsis_gcc.h **** }
 269:Drivers/CMSIS/Include/cmsis_gcc.h **** #endif
 270:Drivers/CMSIS/Include/cmsis_gcc.h **** 
 271:Drivers/CMSIS/Include/cmsis_gcc.h **** 
 272:Drivers/CMSIS/Include/cmsis_gcc.h **** /**
 273:Drivers/CMSIS/Include/cmsis_gcc.h ****   \brief   Set Process Stack Pointer
 274:Drivers/CMSIS/Include/cmsis_gcc.h ****   \details Assigns the given value to the Process Stack Pointer (PSP).
 275:Drivers/CMSIS/Include/cmsis_gcc.h ****   \param [in]    topOfProcStack  Process Stack Pointer value to set
 276:Drivers/CMSIS/Include/cmsis_gcc.h ****  */
 277:Drivers/CMSIS/Include/cmsis_gcc.h **** __STATIC_FORCEINLINE void __set_PSP(uint32_t topOfProcStack)
 278:Drivers/CMSIS/Include/cmsis_gcc.h **** {
 279:Drivers/CMSIS/Include/cmsis_gcc.h ****   __ASM volatile ("MSR psp, %0" : : "r" (topOfProcStack) : );
 280:Drivers/CMSIS/Include/cmsis_gcc.h **** }
 281:Drivers/CMSIS/Include/cmsis_gcc.h **** 
 282:Drivers/CMSIS/Include/cmsis_gcc.h **** 
 283:Drivers/CMSIS/Include/cmsis_gcc.h **** #if (defined (__ARM_FEATURE_CMSE ) && (__ARM_FEATURE_CMSE == 3))
 284:Drivers/CMSIS/Include/cmsis_gcc.h **** /**
 285:Drivers/CMSIS/Include/cmsis_gcc.h ****   \brief   Set Process Stack Pointer (non-secure)
 286:Drivers/CMSIS/Include/cmsis_gcc.h ****   \details Assigns the given value to the non-secure Process Stack Pointer (PSP) when in secure sta
 287:Drivers/CMSIS/Include/cmsis_gcc.h ****   \param [in]    topOfProcStack  Process Stack Pointer value to set
 288:Drivers/CMSIS/Include/cmsis_gcc.h ****  */
 289:Drivers/CMSIS/Include/cmsis_gcc.h **** __STATIC_FORCEINLINE void __TZ_set_PSP_NS(uint32_t topOfProcStack)
 290:Drivers/CMSIS/Include/cmsis_gcc.h **** {
 291:Drivers/CMSIS/Include/cmsis_gcc.h ****   __ASM volatile ("MSR psp_ns, %0" : : "r" (topOfProcStack) : );
 292:Drivers/CMSIS/Include/cmsis_gcc.h **** }
 293:Drivers/CMSIS/Include/cmsis_gcc.h **** #endif
 294:Drivers/CMSIS/Include/cmsis_gcc.h **** 
 295:Drivers/CMSIS/Include/cmsis_gcc.h **** 
 296:Drivers/CMSIS/Include/cmsis_gcc.h **** /**
 297:Drivers/CMSIS/Include/cmsis_gcc.h ****   \brief   Get Main Stack Pointer
 298:Drivers/CMSIS/Include/cmsis_gcc.h ****   \details Returns the current value of the Main Stack Pointer (MSP).
 299:Drivers/CMSIS/Include/cmsis_gcc.h ****   \return               MSP Register value
 300:Drivers/CMSIS/Include/cmsis_gcc.h ****  */
 301:Drivers/CMSIS/Include/cmsis_gcc.h **** __STATIC_FORCEINLINE uint32_t __get_MSP(void)
 302:Drivers/CMSIS/Include/cmsis_gcc.h **** {
 303:Drivers/CMSIS/Include/cmsis_gcc.h ****   uint32_t result;
 304:Drivers/CMSIS/Include/cmsis_gcc.h **** 
 305:Drivers/CMSIS/Include/cmsis_gcc.h ****   __ASM volatile ("MRS %0, msp" : "=r" (result) );
 306:Drivers/CMSIS/Include/cmsis_gcc.h ****   return(result);
 307:Drivers/CMSIS/Include/cmsis_gcc.h **** }
ARM GAS  /tmp/cc3XjLgi.s 			page 14


 308:Drivers/CMSIS/Include/cmsis_gcc.h **** 
 309:Drivers/CMSIS/Include/cmsis_gcc.h **** 
 310:Drivers/CMSIS/Include/cmsis_gcc.h **** #if (defined (__ARM_FEATURE_CMSE ) && (__ARM_FEATURE_CMSE == 3))
 311:Drivers/CMSIS/Include/cmsis_gcc.h **** /**
 312:Drivers/CMSIS/Include/cmsis_gcc.h ****   \brief   Get Main Stack Pointer (non-secure)
 313:Drivers/CMSIS/Include/cmsis_gcc.h ****   \details Returns the current value of the non-secure Main Stack Pointer (MSP) when in secure stat
 314:Drivers/CMSIS/Include/cmsis_gcc.h ****   \return               MSP Register value
 315:Drivers/CMSIS/Include/cmsis_gcc.h ****  */
 316:Drivers/CMSIS/Include/cmsis_gcc.h **** __STATIC_FORCEINLINE uint32_t __TZ_get_MSP_NS(void)
 317:Drivers/CMSIS/Include/cmsis_gcc.h **** {
 318:Drivers/CMSIS/Include/cmsis_gcc.h ****   uint32_t result;
 319:Drivers/CMSIS/Include/cmsis_gcc.h **** 
 320:Drivers/CMSIS/Include/cmsis_gcc.h ****   __ASM volatile ("MRS %0, msp_ns" : "=r" (result) );
 321:Drivers/CMSIS/Include/cmsis_gcc.h ****   return(result);
 322:Drivers/CMSIS/Include/cmsis_gcc.h **** }
 323:Drivers/CMSIS/Include/cmsis_gcc.h **** #endif
 324:Drivers/CMSIS/Include/cmsis_gcc.h **** 
 325:Drivers/CMSIS/Include/cmsis_gcc.h **** 
 326:Drivers/CMSIS/Include/cmsis_gcc.h **** /**
 327:Drivers/CMSIS/Include/cmsis_gcc.h ****   \brief   Set Main Stack Pointer
 328:Drivers/CMSIS/Include/cmsis_gcc.h ****   \details Assigns the given value to the Main Stack Pointer (MSP).
 329:Drivers/CMSIS/Include/cmsis_gcc.h ****   \param [in]    topOfMainStack  Main Stack Pointer value to set
 330:Drivers/CMSIS/Include/cmsis_gcc.h ****  */
 331:Drivers/CMSIS/Include/cmsis_gcc.h **** __STATIC_FORCEINLINE void __set_MSP(uint32_t topOfMainStack)
 332:Drivers/CMSIS/Include/cmsis_gcc.h **** {
 333:Drivers/CMSIS/Include/cmsis_gcc.h ****   __ASM volatile ("MSR msp, %0" : : "r" (topOfMainStack) : );
 334:Drivers/CMSIS/Include/cmsis_gcc.h **** }
 335:Drivers/CMSIS/Include/cmsis_gcc.h **** 
 336:Drivers/CMSIS/Include/cmsis_gcc.h **** 
 337:Drivers/CMSIS/Include/cmsis_gcc.h **** #if (defined (__ARM_FEATURE_CMSE ) && (__ARM_FEATURE_CMSE == 3))
 338:Drivers/CMSIS/Include/cmsis_gcc.h **** /**
 339:Drivers/CMSIS/Include/cmsis_gcc.h ****   \brief   Set Main Stack Pointer (non-secure)
 340:Drivers/CMSIS/Include/cmsis_gcc.h ****   \details Assigns the given value to the non-secure Main Stack Pointer (MSP) when in secure state.
 341:Drivers/CMSIS/Include/cmsis_gcc.h ****   \param [in]    topOfMainStack  Main Stack Pointer value to set
 342:Drivers/CMSIS/Include/cmsis_gcc.h ****  */
 343:Drivers/CMSIS/Include/cmsis_gcc.h **** __STATIC_FORCEINLINE void __TZ_set_MSP_NS(uint32_t topOfMainStack)
 344:Drivers/CMSIS/Include/cmsis_gcc.h **** {
 345:Drivers/CMSIS/Include/cmsis_gcc.h ****   __ASM volatile ("MSR msp_ns, %0" : : "r" (topOfMainStack) : );
 346:Drivers/CMSIS/Include/cmsis_gcc.h **** }
 347:Drivers/CMSIS/Include/cmsis_gcc.h **** #endif
 348:Drivers/CMSIS/Include/cmsis_gcc.h **** 
 349:Drivers/CMSIS/Include/cmsis_gcc.h **** 
 350:Drivers/CMSIS/Include/cmsis_gcc.h **** #if (defined (__ARM_FEATURE_CMSE ) && (__ARM_FEATURE_CMSE == 3))
 351:Drivers/CMSIS/Include/cmsis_gcc.h **** /**
 352:Drivers/CMSIS/Include/cmsis_gcc.h ****   \brief   Get Stack Pointer (non-secure)
 353:Drivers/CMSIS/Include/cmsis_gcc.h ****   \details Returns the current value of the non-secure Stack Pointer (SP) when in secure state.
 354:Drivers/CMSIS/Include/cmsis_gcc.h ****   \return               SP Register value
 355:Drivers/CMSIS/Include/cmsis_gcc.h ****  */
 356:Drivers/CMSIS/Include/cmsis_gcc.h **** __STATIC_FORCEINLINE uint32_t __TZ_get_SP_NS(void)
 357:Drivers/CMSIS/Include/cmsis_gcc.h **** {
 358:Drivers/CMSIS/Include/cmsis_gcc.h ****   uint32_t result;
 359:Drivers/CMSIS/Include/cmsis_gcc.h **** 
 360:Drivers/CMSIS/Include/cmsis_gcc.h ****   __ASM volatile ("MRS %0, sp_ns" : "=r" (result) );
 361:Drivers/CMSIS/Include/cmsis_gcc.h ****   return(result);
 362:Drivers/CMSIS/Include/cmsis_gcc.h **** }
 363:Drivers/CMSIS/Include/cmsis_gcc.h **** 
 364:Drivers/CMSIS/Include/cmsis_gcc.h **** 
ARM GAS  /tmp/cc3XjLgi.s 			page 15


 365:Drivers/CMSIS/Include/cmsis_gcc.h **** /**
 366:Drivers/CMSIS/Include/cmsis_gcc.h ****   \brief   Set Stack Pointer (non-secure)
 367:Drivers/CMSIS/Include/cmsis_gcc.h ****   \details Assigns the given value to the non-secure Stack Pointer (SP) when in secure state.
 368:Drivers/CMSIS/Include/cmsis_gcc.h ****   \param [in]    topOfStack  Stack Pointer value to set
 369:Drivers/CMSIS/Include/cmsis_gcc.h ****  */
 370:Drivers/CMSIS/Include/cmsis_gcc.h **** __STATIC_FORCEINLINE void __TZ_set_SP_NS(uint32_t topOfStack)
 371:Drivers/CMSIS/Include/cmsis_gcc.h **** {
 372:Drivers/CMSIS/Include/cmsis_gcc.h ****   __ASM volatile ("MSR sp_ns, %0" : : "r" (topOfStack) : );
 373:Drivers/CMSIS/Include/cmsis_gcc.h **** }
 374:Drivers/CMSIS/Include/cmsis_gcc.h **** #endif
 375:Drivers/CMSIS/Include/cmsis_gcc.h **** 
 376:Drivers/CMSIS/Include/cmsis_gcc.h **** 
 377:Drivers/CMSIS/Include/cmsis_gcc.h **** /**
 378:Drivers/CMSIS/Include/cmsis_gcc.h ****   \brief   Get Priority Mask
 379:Drivers/CMSIS/Include/cmsis_gcc.h ****   \details Returns the current state of the priority mask bit from the Priority Mask Register.
 380:Drivers/CMSIS/Include/cmsis_gcc.h ****   \return               Priority Mask value
 381:Drivers/CMSIS/Include/cmsis_gcc.h ****  */
 382:Drivers/CMSIS/Include/cmsis_gcc.h **** __STATIC_FORCEINLINE uint32_t __get_PRIMASK(void)
 383:Drivers/CMSIS/Include/cmsis_gcc.h **** {
 384:Drivers/CMSIS/Include/cmsis_gcc.h ****   uint32_t result;
 385:Drivers/CMSIS/Include/cmsis_gcc.h **** 
 386:Drivers/CMSIS/Include/cmsis_gcc.h ****   __ASM volatile ("MRS %0, primask" : "=r" (result) :: "memory");
 387:Drivers/CMSIS/Include/cmsis_gcc.h ****   return(result);
 388:Drivers/CMSIS/Include/cmsis_gcc.h **** }
 389:Drivers/CMSIS/Include/cmsis_gcc.h **** 
 390:Drivers/CMSIS/Include/cmsis_gcc.h **** 
 391:Drivers/CMSIS/Include/cmsis_gcc.h **** #if (defined (__ARM_FEATURE_CMSE ) && (__ARM_FEATURE_CMSE == 3))
 392:Drivers/CMSIS/Include/cmsis_gcc.h **** /**
 393:Drivers/CMSIS/Include/cmsis_gcc.h ****   \brief   Get Priority Mask (non-secure)
 394:Drivers/CMSIS/Include/cmsis_gcc.h ****   \details Returns the current state of the non-secure priority mask bit from the Priority Mask Reg
 395:Drivers/CMSIS/Include/cmsis_gcc.h ****   \return               Priority Mask value
 396:Drivers/CMSIS/Include/cmsis_gcc.h ****  */
 397:Drivers/CMSIS/Include/cmsis_gcc.h **** __STATIC_FORCEINLINE uint32_t __TZ_get_PRIMASK_NS(void)
 398:Drivers/CMSIS/Include/cmsis_gcc.h **** {
 399:Drivers/CMSIS/Include/cmsis_gcc.h ****   uint32_t result;
 400:Drivers/CMSIS/Include/cmsis_gcc.h **** 
 401:Drivers/CMSIS/Include/cmsis_gcc.h ****   __ASM volatile ("MRS %0, primask_ns" : "=r" (result) :: "memory");
 402:Drivers/CMSIS/Include/cmsis_gcc.h ****   return(result);
 403:Drivers/CMSIS/Include/cmsis_gcc.h **** }
 404:Drivers/CMSIS/Include/cmsis_gcc.h **** #endif
 405:Drivers/CMSIS/Include/cmsis_gcc.h **** 
 406:Drivers/CMSIS/Include/cmsis_gcc.h **** 
 407:Drivers/CMSIS/Include/cmsis_gcc.h **** /**
 408:Drivers/CMSIS/Include/cmsis_gcc.h ****   \brief   Set Priority Mask
 409:Drivers/CMSIS/Include/cmsis_gcc.h ****   \details Assigns the given value to the Priority Mask Register.
 410:Drivers/CMSIS/Include/cmsis_gcc.h ****   \param [in]    priMask  Priority Mask
 411:Drivers/CMSIS/Include/cmsis_gcc.h ****  */
 412:Drivers/CMSIS/Include/cmsis_gcc.h **** __STATIC_FORCEINLINE void __set_PRIMASK(uint32_t priMask)
 413:Drivers/CMSIS/Include/cmsis_gcc.h **** {
 414:Drivers/CMSIS/Include/cmsis_gcc.h ****   __ASM volatile ("MSR primask, %0" : : "r" (priMask) : "memory");
 415:Drivers/CMSIS/Include/cmsis_gcc.h **** }
 416:Drivers/CMSIS/Include/cmsis_gcc.h **** 
 417:Drivers/CMSIS/Include/cmsis_gcc.h **** 
 418:Drivers/CMSIS/Include/cmsis_gcc.h **** #if (defined (__ARM_FEATURE_CMSE ) && (__ARM_FEATURE_CMSE == 3))
 419:Drivers/CMSIS/Include/cmsis_gcc.h **** /**
 420:Drivers/CMSIS/Include/cmsis_gcc.h ****   \brief   Set Priority Mask (non-secure)
 421:Drivers/CMSIS/Include/cmsis_gcc.h ****   \details Assigns the given value to the non-secure Priority Mask Register when in secure state.
ARM GAS  /tmp/cc3XjLgi.s 			page 16


 422:Drivers/CMSIS/Include/cmsis_gcc.h ****   \param [in]    priMask  Priority Mask
 423:Drivers/CMSIS/Include/cmsis_gcc.h ****  */
 424:Drivers/CMSIS/Include/cmsis_gcc.h **** __STATIC_FORCEINLINE void __TZ_set_PRIMASK_NS(uint32_t priMask)
 425:Drivers/CMSIS/Include/cmsis_gcc.h **** {
 426:Drivers/CMSIS/Include/cmsis_gcc.h ****   __ASM volatile ("MSR primask_ns, %0" : : "r" (priMask) : "memory");
 427:Drivers/CMSIS/Include/cmsis_gcc.h **** }
 428:Drivers/CMSIS/Include/cmsis_gcc.h **** #endif
 429:Drivers/CMSIS/Include/cmsis_gcc.h **** 
 430:Drivers/CMSIS/Include/cmsis_gcc.h **** 
 431:Drivers/CMSIS/Include/cmsis_gcc.h **** #if ((defined (__ARM_ARCH_7M__      ) && (__ARM_ARCH_7M__      == 1)) || \
 432:Drivers/CMSIS/Include/cmsis_gcc.h ****      (defined (__ARM_ARCH_7EM__     ) && (__ARM_ARCH_7EM__     == 1)) || \
 433:Drivers/CMSIS/Include/cmsis_gcc.h ****      (defined (__ARM_ARCH_8M_MAIN__ ) && (__ARM_ARCH_8M_MAIN__ == 1))    )
 434:Drivers/CMSIS/Include/cmsis_gcc.h **** /**
 435:Drivers/CMSIS/Include/cmsis_gcc.h ****   \brief   Enable FIQ
 436:Drivers/CMSIS/Include/cmsis_gcc.h ****   \details Enables FIQ interrupts by clearing the F-bit in the CPSR.
 437:Drivers/CMSIS/Include/cmsis_gcc.h ****            Can only be executed in Privileged modes.
 438:Drivers/CMSIS/Include/cmsis_gcc.h ****  */
 439:Drivers/CMSIS/Include/cmsis_gcc.h **** __STATIC_FORCEINLINE void __enable_fault_irq(void)
 440:Drivers/CMSIS/Include/cmsis_gcc.h **** {
 441:Drivers/CMSIS/Include/cmsis_gcc.h ****   __ASM volatile ("cpsie f" : : : "memory");
 442:Drivers/CMSIS/Include/cmsis_gcc.h **** }
 443:Drivers/CMSIS/Include/cmsis_gcc.h **** 
 444:Drivers/CMSIS/Include/cmsis_gcc.h **** 
 445:Drivers/CMSIS/Include/cmsis_gcc.h **** /**
 446:Drivers/CMSIS/Include/cmsis_gcc.h ****   \brief   Disable FIQ
 447:Drivers/CMSIS/Include/cmsis_gcc.h ****   \details Disables FIQ interrupts by setting the F-bit in the CPSR.
 448:Drivers/CMSIS/Include/cmsis_gcc.h ****            Can only be executed in Privileged modes.
 449:Drivers/CMSIS/Include/cmsis_gcc.h ****  */
 450:Drivers/CMSIS/Include/cmsis_gcc.h **** __STATIC_FORCEINLINE void __disable_fault_irq(void)
 451:Drivers/CMSIS/Include/cmsis_gcc.h **** {
 452:Drivers/CMSIS/Include/cmsis_gcc.h ****   __ASM volatile ("cpsid f" : : : "memory");
 453:Drivers/CMSIS/Include/cmsis_gcc.h **** }
 454:Drivers/CMSIS/Include/cmsis_gcc.h **** 
 455:Drivers/CMSIS/Include/cmsis_gcc.h **** 
 456:Drivers/CMSIS/Include/cmsis_gcc.h **** /**
 457:Drivers/CMSIS/Include/cmsis_gcc.h ****   \brief   Get Base Priority
 458:Drivers/CMSIS/Include/cmsis_gcc.h ****   \details Returns the current value of the Base Priority register.
 459:Drivers/CMSIS/Include/cmsis_gcc.h ****   \return               Base Priority register value
 460:Drivers/CMSIS/Include/cmsis_gcc.h ****  */
 461:Drivers/CMSIS/Include/cmsis_gcc.h **** __STATIC_FORCEINLINE uint32_t __get_BASEPRI(void)
 462:Drivers/CMSIS/Include/cmsis_gcc.h **** {
 463:Drivers/CMSIS/Include/cmsis_gcc.h ****   uint32_t result;
 464:Drivers/CMSIS/Include/cmsis_gcc.h **** 
 465:Drivers/CMSIS/Include/cmsis_gcc.h ****   __ASM volatile ("MRS %0, basepri" : "=r" (result) );
 466:Drivers/CMSIS/Include/cmsis_gcc.h ****   return(result);
 467:Drivers/CMSIS/Include/cmsis_gcc.h **** }
 468:Drivers/CMSIS/Include/cmsis_gcc.h **** 
 469:Drivers/CMSIS/Include/cmsis_gcc.h **** 
 470:Drivers/CMSIS/Include/cmsis_gcc.h **** #if (defined (__ARM_FEATURE_CMSE ) && (__ARM_FEATURE_CMSE == 3))
 471:Drivers/CMSIS/Include/cmsis_gcc.h **** /**
 472:Drivers/CMSIS/Include/cmsis_gcc.h ****   \brief   Get Base Priority (non-secure)
 473:Drivers/CMSIS/Include/cmsis_gcc.h ****   \details Returns the current value of the non-secure Base Priority register when in secure state.
 474:Drivers/CMSIS/Include/cmsis_gcc.h ****   \return               Base Priority register value
 475:Drivers/CMSIS/Include/cmsis_gcc.h ****  */
 476:Drivers/CMSIS/Include/cmsis_gcc.h **** __STATIC_FORCEINLINE uint32_t __TZ_get_BASEPRI_NS(void)
 477:Drivers/CMSIS/Include/cmsis_gcc.h **** {
 478:Drivers/CMSIS/Include/cmsis_gcc.h ****   uint32_t result;
ARM GAS  /tmp/cc3XjLgi.s 			page 17


 479:Drivers/CMSIS/Include/cmsis_gcc.h **** 
 480:Drivers/CMSIS/Include/cmsis_gcc.h ****   __ASM volatile ("MRS %0, basepri_ns" : "=r" (result) );
 481:Drivers/CMSIS/Include/cmsis_gcc.h ****   return(result);
 482:Drivers/CMSIS/Include/cmsis_gcc.h **** }
 483:Drivers/CMSIS/Include/cmsis_gcc.h **** #endif
 484:Drivers/CMSIS/Include/cmsis_gcc.h **** 
 485:Drivers/CMSIS/Include/cmsis_gcc.h **** 
 486:Drivers/CMSIS/Include/cmsis_gcc.h **** /**
 487:Drivers/CMSIS/Include/cmsis_gcc.h ****   \brief   Set Base Priority
 488:Drivers/CMSIS/Include/cmsis_gcc.h ****   \details Assigns the given value to the Base Priority register.
 489:Drivers/CMSIS/Include/cmsis_gcc.h ****   \param [in]    basePri  Base Priority value to set
 490:Drivers/CMSIS/Include/cmsis_gcc.h ****  */
 491:Drivers/CMSIS/Include/cmsis_gcc.h **** __STATIC_FORCEINLINE void __set_BASEPRI(uint32_t basePri)
 492:Drivers/CMSIS/Include/cmsis_gcc.h **** {
 493:Drivers/CMSIS/Include/cmsis_gcc.h ****   __ASM volatile ("MSR basepri, %0" : : "r" (basePri) : "memory");
 494:Drivers/CMSIS/Include/cmsis_gcc.h **** }
 495:Drivers/CMSIS/Include/cmsis_gcc.h **** 
 496:Drivers/CMSIS/Include/cmsis_gcc.h **** 
 497:Drivers/CMSIS/Include/cmsis_gcc.h **** #if (defined (__ARM_FEATURE_CMSE ) && (__ARM_FEATURE_CMSE == 3))
 498:Drivers/CMSIS/Include/cmsis_gcc.h **** /**
 499:Drivers/CMSIS/Include/cmsis_gcc.h ****   \brief   Set Base Priority (non-secure)
 500:Drivers/CMSIS/Include/cmsis_gcc.h ****   \details Assigns the given value to the non-secure Base Priority register when in secure state.
 501:Drivers/CMSIS/Include/cmsis_gcc.h ****   \param [in]    basePri  Base Priority value to set
 502:Drivers/CMSIS/Include/cmsis_gcc.h ****  */
 503:Drivers/CMSIS/Include/cmsis_gcc.h **** __STATIC_FORCEINLINE void __TZ_set_BASEPRI_NS(uint32_t basePri)
 504:Drivers/CMSIS/Include/cmsis_gcc.h **** {
 505:Drivers/CMSIS/Include/cmsis_gcc.h ****   __ASM volatile ("MSR basepri_ns, %0" : : "r" (basePri) : "memory");
 506:Drivers/CMSIS/Include/cmsis_gcc.h **** }
 507:Drivers/CMSIS/Include/cmsis_gcc.h **** #endif
 508:Drivers/CMSIS/Include/cmsis_gcc.h **** 
 509:Drivers/CMSIS/Include/cmsis_gcc.h **** 
 510:Drivers/CMSIS/Include/cmsis_gcc.h **** /**
 511:Drivers/CMSIS/Include/cmsis_gcc.h ****   \brief   Set Base Priority with condition
 512:Drivers/CMSIS/Include/cmsis_gcc.h ****   \details Assigns the given value to the Base Priority register only if BASEPRI masking is disable
 513:Drivers/CMSIS/Include/cmsis_gcc.h ****            or the new value increases the BASEPRI priority level.
 514:Drivers/CMSIS/Include/cmsis_gcc.h ****   \param [in]    basePri  Base Priority value to set
 515:Drivers/CMSIS/Include/cmsis_gcc.h ****  */
 516:Drivers/CMSIS/Include/cmsis_gcc.h **** __STATIC_FORCEINLINE void __set_BASEPRI_MAX(uint32_t basePri)
 517:Drivers/CMSIS/Include/cmsis_gcc.h **** {
 518:Drivers/CMSIS/Include/cmsis_gcc.h ****   __ASM volatile ("MSR basepri_max, %0" : : "r" (basePri) : "memory");
 519:Drivers/CMSIS/Include/cmsis_gcc.h **** }
 520:Drivers/CMSIS/Include/cmsis_gcc.h **** 
 521:Drivers/CMSIS/Include/cmsis_gcc.h **** 
 522:Drivers/CMSIS/Include/cmsis_gcc.h **** /**
 523:Drivers/CMSIS/Include/cmsis_gcc.h ****   \brief   Get Fault Mask
 524:Drivers/CMSIS/Include/cmsis_gcc.h ****   \details Returns the current value of the Fault Mask register.
 525:Drivers/CMSIS/Include/cmsis_gcc.h ****   \return               Fault Mask register value
 526:Drivers/CMSIS/Include/cmsis_gcc.h ****  */
 527:Drivers/CMSIS/Include/cmsis_gcc.h **** __STATIC_FORCEINLINE uint32_t __get_FAULTMASK(void)
 528:Drivers/CMSIS/Include/cmsis_gcc.h **** {
 529:Drivers/CMSIS/Include/cmsis_gcc.h ****   uint32_t result;
 530:Drivers/CMSIS/Include/cmsis_gcc.h **** 
 531:Drivers/CMSIS/Include/cmsis_gcc.h ****   __ASM volatile ("MRS %0, faultmask" : "=r" (result) );
 532:Drivers/CMSIS/Include/cmsis_gcc.h ****   return(result);
 533:Drivers/CMSIS/Include/cmsis_gcc.h **** }
 534:Drivers/CMSIS/Include/cmsis_gcc.h **** 
 535:Drivers/CMSIS/Include/cmsis_gcc.h **** 
ARM GAS  /tmp/cc3XjLgi.s 			page 18


 536:Drivers/CMSIS/Include/cmsis_gcc.h **** #if (defined (__ARM_FEATURE_CMSE ) && (__ARM_FEATURE_CMSE == 3))
 537:Drivers/CMSIS/Include/cmsis_gcc.h **** /**
 538:Drivers/CMSIS/Include/cmsis_gcc.h ****   \brief   Get Fault Mask (non-secure)
 539:Drivers/CMSIS/Include/cmsis_gcc.h ****   \details Returns the current value of the non-secure Fault Mask register when in secure state.
 540:Drivers/CMSIS/Include/cmsis_gcc.h ****   \return               Fault Mask register value
 541:Drivers/CMSIS/Include/cmsis_gcc.h ****  */
 542:Drivers/CMSIS/Include/cmsis_gcc.h **** __STATIC_FORCEINLINE uint32_t __TZ_get_FAULTMASK_NS(void)
 543:Drivers/CMSIS/Include/cmsis_gcc.h **** {
 544:Drivers/CMSIS/Include/cmsis_gcc.h ****   uint32_t result;
 545:Drivers/CMSIS/Include/cmsis_gcc.h **** 
 546:Drivers/CMSIS/Include/cmsis_gcc.h ****   __ASM volatile ("MRS %0, faultmask_ns" : "=r" (result) );
 547:Drivers/CMSIS/Include/cmsis_gcc.h ****   return(result);
 548:Drivers/CMSIS/Include/cmsis_gcc.h **** }
 549:Drivers/CMSIS/Include/cmsis_gcc.h **** #endif
 550:Drivers/CMSIS/Include/cmsis_gcc.h **** 
 551:Drivers/CMSIS/Include/cmsis_gcc.h **** 
 552:Drivers/CMSIS/Include/cmsis_gcc.h **** /**
 553:Drivers/CMSIS/Include/cmsis_gcc.h ****   \brief   Set Fault Mask
 554:Drivers/CMSIS/Include/cmsis_gcc.h ****   \details Assigns the given value to the Fault Mask register.
 555:Drivers/CMSIS/Include/cmsis_gcc.h ****   \param [in]    faultMask  Fault Mask value to set
 556:Drivers/CMSIS/Include/cmsis_gcc.h ****  */
 557:Drivers/CMSIS/Include/cmsis_gcc.h **** __STATIC_FORCEINLINE void __set_FAULTMASK(uint32_t faultMask)
 558:Drivers/CMSIS/Include/cmsis_gcc.h **** {
 559:Drivers/CMSIS/Include/cmsis_gcc.h ****   __ASM volatile ("MSR faultmask, %0" : : "r" (faultMask) : "memory");
 560:Drivers/CMSIS/Include/cmsis_gcc.h **** }
 561:Drivers/CMSIS/Include/cmsis_gcc.h **** 
 562:Drivers/CMSIS/Include/cmsis_gcc.h **** 
 563:Drivers/CMSIS/Include/cmsis_gcc.h **** #if (defined (__ARM_FEATURE_CMSE ) && (__ARM_FEATURE_CMSE == 3))
 564:Drivers/CMSIS/Include/cmsis_gcc.h **** /**
 565:Drivers/CMSIS/Include/cmsis_gcc.h ****   \brief   Set Fault Mask (non-secure)
 566:Drivers/CMSIS/Include/cmsis_gcc.h ****   \details Assigns the given value to the non-secure Fault Mask register when in secure state.
 567:Drivers/CMSIS/Include/cmsis_gcc.h ****   \param [in]    faultMask  Fault Mask value to set
 568:Drivers/CMSIS/Include/cmsis_gcc.h ****  */
 569:Drivers/CMSIS/Include/cmsis_gcc.h **** __STATIC_FORCEINLINE void __TZ_set_FAULTMASK_NS(uint32_t faultMask)
 570:Drivers/CMSIS/Include/cmsis_gcc.h **** {
 571:Drivers/CMSIS/Include/cmsis_gcc.h ****   __ASM volatile ("MSR faultmask_ns, %0" : : "r" (faultMask) : "memory");
 572:Drivers/CMSIS/Include/cmsis_gcc.h **** }
 573:Drivers/CMSIS/Include/cmsis_gcc.h **** #endif
 574:Drivers/CMSIS/Include/cmsis_gcc.h **** 
 575:Drivers/CMSIS/Include/cmsis_gcc.h **** #endif /* ((defined (__ARM_ARCH_7M__      ) && (__ARM_ARCH_7M__      == 1)) || \
 576:Drivers/CMSIS/Include/cmsis_gcc.h ****            (defined (__ARM_ARCH_7EM__     ) && (__ARM_ARCH_7EM__     == 1)) || \
 577:Drivers/CMSIS/Include/cmsis_gcc.h ****            (defined (__ARM_ARCH_8M_MAIN__ ) && (__ARM_ARCH_8M_MAIN__ == 1))    ) */
 578:Drivers/CMSIS/Include/cmsis_gcc.h **** 
 579:Drivers/CMSIS/Include/cmsis_gcc.h **** 
 580:Drivers/CMSIS/Include/cmsis_gcc.h **** #if ((defined (__ARM_ARCH_8M_MAIN__ ) && (__ARM_ARCH_8M_MAIN__ == 1)) || \
 581:Drivers/CMSIS/Include/cmsis_gcc.h ****      (defined (__ARM_ARCH_8M_BASE__ ) && (__ARM_ARCH_8M_BASE__ == 1))    )
 582:Drivers/CMSIS/Include/cmsis_gcc.h **** 
 583:Drivers/CMSIS/Include/cmsis_gcc.h **** /**
 584:Drivers/CMSIS/Include/cmsis_gcc.h ****   \brief   Get Process Stack Pointer Limit
 585:Drivers/CMSIS/Include/cmsis_gcc.h ****   Devices without ARMv8-M Main Extensions (i.e. Cortex-M23) lack the non-secure
 586:Drivers/CMSIS/Include/cmsis_gcc.h ****   Stack Pointer Limit register hence zero is returned always in non-secure
 587:Drivers/CMSIS/Include/cmsis_gcc.h ****   mode.
 588:Drivers/CMSIS/Include/cmsis_gcc.h ****   
 589:Drivers/CMSIS/Include/cmsis_gcc.h ****   \details Returns the current value of the Process Stack Pointer Limit (PSPLIM).
 590:Drivers/CMSIS/Include/cmsis_gcc.h ****   \return               PSPLIM Register value
 591:Drivers/CMSIS/Include/cmsis_gcc.h ****  */
 592:Drivers/CMSIS/Include/cmsis_gcc.h **** __STATIC_FORCEINLINE uint32_t __get_PSPLIM(void)
ARM GAS  /tmp/cc3XjLgi.s 			page 19


 593:Drivers/CMSIS/Include/cmsis_gcc.h **** {
 594:Drivers/CMSIS/Include/cmsis_gcc.h **** #if (!(defined (__ARM_ARCH_8M_MAIN__ ) && (__ARM_ARCH_8M_MAIN__ == 1)) && \
 595:Drivers/CMSIS/Include/cmsis_gcc.h ****     (!defined (__ARM_FEATURE_CMSE) || (__ARM_FEATURE_CMSE < 3)))
 596:Drivers/CMSIS/Include/cmsis_gcc.h ****     // without main extensions, the non-secure PSPLIM is RAZ/WI
 597:Drivers/CMSIS/Include/cmsis_gcc.h ****   return 0U;
 598:Drivers/CMSIS/Include/cmsis_gcc.h **** #else
 599:Drivers/CMSIS/Include/cmsis_gcc.h ****   uint32_t result;
 600:Drivers/CMSIS/Include/cmsis_gcc.h ****   __ASM volatile ("MRS %0, psplim"  : "=r" (result) );
 601:Drivers/CMSIS/Include/cmsis_gcc.h ****   return result;
 602:Drivers/CMSIS/Include/cmsis_gcc.h **** #endif
 603:Drivers/CMSIS/Include/cmsis_gcc.h **** }
 604:Drivers/CMSIS/Include/cmsis_gcc.h **** 
 605:Drivers/CMSIS/Include/cmsis_gcc.h **** #if (defined (__ARM_FEATURE_CMSE) && (__ARM_FEATURE_CMSE == 3))
 606:Drivers/CMSIS/Include/cmsis_gcc.h **** /**
 607:Drivers/CMSIS/Include/cmsis_gcc.h ****   \brief   Get Process Stack Pointer Limit (non-secure)
 608:Drivers/CMSIS/Include/cmsis_gcc.h ****   Devices without ARMv8-M Main Extensions (i.e. Cortex-M23) lack the non-secure
 609:Drivers/CMSIS/Include/cmsis_gcc.h ****   Stack Pointer Limit register hence zero is returned always.
 610:Drivers/CMSIS/Include/cmsis_gcc.h **** 
 611:Drivers/CMSIS/Include/cmsis_gcc.h ****   \details Returns the current value of the non-secure Process Stack Pointer Limit (PSPLIM) when in
 612:Drivers/CMSIS/Include/cmsis_gcc.h ****   \return               PSPLIM Register value
 613:Drivers/CMSIS/Include/cmsis_gcc.h ****  */
 614:Drivers/CMSIS/Include/cmsis_gcc.h **** __STATIC_FORCEINLINE uint32_t __TZ_get_PSPLIM_NS(void)
 615:Drivers/CMSIS/Include/cmsis_gcc.h **** {
 616:Drivers/CMSIS/Include/cmsis_gcc.h **** #if (!(defined (__ARM_ARCH_8M_MAIN__ ) && (__ARM_ARCH_8M_MAIN__ == 1)))
 617:Drivers/CMSIS/Include/cmsis_gcc.h ****   // without main extensions, the non-secure PSPLIM is RAZ/WI
 618:Drivers/CMSIS/Include/cmsis_gcc.h ****   return 0U;
 619:Drivers/CMSIS/Include/cmsis_gcc.h **** #else
 620:Drivers/CMSIS/Include/cmsis_gcc.h ****   uint32_t result;
 621:Drivers/CMSIS/Include/cmsis_gcc.h ****   __ASM volatile ("MRS %0, psplim_ns"  : "=r" (result) );
 622:Drivers/CMSIS/Include/cmsis_gcc.h ****   return result;
 623:Drivers/CMSIS/Include/cmsis_gcc.h **** #endif
 624:Drivers/CMSIS/Include/cmsis_gcc.h **** }
 625:Drivers/CMSIS/Include/cmsis_gcc.h **** #endif
 626:Drivers/CMSIS/Include/cmsis_gcc.h **** 
 627:Drivers/CMSIS/Include/cmsis_gcc.h **** 
 628:Drivers/CMSIS/Include/cmsis_gcc.h **** /**
 629:Drivers/CMSIS/Include/cmsis_gcc.h ****   \brief   Set Process Stack Pointer Limit
 630:Drivers/CMSIS/Include/cmsis_gcc.h ****   Devices without ARMv8-M Main Extensions (i.e. Cortex-M23) lack the non-secure
 631:Drivers/CMSIS/Include/cmsis_gcc.h ****   Stack Pointer Limit register hence the write is silently ignored in non-secure
 632:Drivers/CMSIS/Include/cmsis_gcc.h ****   mode.
 633:Drivers/CMSIS/Include/cmsis_gcc.h ****   
 634:Drivers/CMSIS/Include/cmsis_gcc.h ****   \details Assigns the given value to the Process Stack Pointer Limit (PSPLIM).
 635:Drivers/CMSIS/Include/cmsis_gcc.h ****   \param [in]    ProcStackPtrLimit  Process Stack Pointer Limit value to set
 636:Drivers/CMSIS/Include/cmsis_gcc.h ****  */
 637:Drivers/CMSIS/Include/cmsis_gcc.h **** __STATIC_FORCEINLINE void __set_PSPLIM(uint32_t ProcStackPtrLimit)
 638:Drivers/CMSIS/Include/cmsis_gcc.h **** {
 639:Drivers/CMSIS/Include/cmsis_gcc.h **** #if (!(defined (__ARM_ARCH_8M_MAIN__ ) && (__ARM_ARCH_8M_MAIN__ == 1)) && \
 640:Drivers/CMSIS/Include/cmsis_gcc.h ****     (!defined (__ARM_FEATURE_CMSE) || (__ARM_FEATURE_CMSE < 3)))
 641:Drivers/CMSIS/Include/cmsis_gcc.h ****   // without main extensions, the non-secure PSPLIM is RAZ/WI
 642:Drivers/CMSIS/Include/cmsis_gcc.h ****   (void)ProcStackPtrLimit;
 643:Drivers/CMSIS/Include/cmsis_gcc.h **** #else
 644:Drivers/CMSIS/Include/cmsis_gcc.h ****   __ASM volatile ("MSR psplim, %0" : : "r" (ProcStackPtrLimit));
 645:Drivers/CMSIS/Include/cmsis_gcc.h **** #endif
 646:Drivers/CMSIS/Include/cmsis_gcc.h **** }
 647:Drivers/CMSIS/Include/cmsis_gcc.h **** 
 648:Drivers/CMSIS/Include/cmsis_gcc.h **** 
 649:Drivers/CMSIS/Include/cmsis_gcc.h **** #if (defined (__ARM_FEATURE_CMSE  ) && (__ARM_FEATURE_CMSE   == 3))
ARM GAS  /tmp/cc3XjLgi.s 			page 20


 650:Drivers/CMSIS/Include/cmsis_gcc.h **** /**
 651:Drivers/CMSIS/Include/cmsis_gcc.h ****   \brief   Set Process Stack Pointer (non-secure)
 652:Drivers/CMSIS/Include/cmsis_gcc.h ****   Devices without ARMv8-M Main Extensions (i.e. Cortex-M23) lack the non-secure
 653:Drivers/CMSIS/Include/cmsis_gcc.h ****   Stack Pointer Limit register hence the write is silently ignored.
 654:Drivers/CMSIS/Include/cmsis_gcc.h **** 
 655:Drivers/CMSIS/Include/cmsis_gcc.h ****   \details Assigns the given value to the non-secure Process Stack Pointer Limit (PSPLIM) when in s
 656:Drivers/CMSIS/Include/cmsis_gcc.h ****   \param [in]    ProcStackPtrLimit  Process Stack Pointer Limit value to set
 657:Drivers/CMSIS/Include/cmsis_gcc.h ****  */
 658:Drivers/CMSIS/Include/cmsis_gcc.h **** __STATIC_FORCEINLINE void __TZ_set_PSPLIM_NS(uint32_t ProcStackPtrLimit)
 659:Drivers/CMSIS/Include/cmsis_gcc.h **** {
 660:Drivers/CMSIS/Include/cmsis_gcc.h **** #if (!(defined (__ARM_ARCH_8M_MAIN__ ) && (__ARM_ARCH_8M_MAIN__ == 1)))
 661:Drivers/CMSIS/Include/cmsis_gcc.h ****   // without main extensions, the non-secure PSPLIM is RAZ/WI
 662:Drivers/CMSIS/Include/cmsis_gcc.h ****   (void)ProcStackPtrLimit;
 663:Drivers/CMSIS/Include/cmsis_gcc.h **** #else
 664:Drivers/CMSIS/Include/cmsis_gcc.h ****   __ASM volatile ("MSR psplim_ns, %0\n" : : "r" (ProcStackPtrLimit));
 665:Drivers/CMSIS/Include/cmsis_gcc.h **** #endif
 666:Drivers/CMSIS/Include/cmsis_gcc.h **** }
 667:Drivers/CMSIS/Include/cmsis_gcc.h **** #endif
 668:Drivers/CMSIS/Include/cmsis_gcc.h **** 
 669:Drivers/CMSIS/Include/cmsis_gcc.h **** 
 670:Drivers/CMSIS/Include/cmsis_gcc.h **** /**
 671:Drivers/CMSIS/Include/cmsis_gcc.h ****   \brief   Get Main Stack Pointer Limit
 672:Drivers/CMSIS/Include/cmsis_gcc.h ****   Devices without ARMv8-M Main Extensions (i.e. Cortex-M23) lack the non-secure
 673:Drivers/CMSIS/Include/cmsis_gcc.h ****   Stack Pointer Limit register hence zero is returned always in non-secure
 674:Drivers/CMSIS/Include/cmsis_gcc.h ****   mode.
 675:Drivers/CMSIS/Include/cmsis_gcc.h **** 
 676:Drivers/CMSIS/Include/cmsis_gcc.h ****   \details Returns the current value of the Main Stack Pointer Limit (MSPLIM).
 677:Drivers/CMSIS/Include/cmsis_gcc.h ****   \return               MSPLIM Register value
 678:Drivers/CMSIS/Include/cmsis_gcc.h ****  */
 679:Drivers/CMSIS/Include/cmsis_gcc.h **** __STATIC_FORCEINLINE uint32_t __get_MSPLIM(void)
 680:Drivers/CMSIS/Include/cmsis_gcc.h **** {
 681:Drivers/CMSIS/Include/cmsis_gcc.h **** #if (!(defined (__ARM_ARCH_8M_MAIN__ ) && (__ARM_ARCH_8M_MAIN__ == 1)) && \
 682:Drivers/CMSIS/Include/cmsis_gcc.h ****     (!defined (__ARM_FEATURE_CMSE) || (__ARM_FEATURE_CMSE < 3)))
 683:Drivers/CMSIS/Include/cmsis_gcc.h ****   // without main extensions, the non-secure MSPLIM is RAZ/WI
 684:Drivers/CMSIS/Include/cmsis_gcc.h ****   return 0U;
 685:Drivers/CMSIS/Include/cmsis_gcc.h **** #else
 686:Drivers/CMSIS/Include/cmsis_gcc.h ****   uint32_t result;
 687:Drivers/CMSIS/Include/cmsis_gcc.h ****   __ASM volatile ("MRS %0, msplim" : "=r" (result) );
 688:Drivers/CMSIS/Include/cmsis_gcc.h ****   return result;
 689:Drivers/CMSIS/Include/cmsis_gcc.h **** #endif
 690:Drivers/CMSIS/Include/cmsis_gcc.h **** }
 691:Drivers/CMSIS/Include/cmsis_gcc.h **** 
 692:Drivers/CMSIS/Include/cmsis_gcc.h **** 
 693:Drivers/CMSIS/Include/cmsis_gcc.h **** #if (defined (__ARM_FEATURE_CMSE  ) && (__ARM_FEATURE_CMSE   == 3))
 694:Drivers/CMSIS/Include/cmsis_gcc.h **** /**
 695:Drivers/CMSIS/Include/cmsis_gcc.h ****   \brief   Get Main Stack Pointer Limit (non-secure)
 696:Drivers/CMSIS/Include/cmsis_gcc.h ****   Devices without ARMv8-M Main Extensions (i.e. Cortex-M23) lack the non-secure
 697:Drivers/CMSIS/Include/cmsis_gcc.h ****   Stack Pointer Limit register hence zero is returned always.
 698:Drivers/CMSIS/Include/cmsis_gcc.h **** 
 699:Drivers/CMSIS/Include/cmsis_gcc.h ****   \details Returns the current value of the non-secure Main Stack Pointer Limit(MSPLIM) when in sec
 700:Drivers/CMSIS/Include/cmsis_gcc.h ****   \return               MSPLIM Register value
 701:Drivers/CMSIS/Include/cmsis_gcc.h ****  */
 702:Drivers/CMSIS/Include/cmsis_gcc.h **** __STATIC_FORCEINLINE uint32_t __TZ_get_MSPLIM_NS(void)
 703:Drivers/CMSIS/Include/cmsis_gcc.h **** {
 704:Drivers/CMSIS/Include/cmsis_gcc.h **** #if (!(defined (__ARM_ARCH_8M_MAIN__ ) && (__ARM_ARCH_8M_MAIN__ == 1)))
 705:Drivers/CMSIS/Include/cmsis_gcc.h ****   // without main extensions, the non-secure MSPLIM is RAZ/WI
 706:Drivers/CMSIS/Include/cmsis_gcc.h ****   return 0U;
ARM GAS  /tmp/cc3XjLgi.s 			page 21


 707:Drivers/CMSIS/Include/cmsis_gcc.h **** #else
 708:Drivers/CMSIS/Include/cmsis_gcc.h ****   uint32_t result;
 709:Drivers/CMSIS/Include/cmsis_gcc.h ****   __ASM volatile ("MRS %0, msplim_ns" : "=r" (result) );
 710:Drivers/CMSIS/Include/cmsis_gcc.h ****   return result;
 711:Drivers/CMSIS/Include/cmsis_gcc.h **** #endif
 712:Drivers/CMSIS/Include/cmsis_gcc.h **** }
 713:Drivers/CMSIS/Include/cmsis_gcc.h **** #endif
 714:Drivers/CMSIS/Include/cmsis_gcc.h **** 
 715:Drivers/CMSIS/Include/cmsis_gcc.h **** 
 716:Drivers/CMSIS/Include/cmsis_gcc.h **** /**
 717:Drivers/CMSIS/Include/cmsis_gcc.h ****   \brief   Set Main Stack Pointer Limit
 718:Drivers/CMSIS/Include/cmsis_gcc.h ****   Devices without ARMv8-M Main Extensions (i.e. Cortex-M23) lack the non-secure
 719:Drivers/CMSIS/Include/cmsis_gcc.h ****   Stack Pointer Limit register hence the write is silently ignored in non-secure
 720:Drivers/CMSIS/Include/cmsis_gcc.h ****   mode.
 721:Drivers/CMSIS/Include/cmsis_gcc.h **** 
 722:Drivers/CMSIS/Include/cmsis_gcc.h ****   \details Assigns the given value to the Main Stack Pointer Limit (MSPLIM).
 723:Drivers/CMSIS/Include/cmsis_gcc.h ****   \param [in]    MainStackPtrLimit  Main Stack Pointer Limit value to set
 724:Drivers/CMSIS/Include/cmsis_gcc.h ****  */
 725:Drivers/CMSIS/Include/cmsis_gcc.h **** __STATIC_FORCEINLINE void __set_MSPLIM(uint32_t MainStackPtrLimit)
 726:Drivers/CMSIS/Include/cmsis_gcc.h **** {
 727:Drivers/CMSIS/Include/cmsis_gcc.h **** #if (!(defined (__ARM_ARCH_8M_MAIN__ ) && (__ARM_ARCH_8M_MAIN__ == 1)) && \
 728:Drivers/CMSIS/Include/cmsis_gcc.h ****     (!defined (__ARM_FEATURE_CMSE) || (__ARM_FEATURE_CMSE < 3)))
 729:Drivers/CMSIS/Include/cmsis_gcc.h ****   // without main extensions, the non-secure MSPLIM is RAZ/WI
 730:Drivers/CMSIS/Include/cmsis_gcc.h ****   (void)MainStackPtrLimit;
 731:Drivers/CMSIS/Include/cmsis_gcc.h **** #else
 732:Drivers/CMSIS/Include/cmsis_gcc.h ****   __ASM volatile ("MSR msplim, %0" : : "r" (MainStackPtrLimit));
 733:Drivers/CMSIS/Include/cmsis_gcc.h **** #endif
 734:Drivers/CMSIS/Include/cmsis_gcc.h **** }
 735:Drivers/CMSIS/Include/cmsis_gcc.h **** 
 736:Drivers/CMSIS/Include/cmsis_gcc.h **** 
 737:Drivers/CMSIS/Include/cmsis_gcc.h **** #if (defined (__ARM_FEATURE_CMSE  ) && (__ARM_FEATURE_CMSE   == 3))
 738:Drivers/CMSIS/Include/cmsis_gcc.h **** /**
 739:Drivers/CMSIS/Include/cmsis_gcc.h ****   \brief   Set Main Stack Pointer Limit (non-secure)
 740:Drivers/CMSIS/Include/cmsis_gcc.h ****   Devices without ARMv8-M Main Extensions (i.e. Cortex-M23) lack the non-secure
 741:Drivers/CMSIS/Include/cmsis_gcc.h ****   Stack Pointer Limit register hence the write is silently ignored.
 742:Drivers/CMSIS/Include/cmsis_gcc.h **** 
 743:Drivers/CMSIS/Include/cmsis_gcc.h ****   \details Assigns the given value to the non-secure Main Stack Pointer Limit (MSPLIM) when in secu
 744:Drivers/CMSIS/Include/cmsis_gcc.h ****   \param [in]    MainStackPtrLimit  Main Stack Pointer value to set
 745:Drivers/CMSIS/Include/cmsis_gcc.h ****  */
 746:Drivers/CMSIS/Include/cmsis_gcc.h **** __STATIC_FORCEINLINE void __TZ_set_MSPLIM_NS(uint32_t MainStackPtrLimit)
 747:Drivers/CMSIS/Include/cmsis_gcc.h **** {
 748:Drivers/CMSIS/Include/cmsis_gcc.h **** #if (!(defined (__ARM_ARCH_8M_MAIN__ ) && (__ARM_ARCH_8M_MAIN__ == 1)))
 749:Drivers/CMSIS/Include/cmsis_gcc.h ****   // without main extensions, the non-secure MSPLIM is RAZ/WI
 750:Drivers/CMSIS/Include/cmsis_gcc.h ****   (void)MainStackPtrLimit;
 751:Drivers/CMSIS/Include/cmsis_gcc.h **** #else
 752:Drivers/CMSIS/Include/cmsis_gcc.h ****   __ASM volatile ("MSR msplim_ns, %0" : : "r" (MainStackPtrLimit));
 753:Drivers/CMSIS/Include/cmsis_gcc.h **** #endif
 754:Drivers/CMSIS/Include/cmsis_gcc.h **** }
 755:Drivers/CMSIS/Include/cmsis_gcc.h **** #endif
 756:Drivers/CMSIS/Include/cmsis_gcc.h **** 
 757:Drivers/CMSIS/Include/cmsis_gcc.h **** #endif /* ((defined (__ARM_ARCH_8M_MAIN__ ) && (__ARM_ARCH_8M_MAIN__ == 1)) || \
 758:Drivers/CMSIS/Include/cmsis_gcc.h ****            (defined (__ARM_ARCH_8M_BASE__ ) && (__ARM_ARCH_8M_BASE__ == 1))    ) */
 759:Drivers/CMSIS/Include/cmsis_gcc.h **** 
 760:Drivers/CMSIS/Include/cmsis_gcc.h **** 
 761:Drivers/CMSIS/Include/cmsis_gcc.h **** /**
 762:Drivers/CMSIS/Include/cmsis_gcc.h ****   \brief   Get FPSCR
 763:Drivers/CMSIS/Include/cmsis_gcc.h ****   \details Returns the current value of the Floating Point Status/Control register.
ARM GAS  /tmp/cc3XjLgi.s 			page 22


 764:Drivers/CMSIS/Include/cmsis_gcc.h ****   \return               Floating Point Status/Control register value
 765:Drivers/CMSIS/Include/cmsis_gcc.h ****  */
 766:Drivers/CMSIS/Include/cmsis_gcc.h **** __STATIC_FORCEINLINE uint32_t __get_FPSCR(void)
 767:Drivers/CMSIS/Include/cmsis_gcc.h **** {
 768:Drivers/CMSIS/Include/cmsis_gcc.h **** #if ((defined (__FPU_PRESENT) && (__FPU_PRESENT == 1U)) && \
 769:Drivers/CMSIS/Include/cmsis_gcc.h ****      (defined (__FPU_USED   ) && (__FPU_USED    == 1U))     )
 770:Drivers/CMSIS/Include/cmsis_gcc.h **** #if __has_builtin(__builtin_arm_get_fpscr) 
 771:Drivers/CMSIS/Include/cmsis_gcc.h **** // Re-enable using built-in when GCC has been fixed
 772:Drivers/CMSIS/Include/cmsis_gcc.h **** // || (__GNUC__ > 7) || (__GNUC__ == 7 && __GNUC_MINOR__ >= 2)
 773:Drivers/CMSIS/Include/cmsis_gcc.h ****   /* see https://gcc.gnu.org/ml/gcc-patches/2017-04/msg00443.html */
 774:Drivers/CMSIS/Include/cmsis_gcc.h ****   return __builtin_arm_get_fpscr();
 775:Drivers/CMSIS/Include/cmsis_gcc.h **** #else
 776:Drivers/CMSIS/Include/cmsis_gcc.h ****   uint32_t result;
 777:Drivers/CMSIS/Include/cmsis_gcc.h **** 
 778:Drivers/CMSIS/Include/cmsis_gcc.h ****   __ASM volatile ("VMRS %0, fpscr" : "=r" (result) );
 779:Drivers/CMSIS/Include/cmsis_gcc.h ****   return(result);
 780:Drivers/CMSIS/Include/cmsis_gcc.h **** #endif
 781:Drivers/CMSIS/Include/cmsis_gcc.h **** #else
 782:Drivers/CMSIS/Include/cmsis_gcc.h ****   return(0U);
 783:Drivers/CMSIS/Include/cmsis_gcc.h **** #endif
 784:Drivers/CMSIS/Include/cmsis_gcc.h **** }
 785:Drivers/CMSIS/Include/cmsis_gcc.h **** 
 786:Drivers/CMSIS/Include/cmsis_gcc.h **** 
 787:Drivers/CMSIS/Include/cmsis_gcc.h **** /**
 788:Drivers/CMSIS/Include/cmsis_gcc.h ****   \brief   Set FPSCR
 789:Drivers/CMSIS/Include/cmsis_gcc.h ****   \details Assigns the given value to the Floating Point Status/Control register.
 790:Drivers/CMSIS/Include/cmsis_gcc.h ****   \param [in]    fpscr  Floating Point Status/Control value to set
 791:Drivers/CMSIS/Include/cmsis_gcc.h ****  */
 792:Drivers/CMSIS/Include/cmsis_gcc.h **** __STATIC_FORCEINLINE void __set_FPSCR(uint32_t fpscr)
 793:Drivers/CMSIS/Include/cmsis_gcc.h **** {
 794:Drivers/CMSIS/Include/cmsis_gcc.h **** #if ((defined (__FPU_PRESENT) && (__FPU_PRESENT == 1U)) && \
 795:Drivers/CMSIS/Include/cmsis_gcc.h ****      (defined (__FPU_USED   ) && (__FPU_USED    == 1U))     )
 796:Drivers/CMSIS/Include/cmsis_gcc.h **** #if __has_builtin(__builtin_arm_set_fpscr)
 797:Drivers/CMSIS/Include/cmsis_gcc.h **** // Re-enable using built-in when GCC has been fixed
 798:Drivers/CMSIS/Include/cmsis_gcc.h **** // || (__GNUC__ > 7) || (__GNUC__ == 7 && __GNUC_MINOR__ >= 2)
 799:Drivers/CMSIS/Include/cmsis_gcc.h ****   /* see https://gcc.gnu.org/ml/gcc-patches/2017-04/msg00443.html */
 800:Drivers/CMSIS/Include/cmsis_gcc.h ****   __builtin_arm_set_fpscr(fpscr);
 801:Drivers/CMSIS/Include/cmsis_gcc.h **** #else
 802:Drivers/CMSIS/Include/cmsis_gcc.h ****   __ASM volatile ("VMSR fpscr, %0" : : "r" (fpscr) : "vfpcc", "memory");
 803:Drivers/CMSIS/Include/cmsis_gcc.h **** #endif
 804:Drivers/CMSIS/Include/cmsis_gcc.h **** #else
 805:Drivers/CMSIS/Include/cmsis_gcc.h ****   (void)fpscr;
 806:Drivers/CMSIS/Include/cmsis_gcc.h **** #endif
 807:Drivers/CMSIS/Include/cmsis_gcc.h **** }
 808:Drivers/CMSIS/Include/cmsis_gcc.h **** 
 809:Drivers/CMSIS/Include/cmsis_gcc.h **** 
 810:Drivers/CMSIS/Include/cmsis_gcc.h **** /*@} end of CMSIS_Core_RegAccFunctions */
 811:Drivers/CMSIS/Include/cmsis_gcc.h **** 
 812:Drivers/CMSIS/Include/cmsis_gcc.h **** 
 813:Drivers/CMSIS/Include/cmsis_gcc.h **** /* ##########################  Core Instruction Access  ######################### */
 814:Drivers/CMSIS/Include/cmsis_gcc.h **** /** \defgroup CMSIS_Core_InstructionInterface CMSIS Core Instruction Interface
 815:Drivers/CMSIS/Include/cmsis_gcc.h ****   Access to dedicated instructions
 816:Drivers/CMSIS/Include/cmsis_gcc.h ****   @{
 817:Drivers/CMSIS/Include/cmsis_gcc.h **** */
 818:Drivers/CMSIS/Include/cmsis_gcc.h **** 
 819:Drivers/CMSIS/Include/cmsis_gcc.h **** /* Define macros for porting to both thumb1 and thumb2.
 820:Drivers/CMSIS/Include/cmsis_gcc.h ****  * For thumb1, use low register (r0-r7), specified by constraint "l"
ARM GAS  /tmp/cc3XjLgi.s 			page 23


 821:Drivers/CMSIS/Include/cmsis_gcc.h ****  * Otherwise, use general registers, specified by constraint "r" */
 822:Drivers/CMSIS/Include/cmsis_gcc.h **** #if defined (__thumb__) && !defined (__thumb2__)
 823:Drivers/CMSIS/Include/cmsis_gcc.h **** #define __CMSIS_GCC_OUT_REG(r) "=l" (r)
 824:Drivers/CMSIS/Include/cmsis_gcc.h **** #define __CMSIS_GCC_RW_REG(r) "+l" (r)
 825:Drivers/CMSIS/Include/cmsis_gcc.h **** #define __CMSIS_GCC_USE_REG(r) "l" (r)
 826:Drivers/CMSIS/Include/cmsis_gcc.h **** #else
 827:Drivers/CMSIS/Include/cmsis_gcc.h **** #define __CMSIS_GCC_OUT_REG(r) "=r" (r)
 828:Drivers/CMSIS/Include/cmsis_gcc.h **** #define __CMSIS_GCC_RW_REG(r) "+r" (r)
 829:Drivers/CMSIS/Include/cmsis_gcc.h **** #define __CMSIS_GCC_USE_REG(r) "r" (r)
 830:Drivers/CMSIS/Include/cmsis_gcc.h **** #endif
 831:Drivers/CMSIS/Include/cmsis_gcc.h **** 
 832:Drivers/CMSIS/Include/cmsis_gcc.h **** /**
 833:Drivers/CMSIS/Include/cmsis_gcc.h ****   \brief   No Operation
 834:Drivers/CMSIS/Include/cmsis_gcc.h ****   \details No Operation does nothing. This instruction can be used for code alignment purposes.
 835:Drivers/CMSIS/Include/cmsis_gcc.h ****  */
 836:Drivers/CMSIS/Include/cmsis_gcc.h **** #define __NOP()                             __ASM volatile ("nop")
 837:Drivers/CMSIS/Include/cmsis_gcc.h **** 
 838:Drivers/CMSIS/Include/cmsis_gcc.h **** /**
 839:Drivers/CMSIS/Include/cmsis_gcc.h ****   \brief   Wait For Interrupt
 840:Drivers/CMSIS/Include/cmsis_gcc.h ****   \details Wait For Interrupt is a hint instruction that suspends execution until one of a number o
 841:Drivers/CMSIS/Include/cmsis_gcc.h ****  */
 842:Drivers/CMSIS/Include/cmsis_gcc.h **** #define __WFI()                             __ASM volatile ("wfi")
 843:Drivers/CMSIS/Include/cmsis_gcc.h **** 
 844:Drivers/CMSIS/Include/cmsis_gcc.h **** 
 845:Drivers/CMSIS/Include/cmsis_gcc.h **** /**
 846:Drivers/CMSIS/Include/cmsis_gcc.h ****   \brief   Wait For Event
 847:Drivers/CMSIS/Include/cmsis_gcc.h ****   \details Wait For Event is a hint instruction that permits the processor to enter
 848:Drivers/CMSIS/Include/cmsis_gcc.h ****            a low-power state until one of a number of events occurs.
 849:Drivers/CMSIS/Include/cmsis_gcc.h ****  */
 850:Drivers/CMSIS/Include/cmsis_gcc.h **** #define __WFE()                             __ASM volatile ("wfe")
 851:Drivers/CMSIS/Include/cmsis_gcc.h **** 
 852:Drivers/CMSIS/Include/cmsis_gcc.h **** 
 853:Drivers/CMSIS/Include/cmsis_gcc.h **** /**
 854:Drivers/CMSIS/Include/cmsis_gcc.h ****   \brief   Send Event
 855:Drivers/CMSIS/Include/cmsis_gcc.h ****   \details Send Event is a hint instruction. It causes an event to be signaled to the CPU.
 856:Drivers/CMSIS/Include/cmsis_gcc.h ****  */
 857:Drivers/CMSIS/Include/cmsis_gcc.h **** #define __SEV()                             __ASM volatile ("sev")
 858:Drivers/CMSIS/Include/cmsis_gcc.h **** 
 859:Drivers/CMSIS/Include/cmsis_gcc.h **** 
 860:Drivers/CMSIS/Include/cmsis_gcc.h **** /**
 861:Drivers/CMSIS/Include/cmsis_gcc.h ****   \brief   Instruction Synchronization Barrier
 862:Drivers/CMSIS/Include/cmsis_gcc.h ****   \details Instruction Synchronization Barrier flushes the pipeline in the processor,
 863:Drivers/CMSIS/Include/cmsis_gcc.h ****            so that all instructions following the ISB are fetched from cache or memory,
 864:Drivers/CMSIS/Include/cmsis_gcc.h ****            after the instruction has been completed.
 865:Drivers/CMSIS/Include/cmsis_gcc.h ****  */
 866:Drivers/CMSIS/Include/cmsis_gcc.h **** __STATIC_FORCEINLINE void __ISB(void)
 867:Drivers/CMSIS/Include/cmsis_gcc.h **** {
 868:Drivers/CMSIS/Include/cmsis_gcc.h ****   __ASM volatile ("isb 0xF":::"memory");
 869:Drivers/CMSIS/Include/cmsis_gcc.h **** }
 870:Drivers/CMSIS/Include/cmsis_gcc.h **** 
 871:Drivers/CMSIS/Include/cmsis_gcc.h **** 
 872:Drivers/CMSIS/Include/cmsis_gcc.h **** /**
 873:Drivers/CMSIS/Include/cmsis_gcc.h ****   \brief   Data Synchronization Barrier
 874:Drivers/CMSIS/Include/cmsis_gcc.h ****   \details Acts as a special kind of Data Memory Barrier.
 875:Drivers/CMSIS/Include/cmsis_gcc.h ****            It completes when all explicit memory accesses before this instruction complete.
 876:Drivers/CMSIS/Include/cmsis_gcc.h ****  */
 877:Drivers/CMSIS/Include/cmsis_gcc.h **** __STATIC_FORCEINLINE void __DSB(void)
ARM GAS  /tmp/cc3XjLgi.s 			page 24


 878:Drivers/CMSIS/Include/cmsis_gcc.h **** {
 879:Drivers/CMSIS/Include/cmsis_gcc.h ****   __ASM volatile ("dsb 0xF":::"memory");
 880:Drivers/CMSIS/Include/cmsis_gcc.h **** }
 881:Drivers/CMSIS/Include/cmsis_gcc.h **** 
 882:Drivers/CMSIS/Include/cmsis_gcc.h **** 
 883:Drivers/CMSIS/Include/cmsis_gcc.h **** /**
 884:Drivers/CMSIS/Include/cmsis_gcc.h ****   \brief   Data Memory Barrier
 885:Drivers/CMSIS/Include/cmsis_gcc.h ****   \details Ensures the apparent order of the explicit memory operations before
 886:Drivers/CMSIS/Include/cmsis_gcc.h ****            and after the instruction, without ensuring their completion.
 887:Drivers/CMSIS/Include/cmsis_gcc.h ****  */
 888:Drivers/CMSIS/Include/cmsis_gcc.h **** __STATIC_FORCEINLINE void __DMB(void)
 889:Drivers/CMSIS/Include/cmsis_gcc.h **** {
 890:Drivers/CMSIS/Include/cmsis_gcc.h ****   __ASM volatile ("dmb 0xF":::"memory");
 891:Drivers/CMSIS/Include/cmsis_gcc.h **** }
 892:Drivers/CMSIS/Include/cmsis_gcc.h **** 
 893:Drivers/CMSIS/Include/cmsis_gcc.h **** 
 894:Drivers/CMSIS/Include/cmsis_gcc.h **** /**
 895:Drivers/CMSIS/Include/cmsis_gcc.h ****   \brief   Reverse byte order (32 bit)
 896:Drivers/CMSIS/Include/cmsis_gcc.h ****   \details Reverses the byte order in unsigned integer value. For example, 0x12345678 becomes 0x785
 897:Drivers/CMSIS/Include/cmsis_gcc.h ****   \param [in]    value  Value to reverse
 898:Drivers/CMSIS/Include/cmsis_gcc.h ****   \return               Reversed value
 899:Drivers/CMSIS/Include/cmsis_gcc.h ****  */
 900:Drivers/CMSIS/Include/cmsis_gcc.h **** __STATIC_FORCEINLINE uint32_t __REV(uint32_t value)
 901:Drivers/CMSIS/Include/cmsis_gcc.h **** {
 902:Drivers/CMSIS/Include/cmsis_gcc.h **** #if (__GNUC__ > 4) || (__GNUC__ == 4 && __GNUC_MINOR__ >= 5)
 903:Drivers/CMSIS/Include/cmsis_gcc.h ****   return __builtin_bswap32(value);
 904:Drivers/CMSIS/Include/cmsis_gcc.h **** #else
 905:Drivers/CMSIS/Include/cmsis_gcc.h ****   uint32_t result;
 906:Drivers/CMSIS/Include/cmsis_gcc.h **** 
 907:Drivers/CMSIS/Include/cmsis_gcc.h ****   __ASM volatile ("rev %0, %1" : __CMSIS_GCC_OUT_REG (result) : __CMSIS_GCC_USE_REG (value) );
 908:Drivers/CMSIS/Include/cmsis_gcc.h ****   return result;
 909:Drivers/CMSIS/Include/cmsis_gcc.h **** #endif
 910:Drivers/CMSIS/Include/cmsis_gcc.h **** }
 911:Drivers/CMSIS/Include/cmsis_gcc.h **** 
 912:Drivers/CMSIS/Include/cmsis_gcc.h **** 
 913:Drivers/CMSIS/Include/cmsis_gcc.h **** /**
 914:Drivers/CMSIS/Include/cmsis_gcc.h ****   \brief   Reverse byte order (16 bit)
 915:Drivers/CMSIS/Include/cmsis_gcc.h ****   \details Reverses the byte order within each halfword of a word. For example, 0x12345678 becomes 
 916:Drivers/CMSIS/Include/cmsis_gcc.h ****   \param [in]    value  Value to reverse
 917:Drivers/CMSIS/Include/cmsis_gcc.h ****   \return               Reversed value
 918:Drivers/CMSIS/Include/cmsis_gcc.h ****  */
 919:Drivers/CMSIS/Include/cmsis_gcc.h **** __STATIC_FORCEINLINE uint32_t __REV16(uint32_t value)
 920:Drivers/CMSIS/Include/cmsis_gcc.h **** {
 921:Drivers/CMSIS/Include/cmsis_gcc.h ****   uint32_t result;
 922:Drivers/CMSIS/Include/cmsis_gcc.h **** 
 923:Drivers/CMSIS/Include/cmsis_gcc.h ****   __ASM volatile ("rev16 %0, %1" : __CMSIS_GCC_OUT_REG (result) : __CMSIS_GCC_USE_REG (value) );
 924:Drivers/CMSIS/Include/cmsis_gcc.h ****   return result;
 925:Drivers/CMSIS/Include/cmsis_gcc.h **** }
 926:Drivers/CMSIS/Include/cmsis_gcc.h **** 
 927:Drivers/CMSIS/Include/cmsis_gcc.h **** 
 928:Drivers/CMSIS/Include/cmsis_gcc.h **** /**
 929:Drivers/CMSIS/Include/cmsis_gcc.h ****   \brief   Reverse byte order (16 bit)
 930:Drivers/CMSIS/Include/cmsis_gcc.h ****   \details Reverses the byte order in a 16-bit value and returns the signed 16-bit result. For exam
 931:Drivers/CMSIS/Include/cmsis_gcc.h ****   \param [in]    value  Value to reverse
 932:Drivers/CMSIS/Include/cmsis_gcc.h ****   \return               Reversed value
 933:Drivers/CMSIS/Include/cmsis_gcc.h ****  */
 934:Drivers/CMSIS/Include/cmsis_gcc.h **** __STATIC_FORCEINLINE int16_t __REVSH(int16_t value)
ARM GAS  /tmp/cc3XjLgi.s 			page 25


 935:Drivers/CMSIS/Include/cmsis_gcc.h **** {
 936:Drivers/CMSIS/Include/cmsis_gcc.h **** #if (__GNUC__ > 4) || (__GNUC__ == 4 && __GNUC_MINOR__ >= 8)
 937:Drivers/CMSIS/Include/cmsis_gcc.h ****   return (int16_t)__builtin_bswap16(value);
 938:Drivers/CMSIS/Include/cmsis_gcc.h **** #else
 939:Drivers/CMSIS/Include/cmsis_gcc.h ****   int16_t result;
 940:Drivers/CMSIS/Include/cmsis_gcc.h **** 
 941:Drivers/CMSIS/Include/cmsis_gcc.h ****   __ASM volatile ("revsh %0, %1" : __CMSIS_GCC_OUT_REG (result) : __CMSIS_GCC_USE_REG (value) );
 942:Drivers/CMSIS/Include/cmsis_gcc.h ****   return result;
 943:Drivers/CMSIS/Include/cmsis_gcc.h **** #endif
 944:Drivers/CMSIS/Include/cmsis_gcc.h **** }
 945:Drivers/CMSIS/Include/cmsis_gcc.h **** 
 946:Drivers/CMSIS/Include/cmsis_gcc.h **** 
 947:Drivers/CMSIS/Include/cmsis_gcc.h **** /**
 948:Drivers/CMSIS/Include/cmsis_gcc.h ****   \brief   Rotate Right in unsigned value (32 bit)
 949:Drivers/CMSIS/Include/cmsis_gcc.h ****   \details Rotate Right (immediate) provides the value of the contents of a register rotated by a v
 950:Drivers/CMSIS/Include/cmsis_gcc.h ****   \param [in]    op1  Value to rotate
 951:Drivers/CMSIS/Include/cmsis_gcc.h ****   \param [in]    op2  Number of Bits to rotate
 952:Drivers/CMSIS/Include/cmsis_gcc.h ****   \return               Rotated value
 953:Drivers/CMSIS/Include/cmsis_gcc.h ****  */
 954:Drivers/CMSIS/Include/cmsis_gcc.h **** __STATIC_FORCEINLINE uint32_t __ROR(uint32_t op1, uint32_t op2)
 955:Drivers/CMSIS/Include/cmsis_gcc.h **** {
 956:Drivers/CMSIS/Include/cmsis_gcc.h ****   op2 %= 32U;
 957:Drivers/CMSIS/Include/cmsis_gcc.h ****   if (op2 == 0U)
 958:Drivers/CMSIS/Include/cmsis_gcc.h ****   {
 959:Drivers/CMSIS/Include/cmsis_gcc.h ****     return op1;
 960:Drivers/CMSIS/Include/cmsis_gcc.h ****   }
 961:Drivers/CMSIS/Include/cmsis_gcc.h ****   return (op1 >> op2) | (op1 << (32U - op2));
 962:Drivers/CMSIS/Include/cmsis_gcc.h **** }
 963:Drivers/CMSIS/Include/cmsis_gcc.h **** 
 964:Drivers/CMSIS/Include/cmsis_gcc.h **** 
 965:Drivers/CMSIS/Include/cmsis_gcc.h **** /**
 966:Drivers/CMSIS/Include/cmsis_gcc.h ****   \brief   Breakpoint
 967:Drivers/CMSIS/Include/cmsis_gcc.h ****   \details Causes the processor to enter Debug state.
 968:Drivers/CMSIS/Include/cmsis_gcc.h ****            Debug tools can use this to investigate system state when the instruction at a particula
 969:Drivers/CMSIS/Include/cmsis_gcc.h ****   \param [in]    value  is ignored by the processor.
 970:Drivers/CMSIS/Include/cmsis_gcc.h ****                  If required, a debugger can use it to store additional information about the break
 971:Drivers/CMSIS/Include/cmsis_gcc.h ****  */
 972:Drivers/CMSIS/Include/cmsis_gcc.h **** #define __BKPT(value)                       __ASM volatile ("bkpt "#value)
 973:Drivers/CMSIS/Include/cmsis_gcc.h **** 
 974:Drivers/CMSIS/Include/cmsis_gcc.h **** 
 975:Drivers/CMSIS/Include/cmsis_gcc.h **** /**
 976:Drivers/CMSIS/Include/cmsis_gcc.h ****   \brief   Reverse bit order of value
 977:Drivers/CMSIS/Include/cmsis_gcc.h ****   \details Reverses the bit order of the given value.
 978:Drivers/CMSIS/Include/cmsis_gcc.h ****   \param [in]    value  Value to reverse
 979:Drivers/CMSIS/Include/cmsis_gcc.h ****   \return               Reversed value
 980:Drivers/CMSIS/Include/cmsis_gcc.h ****  */
 981:Drivers/CMSIS/Include/cmsis_gcc.h **** __STATIC_FORCEINLINE uint32_t __RBIT(uint32_t value)
 982:Drivers/CMSIS/Include/cmsis_gcc.h **** {
 983:Drivers/CMSIS/Include/cmsis_gcc.h ****   uint32_t result;
 984:Drivers/CMSIS/Include/cmsis_gcc.h **** 
 985:Drivers/CMSIS/Include/cmsis_gcc.h **** #if ((defined (__ARM_ARCH_7M__      ) && (__ARM_ARCH_7M__      == 1)) || \
 986:Drivers/CMSIS/Include/cmsis_gcc.h ****      (defined (__ARM_ARCH_7EM__     ) && (__ARM_ARCH_7EM__     == 1)) || \
 987:Drivers/CMSIS/Include/cmsis_gcc.h ****      (defined (__ARM_ARCH_8M_MAIN__ ) && (__ARM_ARCH_8M_MAIN__ == 1))    )
 988:Drivers/CMSIS/Include/cmsis_gcc.h ****    __ASM volatile ("rbit %0, %1" : "=r" (result) : "r" (value) );
 989:Drivers/CMSIS/Include/cmsis_gcc.h **** #else
 990:Drivers/CMSIS/Include/cmsis_gcc.h ****   uint32_t s = (4U /*sizeof(v)*/ * 8U) - 1U; /* extra shift needed at end */
 991:Drivers/CMSIS/Include/cmsis_gcc.h **** 
ARM GAS  /tmp/cc3XjLgi.s 			page 26


 992:Drivers/CMSIS/Include/cmsis_gcc.h ****   result = value;                      /* r will be reversed bits of v; first get LSB of v */
 993:Drivers/CMSIS/Include/cmsis_gcc.h ****   for (value >>= 1U; value != 0U; value >>= 1U)
 994:Drivers/CMSIS/Include/cmsis_gcc.h ****   {
 995:Drivers/CMSIS/Include/cmsis_gcc.h ****     result <<= 1U;
 996:Drivers/CMSIS/Include/cmsis_gcc.h ****     result |= value & 1U;
 997:Drivers/CMSIS/Include/cmsis_gcc.h ****     s--;
 998:Drivers/CMSIS/Include/cmsis_gcc.h ****   }
 999:Drivers/CMSIS/Include/cmsis_gcc.h ****   result <<= s;                        /* shift when v's highest bits are zero */
1000:Drivers/CMSIS/Include/cmsis_gcc.h **** #endif
1001:Drivers/CMSIS/Include/cmsis_gcc.h ****   return result;
1002:Drivers/CMSIS/Include/cmsis_gcc.h **** }
1003:Drivers/CMSIS/Include/cmsis_gcc.h **** 
1004:Drivers/CMSIS/Include/cmsis_gcc.h **** 
1005:Drivers/CMSIS/Include/cmsis_gcc.h **** /**
1006:Drivers/CMSIS/Include/cmsis_gcc.h ****   \brief   Count leading zeros
1007:Drivers/CMSIS/Include/cmsis_gcc.h ****   \details Counts the number of leading zeros of a data value.
1008:Drivers/CMSIS/Include/cmsis_gcc.h ****   \param [in]  value  Value to count the leading zeros
1009:Drivers/CMSIS/Include/cmsis_gcc.h ****   \return             number of leading zeros in value
1010:Drivers/CMSIS/Include/cmsis_gcc.h ****  */
1011:Drivers/CMSIS/Include/cmsis_gcc.h **** #define __CLZ             (uint8_t)__builtin_clz
1012:Drivers/CMSIS/Include/cmsis_gcc.h **** 
1013:Drivers/CMSIS/Include/cmsis_gcc.h **** 
1014:Drivers/CMSIS/Include/cmsis_gcc.h **** #if ((defined (__ARM_ARCH_7M__      ) && (__ARM_ARCH_7M__      == 1)) || \
1015:Drivers/CMSIS/Include/cmsis_gcc.h ****      (defined (__ARM_ARCH_7EM__     ) && (__ARM_ARCH_7EM__     == 1)) || \
1016:Drivers/CMSIS/Include/cmsis_gcc.h ****      (defined (__ARM_ARCH_8M_MAIN__ ) && (__ARM_ARCH_8M_MAIN__ == 1)) || \
1017:Drivers/CMSIS/Include/cmsis_gcc.h ****      (defined (__ARM_ARCH_8M_BASE__ ) && (__ARM_ARCH_8M_BASE__ == 1))    )
1018:Drivers/CMSIS/Include/cmsis_gcc.h **** /**
1019:Drivers/CMSIS/Include/cmsis_gcc.h ****   \brief   LDR Exclusive (8 bit)
1020:Drivers/CMSIS/Include/cmsis_gcc.h ****   \details Executes a exclusive LDR instruction for 8 bit value.
1021:Drivers/CMSIS/Include/cmsis_gcc.h ****   \param [in]    ptr  Pointer to data
1022:Drivers/CMSIS/Include/cmsis_gcc.h ****   \return             value of type uint8_t at (*ptr)
1023:Drivers/CMSIS/Include/cmsis_gcc.h ****  */
1024:Drivers/CMSIS/Include/cmsis_gcc.h **** __STATIC_FORCEINLINE uint8_t __LDREXB(volatile uint8_t *addr)
1025:Drivers/CMSIS/Include/cmsis_gcc.h **** {
1026:Drivers/CMSIS/Include/cmsis_gcc.h ****     uint32_t result;
1027:Drivers/CMSIS/Include/cmsis_gcc.h **** 
1028:Drivers/CMSIS/Include/cmsis_gcc.h **** #if (__GNUC__ > 4) || (__GNUC__ == 4 && __GNUC_MINOR__ >= 8)
1029:Drivers/CMSIS/Include/cmsis_gcc.h ****    __ASM volatile ("ldrexb %0, %1" : "=r" (result) : "Q" (*addr) );
1030:Drivers/CMSIS/Include/cmsis_gcc.h **** #else
1031:Drivers/CMSIS/Include/cmsis_gcc.h ****     /* Prior to GCC 4.8, "Q" will be expanded to [rx, #0] which is not
1032:Drivers/CMSIS/Include/cmsis_gcc.h ****        accepted by assembler. So has to use following less efficient pattern.
1033:Drivers/CMSIS/Include/cmsis_gcc.h ****     */
1034:Drivers/CMSIS/Include/cmsis_gcc.h ****    __ASM volatile ("ldrexb %0, [%1]" : "=r" (result) : "r" (addr) : "memory" );
1035:Drivers/CMSIS/Include/cmsis_gcc.h **** #endif
1036:Drivers/CMSIS/Include/cmsis_gcc.h ****    return ((uint8_t) result);    /* Add explicit type cast here */
1037:Drivers/CMSIS/Include/cmsis_gcc.h **** }
1038:Drivers/CMSIS/Include/cmsis_gcc.h **** 
1039:Drivers/CMSIS/Include/cmsis_gcc.h **** 
1040:Drivers/CMSIS/Include/cmsis_gcc.h **** /**
1041:Drivers/CMSIS/Include/cmsis_gcc.h ****   \brief   LDR Exclusive (16 bit)
1042:Drivers/CMSIS/Include/cmsis_gcc.h ****   \details Executes a exclusive LDR instruction for 16 bit values.
1043:Drivers/CMSIS/Include/cmsis_gcc.h ****   \param [in]    ptr  Pointer to data
1044:Drivers/CMSIS/Include/cmsis_gcc.h ****   \return        value of type uint16_t at (*ptr)
1045:Drivers/CMSIS/Include/cmsis_gcc.h ****  */
1046:Drivers/CMSIS/Include/cmsis_gcc.h **** __STATIC_FORCEINLINE uint16_t __LDREXH(volatile uint16_t *addr)
1047:Drivers/CMSIS/Include/cmsis_gcc.h **** {
1048:Drivers/CMSIS/Include/cmsis_gcc.h ****     uint32_t result;
ARM GAS  /tmp/cc3XjLgi.s 			page 27


1049:Drivers/CMSIS/Include/cmsis_gcc.h **** 
1050:Drivers/CMSIS/Include/cmsis_gcc.h **** #if (__GNUC__ > 4) || (__GNUC__ == 4 && __GNUC_MINOR__ >= 8)
1051:Drivers/CMSIS/Include/cmsis_gcc.h ****    __ASM volatile ("ldrexh %0, %1" : "=r" (result) : "Q" (*addr) );
1052:Drivers/CMSIS/Include/cmsis_gcc.h **** #else
1053:Drivers/CMSIS/Include/cmsis_gcc.h ****     /* Prior to GCC 4.8, "Q" will be expanded to [rx, #0] which is not
1054:Drivers/CMSIS/Include/cmsis_gcc.h ****        accepted by assembler. So has to use following less efficient pattern.
1055:Drivers/CMSIS/Include/cmsis_gcc.h ****     */
1056:Drivers/CMSIS/Include/cmsis_gcc.h ****    __ASM volatile ("ldrexh %0, [%1]" : "=r" (result) : "r" (addr) : "memory" );
1057:Drivers/CMSIS/Include/cmsis_gcc.h **** #endif
1058:Drivers/CMSIS/Include/cmsis_gcc.h ****    return ((uint16_t) result);    /* Add explicit type cast here */
1059:Drivers/CMSIS/Include/cmsis_gcc.h **** }
1060:Drivers/CMSIS/Include/cmsis_gcc.h **** 
1061:Drivers/CMSIS/Include/cmsis_gcc.h **** 
1062:Drivers/CMSIS/Include/cmsis_gcc.h **** /**
1063:Drivers/CMSIS/Include/cmsis_gcc.h ****   \brief   LDR Exclusive (32 bit)
1064:Drivers/CMSIS/Include/cmsis_gcc.h ****   \details Executes a exclusive LDR instruction for 32 bit values.
1065:Drivers/CMSIS/Include/cmsis_gcc.h ****   \param [in]    ptr  Pointer to data
1066:Drivers/CMSIS/Include/cmsis_gcc.h ****   \return        value of type uint32_t at (*ptr)
1067:Drivers/CMSIS/Include/cmsis_gcc.h ****  */
1068:Drivers/CMSIS/Include/cmsis_gcc.h **** __STATIC_FORCEINLINE uint32_t __LDREXW(volatile uint32_t *addr)
1069:Drivers/CMSIS/Include/cmsis_gcc.h **** {
1070:Drivers/CMSIS/Include/cmsis_gcc.h ****     uint32_t result;
1071:Drivers/CMSIS/Include/cmsis_gcc.h **** 
1072:Drivers/CMSIS/Include/cmsis_gcc.h ****    __ASM volatile ("ldrex %0, %1" : "=r" (result) : "Q" (*addr) );
1073:Drivers/CMSIS/Include/cmsis_gcc.h ****    return(result);
1074:Drivers/CMSIS/Include/cmsis_gcc.h **** }
1075:Drivers/CMSIS/Include/cmsis_gcc.h **** 
1076:Drivers/CMSIS/Include/cmsis_gcc.h **** 
1077:Drivers/CMSIS/Include/cmsis_gcc.h **** /**
1078:Drivers/CMSIS/Include/cmsis_gcc.h ****   \brief   STR Exclusive (8 bit)
1079:Drivers/CMSIS/Include/cmsis_gcc.h ****   \details Executes a exclusive STR instruction for 8 bit values.
1080:Drivers/CMSIS/Include/cmsis_gcc.h ****   \param [in]  value  Value to store
1081:Drivers/CMSIS/Include/cmsis_gcc.h ****   \param [in]    ptr  Pointer to location
1082:Drivers/CMSIS/Include/cmsis_gcc.h ****   \return          0  Function succeeded
1083:Drivers/CMSIS/Include/cmsis_gcc.h ****   \return          1  Function failed
1084:Drivers/CMSIS/Include/cmsis_gcc.h ****  */
1085:Drivers/CMSIS/Include/cmsis_gcc.h **** __STATIC_FORCEINLINE uint32_t __STREXB(uint8_t value, volatile uint8_t *addr)
1086:Drivers/CMSIS/Include/cmsis_gcc.h **** {
1087:Drivers/CMSIS/Include/cmsis_gcc.h ****    uint32_t result;
1088:Drivers/CMSIS/Include/cmsis_gcc.h **** 
1089:Drivers/CMSIS/Include/cmsis_gcc.h ****    __ASM volatile ("strexb %0, %2, %1" : "=&r" (result), "=Q" (*addr) : "r" ((uint32_t)value) );
1090:Drivers/CMSIS/Include/cmsis_gcc.h ****    return(result);
1091:Drivers/CMSIS/Include/cmsis_gcc.h **** }
1092:Drivers/CMSIS/Include/cmsis_gcc.h **** 
1093:Drivers/CMSIS/Include/cmsis_gcc.h **** 
1094:Drivers/CMSIS/Include/cmsis_gcc.h **** /**
1095:Drivers/CMSIS/Include/cmsis_gcc.h ****   \brief   STR Exclusive (16 bit)
1096:Drivers/CMSIS/Include/cmsis_gcc.h ****   \details Executes a exclusive STR instruction for 16 bit values.
1097:Drivers/CMSIS/Include/cmsis_gcc.h ****   \param [in]  value  Value to store
1098:Drivers/CMSIS/Include/cmsis_gcc.h ****   \param [in]    ptr  Pointer to location
1099:Drivers/CMSIS/Include/cmsis_gcc.h ****   \return          0  Function succeeded
1100:Drivers/CMSIS/Include/cmsis_gcc.h ****   \return          1  Function failed
1101:Drivers/CMSIS/Include/cmsis_gcc.h ****  */
1102:Drivers/CMSIS/Include/cmsis_gcc.h **** __STATIC_FORCEINLINE uint32_t __STREXH(uint16_t value, volatile uint16_t *addr)
1103:Drivers/CMSIS/Include/cmsis_gcc.h **** {
1104:Drivers/CMSIS/Include/cmsis_gcc.h ****    uint32_t result;
1105:Drivers/CMSIS/Include/cmsis_gcc.h **** 
ARM GAS  /tmp/cc3XjLgi.s 			page 28


1106:Drivers/CMSIS/Include/cmsis_gcc.h ****    __ASM volatile ("strexh %0, %2, %1" : "=&r" (result), "=Q" (*addr) : "r" ((uint32_t)value) );
1107:Drivers/CMSIS/Include/cmsis_gcc.h ****    return(result);
1108:Drivers/CMSIS/Include/cmsis_gcc.h **** }
1109:Drivers/CMSIS/Include/cmsis_gcc.h **** 
1110:Drivers/CMSIS/Include/cmsis_gcc.h **** 
1111:Drivers/CMSIS/Include/cmsis_gcc.h **** /**
1112:Drivers/CMSIS/Include/cmsis_gcc.h ****   \brief   STR Exclusive (32 bit)
1113:Drivers/CMSIS/Include/cmsis_gcc.h ****   \details Executes a exclusive STR instruction for 32 bit values.
1114:Drivers/CMSIS/Include/cmsis_gcc.h ****   \param [in]  value  Value to store
1115:Drivers/CMSIS/Include/cmsis_gcc.h ****   \param [in]    ptr  Pointer to location
1116:Drivers/CMSIS/Include/cmsis_gcc.h ****   \return          0  Function succeeded
1117:Drivers/CMSIS/Include/cmsis_gcc.h ****   \return          1  Function failed
1118:Drivers/CMSIS/Include/cmsis_gcc.h ****  */
1119:Drivers/CMSIS/Include/cmsis_gcc.h **** __STATIC_FORCEINLINE uint32_t __STREXW(uint32_t value, volatile uint32_t *addr)
1120:Drivers/CMSIS/Include/cmsis_gcc.h **** {
1121:Drivers/CMSIS/Include/cmsis_gcc.h ****    uint32_t result;
1122:Drivers/CMSIS/Include/cmsis_gcc.h **** 
1123:Drivers/CMSIS/Include/cmsis_gcc.h ****    __ASM volatile ("strex %0, %2, %1" : "=&r" (result), "=Q" (*addr) : "r" (value) );
1124:Drivers/CMSIS/Include/cmsis_gcc.h ****    return(result);
1125:Drivers/CMSIS/Include/cmsis_gcc.h **** }
1126:Drivers/CMSIS/Include/cmsis_gcc.h **** 
1127:Drivers/CMSIS/Include/cmsis_gcc.h **** 
1128:Drivers/CMSIS/Include/cmsis_gcc.h **** /**
1129:Drivers/CMSIS/Include/cmsis_gcc.h ****   \brief   Remove the exclusive lock
1130:Drivers/CMSIS/Include/cmsis_gcc.h ****   \details Removes the exclusive lock which is created by LDREX.
1131:Drivers/CMSIS/Include/cmsis_gcc.h ****  */
1132:Drivers/CMSIS/Include/cmsis_gcc.h **** __STATIC_FORCEINLINE void __CLREX(void)
1133:Drivers/CMSIS/Include/cmsis_gcc.h **** {
1134:Drivers/CMSIS/Include/cmsis_gcc.h ****   __ASM volatile ("clrex" ::: "memory");
1135:Drivers/CMSIS/Include/cmsis_gcc.h **** }
1136:Drivers/CMSIS/Include/cmsis_gcc.h **** 
1137:Drivers/CMSIS/Include/cmsis_gcc.h **** #endif /* ((defined (__ARM_ARCH_7M__      ) && (__ARM_ARCH_7M__      == 1)) || \
1138:Drivers/CMSIS/Include/cmsis_gcc.h ****            (defined (__ARM_ARCH_7EM__     ) && (__ARM_ARCH_7EM__     == 1)) || \
1139:Drivers/CMSIS/Include/cmsis_gcc.h ****            (defined (__ARM_ARCH_8M_MAIN__ ) && (__ARM_ARCH_8M_MAIN__ == 1)) || \
1140:Drivers/CMSIS/Include/cmsis_gcc.h ****            (defined (__ARM_ARCH_8M_BASE__ ) && (__ARM_ARCH_8M_BASE__ == 1))    ) */
1141:Drivers/CMSIS/Include/cmsis_gcc.h **** 
1142:Drivers/CMSIS/Include/cmsis_gcc.h **** 
1143:Drivers/CMSIS/Include/cmsis_gcc.h **** #if ((defined (__ARM_ARCH_7M__      ) && (__ARM_ARCH_7M__      == 1)) || \
1144:Drivers/CMSIS/Include/cmsis_gcc.h ****      (defined (__ARM_ARCH_7EM__     ) && (__ARM_ARCH_7EM__     == 1)) || \
1145:Drivers/CMSIS/Include/cmsis_gcc.h ****      (defined (__ARM_ARCH_8M_MAIN__ ) && (__ARM_ARCH_8M_MAIN__ == 1))    )
1146:Drivers/CMSIS/Include/cmsis_gcc.h **** /**
1147:Drivers/CMSIS/Include/cmsis_gcc.h ****   \brief   Signed Saturate
1148:Drivers/CMSIS/Include/cmsis_gcc.h ****   \details Saturates a signed value.
1149:Drivers/CMSIS/Include/cmsis_gcc.h ****   \param [in]  ARG1  Value to be saturated
1150:Drivers/CMSIS/Include/cmsis_gcc.h ****   \param [in]  ARG2  Bit position to saturate to (1..32)
1151:Drivers/CMSIS/Include/cmsis_gcc.h ****   \return             Saturated value
1152:Drivers/CMSIS/Include/cmsis_gcc.h ****  */
1153:Drivers/CMSIS/Include/cmsis_gcc.h **** #define __SSAT(ARG1,ARG2) \
1154:Drivers/CMSIS/Include/cmsis_gcc.h **** __extension__ \
1155:Drivers/CMSIS/Include/cmsis_gcc.h **** ({                          \
1156:Drivers/CMSIS/Include/cmsis_gcc.h ****   int32_t __RES, __ARG1 = (ARG1); \
1157:Drivers/CMSIS/Include/cmsis_gcc.h ****   __ASM ("ssat %0, %1, %2" : "=r" (__RES) :  "I" (ARG2), "r" (__ARG1) ); \
1158:Drivers/CMSIS/Include/cmsis_gcc.h ****   __RES; \
1159:Drivers/CMSIS/Include/cmsis_gcc.h ****  })
1160:Drivers/CMSIS/Include/cmsis_gcc.h **** 
1161:Drivers/CMSIS/Include/cmsis_gcc.h **** 
1162:Drivers/CMSIS/Include/cmsis_gcc.h **** /**
ARM GAS  /tmp/cc3XjLgi.s 			page 29


1163:Drivers/CMSIS/Include/cmsis_gcc.h ****   \brief   Unsigned Saturate
1164:Drivers/CMSIS/Include/cmsis_gcc.h ****   \details Saturates an unsigned value.
1165:Drivers/CMSIS/Include/cmsis_gcc.h ****   \param [in]  ARG1  Value to be saturated
1166:Drivers/CMSIS/Include/cmsis_gcc.h ****   \param [in]  ARG2  Bit position to saturate to (0..31)
1167:Drivers/CMSIS/Include/cmsis_gcc.h ****   \return             Saturated value
1168:Drivers/CMSIS/Include/cmsis_gcc.h ****  */
1169:Drivers/CMSIS/Include/cmsis_gcc.h **** #define __USAT(ARG1,ARG2) \
1170:Drivers/CMSIS/Include/cmsis_gcc.h ****  __extension__ \
1171:Drivers/CMSIS/Include/cmsis_gcc.h **** ({                          \
1172:Drivers/CMSIS/Include/cmsis_gcc.h ****   uint32_t __RES, __ARG1 = (ARG1); \
1173:Drivers/CMSIS/Include/cmsis_gcc.h ****   __ASM ("usat %0, %1, %2" : "=r" (__RES) :  "I" (ARG2), "r" (__ARG1) ); \
1174:Drivers/CMSIS/Include/cmsis_gcc.h ****   __RES; \
1175:Drivers/CMSIS/Include/cmsis_gcc.h ****  })
1176:Drivers/CMSIS/Include/cmsis_gcc.h **** 
1177:Drivers/CMSIS/Include/cmsis_gcc.h **** 
1178:Drivers/CMSIS/Include/cmsis_gcc.h **** /**
1179:Drivers/CMSIS/Include/cmsis_gcc.h ****   \brief   Rotate Right with Extend (32 bit)
1180:Drivers/CMSIS/Include/cmsis_gcc.h ****   \details Moves each bit of a bitstring right by one bit.
1181:Drivers/CMSIS/Include/cmsis_gcc.h ****            The carry input is shifted in at the left end of the bitstring.
1182:Drivers/CMSIS/Include/cmsis_gcc.h ****   \param [in]    value  Value to rotate
1183:Drivers/CMSIS/Include/cmsis_gcc.h ****   \return               Rotated value
1184:Drivers/CMSIS/Include/cmsis_gcc.h ****  */
1185:Drivers/CMSIS/Include/cmsis_gcc.h **** __STATIC_FORCEINLINE uint32_t __RRX(uint32_t value)
1186:Drivers/CMSIS/Include/cmsis_gcc.h **** {
1187:Drivers/CMSIS/Include/cmsis_gcc.h ****   uint32_t result;
1188:Drivers/CMSIS/Include/cmsis_gcc.h **** 
1189:Drivers/CMSIS/Include/cmsis_gcc.h ****   __ASM volatile ("rrx %0, %1" : __CMSIS_GCC_OUT_REG (result) : __CMSIS_GCC_USE_REG (value) );
1190:Drivers/CMSIS/Include/cmsis_gcc.h ****   return(result);
1191:Drivers/CMSIS/Include/cmsis_gcc.h **** }
1192:Drivers/CMSIS/Include/cmsis_gcc.h **** 
1193:Drivers/CMSIS/Include/cmsis_gcc.h **** 
1194:Drivers/CMSIS/Include/cmsis_gcc.h **** /**
1195:Drivers/CMSIS/Include/cmsis_gcc.h ****   \brief   LDRT Unprivileged (8 bit)
1196:Drivers/CMSIS/Include/cmsis_gcc.h ****   \details Executes a Unprivileged LDRT instruction for 8 bit value.
1197:Drivers/CMSIS/Include/cmsis_gcc.h ****   \param [in]    ptr  Pointer to data
1198:Drivers/CMSIS/Include/cmsis_gcc.h ****   \return             value of type uint8_t at (*ptr)
1199:Drivers/CMSIS/Include/cmsis_gcc.h ****  */
1200:Drivers/CMSIS/Include/cmsis_gcc.h **** __STATIC_FORCEINLINE uint8_t __LDRBT(volatile uint8_t *ptr)
1201:Drivers/CMSIS/Include/cmsis_gcc.h **** {
1202:Drivers/CMSIS/Include/cmsis_gcc.h ****     uint32_t result;
1203:Drivers/CMSIS/Include/cmsis_gcc.h **** 
1204:Drivers/CMSIS/Include/cmsis_gcc.h **** #if (__GNUC__ > 4) || (__GNUC__ == 4 && __GNUC_MINOR__ >= 8)
1205:Drivers/CMSIS/Include/cmsis_gcc.h ****    __ASM volatile ("ldrbt %0, %1" : "=r" (result) : "Q" (*ptr) );
1206:Drivers/CMSIS/Include/cmsis_gcc.h **** #else
1207:Drivers/CMSIS/Include/cmsis_gcc.h ****     /* Prior to GCC 4.8, "Q" will be expanded to [rx, #0] which is not
1208:Drivers/CMSIS/Include/cmsis_gcc.h ****        accepted by assembler. So has to use following less efficient pattern.
1209:Drivers/CMSIS/Include/cmsis_gcc.h ****     */
1210:Drivers/CMSIS/Include/cmsis_gcc.h ****    __ASM volatile ("ldrbt %0, [%1]" : "=r" (result) : "r" (ptr) : "memory" );
1211:Drivers/CMSIS/Include/cmsis_gcc.h **** #endif
1212:Drivers/CMSIS/Include/cmsis_gcc.h ****    return ((uint8_t) result);    /* Add explicit type cast here */
1213:Drivers/CMSIS/Include/cmsis_gcc.h **** }
1214:Drivers/CMSIS/Include/cmsis_gcc.h **** 
1215:Drivers/CMSIS/Include/cmsis_gcc.h **** 
1216:Drivers/CMSIS/Include/cmsis_gcc.h **** /**
1217:Drivers/CMSIS/Include/cmsis_gcc.h ****   \brief   LDRT Unprivileged (16 bit)
1218:Drivers/CMSIS/Include/cmsis_gcc.h ****   \details Executes a Unprivileged LDRT instruction for 16 bit values.
1219:Drivers/CMSIS/Include/cmsis_gcc.h ****   \param [in]    ptr  Pointer to data
ARM GAS  /tmp/cc3XjLgi.s 			page 30


1220:Drivers/CMSIS/Include/cmsis_gcc.h ****   \return        value of type uint16_t at (*ptr)
1221:Drivers/CMSIS/Include/cmsis_gcc.h ****  */
1222:Drivers/CMSIS/Include/cmsis_gcc.h **** __STATIC_FORCEINLINE uint16_t __LDRHT(volatile uint16_t *ptr)
1223:Drivers/CMSIS/Include/cmsis_gcc.h **** {
1224:Drivers/CMSIS/Include/cmsis_gcc.h ****     uint32_t result;
1225:Drivers/CMSIS/Include/cmsis_gcc.h **** 
1226:Drivers/CMSIS/Include/cmsis_gcc.h **** #if (__GNUC__ > 4) || (__GNUC__ == 4 && __GNUC_MINOR__ >= 8)
1227:Drivers/CMSIS/Include/cmsis_gcc.h ****    __ASM volatile ("ldrht %0, %1" : "=r" (result) : "Q" (*ptr) );
1228:Drivers/CMSIS/Include/cmsis_gcc.h **** #else
1229:Drivers/CMSIS/Include/cmsis_gcc.h ****     /* Prior to GCC 4.8, "Q" will be expanded to [rx, #0] which is not
1230:Drivers/CMSIS/Include/cmsis_gcc.h ****        accepted by assembler. So has to use following less efficient pattern.
1231:Drivers/CMSIS/Include/cmsis_gcc.h ****     */
1232:Drivers/CMSIS/Include/cmsis_gcc.h ****    __ASM volatile ("ldrht %0, [%1]" : "=r" (result) : "r" (ptr) : "memory" );
1233:Drivers/CMSIS/Include/cmsis_gcc.h **** #endif
1234:Drivers/CMSIS/Include/cmsis_gcc.h ****    return ((uint16_t) result);    /* Add explicit type cast here */
1235:Drivers/CMSIS/Include/cmsis_gcc.h **** }
1236:Drivers/CMSIS/Include/cmsis_gcc.h **** 
1237:Drivers/CMSIS/Include/cmsis_gcc.h **** 
1238:Drivers/CMSIS/Include/cmsis_gcc.h **** /**
1239:Drivers/CMSIS/Include/cmsis_gcc.h ****   \brief   LDRT Unprivileged (32 bit)
1240:Drivers/CMSIS/Include/cmsis_gcc.h ****   \details Executes a Unprivileged LDRT instruction for 32 bit values.
1241:Drivers/CMSIS/Include/cmsis_gcc.h ****   \param [in]    ptr  Pointer to data
1242:Drivers/CMSIS/Include/cmsis_gcc.h ****   \return        value of type uint32_t at (*ptr)
1243:Drivers/CMSIS/Include/cmsis_gcc.h ****  */
1244:Drivers/CMSIS/Include/cmsis_gcc.h **** __STATIC_FORCEINLINE uint32_t __LDRT(volatile uint32_t *ptr)
1245:Drivers/CMSIS/Include/cmsis_gcc.h **** {
1246:Drivers/CMSIS/Include/cmsis_gcc.h ****     uint32_t result;
1247:Drivers/CMSIS/Include/cmsis_gcc.h **** 
1248:Drivers/CMSIS/Include/cmsis_gcc.h ****    __ASM volatile ("ldrt %0, %1" : "=r" (result) : "Q" (*ptr) );
1249:Drivers/CMSIS/Include/cmsis_gcc.h ****    return(result);
1250:Drivers/CMSIS/Include/cmsis_gcc.h **** }
1251:Drivers/CMSIS/Include/cmsis_gcc.h **** 
1252:Drivers/CMSIS/Include/cmsis_gcc.h **** 
1253:Drivers/CMSIS/Include/cmsis_gcc.h **** /**
1254:Drivers/CMSIS/Include/cmsis_gcc.h ****   \brief   STRT Unprivileged (8 bit)
1255:Drivers/CMSIS/Include/cmsis_gcc.h ****   \details Executes a Unprivileged STRT instruction for 8 bit values.
1256:Drivers/CMSIS/Include/cmsis_gcc.h ****   \param [in]  value  Value to store
1257:Drivers/CMSIS/Include/cmsis_gcc.h ****   \param [in]    ptr  Pointer to location
1258:Drivers/CMSIS/Include/cmsis_gcc.h ****  */
1259:Drivers/CMSIS/Include/cmsis_gcc.h **** __STATIC_FORCEINLINE void __STRBT(uint8_t value, volatile uint8_t *ptr)
1260:Drivers/CMSIS/Include/cmsis_gcc.h **** {
1261:Drivers/CMSIS/Include/cmsis_gcc.h ****    __ASM volatile ("strbt %1, %0" : "=Q" (*ptr) : "r" ((uint32_t)value) );
1262:Drivers/CMSIS/Include/cmsis_gcc.h **** }
1263:Drivers/CMSIS/Include/cmsis_gcc.h **** 
1264:Drivers/CMSIS/Include/cmsis_gcc.h **** 
1265:Drivers/CMSIS/Include/cmsis_gcc.h **** /**
1266:Drivers/CMSIS/Include/cmsis_gcc.h ****   \brief   STRT Unprivileged (16 bit)
1267:Drivers/CMSIS/Include/cmsis_gcc.h ****   \details Executes a Unprivileged STRT instruction for 16 bit values.
1268:Drivers/CMSIS/Include/cmsis_gcc.h ****   \param [in]  value  Value to store
1269:Drivers/CMSIS/Include/cmsis_gcc.h ****   \param [in]    ptr  Pointer to location
1270:Drivers/CMSIS/Include/cmsis_gcc.h ****  */
1271:Drivers/CMSIS/Include/cmsis_gcc.h **** __STATIC_FORCEINLINE void __STRHT(uint16_t value, volatile uint16_t *ptr)
1272:Drivers/CMSIS/Include/cmsis_gcc.h **** {
1273:Drivers/CMSIS/Include/cmsis_gcc.h ****    __ASM volatile ("strht %1, %0" : "=Q" (*ptr) : "r" ((uint32_t)value) );
1274:Drivers/CMSIS/Include/cmsis_gcc.h **** }
1275:Drivers/CMSIS/Include/cmsis_gcc.h **** 
1276:Drivers/CMSIS/Include/cmsis_gcc.h **** 
ARM GAS  /tmp/cc3XjLgi.s 			page 31


1277:Drivers/CMSIS/Include/cmsis_gcc.h **** /**
1278:Drivers/CMSIS/Include/cmsis_gcc.h ****   \brief   STRT Unprivileged (32 bit)
1279:Drivers/CMSIS/Include/cmsis_gcc.h ****   \details Executes a Unprivileged STRT instruction for 32 bit values.
1280:Drivers/CMSIS/Include/cmsis_gcc.h ****   \param [in]  value  Value to store
1281:Drivers/CMSIS/Include/cmsis_gcc.h ****   \param [in]    ptr  Pointer to location
1282:Drivers/CMSIS/Include/cmsis_gcc.h ****  */
1283:Drivers/CMSIS/Include/cmsis_gcc.h **** __STATIC_FORCEINLINE void __STRT(uint32_t value, volatile uint32_t *ptr)
1284:Drivers/CMSIS/Include/cmsis_gcc.h **** {
1285:Drivers/CMSIS/Include/cmsis_gcc.h ****    __ASM volatile ("strt %1, %0" : "=Q" (*ptr) : "r" (value) );
1286:Drivers/CMSIS/Include/cmsis_gcc.h **** }
1287:Drivers/CMSIS/Include/cmsis_gcc.h **** 
1288:Drivers/CMSIS/Include/cmsis_gcc.h **** #else  /* ((defined (__ARM_ARCH_7M__      ) && (__ARM_ARCH_7M__      == 1)) || \
1289:Drivers/CMSIS/Include/cmsis_gcc.h ****            (defined (__ARM_ARCH_7EM__     ) && (__ARM_ARCH_7EM__     == 1)) || \
1290:Drivers/CMSIS/Include/cmsis_gcc.h ****            (defined (__ARM_ARCH_8M_MAIN__ ) && (__ARM_ARCH_8M_MAIN__ == 1))    ) */
1291:Drivers/CMSIS/Include/cmsis_gcc.h **** 
1292:Drivers/CMSIS/Include/cmsis_gcc.h **** /**
1293:Drivers/CMSIS/Include/cmsis_gcc.h ****   \brief   Signed Saturate
1294:Drivers/CMSIS/Include/cmsis_gcc.h ****   \details Saturates a signed value.
1295:Drivers/CMSIS/Include/cmsis_gcc.h ****   \param [in]  value  Value to be saturated
1296:Drivers/CMSIS/Include/cmsis_gcc.h ****   \param [in]    sat  Bit position to saturate to (1..32)
1297:Drivers/CMSIS/Include/cmsis_gcc.h ****   \return             Saturated value
1298:Drivers/CMSIS/Include/cmsis_gcc.h ****  */
1299:Drivers/CMSIS/Include/cmsis_gcc.h **** __STATIC_FORCEINLINE int32_t __SSAT(int32_t val, uint32_t sat)
1300:Drivers/CMSIS/Include/cmsis_gcc.h **** {
1301:Drivers/CMSIS/Include/cmsis_gcc.h ****   if ((sat >= 1U) && (sat <= 32U))
1302:Drivers/CMSIS/Include/cmsis_gcc.h ****   {
1303:Drivers/CMSIS/Include/cmsis_gcc.h ****     const int32_t max = (int32_t)((1U << (sat - 1U)) - 1U);
1304:Drivers/CMSIS/Include/cmsis_gcc.h ****     const int32_t min = -1 - max ;
1305:Drivers/CMSIS/Include/cmsis_gcc.h ****     if (val > max)
1306:Drivers/CMSIS/Include/cmsis_gcc.h ****     {
1307:Drivers/CMSIS/Include/cmsis_gcc.h ****       return max;
1308:Drivers/CMSIS/Include/cmsis_gcc.h ****     }
1309:Drivers/CMSIS/Include/cmsis_gcc.h ****     else if (val < min)
1310:Drivers/CMSIS/Include/cmsis_gcc.h ****     {
1311:Drivers/CMSIS/Include/cmsis_gcc.h ****       return min;
1312:Drivers/CMSIS/Include/cmsis_gcc.h ****     }
1313:Drivers/CMSIS/Include/cmsis_gcc.h ****   }
1314:Drivers/CMSIS/Include/cmsis_gcc.h ****   return val;
1315:Drivers/CMSIS/Include/cmsis_gcc.h **** }
1316:Drivers/CMSIS/Include/cmsis_gcc.h **** 
1317:Drivers/CMSIS/Include/cmsis_gcc.h **** /**
1318:Drivers/CMSIS/Include/cmsis_gcc.h ****   \brief   Unsigned Saturate
1319:Drivers/CMSIS/Include/cmsis_gcc.h ****   \details Saturates an unsigned value.
1320:Drivers/CMSIS/Include/cmsis_gcc.h ****   \param [in]  value  Value to be saturated
1321:Drivers/CMSIS/Include/cmsis_gcc.h ****   \param [in]    sat  Bit position to saturate to (0..31)
1322:Drivers/CMSIS/Include/cmsis_gcc.h ****   \return             Saturated value
1323:Drivers/CMSIS/Include/cmsis_gcc.h ****  */
1324:Drivers/CMSIS/Include/cmsis_gcc.h **** __STATIC_FORCEINLINE uint32_t __USAT(int32_t val, uint32_t sat)
1325:Drivers/CMSIS/Include/cmsis_gcc.h **** {
1326:Drivers/CMSIS/Include/cmsis_gcc.h ****   if (sat <= 31U)
1327:Drivers/CMSIS/Include/cmsis_gcc.h ****   {
1328:Drivers/CMSIS/Include/cmsis_gcc.h ****     const uint32_t max = ((1U << sat) - 1U);
1329:Drivers/CMSIS/Include/cmsis_gcc.h ****     if (val > (int32_t)max)
1330:Drivers/CMSIS/Include/cmsis_gcc.h ****     {
1331:Drivers/CMSIS/Include/cmsis_gcc.h ****       return max;
1332:Drivers/CMSIS/Include/cmsis_gcc.h ****     }
1333:Drivers/CMSIS/Include/cmsis_gcc.h ****     else if (val < 0)
ARM GAS  /tmp/cc3XjLgi.s 			page 32


1334:Drivers/CMSIS/Include/cmsis_gcc.h ****     {
1335:Drivers/CMSIS/Include/cmsis_gcc.h ****       return 0U;
1336:Drivers/CMSIS/Include/cmsis_gcc.h ****     }
1337:Drivers/CMSIS/Include/cmsis_gcc.h ****   }
1338:Drivers/CMSIS/Include/cmsis_gcc.h ****   return (uint32_t)val;
1339:Drivers/CMSIS/Include/cmsis_gcc.h **** }
1340:Drivers/CMSIS/Include/cmsis_gcc.h **** 
1341:Drivers/CMSIS/Include/cmsis_gcc.h **** #endif /* ((defined (__ARM_ARCH_7M__      ) && (__ARM_ARCH_7M__      == 1)) || \
1342:Drivers/CMSIS/Include/cmsis_gcc.h ****            (defined (__ARM_ARCH_7EM__     ) && (__ARM_ARCH_7EM__     == 1)) || \
1343:Drivers/CMSIS/Include/cmsis_gcc.h ****            (defined (__ARM_ARCH_8M_MAIN__ ) && (__ARM_ARCH_8M_MAIN__ == 1))    ) */
1344:Drivers/CMSIS/Include/cmsis_gcc.h **** 
1345:Drivers/CMSIS/Include/cmsis_gcc.h **** 
1346:Drivers/CMSIS/Include/cmsis_gcc.h **** #if ((defined (__ARM_ARCH_8M_MAIN__ ) && (__ARM_ARCH_8M_MAIN__ == 1)) || \
1347:Drivers/CMSIS/Include/cmsis_gcc.h ****      (defined (__ARM_ARCH_8M_BASE__ ) && (__ARM_ARCH_8M_BASE__ == 1))    )
1348:Drivers/CMSIS/Include/cmsis_gcc.h **** /**
1349:Drivers/CMSIS/Include/cmsis_gcc.h ****   \brief   Load-Acquire (8 bit)
1350:Drivers/CMSIS/Include/cmsis_gcc.h ****   \details Executes a LDAB instruction for 8 bit value.
1351:Drivers/CMSIS/Include/cmsis_gcc.h ****   \param [in]    ptr  Pointer to data
1352:Drivers/CMSIS/Include/cmsis_gcc.h ****   \return             value of type uint8_t at (*ptr)
1353:Drivers/CMSIS/Include/cmsis_gcc.h ****  */
1354:Drivers/CMSIS/Include/cmsis_gcc.h **** __STATIC_FORCEINLINE uint8_t __LDAB(volatile uint8_t *ptr)
1355:Drivers/CMSIS/Include/cmsis_gcc.h **** {
1356:Drivers/CMSIS/Include/cmsis_gcc.h ****     uint32_t result;
1357:Drivers/CMSIS/Include/cmsis_gcc.h **** 
1358:Drivers/CMSIS/Include/cmsis_gcc.h ****    __ASM volatile ("ldab %0, %1" : "=r" (result) : "Q" (*ptr) );
1359:Drivers/CMSIS/Include/cmsis_gcc.h ****    return ((uint8_t) result);
1360:Drivers/CMSIS/Include/cmsis_gcc.h **** }
1361:Drivers/CMSIS/Include/cmsis_gcc.h **** 
1362:Drivers/CMSIS/Include/cmsis_gcc.h **** 
1363:Drivers/CMSIS/Include/cmsis_gcc.h **** /**
1364:Drivers/CMSIS/Include/cmsis_gcc.h ****   \brief   Load-Acquire (16 bit)
1365:Drivers/CMSIS/Include/cmsis_gcc.h ****   \details Executes a LDAH instruction for 16 bit values.
1366:Drivers/CMSIS/Include/cmsis_gcc.h ****   \param [in]    ptr  Pointer to data
1367:Drivers/CMSIS/Include/cmsis_gcc.h ****   \return        value of type uint16_t at (*ptr)
1368:Drivers/CMSIS/Include/cmsis_gcc.h ****  */
1369:Drivers/CMSIS/Include/cmsis_gcc.h **** __STATIC_FORCEINLINE uint16_t __LDAH(volatile uint16_t *ptr)
1370:Drivers/CMSIS/Include/cmsis_gcc.h **** {
1371:Drivers/CMSIS/Include/cmsis_gcc.h ****     uint32_t result;
1372:Drivers/CMSIS/Include/cmsis_gcc.h **** 
1373:Drivers/CMSIS/Include/cmsis_gcc.h ****    __ASM volatile ("ldah %0, %1" : "=r" (result) : "Q" (*ptr) );
1374:Drivers/CMSIS/Include/cmsis_gcc.h ****    return ((uint16_t) result);
1375:Drivers/CMSIS/Include/cmsis_gcc.h **** }
1376:Drivers/CMSIS/Include/cmsis_gcc.h **** 
1377:Drivers/CMSIS/Include/cmsis_gcc.h **** 
1378:Drivers/CMSIS/Include/cmsis_gcc.h **** /**
1379:Drivers/CMSIS/Include/cmsis_gcc.h ****   \brief   Load-Acquire (32 bit)
1380:Drivers/CMSIS/Include/cmsis_gcc.h ****   \details Executes a LDA instruction for 32 bit values.
1381:Drivers/CMSIS/Include/cmsis_gcc.h ****   \param [in]    ptr  Pointer to data
1382:Drivers/CMSIS/Include/cmsis_gcc.h ****   \return        value of type uint32_t at (*ptr)
1383:Drivers/CMSIS/Include/cmsis_gcc.h ****  */
1384:Drivers/CMSIS/Include/cmsis_gcc.h **** __STATIC_FORCEINLINE uint32_t __LDA(volatile uint32_t *ptr)
1385:Drivers/CMSIS/Include/cmsis_gcc.h **** {
1386:Drivers/CMSIS/Include/cmsis_gcc.h ****     uint32_t result;
1387:Drivers/CMSIS/Include/cmsis_gcc.h **** 
1388:Drivers/CMSIS/Include/cmsis_gcc.h ****    __ASM volatile ("lda %0, %1" : "=r" (result) : "Q" (*ptr) );
1389:Drivers/CMSIS/Include/cmsis_gcc.h ****    return(result);
1390:Drivers/CMSIS/Include/cmsis_gcc.h **** }
ARM GAS  /tmp/cc3XjLgi.s 			page 33


1391:Drivers/CMSIS/Include/cmsis_gcc.h **** 
1392:Drivers/CMSIS/Include/cmsis_gcc.h **** 
1393:Drivers/CMSIS/Include/cmsis_gcc.h **** /**
1394:Drivers/CMSIS/Include/cmsis_gcc.h ****   \brief   Store-Release (8 bit)
1395:Drivers/CMSIS/Include/cmsis_gcc.h ****   \details Executes a STLB instruction for 8 bit values.
1396:Drivers/CMSIS/Include/cmsis_gcc.h ****   \param [in]  value  Value to store
1397:Drivers/CMSIS/Include/cmsis_gcc.h ****   \param [in]    ptr  Pointer to location
1398:Drivers/CMSIS/Include/cmsis_gcc.h ****  */
1399:Drivers/CMSIS/Include/cmsis_gcc.h **** __STATIC_FORCEINLINE void __STLB(uint8_t value, volatile uint8_t *ptr)
1400:Drivers/CMSIS/Include/cmsis_gcc.h **** {
1401:Drivers/CMSIS/Include/cmsis_gcc.h ****    __ASM volatile ("stlb %1, %0" : "=Q" (*ptr) : "r" ((uint32_t)value) );
1402:Drivers/CMSIS/Include/cmsis_gcc.h **** }
1403:Drivers/CMSIS/Include/cmsis_gcc.h **** 
1404:Drivers/CMSIS/Include/cmsis_gcc.h **** 
1405:Drivers/CMSIS/Include/cmsis_gcc.h **** /**
1406:Drivers/CMSIS/Include/cmsis_gcc.h ****   \brief   Store-Release (16 bit)
1407:Drivers/CMSIS/Include/cmsis_gcc.h ****   \details Executes a STLH instruction for 16 bit values.
1408:Drivers/CMSIS/Include/cmsis_gcc.h ****   \param [in]  value  Value to store
1409:Drivers/CMSIS/Include/cmsis_gcc.h ****   \param [in]    ptr  Pointer to location
1410:Drivers/CMSIS/Include/cmsis_gcc.h ****  */
1411:Drivers/CMSIS/Include/cmsis_gcc.h **** __STATIC_FORCEINLINE void __STLH(uint16_t value, volatile uint16_t *ptr)
1412:Drivers/CMSIS/Include/cmsis_gcc.h **** {
1413:Drivers/CMSIS/Include/cmsis_gcc.h ****    __ASM volatile ("stlh %1, %0" : "=Q" (*ptr) : "r" ((uint32_t)value) );
1414:Drivers/CMSIS/Include/cmsis_gcc.h **** }
1415:Drivers/CMSIS/Include/cmsis_gcc.h **** 
1416:Drivers/CMSIS/Include/cmsis_gcc.h **** 
1417:Drivers/CMSIS/Include/cmsis_gcc.h **** /**
1418:Drivers/CMSIS/Include/cmsis_gcc.h ****   \brief   Store-Release (32 bit)
1419:Drivers/CMSIS/Include/cmsis_gcc.h ****   \details Executes a STL instruction for 32 bit values.
1420:Drivers/CMSIS/Include/cmsis_gcc.h ****   \param [in]  value  Value to store
1421:Drivers/CMSIS/Include/cmsis_gcc.h ****   \param [in]    ptr  Pointer to location
1422:Drivers/CMSIS/Include/cmsis_gcc.h ****  */
1423:Drivers/CMSIS/Include/cmsis_gcc.h **** __STATIC_FORCEINLINE void __STL(uint32_t value, volatile uint32_t *ptr)
1424:Drivers/CMSIS/Include/cmsis_gcc.h **** {
1425:Drivers/CMSIS/Include/cmsis_gcc.h ****    __ASM volatile ("stl %1, %0" : "=Q" (*ptr) : "r" ((uint32_t)value) );
1426:Drivers/CMSIS/Include/cmsis_gcc.h **** }
1427:Drivers/CMSIS/Include/cmsis_gcc.h **** 
1428:Drivers/CMSIS/Include/cmsis_gcc.h **** 
1429:Drivers/CMSIS/Include/cmsis_gcc.h **** /**
1430:Drivers/CMSIS/Include/cmsis_gcc.h ****   \brief   Load-Acquire Exclusive (8 bit)
1431:Drivers/CMSIS/Include/cmsis_gcc.h ****   \details Executes a LDAB exclusive instruction for 8 bit value.
1432:Drivers/CMSIS/Include/cmsis_gcc.h ****   \param [in]    ptr  Pointer to data
1433:Drivers/CMSIS/Include/cmsis_gcc.h ****   \return             value of type uint8_t at (*ptr)
1434:Drivers/CMSIS/Include/cmsis_gcc.h ****  */
1435:Drivers/CMSIS/Include/cmsis_gcc.h **** __STATIC_FORCEINLINE uint8_t __LDAEXB(volatile uint8_t *ptr)
1436:Drivers/CMSIS/Include/cmsis_gcc.h **** {
1437:Drivers/CMSIS/Include/cmsis_gcc.h ****     uint32_t result;
1438:Drivers/CMSIS/Include/cmsis_gcc.h **** 
1439:Drivers/CMSIS/Include/cmsis_gcc.h ****    __ASM volatile ("ldaexb %0, %1" : "=r" (result) : "Q" (*ptr) );
1440:Drivers/CMSIS/Include/cmsis_gcc.h ****    return ((uint8_t) result);
1441:Drivers/CMSIS/Include/cmsis_gcc.h **** }
1442:Drivers/CMSIS/Include/cmsis_gcc.h **** 
1443:Drivers/CMSIS/Include/cmsis_gcc.h **** 
1444:Drivers/CMSIS/Include/cmsis_gcc.h **** /**
1445:Drivers/CMSIS/Include/cmsis_gcc.h ****   \brief   Load-Acquire Exclusive (16 bit)
1446:Drivers/CMSIS/Include/cmsis_gcc.h ****   \details Executes a LDAH exclusive instruction for 16 bit values.
1447:Drivers/CMSIS/Include/cmsis_gcc.h ****   \param [in]    ptr  Pointer to data
ARM GAS  /tmp/cc3XjLgi.s 			page 34


1448:Drivers/CMSIS/Include/cmsis_gcc.h ****   \return        value of type uint16_t at (*ptr)
1449:Drivers/CMSIS/Include/cmsis_gcc.h ****  */
1450:Drivers/CMSIS/Include/cmsis_gcc.h **** __STATIC_FORCEINLINE uint16_t __LDAEXH(volatile uint16_t *ptr)
1451:Drivers/CMSIS/Include/cmsis_gcc.h **** {
1452:Drivers/CMSIS/Include/cmsis_gcc.h ****     uint32_t result;
1453:Drivers/CMSIS/Include/cmsis_gcc.h **** 
1454:Drivers/CMSIS/Include/cmsis_gcc.h ****    __ASM volatile ("ldaexh %0, %1" : "=r" (result) : "Q" (*ptr) );
1455:Drivers/CMSIS/Include/cmsis_gcc.h ****    return ((uint16_t) result);
1456:Drivers/CMSIS/Include/cmsis_gcc.h **** }
1457:Drivers/CMSIS/Include/cmsis_gcc.h **** 
1458:Drivers/CMSIS/Include/cmsis_gcc.h **** 
1459:Drivers/CMSIS/Include/cmsis_gcc.h **** /**
1460:Drivers/CMSIS/Include/cmsis_gcc.h ****   \brief   Load-Acquire Exclusive (32 bit)
1461:Drivers/CMSIS/Include/cmsis_gcc.h ****   \details Executes a LDA exclusive instruction for 32 bit values.
1462:Drivers/CMSIS/Include/cmsis_gcc.h ****   \param [in]    ptr  Pointer to data
1463:Drivers/CMSIS/Include/cmsis_gcc.h ****   \return        value of type uint32_t at (*ptr)
1464:Drivers/CMSIS/Include/cmsis_gcc.h ****  */
1465:Drivers/CMSIS/Include/cmsis_gcc.h **** __STATIC_FORCEINLINE uint32_t __LDAEX(volatile uint32_t *ptr)
1466:Drivers/CMSIS/Include/cmsis_gcc.h **** {
1467:Drivers/CMSIS/Include/cmsis_gcc.h ****     uint32_t result;
1468:Drivers/CMSIS/Include/cmsis_gcc.h **** 
1469:Drivers/CMSIS/Include/cmsis_gcc.h ****    __ASM volatile ("ldaex %0, %1" : "=r" (result) : "Q" (*ptr) );
1470:Drivers/CMSIS/Include/cmsis_gcc.h ****    return(result);
1471:Drivers/CMSIS/Include/cmsis_gcc.h **** }
1472:Drivers/CMSIS/Include/cmsis_gcc.h **** 
1473:Drivers/CMSIS/Include/cmsis_gcc.h **** 
1474:Drivers/CMSIS/Include/cmsis_gcc.h **** /**
1475:Drivers/CMSIS/Include/cmsis_gcc.h ****   \brief   Store-Release Exclusive (8 bit)
1476:Drivers/CMSIS/Include/cmsis_gcc.h ****   \details Executes a STLB exclusive instruction for 8 bit values.
1477:Drivers/CMSIS/Include/cmsis_gcc.h ****   \param [in]  value  Value to store
1478:Drivers/CMSIS/Include/cmsis_gcc.h ****   \param [in]    ptr  Pointer to location
1479:Drivers/CMSIS/Include/cmsis_gcc.h ****   \return          0  Function succeeded
1480:Drivers/CMSIS/Include/cmsis_gcc.h ****   \return          1  Function failed
1481:Drivers/CMSIS/Include/cmsis_gcc.h ****  */
1482:Drivers/CMSIS/Include/cmsis_gcc.h **** __STATIC_FORCEINLINE uint32_t __STLEXB(uint8_t value, volatile uint8_t *ptr)
1483:Drivers/CMSIS/Include/cmsis_gcc.h **** {
1484:Drivers/CMSIS/Include/cmsis_gcc.h ****    uint32_t result;
1485:Drivers/CMSIS/Include/cmsis_gcc.h **** 
1486:Drivers/CMSIS/Include/cmsis_gcc.h ****    __ASM volatile ("stlexb %0, %2, %1" : "=&r" (result), "=Q" (*ptr) : "r" ((uint32_t)value) );
1487:Drivers/CMSIS/Include/cmsis_gcc.h ****    return(result);
1488:Drivers/CMSIS/Include/cmsis_gcc.h **** }
1489:Drivers/CMSIS/Include/cmsis_gcc.h **** 
1490:Drivers/CMSIS/Include/cmsis_gcc.h **** 
1491:Drivers/CMSIS/Include/cmsis_gcc.h **** /**
1492:Drivers/CMSIS/Include/cmsis_gcc.h ****   \brief   Store-Release Exclusive (16 bit)
1493:Drivers/CMSIS/Include/cmsis_gcc.h ****   \details Executes a STLH exclusive instruction for 16 bit values.
1494:Drivers/CMSIS/Include/cmsis_gcc.h ****   \param [in]  value  Value to store
1495:Drivers/CMSIS/Include/cmsis_gcc.h ****   \param [in]    ptr  Pointer to location
1496:Drivers/CMSIS/Include/cmsis_gcc.h ****   \return          0  Function succeeded
1497:Drivers/CMSIS/Include/cmsis_gcc.h ****   \return          1  Function failed
1498:Drivers/CMSIS/Include/cmsis_gcc.h ****  */
1499:Drivers/CMSIS/Include/cmsis_gcc.h **** __STATIC_FORCEINLINE uint32_t __STLEXH(uint16_t value, volatile uint16_t *ptr)
1500:Drivers/CMSIS/Include/cmsis_gcc.h **** {
1501:Drivers/CMSIS/Include/cmsis_gcc.h ****    uint32_t result;
1502:Drivers/CMSIS/Include/cmsis_gcc.h **** 
1503:Drivers/CMSIS/Include/cmsis_gcc.h ****    __ASM volatile ("stlexh %0, %2, %1" : "=&r" (result), "=Q" (*ptr) : "r" ((uint32_t)value) );
1504:Drivers/CMSIS/Include/cmsis_gcc.h ****    return(result);
ARM GAS  /tmp/cc3XjLgi.s 			page 35


1505:Drivers/CMSIS/Include/cmsis_gcc.h **** }
1506:Drivers/CMSIS/Include/cmsis_gcc.h **** 
1507:Drivers/CMSIS/Include/cmsis_gcc.h **** 
1508:Drivers/CMSIS/Include/cmsis_gcc.h **** /**
1509:Drivers/CMSIS/Include/cmsis_gcc.h ****   \brief   Store-Release Exclusive (32 bit)
1510:Drivers/CMSIS/Include/cmsis_gcc.h ****   \details Executes a STL exclusive instruction for 32 bit values.
1511:Drivers/CMSIS/Include/cmsis_gcc.h ****   \param [in]  value  Value to store
1512:Drivers/CMSIS/Include/cmsis_gcc.h ****   \param [in]    ptr  Pointer to location
1513:Drivers/CMSIS/Include/cmsis_gcc.h ****   \return          0  Function succeeded
1514:Drivers/CMSIS/Include/cmsis_gcc.h ****   \return          1  Function failed
1515:Drivers/CMSIS/Include/cmsis_gcc.h ****  */
1516:Drivers/CMSIS/Include/cmsis_gcc.h **** __STATIC_FORCEINLINE uint32_t __STLEX(uint32_t value, volatile uint32_t *ptr)
1517:Drivers/CMSIS/Include/cmsis_gcc.h **** {
1518:Drivers/CMSIS/Include/cmsis_gcc.h ****    uint32_t result;
1519:Drivers/CMSIS/Include/cmsis_gcc.h **** 
1520:Drivers/CMSIS/Include/cmsis_gcc.h ****    __ASM volatile ("stlex %0, %2, %1" : "=&r" (result), "=Q" (*ptr) : "r" ((uint32_t)value) );
1521:Drivers/CMSIS/Include/cmsis_gcc.h ****    return(result);
1522:Drivers/CMSIS/Include/cmsis_gcc.h **** }
1523:Drivers/CMSIS/Include/cmsis_gcc.h **** 
1524:Drivers/CMSIS/Include/cmsis_gcc.h **** #endif /* ((defined (__ARM_ARCH_8M_MAIN__ ) && (__ARM_ARCH_8M_MAIN__ == 1)) || \
1525:Drivers/CMSIS/Include/cmsis_gcc.h ****            (defined (__ARM_ARCH_8M_BASE__ ) && (__ARM_ARCH_8M_BASE__ == 1))    ) */
1526:Drivers/CMSIS/Include/cmsis_gcc.h **** 
1527:Drivers/CMSIS/Include/cmsis_gcc.h **** /*@}*/ /* end of group CMSIS_Core_InstructionInterface */
1528:Drivers/CMSIS/Include/cmsis_gcc.h **** 
1529:Drivers/CMSIS/Include/cmsis_gcc.h **** 
1530:Drivers/CMSIS/Include/cmsis_gcc.h **** /* ###################  Compiler specific Intrinsics  ########################### */
1531:Drivers/CMSIS/Include/cmsis_gcc.h **** /** \defgroup CMSIS_SIMD_intrinsics CMSIS SIMD Intrinsics
1532:Drivers/CMSIS/Include/cmsis_gcc.h ****   Access to dedicated SIMD instructions
1533:Drivers/CMSIS/Include/cmsis_gcc.h ****   @{
1534:Drivers/CMSIS/Include/cmsis_gcc.h **** */
1535:Drivers/CMSIS/Include/cmsis_gcc.h **** 
1536:Drivers/CMSIS/Include/cmsis_gcc.h **** #if (defined (__ARM_FEATURE_DSP) && (__ARM_FEATURE_DSP == 1))
1537:Drivers/CMSIS/Include/cmsis_gcc.h **** 
1538:Drivers/CMSIS/Include/cmsis_gcc.h **** __STATIC_FORCEINLINE uint32_t __SADD8(uint32_t op1, uint32_t op2)
1539:Drivers/CMSIS/Include/cmsis_gcc.h **** {
1540:Drivers/CMSIS/Include/cmsis_gcc.h ****   uint32_t result;
1541:Drivers/CMSIS/Include/cmsis_gcc.h **** 
1542:Drivers/CMSIS/Include/cmsis_gcc.h ****   __ASM volatile ("sadd8 %0, %1, %2" : "=r" (result) : "r" (op1), "r" (op2) );
1543:Drivers/CMSIS/Include/cmsis_gcc.h ****   return(result);
1544:Drivers/CMSIS/Include/cmsis_gcc.h **** }
1545:Drivers/CMSIS/Include/cmsis_gcc.h **** 
1546:Drivers/CMSIS/Include/cmsis_gcc.h **** __STATIC_FORCEINLINE uint32_t __QADD8(uint32_t op1, uint32_t op2)
1547:Drivers/CMSIS/Include/cmsis_gcc.h **** {
1548:Drivers/CMSIS/Include/cmsis_gcc.h ****   uint32_t result;
1549:Drivers/CMSIS/Include/cmsis_gcc.h **** 
1550:Drivers/CMSIS/Include/cmsis_gcc.h ****   __ASM volatile ("qadd8 %0, %1, %2" : "=r" (result) : "r" (op1), "r" (op2) );
1551:Drivers/CMSIS/Include/cmsis_gcc.h ****   return(result);
1552:Drivers/CMSIS/Include/cmsis_gcc.h **** }
1553:Drivers/CMSIS/Include/cmsis_gcc.h **** 
1554:Drivers/CMSIS/Include/cmsis_gcc.h **** __STATIC_FORCEINLINE uint32_t __SHADD8(uint32_t op1, uint32_t op2)
1555:Drivers/CMSIS/Include/cmsis_gcc.h **** {
1556:Drivers/CMSIS/Include/cmsis_gcc.h ****   uint32_t result;
1557:Drivers/CMSIS/Include/cmsis_gcc.h **** 
1558:Drivers/CMSIS/Include/cmsis_gcc.h ****   __ASM volatile ("shadd8 %0, %1, %2" : "=r" (result) : "r" (op1), "r" (op2) );
1559:Drivers/CMSIS/Include/cmsis_gcc.h ****   return(result);
1560:Drivers/CMSIS/Include/cmsis_gcc.h **** }
1561:Drivers/CMSIS/Include/cmsis_gcc.h **** 
ARM GAS  /tmp/cc3XjLgi.s 			page 36


1562:Drivers/CMSIS/Include/cmsis_gcc.h **** __STATIC_FORCEINLINE uint32_t __UADD8(uint32_t op1, uint32_t op2)
1563:Drivers/CMSIS/Include/cmsis_gcc.h **** {
1564:Drivers/CMSIS/Include/cmsis_gcc.h ****   uint32_t result;
1565:Drivers/CMSIS/Include/cmsis_gcc.h **** 
1566:Drivers/CMSIS/Include/cmsis_gcc.h ****   __ASM volatile ("uadd8 %0, %1, %2" : "=r" (result) : "r" (op1), "r" (op2) );
1567:Drivers/CMSIS/Include/cmsis_gcc.h ****   return(result);
1568:Drivers/CMSIS/Include/cmsis_gcc.h **** }
1569:Drivers/CMSIS/Include/cmsis_gcc.h **** 
1570:Drivers/CMSIS/Include/cmsis_gcc.h **** __STATIC_FORCEINLINE uint32_t __UQADD8(uint32_t op1, uint32_t op2)
1571:Drivers/CMSIS/Include/cmsis_gcc.h **** {
1572:Drivers/CMSIS/Include/cmsis_gcc.h ****   uint32_t result;
1573:Drivers/CMSIS/Include/cmsis_gcc.h **** 
1574:Drivers/CMSIS/Include/cmsis_gcc.h ****   __ASM volatile ("uqadd8 %0, %1, %2" : "=r" (result) : "r" (op1), "r" (op2) );
1575:Drivers/CMSIS/Include/cmsis_gcc.h ****   return(result);
1576:Drivers/CMSIS/Include/cmsis_gcc.h **** }
1577:Drivers/CMSIS/Include/cmsis_gcc.h **** 
1578:Drivers/CMSIS/Include/cmsis_gcc.h **** __STATIC_FORCEINLINE uint32_t __UHADD8(uint32_t op1, uint32_t op2)
1579:Drivers/CMSIS/Include/cmsis_gcc.h **** {
1580:Drivers/CMSIS/Include/cmsis_gcc.h ****   uint32_t result;
1581:Drivers/CMSIS/Include/cmsis_gcc.h **** 
1582:Drivers/CMSIS/Include/cmsis_gcc.h ****   __ASM volatile ("uhadd8 %0, %1, %2" : "=r" (result) : "r" (op1), "r" (op2) );
1583:Drivers/CMSIS/Include/cmsis_gcc.h ****   return(result);
1584:Drivers/CMSIS/Include/cmsis_gcc.h **** }
1585:Drivers/CMSIS/Include/cmsis_gcc.h **** 
1586:Drivers/CMSIS/Include/cmsis_gcc.h **** 
1587:Drivers/CMSIS/Include/cmsis_gcc.h **** __STATIC_FORCEINLINE uint32_t __SSUB8(uint32_t op1, uint32_t op2)
1588:Drivers/CMSIS/Include/cmsis_gcc.h **** {
1589:Drivers/CMSIS/Include/cmsis_gcc.h ****   uint32_t result;
1590:Drivers/CMSIS/Include/cmsis_gcc.h **** 
1591:Drivers/CMSIS/Include/cmsis_gcc.h ****   __ASM volatile ("ssub8 %0, %1, %2" : "=r" (result) : "r" (op1), "r" (op2) );
1592:Drivers/CMSIS/Include/cmsis_gcc.h ****   return(result);
1593:Drivers/CMSIS/Include/cmsis_gcc.h **** }
1594:Drivers/CMSIS/Include/cmsis_gcc.h **** 
1595:Drivers/CMSIS/Include/cmsis_gcc.h **** __STATIC_FORCEINLINE uint32_t __QSUB8(uint32_t op1, uint32_t op2)
1596:Drivers/CMSIS/Include/cmsis_gcc.h **** {
1597:Drivers/CMSIS/Include/cmsis_gcc.h ****   uint32_t result;
1598:Drivers/CMSIS/Include/cmsis_gcc.h **** 
1599:Drivers/CMSIS/Include/cmsis_gcc.h ****   __ASM volatile ("qsub8 %0, %1, %2" : "=r" (result) : "r" (op1), "r" (op2) );
1600:Drivers/CMSIS/Include/cmsis_gcc.h ****   return(result);
1601:Drivers/CMSIS/Include/cmsis_gcc.h **** }
1602:Drivers/CMSIS/Include/cmsis_gcc.h **** 
1603:Drivers/CMSIS/Include/cmsis_gcc.h **** __STATIC_FORCEINLINE uint32_t __SHSUB8(uint32_t op1, uint32_t op2)
1604:Drivers/CMSIS/Include/cmsis_gcc.h **** {
1605:Drivers/CMSIS/Include/cmsis_gcc.h ****   uint32_t result;
1606:Drivers/CMSIS/Include/cmsis_gcc.h **** 
1607:Drivers/CMSIS/Include/cmsis_gcc.h ****   __ASM volatile ("shsub8 %0, %1, %2" : "=r" (result) : "r" (op1), "r" (op2) );
1608:Drivers/CMSIS/Include/cmsis_gcc.h ****   return(result);
1609:Drivers/CMSIS/Include/cmsis_gcc.h **** }
1610:Drivers/CMSIS/Include/cmsis_gcc.h **** 
1611:Drivers/CMSIS/Include/cmsis_gcc.h **** __STATIC_FORCEINLINE uint32_t __USUB8(uint32_t op1, uint32_t op2)
1612:Drivers/CMSIS/Include/cmsis_gcc.h **** {
1613:Drivers/CMSIS/Include/cmsis_gcc.h ****   uint32_t result;
1614:Drivers/CMSIS/Include/cmsis_gcc.h **** 
1615:Drivers/CMSIS/Include/cmsis_gcc.h ****   __ASM volatile ("usub8 %0, %1, %2" : "=r" (result) : "r" (op1), "r" (op2) );
1616:Drivers/CMSIS/Include/cmsis_gcc.h ****   return(result);
1617:Drivers/CMSIS/Include/cmsis_gcc.h **** }
1618:Drivers/CMSIS/Include/cmsis_gcc.h **** 
ARM GAS  /tmp/cc3XjLgi.s 			page 37


1619:Drivers/CMSIS/Include/cmsis_gcc.h **** __STATIC_FORCEINLINE uint32_t __UQSUB8(uint32_t op1, uint32_t op2)
1620:Drivers/CMSIS/Include/cmsis_gcc.h **** {
1621:Drivers/CMSIS/Include/cmsis_gcc.h ****   uint32_t result;
1622:Drivers/CMSIS/Include/cmsis_gcc.h **** 
1623:Drivers/CMSIS/Include/cmsis_gcc.h ****   __ASM volatile ("uqsub8 %0, %1, %2" : "=r" (result) : "r" (op1), "r" (op2) );
1624:Drivers/CMSIS/Include/cmsis_gcc.h ****   return(result);
1625:Drivers/CMSIS/Include/cmsis_gcc.h **** }
1626:Drivers/CMSIS/Include/cmsis_gcc.h **** 
1627:Drivers/CMSIS/Include/cmsis_gcc.h **** __STATIC_FORCEINLINE uint32_t __UHSUB8(uint32_t op1, uint32_t op2)
1628:Drivers/CMSIS/Include/cmsis_gcc.h **** {
1629:Drivers/CMSIS/Include/cmsis_gcc.h ****   uint32_t result;
1630:Drivers/CMSIS/Include/cmsis_gcc.h **** 
1631:Drivers/CMSIS/Include/cmsis_gcc.h ****   __ASM volatile ("uhsub8 %0, %1, %2" : "=r" (result) : "r" (op1), "r" (op2) );
1632:Drivers/CMSIS/Include/cmsis_gcc.h ****   return(result);
1633:Drivers/CMSIS/Include/cmsis_gcc.h **** }
1634:Drivers/CMSIS/Include/cmsis_gcc.h **** 
1635:Drivers/CMSIS/Include/cmsis_gcc.h **** 
1636:Drivers/CMSIS/Include/cmsis_gcc.h **** __STATIC_FORCEINLINE uint32_t __SADD16(uint32_t op1, uint32_t op2)
1637:Drivers/CMSIS/Include/cmsis_gcc.h **** {
1638:Drivers/CMSIS/Include/cmsis_gcc.h ****   uint32_t result;
1639:Drivers/CMSIS/Include/cmsis_gcc.h **** 
1640:Drivers/CMSIS/Include/cmsis_gcc.h ****   __ASM volatile ("sadd16 %0, %1, %2" : "=r" (result) : "r" (op1), "r" (op2) );
1641:Drivers/CMSIS/Include/cmsis_gcc.h ****   return(result);
1642:Drivers/CMSIS/Include/cmsis_gcc.h **** }
1643:Drivers/CMSIS/Include/cmsis_gcc.h **** 
1644:Drivers/CMSIS/Include/cmsis_gcc.h **** __STATIC_FORCEINLINE uint32_t __QADD16(uint32_t op1, uint32_t op2)
1645:Drivers/CMSIS/Include/cmsis_gcc.h **** {
1646:Drivers/CMSIS/Include/cmsis_gcc.h ****   uint32_t result;
1647:Drivers/CMSIS/Include/cmsis_gcc.h **** 
1648:Drivers/CMSIS/Include/cmsis_gcc.h ****   __ASM volatile ("qadd16 %0, %1, %2" : "=r" (result) : "r" (op1), "r" (op2) );
1649:Drivers/CMSIS/Include/cmsis_gcc.h ****   return(result);
1650:Drivers/CMSIS/Include/cmsis_gcc.h **** }
1651:Drivers/CMSIS/Include/cmsis_gcc.h **** 
1652:Drivers/CMSIS/Include/cmsis_gcc.h **** __STATIC_FORCEINLINE uint32_t __SHADD16(uint32_t op1, uint32_t op2)
1653:Drivers/CMSIS/Include/cmsis_gcc.h **** {
1654:Drivers/CMSIS/Include/cmsis_gcc.h ****   uint32_t result;
1655:Drivers/CMSIS/Include/cmsis_gcc.h **** 
1656:Drivers/CMSIS/Include/cmsis_gcc.h ****   __ASM volatile ("shadd16 %0, %1, %2" : "=r" (result) : "r" (op1), "r" (op2) );
1657:Drivers/CMSIS/Include/cmsis_gcc.h ****   return(result);
1658:Drivers/CMSIS/Include/cmsis_gcc.h **** }
1659:Drivers/CMSIS/Include/cmsis_gcc.h **** 
1660:Drivers/CMSIS/Include/cmsis_gcc.h **** __STATIC_FORCEINLINE uint32_t __UADD16(uint32_t op1, uint32_t op2)
1661:Drivers/CMSIS/Include/cmsis_gcc.h **** {
1662:Drivers/CMSIS/Include/cmsis_gcc.h ****   uint32_t result;
1663:Drivers/CMSIS/Include/cmsis_gcc.h **** 
1664:Drivers/CMSIS/Include/cmsis_gcc.h ****   __ASM volatile ("uadd16 %0, %1, %2" : "=r" (result) : "r" (op1), "r" (op2) );
1665:Drivers/CMSIS/Include/cmsis_gcc.h ****   return(result);
1666:Drivers/CMSIS/Include/cmsis_gcc.h **** }
1667:Drivers/CMSIS/Include/cmsis_gcc.h **** 
1668:Drivers/CMSIS/Include/cmsis_gcc.h **** __STATIC_FORCEINLINE uint32_t __UQADD16(uint32_t op1, uint32_t op2)
1669:Drivers/CMSIS/Include/cmsis_gcc.h **** {
1670:Drivers/CMSIS/Include/cmsis_gcc.h ****   uint32_t result;
1671:Drivers/CMSIS/Include/cmsis_gcc.h **** 
1672:Drivers/CMSIS/Include/cmsis_gcc.h ****   __ASM volatile ("uqadd16 %0, %1, %2" : "=r" (result) : "r" (op1), "r" (op2) );
1673:Drivers/CMSIS/Include/cmsis_gcc.h ****   return(result);
1674:Drivers/CMSIS/Include/cmsis_gcc.h **** }
1675:Drivers/CMSIS/Include/cmsis_gcc.h **** 
ARM GAS  /tmp/cc3XjLgi.s 			page 38


1676:Drivers/CMSIS/Include/cmsis_gcc.h **** __STATIC_FORCEINLINE uint32_t __UHADD16(uint32_t op1, uint32_t op2)
1677:Drivers/CMSIS/Include/cmsis_gcc.h **** {
1678:Drivers/CMSIS/Include/cmsis_gcc.h ****   uint32_t result;
1679:Drivers/CMSIS/Include/cmsis_gcc.h **** 
1680:Drivers/CMSIS/Include/cmsis_gcc.h ****   __ASM volatile ("uhadd16 %0, %1, %2" : "=r" (result) : "r" (op1), "r" (op2) );
1681:Drivers/CMSIS/Include/cmsis_gcc.h ****   return(result);
1682:Drivers/CMSIS/Include/cmsis_gcc.h **** }
1683:Drivers/CMSIS/Include/cmsis_gcc.h **** 
1684:Drivers/CMSIS/Include/cmsis_gcc.h **** __STATIC_FORCEINLINE uint32_t __SSUB16(uint32_t op1, uint32_t op2)
1685:Drivers/CMSIS/Include/cmsis_gcc.h **** {
1686:Drivers/CMSIS/Include/cmsis_gcc.h ****   uint32_t result;
1687:Drivers/CMSIS/Include/cmsis_gcc.h **** 
1688:Drivers/CMSIS/Include/cmsis_gcc.h ****   __ASM volatile ("ssub16 %0, %1, %2" : "=r" (result) : "r" (op1), "r" (op2) );
1689:Drivers/CMSIS/Include/cmsis_gcc.h ****   return(result);
1690:Drivers/CMSIS/Include/cmsis_gcc.h **** }
1691:Drivers/CMSIS/Include/cmsis_gcc.h **** 
1692:Drivers/CMSIS/Include/cmsis_gcc.h **** __STATIC_FORCEINLINE uint32_t __QSUB16(uint32_t op1, uint32_t op2)
1693:Drivers/CMSIS/Include/cmsis_gcc.h **** {
1694:Drivers/CMSIS/Include/cmsis_gcc.h ****   uint32_t result;
1695:Drivers/CMSIS/Include/cmsis_gcc.h **** 
1696:Drivers/CMSIS/Include/cmsis_gcc.h ****   __ASM volatile ("qsub16 %0, %1, %2" : "=r" (result) : "r" (op1), "r" (op2) );
1697:Drivers/CMSIS/Include/cmsis_gcc.h ****   return(result);
1698:Drivers/CMSIS/Include/cmsis_gcc.h **** }
1699:Drivers/CMSIS/Include/cmsis_gcc.h **** 
1700:Drivers/CMSIS/Include/cmsis_gcc.h **** __STATIC_FORCEINLINE uint32_t __SHSUB16(uint32_t op1, uint32_t op2)
1701:Drivers/CMSIS/Include/cmsis_gcc.h **** {
1702:Drivers/CMSIS/Include/cmsis_gcc.h ****   uint32_t result;
1703:Drivers/CMSIS/Include/cmsis_gcc.h **** 
1704:Drivers/CMSIS/Include/cmsis_gcc.h ****   __ASM volatile ("shsub16 %0, %1, %2" : "=r" (result) : "r" (op1), "r" (op2) );
1705:Drivers/CMSIS/Include/cmsis_gcc.h ****   return(result);
1706:Drivers/CMSIS/Include/cmsis_gcc.h **** }
1707:Drivers/CMSIS/Include/cmsis_gcc.h **** 
1708:Drivers/CMSIS/Include/cmsis_gcc.h **** __STATIC_FORCEINLINE uint32_t __USUB16(uint32_t op1, uint32_t op2)
1709:Drivers/CMSIS/Include/cmsis_gcc.h **** {
1710:Drivers/CMSIS/Include/cmsis_gcc.h ****   uint32_t result;
1711:Drivers/CMSIS/Include/cmsis_gcc.h **** 
1712:Drivers/CMSIS/Include/cmsis_gcc.h ****   __ASM volatile ("usub16 %0, %1, %2" : "=r" (result) : "r" (op1), "r" (op2) );
1713:Drivers/CMSIS/Include/cmsis_gcc.h ****   return(result);
1714:Drivers/CMSIS/Include/cmsis_gcc.h **** }
1715:Drivers/CMSIS/Include/cmsis_gcc.h **** 
1716:Drivers/CMSIS/Include/cmsis_gcc.h **** __STATIC_FORCEINLINE uint32_t __UQSUB16(uint32_t op1, uint32_t op2)
1717:Drivers/CMSIS/Include/cmsis_gcc.h **** {
1718:Drivers/CMSIS/Include/cmsis_gcc.h ****   uint32_t result;
1719:Drivers/CMSIS/Include/cmsis_gcc.h **** 
1720:Drivers/CMSIS/Include/cmsis_gcc.h ****   __ASM volatile ("uqsub16 %0, %1, %2" : "=r" (result) : "r" (op1), "r" (op2) );
1721:Drivers/CMSIS/Include/cmsis_gcc.h ****   return(result);
1722:Drivers/CMSIS/Include/cmsis_gcc.h **** }
1723:Drivers/CMSIS/Include/cmsis_gcc.h **** 
1724:Drivers/CMSIS/Include/cmsis_gcc.h **** __STATIC_FORCEINLINE uint32_t __UHSUB16(uint32_t op1, uint32_t op2)
1725:Drivers/CMSIS/Include/cmsis_gcc.h **** {
1726:Drivers/CMSIS/Include/cmsis_gcc.h ****   uint32_t result;
1727:Drivers/CMSIS/Include/cmsis_gcc.h **** 
1728:Drivers/CMSIS/Include/cmsis_gcc.h ****   __ASM volatile ("uhsub16 %0, %1, %2" : "=r" (result) : "r" (op1), "r" (op2) );
1729:Drivers/CMSIS/Include/cmsis_gcc.h ****   return(result);
1730:Drivers/CMSIS/Include/cmsis_gcc.h **** }
1731:Drivers/CMSIS/Include/cmsis_gcc.h **** 
1732:Drivers/CMSIS/Include/cmsis_gcc.h **** __STATIC_FORCEINLINE uint32_t __SASX(uint32_t op1, uint32_t op2)
ARM GAS  /tmp/cc3XjLgi.s 			page 39


1733:Drivers/CMSIS/Include/cmsis_gcc.h **** {
1734:Drivers/CMSIS/Include/cmsis_gcc.h ****   uint32_t result;
1735:Drivers/CMSIS/Include/cmsis_gcc.h **** 
1736:Drivers/CMSIS/Include/cmsis_gcc.h ****   __ASM volatile ("sasx %0, %1, %2" : "=r" (result) : "r" (op1), "r" (op2) );
1737:Drivers/CMSIS/Include/cmsis_gcc.h ****   return(result);
1738:Drivers/CMSIS/Include/cmsis_gcc.h **** }
1739:Drivers/CMSIS/Include/cmsis_gcc.h **** 
1740:Drivers/CMSIS/Include/cmsis_gcc.h **** __STATIC_FORCEINLINE uint32_t __QASX(uint32_t op1, uint32_t op2)
1741:Drivers/CMSIS/Include/cmsis_gcc.h **** {
1742:Drivers/CMSIS/Include/cmsis_gcc.h ****   uint32_t result;
1743:Drivers/CMSIS/Include/cmsis_gcc.h **** 
1744:Drivers/CMSIS/Include/cmsis_gcc.h ****   __ASM volatile ("qasx %0, %1, %2" : "=r" (result) : "r" (op1), "r" (op2) );
1745:Drivers/CMSIS/Include/cmsis_gcc.h ****   return(result);
1746:Drivers/CMSIS/Include/cmsis_gcc.h **** }
1747:Drivers/CMSIS/Include/cmsis_gcc.h **** 
1748:Drivers/CMSIS/Include/cmsis_gcc.h **** __STATIC_FORCEINLINE uint32_t __SHASX(uint32_t op1, uint32_t op2)
1749:Drivers/CMSIS/Include/cmsis_gcc.h **** {
1750:Drivers/CMSIS/Include/cmsis_gcc.h ****   uint32_t result;
1751:Drivers/CMSIS/Include/cmsis_gcc.h **** 
1752:Drivers/CMSIS/Include/cmsis_gcc.h ****   __ASM volatile ("shasx %0, %1, %2" : "=r" (result) : "r" (op1), "r" (op2) );
1753:Drivers/CMSIS/Include/cmsis_gcc.h ****   return(result);
1754:Drivers/CMSIS/Include/cmsis_gcc.h **** }
1755:Drivers/CMSIS/Include/cmsis_gcc.h **** 
1756:Drivers/CMSIS/Include/cmsis_gcc.h **** __STATIC_FORCEINLINE uint32_t __UASX(uint32_t op1, uint32_t op2)
1757:Drivers/CMSIS/Include/cmsis_gcc.h **** {
1758:Drivers/CMSIS/Include/cmsis_gcc.h ****   uint32_t result;
1759:Drivers/CMSIS/Include/cmsis_gcc.h **** 
1760:Drivers/CMSIS/Include/cmsis_gcc.h ****   __ASM volatile ("uasx %0, %1, %2" : "=r" (result) : "r" (op1), "r" (op2) );
1761:Drivers/CMSIS/Include/cmsis_gcc.h ****   return(result);
1762:Drivers/CMSIS/Include/cmsis_gcc.h **** }
1763:Drivers/CMSIS/Include/cmsis_gcc.h **** 
1764:Drivers/CMSIS/Include/cmsis_gcc.h **** __STATIC_FORCEINLINE uint32_t __UQASX(uint32_t op1, uint32_t op2)
1765:Drivers/CMSIS/Include/cmsis_gcc.h **** {
1766:Drivers/CMSIS/Include/cmsis_gcc.h ****   uint32_t result;
1767:Drivers/CMSIS/Include/cmsis_gcc.h **** 
1768:Drivers/CMSIS/Include/cmsis_gcc.h ****   __ASM volatile ("uqasx %0, %1, %2" : "=r" (result) : "r" (op1), "r" (op2) );
1769:Drivers/CMSIS/Include/cmsis_gcc.h ****   return(result);
1770:Drivers/CMSIS/Include/cmsis_gcc.h **** }
1771:Drivers/CMSIS/Include/cmsis_gcc.h **** 
1772:Drivers/CMSIS/Include/cmsis_gcc.h **** __STATIC_FORCEINLINE uint32_t __UHASX(uint32_t op1, uint32_t op2)
1773:Drivers/CMSIS/Include/cmsis_gcc.h **** {
1774:Drivers/CMSIS/Include/cmsis_gcc.h ****   uint32_t result;
1775:Drivers/CMSIS/Include/cmsis_gcc.h **** 
1776:Drivers/CMSIS/Include/cmsis_gcc.h ****   __ASM volatile ("uhasx %0, %1, %2" : "=r" (result) : "r" (op1), "r" (op2) );
1777:Drivers/CMSIS/Include/cmsis_gcc.h ****   return(result);
1778:Drivers/CMSIS/Include/cmsis_gcc.h **** }
1779:Drivers/CMSIS/Include/cmsis_gcc.h **** 
1780:Drivers/CMSIS/Include/cmsis_gcc.h **** __STATIC_FORCEINLINE uint32_t __SSAX(uint32_t op1, uint32_t op2)
1781:Drivers/CMSIS/Include/cmsis_gcc.h **** {
1782:Drivers/CMSIS/Include/cmsis_gcc.h ****   uint32_t result;
1783:Drivers/CMSIS/Include/cmsis_gcc.h **** 
1784:Drivers/CMSIS/Include/cmsis_gcc.h ****   __ASM volatile ("ssax %0, %1, %2" : "=r" (result) : "r" (op1), "r" (op2) );
1785:Drivers/CMSIS/Include/cmsis_gcc.h ****   return(result);
1786:Drivers/CMSIS/Include/cmsis_gcc.h **** }
1787:Drivers/CMSIS/Include/cmsis_gcc.h **** 
1788:Drivers/CMSIS/Include/cmsis_gcc.h **** __STATIC_FORCEINLINE uint32_t __QSAX(uint32_t op1, uint32_t op2)
1789:Drivers/CMSIS/Include/cmsis_gcc.h **** {
ARM GAS  /tmp/cc3XjLgi.s 			page 40


1790:Drivers/CMSIS/Include/cmsis_gcc.h ****   uint32_t result;
1791:Drivers/CMSIS/Include/cmsis_gcc.h **** 
1792:Drivers/CMSIS/Include/cmsis_gcc.h ****   __ASM volatile ("qsax %0, %1, %2" : "=r" (result) : "r" (op1), "r" (op2) );
1793:Drivers/CMSIS/Include/cmsis_gcc.h ****   return(result);
1794:Drivers/CMSIS/Include/cmsis_gcc.h **** }
1795:Drivers/CMSIS/Include/cmsis_gcc.h **** 
1796:Drivers/CMSIS/Include/cmsis_gcc.h **** __STATIC_FORCEINLINE uint32_t __SHSAX(uint32_t op1, uint32_t op2)
1797:Drivers/CMSIS/Include/cmsis_gcc.h **** {
1798:Drivers/CMSIS/Include/cmsis_gcc.h ****   uint32_t result;
1799:Drivers/CMSIS/Include/cmsis_gcc.h **** 
1800:Drivers/CMSIS/Include/cmsis_gcc.h ****   __ASM volatile ("shsax %0, %1, %2" : "=r" (result) : "r" (op1), "r" (op2) );
1801:Drivers/CMSIS/Include/cmsis_gcc.h ****   return(result);
1802:Drivers/CMSIS/Include/cmsis_gcc.h **** }
1803:Drivers/CMSIS/Include/cmsis_gcc.h **** 
1804:Drivers/CMSIS/Include/cmsis_gcc.h **** __STATIC_FORCEINLINE uint32_t __USAX(uint32_t op1, uint32_t op2)
1805:Drivers/CMSIS/Include/cmsis_gcc.h **** {
1806:Drivers/CMSIS/Include/cmsis_gcc.h ****   uint32_t result;
1807:Drivers/CMSIS/Include/cmsis_gcc.h **** 
1808:Drivers/CMSIS/Include/cmsis_gcc.h ****   __ASM volatile ("usax %0, %1, %2" : "=r" (result) : "r" (op1), "r" (op2) );
1809:Drivers/CMSIS/Include/cmsis_gcc.h ****   return(result);
1810:Drivers/CMSIS/Include/cmsis_gcc.h **** }
1811:Drivers/CMSIS/Include/cmsis_gcc.h **** 
1812:Drivers/CMSIS/Include/cmsis_gcc.h **** __STATIC_FORCEINLINE uint32_t __UQSAX(uint32_t op1, uint32_t op2)
1813:Drivers/CMSIS/Include/cmsis_gcc.h **** {
1814:Drivers/CMSIS/Include/cmsis_gcc.h ****   uint32_t result;
1815:Drivers/CMSIS/Include/cmsis_gcc.h **** 
1816:Drivers/CMSIS/Include/cmsis_gcc.h ****   __ASM volatile ("uqsax %0, %1, %2" : "=r" (result) : "r" (op1), "r" (op2) );
1817:Drivers/CMSIS/Include/cmsis_gcc.h ****   return(result);
1818:Drivers/CMSIS/Include/cmsis_gcc.h **** }
1819:Drivers/CMSIS/Include/cmsis_gcc.h **** 
1820:Drivers/CMSIS/Include/cmsis_gcc.h **** __STATIC_FORCEINLINE uint32_t __UHSAX(uint32_t op1, uint32_t op2)
1821:Drivers/CMSIS/Include/cmsis_gcc.h **** {
1822:Drivers/CMSIS/Include/cmsis_gcc.h ****   uint32_t result;
1823:Drivers/CMSIS/Include/cmsis_gcc.h **** 
1824:Drivers/CMSIS/Include/cmsis_gcc.h ****   __ASM volatile ("uhsax %0, %1, %2" : "=r" (result) : "r" (op1), "r" (op2) );
1825:Drivers/CMSIS/Include/cmsis_gcc.h ****   return(result);
1826:Drivers/CMSIS/Include/cmsis_gcc.h **** }
1827:Drivers/CMSIS/Include/cmsis_gcc.h **** 
1828:Drivers/CMSIS/Include/cmsis_gcc.h **** __STATIC_FORCEINLINE uint32_t __USAD8(uint32_t op1, uint32_t op2)
1829:Drivers/CMSIS/Include/cmsis_gcc.h **** {
1830:Drivers/CMSIS/Include/cmsis_gcc.h ****   uint32_t result;
1831:Drivers/CMSIS/Include/cmsis_gcc.h **** 
1832:Drivers/CMSIS/Include/cmsis_gcc.h ****   __ASM volatile ("usad8 %0, %1, %2" : "=r" (result) : "r" (op1), "r" (op2) );
1833:Drivers/CMSIS/Include/cmsis_gcc.h ****   return(result);
1834:Drivers/CMSIS/Include/cmsis_gcc.h **** }
1835:Drivers/CMSIS/Include/cmsis_gcc.h **** 
1836:Drivers/CMSIS/Include/cmsis_gcc.h **** __STATIC_FORCEINLINE uint32_t __USADA8(uint32_t op1, uint32_t op2, uint32_t op3)
1837:Drivers/CMSIS/Include/cmsis_gcc.h **** {
1838:Drivers/CMSIS/Include/cmsis_gcc.h ****   uint32_t result;
1839:Drivers/CMSIS/Include/cmsis_gcc.h **** 
1840:Drivers/CMSIS/Include/cmsis_gcc.h ****   __ASM volatile ("usada8 %0, %1, %2, %3" : "=r" (result) : "r" (op1), "r" (op2), "r" (op3) );
1841:Drivers/CMSIS/Include/cmsis_gcc.h ****   return(result);
1842:Drivers/CMSIS/Include/cmsis_gcc.h **** }
1843:Drivers/CMSIS/Include/cmsis_gcc.h **** 
1844:Drivers/CMSIS/Include/cmsis_gcc.h **** #define __SSAT16(ARG1,ARG2) \
1845:Drivers/CMSIS/Include/cmsis_gcc.h **** ({                          \
1846:Drivers/CMSIS/Include/cmsis_gcc.h ****   int32_t __RES, __ARG1 = (ARG1); \
ARM GAS  /tmp/cc3XjLgi.s 			page 41


1847:Drivers/CMSIS/Include/cmsis_gcc.h ****   __ASM ("ssat16 %0, %1, %2" : "=r" (__RES) :  "I" (ARG2), "r" (__ARG1) ); \
1848:Drivers/CMSIS/Include/cmsis_gcc.h ****   __RES; \
1849:Drivers/CMSIS/Include/cmsis_gcc.h ****  })
1850:Drivers/CMSIS/Include/cmsis_gcc.h **** 
1851:Drivers/CMSIS/Include/cmsis_gcc.h **** #define __USAT16(ARG1,ARG2) \
1852:Drivers/CMSIS/Include/cmsis_gcc.h **** ({                          \
1853:Drivers/CMSIS/Include/cmsis_gcc.h ****   uint32_t __RES, __ARG1 = (ARG1); \
1854:Drivers/CMSIS/Include/cmsis_gcc.h ****   __ASM ("usat16 %0, %1, %2" : "=r" (__RES) :  "I" (ARG2), "r" (__ARG1) ); \
1855:Drivers/CMSIS/Include/cmsis_gcc.h ****   __RES; \
1856:Drivers/CMSIS/Include/cmsis_gcc.h ****  })
1857:Drivers/CMSIS/Include/cmsis_gcc.h **** 
1858:Drivers/CMSIS/Include/cmsis_gcc.h **** __STATIC_FORCEINLINE uint32_t __UXTB16(uint32_t op1)
1859:Drivers/CMSIS/Include/cmsis_gcc.h **** {
1860:Drivers/CMSIS/Include/cmsis_gcc.h ****   uint32_t result;
1861:Drivers/CMSIS/Include/cmsis_gcc.h **** 
1862:Drivers/CMSIS/Include/cmsis_gcc.h ****   __ASM volatile ("uxtb16 %0, %1" : "=r" (result) : "r" (op1));
1863:Drivers/CMSIS/Include/cmsis_gcc.h ****   return(result);
1864:Drivers/CMSIS/Include/cmsis_gcc.h **** }
1865:Drivers/CMSIS/Include/cmsis_gcc.h **** 
1866:Drivers/CMSIS/Include/cmsis_gcc.h **** __STATIC_FORCEINLINE uint32_t __UXTAB16(uint32_t op1, uint32_t op2)
1867:Drivers/CMSIS/Include/cmsis_gcc.h **** {
1868:Drivers/CMSIS/Include/cmsis_gcc.h ****   uint32_t result;
1869:Drivers/CMSIS/Include/cmsis_gcc.h **** 
1870:Drivers/CMSIS/Include/cmsis_gcc.h ****   __ASM volatile ("uxtab16 %0, %1, %2" : "=r" (result) : "r" (op1), "r" (op2) );
1871:Drivers/CMSIS/Include/cmsis_gcc.h ****   return(result);
1872:Drivers/CMSIS/Include/cmsis_gcc.h **** }
1873:Drivers/CMSIS/Include/cmsis_gcc.h **** 
1874:Drivers/CMSIS/Include/cmsis_gcc.h **** __STATIC_FORCEINLINE uint32_t __SXTB16(uint32_t op1)
1875:Drivers/CMSIS/Include/cmsis_gcc.h **** {
1876:Drivers/CMSIS/Include/cmsis_gcc.h ****   uint32_t result;
1877:Drivers/CMSIS/Include/cmsis_gcc.h **** 
1878:Drivers/CMSIS/Include/cmsis_gcc.h ****   __ASM volatile ("sxtb16 %0, %1" : "=r" (result) : "r" (op1));
1879:Drivers/CMSIS/Include/cmsis_gcc.h ****   return(result);
1880:Drivers/CMSIS/Include/cmsis_gcc.h **** }
1881:Drivers/CMSIS/Include/cmsis_gcc.h **** 
1882:Drivers/CMSIS/Include/cmsis_gcc.h **** __STATIC_FORCEINLINE uint32_t __SXTAB16(uint32_t op1, uint32_t op2)
1883:Drivers/CMSIS/Include/cmsis_gcc.h **** {
1884:Drivers/CMSIS/Include/cmsis_gcc.h ****   uint32_t result;
1885:Drivers/CMSIS/Include/cmsis_gcc.h **** 
1886:Drivers/CMSIS/Include/cmsis_gcc.h ****   __ASM volatile ("sxtab16 %0, %1, %2" : "=r" (result) : "r" (op1), "r" (op2) );
1887:Drivers/CMSIS/Include/cmsis_gcc.h ****   return(result);
1888:Drivers/CMSIS/Include/cmsis_gcc.h **** }
1889:Drivers/CMSIS/Include/cmsis_gcc.h **** 
1890:Drivers/CMSIS/Include/cmsis_gcc.h **** __STATIC_FORCEINLINE uint32_t __SMUAD  (uint32_t op1, uint32_t op2)
1891:Drivers/CMSIS/Include/cmsis_gcc.h **** {
1892:Drivers/CMSIS/Include/cmsis_gcc.h ****   uint32_t result;
1893:Drivers/CMSIS/Include/cmsis_gcc.h **** 
1894:Drivers/CMSIS/Include/cmsis_gcc.h ****   __ASM volatile ("smuad %0, %1, %2" : "=r" (result) : "r" (op1), "r" (op2) );
1895:Drivers/CMSIS/Include/cmsis_gcc.h ****   return(result);
1896:Drivers/CMSIS/Include/cmsis_gcc.h **** }
1897:Drivers/CMSIS/Include/cmsis_gcc.h **** 
1898:Drivers/CMSIS/Include/cmsis_gcc.h **** __STATIC_FORCEINLINE uint32_t __SMUADX (uint32_t op1, uint32_t op2)
1899:Drivers/CMSIS/Include/cmsis_gcc.h **** {
1900:Drivers/CMSIS/Include/cmsis_gcc.h ****   uint32_t result;
1901:Drivers/CMSIS/Include/cmsis_gcc.h **** 
1902:Drivers/CMSIS/Include/cmsis_gcc.h ****   __ASM volatile ("smuadx %0, %1, %2" : "=r" (result) : "r" (op1), "r" (op2) );
1903:Drivers/CMSIS/Include/cmsis_gcc.h ****   return(result);
ARM GAS  /tmp/cc3XjLgi.s 			page 42


1904:Drivers/CMSIS/Include/cmsis_gcc.h **** }
1905:Drivers/CMSIS/Include/cmsis_gcc.h **** 
1906:Drivers/CMSIS/Include/cmsis_gcc.h **** __STATIC_FORCEINLINE uint32_t __SMLAD (uint32_t op1, uint32_t op2, uint32_t op3)
 204              		.loc 2 1906 31 view .LVU77
 205              	.LBB39:
1907:Drivers/CMSIS/Include/cmsis_gcc.h **** {
1908:Drivers/CMSIS/Include/cmsis_gcc.h ****   uint32_t result;
 206              		.loc 2 1908 3 view .LVU78
1909:Drivers/CMSIS/Include/cmsis_gcc.h **** 
1910:Drivers/CMSIS/Include/cmsis_gcc.h ****   __ASM volatile ("smlad %0, %1, %2, %3" : "=r" (result) : "r" (op1), "r" (op2), "r" (op3) );
 207              		.loc 2 1910 3 view .LVU79
 208              		.syntax unified
 209              	@ 1910 "Drivers/CMSIS/Include/cmsis_gcc.h" 1
 210 007c 20FB0610 		smlad r0, r0, r6, r1
 211              	@ 0 "" 2
 212              	.LVL30:
1911:Drivers/CMSIS/Include/cmsis_gcc.h ****   return(result);
 213              		.loc 2 1911 3 view .LVU80
 214              		.loc 2 1911 3 is_stmt 0 view .LVU81
 215              		.thumb
 216              		.syntax unified
 217              	.LBE39:
 218              	.LBE38:
 211:Drivers/CMSIS/DSP/Source/FilteringFunctions/arm_correlate_q7.c **** 
 212:Drivers/CMSIS/DSP/Source/FilteringFunctions/arm_correlate_q7.c ****       /* x[2] , x[3] */
 213:Drivers/CMSIS/DSP/Source/FilteringFunctions/arm_correlate_q7.c ****       in1 = (q15_t) * px++;
 219              		.loc 1 213 7 is_stmt 1 view .LVU82
 220              		.loc 1 213 21 is_stmt 0 view .LVU83
 221 0080 93F90210 		ldrsb	r1, [r3, #2]
 222              	.LVL31:
 214:Drivers/CMSIS/DSP/Source/FilteringFunctions/arm_correlate_q7.c ****       in2 = (q15_t) * px++;
 223              		.loc 1 214 7 is_stmt 1 view .LVU84
 224              		.loc 1 214 25 is_stmt 0 view .LVU85
 225 0084 1E1D     		adds	r6, r3, #4
 226              	.LVL32:
 227              		.loc 1 214 21 view .LVU86
 228 0086 93F90330 		ldrsb	r3, [r3, #3]
 229              	.LVL33:
 215:Drivers/CMSIS/DSP/Source/FilteringFunctions/arm_correlate_q7.c ****       input1 = ((q31_t) in1 & 0x0000FFFF) | ((q31_t) in2 << 16);
 230              		.loc 1 215 7 is_stmt 1 view .LVU87
 231              		.loc 1 215 29 is_stmt 0 view .LVU88
 232 008a 89B2     		uxth	r1, r1
 233              		.loc 1 215 14 view .LVU89
 234 008c 41EA0341 		orr	r1, r1, r3, lsl #16
 235              	.LVL34:
 216:Drivers/CMSIS/DSP/Source/FilteringFunctions/arm_correlate_q7.c **** 
 217:Drivers/CMSIS/DSP/Source/FilteringFunctions/arm_correlate_q7.c ****       /* y[srcBLen - 2] , y[srcBLen - 1] */
 218:Drivers/CMSIS/DSP/Source/FilteringFunctions/arm_correlate_q7.c ****       in1 = (q15_t) * py++;
 236              		.loc 1 218 7 is_stmt 1 view .LVU90
 237              		.loc 1 218 21 is_stmt 0 view .LVU91
 238 0090 94F90280 		ldrsb	r8, [r4, #2]
 239              	.LVL35:
 219:Drivers/CMSIS/DSP/Source/FilteringFunctions/arm_correlate_q7.c ****       in2 = (q15_t) * py++;
 240              		.loc 1 219 7 is_stmt 1 view .LVU92
 241              		.loc 1 219 25 is_stmt 0 view .LVU93
 242 0094 231D     		adds	r3, r4, #4
 243              	.LVL36:
ARM GAS  /tmp/cc3XjLgi.s 			page 43


 244              		.loc 1 219 21 view .LVU94
 245 0096 94F90340 		ldrsb	r4, [r4, #3]
 246              	.LVL37:
 220:Drivers/CMSIS/DSP/Source/FilteringFunctions/arm_correlate_q7.c ****       input2 = ((q31_t) in1 & 0x0000FFFF) | ((q31_t) in2 << 16);
 247              		.loc 1 220 7 is_stmt 1 view .LVU95
 248              		.loc 1 220 29 is_stmt 0 view .LVU96
 249 009a 1FFA88F8 		uxth	r8, r8
 250              		.loc 1 220 14 view .LVU97
 251 009e 48EA0448 		orr	r8, r8, r4, lsl #16
 252              	.LVL38:
 221:Drivers/CMSIS/DSP/Source/FilteringFunctions/arm_correlate_q7.c **** 
 222:Drivers/CMSIS/DSP/Source/FilteringFunctions/arm_correlate_q7.c ****       /* x[2] * y[srcBLen - 2] */
 223:Drivers/CMSIS/DSP/Source/FilteringFunctions/arm_correlate_q7.c ****       /* x[3] * y[srcBLen - 1] */
 224:Drivers/CMSIS/DSP/Source/FilteringFunctions/arm_correlate_q7.c ****       sum = __SMLAD(input1, input2, sum);
 253              		.loc 1 224 7 is_stmt 1 view .LVU98
 254              	.LBB40:
 255              	.LBI40:
1906:Drivers/CMSIS/Include/cmsis_gcc.h **** {
 256              		.loc 2 1906 31 view .LVU99
 257              	.LBB41:
1908:Drivers/CMSIS/Include/cmsis_gcc.h **** 
 258              		.loc 2 1908 3 view .LVU100
1910:Drivers/CMSIS/Include/cmsis_gcc.h ****   return(result);
 259              		.loc 2 1910 3 view .LVU101
 260              		.syntax unified
 261              	@ 1910 "Drivers/CMSIS/Include/cmsis_gcc.h" 1
 262 00a2 21FB0801 		smlad r1, r1, r8, r0
 263              	@ 0 "" 2
 264              	.LVL39:
 265              		.loc 2 1911 3 view .LVU102
 266              		.loc 2 1911 3 is_stmt 0 view .LVU103
 267              		.thumb
 268              		.syntax unified
 269              	.LBE41:
 270              	.LBE40:
 225:Drivers/CMSIS/DSP/Source/FilteringFunctions/arm_correlate_q7.c **** 
 226:Drivers/CMSIS/DSP/Source/FilteringFunctions/arm_correlate_q7.c **** 
 227:Drivers/CMSIS/DSP/Source/FilteringFunctions/arm_correlate_q7.c ****       /* Decrement the loop counter */
 228:Drivers/CMSIS/DSP/Source/FilteringFunctions/arm_correlate_q7.c ****       k--;
 271              		.loc 1 228 7 is_stmt 1 view .LVU104
 272              		.loc 1 228 8 is_stmt 0 view .LVU105
 273 00a6 013D     		subs	r5, r5, #1
 274              	.LVL40:
 219:Drivers/CMSIS/DSP/Source/FilteringFunctions/arm_correlate_q7.c ****       input2 = ((q31_t) in1 & 0x0000FFFF) | ((q31_t) in2 << 16);
 275              		.loc 1 219 25 view .LVU106
 276 00a8 1C46     		mov	r4, r3
 277              	.LVL41:
 214:Drivers/CMSIS/DSP/Source/FilteringFunctions/arm_correlate_q7.c ****       input1 = ((q31_t) in1 & 0x0000FFFF) | ((q31_t) in2 << 16);
 278              		.loc 1 214 25 view .LVU107
 279 00aa 3346     		mov	r3, r6
 280              	.LVL42:
 281              	.L5:
 196:Drivers/CMSIS/DSP/Source/FilteringFunctions/arm_correlate_q7.c ****     {
 282              		.loc 1 196 14 is_stmt 1 view .LVU108
 283 00ac 002D     		cmp	r5, #0
 284 00ae D7D1     		bne	.L6
 229:Drivers/CMSIS/DSP/Source/FilteringFunctions/arm_correlate_q7.c ****     }
ARM GAS  /tmp/cc3XjLgi.s 			page 44


 230:Drivers/CMSIS/DSP/Source/FilteringFunctions/arm_correlate_q7.c **** 
 231:Drivers/CMSIS/DSP/Source/FilteringFunctions/arm_correlate_q7.c ****     /* If the count is not a multiple of 4, compute any remaining MACs here.
 232:Drivers/CMSIS/DSP/Source/FilteringFunctions/arm_correlate_q7.c ****      ** No loop unrolling is used. */
 233:Drivers/CMSIS/DSP/Source/FilteringFunctions/arm_correlate_q7.c ****     k = count % 0x4U;
 285              		.loc 1 233 7 is_stmt 0 view .LVU109
 286 00b0 DDF80C80 		ldr	r8, [sp, #12]
 287              		.loc 1 233 5 is_stmt 1 view .LVU110
 288              		.loc 1 233 7 is_stmt 0 view .LVU111
 289 00b4 0EF00300 		and	r0, lr, #3
 290              	.LVL43:
 234:Drivers/CMSIS/DSP/Source/FilteringFunctions/arm_correlate_q7.c **** 
 235:Drivers/CMSIS/DSP/Source/FilteringFunctions/arm_correlate_q7.c ****     while (k > 0U)
 291              		.loc 1 235 5 is_stmt 1 view .LVU112
 292              		.loc 1 235 11 is_stmt 0 view .LVU113
 293 00b8 06E0     		b	.L7
 294              	.L8:
 236:Drivers/CMSIS/DSP/Source/FilteringFunctions/arm_correlate_q7.c ****     {
 237:Drivers/CMSIS/DSP/Source/FilteringFunctions/arm_correlate_q7.c ****       /* Perform the multiply-accumulates */
 238:Drivers/CMSIS/DSP/Source/FilteringFunctions/arm_correlate_q7.c ****       /* x[0] * y[srcBLen - 1] */
 239:Drivers/CMSIS/DSP/Source/FilteringFunctions/arm_correlate_q7.c ****       sum += (q31_t) ((q15_t) * px++ * *py++);
 295              		.loc 1 239 7 is_stmt 1 view .LVU114
 296              	.LVL44:
 297              		.loc 1 239 31 is_stmt 0 view .LVU115
 298 00ba 13F9015B 		ldrsb	r5, [r3], #1
 299              	.LVL45:
 300              		.loc 1 239 40 view .LVU116
 301 00be 14F9016B 		ldrsb	r6, [r4], #1
 302              	.LVL46:
 303              		.loc 1 239 11 view .LVU117
 304 00c2 06FB0511 		mla	r1, r6, r5, r1
 305              	.LVL47:
 240:Drivers/CMSIS/DSP/Source/FilteringFunctions/arm_correlate_q7.c **** 
 241:Drivers/CMSIS/DSP/Source/FilteringFunctions/arm_correlate_q7.c ****       /* Decrement the loop counter */
 242:Drivers/CMSIS/DSP/Source/FilteringFunctions/arm_correlate_q7.c ****       k--;
 306              		.loc 1 242 7 is_stmt 1 view .LVU118
 307              		.loc 1 242 8 is_stmt 0 view .LVU119
 308 00c6 0138     		subs	r0, r0, #1
 309              	.LVL48:
 310              	.L7:
 235:Drivers/CMSIS/DSP/Source/FilteringFunctions/arm_correlate_q7.c ****     {
 311              		.loc 1 235 14 is_stmt 1 view .LVU120
 312 00c8 0028     		cmp	r0, #0
 313 00ca F6D1     		bne	.L8
 243:Drivers/CMSIS/DSP/Source/FilteringFunctions/arm_correlate_q7.c ****     }
 244:Drivers/CMSIS/DSP/Source/FilteringFunctions/arm_correlate_q7.c **** 
 245:Drivers/CMSIS/DSP/Source/FilteringFunctions/arm_correlate_q7.c ****     /* Store the result in the accumulator in the destination buffer. */
 246:Drivers/CMSIS/DSP/Source/FilteringFunctions/arm_correlate_q7.c ****     *pOut = (q7_t) (__SSAT(sum >> 7, 8));
 314              		.loc 1 246 5 view .LVU121
 315              	.LBB42:
 316              		.loc 1 246 21 view .LVU122
 317 00cc C911     		asrs	r1, r1, #7
 318              	.LVL49:
 319              		.loc 1 246 21 view .LVU123
 320              		.syntax unified
 321              	@ 246 "Drivers/CMSIS/DSP/Source/FilteringFunctions/arm_correlate_q7.c" 1
 322 00ce 01F30701 		ssat r1, #8, r1
 323              	@ 0 "" 2
ARM GAS  /tmp/cc3XjLgi.s 			page 45


 324              	.LVL50:
 325              		.loc 1 246 21 view .LVU124
 326              		.thumb
 327              		.syntax unified
 328              	.LBE42:
 329              		.loc 1 246 11 is_stmt 0 view .LVU125
 330 00d2 88F80010 		strb	r1, [r8]
 247:Drivers/CMSIS/DSP/Source/FilteringFunctions/arm_correlate_q7.c ****     /* Destination pointer is updated according to the address modifier, inc */
 248:Drivers/CMSIS/DSP/Source/FilteringFunctions/arm_correlate_q7.c ****     pOut += inc;
 331              		.loc 1 248 5 is_stmt 1 view .LVU126
 332              		.loc 1 248 10 is_stmt 0 view .LVU127
 333 00d6 B844     		add	r8, r8, r7
 334              	.LVL51:
 249:Drivers/CMSIS/DSP/Source/FilteringFunctions/arm_correlate_q7.c **** 
 250:Drivers/CMSIS/DSP/Source/FilteringFunctions/arm_correlate_q7.c ****     /* Update the inputA and inputB pointers for next MAC calculation */
 251:Drivers/CMSIS/DSP/Source/FilteringFunctions/arm_correlate_q7.c ****     py = pSrc1 - count;
 335              		.loc 1 251 5 is_stmt 1 view .LVU128
 336              		.loc 1 251 8 is_stmt 0 view .LVU129
 337 00d8 A9EB0E04 		sub	r4, r9, lr
 338              	.LVL52:
 252:Drivers/CMSIS/DSP/Source/FilteringFunctions/arm_correlate_q7.c ****     px = pIn1;
 339              		.loc 1 252 5 is_stmt 1 view .LVU130
 253:Drivers/CMSIS/DSP/Source/FilteringFunctions/arm_correlate_q7.c **** 
 254:Drivers/CMSIS/DSP/Source/FilteringFunctions/arm_correlate_q7.c ****     /* Increment the MAC count */
 255:Drivers/CMSIS/DSP/Source/FilteringFunctions/arm_correlate_q7.c ****     count++;
 340              		.loc 1 255 5 view .LVU131
 341              		.loc 1 255 10 is_stmt 0 view .LVU132
 342 00dc 0EF1010E 		add	lr, lr, #1
 343              	.LVL53:
 256:Drivers/CMSIS/DSP/Source/FilteringFunctions/arm_correlate_q7.c **** 
 257:Drivers/CMSIS/DSP/Source/FilteringFunctions/arm_correlate_q7.c ****     /* Decrement the loop counter */
 258:Drivers/CMSIS/DSP/Source/FilteringFunctions/arm_correlate_q7.c ****     blockSize1--;
 344              		.loc 1 258 5 is_stmt 1 view .LVU133
 345              		.loc 1 258 15 is_stmt 0 view .LVU134
 346 00e0 013A     		subs	r2, r2, #1
 347              	.LVL54:
 348              	.L4:
 186:Drivers/CMSIS/DSP/Source/FilteringFunctions/arm_correlate_q7.c ****   {
 349              		.loc 1 186 21 is_stmt 1 view .LVU135
 350 00e2 32B1     		cbz	r2, .L34
 189:Drivers/CMSIS/DSP/Source/FilteringFunctions/arm_correlate_q7.c **** 
 351              		.loc 1 189 5 view .LVU136
 352              	.LVL55:
 192:Drivers/CMSIS/DSP/Source/FilteringFunctions/arm_correlate_q7.c **** 
 353              		.loc 1 192 5 view .LVU137
 192:Drivers/CMSIS/DSP/Source/FilteringFunctions/arm_correlate_q7.c **** 
 354              		.loc 1 192 7 is_stmt 0 view .LVU138
 355 00e4 4FEA9E05 		lsr	r5, lr, #2
 356              	.LVL56:
 196:Drivers/CMSIS/DSP/Source/FilteringFunctions/arm_correlate_q7.c ****     {
 357              		.loc 1 196 5 is_stmt 1 view .LVU139
 196:Drivers/CMSIS/DSP/Source/FilteringFunctions/arm_correlate_q7.c ****     {
 358              		.loc 1 196 11 is_stmt 0 view .LVU140
 359 00e8 029B     		ldr	r3, [sp, #8]
 189:Drivers/CMSIS/DSP/Source/FilteringFunctions/arm_correlate_q7.c **** 
 360              		.loc 1 189 9 view .LVU141
 361 00ea 0021     		movs	r1, #0
ARM GAS  /tmp/cc3XjLgi.s 			page 46


 362 00ec CDF80C80 		str	r8, [sp, #12]
 196:Drivers/CMSIS/DSP/Source/FilteringFunctions/arm_correlate_q7.c ****     {
 363              		.loc 1 196 11 view .LVU142
 364 00f0 DCE7     		b	.L5
 365              	.LVL57:
 366              	.L34:
 259:Drivers/CMSIS/DSP/Source/FilteringFunctions/arm_correlate_q7.c ****   }
 260:Drivers/CMSIS/DSP/Source/FilteringFunctions/arm_correlate_q7.c **** 
 261:Drivers/CMSIS/DSP/Source/FilteringFunctions/arm_correlate_q7.c ****   /* --------------------------
 262:Drivers/CMSIS/DSP/Source/FilteringFunctions/arm_correlate_q7.c ****    * Initializations of stage2
 263:Drivers/CMSIS/DSP/Source/FilteringFunctions/arm_correlate_q7.c ****    * ------------------------*/
 264:Drivers/CMSIS/DSP/Source/FilteringFunctions/arm_correlate_q7.c **** 
 265:Drivers/CMSIS/DSP/Source/FilteringFunctions/arm_correlate_q7.c ****   /* sum = x[0] * y[0] + x[1] * y[1] +...+ x[srcBLen-1] * y[srcBLen-1]
 266:Drivers/CMSIS/DSP/Source/FilteringFunctions/arm_correlate_q7.c ****    * sum = x[1] * y[0] + x[2] * y[1] +...+ x[srcBLen] * y[srcBLen-1]
 267:Drivers/CMSIS/DSP/Source/FilteringFunctions/arm_correlate_q7.c ****    * ....
 268:Drivers/CMSIS/DSP/Source/FilteringFunctions/arm_correlate_q7.c ****    * sum = x[srcALen-srcBLen-2] * y[0] + x[srcALen-srcBLen-1] * y[1] +...+ x[srcALen-1] * y[srcBLen
 269:Drivers/CMSIS/DSP/Source/FilteringFunctions/arm_correlate_q7.c ****    */
 270:Drivers/CMSIS/DSP/Source/FilteringFunctions/arm_correlate_q7.c **** 
 271:Drivers/CMSIS/DSP/Source/FilteringFunctions/arm_correlate_q7.c ****   /* Working pointer of inputA */
 272:Drivers/CMSIS/DSP/Source/FilteringFunctions/arm_correlate_q7.c ****   px = pIn1;
 273:Drivers/CMSIS/DSP/Source/FilteringFunctions/arm_correlate_q7.c **** 
 274:Drivers/CMSIS/DSP/Source/FilteringFunctions/arm_correlate_q7.c ****   /* Working pointer of inputB */
 275:Drivers/CMSIS/DSP/Source/FilteringFunctions/arm_correlate_q7.c ****   py = pIn2;
 276:Drivers/CMSIS/DSP/Source/FilteringFunctions/arm_correlate_q7.c **** 
 277:Drivers/CMSIS/DSP/Source/FilteringFunctions/arm_correlate_q7.c ****   /* count is index by which the pointer pIn1 to be incremented */
 278:Drivers/CMSIS/DSP/Source/FilteringFunctions/arm_correlate_q7.c ****   count = 0U;
 279:Drivers/CMSIS/DSP/Source/FilteringFunctions/arm_correlate_q7.c **** 
 280:Drivers/CMSIS/DSP/Source/FilteringFunctions/arm_correlate_q7.c ****   /* -------------------
 281:Drivers/CMSIS/DSP/Source/FilteringFunctions/arm_correlate_q7.c ****    * Stage2 process
 282:Drivers/CMSIS/DSP/Source/FilteringFunctions/arm_correlate_q7.c ****    * ------------------*/
 283:Drivers/CMSIS/DSP/Source/FilteringFunctions/arm_correlate_q7.c **** 
 284:Drivers/CMSIS/DSP/Source/FilteringFunctions/arm_correlate_q7.c ****   /* Stage2 depends on srcBLen as in this stage srcBLen number of MACS are performed.
 285:Drivers/CMSIS/DSP/Source/FilteringFunctions/arm_correlate_q7.c ****    * So, to loop unroll over blockSize2,
 286:Drivers/CMSIS/DSP/Source/FilteringFunctions/arm_correlate_q7.c ****    * srcBLen should be greater than or equal to 4 */
 287:Drivers/CMSIS/DSP/Source/FilteringFunctions/arm_correlate_q7.c ****   if (srcBLen >= 4U)
 367              		.loc 1 287 6 view .LVU143
 368 00f2 5046     		mov	r0, r10
 272:Drivers/CMSIS/DSP/Source/FilteringFunctions/arm_correlate_q7.c **** 
 369              		.loc 1 272 3 is_stmt 1 view .LVU144
 275:Drivers/CMSIS/DSP/Source/FilteringFunctions/arm_correlate_q7.c **** 
 370              		.loc 1 275 3 view .LVU145
 371              	.LVL58:
 278:Drivers/CMSIS/DSP/Source/FilteringFunctions/arm_correlate_q7.c **** 
 372              		.loc 1 278 3 view .LVU146
 373              		.loc 1 287 3 view .LVU147
 374              		.loc 1 287 6 is_stmt 0 view .LVU148
 375 00f4 BBF1030F 		cmp	fp, #3
 376 00f8 40F21881 		bls	.L31
 377              	.LVL59:
 288:Drivers/CMSIS/DSP/Source/FilteringFunctions/arm_correlate_q7.c ****   {
 289:Drivers/CMSIS/DSP/Source/FilteringFunctions/arm_correlate_q7.c ****     /* Loop unroll over blockSize2, by 4 */
 290:Drivers/CMSIS/DSP/Source/FilteringFunctions/arm_correlate_q7.c ****     blkCnt = blockSize2 >> 2U;
 378              		.loc 1 290 5 is_stmt 1 view .LVU149
 379              		.loc 1 290 12 is_stmt 0 view .LVU150
 380 00fc 4FEA9C01 		lsr	r1, ip, #2
 381              	.LVL60:
 291:Drivers/CMSIS/DSP/Source/FilteringFunctions/arm_correlate_q7.c **** 
ARM GAS  /tmp/cc3XjLgi.s 			page 47


 292:Drivers/CMSIS/DSP/Source/FilteringFunctions/arm_correlate_q7.c ****     while (blkCnt > 0U)
 382              		.loc 1 292 5 is_stmt 1 view .LVU151
 272:Drivers/CMSIS/DSP/Source/FilteringFunctions/arm_correlate_q7.c **** 
 383              		.loc 1 272 6 is_stmt 0 view .LVU152
 384 0100 029B     		ldr	r3, [sp, #8]
 385 0102 C246     		mov	r10, r8
 386 0104 0392     		str	r2, [sp, #12]
 387 0106 0890     		str	r0, [sp, #32]
 388 0108 0A46     		mov	r2, r1
 389              	.LVL61:
 272:Drivers/CMSIS/DSP/Source/FilteringFunctions/arm_correlate_q7.c **** 
 390              		.loc 1 272 6 view .LVU153
 391 010a CDF824C0 		str	ip, [sp, #36]
 392 010e CDF810B0 		str	fp, [sp, #16]
 393 0112 BB46     		mov	fp, r7
 394              	.LVL62:
 395              		.loc 1 292 11 view .LVU154
 396 0114 33E0     		b	.L11
 397              	.LVL63:
 398              	.L14:
 293:Drivers/CMSIS/DSP/Source/FilteringFunctions/arm_correlate_q7.c ****     {
 294:Drivers/CMSIS/DSP/Source/FilteringFunctions/arm_correlate_q7.c ****       /* Set all accumulators to zero */
 295:Drivers/CMSIS/DSP/Source/FilteringFunctions/arm_correlate_q7.c ****       acc0 = 0;
 296:Drivers/CMSIS/DSP/Source/FilteringFunctions/arm_correlate_q7.c ****       acc1 = 0;
 297:Drivers/CMSIS/DSP/Source/FilteringFunctions/arm_correlate_q7.c ****       acc2 = 0;
 298:Drivers/CMSIS/DSP/Source/FilteringFunctions/arm_correlate_q7.c ****       acc3 = 0;
 299:Drivers/CMSIS/DSP/Source/FilteringFunctions/arm_correlate_q7.c **** 
 300:Drivers/CMSIS/DSP/Source/FilteringFunctions/arm_correlate_q7.c ****       /* read x[0], x[1], x[2] samples */
 301:Drivers/CMSIS/DSP/Source/FilteringFunctions/arm_correlate_q7.c ****       x0 = *px++;
 302:Drivers/CMSIS/DSP/Source/FilteringFunctions/arm_correlate_q7.c ****       x1 = *px++;
 303:Drivers/CMSIS/DSP/Source/FilteringFunctions/arm_correlate_q7.c ****       x2 = *px++;
 304:Drivers/CMSIS/DSP/Source/FilteringFunctions/arm_correlate_q7.c **** 
 305:Drivers/CMSIS/DSP/Source/FilteringFunctions/arm_correlate_q7.c ****       /* Apply loop unrolling and compute 4 MACs simultaneously. */
 306:Drivers/CMSIS/DSP/Source/FilteringFunctions/arm_correlate_q7.c ****       k = srcBLen >> 2U;
 307:Drivers/CMSIS/DSP/Source/FilteringFunctions/arm_correlate_q7.c **** 
 308:Drivers/CMSIS/DSP/Source/FilteringFunctions/arm_correlate_q7.c ****       /* First part of the processing with loop unrolling.  Compute 4 MACs at a time.
 309:Drivers/CMSIS/DSP/Source/FilteringFunctions/arm_correlate_q7.c ****        ** a second loop below computes MACs for the remaining 1 to 3 samples. */
 310:Drivers/CMSIS/DSP/Source/FilteringFunctions/arm_correlate_q7.c ****       do
 311:Drivers/CMSIS/DSP/Source/FilteringFunctions/arm_correlate_q7.c ****       {
 312:Drivers/CMSIS/DSP/Source/FilteringFunctions/arm_correlate_q7.c ****         /* Read y[0] sample */
 313:Drivers/CMSIS/DSP/Source/FilteringFunctions/arm_correlate_q7.c ****         c0 = *py++;
 314:Drivers/CMSIS/DSP/Source/FilteringFunctions/arm_correlate_q7.c ****         /* Read y[1] sample */
 315:Drivers/CMSIS/DSP/Source/FilteringFunctions/arm_correlate_q7.c ****         c1 = *py++;
 316:Drivers/CMSIS/DSP/Source/FilteringFunctions/arm_correlate_q7.c **** 
 317:Drivers/CMSIS/DSP/Source/FilteringFunctions/arm_correlate_q7.c ****         /* Read x[3] sample */
 318:Drivers/CMSIS/DSP/Source/FilteringFunctions/arm_correlate_q7.c ****         x3 = *px++;
 319:Drivers/CMSIS/DSP/Source/FilteringFunctions/arm_correlate_q7.c **** 
 320:Drivers/CMSIS/DSP/Source/FilteringFunctions/arm_correlate_q7.c ****         /* x[0] and x[1] are packed */
 321:Drivers/CMSIS/DSP/Source/FilteringFunctions/arm_correlate_q7.c ****         in1 = (q15_t) x0;
 322:Drivers/CMSIS/DSP/Source/FilteringFunctions/arm_correlate_q7.c ****         in2 = (q15_t) x1;
 323:Drivers/CMSIS/DSP/Source/FilteringFunctions/arm_correlate_q7.c **** 
 324:Drivers/CMSIS/DSP/Source/FilteringFunctions/arm_correlate_q7.c ****         input1 = ((q31_t) in1 & 0x0000FFFF) | ((q31_t) in2 << 16);
 325:Drivers/CMSIS/DSP/Source/FilteringFunctions/arm_correlate_q7.c **** 
 326:Drivers/CMSIS/DSP/Source/FilteringFunctions/arm_correlate_q7.c ****         /* y[0] and y[1] are packed */
 327:Drivers/CMSIS/DSP/Source/FilteringFunctions/arm_correlate_q7.c ****         in1 = (q15_t) c0;
 328:Drivers/CMSIS/DSP/Source/FilteringFunctions/arm_correlate_q7.c ****         in2 = (q15_t) c1;
 329:Drivers/CMSIS/DSP/Source/FilteringFunctions/arm_correlate_q7.c **** 
ARM GAS  /tmp/cc3XjLgi.s 			page 48


 330:Drivers/CMSIS/DSP/Source/FilteringFunctions/arm_correlate_q7.c ****         input2 = ((q31_t) in1 & 0x0000FFFF) | ((q31_t) in2 << 16);
 331:Drivers/CMSIS/DSP/Source/FilteringFunctions/arm_correlate_q7.c **** 
 332:Drivers/CMSIS/DSP/Source/FilteringFunctions/arm_correlate_q7.c ****         /* acc0 += x[0] * y[0] + x[1] * y[1]  */
 333:Drivers/CMSIS/DSP/Source/FilteringFunctions/arm_correlate_q7.c ****         acc0 = __SMLAD(input1, input2, acc0);
 334:Drivers/CMSIS/DSP/Source/FilteringFunctions/arm_correlate_q7.c **** 
 335:Drivers/CMSIS/DSP/Source/FilteringFunctions/arm_correlate_q7.c ****         /* x[1] and x[2] are packed */
 336:Drivers/CMSIS/DSP/Source/FilteringFunctions/arm_correlate_q7.c ****         in1 = (q15_t) x1;
 337:Drivers/CMSIS/DSP/Source/FilteringFunctions/arm_correlate_q7.c ****         in2 = (q15_t) x2;
 338:Drivers/CMSIS/DSP/Source/FilteringFunctions/arm_correlate_q7.c **** 
 339:Drivers/CMSIS/DSP/Source/FilteringFunctions/arm_correlate_q7.c ****         input1 = ((q31_t) in1 & 0x0000FFFF) | ((q31_t) in2 << 16);
 340:Drivers/CMSIS/DSP/Source/FilteringFunctions/arm_correlate_q7.c **** 
 341:Drivers/CMSIS/DSP/Source/FilteringFunctions/arm_correlate_q7.c ****         /* acc1 += x[1] * y[0] + x[2] * y[1] */
 342:Drivers/CMSIS/DSP/Source/FilteringFunctions/arm_correlate_q7.c ****         acc1 = __SMLAD(input1, input2, acc1);
 343:Drivers/CMSIS/DSP/Source/FilteringFunctions/arm_correlate_q7.c **** 
 344:Drivers/CMSIS/DSP/Source/FilteringFunctions/arm_correlate_q7.c ****         /* x[2] and x[3] are packed */
 345:Drivers/CMSIS/DSP/Source/FilteringFunctions/arm_correlate_q7.c ****         in1 = (q15_t) x2;
 346:Drivers/CMSIS/DSP/Source/FilteringFunctions/arm_correlate_q7.c ****         in2 = (q15_t) x3;
 347:Drivers/CMSIS/DSP/Source/FilteringFunctions/arm_correlate_q7.c **** 
 348:Drivers/CMSIS/DSP/Source/FilteringFunctions/arm_correlate_q7.c ****         input1 = ((q31_t) in1 & 0x0000FFFF) | ((q31_t) in2 << 16);
 349:Drivers/CMSIS/DSP/Source/FilteringFunctions/arm_correlate_q7.c **** 
 350:Drivers/CMSIS/DSP/Source/FilteringFunctions/arm_correlate_q7.c ****         /* acc2 += x[2] * y[0] + x[3] * y[1]  */
 351:Drivers/CMSIS/DSP/Source/FilteringFunctions/arm_correlate_q7.c ****         acc2 = __SMLAD(input1, input2, acc2);
 352:Drivers/CMSIS/DSP/Source/FilteringFunctions/arm_correlate_q7.c **** 
 353:Drivers/CMSIS/DSP/Source/FilteringFunctions/arm_correlate_q7.c ****         /* Read x[4] sample */
 354:Drivers/CMSIS/DSP/Source/FilteringFunctions/arm_correlate_q7.c ****         x0 = *(px++);
 355:Drivers/CMSIS/DSP/Source/FilteringFunctions/arm_correlate_q7.c **** 
 356:Drivers/CMSIS/DSP/Source/FilteringFunctions/arm_correlate_q7.c ****         /* x[3] and x[4] are packed */
 357:Drivers/CMSIS/DSP/Source/FilteringFunctions/arm_correlate_q7.c ****         in1 = (q15_t) x3;
 358:Drivers/CMSIS/DSP/Source/FilteringFunctions/arm_correlate_q7.c ****         in2 = (q15_t) x0;
 359:Drivers/CMSIS/DSP/Source/FilteringFunctions/arm_correlate_q7.c **** 
 360:Drivers/CMSIS/DSP/Source/FilteringFunctions/arm_correlate_q7.c ****         input1 = ((q31_t) in1 & 0x0000FFFF) | ((q31_t) in2 << 16);
 361:Drivers/CMSIS/DSP/Source/FilteringFunctions/arm_correlate_q7.c **** 
 362:Drivers/CMSIS/DSP/Source/FilteringFunctions/arm_correlate_q7.c ****         /* acc3 += x[3] * y[0] + x[4] * y[1]  */
 363:Drivers/CMSIS/DSP/Source/FilteringFunctions/arm_correlate_q7.c ****         acc3 = __SMLAD(input1, input2, acc3);
 364:Drivers/CMSIS/DSP/Source/FilteringFunctions/arm_correlate_q7.c **** 
 365:Drivers/CMSIS/DSP/Source/FilteringFunctions/arm_correlate_q7.c ****         /* Read y[2] sample */
 366:Drivers/CMSIS/DSP/Source/FilteringFunctions/arm_correlate_q7.c ****         c0 = *py++;
 367:Drivers/CMSIS/DSP/Source/FilteringFunctions/arm_correlate_q7.c ****         /* Read y[3] sample */
 368:Drivers/CMSIS/DSP/Source/FilteringFunctions/arm_correlate_q7.c ****         c1 = *py++;
 369:Drivers/CMSIS/DSP/Source/FilteringFunctions/arm_correlate_q7.c **** 
 370:Drivers/CMSIS/DSP/Source/FilteringFunctions/arm_correlate_q7.c ****         /* Read x[5] sample */
 371:Drivers/CMSIS/DSP/Source/FilteringFunctions/arm_correlate_q7.c ****         x1 = *px++;
 372:Drivers/CMSIS/DSP/Source/FilteringFunctions/arm_correlate_q7.c **** 
 373:Drivers/CMSIS/DSP/Source/FilteringFunctions/arm_correlate_q7.c ****         /* x[2] and x[3] are packed */
 374:Drivers/CMSIS/DSP/Source/FilteringFunctions/arm_correlate_q7.c ****         in1 = (q15_t) x2;
 375:Drivers/CMSIS/DSP/Source/FilteringFunctions/arm_correlate_q7.c ****         in2 = (q15_t) x3;
 376:Drivers/CMSIS/DSP/Source/FilteringFunctions/arm_correlate_q7.c **** 
 377:Drivers/CMSIS/DSP/Source/FilteringFunctions/arm_correlate_q7.c ****         input1 = ((q31_t) in1 & 0x0000FFFF) | ((q31_t) in2 << 16);
 378:Drivers/CMSIS/DSP/Source/FilteringFunctions/arm_correlate_q7.c **** 
 379:Drivers/CMSIS/DSP/Source/FilteringFunctions/arm_correlate_q7.c ****         /* y[2] and y[3] are packed */
 380:Drivers/CMSIS/DSP/Source/FilteringFunctions/arm_correlate_q7.c ****         in1 = (q15_t) c0;
 381:Drivers/CMSIS/DSP/Source/FilteringFunctions/arm_correlate_q7.c ****         in2 = (q15_t) c1;
 382:Drivers/CMSIS/DSP/Source/FilteringFunctions/arm_correlate_q7.c **** 
 383:Drivers/CMSIS/DSP/Source/FilteringFunctions/arm_correlate_q7.c ****         input2 = ((q31_t) in1 & 0x0000FFFF) | ((q31_t) in2 << 16);
 384:Drivers/CMSIS/DSP/Source/FilteringFunctions/arm_correlate_q7.c **** 
 385:Drivers/CMSIS/DSP/Source/FilteringFunctions/arm_correlate_q7.c ****         /* acc0 += x[2] * y[2] + x[3] * y[3]  */
 386:Drivers/CMSIS/DSP/Source/FilteringFunctions/arm_correlate_q7.c ****         acc0 = __SMLAD(input1, input2, acc0);
ARM GAS  /tmp/cc3XjLgi.s 			page 49


 387:Drivers/CMSIS/DSP/Source/FilteringFunctions/arm_correlate_q7.c **** 
 388:Drivers/CMSIS/DSP/Source/FilteringFunctions/arm_correlate_q7.c ****         /* x[3] and x[4] are packed */
 389:Drivers/CMSIS/DSP/Source/FilteringFunctions/arm_correlate_q7.c ****         in1 = (q15_t) x3;
 390:Drivers/CMSIS/DSP/Source/FilteringFunctions/arm_correlate_q7.c ****         in2 = (q15_t) x0;
 391:Drivers/CMSIS/DSP/Source/FilteringFunctions/arm_correlate_q7.c **** 
 392:Drivers/CMSIS/DSP/Source/FilteringFunctions/arm_correlate_q7.c ****         input1 = ((q31_t) in1 & 0x0000FFFF) | ((q31_t) in2 << 16);
 393:Drivers/CMSIS/DSP/Source/FilteringFunctions/arm_correlate_q7.c **** 
 394:Drivers/CMSIS/DSP/Source/FilteringFunctions/arm_correlate_q7.c ****         /* acc1 += x[3] * y[2] + x[4] * y[3]  */
 395:Drivers/CMSIS/DSP/Source/FilteringFunctions/arm_correlate_q7.c ****         acc1 = __SMLAD(input1, input2, acc1);
 396:Drivers/CMSIS/DSP/Source/FilteringFunctions/arm_correlate_q7.c **** 
 397:Drivers/CMSIS/DSP/Source/FilteringFunctions/arm_correlate_q7.c ****         /* x[4] and x[5] are packed */
 398:Drivers/CMSIS/DSP/Source/FilteringFunctions/arm_correlate_q7.c ****         in1 = (q15_t) x0;
 399:Drivers/CMSIS/DSP/Source/FilteringFunctions/arm_correlate_q7.c ****         in2 = (q15_t) x1;
 400:Drivers/CMSIS/DSP/Source/FilteringFunctions/arm_correlate_q7.c **** 
 401:Drivers/CMSIS/DSP/Source/FilteringFunctions/arm_correlate_q7.c ****         input1 = ((q31_t) in1 & 0x0000FFFF) | ((q31_t) in2 << 16);
 402:Drivers/CMSIS/DSP/Source/FilteringFunctions/arm_correlate_q7.c **** 
 403:Drivers/CMSIS/DSP/Source/FilteringFunctions/arm_correlate_q7.c ****         /* acc2 += x[4] * y[2] + x[5] * y[3]  */
 404:Drivers/CMSIS/DSP/Source/FilteringFunctions/arm_correlate_q7.c ****         acc2 = __SMLAD(input1, input2, acc2);
 405:Drivers/CMSIS/DSP/Source/FilteringFunctions/arm_correlate_q7.c **** 
 406:Drivers/CMSIS/DSP/Source/FilteringFunctions/arm_correlate_q7.c ****         /* Read x[6] sample */
 407:Drivers/CMSIS/DSP/Source/FilteringFunctions/arm_correlate_q7.c ****         x2 = *px++;
 408:Drivers/CMSIS/DSP/Source/FilteringFunctions/arm_correlate_q7.c **** 
 409:Drivers/CMSIS/DSP/Source/FilteringFunctions/arm_correlate_q7.c ****         /* x[5] and x[6] are packed */
 410:Drivers/CMSIS/DSP/Source/FilteringFunctions/arm_correlate_q7.c ****         in1 = (q15_t) x1;
 411:Drivers/CMSIS/DSP/Source/FilteringFunctions/arm_correlate_q7.c ****         in2 = (q15_t) x2;
 412:Drivers/CMSIS/DSP/Source/FilteringFunctions/arm_correlate_q7.c **** 
 413:Drivers/CMSIS/DSP/Source/FilteringFunctions/arm_correlate_q7.c ****         input1 = ((q31_t) in1 & 0x0000FFFF) | ((q31_t) in2 << 16);
 414:Drivers/CMSIS/DSP/Source/FilteringFunctions/arm_correlate_q7.c **** 
 415:Drivers/CMSIS/DSP/Source/FilteringFunctions/arm_correlate_q7.c ****         /* acc3 += x[5] * y[2] + x[6] * y[3]  */
 416:Drivers/CMSIS/DSP/Source/FilteringFunctions/arm_correlate_q7.c ****         acc3 = __SMLAD(input1, input2, acc3);
 417:Drivers/CMSIS/DSP/Source/FilteringFunctions/arm_correlate_q7.c **** 
 418:Drivers/CMSIS/DSP/Source/FilteringFunctions/arm_correlate_q7.c ****       } while (--k);
 419:Drivers/CMSIS/DSP/Source/FilteringFunctions/arm_correlate_q7.c **** 
 420:Drivers/CMSIS/DSP/Source/FilteringFunctions/arm_correlate_q7.c ****       /* If the srcBLen is not a multiple of 4, compute any remaining MACs here.
 421:Drivers/CMSIS/DSP/Source/FilteringFunctions/arm_correlate_q7.c ****        ** No loop unrolling is used. */
 422:Drivers/CMSIS/DSP/Source/FilteringFunctions/arm_correlate_q7.c ****       k = srcBLen % 0x4U;
 423:Drivers/CMSIS/DSP/Source/FilteringFunctions/arm_correlate_q7.c **** 
 424:Drivers/CMSIS/DSP/Source/FilteringFunctions/arm_correlate_q7.c ****       while (k > 0U)
 425:Drivers/CMSIS/DSP/Source/FilteringFunctions/arm_correlate_q7.c ****       {
 426:Drivers/CMSIS/DSP/Source/FilteringFunctions/arm_correlate_q7.c ****         /* Read y[4] sample */
 427:Drivers/CMSIS/DSP/Source/FilteringFunctions/arm_correlate_q7.c ****         c0 = *py++;
 399              		.loc 1 427 9 is_stmt 1 view .LVU155
 400              		.loc 1 427 12 is_stmt 0 view .LVU156
 401 0116 15F9019B 		ldrsb	r9, [r5], #1
 402              	.LVL64:
 428:Drivers/CMSIS/DSP/Source/FilteringFunctions/arm_correlate_q7.c **** 
 429:Drivers/CMSIS/DSP/Source/FilteringFunctions/arm_correlate_q7.c ****         /* Read x[7] sample */
 430:Drivers/CMSIS/DSP/Source/FilteringFunctions/arm_correlate_q7.c ****         x3 = *px++;
 403              		.loc 1 430 9 is_stmt 1 view .LVU157
 404              		.loc 1 430 12 is_stmt 0 view .LVU158
 405 011a 14F901AB 		ldrsb	r10, [r4], #1
 406              	.LVL65:
 431:Drivers/CMSIS/DSP/Source/FilteringFunctions/arm_correlate_q7.c **** 
 432:Drivers/CMSIS/DSP/Source/FilteringFunctions/arm_correlate_q7.c ****         /* Perform the multiply-accumulates */
 433:Drivers/CMSIS/DSP/Source/FilteringFunctions/arm_correlate_q7.c ****         /* acc0 +=  x[4] * y[4] */
 434:Drivers/CMSIS/DSP/Source/FilteringFunctions/arm_correlate_q7.c ****         acc0 += ((q15_t) x0 * c0);
 407              		.loc 1 434 9 is_stmt 1 view .LVU159
ARM GAS  /tmp/cc3XjLgi.s 			page 50


 408              		.loc 1 434 14 is_stmt 0 view .LVU160
 409 011e 09FB0066 		mla	r6, r9, r0, r6
 410              	.LVL66:
 435:Drivers/CMSIS/DSP/Source/FilteringFunctions/arm_correlate_q7.c ****         /* acc1 +=  x[5] * y[4] */
 436:Drivers/CMSIS/DSP/Source/FilteringFunctions/arm_correlate_q7.c ****         acc1 += ((q15_t) x1 * c0);
 411              		.loc 1 436 9 is_stmt 1 view .LVU161
 412              		.loc 1 436 14 is_stmt 0 view .LVU162
 413 0122 01FB0933 		mla	r3, r1, r9, r3
 414              	.LVL67:
 437:Drivers/CMSIS/DSP/Source/FilteringFunctions/arm_correlate_q7.c ****         /* acc2 +=  x[6] * y[4] */
 438:Drivers/CMSIS/DSP/Source/FilteringFunctions/arm_correlate_q7.c ****         acc2 += ((q15_t) x2 * c0);
 415              		.loc 1 438 9 is_stmt 1 view .LVU163
 416              		.loc 1 438 14 is_stmt 0 view .LVU164
 417 0126 08FB09EE 		mla	lr, r8, r9, lr
 418              	.LVL68:
 439:Drivers/CMSIS/DSP/Source/FilteringFunctions/arm_correlate_q7.c ****         /* acc3 +=  x[7] * y[4] */
 440:Drivers/CMSIS/DSP/Source/FilteringFunctions/arm_correlate_q7.c ****         acc3 += ((q15_t) x3 * c0);
 419              		.loc 1 440 9 is_stmt 1 view .LVU165
 420              		.loc 1 440 14 is_stmt 0 view .LVU166
 421 012a 0AFB09CC 		mla	ip, r10, r9, ip
 422              	.LVL69:
 441:Drivers/CMSIS/DSP/Source/FilteringFunctions/arm_correlate_q7.c **** 
 442:Drivers/CMSIS/DSP/Source/FilteringFunctions/arm_correlate_q7.c ****         /* Reuse the present samples for the next MAC */
 443:Drivers/CMSIS/DSP/Source/FilteringFunctions/arm_correlate_q7.c ****         x0 = x1;
 423              		.loc 1 443 9 is_stmt 1 view .LVU167
 444:Drivers/CMSIS/DSP/Source/FilteringFunctions/arm_correlate_q7.c ****         x1 = x2;
 424              		.loc 1 444 9 view .LVU168
 445:Drivers/CMSIS/DSP/Source/FilteringFunctions/arm_correlate_q7.c ****         x2 = x3;
 425              		.loc 1 445 9 view .LVU169
 446:Drivers/CMSIS/DSP/Source/FilteringFunctions/arm_correlate_q7.c **** 
 447:Drivers/CMSIS/DSP/Source/FilteringFunctions/arm_correlate_q7.c ****         /* Decrement the loop counter */
 448:Drivers/CMSIS/DSP/Source/FilteringFunctions/arm_correlate_q7.c ****         k--;
 426              		.loc 1 448 9 view .LVU170
 427              		.loc 1 448 10 is_stmt 0 view .LVU171
 428 012e 013F     		subs	r7, r7, #1
 429              	.LVL70:
 443:Drivers/CMSIS/DSP/Source/FilteringFunctions/arm_correlate_q7.c ****         x1 = x2;
 430              		.loc 1 443 12 view .LVU172
 431 0130 0846     		mov	r0, r1
 444:Drivers/CMSIS/DSP/Source/FilteringFunctions/arm_correlate_q7.c ****         x2 = x3;
 432              		.loc 1 444 12 view .LVU173
 433 0132 4146     		mov	r1, r8
 434              	.LVL71:
 445:Drivers/CMSIS/DSP/Source/FilteringFunctions/arm_correlate_q7.c **** 
 435              		.loc 1 445 12 view .LVU174
 436 0134 D046     		mov	r8, r10
 437              	.LVL72:
 438              	.L13:
 424:Drivers/CMSIS/DSP/Source/FilteringFunctions/arm_correlate_q7.c ****       {
 439              		.loc 1 424 16 is_stmt 1 view .LVU175
 440 0136 002F     		cmp	r7, #0
 441 0138 EDD1     		bne	.L14
 442              	.LBB43:
 449:Drivers/CMSIS/DSP/Source/FilteringFunctions/arm_correlate_q7.c ****       }
 450:Drivers/CMSIS/DSP/Source/FilteringFunctions/arm_correlate_q7.c **** 
 451:Drivers/CMSIS/DSP/Source/FilteringFunctions/arm_correlate_q7.c ****       /* Store the result in the accumulator in the destination buffer. */
 452:Drivers/CMSIS/DSP/Source/FilteringFunctions/arm_correlate_q7.c ****       *pOut = (q7_t) (__SSAT(acc0 >> 7, 8));
ARM GAS  /tmp/cc3XjLgi.s 			page 51


 443              		.loc 1 452 23 is_stmt 0 view .LVU176
 444 013a DDF814A0 		ldr	r10, [sp, #20]
 445              	.LBE43:
 446              		.loc 1 452 7 is_stmt 1 view .LVU177
 447              	.LBB44:
 448              		.loc 1 452 23 view .LVU178
 449 013e F611     		asrs	r6, r6, #7
 450              	.LVL73:
 451              		.loc 1 452 23 view .LVU179
 452              		.syntax unified
 453              	@ 452 "Drivers/CMSIS/DSP/Source/FilteringFunctions/arm_correlate_q7.c" 1
 454 0140 06F30706 		ssat r6, #8, r6
 455              	@ 0 "" 2
 456              	.LVL74:
 457              		.loc 1 452 23 view .LVU180
 458              		.thumb
 459              		.syntax unified
 460              	.LBE44:
 461              		.loc 1 452 13 is_stmt 0 view .LVU181
 462 0144 8AF80060 		strb	r6, [r10]
 453:Drivers/CMSIS/DSP/Source/FilteringFunctions/arm_correlate_q7.c ****       /* Destination pointer is updated according to the address modifier, inc */
 454:Drivers/CMSIS/DSP/Source/FilteringFunctions/arm_correlate_q7.c ****       pOut += inc;
 463              		.loc 1 454 7 is_stmt 1 view .LVU182
 464              	.LVL75:
 455:Drivers/CMSIS/DSP/Source/FilteringFunctions/arm_correlate_q7.c **** 
 456:Drivers/CMSIS/DSP/Source/FilteringFunctions/arm_correlate_q7.c ****       *pOut = (q7_t) (__SSAT(acc1 >> 7, 8));
 465              		.loc 1 456 7 view .LVU183
 466              	.LBB45:
 467              		.loc 1 456 23 view .LVU184
 468 0148 DB11     		asrs	r3, r3, #7
 469              	.LVL76:
 470              		.loc 1 456 23 view .LVU185
 471              		.syntax unified
 472              	@ 456 "Drivers/CMSIS/DSP/Source/FilteringFunctions/arm_correlate_q7.c" 1
 473 014a 03F30703 		ssat r3, #8, r3
 474              	@ 0 "" 2
 475              	.LVL77:
 476              		.loc 1 456 23 view .LVU186
 477              		.thumb
 478              		.syntax unified
 479              	.LBE45:
 480              		.loc 1 456 13 is_stmt 0 view .LVU187
 481 014e 0AF80B30 		strb	r3, [r10, fp]
 457:Drivers/CMSIS/DSP/Source/FilteringFunctions/arm_correlate_q7.c ****       pOut += inc;
 482              		.loc 1 457 7 is_stmt 1 view .LVU188
 483              		.loc 1 457 12 is_stmt 0 view .LVU189
 484 0152 0AEB4B03 		add	r3, r10, fp, lsl #1
 485              	.LVL78:
 458:Drivers/CMSIS/DSP/Source/FilteringFunctions/arm_correlate_q7.c **** 
 459:Drivers/CMSIS/DSP/Source/FilteringFunctions/arm_correlate_q7.c ****       *pOut = (q7_t) (__SSAT(acc2 >> 7, 8));
 486              		.loc 1 459 7 is_stmt 1 view .LVU190
 487              	.LBB46:
 488              		.loc 1 459 23 view .LVU191
 489 0156 4FEAEE1E 		asr	lr, lr, #7
 490              	.LVL79:
 491              		.loc 1 459 23 view .LVU192
 492              		.syntax unified
ARM GAS  /tmp/cc3XjLgi.s 			page 52


 493              	@ 459 "Drivers/CMSIS/DSP/Source/FilteringFunctions/arm_correlate_q7.c" 1
 494 015a 0EF3070E 		ssat lr, #8, lr
 495              	@ 0 "" 2
 496              	.LVL80:
 497              		.loc 1 459 23 view .LVU193
 498              		.thumb
 499              		.syntax unified
 500              	.LBE46:
 501              		.loc 1 459 13 is_stmt 0 view .LVU194
 502 015e 0AF81BE0 		strb	lr, [r10, fp, lsl #1]
 460:Drivers/CMSIS/DSP/Source/FilteringFunctions/arm_correlate_q7.c ****       pOut += inc;
 503              		.loc 1 460 7 is_stmt 1 view .LVU195
 504              	.LVL81:
 461:Drivers/CMSIS/DSP/Source/FilteringFunctions/arm_correlate_q7.c **** 
 462:Drivers/CMSIS/DSP/Source/FilteringFunctions/arm_correlate_q7.c ****       *pOut = (q7_t) (__SSAT(acc3 >> 7, 8));
 505              		.loc 1 462 7 view .LVU196
 506              	.LBB47:
 507              		.loc 1 462 23 view .LVU197
 508 0162 4FEAEC1C 		asr	ip, ip, #7
 509              	.LVL82:
 510              		.loc 1 462 23 view .LVU198
 511              		.syntax unified
 512              	@ 462 "Drivers/CMSIS/DSP/Source/FilteringFunctions/arm_correlate_q7.c" 1
 513 0166 0CF3070C 		ssat ip, #8, ip
 514              	@ 0 "" 2
 515              	.LVL83:
 516              		.loc 1 462 23 view .LVU199
 517              		.thumb
 518              		.syntax unified
 519              	.LBE47:
 520              		.loc 1 462 13 is_stmt 0 view .LVU200
 521 016a 03F80BC0 		strb	ip, [r3, fp]
 463:Drivers/CMSIS/DSP/Source/FilteringFunctions/arm_correlate_q7.c ****       pOut += inc;
 522              		.loc 1 463 7 is_stmt 1 view .LVU201
 523              		.loc 1 463 12 is_stmt 0 view .LVU202
 524 016e 03EB4B0A 		add	r10, r3, fp, lsl #1
 525              	.LVL84:
 464:Drivers/CMSIS/DSP/Source/FilteringFunctions/arm_correlate_q7.c **** 
 465:Drivers/CMSIS/DSP/Source/FilteringFunctions/arm_correlate_q7.c **** 	  count += 4U;
 526              		.loc 1 465 4 is_stmt 1 view .LVU203
 527              		.loc 1 465 10 is_stmt 0 view .LVU204
 528 0172 039B     		ldr	r3, [sp, #12]
 529 0174 0433     		adds	r3, r3, #4
 530 0176 0393     		str	r3, [sp, #12]
 531              	.LVL85:
 466:Drivers/CMSIS/DSP/Source/FilteringFunctions/arm_correlate_q7.c ****       /* Update the inputA and inputB pointers for next MAC calculation */
 467:Drivers/CMSIS/DSP/Source/FilteringFunctions/arm_correlate_q7.c ****       px = pIn1 + count;
 532              		.loc 1 467 7 is_stmt 1 view .LVU205
 533              		.loc 1 467 10 is_stmt 0 view .LVU206
 534 0178 0299     		ldr	r1, [sp, #8]
 535 017a CB18     		adds	r3, r1, r3
 536              	.LVL86:
 468:Drivers/CMSIS/DSP/Source/FilteringFunctions/arm_correlate_q7.c ****       py = pIn2;
 537              		.loc 1 468 7 is_stmt 1 view .LVU207
 469:Drivers/CMSIS/DSP/Source/FilteringFunctions/arm_correlate_q7.c **** 
 470:Drivers/CMSIS/DSP/Source/FilteringFunctions/arm_correlate_q7.c ****       /* Decrement the loop counter */
 471:Drivers/CMSIS/DSP/Source/FilteringFunctions/arm_correlate_q7.c ****       blkCnt--;
ARM GAS  /tmp/cc3XjLgi.s 			page 53


 538              		.loc 1 471 7 view .LVU208
 539              		.loc 1 471 13 is_stmt 0 view .LVU209
 540 017c 013A     		subs	r2, r2, #1
 541              	.LVL87:
 542              	.L11:
 292:Drivers/CMSIS/DSP/Source/FilteringFunctions/arm_correlate_q7.c ****     {
 543              		.loc 1 292 19 is_stmt 1 view .LVU210
 544 017e 002A     		cmp	r2, #0
 545 0180 5DD0     		beq	.L35
 295:Drivers/CMSIS/DSP/Source/FilteringFunctions/arm_correlate_q7.c ****       acc1 = 0;
 546              		.loc 1 295 7 view .LVU211
 547              	.LVL88:
 296:Drivers/CMSIS/DSP/Source/FilteringFunctions/arm_correlate_q7.c ****       acc2 = 0;
 548              		.loc 1 296 7 view .LVU212
 297:Drivers/CMSIS/DSP/Source/FilteringFunctions/arm_correlate_q7.c ****       acc3 = 0;
 549              		.loc 1 297 7 view .LVU213
 298:Drivers/CMSIS/DSP/Source/FilteringFunctions/arm_correlate_q7.c **** 
 550              		.loc 1 298 7 view .LVU214
 301:Drivers/CMSIS/DSP/Source/FilteringFunctions/arm_correlate_q7.c ****       x1 = *px++;
 551              		.loc 1 301 7 view .LVU215
 301:Drivers/CMSIS/DSP/Source/FilteringFunctions/arm_correlate_q7.c ****       x1 = *px++;
 552              		.loc 1 301 10 is_stmt 0 view .LVU216
 553 0182 93F90000 		ldrsb	r0, [r3]
 554              	.LVL89:
 302:Drivers/CMSIS/DSP/Source/FilteringFunctions/arm_correlate_q7.c ****       x2 = *px++;
 555              		.loc 1 302 7 is_stmt 1 view .LVU217
 302:Drivers/CMSIS/DSP/Source/FilteringFunctions/arm_correlate_q7.c ****       x2 = *px++;
 556              		.loc 1 302 10 is_stmt 0 view .LVU218
 557 0186 93F90110 		ldrsb	r1, [r3, #1]
 558              	.LVL90:
 303:Drivers/CMSIS/DSP/Source/FilteringFunctions/arm_correlate_q7.c **** 
 559              		.loc 1 303 7 is_stmt 1 view .LVU219
 303:Drivers/CMSIS/DSP/Source/FilteringFunctions/arm_correlate_q7.c **** 
 560              		.loc 1 303 15 is_stmt 0 view .LVU220
 561 018a DC1C     		adds	r4, r3, #3
 562              	.LVL91:
 303:Drivers/CMSIS/DSP/Source/FilteringFunctions/arm_correlate_q7.c **** 
 563              		.loc 1 303 10 view .LVU221
 564 018c 93F90280 		ldrsb	r8, [r3, #2]
 565              	.LVL92:
 306:Drivers/CMSIS/DSP/Source/FilteringFunctions/arm_correlate_q7.c **** 
 566              		.loc 1 306 7 is_stmt 1 view .LVU222
 306:Drivers/CMSIS/DSP/Source/FilteringFunctions/arm_correlate_q7.c **** 
 567              		.loc 1 306 9 is_stmt 0 view .LVU223
 568 0190 049B     		ldr	r3, [sp, #16]
 569 0192 9F08     		lsrs	r7, r3, #2
 570              	.LVL93:
 306:Drivers/CMSIS/DSP/Source/FilteringFunctions/arm_correlate_q7.c **** 
 571              		.loc 1 306 9 view .LVU224
 572 0194 019D     		ldr	r5, [sp, #4]
 298:Drivers/CMSIS/DSP/Source/FilteringFunctions/arm_correlate_q7.c **** 
 573              		.loc 1 298 12 view .LVU225
 574 0196 4FF0000C 		mov	ip, #0
 297:Drivers/CMSIS/DSP/Source/FilteringFunctions/arm_correlate_q7.c ****       acc3 = 0;
 575              		.loc 1 297 12 view .LVU226
 576 019a E646     		mov	lr, ip
 296:Drivers/CMSIS/DSP/Source/FilteringFunctions/arm_correlate_q7.c ****       acc2 = 0;
ARM GAS  /tmp/cc3XjLgi.s 			page 54


 577              		.loc 1 296 12 view .LVU227
 578 019c 6346     		mov	r3, ip
 295:Drivers/CMSIS/DSP/Source/FilteringFunctions/arm_correlate_q7.c ****       acc1 = 0;
 579              		.loc 1 295 12 view .LVU228
 580 019e 6646     		mov	r6, ip
 581 01a0 CDF814A0 		str	r10, [sp, #20]
 582 01a4 0692     		str	r2, [sp, #24]
 583 01a6 CDF81CB0 		str	fp, [sp, #28]
 584 01aa BB46     		mov	fp, r7
 585              	.LVL94:
 586              	.L12:
 310:Drivers/CMSIS/DSP/Source/FilteringFunctions/arm_correlate_q7.c ****       {
 587              		.loc 1 310 7 is_stmt 1 view .LVU229
 313:Drivers/CMSIS/DSP/Source/FilteringFunctions/arm_correlate_q7.c ****         /* Read y[1] sample */
 588              		.loc 1 313 9 view .LVU230
 313:Drivers/CMSIS/DSP/Source/FilteringFunctions/arm_correlate_q7.c ****         /* Read y[1] sample */
 589              		.loc 1 313 12 is_stmt 0 view .LVU231
 590 01ac 95F90020 		ldrsb	r2, [r5]
 591              	.LVL95:
 315:Drivers/CMSIS/DSP/Source/FilteringFunctions/arm_correlate_q7.c **** 
 592              		.loc 1 315 9 is_stmt 1 view .LVU232
 315:Drivers/CMSIS/DSP/Source/FilteringFunctions/arm_correlate_q7.c **** 
 593              		.loc 1 315 12 is_stmt 0 view .LVU233
 594 01b0 95F90190 		ldrsb	r9, [r5, #1]
 595              	.LVL96:
 318:Drivers/CMSIS/DSP/Source/FilteringFunctions/arm_correlate_q7.c **** 
 596              		.loc 1 318 9 is_stmt 1 view .LVU234
 318:Drivers/CMSIS/DSP/Source/FilteringFunctions/arm_correlate_q7.c **** 
 597              		.loc 1 318 12 is_stmt 0 view .LVU235
 598 01b4 94F90070 		ldrsb	r7, [r4]
 599              	.LVL97:
 321:Drivers/CMSIS/DSP/Source/FilteringFunctions/arm_correlate_q7.c ****         in2 = (q15_t) x1;
 600              		.loc 1 321 9 is_stmt 1 view .LVU236
 322:Drivers/CMSIS/DSP/Source/FilteringFunctions/arm_correlate_q7.c **** 
 601              		.loc 1 322 9 view .LVU237
 324:Drivers/CMSIS/DSP/Source/FilteringFunctions/arm_correlate_q7.c **** 
 602              		.loc 1 324 9 view .LVU238
 324:Drivers/CMSIS/DSP/Source/FilteringFunctions/arm_correlate_q7.c **** 
 603              		.loc 1 324 31 is_stmt 0 view .LVU239
 604 01b8 80B2     		uxth	r0, r0
 324:Drivers/CMSIS/DSP/Source/FilteringFunctions/arm_correlate_q7.c **** 
 605              		.loc 1 324 16 view .LVU240
 606 01ba 40EA0140 		orr	r0, r0, r1, lsl #16
 607              	.LVL98:
 327:Drivers/CMSIS/DSP/Source/FilteringFunctions/arm_correlate_q7.c ****         in2 = (q15_t) c1;
 608              		.loc 1 327 9 is_stmt 1 view .LVU241
 328:Drivers/CMSIS/DSP/Source/FilteringFunctions/arm_correlate_q7.c **** 
 609              		.loc 1 328 9 view .LVU242
 330:Drivers/CMSIS/DSP/Source/FilteringFunctions/arm_correlate_q7.c **** 
 610              		.loc 1 330 9 view .LVU243
 330:Drivers/CMSIS/DSP/Source/FilteringFunctions/arm_correlate_q7.c **** 
 611              		.loc 1 330 31 is_stmt 0 view .LVU244
 612 01be 92B2     		uxth	r2, r2
 330:Drivers/CMSIS/DSP/Source/FilteringFunctions/arm_correlate_q7.c **** 
 613              		.loc 1 330 16 view .LVU245
 614 01c0 42EA0942 		orr	r2, r2, r9, lsl #16
 615              	.LVL99:
ARM GAS  /tmp/cc3XjLgi.s 			page 55


 333:Drivers/CMSIS/DSP/Source/FilteringFunctions/arm_correlate_q7.c **** 
 616              		.loc 1 333 9 is_stmt 1 view .LVU246
 617              	.LBB48:
 618              	.LBI48:
1906:Drivers/CMSIS/Include/cmsis_gcc.h **** {
 619              		.loc 2 1906 31 view .LVU247
 620              	.LBB49:
1908:Drivers/CMSIS/Include/cmsis_gcc.h **** 
 621              		.loc 2 1908 3 view .LVU248
1910:Drivers/CMSIS/Include/cmsis_gcc.h ****   return(result);
 622              		.loc 2 1910 3 view .LVU249
 623              		.syntax unified
 624              	@ 1910 "Drivers/CMSIS/Include/cmsis_gcc.h" 1
 625 01c4 20FB0266 		smlad r6, r0, r2, r6
 626              	@ 0 "" 2
 627              	.LVL100:
 628              		.loc 2 1911 3 view .LVU250
 629              		.loc 2 1911 3 is_stmt 0 view .LVU251
 630              		.thumb
 631              		.syntax unified
 632              	.LBE49:
 633              	.LBE48:
 336:Drivers/CMSIS/DSP/Source/FilteringFunctions/arm_correlate_q7.c ****         in2 = (q15_t) x2;
 634              		.loc 1 336 9 is_stmt 1 view .LVU252
 337:Drivers/CMSIS/DSP/Source/FilteringFunctions/arm_correlate_q7.c **** 
 635              		.loc 1 337 9 view .LVU253
 339:Drivers/CMSIS/DSP/Source/FilteringFunctions/arm_correlate_q7.c **** 
 636              		.loc 1 339 9 view .LVU254
 339:Drivers/CMSIS/DSP/Source/FilteringFunctions/arm_correlate_q7.c **** 
 637              		.loc 1 339 31 is_stmt 0 view .LVU255
 638 01c8 89B2     		uxth	r1, r1
 639              	.LVL101:
 339:Drivers/CMSIS/DSP/Source/FilteringFunctions/arm_correlate_q7.c **** 
 640              		.loc 1 339 16 view .LVU256
 641 01ca 41EA0841 		orr	r1, r1, r8, lsl #16
 642              	.LVL102:
 342:Drivers/CMSIS/DSP/Source/FilteringFunctions/arm_correlate_q7.c **** 
 643              		.loc 1 342 9 is_stmt 1 view .LVU257
 644              	.LBB50:
 645              	.LBI50:
1906:Drivers/CMSIS/Include/cmsis_gcc.h **** {
 646              		.loc 2 1906 31 view .LVU258
 647              	.LBB51:
1908:Drivers/CMSIS/Include/cmsis_gcc.h **** 
 648              		.loc 2 1908 3 view .LVU259
1910:Drivers/CMSIS/Include/cmsis_gcc.h ****   return(result);
 649              		.loc 2 1910 3 view .LVU260
 650              		.syntax unified
 651              	@ 1910 "Drivers/CMSIS/Include/cmsis_gcc.h" 1
 652 01ce 21FB0233 		smlad r3, r1, r2, r3
 653              	@ 0 "" 2
 654              	.LVL103:
 655              		.loc 2 1911 3 view .LVU261
 656              		.loc 2 1911 3 is_stmt 0 view .LVU262
 657              		.thumb
 658              		.syntax unified
 659              	.LBE51:
ARM GAS  /tmp/cc3XjLgi.s 			page 56


 660              	.LBE50:
 345:Drivers/CMSIS/DSP/Source/FilteringFunctions/arm_correlate_q7.c ****         in2 = (q15_t) x3;
 661              		.loc 1 345 9 is_stmt 1 view .LVU263
 346:Drivers/CMSIS/DSP/Source/FilteringFunctions/arm_correlate_q7.c **** 
 662              		.loc 1 346 9 view .LVU264
 348:Drivers/CMSIS/DSP/Source/FilteringFunctions/arm_correlate_q7.c **** 
 663              		.loc 1 348 9 view .LVU265
 348:Drivers/CMSIS/DSP/Source/FilteringFunctions/arm_correlate_q7.c **** 
 664              		.loc 1 348 31 is_stmt 0 view .LVU266
 665 01d2 1FFA88F8 		uxth	r8, r8
 348:Drivers/CMSIS/DSP/Source/FilteringFunctions/arm_correlate_q7.c **** 
 666              		.loc 1 348 16 view .LVU267
 667 01d6 48EA0748 		orr	r8, r8, r7, lsl #16
 668              	.LVL104:
 351:Drivers/CMSIS/DSP/Source/FilteringFunctions/arm_correlate_q7.c **** 
 669              		.loc 1 351 9 is_stmt 1 view .LVU268
 670              	.LBB52:
 671              	.LBI52:
1906:Drivers/CMSIS/Include/cmsis_gcc.h **** {
 672              		.loc 2 1906 31 view .LVU269
 673              	.LBB53:
1908:Drivers/CMSIS/Include/cmsis_gcc.h **** 
 674              		.loc 2 1908 3 view .LVU270
1910:Drivers/CMSIS/Include/cmsis_gcc.h ****   return(result);
 675              		.loc 2 1910 3 view .LVU271
 676              		.syntax unified
 677              	@ 1910 "Drivers/CMSIS/Include/cmsis_gcc.h" 1
 678 01da 28FB02EA 		smlad r10, r8, r2, lr
 679              	@ 0 "" 2
 680              	.LVL105:
 681              		.loc 2 1911 3 view .LVU272
 682              		.loc 2 1911 3 is_stmt 0 view .LVU273
 683              		.thumb
 684              		.syntax unified
 685              	.LBE53:
 686              	.LBE52:
 354:Drivers/CMSIS/DSP/Source/FilteringFunctions/arm_correlate_q7.c **** 
 687              		.loc 1 354 9 is_stmt 1 view .LVU274
 354:Drivers/CMSIS/DSP/Source/FilteringFunctions/arm_correlate_q7.c **** 
 688              		.loc 1 354 12 is_stmt 0 view .LVU275
 689 01de 94F90100 		ldrsb	r0, [r4, #1]
 690              	.LVL106:
 357:Drivers/CMSIS/DSP/Source/FilteringFunctions/arm_correlate_q7.c ****         in2 = (q15_t) x0;
 691              		.loc 1 357 9 is_stmt 1 view .LVU276
 358:Drivers/CMSIS/DSP/Source/FilteringFunctions/arm_correlate_q7.c **** 
 692              		.loc 1 358 9 view .LVU277
 360:Drivers/CMSIS/DSP/Source/FilteringFunctions/arm_correlate_q7.c **** 
 693              		.loc 1 360 9 view .LVU278
 360:Drivers/CMSIS/DSP/Source/FilteringFunctions/arm_correlate_q7.c **** 
 694              		.loc 1 360 31 is_stmt 0 view .LVU279
 695 01e2 BFB2     		uxth	r7, r7
 696              	.LVL107:
 360:Drivers/CMSIS/DSP/Source/FilteringFunctions/arm_correlate_q7.c **** 
 697              		.loc 1 360 16 view .LVU280
 698 01e4 47EA0047 		orr	r7, r7, r0, lsl #16
 699              	.LVL108:
 363:Drivers/CMSIS/DSP/Source/FilteringFunctions/arm_correlate_q7.c **** 
ARM GAS  /tmp/cc3XjLgi.s 			page 57


 700              		.loc 1 363 9 is_stmt 1 view .LVU281
 701              	.LBB54:
 702              	.LBI54:
1906:Drivers/CMSIS/Include/cmsis_gcc.h **** {
 703              		.loc 2 1906 31 view .LVU282
 704              	.LBB55:
1908:Drivers/CMSIS/Include/cmsis_gcc.h **** 
 705              		.loc 2 1908 3 view .LVU283
1910:Drivers/CMSIS/Include/cmsis_gcc.h ****   return(result);
 706              		.loc 2 1910 3 view .LVU284
 707              		.syntax unified
 708              	@ 1910 "Drivers/CMSIS/Include/cmsis_gcc.h" 1
 709 01e8 27FB02C2 		smlad r2, r7, r2, ip
 710              	@ 0 "" 2
 711              	.LVL109:
 712              		.loc 2 1911 3 view .LVU285
 713              		.loc 2 1911 3 is_stmt 0 view .LVU286
 714              		.thumb
 715              		.syntax unified
 716              	.LBE55:
 717              	.LBE54:
 366:Drivers/CMSIS/DSP/Source/FilteringFunctions/arm_correlate_q7.c ****         /* Read y[3] sample */
 718              		.loc 1 366 9 is_stmt 1 view .LVU287
 366:Drivers/CMSIS/DSP/Source/FilteringFunctions/arm_correlate_q7.c ****         /* Read y[3] sample */
 719              		.loc 1 366 12 is_stmt 0 view .LVU288
 720 01ec 95F90290 		ldrsb	r9, [r5, #2]
 721              	.LVL110:
 368:Drivers/CMSIS/DSP/Source/FilteringFunctions/arm_correlate_q7.c **** 
 722              		.loc 1 368 9 is_stmt 1 view .LVU289
 368:Drivers/CMSIS/DSP/Source/FilteringFunctions/arm_correlate_q7.c **** 
 723              		.loc 1 368 12 is_stmt 0 view .LVU290
 724 01f0 95F903C0 		ldrsb	ip, [r5, #3]
 725 01f4 0435     		adds	r5, r5, #4
 726              	.LVL111:
 371:Drivers/CMSIS/DSP/Source/FilteringFunctions/arm_correlate_q7.c **** 
 727              		.loc 1 371 9 is_stmt 1 view .LVU291
 371:Drivers/CMSIS/DSP/Source/FilteringFunctions/arm_correlate_q7.c **** 
 728              		.loc 1 371 12 is_stmt 0 view .LVU292
 729 01f6 94F90210 		ldrsb	r1, [r4, #2]
 730              	.LVL112:
 374:Drivers/CMSIS/DSP/Source/FilteringFunctions/arm_correlate_q7.c ****         in2 = (q15_t) x3;
 731              		.loc 1 374 9 is_stmt 1 view .LVU293
 375:Drivers/CMSIS/DSP/Source/FilteringFunctions/arm_correlate_q7.c **** 
 732              		.loc 1 375 9 view .LVU294
 377:Drivers/CMSIS/DSP/Source/FilteringFunctions/arm_correlate_q7.c **** 
 733              		.loc 1 377 9 view .LVU295
 380:Drivers/CMSIS/DSP/Source/FilteringFunctions/arm_correlate_q7.c ****         in2 = (q15_t) c1;
 734              		.loc 1 380 9 view .LVU296
 381:Drivers/CMSIS/DSP/Source/FilteringFunctions/arm_correlate_q7.c **** 
 735              		.loc 1 381 9 view .LVU297
 383:Drivers/CMSIS/DSP/Source/FilteringFunctions/arm_correlate_q7.c **** 
 736              		.loc 1 383 9 view .LVU298
 383:Drivers/CMSIS/DSP/Source/FilteringFunctions/arm_correlate_q7.c **** 
 737              		.loc 1 383 31 is_stmt 0 view .LVU299
 738 01fa 1FFA89F9 		uxth	r9, r9
 383:Drivers/CMSIS/DSP/Source/FilteringFunctions/arm_correlate_q7.c **** 
 739              		.loc 1 383 16 view .LVU300
ARM GAS  /tmp/cc3XjLgi.s 			page 58


 740 01fe 49EA0C49 		orr	r9, r9, ip, lsl #16
 741              	.LVL113:
 386:Drivers/CMSIS/DSP/Source/FilteringFunctions/arm_correlate_q7.c **** 
 742              		.loc 1 386 9 is_stmt 1 view .LVU301
 743              	.LBB56:
 744              	.LBI56:
1906:Drivers/CMSIS/Include/cmsis_gcc.h **** {
 745              		.loc 2 1906 31 view .LVU302
 746              	.LBB57:
1908:Drivers/CMSIS/Include/cmsis_gcc.h **** 
 747              		.loc 2 1908 3 view .LVU303
1910:Drivers/CMSIS/Include/cmsis_gcc.h ****   return(result);
 748              		.loc 2 1910 3 view .LVU304
 749              		.syntax unified
 750              	@ 1910 "Drivers/CMSIS/Include/cmsis_gcc.h" 1
 751 0202 28FB0966 		smlad r6, r8, r9, r6
 752              	@ 0 "" 2
 753              	.LVL114:
 754              		.loc 2 1911 3 view .LVU305
 755              		.loc 2 1911 3 is_stmt 0 view .LVU306
 756              		.thumb
 757              		.syntax unified
 758              	.LBE57:
 759              	.LBE56:
 389:Drivers/CMSIS/DSP/Source/FilteringFunctions/arm_correlate_q7.c ****         in2 = (q15_t) x0;
 760              		.loc 1 389 9 is_stmt 1 view .LVU307
 390:Drivers/CMSIS/DSP/Source/FilteringFunctions/arm_correlate_q7.c **** 
 761              		.loc 1 390 9 view .LVU308
 392:Drivers/CMSIS/DSP/Source/FilteringFunctions/arm_correlate_q7.c **** 
 762              		.loc 1 392 9 view .LVU309
 395:Drivers/CMSIS/DSP/Source/FilteringFunctions/arm_correlate_q7.c **** 
 763              		.loc 1 395 9 view .LVU310
 764              	.LBB58:
 765              	.LBI58:
1906:Drivers/CMSIS/Include/cmsis_gcc.h **** {
 766              		.loc 2 1906 31 view .LVU311
 767              	.LBB59:
1908:Drivers/CMSIS/Include/cmsis_gcc.h **** 
 768              		.loc 2 1908 3 view .LVU312
1910:Drivers/CMSIS/Include/cmsis_gcc.h ****   return(result);
 769              		.loc 2 1910 3 view .LVU313
 770              		.syntax unified
 771              	@ 1910 "Drivers/CMSIS/Include/cmsis_gcc.h" 1
 772 0206 27FB0937 		smlad r7, r7, r9, r3
 773              	@ 0 "" 2
 774              	.LVL115:
 775              		.loc 2 1911 3 view .LVU314
 776              		.loc 2 1911 3 is_stmt 0 view .LVU315
 777              		.thumb
 778              		.syntax unified
 779              	.LBE59:
 780              	.LBE58:
 395:Drivers/CMSIS/DSP/Source/FilteringFunctions/arm_correlate_q7.c **** 
 781              		.loc 1 395 14 discriminator 1 view .LVU316
 782 020a 3B46     		mov	r3, r7
 783              	.LVL116:
 398:Drivers/CMSIS/DSP/Source/FilteringFunctions/arm_correlate_q7.c ****         in2 = (q15_t) x1;
ARM GAS  /tmp/cc3XjLgi.s 			page 59


 784              		.loc 1 398 9 is_stmt 1 view .LVU317
 399:Drivers/CMSIS/DSP/Source/FilteringFunctions/arm_correlate_q7.c **** 
 785              		.loc 1 399 9 view .LVU318
 401:Drivers/CMSIS/DSP/Source/FilteringFunctions/arm_correlate_q7.c **** 
 786              		.loc 1 401 9 view .LVU319
 401:Drivers/CMSIS/DSP/Source/FilteringFunctions/arm_correlate_q7.c **** 
 787              		.loc 1 401 31 is_stmt 0 view .LVU320
 788 020c 1FFA80FE 		uxth	lr, r0
 401:Drivers/CMSIS/DSP/Source/FilteringFunctions/arm_correlate_q7.c **** 
 789              		.loc 1 401 16 view .LVU321
 790 0210 4EEA014E 		orr	lr, lr, r1, lsl #16
 791              	.LVL117:
 404:Drivers/CMSIS/DSP/Source/FilteringFunctions/arm_correlate_q7.c **** 
 792              		.loc 1 404 9 is_stmt 1 view .LVU322
 793              	.LBB60:
 794              	.LBI60:
1906:Drivers/CMSIS/Include/cmsis_gcc.h **** {
 795              		.loc 2 1906 31 view .LVU323
 796              	.LBB61:
1908:Drivers/CMSIS/Include/cmsis_gcc.h **** 
 797              		.loc 2 1908 3 view .LVU324
1910:Drivers/CMSIS/Include/cmsis_gcc.h ****   return(result);
 798              		.loc 2 1910 3 view .LVU325
 799              		.syntax unified
 800              	@ 1910 "Drivers/CMSIS/Include/cmsis_gcc.h" 1
 801 0214 2EFB09AE 		smlad lr, lr, r9, r10
 802              	@ 0 "" 2
 803              	.LVL118:
 804              		.loc 2 1911 3 view .LVU326
 805              		.loc 2 1911 3 is_stmt 0 view .LVU327
 806              		.thumb
 807              		.syntax unified
 808              	.LBE61:
 809              	.LBE60:
 407:Drivers/CMSIS/DSP/Source/FilteringFunctions/arm_correlate_q7.c **** 
 810              		.loc 1 407 9 is_stmt 1 view .LVU328
 407:Drivers/CMSIS/DSP/Source/FilteringFunctions/arm_correlate_q7.c **** 
 811              		.loc 1 407 12 is_stmt 0 view .LVU329
 812 0218 94F90380 		ldrsb	r8, [r4, #3]
 813 021c 0434     		adds	r4, r4, #4
 814              	.LVL119:
 410:Drivers/CMSIS/DSP/Source/FilteringFunctions/arm_correlate_q7.c ****         in2 = (q15_t) x2;
 815              		.loc 1 410 9 is_stmt 1 view .LVU330
 411:Drivers/CMSIS/DSP/Source/FilteringFunctions/arm_correlate_q7.c **** 
 816              		.loc 1 411 9 view .LVU331
 413:Drivers/CMSIS/DSP/Source/FilteringFunctions/arm_correlate_q7.c **** 
 817              		.loc 1 413 9 view .LVU332
 413:Drivers/CMSIS/DSP/Source/FilteringFunctions/arm_correlate_q7.c **** 
 818              		.loc 1 413 31 is_stmt 0 view .LVU333
 819 021e 1FFA81FC 		uxth	ip, r1
 820              	.LVL120:
 413:Drivers/CMSIS/DSP/Source/FilteringFunctions/arm_correlate_q7.c **** 
 821              		.loc 1 413 16 view .LVU334
 822 0222 4CEA084C 		orr	ip, ip, r8, lsl #16
 823              	.LVL121:
 416:Drivers/CMSIS/DSP/Source/FilteringFunctions/arm_correlate_q7.c **** 
 824              		.loc 1 416 9 is_stmt 1 view .LVU335
ARM GAS  /tmp/cc3XjLgi.s 			page 60


 825              	.LBB62:
 826              	.LBI62:
1906:Drivers/CMSIS/Include/cmsis_gcc.h **** {
 827              		.loc 2 1906 31 view .LVU336
 828              	.LBB63:
1908:Drivers/CMSIS/Include/cmsis_gcc.h **** 
 829              		.loc 2 1908 3 view .LVU337
1910:Drivers/CMSIS/Include/cmsis_gcc.h ****   return(result);
 830              		.loc 2 1910 3 view .LVU338
 831              		.syntax unified
 832              	@ 1910 "Drivers/CMSIS/Include/cmsis_gcc.h" 1
 833 0226 2CFB092C 		smlad ip, ip, r9, r2
 834              	@ 0 "" 2
 835              	.LVL122:
 836              		.loc 2 1911 3 view .LVU339
 837              		.loc 2 1911 3 is_stmt 0 view .LVU340
 838              		.thumb
 839              		.syntax unified
 840              	.LBE63:
 841              	.LBE62:
 418:Drivers/CMSIS/DSP/Source/FilteringFunctions/arm_correlate_q7.c **** 
 842              		.loc 1 418 16 is_stmt 1 discriminator 1 view .LVU341
 418:Drivers/CMSIS/DSP/Source/FilteringFunctions/arm_correlate_q7.c **** 
 843              		.loc 1 418 16 is_stmt 0 discriminator 1 view .LVU342
 844 022a BBF1010B 		subs	fp, fp, #1
 845              	.LVL123:
 418:Drivers/CMSIS/DSP/Source/FilteringFunctions/arm_correlate_q7.c **** 
 846              		.loc 1 418 16 discriminator 1 view .LVU343
 847 022e BDD1     		bne	.L12
 422:Drivers/CMSIS/DSP/Source/FilteringFunctions/arm_correlate_q7.c **** 
 848              		.loc 1 422 9 view .LVU344
 849 0230 069A     		ldr	r2, [sp, #24]
 850 0232 DDF81CB0 		ldr	fp, [sp, #28]
 851              	.LVL124:
 422:Drivers/CMSIS/DSP/Source/FilteringFunctions/arm_correlate_q7.c **** 
 852              		.loc 1 422 7 is_stmt 1 view .LVU345
 422:Drivers/CMSIS/DSP/Source/FilteringFunctions/arm_correlate_q7.c **** 
 853              		.loc 1 422 9 is_stmt 0 view .LVU346
 854 0236 049F     		ldr	r7, [sp, #16]
 855              	.LVL125:
 422:Drivers/CMSIS/DSP/Source/FilteringFunctions/arm_correlate_q7.c **** 
 856              		.loc 1 422 9 view .LVU347
 857 0238 07F00307 		and	r7, r7, #3
 858              	.LVL126:
 424:Drivers/CMSIS/DSP/Source/FilteringFunctions/arm_correlate_q7.c ****       {
 859              		.loc 1 424 7 is_stmt 1 view .LVU348
 424:Drivers/CMSIS/DSP/Source/FilteringFunctions/arm_correlate_q7.c ****       {
 860              		.loc 1 424 13 is_stmt 0 view .LVU349
 861 023c 7BE7     		b	.L13
 862              	.LVL127:
 863              	.L35:
 472:Drivers/CMSIS/DSP/Source/FilteringFunctions/arm_correlate_q7.c ****     }
 473:Drivers/CMSIS/DSP/Source/FilteringFunctions/arm_correlate_q7.c **** 
 474:Drivers/CMSIS/DSP/Source/FilteringFunctions/arm_correlate_q7.c ****     /* If the blockSize2 is not a multiple of 4, compute any remaining output samples here.
 475:Drivers/CMSIS/DSP/Source/FilteringFunctions/arm_correlate_q7.c ****      ** No loop unrolling is used. */
 476:Drivers/CMSIS/DSP/Source/FilteringFunctions/arm_correlate_q7.c ****     blkCnt = blockSize2 % 0x4U;
 864              		.loc 1 476 12 view .LVU350
ARM GAS  /tmp/cc3XjLgi.s 			page 61


 865 023e D046     		mov	r8, r10
 866 0240 039A     		ldr	r2, [sp, #12]
 867              	.LVL128:
 868              		.loc 1 476 12 view .LVU351
 869 0242 0898     		ldr	r0, [sp, #32]
 870 0244 5F46     		mov	r7, fp
 871 0246 DDF824C0 		ldr	ip, [sp, #36]
 872 024a DDF810B0 		ldr	fp, [sp, #16]
 873              		.loc 1 476 5 is_stmt 1 view .LVU352
 874              		.loc 1 476 12 is_stmt 0 view .LVU353
 875 024e 0CF0030E 		and	lr, ip, #3
 876              	.LVL129:
 477:Drivers/CMSIS/DSP/Source/FilteringFunctions/arm_correlate_q7.c **** 
 478:Drivers/CMSIS/DSP/Source/FilteringFunctions/arm_correlate_q7.c ****     while (blkCnt > 0U)
 877              		.loc 1 478 5 is_stmt 1 view .LVU354
 878 0252 8246     		mov	r10, r0
 879              	.LVL130:
 880              		.loc 1 478 5 is_stmt 0 view .LVU355
 881 0254 7146     		mov	r1, lr
 882 0256 9646     		mov	lr, r2
 883              	.LVL131:
 884              		.loc 1 478 5 view .LVU356
 885 0258 DDF80890 		ldr	r9, [sp, #8]
 886 025c 0A46     		mov	r2, r1
 887              		.loc 1 478 11 view .LVU357
 888 025e 40E0     		b	.L16
 889              	.LVL132:
 890              	.L18:
 479:Drivers/CMSIS/DSP/Source/FilteringFunctions/arm_correlate_q7.c ****     {
 480:Drivers/CMSIS/DSP/Source/FilteringFunctions/arm_correlate_q7.c ****       /* Accumulator is made zero for every iteration */
 481:Drivers/CMSIS/DSP/Source/FilteringFunctions/arm_correlate_q7.c ****       sum = 0;
 482:Drivers/CMSIS/DSP/Source/FilteringFunctions/arm_correlate_q7.c **** 
 483:Drivers/CMSIS/DSP/Source/FilteringFunctions/arm_correlate_q7.c ****       /* Apply loop unrolling and compute 4 MACs simultaneously. */
 484:Drivers/CMSIS/DSP/Source/FilteringFunctions/arm_correlate_q7.c ****       k = srcBLen >> 2U;
 485:Drivers/CMSIS/DSP/Source/FilteringFunctions/arm_correlate_q7.c **** 
 486:Drivers/CMSIS/DSP/Source/FilteringFunctions/arm_correlate_q7.c ****       /* First part of the processing with loop unrolling.  Compute 4 MACs at a time.
 487:Drivers/CMSIS/DSP/Source/FilteringFunctions/arm_correlate_q7.c ****        ** a second loop below computes MACs for the remaining 1 to 3 samples. */
 488:Drivers/CMSIS/DSP/Source/FilteringFunctions/arm_correlate_q7.c ****       while (k > 0U)
 489:Drivers/CMSIS/DSP/Source/FilteringFunctions/arm_correlate_q7.c ****       {
 490:Drivers/CMSIS/DSP/Source/FilteringFunctions/arm_correlate_q7.c ****         /* Reading two inputs of SrcA buffer and packing */
 491:Drivers/CMSIS/DSP/Source/FilteringFunctions/arm_correlate_q7.c ****         in1 = (q15_t) * px++;
 891              		.loc 1 491 9 is_stmt 1 view .LVU358
 892              		.loc 1 491 23 is_stmt 0 view .LVU359
 893 0260 93F90040 		ldrsb	r4, [r3]
 894              	.LVL133:
 492:Drivers/CMSIS/DSP/Source/FilteringFunctions/arm_correlate_q7.c ****         in2 = (q15_t) * px++;
 895              		.loc 1 492 9 is_stmt 1 view .LVU360
 896              		.loc 1 492 23 is_stmt 0 view .LVU361
 897 0264 93F90160 		ldrsb	r6, [r3, #1]
 898              	.LVL134:
 493:Drivers/CMSIS/DSP/Source/FilteringFunctions/arm_correlate_q7.c ****         input1 = ((q31_t) in1 & 0x0000FFFF) | ((q31_t) in2 << 16);
 899              		.loc 1 493 9 is_stmt 1 view .LVU362
 900              		.loc 1 493 31 is_stmt 0 view .LVU363
 901 0268 A4B2     		uxth	r4, r4
 902              		.loc 1 493 16 view .LVU364
 903 026a 44EA0644 		orr	r4, r4, r6, lsl #16
 904              	.LVL135:
ARM GAS  /tmp/cc3XjLgi.s 			page 62


 494:Drivers/CMSIS/DSP/Source/FilteringFunctions/arm_correlate_q7.c **** 
 495:Drivers/CMSIS/DSP/Source/FilteringFunctions/arm_correlate_q7.c ****         /* Reading two inputs of SrcB buffer and packing */
 496:Drivers/CMSIS/DSP/Source/FilteringFunctions/arm_correlate_q7.c ****         in1 = (q15_t) * py++;
 905              		.loc 1 496 9 is_stmt 1 view .LVU365
 906              		.loc 1 496 23 is_stmt 0 view .LVU366
 907 026e 90F90060 		ldrsb	r6, [r0]
 908              	.LVL136:
 497:Drivers/CMSIS/DSP/Source/FilteringFunctions/arm_correlate_q7.c ****         in2 = (q15_t) * py++;
 909              		.loc 1 497 9 is_stmt 1 view .LVU367
 910              		.loc 1 497 23 is_stmt 0 view .LVU368
 911 0272 90F90180 		ldrsb	r8, [r0, #1]
 912              	.LVL137:
 498:Drivers/CMSIS/DSP/Source/FilteringFunctions/arm_correlate_q7.c ****         input2 = ((q31_t) in1 & 0x0000FFFF) | ((q31_t) in2 << 16);
 913              		.loc 1 498 9 is_stmt 1 view .LVU369
 914              		.loc 1 498 31 is_stmt 0 view .LVU370
 915 0276 B6B2     		uxth	r6, r6
 916              		.loc 1 498 16 view .LVU371
 917 0278 46EA0846 		orr	r6, r6, r8, lsl #16
 918              	.LVL138:
 499:Drivers/CMSIS/DSP/Source/FilteringFunctions/arm_correlate_q7.c **** 
 500:Drivers/CMSIS/DSP/Source/FilteringFunctions/arm_correlate_q7.c ****         /* Perform the multiply-accumulates */
 501:Drivers/CMSIS/DSP/Source/FilteringFunctions/arm_correlate_q7.c ****         sum = __SMLAD(input1, input2, sum);
 919              		.loc 1 501 9 is_stmt 1 view .LVU372
 920              	.LBB64:
 921              	.LBI64:
1906:Drivers/CMSIS/Include/cmsis_gcc.h **** {
 922              		.loc 2 1906 31 view .LVU373
 923              	.LBB65:
1908:Drivers/CMSIS/Include/cmsis_gcc.h **** 
 924              		.loc 2 1908 3 view .LVU374
1910:Drivers/CMSIS/Include/cmsis_gcc.h ****   return(result);
 925              		.loc 2 1910 3 view .LVU375
 926              		.syntax unified
 927              	@ 1910 "Drivers/CMSIS/Include/cmsis_gcc.h" 1
 928 027c 24FB0614 		smlad r4, r4, r6, r1
 929              	@ 0 "" 2
 930              	.LVL139:
 931              		.loc 2 1911 3 view .LVU376
 932              		.loc 2 1911 3 is_stmt 0 view .LVU377
 933              		.thumb
 934              		.syntax unified
 935              	.LBE65:
 936              	.LBE64:
 502:Drivers/CMSIS/DSP/Source/FilteringFunctions/arm_correlate_q7.c **** 
 503:Drivers/CMSIS/DSP/Source/FilteringFunctions/arm_correlate_q7.c ****         /* Reading two inputs of SrcA buffer and packing */
 504:Drivers/CMSIS/DSP/Source/FilteringFunctions/arm_correlate_q7.c ****         in1 = (q15_t) * px++;
 937              		.loc 1 504 9 is_stmt 1 view .LVU378
 938              		.loc 1 504 23 is_stmt 0 view .LVU379
 939 0280 93F90210 		ldrsb	r1, [r3, #2]
 940              	.LVL140:
 505:Drivers/CMSIS/DSP/Source/FilteringFunctions/arm_correlate_q7.c ****         in2 = (q15_t) * px++;
 941              		.loc 1 505 9 is_stmt 1 view .LVU380
 942              		.loc 1 505 27 is_stmt 0 view .LVU381
 943 0284 1E1D     		adds	r6, r3, #4
 944              	.LVL141:
 945              		.loc 1 505 23 view .LVU382
 946 0286 93F90330 		ldrsb	r3, [r3, #3]
ARM GAS  /tmp/cc3XjLgi.s 			page 63


 947              	.LVL142:
 506:Drivers/CMSIS/DSP/Source/FilteringFunctions/arm_correlate_q7.c ****         input1 = ((q31_t) in1 & 0x0000FFFF) | ((q31_t) in2 << 16);
 948              		.loc 1 506 9 is_stmt 1 view .LVU383
 949              		.loc 1 506 31 is_stmt 0 view .LVU384
 950 028a 89B2     		uxth	r1, r1
 951              		.loc 1 506 16 view .LVU385
 952 028c 41EA0341 		orr	r1, r1, r3, lsl #16
 953              	.LVL143:
 507:Drivers/CMSIS/DSP/Source/FilteringFunctions/arm_correlate_q7.c **** 
 508:Drivers/CMSIS/DSP/Source/FilteringFunctions/arm_correlate_q7.c ****         /* Reading two inputs of SrcB buffer and packing */
 509:Drivers/CMSIS/DSP/Source/FilteringFunctions/arm_correlate_q7.c ****         in1 = (q15_t) * py++;
 954              		.loc 1 509 9 is_stmt 1 view .LVU386
 955              		.loc 1 509 23 is_stmt 0 view .LVU387
 956 0290 90F90280 		ldrsb	r8, [r0, #2]
 957              	.LVL144:
 510:Drivers/CMSIS/DSP/Source/FilteringFunctions/arm_correlate_q7.c ****         in2 = (q15_t) * py++;
 958              		.loc 1 510 9 is_stmt 1 view .LVU388
 959              		.loc 1 510 27 is_stmt 0 view .LVU389
 960 0294 031D     		adds	r3, r0, #4
 961              	.LVL145:
 962              		.loc 1 510 23 view .LVU390
 963 0296 90F90300 		ldrsb	r0, [r0, #3]
 964              	.LVL146:
 511:Drivers/CMSIS/DSP/Source/FilteringFunctions/arm_correlate_q7.c ****         input2 = ((q31_t) in1 & 0x0000FFFF) | ((q31_t) in2 << 16);
 965              		.loc 1 511 9 is_stmt 1 view .LVU391
 966              		.loc 1 511 31 is_stmt 0 view .LVU392
 967 029a 1FFA88F8 		uxth	r8, r8
 968              		.loc 1 511 16 view .LVU393
 969 029e 48EA0048 		orr	r8, r8, r0, lsl #16
 970              	.LVL147:
 512:Drivers/CMSIS/DSP/Source/FilteringFunctions/arm_correlate_q7.c **** 
 513:Drivers/CMSIS/DSP/Source/FilteringFunctions/arm_correlate_q7.c ****         /* Perform the multiply-accumulates */
 514:Drivers/CMSIS/DSP/Source/FilteringFunctions/arm_correlate_q7.c ****         sum = __SMLAD(input1, input2, sum);
 971              		.loc 1 514 9 is_stmt 1 view .LVU394
 972              	.LBB66:
 973              	.LBI66:
1906:Drivers/CMSIS/Include/cmsis_gcc.h **** {
 974              		.loc 2 1906 31 view .LVU395
 975              	.LBB67:
1908:Drivers/CMSIS/Include/cmsis_gcc.h **** 
 976              		.loc 2 1908 3 view .LVU396
1910:Drivers/CMSIS/Include/cmsis_gcc.h ****   return(result);
 977              		.loc 2 1910 3 view .LVU397
 978              		.syntax unified
 979              	@ 1910 "Drivers/CMSIS/Include/cmsis_gcc.h" 1
 980 02a2 21FB0841 		smlad r1, r1, r8, r4
 981              	@ 0 "" 2
 982              	.LVL148:
 983              		.loc 2 1911 3 view .LVU398
 984              		.loc 2 1911 3 is_stmt 0 view .LVU399
 985              		.thumb
 986              		.syntax unified
 987              	.LBE67:
 988              	.LBE66:
 515:Drivers/CMSIS/DSP/Source/FilteringFunctions/arm_correlate_q7.c **** 
 516:Drivers/CMSIS/DSP/Source/FilteringFunctions/arm_correlate_q7.c ****         /* Decrement the loop counter */
 517:Drivers/CMSIS/DSP/Source/FilteringFunctions/arm_correlate_q7.c ****         k--;
ARM GAS  /tmp/cc3XjLgi.s 			page 64


 989              		.loc 1 517 9 is_stmt 1 view .LVU400
 990              		.loc 1 517 10 is_stmt 0 view .LVU401
 991 02a6 013D     		subs	r5, r5, #1
 992              	.LVL149:
 510:Drivers/CMSIS/DSP/Source/FilteringFunctions/arm_correlate_q7.c ****         input2 = ((q31_t) in1 & 0x0000FFFF) | ((q31_t) in2 << 16);
 993              		.loc 1 510 27 view .LVU402
 994 02a8 1846     		mov	r0, r3
 995              	.LVL150:
 505:Drivers/CMSIS/DSP/Source/FilteringFunctions/arm_correlate_q7.c ****         input1 = ((q31_t) in1 & 0x0000FFFF) | ((q31_t) in2 << 16);
 996              		.loc 1 505 27 view .LVU403
 997 02aa 3346     		mov	r3, r6
 998              	.LVL151:
 999              	.L17:
 488:Drivers/CMSIS/DSP/Source/FilteringFunctions/arm_correlate_q7.c ****       {
 1000              		.loc 1 488 16 is_stmt 1 view .LVU404
 1001 02ac 002D     		cmp	r5, #0
 1002 02ae D7D1     		bne	.L18
 518:Drivers/CMSIS/DSP/Source/FilteringFunctions/arm_correlate_q7.c ****       }
 519:Drivers/CMSIS/DSP/Source/FilteringFunctions/arm_correlate_q7.c **** 
 520:Drivers/CMSIS/DSP/Source/FilteringFunctions/arm_correlate_q7.c ****       /* If the srcBLen is not a multiple of 4, compute any remaining MACs here.
 521:Drivers/CMSIS/DSP/Source/FilteringFunctions/arm_correlate_q7.c ****        ** No loop unrolling is used. */
