ARM GAS  /tmp/ccoZDZkK.s 			page 1


   1              		.cpu cortex-m7
   2              		.arch armv7e-m
   3              		.fpu fpv5-sp-d16
   4              		.eabi_attribute 27, 1
   5              		.eabi_attribute 28, 1
   6              		.eabi_attribute 20, 1
   7              		.eabi_attribute 21, 1
   8              		.eabi_attribute 23, 3
   9              		.eabi_attribute 24, 1
  10              		.eabi_attribute 25, 1
  11              		.eabi_attribute 26, 1
  12              		.eabi_attribute 30, 1
  13              		.eabi_attribute 34, 1
  14              		.eabi_attribute 18, 4
  15              		.file	"arm_fir_init_q15.c"
  16              		.text
  17              	.Ltext0:
  18              		.cfi_sections	.debug_frame
  19              		.file 1 "Drivers/CMSIS/DSP/Source/FilteringFunctions/arm_fir_init_q15.c"
  20              		.section	.text.arm_fir_init_q15,"ax",%progbits
  21              		.align	1
  22              		.global	arm_fir_init_q15
  23              		.syntax unified
  24              		.thumb
  25              		.thumb_func
  27              	arm_fir_init_q15:
  28              	.LVL0:
  29              	.LFB135:
   1:Drivers/CMSIS/DSP/Source/FilteringFunctions/arm_fir_init_q15.c **** /* ----------------------------------------------------------------------
   2:Drivers/CMSIS/DSP/Source/FilteringFunctions/arm_fir_init_q15.c ****  * Project:      CMSIS DSP Library
   3:Drivers/CMSIS/DSP/Source/FilteringFunctions/arm_fir_init_q15.c ****  * Title:        arm_fir_init_q15.c
   4:Drivers/CMSIS/DSP/Source/FilteringFunctions/arm_fir_init_q15.c ****  * Description:  Q15 FIR filter initialization function
   5:Drivers/CMSIS/DSP/Source/FilteringFunctions/arm_fir_init_q15.c ****  *
   6:Drivers/CMSIS/DSP/Source/FilteringFunctions/arm_fir_init_q15.c ****  * $Date:        27. January 2017
   7:Drivers/CMSIS/DSP/Source/FilteringFunctions/arm_fir_init_q15.c ****  * $Revision:    V.1.5.1
   8:Drivers/CMSIS/DSP/Source/FilteringFunctions/arm_fir_init_q15.c ****  *
   9:Drivers/CMSIS/DSP/Source/FilteringFunctions/arm_fir_init_q15.c ****  * Target Processor: Cortex-M cores
  10:Drivers/CMSIS/DSP/Source/FilteringFunctions/arm_fir_init_q15.c ****  * -------------------------------------------------------------------- */
  11:Drivers/CMSIS/DSP/Source/FilteringFunctions/arm_fir_init_q15.c **** /*
  12:Drivers/CMSIS/DSP/Source/FilteringFunctions/arm_fir_init_q15.c ****  * Copyright (C) 2010-2017 ARM Limited or its affiliates. All rights reserved.
  13:Drivers/CMSIS/DSP/Source/FilteringFunctions/arm_fir_init_q15.c ****  *
  14:Drivers/CMSIS/DSP/Source/FilteringFunctions/arm_fir_init_q15.c ****  * SPDX-License-Identifier: Apache-2.0
  15:Drivers/CMSIS/DSP/Source/FilteringFunctions/arm_fir_init_q15.c ****  *
  16:Drivers/CMSIS/DSP/Source/FilteringFunctions/arm_fir_init_q15.c ****  * Licensed under the Apache License, Version 2.0 (the License); you may
  17:Drivers/CMSIS/DSP/Source/FilteringFunctions/arm_fir_init_q15.c ****  * not use this file except in compliance with the License.
  18:Drivers/CMSIS/DSP/Source/FilteringFunctions/arm_fir_init_q15.c ****  * You may obtain a copy of the License at
  19:Drivers/CMSIS/DSP/Source/FilteringFunctions/arm_fir_init_q15.c ****  *
  20:Drivers/CMSIS/DSP/Source/FilteringFunctions/arm_fir_init_q15.c ****  * www.apache.org/licenses/LICENSE-2.0
  21:Drivers/CMSIS/DSP/Source/FilteringFunctions/arm_fir_init_q15.c ****  *
  22:Drivers/CMSIS/DSP/Source/FilteringFunctions/arm_fir_init_q15.c ****  * Unless required by applicable law or agreed to in writing, software
  23:Drivers/CMSIS/DSP/Source/FilteringFunctions/arm_fir_init_q15.c ****  * distributed under the License is distributed on an AS IS BASIS, WITHOUT
  24:Drivers/CMSIS/DSP/Source/FilteringFunctions/arm_fir_init_q15.c ****  * WARRANTIES OR CONDITIONS OF ANY KIND, either express or implied.
  25:Drivers/CMSIS/DSP/Source/FilteringFunctions/arm_fir_init_q15.c ****  * See the License for the specific language governing permissions and
  26:Drivers/CMSIS/DSP/Source/FilteringFunctions/arm_fir_init_q15.c ****  * limitations under the License.
  27:Drivers/CMSIS/DSP/Source/FilteringFunctions/arm_fir_init_q15.c ****  */
  28:Drivers/CMSIS/DSP/Source/FilteringFunctions/arm_fir_init_q15.c **** 
  29:Drivers/CMSIS/DSP/Source/FilteringFunctions/arm_fir_init_q15.c **** #include "arm_math.h"
ARM GAS  /tmp/ccoZDZkK.s 			page 2


  30:Drivers/CMSIS/DSP/Source/FilteringFunctions/arm_fir_init_q15.c **** 
  31:Drivers/CMSIS/DSP/Source/FilteringFunctions/arm_fir_init_q15.c **** /**
  32:Drivers/CMSIS/DSP/Source/FilteringFunctions/arm_fir_init_q15.c ****  * @ingroup groupFilters
  33:Drivers/CMSIS/DSP/Source/FilteringFunctions/arm_fir_init_q15.c ****  */
  34:Drivers/CMSIS/DSP/Source/FilteringFunctions/arm_fir_init_q15.c **** 
  35:Drivers/CMSIS/DSP/Source/FilteringFunctions/arm_fir_init_q15.c **** /**
  36:Drivers/CMSIS/DSP/Source/FilteringFunctions/arm_fir_init_q15.c ****  * @addtogroup FIR
  37:Drivers/CMSIS/DSP/Source/FilteringFunctions/arm_fir_init_q15.c ****  * @{
  38:Drivers/CMSIS/DSP/Source/FilteringFunctions/arm_fir_init_q15.c ****  */
  39:Drivers/CMSIS/DSP/Source/FilteringFunctions/arm_fir_init_q15.c **** 
  40:Drivers/CMSIS/DSP/Source/FilteringFunctions/arm_fir_init_q15.c **** /**
  41:Drivers/CMSIS/DSP/Source/FilteringFunctions/arm_fir_init_q15.c ****  * @param[in,out]  *S points to an instance of the Q15 FIR filter structure.
  42:Drivers/CMSIS/DSP/Source/FilteringFunctions/arm_fir_init_q15.c ****  * @param[in] 	   numTaps  Number of filter coefficients in the filter. Must be even and greater th
  43:Drivers/CMSIS/DSP/Source/FilteringFunctions/arm_fir_init_q15.c ****  * @param[in]      *pCoeffs points to the filter coefficients buffer.
  44:Drivers/CMSIS/DSP/Source/FilteringFunctions/arm_fir_init_q15.c ****  * @param[in]      *pState points to the state buffer.
  45:Drivers/CMSIS/DSP/Source/FilteringFunctions/arm_fir_init_q15.c ****  * @param[in]      blockSize is number of samples processed per call.
  46:Drivers/CMSIS/DSP/Source/FilteringFunctions/arm_fir_init_q15.c ****  * @return The function returns ARM_MATH_SUCCESS if initialization is successful or ARM_MATH_ARGUME
  47:Drivers/CMSIS/DSP/Source/FilteringFunctions/arm_fir_init_q15.c ****  * <code>numTaps</code> is not greater than or equal to 4 and even.
  48:Drivers/CMSIS/DSP/Source/FilteringFunctions/arm_fir_init_q15.c ****  *
  49:Drivers/CMSIS/DSP/Source/FilteringFunctions/arm_fir_init_q15.c ****  * <b>Description:</b>
  50:Drivers/CMSIS/DSP/Source/FilteringFunctions/arm_fir_init_q15.c ****  * \par
  51:Drivers/CMSIS/DSP/Source/FilteringFunctions/arm_fir_init_q15.c ****  * <code>pCoeffs</code> points to the array of filter coefficients stored in time reversed order:
  52:Drivers/CMSIS/DSP/Source/FilteringFunctions/arm_fir_init_q15.c ****  * <pre>
  53:Drivers/CMSIS/DSP/Source/FilteringFunctions/arm_fir_init_q15.c ****  *    {b[numTaps-1], b[numTaps-2], b[N-2], ..., b[1], b[0]}
  54:Drivers/CMSIS/DSP/Source/FilteringFunctions/arm_fir_init_q15.c ****  * </pre>
  55:Drivers/CMSIS/DSP/Source/FilteringFunctions/arm_fir_init_q15.c ****  * Note that <code>numTaps</code> must be even and greater than or equal to 4.
  56:Drivers/CMSIS/DSP/Source/FilteringFunctions/arm_fir_init_q15.c ****  * To implement an odd length filter simply increase <code>numTaps</code> by 1 and set the last coe
  57:Drivers/CMSIS/DSP/Source/FilteringFunctions/arm_fir_init_q15.c ****  * For example, to implement a filter with <code>numTaps=3</code> and coefficients
  58:Drivers/CMSIS/DSP/Source/FilteringFunctions/arm_fir_init_q15.c ****  * <pre>
  59:Drivers/CMSIS/DSP/Source/FilteringFunctions/arm_fir_init_q15.c ****  *     {0.3, -0.8, 0.3}
  60:Drivers/CMSIS/DSP/Source/FilteringFunctions/arm_fir_init_q15.c ****  * </pre>
  61:Drivers/CMSIS/DSP/Source/FilteringFunctions/arm_fir_init_q15.c ****  * set <code>numTaps=4</code> and use the coefficients:
  62:Drivers/CMSIS/DSP/Source/FilteringFunctions/arm_fir_init_q15.c ****  * <pre>
  63:Drivers/CMSIS/DSP/Source/FilteringFunctions/arm_fir_init_q15.c ****  *     {0.3, -0.8, 0.3, 0}.
  64:Drivers/CMSIS/DSP/Source/FilteringFunctions/arm_fir_init_q15.c ****  * </pre>
  65:Drivers/CMSIS/DSP/Source/FilteringFunctions/arm_fir_init_q15.c ****  * Similarly, to implement a two point filter
  66:Drivers/CMSIS/DSP/Source/FilteringFunctions/arm_fir_init_q15.c ****  * <pre>
  67:Drivers/CMSIS/DSP/Source/FilteringFunctions/arm_fir_init_q15.c ****  *     {0.3, -0.3}
  68:Drivers/CMSIS/DSP/Source/FilteringFunctions/arm_fir_init_q15.c ****  * </pre>
  69:Drivers/CMSIS/DSP/Source/FilteringFunctions/arm_fir_init_q15.c ****  * set <code>numTaps=4</code> and use the coefficients:
  70:Drivers/CMSIS/DSP/Source/FilteringFunctions/arm_fir_init_q15.c ****  * <pre>
  71:Drivers/CMSIS/DSP/Source/FilteringFunctions/arm_fir_init_q15.c ****  *     {0.3, -0.3, 0, 0}.
  72:Drivers/CMSIS/DSP/Source/FilteringFunctions/arm_fir_init_q15.c ****  * </pre>
  73:Drivers/CMSIS/DSP/Source/FilteringFunctions/arm_fir_init_q15.c ****  * \par
  74:Drivers/CMSIS/DSP/Source/FilteringFunctions/arm_fir_init_q15.c ****  * <code>pState</code> points to the array of state variables.
  75:Drivers/CMSIS/DSP/Source/FilteringFunctions/arm_fir_init_q15.c ****  * <code>pState</code> is of length <code>numTaps+blockSize</code>, when running on Cortex-M4 and C
  76:Drivers/CMSIS/DSP/Source/FilteringFunctions/arm_fir_init_q15.c ****  */
  77:Drivers/CMSIS/DSP/Source/FilteringFunctions/arm_fir_init_q15.c **** 
  78:Drivers/CMSIS/DSP/Source/FilteringFunctions/arm_fir_init_q15.c **** arm_status arm_fir_init_q15(
  79:Drivers/CMSIS/DSP/Source/FilteringFunctions/arm_fir_init_q15.c ****   arm_fir_instance_q15 * S,
  80:Drivers/CMSIS/DSP/Source/FilteringFunctions/arm_fir_init_q15.c ****   uint16_t numTaps,
  81:Drivers/CMSIS/DSP/Source/FilteringFunctions/arm_fir_init_q15.c ****   q15_t * pCoeffs,
  82:Drivers/CMSIS/DSP/Source/FilteringFunctions/arm_fir_init_q15.c ****   q15_t * pState,
  83:Drivers/CMSIS/DSP/Source/FilteringFunctions/arm_fir_init_q15.c ****   uint32_t blockSize)
  84:Drivers/CMSIS/DSP/Source/FilteringFunctions/arm_fir_init_q15.c **** {
  30              		.loc 1 84 1 view -0
  31              		.cfi_startproc
ARM GAS  /tmp/ccoZDZkK.s 			page 3


  32              		@ args = 4, pretend = 0, frame = 0
  33              		@ frame_needed = 0, uses_anonymous_args = 0
  85:Drivers/CMSIS/DSP/Source/FilteringFunctions/arm_fir_init_q15.c ****   arm_status status;
  34              		.loc 1 85 3 view .LVU1
  86:Drivers/CMSIS/DSP/Source/FilteringFunctions/arm_fir_init_q15.c **** 
  87:Drivers/CMSIS/DSP/Source/FilteringFunctions/arm_fir_init_q15.c **** 
  88:Drivers/CMSIS/DSP/Source/FilteringFunctions/arm_fir_init_q15.c **** #if defined (ARM_MATH_DSP)
  89:Drivers/CMSIS/DSP/Source/FilteringFunctions/arm_fir_init_q15.c **** 
  90:Drivers/CMSIS/DSP/Source/FilteringFunctions/arm_fir_init_q15.c ****   /* Run the below code for Cortex-M4 and Cortex-M3 */
  91:Drivers/CMSIS/DSP/Source/FilteringFunctions/arm_fir_init_q15.c **** 
  92:Drivers/CMSIS/DSP/Source/FilteringFunctions/arm_fir_init_q15.c ****   /* The Number of filter coefficients in the filter must be even and at least 4 */
  93:Drivers/CMSIS/DSP/Source/FilteringFunctions/arm_fir_init_q15.c ****   if (numTaps & 0x1U)
  35              		.loc 1 93 3 view .LVU2
  36              		.loc 1 93 6 is_stmt 0 view .LVU3
  37 0000 11F0010F 		tst	r1, #1
  38 0004 0ED1     		bne	.L3
  84:Drivers/CMSIS/DSP/Source/FilteringFunctions/arm_fir_init_q15.c ****   arm_status status;
  39              		.loc 1 84 1 view .LVU4
  40 0006 38B5     		push	{r3, r4, r5, lr}
  41              	.LCFI0:
  42              		.cfi_def_cfa_offset 16
  43              		.cfi_offset 3, -16
  44              		.cfi_offset 4, -12
  45              		.cfi_offset 5, -8
  46              		.cfi_offset 14, -4
  47 0008 0446     		mov	r4, r0
  48 000a 1D46     		mov	r5, r3
  94:Drivers/CMSIS/DSP/Source/FilteringFunctions/arm_fir_init_q15.c ****   {
  95:Drivers/CMSIS/DSP/Source/FilteringFunctions/arm_fir_init_q15.c ****     status = ARM_MATH_ARGUMENT_ERROR;
  96:Drivers/CMSIS/DSP/Source/FilteringFunctions/arm_fir_init_q15.c ****   }
  97:Drivers/CMSIS/DSP/Source/FilteringFunctions/arm_fir_init_q15.c ****   else
  98:Drivers/CMSIS/DSP/Source/FilteringFunctions/arm_fir_init_q15.c ****   {
  99:Drivers/CMSIS/DSP/Source/FilteringFunctions/arm_fir_init_q15.c ****     /* Assign filter taps */
 100:Drivers/CMSIS/DSP/Source/FilteringFunctions/arm_fir_init_q15.c ****     S->numTaps = numTaps;
  49              		.loc 1 100 5 is_stmt 1 view .LVU5
  50              		.loc 1 100 16 is_stmt 0 view .LVU6
  51 000c 0180     		strh	r1, [r0]	@ movhi
 101:Drivers/CMSIS/DSP/Source/FilteringFunctions/arm_fir_init_q15.c **** 
 102:Drivers/CMSIS/DSP/Source/FilteringFunctions/arm_fir_init_q15.c ****     /* Assign coefficient pointer */
 103:Drivers/CMSIS/DSP/Source/FilteringFunctions/arm_fir_init_q15.c ****     S->pCoeffs = pCoeffs;
  52              		.loc 1 103 5 is_stmt 1 view .LVU7
  53              		.loc 1 103 16 is_stmt 0 view .LVU8
  54 000e 8260     		str	r2, [r0, #8]
 104:Drivers/CMSIS/DSP/Source/FilteringFunctions/arm_fir_init_q15.c **** 
 105:Drivers/CMSIS/DSP/Source/FilteringFunctions/arm_fir_init_q15.c ****     /* Clear the state buffer.  The size is always (blockSize + numTaps ) */
 106:Drivers/CMSIS/DSP/Source/FilteringFunctions/arm_fir_init_q15.c ****     memset(pState, 0, (numTaps + (blockSize)) * sizeof(q15_t));
  55              		.loc 1 106 5 is_stmt 1 view .LVU9
  56              		.loc 1 106 32 is_stmt 0 view .LVU10
  57 0010 049B     		ldr	r3, [sp, #16]
  58              	.LVL1:
  59              		.loc 1 106 32 view .LVU11
  60 0012 1944     		add	r1, r1, r3
  61              	.LVL2:
  62              		.loc 1 106 5 view .LVU12
  63 0014 4A00     		lsls	r2, r1, #1
  64              	.LVL3:
  65              		.loc 1 106 5 view .LVU13
ARM GAS  /tmp/ccoZDZkK.s 			page 4


  66 0016 0021     		movs	r1, #0
  67 0018 2846     		mov	r0, r5
  68              	.LVL4:
  69              		.loc 1 106 5 view .LVU14
  70 001a FFF7FEFF 		bl	memset
  71              	.LVL5:
 107:Drivers/CMSIS/DSP/Source/FilteringFunctions/arm_fir_init_q15.c **** 
 108:Drivers/CMSIS/DSP/Source/FilteringFunctions/arm_fir_init_q15.c ****     /* Assign state pointer */
 109:Drivers/CMSIS/DSP/Source/FilteringFunctions/arm_fir_init_q15.c ****     S->pState = pState;
  72              		.loc 1 109 5 is_stmt 1 view .LVU15
  73              		.loc 1 109 15 is_stmt 0 view .LVU16
  74 001e 6560     		str	r5, [r4, #4]
 110:Drivers/CMSIS/DSP/Source/FilteringFunctions/arm_fir_init_q15.c **** 
 111:Drivers/CMSIS/DSP/Source/FilteringFunctions/arm_fir_init_q15.c ****     status = ARM_MATH_SUCCESS;
  75              		.loc 1 111 5 is_stmt 1 view .LVU17
  76              	.LVL6:
  77              		.loc 1 111 12 is_stmt 0 view .LVU18
  78 0020 0020     		movs	r0, #0
  79              	.LVL7:
 112:Drivers/CMSIS/DSP/Source/FilteringFunctions/arm_fir_init_q15.c ****   }
 113:Drivers/CMSIS/DSP/Source/FilteringFunctions/arm_fir_init_q15.c **** 
 114:Drivers/CMSIS/DSP/Source/FilteringFunctions/arm_fir_init_q15.c ****   return (status);
  80              		.loc 1 114 3 is_stmt 1 view .LVU19
 115:Drivers/CMSIS/DSP/Source/FilteringFunctions/arm_fir_init_q15.c **** 
 116:Drivers/CMSIS/DSP/Source/FilteringFunctions/arm_fir_init_q15.c **** #else
 117:Drivers/CMSIS/DSP/Source/FilteringFunctions/arm_fir_init_q15.c **** 
 118:Drivers/CMSIS/DSP/Source/FilteringFunctions/arm_fir_init_q15.c ****   /* Run the below code for Cortex-M0 */
 119:Drivers/CMSIS/DSP/Source/FilteringFunctions/arm_fir_init_q15.c **** 
 120:Drivers/CMSIS/DSP/Source/FilteringFunctions/arm_fir_init_q15.c ****   /* Assign filter taps */
 121:Drivers/CMSIS/DSP/Source/FilteringFunctions/arm_fir_init_q15.c ****   S->numTaps = numTaps;
 122:Drivers/CMSIS/DSP/Source/FilteringFunctions/arm_fir_init_q15.c **** 
 123:Drivers/CMSIS/DSP/Source/FilteringFunctions/arm_fir_init_q15.c ****   /* Assign coefficient pointer */
 124:Drivers/CMSIS/DSP/Source/FilteringFunctions/arm_fir_init_q15.c ****   S->pCoeffs = pCoeffs;
 125:Drivers/CMSIS/DSP/Source/FilteringFunctions/arm_fir_init_q15.c **** 
 126:Drivers/CMSIS/DSP/Source/FilteringFunctions/arm_fir_init_q15.c ****   /* Clear the state buffer.  The size is always (blockSize + numTaps - 1) */
 127:Drivers/CMSIS/DSP/Source/FilteringFunctions/arm_fir_init_q15.c ****   memset(pState, 0, (numTaps + (blockSize - 1U)) * sizeof(q15_t));
 128:Drivers/CMSIS/DSP/Source/FilteringFunctions/arm_fir_init_q15.c **** 
 129:Drivers/CMSIS/DSP/Source/FilteringFunctions/arm_fir_init_q15.c ****   /* Assign state pointer */
 130:Drivers/CMSIS/DSP/Source/FilteringFunctions/arm_fir_init_q15.c ****   S->pState = pState;
 131:Drivers/CMSIS/DSP/Source/FilteringFunctions/arm_fir_init_q15.c **** 
 132:Drivers/CMSIS/DSP/Source/FilteringFunctions/arm_fir_init_q15.c ****   status = ARM_MATH_SUCCESS;
 133:Drivers/CMSIS/DSP/Source/FilteringFunctions/arm_fir_init_q15.c **** 
 134:Drivers/CMSIS/DSP/Source/FilteringFunctions/arm_fir_init_q15.c ****   return (status);
 135:Drivers/CMSIS/DSP/Source/FilteringFunctions/arm_fir_init_q15.c **** 
 136:Drivers/CMSIS/DSP/Source/FilteringFunctions/arm_fir_init_q15.c **** #endif /*  #if defined (ARM_MATH_DSP) */
 137:Drivers/CMSIS/DSP/Source/FilteringFunctions/arm_fir_init_q15.c **** 
 138:Drivers/CMSIS/DSP/Source/FilteringFunctions/arm_fir_init_q15.c **** }
  81              		.loc 1 138 1 is_stmt 0 view .LVU20
  82 0022 38BD     		pop	{r3, r4, r5, pc}
  83              	.LVL8:
  84              	.L3:
  85              	.LCFI1:
  86              		.cfi_def_cfa_offset 0
  87              		.cfi_restore 3
  88              		.cfi_restore 4
  89              		.cfi_restore 5
  90              		.cfi_restore 14
ARM GAS  /tmp/ccoZDZkK.s 			page 5


  95:Drivers/CMSIS/DSP/Source/FilteringFunctions/arm_fir_init_q15.c ****   }
  91              		.loc 1 95 12 view .LVU21
  92 0024 4FF0FF30 		mov	r0, #-1
  93              	.LVL9:
 114:Drivers/CMSIS/DSP/Source/FilteringFunctions/arm_fir_init_q15.c **** 
  94              		.loc 1 114 3 is_stmt 1 view .LVU22
  95              		.loc 1 138 1 is_stmt 0 view .LVU23
  96 0028 7047     		bx	lr
  97              		.cfi_endproc
  98              	.LFE135:
 100              		.text
 101              	.Letext0:
 102              		.file 2 "/usr/arm-none-eabi/include/machine/_default_types.h"
 103              		.file 3 "/usr/arm-none-eabi/include/sys/_stdint.h"
 104              		.file 4 "Drivers/CMSIS/DSP/Include/arm_math.h"
 105              		.file 5 "/usr/arm-none-eabi/include/string.h"
 106              		.file 6 "<built-in>"
ARM GAS  /tmp/ccoZDZkK.s 			page 6

