ARM GAS  /tmp/ccvRwLWN.s 			page 1


   1              		.cpu cortex-m7
   2              		.arch armv7e-m
   3              		.fpu fpv5-sp-d16
   4              		.eabi_attribute 27, 1
   5              		.eabi_attribute 28, 1
   6              		.eabi_attribute 20, 1
   7              		.eabi_attribute 21, 1
   8              		.eabi_attribute 23, 3
   9              		.eabi_attribute 24, 1
  10              		.eabi_attribute 25, 1
  11              		.eabi_attribute 26, 1
  12              		.eabi_attribute 30, 1
  13              		.eabi_attribute 34, 1
  14              		.eabi_attribute 18, 4
  15              		.file	"arm_sqrt_q15.c"
  16              		.text
  17              	.Ltext0:
  18              		.cfi_sections	.debug_frame
  19              		.file 1 "Drivers/CMSIS/DSP/Source/FastMathFunctions/arm_sqrt_q15.c"
  20              		.section	.text.arm_sqrt_q15,"ax",%progbits
  21              		.align	1
  22              		.global	arm_sqrt_q15
  23              		.syntax unified
  24              		.thumb
  25              		.thumb_func
  27              	arm_sqrt_q15:
  28              	.LVL0:
  29              	.LFB135:
   1:Drivers/CMSIS/DSP/Source/FastMathFunctions/arm_sqrt_q15.c **** /* ----------------------------------------------------------------------
   2:Drivers/CMSIS/DSP/Source/FastMathFunctions/arm_sqrt_q15.c ****  * Project:      CMSIS DSP Library
   3:Drivers/CMSIS/DSP/Source/FastMathFunctions/arm_sqrt_q15.c ****  * Title:        arm_sqrt_q15.c
   4:Drivers/CMSIS/DSP/Source/FastMathFunctions/arm_sqrt_q15.c ****  * Description:  Q15 square root function
   5:Drivers/CMSIS/DSP/Source/FastMathFunctions/arm_sqrt_q15.c ****  *
   6:Drivers/CMSIS/DSP/Source/FastMathFunctions/arm_sqrt_q15.c ****  * $Date:        27. January 2017
   7:Drivers/CMSIS/DSP/Source/FastMathFunctions/arm_sqrt_q15.c ****  * $Revision:    V.1.5.1
   8:Drivers/CMSIS/DSP/Source/FastMathFunctions/arm_sqrt_q15.c ****  *
   9:Drivers/CMSIS/DSP/Source/FastMathFunctions/arm_sqrt_q15.c ****  * Target Processor: Cortex-M cores
  10:Drivers/CMSIS/DSP/Source/FastMathFunctions/arm_sqrt_q15.c ****  * -------------------------------------------------------------------- */
  11:Drivers/CMSIS/DSP/Source/FastMathFunctions/arm_sqrt_q15.c **** /*
  12:Drivers/CMSIS/DSP/Source/FastMathFunctions/arm_sqrt_q15.c ****  * Copyright (C) 2010-2017 ARM Limited or its affiliates. All rights reserved.
  13:Drivers/CMSIS/DSP/Source/FastMathFunctions/arm_sqrt_q15.c ****  *
  14:Drivers/CMSIS/DSP/Source/FastMathFunctions/arm_sqrt_q15.c ****  * SPDX-License-Identifier: Apache-2.0
  15:Drivers/CMSIS/DSP/Source/FastMathFunctions/arm_sqrt_q15.c ****  *
  16:Drivers/CMSIS/DSP/Source/FastMathFunctions/arm_sqrt_q15.c ****  * Licensed under the Apache License, Version 2.0 (the License); you may
  17:Drivers/CMSIS/DSP/Source/FastMathFunctions/arm_sqrt_q15.c ****  * not use this file except in compliance with the License.
  18:Drivers/CMSIS/DSP/Source/FastMathFunctions/arm_sqrt_q15.c ****  * You may obtain a copy of the License at
  19:Drivers/CMSIS/DSP/Source/FastMathFunctions/arm_sqrt_q15.c ****  *
  20:Drivers/CMSIS/DSP/Source/FastMathFunctions/arm_sqrt_q15.c ****  * www.apache.org/licenses/LICENSE-2.0
  21:Drivers/CMSIS/DSP/Source/FastMathFunctions/arm_sqrt_q15.c ****  *
  22:Drivers/CMSIS/DSP/Source/FastMathFunctions/arm_sqrt_q15.c ****  * Unless required by applicable law or agreed to in writing, software
  23:Drivers/CMSIS/DSP/Source/FastMathFunctions/arm_sqrt_q15.c ****  * distributed under the License is distributed on an AS IS BASIS, WITHOUT
  24:Drivers/CMSIS/DSP/Source/FastMathFunctions/arm_sqrt_q15.c ****  * WARRANTIES OR CONDITIONS OF ANY KIND, either express or implied.
  25:Drivers/CMSIS/DSP/Source/FastMathFunctions/arm_sqrt_q15.c ****  * See the License for the specific language governing permissions and
  26:Drivers/CMSIS/DSP/Source/FastMathFunctions/arm_sqrt_q15.c ****  * limitations under the License.
  27:Drivers/CMSIS/DSP/Source/FastMathFunctions/arm_sqrt_q15.c ****  */
  28:Drivers/CMSIS/DSP/Source/FastMathFunctions/arm_sqrt_q15.c **** 
  29:Drivers/CMSIS/DSP/Source/FastMathFunctions/arm_sqrt_q15.c **** #include "arm_math.h"
ARM GAS  /tmp/ccvRwLWN.s 			page 2


  30:Drivers/CMSIS/DSP/Source/FastMathFunctions/arm_sqrt_q15.c **** #include "arm_common_tables.h"
  31:Drivers/CMSIS/DSP/Source/FastMathFunctions/arm_sqrt_q15.c **** 
  32:Drivers/CMSIS/DSP/Source/FastMathFunctions/arm_sqrt_q15.c **** 
  33:Drivers/CMSIS/DSP/Source/FastMathFunctions/arm_sqrt_q15.c **** /**
  34:Drivers/CMSIS/DSP/Source/FastMathFunctions/arm_sqrt_q15.c ****  * @ingroup groupFastMath
  35:Drivers/CMSIS/DSP/Source/FastMathFunctions/arm_sqrt_q15.c ****  */
  36:Drivers/CMSIS/DSP/Source/FastMathFunctions/arm_sqrt_q15.c **** 
  37:Drivers/CMSIS/DSP/Source/FastMathFunctions/arm_sqrt_q15.c **** /**
  38:Drivers/CMSIS/DSP/Source/FastMathFunctions/arm_sqrt_q15.c ****  * @addtogroup SQRT
  39:Drivers/CMSIS/DSP/Source/FastMathFunctions/arm_sqrt_q15.c ****  * @{
  40:Drivers/CMSIS/DSP/Source/FastMathFunctions/arm_sqrt_q15.c ****  */
  41:Drivers/CMSIS/DSP/Source/FastMathFunctions/arm_sqrt_q15.c **** 
  42:Drivers/CMSIS/DSP/Source/FastMathFunctions/arm_sqrt_q15.c ****   /**
  43:Drivers/CMSIS/DSP/Source/FastMathFunctions/arm_sqrt_q15.c ****    * @brief  Q15 square root function.
  44:Drivers/CMSIS/DSP/Source/FastMathFunctions/arm_sqrt_q15.c ****    * @param[in]   in     input value.  The range of the input value is [0 +1) or 0x0000 to 0x7FFF.
  45:Drivers/CMSIS/DSP/Source/FastMathFunctions/arm_sqrt_q15.c ****    * @param[out]  *pOut  square root of input value.
  46:Drivers/CMSIS/DSP/Source/FastMathFunctions/arm_sqrt_q15.c ****    * @return The function returns ARM_MATH_SUCCESS if the input value is positive
  47:Drivers/CMSIS/DSP/Source/FastMathFunctions/arm_sqrt_q15.c ****    * and ARM_MATH_ARGUMENT_ERROR if the input is negative.  For
  48:Drivers/CMSIS/DSP/Source/FastMathFunctions/arm_sqrt_q15.c ****    * negative inputs, the function returns *pOut = 0.
  49:Drivers/CMSIS/DSP/Source/FastMathFunctions/arm_sqrt_q15.c ****    */
  50:Drivers/CMSIS/DSP/Source/FastMathFunctions/arm_sqrt_q15.c **** 
  51:Drivers/CMSIS/DSP/Source/FastMathFunctions/arm_sqrt_q15.c **** arm_status arm_sqrt_q15(
  52:Drivers/CMSIS/DSP/Source/FastMathFunctions/arm_sqrt_q15.c ****   q15_t in,
  53:Drivers/CMSIS/DSP/Source/FastMathFunctions/arm_sqrt_q15.c ****   q15_t * pOut)
  54:Drivers/CMSIS/DSP/Source/FastMathFunctions/arm_sqrt_q15.c **** {
  30              		.loc 1 54 1 view -0
  31              		.cfi_startproc
  32              		@ args = 0, pretend = 0, frame = 0
  33              		@ frame_needed = 0, uses_anonymous_args = 0
  55:Drivers/CMSIS/DSP/Source/FastMathFunctions/arm_sqrt_q15.c ****   q15_t number, temp1, var1, signBits1, half;
  34              		.loc 1 55 3 view .LVU1
  56:Drivers/CMSIS/DSP/Source/FastMathFunctions/arm_sqrt_q15.c ****   q31_t bits_val1;
  35              		.loc 1 56 3 view .LVU2
  57:Drivers/CMSIS/DSP/Source/FastMathFunctions/arm_sqrt_q15.c ****   float32_t temp_float1;
  36              		.loc 1 57 3 view .LVU3
  58:Drivers/CMSIS/DSP/Source/FastMathFunctions/arm_sqrt_q15.c ****   union
  37              		.loc 1 58 3 view .LVU4
  59:Drivers/CMSIS/DSP/Source/FastMathFunctions/arm_sqrt_q15.c ****   {
  60:Drivers/CMSIS/DSP/Source/FastMathFunctions/arm_sqrt_q15.c ****     q31_t fracval;
  61:Drivers/CMSIS/DSP/Source/FastMathFunctions/arm_sqrt_q15.c ****     float32_t floatval;
  62:Drivers/CMSIS/DSP/Source/FastMathFunctions/arm_sqrt_q15.c ****   } tempconv;
  63:Drivers/CMSIS/DSP/Source/FastMathFunctions/arm_sqrt_q15.c **** 
  64:Drivers/CMSIS/DSP/Source/FastMathFunctions/arm_sqrt_q15.c ****   number = in;
  38              		.loc 1 64 3 view .LVU5
  65:Drivers/CMSIS/DSP/Source/FastMathFunctions/arm_sqrt_q15.c **** 
  66:Drivers/CMSIS/DSP/Source/FastMathFunctions/arm_sqrt_q15.c ****   /* If the input is a positive number then compute the signBits. */
  67:Drivers/CMSIS/DSP/Source/FastMathFunctions/arm_sqrt_q15.c ****   if (number > 0)
  39              		.loc 1 67 3 view .LVU6
  40              		.loc 1 67 6 is_stmt 0 view .LVU7
  41 0000 0028     		cmp	r0, #0
  42              		.loc 1 67 6 view .LVU8
  43 0002 6CDD     		ble	.L2
  54:Drivers/CMSIS/DSP/Source/FastMathFunctions/arm_sqrt_q15.c ****   q15_t number, temp1, var1, signBits1, half;
  44              		.loc 1 54 1 view .LVU9
  45 0004 10B5     		push	{r4, lr}
  46              	.LCFI0:
  47              		.cfi_def_cfa_offset 8
ARM GAS  /tmp/ccvRwLWN.s 			page 3


  48              		.cfi_offset 4, -8
  49              		.cfi_offset 14, -4
  68:Drivers/CMSIS/DSP/Source/FastMathFunctions/arm_sqrt_q15.c ****   {
  69:Drivers/CMSIS/DSP/Source/FastMathFunctions/arm_sqrt_q15.c ****     signBits1 = __CLZ(number) - 17;
  50              		.loc 1 69 5 is_stmt 1 view .LVU10
  51              		.loc 1 69 17 is_stmt 0 discriminator 1 view .LVU11
  52 0006 B0FA80F2 		clz	r2, r0
  53              		.loc 1 69 31 discriminator 1 view .LVU12
  54 000a 113A     		subs	r2, r2, #17
  55              		.loc 1 69 15 discriminator 1 view .LVU13
  56 000c 9446     		mov	ip, r2
  57              	.LVL1:
  70:Drivers/CMSIS/DSP/Source/FastMathFunctions/arm_sqrt_q15.c **** 
  71:Drivers/CMSIS/DSP/Source/FastMathFunctions/arm_sqrt_q15.c ****     /* Shift by the number of signBits1 */
  72:Drivers/CMSIS/DSP/Source/FastMathFunctions/arm_sqrt_q15.c ****     if ((signBits1 % 2) == 0)
  58              		.loc 1 72 5 is_stmt 1 view .LVU14
  59              		.loc 1 72 8 is_stmt 0 view .LVU15
  60 000e 12F00102 		ands	r2, r2, #1
  61              	.LVL2:
  62              		.loc 1 72 8 view .LVU16
  63 0012 54D1     		bne	.L3
  73:Drivers/CMSIS/DSP/Source/FastMathFunctions/arm_sqrt_q15.c ****     {
  74:Drivers/CMSIS/DSP/Source/FastMathFunctions/arm_sqrt_q15.c ****       number = number << signBits1;
  64              		.loc 1 74 7 is_stmt 1 view .LVU17
  65              		.loc 1 74 23 is_stmt 0 view .LVU18
  66 0014 00FA0CF0 		lsl	r0, r0, ip
  67              	.LVL3:
  68              		.loc 1 74 14 view .LVU19
  69 0018 00B2     		sxth	r0, r0
  70              	.LVL4:
  71              	.L4:
  75:Drivers/CMSIS/DSP/Source/FastMathFunctions/arm_sqrt_q15.c ****     }
  76:Drivers/CMSIS/DSP/Source/FastMathFunctions/arm_sqrt_q15.c ****     else
  77:Drivers/CMSIS/DSP/Source/FastMathFunctions/arm_sqrt_q15.c ****     {
  78:Drivers/CMSIS/DSP/Source/FastMathFunctions/arm_sqrt_q15.c ****       number = number << (signBits1 - 1);
  79:Drivers/CMSIS/DSP/Source/FastMathFunctions/arm_sqrt_q15.c ****     }
  80:Drivers/CMSIS/DSP/Source/FastMathFunctions/arm_sqrt_q15.c **** 
  81:Drivers/CMSIS/DSP/Source/FastMathFunctions/arm_sqrt_q15.c ****     /* Calculate half value of the number */
  82:Drivers/CMSIS/DSP/Source/FastMathFunctions/arm_sqrt_q15.c ****     half = number >> 1;
  72              		.loc 1 82 5 is_stmt 1 view .LVU20
  73              		.loc 1 82 10 is_stmt 0 view .LVU21
  74 001a 4FEA600E 		asr	lr, r0, #1
  75              	.LVL5:
  83:Drivers/CMSIS/DSP/Source/FastMathFunctions/arm_sqrt_q15.c ****     /* Store the number for later use */
  84:Drivers/CMSIS/DSP/Source/FastMathFunctions/arm_sqrt_q15.c ****     temp1 = number;
  76              		.loc 1 84 5 is_stmt 1 view .LVU22
  85:Drivers/CMSIS/DSP/Source/FastMathFunctions/arm_sqrt_q15.c **** 
  86:Drivers/CMSIS/DSP/Source/FastMathFunctions/arm_sqrt_q15.c ****     /* Convert to float */
  87:Drivers/CMSIS/DSP/Source/FastMathFunctions/arm_sqrt_q15.c ****     temp_float1 = number * 3.051757812500000e-005f;
  77              		.loc 1 87 5 view .LVU23
  78              		.loc 1 87 26 is_stmt 0 view .LVU24
  79 001e 07EE900A 		vmov	s15, r0	@ int
  80 0022 F8EEE77A 		vcvt.f32.s32	s15, s15
  81              		.loc 1 87 17 view .LVU25
  82 0026 9FED307A 		vldr.32	s14, .L16
  83 002a 67EE877A 		vmul.f32	s15, s15, s14
  84              	.LVL6:
ARM GAS  /tmp/ccvRwLWN.s 			page 4


  88:Drivers/CMSIS/DSP/Source/FastMathFunctions/arm_sqrt_q15.c ****     /*Store as integer */
  89:Drivers/CMSIS/DSP/Source/FastMathFunctions/arm_sqrt_q15.c ****     tempconv.floatval = temp_float1;
  85              		.loc 1 89 5 is_stmt 1 view .LVU26
  90:Drivers/CMSIS/DSP/Source/FastMathFunctions/arm_sqrt_q15.c ****     bits_val1 = tempconv.fracval;
  86              		.loc 1 90 5 view .LVU27
  91:Drivers/CMSIS/DSP/Source/FastMathFunctions/arm_sqrt_q15.c ****     /* Subtract the shifted value from the magic number to give intial guess */
  92:Drivers/CMSIS/DSP/Source/FastMathFunctions/arm_sqrt_q15.c ****     bits_val1 = 0x5f3759df - (bits_val1 >> 1);  /* gives initial guess */
  87              		.loc 1 92 5 view .LVU28
  88              		.loc 1 92 15 is_stmt 0 view .LVU29
  89 002e 2F4B     		ldr	r3, .L16+4
  90 0030 17EE904A 		vmov	r4, s15	@ int
  91 0034 A3EB6403 		sub	r3, r3, r4, asr #1
  92              	.LVL7:
  93:Drivers/CMSIS/DSP/Source/FastMathFunctions/arm_sqrt_q15.c ****     /* Store as float */
  94:Drivers/CMSIS/DSP/Source/FastMathFunctions/arm_sqrt_q15.c ****     tempconv.fracval = bits_val1;
  93              		.loc 1 94 5 is_stmt 1 view .LVU30
  95:Drivers/CMSIS/DSP/Source/FastMathFunctions/arm_sqrt_q15.c ****     temp_float1 = tempconv.floatval;
  94              		.loc 1 95 5 view .LVU31
  96:Drivers/CMSIS/DSP/Source/FastMathFunctions/arm_sqrt_q15.c ****     /* Convert to integer format */
  97:Drivers/CMSIS/DSP/Source/FastMathFunctions/arm_sqrt_q15.c ****     var1 = (q31_t) (temp_float1 * 16384);
  95              		.loc 1 97 5 view .LVU32
  96              		.loc 1 97 12 is_stmt 0 view .LVU33
  97 0038 07EE903A 		vmov	s15, r3
  98 003c FEEEC97A 		vcvt.s32.f32	s15, s15, #14
  99              		.loc 1 97 10 view .LVU34
 100 0040 17EE903A 		vmov	r3, s15	@ int
 101              	.LVL8:
 102              		.loc 1 97 10 view .LVU35
 103 0044 1BB2     		sxth	r3, r3
 104              	.LVL9:
  98:Drivers/CMSIS/DSP/Source/FastMathFunctions/arm_sqrt_q15.c **** 
  99:Drivers/CMSIS/DSP/Source/FastMathFunctions/arm_sqrt_q15.c ****     /* 1st iteration */
 100:Drivers/CMSIS/DSP/Source/FastMathFunctions/arm_sqrt_q15.c ****     var1 = ((q15_t) ((q31_t) var1 * (0x3000 -
 105              		.loc 1 100 5 is_stmt 1 view .LVU36
 101:Drivers/CMSIS/DSP/Source/FastMathFunctions/arm_sqrt_q15.c ****                                      ((q15_t)
 102:Drivers/CMSIS/DSP/Source/FastMathFunctions/arm_sqrt_q15.c ****                                       ((((q15_t)
 103:Drivers/CMSIS/DSP/Source/FastMathFunctions/arm_sqrt_q15.c ****                                          (((q31_t) var1 * var1) >> 15)) *
 106              		.loc 1 103 57 is_stmt 0 view .LVU37
 107 0046 03FB03F4 		mul	r4, r3, r3
 108              	.LVL10:
 102:Drivers/CMSIS/DSP/Source/FastMathFunctions/arm_sqrt_q15.c ****                                          (((q31_t) var1 * var1) >> 15)) *
 109              		.loc 1 102 42 view .LVU38
 110 004a 44F3CF34 		sbfx	r4, r4, #15, #16
 111              		.loc 1 103 73 view .LVU39
 112 004e 0EFB04F4 		mul	r4, lr, r4
 101:Drivers/CMSIS/DSP/Source/FastMathFunctions/arm_sqrt_q15.c ****                                      ((q15_t)
 113              		.loc 1 101 39 view .LVU40
 114 0052 44F3CF34 		sbfx	r4, r4, #15, #16
 100:Drivers/CMSIS/DSP/Source/FastMathFunctions/arm_sqrt_q15.c ****                                      ((q15_t)
 115              		.loc 1 100 45 view .LVU41
 116 0056 C4F54054 		rsb	r4, r4, #12288
 100:Drivers/CMSIS/DSP/Source/FastMathFunctions/arm_sqrt_q15.c ****                                      ((q15_t)
 117              		.loc 1 100 35 view .LVU42
 118 005a 04FB03F3 		mul	r3, r4, r3
 119              	.LVL11:
 104:Drivers/CMSIS/DSP/Source/FastMathFunctions/arm_sqrt_q15.c ****                                         (q31_t) half) >> 15))) >> 15)) << 2;
 120              		.loc 1 104 64 view .LVU43
ARM GAS  /tmp/ccvRwLWN.s 			page 5


 121 005e DB13     		asrs	r3, r3, #15
 100:Drivers/CMSIS/DSP/Source/FastMathFunctions/arm_sqrt_q15.c ****                                      ((q15_t)
 122              		.loc 1 100 10 view .LVU44
 123 0060 9B00     		lsls	r3, r3, #2
 124 0062 1BB2     		sxth	r3, r3
 125              	.LVL12:
 105:Drivers/CMSIS/DSP/Source/FastMathFunctions/arm_sqrt_q15.c ****     /* 2nd iteration */
 106:Drivers/CMSIS/DSP/Source/FastMathFunctions/arm_sqrt_q15.c ****     var1 = ((q15_t) ((q31_t) var1 * (0x3000 -
 126              		.loc 1 106 5 is_stmt 1 view .LVU45
 107:Drivers/CMSIS/DSP/Source/FastMathFunctions/arm_sqrt_q15.c ****                                      ((q15_t)
 108:Drivers/CMSIS/DSP/Source/FastMathFunctions/arm_sqrt_q15.c ****                                       ((((q15_t)
 109:Drivers/CMSIS/DSP/Source/FastMathFunctions/arm_sqrt_q15.c ****                                          (((q31_t) var1 * var1) >> 15)) *
 127              		.loc 1 109 57 is_stmt 0 view .LVU46
 128 0064 03FB03F4 		mul	r4, r3, r3
 108:Drivers/CMSIS/DSP/Source/FastMathFunctions/arm_sqrt_q15.c ****                                          (((q31_t) var1 * var1) >> 15)) *
 129              		.loc 1 108 42 view .LVU47
 130 0068 44F3CF34 		sbfx	r4, r4, #15, #16
 131              		.loc 1 109 73 view .LVU48
 132 006c 04FB0EF4 		mul	r4, r4, lr
 107:Drivers/CMSIS/DSP/Source/FastMathFunctions/arm_sqrt_q15.c ****                                      ((q15_t)
 133              		.loc 1 107 39 view .LVU49
 134 0070 44F3CF34 		sbfx	r4, r4, #15, #16
 106:Drivers/CMSIS/DSP/Source/FastMathFunctions/arm_sqrt_q15.c ****                                      ((q15_t)
 135              		.loc 1 106 45 view .LVU50
 136 0074 C4F54054 		rsb	r4, r4, #12288
 106:Drivers/CMSIS/DSP/Source/FastMathFunctions/arm_sqrt_q15.c ****                                      ((q15_t)
 137              		.loc 1 106 35 view .LVU51
 138 0078 04FB03F3 		mul	r3, r4, r3
 139              	.LVL13:
 110:Drivers/CMSIS/DSP/Source/FastMathFunctions/arm_sqrt_q15.c ****                                         (q31_t) half) >> 15))) >> 15)) << 2;
 140              		.loc 1 110 64 view .LVU52
 141 007c DB13     		asrs	r3, r3, #15
 106:Drivers/CMSIS/DSP/Source/FastMathFunctions/arm_sqrt_q15.c ****                                      ((q15_t)
 142              		.loc 1 106 10 view .LVU53
 143 007e 9B00     		lsls	r3, r3, #2
 144 0080 1BB2     		sxth	r3, r3
 145              	.LVL14:
 111:Drivers/CMSIS/DSP/Source/FastMathFunctions/arm_sqrt_q15.c ****     /* 3rd iteration */
 112:Drivers/CMSIS/DSP/Source/FastMathFunctions/arm_sqrt_q15.c ****     var1 = ((q15_t) ((q31_t) var1 * (0x3000 -
 146              		.loc 1 112 5 is_stmt 1 view .LVU54
 113:Drivers/CMSIS/DSP/Source/FastMathFunctions/arm_sqrt_q15.c ****                                      ((q15_t)
 114:Drivers/CMSIS/DSP/Source/FastMathFunctions/arm_sqrt_q15.c ****                                       ((((q15_t)
 115:Drivers/CMSIS/DSP/Source/FastMathFunctions/arm_sqrt_q15.c ****                                          (((q31_t) var1 * var1) >> 15)) *
 147              		.loc 1 115 57 is_stmt 0 view .LVU55
 148 0082 03FB03F4 		mul	r4, r3, r3
 114:Drivers/CMSIS/DSP/Source/FastMathFunctions/arm_sqrt_q15.c ****                                          (((q31_t) var1 * var1) >> 15)) *
 149              		.loc 1 114 42 view .LVU56
 150 0086 44F3CF34 		sbfx	r4, r4, #15, #16
 151              		.loc 1 115 73 view .LVU57
 152 008a 04FB0EFE 		mul	lr, r4, lr
 153              	.LVL15:
 113:Drivers/CMSIS/DSP/Source/FastMathFunctions/arm_sqrt_q15.c ****                                      ((q15_t)
 154              		.loc 1 113 39 view .LVU58
 155 008e 4EF3CF3E 		sbfx	lr, lr, #15, #16
 112:Drivers/CMSIS/DSP/Source/FastMathFunctions/arm_sqrt_q15.c ****                                      ((q15_t)
 156              		.loc 1 112 45 view .LVU59
 157 0092 CEF5405E 		rsb	lr, lr, #12288
ARM GAS  /tmp/ccvRwLWN.s 			page 6


 112:Drivers/CMSIS/DSP/Source/FastMathFunctions/arm_sqrt_q15.c ****                                      ((q15_t)
 158              		.loc 1 112 35 view .LVU60
 159 0096 0EFB03F3 		mul	r3, lr, r3
 160              	.LVL16:
 116:Drivers/CMSIS/DSP/Source/FastMathFunctions/arm_sqrt_q15.c ****                                         (q31_t) half) >> 15))) >> 15)) << 2;
 161              		.loc 1 116 64 view .LVU61
 162 009a DB13     		asrs	r3, r3, #15
 112:Drivers/CMSIS/DSP/Source/FastMathFunctions/arm_sqrt_q15.c ****                                      ((q15_t)
 163              		.loc 1 112 10 view .LVU62
 164 009c 9B00     		lsls	r3, r3, #2
 165 009e 1BB2     		sxth	r3, r3
 166              	.LVL17:
 117:Drivers/CMSIS/DSP/Source/FastMathFunctions/arm_sqrt_q15.c **** 
 118:Drivers/CMSIS/DSP/Source/FastMathFunctions/arm_sqrt_q15.c ****     /* Multiply the inverse square root with the original value */
 119:Drivers/CMSIS/DSP/Source/FastMathFunctions/arm_sqrt_q15.c ****     var1 = ((q15_t) (((q31_t) temp1 * var1) >> 15)) << 1;
 167              		.loc 1 119 5 is_stmt 1 view .LVU63
 168              		.loc 1 119 37 is_stmt 0 view .LVU64
 169 00a0 00FB03F3 		mul	r3, r0, r3
 170              	.LVL18:
 171              		.loc 1 119 45 view .LVU65
 172 00a4 DB13     		asrs	r3, r3, #15
 173              		.loc 1 119 10 view .LVU66
 174 00a6 5B00     		lsls	r3, r3, #1
 175 00a8 1BB2     		sxth	r3, r3
 176              	.LVL19:
 120:Drivers/CMSIS/DSP/Source/FastMathFunctions/arm_sqrt_q15.c **** 
 121:Drivers/CMSIS/DSP/Source/FastMathFunctions/arm_sqrt_q15.c ****     /* Shift the output down accordingly */
 122:Drivers/CMSIS/DSP/Source/FastMathFunctions/arm_sqrt_q15.c ****     if ((signBits1 % 2) == 0)
 177              		.loc 1 122 5 is_stmt 1 view .LVU67
 178              		.loc 1 122 8 is_stmt 0 view .LVU68
 179 00aa 82B9     		cbnz	r2, .L5
 123:Drivers/CMSIS/DSP/Source/FastMathFunctions/arm_sqrt_q15.c ****     {
 124:Drivers/CMSIS/DSP/Source/FastMathFunctions/arm_sqrt_q15.c ****       var1 = var1 >> (signBits1 / 2);
 180              		.loc 1 124 7 is_stmt 1 view .LVU69
 181              		.loc 1 124 33 is_stmt 0 view .LVU70
 182 00ac 6246     		mov	r2, ip
 183 00ae BCF1000F 		cmp	ip, #0
 184 00b2 09DB     		blt	.L14
 185              	.L6:
 186 00b4 5210     		asrs	r2, r2, #1
 187              		.loc 1 124 12 view .LVU71
 188 00b6 1341     		asrs	r3, r3, r2
 189              	.LVL20:
 190              	.L7:
 125:Drivers/CMSIS/DSP/Source/FastMathFunctions/arm_sqrt_q15.c ****     }
 126:Drivers/CMSIS/DSP/Source/FastMathFunctions/arm_sqrt_q15.c ****     else
 127:Drivers/CMSIS/DSP/Source/FastMathFunctions/arm_sqrt_q15.c ****     {
 128:Drivers/CMSIS/DSP/Source/FastMathFunctions/arm_sqrt_q15.c ****       var1 = var1 >> ((signBits1 - 1) / 2);
 129:Drivers/CMSIS/DSP/Source/FastMathFunctions/arm_sqrt_q15.c ****     }
 130:Drivers/CMSIS/DSP/Source/FastMathFunctions/arm_sqrt_q15.c ****     *pOut = var1;
 191              		.loc 1 130 5 is_stmt 1 view .LVU72
 192              		.loc 1 130 11 is_stmt 0 view .LVU73
 193 00b8 0B80     		strh	r3, [r1]	@ movhi
 131:Drivers/CMSIS/DSP/Source/FastMathFunctions/arm_sqrt_q15.c **** 
 132:Drivers/CMSIS/DSP/Source/FastMathFunctions/arm_sqrt_q15.c ****     return (ARM_MATH_SUCCESS);
 194              		.loc 1 132 5 is_stmt 1 view .LVU74
 195              		.loc 1 132 12 is_stmt 0 view .LVU75
ARM GAS  /tmp/ccvRwLWN.s 			page 7


 196 00ba 0020     		movs	r0, #0
 197              	.LVL21:
 133:Drivers/CMSIS/DSP/Source/FastMathFunctions/arm_sqrt_q15.c ****   }
 134:Drivers/CMSIS/DSP/Source/FastMathFunctions/arm_sqrt_q15.c ****   /* If the number is a negative number then store zero as its square root value */
 135:Drivers/CMSIS/DSP/Source/FastMathFunctions/arm_sqrt_q15.c ****   else
 136:Drivers/CMSIS/DSP/Source/FastMathFunctions/arm_sqrt_q15.c ****   {
 137:Drivers/CMSIS/DSP/Source/FastMathFunctions/arm_sqrt_q15.c ****     *pOut = 0;
 138:Drivers/CMSIS/DSP/Source/FastMathFunctions/arm_sqrt_q15.c ****     return (ARM_MATH_ARGUMENT_ERROR);
 139:Drivers/CMSIS/DSP/Source/FastMathFunctions/arm_sqrt_q15.c ****   }
 140:Drivers/CMSIS/DSP/Source/FastMathFunctions/arm_sqrt_q15.c **** }
 198              		.loc 1 140 1 view .LVU76
 199 00bc 10BD     		pop	{r4, pc}
 200              	.LVL22:
 201              	.L3:
  78:Drivers/CMSIS/DSP/Source/FastMathFunctions/arm_sqrt_q15.c ****     }
 202              		.loc 1 78 7 is_stmt 1 view .LVU77
  78:Drivers/CMSIS/DSP/Source/FastMathFunctions/arm_sqrt_q15.c ****     }
 203              		.loc 1 78 37 is_stmt 0 view .LVU78
 204 00be 0CF1FF33 		add	r3, ip, #-1
  78:Drivers/CMSIS/DSP/Source/FastMathFunctions/arm_sqrt_q15.c ****     }
 205              		.loc 1 78 23 view .LVU79
 206 00c2 9840     		lsls	r0, r0, r3
  78:Drivers/CMSIS/DSP/Source/FastMathFunctions/arm_sqrt_q15.c ****     }
 207              		.loc 1 78 14 view .LVU80
 208 00c4 00B2     		sxth	r0, r0
 209 00c6 A8E7     		b	.L4
 210              	.LVL23:
 211              	.L14:
 124:Drivers/CMSIS/DSP/Source/FastMathFunctions/arm_sqrt_q15.c ****     }
 212              		.loc 1 124 33 view .LVU81
 213 00c8 0CF10102 		add	r2, ip, #1
 214              	.LVL24:
 124:Drivers/CMSIS/DSP/Source/FastMathFunctions/arm_sqrt_q15.c ****     }
 215              		.loc 1 124 33 view .LVU82
 216 00cc F2E7     		b	.L6
 217              	.L5:
 128:Drivers/CMSIS/DSP/Source/FastMathFunctions/arm_sqrt_q15.c ****     }
 218              		.loc 1 128 7 is_stmt 1 view .LVU83
 128:Drivers/CMSIS/DSP/Source/FastMathFunctions/arm_sqrt_q15.c ****     }
 219              		.loc 1 128 39 is_stmt 0 view .LVU84
 220 00ce BCF10102 		subs	r2, ip, #1
 221 00d2 02D4     		bmi	.L15
 222              	.L8:
 223 00d4 5210     		asrs	r2, r2, #1
 128:Drivers/CMSIS/DSP/Source/FastMathFunctions/arm_sqrt_q15.c ****     }
 224              		.loc 1 128 12 view .LVU85
 225 00d6 1341     		asrs	r3, r3, r2
 226              	.LVL25:
 128:Drivers/CMSIS/DSP/Source/FastMathFunctions/arm_sqrt_q15.c ****     }
 227              		.loc 1 128 12 view .LVU86
 228 00d8 EEE7     		b	.L7
 229              	.LVL26:
 230              	.L15:
 128:Drivers/CMSIS/DSP/Source/FastMathFunctions/arm_sqrt_q15.c ****     }
 231              		.loc 1 128 39 view .LVU87
 232 00da 6246     		mov	r2, ip
 233 00dc FAE7     		b	.L8
ARM GAS  /tmp/ccvRwLWN.s 			page 8


 234              	.LVL27:
 235              	.L2:
 236              	.LCFI1:
 237              		.cfi_def_cfa_offset 0
 238              		.cfi_restore 4
 239              		.cfi_restore 14
 137:Drivers/CMSIS/DSP/Source/FastMathFunctions/arm_sqrt_q15.c ****     return (ARM_MATH_ARGUMENT_ERROR);
 240              		.loc 1 137 5 is_stmt 1 view .LVU88
 137:Drivers/CMSIS/DSP/Source/FastMathFunctions/arm_sqrt_q15.c ****     return (ARM_MATH_ARGUMENT_ERROR);
 241              		.loc 1 137 11 is_stmt 0 view .LVU89
 242 00de 0023     		movs	r3, #0
 243 00e0 0B80     		strh	r3, [r1]	@ movhi
 138:Drivers/CMSIS/DSP/Source/FastMathFunctions/arm_sqrt_q15.c ****   }
 244              		.loc 1 138 5 is_stmt 1 view .LVU90
 138:Drivers/CMSIS/DSP/Source/FastMathFunctions/arm_sqrt_q15.c ****   }
 245              		.loc 1 138 12 is_stmt 0 view .LVU91
 246 00e2 4FF0FF30 		mov	r0, #-1
 247              		.loc 1 140 1 view .LVU92
 248 00e6 7047     		bx	lr
 249              	.L17:
 250              		.align	2
 251              	.L16:
 252 00e8 00000038 		.word	939524096
 253 00ec DF59375F 		.word	1597463007
 254              		.cfi_endproc
 255              	.LFE135:
 257              		.text
 258              	.Letext0:
 259              		.file 2 "/usr/arm-none-eabi/include/machine/_default_types.h"
 260              		.file 3 "/usr/arm-none-eabi/include/sys/_stdint.h"
 261              		.file 4 "Drivers/CMSIS/DSP/Include/arm_math.h"
ARM GAS  /tmp/ccvRwLWN.s 			page 9

