ARM GAS  /tmp/ccJSV5tm.s 			page 1


   1              		.cpu cortex-m7
   2              		.arch armv7e-m
   3              		.fpu fpv5-sp-d16
   4              		.eabi_attribute 27, 1
   5              		.eabi_attribute 28, 1
   6              		.eabi_attribute 20, 1
   7              		.eabi_attribute 21, 1
   8              		.eabi_attribute 23, 3
   9              		.eabi_attribute 24, 1
  10              		.eabi_attribute 25, 1
  11              		.eabi_attribute 26, 1
  12              		.eabi_attribute 30, 1
  13              		.eabi_attribute 34, 1
  14              		.eabi_attribute 18, 4
  15              		.file	"arm_conv_q15.c"
  16              		.text
  17              	.Ltext0:
  18              		.cfi_sections	.debug_frame
  19              		.file 1 "Drivers/CMSIS/DSP/Source/FilteringFunctions/arm_conv_q15.c"
  20              		.section	.text.arm_conv_q15,"ax",%progbits
  21              		.align	1
  22              		.global	arm_conv_q15
  23              		.syntax unified
  24              		.thumb
  25              		.thumb_func
  27              	arm_conv_q15:
  28              	.LVL0:
  29              	.LFB135:
   1:Drivers/CMSIS/DSP/Source/FilteringFunctions/arm_conv_q15.c **** /* ----------------------------------------------------------------------
   2:Drivers/CMSIS/DSP/Source/FilteringFunctions/arm_conv_q15.c ****  * Project:      CMSIS DSP Library
   3:Drivers/CMSIS/DSP/Source/FilteringFunctions/arm_conv_q15.c ****  * Title:        arm_conv_q15.c
   4:Drivers/CMSIS/DSP/Source/FilteringFunctions/arm_conv_q15.c ****  * Description:  Convolution of Q15 sequences
   5:Drivers/CMSIS/DSP/Source/FilteringFunctions/arm_conv_q15.c ****  *
   6:Drivers/CMSIS/DSP/Source/FilteringFunctions/arm_conv_q15.c ****  * $Date:        27. January 2017
   7:Drivers/CMSIS/DSP/Source/FilteringFunctions/arm_conv_q15.c ****  * $Revision:    V.1.5.1
   8:Drivers/CMSIS/DSP/Source/FilteringFunctions/arm_conv_q15.c ****  *
   9:Drivers/CMSIS/DSP/Source/FilteringFunctions/arm_conv_q15.c ****  * Target Processor: Cortex-M cores
  10:Drivers/CMSIS/DSP/Source/FilteringFunctions/arm_conv_q15.c ****  * -------------------------------------------------------------------- */
  11:Drivers/CMSIS/DSP/Source/FilteringFunctions/arm_conv_q15.c **** /*
  12:Drivers/CMSIS/DSP/Source/FilteringFunctions/arm_conv_q15.c ****  * Copyright (C) 2010-2017 ARM Limited or its affiliates. All rights reserved.
  13:Drivers/CMSIS/DSP/Source/FilteringFunctions/arm_conv_q15.c ****  *
  14:Drivers/CMSIS/DSP/Source/FilteringFunctions/arm_conv_q15.c ****  * SPDX-License-Identifier: Apache-2.0
  15:Drivers/CMSIS/DSP/Source/FilteringFunctions/arm_conv_q15.c ****  *
  16:Drivers/CMSIS/DSP/Source/FilteringFunctions/arm_conv_q15.c ****  * Licensed under the Apache License, Version 2.0 (the License); you may
  17:Drivers/CMSIS/DSP/Source/FilteringFunctions/arm_conv_q15.c ****  * not use this file except in compliance with the License.
  18:Drivers/CMSIS/DSP/Source/FilteringFunctions/arm_conv_q15.c ****  * You may obtain a copy of the License at
  19:Drivers/CMSIS/DSP/Source/FilteringFunctions/arm_conv_q15.c ****  *
  20:Drivers/CMSIS/DSP/Source/FilteringFunctions/arm_conv_q15.c ****  * www.apache.org/licenses/LICENSE-2.0
  21:Drivers/CMSIS/DSP/Source/FilteringFunctions/arm_conv_q15.c ****  *
  22:Drivers/CMSIS/DSP/Source/FilteringFunctions/arm_conv_q15.c ****  * Unless required by applicable law or agreed to in writing, software
  23:Drivers/CMSIS/DSP/Source/FilteringFunctions/arm_conv_q15.c ****  * distributed under the License is distributed on an AS IS BASIS, WITHOUT
  24:Drivers/CMSIS/DSP/Source/FilteringFunctions/arm_conv_q15.c ****  * WARRANTIES OR CONDITIONS OF ANY KIND, either express or implied.
  25:Drivers/CMSIS/DSP/Source/FilteringFunctions/arm_conv_q15.c ****  * See the License for the specific language governing permissions and
  26:Drivers/CMSIS/DSP/Source/FilteringFunctions/arm_conv_q15.c ****  * limitations under the License.
  27:Drivers/CMSIS/DSP/Source/FilteringFunctions/arm_conv_q15.c ****  */
  28:Drivers/CMSIS/DSP/Source/FilteringFunctions/arm_conv_q15.c **** 
  29:Drivers/CMSIS/DSP/Source/FilteringFunctions/arm_conv_q15.c **** #include "arm_math.h"
ARM GAS  /tmp/ccJSV5tm.s 			page 2


  30:Drivers/CMSIS/DSP/Source/FilteringFunctions/arm_conv_q15.c **** 
  31:Drivers/CMSIS/DSP/Source/FilteringFunctions/arm_conv_q15.c **** /**
  32:Drivers/CMSIS/DSP/Source/FilteringFunctions/arm_conv_q15.c ****  * @ingroup groupFilters
  33:Drivers/CMSIS/DSP/Source/FilteringFunctions/arm_conv_q15.c ****  */
  34:Drivers/CMSIS/DSP/Source/FilteringFunctions/arm_conv_q15.c **** 
  35:Drivers/CMSIS/DSP/Source/FilteringFunctions/arm_conv_q15.c **** /**
  36:Drivers/CMSIS/DSP/Source/FilteringFunctions/arm_conv_q15.c ****  * @addtogroup Conv
  37:Drivers/CMSIS/DSP/Source/FilteringFunctions/arm_conv_q15.c ****  * @{
  38:Drivers/CMSIS/DSP/Source/FilteringFunctions/arm_conv_q15.c ****  */
  39:Drivers/CMSIS/DSP/Source/FilteringFunctions/arm_conv_q15.c **** 
  40:Drivers/CMSIS/DSP/Source/FilteringFunctions/arm_conv_q15.c **** /**
  41:Drivers/CMSIS/DSP/Source/FilteringFunctions/arm_conv_q15.c ****  * @brief Convolution of Q15 sequences.
  42:Drivers/CMSIS/DSP/Source/FilteringFunctions/arm_conv_q15.c ****  * @param[in] *pSrcA points to the first input sequence.
  43:Drivers/CMSIS/DSP/Source/FilteringFunctions/arm_conv_q15.c ****  * @param[in] srcALen length of the first input sequence.
  44:Drivers/CMSIS/DSP/Source/FilteringFunctions/arm_conv_q15.c ****  * @param[in] *pSrcB points to the second input sequence.
  45:Drivers/CMSIS/DSP/Source/FilteringFunctions/arm_conv_q15.c ****  * @param[in] srcBLen length of the second input sequence.
  46:Drivers/CMSIS/DSP/Source/FilteringFunctions/arm_conv_q15.c ****  * @param[out] *pDst points to the location where the output result is written.  Length srcALen+src
  47:Drivers/CMSIS/DSP/Source/FilteringFunctions/arm_conv_q15.c ****  * @return none.
  48:Drivers/CMSIS/DSP/Source/FilteringFunctions/arm_conv_q15.c ****  *
  49:Drivers/CMSIS/DSP/Source/FilteringFunctions/arm_conv_q15.c ****  * @details
  50:Drivers/CMSIS/DSP/Source/FilteringFunctions/arm_conv_q15.c ****  * <b>Scaling and Overflow Behavior:</b>
  51:Drivers/CMSIS/DSP/Source/FilteringFunctions/arm_conv_q15.c ****  *
  52:Drivers/CMSIS/DSP/Source/FilteringFunctions/arm_conv_q15.c ****  * \par
  53:Drivers/CMSIS/DSP/Source/FilteringFunctions/arm_conv_q15.c ****  * The function is implemented using a 64-bit internal accumulator.
  54:Drivers/CMSIS/DSP/Source/FilteringFunctions/arm_conv_q15.c ****  * Both inputs are in 1.15 format and multiplications yield a 2.30 result.
  55:Drivers/CMSIS/DSP/Source/FilteringFunctions/arm_conv_q15.c ****  * The 2.30 intermediate results are accumulated in a 64-bit accumulator in 34.30 format.
  56:Drivers/CMSIS/DSP/Source/FilteringFunctions/arm_conv_q15.c ****  * This approach provides 33 guard bits and there is no risk of overflow.
  57:Drivers/CMSIS/DSP/Source/FilteringFunctions/arm_conv_q15.c ****  * The 34.30 result is then truncated to 34.15 format by discarding the low 15 bits and then satura
  58:Drivers/CMSIS/DSP/Source/FilteringFunctions/arm_conv_q15.c ****  *
  59:Drivers/CMSIS/DSP/Source/FilteringFunctions/arm_conv_q15.c ****  * \par
  60:Drivers/CMSIS/DSP/Source/FilteringFunctions/arm_conv_q15.c ****  * Refer to <code>arm_conv_fast_q15()</code> for a faster but less precise version of this function
  61:Drivers/CMSIS/DSP/Source/FilteringFunctions/arm_conv_q15.c ****  *
  62:Drivers/CMSIS/DSP/Source/FilteringFunctions/arm_conv_q15.c ****  * \par
  63:Drivers/CMSIS/DSP/Source/FilteringFunctions/arm_conv_q15.c ****  * Refer the function <code>arm_conv_opt_q15()</code> for a faster implementation of this function 
  64:Drivers/CMSIS/DSP/Source/FilteringFunctions/arm_conv_q15.c ****  *
  65:Drivers/CMSIS/DSP/Source/FilteringFunctions/arm_conv_q15.c ****  */
  66:Drivers/CMSIS/DSP/Source/FilteringFunctions/arm_conv_q15.c **** 
  67:Drivers/CMSIS/DSP/Source/FilteringFunctions/arm_conv_q15.c **** void arm_conv_q15(
  68:Drivers/CMSIS/DSP/Source/FilteringFunctions/arm_conv_q15.c ****   q15_t * pSrcA,
  69:Drivers/CMSIS/DSP/Source/FilteringFunctions/arm_conv_q15.c ****   uint32_t srcALen,
  70:Drivers/CMSIS/DSP/Source/FilteringFunctions/arm_conv_q15.c ****   q15_t * pSrcB,
  71:Drivers/CMSIS/DSP/Source/FilteringFunctions/arm_conv_q15.c ****   uint32_t srcBLen,
  72:Drivers/CMSIS/DSP/Source/FilteringFunctions/arm_conv_q15.c ****   q15_t * pDst)
  73:Drivers/CMSIS/DSP/Source/FilteringFunctions/arm_conv_q15.c **** {
  30              		.loc 1 73 1 view -0
  31              		.cfi_startproc
  32              		@ args = 4, pretend = 0, frame = 80
  33              		@ frame_needed = 0, uses_anonymous_args = 0
  34              		.loc 1 73 1 is_stmt 0 view .LVU1
  35 0000 2DE9F04F 		push	{r4, r5, r6, r7, r8, r9, r10, fp, lr}
  36              	.LCFI0:
  37              		.cfi_def_cfa_offset 36
  38              		.cfi_offset 4, -36
  39              		.cfi_offset 5, -32
  40              		.cfi_offset 6, -28
  41              		.cfi_offset 7, -24
  42              		.cfi_offset 8, -20
ARM GAS  /tmp/ccJSV5tm.s 			page 3


  43              		.cfi_offset 9, -16
  44              		.cfi_offset 10, -12
  45              		.cfi_offset 11, -8
  46              		.cfi_offset 14, -4
  47 0004 95B0     		sub	sp, sp, #84
  48              	.LCFI1:
  49              		.cfi_def_cfa_offset 120
  50 0006 0746     		mov	r7, r0
  51 0008 0F91     		str	r1, [sp, #60]
  52 000a 0D92     		str	r2, [sp, #52]
  74:Drivers/CMSIS/DSP/Source/FilteringFunctions/arm_conv_q15.c **** 
  75:Drivers/CMSIS/DSP/Source/FilteringFunctions/arm_conv_q15.c **** #if (defined(ARM_MATH_CM7) || defined(ARM_MATH_CM4) || defined(ARM_MATH_CM3)) && !defined(UNALIGNED
  76:Drivers/CMSIS/DSP/Source/FilteringFunctions/arm_conv_q15.c **** 
  77:Drivers/CMSIS/DSP/Source/FilteringFunctions/arm_conv_q15.c ****   /* Run the below code for Cortex-M4 and Cortex-M3 */
  78:Drivers/CMSIS/DSP/Source/FilteringFunctions/arm_conv_q15.c **** 
  79:Drivers/CMSIS/DSP/Source/FilteringFunctions/arm_conv_q15.c ****   q15_t *pIn1;                                   /* inputA pointer */
  53              		.loc 1 79 3 is_stmt 1 view .LVU2
  80:Drivers/CMSIS/DSP/Source/FilteringFunctions/arm_conv_q15.c ****   q15_t *pIn2;                                   /* inputB pointer */
  54              		.loc 1 80 3 view .LVU3
  81:Drivers/CMSIS/DSP/Source/FilteringFunctions/arm_conv_q15.c ****   q15_t *pOut = pDst;                            /* output pointer */
  55              		.loc 1 81 3 view .LVU4
  56              	.LVL1:
  82:Drivers/CMSIS/DSP/Source/FilteringFunctions/arm_conv_q15.c ****   q63_t sum, acc0, acc1, acc2, acc3;             /* Accumulator */
  57              		.loc 1 82 3 view .LVU5
  83:Drivers/CMSIS/DSP/Source/FilteringFunctions/arm_conv_q15.c ****   q15_t *px;                                     /* Intermediate inputA pointer  */
  58              		.loc 1 83 3 view .LVU6
  84:Drivers/CMSIS/DSP/Source/FilteringFunctions/arm_conv_q15.c ****   q15_t *py;                                     /* Intermediate inputB pointer  */
  59              		.loc 1 84 3 view .LVU7
  85:Drivers/CMSIS/DSP/Source/FilteringFunctions/arm_conv_q15.c ****   q15_t *pSrc1, *pSrc2;                          /* Intermediate pointers */
  60              		.loc 1 85 3 view .LVU8
  86:Drivers/CMSIS/DSP/Source/FilteringFunctions/arm_conv_q15.c ****   q31_t x0, x1, x2, x3, c0;                      /* Temporary variables to hold state and coefficie
  61              		.loc 1 86 3 view .LVU9
  87:Drivers/CMSIS/DSP/Source/FilteringFunctions/arm_conv_q15.c ****   uint32_t blockSize1, blockSize2, blockSize3, j, k, count, blkCnt;     /* loop counter */
  62              		.loc 1 87 3 view .LVU10
  88:Drivers/CMSIS/DSP/Source/FilteringFunctions/arm_conv_q15.c **** 
  89:Drivers/CMSIS/DSP/Source/FilteringFunctions/arm_conv_q15.c ****   /* The algorithm implementation is based on the lengths of the inputs. */
  90:Drivers/CMSIS/DSP/Source/FilteringFunctions/arm_conv_q15.c ****   /* srcB is always made to slide across srcA. */
  91:Drivers/CMSIS/DSP/Source/FilteringFunctions/arm_conv_q15.c ****   /* So srcBLen is always considered as shorter or equal to srcALen */
  92:Drivers/CMSIS/DSP/Source/FilteringFunctions/arm_conv_q15.c ****   if (srcALen >= srcBLen)
  63              		.loc 1 92 3 view .LVU11
  64              		.loc 1 92 6 is_stmt 0 view .LVU12
  65 000c 9942     		cmp	r1, r3
  66 000e 04D3     		bcc	.L2
  93:Drivers/CMSIS/DSP/Source/FilteringFunctions/arm_conv_q15.c ****   {
  94:Drivers/CMSIS/DSP/Source/FilteringFunctions/arm_conv_q15.c ****     /* Initialization of inputA pointer */
  95:Drivers/CMSIS/DSP/Source/FilteringFunctions/arm_conv_q15.c ****     pIn1 = pSrcA;
  67              		.loc 1 95 10 view .LVU13
  68 0010 0D90     		str	r0, [sp, #52]
  96:Drivers/CMSIS/DSP/Source/FilteringFunctions/arm_conv_q15.c **** 
  97:Drivers/CMSIS/DSP/Source/FilteringFunctions/arm_conv_q15.c ****     /* Initialization of inputB pointer */
  98:Drivers/CMSIS/DSP/Source/FilteringFunctions/arm_conv_q15.c ****     pIn2 = pSrcB;
  69              		.loc 1 98 10 view .LVU14
  70 0012 1746     		mov	r7, r2
  92:Drivers/CMSIS/DSP/Source/FilteringFunctions/arm_conv_q15.c ****   {
  71              		.loc 1 92 6 view .LVU15
  72 0014 1A46     		mov	r2, r3
  73              	.LVL2:
ARM GAS  /tmp/ccJSV5tm.s 			page 4


  92:Drivers/CMSIS/DSP/Source/FilteringFunctions/arm_conv_q15.c ****   {
  74              		.loc 1 92 6 view .LVU16
  75 0016 0B46     		mov	r3, r1
  76              	.LVL3:
  92:Drivers/CMSIS/DSP/Source/FilteringFunctions/arm_conv_q15.c ****   {
  77              		.loc 1 92 6 view .LVU17
  78 0018 0F92     		str	r2, [sp, #60]
  79              	.LVL4:
  80              	.L2:
  99:Drivers/CMSIS/DSP/Source/FilteringFunctions/arm_conv_q15.c ****   }
 100:Drivers/CMSIS/DSP/Source/FilteringFunctions/arm_conv_q15.c ****   else
 101:Drivers/CMSIS/DSP/Source/FilteringFunctions/arm_conv_q15.c ****   {
 102:Drivers/CMSIS/DSP/Source/FilteringFunctions/arm_conv_q15.c ****     /* Initialization of inputA pointer */
 103:Drivers/CMSIS/DSP/Source/FilteringFunctions/arm_conv_q15.c ****     pIn1 = pSrcB;
 104:Drivers/CMSIS/DSP/Source/FilteringFunctions/arm_conv_q15.c **** 
 105:Drivers/CMSIS/DSP/Source/FilteringFunctions/arm_conv_q15.c ****     /* Initialization of inputB pointer */
 106:Drivers/CMSIS/DSP/Source/FilteringFunctions/arm_conv_q15.c ****     pIn2 = pSrcA;
 107:Drivers/CMSIS/DSP/Source/FilteringFunctions/arm_conv_q15.c **** 
 108:Drivers/CMSIS/DSP/Source/FilteringFunctions/arm_conv_q15.c ****     /* srcBLen is always considered as shorter or equal to srcALen */
 109:Drivers/CMSIS/DSP/Source/FilteringFunctions/arm_conv_q15.c ****     j = srcBLen;
 110:Drivers/CMSIS/DSP/Source/FilteringFunctions/arm_conv_q15.c ****     srcBLen = srcALen;
 111:Drivers/CMSIS/DSP/Source/FilteringFunctions/arm_conv_q15.c ****     srcALen = j;
 112:Drivers/CMSIS/DSP/Source/FilteringFunctions/arm_conv_q15.c ****   }
 113:Drivers/CMSIS/DSP/Source/FilteringFunctions/arm_conv_q15.c **** 
 114:Drivers/CMSIS/DSP/Source/FilteringFunctions/arm_conv_q15.c ****   /* conv(x,y) at n = x[n] * y[0] + x[n-1] * y[1] + x[n-2] * y[2] + ...+ x[n-N+1] * y[N -1] */
 115:Drivers/CMSIS/DSP/Source/FilteringFunctions/arm_conv_q15.c ****   /* The function is internally
 116:Drivers/CMSIS/DSP/Source/FilteringFunctions/arm_conv_q15.c ****    * divided into three stages according to the number of multiplications that has to be
 117:Drivers/CMSIS/DSP/Source/FilteringFunctions/arm_conv_q15.c ****    * taken place between inputA samples and inputB samples. In the first stage of the
 118:Drivers/CMSIS/DSP/Source/FilteringFunctions/arm_conv_q15.c ****    * algorithm, the multiplications increase by one for every iteration.
 119:Drivers/CMSIS/DSP/Source/FilteringFunctions/arm_conv_q15.c ****    * In the second stage of the algorithm, srcBLen number of multiplications are done.
 120:Drivers/CMSIS/DSP/Source/FilteringFunctions/arm_conv_q15.c ****    * In the third stage of the algorithm, the multiplications decrease by one
 121:Drivers/CMSIS/DSP/Source/FilteringFunctions/arm_conv_q15.c ****    * for every iteration. */
 122:Drivers/CMSIS/DSP/Source/FilteringFunctions/arm_conv_q15.c **** 
 123:Drivers/CMSIS/DSP/Source/FilteringFunctions/arm_conv_q15.c ****   /* The algorithm is implemented in three stages.
 124:Drivers/CMSIS/DSP/Source/FilteringFunctions/arm_conv_q15.c ****      The loop counters of each stage is initiated here. */
 125:Drivers/CMSIS/DSP/Source/FilteringFunctions/arm_conv_q15.c ****   blockSize1 = srcBLen - 1U;
  81              		.loc 1 125 3 is_stmt 1 view .LVU18
  82              		.loc 1 125 14 is_stmt 0 view .LVU19
  83 001a 0F9A     		ldr	r2, [sp, #60]
  84 001c 511E     		subs	r1, r2, #1
  85              	.LVL5:
 126:Drivers/CMSIS/DSP/Source/FilteringFunctions/arm_conv_q15.c ****   blockSize2 = srcALen - (srcBLen - 1U);
  86              		.loc 1 126 3 is_stmt 1 view .LVU20
  87              		.loc 1 126 24 is_stmt 0 view .LVU21
  88 001e 9B1A     		subs	r3, r3, r2
  89              	.LVL6:
  90              		.loc 1 126 14 view .LVU22
  91 0020 03F1010E 		add	lr, r3, #1
  92              	.LVL7:
 127:Drivers/CMSIS/DSP/Source/FilteringFunctions/arm_conv_q15.c **** 
 128:Drivers/CMSIS/DSP/Source/FilteringFunctions/arm_conv_q15.c ****   /* --------------------------
 129:Drivers/CMSIS/DSP/Source/FilteringFunctions/arm_conv_q15.c ****    * Initializations of stage1
 130:Drivers/CMSIS/DSP/Source/FilteringFunctions/arm_conv_q15.c ****    * -------------------------*/
 131:Drivers/CMSIS/DSP/Source/FilteringFunctions/arm_conv_q15.c **** 
 132:Drivers/CMSIS/DSP/Source/FilteringFunctions/arm_conv_q15.c ****   /* sum = x[0] * y[0]
 133:Drivers/CMSIS/DSP/Source/FilteringFunctions/arm_conv_q15.c ****    * sum = x[0] * y[1] + x[1] * y[0]
 134:Drivers/CMSIS/DSP/Source/FilteringFunctions/arm_conv_q15.c ****    * ....
ARM GAS  /tmp/ccJSV5tm.s 			page 5


 135:Drivers/CMSIS/DSP/Source/FilteringFunctions/arm_conv_q15.c ****    * sum = x[0] * y[srcBlen - 1] + x[1] * y[srcBlen - 2] +...+ x[srcBLen - 1] * y[0]
 136:Drivers/CMSIS/DSP/Source/FilteringFunctions/arm_conv_q15.c ****    */
 137:Drivers/CMSIS/DSP/Source/FilteringFunctions/arm_conv_q15.c **** 
 138:Drivers/CMSIS/DSP/Source/FilteringFunctions/arm_conv_q15.c ****   /* In this stage the MAC operations are increased by 1 for every iteration.
 139:Drivers/CMSIS/DSP/Source/FilteringFunctions/arm_conv_q15.c ****      The count variable holds the number of MAC operations performed */
 140:Drivers/CMSIS/DSP/Source/FilteringFunctions/arm_conv_q15.c ****   count = 1U;
  93              		.loc 1 140 3 is_stmt 1 view .LVU23
 141:Drivers/CMSIS/DSP/Source/FilteringFunctions/arm_conv_q15.c **** 
 142:Drivers/CMSIS/DSP/Source/FilteringFunctions/arm_conv_q15.c ****   /* Working pointer of inputA */
 143:Drivers/CMSIS/DSP/Source/FilteringFunctions/arm_conv_q15.c ****   px = pIn1;
  94              		.loc 1 143 3 view .LVU24
 144:Drivers/CMSIS/DSP/Source/FilteringFunctions/arm_conv_q15.c **** 
 145:Drivers/CMSIS/DSP/Source/FilteringFunctions/arm_conv_q15.c ****   /* Working pointer of inputB */
 146:Drivers/CMSIS/DSP/Source/FilteringFunctions/arm_conv_q15.c ****   py = pIn2;
  95              		.loc 1 146 3 view .LVU25
 147:Drivers/CMSIS/DSP/Source/FilteringFunctions/arm_conv_q15.c **** 
 148:Drivers/CMSIS/DSP/Source/FilteringFunctions/arm_conv_q15.c **** 
 149:Drivers/CMSIS/DSP/Source/FilteringFunctions/arm_conv_q15.c ****   /* ------------------------
 150:Drivers/CMSIS/DSP/Source/FilteringFunctions/arm_conv_q15.c ****    * Stage1 process
 151:Drivers/CMSIS/DSP/Source/FilteringFunctions/arm_conv_q15.c ****    * ----------------------*/
 152:Drivers/CMSIS/DSP/Source/FilteringFunctions/arm_conv_q15.c **** 
 153:Drivers/CMSIS/DSP/Source/FilteringFunctions/arm_conv_q15.c ****   /* For loop unrolling by 4, this stage is divided into two. */
 154:Drivers/CMSIS/DSP/Source/FilteringFunctions/arm_conv_q15.c ****   /* First part of this stage computes the MAC operations less than 4 */
 155:Drivers/CMSIS/DSP/Source/FilteringFunctions/arm_conv_q15.c ****   /* Second part of this stage computes the MAC operations greater than or equal to 4 */
 156:Drivers/CMSIS/DSP/Source/FilteringFunctions/arm_conv_q15.c **** 
 157:Drivers/CMSIS/DSP/Source/FilteringFunctions/arm_conv_q15.c ****   /* The first part of the stage starts here */
 158:Drivers/CMSIS/DSP/Source/FilteringFunctions/arm_conv_q15.c ****   while ((count < 4U) && (blockSize1 > 0U))
  96              		.loc 1 158 3 view .LVU26
 146:Drivers/CMSIS/DSP/Source/FilteringFunctions/arm_conv_q15.c **** 
  97              		.loc 1 146 6 is_stmt 0 view .LVU27
  98 0024 3C46     		mov	r4, r7
 125:Drivers/CMSIS/DSP/Source/FilteringFunctions/arm_conv_q15.c ****   blockSize2 = srcALen - (srcBLen - 1U);
  99              		.loc 1 125 14 view .LVU28
 100 0026 0D46     		mov	r5, r1
 140:Drivers/CMSIS/DSP/Source/FilteringFunctions/arm_conv_q15.c **** 
 101              		.loc 1 140 9 view .LVU29
 102 0028 4FF0010C 		mov	ip, #1
 103              		.loc 1 158 9 view .LVU30
 104 002c 16E0     		b	.L3
 105              	.LVL8:
 106              	.L4:
 159:Drivers/CMSIS/DSP/Source/FilteringFunctions/arm_conv_q15.c ****   {
 160:Drivers/CMSIS/DSP/Source/FilteringFunctions/arm_conv_q15.c ****     /* Accumulator is made zero for every iteration */
 161:Drivers/CMSIS/DSP/Source/FilteringFunctions/arm_conv_q15.c ****     sum = 0;
 162:Drivers/CMSIS/DSP/Source/FilteringFunctions/arm_conv_q15.c **** 
 163:Drivers/CMSIS/DSP/Source/FilteringFunctions/arm_conv_q15.c ****     /* Loop over number of MAC operations between
 164:Drivers/CMSIS/DSP/Source/FilteringFunctions/arm_conv_q15.c ****      * inputA samples and inputB samples */
 165:Drivers/CMSIS/DSP/Source/FilteringFunctions/arm_conv_q15.c ****     k = count;
 166:Drivers/CMSIS/DSP/Source/FilteringFunctions/arm_conv_q15.c **** 
 167:Drivers/CMSIS/DSP/Source/FilteringFunctions/arm_conv_q15.c ****     while (k > 0U)
 168:Drivers/CMSIS/DSP/Source/FilteringFunctions/arm_conv_q15.c ****     {
 169:Drivers/CMSIS/DSP/Source/FilteringFunctions/arm_conv_q15.c ****       /* Perform the multiply-accumulates */
 170:Drivers/CMSIS/DSP/Source/FilteringFunctions/arm_conv_q15.c ****       sum = __SMLALD(*px++, *py--, sum);
 107              		.loc 1 170 7 is_stmt 1 view .LVU31
 108              		.loc 1 170 22 is_stmt 0 view .LVU32
 109 002e 33F9028B 		ldrsh	r8, [r3], #2
 110              	.LVL9:
ARM GAS  /tmp/ccJSV5tm.s 			page 6


 111              		.loc 1 170 29 view .LVU33
 112 0032 34F90299 		ldrsh	r9, [r4], #-2
 113              	.LVL10:
 114              	.LBB76:
 115              	.LBI76:
 116              		.file 2 "Drivers/CMSIS/Include/cmsis_gcc.h"
   1:Drivers/CMSIS/Include/cmsis_gcc.h **** /**************************************************************************//**
   2:Drivers/CMSIS/Include/cmsis_gcc.h ****  * @file     cmsis_gcc.h
   3:Drivers/CMSIS/Include/cmsis_gcc.h ****  * @brief    CMSIS compiler GCC header file
   4:Drivers/CMSIS/Include/cmsis_gcc.h ****  * @version  V5.0.4
   5:Drivers/CMSIS/Include/cmsis_gcc.h ****  * @date     09. April 2018
   6:Drivers/CMSIS/Include/cmsis_gcc.h ****  ******************************************************************************/
   7:Drivers/CMSIS/Include/cmsis_gcc.h **** /*
   8:Drivers/CMSIS/Include/cmsis_gcc.h ****  * Copyright (c) 2009-2018 Arm Limited. All rights reserved.
   9:Drivers/CMSIS/Include/cmsis_gcc.h ****  *
  10:Drivers/CMSIS/Include/cmsis_gcc.h ****  * SPDX-License-Identifier: Apache-2.0
  11:Drivers/CMSIS/Include/cmsis_gcc.h ****  *
  12:Drivers/CMSIS/Include/cmsis_gcc.h ****  * Licensed under the Apache License, Version 2.0 (the License); you may
  13:Drivers/CMSIS/Include/cmsis_gcc.h ****  * not use this file except in compliance with the License.
  14:Drivers/CMSIS/Include/cmsis_gcc.h ****  * You may obtain a copy of the License at
  15:Drivers/CMSIS/Include/cmsis_gcc.h ****  *
  16:Drivers/CMSIS/Include/cmsis_gcc.h ****  * www.apache.org/licenses/LICENSE-2.0
  17:Drivers/CMSIS/Include/cmsis_gcc.h ****  *
  18:Drivers/CMSIS/Include/cmsis_gcc.h ****  * Unless required by applicable law or agreed to in writing, software
  19:Drivers/CMSIS/Include/cmsis_gcc.h ****  * distributed under the License is distributed on an AS IS BASIS, WITHOUT
  20:Drivers/CMSIS/Include/cmsis_gcc.h ****  * WARRANTIES OR CONDITIONS OF ANY KIND, either express or implied.
  21:Drivers/CMSIS/Include/cmsis_gcc.h ****  * See the License for the specific language governing permissions and
  22:Drivers/CMSIS/Include/cmsis_gcc.h ****  * limitations under the License.
  23:Drivers/CMSIS/Include/cmsis_gcc.h ****  */
  24:Drivers/CMSIS/Include/cmsis_gcc.h **** 
  25:Drivers/CMSIS/Include/cmsis_gcc.h **** #ifndef __CMSIS_GCC_H
  26:Drivers/CMSIS/Include/cmsis_gcc.h **** #define __CMSIS_GCC_H
  27:Drivers/CMSIS/Include/cmsis_gcc.h **** 
  28:Drivers/CMSIS/Include/cmsis_gcc.h **** /* ignore some GCC warnings */
  29:Drivers/CMSIS/Include/cmsis_gcc.h **** #pragma GCC diagnostic push
  30:Drivers/CMSIS/Include/cmsis_gcc.h **** #pragma GCC diagnostic ignored "-Wsign-conversion"
  31:Drivers/CMSIS/Include/cmsis_gcc.h **** #pragma GCC diagnostic ignored "-Wconversion"
  32:Drivers/CMSIS/Include/cmsis_gcc.h **** #pragma GCC diagnostic ignored "-Wunused-parameter"
  33:Drivers/CMSIS/Include/cmsis_gcc.h **** 
  34:Drivers/CMSIS/Include/cmsis_gcc.h **** /* Fallback for __has_builtin */
  35:Drivers/CMSIS/Include/cmsis_gcc.h **** #ifndef __has_builtin
  36:Drivers/CMSIS/Include/cmsis_gcc.h ****   #define __has_builtin(x) (0)
  37:Drivers/CMSIS/Include/cmsis_gcc.h **** #endif
  38:Drivers/CMSIS/Include/cmsis_gcc.h **** 
  39:Drivers/CMSIS/Include/cmsis_gcc.h **** /* CMSIS compiler specific defines */
  40:Drivers/CMSIS/Include/cmsis_gcc.h **** #ifndef   __ASM
  41:Drivers/CMSIS/Include/cmsis_gcc.h ****   #define __ASM                                  __asm
  42:Drivers/CMSIS/Include/cmsis_gcc.h **** #endif
  43:Drivers/CMSIS/Include/cmsis_gcc.h **** #ifndef   __INLINE
  44:Drivers/CMSIS/Include/cmsis_gcc.h ****   #define __INLINE                               inline
  45:Drivers/CMSIS/Include/cmsis_gcc.h **** #endif
  46:Drivers/CMSIS/Include/cmsis_gcc.h **** #ifndef   __STATIC_INLINE
  47:Drivers/CMSIS/Include/cmsis_gcc.h ****   #define __STATIC_INLINE                        static inline
  48:Drivers/CMSIS/Include/cmsis_gcc.h **** #endif
  49:Drivers/CMSIS/Include/cmsis_gcc.h **** #ifndef   __STATIC_FORCEINLINE                 
  50:Drivers/CMSIS/Include/cmsis_gcc.h ****   #define __STATIC_FORCEINLINE                   __attribute__((always_inline)) static inline
  51:Drivers/CMSIS/Include/cmsis_gcc.h **** #endif                                           
ARM GAS  /tmp/ccJSV5tm.s 			page 7


  52:Drivers/CMSIS/Include/cmsis_gcc.h **** #ifndef   __NO_RETURN
  53:Drivers/CMSIS/Include/cmsis_gcc.h ****   #define __NO_RETURN                            __attribute__((__noreturn__))
  54:Drivers/CMSIS/Include/cmsis_gcc.h **** #endif
  55:Drivers/CMSIS/Include/cmsis_gcc.h **** #ifndef   __USED
  56:Drivers/CMSIS/Include/cmsis_gcc.h ****   #define __USED                                 __attribute__((used))
  57:Drivers/CMSIS/Include/cmsis_gcc.h **** #endif
  58:Drivers/CMSIS/Include/cmsis_gcc.h **** #ifndef   __WEAK
  59:Drivers/CMSIS/Include/cmsis_gcc.h ****   #define __WEAK                                 __attribute__((weak))
  60:Drivers/CMSIS/Include/cmsis_gcc.h **** #endif
  61:Drivers/CMSIS/Include/cmsis_gcc.h **** #ifndef   __PACKED
  62:Drivers/CMSIS/Include/cmsis_gcc.h ****   #define __PACKED                               __attribute__((packed, aligned(1)))
  63:Drivers/CMSIS/Include/cmsis_gcc.h **** #endif
  64:Drivers/CMSIS/Include/cmsis_gcc.h **** #ifndef   __PACKED_STRUCT
  65:Drivers/CMSIS/Include/cmsis_gcc.h ****   #define __PACKED_STRUCT                        struct __attribute__((packed, aligned(1)))
  66:Drivers/CMSIS/Include/cmsis_gcc.h **** #endif
  67:Drivers/CMSIS/Include/cmsis_gcc.h **** #ifndef   __PACKED_UNION
  68:Drivers/CMSIS/Include/cmsis_gcc.h ****   #define __PACKED_UNION                         union __attribute__((packed, aligned(1)))
  69:Drivers/CMSIS/Include/cmsis_gcc.h **** #endif
  70:Drivers/CMSIS/Include/cmsis_gcc.h **** #ifndef   __UNALIGNED_UINT32        /* deprecated */
  71:Drivers/CMSIS/Include/cmsis_gcc.h ****   #pragma GCC diagnostic push
  72:Drivers/CMSIS/Include/cmsis_gcc.h ****   #pragma GCC diagnostic ignored "-Wpacked"
  73:Drivers/CMSIS/Include/cmsis_gcc.h ****   #pragma GCC diagnostic ignored "-Wattributes"
  74:Drivers/CMSIS/Include/cmsis_gcc.h ****   struct __attribute__((packed)) T_UINT32 { uint32_t v; };
  75:Drivers/CMSIS/Include/cmsis_gcc.h ****   #pragma GCC diagnostic pop
  76:Drivers/CMSIS/Include/cmsis_gcc.h ****   #define __UNALIGNED_UINT32(x)                  (((struct T_UINT32 *)(x))->v)
  77:Drivers/CMSIS/Include/cmsis_gcc.h **** #endif
  78:Drivers/CMSIS/Include/cmsis_gcc.h **** #ifndef   __UNALIGNED_UINT16_WRITE
  79:Drivers/CMSIS/Include/cmsis_gcc.h ****   #pragma GCC diagnostic push
  80:Drivers/CMSIS/Include/cmsis_gcc.h ****   #pragma GCC diagnostic ignored "-Wpacked"
  81:Drivers/CMSIS/Include/cmsis_gcc.h ****   #pragma GCC diagnostic ignored "-Wattributes"
  82:Drivers/CMSIS/Include/cmsis_gcc.h ****   __PACKED_STRUCT T_UINT16_WRITE { uint16_t v; };
  83:Drivers/CMSIS/Include/cmsis_gcc.h ****   #pragma GCC diagnostic pop
  84:Drivers/CMSIS/Include/cmsis_gcc.h ****   #define __UNALIGNED_UINT16_WRITE(addr, val)    (void)((((struct T_UINT16_WRITE *)(void *)(addr))-
  85:Drivers/CMSIS/Include/cmsis_gcc.h **** #endif
  86:Drivers/CMSIS/Include/cmsis_gcc.h **** #ifndef   __UNALIGNED_UINT16_READ
  87:Drivers/CMSIS/Include/cmsis_gcc.h ****   #pragma GCC diagnostic push
  88:Drivers/CMSIS/Include/cmsis_gcc.h ****   #pragma GCC diagnostic ignored "-Wpacked"
  89:Drivers/CMSIS/Include/cmsis_gcc.h ****   #pragma GCC diagnostic ignored "-Wattributes"
  90:Drivers/CMSIS/Include/cmsis_gcc.h ****   __PACKED_STRUCT T_UINT16_READ { uint16_t v; };
  91:Drivers/CMSIS/Include/cmsis_gcc.h ****   #pragma GCC diagnostic pop
  92:Drivers/CMSIS/Include/cmsis_gcc.h ****   #define __UNALIGNED_UINT16_READ(addr)          (((const struct T_UINT16_READ *)(const void *)(add
  93:Drivers/CMSIS/Include/cmsis_gcc.h **** #endif
  94:Drivers/CMSIS/Include/cmsis_gcc.h **** #ifndef   __UNALIGNED_UINT32_WRITE
  95:Drivers/CMSIS/Include/cmsis_gcc.h ****   #pragma GCC diagnostic push
  96:Drivers/CMSIS/Include/cmsis_gcc.h ****   #pragma GCC diagnostic ignored "-Wpacked"
  97:Drivers/CMSIS/Include/cmsis_gcc.h ****   #pragma GCC diagnostic ignored "-Wattributes"
  98:Drivers/CMSIS/Include/cmsis_gcc.h ****   __PACKED_STRUCT T_UINT32_WRITE { uint32_t v; };
  99:Drivers/CMSIS/Include/cmsis_gcc.h ****   #pragma GCC diagnostic pop
 100:Drivers/CMSIS/Include/cmsis_gcc.h ****   #define __UNALIGNED_UINT32_WRITE(addr, val)    (void)((((struct T_UINT32_WRITE *)(void *)(addr))-
 101:Drivers/CMSIS/Include/cmsis_gcc.h **** #endif
 102:Drivers/CMSIS/Include/cmsis_gcc.h **** #ifndef   __UNALIGNED_UINT32_READ
 103:Drivers/CMSIS/Include/cmsis_gcc.h ****   #pragma GCC diagnostic push
 104:Drivers/CMSIS/Include/cmsis_gcc.h ****   #pragma GCC diagnostic ignored "-Wpacked"
 105:Drivers/CMSIS/Include/cmsis_gcc.h ****   #pragma GCC diagnostic ignored "-Wattributes"
 106:Drivers/CMSIS/Include/cmsis_gcc.h ****   __PACKED_STRUCT T_UINT32_READ { uint32_t v; };
 107:Drivers/CMSIS/Include/cmsis_gcc.h ****   #pragma GCC diagnostic pop
 108:Drivers/CMSIS/Include/cmsis_gcc.h ****   #define __UNALIGNED_UINT32_READ(addr)          (((const struct T_UINT32_READ *)(const void *)(add
ARM GAS  /tmp/ccJSV5tm.s 			page 8


 109:Drivers/CMSIS/Include/cmsis_gcc.h **** #endif
 110:Drivers/CMSIS/Include/cmsis_gcc.h **** #ifndef   __ALIGNED
 111:Drivers/CMSIS/Include/cmsis_gcc.h ****   #define __ALIGNED(x)                           __attribute__((aligned(x)))
 112:Drivers/CMSIS/Include/cmsis_gcc.h **** #endif
 113:Drivers/CMSIS/Include/cmsis_gcc.h **** #ifndef   __RESTRICT
 114:Drivers/CMSIS/Include/cmsis_gcc.h ****   #define __RESTRICT                             __restrict
 115:Drivers/CMSIS/Include/cmsis_gcc.h **** #endif
 116:Drivers/CMSIS/Include/cmsis_gcc.h **** 
 117:Drivers/CMSIS/Include/cmsis_gcc.h **** 
 118:Drivers/CMSIS/Include/cmsis_gcc.h **** /* ###########################  Core Function Access  ########################### */
 119:Drivers/CMSIS/Include/cmsis_gcc.h **** /** \ingroup  CMSIS_Core_FunctionInterface
 120:Drivers/CMSIS/Include/cmsis_gcc.h ****     \defgroup CMSIS_Core_RegAccFunctions CMSIS Core Register Access Functions
 121:Drivers/CMSIS/Include/cmsis_gcc.h ****   @{
 122:Drivers/CMSIS/Include/cmsis_gcc.h ****  */
 123:Drivers/CMSIS/Include/cmsis_gcc.h **** 
 124:Drivers/CMSIS/Include/cmsis_gcc.h **** /**
 125:Drivers/CMSIS/Include/cmsis_gcc.h ****   \brief   Enable IRQ Interrupts
 126:Drivers/CMSIS/Include/cmsis_gcc.h ****   \details Enables IRQ interrupts by clearing the I-bit in the CPSR.
 127:Drivers/CMSIS/Include/cmsis_gcc.h ****            Can only be executed in Privileged modes.
 128:Drivers/CMSIS/Include/cmsis_gcc.h ****  */
 129:Drivers/CMSIS/Include/cmsis_gcc.h **** __STATIC_FORCEINLINE void __enable_irq(void)
 130:Drivers/CMSIS/Include/cmsis_gcc.h **** {
 131:Drivers/CMSIS/Include/cmsis_gcc.h ****   __ASM volatile ("cpsie i" : : : "memory");
 132:Drivers/CMSIS/Include/cmsis_gcc.h **** }
 133:Drivers/CMSIS/Include/cmsis_gcc.h **** 
 134:Drivers/CMSIS/Include/cmsis_gcc.h **** 
 135:Drivers/CMSIS/Include/cmsis_gcc.h **** /**
 136:Drivers/CMSIS/Include/cmsis_gcc.h ****   \brief   Disable IRQ Interrupts
 137:Drivers/CMSIS/Include/cmsis_gcc.h ****   \details Disables IRQ interrupts by setting the I-bit in the CPSR.
 138:Drivers/CMSIS/Include/cmsis_gcc.h ****            Can only be executed in Privileged modes.
 139:Drivers/CMSIS/Include/cmsis_gcc.h ****  */
 140:Drivers/CMSIS/Include/cmsis_gcc.h **** __STATIC_FORCEINLINE void __disable_irq(void)
 141:Drivers/CMSIS/Include/cmsis_gcc.h **** {
 142:Drivers/CMSIS/Include/cmsis_gcc.h ****   __ASM volatile ("cpsid i" : : : "memory");
 143:Drivers/CMSIS/Include/cmsis_gcc.h **** }
 144:Drivers/CMSIS/Include/cmsis_gcc.h **** 
 145:Drivers/CMSIS/Include/cmsis_gcc.h **** 
 146:Drivers/CMSIS/Include/cmsis_gcc.h **** /**
 147:Drivers/CMSIS/Include/cmsis_gcc.h ****   \brief   Get Control Register
 148:Drivers/CMSIS/Include/cmsis_gcc.h ****   \details Returns the content of the Control Register.
 149:Drivers/CMSIS/Include/cmsis_gcc.h ****   \return               Control Register value
 150:Drivers/CMSIS/Include/cmsis_gcc.h ****  */
 151:Drivers/CMSIS/Include/cmsis_gcc.h **** __STATIC_FORCEINLINE uint32_t __get_CONTROL(void)
 152:Drivers/CMSIS/Include/cmsis_gcc.h **** {
 153:Drivers/CMSIS/Include/cmsis_gcc.h ****   uint32_t result;
 154:Drivers/CMSIS/Include/cmsis_gcc.h **** 
 155:Drivers/CMSIS/Include/cmsis_gcc.h ****   __ASM volatile ("MRS %0, control" : "=r" (result) );
 156:Drivers/CMSIS/Include/cmsis_gcc.h ****   return(result);
 157:Drivers/CMSIS/Include/cmsis_gcc.h **** }
 158:Drivers/CMSIS/Include/cmsis_gcc.h **** 
 159:Drivers/CMSIS/Include/cmsis_gcc.h **** 
 160:Drivers/CMSIS/Include/cmsis_gcc.h **** #if (defined (__ARM_FEATURE_CMSE ) && (__ARM_FEATURE_CMSE == 3))
 161:Drivers/CMSIS/Include/cmsis_gcc.h **** /**
 162:Drivers/CMSIS/Include/cmsis_gcc.h ****   \brief   Get Control Register (non-secure)
 163:Drivers/CMSIS/Include/cmsis_gcc.h ****   \details Returns the content of the non-secure Control Register when in secure mode.
 164:Drivers/CMSIS/Include/cmsis_gcc.h ****   \return               non-secure Control Register value
 165:Drivers/CMSIS/Include/cmsis_gcc.h ****  */
ARM GAS  /tmp/ccJSV5tm.s 			page 9


 166:Drivers/CMSIS/Include/cmsis_gcc.h **** __STATIC_FORCEINLINE uint32_t __TZ_get_CONTROL_NS(void)
 167:Drivers/CMSIS/Include/cmsis_gcc.h **** {
 168:Drivers/CMSIS/Include/cmsis_gcc.h ****   uint32_t result;
 169:Drivers/CMSIS/Include/cmsis_gcc.h **** 
 170:Drivers/CMSIS/Include/cmsis_gcc.h ****   __ASM volatile ("MRS %0, control_ns" : "=r" (result) );
 171:Drivers/CMSIS/Include/cmsis_gcc.h ****   return(result);
 172:Drivers/CMSIS/Include/cmsis_gcc.h **** }
 173:Drivers/CMSIS/Include/cmsis_gcc.h **** #endif
 174:Drivers/CMSIS/Include/cmsis_gcc.h **** 
 175:Drivers/CMSIS/Include/cmsis_gcc.h **** 
 176:Drivers/CMSIS/Include/cmsis_gcc.h **** /**
 177:Drivers/CMSIS/Include/cmsis_gcc.h ****   \brief   Set Control Register
 178:Drivers/CMSIS/Include/cmsis_gcc.h ****   \details Writes the given value to the Control Register.
 179:Drivers/CMSIS/Include/cmsis_gcc.h ****   \param [in]    control  Control Register value to set
 180:Drivers/CMSIS/Include/cmsis_gcc.h ****  */
 181:Drivers/CMSIS/Include/cmsis_gcc.h **** __STATIC_FORCEINLINE void __set_CONTROL(uint32_t control)
 182:Drivers/CMSIS/Include/cmsis_gcc.h **** {
 183:Drivers/CMSIS/Include/cmsis_gcc.h ****   __ASM volatile ("MSR control, %0" : : "r" (control) : "memory");
 184:Drivers/CMSIS/Include/cmsis_gcc.h **** }
 185:Drivers/CMSIS/Include/cmsis_gcc.h **** 
 186:Drivers/CMSIS/Include/cmsis_gcc.h **** 
 187:Drivers/CMSIS/Include/cmsis_gcc.h **** #if (defined (__ARM_FEATURE_CMSE ) && (__ARM_FEATURE_CMSE == 3))
 188:Drivers/CMSIS/Include/cmsis_gcc.h **** /**
 189:Drivers/CMSIS/Include/cmsis_gcc.h ****   \brief   Set Control Register (non-secure)
 190:Drivers/CMSIS/Include/cmsis_gcc.h ****   \details Writes the given value to the non-secure Control Register when in secure state.
 191:Drivers/CMSIS/Include/cmsis_gcc.h ****   \param [in]    control  Control Register value to set
 192:Drivers/CMSIS/Include/cmsis_gcc.h ****  */
 193:Drivers/CMSIS/Include/cmsis_gcc.h **** __STATIC_FORCEINLINE void __TZ_set_CONTROL_NS(uint32_t control)
 194:Drivers/CMSIS/Include/cmsis_gcc.h **** {
 195:Drivers/CMSIS/Include/cmsis_gcc.h ****   __ASM volatile ("MSR control_ns, %0" : : "r" (control) : "memory");
 196:Drivers/CMSIS/Include/cmsis_gcc.h **** }
 197:Drivers/CMSIS/Include/cmsis_gcc.h **** #endif
 198:Drivers/CMSIS/Include/cmsis_gcc.h **** 
 199:Drivers/CMSIS/Include/cmsis_gcc.h **** 
 200:Drivers/CMSIS/Include/cmsis_gcc.h **** /**
 201:Drivers/CMSIS/Include/cmsis_gcc.h ****   \brief   Get IPSR Register
 202:Drivers/CMSIS/Include/cmsis_gcc.h ****   \details Returns the content of the IPSR Register.
 203:Drivers/CMSIS/Include/cmsis_gcc.h ****   \return               IPSR Register value
 204:Drivers/CMSIS/Include/cmsis_gcc.h ****  */
 205:Drivers/CMSIS/Include/cmsis_gcc.h **** __STATIC_FORCEINLINE uint32_t __get_IPSR(void)
 206:Drivers/CMSIS/Include/cmsis_gcc.h **** {
 207:Drivers/CMSIS/Include/cmsis_gcc.h ****   uint32_t result;
 208:Drivers/CMSIS/Include/cmsis_gcc.h **** 
 209:Drivers/CMSIS/Include/cmsis_gcc.h ****   __ASM volatile ("MRS %0, ipsr" : "=r" (result) );
 210:Drivers/CMSIS/Include/cmsis_gcc.h ****   return(result);
 211:Drivers/CMSIS/Include/cmsis_gcc.h **** }
 212:Drivers/CMSIS/Include/cmsis_gcc.h **** 
 213:Drivers/CMSIS/Include/cmsis_gcc.h **** 
 214:Drivers/CMSIS/Include/cmsis_gcc.h **** /**
 215:Drivers/CMSIS/Include/cmsis_gcc.h ****   \brief   Get APSR Register
 216:Drivers/CMSIS/Include/cmsis_gcc.h ****   \details Returns the content of the APSR Register.
 217:Drivers/CMSIS/Include/cmsis_gcc.h ****   \return               APSR Register value
 218:Drivers/CMSIS/Include/cmsis_gcc.h ****  */
 219:Drivers/CMSIS/Include/cmsis_gcc.h **** __STATIC_FORCEINLINE uint32_t __get_APSR(void)
 220:Drivers/CMSIS/Include/cmsis_gcc.h **** {
 221:Drivers/CMSIS/Include/cmsis_gcc.h ****   uint32_t result;
 222:Drivers/CMSIS/Include/cmsis_gcc.h **** 
ARM GAS  /tmp/ccJSV5tm.s 			page 10


 223:Drivers/CMSIS/Include/cmsis_gcc.h ****   __ASM volatile ("MRS %0, apsr" : "=r" (result) );
 224:Drivers/CMSIS/Include/cmsis_gcc.h ****   return(result);
 225:Drivers/CMSIS/Include/cmsis_gcc.h **** }
 226:Drivers/CMSIS/Include/cmsis_gcc.h **** 
 227:Drivers/CMSIS/Include/cmsis_gcc.h **** 
 228:Drivers/CMSIS/Include/cmsis_gcc.h **** /**
 229:Drivers/CMSIS/Include/cmsis_gcc.h ****   \brief   Get xPSR Register
 230:Drivers/CMSIS/Include/cmsis_gcc.h ****   \details Returns the content of the xPSR Register.
 231:Drivers/CMSIS/Include/cmsis_gcc.h ****   \return               xPSR Register value
 232:Drivers/CMSIS/Include/cmsis_gcc.h ****  */
 233:Drivers/CMSIS/Include/cmsis_gcc.h **** __STATIC_FORCEINLINE uint32_t __get_xPSR(void)
 234:Drivers/CMSIS/Include/cmsis_gcc.h **** {
 235:Drivers/CMSIS/Include/cmsis_gcc.h ****   uint32_t result;
 236:Drivers/CMSIS/Include/cmsis_gcc.h **** 
 237:Drivers/CMSIS/Include/cmsis_gcc.h ****   __ASM volatile ("MRS %0, xpsr" : "=r" (result) );
 238:Drivers/CMSIS/Include/cmsis_gcc.h ****   return(result);
 239:Drivers/CMSIS/Include/cmsis_gcc.h **** }
 240:Drivers/CMSIS/Include/cmsis_gcc.h **** 
 241:Drivers/CMSIS/Include/cmsis_gcc.h **** 
 242:Drivers/CMSIS/Include/cmsis_gcc.h **** /**
 243:Drivers/CMSIS/Include/cmsis_gcc.h ****   \brief   Get Process Stack Pointer
 244:Drivers/CMSIS/Include/cmsis_gcc.h ****   \details Returns the current value of the Process Stack Pointer (PSP).
 245:Drivers/CMSIS/Include/cmsis_gcc.h ****   \return               PSP Register value
 246:Drivers/CMSIS/Include/cmsis_gcc.h ****  */
 247:Drivers/CMSIS/Include/cmsis_gcc.h **** __STATIC_FORCEINLINE uint32_t __get_PSP(void)
 248:Drivers/CMSIS/Include/cmsis_gcc.h **** {
 249:Drivers/CMSIS/Include/cmsis_gcc.h ****   uint32_t result;
 250:Drivers/CMSIS/Include/cmsis_gcc.h **** 
 251:Drivers/CMSIS/Include/cmsis_gcc.h ****   __ASM volatile ("MRS %0, psp"  : "=r" (result) );
 252:Drivers/CMSIS/Include/cmsis_gcc.h ****   return(result);
 253:Drivers/CMSIS/Include/cmsis_gcc.h **** }
 254:Drivers/CMSIS/Include/cmsis_gcc.h **** 
 255:Drivers/CMSIS/Include/cmsis_gcc.h **** 
 256:Drivers/CMSIS/Include/cmsis_gcc.h **** #if (defined (__ARM_FEATURE_CMSE ) && (__ARM_FEATURE_CMSE == 3))
 257:Drivers/CMSIS/Include/cmsis_gcc.h **** /**
 258:Drivers/CMSIS/Include/cmsis_gcc.h ****   \brief   Get Process Stack Pointer (non-secure)
 259:Drivers/CMSIS/Include/cmsis_gcc.h ****   \details Returns the current value of the non-secure Process Stack Pointer (PSP) when in secure s
 260:Drivers/CMSIS/Include/cmsis_gcc.h ****   \return               PSP Register value
 261:Drivers/CMSIS/Include/cmsis_gcc.h ****  */
 262:Drivers/CMSIS/Include/cmsis_gcc.h **** __STATIC_FORCEINLINE uint32_t __TZ_get_PSP_NS(void)
 263:Drivers/CMSIS/Include/cmsis_gcc.h **** {
 264:Drivers/CMSIS/Include/cmsis_gcc.h ****   uint32_t result;
 265:Drivers/CMSIS/Include/cmsis_gcc.h **** 
 266:Drivers/CMSIS/Include/cmsis_gcc.h ****   __ASM volatile ("MRS %0, psp_ns"  : "=r" (result) );
 267:Drivers/CMSIS/Include/cmsis_gcc.h ****   return(result);
 268:Drivers/CMSIS/Include/cmsis_gcc.h **** }
 269:Drivers/CMSIS/Include/cmsis_gcc.h **** #endif
 270:Drivers/CMSIS/Include/cmsis_gcc.h **** 
 271:Drivers/CMSIS/Include/cmsis_gcc.h **** 
 272:Drivers/CMSIS/Include/cmsis_gcc.h **** /**
 273:Drivers/CMSIS/Include/cmsis_gcc.h ****   \brief   Set Process Stack Pointer
 274:Drivers/CMSIS/Include/cmsis_gcc.h ****   \details Assigns the given value to the Process Stack Pointer (PSP).
 275:Drivers/CMSIS/Include/cmsis_gcc.h ****   \param [in]    topOfProcStack  Process Stack Pointer value to set
 276:Drivers/CMSIS/Include/cmsis_gcc.h ****  */
 277:Drivers/CMSIS/Include/cmsis_gcc.h **** __STATIC_FORCEINLINE void __set_PSP(uint32_t topOfProcStack)
 278:Drivers/CMSIS/Include/cmsis_gcc.h **** {
 279:Drivers/CMSIS/Include/cmsis_gcc.h ****   __ASM volatile ("MSR psp, %0" : : "r" (topOfProcStack) : );
ARM GAS  /tmp/ccJSV5tm.s 			page 11


 280:Drivers/CMSIS/Include/cmsis_gcc.h **** }
 281:Drivers/CMSIS/Include/cmsis_gcc.h **** 
 282:Drivers/CMSIS/Include/cmsis_gcc.h **** 
 283:Drivers/CMSIS/Include/cmsis_gcc.h **** #if (defined (__ARM_FEATURE_CMSE ) && (__ARM_FEATURE_CMSE == 3))
 284:Drivers/CMSIS/Include/cmsis_gcc.h **** /**
 285:Drivers/CMSIS/Include/cmsis_gcc.h ****   \brief   Set Process Stack Pointer (non-secure)
 286:Drivers/CMSIS/Include/cmsis_gcc.h ****   \details Assigns the given value to the non-secure Process Stack Pointer (PSP) when in secure sta
 287:Drivers/CMSIS/Include/cmsis_gcc.h ****   \param [in]    topOfProcStack  Process Stack Pointer value to set
 288:Drivers/CMSIS/Include/cmsis_gcc.h ****  */
 289:Drivers/CMSIS/Include/cmsis_gcc.h **** __STATIC_FORCEINLINE void __TZ_set_PSP_NS(uint32_t topOfProcStack)
 290:Drivers/CMSIS/Include/cmsis_gcc.h **** {
 291:Drivers/CMSIS/Include/cmsis_gcc.h ****   __ASM volatile ("MSR psp_ns, %0" : : "r" (topOfProcStack) : );
 292:Drivers/CMSIS/Include/cmsis_gcc.h **** }
 293:Drivers/CMSIS/Include/cmsis_gcc.h **** #endif
 294:Drivers/CMSIS/Include/cmsis_gcc.h **** 
 295:Drivers/CMSIS/Include/cmsis_gcc.h **** 
 296:Drivers/CMSIS/Include/cmsis_gcc.h **** /**
 297:Drivers/CMSIS/Include/cmsis_gcc.h ****   \brief   Get Main Stack Pointer
 298:Drivers/CMSIS/Include/cmsis_gcc.h ****   \details Returns the current value of the Main Stack Pointer (MSP).
 299:Drivers/CMSIS/Include/cmsis_gcc.h ****   \return               MSP Register value
 300:Drivers/CMSIS/Include/cmsis_gcc.h ****  */
 301:Drivers/CMSIS/Include/cmsis_gcc.h **** __STATIC_FORCEINLINE uint32_t __get_MSP(void)
 302:Drivers/CMSIS/Include/cmsis_gcc.h **** {
 303:Drivers/CMSIS/Include/cmsis_gcc.h ****   uint32_t result;
 304:Drivers/CMSIS/Include/cmsis_gcc.h **** 
 305:Drivers/CMSIS/Include/cmsis_gcc.h ****   __ASM volatile ("MRS %0, msp" : "=r" (result) );
 306:Drivers/CMSIS/Include/cmsis_gcc.h ****   return(result);
 307:Drivers/CMSIS/Include/cmsis_gcc.h **** }
 308:Drivers/CMSIS/Include/cmsis_gcc.h **** 
 309:Drivers/CMSIS/Include/cmsis_gcc.h **** 
 310:Drivers/CMSIS/Include/cmsis_gcc.h **** #if (defined (__ARM_FEATURE_CMSE ) && (__ARM_FEATURE_CMSE == 3))
 311:Drivers/CMSIS/Include/cmsis_gcc.h **** /**
 312:Drivers/CMSIS/Include/cmsis_gcc.h ****   \brief   Get Main Stack Pointer (non-secure)
 313:Drivers/CMSIS/Include/cmsis_gcc.h ****   \details Returns the current value of the non-secure Main Stack Pointer (MSP) when in secure stat
 314:Drivers/CMSIS/Include/cmsis_gcc.h ****   \return               MSP Register value
 315:Drivers/CMSIS/Include/cmsis_gcc.h ****  */
 316:Drivers/CMSIS/Include/cmsis_gcc.h **** __STATIC_FORCEINLINE uint32_t __TZ_get_MSP_NS(void)
 317:Drivers/CMSIS/Include/cmsis_gcc.h **** {
 318:Drivers/CMSIS/Include/cmsis_gcc.h ****   uint32_t result;
 319:Drivers/CMSIS/Include/cmsis_gcc.h **** 
 320:Drivers/CMSIS/Include/cmsis_gcc.h ****   __ASM volatile ("MRS %0, msp_ns" : "=r" (result) );
 321:Drivers/CMSIS/Include/cmsis_gcc.h ****   return(result);
 322:Drivers/CMSIS/Include/cmsis_gcc.h **** }
 323:Drivers/CMSIS/Include/cmsis_gcc.h **** #endif
 324:Drivers/CMSIS/Include/cmsis_gcc.h **** 
 325:Drivers/CMSIS/Include/cmsis_gcc.h **** 
 326:Drivers/CMSIS/Include/cmsis_gcc.h **** /**
 327:Drivers/CMSIS/Include/cmsis_gcc.h ****   \brief   Set Main Stack Pointer
 328:Drivers/CMSIS/Include/cmsis_gcc.h ****   \details Assigns the given value to the Main Stack Pointer (MSP).
 329:Drivers/CMSIS/Include/cmsis_gcc.h ****   \param [in]    topOfMainStack  Main Stack Pointer value to set
 330:Drivers/CMSIS/Include/cmsis_gcc.h ****  */
 331:Drivers/CMSIS/Include/cmsis_gcc.h **** __STATIC_FORCEINLINE void __set_MSP(uint32_t topOfMainStack)
 332:Drivers/CMSIS/Include/cmsis_gcc.h **** {
 333:Drivers/CMSIS/Include/cmsis_gcc.h ****   __ASM volatile ("MSR msp, %0" : : "r" (topOfMainStack) : );
 334:Drivers/CMSIS/Include/cmsis_gcc.h **** }
 335:Drivers/CMSIS/Include/cmsis_gcc.h **** 
 336:Drivers/CMSIS/Include/cmsis_gcc.h **** 
ARM GAS  /tmp/ccJSV5tm.s 			page 12


 337:Drivers/CMSIS/Include/cmsis_gcc.h **** #if (defined (__ARM_FEATURE_CMSE ) && (__ARM_FEATURE_CMSE == 3))
 338:Drivers/CMSIS/Include/cmsis_gcc.h **** /**
 339:Drivers/CMSIS/Include/cmsis_gcc.h ****   \brief   Set Main Stack Pointer (non-secure)
 340:Drivers/CMSIS/Include/cmsis_gcc.h ****   \details Assigns the given value to the non-secure Main Stack Pointer (MSP) when in secure state.
 341:Drivers/CMSIS/Include/cmsis_gcc.h ****   \param [in]    topOfMainStack  Main Stack Pointer value to set
 342:Drivers/CMSIS/Include/cmsis_gcc.h ****  */
 343:Drivers/CMSIS/Include/cmsis_gcc.h **** __STATIC_FORCEINLINE void __TZ_set_MSP_NS(uint32_t topOfMainStack)
 344:Drivers/CMSIS/Include/cmsis_gcc.h **** {
 345:Drivers/CMSIS/Include/cmsis_gcc.h ****   __ASM volatile ("MSR msp_ns, %0" : : "r" (topOfMainStack) : );
 346:Drivers/CMSIS/Include/cmsis_gcc.h **** }
 347:Drivers/CMSIS/Include/cmsis_gcc.h **** #endif
 348:Drivers/CMSIS/Include/cmsis_gcc.h **** 
 349:Drivers/CMSIS/Include/cmsis_gcc.h **** 
 350:Drivers/CMSIS/Include/cmsis_gcc.h **** #if (defined (__ARM_FEATURE_CMSE ) && (__ARM_FEATURE_CMSE == 3))
 351:Drivers/CMSIS/Include/cmsis_gcc.h **** /**
 352:Drivers/CMSIS/Include/cmsis_gcc.h ****   \brief   Get Stack Pointer (non-secure)
 353:Drivers/CMSIS/Include/cmsis_gcc.h ****   \details Returns the current value of the non-secure Stack Pointer (SP) when in secure state.
 354:Drivers/CMSIS/Include/cmsis_gcc.h ****   \return               SP Register value
 355:Drivers/CMSIS/Include/cmsis_gcc.h ****  */
 356:Drivers/CMSIS/Include/cmsis_gcc.h **** __STATIC_FORCEINLINE uint32_t __TZ_get_SP_NS(void)
 357:Drivers/CMSIS/Include/cmsis_gcc.h **** {
 358:Drivers/CMSIS/Include/cmsis_gcc.h ****   uint32_t result;
 359:Drivers/CMSIS/Include/cmsis_gcc.h **** 
 360:Drivers/CMSIS/Include/cmsis_gcc.h ****   __ASM volatile ("MRS %0, sp_ns" : "=r" (result) );
 361:Drivers/CMSIS/Include/cmsis_gcc.h ****   return(result);
 362:Drivers/CMSIS/Include/cmsis_gcc.h **** }
 363:Drivers/CMSIS/Include/cmsis_gcc.h **** 
 364:Drivers/CMSIS/Include/cmsis_gcc.h **** 
 365:Drivers/CMSIS/Include/cmsis_gcc.h **** /**
 366:Drivers/CMSIS/Include/cmsis_gcc.h ****   \brief   Set Stack Pointer (non-secure)
 367:Drivers/CMSIS/Include/cmsis_gcc.h ****   \details Assigns the given value to the non-secure Stack Pointer (SP) when in secure state.
 368:Drivers/CMSIS/Include/cmsis_gcc.h ****   \param [in]    topOfStack  Stack Pointer value to set
 369:Drivers/CMSIS/Include/cmsis_gcc.h ****  */
 370:Drivers/CMSIS/Include/cmsis_gcc.h **** __STATIC_FORCEINLINE void __TZ_set_SP_NS(uint32_t topOfStack)
 371:Drivers/CMSIS/Include/cmsis_gcc.h **** {
 372:Drivers/CMSIS/Include/cmsis_gcc.h ****   __ASM volatile ("MSR sp_ns, %0" : : "r" (topOfStack) : );
 373:Drivers/CMSIS/Include/cmsis_gcc.h **** }
 374:Drivers/CMSIS/Include/cmsis_gcc.h **** #endif
 375:Drivers/CMSIS/Include/cmsis_gcc.h **** 
 376:Drivers/CMSIS/Include/cmsis_gcc.h **** 
 377:Drivers/CMSIS/Include/cmsis_gcc.h **** /**
 378:Drivers/CMSIS/Include/cmsis_gcc.h ****   \brief   Get Priority Mask
 379:Drivers/CMSIS/Include/cmsis_gcc.h ****   \details Returns the current state of the priority mask bit from the Priority Mask Register.
 380:Drivers/CMSIS/Include/cmsis_gcc.h ****   \return               Priority Mask value
 381:Drivers/CMSIS/Include/cmsis_gcc.h ****  */
 382:Drivers/CMSIS/Include/cmsis_gcc.h **** __STATIC_FORCEINLINE uint32_t __get_PRIMASK(void)
 383:Drivers/CMSIS/Include/cmsis_gcc.h **** {
 384:Drivers/CMSIS/Include/cmsis_gcc.h ****   uint32_t result;
 385:Drivers/CMSIS/Include/cmsis_gcc.h **** 
 386:Drivers/CMSIS/Include/cmsis_gcc.h ****   __ASM volatile ("MRS %0, primask" : "=r" (result) :: "memory");
 387:Drivers/CMSIS/Include/cmsis_gcc.h ****   return(result);
 388:Drivers/CMSIS/Include/cmsis_gcc.h **** }
 389:Drivers/CMSIS/Include/cmsis_gcc.h **** 
 390:Drivers/CMSIS/Include/cmsis_gcc.h **** 
 391:Drivers/CMSIS/Include/cmsis_gcc.h **** #if (defined (__ARM_FEATURE_CMSE ) && (__ARM_FEATURE_CMSE == 3))
 392:Drivers/CMSIS/Include/cmsis_gcc.h **** /**
 393:Drivers/CMSIS/Include/cmsis_gcc.h ****   \brief   Get Priority Mask (non-secure)
ARM GAS  /tmp/ccJSV5tm.s 			page 13


 394:Drivers/CMSIS/Include/cmsis_gcc.h ****   \details Returns the current state of the non-secure priority mask bit from the Priority Mask Reg
 395:Drivers/CMSIS/Include/cmsis_gcc.h ****   \return               Priority Mask value
 396:Drivers/CMSIS/Include/cmsis_gcc.h ****  */
 397:Drivers/CMSIS/Include/cmsis_gcc.h **** __STATIC_FORCEINLINE uint32_t __TZ_get_PRIMASK_NS(void)
 398:Drivers/CMSIS/Include/cmsis_gcc.h **** {
 399:Drivers/CMSIS/Include/cmsis_gcc.h ****   uint32_t result;
 400:Drivers/CMSIS/Include/cmsis_gcc.h **** 
 401:Drivers/CMSIS/Include/cmsis_gcc.h ****   __ASM volatile ("MRS %0, primask_ns" : "=r" (result) :: "memory");
 402:Drivers/CMSIS/Include/cmsis_gcc.h ****   return(result);
 403:Drivers/CMSIS/Include/cmsis_gcc.h **** }
 404:Drivers/CMSIS/Include/cmsis_gcc.h **** #endif
 405:Drivers/CMSIS/Include/cmsis_gcc.h **** 
 406:Drivers/CMSIS/Include/cmsis_gcc.h **** 
 407:Drivers/CMSIS/Include/cmsis_gcc.h **** /**
 408:Drivers/CMSIS/Include/cmsis_gcc.h ****   \brief   Set Priority Mask
 409:Drivers/CMSIS/Include/cmsis_gcc.h ****   \details Assigns the given value to the Priority Mask Register.
 410:Drivers/CMSIS/Include/cmsis_gcc.h ****   \param [in]    priMask  Priority Mask
 411:Drivers/CMSIS/Include/cmsis_gcc.h ****  */
 412:Drivers/CMSIS/Include/cmsis_gcc.h **** __STATIC_FORCEINLINE void __set_PRIMASK(uint32_t priMask)
 413:Drivers/CMSIS/Include/cmsis_gcc.h **** {
 414:Drivers/CMSIS/Include/cmsis_gcc.h ****   __ASM volatile ("MSR primask, %0" : : "r" (priMask) : "memory");
 415:Drivers/CMSIS/Include/cmsis_gcc.h **** }
 416:Drivers/CMSIS/Include/cmsis_gcc.h **** 
 417:Drivers/CMSIS/Include/cmsis_gcc.h **** 
 418:Drivers/CMSIS/Include/cmsis_gcc.h **** #if (defined (__ARM_FEATURE_CMSE ) && (__ARM_FEATURE_CMSE == 3))
 419:Drivers/CMSIS/Include/cmsis_gcc.h **** /**
 420:Drivers/CMSIS/Include/cmsis_gcc.h ****   \brief   Set Priority Mask (non-secure)
 421:Drivers/CMSIS/Include/cmsis_gcc.h ****   \details Assigns the given value to the non-secure Priority Mask Register when in secure state.
 422:Drivers/CMSIS/Include/cmsis_gcc.h ****   \param [in]    priMask  Priority Mask
 423:Drivers/CMSIS/Include/cmsis_gcc.h ****  */
 424:Drivers/CMSIS/Include/cmsis_gcc.h **** __STATIC_FORCEINLINE void __TZ_set_PRIMASK_NS(uint32_t priMask)
 425:Drivers/CMSIS/Include/cmsis_gcc.h **** {
 426:Drivers/CMSIS/Include/cmsis_gcc.h ****   __ASM volatile ("MSR primask_ns, %0" : : "r" (priMask) : "memory");
 427:Drivers/CMSIS/Include/cmsis_gcc.h **** }
 428:Drivers/CMSIS/Include/cmsis_gcc.h **** #endif
 429:Drivers/CMSIS/Include/cmsis_gcc.h **** 
 430:Drivers/CMSIS/Include/cmsis_gcc.h **** 
 431:Drivers/CMSIS/Include/cmsis_gcc.h **** #if ((defined (__ARM_ARCH_7M__      ) && (__ARM_ARCH_7M__      == 1)) || \
 432:Drivers/CMSIS/Include/cmsis_gcc.h ****      (defined (__ARM_ARCH_7EM__     ) && (__ARM_ARCH_7EM__     == 1)) || \
 433:Drivers/CMSIS/Include/cmsis_gcc.h ****      (defined (__ARM_ARCH_8M_MAIN__ ) && (__ARM_ARCH_8M_MAIN__ == 1))    )
 434:Drivers/CMSIS/Include/cmsis_gcc.h **** /**
 435:Drivers/CMSIS/Include/cmsis_gcc.h ****   \brief   Enable FIQ
 436:Drivers/CMSIS/Include/cmsis_gcc.h ****   \details Enables FIQ interrupts by clearing the F-bit in the CPSR.
 437:Drivers/CMSIS/Include/cmsis_gcc.h ****            Can only be executed in Privileged modes.
 438:Drivers/CMSIS/Include/cmsis_gcc.h ****  */
 439:Drivers/CMSIS/Include/cmsis_gcc.h **** __STATIC_FORCEINLINE void __enable_fault_irq(void)
 440:Drivers/CMSIS/Include/cmsis_gcc.h **** {
 441:Drivers/CMSIS/Include/cmsis_gcc.h ****   __ASM volatile ("cpsie f" : : : "memory");
 442:Drivers/CMSIS/Include/cmsis_gcc.h **** }
 443:Drivers/CMSIS/Include/cmsis_gcc.h **** 
 444:Drivers/CMSIS/Include/cmsis_gcc.h **** 
 445:Drivers/CMSIS/Include/cmsis_gcc.h **** /**
 446:Drivers/CMSIS/Include/cmsis_gcc.h ****   \brief   Disable FIQ
 447:Drivers/CMSIS/Include/cmsis_gcc.h ****   \details Disables FIQ interrupts by setting the F-bit in the CPSR.
 448:Drivers/CMSIS/Include/cmsis_gcc.h ****            Can only be executed in Privileged modes.
 449:Drivers/CMSIS/Include/cmsis_gcc.h ****  */
 450:Drivers/CMSIS/Include/cmsis_gcc.h **** __STATIC_FORCEINLINE void __disable_fault_irq(void)
ARM GAS  /tmp/ccJSV5tm.s 			page 14


 451:Drivers/CMSIS/Include/cmsis_gcc.h **** {
 452:Drivers/CMSIS/Include/cmsis_gcc.h ****   __ASM volatile ("cpsid f" : : : "memory");
 453:Drivers/CMSIS/Include/cmsis_gcc.h **** }
 454:Drivers/CMSIS/Include/cmsis_gcc.h **** 
 455:Drivers/CMSIS/Include/cmsis_gcc.h **** 
 456:Drivers/CMSIS/Include/cmsis_gcc.h **** /**
 457:Drivers/CMSIS/Include/cmsis_gcc.h ****   \brief   Get Base Priority
 458:Drivers/CMSIS/Include/cmsis_gcc.h ****   \details Returns the current value of the Base Priority register.
 459:Drivers/CMSIS/Include/cmsis_gcc.h ****   \return               Base Priority register value
 460:Drivers/CMSIS/Include/cmsis_gcc.h ****  */
 461:Drivers/CMSIS/Include/cmsis_gcc.h **** __STATIC_FORCEINLINE uint32_t __get_BASEPRI(void)
 462:Drivers/CMSIS/Include/cmsis_gcc.h **** {
 463:Drivers/CMSIS/Include/cmsis_gcc.h ****   uint32_t result;
 464:Drivers/CMSIS/Include/cmsis_gcc.h **** 
 465:Drivers/CMSIS/Include/cmsis_gcc.h ****   __ASM volatile ("MRS %0, basepri" : "=r" (result) );
 466:Drivers/CMSIS/Include/cmsis_gcc.h ****   return(result);
 467:Drivers/CMSIS/Include/cmsis_gcc.h **** }
 468:Drivers/CMSIS/Include/cmsis_gcc.h **** 
 469:Drivers/CMSIS/Include/cmsis_gcc.h **** 
 470:Drivers/CMSIS/Include/cmsis_gcc.h **** #if (defined (__ARM_FEATURE_CMSE ) && (__ARM_FEATURE_CMSE == 3))
 471:Drivers/CMSIS/Include/cmsis_gcc.h **** /**
 472:Drivers/CMSIS/Include/cmsis_gcc.h ****   \brief   Get Base Priority (non-secure)
 473:Drivers/CMSIS/Include/cmsis_gcc.h ****   \details Returns the current value of the non-secure Base Priority register when in secure state.
 474:Drivers/CMSIS/Include/cmsis_gcc.h ****   \return               Base Priority register value
 475:Drivers/CMSIS/Include/cmsis_gcc.h ****  */
 476:Drivers/CMSIS/Include/cmsis_gcc.h **** __STATIC_FORCEINLINE uint32_t __TZ_get_BASEPRI_NS(void)
 477:Drivers/CMSIS/Include/cmsis_gcc.h **** {
 478:Drivers/CMSIS/Include/cmsis_gcc.h ****   uint32_t result;
 479:Drivers/CMSIS/Include/cmsis_gcc.h **** 
 480:Drivers/CMSIS/Include/cmsis_gcc.h ****   __ASM volatile ("MRS %0, basepri_ns" : "=r" (result) );
 481:Drivers/CMSIS/Include/cmsis_gcc.h ****   return(result);
 482:Drivers/CMSIS/Include/cmsis_gcc.h **** }
 483:Drivers/CMSIS/Include/cmsis_gcc.h **** #endif
 484:Drivers/CMSIS/Include/cmsis_gcc.h **** 
 485:Drivers/CMSIS/Include/cmsis_gcc.h **** 
 486:Drivers/CMSIS/Include/cmsis_gcc.h **** /**
 487:Drivers/CMSIS/Include/cmsis_gcc.h ****   \brief   Set Base Priority
 488:Drivers/CMSIS/Include/cmsis_gcc.h ****   \details Assigns the given value to the Base Priority register.
 489:Drivers/CMSIS/Include/cmsis_gcc.h ****   \param [in]    basePri  Base Priority value to set
 490:Drivers/CMSIS/Include/cmsis_gcc.h ****  */
 491:Drivers/CMSIS/Include/cmsis_gcc.h **** __STATIC_FORCEINLINE void __set_BASEPRI(uint32_t basePri)
 492:Drivers/CMSIS/Include/cmsis_gcc.h **** {
 493:Drivers/CMSIS/Include/cmsis_gcc.h ****   __ASM volatile ("MSR basepri, %0" : : "r" (basePri) : "memory");
 494:Drivers/CMSIS/Include/cmsis_gcc.h **** }
 495:Drivers/CMSIS/Include/cmsis_gcc.h **** 
 496:Drivers/CMSIS/Include/cmsis_gcc.h **** 
 497:Drivers/CMSIS/Include/cmsis_gcc.h **** #if (defined (__ARM_FEATURE_CMSE ) && (__ARM_FEATURE_CMSE == 3))
 498:Drivers/CMSIS/Include/cmsis_gcc.h **** /**
 499:Drivers/CMSIS/Include/cmsis_gcc.h ****   \brief   Set Base Priority (non-secure)
 500:Drivers/CMSIS/Include/cmsis_gcc.h ****   \details Assigns the given value to the non-secure Base Priority register when in secure state.
 501:Drivers/CMSIS/Include/cmsis_gcc.h ****   \param [in]    basePri  Base Priority value to set
 502:Drivers/CMSIS/Include/cmsis_gcc.h ****  */
 503:Drivers/CMSIS/Include/cmsis_gcc.h **** __STATIC_FORCEINLINE void __TZ_set_BASEPRI_NS(uint32_t basePri)
 504:Drivers/CMSIS/Include/cmsis_gcc.h **** {
 505:Drivers/CMSIS/Include/cmsis_gcc.h ****   __ASM volatile ("MSR basepri_ns, %0" : : "r" (basePri) : "memory");
 506:Drivers/CMSIS/Include/cmsis_gcc.h **** }
 507:Drivers/CMSIS/Include/cmsis_gcc.h **** #endif
ARM GAS  /tmp/ccJSV5tm.s 			page 15


 508:Drivers/CMSIS/Include/cmsis_gcc.h **** 
 509:Drivers/CMSIS/Include/cmsis_gcc.h **** 
 510:Drivers/CMSIS/Include/cmsis_gcc.h **** /**
 511:Drivers/CMSIS/Include/cmsis_gcc.h ****   \brief   Set Base Priority with condition
 512:Drivers/CMSIS/Include/cmsis_gcc.h ****   \details Assigns the given value to the Base Priority register only if BASEPRI masking is disable
 513:Drivers/CMSIS/Include/cmsis_gcc.h ****            or the new value increases the BASEPRI priority level.
 514:Drivers/CMSIS/Include/cmsis_gcc.h ****   \param [in]    basePri  Base Priority value to set
 515:Drivers/CMSIS/Include/cmsis_gcc.h ****  */
 516:Drivers/CMSIS/Include/cmsis_gcc.h **** __STATIC_FORCEINLINE void __set_BASEPRI_MAX(uint32_t basePri)
 517:Drivers/CMSIS/Include/cmsis_gcc.h **** {
 518:Drivers/CMSIS/Include/cmsis_gcc.h ****   __ASM volatile ("MSR basepri_max, %0" : : "r" (basePri) : "memory");
 519:Drivers/CMSIS/Include/cmsis_gcc.h **** }
 520:Drivers/CMSIS/Include/cmsis_gcc.h **** 
 521:Drivers/CMSIS/Include/cmsis_gcc.h **** 
 522:Drivers/CMSIS/Include/cmsis_gcc.h **** /**
 523:Drivers/CMSIS/Include/cmsis_gcc.h ****   \brief   Get Fault Mask
 524:Drivers/CMSIS/Include/cmsis_gcc.h ****   \details Returns the current value of the Fault Mask register.
 525:Drivers/CMSIS/Include/cmsis_gcc.h ****   \return               Fault Mask register value
 526:Drivers/CMSIS/Include/cmsis_gcc.h ****  */
 527:Drivers/CMSIS/Include/cmsis_gcc.h **** __STATIC_FORCEINLINE uint32_t __get_FAULTMASK(void)
 528:Drivers/CMSIS/Include/cmsis_gcc.h **** {
 529:Drivers/CMSIS/Include/cmsis_gcc.h ****   uint32_t result;
 530:Drivers/CMSIS/Include/cmsis_gcc.h **** 
 531:Drivers/CMSIS/Include/cmsis_gcc.h ****   __ASM volatile ("MRS %0, faultmask" : "=r" (result) );
 532:Drivers/CMSIS/Include/cmsis_gcc.h ****   return(result);
 533:Drivers/CMSIS/Include/cmsis_gcc.h **** }
 534:Drivers/CMSIS/Include/cmsis_gcc.h **** 
 535:Drivers/CMSIS/Include/cmsis_gcc.h **** 
 536:Drivers/CMSIS/Include/cmsis_gcc.h **** #if (defined (__ARM_FEATURE_CMSE ) && (__ARM_FEATURE_CMSE == 3))
 537:Drivers/CMSIS/Include/cmsis_gcc.h **** /**
 538:Drivers/CMSIS/Include/cmsis_gcc.h ****   \brief   Get Fault Mask (non-secure)
 539:Drivers/CMSIS/Include/cmsis_gcc.h ****   \details Returns the current value of the non-secure Fault Mask register when in secure state.
 540:Drivers/CMSIS/Include/cmsis_gcc.h ****   \return               Fault Mask register value
 541:Drivers/CMSIS/Include/cmsis_gcc.h ****  */
 542:Drivers/CMSIS/Include/cmsis_gcc.h **** __STATIC_FORCEINLINE uint32_t __TZ_get_FAULTMASK_NS(void)
 543:Drivers/CMSIS/Include/cmsis_gcc.h **** {
 544:Drivers/CMSIS/Include/cmsis_gcc.h ****   uint32_t result;
 545:Drivers/CMSIS/Include/cmsis_gcc.h **** 
 546:Drivers/CMSIS/Include/cmsis_gcc.h ****   __ASM volatile ("MRS %0, faultmask_ns" : "=r" (result) );
 547:Drivers/CMSIS/Include/cmsis_gcc.h ****   return(result);
 548:Drivers/CMSIS/Include/cmsis_gcc.h **** }
 549:Drivers/CMSIS/Include/cmsis_gcc.h **** #endif
 550:Drivers/CMSIS/Include/cmsis_gcc.h **** 
 551:Drivers/CMSIS/Include/cmsis_gcc.h **** 
 552:Drivers/CMSIS/Include/cmsis_gcc.h **** /**
 553:Drivers/CMSIS/Include/cmsis_gcc.h ****   \brief   Set Fault Mask
 554:Drivers/CMSIS/Include/cmsis_gcc.h ****   \details Assigns the given value to the Fault Mask register.
 555:Drivers/CMSIS/Include/cmsis_gcc.h ****   \param [in]    faultMask  Fault Mask value to set
 556:Drivers/CMSIS/Include/cmsis_gcc.h ****  */
 557:Drivers/CMSIS/Include/cmsis_gcc.h **** __STATIC_FORCEINLINE void __set_FAULTMASK(uint32_t faultMask)
 558:Drivers/CMSIS/Include/cmsis_gcc.h **** {
 559:Drivers/CMSIS/Include/cmsis_gcc.h ****   __ASM volatile ("MSR faultmask, %0" : : "r" (faultMask) : "memory");
 560:Drivers/CMSIS/Include/cmsis_gcc.h **** }
 561:Drivers/CMSIS/Include/cmsis_gcc.h **** 
 562:Drivers/CMSIS/Include/cmsis_gcc.h **** 
 563:Drivers/CMSIS/Include/cmsis_gcc.h **** #if (defined (__ARM_FEATURE_CMSE ) && (__ARM_FEATURE_CMSE == 3))
 564:Drivers/CMSIS/Include/cmsis_gcc.h **** /**
ARM GAS  /tmp/ccJSV5tm.s 			page 16


 565:Drivers/CMSIS/Include/cmsis_gcc.h ****   \brief   Set Fault Mask (non-secure)
 566:Drivers/CMSIS/Include/cmsis_gcc.h ****   \details Assigns the given value to the non-secure Fault Mask register when in secure state.
 567:Drivers/CMSIS/Include/cmsis_gcc.h ****   \param [in]    faultMask  Fault Mask value to set
 568:Drivers/CMSIS/Include/cmsis_gcc.h ****  */
 569:Drivers/CMSIS/Include/cmsis_gcc.h **** __STATIC_FORCEINLINE void __TZ_set_FAULTMASK_NS(uint32_t faultMask)
 570:Drivers/CMSIS/Include/cmsis_gcc.h **** {
 571:Drivers/CMSIS/Include/cmsis_gcc.h ****   __ASM volatile ("MSR faultmask_ns, %0" : : "r" (faultMask) : "memory");
 572:Drivers/CMSIS/Include/cmsis_gcc.h **** }
 573:Drivers/CMSIS/Include/cmsis_gcc.h **** #endif
 574:Drivers/CMSIS/Include/cmsis_gcc.h **** 
 575:Drivers/CMSIS/Include/cmsis_gcc.h **** #endif /* ((defined (__ARM_ARCH_7M__      ) && (__ARM_ARCH_7M__      == 1)) || \
 576:Drivers/CMSIS/Include/cmsis_gcc.h ****            (defined (__ARM_ARCH_7EM__     ) && (__ARM_ARCH_7EM__     == 1)) || \
 577:Drivers/CMSIS/Include/cmsis_gcc.h ****            (defined (__ARM_ARCH_8M_MAIN__ ) && (__ARM_ARCH_8M_MAIN__ == 1))    ) */
 578:Drivers/CMSIS/Include/cmsis_gcc.h **** 
 579:Drivers/CMSIS/Include/cmsis_gcc.h **** 
 580:Drivers/CMSIS/Include/cmsis_gcc.h **** #if ((defined (__ARM_ARCH_8M_MAIN__ ) && (__ARM_ARCH_8M_MAIN__ == 1)) || \
 581:Drivers/CMSIS/Include/cmsis_gcc.h ****      (defined (__ARM_ARCH_8M_BASE__ ) && (__ARM_ARCH_8M_BASE__ == 1))    )
 582:Drivers/CMSIS/Include/cmsis_gcc.h **** 
 583:Drivers/CMSIS/Include/cmsis_gcc.h **** /**
 584:Drivers/CMSIS/Include/cmsis_gcc.h ****   \brief   Get Process Stack Pointer Limit
 585:Drivers/CMSIS/Include/cmsis_gcc.h ****   Devices without ARMv8-M Main Extensions (i.e. Cortex-M23) lack the non-secure
 586:Drivers/CMSIS/Include/cmsis_gcc.h ****   Stack Pointer Limit register hence zero is returned always in non-secure
 587:Drivers/CMSIS/Include/cmsis_gcc.h ****   mode.
 588:Drivers/CMSIS/Include/cmsis_gcc.h ****   
 589:Drivers/CMSIS/Include/cmsis_gcc.h ****   \details Returns the current value of the Process Stack Pointer Limit (PSPLIM).
 590:Drivers/CMSIS/Include/cmsis_gcc.h ****   \return               PSPLIM Register value
 591:Drivers/CMSIS/Include/cmsis_gcc.h ****  */
 592:Drivers/CMSIS/Include/cmsis_gcc.h **** __STATIC_FORCEINLINE uint32_t __get_PSPLIM(void)
 593:Drivers/CMSIS/Include/cmsis_gcc.h **** {
 594:Drivers/CMSIS/Include/cmsis_gcc.h **** #if (!(defined (__ARM_ARCH_8M_MAIN__ ) && (__ARM_ARCH_8M_MAIN__ == 1)) && \
 595:Drivers/CMSIS/Include/cmsis_gcc.h ****     (!defined (__ARM_FEATURE_CMSE) || (__ARM_FEATURE_CMSE < 3)))
 596:Drivers/CMSIS/Include/cmsis_gcc.h ****     // without main extensions, the non-secure PSPLIM is RAZ/WI
 597:Drivers/CMSIS/Include/cmsis_gcc.h ****   return 0U;
 598:Drivers/CMSIS/Include/cmsis_gcc.h **** #else
 599:Drivers/CMSIS/Include/cmsis_gcc.h ****   uint32_t result;
 600:Drivers/CMSIS/Include/cmsis_gcc.h ****   __ASM volatile ("MRS %0, psplim"  : "=r" (result) );
 601:Drivers/CMSIS/Include/cmsis_gcc.h ****   return result;
 602:Drivers/CMSIS/Include/cmsis_gcc.h **** #endif
 603:Drivers/CMSIS/Include/cmsis_gcc.h **** }
 604:Drivers/CMSIS/Include/cmsis_gcc.h **** 
 605:Drivers/CMSIS/Include/cmsis_gcc.h **** #if (defined (__ARM_FEATURE_CMSE) && (__ARM_FEATURE_CMSE == 3))
 606:Drivers/CMSIS/Include/cmsis_gcc.h **** /**
 607:Drivers/CMSIS/Include/cmsis_gcc.h ****   \brief   Get Process Stack Pointer Limit (non-secure)
 608:Drivers/CMSIS/Include/cmsis_gcc.h ****   Devices without ARMv8-M Main Extensions (i.e. Cortex-M23) lack the non-secure
 609:Drivers/CMSIS/Include/cmsis_gcc.h ****   Stack Pointer Limit register hence zero is returned always.
 610:Drivers/CMSIS/Include/cmsis_gcc.h **** 
 611:Drivers/CMSIS/Include/cmsis_gcc.h ****   \details Returns the current value of the non-secure Process Stack Pointer Limit (PSPLIM) when in
 612:Drivers/CMSIS/Include/cmsis_gcc.h ****   \return               PSPLIM Register value
 613:Drivers/CMSIS/Include/cmsis_gcc.h ****  */
 614:Drivers/CMSIS/Include/cmsis_gcc.h **** __STATIC_FORCEINLINE uint32_t __TZ_get_PSPLIM_NS(void)
 615:Drivers/CMSIS/Include/cmsis_gcc.h **** {
 616:Drivers/CMSIS/Include/cmsis_gcc.h **** #if (!(defined (__ARM_ARCH_8M_MAIN__ ) && (__ARM_ARCH_8M_MAIN__ == 1)))
 617:Drivers/CMSIS/Include/cmsis_gcc.h ****   // without main extensions, the non-secure PSPLIM is RAZ/WI
 618:Drivers/CMSIS/Include/cmsis_gcc.h ****   return 0U;
 619:Drivers/CMSIS/Include/cmsis_gcc.h **** #else
 620:Drivers/CMSIS/Include/cmsis_gcc.h ****   uint32_t result;
 621:Drivers/CMSIS/Include/cmsis_gcc.h ****   __ASM volatile ("MRS %0, psplim_ns"  : "=r" (result) );
ARM GAS  /tmp/ccJSV5tm.s 			page 17


 622:Drivers/CMSIS/Include/cmsis_gcc.h ****   return result;
 623:Drivers/CMSIS/Include/cmsis_gcc.h **** #endif
 624:Drivers/CMSIS/Include/cmsis_gcc.h **** }
 625:Drivers/CMSIS/Include/cmsis_gcc.h **** #endif
 626:Drivers/CMSIS/Include/cmsis_gcc.h **** 
 627:Drivers/CMSIS/Include/cmsis_gcc.h **** 
 628:Drivers/CMSIS/Include/cmsis_gcc.h **** /**
 629:Drivers/CMSIS/Include/cmsis_gcc.h ****   \brief   Set Process Stack Pointer Limit
 630:Drivers/CMSIS/Include/cmsis_gcc.h ****   Devices without ARMv8-M Main Extensions (i.e. Cortex-M23) lack the non-secure
 631:Drivers/CMSIS/Include/cmsis_gcc.h ****   Stack Pointer Limit register hence the write is silently ignored in non-secure
 632:Drivers/CMSIS/Include/cmsis_gcc.h ****   mode.
 633:Drivers/CMSIS/Include/cmsis_gcc.h ****   
 634:Drivers/CMSIS/Include/cmsis_gcc.h ****   \details Assigns the given value to the Process Stack Pointer Limit (PSPLIM).
 635:Drivers/CMSIS/Include/cmsis_gcc.h ****   \param [in]    ProcStackPtrLimit  Process Stack Pointer Limit value to set
 636:Drivers/CMSIS/Include/cmsis_gcc.h ****  */
 637:Drivers/CMSIS/Include/cmsis_gcc.h **** __STATIC_FORCEINLINE void __set_PSPLIM(uint32_t ProcStackPtrLimit)
 638:Drivers/CMSIS/Include/cmsis_gcc.h **** {
 639:Drivers/CMSIS/Include/cmsis_gcc.h **** #if (!(defined (__ARM_ARCH_8M_MAIN__ ) && (__ARM_ARCH_8M_MAIN__ == 1)) && \
 640:Drivers/CMSIS/Include/cmsis_gcc.h ****     (!defined (__ARM_FEATURE_CMSE) || (__ARM_FEATURE_CMSE < 3)))
 641:Drivers/CMSIS/Include/cmsis_gcc.h ****   // without main extensions, the non-secure PSPLIM is RAZ/WI
 642:Drivers/CMSIS/Include/cmsis_gcc.h ****   (void)ProcStackPtrLimit;
 643:Drivers/CMSIS/Include/cmsis_gcc.h **** #else
 644:Drivers/CMSIS/Include/cmsis_gcc.h ****   __ASM volatile ("MSR psplim, %0" : : "r" (ProcStackPtrLimit));
 645:Drivers/CMSIS/Include/cmsis_gcc.h **** #endif
 646:Drivers/CMSIS/Include/cmsis_gcc.h **** }
 647:Drivers/CMSIS/Include/cmsis_gcc.h **** 
 648:Drivers/CMSIS/Include/cmsis_gcc.h **** 
 649:Drivers/CMSIS/Include/cmsis_gcc.h **** #if (defined (__ARM_FEATURE_CMSE  ) && (__ARM_FEATURE_CMSE   == 3))
 650:Drivers/CMSIS/Include/cmsis_gcc.h **** /**
 651:Drivers/CMSIS/Include/cmsis_gcc.h ****   \brief   Set Process Stack Pointer (non-secure)
 652:Drivers/CMSIS/Include/cmsis_gcc.h ****   Devices without ARMv8-M Main Extensions (i.e. Cortex-M23) lack the non-secure
 653:Drivers/CMSIS/Include/cmsis_gcc.h ****   Stack Pointer Limit register hence the write is silently ignored.
 654:Drivers/CMSIS/Include/cmsis_gcc.h **** 
 655:Drivers/CMSIS/Include/cmsis_gcc.h ****   \details Assigns the given value to the non-secure Process Stack Pointer Limit (PSPLIM) when in s
 656:Drivers/CMSIS/Include/cmsis_gcc.h ****   \param [in]    ProcStackPtrLimit  Process Stack Pointer Limit value to set
 657:Drivers/CMSIS/Include/cmsis_gcc.h ****  */
 658:Drivers/CMSIS/Include/cmsis_gcc.h **** __STATIC_FORCEINLINE void __TZ_set_PSPLIM_NS(uint32_t ProcStackPtrLimit)
 659:Drivers/CMSIS/Include/cmsis_gcc.h **** {
 660:Drivers/CMSIS/Include/cmsis_gcc.h **** #if (!(defined (__ARM_ARCH_8M_MAIN__ ) && (__ARM_ARCH_8M_MAIN__ == 1)))
 661:Drivers/CMSIS/Include/cmsis_gcc.h ****   // without main extensions, the non-secure PSPLIM is RAZ/WI
 662:Drivers/CMSIS/Include/cmsis_gcc.h ****   (void)ProcStackPtrLimit;
 663:Drivers/CMSIS/Include/cmsis_gcc.h **** #else
 664:Drivers/CMSIS/Include/cmsis_gcc.h ****   __ASM volatile ("MSR psplim_ns, %0\n" : : "r" (ProcStackPtrLimit));
 665:Drivers/CMSIS/Include/cmsis_gcc.h **** #endif
 666:Drivers/CMSIS/Include/cmsis_gcc.h **** }
 667:Drivers/CMSIS/Include/cmsis_gcc.h **** #endif
 668:Drivers/CMSIS/Include/cmsis_gcc.h **** 
 669:Drivers/CMSIS/Include/cmsis_gcc.h **** 
 670:Drivers/CMSIS/Include/cmsis_gcc.h **** /**
 671:Drivers/CMSIS/Include/cmsis_gcc.h ****   \brief   Get Main Stack Pointer Limit
 672:Drivers/CMSIS/Include/cmsis_gcc.h ****   Devices without ARMv8-M Main Extensions (i.e. Cortex-M23) lack the non-secure
 673:Drivers/CMSIS/Include/cmsis_gcc.h ****   Stack Pointer Limit register hence zero is returned always in non-secure
 674:Drivers/CMSIS/Include/cmsis_gcc.h ****   mode.
 675:Drivers/CMSIS/Include/cmsis_gcc.h **** 
 676:Drivers/CMSIS/Include/cmsis_gcc.h ****   \details Returns the current value of the Main Stack Pointer Limit (MSPLIM).
 677:Drivers/CMSIS/Include/cmsis_gcc.h ****   \return               MSPLIM Register value
 678:Drivers/CMSIS/Include/cmsis_gcc.h ****  */
ARM GAS  /tmp/ccJSV5tm.s 			page 18


 679:Drivers/CMSIS/Include/cmsis_gcc.h **** __STATIC_FORCEINLINE uint32_t __get_MSPLIM(void)
 680:Drivers/CMSIS/Include/cmsis_gcc.h **** {
 681:Drivers/CMSIS/Include/cmsis_gcc.h **** #if (!(defined (__ARM_ARCH_8M_MAIN__ ) && (__ARM_ARCH_8M_MAIN__ == 1)) && \
 682:Drivers/CMSIS/Include/cmsis_gcc.h ****     (!defined (__ARM_FEATURE_CMSE) || (__ARM_FEATURE_CMSE < 3)))
 683:Drivers/CMSIS/Include/cmsis_gcc.h ****   // without main extensions, the non-secure MSPLIM is RAZ/WI
 684:Drivers/CMSIS/Include/cmsis_gcc.h ****   return 0U;
 685:Drivers/CMSIS/Include/cmsis_gcc.h **** #else
 686:Drivers/CMSIS/Include/cmsis_gcc.h ****   uint32_t result;
 687:Drivers/CMSIS/Include/cmsis_gcc.h ****   __ASM volatile ("MRS %0, msplim" : "=r" (result) );
 688:Drivers/CMSIS/Include/cmsis_gcc.h ****   return result;
 689:Drivers/CMSIS/Include/cmsis_gcc.h **** #endif
 690:Drivers/CMSIS/Include/cmsis_gcc.h **** }
 691:Drivers/CMSIS/Include/cmsis_gcc.h **** 
 692:Drivers/CMSIS/Include/cmsis_gcc.h **** 
 693:Drivers/CMSIS/Include/cmsis_gcc.h **** #if (defined (__ARM_FEATURE_CMSE  ) && (__ARM_FEATURE_CMSE   == 3))
 694:Drivers/CMSIS/Include/cmsis_gcc.h **** /**
 695:Drivers/CMSIS/Include/cmsis_gcc.h ****   \brief   Get Main Stack Pointer Limit (non-secure)
 696:Drivers/CMSIS/Include/cmsis_gcc.h ****   Devices without ARMv8-M Main Extensions (i.e. Cortex-M23) lack the non-secure
 697:Drivers/CMSIS/Include/cmsis_gcc.h ****   Stack Pointer Limit register hence zero is returned always.
 698:Drivers/CMSIS/Include/cmsis_gcc.h **** 
 699:Drivers/CMSIS/Include/cmsis_gcc.h ****   \details Returns the current value of the non-secure Main Stack Pointer Limit(MSPLIM) when in sec
 700:Drivers/CMSIS/Include/cmsis_gcc.h ****   \return               MSPLIM Register value
 701:Drivers/CMSIS/Include/cmsis_gcc.h ****  */
 702:Drivers/CMSIS/Include/cmsis_gcc.h **** __STATIC_FORCEINLINE uint32_t __TZ_get_MSPLIM_NS(void)
 703:Drivers/CMSIS/Include/cmsis_gcc.h **** {
 704:Drivers/CMSIS/Include/cmsis_gcc.h **** #if (!(defined (__ARM_ARCH_8M_MAIN__ ) && (__ARM_ARCH_8M_MAIN__ == 1)))
 705:Drivers/CMSIS/Include/cmsis_gcc.h ****   // without main extensions, the non-secure MSPLIM is RAZ/WI
 706:Drivers/CMSIS/Include/cmsis_gcc.h ****   return 0U;
 707:Drivers/CMSIS/Include/cmsis_gcc.h **** #else
 708:Drivers/CMSIS/Include/cmsis_gcc.h ****   uint32_t result;
 709:Drivers/CMSIS/Include/cmsis_gcc.h ****   __ASM volatile ("MRS %0, msplim_ns" : "=r" (result) );
 710:Drivers/CMSIS/Include/cmsis_gcc.h ****   return result;
 711:Drivers/CMSIS/Include/cmsis_gcc.h **** #endif
 712:Drivers/CMSIS/Include/cmsis_gcc.h **** }
 713:Drivers/CMSIS/Include/cmsis_gcc.h **** #endif
 714:Drivers/CMSIS/Include/cmsis_gcc.h **** 
 715:Drivers/CMSIS/Include/cmsis_gcc.h **** 
 716:Drivers/CMSIS/Include/cmsis_gcc.h **** /**
 717:Drivers/CMSIS/Include/cmsis_gcc.h ****   \brief   Set Main Stack Pointer Limit
 718:Drivers/CMSIS/Include/cmsis_gcc.h ****   Devices without ARMv8-M Main Extensions (i.e. Cortex-M23) lack the non-secure
 719:Drivers/CMSIS/Include/cmsis_gcc.h ****   Stack Pointer Limit register hence the write is silently ignored in non-secure
 720:Drivers/CMSIS/Include/cmsis_gcc.h ****   mode.
 721:Drivers/CMSIS/Include/cmsis_gcc.h **** 
 722:Drivers/CMSIS/Include/cmsis_gcc.h ****   \details Assigns the given value to the Main Stack Pointer Limit (MSPLIM).
 723:Drivers/CMSIS/Include/cmsis_gcc.h ****   \param [in]    MainStackPtrLimit  Main Stack Pointer Limit value to set
 724:Drivers/CMSIS/Include/cmsis_gcc.h ****  */
 725:Drivers/CMSIS/Include/cmsis_gcc.h **** __STATIC_FORCEINLINE void __set_MSPLIM(uint32_t MainStackPtrLimit)
 726:Drivers/CMSIS/Include/cmsis_gcc.h **** {
 727:Drivers/CMSIS/Include/cmsis_gcc.h **** #if (!(defined (__ARM_ARCH_8M_MAIN__ ) && (__ARM_ARCH_8M_MAIN__ == 1)) && \
 728:Drivers/CMSIS/Include/cmsis_gcc.h ****     (!defined (__ARM_FEATURE_CMSE) || (__ARM_FEATURE_CMSE < 3)))
 729:Drivers/CMSIS/Include/cmsis_gcc.h ****   // without main extensions, the non-secure MSPLIM is RAZ/WI
 730:Drivers/CMSIS/Include/cmsis_gcc.h ****   (void)MainStackPtrLimit;
 731:Drivers/CMSIS/Include/cmsis_gcc.h **** #else
 732:Drivers/CMSIS/Include/cmsis_gcc.h ****   __ASM volatile ("MSR msplim, %0" : : "r" (MainStackPtrLimit));
 733:Drivers/CMSIS/Include/cmsis_gcc.h **** #endif
 734:Drivers/CMSIS/Include/cmsis_gcc.h **** }
 735:Drivers/CMSIS/Include/cmsis_gcc.h **** 
ARM GAS  /tmp/ccJSV5tm.s 			page 19


 736:Drivers/CMSIS/Include/cmsis_gcc.h **** 
 737:Drivers/CMSIS/Include/cmsis_gcc.h **** #if (defined (__ARM_FEATURE_CMSE  ) && (__ARM_FEATURE_CMSE   == 3))
 738:Drivers/CMSIS/Include/cmsis_gcc.h **** /**
 739:Drivers/CMSIS/Include/cmsis_gcc.h ****   \brief   Set Main Stack Pointer Limit (non-secure)
 740:Drivers/CMSIS/Include/cmsis_gcc.h ****   Devices without ARMv8-M Main Extensions (i.e. Cortex-M23) lack the non-secure
 741:Drivers/CMSIS/Include/cmsis_gcc.h ****   Stack Pointer Limit register hence the write is silently ignored.
 742:Drivers/CMSIS/Include/cmsis_gcc.h **** 
 743:Drivers/CMSIS/Include/cmsis_gcc.h ****   \details Assigns the given value to the non-secure Main Stack Pointer Limit (MSPLIM) when in secu
 744:Drivers/CMSIS/Include/cmsis_gcc.h ****   \param [in]    MainStackPtrLimit  Main Stack Pointer value to set
 745:Drivers/CMSIS/Include/cmsis_gcc.h ****  */
 746:Drivers/CMSIS/Include/cmsis_gcc.h **** __STATIC_FORCEINLINE void __TZ_set_MSPLIM_NS(uint32_t MainStackPtrLimit)
 747:Drivers/CMSIS/Include/cmsis_gcc.h **** {
 748:Drivers/CMSIS/Include/cmsis_gcc.h **** #if (!(defined (__ARM_ARCH_8M_MAIN__ ) && (__ARM_ARCH_8M_MAIN__ == 1)))
 749:Drivers/CMSIS/Include/cmsis_gcc.h ****   // without main extensions, the non-secure MSPLIM is RAZ/WI
 750:Drivers/CMSIS/Include/cmsis_gcc.h ****   (void)MainStackPtrLimit;
 751:Drivers/CMSIS/Include/cmsis_gcc.h **** #else
 752:Drivers/CMSIS/Include/cmsis_gcc.h ****   __ASM volatile ("MSR msplim_ns, %0" : : "r" (MainStackPtrLimit));
 753:Drivers/CMSIS/Include/cmsis_gcc.h **** #endif
 754:Drivers/CMSIS/Include/cmsis_gcc.h **** }
 755:Drivers/CMSIS/Include/cmsis_gcc.h **** #endif
 756:Drivers/CMSIS/Include/cmsis_gcc.h **** 
 757:Drivers/CMSIS/Include/cmsis_gcc.h **** #endif /* ((defined (__ARM_ARCH_8M_MAIN__ ) && (__ARM_ARCH_8M_MAIN__ == 1)) || \
 758:Drivers/CMSIS/Include/cmsis_gcc.h ****            (defined (__ARM_ARCH_8M_BASE__ ) && (__ARM_ARCH_8M_BASE__ == 1))    ) */
 759:Drivers/CMSIS/Include/cmsis_gcc.h **** 
 760:Drivers/CMSIS/Include/cmsis_gcc.h **** 
 761:Drivers/CMSIS/Include/cmsis_gcc.h **** /**
 762:Drivers/CMSIS/Include/cmsis_gcc.h ****   \brief   Get FPSCR
 763:Drivers/CMSIS/Include/cmsis_gcc.h ****   \details Returns the current value of the Floating Point Status/Control register.
 764:Drivers/CMSIS/Include/cmsis_gcc.h ****   \return               Floating Point Status/Control register value
 765:Drivers/CMSIS/Include/cmsis_gcc.h ****  */
 766:Drivers/CMSIS/Include/cmsis_gcc.h **** __STATIC_FORCEINLINE uint32_t __get_FPSCR(void)
 767:Drivers/CMSIS/Include/cmsis_gcc.h **** {
 768:Drivers/CMSIS/Include/cmsis_gcc.h **** #if ((defined (__FPU_PRESENT) && (__FPU_PRESENT == 1U)) && \
 769:Drivers/CMSIS/Include/cmsis_gcc.h ****      (defined (__FPU_USED   ) && (__FPU_USED    == 1U))     )
 770:Drivers/CMSIS/Include/cmsis_gcc.h **** #if __has_builtin(__builtin_arm_get_fpscr) 
 771:Drivers/CMSIS/Include/cmsis_gcc.h **** // Re-enable using built-in when GCC has been fixed
 772:Drivers/CMSIS/Include/cmsis_gcc.h **** // || (__GNUC__ > 7) || (__GNUC__ == 7 && __GNUC_MINOR__ >= 2)
 773:Drivers/CMSIS/Include/cmsis_gcc.h ****   /* see https://gcc.gnu.org/ml/gcc-patches/2017-04/msg00443.html */
 774:Drivers/CMSIS/Include/cmsis_gcc.h ****   return __builtin_arm_get_fpscr();
 775:Drivers/CMSIS/Include/cmsis_gcc.h **** #else
 776:Drivers/CMSIS/Include/cmsis_gcc.h ****   uint32_t result;
 777:Drivers/CMSIS/Include/cmsis_gcc.h **** 
 778:Drivers/CMSIS/Include/cmsis_gcc.h ****   __ASM volatile ("VMRS %0, fpscr" : "=r" (result) );
 779:Drivers/CMSIS/Include/cmsis_gcc.h ****   return(result);
 780:Drivers/CMSIS/Include/cmsis_gcc.h **** #endif
 781:Drivers/CMSIS/Include/cmsis_gcc.h **** #else
 782:Drivers/CMSIS/Include/cmsis_gcc.h ****   return(0U);
 783:Drivers/CMSIS/Include/cmsis_gcc.h **** #endif
 784:Drivers/CMSIS/Include/cmsis_gcc.h **** }
 785:Drivers/CMSIS/Include/cmsis_gcc.h **** 
 786:Drivers/CMSIS/Include/cmsis_gcc.h **** 
 787:Drivers/CMSIS/Include/cmsis_gcc.h **** /**
 788:Drivers/CMSIS/Include/cmsis_gcc.h ****   \brief   Set FPSCR
 789:Drivers/CMSIS/Include/cmsis_gcc.h ****   \details Assigns the given value to the Floating Point Status/Control register.
 790:Drivers/CMSIS/Include/cmsis_gcc.h ****   \param [in]    fpscr  Floating Point Status/Control value to set
 791:Drivers/CMSIS/Include/cmsis_gcc.h ****  */
 792:Drivers/CMSIS/Include/cmsis_gcc.h **** __STATIC_FORCEINLINE void __set_FPSCR(uint32_t fpscr)
ARM GAS  /tmp/ccJSV5tm.s 			page 20


 793:Drivers/CMSIS/Include/cmsis_gcc.h **** {
 794:Drivers/CMSIS/Include/cmsis_gcc.h **** #if ((defined (__FPU_PRESENT) && (__FPU_PRESENT == 1U)) && \
 795:Drivers/CMSIS/Include/cmsis_gcc.h ****      (defined (__FPU_USED   ) && (__FPU_USED    == 1U))     )
 796:Drivers/CMSIS/Include/cmsis_gcc.h **** #if __has_builtin(__builtin_arm_set_fpscr)
 797:Drivers/CMSIS/Include/cmsis_gcc.h **** // Re-enable using built-in when GCC has been fixed
 798:Drivers/CMSIS/Include/cmsis_gcc.h **** // || (__GNUC__ > 7) || (__GNUC__ == 7 && __GNUC_MINOR__ >= 2)
 799:Drivers/CMSIS/Include/cmsis_gcc.h ****   /* see https://gcc.gnu.org/ml/gcc-patches/2017-04/msg00443.html */
 800:Drivers/CMSIS/Include/cmsis_gcc.h ****   __builtin_arm_set_fpscr(fpscr);
 801:Drivers/CMSIS/Include/cmsis_gcc.h **** #else
 802:Drivers/CMSIS/Include/cmsis_gcc.h ****   __ASM volatile ("VMSR fpscr, %0" : : "r" (fpscr) : "vfpcc", "memory");
 803:Drivers/CMSIS/Include/cmsis_gcc.h **** #endif
 804:Drivers/CMSIS/Include/cmsis_gcc.h **** #else
 805:Drivers/CMSIS/Include/cmsis_gcc.h ****   (void)fpscr;
 806:Drivers/CMSIS/Include/cmsis_gcc.h **** #endif
 807:Drivers/CMSIS/Include/cmsis_gcc.h **** }
 808:Drivers/CMSIS/Include/cmsis_gcc.h **** 
 809:Drivers/CMSIS/Include/cmsis_gcc.h **** 
 810:Drivers/CMSIS/Include/cmsis_gcc.h **** /*@} end of CMSIS_Core_RegAccFunctions */
 811:Drivers/CMSIS/Include/cmsis_gcc.h **** 
 812:Drivers/CMSIS/Include/cmsis_gcc.h **** 
 813:Drivers/CMSIS/Include/cmsis_gcc.h **** /* ##########################  Core Instruction Access  ######################### */
 814:Drivers/CMSIS/Include/cmsis_gcc.h **** /** \defgroup CMSIS_Core_InstructionInterface CMSIS Core Instruction Interface
 815:Drivers/CMSIS/Include/cmsis_gcc.h ****   Access to dedicated instructions
 816:Drivers/CMSIS/Include/cmsis_gcc.h ****   @{
 817:Drivers/CMSIS/Include/cmsis_gcc.h **** */
 818:Drivers/CMSIS/Include/cmsis_gcc.h **** 
 819:Drivers/CMSIS/Include/cmsis_gcc.h **** /* Define macros for porting to both thumb1 and thumb2.
 820:Drivers/CMSIS/Include/cmsis_gcc.h ****  * For thumb1, use low register (r0-r7), specified by constraint "l"
 821:Drivers/CMSIS/Include/cmsis_gcc.h ****  * Otherwise, use general registers, specified by constraint "r" */
 822:Drivers/CMSIS/Include/cmsis_gcc.h **** #if defined (__thumb__) && !defined (__thumb2__)
 823:Drivers/CMSIS/Include/cmsis_gcc.h **** #define __CMSIS_GCC_OUT_REG(r) "=l" (r)
 824:Drivers/CMSIS/Include/cmsis_gcc.h **** #define __CMSIS_GCC_RW_REG(r) "+l" (r)
 825:Drivers/CMSIS/Include/cmsis_gcc.h **** #define __CMSIS_GCC_USE_REG(r) "l" (r)
 826:Drivers/CMSIS/Include/cmsis_gcc.h **** #else
 827:Drivers/CMSIS/Include/cmsis_gcc.h **** #define __CMSIS_GCC_OUT_REG(r) "=r" (r)
 828:Drivers/CMSIS/Include/cmsis_gcc.h **** #define __CMSIS_GCC_RW_REG(r) "+r" (r)
 829:Drivers/CMSIS/Include/cmsis_gcc.h **** #define __CMSIS_GCC_USE_REG(r) "r" (r)
 830:Drivers/CMSIS/Include/cmsis_gcc.h **** #endif
 831:Drivers/CMSIS/Include/cmsis_gcc.h **** 
 832:Drivers/CMSIS/Include/cmsis_gcc.h **** /**
 833:Drivers/CMSIS/Include/cmsis_gcc.h ****   \brief   No Operation
 834:Drivers/CMSIS/Include/cmsis_gcc.h ****   \details No Operation does nothing. This instruction can be used for code alignment purposes.
 835:Drivers/CMSIS/Include/cmsis_gcc.h ****  */
 836:Drivers/CMSIS/Include/cmsis_gcc.h **** #define __NOP()                             __ASM volatile ("nop")
 837:Drivers/CMSIS/Include/cmsis_gcc.h **** 
 838:Drivers/CMSIS/Include/cmsis_gcc.h **** /**
 839:Drivers/CMSIS/Include/cmsis_gcc.h ****   \brief   Wait For Interrupt
 840:Drivers/CMSIS/Include/cmsis_gcc.h ****   \details Wait For Interrupt is a hint instruction that suspends execution until one of a number o
 841:Drivers/CMSIS/Include/cmsis_gcc.h ****  */
 842:Drivers/CMSIS/Include/cmsis_gcc.h **** #define __WFI()                             __ASM volatile ("wfi")
 843:Drivers/CMSIS/Include/cmsis_gcc.h **** 
 844:Drivers/CMSIS/Include/cmsis_gcc.h **** 
 845:Drivers/CMSIS/Include/cmsis_gcc.h **** /**
 846:Drivers/CMSIS/Include/cmsis_gcc.h ****   \brief   Wait For Event
 847:Drivers/CMSIS/Include/cmsis_gcc.h ****   \details Wait For Event is a hint instruction that permits the processor to enter
 848:Drivers/CMSIS/Include/cmsis_gcc.h ****            a low-power state until one of a number of events occurs.
 849:Drivers/CMSIS/Include/cmsis_gcc.h ****  */
ARM GAS  /tmp/ccJSV5tm.s 			page 21


 850:Drivers/CMSIS/Include/cmsis_gcc.h **** #define __WFE()                             __ASM volatile ("wfe")
 851:Drivers/CMSIS/Include/cmsis_gcc.h **** 
 852:Drivers/CMSIS/Include/cmsis_gcc.h **** 
 853:Drivers/CMSIS/Include/cmsis_gcc.h **** /**
 854:Drivers/CMSIS/Include/cmsis_gcc.h ****   \brief   Send Event
 855:Drivers/CMSIS/Include/cmsis_gcc.h ****   \details Send Event is a hint instruction. It causes an event to be signaled to the CPU.
 856:Drivers/CMSIS/Include/cmsis_gcc.h ****  */
 857:Drivers/CMSIS/Include/cmsis_gcc.h **** #define __SEV()                             __ASM volatile ("sev")
 858:Drivers/CMSIS/Include/cmsis_gcc.h **** 
 859:Drivers/CMSIS/Include/cmsis_gcc.h **** 
 860:Drivers/CMSIS/Include/cmsis_gcc.h **** /**
 861:Drivers/CMSIS/Include/cmsis_gcc.h ****   \brief   Instruction Synchronization Barrier
 862:Drivers/CMSIS/Include/cmsis_gcc.h ****   \details Instruction Synchronization Barrier flushes the pipeline in the processor,
 863:Drivers/CMSIS/Include/cmsis_gcc.h ****            so that all instructions following the ISB are fetched from cache or memory,
 864:Drivers/CMSIS/Include/cmsis_gcc.h ****            after the instruction has been completed.
 865:Drivers/CMSIS/Include/cmsis_gcc.h ****  */
 866:Drivers/CMSIS/Include/cmsis_gcc.h **** __STATIC_FORCEINLINE void __ISB(void)
 867:Drivers/CMSIS/Include/cmsis_gcc.h **** {
 868:Drivers/CMSIS/Include/cmsis_gcc.h ****   __ASM volatile ("isb 0xF":::"memory");
 869:Drivers/CMSIS/Include/cmsis_gcc.h **** }
 870:Drivers/CMSIS/Include/cmsis_gcc.h **** 
 871:Drivers/CMSIS/Include/cmsis_gcc.h **** 
 872:Drivers/CMSIS/Include/cmsis_gcc.h **** /**
 873:Drivers/CMSIS/Include/cmsis_gcc.h ****   \brief   Data Synchronization Barrier
 874:Drivers/CMSIS/Include/cmsis_gcc.h ****   \details Acts as a special kind of Data Memory Barrier.
 875:Drivers/CMSIS/Include/cmsis_gcc.h ****            It completes when all explicit memory accesses before this instruction complete.
 876:Drivers/CMSIS/Include/cmsis_gcc.h ****  */
 877:Drivers/CMSIS/Include/cmsis_gcc.h **** __STATIC_FORCEINLINE void __DSB(void)
 878:Drivers/CMSIS/Include/cmsis_gcc.h **** {
 879:Drivers/CMSIS/Include/cmsis_gcc.h ****   __ASM volatile ("dsb 0xF":::"memory");
 880:Drivers/CMSIS/Include/cmsis_gcc.h **** }
 881:Drivers/CMSIS/Include/cmsis_gcc.h **** 
 882:Drivers/CMSIS/Include/cmsis_gcc.h **** 
 883:Drivers/CMSIS/Include/cmsis_gcc.h **** /**
 884:Drivers/CMSIS/Include/cmsis_gcc.h ****   \brief   Data Memory Barrier
 885:Drivers/CMSIS/Include/cmsis_gcc.h ****   \details Ensures the apparent order of the explicit memory operations before
 886:Drivers/CMSIS/Include/cmsis_gcc.h ****            and after the instruction, without ensuring their completion.
 887:Drivers/CMSIS/Include/cmsis_gcc.h ****  */
 888:Drivers/CMSIS/Include/cmsis_gcc.h **** __STATIC_FORCEINLINE void __DMB(void)
 889:Drivers/CMSIS/Include/cmsis_gcc.h **** {
 890:Drivers/CMSIS/Include/cmsis_gcc.h ****   __ASM volatile ("dmb 0xF":::"memory");
 891:Drivers/CMSIS/Include/cmsis_gcc.h **** }
 892:Drivers/CMSIS/Include/cmsis_gcc.h **** 
 893:Drivers/CMSIS/Include/cmsis_gcc.h **** 
 894:Drivers/CMSIS/Include/cmsis_gcc.h **** /**
 895:Drivers/CMSIS/Include/cmsis_gcc.h ****   \brief   Reverse byte order (32 bit)
 896:Drivers/CMSIS/Include/cmsis_gcc.h ****   \details Reverses the byte order in unsigned integer value. For example, 0x12345678 becomes 0x785
 897:Drivers/CMSIS/Include/cmsis_gcc.h ****   \param [in]    value  Value to reverse
 898:Drivers/CMSIS/Include/cmsis_gcc.h ****   \return               Reversed value
 899:Drivers/CMSIS/Include/cmsis_gcc.h ****  */
 900:Drivers/CMSIS/Include/cmsis_gcc.h **** __STATIC_FORCEINLINE uint32_t __REV(uint32_t value)
 901:Drivers/CMSIS/Include/cmsis_gcc.h **** {
 902:Drivers/CMSIS/Include/cmsis_gcc.h **** #if (__GNUC__ > 4) || (__GNUC__ == 4 && __GNUC_MINOR__ >= 5)
 903:Drivers/CMSIS/Include/cmsis_gcc.h ****   return __builtin_bswap32(value);
 904:Drivers/CMSIS/Include/cmsis_gcc.h **** #else
 905:Drivers/CMSIS/Include/cmsis_gcc.h ****   uint32_t result;
 906:Drivers/CMSIS/Include/cmsis_gcc.h **** 
ARM GAS  /tmp/ccJSV5tm.s 			page 22


 907:Drivers/CMSIS/Include/cmsis_gcc.h ****   __ASM volatile ("rev %0, %1" : __CMSIS_GCC_OUT_REG (result) : __CMSIS_GCC_USE_REG (value) );
 908:Drivers/CMSIS/Include/cmsis_gcc.h ****   return result;
 909:Drivers/CMSIS/Include/cmsis_gcc.h **** #endif
 910:Drivers/CMSIS/Include/cmsis_gcc.h **** }
 911:Drivers/CMSIS/Include/cmsis_gcc.h **** 
 912:Drivers/CMSIS/Include/cmsis_gcc.h **** 
 913:Drivers/CMSIS/Include/cmsis_gcc.h **** /**
 914:Drivers/CMSIS/Include/cmsis_gcc.h ****   \brief   Reverse byte order (16 bit)
 915:Drivers/CMSIS/Include/cmsis_gcc.h ****   \details Reverses the byte order within each halfword of a word. For example, 0x12345678 becomes 
 916:Drivers/CMSIS/Include/cmsis_gcc.h ****   \param [in]    value  Value to reverse
 917:Drivers/CMSIS/Include/cmsis_gcc.h ****   \return               Reversed value
 918:Drivers/CMSIS/Include/cmsis_gcc.h ****  */
 919:Drivers/CMSIS/Include/cmsis_gcc.h **** __STATIC_FORCEINLINE uint32_t __REV16(uint32_t value)
 920:Drivers/CMSIS/Include/cmsis_gcc.h **** {
 921:Drivers/CMSIS/Include/cmsis_gcc.h ****   uint32_t result;
 922:Drivers/CMSIS/Include/cmsis_gcc.h **** 
 923:Drivers/CMSIS/Include/cmsis_gcc.h ****   __ASM volatile ("rev16 %0, %1" : __CMSIS_GCC_OUT_REG (result) : __CMSIS_GCC_USE_REG (value) );
 924:Drivers/CMSIS/Include/cmsis_gcc.h ****   return result;
 925:Drivers/CMSIS/Include/cmsis_gcc.h **** }
 926:Drivers/CMSIS/Include/cmsis_gcc.h **** 
 927:Drivers/CMSIS/Include/cmsis_gcc.h **** 
 928:Drivers/CMSIS/Include/cmsis_gcc.h **** /**
 929:Drivers/CMSIS/Include/cmsis_gcc.h ****   \brief   Reverse byte order (16 bit)
 930:Drivers/CMSIS/Include/cmsis_gcc.h ****   \details Reverses the byte order in a 16-bit value and returns the signed 16-bit result. For exam
 931:Drivers/CMSIS/Include/cmsis_gcc.h ****   \param [in]    value  Value to reverse
 932:Drivers/CMSIS/Include/cmsis_gcc.h ****   \return               Reversed value
 933:Drivers/CMSIS/Include/cmsis_gcc.h ****  */
 934:Drivers/CMSIS/Include/cmsis_gcc.h **** __STATIC_FORCEINLINE int16_t __REVSH(int16_t value)
 935:Drivers/CMSIS/Include/cmsis_gcc.h **** {
 936:Drivers/CMSIS/Include/cmsis_gcc.h **** #if (__GNUC__ > 4) || (__GNUC__ == 4 && __GNUC_MINOR__ >= 8)
 937:Drivers/CMSIS/Include/cmsis_gcc.h ****   return (int16_t)__builtin_bswap16(value);
 938:Drivers/CMSIS/Include/cmsis_gcc.h **** #else
 939:Drivers/CMSIS/Include/cmsis_gcc.h ****   int16_t result;
 940:Drivers/CMSIS/Include/cmsis_gcc.h **** 
 941:Drivers/CMSIS/Include/cmsis_gcc.h ****   __ASM volatile ("revsh %0, %1" : __CMSIS_GCC_OUT_REG (result) : __CMSIS_GCC_USE_REG (value) );
 942:Drivers/CMSIS/Include/cmsis_gcc.h ****   return result;
 943:Drivers/CMSIS/Include/cmsis_gcc.h **** #endif
 944:Drivers/CMSIS/Include/cmsis_gcc.h **** }
 945:Drivers/CMSIS/Include/cmsis_gcc.h **** 
 946:Drivers/CMSIS/Include/cmsis_gcc.h **** 
 947:Drivers/CMSIS/Include/cmsis_gcc.h **** /**
 948:Drivers/CMSIS/Include/cmsis_gcc.h ****   \brief   Rotate Right in unsigned value (32 bit)
 949:Drivers/CMSIS/Include/cmsis_gcc.h ****   \details Rotate Right (immediate) provides the value of the contents of a register rotated by a v
 950:Drivers/CMSIS/Include/cmsis_gcc.h ****   \param [in]    op1  Value to rotate
 951:Drivers/CMSIS/Include/cmsis_gcc.h ****   \param [in]    op2  Number of Bits to rotate
 952:Drivers/CMSIS/Include/cmsis_gcc.h ****   \return               Rotated value
 953:Drivers/CMSIS/Include/cmsis_gcc.h ****  */
 954:Drivers/CMSIS/Include/cmsis_gcc.h **** __STATIC_FORCEINLINE uint32_t __ROR(uint32_t op1, uint32_t op2)
 955:Drivers/CMSIS/Include/cmsis_gcc.h **** {
 956:Drivers/CMSIS/Include/cmsis_gcc.h ****   op2 %= 32U;
 957:Drivers/CMSIS/Include/cmsis_gcc.h ****   if (op2 == 0U)
 958:Drivers/CMSIS/Include/cmsis_gcc.h ****   {
 959:Drivers/CMSIS/Include/cmsis_gcc.h ****     return op1;
 960:Drivers/CMSIS/Include/cmsis_gcc.h ****   }
 961:Drivers/CMSIS/Include/cmsis_gcc.h ****   return (op1 >> op2) | (op1 << (32U - op2));
 962:Drivers/CMSIS/Include/cmsis_gcc.h **** }
 963:Drivers/CMSIS/Include/cmsis_gcc.h **** 
ARM GAS  /tmp/ccJSV5tm.s 			page 23


 964:Drivers/CMSIS/Include/cmsis_gcc.h **** 
 965:Drivers/CMSIS/Include/cmsis_gcc.h **** /**
 966:Drivers/CMSIS/Include/cmsis_gcc.h ****   \brief   Breakpoint
 967:Drivers/CMSIS/Include/cmsis_gcc.h ****   \details Causes the processor to enter Debug state.
 968:Drivers/CMSIS/Include/cmsis_gcc.h ****            Debug tools can use this to investigate system state when the instruction at a particula
 969:Drivers/CMSIS/Include/cmsis_gcc.h ****   \param [in]    value  is ignored by the processor.
 970:Drivers/CMSIS/Include/cmsis_gcc.h ****                  If required, a debugger can use it to store additional information about the break
 971:Drivers/CMSIS/Include/cmsis_gcc.h ****  */
 972:Drivers/CMSIS/Include/cmsis_gcc.h **** #define __BKPT(value)                       __ASM volatile ("bkpt "#value)
 973:Drivers/CMSIS/Include/cmsis_gcc.h **** 
 974:Drivers/CMSIS/Include/cmsis_gcc.h **** 
 975:Drivers/CMSIS/Include/cmsis_gcc.h **** /**
 976:Drivers/CMSIS/Include/cmsis_gcc.h ****   \brief   Reverse bit order of value
 977:Drivers/CMSIS/Include/cmsis_gcc.h ****   \details Reverses the bit order of the given value.
 978:Drivers/CMSIS/Include/cmsis_gcc.h ****   \param [in]    value  Value to reverse
 979:Drivers/CMSIS/Include/cmsis_gcc.h ****   \return               Reversed value
 980:Drivers/CMSIS/Include/cmsis_gcc.h ****  */
 981:Drivers/CMSIS/Include/cmsis_gcc.h **** __STATIC_FORCEINLINE uint32_t __RBIT(uint32_t value)
 982:Drivers/CMSIS/Include/cmsis_gcc.h **** {
 983:Drivers/CMSIS/Include/cmsis_gcc.h ****   uint32_t result;
 984:Drivers/CMSIS/Include/cmsis_gcc.h **** 
 985:Drivers/CMSIS/Include/cmsis_gcc.h **** #if ((defined (__ARM_ARCH_7M__      ) && (__ARM_ARCH_7M__      == 1)) || \
 986:Drivers/CMSIS/Include/cmsis_gcc.h ****      (defined (__ARM_ARCH_7EM__     ) && (__ARM_ARCH_7EM__     == 1)) || \
 987:Drivers/CMSIS/Include/cmsis_gcc.h ****      (defined (__ARM_ARCH_8M_MAIN__ ) && (__ARM_ARCH_8M_MAIN__ == 1))    )
 988:Drivers/CMSIS/Include/cmsis_gcc.h ****    __ASM volatile ("rbit %0, %1" : "=r" (result) : "r" (value) );
 989:Drivers/CMSIS/Include/cmsis_gcc.h **** #else
 990:Drivers/CMSIS/Include/cmsis_gcc.h ****   uint32_t s = (4U /*sizeof(v)*/ * 8U) - 1U; /* extra shift needed at end */
 991:Drivers/CMSIS/Include/cmsis_gcc.h **** 
 992:Drivers/CMSIS/Include/cmsis_gcc.h ****   result = value;                      /* r will be reversed bits of v; first get LSB of v */
 993:Drivers/CMSIS/Include/cmsis_gcc.h ****   for (value >>= 1U; value != 0U; value >>= 1U)
 994:Drivers/CMSIS/Include/cmsis_gcc.h ****   {
 995:Drivers/CMSIS/Include/cmsis_gcc.h ****     result <<= 1U;
 996:Drivers/CMSIS/Include/cmsis_gcc.h ****     result |= value & 1U;
 997:Drivers/CMSIS/Include/cmsis_gcc.h ****     s--;
 998:Drivers/CMSIS/Include/cmsis_gcc.h ****   }
 999:Drivers/CMSIS/Include/cmsis_gcc.h ****   result <<= s;                        /* shift when v's highest bits are zero */
1000:Drivers/CMSIS/Include/cmsis_gcc.h **** #endif
1001:Drivers/CMSIS/Include/cmsis_gcc.h ****   return result;
1002:Drivers/CMSIS/Include/cmsis_gcc.h **** }
1003:Drivers/CMSIS/Include/cmsis_gcc.h **** 
1004:Drivers/CMSIS/Include/cmsis_gcc.h **** 
1005:Drivers/CMSIS/Include/cmsis_gcc.h **** /**
1006:Drivers/CMSIS/Include/cmsis_gcc.h ****   \brief   Count leading zeros
1007:Drivers/CMSIS/Include/cmsis_gcc.h ****   \details Counts the number of leading zeros of a data value.
1008:Drivers/CMSIS/Include/cmsis_gcc.h ****   \param [in]  value  Value to count the leading zeros
1009:Drivers/CMSIS/Include/cmsis_gcc.h ****   \return             number of leading zeros in value
1010:Drivers/CMSIS/Include/cmsis_gcc.h ****  */
1011:Drivers/CMSIS/Include/cmsis_gcc.h **** #define __CLZ             (uint8_t)__builtin_clz
1012:Drivers/CMSIS/Include/cmsis_gcc.h **** 
1013:Drivers/CMSIS/Include/cmsis_gcc.h **** 
1014:Drivers/CMSIS/Include/cmsis_gcc.h **** #if ((defined (__ARM_ARCH_7M__      ) && (__ARM_ARCH_7M__      == 1)) || \
1015:Drivers/CMSIS/Include/cmsis_gcc.h ****      (defined (__ARM_ARCH_7EM__     ) && (__ARM_ARCH_7EM__     == 1)) || \
1016:Drivers/CMSIS/Include/cmsis_gcc.h ****      (defined (__ARM_ARCH_8M_MAIN__ ) && (__ARM_ARCH_8M_MAIN__ == 1)) || \
1017:Drivers/CMSIS/Include/cmsis_gcc.h ****      (defined (__ARM_ARCH_8M_BASE__ ) && (__ARM_ARCH_8M_BASE__ == 1))    )
1018:Drivers/CMSIS/Include/cmsis_gcc.h **** /**
1019:Drivers/CMSIS/Include/cmsis_gcc.h ****   \brief   LDR Exclusive (8 bit)
1020:Drivers/CMSIS/Include/cmsis_gcc.h ****   \details Executes a exclusive LDR instruction for 8 bit value.
ARM GAS  /tmp/ccJSV5tm.s 			page 24


1021:Drivers/CMSIS/Include/cmsis_gcc.h ****   \param [in]    ptr  Pointer to data
1022:Drivers/CMSIS/Include/cmsis_gcc.h ****   \return             value of type uint8_t at (*ptr)
1023:Drivers/CMSIS/Include/cmsis_gcc.h ****  */
1024:Drivers/CMSIS/Include/cmsis_gcc.h **** __STATIC_FORCEINLINE uint8_t __LDREXB(volatile uint8_t *addr)
1025:Drivers/CMSIS/Include/cmsis_gcc.h **** {
1026:Drivers/CMSIS/Include/cmsis_gcc.h ****     uint32_t result;
1027:Drivers/CMSIS/Include/cmsis_gcc.h **** 
1028:Drivers/CMSIS/Include/cmsis_gcc.h **** #if (__GNUC__ > 4) || (__GNUC__ == 4 && __GNUC_MINOR__ >= 8)
1029:Drivers/CMSIS/Include/cmsis_gcc.h ****    __ASM volatile ("ldrexb %0, %1" : "=r" (result) : "Q" (*addr) );
1030:Drivers/CMSIS/Include/cmsis_gcc.h **** #else
1031:Drivers/CMSIS/Include/cmsis_gcc.h ****     /* Prior to GCC 4.8, "Q" will be expanded to [rx, #0] which is not
1032:Drivers/CMSIS/Include/cmsis_gcc.h ****        accepted by assembler. So has to use following less efficient pattern.
1033:Drivers/CMSIS/Include/cmsis_gcc.h ****     */
1034:Drivers/CMSIS/Include/cmsis_gcc.h ****    __ASM volatile ("ldrexb %0, [%1]" : "=r" (result) : "r" (addr) : "memory" );
1035:Drivers/CMSIS/Include/cmsis_gcc.h **** #endif
1036:Drivers/CMSIS/Include/cmsis_gcc.h ****    return ((uint8_t) result);    /* Add explicit type cast here */
1037:Drivers/CMSIS/Include/cmsis_gcc.h **** }
1038:Drivers/CMSIS/Include/cmsis_gcc.h **** 
1039:Drivers/CMSIS/Include/cmsis_gcc.h **** 
1040:Drivers/CMSIS/Include/cmsis_gcc.h **** /**
1041:Drivers/CMSIS/Include/cmsis_gcc.h ****   \brief   LDR Exclusive (16 bit)
1042:Drivers/CMSIS/Include/cmsis_gcc.h ****   \details Executes a exclusive LDR instruction for 16 bit values.
1043:Drivers/CMSIS/Include/cmsis_gcc.h ****   \param [in]    ptr  Pointer to data
1044:Drivers/CMSIS/Include/cmsis_gcc.h ****   \return        value of type uint16_t at (*ptr)
1045:Drivers/CMSIS/Include/cmsis_gcc.h ****  */
1046:Drivers/CMSIS/Include/cmsis_gcc.h **** __STATIC_FORCEINLINE uint16_t __LDREXH(volatile uint16_t *addr)
1047:Drivers/CMSIS/Include/cmsis_gcc.h **** {
1048:Drivers/CMSIS/Include/cmsis_gcc.h ****     uint32_t result;
1049:Drivers/CMSIS/Include/cmsis_gcc.h **** 
1050:Drivers/CMSIS/Include/cmsis_gcc.h **** #if (__GNUC__ > 4) || (__GNUC__ == 4 && __GNUC_MINOR__ >= 8)
1051:Drivers/CMSIS/Include/cmsis_gcc.h ****    __ASM volatile ("ldrexh %0, %1" : "=r" (result) : "Q" (*addr) );
1052:Drivers/CMSIS/Include/cmsis_gcc.h **** #else
1053:Drivers/CMSIS/Include/cmsis_gcc.h ****     /* Prior to GCC 4.8, "Q" will be expanded to [rx, #0] which is not
1054:Drivers/CMSIS/Include/cmsis_gcc.h ****        accepted by assembler. So has to use following less efficient pattern.
1055:Drivers/CMSIS/Include/cmsis_gcc.h ****     */
1056:Drivers/CMSIS/Include/cmsis_gcc.h ****    __ASM volatile ("ldrexh %0, [%1]" : "=r" (result) : "r" (addr) : "memory" );
1057:Drivers/CMSIS/Include/cmsis_gcc.h **** #endif
1058:Drivers/CMSIS/Include/cmsis_gcc.h ****    return ((uint16_t) result);    /* Add explicit type cast here */
1059:Drivers/CMSIS/Include/cmsis_gcc.h **** }
1060:Drivers/CMSIS/Include/cmsis_gcc.h **** 
1061:Drivers/CMSIS/Include/cmsis_gcc.h **** 
1062:Drivers/CMSIS/Include/cmsis_gcc.h **** /**
1063:Drivers/CMSIS/Include/cmsis_gcc.h ****   \brief   LDR Exclusive (32 bit)
1064:Drivers/CMSIS/Include/cmsis_gcc.h ****   \details Executes a exclusive LDR instruction for 32 bit values.
1065:Drivers/CMSIS/Include/cmsis_gcc.h ****   \param [in]    ptr  Pointer to data
1066:Drivers/CMSIS/Include/cmsis_gcc.h ****   \return        value of type uint32_t at (*ptr)
1067:Drivers/CMSIS/Include/cmsis_gcc.h ****  */
1068:Drivers/CMSIS/Include/cmsis_gcc.h **** __STATIC_FORCEINLINE uint32_t __LDREXW(volatile uint32_t *addr)
1069:Drivers/CMSIS/Include/cmsis_gcc.h **** {
1070:Drivers/CMSIS/Include/cmsis_gcc.h ****     uint32_t result;
1071:Drivers/CMSIS/Include/cmsis_gcc.h **** 
1072:Drivers/CMSIS/Include/cmsis_gcc.h ****    __ASM volatile ("ldrex %0, %1" : "=r" (result) : "Q" (*addr) );
1073:Drivers/CMSIS/Include/cmsis_gcc.h ****    return(result);
1074:Drivers/CMSIS/Include/cmsis_gcc.h **** }
1075:Drivers/CMSIS/Include/cmsis_gcc.h **** 
1076:Drivers/CMSIS/Include/cmsis_gcc.h **** 
1077:Drivers/CMSIS/Include/cmsis_gcc.h **** /**
ARM GAS  /tmp/ccJSV5tm.s 			page 25


1078:Drivers/CMSIS/Include/cmsis_gcc.h ****   \brief   STR Exclusive (8 bit)
1079:Drivers/CMSIS/Include/cmsis_gcc.h ****   \details Executes a exclusive STR instruction for 8 bit values.
1080:Drivers/CMSIS/Include/cmsis_gcc.h ****   \param [in]  value  Value to store
1081:Drivers/CMSIS/Include/cmsis_gcc.h ****   \param [in]    ptr  Pointer to location
1082:Drivers/CMSIS/Include/cmsis_gcc.h ****   \return          0  Function succeeded
1083:Drivers/CMSIS/Include/cmsis_gcc.h ****   \return          1  Function failed
1084:Drivers/CMSIS/Include/cmsis_gcc.h ****  */
1085:Drivers/CMSIS/Include/cmsis_gcc.h **** __STATIC_FORCEINLINE uint32_t __STREXB(uint8_t value, volatile uint8_t *addr)
1086:Drivers/CMSIS/Include/cmsis_gcc.h **** {
1087:Drivers/CMSIS/Include/cmsis_gcc.h ****    uint32_t result;
1088:Drivers/CMSIS/Include/cmsis_gcc.h **** 
1089:Drivers/CMSIS/Include/cmsis_gcc.h ****    __ASM volatile ("strexb %0, %2, %1" : "=&r" (result), "=Q" (*addr) : "r" ((uint32_t)value) );
1090:Drivers/CMSIS/Include/cmsis_gcc.h ****    return(result);
1091:Drivers/CMSIS/Include/cmsis_gcc.h **** }
1092:Drivers/CMSIS/Include/cmsis_gcc.h **** 
1093:Drivers/CMSIS/Include/cmsis_gcc.h **** 
1094:Drivers/CMSIS/Include/cmsis_gcc.h **** /**
1095:Drivers/CMSIS/Include/cmsis_gcc.h ****   \brief   STR Exclusive (16 bit)
1096:Drivers/CMSIS/Include/cmsis_gcc.h ****   \details Executes a exclusive STR instruction for 16 bit values.
1097:Drivers/CMSIS/Include/cmsis_gcc.h ****   \param [in]  value  Value to store
1098:Drivers/CMSIS/Include/cmsis_gcc.h ****   \param [in]    ptr  Pointer to location
1099:Drivers/CMSIS/Include/cmsis_gcc.h ****   \return          0  Function succeeded
1100:Drivers/CMSIS/Include/cmsis_gcc.h ****   \return          1  Function failed
1101:Drivers/CMSIS/Include/cmsis_gcc.h ****  */
1102:Drivers/CMSIS/Include/cmsis_gcc.h **** __STATIC_FORCEINLINE uint32_t __STREXH(uint16_t value, volatile uint16_t *addr)
1103:Drivers/CMSIS/Include/cmsis_gcc.h **** {
1104:Drivers/CMSIS/Include/cmsis_gcc.h ****    uint32_t result;
1105:Drivers/CMSIS/Include/cmsis_gcc.h **** 
1106:Drivers/CMSIS/Include/cmsis_gcc.h ****    __ASM volatile ("strexh %0, %2, %1" : "=&r" (result), "=Q" (*addr) : "r" ((uint32_t)value) );
1107:Drivers/CMSIS/Include/cmsis_gcc.h ****    return(result);
1108:Drivers/CMSIS/Include/cmsis_gcc.h **** }
1109:Drivers/CMSIS/Include/cmsis_gcc.h **** 
1110:Drivers/CMSIS/Include/cmsis_gcc.h **** 
1111:Drivers/CMSIS/Include/cmsis_gcc.h **** /**
1112:Drivers/CMSIS/Include/cmsis_gcc.h ****   \brief   STR Exclusive (32 bit)
1113:Drivers/CMSIS/Include/cmsis_gcc.h ****   \details Executes a exclusive STR instruction for 32 bit values.
1114:Drivers/CMSIS/Include/cmsis_gcc.h ****   \param [in]  value  Value to store
1115:Drivers/CMSIS/Include/cmsis_gcc.h ****   \param [in]    ptr  Pointer to location
1116:Drivers/CMSIS/Include/cmsis_gcc.h ****   \return          0  Function succeeded
1117:Drivers/CMSIS/Include/cmsis_gcc.h ****   \return          1  Function failed
1118:Drivers/CMSIS/Include/cmsis_gcc.h ****  */
1119:Drivers/CMSIS/Include/cmsis_gcc.h **** __STATIC_FORCEINLINE uint32_t __STREXW(uint32_t value, volatile uint32_t *addr)
1120:Drivers/CMSIS/Include/cmsis_gcc.h **** {
1121:Drivers/CMSIS/Include/cmsis_gcc.h ****    uint32_t result;
1122:Drivers/CMSIS/Include/cmsis_gcc.h **** 
1123:Drivers/CMSIS/Include/cmsis_gcc.h ****    __ASM volatile ("strex %0, %2, %1" : "=&r" (result), "=Q" (*addr) : "r" (value) );
1124:Drivers/CMSIS/Include/cmsis_gcc.h ****    return(result);
1125:Drivers/CMSIS/Include/cmsis_gcc.h **** }
1126:Drivers/CMSIS/Include/cmsis_gcc.h **** 
1127:Drivers/CMSIS/Include/cmsis_gcc.h **** 
1128:Drivers/CMSIS/Include/cmsis_gcc.h **** /**
1129:Drivers/CMSIS/Include/cmsis_gcc.h ****   \brief   Remove the exclusive lock
1130:Drivers/CMSIS/Include/cmsis_gcc.h ****   \details Removes the exclusive lock which is created by LDREX.
1131:Drivers/CMSIS/Include/cmsis_gcc.h ****  */
1132:Drivers/CMSIS/Include/cmsis_gcc.h **** __STATIC_FORCEINLINE void __CLREX(void)
1133:Drivers/CMSIS/Include/cmsis_gcc.h **** {
1134:Drivers/CMSIS/Include/cmsis_gcc.h ****   __ASM volatile ("clrex" ::: "memory");
ARM GAS  /tmp/ccJSV5tm.s 			page 26


1135:Drivers/CMSIS/Include/cmsis_gcc.h **** }
1136:Drivers/CMSIS/Include/cmsis_gcc.h **** 
1137:Drivers/CMSIS/Include/cmsis_gcc.h **** #endif /* ((defined (__ARM_ARCH_7M__      ) && (__ARM_ARCH_7M__      == 1)) || \
1138:Drivers/CMSIS/Include/cmsis_gcc.h ****            (defined (__ARM_ARCH_7EM__     ) && (__ARM_ARCH_7EM__     == 1)) || \
1139:Drivers/CMSIS/Include/cmsis_gcc.h ****            (defined (__ARM_ARCH_8M_MAIN__ ) && (__ARM_ARCH_8M_MAIN__ == 1)) || \
1140:Drivers/CMSIS/Include/cmsis_gcc.h ****            (defined (__ARM_ARCH_8M_BASE__ ) && (__ARM_ARCH_8M_BASE__ == 1))    ) */
1141:Drivers/CMSIS/Include/cmsis_gcc.h **** 
1142:Drivers/CMSIS/Include/cmsis_gcc.h **** 
1143:Drivers/CMSIS/Include/cmsis_gcc.h **** #if ((defined (__ARM_ARCH_7M__      ) && (__ARM_ARCH_7M__      == 1)) || \
1144:Drivers/CMSIS/Include/cmsis_gcc.h ****      (defined (__ARM_ARCH_7EM__     ) && (__ARM_ARCH_7EM__     == 1)) || \
1145:Drivers/CMSIS/Include/cmsis_gcc.h ****      (defined (__ARM_ARCH_8M_MAIN__ ) && (__ARM_ARCH_8M_MAIN__ == 1))    )
1146:Drivers/CMSIS/Include/cmsis_gcc.h **** /**
1147:Drivers/CMSIS/Include/cmsis_gcc.h ****   \brief   Signed Saturate
1148:Drivers/CMSIS/Include/cmsis_gcc.h ****   \details Saturates a signed value.
1149:Drivers/CMSIS/Include/cmsis_gcc.h ****   \param [in]  ARG1  Value to be saturated
1150:Drivers/CMSIS/Include/cmsis_gcc.h ****   \param [in]  ARG2  Bit position to saturate to (1..32)
1151:Drivers/CMSIS/Include/cmsis_gcc.h ****   \return             Saturated value
1152:Drivers/CMSIS/Include/cmsis_gcc.h ****  */
1153:Drivers/CMSIS/Include/cmsis_gcc.h **** #define __SSAT(ARG1,ARG2) \
1154:Drivers/CMSIS/Include/cmsis_gcc.h **** __extension__ \
1155:Drivers/CMSIS/Include/cmsis_gcc.h **** ({                          \
1156:Drivers/CMSIS/Include/cmsis_gcc.h ****   int32_t __RES, __ARG1 = (ARG1); \
1157:Drivers/CMSIS/Include/cmsis_gcc.h ****   __ASM ("ssat %0, %1, %2" : "=r" (__RES) :  "I" (ARG2), "r" (__ARG1) ); \
1158:Drivers/CMSIS/Include/cmsis_gcc.h ****   __RES; \
1159:Drivers/CMSIS/Include/cmsis_gcc.h ****  })
1160:Drivers/CMSIS/Include/cmsis_gcc.h **** 
1161:Drivers/CMSIS/Include/cmsis_gcc.h **** 
1162:Drivers/CMSIS/Include/cmsis_gcc.h **** /**
1163:Drivers/CMSIS/Include/cmsis_gcc.h ****   \brief   Unsigned Saturate
1164:Drivers/CMSIS/Include/cmsis_gcc.h ****   \details Saturates an unsigned value.
1165:Drivers/CMSIS/Include/cmsis_gcc.h ****   \param [in]  ARG1  Value to be saturated
1166:Drivers/CMSIS/Include/cmsis_gcc.h ****   \param [in]  ARG2  Bit position to saturate to (0..31)
1167:Drivers/CMSIS/Include/cmsis_gcc.h ****   \return             Saturated value
1168:Drivers/CMSIS/Include/cmsis_gcc.h ****  */
1169:Drivers/CMSIS/Include/cmsis_gcc.h **** #define __USAT(ARG1,ARG2) \
1170:Drivers/CMSIS/Include/cmsis_gcc.h ****  __extension__ \
1171:Drivers/CMSIS/Include/cmsis_gcc.h **** ({                          \
1172:Drivers/CMSIS/Include/cmsis_gcc.h ****   uint32_t __RES, __ARG1 = (ARG1); \
1173:Drivers/CMSIS/Include/cmsis_gcc.h ****   __ASM ("usat %0, %1, %2" : "=r" (__RES) :  "I" (ARG2), "r" (__ARG1) ); \
1174:Drivers/CMSIS/Include/cmsis_gcc.h ****   __RES; \
1175:Drivers/CMSIS/Include/cmsis_gcc.h ****  })
1176:Drivers/CMSIS/Include/cmsis_gcc.h **** 
1177:Drivers/CMSIS/Include/cmsis_gcc.h **** 
1178:Drivers/CMSIS/Include/cmsis_gcc.h **** /**
1179:Drivers/CMSIS/Include/cmsis_gcc.h ****   \brief   Rotate Right with Extend (32 bit)
1180:Drivers/CMSIS/Include/cmsis_gcc.h ****   \details Moves each bit of a bitstring right by one bit.
1181:Drivers/CMSIS/Include/cmsis_gcc.h ****            The carry input is shifted in at the left end of the bitstring.
1182:Drivers/CMSIS/Include/cmsis_gcc.h ****   \param [in]    value  Value to rotate
1183:Drivers/CMSIS/Include/cmsis_gcc.h ****   \return               Rotated value
1184:Drivers/CMSIS/Include/cmsis_gcc.h ****  */
1185:Drivers/CMSIS/Include/cmsis_gcc.h **** __STATIC_FORCEINLINE uint32_t __RRX(uint32_t value)
1186:Drivers/CMSIS/Include/cmsis_gcc.h **** {
1187:Drivers/CMSIS/Include/cmsis_gcc.h ****   uint32_t result;
1188:Drivers/CMSIS/Include/cmsis_gcc.h **** 
1189:Drivers/CMSIS/Include/cmsis_gcc.h ****   __ASM volatile ("rrx %0, %1" : __CMSIS_GCC_OUT_REG (result) : __CMSIS_GCC_USE_REG (value) );
1190:Drivers/CMSIS/Include/cmsis_gcc.h ****   return(result);
1191:Drivers/CMSIS/Include/cmsis_gcc.h **** }
ARM GAS  /tmp/ccJSV5tm.s 			page 27


1192:Drivers/CMSIS/Include/cmsis_gcc.h **** 
1193:Drivers/CMSIS/Include/cmsis_gcc.h **** 
1194:Drivers/CMSIS/Include/cmsis_gcc.h **** /**
1195:Drivers/CMSIS/Include/cmsis_gcc.h ****   \brief   LDRT Unprivileged (8 bit)
1196:Drivers/CMSIS/Include/cmsis_gcc.h ****   \details Executes a Unprivileged LDRT instruction for 8 bit value.
1197:Drivers/CMSIS/Include/cmsis_gcc.h ****   \param [in]    ptr  Pointer to data
1198:Drivers/CMSIS/Include/cmsis_gcc.h ****   \return             value of type uint8_t at (*ptr)
1199:Drivers/CMSIS/Include/cmsis_gcc.h ****  */
1200:Drivers/CMSIS/Include/cmsis_gcc.h **** __STATIC_FORCEINLINE uint8_t __LDRBT(volatile uint8_t *ptr)
1201:Drivers/CMSIS/Include/cmsis_gcc.h **** {
1202:Drivers/CMSIS/Include/cmsis_gcc.h ****     uint32_t result;
1203:Drivers/CMSIS/Include/cmsis_gcc.h **** 
1204:Drivers/CMSIS/Include/cmsis_gcc.h **** #if (__GNUC__ > 4) || (__GNUC__ == 4 && __GNUC_MINOR__ >= 8)
1205:Drivers/CMSIS/Include/cmsis_gcc.h ****    __ASM volatile ("ldrbt %0, %1" : "=r" (result) : "Q" (*ptr) );
1206:Drivers/CMSIS/Include/cmsis_gcc.h **** #else
1207:Drivers/CMSIS/Include/cmsis_gcc.h ****     /* Prior to GCC 4.8, "Q" will be expanded to [rx, #0] which is not
1208:Drivers/CMSIS/Include/cmsis_gcc.h ****        accepted by assembler. So has to use following less efficient pattern.
1209:Drivers/CMSIS/Include/cmsis_gcc.h ****     */
1210:Drivers/CMSIS/Include/cmsis_gcc.h ****    __ASM volatile ("ldrbt %0, [%1]" : "=r" (result) : "r" (ptr) : "memory" );
1211:Drivers/CMSIS/Include/cmsis_gcc.h **** #endif
1212:Drivers/CMSIS/Include/cmsis_gcc.h ****    return ((uint8_t) result);    /* Add explicit type cast here */
1213:Drivers/CMSIS/Include/cmsis_gcc.h **** }
1214:Drivers/CMSIS/Include/cmsis_gcc.h **** 
1215:Drivers/CMSIS/Include/cmsis_gcc.h **** 
1216:Drivers/CMSIS/Include/cmsis_gcc.h **** /**
1217:Drivers/CMSIS/Include/cmsis_gcc.h ****   \brief   LDRT Unprivileged (16 bit)
1218:Drivers/CMSIS/Include/cmsis_gcc.h ****   \details Executes a Unprivileged LDRT instruction for 16 bit values.
1219:Drivers/CMSIS/Include/cmsis_gcc.h ****   \param [in]    ptr  Pointer to data
1220:Drivers/CMSIS/Include/cmsis_gcc.h ****   \return        value of type uint16_t at (*ptr)
1221:Drivers/CMSIS/Include/cmsis_gcc.h ****  */
1222:Drivers/CMSIS/Include/cmsis_gcc.h **** __STATIC_FORCEINLINE uint16_t __LDRHT(volatile uint16_t *ptr)
1223:Drivers/CMSIS/Include/cmsis_gcc.h **** {
1224:Drivers/CMSIS/Include/cmsis_gcc.h ****     uint32_t result;
1225:Drivers/CMSIS/Include/cmsis_gcc.h **** 
1226:Drivers/CMSIS/Include/cmsis_gcc.h **** #if (__GNUC__ > 4) || (__GNUC__ == 4 && __GNUC_MINOR__ >= 8)
1227:Drivers/CMSIS/Include/cmsis_gcc.h ****    __ASM volatile ("ldrht %0, %1" : "=r" (result) : "Q" (*ptr) );
1228:Drivers/CMSIS/Include/cmsis_gcc.h **** #else
1229:Drivers/CMSIS/Include/cmsis_gcc.h ****     /* Prior to GCC 4.8, "Q" will be expanded to [rx, #0] which is not
1230:Drivers/CMSIS/Include/cmsis_gcc.h ****        accepted by assembler. So has to use following less efficient pattern.
1231:Drivers/CMSIS/Include/cmsis_gcc.h ****     */
1232:Drivers/CMSIS/Include/cmsis_gcc.h ****    __ASM volatile ("ldrht %0, [%1]" : "=r" (result) : "r" (ptr) : "memory" );
1233:Drivers/CMSIS/Include/cmsis_gcc.h **** #endif
1234:Drivers/CMSIS/Include/cmsis_gcc.h ****    return ((uint16_t) result);    /* Add explicit type cast here */
1235:Drivers/CMSIS/Include/cmsis_gcc.h **** }
1236:Drivers/CMSIS/Include/cmsis_gcc.h **** 
1237:Drivers/CMSIS/Include/cmsis_gcc.h **** 
1238:Drivers/CMSIS/Include/cmsis_gcc.h **** /**
1239:Drivers/CMSIS/Include/cmsis_gcc.h ****   \brief   LDRT Unprivileged (32 bit)
1240:Drivers/CMSIS/Include/cmsis_gcc.h ****   \details Executes a Unprivileged LDRT instruction for 32 bit values.
1241:Drivers/CMSIS/Include/cmsis_gcc.h ****   \param [in]    ptr  Pointer to data
1242:Drivers/CMSIS/Include/cmsis_gcc.h ****   \return        value of type uint32_t at (*ptr)
1243:Drivers/CMSIS/Include/cmsis_gcc.h ****  */
1244:Drivers/CMSIS/Include/cmsis_gcc.h **** __STATIC_FORCEINLINE uint32_t __LDRT(volatile uint32_t *ptr)
1245:Drivers/CMSIS/Include/cmsis_gcc.h **** {
1246:Drivers/CMSIS/Include/cmsis_gcc.h ****     uint32_t result;
1247:Drivers/CMSIS/Include/cmsis_gcc.h **** 
1248:Drivers/CMSIS/Include/cmsis_gcc.h ****    __ASM volatile ("ldrt %0, %1" : "=r" (result) : "Q" (*ptr) );
ARM GAS  /tmp/ccJSV5tm.s 			page 28


1249:Drivers/CMSIS/Include/cmsis_gcc.h ****    return(result);
1250:Drivers/CMSIS/Include/cmsis_gcc.h **** }
1251:Drivers/CMSIS/Include/cmsis_gcc.h **** 
1252:Drivers/CMSIS/Include/cmsis_gcc.h **** 
1253:Drivers/CMSIS/Include/cmsis_gcc.h **** /**
1254:Drivers/CMSIS/Include/cmsis_gcc.h ****   \brief   STRT Unprivileged (8 bit)
1255:Drivers/CMSIS/Include/cmsis_gcc.h ****   \details Executes a Unprivileged STRT instruction for 8 bit values.
1256:Drivers/CMSIS/Include/cmsis_gcc.h ****   \param [in]  value  Value to store
1257:Drivers/CMSIS/Include/cmsis_gcc.h ****   \param [in]    ptr  Pointer to location
1258:Drivers/CMSIS/Include/cmsis_gcc.h ****  */
1259:Drivers/CMSIS/Include/cmsis_gcc.h **** __STATIC_FORCEINLINE void __STRBT(uint8_t value, volatile uint8_t *ptr)
1260:Drivers/CMSIS/Include/cmsis_gcc.h **** {
1261:Drivers/CMSIS/Include/cmsis_gcc.h ****    __ASM volatile ("strbt %1, %0" : "=Q" (*ptr) : "r" ((uint32_t)value) );
1262:Drivers/CMSIS/Include/cmsis_gcc.h **** }
1263:Drivers/CMSIS/Include/cmsis_gcc.h **** 
1264:Drivers/CMSIS/Include/cmsis_gcc.h **** 
1265:Drivers/CMSIS/Include/cmsis_gcc.h **** /**
1266:Drivers/CMSIS/Include/cmsis_gcc.h ****   \brief   STRT Unprivileged (16 bit)
1267:Drivers/CMSIS/Include/cmsis_gcc.h ****   \details Executes a Unprivileged STRT instruction for 16 bit values.
1268:Drivers/CMSIS/Include/cmsis_gcc.h ****   \param [in]  value  Value to store
1269:Drivers/CMSIS/Include/cmsis_gcc.h ****   \param [in]    ptr  Pointer to location
1270:Drivers/CMSIS/Include/cmsis_gcc.h ****  */
1271:Drivers/CMSIS/Include/cmsis_gcc.h **** __STATIC_FORCEINLINE void __STRHT(uint16_t value, volatile uint16_t *ptr)
1272:Drivers/CMSIS/Include/cmsis_gcc.h **** {
1273:Drivers/CMSIS/Include/cmsis_gcc.h ****    __ASM volatile ("strht %1, %0" : "=Q" (*ptr) : "r" ((uint32_t)value) );
1274:Drivers/CMSIS/Include/cmsis_gcc.h **** }
1275:Drivers/CMSIS/Include/cmsis_gcc.h **** 
1276:Drivers/CMSIS/Include/cmsis_gcc.h **** 
1277:Drivers/CMSIS/Include/cmsis_gcc.h **** /**
1278:Drivers/CMSIS/Include/cmsis_gcc.h ****   \brief   STRT Unprivileged (32 bit)
1279:Drivers/CMSIS/Include/cmsis_gcc.h ****   \details Executes a Unprivileged STRT instruction for 32 bit values.
1280:Drivers/CMSIS/Include/cmsis_gcc.h ****   \param [in]  value  Value to store
1281:Drivers/CMSIS/Include/cmsis_gcc.h ****   \param [in]    ptr  Pointer to location
1282:Drivers/CMSIS/Include/cmsis_gcc.h ****  */
1283:Drivers/CMSIS/Include/cmsis_gcc.h **** __STATIC_FORCEINLINE void __STRT(uint32_t value, volatile uint32_t *ptr)
1284:Drivers/CMSIS/Include/cmsis_gcc.h **** {
1285:Drivers/CMSIS/Include/cmsis_gcc.h ****    __ASM volatile ("strt %1, %0" : "=Q" (*ptr) : "r" (value) );
1286:Drivers/CMSIS/Include/cmsis_gcc.h **** }
1287:Drivers/CMSIS/Include/cmsis_gcc.h **** 
1288:Drivers/CMSIS/Include/cmsis_gcc.h **** #else  /* ((defined (__ARM_ARCH_7M__      ) && (__ARM_ARCH_7M__      == 1)) || \
1289:Drivers/CMSIS/Include/cmsis_gcc.h ****            (defined (__ARM_ARCH_7EM__     ) && (__ARM_ARCH_7EM__     == 1)) || \
1290:Drivers/CMSIS/Include/cmsis_gcc.h ****            (defined (__ARM_ARCH_8M_MAIN__ ) && (__ARM_ARCH_8M_MAIN__ == 1))    ) */
1291:Drivers/CMSIS/Include/cmsis_gcc.h **** 
1292:Drivers/CMSIS/Include/cmsis_gcc.h **** /**
1293:Drivers/CMSIS/Include/cmsis_gcc.h ****   \brief   Signed Saturate
1294:Drivers/CMSIS/Include/cmsis_gcc.h ****   \details Saturates a signed value.
1295:Drivers/CMSIS/Include/cmsis_gcc.h ****   \param [in]  value  Value to be saturated
1296:Drivers/CMSIS/Include/cmsis_gcc.h ****   \param [in]    sat  Bit position to saturate to (1..32)
1297:Drivers/CMSIS/Include/cmsis_gcc.h ****   \return             Saturated value
1298:Drivers/CMSIS/Include/cmsis_gcc.h ****  */
1299:Drivers/CMSIS/Include/cmsis_gcc.h **** __STATIC_FORCEINLINE int32_t __SSAT(int32_t val, uint32_t sat)
1300:Drivers/CMSIS/Include/cmsis_gcc.h **** {
1301:Drivers/CMSIS/Include/cmsis_gcc.h ****   if ((sat >= 1U) && (sat <= 32U))
1302:Drivers/CMSIS/Include/cmsis_gcc.h ****   {
1303:Drivers/CMSIS/Include/cmsis_gcc.h ****     const int32_t max = (int32_t)((1U << (sat - 1U)) - 1U);
1304:Drivers/CMSIS/Include/cmsis_gcc.h ****     const int32_t min = -1 - max ;
1305:Drivers/CMSIS/Include/cmsis_gcc.h ****     if (val > max)
ARM GAS  /tmp/ccJSV5tm.s 			page 29


1306:Drivers/CMSIS/Include/cmsis_gcc.h ****     {
1307:Drivers/CMSIS/Include/cmsis_gcc.h ****       return max;
1308:Drivers/CMSIS/Include/cmsis_gcc.h ****     }
1309:Drivers/CMSIS/Include/cmsis_gcc.h ****     else if (val < min)
1310:Drivers/CMSIS/Include/cmsis_gcc.h ****     {
1311:Drivers/CMSIS/Include/cmsis_gcc.h ****       return min;
1312:Drivers/CMSIS/Include/cmsis_gcc.h ****     }
1313:Drivers/CMSIS/Include/cmsis_gcc.h ****   }
1314:Drivers/CMSIS/Include/cmsis_gcc.h ****   return val;
1315:Drivers/CMSIS/Include/cmsis_gcc.h **** }
1316:Drivers/CMSIS/Include/cmsis_gcc.h **** 
1317:Drivers/CMSIS/Include/cmsis_gcc.h **** /**
1318:Drivers/CMSIS/Include/cmsis_gcc.h ****   \brief   Unsigned Saturate
1319:Drivers/CMSIS/Include/cmsis_gcc.h ****   \details Saturates an unsigned value.
1320:Drivers/CMSIS/Include/cmsis_gcc.h ****   \param [in]  value  Value to be saturated
1321:Drivers/CMSIS/Include/cmsis_gcc.h ****   \param [in]    sat  Bit position to saturate to (0..31)
1322:Drivers/CMSIS/Include/cmsis_gcc.h ****   \return             Saturated value
1323:Drivers/CMSIS/Include/cmsis_gcc.h ****  */
1324:Drivers/CMSIS/Include/cmsis_gcc.h **** __STATIC_FORCEINLINE uint32_t __USAT(int32_t val, uint32_t sat)
1325:Drivers/CMSIS/Include/cmsis_gcc.h **** {
1326:Drivers/CMSIS/Include/cmsis_gcc.h ****   if (sat <= 31U)
1327:Drivers/CMSIS/Include/cmsis_gcc.h ****   {
1328:Drivers/CMSIS/Include/cmsis_gcc.h ****     const uint32_t max = ((1U << sat) - 1U);
1329:Drivers/CMSIS/Include/cmsis_gcc.h ****     if (val > (int32_t)max)
1330:Drivers/CMSIS/Include/cmsis_gcc.h ****     {
1331:Drivers/CMSIS/Include/cmsis_gcc.h ****       return max;
1332:Drivers/CMSIS/Include/cmsis_gcc.h ****     }
1333:Drivers/CMSIS/Include/cmsis_gcc.h ****     else if (val < 0)
1334:Drivers/CMSIS/Include/cmsis_gcc.h ****     {
1335:Drivers/CMSIS/Include/cmsis_gcc.h ****       return 0U;
1336:Drivers/CMSIS/Include/cmsis_gcc.h ****     }
1337:Drivers/CMSIS/Include/cmsis_gcc.h ****   }
1338:Drivers/CMSIS/Include/cmsis_gcc.h ****   return (uint32_t)val;
1339:Drivers/CMSIS/Include/cmsis_gcc.h **** }
1340:Drivers/CMSIS/Include/cmsis_gcc.h **** 
1341:Drivers/CMSIS/Include/cmsis_gcc.h **** #endif /* ((defined (__ARM_ARCH_7M__      ) && (__ARM_ARCH_7M__      == 1)) || \
1342:Drivers/CMSIS/Include/cmsis_gcc.h ****            (defined (__ARM_ARCH_7EM__     ) && (__ARM_ARCH_7EM__     == 1)) || \
1343:Drivers/CMSIS/Include/cmsis_gcc.h ****            (defined (__ARM_ARCH_8M_MAIN__ ) && (__ARM_ARCH_8M_MAIN__ == 1))    ) */
1344:Drivers/CMSIS/Include/cmsis_gcc.h **** 
1345:Drivers/CMSIS/Include/cmsis_gcc.h **** 
1346:Drivers/CMSIS/Include/cmsis_gcc.h **** #if ((defined (__ARM_ARCH_8M_MAIN__ ) && (__ARM_ARCH_8M_MAIN__ == 1)) || \
1347:Drivers/CMSIS/Include/cmsis_gcc.h ****      (defined (__ARM_ARCH_8M_BASE__ ) && (__ARM_ARCH_8M_BASE__ == 1))    )
1348:Drivers/CMSIS/Include/cmsis_gcc.h **** /**
1349:Drivers/CMSIS/Include/cmsis_gcc.h ****   \brief   Load-Acquire (8 bit)
1350:Drivers/CMSIS/Include/cmsis_gcc.h ****   \details Executes a LDAB instruction for 8 bit value.
1351:Drivers/CMSIS/Include/cmsis_gcc.h ****   \param [in]    ptr  Pointer to data
1352:Drivers/CMSIS/Include/cmsis_gcc.h ****   \return             value of type uint8_t at (*ptr)
1353:Drivers/CMSIS/Include/cmsis_gcc.h ****  */
1354:Drivers/CMSIS/Include/cmsis_gcc.h **** __STATIC_FORCEINLINE uint8_t __LDAB(volatile uint8_t *ptr)
1355:Drivers/CMSIS/Include/cmsis_gcc.h **** {
1356:Drivers/CMSIS/Include/cmsis_gcc.h ****     uint32_t result;
1357:Drivers/CMSIS/Include/cmsis_gcc.h **** 
1358:Drivers/CMSIS/Include/cmsis_gcc.h ****    __ASM volatile ("ldab %0, %1" : "=r" (result) : "Q" (*ptr) );
1359:Drivers/CMSIS/Include/cmsis_gcc.h ****    return ((uint8_t) result);
1360:Drivers/CMSIS/Include/cmsis_gcc.h **** }
1361:Drivers/CMSIS/Include/cmsis_gcc.h **** 
1362:Drivers/CMSIS/Include/cmsis_gcc.h **** 
ARM GAS  /tmp/ccJSV5tm.s 			page 30


1363:Drivers/CMSIS/Include/cmsis_gcc.h **** /**
1364:Drivers/CMSIS/Include/cmsis_gcc.h ****   \brief   Load-Acquire (16 bit)
1365:Drivers/CMSIS/Include/cmsis_gcc.h ****   \details Executes a LDAH instruction for 16 bit values.
1366:Drivers/CMSIS/Include/cmsis_gcc.h ****   \param [in]    ptr  Pointer to data
1367:Drivers/CMSIS/Include/cmsis_gcc.h ****   \return        value of type uint16_t at (*ptr)
1368:Drivers/CMSIS/Include/cmsis_gcc.h ****  */
1369:Drivers/CMSIS/Include/cmsis_gcc.h **** __STATIC_FORCEINLINE uint16_t __LDAH(volatile uint16_t *ptr)
1370:Drivers/CMSIS/Include/cmsis_gcc.h **** {
1371:Drivers/CMSIS/Include/cmsis_gcc.h ****     uint32_t result;
1372:Drivers/CMSIS/Include/cmsis_gcc.h **** 
1373:Drivers/CMSIS/Include/cmsis_gcc.h ****    __ASM volatile ("ldah %0, %1" : "=r" (result) : "Q" (*ptr) );
1374:Drivers/CMSIS/Include/cmsis_gcc.h ****    return ((uint16_t) result);
1375:Drivers/CMSIS/Include/cmsis_gcc.h **** }
1376:Drivers/CMSIS/Include/cmsis_gcc.h **** 
1377:Drivers/CMSIS/Include/cmsis_gcc.h **** 
1378:Drivers/CMSIS/Include/cmsis_gcc.h **** /**
1379:Drivers/CMSIS/Include/cmsis_gcc.h ****   \brief   Load-Acquire (32 bit)
1380:Drivers/CMSIS/Include/cmsis_gcc.h ****   \details Executes a LDA instruction for 32 bit values.
1381:Drivers/CMSIS/Include/cmsis_gcc.h ****   \param [in]    ptr  Pointer to data
1382:Drivers/CMSIS/Include/cmsis_gcc.h ****   \return        value of type uint32_t at (*ptr)
1383:Drivers/CMSIS/Include/cmsis_gcc.h ****  */
1384:Drivers/CMSIS/Include/cmsis_gcc.h **** __STATIC_FORCEINLINE uint32_t __LDA(volatile uint32_t *ptr)
1385:Drivers/CMSIS/Include/cmsis_gcc.h **** {
1386:Drivers/CMSIS/Include/cmsis_gcc.h ****     uint32_t result;
1387:Drivers/CMSIS/Include/cmsis_gcc.h **** 
1388:Drivers/CMSIS/Include/cmsis_gcc.h ****    __ASM volatile ("lda %0, %1" : "=r" (result) : "Q" (*ptr) );
1389:Drivers/CMSIS/Include/cmsis_gcc.h ****    return(result);
1390:Drivers/CMSIS/Include/cmsis_gcc.h **** }
1391:Drivers/CMSIS/Include/cmsis_gcc.h **** 
1392:Drivers/CMSIS/Include/cmsis_gcc.h **** 
1393:Drivers/CMSIS/Include/cmsis_gcc.h **** /**
1394:Drivers/CMSIS/Include/cmsis_gcc.h ****   \brief   Store-Release (8 bit)
1395:Drivers/CMSIS/Include/cmsis_gcc.h ****   \details Executes a STLB instruction for 8 bit values.
1396:Drivers/CMSIS/Include/cmsis_gcc.h ****   \param [in]  value  Value to store
1397:Drivers/CMSIS/Include/cmsis_gcc.h ****   \param [in]    ptr  Pointer to location
1398:Drivers/CMSIS/Include/cmsis_gcc.h ****  */
1399:Drivers/CMSIS/Include/cmsis_gcc.h **** __STATIC_FORCEINLINE void __STLB(uint8_t value, volatile uint8_t *ptr)
1400:Drivers/CMSIS/Include/cmsis_gcc.h **** {
1401:Drivers/CMSIS/Include/cmsis_gcc.h ****    __ASM volatile ("stlb %1, %0" : "=Q" (*ptr) : "r" ((uint32_t)value) );
1402:Drivers/CMSIS/Include/cmsis_gcc.h **** }
1403:Drivers/CMSIS/Include/cmsis_gcc.h **** 
1404:Drivers/CMSIS/Include/cmsis_gcc.h **** 
1405:Drivers/CMSIS/Include/cmsis_gcc.h **** /**
1406:Drivers/CMSIS/Include/cmsis_gcc.h ****   \brief   Store-Release (16 bit)
1407:Drivers/CMSIS/Include/cmsis_gcc.h ****   \details Executes a STLH instruction for 16 bit values.
1408:Drivers/CMSIS/Include/cmsis_gcc.h ****   \param [in]  value  Value to store
1409:Drivers/CMSIS/Include/cmsis_gcc.h ****   \param [in]    ptr  Pointer to location
1410:Drivers/CMSIS/Include/cmsis_gcc.h ****  */
1411:Drivers/CMSIS/Include/cmsis_gcc.h **** __STATIC_FORCEINLINE void __STLH(uint16_t value, volatile uint16_t *ptr)
1412:Drivers/CMSIS/Include/cmsis_gcc.h **** {
1413:Drivers/CMSIS/Include/cmsis_gcc.h ****    __ASM volatile ("stlh %1, %0" : "=Q" (*ptr) : "r" ((uint32_t)value) );
1414:Drivers/CMSIS/Include/cmsis_gcc.h **** }
1415:Drivers/CMSIS/Include/cmsis_gcc.h **** 
1416:Drivers/CMSIS/Include/cmsis_gcc.h **** 
1417:Drivers/CMSIS/Include/cmsis_gcc.h **** /**
1418:Drivers/CMSIS/Include/cmsis_gcc.h ****   \brief   Store-Release (32 bit)
1419:Drivers/CMSIS/Include/cmsis_gcc.h ****   \details Executes a STL instruction for 32 bit values.
ARM GAS  /tmp/ccJSV5tm.s 			page 31


1420:Drivers/CMSIS/Include/cmsis_gcc.h ****   \param [in]  value  Value to store
1421:Drivers/CMSIS/Include/cmsis_gcc.h ****   \param [in]    ptr  Pointer to location
1422:Drivers/CMSIS/Include/cmsis_gcc.h ****  */
1423:Drivers/CMSIS/Include/cmsis_gcc.h **** __STATIC_FORCEINLINE void __STL(uint32_t value, volatile uint32_t *ptr)
1424:Drivers/CMSIS/Include/cmsis_gcc.h **** {
1425:Drivers/CMSIS/Include/cmsis_gcc.h ****    __ASM volatile ("stl %1, %0" : "=Q" (*ptr) : "r" ((uint32_t)value) );
1426:Drivers/CMSIS/Include/cmsis_gcc.h **** }
1427:Drivers/CMSIS/Include/cmsis_gcc.h **** 
1428:Drivers/CMSIS/Include/cmsis_gcc.h **** 
1429:Drivers/CMSIS/Include/cmsis_gcc.h **** /**
1430:Drivers/CMSIS/Include/cmsis_gcc.h ****   \brief   Load-Acquire Exclusive (8 bit)
1431:Drivers/CMSIS/Include/cmsis_gcc.h ****   \details Executes a LDAB exclusive instruction for 8 bit value.
1432:Drivers/CMSIS/Include/cmsis_gcc.h ****   \param [in]    ptr  Pointer to data
1433:Drivers/CMSIS/Include/cmsis_gcc.h ****   \return             value of type uint8_t at (*ptr)
1434:Drivers/CMSIS/Include/cmsis_gcc.h ****  */
1435:Drivers/CMSIS/Include/cmsis_gcc.h **** __STATIC_FORCEINLINE uint8_t __LDAEXB(volatile uint8_t *ptr)
1436:Drivers/CMSIS/Include/cmsis_gcc.h **** {
1437:Drivers/CMSIS/Include/cmsis_gcc.h ****     uint32_t result;
1438:Drivers/CMSIS/Include/cmsis_gcc.h **** 
1439:Drivers/CMSIS/Include/cmsis_gcc.h ****    __ASM volatile ("ldaexb %0, %1" : "=r" (result) : "Q" (*ptr) );
1440:Drivers/CMSIS/Include/cmsis_gcc.h ****    return ((uint8_t) result);
1441:Drivers/CMSIS/Include/cmsis_gcc.h **** }
1442:Drivers/CMSIS/Include/cmsis_gcc.h **** 
1443:Drivers/CMSIS/Include/cmsis_gcc.h **** 
1444:Drivers/CMSIS/Include/cmsis_gcc.h **** /**
1445:Drivers/CMSIS/Include/cmsis_gcc.h ****   \brief   Load-Acquire Exclusive (16 bit)
1446:Drivers/CMSIS/Include/cmsis_gcc.h ****   \details Executes a LDAH exclusive instruction for 16 bit values.
1447:Drivers/CMSIS/Include/cmsis_gcc.h ****   \param [in]    ptr  Pointer to data
1448:Drivers/CMSIS/Include/cmsis_gcc.h ****   \return        value of type uint16_t at (*ptr)
1449:Drivers/CMSIS/Include/cmsis_gcc.h ****  */
1450:Drivers/CMSIS/Include/cmsis_gcc.h **** __STATIC_FORCEINLINE uint16_t __LDAEXH(volatile uint16_t *ptr)
1451:Drivers/CMSIS/Include/cmsis_gcc.h **** {
1452:Drivers/CMSIS/Include/cmsis_gcc.h ****     uint32_t result;
1453:Drivers/CMSIS/Include/cmsis_gcc.h **** 
1454:Drivers/CMSIS/Include/cmsis_gcc.h ****    __ASM volatile ("ldaexh %0, %1" : "=r" (result) : "Q" (*ptr) );
1455:Drivers/CMSIS/Include/cmsis_gcc.h ****    return ((uint16_t) result);
1456:Drivers/CMSIS/Include/cmsis_gcc.h **** }
1457:Drivers/CMSIS/Include/cmsis_gcc.h **** 
1458:Drivers/CMSIS/Include/cmsis_gcc.h **** 
1459:Drivers/CMSIS/Include/cmsis_gcc.h **** /**
1460:Drivers/CMSIS/Include/cmsis_gcc.h ****   \brief   Load-Acquire Exclusive (32 bit)
1461:Drivers/CMSIS/Include/cmsis_gcc.h ****   \details Executes a LDA exclusive instruction for 32 bit values.
1462:Drivers/CMSIS/Include/cmsis_gcc.h ****   \param [in]    ptr  Pointer to data
1463:Drivers/CMSIS/Include/cmsis_gcc.h ****   \return        value of type uint32_t at (*ptr)
1464:Drivers/CMSIS/Include/cmsis_gcc.h ****  */
1465:Drivers/CMSIS/Include/cmsis_gcc.h **** __STATIC_FORCEINLINE uint32_t __LDAEX(volatile uint32_t *ptr)
1466:Drivers/CMSIS/Include/cmsis_gcc.h **** {
1467:Drivers/CMSIS/Include/cmsis_gcc.h ****     uint32_t result;
1468:Drivers/CMSIS/Include/cmsis_gcc.h **** 
1469:Drivers/CMSIS/Include/cmsis_gcc.h ****    __ASM volatile ("ldaex %0, %1" : "=r" (result) : "Q" (*ptr) );
1470:Drivers/CMSIS/Include/cmsis_gcc.h ****    return(result);
1471:Drivers/CMSIS/Include/cmsis_gcc.h **** }
1472:Drivers/CMSIS/Include/cmsis_gcc.h **** 
1473:Drivers/CMSIS/Include/cmsis_gcc.h **** 
1474:Drivers/CMSIS/Include/cmsis_gcc.h **** /**
1475:Drivers/CMSIS/Include/cmsis_gcc.h ****   \brief   Store-Release Exclusive (8 bit)
1476:Drivers/CMSIS/Include/cmsis_gcc.h ****   \details Executes a STLB exclusive instruction for 8 bit values.
ARM GAS  /tmp/ccJSV5tm.s 			page 32


1477:Drivers/CMSIS/Include/cmsis_gcc.h ****   \param [in]  value  Value to store
1478:Drivers/CMSIS/Include/cmsis_gcc.h ****   \param [in]    ptr  Pointer to location
1479:Drivers/CMSIS/Include/cmsis_gcc.h ****   \return          0  Function succeeded
1480:Drivers/CMSIS/Include/cmsis_gcc.h ****   \return          1  Function failed
1481:Drivers/CMSIS/Include/cmsis_gcc.h ****  */
1482:Drivers/CMSIS/Include/cmsis_gcc.h **** __STATIC_FORCEINLINE uint32_t __STLEXB(uint8_t value, volatile uint8_t *ptr)
1483:Drivers/CMSIS/Include/cmsis_gcc.h **** {
1484:Drivers/CMSIS/Include/cmsis_gcc.h ****    uint32_t result;
1485:Drivers/CMSIS/Include/cmsis_gcc.h **** 
1486:Drivers/CMSIS/Include/cmsis_gcc.h ****    __ASM volatile ("stlexb %0, %2, %1" : "=&r" (result), "=Q" (*ptr) : "r" ((uint32_t)value) );
1487:Drivers/CMSIS/Include/cmsis_gcc.h ****    return(result);
1488:Drivers/CMSIS/Include/cmsis_gcc.h **** }
1489:Drivers/CMSIS/Include/cmsis_gcc.h **** 
1490:Drivers/CMSIS/Include/cmsis_gcc.h **** 
1491:Drivers/CMSIS/Include/cmsis_gcc.h **** /**
1492:Drivers/CMSIS/Include/cmsis_gcc.h ****   \brief   Store-Release Exclusive (16 bit)
1493:Drivers/CMSIS/Include/cmsis_gcc.h ****   \details Executes a STLH exclusive instruction for 16 bit values.
1494:Drivers/CMSIS/Include/cmsis_gcc.h ****   \param [in]  value  Value to store
1495:Drivers/CMSIS/Include/cmsis_gcc.h ****   \param [in]    ptr  Pointer to location
1496:Drivers/CMSIS/Include/cmsis_gcc.h ****   \return          0  Function succeeded
1497:Drivers/CMSIS/Include/cmsis_gcc.h ****   \return          1  Function failed
1498:Drivers/CMSIS/Include/cmsis_gcc.h ****  */
1499:Drivers/CMSIS/Include/cmsis_gcc.h **** __STATIC_FORCEINLINE uint32_t __STLEXH(uint16_t value, volatile uint16_t *ptr)
1500:Drivers/CMSIS/Include/cmsis_gcc.h **** {
1501:Drivers/CMSIS/Include/cmsis_gcc.h ****    uint32_t result;
1502:Drivers/CMSIS/Include/cmsis_gcc.h **** 
1503:Drivers/CMSIS/Include/cmsis_gcc.h ****    __ASM volatile ("stlexh %0, %2, %1" : "=&r" (result), "=Q" (*ptr) : "r" ((uint32_t)value) );
1504:Drivers/CMSIS/Include/cmsis_gcc.h ****    return(result);
1505:Drivers/CMSIS/Include/cmsis_gcc.h **** }
1506:Drivers/CMSIS/Include/cmsis_gcc.h **** 
1507:Drivers/CMSIS/Include/cmsis_gcc.h **** 
1508:Drivers/CMSIS/Include/cmsis_gcc.h **** /**
1509:Drivers/CMSIS/Include/cmsis_gcc.h ****   \brief   Store-Release Exclusive (32 bit)
1510:Drivers/CMSIS/Include/cmsis_gcc.h ****   \details Executes a STL exclusive instruction for 32 bit values.
1511:Drivers/CMSIS/Include/cmsis_gcc.h ****   \param [in]  value  Value to store
1512:Drivers/CMSIS/Include/cmsis_gcc.h ****   \param [in]    ptr  Pointer to location
1513:Drivers/CMSIS/Include/cmsis_gcc.h ****   \return          0  Function succeeded
1514:Drivers/CMSIS/Include/cmsis_gcc.h ****   \return          1  Function failed
1515:Drivers/CMSIS/Include/cmsis_gcc.h ****  */
1516:Drivers/CMSIS/Include/cmsis_gcc.h **** __STATIC_FORCEINLINE uint32_t __STLEX(uint32_t value, volatile uint32_t *ptr)
1517:Drivers/CMSIS/Include/cmsis_gcc.h **** {
1518:Drivers/CMSIS/Include/cmsis_gcc.h ****    uint32_t result;
1519:Drivers/CMSIS/Include/cmsis_gcc.h **** 
1520:Drivers/CMSIS/Include/cmsis_gcc.h ****    __ASM volatile ("stlex %0, %2, %1" : "=&r" (result), "=Q" (*ptr) : "r" ((uint32_t)value) );
1521:Drivers/CMSIS/Include/cmsis_gcc.h ****    return(result);
1522:Drivers/CMSIS/Include/cmsis_gcc.h **** }
1523:Drivers/CMSIS/Include/cmsis_gcc.h **** 
1524:Drivers/CMSIS/Include/cmsis_gcc.h **** #endif /* ((defined (__ARM_ARCH_8M_MAIN__ ) && (__ARM_ARCH_8M_MAIN__ == 1)) || \
1525:Drivers/CMSIS/Include/cmsis_gcc.h ****            (defined (__ARM_ARCH_8M_BASE__ ) && (__ARM_ARCH_8M_BASE__ == 1))    ) */
1526:Drivers/CMSIS/Include/cmsis_gcc.h **** 
1527:Drivers/CMSIS/Include/cmsis_gcc.h **** /*@}*/ /* end of group CMSIS_Core_InstructionInterface */
1528:Drivers/CMSIS/Include/cmsis_gcc.h **** 
1529:Drivers/CMSIS/Include/cmsis_gcc.h **** 
1530:Drivers/CMSIS/Include/cmsis_gcc.h **** /* ###################  Compiler specific Intrinsics  ########################### */
1531:Drivers/CMSIS/Include/cmsis_gcc.h **** /** \defgroup CMSIS_SIMD_intrinsics CMSIS SIMD Intrinsics
1532:Drivers/CMSIS/Include/cmsis_gcc.h ****   Access to dedicated SIMD instructions
1533:Drivers/CMSIS/Include/cmsis_gcc.h ****   @{
ARM GAS  /tmp/ccJSV5tm.s 			page 33


1534:Drivers/CMSIS/Include/cmsis_gcc.h **** */
1535:Drivers/CMSIS/Include/cmsis_gcc.h **** 
1536:Drivers/CMSIS/Include/cmsis_gcc.h **** #if (defined (__ARM_FEATURE_DSP) && (__ARM_FEATURE_DSP == 1))
1537:Drivers/CMSIS/Include/cmsis_gcc.h **** 
1538:Drivers/CMSIS/Include/cmsis_gcc.h **** __STATIC_FORCEINLINE uint32_t __SADD8(uint32_t op1, uint32_t op2)
1539:Drivers/CMSIS/Include/cmsis_gcc.h **** {
1540:Drivers/CMSIS/Include/cmsis_gcc.h ****   uint32_t result;
1541:Drivers/CMSIS/Include/cmsis_gcc.h **** 
1542:Drivers/CMSIS/Include/cmsis_gcc.h ****   __ASM volatile ("sadd8 %0, %1, %2" : "=r" (result) : "r" (op1), "r" (op2) );
1543:Drivers/CMSIS/Include/cmsis_gcc.h ****   return(result);
1544:Drivers/CMSIS/Include/cmsis_gcc.h **** }
1545:Drivers/CMSIS/Include/cmsis_gcc.h **** 
1546:Drivers/CMSIS/Include/cmsis_gcc.h **** __STATIC_FORCEINLINE uint32_t __QADD8(uint32_t op1, uint32_t op2)
1547:Drivers/CMSIS/Include/cmsis_gcc.h **** {
1548:Drivers/CMSIS/Include/cmsis_gcc.h ****   uint32_t result;
1549:Drivers/CMSIS/Include/cmsis_gcc.h **** 
1550:Drivers/CMSIS/Include/cmsis_gcc.h ****   __ASM volatile ("qadd8 %0, %1, %2" : "=r" (result) : "r" (op1), "r" (op2) );
1551:Drivers/CMSIS/Include/cmsis_gcc.h ****   return(result);
1552:Drivers/CMSIS/Include/cmsis_gcc.h **** }
1553:Drivers/CMSIS/Include/cmsis_gcc.h **** 
1554:Drivers/CMSIS/Include/cmsis_gcc.h **** __STATIC_FORCEINLINE uint32_t __SHADD8(uint32_t op1, uint32_t op2)
1555:Drivers/CMSIS/Include/cmsis_gcc.h **** {
1556:Drivers/CMSIS/Include/cmsis_gcc.h ****   uint32_t result;
1557:Drivers/CMSIS/Include/cmsis_gcc.h **** 
1558:Drivers/CMSIS/Include/cmsis_gcc.h ****   __ASM volatile ("shadd8 %0, %1, %2" : "=r" (result) : "r" (op1), "r" (op2) );
1559:Drivers/CMSIS/Include/cmsis_gcc.h ****   return(result);
1560:Drivers/CMSIS/Include/cmsis_gcc.h **** }
1561:Drivers/CMSIS/Include/cmsis_gcc.h **** 
1562:Drivers/CMSIS/Include/cmsis_gcc.h **** __STATIC_FORCEINLINE uint32_t __UADD8(uint32_t op1, uint32_t op2)
1563:Drivers/CMSIS/Include/cmsis_gcc.h **** {
1564:Drivers/CMSIS/Include/cmsis_gcc.h ****   uint32_t result;
1565:Drivers/CMSIS/Include/cmsis_gcc.h **** 
1566:Drivers/CMSIS/Include/cmsis_gcc.h ****   __ASM volatile ("uadd8 %0, %1, %2" : "=r" (result) : "r" (op1), "r" (op2) );
1567:Drivers/CMSIS/Include/cmsis_gcc.h ****   return(result);
1568:Drivers/CMSIS/Include/cmsis_gcc.h **** }
1569:Drivers/CMSIS/Include/cmsis_gcc.h **** 
1570:Drivers/CMSIS/Include/cmsis_gcc.h **** __STATIC_FORCEINLINE uint32_t __UQADD8(uint32_t op1, uint32_t op2)
1571:Drivers/CMSIS/Include/cmsis_gcc.h **** {
1572:Drivers/CMSIS/Include/cmsis_gcc.h ****   uint32_t result;
1573:Drivers/CMSIS/Include/cmsis_gcc.h **** 
1574:Drivers/CMSIS/Include/cmsis_gcc.h ****   __ASM volatile ("uqadd8 %0, %1, %2" : "=r" (result) : "r" (op1), "r" (op2) );
1575:Drivers/CMSIS/Include/cmsis_gcc.h ****   return(result);
1576:Drivers/CMSIS/Include/cmsis_gcc.h **** }
1577:Drivers/CMSIS/Include/cmsis_gcc.h **** 
1578:Drivers/CMSIS/Include/cmsis_gcc.h **** __STATIC_FORCEINLINE uint32_t __UHADD8(uint32_t op1, uint32_t op2)
1579:Drivers/CMSIS/Include/cmsis_gcc.h **** {
1580:Drivers/CMSIS/Include/cmsis_gcc.h ****   uint32_t result;
1581:Drivers/CMSIS/Include/cmsis_gcc.h **** 
1582:Drivers/CMSIS/Include/cmsis_gcc.h ****   __ASM volatile ("uhadd8 %0, %1, %2" : "=r" (result) : "r" (op1), "r" (op2) );
1583:Drivers/CMSIS/Include/cmsis_gcc.h ****   return(result);
1584:Drivers/CMSIS/Include/cmsis_gcc.h **** }
1585:Drivers/CMSIS/Include/cmsis_gcc.h **** 
1586:Drivers/CMSIS/Include/cmsis_gcc.h **** 
1587:Drivers/CMSIS/Include/cmsis_gcc.h **** __STATIC_FORCEINLINE uint32_t __SSUB8(uint32_t op1, uint32_t op2)
1588:Drivers/CMSIS/Include/cmsis_gcc.h **** {
1589:Drivers/CMSIS/Include/cmsis_gcc.h ****   uint32_t result;
1590:Drivers/CMSIS/Include/cmsis_gcc.h **** 
ARM GAS  /tmp/ccJSV5tm.s 			page 34


1591:Drivers/CMSIS/Include/cmsis_gcc.h ****   __ASM volatile ("ssub8 %0, %1, %2" : "=r" (result) : "r" (op1), "r" (op2) );
1592:Drivers/CMSIS/Include/cmsis_gcc.h ****   return(result);
1593:Drivers/CMSIS/Include/cmsis_gcc.h **** }
1594:Drivers/CMSIS/Include/cmsis_gcc.h **** 
1595:Drivers/CMSIS/Include/cmsis_gcc.h **** __STATIC_FORCEINLINE uint32_t __QSUB8(uint32_t op1, uint32_t op2)
1596:Drivers/CMSIS/Include/cmsis_gcc.h **** {
1597:Drivers/CMSIS/Include/cmsis_gcc.h ****   uint32_t result;
1598:Drivers/CMSIS/Include/cmsis_gcc.h **** 
1599:Drivers/CMSIS/Include/cmsis_gcc.h ****   __ASM volatile ("qsub8 %0, %1, %2" : "=r" (result) : "r" (op1), "r" (op2) );
1600:Drivers/CMSIS/Include/cmsis_gcc.h ****   return(result);
1601:Drivers/CMSIS/Include/cmsis_gcc.h **** }
1602:Drivers/CMSIS/Include/cmsis_gcc.h **** 
1603:Drivers/CMSIS/Include/cmsis_gcc.h **** __STATIC_FORCEINLINE uint32_t __SHSUB8(uint32_t op1, uint32_t op2)
1604:Drivers/CMSIS/Include/cmsis_gcc.h **** {
1605:Drivers/CMSIS/Include/cmsis_gcc.h ****   uint32_t result;
1606:Drivers/CMSIS/Include/cmsis_gcc.h **** 
1607:Drivers/CMSIS/Include/cmsis_gcc.h ****   __ASM volatile ("shsub8 %0, %1, %2" : "=r" (result) : "r" (op1), "r" (op2) );
1608:Drivers/CMSIS/Include/cmsis_gcc.h ****   return(result);
1609:Drivers/CMSIS/Include/cmsis_gcc.h **** }
1610:Drivers/CMSIS/Include/cmsis_gcc.h **** 
1611:Drivers/CMSIS/Include/cmsis_gcc.h **** __STATIC_FORCEINLINE uint32_t __USUB8(uint32_t op1, uint32_t op2)
1612:Drivers/CMSIS/Include/cmsis_gcc.h **** {
1613:Drivers/CMSIS/Include/cmsis_gcc.h ****   uint32_t result;
1614:Drivers/CMSIS/Include/cmsis_gcc.h **** 
1615:Drivers/CMSIS/Include/cmsis_gcc.h ****   __ASM volatile ("usub8 %0, %1, %2" : "=r" (result) : "r" (op1), "r" (op2) );
1616:Drivers/CMSIS/Include/cmsis_gcc.h ****   return(result);
1617:Drivers/CMSIS/Include/cmsis_gcc.h **** }
1618:Drivers/CMSIS/Include/cmsis_gcc.h **** 
1619:Drivers/CMSIS/Include/cmsis_gcc.h **** __STATIC_FORCEINLINE uint32_t __UQSUB8(uint32_t op1, uint32_t op2)
1620:Drivers/CMSIS/Include/cmsis_gcc.h **** {
1621:Drivers/CMSIS/Include/cmsis_gcc.h ****   uint32_t result;
1622:Drivers/CMSIS/Include/cmsis_gcc.h **** 
1623:Drivers/CMSIS/Include/cmsis_gcc.h ****   __ASM volatile ("uqsub8 %0, %1, %2" : "=r" (result) : "r" (op1), "r" (op2) );
1624:Drivers/CMSIS/Include/cmsis_gcc.h ****   return(result);
1625:Drivers/CMSIS/Include/cmsis_gcc.h **** }
1626:Drivers/CMSIS/Include/cmsis_gcc.h **** 
1627:Drivers/CMSIS/Include/cmsis_gcc.h **** __STATIC_FORCEINLINE uint32_t __UHSUB8(uint32_t op1, uint32_t op2)
1628:Drivers/CMSIS/Include/cmsis_gcc.h **** {
1629:Drivers/CMSIS/Include/cmsis_gcc.h ****   uint32_t result;
1630:Drivers/CMSIS/Include/cmsis_gcc.h **** 
1631:Drivers/CMSIS/Include/cmsis_gcc.h ****   __ASM volatile ("uhsub8 %0, %1, %2" : "=r" (result) : "r" (op1), "r" (op2) );
1632:Drivers/CMSIS/Include/cmsis_gcc.h ****   return(result);
1633:Drivers/CMSIS/Include/cmsis_gcc.h **** }
1634:Drivers/CMSIS/Include/cmsis_gcc.h **** 
1635:Drivers/CMSIS/Include/cmsis_gcc.h **** 
1636:Drivers/CMSIS/Include/cmsis_gcc.h **** __STATIC_FORCEINLINE uint32_t __SADD16(uint32_t op1, uint32_t op2)
1637:Drivers/CMSIS/Include/cmsis_gcc.h **** {
1638:Drivers/CMSIS/Include/cmsis_gcc.h ****   uint32_t result;
1639:Drivers/CMSIS/Include/cmsis_gcc.h **** 
1640:Drivers/CMSIS/Include/cmsis_gcc.h ****   __ASM volatile ("sadd16 %0, %1, %2" : "=r" (result) : "r" (op1), "r" (op2) );
1641:Drivers/CMSIS/Include/cmsis_gcc.h ****   return(result);
1642:Drivers/CMSIS/Include/cmsis_gcc.h **** }
1643:Drivers/CMSIS/Include/cmsis_gcc.h **** 
1644:Drivers/CMSIS/Include/cmsis_gcc.h **** __STATIC_FORCEINLINE uint32_t __QADD16(uint32_t op1, uint32_t op2)
1645:Drivers/CMSIS/Include/cmsis_gcc.h **** {
1646:Drivers/CMSIS/Include/cmsis_gcc.h ****   uint32_t result;
1647:Drivers/CMSIS/Include/cmsis_gcc.h **** 
ARM GAS  /tmp/ccJSV5tm.s 			page 35


1648:Drivers/CMSIS/Include/cmsis_gcc.h ****   __ASM volatile ("qadd16 %0, %1, %2" : "=r" (result) : "r" (op1), "r" (op2) );
1649:Drivers/CMSIS/Include/cmsis_gcc.h ****   return(result);
1650:Drivers/CMSIS/Include/cmsis_gcc.h **** }
1651:Drivers/CMSIS/Include/cmsis_gcc.h **** 
1652:Drivers/CMSIS/Include/cmsis_gcc.h **** __STATIC_FORCEINLINE uint32_t __SHADD16(uint32_t op1, uint32_t op2)
1653:Drivers/CMSIS/Include/cmsis_gcc.h **** {
1654:Drivers/CMSIS/Include/cmsis_gcc.h ****   uint32_t result;
1655:Drivers/CMSIS/Include/cmsis_gcc.h **** 
1656:Drivers/CMSIS/Include/cmsis_gcc.h ****   __ASM volatile ("shadd16 %0, %1, %2" : "=r" (result) : "r" (op1), "r" (op2) );
1657:Drivers/CMSIS/Include/cmsis_gcc.h ****   return(result);
1658:Drivers/CMSIS/Include/cmsis_gcc.h **** }
1659:Drivers/CMSIS/Include/cmsis_gcc.h **** 
1660:Drivers/CMSIS/Include/cmsis_gcc.h **** __STATIC_FORCEINLINE uint32_t __UADD16(uint32_t op1, uint32_t op2)
1661:Drivers/CMSIS/Include/cmsis_gcc.h **** {
1662:Drivers/CMSIS/Include/cmsis_gcc.h ****   uint32_t result;
1663:Drivers/CMSIS/Include/cmsis_gcc.h **** 
1664:Drivers/CMSIS/Include/cmsis_gcc.h ****   __ASM volatile ("uadd16 %0, %1, %2" : "=r" (result) : "r" (op1), "r" (op2) );
1665:Drivers/CMSIS/Include/cmsis_gcc.h ****   return(result);
1666:Drivers/CMSIS/Include/cmsis_gcc.h **** }
1667:Drivers/CMSIS/Include/cmsis_gcc.h **** 
1668:Drivers/CMSIS/Include/cmsis_gcc.h **** __STATIC_FORCEINLINE uint32_t __UQADD16(uint32_t op1, uint32_t op2)
1669:Drivers/CMSIS/Include/cmsis_gcc.h **** {
1670:Drivers/CMSIS/Include/cmsis_gcc.h ****   uint32_t result;
1671:Drivers/CMSIS/Include/cmsis_gcc.h **** 
1672:Drivers/CMSIS/Include/cmsis_gcc.h ****   __ASM volatile ("uqadd16 %0, %1, %2" : "=r" (result) : "r" (op1), "r" (op2) );
1673:Drivers/CMSIS/Include/cmsis_gcc.h ****   return(result);
1674:Drivers/CMSIS/Include/cmsis_gcc.h **** }
1675:Drivers/CMSIS/Include/cmsis_gcc.h **** 
1676:Drivers/CMSIS/Include/cmsis_gcc.h **** __STATIC_FORCEINLINE uint32_t __UHADD16(uint32_t op1, uint32_t op2)
1677:Drivers/CMSIS/Include/cmsis_gcc.h **** {
1678:Drivers/CMSIS/Include/cmsis_gcc.h ****   uint32_t result;
1679:Drivers/CMSIS/Include/cmsis_gcc.h **** 
1680:Drivers/CMSIS/Include/cmsis_gcc.h ****   __ASM volatile ("uhadd16 %0, %1, %2" : "=r" (result) : "r" (op1), "r" (op2) );
1681:Drivers/CMSIS/Include/cmsis_gcc.h ****   return(result);
1682:Drivers/CMSIS/Include/cmsis_gcc.h **** }
1683:Drivers/CMSIS/Include/cmsis_gcc.h **** 
1684:Drivers/CMSIS/Include/cmsis_gcc.h **** __STATIC_FORCEINLINE uint32_t __SSUB16(uint32_t op1, uint32_t op2)
1685:Drivers/CMSIS/Include/cmsis_gcc.h **** {
1686:Drivers/CMSIS/Include/cmsis_gcc.h ****   uint32_t result;
1687:Drivers/CMSIS/Include/cmsis_gcc.h **** 
1688:Drivers/CMSIS/Include/cmsis_gcc.h ****   __ASM volatile ("ssub16 %0, %1, %2" : "=r" (result) : "r" (op1), "r" (op2) );
1689:Drivers/CMSIS/Include/cmsis_gcc.h ****   return(result);
1690:Drivers/CMSIS/Include/cmsis_gcc.h **** }
1691:Drivers/CMSIS/Include/cmsis_gcc.h **** 
1692:Drivers/CMSIS/Include/cmsis_gcc.h **** __STATIC_FORCEINLINE uint32_t __QSUB16(uint32_t op1, uint32_t op2)
1693:Drivers/CMSIS/Include/cmsis_gcc.h **** {
1694:Drivers/CMSIS/Include/cmsis_gcc.h ****   uint32_t result;
1695:Drivers/CMSIS/Include/cmsis_gcc.h **** 
1696:Drivers/CMSIS/Include/cmsis_gcc.h ****   __ASM volatile ("qsub16 %0, %1, %2" : "=r" (result) : "r" (op1), "r" (op2) );
1697:Drivers/CMSIS/Include/cmsis_gcc.h ****   return(result);
1698:Drivers/CMSIS/Include/cmsis_gcc.h **** }
1699:Drivers/CMSIS/Include/cmsis_gcc.h **** 
1700:Drivers/CMSIS/Include/cmsis_gcc.h **** __STATIC_FORCEINLINE uint32_t __SHSUB16(uint32_t op1, uint32_t op2)
1701:Drivers/CMSIS/Include/cmsis_gcc.h **** {
1702:Drivers/CMSIS/Include/cmsis_gcc.h ****   uint32_t result;
1703:Drivers/CMSIS/Include/cmsis_gcc.h **** 
1704:Drivers/CMSIS/Include/cmsis_gcc.h ****   __ASM volatile ("shsub16 %0, %1, %2" : "=r" (result) : "r" (op1), "r" (op2) );
ARM GAS  /tmp/ccJSV5tm.s 			page 36


1705:Drivers/CMSIS/Include/cmsis_gcc.h ****   return(result);
1706:Drivers/CMSIS/Include/cmsis_gcc.h **** }
1707:Drivers/CMSIS/Include/cmsis_gcc.h **** 
1708:Drivers/CMSIS/Include/cmsis_gcc.h **** __STATIC_FORCEINLINE uint32_t __USUB16(uint32_t op1, uint32_t op2)
1709:Drivers/CMSIS/Include/cmsis_gcc.h **** {
1710:Drivers/CMSIS/Include/cmsis_gcc.h ****   uint32_t result;
1711:Drivers/CMSIS/Include/cmsis_gcc.h **** 
1712:Drivers/CMSIS/Include/cmsis_gcc.h ****   __ASM volatile ("usub16 %0, %1, %2" : "=r" (result) : "r" (op1), "r" (op2) );
1713:Drivers/CMSIS/Include/cmsis_gcc.h ****   return(result);
1714:Drivers/CMSIS/Include/cmsis_gcc.h **** }
1715:Drivers/CMSIS/Include/cmsis_gcc.h **** 
1716:Drivers/CMSIS/Include/cmsis_gcc.h **** __STATIC_FORCEINLINE uint32_t __UQSUB16(uint32_t op1, uint32_t op2)
1717:Drivers/CMSIS/Include/cmsis_gcc.h **** {
1718:Drivers/CMSIS/Include/cmsis_gcc.h ****   uint32_t result;
1719:Drivers/CMSIS/Include/cmsis_gcc.h **** 
1720:Drivers/CMSIS/Include/cmsis_gcc.h ****   __ASM volatile ("uqsub16 %0, %1, %2" : "=r" (result) : "r" (op1), "r" (op2) );
1721:Drivers/CMSIS/Include/cmsis_gcc.h ****   return(result);
1722:Drivers/CMSIS/Include/cmsis_gcc.h **** }
1723:Drivers/CMSIS/Include/cmsis_gcc.h **** 
1724:Drivers/CMSIS/Include/cmsis_gcc.h **** __STATIC_FORCEINLINE uint32_t __UHSUB16(uint32_t op1, uint32_t op2)
1725:Drivers/CMSIS/Include/cmsis_gcc.h **** {
1726:Drivers/CMSIS/Include/cmsis_gcc.h ****   uint32_t result;
1727:Drivers/CMSIS/Include/cmsis_gcc.h **** 
1728:Drivers/CMSIS/Include/cmsis_gcc.h ****   __ASM volatile ("uhsub16 %0, %1, %2" : "=r" (result) : "r" (op1), "r" (op2) );
1729:Drivers/CMSIS/Include/cmsis_gcc.h ****   return(result);
1730:Drivers/CMSIS/Include/cmsis_gcc.h **** }
1731:Drivers/CMSIS/Include/cmsis_gcc.h **** 
1732:Drivers/CMSIS/Include/cmsis_gcc.h **** __STATIC_FORCEINLINE uint32_t __SASX(uint32_t op1, uint32_t op2)
1733:Drivers/CMSIS/Include/cmsis_gcc.h **** {
1734:Drivers/CMSIS/Include/cmsis_gcc.h ****   uint32_t result;
1735:Drivers/CMSIS/Include/cmsis_gcc.h **** 
1736:Drivers/CMSIS/Include/cmsis_gcc.h ****   __ASM volatile ("sasx %0, %1, %2" : "=r" (result) : "r" (op1), "r" (op2) );
1737:Drivers/CMSIS/Include/cmsis_gcc.h ****   return(result);
1738:Drivers/CMSIS/Include/cmsis_gcc.h **** }
1739:Drivers/CMSIS/Include/cmsis_gcc.h **** 
1740:Drivers/CMSIS/Include/cmsis_gcc.h **** __STATIC_FORCEINLINE uint32_t __QASX(uint32_t op1, uint32_t op2)
1741:Drivers/CMSIS/Include/cmsis_gcc.h **** {
1742:Drivers/CMSIS/Include/cmsis_gcc.h ****   uint32_t result;
1743:Drivers/CMSIS/Include/cmsis_gcc.h **** 
1744:Drivers/CMSIS/Include/cmsis_gcc.h ****   __ASM volatile ("qasx %0, %1, %2" : "=r" (result) : "r" (op1), "r" (op2) );
1745:Drivers/CMSIS/Include/cmsis_gcc.h ****   return(result);
1746:Drivers/CMSIS/Include/cmsis_gcc.h **** }
1747:Drivers/CMSIS/Include/cmsis_gcc.h **** 
1748:Drivers/CMSIS/Include/cmsis_gcc.h **** __STATIC_FORCEINLINE uint32_t __SHASX(uint32_t op1, uint32_t op2)
1749:Drivers/CMSIS/Include/cmsis_gcc.h **** {
1750:Drivers/CMSIS/Include/cmsis_gcc.h ****   uint32_t result;
1751:Drivers/CMSIS/Include/cmsis_gcc.h **** 
1752:Drivers/CMSIS/Include/cmsis_gcc.h ****   __ASM volatile ("shasx %0, %1, %2" : "=r" (result) : "r" (op1), "r" (op2) );
1753:Drivers/CMSIS/Include/cmsis_gcc.h ****   return(result);
1754:Drivers/CMSIS/Include/cmsis_gcc.h **** }
1755:Drivers/CMSIS/Include/cmsis_gcc.h **** 
1756:Drivers/CMSIS/Include/cmsis_gcc.h **** __STATIC_FORCEINLINE uint32_t __UASX(uint32_t op1, uint32_t op2)
1757:Drivers/CMSIS/Include/cmsis_gcc.h **** {
1758:Drivers/CMSIS/Include/cmsis_gcc.h ****   uint32_t result;
1759:Drivers/CMSIS/Include/cmsis_gcc.h **** 
1760:Drivers/CMSIS/Include/cmsis_gcc.h ****   __ASM volatile ("uasx %0, %1, %2" : "=r" (result) : "r" (op1), "r" (op2) );
1761:Drivers/CMSIS/Include/cmsis_gcc.h ****   return(result);
ARM GAS  /tmp/ccJSV5tm.s 			page 37


1762:Drivers/CMSIS/Include/cmsis_gcc.h **** }
1763:Drivers/CMSIS/Include/cmsis_gcc.h **** 
1764:Drivers/CMSIS/Include/cmsis_gcc.h **** __STATIC_FORCEINLINE uint32_t __UQASX(uint32_t op1, uint32_t op2)
1765:Drivers/CMSIS/Include/cmsis_gcc.h **** {
1766:Drivers/CMSIS/Include/cmsis_gcc.h ****   uint32_t result;
1767:Drivers/CMSIS/Include/cmsis_gcc.h **** 
1768:Drivers/CMSIS/Include/cmsis_gcc.h ****   __ASM volatile ("uqasx %0, %1, %2" : "=r" (result) : "r" (op1), "r" (op2) );
1769:Drivers/CMSIS/Include/cmsis_gcc.h ****   return(result);
1770:Drivers/CMSIS/Include/cmsis_gcc.h **** }
1771:Drivers/CMSIS/Include/cmsis_gcc.h **** 
1772:Drivers/CMSIS/Include/cmsis_gcc.h **** __STATIC_FORCEINLINE uint32_t __UHASX(uint32_t op1, uint32_t op2)
1773:Drivers/CMSIS/Include/cmsis_gcc.h **** {
1774:Drivers/CMSIS/Include/cmsis_gcc.h ****   uint32_t result;
1775:Drivers/CMSIS/Include/cmsis_gcc.h **** 
1776:Drivers/CMSIS/Include/cmsis_gcc.h ****   __ASM volatile ("uhasx %0, %1, %2" : "=r" (result) : "r" (op1), "r" (op2) );
1777:Drivers/CMSIS/Include/cmsis_gcc.h ****   return(result);
1778:Drivers/CMSIS/Include/cmsis_gcc.h **** }
1779:Drivers/CMSIS/Include/cmsis_gcc.h **** 
1780:Drivers/CMSIS/Include/cmsis_gcc.h **** __STATIC_FORCEINLINE uint32_t __SSAX(uint32_t op1, uint32_t op2)
1781:Drivers/CMSIS/Include/cmsis_gcc.h **** {
1782:Drivers/CMSIS/Include/cmsis_gcc.h ****   uint32_t result;
1783:Drivers/CMSIS/Include/cmsis_gcc.h **** 
1784:Drivers/CMSIS/Include/cmsis_gcc.h ****   __ASM volatile ("ssax %0, %1, %2" : "=r" (result) : "r" (op1), "r" (op2) );
1785:Drivers/CMSIS/Include/cmsis_gcc.h ****   return(result);
1786:Drivers/CMSIS/Include/cmsis_gcc.h **** }
1787:Drivers/CMSIS/Include/cmsis_gcc.h **** 
1788:Drivers/CMSIS/Include/cmsis_gcc.h **** __STATIC_FORCEINLINE uint32_t __QSAX(uint32_t op1, uint32_t op2)
1789:Drivers/CMSIS/Include/cmsis_gcc.h **** {
1790:Drivers/CMSIS/Include/cmsis_gcc.h ****   uint32_t result;
1791:Drivers/CMSIS/Include/cmsis_gcc.h **** 
1792:Drivers/CMSIS/Include/cmsis_gcc.h ****   __ASM volatile ("qsax %0, %1, %2" : "=r" (result) : "r" (op1), "r" (op2) );
1793:Drivers/CMSIS/Include/cmsis_gcc.h ****   return(result);
1794:Drivers/CMSIS/Include/cmsis_gcc.h **** }
1795:Drivers/CMSIS/Include/cmsis_gcc.h **** 
1796:Drivers/CMSIS/Include/cmsis_gcc.h **** __STATIC_FORCEINLINE uint32_t __SHSAX(uint32_t op1, uint32_t op2)
1797:Drivers/CMSIS/Include/cmsis_gcc.h **** {
1798:Drivers/CMSIS/Include/cmsis_gcc.h ****   uint32_t result;
1799:Drivers/CMSIS/Include/cmsis_gcc.h **** 
1800:Drivers/CMSIS/Include/cmsis_gcc.h ****   __ASM volatile ("shsax %0, %1, %2" : "=r" (result) : "r" (op1), "r" (op2) );
1801:Drivers/CMSIS/Include/cmsis_gcc.h ****   return(result);
1802:Drivers/CMSIS/Include/cmsis_gcc.h **** }
1803:Drivers/CMSIS/Include/cmsis_gcc.h **** 
1804:Drivers/CMSIS/Include/cmsis_gcc.h **** __STATIC_FORCEINLINE uint32_t __USAX(uint32_t op1, uint32_t op2)
1805:Drivers/CMSIS/Include/cmsis_gcc.h **** {
1806:Drivers/CMSIS/Include/cmsis_gcc.h ****   uint32_t result;
1807:Drivers/CMSIS/Include/cmsis_gcc.h **** 
1808:Drivers/CMSIS/Include/cmsis_gcc.h ****   __ASM volatile ("usax %0, %1, %2" : "=r" (result) : "r" (op1), "r" (op2) );
1809:Drivers/CMSIS/Include/cmsis_gcc.h ****   return(result);
1810:Drivers/CMSIS/Include/cmsis_gcc.h **** }
1811:Drivers/CMSIS/Include/cmsis_gcc.h **** 
1812:Drivers/CMSIS/Include/cmsis_gcc.h **** __STATIC_FORCEINLINE uint32_t __UQSAX(uint32_t op1, uint32_t op2)
1813:Drivers/CMSIS/Include/cmsis_gcc.h **** {
1814:Drivers/CMSIS/Include/cmsis_gcc.h ****   uint32_t result;
1815:Drivers/CMSIS/Include/cmsis_gcc.h **** 
1816:Drivers/CMSIS/Include/cmsis_gcc.h ****   __ASM volatile ("uqsax %0, %1, %2" : "=r" (result) : "r" (op1), "r" (op2) );
1817:Drivers/CMSIS/Include/cmsis_gcc.h ****   return(result);
1818:Drivers/CMSIS/Include/cmsis_gcc.h **** }
ARM GAS  /tmp/ccJSV5tm.s 			page 38


1819:Drivers/CMSIS/Include/cmsis_gcc.h **** 
1820:Drivers/CMSIS/Include/cmsis_gcc.h **** __STATIC_FORCEINLINE uint32_t __UHSAX(uint32_t op1, uint32_t op2)
1821:Drivers/CMSIS/Include/cmsis_gcc.h **** {
1822:Drivers/CMSIS/Include/cmsis_gcc.h ****   uint32_t result;
1823:Drivers/CMSIS/Include/cmsis_gcc.h **** 
1824:Drivers/CMSIS/Include/cmsis_gcc.h ****   __ASM volatile ("uhsax %0, %1, %2" : "=r" (result) : "r" (op1), "r" (op2) );
1825:Drivers/CMSIS/Include/cmsis_gcc.h ****   return(result);
1826:Drivers/CMSIS/Include/cmsis_gcc.h **** }
1827:Drivers/CMSIS/Include/cmsis_gcc.h **** 
1828:Drivers/CMSIS/Include/cmsis_gcc.h **** __STATIC_FORCEINLINE uint32_t __USAD8(uint32_t op1, uint32_t op2)
1829:Drivers/CMSIS/Include/cmsis_gcc.h **** {
1830:Drivers/CMSIS/Include/cmsis_gcc.h ****   uint32_t result;
1831:Drivers/CMSIS/Include/cmsis_gcc.h **** 
1832:Drivers/CMSIS/Include/cmsis_gcc.h ****   __ASM volatile ("usad8 %0, %1, %2" : "=r" (result) : "r" (op1), "r" (op2) );
1833:Drivers/CMSIS/Include/cmsis_gcc.h ****   return(result);
1834:Drivers/CMSIS/Include/cmsis_gcc.h **** }
1835:Drivers/CMSIS/Include/cmsis_gcc.h **** 
1836:Drivers/CMSIS/Include/cmsis_gcc.h **** __STATIC_FORCEINLINE uint32_t __USADA8(uint32_t op1, uint32_t op2, uint32_t op3)
1837:Drivers/CMSIS/Include/cmsis_gcc.h **** {
1838:Drivers/CMSIS/Include/cmsis_gcc.h ****   uint32_t result;
1839:Drivers/CMSIS/Include/cmsis_gcc.h **** 
1840:Drivers/CMSIS/Include/cmsis_gcc.h ****   __ASM volatile ("usada8 %0, %1, %2, %3" : "=r" (result) : "r" (op1), "r" (op2), "r" (op3) );
1841:Drivers/CMSIS/Include/cmsis_gcc.h ****   return(result);
1842:Drivers/CMSIS/Include/cmsis_gcc.h **** }
1843:Drivers/CMSIS/Include/cmsis_gcc.h **** 
1844:Drivers/CMSIS/Include/cmsis_gcc.h **** #define __SSAT16(ARG1,ARG2) \
1845:Drivers/CMSIS/Include/cmsis_gcc.h **** ({                          \
1846:Drivers/CMSIS/Include/cmsis_gcc.h ****   int32_t __RES, __ARG1 = (ARG1); \
1847:Drivers/CMSIS/Include/cmsis_gcc.h ****   __ASM ("ssat16 %0, %1, %2" : "=r" (__RES) :  "I" (ARG2), "r" (__ARG1) ); \
1848:Drivers/CMSIS/Include/cmsis_gcc.h ****   __RES; \
1849:Drivers/CMSIS/Include/cmsis_gcc.h ****  })
1850:Drivers/CMSIS/Include/cmsis_gcc.h **** 
1851:Drivers/CMSIS/Include/cmsis_gcc.h **** #define __USAT16(ARG1,ARG2) \
1852:Drivers/CMSIS/Include/cmsis_gcc.h **** ({                          \
1853:Drivers/CMSIS/Include/cmsis_gcc.h ****   uint32_t __RES, __ARG1 = (ARG1); \
1854:Drivers/CMSIS/Include/cmsis_gcc.h ****   __ASM ("usat16 %0, %1, %2" : "=r" (__RES) :  "I" (ARG2), "r" (__ARG1) ); \
1855:Drivers/CMSIS/Include/cmsis_gcc.h ****   __RES; \
1856:Drivers/CMSIS/Include/cmsis_gcc.h ****  })
1857:Drivers/CMSIS/Include/cmsis_gcc.h **** 
1858:Drivers/CMSIS/Include/cmsis_gcc.h **** __STATIC_FORCEINLINE uint32_t __UXTB16(uint32_t op1)
1859:Drivers/CMSIS/Include/cmsis_gcc.h **** {
1860:Drivers/CMSIS/Include/cmsis_gcc.h ****   uint32_t result;
1861:Drivers/CMSIS/Include/cmsis_gcc.h **** 
1862:Drivers/CMSIS/Include/cmsis_gcc.h ****   __ASM volatile ("uxtb16 %0, %1" : "=r" (result) : "r" (op1));
1863:Drivers/CMSIS/Include/cmsis_gcc.h ****   return(result);
1864:Drivers/CMSIS/Include/cmsis_gcc.h **** }
1865:Drivers/CMSIS/Include/cmsis_gcc.h **** 
1866:Drivers/CMSIS/Include/cmsis_gcc.h **** __STATIC_FORCEINLINE uint32_t __UXTAB16(uint32_t op1, uint32_t op2)
1867:Drivers/CMSIS/Include/cmsis_gcc.h **** {
1868:Drivers/CMSIS/Include/cmsis_gcc.h ****   uint32_t result;
1869:Drivers/CMSIS/Include/cmsis_gcc.h **** 
1870:Drivers/CMSIS/Include/cmsis_gcc.h ****   __ASM volatile ("uxtab16 %0, %1, %2" : "=r" (result) : "r" (op1), "r" (op2) );
1871:Drivers/CMSIS/Include/cmsis_gcc.h ****   return(result);
1872:Drivers/CMSIS/Include/cmsis_gcc.h **** }
1873:Drivers/CMSIS/Include/cmsis_gcc.h **** 
1874:Drivers/CMSIS/Include/cmsis_gcc.h **** __STATIC_FORCEINLINE uint32_t __SXTB16(uint32_t op1)
1875:Drivers/CMSIS/Include/cmsis_gcc.h **** {
ARM GAS  /tmp/ccJSV5tm.s 			page 39


1876:Drivers/CMSIS/Include/cmsis_gcc.h ****   uint32_t result;
1877:Drivers/CMSIS/Include/cmsis_gcc.h **** 
1878:Drivers/CMSIS/Include/cmsis_gcc.h ****   __ASM volatile ("sxtb16 %0, %1" : "=r" (result) : "r" (op1));
1879:Drivers/CMSIS/Include/cmsis_gcc.h ****   return(result);
1880:Drivers/CMSIS/Include/cmsis_gcc.h **** }
1881:Drivers/CMSIS/Include/cmsis_gcc.h **** 
1882:Drivers/CMSIS/Include/cmsis_gcc.h **** __STATIC_FORCEINLINE uint32_t __SXTAB16(uint32_t op1, uint32_t op2)
1883:Drivers/CMSIS/Include/cmsis_gcc.h **** {
1884:Drivers/CMSIS/Include/cmsis_gcc.h ****   uint32_t result;
1885:Drivers/CMSIS/Include/cmsis_gcc.h **** 
1886:Drivers/CMSIS/Include/cmsis_gcc.h ****   __ASM volatile ("sxtab16 %0, %1, %2" : "=r" (result) : "r" (op1), "r" (op2) );
1887:Drivers/CMSIS/Include/cmsis_gcc.h ****   return(result);
1888:Drivers/CMSIS/Include/cmsis_gcc.h **** }
1889:Drivers/CMSIS/Include/cmsis_gcc.h **** 
1890:Drivers/CMSIS/Include/cmsis_gcc.h **** __STATIC_FORCEINLINE uint32_t __SMUAD  (uint32_t op1, uint32_t op2)
1891:Drivers/CMSIS/Include/cmsis_gcc.h **** {
1892:Drivers/CMSIS/Include/cmsis_gcc.h ****   uint32_t result;
1893:Drivers/CMSIS/Include/cmsis_gcc.h **** 
1894:Drivers/CMSIS/Include/cmsis_gcc.h ****   __ASM volatile ("smuad %0, %1, %2" : "=r" (result) : "r" (op1), "r" (op2) );
1895:Drivers/CMSIS/Include/cmsis_gcc.h ****   return(result);
1896:Drivers/CMSIS/Include/cmsis_gcc.h **** }
1897:Drivers/CMSIS/Include/cmsis_gcc.h **** 
1898:Drivers/CMSIS/Include/cmsis_gcc.h **** __STATIC_FORCEINLINE uint32_t __SMUADX (uint32_t op1, uint32_t op2)
1899:Drivers/CMSIS/Include/cmsis_gcc.h **** {
1900:Drivers/CMSIS/Include/cmsis_gcc.h ****   uint32_t result;
1901:Drivers/CMSIS/Include/cmsis_gcc.h **** 
1902:Drivers/CMSIS/Include/cmsis_gcc.h ****   __ASM volatile ("smuadx %0, %1, %2" : "=r" (result) : "r" (op1), "r" (op2) );
1903:Drivers/CMSIS/Include/cmsis_gcc.h ****   return(result);
1904:Drivers/CMSIS/Include/cmsis_gcc.h **** }
1905:Drivers/CMSIS/Include/cmsis_gcc.h **** 
1906:Drivers/CMSIS/Include/cmsis_gcc.h **** __STATIC_FORCEINLINE uint32_t __SMLAD (uint32_t op1, uint32_t op2, uint32_t op3)
1907:Drivers/CMSIS/Include/cmsis_gcc.h **** {
1908:Drivers/CMSIS/Include/cmsis_gcc.h ****   uint32_t result;
1909:Drivers/CMSIS/Include/cmsis_gcc.h **** 
1910:Drivers/CMSIS/Include/cmsis_gcc.h ****   __ASM volatile ("smlad %0, %1, %2, %3" : "=r" (result) : "r" (op1), "r" (op2), "r" (op3) );
1911:Drivers/CMSIS/Include/cmsis_gcc.h ****   return(result);
1912:Drivers/CMSIS/Include/cmsis_gcc.h **** }
1913:Drivers/CMSIS/Include/cmsis_gcc.h **** 
1914:Drivers/CMSIS/Include/cmsis_gcc.h **** __STATIC_FORCEINLINE uint32_t __SMLADX (uint32_t op1, uint32_t op2, uint32_t op3)
1915:Drivers/CMSIS/Include/cmsis_gcc.h **** {
1916:Drivers/CMSIS/Include/cmsis_gcc.h ****   uint32_t result;
1917:Drivers/CMSIS/Include/cmsis_gcc.h **** 
1918:Drivers/CMSIS/Include/cmsis_gcc.h ****   __ASM volatile ("smladx %0, %1, %2, %3" : "=r" (result) : "r" (op1), "r" (op2), "r" (op3) );
1919:Drivers/CMSIS/Include/cmsis_gcc.h ****   return(result);
1920:Drivers/CMSIS/Include/cmsis_gcc.h **** }
1921:Drivers/CMSIS/Include/cmsis_gcc.h **** 
1922:Drivers/CMSIS/Include/cmsis_gcc.h **** __STATIC_FORCEINLINE uint64_t __SMLALD (uint32_t op1, uint32_t op2, uint64_t acc)
 117              		.loc 2 1922 31 is_stmt 1 view .LVU34
 118              	.LBB77:
1923:Drivers/CMSIS/Include/cmsis_gcc.h **** {
1924:Drivers/CMSIS/Include/cmsis_gcc.h ****   union llreg_u{
 119              		.loc 2 1924 3 view .LVU35
1925:Drivers/CMSIS/Include/cmsis_gcc.h ****     uint32_t w32[2];
1926:Drivers/CMSIS/Include/cmsis_gcc.h ****     uint64_t w64;
1927:Drivers/CMSIS/Include/cmsis_gcc.h ****   } llr;
1928:Drivers/CMSIS/Include/cmsis_gcc.h ****   llr.w64 = acc;
 120              		.loc 2 1928 3 view .LVU36
ARM GAS  /tmp/ccJSV5tm.s 			page 40


1929:Drivers/CMSIS/Include/cmsis_gcc.h **** 
1930:Drivers/CMSIS/Include/cmsis_gcc.h **** #ifndef __ARMEB__   /* Little endian */
1931:Drivers/CMSIS/Include/cmsis_gcc.h ****   __ASM volatile ("smlald %0, %1, %2, %3" : "=r" (llr.w32[0]), "=r" (llr.w32[1]): "r" (op1), "r" (o
 121              		.loc 2 1931 3 view .LVU37
 122              		.syntax unified
 123              	@ 1931 "Drivers/CMSIS/Include/cmsis_gcc.h" 1
 124 0036 C8FBC902 		smlald r0, r2, r8, r9
 125              	@ 0 "" 2
 126              	.LVL11:
1932:Drivers/CMSIS/Include/cmsis_gcc.h **** #else               /* Big endian */
1933:Drivers/CMSIS/Include/cmsis_gcc.h ****   __ASM volatile ("smlald %0, %1, %2, %3" : "=r" (llr.w32[1]), "=r" (llr.w32[0]): "r" (op1), "r" (o
1934:Drivers/CMSIS/Include/cmsis_gcc.h **** #endif
1935:Drivers/CMSIS/Include/cmsis_gcc.h **** 
1936:Drivers/CMSIS/Include/cmsis_gcc.h ****   return(llr.w64);
 127              		.loc 2 1936 3 view .LVU38
 128              		.loc 2 1936 3 is_stmt 0 view .LVU39
 129              		.thumb
 130              		.syntax unified
 131              	.LBE77:
 132              	.LBE76:
 171:Drivers/CMSIS/DSP/Source/FilteringFunctions/arm_conv_q15.c **** 
 172:Drivers/CMSIS/DSP/Source/FilteringFunctions/arm_conv_q15.c ****       /* Decrement the loop counter */
 173:Drivers/CMSIS/DSP/Source/FilteringFunctions/arm_conv_q15.c ****       k--;
 133              		.loc 1 173 7 is_stmt 1 view .LVU40
 134              		.loc 1 173 8 is_stmt 0 view .LVU41
 135 003a 013E     		subs	r6, r6, #1
 136              	.LVL12:
 137              	.L5:
 167:Drivers/CMSIS/DSP/Source/FilteringFunctions/arm_conv_q15.c ****     {
 138              		.loc 1 167 14 is_stmt 1 view .LVU42
 139 003c 002E     		cmp	r6, #0
 140 003e F6D1     		bne	.L4
 174:Drivers/CMSIS/DSP/Source/FilteringFunctions/arm_conv_q15.c ****     }
 175:Drivers/CMSIS/DSP/Source/FilteringFunctions/arm_conv_q15.c **** 
 176:Drivers/CMSIS/DSP/Source/FilteringFunctions/arm_conv_q15.c ****     /* Store the result in the accumulator in the destination buffer. */
 177:Drivers/CMSIS/DSP/Source/FilteringFunctions/arm_conv_q15.c ****     *pOut++ = (q15_t) (__SSAT((sum >> 15), 16));
 141              		.loc 1 177 5 view .LVU43
 142              	.LBB78:
 143              		.loc 1 177 24 view .LVU44
 144 0040 C00B     		lsrs	r0, r0, #15
 145              	.LVL13:
 146              		.loc 1 177 24 is_stmt 0 view .LVU45
 147 0042 40EA4240 		orr	r0, r0, r2, lsl #17
 148              	.LVL14:
 149              		.loc 1 177 24 is_stmt 1 view .LVU46
 150              		.syntax unified
 151              	@ 177 "Drivers/CMSIS/DSP/Source/FilteringFunctions/arm_conv_q15.c" 1
 152 0046 00F30F00 		ssat r0, #16, r0
 153              	@ 0 "" 2
 154              	.LVL15:
 155              		.loc 1 177 24 view .LVU47
 156              		.thumb
 157              		.syntax unified
 158              	.LBE78:
 159              		.loc 1 177 10 is_stmt 0 view .LVU48
 160 004a 1E9B     		ldr	r3, [sp, #120]
 161              	.LVL16:
ARM GAS  /tmp/ccJSV5tm.s 			page 41


 162              		.loc 1 177 13 view .LVU49
 163 004c 23F8020B 		strh	r0, [r3], #2	@ movhi
 164              	.LVL17:
 178:Drivers/CMSIS/DSP/Source/FilteringFunctions/arm_conv_q15.c **** 
 179:Drivers/CMSIS/DSP/Source/FilteringFunctions/arm_conv_q15.c ****     /* Update the inputA and inputB pointers for next MAC calculation */
 180:Drivers/CMSIS/DSP/Source/FilteringFunctions/arm_conv_q15.c ****     py = pIn2 + count;
 165              		.loc 1 180 5 is_stmt 1 view .LVU50
 166              		.loc 1 180 15 is_stmt 0 view .LVU51
 167 0050 07EB4C04 		add	r4, r7, ip, lsl #1
 168              	.LVL18:
 181:Drivers/CMSIS/DSP/Source/FilteringFunctions/arm_conv_q15.c ****     px = pIn1;
 169              		.loc 1 181 5 is_stmt 1 view .LVU52
 182:Drivers/CMSIS/DSP/Source/FilteringFunctions/arm_conv_q15.c **** 
 183:Drivers/CMSIS/DSP/Source/FilteringFunctions/arm_conv_q15.c ****     /* Increment the MAC count */
 184:Drivers/CMSIS/DSP/Source/FilteringFunctions/arm_conv_q15.c ****     count++;
 170              		.loc 1 184 5 view .LVU53
 171              		.loc 1 184 10 is_stmt 0 view .LVU54
 172 0054 0CF1010C 		add	ip, ip, #1
 173              	.LVL19:
 185:Drivers/CMSIS/DSP/Source/FilteringFunctions/arm_conv_q15.c **** 
 186:Drivers/CMSIS/DSP/Source/FilteringFunctions/arm_conv_q15.c ****     /* Decrement the loop counter */
 187:Drivers/CMSIS/DSP/Source/FilteringFunctions/arm_conv_q15.c ****     blockSize1--;
 174              		.loc 1 187 5 is_stmt 1 view .LVU55
 175              		.loc 1 187 15 is_stmt 0 view .LVU56
 176 0058 013D     		subs	r5, r5, #1
 177              	.LVL20:
 177:Drivers/CMSIS/DSP/Source/FilteringFunctions/arm_conv_q15.c **** 
 178              		.loc 1 177 10 view .LVU57
 179 005a 1E93     		str	r3, [sp, #120]
 180              	.LVL21:
 181              	.L3:
 158:Drivers/CMSIS/DSP/Source/FilteringFunctions/arm_conv_q15.c ****   {
 182              		.loc 1 158 23 is_stmt 1 view .LVU58
 158:Drivers/CMSIS/DSP/Source/FilteringFunctions/arm_conv_q15.c ****   {
 183              		.loc 1 158 38 is_stmt 0 view .LVU59
 184 005c 2B1E     		subs	r3, r5, #0
 185 005e 18BF     		it	ne
 186 0060 0123     		movne	r3, #1
 158:Drivers/CMSIS/DSP/Source/FilteringFunctions/arm_conv_q15.c ****   {
 187              		.loc 1 158 23 view .LVU60
 188 0062 BCF1030F 		cmp	ip, #3
 189 0066 05D8     		bhi	.L43
 158:Drivers/CMSIS/DSP/Source/FilteringFunctions/arm_conv_q15.c ****   {
 190              		.loc 1 158 23 view .LVU61
 191 0068 23B1     		cbz	r3, .L43
 192 006a 0D9B     		ldr	r3, [sp, #52]
 165:Drivers/CMSIS/DSP/Source/FilteringFunctions/arm_conv_q15.c **** 
 193              		.loc 1 165 7 view .LVU62
 194 006c 6646     		mov	r6, ip
 161:Drivers/CMSIS/DSP/Source/FilteringFunctions/arm_conv_q15.c **** 
 195              		.loc 1 161 9 view .LVU63
 196 006e 0020     		movs	r0, #0
 197 0070 0246     		mov	r2, r0
 198 0072 E3E7     		b	.L5
 199              	.L43:
 188:Drivers/CMSIS/DSP/Source/FilteringFunctions/arm_conv_q15.c ****   }
 189:Drivers/CMSIS/DSP/Source/FilteringFunctions/arm_conv_q15.c **** 
ARM GAS  /tmp/ccJSV5tm.s 			page 42


 190:Drivers/CMSIS/DSP/Source/FilteringFunctions/arm_conv_q15.c ****   /* The second part of the stage starts here */
 191:Drivers/CMSIS/DSP/Source/FilteringFunctions/arm_conv_q15.c ****   /* The internal loop, over count, is unrolled by 4 */
 192:Drivers/CMSIS/DSP/Source/FilteringFunctions/arm_conv_q15.c ****   /* To, read the last two inputB samples using SIMD:
 193:Drivers/CMSIS/DSP/Source/FilteringFunctions/arm_conv_q15.c ****    * y[srcBLen] and y[srcBLen-1] coefficients, py is decremented by 1 */
 194:Drivers/CMSIS/DSP/Source/FilteringFunctions/arm_conv_q15.c ****   py = py - 1;
 200              		.loc 1 194 3 is_stmt 1 view .LVU64
 201              		.loc 1 194 11 is_stmt 0 view .LVU65
 202 0074 023C     		subs	r4, r4, #2
 203              	.LVL22:
 195:Drivers/CMSIS/DSP/Source/FilteringFunctions/arm_conv_q15.c **** 
 196:Drivers/CMSIS/DSP/Source/FilteringFunctions/arm_conv_q15.c ****   while (blockSize1 > 0U)
 204              		.loc 1 196 3 is_stmt 1 view .LVU66
 205 0076 2E46     		mov	r6, r5
 206 0078 8846     		mov	r8, r1
 207              		.loc 1 196 9 is_stmt 0 view .LVU67
 208 007a 30E0     		b	.L7
 209              	.LVL23:
 210              	.L9:
 197:Drivers/CMSIS/DSP/Source/FilteringFunctions/arm_conv_q15.c ****   {
 198:Drivers/CMSIS/DSP/Source/FilteringFunctions/arm_conv_q15.c ****     /* Accumulator is made zero for every iteration */
 199:Drivers/CMSIS/DSP/Source/FilteringFunctions/arm_conv_q15.c ****     sum = 0;
 200:Drivers/CMSIS/DSP/Source/FilteringFunctions/arm_conv_q15.c **** 
 201:Drivers/CMSIS/DSP/Source/FilteringFunctions/arm_conv_q15.c ****     /* Apply loop unrolling and compute 4 MACs simultaneously. */
 202:Drivers/CMSIS/DSP/Source/FilteringFunctions/arm_conv_q15.c ****     k = count >> 2U;
 203:Drivers/CMSIS/DSP/Source/FilteringFunctions/arm_conv_q15.c **** 
 204:Drivers/CMSIS/DSP/Source/FilteringFunctions/arm_conv_q15.c ****     /* First part of the processing with loop unrolling.  Compute 4 MACs at a time.
 205:Drivers/CMSIS/DSP/Source/FilteringFunctions/arm_conv_q15.c ****      ** a second loop below computes MACs for the remaining 1 to 3 samples. */
 206:Drivers/CMSIS/DSP/Source/FilteringFunctions/arm_conv_q15.c ****     while (k > 0U)
 207:Drivers/CMSIS/DSP/Source/FilteringFunctions/arm_conv_q15.c ****     {
 208:Drivers/CMSIS/DSP/Source/FilteringFunctions/arm_conv_q15.c ****       /* Perform the multiply-accumulates */
 209:Drivers/CMSIS/DSP/Source/FilteringFunctions/arm_conv_q15.c ****       /* x[0], x[1] are multiplied with y[srcBLen - 1], y[srcBLen - 2] respectively */
 210:Drivers/CMSIS/DSP/Source/FilteringFunctions/arm_conv_q15.c ****       sum = __SMLALDX(*__SIMD32(px)++, *__SIMD32(py)--, sum);
 211              		.loc 1 210 7 is_stmt 1 view .LVU68
 212              		.loc 1 210 23 is_stmt 0 view .LVU69
 213 007c 0546     		mov	r5, r0
 214 007e 55F8086B 		ldr	r6, [r5], #8
 215              	.LVL24:
 216              		.loc 1 210 40 view .LVU70
 217 0082 A146     		mov	r9, r4
 218 0084 59F808B9 		ldr	fp, [r9], #-8
 219              	.LVL25:
 220              	.LBB79:
 221              	.LBI79:
1937:Drivers/CMSIS/Include/cmsis_gcc.h **** }
1938:Drivers/CMSIS/Include/cmsis_gcc.h **** 
1939:Drivers/CMSIS/Include/cmsis_gcc.h **** __STATIC_FORCEINLINE uint64_t __SMLALDX (uint32_t op1, uint32_t op2, uint64_t acc)
 222              		.loc 2 1939 31 is_stmt 1 view .LVU71
 223              	.LBB80:
1940:Drivers/CMSIS/Include/cmsis_gcc.h **** {
1941:Drivers/CMSIS/Include/cmsis_gcc.h ****   union llreg_u{
 224              		.loc 2 1941 3 view .LVU72
1942:Drivers/CMSIS/Include/cmsis_gcc.h ****     uint32_t w32[2];
1943:Drivers/CMSIS/Include/cmsis_gcc.h ****     uint64_t w64;
1944:Drivers/CMSIS/Include/cmsis_gcc.h ****   } llr;
1945:Drivers/CMSIS/Include/cmsis_gcc.h ****   llr.w64 = acc;
 225              		.loc 2 1945 3 view .LVU73
1946:Drivers/CMSIS/Include/cmsis_gcc.h **** 
ARM GAS  /tmp/ccJSV5tm.s 			page 43


1947:Drivers/CMSIS/Include/cmsis_gcc.h **** #ifndef __ARMEB__   /* Little endian */
1948:Drivers/CMSIS/Include/cmsis_gcc.h ****   __ASM volatile ("smlaldx %0, %1, %2, %3" : "=r" (llr.w32[0]), "=r" (llr.w32[1]): "r" (op1), "r" (
 226              		.loc 2 1948 3 view .LVU74
 227              		.syntax unified
 228              	@ 1948 "Drivers/CMSIS/Include/cmsis_gcc.h" 1
 229 0088 C6FBDB32 		smlaldx r3, r2, r6, fp
 230              	@ 0 "" 2
 231              	.LVL26:
1949:Drivers/CMSIS/Include/cmsis_gcc.h **** #else               /* Big endian */
1950:Drivers/CMSIS/Include/cmsis_gcc.h ****   __ASM volatile ("smlaldx %0, %1, %2, %3" : "=r" (llr.w32[1]), "=r" (llr.w32[0]): "r" (op1), "r" (
1951:Drivers/CMSIS/Include/cmsis_gcc.h **** #endif
1952:Drivers/CMSIS/Include/cmsis_gcc.h **** 
1953:Drivers/CMSIS/Include/cmsis_gcc.h ****   return(llr.w64);
 232              		.loc 2 1953 3 view .LVU75
 233              		.loc 2 1953 3 is_stmt 0 view .LVU76
 234              		.thumb
 235              		.syntax unified
 236              	.LBE80:
 237              	.LBE79:
 211:Drivers/CMSIS/DSP/Source/FilteringFunctions/arm_conv_q15.c ****       /* x[2], x[3] are multiplied with y[srcBLen - 3], y[srcBLen - 4] respectively */
 212:Drivers/CMSIS/DSP/Source/FilteringFunctions/arm_conv_q15.c ****       sum = __SMLALDX(*__SIMD32(px)++, *__SIMD32(py)--, sum);
 238              		.loc 1 212 7 is_stmt 1 view .LVU77
 239              		.loc 1 212 23 is_stmt 0 view .LVU78
 240 008c 4068     		ldr	r0, [r0, #4]
 241              	.LVL27:
 242              		.loc 1 212 40 view .LVU79
 243 008e 54F8044C 		ldr	r4, [r4, #-4]
 244              	.LVL28:
 245              	.LBB81:
 246              	.LBI81:
1939:Drivers/CMSIS/Include/cmsis_gcc.h **** {
 247              		.loc 2 1939 31 is_stmt 1 view .LVU80
 248              	.LBB82:
1941:Drivers/CMSIS/Include/cmsis_gcc.h ****     uint32_t w32[2];
 249              		.loc 2 1941 3 view .LVU81
1945:Drivers/CMSIS/Include/cmsis_gcc.h **** 
 250              		.loc 2 1945 3 view .LVU82
1948:Drivers/CMSIS/Include/cmsis_gcc.h **** #else               /* Big endian */
 251              		.loc 2 1948 3 view .LVU83
 252              		.syntax unified
 253              	@ 1948 "Drivers/CMSIS/Include/cmsis_gcc.h" 1
 254 0092 C0FBD432 		smlaldx r3, r2, r0, r4
 255              	@ 0 "" 2
 256              	.LVL29:
 257              		.loc 2 1953 3 view .LVU84
 258              		.loc 2 1953 3 is_stmt 0 view .LVU85
 259              		.thumb
 260              		.syntax unified
 261              	.LBE82:
 262              	.LBE81:
 213:Drivers/CMSIS/DSP/Source/FilteringFunctions/arm_conv_q15.c **** 
 214:Drivers/CMSIS/DSP/Source/FilteringFunctions/arm_conv_q15.c ****       /* Decrement the loop counter */
 215:Drivers/CMSIS/DSP/Source/FilteringFunctions/arm_conv_q15.c ****       k--;
 263              		.loc 1 215 7 is_stmt 1 view .LVU86
 264              		.loc 1 215 8 is_stmt 0 view .LVU87
 265 0096 0139     		subs	r1, r1, #1
 266              	.LVL30:
ARM GAS  /tmp/ccJSV5tm.s 			page 44


 212:Drivers/CMSIS/DSP/Source/FilteringFunctions/arm_conv_q15.c **** 
 267              		.loc 1 212 53 view .LVU88
 268 0098 4C46     		mov	r4, r9
 212:Drivers/CMSIS/DSP/Source/FilteringFunctions/arm_conv_q15.c **** 
 269              		.loc 1 212 36 view .LVU89
 270 009a 2846     		mov	r0, r5
 271              	.LVL31:
 272              	.L8:
 206:Drivers/CMSIS/DSP/Source/FilteringFunctions/arm_conv_q15.c ****     {
 273              		.loc 1 206 14 is_stmt 1 view .LVU90
 274 009c 0029     		cmp	r1, #0
 275 009e EDD1     		bne	.L9
 216:Drivers/CMSIS/DSP/Source/FilteringFunctions/arm_conv_q15.c ****     }
 217:Drivers/CMSIS/DSP/Source/FilteringFunctions/arm_conv_q15.c **** 
 218:Drivers/CMSIS/DSP/Source/FilteringFunctions/arm_conv_q15.c ****     /* For the next MAC operations, the pointer py is used without SIMD
 219:Drivers/CMSIS/DSP/Source/FilteringFunctions/arm_conv_q15.c ****      * So, py is incremented by 1 */
 220:Drivers/CMSIS/DSP/Source/FilteringFunctions/arm_conv_q15.c ****     py = py + 1U;
 276              		.loc 1 220 13 is_stmt 0 view .LVU91
 277 00a0 5646     		mov	r6, r10
 278              		.loc 1 220 5 is_stmt 1 view .LVU92
 279              		.loc 1 220 13 is_stmt 0 view .LVU93
 280 00a2 0234     		adds	r4, r4, #2
 281              	.LVL32:
 221:Drivers/CMSIS/DSP/Source/FilteringFunctions/arm_conv_q15.c **** 
 222:Drivers/CMSIS/DSP/Source/FilteringFunctions/arm_conv_q15.c ****     /* If the count is not a multiple of 4, compute any remaining MACs here.
 223:Drivers/CMSIS/DSP/Source/FilteringFunctions/arm_conv_q15.c ****      ** No loop unrolling is used. */
 224:Drivers/CMSIS/DSP/Source/FilteringFunctions/arm_conv_q15.c ****     k = count % 0x4U;
 282              		.loc 1 224 5 is_stmt 1 view .LVU94
 283              		.loc 1 224 7 is_stmt 0 view .LVU95
 284 00a4 0CF00301 		and	r1, ip, #3
 285              	.LVL33:
 225:Drivers/CMSIS/DSP/Source/FilteringFunctions/arm_conv_q15.c **** 
 226:Drivers/CMSIS/DSP/Source/FilteringFunctions/arm_conv_q15.c ****     while (k > 0U)
 286              		.loc 1 226 5 is_stmt 1 view .LVU96
 287              		.loc 1 226 11 is_stmt 0 view .LVU97
 288 00a8 06E0     		b	.L10
 289              	.LVL34:
 290              	.L11:
 227:Drivers/CMSIS/DSP/Source/FilteringFunctions/arm_conv_q15.c ****     {
 228:Drivers/CMSIS/DSP/Source/FilteringFunctions/arm_conv_q15.c ****       /* Perform the multiply-accumulates */
 229:Drivers/CMSIS/DSP/Source/FilteringFunctions/arm_conv_q15.c ****       sum = __SMLALD(*px++, *py--, sum);
 291              		.loc 1 229 7 is_stmt 1 view .LVU98
 292              		.loc 1 229 22 is_stmt 0 view .LVU99
 293 00aa 30F9025B 		ldrsh	r5, [r0], #2
 294              	.LVL35:
 295              		.loc 1 229 29 view .LVU100
 296 00ae 34F90299 		ldrsh	r9, [r4], #-2
 297              	.LVL36:
 298              	.LBB83:
 299              	.LBI83:
1922:Drivers/CMSIS/Include/cmsis_gcc.h **** {
 300              		.loc 2 1922 31 is_stmt 1 view .LVU101
 301              	.LBB84:
1924:Drivers/CMSIS/Include/cmsis_gcc.h ****     uint32_t w32[2];
 302              		.loc 2 1924 3 view .LVU102
1928:Drivers/CMSIS/Include/cmsis_gcc.h **** 
 303              		.loc 2 1928 3 view .LVU103
ARM GAS  /tmp/ccJSV5tm.s 			page 45


1931:Drivers/CMSIS/Include/cmsis_gcc.h **** #else               /* Big endian */
 304              		.loc 2 1931 3 view .LVU104
 305              		.syntax unified
 306              	@ 1931 "Drivers/CMSIS/Include/cmsis_gcc.h" 1
 307 00b2 C5FBC932 		smlald r3, r2, r5, r9
 308              	@ 0 "" 2
 309              	.LVL37:
1936:Drivers/CMSIS/Include/cmsis_gcc.h **** }
 310              		.loc 2 1936 3 view .LVU105
1936:Drivers/CMSIS/Include/cmsis_gcc.h **** }
 311              		.loc 2 1936 3 is_stmt 0 view .LVU106
 312              		.thumb
 313              		.syntax unified
 314              	.LBE84:
 315              	.LBE83:
 230:Drivers/CMSIS/DSP/Source/FilteringFunctions/arm_conv_q15.c **** 
 231:Drivers/CMSIS/DSP/Source/FilteringFunctions/arm_conv_q15.c ****       /* Decrement the loop counter */
 232:Drivers/CMSIS/DSP/Source/FilteringFunctions/arm_conv_q15.c ****       k--;
 316              		.loc 1 232 7 is_stmt 1 view .LVU107
 317              		.loc 1 232 8 is_stmt 0 view .LVU108
 318 00b6 0139     		subs	r1, r1, #1
 319              	.LVL38:
 320              	.L10:
 226:Drivers/CMSIS/DSP/Source/FilteringFunctions/arm_conv_q15.c ****     {
 321              		.loc 1 226 14 is_stmt 1 view .LVU109
 322 00b8 0029     		cmp	r1, #0
 323 00ba F6D1     		bne	.L11
 233:Drivers/CMSIS/DSP/Source/FilteringFunctions/arm_conv_q15.c ****     }
 234:Drivers/CMSIS/DSP/Source/FilteringFunctions/arm_conv_q15.c **** 
 235:Drivers/CMSIS/DSP/Source/FilteringFunctions/arm_conv_q15.c ****     /* Store the result in the accumulator in the destination buffer. */
 236:Drivers/CMSIS/DSP/Source/FilteringFunctions/arm_conv_q15.c ****     *pOut++ = (q15_t) (__SSAT((sum >> 15), 16));
 324              		.loc 1 236 5 view .LVU110
 325              	.LBB85:
 326              		.loc 1 236 24 view .LVU111
 327 00bc DB0B     		lsrs	r3, r3, #15
 328              	.LVL39:
 329              		.loc 1 236 24 is_stmt 0 view .LVU112
 330 00be 43EA4243 		orr	r3, r3, r2, lsl #17
 331              	.LVL40:
 332              		.loc 1 236 24 is_stmt 1 view .LVU113
 333              		.syntax unified
 334              	@ 236 "Drivers/CMSIS/DSP/Source/FilteringFunctions/arm_conv_q15.c" 1
 335 00c2 03F30F03 		ssat r3, #16, r3
 336              	@ 0 "" 2
 337              	.LVL41:
 338              		.loc 1 236 24 view .LVU114
 339              		.thumb
 340              		.syntax unified
 341              	.LBE85:
 342              		.loc 1 236 10 is_stmt 0 view .LVU115
 343 00c6 1E9A     		ldr	r2, [sp, #120]
 344              	.LVL42:
 345              		.loc 1 236 13 view .LVU116
 346 00c8 22F8023B 		strh	r3, [r2], #2	@ movhi
 347              	.LVL43:
 237:Drivers/CMSIS/DSP/Source/FilteringFunctions/arm_conv_q15.c **** 
 238:Drivers/CMSIS/DSP/Source/FilteringFunctions/arm_conv_q15.c ****     /* Update the inputA and inputB pointers for next MAC calculation */
ARM GAS  /tmp/ccJSV5tm.s 			page 46


 239:Drivers/CMSIS/DSP/Source/FilteringFunctions/arm_conv_q15.c ****     py = pIn2 + (count - 1U);
 348              		.loc 1 239 5 is_stmt 1 view .LVU117
 349              		.loc 1 239 15 is_stmt 0 view .LVU118
 350 00cc 6FF00044 		mvn	r4, #-2147483648
 351              	.LVL44:
 352              		.loc 1 239 15 view .LVU119
 353 00d0 6444     		add	r4, r4, ip
 354 00d2 07EB4404 		add	r4, r7, r4, lsl #1
 355              	.LVL45:
 240:Drivers/CMSIS/DSP/Source/FilteringFunctions/arm_conv_q15.c ****     px = pIn1;
 356              		.loc 1 240 5 is_stmt 1 view .LVU120
 241:Drivers/CMSIS/DSP/Source/FilteringFunctions/arm_conv_q15.c **** 
 242:Drivers/CMSIS/DSP/Source/FilteringFunctions/arm_conv_q15.c ****     /* Increment the MAC count */
 243:Drivers/CMSIS/DSP/Source/FilteringFunctions/arm_conv_q15.c ****     count++;
 357              		.loc 1 243 5 view .LVU121
 358              		.loc 1 243 10 is_stmt 0 view .LVU122
 359 00d6 0CF1010C 		add	ip, ip, #1
 360              	.LVL46:
 244:Drivers/CMSIS/DSP/Source/FilteringFunctions/arm_conv_q15.c **** 
 245:Drivers/CMSIS/DSP/Source/FilteringFunctions/arm_conv_q15.c ****     /* Decrement the loop counter */
 246:Drivers/CMSIS/DSP/Source/FilteringFunctions/arm_conv_q15.c ****     blockSize1--;
 361              		.loc 1 246 5 is_stmt 1 view .LVU123
 362              		.loc 1 246 15 is_stmt 0 view .LVU124
 363 00da 013E     		subs	r6, r6, #1
 364              	.LVL47:
 236:Drivers/CMSIS/DSP/Source/FilteringFunctions/arm_conv_q15.c **** 
 365              		.loc 1 236 10 view .LVU125
 366 00dc 1E92     		str	r2, [sp, #120]
 367              	.LVL48:
 368              	.L7:
 196:Drivers/CMSIS/DSP/Source/FilteringFunctions/arm_conv_q15.c ****   {
 369              		.loc 1 196 21 is_stmt 1 view .LVU126
 370 00de 36B1     		cbz	r6, .L47
 199:Drivers/CMSIS/DSP/Source/FilteringFunctions/arm_conv_q15.c **** 
 371              		.loc 1 199 5 view .LVU127
 372              	.LVL49:
 202:Drivers/CMSIS/DSP/Source/FilteringFunctions/arm_conv_q15.c **** 
 373              		.loc 1 202 5 view .LVU128
 202:Drivers/CMSIS/DSP/Source/FilteringFunctions/arm_conv_q15.c **** 
 374              		.loc 1 202 7 is_stmt 0 view .LVU129
 375 00e0 4FEA9C01 		lsr	r1, ip, #2
 376              	.LVL50:
 206:Drivers/CMSIS/DSP/Source/FilteringFunctions/arm_conv_q15.c ****     {
 377              		.loc 1 206 5 is_stmt 1 view .LVU130
 206:Drivers/CMSIS/DSP/Source/FilteringFunctions/arm_conv_q15.c ****     {
 378              		.loc 1 206 11 is_stmt 0 view .LVU131
 379 00e4 0D98     		ldr	r0, [sp, #52]
 199:Drivers/CMSIS/DSP/Source/FilteringFunctions/arm_conv_q15.c **** 
 380              		.loc 1 199 9 view .LVU132
 381 00e6 0023     		movs	r3, #0
 382 00e8 1A46     		mov	r2, r3
 383 00ea B246     		mov	r10, r6
 206:Drivers/CMSIS/DSP/Source/FilteringFunctions/arm_conv_q15.c ****     {
 384              		.loc 1 206 11 view .LVU133
 385 00ec D6E7     		b	.L8
 386              	.LVL51:
 387              	.L47:
ARM GAS  /tmp/ccJSV5tm.s 			page 47


 247:Drivers/CMSIS/DSP/Source/FilteringFunctions/arm_conv_q15.c ****   }
 248:Drivers/CMSIS/DSP/Source/FilteringFunctions/arm_conv_q15.c **** 
 249:Drivers/CMSIS/DSP/Source/FilteringFunctions/arm_conv_q15.c ****   /* --------------------------
 250:Drivers/CMSIS/DSP/Source/FilteringFunctions/arm_conv_q15.c ****    * Initializations of stage2
 251:Drivers/CMSIS/DSP/Source/FilteringFunctions/arm_conv_q15.c ****    * ------------------------*/
 252:Drivers/CMSIS/DSP/Source/FilteringFunctions/arm_conv_q15.c **** 
 253:Drivers/CMSIS/DSP/Source/FilteringFunctions/arm_conv_q15.c ****   /* sum = x[0] * y[srcBLen-1] + x[1] * y[srcBLen-2] +...+ x[srcBLen-1] * y[0]
 254:Drivers/CMSIS/DSP/Source/FilteringFunctions/arm_conv_q15.c ****    * sum = x[1] * y[srcBLen-1] + x[2] * y[srcBLen-2] +...+ x[srcBLen] * y[0]
 255:Drivers/CMSIS/DSP/Source/FilteringFunctions/arm_conv_q15.c ****    * ....
 256:Drivers/CMSIS/DSP/Source/FilteringFunctions/arm_conv_q15.c ****    * sum = x[srcALen-srcBLen-2] * y[srcBLen-1] + x[srcALen] * y[srcBLen-2] +...+ x[srcALen-1] * y[0
 257:Drivers/CMSIS/DSP/Source/FilteringFunctions/arm_conv_q15.c ****    */
 258:Drivers/CMSIS/DSP/Source/FilteringFunctions/arm_conv_q15.c **** 
 259:Drivers/CMSIS/DSP/Source/FilteringFunctions/arm_conv_q15.c ****   /* Working pointer of inputA */
 260:Drivers/CMSIS/DSP/Source/FilteringFunctions/arm_conv_q15.c ****   px = pIn1;
 261:Drivers/CMSIS/DSP/Source/FilteringFunctions/arm_conv_q15.c **** 
 262:Drivers/CMSIS/DSP/Source/FilteringFunctions/arm_conv_q15.c ****   /* Working pointer of inputB */
 263:Drivers/CMSIS/DSP/Source/FilteringFunctions/arm_conv_q15.c ****   pSrc2 = pIn2 + (srcBLen - 1U);
 388              		.loc 1 263 16 view .LVU134
 389 00ee 1196     		str	r6, [sp, #68]
 260:Drivers/CMSIS/DSP/Source/FilteringFunctions/arm_conv_q15.c **** 
 390              		.loc 1 260 3 is_stmt 1 view .LVU135
 391              		.loc 1 263 3 view .LVU136
 392              		.loc 1 263 16 is_stmt 0 view .LVU137
 393 00f0 6FF00043 		mvn	r3, #-2147483648
 394 00f4 0F9A     		ldr	r2, [sp, #60]
 395 00f6 1344     		add	r3, r3, r2
 396              		.loc 1 263 9 view .LVU138
 397 00f8 07EB4303 		add	r3, r7, r3, lsl #1
 398 00fc 0E93     		str	r3, [sp, #56]
 399              	.LVL52:
 264:Drivers/CMSIS/DSP/Source/FilteringFunctions/arm_conv_q15.c ****   py = pSrc2;
 400              		.loc 1 264 3 is_stmt 1 view .LVU139
 265:Drivers/CMSIS/DSP/Source/FilteringFunctions/arm_conv_q15.c **** 
 266:Drivers/CMSIS/DSP/Source/FilteringFunctions/arm_conv_q15.c ****   /* count is the index by which the pointer pIn1 to be incremented */
 267:Drivers/CMSIS/DSP/Source/FilteringFunctions/arm_conv_q15.c ****   count = 0U;
 401              		.loc 1 267 3 view .LVU140
 268:Drivers/CMSIS/DSP/Source/FilteringFunctions/arm_conv_q15.c **** 
 269:Drivers/CMSIS/DSP/Source/FilteringFunctions/arm_conv_q15.c **** 
 270:Drivers/CMSIS/DSP/Source/FilteringFunctions/arm_conv_q15.c ****   /* --------------------
 271:Drivers/CMSIS/DSP/Source/FilteringFunctions/arm_conv_q15.c ****    * Stage2 process
 272:Drivers/CMSIS/DSP/Source/FilteringFunctions/arm_conv_q15.c ****    * -------------------*/
 273:Drivers/CMSIS/DSP/Source/FilteringFunctions/arm_conv_q15.c **** 
 274:Drivers/CMSIS/DSP/Source/FilteringFunctions/arm_conv_q15.c ****   /* Stage2 depends on srcBLen as in this stage srcBLen number of MACS are performed.
 275:Drivers/CMSIS/DSP/Source/FilteringFunctions/arm_conv_q15.c ****    * So, to loop unroll over blockSize2,
 276:Drivers/CMSIS/DSP/Source/FilteringFunctions/arm_conv_q15.c ****    * srcBLen should be greater than or equal to 4 */
 277:Drivers/CMSIS/DSP/Source/FilteringFunctions/arm_conv_q15.c ****   if (srcBLen >= 4U)
 402              		.loc 1 277 3 view .LVU141
 403              		.loc 1 277 6 is_stmt 0 view .LVU142
 404 00fe 032A     		cmp	r2, #3
 405 0100 40F29C81 		bls	.L40
 278:Drivers/CMSIS/DSP/Source/FilteringFunctions/arm_conv_q15.c ****   {
 279:Drivers/CMSIS/DSP/Source/FilteringFunctions/arm_conv_q15.c ****     /* Loop unroll over blockSize2, by 4 */
 280:Drivers/CMSIS/DSP/Source/FilteringFunctions/arm_conv_q15.c ****     blkCnt = blockSize2 >> 2U;
 406              		.loc 1 280 5 is_stmt 1 view .LVU143
 407              		.loc 1 280 12 is_stmt 0 view .LVU144
 408 0104 4FEA9E03 		lsr	r3, lr, #2
 409              	.LVL53:
ARM GAS  /tmp/ccJSV5tm.s 			page 48


 410              		.loc 1 280 12 view .LVU145
 411 0108 1093     		str	r3, [sp, #64]
 412              	.LVL54:
 281:Drivers/CMSIS/DSP/Source/FilteringFunctions/arm_conv_q15.c **** 
 282:Drivers/CMSIS/DSP/Source/FilteringFunctions/arm_conv_q15.c ****     while (blkCnt > 0U)
 413              		.loc 1 282 5 is_stmt 1 view .LVU146
 260:Drivers/CMSIS/DSP/Source/FilteringFunctions/arm_conv_q15.c **** 
 414              		.loc 1 260 6 is_stmt 0 view .LVU147
 415 010a 0D9B     		ldr	r3, [sp, #52]
 416              	.LVL55:
 260:Drivers/CMSIS/DSP/Source/FilteringFunctions/arm_conv_q15.c **** 
 417              		.loc 1 260 6 view .LVU148
 418 010c CDF84880 		str	r8, [sp, #72]
 419 0110 CDF84CE0 		str	lr, [sp, #76]
 420              		.loc 1 282 11 view .LVU149
 421 0114 72E0     		b	.L14
 422              	.LVL56:
 423              	.L49:
 283:Drivers/CMSIS/DSP/Source/FilteringFunctions/arm_conv_q15.c ****     {
 284:Drivers/CMSIS/DSP/Source/FilteringFunctions/arm_conv_q15.c ****       py = py - 1U;
 285:Drivers/CMSIS/DSP/Source/FilteringFunctions/arm_conv_q15.c **** 
 286:Drivers/CMSIS/DSP/Source/FilteringFunctions/arm_conv_q15.c ****       /* Set all accumulators to zero */
 287:Drivers/CMSIS/DSP/Source/FilteringFunctions/arm_conv_q15.c ****       acc0 = 0;
 288:Drivers/CMSIS/DSP/Source/FilteringFunctions/arm_conv_q15.c ****       acc1 = 0;
 289:Drivers/CMSIS/DSP/Source/FilteringFunctions/arm_conv_q15.c ****       acc2 = 0;
 290:Drivers/CMSIS/DSP/Source/FilteringFunctions/arm_conv_q15.c ****       acc3 = 0;
 291:Drivers/CMSIS/DSP/Source/FilteringFunctions/arm_conv_q15.c **** 
 292:Drivers/CMSIS/DSP/Source/FilteringFunctions/arm_conv_q15.c **** 
 293:Drivers/CMSIS/DSP/Source/FilteringFunctions/arm_conv_q15.c ****       /* read x[0], x[1] samples */
 294:Drivers/CMSIS/DSP/Source/FilteringFunctions/arm_conv_q15.c ****       x0 = *__SIMD32(px);
 295:Drivers/CMSIS/DSP/Source/FilteringFunctions/arm_conv_q15.c ****       /* read x[1], x[2] samples */
 296:Drivers/CMSIS/DSP/Source/FilteringFunctions/arm_conv_q15.c ****       x1 = _SIMD32_OFFSET(px+1);
 297:Drivers/CMSIS/DSP/Source/FilteringFunctions/arm_conv_q15.c ****       px+= 2U;
 298:Drivers/CMSIS/DSP/Source/FilteringFunctions/arm_conv_q15.c **** 
 299:Drivers/CMSIS/DSP/Source/FilteringFunctions/arm_conv_q15.c **** 
 300:Drivers/CMSIS/DSP/Source/FilteringFunctions/arm_conv_q15.c ****       /* Apply loop unrolling and compute 4 MACs simultaneously. */
 301:Drivers/CMSIS/DSP/Source/FilteringFunctions/arm_conv_q15.c ****       k = srcBLen >> 2U;
 302:Drivers/CMSIS/DSP/Source/FilteringFunctions/arm_conv_q15.c **** 
 303:Drivers/CMSIS/DSP/Source/FilteringFunctions/arm_conv_q15.c ****       /* First part of the processing with loop unrolling.  Compute 4 MACs at a time.
 304:Drivers/CMSIS/DSP/Source/FilteringFunctions/arm_conv_q15.c ****        ** a second loop below computes MACs for the remaining 1 to 3 samples. */
 305:Drivers/CMSIS/DSP/Source/FilteringFunctions/arm_conv_q15.c ****       do
 306:Drivers/CMSIS/DSP/Source/FilteringFunctions/arm_conv_q15.c ****       {
 307:Drivers/CMSIS/DSP/Source/FilteringFunctions/arm_conv_q15.c ****         /* Read the last two inputB samples using SIMD:
 308:Drivers/CMSIS/DSP/Source/FilteringFunctions/arm_conv_q15.c ****          * y[srcBLen - 1] and y[srcBLen - 2] */
 309:Drivers/CMSIS/DSP/Source/FilteringFunctions/arm_conv_q15.c ****         c0 = *__SIMD32(py)--;
 310:Drivers/CMSIS/DSP/Source/FilteringFunctions/arm_conv_q15.c **** 
 311:Drivers/CMSIS/DSP/Source/FilteringFunctions/arm_conv_q15.c ****         /* acc0 +=  x[0] * y[srcBLen - 1] + x[1] * y[srcBLen - 2] */
 312:Drivers/CMSIS/DSP/Source/FilteringFunctions/arm_conv_q15.c ****         acc0 = __SMLALDX(x0, c0, acc0);
 313:Drivers/CMSIS/DSP/Source/FilteringFunctions/arm_conv_q15.c **** 
 314:Drivers/CMSIS/DSP/Source/FilteringFunctions/arm_conv_q15.c ****         /* acc1 +=  x[1] * y[srcBLen - 1] + x[2] * y[srcBLen - 2] */
 315:Drivers/CMSIS/DSP/Source/FilteringFunctions/arm_conv_q15.c ****         acc1 = __SMLALDX(x1, c0, acc1);
 316:Drivers/CMSIS/DSP/Source/FilteringFunctions/arm_conv_q15.c **** 
 317:Drivers/CMSIS/DSP/Source/FilteringFunctions/arm_conv_q15.c ****         /* Read x[2], x[3] */
 318:Drivers/CMSIS/DSP/Source/FilteringFunctions/arm_conv_q15.c ****         x2 = *__SIMD32(px);
 319:Drivers/CMSIS/DSP/Source/FilteringFunctions/arm_conv_q15.c **** 
 320:Drivers/CMSIS/DSP/Source/FilteringFunctions/arm_conv_q15.c ****         /* Read x[3], x[4] */
 321:Drivers/CMSIS/DSP/Source/FilteringFunctions/arm_conv_q15.c ****         x3 = _SIMD32_OFFSET(px+1);
ARM GAS  /tmp/ccJSV5tm.s 			page 49


 322:Drivers/CMSIS/DSP/Source/FilteringFunctions/arm_conv_q15.c **** 
 323:Drivers/CMSIS/DSP/Source/FilteringFunctions/arm_conv_q15.c ****         /* acc2 +=  x[2] * y[srcBLen - 1] + x[3] * y[srcBLen - 2] */
 324:Drivers/CMSIS/DSP/Source/FilteringFunctions/arm_conv_q15.c ****         acc2 = __SMLALDX(x2, c0, acc2);
 325:Drivers/CMSIS/DSP/Source/FilteringFunctions/arm_conv_q15.c **** 
 326:Drivers/CMSIS/DSP/Source/FilteringFunctions/arm_conv_q15.c ****         /* acc3 +=  x[3] * y[srcBLen - 1] + x[4] * y[srcBLen - 2] */
 327:Drivers/CMSIS/DSP/Source/FilteringFunctions/arm_conv_q15.c ****         acc3 = __SMLALDX(x3, c0, acc3);
 328:Drivers/CMSIS/DSP/Source/FilteringFunctions/arm_conv_q15.c **** 
 329:Drivers/CMSIS/DSP/Source/FilteringFunctions/arm_conv_q15.c ****         /* Read y[srcBLen - 3] and y[srcBLen - 4] */
 330:Drivers/CMSIS/DSP/Source/FilteringFunctions/arm_conv_q15.c ****         c0 = *__SIMD32(py)--;
 331:Drivers/CMSIS/DSP/Source/FilteringFunctions/arm_conv_q15.c **** 
 332:Drivers/CMSIS/DSP/Source/FilteringFunctions/arm_conv_q15.c ****         /* acc0 +=  x[2] * y[srcBLen - 3] + x[3] * y[srcBLen - 4] */
 333:Drivers/CMSIS/DSP/Source/FilteringFunctions/arm_conv_q15.c ****         acc0 = __SMLALDX(x2, c0, acc0);
 334:Drivers/CMSIS/DSP/Source/FilteringFunctions/arm_conv_q15.c **** 
 335:Drivers/CMSIS/DSP/Source/FilteringFunctions/arm_conv_q15.c ****         /* acc1 +=  x[3] * y[srcBLen - 3] + x[4] * y[srcBLen - 4] */
 336:Drivers/CMSIS/DSP/Source/FilteringFunctions/arm_conv_q15.c ****         acc1 = __SMLALDX(x3, c0, acc1);
 337:Drivers/CMSIS/DSP/Source/FilteringFunctions/arm_conv_q15.c **** 
 338:Drivers/CMSIS/DSP/Source/FilteringFunctions/arm_conv_q15.c ****         /* Read x[4], x[5] */
 339:Drivers/CMSIS/DSP/Source/FilteringFunctions/arm_conv_q15.c ****         x0 = _SIMD32_OFFSET(px+2);
 340:Drivers/CMSIS/DSP/Source/FilteringFunctions/arm_conv_q15.c **** 
 341:Drivers/CMSIS/DSP/Source/FilteringFunctions/arm_conv_q15.c ****         /* Read x[5], x[6] */
 342:Drivers/CMSIS/DSP/Source/FilteringFunctions/arm_conv_q15.c ****         x1 = _SIMD32_OFFSET(px+3);
 343:Drivers/CMSIS/DSP/Source/FilteringFunctions/arm_conv_q15.c ****         px += 4U;
 344:Drivers/CMSIS/DSP/Source/FilteringFunctions/arm_conv_q15.c **** 
 345:Drivers/CMSIS/DSP/Source/FilteringFunctions/arm_conv_q15.c ****         /* acc2 +=  x[4] * y[srcBLen - 3] + x[5] * y[srcBLen - 4] */
 346:Drivers/CMSIS/DSP/Source/FilteringFunctions/arm_conv_q15.c ****         acc2 = __SMLALDX(x0, c0, acc2);
 347:Drivers/CMSIS/DSP/Source/FilteringFunctions/arm_conv_q15.c **** 
 348:Drivers/CMSIS/DSP/Source/FilteringFunctions/arm_conv_q15.c ****         /* acc3 +=  x[5] * y[srcBLen - 3] + x[6] * y[srcBLen - 4] */
 349:Drivers/CMSIS/DSP/Source/FilteringFunctions/arm_conv_q15.c ****         acc3 = __SMLALDX(x1, c0, acc3);
 350:Drivers/CMSIS/DSP/Source/FilteringFunctions/arm_conv_q15.c **** 
 351:Drivers/CMSIS/DSP/Source/FilteringFunctions/arm_conv_q15.c ****       } while (--k);
 352:Drivers/CMSIS/DSP/Source/FilteringFunctions/arm_conv_q15.c **** 
 353:Drivers/CMSIS/DSP/Source/FilteringFunctions/arm_conv_q15.c ****       /* For the next MAC operations, SIMD is not used
 354:Drivers/CMSIS/DSP/Source/FilteringFunctions/arm_conv_q15.c ****        * So, the 16 bit pointer if inputB, py is updated */
 355:Drivers/CMSIS/DSP/Source/FilteringFunctions/arm_conv_q15.c **** 
 356:Drivers/CMSIS/DSP/Source/FilteringFunctions/arm_conv_q15.c ****       /* If the srcBLen is not a multiple of 4, compute any remaining MACs here.
 357:Drivers/CMSIS/DSP/Source/FilteringFunctions/arm_conv_q15.c ****        ** No loop unrolling is used. */
 358:Drivers/CMSIS/DSP/Source/FilteringFunctions/arm_conv_q15.c ****       k = srcBLen % 0x4U;
 359:Drivers/CMSIS/DSP/Source/FilteringFunctions/arm_conv_q15.c **** 
 360:Drivers/CMSIS/DSP/Source/FilteringFunctions/arm_conv_q15.c ****       if (k == 1U)
 361:Drivers/CMSIS/DSP/Source/FilteringFunctions/arm_conv_q15.c ****       {
 362:Drivers/CMSIS/DSP/Source/FilteringFunctions/arm_conv_q15.c ****         /* Read y[srcBLen - 5] */
 363:Drivers/CMSIS/DSP/Source/FilteringFunctions/arm_conv_q15.c ****         c0 = *(py+1);
 424              		.loc 1 363 9 is_stmt 1 view .LVU150
 425              		.loc 1 363 14 is_stmt 0 view .LVU151
 426 0116 3BF906CC 		ldrsh	ip, [fp, #-6]
 427              	.LVL57:
 364:Drivers/CMSIS/DSP/Source/FilteringFunctions/arm_conv_q15.c **** 
 365:Drivers/CMSIS/DSP/Source/FilteringFunctions/arm_conv_q15.c **** #ifdef  ARM_MATH_BIG_ENDIAN
 366:Drivers/CMSIS/DSP/Source/FilteringFunctions/arm_conv_q15.c **** 
 367:Drivers/CMSIS/DSP/Source/FilteringFunctions/arm_conv_q15.c ****         c0 = c0 << 16U;
 368:Drivers/CMSIS/DSP/Source/FilteringFunctions/arm_conv_q15.c **** 
 369:Drivers/CMSIS/DSP/Source/FilteringFunctions/arm_conv_q15.c **** #else
 370:Drivers/CMSIS/DSP/Source/FilteringFunctions/arm_conv_q15.c **** 
 371:Drivers/CMSIS/DSP/Source/FilteringFunctions/arm_conv_q15.c ****         c0 = c0 & 0x0000FFFF;
 428              		.loc 1 371 9 is_stmt 1 view .LVU152
 429              		.loc 1 371 12 is_stmt 0 view .LVU153
 430 011a 1FFA8CFA 		uxth	r10, ip
ARM GAS  /tmp/ccJSV5tm.s 			page 50


 431              	.LVL58:
 372:Drivers/CMSIS/DSP/Source/FilteringFunctions/arm_conv_q15.c **** 
 373:Drivers/CMSIS/DSP/Source/FilteringFunctions/arm_conv_q15.c **** #endif /*      #ifdef  ARM_MATH_BIG_ENDIAN     */
 374:Drivers/CMSIS/DSP/Source/FilteringFunctions/arm_conv_q15.c ****         /* Read x[7] */
 375:Drivers/CMSIS/DSP/Source/FilteringFunctions/arm_conv_q15.c ****         x3 = *__SIMD32(px);
 432              		.loc 1 375 9 is_stmt 1 view .LVU154
 433              		.loc 1 375 12 is_stmt 0 view .LVU155
 434 011e 0B9B     		ldr	r3, [sp, #44]
 435 0120 9B68     		ldr	r3, [r3, #8]
 436 0122 0693     		str	r3, [sp, #24]
 437              	.LVL59:
 376:Drivers/CMSIS/DSP/Source/FilteringFunctions/arm_conv_q15.c ****         px++;
 438              		.loc 1 376 9 is_stmt 1 view .LVU156
 439              		.loc 1 376 11 is_stmt 0 view .LVU157
 440 0124 0B9B     		ldr	r3, [sp, #44]
 441              	.LVL60:
 442              		.loc 1 376 11 view .LVU158
 443 0126 03F10A0C 		add	ip, r3, #10
 444              	.LVL61:
 377:Drivers/CMSIS/DSP/Source/FilteringFunctions/arm_conv_q15.c **** 
 378:Drivers/CMSIS/DSP/Source/FilteringFunctions/arm_conv_q15.c ****         /* Perform the multiply-accumulates */
 379:Drivers/CMSIS/DSP/Source/FilteringFunctions/arm_conv_q15.c ****         acc0 = __SMLALD(x0, c0, acc0);
 445              		.loc 1 379 9 is_stmt 1 view .LVU159
 446              	.LBB86:
 447              	.LBI86:
1922:Drivers/CMSIS/Include/cmsis_gcc.h **** {
 448              		.loc 2 1922 31 view .LVU160
 449              	.LBB87:
1924:Drivers/CMSIS/Include/cmsis_gcc.h ****     uint32_t w32[2];
 450              		.loc 2 1924 3 view .LVU161
1928:Drivers/CMSIS/Include/cmsis_gcc.h **** 
 451              		.loc 2 1928 3 view .LVU162
1931:Drivers/CMSIS/Include/cmsis_gcc.h **** #else               /* Big endian */
 452              		.loc 2 1931 3 view .LVU163
 453              		.syntax unified
 454              	@ 1931 "Drivers/CMSIS/Include/cmsis_gcc.h" 1
 455 012a C4FBCA96 		smlald r9, r6, r4, r10
 456              	@ 0 "" 2
 457              	.LVL62:
1936:Drivers/CMSIS/Include/cmsis_gcc.h **** }
 458              		.loc 2 1936 3 view .LVU164
1936:Drivers/CMSIS/Include/cmsis_gcc.h **** }
 459              		.loc 2 1936 3 is_stmt 0 view .LVU165
 460              		.thumb
 461              		.syntax unified
 462              	.LBE87:
 463              	.LBE86:
 464              		.loc 1 379 14 discriminator 1 view .LVU166
 465 012e CDF80090 		str	r9, [sp]
 466              	.LVL63:
 467              		.loc 1 379 14 discriminator 1 view .LVU167
 468 0132 0196     		str	r6, [sp, #4]
 469              	.LVL64:
 380:Drivers/CMSIS/DSP/Source/FilteringFunctions/arm_conv_q15.c ****         acc1 = __SMLALD(x1, c0, acc1);
 470              		.loc 1 380 9 is_stmt 1 view .LVU168
 471              	.LBB88:
 472              	.LBI88:
ARM GAS  /tmp/ccJSV5tm.s 			page 51


1922:Drivers/CMSIS/Include/cmsis_gcc.h **** {
 473              		.loc 2 1922 31 view .LVU169
 474              	.LBB89:
1924:Drivers/CMSIS/Include/cmsis_gcc.h ****     uint32_t w32[2];
 475              		.loc 2 1924 3 view .LVU170
1928:Drivers/CMSIS/Include/cmsis_gcc.h **** 
 476              		.loc 2 1928 3 view .LVU171
1931:Drivers/CMSIS/Include/cmsis_gcc.h **** #else               /* Big endian */
 477              		.loc 2 1931 3 view .LVU172
 478 0134 4446     		mov	r4, r8
 479              	.LVL65:
1931:Drivers/CMSIS/Include/cmsis_gcc.h **** #else               /* Big endian */
 480              		.loc 2 1931 3 is_stmt 0 view .LVU173
 481              		.syntax unified
 482              	@ 1931 "Drivers/CMSIS/Include/cmsis_gcc.h" 1
 483 0136 CEFBCA54 		smlald r5, r4, lr, r10
 484              	@ 0 "" 2
 485              	.LVL66:
1936:Drivers/CMSIS/Include/cmsis_gcc.h **** }
 486              		.loc 2 1936 3 is_stmt 1 view .LVU174
1936:Drivers/CMSIS/Include/cmsis_gcc.h **** }
 487              		.loc 2 1936 3 is_stmt 0 view .LVU175
 488              		.thumb
 489              		.syntax unified
 490              	.LBE89:
 491              	.LBE88:
 492              		.loc 1 380 14 discriminator 1 view .LVU176
 493 013a 0295     		str	r5, [sp, #8]
 494              	.LVL67:
 495              		.loc 1 380 14 discriminator 1 view .LVU177
 496 013c 0394     		str	r4, [sp, #12]
 497              	.LVL68:
 381:Drivers/CMSIS/DSP/Source/FilteringFunctions/arm_conv_q15.c ****         acc2 = __SMLALDX(x1, c0, acc2);
 498              		.loc 1 381 9 is_stmt 1 view .LVU178
 499              	.LBB90:
 500              	.LBI90:
1939:Drivers/CMSIS/Include/cmsis_gcc.h **** {
 501              		.loc 2 1939 31 view .LVU179
 502              	.LBB91:
1941:Drivers/CMSIS/Include/cmsis_gcc.h ****     uint32_t w32[2];
 503              		.loc 2 1941 3 view .LVU180
1945:Drivers/CMSIS/Include/cmsis_gcc.h **** 
 504              		.loc 2 1945 3 view .LVU181
1948:Drivers/CMSIS/Include/cmsis_gcc.h **** #else               /* Big endian */
 505              		.loc 2 1948 3 view .LVU182
 506              		.syntax unified
 507              	@ 1948 "Drivers/CMSIS/Include/cmsis_gcc.h" 1
 508 013e CEFBDA01 		smlaldx r0, r1, lr, r10
 509              	@ 0 "" 2
 510              	.LVL69:
 511              		.loc 2 1953 3 view .LVU183
 512              		.loc 2 1953 3 is_stmt 0 view .LVU184
 513              		.thumb
 514              		.syntax unified
 515              	.LBE91:
 516              	.LBE90:
 517              		.loc 1 381 14 discriminator 1 view .LVU185
ARM GAS  /tmp/ccJSV5tm.s 			page 52


 518 0142 0490     		str	r0, [sp, #16]
 519              	.LVL70:
 520              		.loc 1 381 14 discriminator 1 view .LVU186
 521 0144 0591     		str	r1, [sp, #20]
 522              	.LVL71:
 382:Drivers/CMSIS/DSP/Source/FilteringFunctions/arm_conv_q15.c ****         acc3 = __SMLALDX(x3, c0, acc3);
 523              		.loc 1 382 9 is_stmt 1 view .LVU187
 524              	.LBB92:
 525              	.LBI92:
1939:Drivers/CMSIS/Include/cmsis_gcc.h **** {
 526              		.loc 2 1939 31 view .LVU188
 527              	.LBB93:
1941:Drivers/CMSIS/Include/cmsis_gcc.h ****     uint32_t w32[2];
 528              		.loc 2 1941 3 view .LVU189
1945:Drivers/CMSIS/Include/cmsis_gcc.h **** 
 529              		.loc 2 1945 3 view .LVU190
1948:Drivers/CMSIS/Include/cmsis_gcc.h **** #else               /* Big endian */
 530              		.loc 2 1948 3 view .LVU191
 531 0146 0C9B     		ldr	r3, [sp, #48]
 532 0148 0699     		ldr	r1, [sp, #24]
 533              	.LVL72:
1948:Drivers/CMSIS/Include/cmsis_gcc.h **** #else               /* Big endian */
 534              		.loc 2 1948 3 is_stmt 0 view .LVU192
 535              		.syntax unified
 536              	@ 1948 "Drivers/CMSIS/Include/cmsis_gcc.h" 1
 537 014a C1FBDA23 		smlaldx r2, r3, r1, r10
 538              	@ 0 "" 2
 539              	.LVL73:
 540              		.loc 2 1953 3 is_stmt 1 view .LVU193
 541              		.loc 2 1953 3 is_stmt 0 view .LVU194
 542              		.thumb
 543              		.syntax unified
 544              	.LBE93:
 545              	.LBE92:
 546              		.loc 1 382 14 discriminator 1 view .LVU195
 547 014e 0692     		str	r2, [sp, #24]
 548 0150 0793     		str	r3, [sp, #28]
 549 0152 B1E0     		b	.L16
 550              	.LVL74:
 551              	.L50:
 383:Drivers/CMSIS/DSP/Source/FilteringFunctions/arm_conv_q15.c ****       }
 384:Drivers/CMSIS/DSP/Source/FilteringFunctions/arm_conv_q15.c **** 
 385:Drivers/CMSIS/DSP/Source/FilteringFunctions/arm_conv_q15.c ****       if (k == 2U)
 386:Drivers/CMSIS/DSP/Source/FilteringFunctions/arm_conv_q15.c ****       {
 387:Drivers/CMSIS/DSP/Source/FilteringFunctions/arm_conv_q15.c ****         /* Read y[srcBLen - 5], y[srcBLen - 6] */
 388:Drivers/CMSIS/DSP/Source/FilteringFunctions/arm_conv_q15.c ****         c0 = _SIMD32_OFFSET(py);
 552              		.loc 1 388 9 is_stmt 1 view .LVU196
 553              		.loc 1 388 12 is_stmt 0 view .LVU197
 554 0154 5BF8084C 		ldr	r4, [fp, #-8]
 555              	.LVL75:
 389:Drivers/CMSIS/DSP/Source/FilteringFunctions/arm_conv_q15.c **** 
 390:Drivers/CMSIS/DSP/Source/FilteringFunctions/arm_conv_q15.c ****         /* Read x[7], x[8] */
 391:Drivers/CMSIS/DSP/Source/FilteringFunctions/arm_conv_q15.c ****         x3 = *__SIMD32(px);
 556              		.loc 1 391 9 is_stmt 1 view .LVU198
 557              		.loc 1 391 12 is_stmt 0 view .LVU199
 558 0158 DCF80010 		ldr	r1, [ip]
 559              	.LVL76:
ARM GAS  /tmp/ccJSV5tm.s 			page 53


 392:Drivers/CMSIS/DSP/Source/FilteringFunctions/arm_conv_q15.c **** 
 393:Drivers/CMSIS/DSP/Source/FilteringFunctions/arm_conv_q15.c ****         /* Read x[9] */
 394:Drivers/CMSIS/DSP/Source/FilteringFunctions/arm_conv_q15.c ****         x2 = _SIMD32_OFFSET(px+1);
 560              		.loc 1 394 9 is_stmt 1 view .LVU200
 561              		.loc 1 394 12 is_stmt 0 view .LVU201
 562 015c DCF80220 		ldr	r2, [ip, #2]
 563              	.LVL77:
 395:Drivers/CMSIS/DSP/Source/FilteringFunctions/arm_conv_q15.c ****         px += 2U;
 564              		.loc 1 395 9 is_stmt 1 view .LVU202
 565              		.loc 1 395 12 is_stmt 0 view .LVU203
 566 0160 0CF1040C 		add	ip, ip, #4
 567              	.LVL78:
 396:Drivers/CMSIS/DSP/Source/FilteringFunctions/arm_conv_q15.c **** 
 397:Drivers/CMSIS/DSP/Source/FilteringFunctions/arm_conv_q15.c ****         /* Perform the multiply-accumulates */
 398:Drivers/CMSIS/DSP/Source/FilteringFunctions/arm_conv_q15.c ****         acc0 = __SMLALDX(x0, c0, acc0);
 568              		.loc 1 398 9 is_stmt 1 view .LVU204
 569              	.LBB94:
 570              	.LBI94:
1939:Drivers/CMSIS/Include/cmsis_gcc.h **** {
 571              		.loc 2 1939 31 view .LVU205
 572              	.LBB95:
1941:Drivers/CMSIS/Include/cmsis_gcc.h ****     uint32_t w32[2];
 573              		.loc 2 1941 3 view .LVU206
1945:Drivers/CMSIS/Include/cmsis_gcc.h **** 
 574              		.loc 2 1945 3 view .LVU207
1948:Drivers/CMSIS/Include/cmsis_gcc.h **** #else               /* Big endian */
 575              		.loc 2 1948 3 view .LVU208
 576 0164 0098     		ldr	r0, [sp]
 577 0166 019B     		ldr	r3, [sp, #4]
 578 0168 099D     		ldr	r5, [sp, #36]
 579              		.syntax unified
 580              	@ 1948 "Drivers/CMSIS/Include/cmsis_gcc.h" 1
 581 016a C5FBD403 		smlaldx r0, r3, r5, r4
 582              	@ 0 "" 2
 583              		.loc 2 1953 3 view .LVU209
 584              	.LVL79:
 585              		.loc 2 1953 3 is_stmt 0 view .LVU210
 586              		.thumb
 587              		.syntax unified
 588              	.LBE95:
 589              	.LBE94:
 590              		.loc 1 398 14 discriminator 1 view .LVU211
 591 016e 0090     		str	r0, [sp]
 592              	.LVL80:
 593              		.loc 1 398 14 discriminator 1 view .LVU212
 594 0170 0193     		str	r3, [sp, #4]
 595              	.LVL81:
 399:Drivers/CMSIS/DSP/Source/FilteringFunctions/arm_conv_q15.c ****         acc1 = __SMLALDX(x1, c0, acc1);
 596              		.loc 1 399 9 is_stmt 1 view .LVU213
 597              	.LBB96:
 598              	.LBI96:
1939:Drivers/CMSIS/Include/cmsis_gcc.h **** {
 599              		.loc 2 1939 31 view .LVU214
 600              	.LBB97:
1941:Drivers/CMSIS/Include/cmsis_gcc.h ****     uint32_t w32[2];
 601              		.loc 2 1941 3 view .LVU215
1945:Drivers/CMSIS/Include/cmsis_gcc.h **** 
ARM GAS  /tmp/ccJSV5tm.s 			page 54


 602              		.loc 2 1945 3 view .LVU216
1948:Drivers/CMSIS/Include/cmsis_gcc.h **** #else               /* Big endian */
 603              		.loc 2 1948 3 view .LVU217
 604 0172 0298     		ldr	r0, [sp, #8]
 605              	.LVL82:
1948:Drivers/CMSIS/Include/cmsis_gcc.h **** #else               /* Big endian */
 606              		.loc 2 1948 3 is_stmt 0 view .LVU218
 607 0174 039B     		ldr	r3, [sp, #12]
 608              	.LVL83:
1948:Drivers/CMSIS/Include/cmsis_gcc.h **** #else               /* Big endian */
 609              		.loc 2 1948 3 view .LVU219
 610 0176 0A9D     		ldr	r5, [sp, #40]
 611              		.syntax unified
 612              	@ 1948 "Drivers/CMSIS/Include/cmsis_gcc.h" 1
 613 0178 C5FBD403 		smlaldx r0, r3, r5, r4
 614              	@ 0 "" 2
 615              		.loc 2 1953 3 is_stmt 1 view .LVU220
 616              	.LVL84:
 617              		.loc 2 1953 3 is_stmt 0 view .LVU221
 618              		.thumb
 619              		.syntax unified
 620              	.LBE97:
 621              	.LBE96:
 622              		.loc 1 399 14 discriminator 1 view .LVU222
 623 017c 0290     		str	r0, [sp, #8]
 624              	.LVL85:
 625              		.loc 1 399 14 discriminator 1 view .LVU223
 626 017e 0393     		str	r3, [sp, #12]
 627              	.LVL86:
 400:Drivers/CMSIS/DSP/Source/FilteringFunctions/arm_conv_q15.c ****         acc2 = __SMLALDX(x3, c0, acc2);
 628              		.loc 1 400 9 is_stmt 1 view .LVU224
 629              	.LBB98:
 630              	.LBI98:
1939:Drivers/CMSIS/Include/cmsis_gcc.h **** {
 631              		.loc 2 1939 31 view .LVU225
 632              	.LBB99:
1941:Drivers/CMSIS/Include/cmsis_gcc.h ****     uint32_t w32[2];
 633              		.loc 2 1941 3 view .LVU226
1945:Drivers/CMSIS/Include/cmsis_gcc.h **** 
 634              		.loc 2 1945 3 view .LVU227
1948:Drivers/CMSIS/Include/cmsis_gcc.h **** #else               /* Big endian */
 635              		.loc 2 1948 3 view .LVU228
 636 0180 0498     		ldr	r0, [sp, #16]
 637              	.LVL87:
1948:Drivers/CMSIS/Include/cmsis_gcc.h **** #else               /* Big endian */
 638              		.loc 2 1948 3 is_stmt 0 view .LVU229
 639 0182 059B     		ldr	r3, [sp, #20]
 640              	.LVL88:
1948:Drivers/CMSIS/Include/cmsis_gcc.h **** #else               /* Big endian */
 641              		.loc 2 1948 3 view .LVU230
 642              		.syntax unified
 643              	@ 1948 "Drivers/CMSIS/Include/cmsis_gcc.h" 1
 644 0184 C1FBD403 		smlaldx r0, r3, r1, r4
 645              	@ 0 "" 2
 646              		.loc 2 1953 3 is_stmt 1 view .LVU231
 647              	.LVL89:
 648              		.loc 2 1953 3 is_stmt 0 view .LVU232
ARM GAS  /tmp/ccJSV5tm.s 			page 55


 649              		.thumb
 650              		.syntax unified
 651              	.LBE99:
 652              	.LBE98:
 653              		.loc 1 400 14 discriminator 1 view .LVU233
 654 0188 0490     		str	r0, [sp, #16]
 655              	.LVL90:
 656              		.loc 1 400 14 discriminator 1 view .LVU234
 657 018a 0593     		str	r3, [sp, #20]
 658              	.LVL91:
 401:Drivers/CMSIS/DSP/Source/FilteringFunctions/arm_conv_q15.c ****         acc3 = __SMLALDX(x2, c0, acc3);
 659              		.loc 1 401 9 is_stmt 1 view .LVU235
 660              	.LBB100:
 661              	.LBI100:
1939:Drivers/CMSIS/Include/cmsis_gcc.h **** {
 662              		.loc 2 1939 31 view .LVU236
 663              	.LBB101:
1941:Drivers/CMSIS/Include/cmsis_gcc.h ****     uint32_t w32[2];
 664              		.loc 2 1941 3 view .LVU237
1945:Drivers/CMSIS/Include/cmsis_gcc.h **** 
 665              		.loc 2 1945 3 view .LVU238
1948:Drivers/CMSIS/Include/cmsis_gcc.h **** #else               /* Big endian */
 666              		.loc 2 1948 3 view .LVU239
 667 018c 0699     		ldr	r1, [sp, #24]
 668              	.LVL92:
1948:Drivers/CMSIS/Include/cmsis_gcc.h **** #else               /* Big endian */
 669              		.loc 2 1948 3 is_stmt 0 view .LVU240
 670 018e 079B     		ldr	r3, [sp, #28]
 671              	.LVL93:
1948:Drivers/CMSIS/Include/cmsis_gcc.h **** #else               /* Big endian */
 672              		.loc 2 1948 3 view .LVU241
 673              		.syntax unified
 674              	@ 1948 "Drivers/CMSIS/Include/cmsis_gcc.h" 1
 675 0190 C2FBD413 		smlaldx r1, r3, r2, r4
 676              	@ 0 "" 2
 677              		.loc 2 1953 3 is_stmt 1 view .LVU242
 678              	.LVL94:
 679              		.loc 2 1953 3 is_stmt 0 view .LVU243
 680              		.thumb
 681              		.syntax unified
 682              	.LBE101:
 683              	.LBE100:
 684              		.loc 1 401 14 discriminator 1 view .LVU244
 685 0194 0691     		str	r1, [sp, #24]
 686              	.LVL95:
 687              		.loc 1 401 14 discriminator 1 view .LVU245
 688 0196 0793     		str	r3, [sp, #28]
 689 0198 91E0     		b	.L17
 690              	.LVL96:
 691              	.L18:
 402:Drivers/CMSIS/DSP/Source/FilteringFunctions/arm_conv_q15.c ****       }
 403:Drivers/CMSIS/DSP/Source/FilteringFunctions/arm_conv_q15.c **** 
 404:Drivers/CMSIS/DSP/Source/FilteringFunctions/arm_conv_q15.c ****       if (k == 3U)
 405:Drivers/CMSIS/DSP/Source/FilteringFunctions/arm_conv_q15.c ****       {
 406:Drivers/CMSIS/DSP/Source/FilteringFunctions/arm_conv_q15.c ****         /* Read y[srcBLen - 5], y[srcBLen - 6] */
 407:Drivers/CMSIS/DSP/Source/FilteringFunctions/arm_conv_q15.c ****         c0 = _SIMD32_OFFSET(py);
 408:Drivers/CMSIS/DSP/Source/FilteringFunctions/arm_conv_q15.c **** 
ARM GAS  /tmp/ccJSV5tm.s 			page 56


 409:Drivers/CMSIS/DSP/Source/FilteringFunctions/arm_conv_q15.c ****         /* Read x[7], x[8] */
 410:Drivers/CMSIS/DSP/Source/FilteringFunctions/arm_conv_q15.c ****         x3 = *__SIMD32(px);
 411:Drivers/CMSIS/DSP/Source/FilteringFunctions/arm_conv_q15.c **** 
 412:Drivers/CMSIS/DSP/Source/FilteringFunctions/arm_conv_q15.c ****         /* Read x[9] */
 413:Drivers/CMSIS/DSP/Source/FilteringFunctions/arm_conv_q15.c ****         x2 = _SIMD32_OFFSET(px+1);
 414:Drivers/CMSIS/DSP/Source/FilteringFunctions/arm_conv_q15.c **** 
 415:Drivers/CMSIS/DSP/Source/FilteringFunctions/arm_conv_q15.c ****         /* Perform the multiply-accumulates */
 416:Drivers/CMSIS/DSP/Source/FilteringFunctions/arm_conv_q15.c ****         acc0 = __SMLALDX(x0, c0, acc0);
 417:Drivers/CMSIS/DSP/Source/FilteringFunctions/arm_conv_q15.c ****         acc1 = __SMLALDX(x1, c0, acc1);
 418:Drivers/CMSIS/DSP/Source/FilteringFunctions/arm_conv_q15.c ****         acc2 = __SMLALDX(x3, c0, acc2);
 419:Drivers/CMSIS/DSP/Source/FilteringFunctions/arm_conv_q15.c ****         acc3 = __SMLALDX(x2, c0, acc3);
 420:Drivers/CMSIS/DSP/Source/FilteringFunctions/arm_conv_q15.c **** 
 421:Drivers/CMSIS/DSP/Source/FilteringFunctions/arm_conv_q15.c ****         c0 = *(py-1);
 422:Drivers/CMSIS/DSP/Source/FilteringFunctions/arm_conv_q15.c **** 
 423:Drivers/CMSIS/DSP/Source/FilteringFunctions/arm_conv_q15.c **** #ifdef  ARM_MATH_BIG_ENDIAN
 424:Drivers/CMSIS/DSP/Source/FilteringFunctions/arm_conv_q15.c **** 
 425:Drivers/CMSIS/DSP/Source/FilteringFunctions/arm_conv_q15.c ****         c0 = c0 << 16U;
 426:Drivers/CMSIS/DSP/Source/FilteringFunctions/arm_conv_q15.c **** #else
 427:Drivers/CMSIS/DSP/Source/FilteringFunctions/arm_conv_q15.c **** 
 428:Drivers/CMSIS/DSP/Source/FilteringFunctions/arm_conv_q15.c ****         c0 = c0 & 0x0000FFFF;
 429:Drivers/CMSIS/DSP/Source/FilteringFunctions/arm_conv_q15.c **** #endif /*      #ifdef  ARM_MATH_BIG_ENDIAN     */
 430:Drivers/CMSIS/DSP/Source/FilteringFunctions/arm_conv_q15.c ****         /* Read x[10] */
 431:Drivers/CMSIS/DSP/Source/FilteringFunctions/arm_conv_q15.c ****         x3 =  _SIMD32_OFFSET(px+2);
 432:Drivers/CMSIS/DSP/Source/FilteringFunctions/arm_conv_q15.c ****         px += 3U;
 433:Drivers/CMSIS/DSP/Source/FilteringFunctions/arm_conv_q15.c **** 
 434:Drivers/CMSIS/DSP/Source/FilteringFunctions/arm_conv_q15.c ****         /* Perform the multiply-accumulates */
 435:Drivers/CMSIS/DSP/Source/FilteringFunctions/arm_conv_q15.c ****         acc0 = __SMLALDX(x1, c0, acc0);
 436:Drivers/CMSIS/DSP/Source/FilteringFunctions/arm_conv_q15.c ****         acc1 = __SMLALD(x2, c0, acc1);
 437:Drivers/CMSIS/DSP/Source/FilteringFunctions/arm_conv_q15.c ****         acc2 = __SMLALDX(x2, c0, acc2);
 438:Drivers/CMSIS/DSP/Source/FilteringFunctions/arm_conv_q15.c ****         acc3 = __SMLALDX(x3, c0, acc3);
 439:Drivers/CMSIS/DSP/Source/FilteringFunctions/arm_conv_q15.c ****       }
 440:Drivers/CMSIS/DSP/Source/FilteringFunctions/arm_conv_q15.c **** 
 441:Drivers/CMSIS/DSP/Source/FilteringFunctions/arm_conv_q15.c **** 
 442:Drivers/CMSIS/DSP/Source/FilteringFunctions/arm_conv_q15.c ****       /* Store the results in the accumulators in the destination buffer. */
 443:Drivers/CMSIS/DSP/Source/FilteringFunctions/arm_conv_q15.c **** 
 444:Drivers/CMSIS/DSP/Source/FilteringFunctions/arm_conv_q15.c **** #ifndef  ARM_MATH_BIG_ENDIAN
 445:Drivers/CMSIS/DSP/Source/FilteringFunctions/arm_conv_q15.c **** 
 446:Drivers/CMSIS/DSP/Source/FilteringFunctions/arm_conv_q15.c ****       *__SIMD32(pOut)++ =
 692              		.loc 1 446 7 is_stmt 1 view .LVU246
 693              	.LBB102:
 447:Drivers/CMSIS/DSP/Source/FilteringFunctions/arm_conv_q15.c ****         __PKHBT(__SSAT((acc0 >> 15), 16), __SSAT((acc1 >> 15), 16), 16);
 694              		.loc 1 447 9 view .LVU247
 695 019a 009B     		ldr	r3, [sp]
 696 019c DB0B     		lsrs	r3, r3, #15
 697 019e 019A     		ldr	r2, [sp, #4]
 698 01a0 43EA4243 		orr	r3, r3, r2, lsl #17
 699              	.LVL97:
 700              		.loc 1 447 9 view .LVU248
 701              		.syntax unified
 702              	@ 447 "Drivers/CMSIS/DSP/Source/FilteringFunctions/arm_conv_q15.c" 1
 703 01a4 03F30F03 		ssat r3, #16, r3
 704              	@ 0 "" 2
 705              	.LVL98:
 706              		.loc 1 447 9 view .LVU249
 707              		.thumb
 708              		.syntax unified
 709              	.LBE102:
ARM GAS  /tmp/ccJSV5tm.s 			page 57


 710              	.LBB103:
 711              		.loc 1 447 9 view .LVU250
 712 01a8 029A     		ldr	r2, [sp, #8]
 713 01aa D20B     		lsrs	r2, r2, #15
 714 01ac 0399     		ldr	r1, [sp, #12]
 715 01ae 42EA4142 		orr	r2, r2, r1, lsl #17
 716              	.LVL99:
 717              		.loc 1 447 9 view .LVU251
 718              		.syntax unified
 719              	@ 447 "Drivers/CMSIS/DSP/Source/FilteringFunctions/arm_conv_q15.c" 1
 720 01b2 02F30F02 		ssat r2, #16, r2
 721              	@ 0 "" 2
 722              	.LVL100:
 723              		.loc 1 447 9 view .LVU252
 724              		.loc 1 447 9 is_stmt 0 view .LVU253
 725              		.thumb
 726              		.syntax unified
 727              	.LBE103:
 728 01b6 9BB2     		uxth	r3, r3
 729              	.LVL101:
 730              		.loc 1 447 9 view .LVU254
 731 01b8 43EA0243 		orr	r3, r3, r2, lsl #16
 446:Drivers/CMSIS/DSP/Source/FilteringFunctions/arm_conv_q15.c ****         __PKHBT(__SSAT((acc0 >> 15), 16), __SSAT((acc1 >> 15), 16), 16);
 732              		.loc 1 446 25 view .LVU255
 733 01bc 1E9A     		ldr	r2, [sp, #120]
 734              	.LVL102:
 446:Drivers/CMSIS/DSP/Source/FilteringFunctions/arm_conv_q15.c ****         __PKHBT(__SSAT((acc0 >> 15), 16), __SSAT((acc1 >> 15), 16), 16);
 735              		.loc 1 446 25 view .LVU256
 736 01be 42F8083B 		str	r3, [r2], #8
 448:Drivers/CMSIS/DSP/Source/FilteringFunctions/arm_conv_q15.c ****       *__SIMD32(pOut)++ =
 737              		.loc 1 448 7 is_stmt 1 view .LVU257
 738              	.LBB104:
 449:Drivers/CMSIS/DSP/Source/FilteringFunctions/arm_conv_q15.c ****         __PKHBT(__SSAT((acc2 >> 15), 16), __SSAT((acc3 >> 15), 16), 16);
 739              		.loc 1 449 9 view .LVU258
 740 01c2 049B     		ldr	r3, [sp, #16]
 741 01c4 DB0B     		lsrs	r3, r3, #15
 742 01c6 0599     		ldr	r1, [sp, #20]
 743 01c8 43EA4143 		orr	r3, r3, r1, lsl #17
 744              	.LVL103:
 745              		.loc 1 449 9 view .LVU259
 746              		.syntax unified
 747              	@ 449 "Drivers/CMSIS/DSP/Source/FilteringFunctions/arm_conv_q15.c" 1
 748 01cc 03F30F01 		ssat r1, #16, r3
 749              	@ 0 "" 2
 750              	.LVL104:
 751              		.loc 1 449 9 view .LVU260
 752              		.thumb
 753              		.syntax unified
 754              	.LBE104:
 755              	.LBB105:
 756              		.loc 1 449 9 view .LVU261
 757 01d0 069B     		ldr	r3, [sp, #24]
 758              	.LVL105:
 759              		.loc 1 449 9 is_stmt 0 view .LVU262
 760 01d2 DB0B     		lsrs	r3, r3, #15
 761 01d4 0798     		ldr	r0, [sp, #28]
 762 01d6 43EA4043 		orr	r3, r3, r0, lsl #17
ARM GAS  /tmp/ccJSV5tm.s 			page 58


 763              	.LVL106:
 764              		.loc 1 449 9 is_stmt 1 view .LVU263
 765              		.syntax unified
 766              	@ 449 "Drivers/CMSIS/DSP/Source/FilteringFunctions/arm_conv_q15.c" 1
 767 01da 03F30F03 		ssat r3, #16, r3
 768              	@ 0 "" 2
 769              	.LVL107:
 770              		.loc 1 449 9 view .LVU264
 771              		.loc 1 449 9 is_stmt 0 view .LVU265
 772              		.thumb
 773              		.syntax unified
 774              	.LBE105:
 775 01de 89B2     		uxth	r1, r1
 776              	.LVL108:
 777              		.loc 1 449 9 view .LVU266
 778 01e0 41EA0343 		orr	r3, r1, r3, lsl #16
 779              	.LVL109:
 448:Drivers/CMSIS/DSP/Source/FilteringFunctions/arm_conv_q15.c ****       *__SIMD32(pOut)++ =
 780              		.loc 1 448 25 view .LVU267
 781 01e4 1E99     		ldr	r1, [sp, #120]
 782 01e6 4B60     		str	r3, [r1, #4]
 450:Drivers/CMSIS/DSP/Source/FilteringFunctions/arm_conv_q15.c **** 
 451:Drivers/CMSIS/DSP/Source/FilteringFunctions/arm_conv_q15.c **** #else
 452:Drivers/CMSIS/DSP/Source/FilteringFunctions/arm_conv_q15.c **** 
 453:Drivers/CMSIS/DSP/Source/FilteringFunctions/arm_conv_q15.c ****       *__SIMD32(pOut)++ =
 454:Drivers/CMSIS/DSP/Source/FilteringFunctions/arm_conv_q15.c ****         __PKHBT(__SSAT((acc1 >> 15), 16), __SSAT((acc0 >> 15), 16), 16);
 455:Drivers/CMSIS/DSP/Source/FilteringFunctions/arm_conv_q15.c ****       *__SIMD32(pOut)++ =
 456:Drivers/CMSIS/DSP/Source/FilteringFunctions/arm_conv_q15.c ****         __PKHBT(__SSAT((acc3 >> 15), 16), __SSAT((acc2 >> 15), 16), 16);
 457:Drivers/CMSIS/DSP/Source/FilteringFunctions/arm_conv_q15.c **** 
 458:Drivers/CMSIS/DSP/Source/FilteringFunctions/arm_conv_q15.c **** #endif /*      #ifndef  ARM_MATH_BIG_ENDIAN    */
 459:Drivers/CMSIS/DSP/Source/FilteringFunctions/arm_conv_q15.c **** 
 460:Drivers/CMSIS/DSP/Source/FilteringFunctions/arm_conv_q15.c ****       /* Increment the pointer pIn1 index, count by 4 */
 461:Drivers/CMSIS/DSP/Source/FilteringFunctions/arm_conv_q15.c ****       count += 4U;
 783              		.loc 1 461 7 is_stmt 1 view .LVU268
 784              		.loc 1 461 13 is_stmt 0 view .LVU269
 785 01e8 119B     		ldr	r3, [sp, #68]
 786 01ea 0433     		adds	r3, r3, #4
 787 01ec 1193     		str	r3, [sp, #68]
 788              	.LVL110:
 462:Drivers/CMSIS/DSP/Source/FilteringFunctions/arm_conv_q15.c **** 
 463:Drivers/CMSIS/DSP/Source/FilteringFunctions/arm_conv_q15.c ****       /* Update the inputA and inputB pointers for next MAC calculation */
 464:Drivers/CMSIS/DSP/Source/FilteringFunctions/arm_conv_q15.c ****       px = pIn1 + count;
 789              		.loc 1 464 7 is_stmt 1 view .LVU270
 790              		.loc 1 464 17 is_stmt 0 view .LVU271
 791 01ee 0D99     		ldr	r1, [sp, #52]
 792 01f0 01EB4303 		add	r3, r1, r3, lsl #1
 793              	.LVL111:
 465:Drivers/CMSIS/DSP/Source/FilteringFunctions/arm_conv_q15.c ****       py = pSrc2;
 794              		.loc 1 465 7 is_stmt 1 view .LVU272
 466:Drivers/CMSIS/DSP/Source/FilteringFunctions/arm_conv_q15.c **** 
 467:Drivers/CMSIS/DSP/Source/FilteringFunctions/arm_conv_q15.c ****        /* Decrement the loop counter */
 468:Drivers/CMSIS/DSP/Source/FilteringFunctions/arm_conv_q15.c ****       blkCnt--;
 795              		.loc 1 468 7 view .LVU273
 796              		.loc 1 468 13 is_stmt 0 view .LVU274
 797 01f4 1099     		ldr	r1, [sp, #64]
 798 01f6 0139     		subs	r1, r1, #1
 799 01f8 1091     		str	r1, [sp, #64]
ARM GAS  /tmp/ccJSV5tm.s 			page 59


 800              	.LVL112:
 448:Drivers/CMSIS/DSP/Source/FilteringFunctions/arm_conv_q15.c ****         __PKHBT(__SSAT((acc2 >> 15), 16), __SSAT((acc3 >> 15), 16), 16);
 801              		.loc 1 448 22 view .LVU275
 802 01fa 1E92     		str	r2, [sp, #120]
 803              	.LVL113:
 804              	.L14:
 282:Drivers/CMSIS/DSP/Source/FilteringFunctions/arm_conv_q15.c ****     {
 805              		.loc 1 282 19 is_stmt 1 view .LVU276
 806 01fc 109A     		ldr	r2, [sp, #64]
 807 01fe 002A     		cmp	r2, #0
 808 0200 00F09680 		beq	.L48
 284:Drivers/CMSIS/DSP/Source/FilteringFunctions/arm_conv_q15.c **** 
 809              		.loc 1 284 7 view .LVU277
 284:Drivers/CMSIS/DSP/Source/FilteringFunctions/arm_conv_q15.c **** 
 810              		.loc 1 284 15 is_stmt 0 view .LVU278
 811 0204 0E9A     		ldr	r2, [sp, #56]
 812 0206 A2F1020A 		sub	r10, r2, #2
 813              	.LVL114:
 287:Drivers/CMSIS/DSP/Source/FilteringFunctions/arm_conv_q15.c ****       acc1 = 0;
 814              		.loc 1 287 7 is_stmt 1 view .LVU279
 288:Drivers/CMSIS/DSP/Source/FilteringFunctions/arm_conv_q15.c ****       acc2 = 0;
 815              		.loc 1 288 7 view .LVU280
 289:Drivers/CMSIS/DSP/Source/FilteringFunctions/arm_conv_q15.c ****       acc3 = 0;
 816              		.loc 1 289 7 view .LVU281
 290:Drivers/CMSIS/DSP/Source/FilteringFunctions/arm_conv_q15.c **** 
 817              		.loc 1 290 7 view .LVU282
 294:Drivers/CMSIS/DSP/Source/FilteringFunctions/arm_conv_q15.c ****       /* read x[1], x[2] samples */
 818              		.loc 1 294 7 view .LVU283
 294:Drivers/CMSIS/DSP/Source/FilteringFunctions/arm_conv_q15.c ****       /* read x[1], x[2] samples */
 819              		.loc 1 294 10 is_stmt 0 view .LVU284
 820 020a 1C68     		ldr	r4, [r3]
 821              	.LVL115:
 296:Drivers/CMSIS/DSP/Source/FilteringFunctions/arm_conv_q15.c ****       px+= 2U;
 822              		.loc 1 296 7 is_stmt 1 view .LVU285
 296:Drivers/CMSIS/DSP/Source/FilteringFunctions/arm_conv_q15.c ****       px+= 2U;
 823              		.loc 1 296 10 is_stmt 0 view .LVU286
 824 020c D3F802E0 		ldr	lr, [r3, #2]
 825              	.LVL116:
 297:Drivers/CMSIS/DSP/Source/FilteringFunctions/arm_conv_q15.c **** 
 826              		.loc 1 297 7 is_stmt 1 view .LVU287
 297:Drivers/CMSIS/DSP/Source/FilteringFunctions/arm_conv_q15.c **** 
 827              		.loc 1 297 9 is_stmt 0 view .LVU288
 828 0210 03F1040C 		add	ip, r3, #4
 829              	.LVL117:
 301:Drivers/CMSIS/DSP/Source/FilteringFunctions/arm_conv_q15.c **** 
 830              		.loc 1 301 7 is_stmt 1 view .LVU289
 301:Drivers/CMSIS/DSP/Source/FilteringFunctions/arm_conv_q15.c **** 
 831              		.loc 1 301 9 is_stmt 0 view .LVU290
 832 0214 0F9B     		ldr	r3, [sp, #60]
 833 0216 9B08     		lsrs	r3, r3, #2
 834 0218 0893     		str	r3, [sp, #32]
 835              	.LVL118:
 290:Drivers/CMSIS/DSP/Source/FilteringFunctions/arm_conv_q15.c **** 
 836              		.loc 1 290 12 view .LVU291
 837 021a 0023     		movs	r3, #0
 838              	.LVL119:
 290:Drivers/CMSIS/DSP/Source/FilteringFunctions/arm_conv_q15.c **** 
ARM GAS  /tmp/ccJSV5tm.s 			page 60


 839              		.loc 1 290 12 view .LVU292
 840 021c 0693     		str	r3, [sp, #24]
 841 021e 0793     		str	r3, [sp, #28]
 289:Drivers/CMSIS/DSP/Source/FilteringFunctions/arm_conv_q15.c ****       acc3 = 0;
 842              		.loc 1 289 12 view .LVU293
 843 0220 0493     		str	r3, [sp, #16]
 844 0222 0593     		str	r3, [sp, #20]
 288:Drivers/CMSIS/DSP/Source/FilteringFunctions/arm_conv_q15.c ****       acc2 = 0;
 845              		.loc 1 288 12 view .LVU294
 846 0224 0293     		str	r3, [sp, #8]
 847 0226 0393     		str	r3, [sp, #12]
 287:Drivers/CMSIS/DSP/Source/FilteringFunctions/arm_conv_q15.c ****       acc1 = 0;
 848              		.loc 1 287 12 view .LVU295
 849 0228 0093     		str	r3, [sp]
 850 022a 0193     		str	r3, [sp, #4]
 851 022c 7746     		mov	r7, lr
 852              	.LVL120:
 853              	.L15:
 305:Drivers/CMSIS/DSP/Source/FilteringFunctions/arm_conv_q15.c ****       {
 854              		.loc 1 305 7 is_stmt 1 view .LVU296
 309:Drivers/CMSIS/DSP/Source/FilteringFunctions/arm_conv_q15.c **** 
 855              		.loc 1 309 9 view .LVU297
 309:Drivers/CMSIS/DSP/Source/FilteringFunctions/arm_conv_q15.c **** 
 856              		.loc 1 309 12 is_stmt 0 view .LVU298
 857 022e DAF800B0 		ldr	fp, [r10]
 858              	.LVL121:
 312:Drivers/CMSIS/DSP/Source/FilteringFunctions/arm_conv_q15.c **** 
 859              		.loc 1 312 9 is_stmt 1 view .LVU299
 860              	.LBB106:
 861              	.LBI106:
1939:Drivers/CMSIS/Include/cmsis_gcc.h **** {
 862              		.loc 2 1939 31 view .LVU300
 863              	.LBB107:
1941:Drivers/CMSIS/Include/cmsis_gcc.h ****     uint32_t w32[2];
 864              		.loc 2 1941 3 view .LVU301
1945:Drivers/CMSIS/Include/cmsis_gcc.h **** 
 865              		.loc 2 1945 3 view .LVU302
1948:Drivers/CMSIS/Include/cmsis_gcc.h **** #else               /* Big endian */
 866              		.loc 2 1948 3 view .LVU303
 867 0232 DDF80090 		ldr	r9, [sp]
 868 0236 019E     		ldr	r6, [sp, #4]
 869              		.syntax unified
 870              	@ 1948 "Drivers/CMSIS/Include/cmsis_gcc.h" 1
 871 0238 C4FBDB96 		smlaldx r9, r6, r4, fp
 872              	@ 0 "" 2
 873              		.loc 2 1953 3 view .LVU304
 874              	.LVL122:
 875              		.loc 2 1953 3 is_stmt 0 view .LVU305
 876              		.thumb
 877              		.syntax unified
 878              	.LBE107:
 879              	.LBE106:
 315:Drivers/CMSIS/DSP/Source/FilteringFunctions/arm_conv_q15.c **** 
 880              		.loc 1 315 9 is_stmt 1 view .LVU306
 881              	.LBB108:
 882              	.LBI108:
1939:Drivers/CMSIS/Include/cmsis_gcc.h **** {
ARM GAS  /tmp/ccJSV5tm.s 			page 61


 883              		.loc 2 1939 31 view .LVU307
 884              	.LBB109:
1941:Drivers/CMSIS/Include/cmsis_gcc.h ****     uint32_t w32[2];
 885              		.loc 2 1941 3 view .LVU308
1945:Drivers/CMSIS/Include/cmsis_gcc.h **** 
 886              		.loc 2 1945 3 view .LVU309
1948:Drivers/CMSIS/Include/cmsis_gcc.h **** #else               /* Big endian */
 887              		.loc 2 1948 3 view .LVU310
 888 023c 029D     		ldr	r5, [sp, #8]
 889 023e DDF80C80 		ldr	r8, [sp, #12]
 890              		.syntax unified
 891              	@ 1948 "Drivers/CMSIS/Include/cmsis_gcc.h" 1
 892 0242 C7FBDB58 		smlaldx r5, r8, r7, fp
 893              	@ 0 "" 2
 894              		.loc 2 1953 3 view .LVU311
 895              	.LVL123:
 896              		.loc 2 1953 3 is_stmt 0 view .LVU312
 897              		.thumb
 898              		.syntax unified
 899              	.LBE109:
 900              	.LBE108:
 318:Drivers/CMSIS/DSP/Source/FilteringFunctions/arm_conv_q15.c **** 
 901              		.loc 1 318 9 is_stmt 1 view .LVU313
 318:Drivers/CMSIS/DSP/Source/FilteringFunctions/arm_conv_q15.c **** 
 902              		.loc 1 318 12 is_stmt 0 view .LVU314
 903 0246 DCF80040 		ldr	r4, [ip]
 904              	.LVL124:
 321:Drivers/CMSIS/DSP/Source/FilteringFunctions/arm_conv_q15.c **** 
 905              		.loc 1 321 9 is_stmt 1 view .LVU315
 321:Drivers/CMSIS/DSP/Source/FilteringFunctions/arm_conv_q15.c **** 
 906              		.loc 1 321 12 is_stmt 0 view .LVU316
 907 024a DCF80270 		ldr	r7, [ip, #2]
 908              	.LVL125:
 324:Drivers/CMSIS/DSP/Source/FilteringFunctions/arm_conv_q15.c **** 
 909              		.loc 1 324 9 is_stmt 1 view .LVU317
 910              	.LBB110:
 911              	.LBI110:
1939:Drivers/CMSIS/Include/cmsis_gcc.h **** {
 912              		.loc 2 1939 31 view .LVU318
 913              	.LBB111:
1941:Drivers/CMSIS/Include/cmsis_gcc.h ****     uint32_t w32[2];
 914              		.loc 2 1941 3 view .LVU319
1945:Drivers/CMSIS/Include/cmsis_gcc.h **** 
 915              		.loc 2 1945 3 view .LVU320
1948:Drivers/CMSIS/Include/cmsis_gcc.h **** #else               /* Big endian */
 916              		.loc 2 1948 3 view .LVU321
 917 024e 0498     		ldr	r0, [sp, #16]
 918 0250 0599     		ldr	r1, [sp, #20]
 919              		.syntax unified
 920              	@ 1948 "Drivers/CMSIS/Include/cmsis_gcc.h" 1
 921 0252 C4FBDB01 		smlaldx r0, r1, r4, fp
 922              	@ 0 "" 2
 923              		.loc 2 1953 3 view .LVU322
 924              	.LVL126:
 925              		.loc 2 1953 3 is_stmt 0 view .LVU323
 926              		.thumb
 927              		.syntax unified
ARM GAS  /tmp/ccJSV5tm.s 			page 62


 928              	.LBE111:
 929              	.LBE110:
 327:Drivers/CMSIS/DSP/Source/FilteringFunctions/arm_conv_q15.c **** 
 930              		.loc 1 327 9 is_stmt 1 view .LVU324
 931              	.LBB112:
 932              	.LBI112:
1939:Drivers/CMSIS/Include/cmsis_gcc.h **** {
 933              		.loc 2 1939 31 view .LVU325
 934              	.LBB113:
1941:Drivers/CMSIS/Include/cmsis_gcc.h ****     uint32_t w32[2];
 935              		.loc 2 1941 3 view .LVU326
1945:Drivers/CMSIS/Include/cmsis_gcc.h **** 
 936              		.loc 2 1945 3 view .LVU327
1948:Drivers/CMSIS/Include/cmsis_gcc.h **** #else               /* Big endian */
 937              		.loc 2 1948 3 view .LVU328
 938 0256 069A     		ldr	r2, [sp, #24]
 939 0258 079B     		ldr	r3, [sp, #28]
 940              		.syntax unified
 941              	@ 1948 "Drivers/CMSIS/Include/cmsis_gcc.h" 1
 942 025a C7FBDB23 		smlaldx r2, r3, r7, fp
 943              	@ 0 "" 2
 944              		.loc 2 1953 3 view .LVU329
 945              	.LVL127:
 946              		.loc 2 1953 3 is_stmt 0 view .LVU330
 947              		.thumb
 948              		.syntax unified
 949              	.LBE113:
 950              	.LBE112:
 330:Drivers/CMSIS/DSP/Source/FilteringFunctions/arm_conv_q15.c **** 
 951              		.loc 1 330 9 is_stmt 1 view .LVU331
 952 025e D346     		mov	fp, r10
 953              	.LVL128:
 330:Drivers/CMSIS/DSP/Source/FilteringFunctions/arm_conv_q15.c **** 
 954              		.loc 1 330 27 is_stmt 0 view .LVU332
 955 0260 AAF1080A 		sub	r10, r10, #8
 956              	.LVL129:
 330:Drivers/CMSIS/DSP/Source/FilteringFunctions/arm_conv_q15.c **** 
 957              		.loc 1 330 12 view .LVU333
 958 0264 5BF804EC 		ldr	lr, [fp, #-4]
 959              	.LVL130:
 333:Drivers/CMSIS/DSP/Source/FilteringFunctions/arm_conv_q15.c **** 
 960              		.loc 1 333 9 is_stmt 1 view .LVU334
 961              	.LBB114:
 962              	.LBI114:
1939:Drivers/CMSIS/Include/cmsis_gcc.h **** {
 963              		.loc 2 1939 31 view .LVU335
 964              	.LBB115:
1941:Drivers/CMSIS/Include/cmsis_gcc.h ****     uint32_t w32[2];
 965              		.loc 2 1941 3 view .LVU336
1945:Drivers/CMSIS/Include/cmsis_gcc.h **** 
 966              		.loc 2 1945 3 view .LVU337
1948:Drivers/CMSIS/Include/cmsis_gcc.h **** #else               /* Big endian */
 967              		.loc 2 1948 3 view .LVU338
 968              		.syntax unified
 969              	@ 1948 "Drivers/CMSIS/Include/cmsis_gcc.h" 1
 970 0268 C4FBDE96 		smlaldx r9, r6, r4, lr
 971              	@ 0 "" 2
ARM GAS  /tmp/ccJSV5tm.s 			page 63


 972              	.LVL131:
 973              		.loc 2 1953 3 view .LVU339
 974              		.loc 2 1953 3 is_stmt 0 view .LVU340
 975              		.thumb
 976              		.syntax unified
 977              	.LBE115:
 978              	.LBE114:
 333:Drivers/CMSIS/DSP/Source/FilteringFunctions/arm_conv_q15.c **** 
 979              		.loc 1 333 14 discriminator 1 view .LVU341
 980 026c CDF80090 		str	r9, [sp]
 981 0270 0196     		str	r6, [sp, #4]
 982              	.LVL132:
 336:Drivers/CMSIS/DSP/Source/FilteringFunctions/arm_conv_q15.c **** 
 983              		.loc 1 336 9 is_stmt 1 view .LVU342
 984              	.LBB116:
 985              	.LBI116:
1939:Drivers/CMSIS/Include/cmsis_gcc.h **** {
 986              		.loc 2 1939 31 view .LVU343
 987              	.LBB117:
1941:Drivers/CMSIS/Include/cmsis_gcc.h ****     uint32_t w32[2];
 988              		.loc 2 1941 3 view .LVU344
1945:Drivers/CMSIS/Include/cmsis_gcc.h **** 
 989              		.loc 2 1945 3 view .LVU345
1948:Drivers/CMSIS/Include/cmsis_gcc.h **** #else               /* Big endian */
 990              		.loc 2 1948 3 view .LVU346
 991              		.syntax unified
 992              	@ 1948 "Drivers/CMSIS/Include/cmsis_gcc.h" 1
 993 0272 C7FBDE58 		smlaldx r5, r8, r7, lr
 994              	@ 0 "" 2
 995              	.LVL133:
 996              		.loc 2 1953 3 view .LVU347
 997              		.loc 2 1953 3 is_stmt 0 view .LVU348
 998              		.thumb
 999              		.syntax unified
 1000              	.LBE117:
 1001              	.LBE116:
 336:Drivers/CMSIS/DSP/Source/FilteringFunctions/arm_conv_q15.c **** 
 1002              		.loc 1 336 14 discriminator 1 view .LVU349
 1003 0276 0295     		str	r5, [sp, #8]
 1004 0278 CDF80C80 		str	r8, [sp, #12]
 1005              	.LVL134:
 339:Drivers/CMSIS/DSP/Source/FilteringFunctions/arm_conv_q15.c **** 
 1006              		.loc 1 339 9 is_stmt 1 view .LVU350
 339:Drivers/CMSIS/DSP/Source/FilteringFunctions/arm_conv_q15.c **** 
 1007              		.loc 1 339 12 is_stmt 0 view .LVU351
 1008 027c DCF80440 		ldr	r4, [ip, #4]
 1009              	.LVL135:
 342:Drivers/CMSIS/DSP/Source/FilteringFunctions/arm_conv_q15.c ****         px += 4U;
 1010              		.loc 1 342 9 is_stmt 1 view .LVU352
 342:Drivers/CMSIS/DSP/Source/FilteringFunctions/arm_conv_q15.c ****         px += 4U;
 1011              		.loc 1 342 12 is_stmt 0 view .LVU353
 1012 0280 DCF80670 		ldr	r7, [ip, #6]
 1013              	.LVL136:
 343:Drivers/CMSIS/DSP/Source/FilteringFunctions/arm_conv_q15.c **** 
 1014              		.loc 1 343 9 is_stmt 1 view .LVU354
 1015 0284 CDF82CC0 		str	ip, [sp, #44]
 1016              	.LVL137:
ARM GAS  /tmp/ccJSV5tm.s 			page 64


 343:Drivers/CMSIS/DSP/Source/FilteringFunctions/arm_conv_q15.c **** 
 1017              		.loc 1 343 12 is_stmt 0 view .LVU355
 1018 0288 0CF1080C 		add	ip, ip, #8
 1019              	.LVL138:
 346:Drivers/CMSIS/DSP/Source/FilteringFunctions/arm_conv_q15.c **** 
 1020              		.loc 1 346 9 is_stmt 1 view .LVU356
 346:Drivers/CMSIS/DSP/Source/FilteringFunctions/arm_conv_q15.c **** 
 1021              		.loc 1 346 16 is_stmt 0 view .LVU357
 1022 028c 0994     		str	r4, [sp, #36]
 1023              	.LVL139:
 1024              	.LBB118:
 1025              	.LBI118:
1939:Drivers/CMSIS/Include/cmsis_gcc.h **** {
 1026              		.loc 2 1939 31 is_stmt 1 view .LVU358
 1027              	.LBB119:
1941:Drivers/CMSIS/Include/cmsis_gcc.h ****     uint32_t w32[2];
 1028              		.loc 2 1941 3 view .LVU359
1945:Drivers/CMSIS/Include/cmsis_gcc.h **** 
 1029              		.loc 2 1945 3 view .LVU360
1948:Drivers/CMSIS/Include/cmsis_gcc.h **** #else               /* Big endian */
 1030              		.loc 2 1948 3 view .LVU361
 1031              		.syntax unified
 1032              	@ 1948 "Drivers/CMSIS/Include/cmsis_gcc.h" 1
 1033 028e C4FBDE01 		smlaldx r0, r1, r4, lr
 1034              	@ 0 "" 2
 1035              	.LVL140:
 1036              		.loc 2 1953 3 view .LVU362
 1037              		.loc 2 1953 3 is_stmt 0 view .LVU363
 1038              		.thumb
 1039              		.syntax unified
 1040              	.LBE119:
 1041              	.LBE118:
 346:Drivers/CMSIS/DSP/Source/FilteringFunctions/arm_conv_q15.c **** 
 1042              		.loc 1 346 14 discriminator 1 view .LVU364
 1043 0292 0490     		str	r0, [sp, #16]
 1044 0294 0591     		str	r1, [sp, #20]
 1045              	.LVL141:
 349:Drivers/CMSIS/DSP/Source/FilteringFunctions/arm_conv_q15.c **** 
 1046              		.loc 1 349 9 is_stmt 1 view .LVU365
 349:Drivers/CMSIS/DSP/Source/FilteringFunctions/arm_conv_q15.c **** 
 1047              		.loc 1 349 16 is_stmt 0 view .LVU366
 1048 0296 0A97     		str	r7, [sp, #40]
 1049              	.LVL142:
 1050              	.LBB120:
 1051              	.LBI120:
1939:Drivers/CMSIS/Include/cmsis_gcc.h **** {
 1052              		.loc 2 1939 31 is_stmt 1 view .LVU367
 1053              	.LBB121:
1941:Drivers/CMSIS/Include/cmsis_gcc.h ****     uint32_t w32[2];
 1054              		.loc 2 1941 3 view .LVU368
1945:Drivers/CMSIS/Include/cmsis_gcc.h **** 
 1055              		.loc 2 1945 3 view .LVU369
1948:Drivers/CMSIS/Include/cmsis_gcc.h **** #else               /* Big endian */
 1056              		.loc 2 1948 3 view .LVU370
 1057              		.syntax unified
 1058              	@ 1948 "Drivers/CMSIS/Include/cmsis_gcc.h" 1
 1059 0298 C7FBDE23 		smlaldx r2, r3, r7, lr
ARM GAS  /tmp/ccJSV5tm.s 			page 65


 1060              	@ 0 "" 2
 1061              	.LVL143:
1948:Drivers/CMSIS/Include/cmsis_gcc.h **** #else               /* Big endian */
 1062              		.loc 2 1948 3 is_stmt 0 view .LVU371
 1063              		.thumb
 1064              		.syntax unified
 1065 029c 0C93     		str	r3, [sp, #48]
 1066              		.loc 2 1953 3 is_stmt 1 view .LVU372
 1067              	.LVL144:
 1068              		.loc 2 1953 3 is_stmt 0 view .LVU373
 1069              	.LBE121:
 1070              	.LBE120:
 349:Drivers/CMSIS/DSP/Source/FilteringFunctions/arm_conv_q15.c **** 
 1071              		.loc 1 349 14 discriminator 1 view .LVU374
 1072 029e 0692     		str	r2, [sp, #24]
 1073 02a0 0793     		str	r3, [sp, #28]
 1074              	.LVL145:
 351:Drivers/CMSIS/DSP/Source/FilteringFunctions/arm_conv_q15.c **** 
 1075              		.loc 1 351 16 is_stmt 1 discriminator 1 view .LVU375
 351:Drivers/CMSIS/DSP/Source/FilteringFunctions/arm_conv_q15.c **** 
 1076              		.loc 1 351 16 is_stmt 0 discriminator 1 view .LVU376
 1077 02a2 089B     		ldr	r3, [sp, #32]
 1078              	.LVL146:
 351:Drivers/CMSIS/DSP/Source/FilteringFunctions/arm_conv_q15.c **** 
 1079              		.loc 1 351 16 discriminator 1 view .LVU377
 1080 02a4 013B     		subs	r3, r3, #1
 1081              	.LVL147:
 351:Drivers/CMSIS/DSP/Source/FilteringFunctions/arm_conv_q15.c **** 
 1082              		.loc 1 351 16 discriminator 1 view .LVU378
 1083 02a6 0893     		str	r3, [sp, #32]
 1084 02a8 C1D1     		bne	.L15
 358:Drivers/CMSIS/DSP/Source/FilteringFunctions/arm_conv_q15.c **** 
 1085              		.loc 1 358 9 view .LVU379
 1086 02aa BE46     		mov	lr, r7
 1087              	.LVL148:
 358:Drivers/CMSIS/DSP/Source/FilteringFunctions/arm_conv_q15.c **** 
 1088              		.loc 1 358 7 is_stmt 1 view .LVU380
 358:Drivers/CMSIS/DSP/Source/FilteringFunctions/arm_conv_q15.c **** 
 1089              		.loc 1 358 9 is_stmt 0 view .LVU381
 1090 02ac 0F9F     		ldr	r7, [sp, #60]
 1091              	.LVL149:
 358:Drivers/CMSIS/DSP/Source/FilteringFunctions/arm_conv_q15.c **** 
 1092              		.loc 1 358 9 view .LVU382
 1093 02ae 07F00307 		and	r7, r7, #3
 1094              	.LVL150:
 360:Drivers/CMSIS/DSP/Source/FilteringFunctions/arm_conv_q15.c ****       {
 1095              		.loc 1 360 7 is_stmt 1 view .LVU383
 360:Drivers/CMSIS/DSP/Source/FilteringFunctions/arm_conv_q15.c ****       {
 1096              		.loc 1 360 10 is_stmt 0 view .LVU384
 1097 02b2 012F     		cmp	r7, #1
 1098 02b4 3FF42FAF 		beq	.L49
 1099              	.LVL151:
 1100              	.L16:
 385:Drivers/CMSIS/DSP/Source/FilteringFunctions/arm_conv_q15.c ****       {
 1101              		.loc 1 385 7 is_stmt 1 view .LVU385
 385:Drivers/CMSIS/DSP/Source/FilteringFunctions/arm_conv_q15.c ****       {
 1102              		.loc 1 385 10 is_stmt 0 view .LVU386
ARM GAS  /tmp/ccJSV5tm.s 			page 66


 1103 02b8 022F     		cmp	r7, #2
 1104 02ba 3FF44BAF 		beq	.L50
 1105              	.LVL152:
 1106              	.L17:
 404:Drivers/CMSIS/DSP/Source/FilteringFunctions/arm_conv_q15.c ****       {
 1107              		.loc 1 404 7 is_stmt 1 view .LVU387
 404:Drivers/CMSIS/DSP/Source/FilteringFunctions/arm_conv_q15.c ****       {
 1108              		.loc 1 404 10 is_stmt 0 view .LVU388
 1109 02be 032F     		cmp	r7, #3
 1110 02c0 7FF46BAF 		bne	.L18
 407:Drivers/CMSIS/DSP/Source/FilteringFunctions/arm_conv_q15.c **** 
 1111              		.loc 1 407 9 is_stmt 1 view .LVU389
 407:Drivers/CMSIS/DSP/Source/FilteringFunctions/arm_conv_q15.c **** 
 1112              		.loc 1 407 12 is_stmt 0 view .LVU390
 1113 02c4 5BF8085C 		ldr	r5, [fp, #-8]
 1114              	.LVL153:
 410:Drivers/CMSIS/DSP/Source/FilteringFunctions/arm_conv_q15.c **** 
 1115              		.loc 1 410 9 is_stmt 1 view .LVU391
 410:Drivers/CMSIS/DSP/Source/FilteringFunctions/arm_conv_q15.c **** 
 1116              		.loc 1 410 12 is_stmt 0 view .LVU392
 1117 02c8 DCF80030 		ldr	r3, [ip]
 1118              	.LVL154:
 413:Drivers/CMSIS/DSP/Source/FilteringFunctions/arm_conv_q15.c **** 
 1119              		.loc 1 413 9 is_stmt 1 view .LVU393
 413:Drivers/CMSIS/DSP/Source/FilteringFunctions/arm_conv_q15.c **** 
 1120              		.loc 1 413 12 is_stmt 0 view .LVU394
 1121 02cc DCF80210 		ldr	r1, [ip, #2]
 1122              	.LVL155:
 416:Drivers/CMSIS/DSP/Source/FilteringFunctions/arm_conv_q15.c ****         acc1 = __SMLALDX(x1, c0, acc1);
 1123              		.loc 1 416 9 is_stmt 1 view .LVU395
 1124              	.LBB122:
 1125              	.LBI122:
1939:Drivers/CMSIS/Include/cmsis_gcc.h **** {
 1126              		.loc 2 1939 31 view .LVU396
 1127              	.LBB123:
1941:Drivers/CMSIS/Include/cmsis_gcc.h ****     uint32_t w32[2];
 1128              		.loc 2 1941 3 view .LVU397
1945:Drivers/CMSIS/Include/cmsis_gcc.h **** 
 1129              		.loc 2 1945 3 view .LVU398
1948:Drivers/CMSIS/Include/cmsis_gcc.h **** #else               /* Big endian */
 1130              		.loc 2 1948 3 view .LVU399
 1131 02d0 009F     		ldr	r7, [sp]
 1132              	.LVL156:
