ARM GAS  /tmp/ccuzNZ5H.s 			page 1


   1              		.cpu cortex-m7
   2              		.arch armv7e-m
   3              		.fpu fpv5-sp-d16
   4              		.eabi_attribute 27, 1
   5              		.eabi_attribute 28, 1
   6              		.eabi_attribute 20, 1
   7              		.eabi_attribute 21, 1
   8              		.eabi_attribute 23, 3
   9              		.eabi_attribute 24, 1
  10              		.eabi_attribute 25, 1
  11              		.eabi_attribute 26, 1
  12              		.eabi_attribute 30, 1
  13              		.eabi_attribute 34, 1
  14              		.eabi_attribute 18, 4
  15              		.file	"arm_cfft_radix4_q31.c"
  16              		.text
  17              	.Ltext0:
  18              		.cfi_sections	.debug_frame
  19              		.file 1 "Drivers/CMSIS/DSP/Source/TransformFunctions/arm_cfft_radix4_q31.c"
  20              		.section	.text.arm_radix4_butterfly_q31,"ax",%progbits
  21              		.align	1
  22              		.global	arm_radix4_butterfly_q31
  23              		.syntax unified
  24              		.thumb
  25              		.thumb_func
  27              	arm_radix4_butterfly_q31:
  28              	.LVL0:
  29              	.LFB136:
   1:Drivers/CMSIS/DSP/Source/TransformFunctions/arm_cfft_radix4_q31.c **** /* ----------------------------------------------------------------------
   2:Drivers/CMSIS/DSP/Source/TransformFunctions/arm_cfft_radix4_q31.c ****  * Project:      CMSIS DSP Library
   3:Drivers/CMSIS/DSP/Source/TransformFunctions/arm_cfft_radix4_q31.c ****  * Title:        arm_cfft_radix4_q31.c
   4:Drivers/CMSIS/DSP/Source/TransformFunctions/arm_cfft_radix4_q31.c ****  * Description:  This file has function definition of Radix-4 FFT & IFFT function and
   5:Drivers/CMSIS/DSP/Source/TransformFunctions/arm_cfft_radix4_q31.c ****  *               In-place bit reversal using bit reversal table
   6:Drivers/CMSIS/DSP/Source/TransformFunctions/arm_cfft_radix4_q31.c ****  *
   7:Drivers/CMSIS/DSP/Source/TransformFunctions/arm_cfft_radix4_q31.c ****  * $Date:        27. January 2017
   8:Drivers/CMSIS/DSP/Source/TransformFunctions/arm_cfft_radix4_q31.c ****  * $Revision:    V.1.5.1
   9:Drivers/CMSIS/DSP/Source/TransformFunctions/arm_cfft_radix4_q31.c ****  *
  10:Drivers/CMSIS/DSP/Source/TransformFunctions/arm_cfft_radix4_q31.c ****  * Target Processor: Cortex-M cores
  11:Drivers/CMSIS/DSP/Source/TransformFunctions/arm_cfft_radix4_q31.c ****  * -------------------------------------------------------------------- */
  12:Drivers/CMSIS/DSP/Source/TransformFunctions/arm_cfft_radix4_q31.c **** /*
  13:Drivers/CMSIS/DSP/Source/TransformFunctions/arm_cfft_radix4_q31.c ****  * Copyright (C) 2010-2017 ARM Limited or its affiliates. All rights reserved.
  14:Drivers/CMSIS/DSP/Source/TransformFunctions/arm_cfft_radix4_q31.c ****  *
  15:Drivers/CMSIS/DSP/Source/TransformFunctions/arm_cfft_radix4_q31.c ****  * SPDX-License-Identifier: Apache-2.0
  16:Drivers/CMSIS/DSP/Source/TransformFunctions/arm_cfft_radix4_q31.c ****  *
  17:Drivers/CMSIS/DSP/Source/TransformFunctions/arm_cfft_radix4_q31.c ****  * Licensed under the Apache License, Version 2.0 (the License); you may
  18:Drivers/CMSIS/DSP/Source/TransformFunctions/arm_cfft_radix4_q31.c ****  * not use this file except in compliance with the License.
  19:Drivers/CMSIS/DSP/Source/TransformFunctions/arm_cfft_radix4_q31.c ****  * You may obtain a copy of the License at
  20:Drivers/CMSIS/DSP/Source/TransformFunctions/arm_cfft_radix4_q31.c ****  *
  21:Drivers/CMSIS/DSP/Source/TransformFunctions/arm_cfft_radix4_q31.c ****  * www.apache.org/licenses/LICENSE-2.0
  22:Drivers/CMSIS/DSP/Source/TransformFunctions/arm_cfft_radix4_q31.c ****  *
  23:Drivers/CMSIS/DSP/Source/TransformFunctions/arm_cfft_radix4_q31.c ****  * Unless required by applicable law or agreed to in writing, software
  24:Drivers/CMSIS/DSP/Source/TransformFunctions/arm_cfft_radix4_q31.c ****  * distributed under the License is distributed on an AS IS BASIS, WITHOUT
  25:Drivers/CMSIS/DSP/Source/TransformFunctions/arm_cfft_radix4_q31.c ****  * WARRANTIES OR CONDITIONS OF ANY KIND, either express or implied.
  26:Drivers/CMSIS/DSP/Source/TransformFunctions/arm_cfft_radix4_q31.c ****  * See the License for the specific language governing permissions and
  27:Drivers/CMSIS/DSP/Source/TransformFunctions/arm_cfft_radix4_q31.c ****  * limitations under the License.
  28:Drivers/CMSIS/DSP/Source/TransformFunctions/arm_cfft_radix4_q31.c ****  */
  29:Drivers/CMSIS/DSP/Source/TransformFunctions/arm_cfft_radix4_q31.c **** 
ARM GAS  /tmp/ccuzNZ5H.s 			page 2


  30:Drivers/CMSIS/DSP/Source/TransformFunctions/arm_cfft_radix4_q31.c **** #include "arm_math.h"
  31:Drivers/CMSIS/DSP/Source/TransformFunctions/arm_cfft_radix4_q31.c **** 
  32:Drivers/CMSIS/DSP/Source/TransformFunctions/arm_cfft_radix4_q31.c **** void arm_radix4_butterfly_inverse_q31(
  33:Drivers/CMSIS/DSP/Source/TransformFunctions/arm_cfft_radix4_q31.c **** q31_t * pSrc,
  34:Drivers/CMSIS/DSP/Source/TransformFunctions/arm_cfft_radix4_q31.c **** uint32_t fftLen,
  35:Drivers/CMSIS/DSP/Source/TransformFunctions/arm_cfft_radix4_q31.c **** q31_t * pCoef,
  36:Drivers/CMSIS/DSP/Source/TransformFunctions/arm_cfft_radix4_q31.c **** uint32_t twidCoefModifier);
  37:Drivers/CMSIS/DSP/Source/TransformFunctions/arm_cfft_radix4_q31.c **** 
  38:Drivers/CMSIS/DSP/Source/TransformFunctions/arm_cfft_radix4_q31.c **** void arm_radix4_butterfly_q31(
  39:Drivers/CMSIS/DSP/Source/TransformFunctions/arm_cfft_radix4_q31.c **** q31_t * pSrc,
  40:Drivers/CMSIS/DSP/Source/TransformFunctions/arm_cfft_radix4_q31.c **** uint32_t fftLen,
  41:Drivers/CMSIS/DSP/Source/TransformFunctions/arm_cfft_radix4_q31.c **** q31_t * pCoef,
  42:Drivers/CMSIS/DSP/Source/TransformFunctions/arm_cfft_radix4_q31.c **** uint32_t twidCoefModifier);
  43:Drivers/CMSIS/DSP/Source/TransformFunctions/arm_cfft_radix4_q31.c **** 
  44:Drivers/CMSIS/DSP/Source/TransformFunctions/arm_cfft_radix4_q31.c **** void arm_bitreversal_q31(
  45:Drivers/CMSIS/DSP/Source/TransformFunctions/arm_cfft_radix4_q31.c **** q31_t * pSrc,
  46:Drivers/CMSIS/DSP/Source/TransformFunctions/arm_cfft_radix4_q31.c **** uint32_t fftLen,
  47:Drivers/CMSIS/DSP/Source/TransformFunctions/arm_cfft_radix4_q31.c **** uint16_t bitRevFactor,
  48:Drivers/CMSIS/DSP/Source/TransformFunctions/arm_cfft_radix4_q31.c **** uint16_t * pBitRevTab);
  49:Drivers/CMSIS/DSP/Source/TransformFunctions/arm_cfft_radix4_q31.c **** 
  50:Drivers/CMSIS/DSP/Source/TransformFunctions/arm_cfft_radix4_q31.c **** /**
  51:Drivers/CMSIS/DSP/Source/TransformFunctions/arm_cfft_radix4_q31.c ****  * @ingroup groupTransforms
  52:Drivers/CMSIS/DSP/Source/TransformFunctions/arm_cfft_radix4_q31.c ****  */
  53:Drivers/CMSIS/DSP/Source/TransformFunctions/arm_cfft_radix4_q31.c **** 
  54:Drivers/CMSIS/DSP/Source/TransformFunctions/arm_cfft_radix4_q31.c **** /**
  55:Drivers/CMSIS/DSP/Source/TransformFunctions/arm_cfft_radix4_q31.c ****  * @addtogroup ComplexFFT
  56:Drivers/CMSIS/DSP/Source/TransformFunctions/arm_cfft_radix4_q31.c ****  * @{
  57:Drivers/CMSIS/DSP/Source/TransformFunctions/arm_cfft_radix4_q31.c ****  */
  58:Drivers/CMSIS/DSP/Source/TransformFunctions/arm_cfft_radix4_q31.c **** 
  59:Drivers/CMSIS/DSP/Source/TransformFunctions/arm_cfft_radix4_q31.c **** /**
  60:Drivers/CMSIS/DSP/Source/TransformFunctions/arm_cfft_radix4_q31.c ****  * @details
  61:Drivers/CMSIS/DSP/Source/TransformFunctions/arm_cfft_radix4_q31.c ****  * @brief Processing function for the Q31 CFFT/CIFFT.
  62:Drivers/CMSIS/DSP/Source/TransformFunctions/arm_cfft_radix4_q31.c ****  * @deprecated Do not use this function.  It has been superseded by \ref arm_cfft_q31 and will be r
  63:Drivers/CMSIS/DSP/Source/TransformFunctions/arm_cfft_radix4_q31.c ****  * @param[in]      *S    points to an instance of the Q31 CFFT/CIFFT structure.
  64:Drivers/CMSIS/DSP/Source/TransformFunctions/arm_cfft_radix4_q31.c ****  * @param[in, out] *pSrc points to the complex data buffer of size <code>2*fftLen</code>. Processin
  65:Drivers/CMSIS/DSP/Source/TransformFunctions/arm_cfft_radix4_q31.c ****  * @return none.
  66:Drivers/CMSIS/DSP/Source/TransformFunctions/arm_cfft_radix4_q31.c ****  *
  67:Drivers/CMSIS/DSP/Source/TransformFunctions/arm_cfft_radix4_q31.c ****  * \par Input and output formats:
  68:Drivers/CMSIS/DSP/Source/TransformFunctions/arm_cfft_radix4_q31.c ****  * \par
  69:Drivers/CMSIS/DSP/Source/TransformFunctions/arm_cfft_radix4_q31.c ****  * Internally input is downscaled by 2 for every stage to avoid saturations inside CFFT/CIFFT proce
  70:Drivers/CMSIS/DSP/Source/TransformFunctions/arm_cfft_radix4_q31.c ****  * Hence the output format is different for different FFT sizes.
  71:Drivers/CMSIS/DSP/Source/TransformFunctions/arm_cfft_radix4_q31.c ****  * The input and output formats for different FFT sizes and number of bits to upscale are mentioned
  72:Drivers/CMSIS/DSP/Source/TransformFunctions/arm_cfft_radix4_q31.c ****  * \par
  73:Drivers/CMSIS/DSP/Source/TransformFunctions/arm_cfft_radix4_q31.c ****  * \image html CFFTQ31.gif "Input and Output Formats for Q31 CFFT"
  74:Drivers/CMSIS/DSP/Source/TransformFunctions/arm_cfft_radix4_q31.c ****  * \image html CIFFTQ31.gif "Input and Output Formats for Q31 CIFFT"
  75:Drivers/CMSIS/DSP/Source/TransformFunctions/arm_cfft_radix4_q31.c ****  *
  76:Drivers/CMSIS/DSP/Source/TransformFunctions/arm_cfft_radix4_q31.c ****  */
  77:Drivers/CMSIS/DSP/Source/TransformFunctions/arm_cfft_radix4_q31.c **** 
  78:Drivers/CMSIS/DSP/Source/TransformFunctions/arm_cfft_radix4_q31.c **** void arm_cfft_radix4_q31(
  79:Drivers/CMSIS/DSP/Source/TransformFunctions/arm_cfft_radix4_q31.c ****   const arm_cfft_radix4_instance_q31 * S,
  80:Drivers/CMSIS/DSP/Source/TransformFunctions/arm_cfft_radix4_q31.c ****   q31_t * pSrc)
  81:Drivers/CMSIS/DSP/Source/TransformFunctions/arm_cfft_radix4_q31.c **** {
  82:Drivers/CMSIS/DSP/Source/TransformFunctions/arm_cfft_radix4_q31.c ****   if (S->ifftFlag == 1U)
  83:Drivers/CMSIS/DSP/Source/TransformFunctions/arm_cfft_radix4_q31.c ****   {
  84:Drivers/CMSIS/DSP/Source/TransformFunctions/arm_cfft_radix4_q31.c ****     /* Complex IFFT radix-4 */
  85:Drivers/CMSIS/DSP/Source/TransformFunctions/arm_cfft_radix4_q31.c ****     arm_radix4_butterfly_inverse_q31(pSrc, S->fftLen, S->pTwiddle, S->twidCoefModifier);
  86:Drivers/CMSIS/DSP/Source/TransformFunctions/arm_cfft_radix4_q31.c ****   }
ARM GAS  /tmp/ccuzNZ5H.s 			page 3


  87:Drivers/CMSIS/DSP/Source/TransformFunctions/arm_cfft_radix4_q31.c ****   else
  88:Drivers/CMSIS/DSP/Source/TransformFunctions/arm_cfft_radix4_q31.c ****   {
  89:Drivers/CMSIS/DSP/Source/TransformFunctions/arm_cfft_radix4_q31.c ****     /* Complex FFT radix-4 */
  90:Drivers/CMSIS/DSP/Source/TransformFunctions/arm_cfft_radix4_q31.c ****     arm_radix4_butterfly_q31(pSrc, S->fftLen, S->pTwiddle, S->twidCoefModifier);
  91:Drivers/CMSIS/DSP/Source/TransformFunctions/arm_cfft_radix4_q31.c ****   }
  92:Drivers/CMSIS/DSP/Source/TransformFunctions/arm_cfft_radix4_q31.c **** 
  93:Drivers/CMSIS/DSP/Source/TransformFunctions/arm_cfft_radix4_q31.c ****   if (S->bitReverseFlag == 1U)
  94:Drivers/CMSIS/DSP/Source/TransformFunctions/arm_cfft_radix4_q31.c ****   {
  95:Drivers/CMSIS/DSP/Source/TransformFunctions/arm_cfft_radix4_q31.c ****     /*  Bit Reversal */
  96:Drivers/CMSIS/DSP/Source/TransformFunctions/arm_cfft_radix4_q31.c ****     arm_bitreversal_q31(pSrc, S->fftLen, S->bitRevFactor, S->pBitRevTable);
  97:Drivers/CMSIS/DSP/Source/TransformFunctions/arm_cfft_radix4_q31.c ****   }
  98:Drivers/CMSIS/DSP/Source/TransformFunctions/arm_cfft_radix4_q31.c **** 
  99:Drivers/CMSIS/DSP/Source/TransformFunctions/arm_cfft_radix4_q31.c **** }
 100:Drivers/CMSIS/DSP/Source/TransformFunctions/arm_cfft_radix4_q31.c **** 
 101:Drivers/CMSIS/DSP/Source/TransformFunctions/arm_cfft_radix4_q31.c **** /**
 102:Drivers/CMSIS/DSP/Source/TransformFunctions/arm_cfft_radix4_q31.c ****  * @} end of ComplexFFT group
 103:Drivers/CMSIS/DSP/Source/TransformFunctions/arm_cfft_radix4_q31.c ****  */
 104:Drivers/CMSIS/DSP/Source/TransformFunctions/arm_cfft_radix4_q31.c **** 
 105:Drivers/CMSIS/DSP/Source/TransformFunctions/arm_cfft_radix4_q31.c **** /*
 106:Drivers/CMSIS/DSP/Source/TransformFunctions/arm_cfft_radix4_q31.c **** * Radix-4 FFT algorithm used is :
 107:Drivers/CMSIS/DSP/Source/TransformFunctions/arm_cfft_radix4_q31.c **** *
 108:Drivers/CMSIS/DSP/Source/TransformFunctions/arm_cfft_radix4_q31.c **** * Input real and imaginary data:
 109:Drivers/CMSIS/DSP/Source/TransformFunctions/arm_cfft_radix4_q31.c **** * x(n) = xa + j * ya
 110:Drivers/CMSIS/DSP/Source/TransformFunctions/arm_cfft_radix4_q31.c **** * x(n+N/4 ) = xb + j * yb
 111:Drivers/CMSIS/DSP/Source/TransformFunctions/arm_cfft_radix4_q31.c **** * x(n+N/2 ) = xc + j * yc
 112:Drivers/CMSIS/DSP/Source/TransformFunctions/arm_cfft_radix4_q31.c **** * x(n+3N 4) = xd + j * yd
 113:Drivers/CMSIS/DSP/Source/TransformFunctions/arm_cfft_radix4_q31.c **** *
 114:Drivers/CMSIS/DSP/Source/TransformFunctions/arm_cfft_radix4_q31.c **** *
 115:Drivers/CMSIS/DSP/Source/TransformFunctions/arm_cfft_radix4_q31.c **** * Output real and imaginary data:
 116:Drivers/CMSIS/DSP/Source/TransformFunctions/arm_cfft_radix4_q31.c **** * x(4r) = xa'+ j * ya'
 117:Drivers/CMSIS/DSP/Source/TransformFunctions/arm_cfft_radix4_q31.c **** * x(4r+1) = xb'+ j * yb'
 118:Drivers/CMSIS/DSP/Source/TransformFunctions/arm_cfft_radix4_q31.c **** * x(4r+2) = xc'+ j * yc'
 119:Drivers/CMSIS/DSP/Source/TransformFunctions/arm_cfft_radix4_q31.c **** * x(4r+3) = xd'+ j * yd'
 120:Drivers/CMSIS/DSP/Source/TransformFunctions/arm_cfft_radix4_q31.c **** *
 121:Drivers/CMSIS/DSP/Source/TransformFunctions/arm_cfft_radix4_q31.c **** *
 122:Drivers/CMSIS/DSP/Source/TransformFunctions/arm_cfft_radix4_q31.c **** * Twiddle factors for radix-4 FFT:
 123:Drivers/CMSIS/DSP/Source/TransformFunctions/arm_cfft_radix4_q31.c **** * Wn = co1 + j * (- si1)
 124:Drivers/CMSIS/DSP/Source/TransformFunctions/arm_cfft_radix4_q31.c **** * W2n = co2 + j * (- si2)
 125:Drivers/CMSIS/DSP/Source/TransformFunctions/arm_cfft_radix4_q31.c **** * W3n = co3 + j * (- si3)
 126:Drivers/CMSIS/DSP/Source/TransformFunctions/arm_cfft_radix4_q31.c **** *
 127:Drivers/CMSIS/DSP/Source/TransformFunctions/arm_cfft_radix4_q31.c **** *  Butterfly implementation:
 128:Drivers/CMSIS/DSP/Source/TransformFunctions/arm_cfft_radix4_q31.c **** * xa' = xa + xb + xc + xd
 129:Drivers/CMSIS/DSP/Source/TransformFunctions/arm_cfft_radix4_q31.c **** * ya' = ya + yb + yc + yd
 130:Drivers/CMSIS/DSP/Source/TransformFunctions/arm_cfft_radix4_q31.c **** * xb' = (xa+yb-xc-yd)* co1 + (ya-xb-yc+xd)* (si1)
 131:Drivers/CMSIS/DSP/Source/TransformFunctions/arm_cfft_radix4_q31.c **** * yb' = (ya-xb-yc+xd)* co1 - (xa+yb-xc-yd)* (si1)
 132:Drivers/CMSIS/DSP/Source/TransformFunctions/arm_cfft_radix4_q31.c **** * xc' = (xa-xb+xc-xd)* co2 + (ya-yb+yc-yd)* (si2)
 133:Drivers/CMSIS/DSP/Source/TransformFunctions/arm_cfft_radix4_q31.c **** * yc' = (ya-yb+yc-yd)* co2 - (xa-xb+xc-xd)* (si2)
 134:Drivers/CMSIS/DSP/Source/TransformFunctions/arm_cfft_radix4_q31.c **** * xd' = (xa-yb-xc+yd)* co3 + (ya+xb-yc-xd)* (si3)
 135:Drivers/CMSIS/DSP/Source/TransformFunctions/arm_cfft_radix4_q31.c **** * yd' = (ya+xb-yc-xd)* co3 - (xa-yb-xc+yd)* (si3)
 136:Drivers/CMSIS/DSP/Source/TransformFunctions/arm_cfft_radix4_q31.c **** *
 137:Drivers/CMSIS/DSP/Source/TransformFunctions/arm_cfft_radix4_q31.c **** */
 138:Drivers/CMSIS/DSP/Source/TransformFunctions/arm_cfft_radix4_q31.c **** 
 139:Drivers/CMSIS/DSP/Source/TransformFunctions/arm_cfft_radix4_q31.c **** /**
 140:Drivers/CMSIS/DSP/Source/TransformFunctions/arm_cfft_radix4_q31.c ****  * @brief  Core function for the Q31 CFFT butterfly process.
 141:Drivers/CMSIS/DSP/Source/TransformFunctions/arm_cfft_radix4_q31.c ****  * @param[in, out] *pSrc            points to the in-place buffer of Q31 data type.
 142:Drivers/CMSIS/DSP/Source/TransformFunctions/arm_cfft_radix4_q31.c ****  * @param[in]      fftLen           length of the FFT.
 143:Drivers/CMSIS/DSP/Source/TransformFunctions/arm_cfft_radix4_q31.c ****  * @param[in]      *pCoef           points to twiddle coefficient buffer.
ARM GAS  /tmp/ccuzNZ5H.s 			page 4


 144:Drivers/CMSIS/DSP/Source/TransformFunctions/arm_cfft_radix4_q31.c ****  * @param[in]      twidCoefModifier twiddle coefficient modifier that supports different size FFTs 
 145:Drivers/CMSIS/DSP/Source/TransformFunctions/arm_cfft_radix4_q31.c ****  * @return none.
 146:Drivers/CMSIS/DSP/Source/TransformFunctions/arm_cfft_radix4_q31.c ****  */
 147:Drivers/CMSIS/DSP/Source/TransformFunctions/arm_cfft_radix4_q31.c **** 
 148:Drivers/CMSIS/DSP/Source/TransformFunctions/arm_cfft_radix4_q31.c **** void arm_radix4_butterfly_q31(
 149:Drivers/CMSIS/DSP/Source/TransformFunctions/arm_cfft_radix4_q31.c ****   q31_t * pSrc,
 150:Drivers/CMSIS/DSP/Source/TransformFunctions/arm_cfft_radix4_q31.c ****   uint32_t fftLen,
 151:Drivers/CMSIS/DSP/Source/TransformFunctions/arm_cfft_radix4_q31.c ****   q31_t * pCoef,
 152:Drivers/CMSIS/DSP/Source/TransformFunctions/arm_cfft_radix4_q31.c ****   uint32_t twidCoefModifier)
 153:Drivers/CMSIS/DSP/Source/TransformFunctions/arm_cfft_radix4_q31.c **** {
  30              		.loc 1 153 1 view -0
  31              		.cfi_startproc
  32              		@ args = 0, pretend = 0, frame = 96
  33              		@ frame_needed = 0, uses_anonymous_args = 0
  34              		.loc 1 153 1 is_stmt 0 view .LVU1
  35 0000 2DE9F04F 		push	{r4, r5, r6, r7, r8, r9, r10, fp, lr}
  36              	.LCFI0:
  37              		.cfi_def_cfa_offset 36
  38              		.cfi_offset 4, -36
  39              		.cfi_offset 5, -32
  40              		.cfi_offset 6, -28
  41              		.cfi_offset 7, -24
  42              		.cfi_offset 8, -20
  43              		.cfi_offset 9, -16
  44              		.cfi_offset 10, -12
  45              		.cfi_offset 11, -8
  46              		.cfi_offset 14, -4
  47 0004 99B0     		sub	sp, sp, #100
  48              	.LCFI1:
  49              		.cfi_def_cfa_offset 136
  50 0006 8146     		mov	r9, r0
  51 0008 0D91     		str	r1, [sp, #52]
  52 000a 0092     		str	r2, [sp]
  53 000c 0C93     		str	r3, [sp, #48]
 154:Drivers/CMSIS/DSP/Source/TransformFunctions/arm_cfft_radix4_q31.c **** #if defined(ARM_MATH_CM7)
 155:Drivers/CMSIS/DSP/Source/TransformFunctions/arm_cfft_radix4_q31.c ****   uint32_t n1, n2, ia1, ia2, ia3, i0, i1, i2, i3, j, k;
  54              		.loc 1 155 3 is_stmt 1 view .LVU2
 156:Drivers/CMSIS/DSP/Source/TransformFunctions/arm_cfft_radix4_q31.c ****   q31_t t1, t2, r1, r2, s1, s2, co1, co2, co3, si1, si2, si3;
  55              		.loc 1 156 3 view .LVU3
 157:Drivers/CMSIS/DSP/Source/TransformFunctions/arm_cfft_radix4_q31.c **** 
 158:Drivers/CMSIS/DSP/Source/TransformFunctions/arm_cfft_radix4_q31.c ****   q31_t xa, xb, xc, xd;
  56              		.loc 1 158 3 view .LVU4
 159:Drivers/CMSIS/DSP/Source/TransformFunctions/arm_cfft_radix4_q31.c ****   q31_t ya, yb, yc, yd;
  57              		.loc 1 159 3 view .LVU5
 160:Drivers/CMSIS/DSP/Source/TransformFunctions/arm_cfft_radix4_q31.c ****   q31_t xa_out, xb_out, xc_out, xd_out;
  58              		.loc 1 160 3 view .LVU6
 161:Drivers/CMSIS/DSP/Source/TransformFunctions/arm_cfft_radix4_q31.c ****   q31_t ya_out, yb_out, yc_out, yd_out;
  59              		.loc 1 161 3 view .LVU7
 162:Drivers/CMSIS/DSP/Source/TransformFunctions/arm_cfft_radix4_q31.c **** 
 163:Drivers/CMSIS/DSP/Source/TransformFunctions/arm_cfft_radix4_q31.c ****   q31_t *ptr1;
  60              		.loc 1 163 3 view .LVU8
 164:Drivers/CMSIS/DSP/Source/TransformFunctions/arm_cfft_radix4_q31.c ****   q63_t xaya, xbyb, xcyc, xdyd;
  61              		.loc 1 164 3 view .LVU9
 165:Drivers/CMSIS/DSP/Source/TransformFunctions/arm_cfft_radix4_q31.c ****   /* Total process is divided into three stages */
 166:Drivers/CMSIS/DSP/Source/TransformFunctions/arm_cfft_radix4_q31.c **** 
 167:Drivers/CMSIS/DSP/Source/TransformFunctions/arm_cfft_radix4_q31.c ****   /* process first stage, middle stages, & last stage */
 168:Drivers/CMSIS/DSP/Source/TransformFunctions/arm_cfft_radix4_q31.c **** 
ARM GAS  /tmp/ccuzNZ5H.s 			page 5


 169:Drivers/CMSIS/DSP/Source/TransformFunctions/arm_cfft_radix4_q31.c **** 
 170:Drivers/CMSIS/DSP/Source/TransformFunctions/arm_cfft_radix4_q31.c ****   /* start of first stage process */
 171:Drivers/CMSIS/DSP/Source/TransformFunctions/arm_cfft_radix4_q31.c **** 
 172:Drivers/CMSIS/DSP/Source/TransformFunctions/arm_cfft_radix4_q31.c ****   /*  Initializations for the first stage */
 173:Drivers/CMSIS/DSP/Source/TransformFunctions/arm_cfft_radix4_q31.c ****   n2 = fftLen;
  62              		.loc 1 173 3 view .LVU10
  63              	.LVL1:
 174:Drivers/CMSIS/DSP/Source/TransformFunctions/arm_cfft_radix4_q31.c ****   n1 = n2;
  64              		.loc 1 174 3 view .LVU11
 175:Drivers/CMSIS/DSP/Source/TransformFunctions/arm_cfft_radix4_q31.c ****   /* n2 = fftLen/4 */
 176:Drivers/CMSIS/DSP/Source/TransformFunctions/arm_cfft_radix4_q31.c ****   n2 >>= 2U;
  65              		.loc 1 176 3 view .LVU12
  66              		.loc 1 176 6 is_stmt 0 view .LVU13
  67 000e 8B08     		lsrs	r3, r1, #2
  68              	.LVL2:
  69              		.loc 1 176 6 view .LVU14
  70 0010 1793     		str	r3, [sp, #92]
  71              	.LVL3:
 177:Drivers/CMSIS/DSP/Source/TransformFunctions/arm_cfft_radix4_q31.c ****   i0 = 0U;
  72              		.loc 1 177 3 is_stmt 1 view .LVU15
 178:Drivers/CMSIS/DSP/Source/TransformFunctions/arm_cfft_radix4_q31.c ****   ia1 = 0U;
  73              		.loc 1 178 3 view .LVU16
 179:Drivers/CMSIS/DSP/Source/TransformFunctions/arm_cfft_radix4_q31.c **** 
 180:Drivers/CMSIS/DSP/Source/TransformFunctions/arm_cfft_radix4_q31.c ****   j = n2;
  74              		.loc 1 180 3 view .LVU17
  75              		.loc 1 180 5 is_stmt 0 view .LVU18
  76 0012 1593     		str	r3, [sp, #84]
 177:Drivers/CMSIS/DSP/Source/TransformFunctions/arm_cfft_radix4_q31.c ****   ia1 = 0U;
  77              		.loc 1 177 6 view .LVU19
  78 0014 0024     		movs	r4, #0
 178:Drivers/CMSIS/DSP/Source/TransformFunctions/arm_cfft_radix4_q31.c ****   ia1 = 0U;
  79              		.loc 1 178 7 view .LVU20
  80 0016 0194     		str	r4, [sp, #4]
  81 0018 A246     		mov	r10, r4
  82              	.LVL4:
  83              	.L2:
 181:Drivers/CMSIS/DSP/Source/TransformFunctions/arm_cfft_radix4_q31.c **** 
 182:Drivers/CMSIS/DSP/Source/TransformFunctions/arm_cfft_radix4_q31.c ****   /*  Calculation of first stage */
 183:Drivers/CMSIS/DSP/Source/TransformFunctions/arm_cfft_radix4_q31.c ****   do
  84              		.loc 1 183 3 is_stmt 1 view .LVU21
 184:Drivers/CMSIS/DSP/Source/TransformFunctions/arm_cfft_radix4_q31.c ****   {
 185:Drivers/CMSIS/DSP/Source/TransformFunctions/arm_cfft_radix4_q31.c ****     /*  index calculation for the input as, */
 186:Drivers/CMSIS/DSP/Source/TransformFunctions/arm_cfft_radix4_q31.c ****     /*  pSrc[i0 + 0], pSrc[i0 + fftLen/4], pSrc[i0 + fftLen/2U], pSrc[i0 + 3fftLen/4] */
 187:Drivers/CMSIS/DSP/Source/TransformFunctions/arm_cfft_radix4_q31.c ****     i1 = i0 + n2;
  85              		.loc 1 187 5 view .LVU22
  86              		.loc 1 187 8 is_stmt 0 view .LVU23
  87 001a 179A     		ldr	r2, [sp, #92]
  88 001c 0AEB020C 		add	ip, r10, r2
  89              	.LVL5:
 188:Drivers/CMSIS/DSP/Source/TransformFunctions/arm_cfft_radix4_q31.c ****     i2 = i1 + n2;
  90              		.loc 1 188 5 is_stmt 1 view .LVU24
  91              		.loc 1 188 8 is_stmt 0 view .LVU25
  92 0020 0AEB4203 		add	r3, r10, r2, lsl #1
  93              	.LVL6:
 189:Drivers/CMSIS/DSP/Source/TransformFunctions/arm_cfft_radix4_q31.c ****     i3 = i2 + n2;
  94              		.loc 1 189 5 is_stmt 1 view .LVU26
  95              		.loc 1 189 8 is_stmt 0 view .LVU27
ARM GAS  /tmp/ccuzNZ5H.s 			page 6


  96 0024 02EB030B 		add	fp, r2, r3
  97              	.LVL7:
 190:Drivers/CMSIS/DSP/Source/TransformFunctions/arm_cfft_radix4_q31.c **** 
 191:Drivers/CMSIS/DSP/Source/TransformFunctions/arm_cfft_radix4_q31.c ****     /* input is in 1.31(q31) format and provide 4 guard bits for the input */
 192:Drivers/CMSIS/DSP/Source/TransformFunctions/arm_cfft_radix4_q31.c **** 
 193:Drivers/CMSIS/DSP/Source/TransformFunctions/arm_cfft_radix4_q31.c ****     /*  Butterfly implementation */
 194:Drivers/CMSIS/DSP/Source/TransformFunctions/arm_cfft_radix4_q31.c ****     /* xa + xc */
 195:Drivers/CMSIS/DSP/Source/TransformFunctions/arm_cfft_radix4_q31.c ****     r1 = (pSrc[(2U * i0)] >> 4U) + (pSrc[(2U * i2)] >> 4U);
  98              		.loc 1 195 5 is_stmt 1 view .LVU28
  99              		.loc 1 195 15 is_stmt 0 view .LVU29
 100 0028 4FEACA00 		lsl	r0, r10, #3
 101 002c 59F83A10 		ldr	r1, [r9, r10, lsl #3]
 102              		.loc 1 195 41 view .LVU30
 103 0030 DF00     		lsls	r7, r3, #3
 104 0032 0393     		str	r3, [sp, #12]
 105 0034 59F83330 		ldr	r3, [r9, r3, lsl #3]
 106              	.LVL8:
 107              		.loc 1 195 53 view .LVU31
 108 0038 1B11     		asrs	r3, r3, #4
 109              		.loc 1 195 8 view .LVU32
 110 003a 03EB2112 		add	r2, r3, r1, asr #4
 111              	.LVL9:
 196:Drivers/CMSIS/DSP/Source/TransformFunctions/arm_cfft_radix4_q31.c ****     /* xa - xc */
 197:Drivers/CMSIS/DSP/Source/TransformFunctions/arm_cfft_radix4_q31.c ****     r2 = (pSrc[2U * i0] >> 4U) - (pSrc[2U * i2] >> 4U);
 112              		.loc 1 197 5 is_stmt 1 view .LVU33
 113              		.loc 1 197 8 is_stmt 0 view .LVU34
 114 003e C3EB2111 		rsb	r1, r3, r1, asr #4
 115 0042 0891     		str	r1, [sp, #32]
 116              	.LVL10:
 198:Drivers/CMSIS/DSP/Source/TransformFunctions/arm_cfft_radix4_q31.c **** 
 199:Drivers/CMSIS/DSP/Source/TransformFunctions/arm_cfft_radix4_q31.c ****     /* xb + xd */
 200:Drivers/CMSIS/DSP/Source/TransformFunctions/arm_cfft_radix4_q31.c ****     t1 = (pSrc[2U * i1] >> 4U) + (pSrc[2U * i3] >> 4U);
 117              		.loc 1 200 5 is_stmt 1 view .LVU35
 118              		.loc 1 200 15 is_stmt 0 view .LVU36
 119 0044 4FEACC06 		lsl	r6, ip, #3
 120 0048 59F83C50 		ldr	r5, [r9, ip, lsl #3]
 121              		.loc 1 200 39 view .LVU37
 122 004c 4FEACB04 		lsl	r4, fp, #3
 123 0050 59F83B30 		ldr	r3, [r9, fp, lsl #3]
 124              		.loc 1 200 49 view .LVU38
 125 0054 1B11     		asrs	r3, r3, #4
 126              		.loc 1 200 8 view .LVU39
 127 0056 03EB2511 		add	r1, r3, r5, asr #4
 128              	.LVL11:
 201:Drivers/CMSIS/DSP/Source/TransformFunctions/arm_cfft_radix4_q31.c **** 
 202:Drivers/CMSIS/DSP/Source/TransformFunctions/arm_cfft_radix4_q31.c ****     /* ya + yc */
 203:Drivers/CMSIS/DSP/Source/TransformFunctions/arm_cfft_radix4_q31.c ****     s1 = (pSrc[(2U * i0) + 1U] >> 4U) + (pSrc[(2U * i2) + 1U] >> 4U);
 129              		.loc 1 203 5 is_stmt 1 view .LVU40
 130              		.loc 1 203 15 is_stmt 0 view .LVU41
 131 005a 0430     		adds	r0, r0, #4
 132 005c 59F80050 		ldr	r5, [r9, r0]
 133              		.loc 1 203 46 view .LVU42
 134 0060 0437     		adds	r7, r7, #4
 135 0062 0497     		str	r7, [sp, #16]
 136 0064 59F80730 		ldr	r3, [r9, r7]
 137              		.loc 1 203 63 view .LVU43
 138 0068 1F11     		asrs	r7, r3, #4
ARM GAS  /tmp/ccuzNZ5H.s 			page 7


 139              		.loc 1 203 8 view .LVU44
 140 006a 07EB2513 		add	r3, r7, r5, asr #4
 141              	.LVL12:
 204:Drivers/CMSIS/DSP/Source/TransformFunctions/arm_cfft_radix4_q31.c ****     /* ya - yc */
 205:Drivers/CMSIS/DSP/Source/TransformFunctions/arm_cfft_radix4_q31.c ****     s2 = (pSrc[(2U * i0) + 1U] >> 4U) - (pSrc[(2U * i2) + 1U] >> 4U);
 142              		.loc 1 205 5 is_stmt 1 view .LVU45
 143              		.loc 1 205 8 is_stmt 0 view .LVU46
 144 006e C7EB2515 		rsb	r5, r7, r5, asr #4
 145 0072 0995     		str	r5, [sp, #36]
 146              	.LVL13:
 206:Drivers/CMSIS/DSP/Source/TransformFunctions/arm_cfft_radix4_q31.c **** 
 207:Drivers/CMSIS/DSP/Source/TransformFunctions/arm_cfft_radix4_q31.c ****     /* xa' = xa + xb + xc + xd */
 208:Drivers/CMSIS/DSP/Source/TransformFunctions/arm_cfft_radix4_q31.c ****     pSrc[2U * i0] = (r1 + t1);
 147              		.loc 1 208 5 is_stmt 1 view .LVU47
 148              		.loc 1 208 25 is_stmt 0 view .LVU48
 149 0074 5518     		adds	r5, r2, r1
 150              	.LVL14:
 151              		.loc 1 208 19 view .LVU49
 152 0076 49F83A50 		str	r5, [r9, r10, lsl #3]
 209:Drivers/CMSIS/DSP/Source/TransformFunctions/arm_cfft_radix4_q31.c ****     /* (xa + xc) - (xb + xd) */
 210:Drivers/CMSIS/DSP/Source/TransformFunctions/arm_cfft_radix4_q31.c ****     r1 = r1 - t1;
 153              		.loc 1 210 5 is_stmt 1 view .LVU50
 154              		.loc 1 210 8 is_stmt 0 view .LVU51
 155 007a 521A     		subs	r2, r2, r1
 156              	.LVL15:
 211:Drivers/CMSIS/DSP/Source/TransformFunctions/arm_cfft_radix4_q31.c ****     /* yb + yd */
 212:Drivers/CMSIS/DSP/Source/TransformFunctions/arm_cfft_radix4_q31.c ****     t2 = (pSrc[(2U * i1) + 1U] >> 4U) + (pSrc[(2U * i3) + 1U] >> 4U);
 157              		.loc 1 212 5 is_stmt 1 view .LVU52
 158              		.loc 1 212 15 is_stmt 0 view .LVU53
 159 007c 06F1040E 		add	lr, r6, #4
 160 0080 59F80E50 		ldr	r5, [r9, lr]
 161              		.loc 1 212 46 view .LVU54
 162 0084 261D     		adds	r6, r4, #4
 163 0086 59F80610 		ldr	r1, [r9, r6]
 164              	.LVL16:
 165              		.loc 1 212 63 view .LVU55
 166 008a 0911     		asrs	r1, r1, #4
 167              		.loc 1 212 8 view .LVU56
 168 008c 01EB2511 		add	r1, r1, r5, asr #4
 169              	.LVL17:
 213:Drivers/CMSIS/DSP/Source/TransformFunctions/arm_cfft_radix4_q31.c **** 
 214:Drivers/CMSIS/DSP/Source/TransformFunctions/arm_cfft_radix4_q31.c ****     /* ya' = ya + yb + yc + yd */
 215:Drivers/CMSIS/DSP/Source/TransformFunctions/arm_cfft_radix4_q31.c ****     pSrc[(2U * i0) + 1U] = (s1 + t2);
 170              		.loc 1 215 5 is_stmt 1 view .LVU57
 171              		.loc 1 215 32 is_stmt 0 view .LVU58
 172 0090 5C18     		adds	r4, r3, r1
 173              		.loc 1 215 26 view .LVU59
 174 0092 49F80040 		str	r4, [r9, r0]
 216:Drivers/CMSIS/DSP/Source/TransformFunctions/arm_cfft_radix4_q31.c **** 
 217:Drivers/CMSIS/DSP/Source/TransformFunctions/arm_cfft_radix4_q31.c ****     /* (ya + yc) - (yb + yd) */
 218:Drivers/CMSIS/DSP/Source/TransformFunctions/arm_cfft_radix4_q31.c ****     s1 = s1 - t2;
 175              		.loc 1 218 5 is_stmt 1 view .LVU60
 176              		.loc 1 218 8 is_stmt 0 view .LVU61
 177 0096 5B1A     		subs	r3, r3, r1
 178              	.LVL18:
 219:Drivers/CMSIS/DSP/Source/TransformFunctions/arm_cfft_radix4_q31.c **** 
 220:Drivers/CMSIS/DSP/Source/TransformFunctions/arm_cfft_radix4_q31.c ****     /* yb - yd */
ARM GAS  /tmp/ccuzNZ5H.s 			page 8


 221:Drivers/CMSIS/DSP/Source/TransformFunctions/arm_cfft_radix4_q31.c ****     t1 = (pSrc[(2U * i1) + 1U] >> 4U) - (pSrc[(2U * i3) + 1U] >> 4U);
 179              		.loc 1 221 5 is_stmt 1 view .LVU62
 180              		.loc 1 221 15 is_stmt 0 view .LVU63
 181 0098 59F80E00 		ldr	r0, [r9, lr]
 182              		.loc 1 221 46 view .LVU64
 183 009c 0596     		str	r6, [sp, #20]
 184 009e 59F80610 		ldr	r1, [r9, r6]
 185              	.LVL19:
 186              		.loc 1 221 63 view .LVU65
 187 00a2 0911     		asrs	r1, r1, #4
 188              		.loc 1 221 8 view .LVU66
 189 00a4 C1EB2011 		rsb	r1, r1, r0, asr #4
 190 00a8 0A91     		str	r1, [sp, #40]
 191              	.LVL20:
 222:Drivers/CMSIS/DSP/Source/TransformFunctions/arm_cfft_radix4_q31.c ****     /* xb - xd */
 223:Drivers/CMSIS/DSP/Source/TransformFunctions/arm_cfft_radix4_q31.c ****     t2 = (pSrc[2U * i1] >> 4U) - (pSrc[2U * i3] >> 4U);
 192              		.loc 1 223 5 is_stmt 1 view .LVU67
 193              		.loc 1 223 15 is_stmt 0 view .LVU68
 194 00aa 59F83C00 		ldr	r0, [r9, ip, lsl #3]
 195              		.loc 1 223 39 view .LVU69
 196 00ae 59F83B10 		ldr	r1, [r9, fp, lsl #3]
 197              	.LVL21:
 198              		.loc 1 223 49 view .LVU70
 199 00b2 0911     		asrs	r1, r1, #4
 200              		.loc 1 223 8 view .LVU71
 201 00b4 C1EB2010 		rsb	r0, r1, r0, asr #4
 202 00b8 0B90     		str	r0, [sp, #44]
 203              	.LVL22:
 224:Drivers/CMSIS/DSP/Source/TransformFunctions/arm_cfft_radix4_q31.c **** 
 225:Drivers/CMSIS/DSP/Source/TransformFunctions/arm_cfft_radix4_q31.c ****     /*  index calculation for the coefficients */
 226:Drivers/CMSIS/DSP/Source/TransformFunctions/arm_cfft_radix4_q31.c ****     ia2 = 2U * ia1;
 204              		.loc 1 226 5 is_stmt 1 view .LVU72
 227:Drivers/CMSIS/DSP/Source/TransformFunctions/arm_cfft_radix4_q31.c ****     co2 = pCoef[ia2 * 2U];
 205              		.loc 1 227 5 view .LVU73
 206              		.loc 1 227 16 is_stmt 0 view .LVU74
 207 00ba 019C     		ldr	r4, [sp, #4]
 208 00bc 2101     		lsls	r1, r4, #4
 209              		.loc 1 227 9 view .LVU75
 210 00be 0098     		ldr	r0, [sp]
 211              	.LVL23:
 212              		.loc 1 227 9 view .LVU76
 213 00c0 4558     		ldr	r5, [r0, r1]
 214              	.LVL24:
 228:Drivers/CMSIS/DSP/Source/TransformFunctions/arm_cfft_radix4_q31.c ****     si2 = pCoef[(ia2 * 2U) + 1U];
 215              		.loc 1 228 5 is_stmt 1 view .LVU77
 216              		.loc 1 228 16 is_stmt 0 view .LVU78
 217 00c2 0431     		adds	r1, r1, #4
 218              		.loc 1 228 9 view .LVU79
 219 00c4 4158     		ldr	r1, [r0, r1]
 220              	.LVL25:
 229:Drivers/CMSIS/DSP/Source/TransformFunctions/arm_cfft_radix4_q31.c **** 
 230:Drivers/CMSIS/DSP/Source/TransformFunctions/arm_cfft_radix4_q31.c ****     /* xc' = (xa-xb+xc-xd)co2 + (ya-yb+yc-yd)(si2) */
 231:Drivers/CMSIS/DSP/Source/TransformFunctions/arm_cfft_radix4_q31.c ****     pSrc[2U * i1] = (((int32_t) (((q63_t) r1 * co2) >> 32)) +
 221              		.loc 1 231 5 is_stmt 1 view .LVU80
 222              		.loc 1 231 35 is_stmt 0 view .LVU81
 223 00c6 D417     		asrs	r4, r2, #31
 224              		.loc 1 231 46 view .LVU82
ARM GAS  /tmp/ccuzNZ5H.s 			page 9


 225 00c8 EE17     		asrs	r6, r5, #31
 226 00ca 0796     		str	r6, [sp, #28]
 227 00cc 02FB06F0 		mul	r0, r2, r6
 228 00d0 0694     		str	r4, [sp, #24]
 229 00d2 05FB0400 		mla	r0, r5, r4, r0
 230 00d6 0292     		str	r2, [sp, #8]
 231 00d8 A2FB0564 		umull	r6, r4, r2, r5
 232 00dc 2044     		add	r0, r0, r4
 232:Drivers/CMSIS/DSP/Source/TransformFunctions/arm_cfft_radix4_q31.c ****                      ((int32_t) (((q63_t) s1 * si2) >> 32))) << 1U;
 233              		.loc 1 232 35 view .LVU83
 234 00de DE17     		asrs	r6, r3, #31
 235              		.loc 1 232 46 view .LVU84
 236 00e0 CC17     		asrs	r4, r1, #31
 237 00e2 03FB04F7 		mul	r7, r3, r4
 238 00e6 01FB0677 		mla	r7, r1, r6, r7
 239 00ea A3FB0182 		umull	r8, r2, r3, r1
 240              	.LVL26:
 241              		.loc 1 232 46 view .LVU85
 242 00ee 1744     		add	r7, r7, r2
 231:Drivers/CMSIS/DSP/Source/TransformFunctions/arm_cfft_radix4_q31.c ****                      ((int32_t) (((q63_t) s1 * si2) >> 32))) << 1U;
 243              		.loc 1 231 61 view .LVU86
 244 00f0 3844     		add	r0, r0, r7
 245              		.loc 1 232 62 view .LVU87
 246 00f2 4000     		lsls	r0, r0, #1
 231:Drivers/CMSIS/DSP/Source/TransformFunctions/arm_cfft_radix4_q31.c ****                      ((int32_t) (((q63_t) s1 * si2) >> 32))) << 1U;
 247              		.loc 1 231 19 view .LVU88
 248 00f4 49F83C00 		str	r0, [r9, ip, lsl #3]
 233:Drivers/CMSIS/DSP/Source/TransformFunctions/arm_cfft_radix4_q31.c **** 
 234:Drivers/CMSIS/DSP/Source/TransformFunctions/arm_cfft_radix4_q31.c ****     /* yc' = (ya-yb+yc-yd)co2 - (xa-xb+xc-xd)(si2) */
 235:Drivers/CMSIS/DSP/Source/TransformFunctions/arm_cfft_radix4_q31.c ****     pSrc[(2U * i1) + 1U] = (((int32_t) (((q63_t) s1 * co2) >> 32)) -
 249              		.loc 1 235 5 is_stmt 1 view .LVU89
 250              		.loc 1 235 53 is_stmt 0 view .LVU90
 251 00f8 05FB06F6 		mul	r6, r5, r6
 252 00fc 0798     		ldr	r0, [sp, #28]
 253 00fe 03FB0066 		mla	r6, r3, r0, r6
 254 0102 A5FB0353 		umull	r5, r3, r5, r3
 255              	.LVL27:
 256              		.loc 1 235 53 view .LVU91
 257 0106 3344     		add	r3, r3, r6
 236:Drivers/CMSIS/DSP/Source/TransformFunctions/arm_cfft_radix4_q31.c ****                             ((int32_t) (((q63_t) r1 * si2) >> 32))) << 1U;
 258              		.loc 1 236 53 view .LVU92
 259 0108 029A     		ldr	r2, [sp, #8]
 260 010a 02FB04F4 		mul	r4, r2, r4
 261 010e 069D     		ldr	r5, [sp, #24]
 262 0110 01FB0544 		mla	r4, r1, r5, r4
 263 0114 A2FB0121 		umull	r2, r1, r2, r1
 264              	.LVL28:
 265              		.loc 1 236 53 view .LVU93
 266 0118 0C44     		add	r4, r4, r1
 235:Drivers/CMSIS/DSP/Source/TransformFunctions/arm_cfft_radix4_q31.c ****                             ((int32_t) (((q63_t) r1 * si2) >> 32))) << 1U;
 267              		.loc 1 235 68 view .LVU94
 268 011a 1B1B     		subs	r3, r3, r4
 269              		.loc 1 236 69 view .LVU95
 270 011c 5B00     		lsls	r3, r3, #1
 235:Drivers/CMSIS/DSP/Source/TransformFunctions/arm_cfft_radix4_q31.c ****                             ((int32_t) (((q63_t) r1 * si2) >> 32))) << 1U;
 271              		.loc 1 235 26 view .LVU96
 272 011e 49F80E30 		str	r3, [r9, lr]
ARM GAS  /tmp/ccuzNZ5H.s 			page 10


 237:Drivers/CMSIS/DSP/Source/TransformFunctions/arm_cfft_radix4_q31.c **** 
 238:Drivers/CMSIS/DSP/Source/TransformFunctions/arm_cfft_radix4_q31.c ****     /* (xa - xc) + (yb - yd) */
 239:Drivers/CMSIS/DSP/Source/TransformFunctions/arm_cfft_radix4_q31.c ****     r1 = r2 + t1;
 273              		.loc 1 239 5 is_stmt 1 view .LVU97
 274              		.loc 1 239 8 is_stmt 0 view .LVU98
 275 0122 089A     		ldr	r2, [sp, #32]
 276 0124 0A9B     		ldr	r3, [sp, #40]
 277 0126 D518     		adds	r5, r2, r3
 278              	.LVL29:
 240:Drivers/CMSIS/DSP/Source/TransformFunctions/arm_cfft_radix4_q31.c ****     /* (xa - xc) - (yb - yd) */
 241:Drivers/CMSIS/DSP/Source/TransformFunctions/arm_cfft_radix4_q31.c ****     r2 = r2 - t1;
 279              		.loc 1 241 5 is_stmt 1 view .LVU99
 280              		.loc 1 241 8 is_stmt 0 view .LVU100
 281 0128 A2EB0308 		sub	r8, r2, r3
 282              	.LVL30:
 242:Drivers/CMSIS/DSP/Source/TransformFunctions/arm_cfft_radix4_q31.c **** 
 243:Drivers/CMSIS/DSP/Source/TransformFunctions/arm_cfft_radix4_q31.c ****     /* (ya - yc) - (xb - xd) */
 244:Drivers/CMSIS/DSP/Source/TransformFunctions/arm_cfft_radix4_q31.c ****     s1 = s2 - t2;
 283              		.loc 1 244 5 is_stmt 1 view .LVU101
 284              		.loc 1 244 8 is_stmt 0 view .LVU102
 285 012c 0999     		ldr	r1, [sp, #36]
 286 012e 0B9B     		ldr	r3, [sp, #44]
 287 0130 CA1A     		subs	r2, r1, r3
 288              	.LVL31:
 245:Drivers/CMSIS/DSP/Source/TransformFunctions/arm_cfft_radix4_q31.c ****     /* (ya - yc) + (xb - xd) */
 246:Drivers/CMSIS/DSP/Source/TransformFunctions/arm_cfft_radix4_q31.c ****     s2 = s2 + t2;
 289              		.loc 1 246 5 is_stmt 1 view .LVU103
 290              		.loc 1 246 8 is_stmt 0 view .LVU104
 291 0132 CB18     		adds	r3, r1, r3
 292 0134 0293     		str	r3, [sp, #8]
 293              	.LVL32:
 247:Drivers/CMSIS/DSP/Source/TransformFunctions/arm_cfft_radix4_q31.c **** 
 248:Drivers/CMSIS/DSP/Source/TransformFunctions/arm_cfft_radix4_q31.c ****     co1 = pCoef[ia1 * 2U];
 294              		.loc 1 248 5 is_stmt 1 view .LVU105
 295              		.loc 1 248 16 is_stmt 0 view .LVU106
 296 0136 019C     		ldr	r4, [sp, #4]
 297 0138 E100     		lsls	r1, r4, #3
 298              		.loc 1 248 9 view .LVU107
 299 013a 0098     		ldr	r0, [sp]
 300 013c 50F83460 		ldr	r6, [r0, r4, lsl #3]
 301              	.LVL33:
 249:Drivers/CMSIS/DSP/Source/TransformFunctions/arm_cfft_radix4_q31.c ****     si1 = pCoef[(ia1 * 2U) + 1U];
 302              		.loc 1 249 5 is_stmt 1 view .LVU108
 303              		.loc 1 249 16 is_stmt 0 view .LVU109
 304 0140 0431     		adds	r1, r1, #4
 305              		.loc 1 249 9 view .LVU110
 306 0142 4158     		ldr	r1, [r0, r1]
 307              	.LVL34:
 250:Drivers/CMSIS/DSP/Source/TransformFunctions/arm_cfft_radix4_q31.c **** 
 251:Drivers/CMSIS/DSP/Source/TransformFunctions/arm_cfft_radix4_q31.c ****     /* xb' = (xa+yb-xc-yd)co1 + (ya-xb-yc+xd)(si1) */
 252:Drivers/CMSIS/DSP/Source/TransformFunctions/arm_cfft_radix4_q31.c ****     pSrc[2U * i2] = (((int32_t) (((q63_t) r1 * co1) >> 32)) +
 308              		.loc 1 252 5 is_stmt 1 view .LVU111
 309              		.loc 1 252 35 is_stmt 0 view .LVU112
 310 0144 4FEAE57E 		asr	lr, r5, #31
 311              		.loc 1 252 46 view .LVU113
 312 0148 F417     		asrs	r4, r6, #31
 313 014a 0694     		str	r4, [sp, #24]
ARM GAS  /tmp/ccuzNZ5H.s 			page 11


 314 014c 05FB04F0 		mul	r0, r5, r4
 315 0150 06FB0E00 		mla	r0, r6, lr, r0
 316 0154 A5FB0674 		umull	r7, r4, r5, r6
 317 0158 2044     		add	r0, r0, r4
 253:Drivers/CMSIS/DSP/Source/TransformFunctions/arm_cfft_radix4_q31.c ****                      ((int32_t) (((q63_t) s1 * si1) >> 32))) << 1U;
 318              		.loc 1 253 35 view .LVU114
 319 015a D717     		asrs	r7, r2, #31
 320              		.loc 1 253 46 view .LVU115
 321 015c CC17     		asrs	r4, r1, #31
 322 015e 02FB04FC 		mul	ip, r2, r4
 323              	.LVL35:
 324              		.loc 1 253 46 view .LVU116
 325 0162 0797     		str	r7, [sp, #28]
 326 0164 01FB07C3 		mla	r3, r1, r7, ip
 327              	.LVL36:
 328              		.loc 1 253 46 view .LVU117
 329 0168 A2FB01C7 		umull	ip, r7, r2, r1
 330 016c 3B44     		add	r3, r3, r7
 252:Drivers/CMSIS/DSP/Source/TransformFunctions/arm_cfft_radix4_q31.c ****                      ((int32_t) (((q63_t) s1 * si1) >> 32))) << 1U;
 331              		.loc 1 252 61 view .LVU118
 332 016e 1844     		add	r0, r0, r3
 333              		.loc 1 253 62 view .LVU119
 334 0170 4000     		lsls	r0, r0, #1
 252:Drivers/CMSIS/DSP/Source/TransformFunctions/arm_cfft_radix4_q31.c ****                      ((int32_t) (((q63_t) s1 * si1) >> 32))) << 1U;
 335              		.loc 1 252 19 view .LVU120
 336 0172 039F     		ldr	r7, [sp, #12]
 337 0174 49F83700 		str	r0, [r9, r7, lsl #3]
 254:Drivers/CMSIS/DSP/Source/TransformFunctions/arm_cfft_radix4_q31.c **** 
 255:Drivers/CMSIS/DSP/Source/TransformFunctions/arm_cfft_radix4_q31.c ****     /* yb' = (ya-xb-yc+xd)co1 - (xa+yb-xc-yd)(si1) */
 256:Drivers/CMSIS/DSP/Source/TransformFunctions/arm_cfft_radix4_q31.c ****     pSrc[(2U * i2) + 1U] = (((int32_t) (((q63_t) s1 * co1) >> 32)) -
 338              		.loc 1 256 5 is_stmt 1 view .LVU121
 339              		.loc 1 256 53 is_stmt 0 view .LVU122
 340 0178 079F     		ldr	r7, [sp, #28]
 341 017a 06FB07F7 		mul	r7, r6, r7
 342 017e 0698     		ldr	r0, [sp, #24]
 343 0180 02FB0077 		mla	r7, r2, r0, r7
 344 0184 A6FB0262 		umull	r6, r2, r6, r2
 345              	.LVL37:
 346              		.loc 1 256 53 view .LVU123
 347 0188 3A44     		add	r2, r2, r7
 257:Drivers/CMSIS/DSP/Source/TransformFunctions/arm_cfft_radix4_q31.c ****                             ((int32_t) (((q63_t) r1 * si1) >> 32))) << 1U;
 348              		.loc 1 257 53 view .LVU124
 349 018a 05FB04F4 		mul	r4, r5, r4
 350 018e 01FB0E44 		mla	r4, r1, lr, r4
 351 0192 A5FB0151 		umull	r5, r1, r5, r1
 352              	.LVL38:
 353              		.loc 1 257 53 view .LVU125
 354 0196 0C44     		add	r4, r4, r1
 256:Drivers/CMSIS/DSP/Source/TransformFunctions/arm_cfft_radix4_q31.c ****                             ((int32_t) (((q63_t) r1 * si1) >> 32))) << 1U;
 355              		.loc 1 256 68 view .LVU126
 356 0198 121B     		subs	r2, r2, r4
 357              		.loc 1 257 69 view .LVU127
 358 019a 5200     		lsls	r2, r2, #1
 256:Drivers/CMSIS/DSP/Source/TransformFunctions/arm_cfft_radix4_q31.c ****                             ((int32_t) (((q63_t) r1 * si1) >> 32))) << 1U;
 359              		.loc 1 256 26 view .LVU128
 360 019c 049F     		ldr	r7, [sp, #16]
 361 019e 49F80720 		str	r2, [r9, r7]
ARM GAS  /tmp/ccuzNZ5H.s 			page 12


 258:Drivers/CMSIS/DSP/Source/TransformFunctions/arm_cfft_radix4_q31.c **** 
 259:Drivers/CMSIS/DSP/Source/TransformFunctions/arm_cfft_radix4_q31.c ****     /*  index calculation for the coefficients */
 260:Drivers/CMSIS/DSP/Source/TransformFunctions/arm_cfft_radix4_q31.c ****     ia3 = 3U * ia1;
 362              		.loc 1 260 5 is_stmt 1 view .LVU129
 363              	.LVL39:
 261:Drivers/CMSIS/DSP/Source/TransformFunctions/arm_cfft_radix4_q31.c ****     co3 = pCoef[ia3 * 2U];
 364              		.loc 1 261 5 view .LVU130
 365              		.loc 1 261 16 is_stmt 0 view .LVU131
 366 01a2 019C     		ldr	r4, [sp, #4]
 367 01a4 04EB4402 		add	r2, r4, r4, lsl #1
 368 01a8 D200     		lsls	r2, r2, #3
 369              		.loc 1 261 9 view .LVU132
 370 01aa 0098     		ldr	r0, [sp]
 371 01ac 8458     		ldr	r4, [r0, r2]
 372              	.LVL40:
 262:Drivers/CMSIS/DSP/Source/TransformFunctions/arm_cfft_radix4_q31.c ****     si3 = pCoef[(ia3 * 2U) + 1U];
 373              		.loc 1 262 5 is_stmt 1 view .LVU133
 374              		.loc 1 262 16 is_stmt 0 view .LVU134
 375 01ae 0432     		adds	r2, r2, #4
 376              		.loc 1 262 9 view .LVU135
 377 01b0 8258     		ldr	r2, [r0, r2]
 378              	.LVL41:
 263:Drivers/CMSIS/DSP/Source/TransformFunctions/arm_cfft_radix4_q31.c **** 
 264:Drivers/CMSIS/DSP/Source/TransformFunctions/arm_cfft_radix4_q31.c ****     /* xd' = (xa-yb-xc+yd)co3 + (ya+xb-yc-xd)(si3) */
 265:Drivers/CMSIS/DSP/Source/TransformFunctions/arm_cfft_radix4_q31.c ****     pSrc[2U * i3] = (((int32_t) (((q63_t) r2 * co3) >> 32)) +
 379              		.loc 1 265 5 is_stmt 1 view .LVU136
 380              		.loc 1 265 35 is_stmt 0 view .LVU137
 381 01b2 4FEAE877 		asr	r7, r8, #31
 382              		.loc 1 265 46 view .LVU138
 383 01b6 4FEAE47C 		asr	ip, r4, #31
 384 01ba 08FB0CF1 		mul	r1, r8, ip
 385 01be 04FB0711 		mla	r1, r4, r7, r1
 386 01c2 A8FB0450 		umull	r5, r0, r8, r4
 387 01c6 0144     		add	r1, r1, r0
 388 01c8 0B46     		mov	r3, r1
 266:Drivers/CMSIS/DSP/Source/TransformFunctions/arm_cfft_radix4_q31.c ****                      ((int32_t) (((q63_t) s2 * si3) >> 32))) << 1U;
 389              		.loc 1 266 35 view .LVU139
 390 01ca 0299     		ldr	r1, [sp, #8]
 391 01cc CD17     		asrs	r5, r1, #31
 392              		.loc 1 266 46 view .LVU140
 393 01ce D017     		asrs	r0, r2, #31
 394 01d0 01FB00F6 		mul	r6, r1, r0
 395 01d4 02FB0566 		mla	r6, r2, r5, r6
 396 01d8 A1FB021E 		umull	r1, lr, r1, r2
 397 01dc 7644     		add	r6, r6, lr
 265:Drivers/CMSIS/DSP/Source/TransformFunctions/arm_cfft_radix4_q31.c ****                      ((int32_t) (((q63_t) s2 * si3) >> 32))) << 1U;
 398              		.loc 1 265 61 view .LVU141
 399 01de 1946     		mov	r1, r3
 400 01e0 3144     		add	r1, r1, r6
 401              		.loc 1 266 62 view .LVU142
 402 01e2 4900     		lsls	r1, r1, #1
 265:Drivers/CMSIS/DSP/Source/TransformFunctions/arm_cfft_radix4_q31.c ****                      ((int32_t) (((q63_t) s2 * si3) >> 32))) << 1U;
 403              		.loc 1 265 19 view .LVU143
 404 01e4 49F83B10 		str	r1, [r9, fp, lsl #3]
 267:Drivers/CMSIS/DSP/Source/TransformFunctions/arm_cfft_radix4_q31.c **** 
 268:Drivers/CMSIS/DSP/Source/TransformFunctions/arm_cfft_radix4_q31.c ****     /* yd' = (ya+xb-yc-xd)co3 - (xa-yb-xc+yd)(si3) */
 269:Drivers/CMSIS/DSP/Source/TransformFunctions/arm_cfft_radix4_q31.c ****     pSrc[(2U * i3) + 1U] = (((int32_t) (((q63_t) s2 * co3) >> 32)) -
ARM GAS  /tmp/ccuzNZ5H.s 			page 13


 405              		.loc 1 269 5 is_stmt 1 view .LVU144
 406              		.loc 1 269 53 is_stmt 0 view .LVU145
 407 01e8 04FB05F5 		mul	r5, r4, r5
 408 01ec 029B     		ldr	r3, [sp, #8]
 409 01ee 03FB0C55 		mla	r5, r3, ip, r5
 410 01f2 A4FB0343 		umull	r4, r3, r4, r3
 411              	.LVL42:
 412              		.loc 1 269 53 view .LVU146
 413 01f6 2B44     		add	r3, r3, r5
 270:Drivers/CMSIS/DSP/Source/TransformFunctions/arm_cfft_radix4_q31.c ****                             ((int32_t) (((q63_t) r2 * si3) >> 32))) << 1U;
 414              		.loc 1 270 53 view .LVU147
 415 01f8 08FB00F1 		mul	r1, r8, r0
 416 01fc 02FB0711 		mla	r1, r2, r7, r1
 417 0200 A8FB0202 		umull	r0, r2, r8, r2
 418              	.LVL43:
 419              		.loc 1 270 53 view .LVU148
 420 0204 0A44     		add	r2, r2, r1
 269:Drivers/CMSIS/DSP/Source/TransformFunctions/arm_cfft_radix4_q31.c ****                             ((int32_t) (((q63_t) r2 * si3) >> 32))) << 1U;
 421              		.loc 1 269 68 view .LVU149
 422 0206 9B1A     		subs	r3, r3, r2
 423              		.loc 1 270 69 view .LVU150
 424 0208 5B00     		lsls	r3, r3, #1
 269:Drivers/CMSIS/DSP/Source/TransformFunctions/arm_cfft_radix4_q31.c ****                             ((int32_t) (((q63_t) r2 * si3) >> 32))) << 1U;
 425              		.loc 1 269 26 view .LVU151
 426 020a 059E     		ldr	r6, [sp, #20]
 427 020c 49F80630 		str	r3, [r9, r6]
 271:Drivers/CMSIS/DSP/Source/TransformFunctions/arm_cfft_radix4_q31.c **** 
 272:Drivers/CMSIS/DSP/Source/TransformFunctions/arm_cfft_radix4_q31.c ****     /*  Twiddle coefficients index modifier */
 273:Drivers/CMSIS/DSP/Source/TransformFunctions/arm_cfft_radix4_q31.c ****     ia1 = ia1 + twidCoefModifier;
 428              		.loc 1 273 5 is_stmt 1 view .LVU152
 429              		.loc 1 273 9 is_stmt 0 view .LVU153
 430 0210 019C     		ldr	r4, [sp, #4]
 431 0212 0C9B     		ldr	r3, [sp, #48]
 432 0214 E318     		adds	r3, r4, r3
 433 0216 0193     		str	r3, [sp, #4]
 434              	.LVL44:
 274:Drivers/CMSIS/DSP/Source/TransformFunctions/arm_cfft_radix4_q31.c **** 
 275:Drivers/CMSIS/DSP/Source/TransformFunctions/arm_cfft_radix4_q31.c ****     /*  Updating input index */
 276:Drivers/CMSIS/DSP/Source/TransformFunctions/arm_cfft_radix4_q31.c ****     i0 = i0 + 1U;
 435              		.loc 1 276 5 is_stmt 1 view .LVU154
 436              		.loc 1 276 8 is_stmt 0 view .LVU155
 437 0218 0AF1010A 		add	r10, r10, #1
 438              	.LVL45:
 277:Drivers/CMSIS/DSP/Source/TransformFunctions/arm_cfft_radix4_q31.c **** 
 278:Drivers/CMSIS/DSP/Source/TransformFunctions/arm_cfft_radix4_q31.c ****   } while (--j);
 439              		.loc 1 278 12 is_stmt 1 discriminator 1 view .LVU156
 440              		.loc 1 278 12 is_stmt 0 discriminator 1 view .LVU157
 441 021c 159B     		ldr	r3, [sp, #84]
 442              	.LVL46:
 443              		.loc 1 278 12 discriminator 1 view .LVU158
 444 021e 013B     		subs	r3, r3, #1
 445              	.LVL47:
 446              		.loc 1 278 12 discriminator 1 view .LVU159
 447 0220 1593     		str	r3, [sp, #84]
 448 0222 7FF4FAAE 		bne	.L2
 279:Drivers/CMSIS/DSP/Source/TransformFunctions/arm_cfft_radix4_q31.c **** 
 280:Drivers/CMSIS/DSP/Source/TransformFunctions/arm_cfft_radix4_q31.c ****   /* end of first stage process */
ARM GAS  /tmp/ccuzNZ5H.s 			page 14


 281:Drivers/CMSIS/DSP/Source/TransformFunctions/arm_cfft_radix4_q31.c **** 
 282:Drivers/CMSIS/DSP/Source/TransformFunctions/arm_cfft_radix4_q31.c ****   /* data is in 5.27(q27) format */
 283:Drivers/CMSIS/DSP/Source/TransformFunctions/arm_cfft_radix4_q31.c **** 
 284:Drivers/CMSIS/DSP/Source/TransformFunctions/arm_cfft_radix4_q31.c **** 
 285:Drivers/CMSIS/DSP/Source/TransformFunctions/arm_cfft_radix4_q31.c ****   /* start of Middle stages process */
 286:Drivers/CMSIS/DSP/Source/TransformFunctions/arm_cfft_radix4_q31.c **** 
 287:Drivers/CMSIS/DSP/Source/TransformFunctions/arm_cfft_radix4_q31.c **** 
 288:Drivers/CMSIS/DSP/Source/TransformFunctions/arm_cfft_radix4_q31.c ****   /* each stage in middle stages provides two down scaling of the input */
 289:Drivers/CMSIS/DSP/Source/TransformFunctions/arm_cfft_radix4_q31.c **** 
 290:Drivers/CMSIS/DSP/Source/TransformFunctions/arm_cfft_radix4_q31.c ****   twidCoefModifier <<= 2U;
 449              		.loc 1 290 3 is_stmt 1 view .LVU160
 450              		.loc 1 290 20 is_stmt 0 view .LVU161
 451 0226 0C9B     		ldr	r3, [sp, #48]
 452              	.LVL48:
 453              		.loc 1 290 20 view .LVU162
 454 0228 9D00     		lsls	r5, r3, #2
 455              	.LVL49:
 291:Drivers/CMSIS/DSP/Source/TransformFunctions/arm_cfft_radix4_q31.c **** 
 292:Drivers/CMSIS/DSP/Source/TransformFunctions/arm_cfft_radix4_q31.c **** 
 293:Drivers/CMSIS/DSP/Source/TransformFunctions/arm_cfft_radix4_q31.c ****   for (k = fftLen / 4U; k > 4U; k >>= 2U)
 456              		.loc 1 293 3 is_stmt 1 view .LVU163
 457              		.loc 1 293 10 is_stmt 0 view .LVU164
 458 022a 0D9B     		ldr	r3, [sp, #52]
 459 022c 9908     		lsrs	r1, r3, #2
 460              	.LVL50:
 176:Drivers/CMSIS/DSP/Source/TransformFunctions/arm_cfft_radix4_q31.c ****   i0 = 0U;
 461              		.loc 1 176 6 view .LVU165
 462 022e 179B     		ldr	r3, [sp, #92]
 463 0230 1093     		str	r3, [sp, #64]
 464 0232 2F46     		mov	r7, r5
 465 0234 CA46     		mov	r10, r9
 466              	.LVL51:
 176:Drivers/CMSIS/DSP/Source/TransformFunctions/arm_cfft_radix4_q31.c ****   i0 = 0U;
 467              		.loc 1 176 6 view .LVU166
 468 0236 009D     		ldr	r5, [sp]
 469              	.LVL52:
 470              		.loc 1 293 3 view .LVU167
 471 0238 12E1     		b	.L3
 472              	.LVL53:
 473              	.L6:
 294:Drivers/CMSIS/DSP/Source/TransformFunctions/arm_cfft_radix4_q31.c ****   {
 295:Drivers/CMSIS/DSP/Source/TransformFunctions/arm_cfft_radix4_q31.c ****     /*  Initializations for the first stage */
 296:Drivers/CMSIS/DSP/Source/TransformFunctions/arm_cfft_radix4_q31.c ****     n1 = n2;
 297:Drivers/CMSIS/DSP/Source/TransformFunctions/arm_cfft_radix4_q31.c ****     n2 >>= 2U;
 298:Drivers/CMSIS/DSP/Source/TransformFunctions/arm_cfft_radix4_q31.c ****     ia1 = 0U;
 299:Drivers/CMSIS/DSP/Source/TransformFunctions/arm_cfft_radix4_q31.c **** 
 300:Drivers/CMSIS/DSP/Source/TransformFunctions/arm_cfft_radix4_q31.c ****     /*  Calculation of first stage */
 301:Drivers/CMSIS/DSP/Source/TransformFunctions/arm_cfft_radix4_q31.c ****     for (j = 0U; j <= (n2 - 1U); j++)
 302:Drivers/CMSIS/DSP/Source/TransformFunctions/arm_cfft_radix4_q31.c ****     {
 303:Drivers/CMSIS/DSP/Source/TransformFunctions/arm_cfft_radix4_q31.c ****       /*  index calculation for the coefficients */
 304:Drivers/CMSIS/DSP/Source/TransformFunctions/arm_cfft_radix4_q31.c ****       ia2 = ia1 + ia1;
 305:Drivers/CMSIS/DSP/Source/TransformFunctions/arm_cfft_radix4_q31.c ****       ia3 = ia2 + ia1;
 306:Drivers/CMSIS/DSP/Source/TransformFunctions/arm_cfft_radix4_q31.c ****       co1 = pCoef[ia1 * 2U];
 307:Drivers/CMSIS/DSP/Source/TransformFunctions/arm_cfft_radix4_q31.c ****       si1 = pCoef[(ia1 * 2U) + 1U];
 308:Drivers/CMSIS/DSP/Source/TransformFunctions/arm_cfft_radix4_q31.c ****       co2 = pCoef[ia2 * 2U];
 309:Drivers/CMSIS/DSP/Source/TransformFunctions/arm_cfft_radix4_q31.c ****       si2 = pCoef[(ia2 * 2U) + 1U];
 310:Drivers/CMSIS/DSP/Source/TransformFunctions/arm_cfft_radix4_q31.c ****       co3 = pCoef[ia3 * 2U];
ARM GAS  /tmp/ccuzNZ5H.s 			page 15


 311:Drivers/CMSIS/DSP/Source/TransformFunctions/arm_cfft_radix4_q31.c ****       si3 = pCoef[(ia3 * 2U) + 1U];
 312:Drivers/CMSIS/DSP/Source/TransformFunctions/arm_cfft_radix4_q31.c ****       /*  Twiddle coefficients index modifier */
 313:Drivers/CMSIS/DSP/Source/TransformFunctions/arm_cfft_radix4_q31.c ****       ia1 = ia1 + twidCoefModifier;
 314:Drivers/CMSIS/DSP/Source/TransformFunctions/arm_cfft_radix4_q31.c **** 
 315:Drivers/CMSIS/DSP/Source/TransformFunctions/arm_cfft_radix4_q31.c ****       for (i0 = j; i0 < fftLen; i0 += n1)
 316:Drivers/CMSIS/DSP/Source/TransformFunctions/arm_cfft_radix4_q31.c ****       {
 317:Drivers/CMSIS/DSP/Source/TransformFunctions/arm_cfft_radix4_q31.c ****         /*  index calculation for the input as, */
 318:Drivers/CMSIS/DSP/Source/TransformFunctions/arm_cfft_radix4_q31.c ****         /*  pSrc[i0 + 0], pSrc[i0 + fftLen/4], pSrc[i0 + fftLen/2U], pSrc[i0 + 3fftLen/4] */
 319:Drivers/CMSIS/DSP/Source/TransformFunctions/arm_cfft_radix4_q31.c ****         i1 = i0 + n2;
 474              		.loc 1 319 9 is_stmt 1 view .LVU168
 475              		.loc 1 319 12 is_stmt 0 view .LVU169
 476 023a 0C9A     		ldr	r2, [sp, #48]
 477 023c 0AEB020C 		add	ip, r10, r2
 478              	.LVL54:
 320:Drivers/CMSIS/DSP/Source/TransformFunctions/arm_cfft_radix4_q31.c ****         i2 = i1 + n2;
 479              		.loc 1 320 9 is_stmt 1 view .LVU170
 480              		.loc 1 320 12 is_stmt 0 view .LVU171
 481 0240 0AEB4203 		add	r3, r10, r2, lsl #1
 482              	.LVL55:
 321:Drivers/CMSIS/DSP/Source/TransformFunctions/arm_cfft_radix4_q31.c ****         i3 = i2 + n2;
 483              		.loc 1 321 9 is_stmt 1 view .LVU172
 484              		.loc 1 321 12 is_stmt 0 view .LVU173
 485 0244 02EB0308 		add	r8, r2, r3
 486              	.LVL56:
 322:Drivers/CMSIS/DSP/Source/TransformFunctions/arm_cfft_radix4_q31.c **** 
 323:Drivers/CMSIS/DSP/Source/TransformFunctions/arm_cfft_radix4_q31.c ****         /*  Butterfly implementation */
 324:Drivers/CMSIS/DSP/Source/TransformFunctions/arm_cfft_radix4_q31.c ****         /* xa + xc */
 325:Drivers/CMSIS/DSP/Source/TransformFunctions/arm_cfft_radix4_q31.c ****         r1 = pSrc[2U * i0] + pSrc[2U * i2];
 487              		.loc 1 325 9 is_stmt 1 view .LVU174
 488              		.loc 1 325 18 is_stmt 0 view .LVU175
 489 0248 4FEACA04 		lsl	r4, r10, #3
 490 024c 5BF83A00 		ldr	r0, [fp, r10, lsl #3]
 491              		.loc 1 325 34 view .LVU176
 492 0250 DA00     		lsls	r2, r3, #3
 493 0252 0593     		str	r3, [sp, #20]
 494 0254 5BF83310 		ldr	r1, [fp, r3, lsl #3]
 495              		.loc 1 325 12 view .LVU177
 496 0258 4318     		adds	r3, r0, r1
 497              	.LVL57:
 326:Drivers/CMSIS/DSP/Source/TransformFunctions/arm_cfft_radix4_q31.c ****         /* xa - xc */
 327:Drivers/CMSIS/DSP/Source/TransformFunctions/arm_cfft_radix4_q31.c ****         r2 = pSrc[2U * i0] - pSrc[2U * i2];
 498              		.loc 1 327 9 is_stmt 1 view .LVU178
 499              		.loc 1 327 12 is_stmt 0 view .LVU179
 500 025a 401A     		subs	r0, r0, r1
 501 025c 0790     		str	r0, [sp, #28]
 502              	.LVL58:
 328:Drivers/CMSIS/DSP/Source/TransformFunctions/arm_cfft_radix4_q31.c **** 
 329:Drivers/CMSIS/DSP/Source/TransformFunctions/arm_cfft_radix4_q31.c ****         /* ya + yc */
 330:Drivers/CMSIS/DSP/Source/TransformFunctions/arm_cfft_radix4_q31.c ****         s1 = pSrc[(2U * i0) + 1U] + pSrc[(2U * i2) + 1U];
 503              		.loc 1 330 9 is_stmt 1 view .LVU180
 504              		.loc 1 330 18 is_stmt 0 view .LVU181
 505 025e 0434     		adds	r4, r4, #4
 506 0260 5BF80400 		ldr	r0, [fp, r4]
 507              	.LVL59:
 508              		.loc 1 330 41 view .LVU182
 509 0264 151D     		adds	r5, r2, #4
 510 0266 0695     		str	r5, [sp, #24]
ARM GAS  /tmp/ccuzNZ5H.s 			page 16


 511 0268 5BF80510 		ldr	r1, [fp, r5]
 512              		.loc 1 330 12 view .LVU183
 513 026c 4218     		adds	r2, r0, r1
 514              	.LVL60:
 331:Drivers/CMSIS/DSP/Source/TransformFunctions/arm_cfft_radix4_q31.c ****         /* ya - yc */
 332:Drivers/CMSIS/DSP/Source/TransformFunctions/arm_cfft_radix4_q31.c ****         s2 = pSrc[(2U * i0) + 1U] - pSrc[(2U * i2) + 1U];
 515              		.loc 1 332 9 is_stmt 1 view .LVU184
 516              		.loc 1 332 12 is_stmt 0 view .LVU185
 517 026e 461A     		subs	r6, r0, r1
 518 0270 0896     		str	r6, [sp, #32]
 519              	.LVL61:
 333:Drivers/CMSIS/DSP/Source/TransformFunctions/arm_cfft_radix4_q31.c **** 
 334:Drivers/CMSIS/DSP/Source/TransformFunctions/arm_cfft_radix4_q31.c ****         /* xb + xd */
 335:Drivers/CMSIS/DSP/Source/TransformFunctions/arm_cfft_radix4_q31.c ****         t1 = pSrc[2U * i1] + pSrc[2U * i3];
 520              		.loc 1 335 9 is_stmt 1 view .LVU186
 521              		.loc 1 335 18 is_stmt 0 view .LVU187
 522 0272 4FEACC05 		lsl	r5, ip, #3
 523 0276 5BF83C00 		ldr	r0, [fp, ip, lsl #3]
 524              		.loc 1 335 34 view .LVU188
 525 027a 4FEAC806 		lsl	r6, r8, #3
 526              	.LVL62:
 527              		.loc 1 335 34 view .LVU189
 528 027e 5BF83810 		ldr	r1, [fp, r8, lsl #3]
 529              		.loc 1 335 12 view .LVU190
 530 0282 0144     		add	r1, r1, r0
 531              	.LVL63:
 336:Drivers/CMSIS/DSP/Source/TransformFunctions/arm_cfft_radix4_q31.c **** 
 337:Drivers/CMSIS/DSP/Source/TransformFunctions/arm_cfft_radix4_q31.c ****         /* xa' = xa + xb + xc + xd */
 338:Drivers/CMSIS/DSP/Source/TransformFunctions/arm_cfft_radix4_q31.c ****         pSrc[2U * i0] = (r1 + t1) >> 2U;
 532              		.loc 1 338 9 is_stmt 1 view .LVU191
 533              		.loc 1 338 29 is_stmt 0 view .LVU192
 534 0284 5818     		adds	r0, r3, r1
 535              		.loc 1 338 35 view .LVU193
 536 0286 8010     		asrs	r0, r0, #2
 537              		.loc 1 338 23 view .LVU194
 538 0288 4BF83A00 		str	r0, [fp, r10, lsl #3]
 339:Drivers/CMSIS/DSP/Source/TransformFunctions/arm_cfft_radix4_q31.c ****         /* xa + xc -(xb + xd) */
 340:Drivers/CMSIS/DSP/Source/TransformFunctions/arm_cfft_radix4_q31.c ****         r1 = r1 - t1;
 539              		.loc 1 340 9 is_stmt 1 view .LVU195
 540              		.loc 1 340 12 is_stmt 0 view .LVU196
 541 028c 5B1A     		subs	r3, r3, r1
 542              	.LVL64:
 341:Drivers/CMSIS/DSP/Source/TransformFunctions/arm_cfft_radix4_q31.c **** 
 342:Drivers/CMSIS/DSP/Source/TransformFunctions/arm_cfft_radix4_q31.c ****         /* yb + yd */
 343:Drivers/CMSIS/DSP/Source/TransformFunctions/arm_cfft_radix4_q31.c ****         t2 = pSrc[(2U * i1) + 1U] + pSrc[(2U * i3) + 1U];
 543              		.loc 1 343 9 is_stmt 1 view .LVU197
 544              		.loc 1 343 18 is_stmt 0 view .LVU198
 545 028e 0435     		adds	r5, r5, #4
 546 0290 5BF80500 		ldr	r0, [fp, r5]
 547              		.loc 1 343 41 view .LVU199
 548 0294 06F10409 		add	r9, r6, #4
 549 0298 5BF80910 		ldr	r1, [fp, r9]
 550              	.LVL65:
 551              		.loc 1 343 12 view .LVU200
 552 029c 0144     		add	r1, r1, r0
 553              	.LVL66:
 344:Drivers/CMSIS/DSP/Source/TransformFunctions/arm_cfft_radix4_q31.c ****         /* ya' = ya + yb + yc + yd */
ARM GAS  /tmp/ccuzNZ5H.s 			page 17


 345:Drivers/CMSIS/DSP/Source/TransformFunctions/arm_cfft_radix4_q31.c ****         pSrc[(2U * i0) + 1U] = (s1 + t2) >> 2U;
 554              		.loc 1 345 9 is_stmt 1 view .LVU201
 555              		.loc 1 345 36 is_stmt 0 view .LVU202
 556 029e 5018     		adds	r0, r2, r1
 557              		.loc 1 345 42 view .LVU203
 558 02a0 8010     		asrs	r0, r0, #2
 559              		.loc 1 345 30 view .LVU204
 560 02a2 4BF80400 		str	r0, [fp, r4]
 346:Drivers/CMSIS/DSP/Source/TransformFunctions/arm_cfft_radix4_q31.c **** 
 347:Drivers/CMSIS/DSP/Source/TransformFunctions/arm_cfft_radix4_q31.c ****         /* (ya + yc) - (yb + yd) */
 348:Drivers/CMSIS/DSP/Source/TransformFunctions/arm_cfft_radix4_q31.c ****         s1 = s1 - t2;
 561              		.loc 1 348 9 is_stmt 1 view .LVU205
 562              		.loc 1 348 12 is_stmt 0 view .LVU206
 563 02a6 521A     		subs	r2, r2, r1
 564              	.LVL67:
 349:Drivers/CMSIS/DSP/Source/TransformFunctions/arm_cfft_radix4_q31.c **** 
 350:Drivers/CMSIS/DSP/Source/TransformFunctions/arm_cfft_radix4_q31.c ****         /* (yb - yd) */
 351:Drivers/CMSIS/DSP/Source/TransformFunctions/arm_cfft_radix4_q31.c ****         t1 = pSrc[(2U * i1) + 1U] - pSrc[(2U * i3) + 1U];
 565              		.loc 1 351 9 is_stmt 1 view .LVU207
 566              		.loc 1 351 18 is_stmt 0 view .LVU208
 567 02a8 5BF80500 		ldr	r0, [fp, r5]
 568              		.loc 1 351 41 view .LVU209
 569 02ac 5BF80910 		ldr	r1, [fp, r9]
 570              	.LVL68:
 571              		.loc 1 351 12 view .LVU210
 572 02b0 441A     		subs	r4, r0, r1
 573 02b2 0994     		str	r4, [sp, #36]
 574              	.LVL69:
 352:Drivers/CMSIS/DSP/Source/TransformFunctions/arm_cfft_radix4_q31.c ****         /* (xb - xd) */
 353:Drivers/CMSIS/DSP/Source/TransformFunctions/arm_cfft_radix4_q31.c ****         t2 = pSrc[2U * i1] - pSrc[2U * i3];
 575              		.loc 1 353 9 is_stmt 1 view .LVU211
 576              		.loc 1 353 18 is_stmt 0 view .LVU212
 577 02b4 5BF83C70 		ldr	r7, [fp, ip, lsl #3]
 578              		.loc 1 353 34 view .LVU213
 579 02b8 5BF83810 		ldr	r1, [fp, r8, lsl #3]
 580              		.loc 1 353 12 view .LVU214
 581 02bc 791A     		subs	r1, r7, r1
 582 02be 0A91     		str	r1, [sp, #40]
 583              	.LVL70:
 354:Drivers/CMSIS/DSP/Source/TransformFunctions/arm_cfft_radix4_q31.c **** 
 355:Drivers/CMSIS/DSP/Source/TransformFunctions/arm_cfft_radix4_q31.c ****         /* xc' = (xa-xb+xc-xd)co2 + (ya-yb+yc-yd)(si2) */
 356:Drivers/CMSIS/DSP/Source/TransformFunctions/arm_cfft_radix4_q31.c ****         pSrc[2U * i1] = (((int32_t) (((q63_t) r1 * co2) >> 32)) +
 584              		.loc 1 356 9 is_stmt 1 view .LVU215
 585              		.loc 1 356 39 is_stmt 0 view .LVU216
 586 02c0 4FEAE37E 		asr	lr, r3, #31
 587              		.loc 1 356 50 view .LVU217
 588 02c4 0398     		ldr	r0, [sp, #12]
 589 02c6 C717     		asrs	r7, r0, #31
 590 02c8 0097     		str	r7, [sp]
 591 02ca 03FB07F1 		mul	r1, r3, r7
 592              	.LVL71:
 593              		.loc 1 356 50 view .LVU218
 594 02ce 00FB0E11 		mla	r1, r0, lr, r1
 595 02d2 A3FB0040 		umull	r4, r0, r3, r0
 596              	.LVL72:
 597              		.loc 1 356 50 view .LVU219
 598 02d6 0144     		add	r1, r1, r0
ARM GAS  /tmp/ccuzNZ5H.s 			page 18


 357:Drivers/CMSIS/DSP/Source/TransformFunctions/arm_cfft_radix4_q31.c ****                          ((int32_t) (((q63_t) s1 * si2) >> 32))) >> 1U;
 599              		.loc 1 357 39 view .LVU220
 600 02d8 D417     		asrs	r4, r2, #31
 601              		.loc 1 357 50 view .LVU221
 602 02da 049F     		ldr	r7, [sp, #16]
 603 02dc F817     		asrs	r0, r7, #31
 604 02de 02FB00F6 		mul	r6, r2, r0
 605 02e2 07FB0466 		mla	r6, r7, r4, r6
 606 02e6 0B96     		str	r6, [sp, #44]
 607 02e8 A2FB0767 		umull	r6, r7, r2, r7
 608 02ec 0B9E     		ldr	r6, [sp, #44]
 609 02ee 3E44     		add	r6, r6, r7
 356:Drivers/CMSIS/DSP/Source/TransformFunctions/arm_cfft_radix4_q31.c ****                          ((int32_t) (((q63_t) s1 * si2) >> 32))) >> 1U;
 610              		.loc 1 356 65 view .LVU222
 611 02f0 3144     		add	r1, r1, r6
 612              		.loc 1 357 66 view .LVU223
 613 02f2 4910     		asrs	r1, r1, #1
 356:Drivers/CMSIS/DSP/Source/TransformFunctions/arm_cfft_radix4_q31.c ****                          ((int32_t) (((q63_t) s1 * si2) >> 32))) >> 1U;
 614              		.loc 1 356 23 view .LVU224
 615 02f4 4BF83C10 		str	r1, [fp, ip, lsl #3]
 358:Drivers/CMSIS/DSP/Source/TransformFunctions/arm_cfft_radix4_q31.c **** 
 359:Drivers/CMSIS/DSP/Source/TransformFunctions/arm_cfft_radix4_q31.c ****         /* yc' = (ya-yb+yc-yd)co2 - (xa-xb+xc-xd)(si2) */
 360:Drivers/CMSIS/DSP/Source/TransformFunctions/arm_cfft_radix4_q31.c ****         pSrc[(2U * i1) + 1U] = (((int32_t) (((q63_t) s1 * co2) >> 32)) -
 616              		.loc 1 360 9 is_stmt 1 view .LVU225
 617              		.loc 1 360 57 is_stmt 0 view .LVU226
 618 02f8 0399     		ldr	r1, [sp, #12]
 619 02fa 01FB04F4 		mul	r4, r1, r4
 620 02fe 009F     		ldr	r7, [sp]
 621 0300 02FB0744 		mla	r4, r2, r7, r4
 622 0304 A1FB0221 		umull	r2, r1, r1, r2
 623              	.LVL73:
 624              		.loc 1 360 57 view .LVU227
 625 0308 2144     		add	r1, r1, r4
 361:Drivers/CMSIS/DSP/Source/TransformFunctions/arm_cfft_radix4_q31.c ****                                 ((int32_t) (((q63_t) r1 * si2) >> 32))) >> 1U;
 626              		.loc 1 361 57 view .LVU228
 627 030a 03FB00F0 		mul	r0, r3, r0
 628 030e 049A     		ldr	r2, [sp, #16]
 629 0310 02FB0E00 		mla	r0, r2, lr, r0
 630 0314 A3FB0232 		umull	r3, r2, r3, r2
 631              	.LVL74:
 632              		.loc 1 361 57 view .LVU229
 633 0318 1044     		add	r0, r0, r2
 360:Drivers/CMSIS/DSP/Source/TransformFunctions/arm_cfft_radix4_q31.c ****                                 ((int32_t) (((q63_t) r1 * si2) >> 32))) >> 1U;
 634              		.loc 1 360 72 view .LVU230
 635 031a 091A     		subs	r1, r1, r0
 636              		.loc 1 361 73 view .LVU231
 637 031c 4910     		asrs	r1, r1, #1
 360:Drivers/CMSIS/DSP/Source/TransformFunctions/arm_cfft_radix4_q31.c ****                                 ((int32_t) (((q63_t) r1 * si2) >> 32))) >> 1U;
 638              		.loc 1 360 30 view .LVU232
 639 031e 4BF80510 		str	r1, [fp, r5]
 362:Drivers/CMSIS/DSP/Source/TransformFunctions/arm_cfft_radix4_q31.c **** 
 363:Drivers/CMSIS/DSP/Source/TransformFunctions/arm_cfft_radix4_q31.c ****         /* (xa - xc) + (yb - yd) */
 364:Drivers/CMSIS/DSP/Source/TransformFunctions/arm_cfft_radix4_q31.c ****         r1 = r2 + t1;
 640              		.loc 1 364 9 is_stmt 1 view .LVU233
 641              		.loc 1 364 12 is_stmt 0 view .LVU234
 642 0322 079A     		ldr	r2, [sp, #28]
 643 0324 0998     		ldr	r0, [sp, #36]
ARM GAS  /tmp/ccuzNZ5H.s 			page 19


 644 0326 1418     		adds	r4, r2, r0
 645              	.LVL75:
 365:Drivers/CMSIS/DSP/Source/TransformFunctions/arm_cfft_radix4_q31.c ****         /* (xa - xc) - (yb - yd) */
 366:Drivers/CMSIS/DSP/Source/TransformFunctions/arm_cfft_radix4_q31.c ****         r2 = r2 - t1;
 646              		.loc 1 366 9 is_stmt 1 view .LVU235
 647              		.loc 1 366 12 is_stmt 0 view .LVU236
 648 0328 121A     		subs	r2, r2, r0
 649 032a 0092     		str	r2, [sp]
 650              	.LVL76:
 367:Drivers/CMSIS/DSP/Source/TransformFunctions/arm_cfft_radix4_q31.c **** 
 368:Drivers/CMSIS/DSP/Source/TransformFunctions/arm_cfft_radix4_q31.c ****         /* (ya - yc) -  (xb - xd) */
 369:Drivers/CMSIS/DSP/Source/TransformFunctions/arm_cfft_radix4_q31.c ****         s1 = s2 - t2;
 651              		.loc 1 369 9 is_stmt 1 view .LVU237
 652              		.loc 1 369 12 is_stmt 0 view .LVU238
 653 032c 089A     		ldr	r2, [sp, #32]
 654              	.LVL77:
 655              		.loc 1 369 12 view .LVU239
 656 032e 0A9B     		ldr	r3, [sp, #40]
 657 0330 D51A     		subs	r5, r2, r3
 658              	.LVL78:
 370:Drivers/CMSIS/DSP/Source/TransformFunctions/arm_cfft_radix4_q31.c ****         /* (ya - yc) +  (xb - xd) */
 371:Drivers/CMSIS/DSP/Source/TransformFunctions/arm_cfft_radix4_q31.c ****         s2 = s2 + t2;
 659              		.loc 1 371 9 is_stmt 1 view .LVU240
 660              		.loc 1 371 12 is_stmt 0 view .LVU241
 661 0332 1344     		add	r3, r3, r2
 662 0334 0793     		str	r3, [sp, #28]
 663              	.LVL79:
 372:Drivers/CMSIS/DSP/Source/TransformFunctions/arm_cfft_radix4_q31.c **** 
 373:Drivers/CMSIS/DSP/Source/TransformFunctions/arm_cfft_radix4_q31.c ****         /* xb' = (xa+yb-xc-yd)co1 + (ya-xb-yc+xd)(si1) */
 374:Drivers/CMSIS/DSP/Source/TransformFunctions/arm_cfft_radix4_q31.c ****         pSrc[2U * i2] = (((int32_t) (((q63_t) r1 * co1) >> 32)) +
 664              		.loc 1 374 9 is_stmt 1 view .LVU242
 665              		.loc 1 374 39 is_stmt 0 view .LVU243
 666 0336 4FEAE47C 		asr	ip, r4, #31
 667              	.LVL80:
 668              		.loc 1 374 50 view .LVU244
 669 033a 0198     		ldr	r0, [sp, #4]
 670 033c 4FEAE07E 		asr	lr, r0, #31
 671 0340 04FB0EF2 		mul	r2, r4, lr
 672 0344 00FB0C22 		mla	r2, r0, ip, r2
 673 0348 A4FB0060 		umull	r6, r0, r4, r0
 674 034c 0244     		add	r2, r2, r0
 375:Drivers/CMSIS/DSP/Source/TransformFunctions/arm_cfft_radix4_q31.c ****                          ((int32_t) (((q63_t) s1 * si1) >> 32))) >> 1U;
 675              		.loc 1 375 39 view .LVU245
 676 034e EE17     		asrs	r6, r5, #31
 677              		.loc 1 375 50 view .LVU246
 678 0350 029B     		ldr	r3, [sp, #8]
 679              	.LVL81:
 680              		.loc 1 375 50 view .LVU247
 681 0352 D817     		asrs	r0, r3, #31
 682 0354 05FB00F7 		mul	r7, r5, r0
 683 0358 03FB0677 		mla	r7, r3, r6, r7
 684 035c A5FB0331 		umull	r3, r1, r5, r3
 685 0360 0F44     		add	r7, r7, r1
 374:Drivers/CMSIS/DSP/Source/TransformFunctions/arm_cfft_radix4_q31.c ****                          ((int32_t) (((q63_t) s1 * si1) >> 32))) >> 1U;
 686              		.loc 1 374 65 view .LVU248
 687 0362 3A44     		add	r2, r2, r7
 688              		.loc 1 375 66 view .LVU249
ARM GAS  /tmp/ccuzNZ5H.s 			page 20


 689 0364 5210     		asrs	r2, r2, #1
 374:Drivers/CMSIS/DSP/Source/TransformFunctions/arm_cfft_radix4_q31.c ****                          ((int32_t) (((q63_t) s1 * si1) >> 32))) >> 1U;
 690              		.loc 1 374 23 view .LVU250
 691 0366 0599     		ldr	r1, [sp, #20]
 692 0368 4BF83120 		str	r2, [fp, r1, lsl #3]
 376:Drivers/CMSIS/DSP/Source/TransformFunctions/arm_cfft_radix4_q31.c **** 
 377:Drivers/CMSIS/DSP/Source/TransformFunctions/arm_cfft_radix4_q31.c ****         /* yb' = (ya-xb-yc+xd)co1 - (xa+yb-xc-yd)(si1) */
 378:Drivers/CMSIS/DSP/Source/TransformFunctions/arm_cfft_radix4_q31.c ****         pSrc[(2U * i2) + 1U] = (((int32_t) (((q63_t) s1 * co1) >> 32)) -
 693              		.loc 1 378 9 is_stmt 1 view .LVU251
 694              		.loc 1 378 57 is_stmt 0 view .LVU252
 695 036c 019A     		ldr	r2, [sp, #4]
 696 036e 02FB06F6 		mul	r6, r2, r6
 697 0372 05FB0E66 		mla	r6, r5, lr, r6
 698 0376 A2FB0552 		umull	r5, r2, r2, r5
 699              	.LVL82:
 700              		.loc 1 378 57 view .LVU253
 701 037a 3244     		add	r2, r2, r6
 379:Drivers/CMSIS/DSP/Source/TransformFunctions/arm_cfft_radix4_q31.c ****                                 ((int32_t) (((q63_t) r1 * si1) >> 32))) >> 1U;
 702              		.loc 1 379 57 view .LVU254
 703 037c 04FB00F0 		mul	r0, r4, r0
 704 0380 029D     		ldr	r5, [sp, #8]
 705 0382 05FB0C00 		mla	r0, r5, ip, r0
 706 0386 A4FB0545 		umull	r4, r5, r4, r5
 707              	.LVL83:
 708              		.loc 1 379 57 view .LVU255
 709 038a 2844     		add	r0, r0, r5
 378:Drivers/CMSIS/DSP/Source/TransformFunctions/arm_cfft_radix4_q31.c ****                                 ((int32_t) (((q63_t) r1 * si1) >> 32))) >> 1U;
 710              		.loc 1 378 72 view .LVU256
 711 038c 121A     		subs	r2, r2, r0
 712              		.loc 1 379 73 view .LVU257
 713 038e 5210     		asrs	r2, r2, #1
 378:Drivers/CMSIS/DSP/Source/TransformFunctions/arm_cfft_radix4_q31.c ****                                 ((int32_t) (((q63_t) r1 * si1) >> 32))) >> 1U;
 714              		.loc 1 378 30 view .LVU258
 715 0390 069D     		ldr	r5, [sp, #24]
 716 0392 4BF80520 		str	r2, [fp, r5]
 380:Drivers/CMSIS/DSP/Source/TransformFunctions/arm_cfft_radix4_q31.c **** 
 381:Drivers/CMSIS/DSP/Source/TransformFunctions/arm_cfft_radix4_q31.c ****         /* xd' = (xa-yb-xc+yd)co3 + (ya+xb-yc-xd)(si3) */
 382:Drivers/CMSIS/DSP/Source/TransformFunctions/arm_cfft_radix4_q31.c ****         pSrc[2U * i3] = (((int32_t) (((q63_t) r2 * co3) >> 32)) +
 717              		.loc 1 382 9 is_stmt 1 view .LVU259
 718              		.loc 1 382 39 is_stmt 0 view .LVU260
 719 0396 009C     		ldr	r4, [sp]
 720 0398 E617     		asrs	r6, r4, #31
 721              		.loc 1 382 50 view .LVU261
 722 039a 0E9B     		ldr	r3, [sp, #56]
 723 039c DF17     		asrs	r7, r3, #31
 724 039e 04FB07F2 		mul	r2, r4, r7
 725 03a2 03FB0622 		mla	r2, r3, r6, r2
 726 03a6 A4FB0340 		umull	r4, r0, r4, r3
 727 03aa 0244     		add	r2, r2, r0
 728 03ac 0692     		str	r2, [sp, #24]
 383:Drivers/CMSIS/DSP/Source/TransformFunctions/arm_cfft_radix4_q31.c ****                          ((int32_t) (((q63_t) s2 * si3) >> 32))) >> 1U;
 729              		.loc 1 383 39 view .LVU262
 730 03ae 079D     		ldr	r5, [sp, #28]
 731 03b0 EC17     		asrs	r4, r5, #31
 732              		.loc 1 383 50 view .LVU263
 733 03b2 0F99     		ldr	r1, [sp, #60]
 734 03b4 CA17     		asrs	r2, r1, #31
ARM GAS  /tmp/ccuzNZ5H.s 			page 21


 735 03b6 0592     		str	r2, [sp, #20]
 736              	.LVL84:
 737              		.loc 1 383 50 view .LVU264
 738 03b8 2846     		mov	r0, r5
 739 03ba 02FB05F5 		mul	r5, r2, r5
 740 03be 01FB0455 		mla	r5, r1, r4, r5
 741 03c2 A0FB01EC 		umull	lr, ip, r0, r1
 742 03c6 6544     		add	r5, r5, ip
 382:Drivers/CMSIS/DSP/Source/TransformFunctions/arm_cfft_radix4_q31.c ****                          ((int32_t) (((q63_t) s2 * si3) >> 32))) >> 1U;
 743              		.loc 1 382 65 view .LVU265
 744 03c8 069A     		ldr	r2, [sp, #24]
 745 03ca 2A44     		add	r2, r2, r5
 746              		.loc 1 383 66 view .LVU266
 747 03cc 5210     		asrs	r2, r2, #1
 382:Drivers/CMSIS/DSP/Source/TransformFunctions/arm_cfft_radix4_q31.c ****                          ((int32_t) (((q63_t) s2 * si3) >> 32))) >> 1U;
 748              		.loc 1 382 23 view .LVU267
 749 03ce 4BF83820 		str	r2, [fp, r8, lsl #3]
 384:Drivers/CMSIS/DSP/Source/TransformFunctions/arm_cfft_radix4_q31.c **** 
 385:Drivers/CMSIS/DSP/Source/TransformFunctions/arm_cfft_radix4_q31.c ****         /* yd' = (ya+xb-yc-xd)co3 - (xa-yb-xc+yd)(si3) */
 386:Drivers/CMSIS/DSP/Source/TransformFunctions/arm_cfft_radix4_q31.c ****         pSrc[(2U * i3) + 1U] = (((int32_t) (((q63_t) s2 * co3) >> 32)) -
 750              		.loc 1 386 9 is_stmt 1 view .LVU268
 751              		.loc 1 386 57 is_stmt 0 view .LVU269
 752 03d2 03FB04F4 		mul	r4, r3, r4
 753 03d6 00FB0744 		mla	r4, r0, r7, r4
 754 03da A3FB0032 		umull	r3, r2, r3, r0
 755 03de 2244     		add	r2, r2, r4
 387:Drivers/CMSIS/DSP/Source/TransformFunctions/arm_cfft_radix4_q31.c ****                                 ((int32_t) (((q63_t) r2 * si3) >> 32))) >> 1U;
 756              		.loc 1 387 57 view .LVU270
 757 03e0 009C     		ldr	r4, [sp]
 758 03e2 0598     		ldr	r0, [sp, #20]
 759 03e4 04FB00F0 		mul	r0, r4, r0
 760 03e8 0B46     		mov	r3, r1
 761 03ea 01FB0600 		mla	r0, r1, r6, r0
 762 03ee A4FB0313 		umull	r1, r3, r4, r3
 763 03f2 1844     		add	r0, r0, r3
 386:Drivers/CMSIS/DSP/Source/TransformFunctions/arm_cfft_radix4_q31.c ****                                 ((int32_t) (((q63_t) r2 * si3) >> 32))) >> 1U;
 764              		.loc 1 386 72 view .LVU271
 765 03f4 121A     		subs	r2, r2, r0
 766              		.loc 1 387 73 view .LVU272
 767 03f6 5210     		asrs	r2, r2, #1
 386:Drivers/CMSIS/DSP/Source/TransformFunctions/arm_cfft_radix4_q31.c ****                                 ((int32_t) (((q63_t) r2 * si3) >> 32))) >> 1U;
 768              		.loc 1 386 30 view .LVU273
 769 03f8 4BF80920 		str	r2, [fp, r9]
 315:Drivers/CMSIS/DSP/Source/TransformFunctions/arm_cfft_radix4_q31.c ****       {
 770              		.loc 1 315 36 is_stmt 1 discriminator 3 view .LVU274
 771 03fc 109B     		ldr	r3, [sp, #64]
 772 03fe 9A44     		add	r10, r10, r3
 773              	.LVL85:
 774              	.L5:
 315:Drivers/CMSIS/DSP/Source/TransformFunctions/arm_cfft_radix4_q31.c ****       {
 775              		.loc 1 315 23 discriminator 1 view .LVU275
 776 0400 0D9B     		ldr	r3, [sp, #52]
 777 0402 9A45     		cmp	r10, r3
 778 0404 FFF419AF 		bcc	.L6
 301:Drivers/CMSIS/DSP/Source/TransformFunctions/arm_cfft_radix4_q31.c ****     {
 779              		.loc 1 301 35 is_stmt 0 discriminator 2 view .LVU276
 780 0408 119B     		ldr	r3, [sp, #68]
ARM GAS  /tmp/ccuzNZ5H.s 			page 22


 781 040a 129E     		ldr	r6, [sp, #72]
 782 040c 139D     		ldr	r5, [sp, #76]
 301:Drivers/CMSIS/DSP/Source/TransformFunctions/arm_cfft_radix4_q31.c ****     {
 783              		.loc 1 301 35 is_stmt 1 discriminator 2 view .LVU277
 784 040e 0136     		adds	r6, r6, #1
 785              	.LVL86:
 786              	.L4:
 301:Drivers/CMSIS/DSP/Source/TransformFunctions/arm_cfft_radix4_q31.c ****     {
 787              		.loc 1 301 20 discriminator 1 view .LVU278
 301:Drivers/CMSIS/DSP/Source/TransformFunctions/arm_cfft_radix4_q31.c ****     {
 788              		.loc 1 301 27 is_stmt 0 discriminator 1 view .LVU279
 789 0410 0C9A     		ldr	r2, [sp, #48]
 790 0412 013A     		subs	r2, r2, #1
 301:Drivers/CMSIS/DSP/Source/TransformFunctions/arm_cfft_radix4_q31.c ****     {
 791              		.loc 1 301 20 discriminator 1 view .LVU280
 792 0414 B242     		cmp	r2, r6
 793 0416 1CD3     		bcc	.L11
 304:Drivers/CMSIS/DSP/Source/TransformFunctions/arm_cfft_radix4_q31.c ****       ia3 = ia2 + ia1;
 794              		.loc 1 304 7 is_stmt 1 view .LVU281
 795              	.LVL87:
 305:Drivers/CMSIS/DSP/Source/TransformFunctions/arm_cfft_radix4_q31.c ****       co1 = pCoef[ia1 * 2U];
 796              		.loc 1 305 7 view .LVU282
 305:Drivers/CMSIS/DSP/Source/TransformFunctions/arm_cfft_radix4_q31.c ****       co1 = pCoef[ia1 * 2U];
 797              		.loc 1 305 11 is_stmt 0 view .LVU283
 798 0418 03EB4301 		add	r1, r3, r3, lsl #1
 799              	.LVL88:
 306:Drivers/CMSIS/DSP/Source/TransformFunctions/arm_cfft_radix4_q31.c ****       si1 = pCoef[(ia1 * 2U) + 1U];
 800              		.loc 1 306 7 is_stmt 1 view .LVU284
 306:Drivers/CMSIS/DSP/Source/TransformFunctions/arm_cfft_radix4_q31.c ****       si1 = pCoef[(ia1 * 2U) + 1U];
 801              		.loc 1 306 18 is_stmt 0 view .LVU285
 802 041c DA00     		lsls	r2, r3, #3
 306:Drivers/CMSIS/DSP/Source/TransformFunctions/arm_cfft_radix4_q31.c ****       si1 = pCoef[(ia1 * 2U) + 1U];
 803              		.loc 1 306 11 view .LVU286
 804 041e 55F83300 		ldr	r0, [r5, r3, lsl #3]
 805 0422 0190     		str	r0, [sp, #4]
 806              	.LVL89:
 307:Drivers/CMSIS/DSP/Source/TransformFunctions/arm_cfft_radix4_q31.c ****       co2 = pCoef[ia2 * 2U];
 807              		.loc 1 307 7 is_stmt 1 view .LVU287
 307:Drivers/CMSIS/DSP/Source/TransformFunctions/arm_cfft_radix4_q31.c ****       co2 = pCoef[ia2 * 2U];
 808              		.loc 1 307 18 is_stmt 0 view .LVU288
 809 0424 0432     		adds	r2, r2, #4
 307:Drivers/CMSIS/DSP/Source/TransformFunctions/arm_cfft_radix4_q31.c ****       co2 = pCoef[ia2 * 2U];
 810              		.loc 1 307 11 view .LVU289
 811 0426 AA58     		ldr	r2, [r5, r2]
 812 0428 0292     		str	r2, [sp, #8]
 813              	.LVL90:
 308:Drivers/CMSIS/DSP/Source/TransformFunctions/arm_cfft_radix4_q31.c ****       si2 = pCoef[(ia2 * 2U) + 1U];
 814              		.loc 1 308 7 is_stmt 1 view .LVU290
 308:Drivers/CMSIS/DSP/Source/TransformFunctions/arm_cfft_radix4_q31.c ****       si2 = pCoef[(ia2 * 2U) + 1U];
 815              		.loc 1 308 18 is_stmt 0 view .LVU291
 816 042a 1A01     		lsls	r2, r3, #4
 817              	.LVL91:
 308:Drivers/CMSIS/DSP/Source/TransformFunctions/arm_cfft_radix4_q31.c ****       si2 = pCoef[(ia2 * 2U) + 1U];
 818              		.loc 1 308 11 view .LVU292
 819 042c A858     		ldr	r0, [r5, r2]
 820              	.LVL92:
 308:Drivers/CMSIS/DSP/Source/TransformFunctions/arm_cfft_radix4_q31.c ****       si2 = pCoef[(ia2 * 2U) + 1U];
ARM GAS  /tmp/ccuzNZ5H.s 			page 23


 821              		.loc 1 308 11 view .LVU293
 822 042e 0390     		str	r0, [sp, #12]
 823              	.LVL93:
 309:Drivers/CMSIS/DSP/Source/TransformFunctions/arm_cfft_radix4_q31.c ****       co3 = pCoef[ia3 * 2U];
 824              		.loc 1 309 7 is_stmt 1 view .LVU294
 309:Drivers/CMSIS/DSP/Source/TransformFunctions/arm_cfft_radix4_q31.c ****       co3 = pCoef[ia3 * 2U];
 825              		.loc 1 309 18 is_stmt 0 view .LVU295
 826 0430 0432     		adds	r2, r2, #4
 309:Drivers/CMSIS/DSP/Source/TransformFunctions/arm_cfft_radix4_q31.c ****       co3 = pCoef[ia3 * 2U];
 827              		.loc 1 309 11 view .LVU296
 828 0432 AA58     		ldr	r2, [r5, r2]
 829 0434 0492     		str	r2, [sp, #16]
 830              	.LVL94:
 310:Drivers/CMSIS/DSP/Source/TransformFunctions/arm_cfft_radix4_q31.c ****       si3 = pCoef[(ia3 * 2U) + 1U];
 831              		.loc 1 310 7 is_stmt 1 view .LVU297
 310:Drivers/CMSIS/DSP/Source/TransformFunctions/arm_cfft_radix4_q31.c ****       si3 = pCoef[(ia3 * 2U) + 1U];
 832              		.loc 1 310 18 is_stmt 0 view .LVU298
 833 0436 CA00     		lsls	r2, r1, #3
 834              	.LVL95:
 310:Drivers/CMSIS/DSP/Source/TransformFunctions/arm_cfft_radix4_q31.c ****       si3 = pCoef[(ia3 * 2U) + 1U];
 835              		.loc 1 310 11 view .LVU299
 836 0438 55F83110 		ldr	r1, [r5, r1, lsl #3]
 837              	.LVL96:
 310:Drivers/CMSIS/DSP/Source/TransformFunctions/arm_cfft_radix4_q31.c ****       si3 = pCoef[(ia3 * 2U) + 1U];
 838              		.loc 1 310 11 view .LVU300
 839 043c 0E91     		str	r1, [sp, #56]
 840              	.LVL97:
 311:Drivers/CMSIS/DSP/Source/TransformFunctions/arm_cfft_radix4_q31.c ****       /*  Twiddle coefficients index modifier */
 841              		.loc 1 311 7 is_stmt 1 view .LVU301
 311:Drivers/CMSIS/DSP/Source/TransformFunctions/arm_cfft_radix4_q31.c ****       /*  Twiddle coefficients index modifier */
 842              		.loc 1 311 18 is_stmt 0 view .LVU302
 843 043e 0432     		adds	r2, r2, #4
 311:Drivers/CMSIS/DSP/Source/TransformFunctions/arm_cfft_radix4_q31.c ****       /*  Twiddle coefficients index modifier */
 844              		.loc 1 311 11 view .LVU303
 845 0440 AA58     		ldr	r2, [r5, r2]
 846 0442 0F92     		str	r2, [sp, #60]
 847              	.LVL98:
 313:Drivers/CMSIS/DSP/Source/TransformFunctions/arm_cfft_radix4_q31.c **** 
 848              		.loc 1 313 7 is_stmt 1 view .LVU304
 313:Drivers/CMSIS/DSP/Source/TransformFunctions/arm_cfft_radix4_q31.c **** 
 849              		.loc 1 313 11 is_stmt 0 view .LVU305
 850 0444 149A     		ldr	r2, [sp, #80]
 851              	.LVL99:
 313:Drivers/CMSIS/DSP/Source/TransformFunctions/arm_cfft_radix4_q31.c **** 
 852              		.loc 1 313 11 view .LVU306
 853 0446 1344     		add	r3, r3, r2
 854              	.LVL100:
 315:Drivers/CMSIS/DSP/Source/TransformFunctions/arm_cfft_radix4_q31.c ****       {
 855              		.loc 1 315 7 is_stmt 1 view .LVU307
 315:Drivers/CMSIS/DSP/Source/TransformFunctions/arm_cfft_radix4_q31.c ****       {
 856              		.loc 1 315 7 is_stmt 0 view .LVU308
 857 0448 1193     		str	r3, [sp, #68]
 858 044a B246     		mov	r10, r6
 859 044c 1296     		str	r6, [sp, #72]
 860 044e 1395     		str	r5, [sp, #76]
 861 0450 D6E7     		b	.L5
 862              	.LVL101:
ARM GAS  /tmp/ccuzNZ5H.s 			page 24


 863              	.L11:
 388:Drivers/CMSIS/DSP/Source/TransformFunctions/arm_cfft_radix4_q31.c ****       }
 389:Drivers/CMSIS/DSP/Source/TransformFunctions/arm_cfft_radix4_q31.c ****     }
 390:Drivers/CMSIS/DSP/Source/TransformFunctions/arm_cfft_radix4_q31.c ****     twidCoefModifier <<= 2U;
 864              		.loc 1 390 22 view .LVU309
 865 0452 149F     		ldr	r7, [sp, #80]
 866 0454 1699     		ldr	r1, [sp, #88]
 867 0456 DA46     		mov	r10, fp
 868              		.loc 1 390 5 is_stmt 1 view .LVU310
 869              		.loc 1 390 22 is_stmt 0 view .LVU311
 870 0458 BF00     		lsls	r7, r7, #2
 871              	.LVL102:
 293:Drivers/CMSIS/DSP/Source/TransformFunctions/arm_cfft_radix4_q31.c ****   {
 872              		.loc 1 293 35 is_stmt 1 discriminator 2 view .LVU312
 873 045a 8908     		lsrs	r1, r1, #2
 874              	.LVL103:
 297:Drivers/CMSIS/DSP/Source/TransformFunctions/arm_cfft_radix4_q31.c ****     ia1 = 0U;
 875              		.loc 1 297 8 is_stmt 0 view .LVU313
 876 045c 0C9B     		ldr	r3, [sp, #48]
 877              	.LVL104:
 297:Drivers/CMSIS/DSP/Source/TransformFunctions/arm_cfft_radix4_q31.c ****     ia1 = 0U;
 878              		.loc 1 297 8 view .LVU314
 879 045e 1093     		str	r3, [sp, #64]
 880              	.LVL105:
 881              	.L3:
 293:Drivers/CMSIS/DSP/Source/TransformFunctions/arm_cfft_radix4_q31.c ****   {
 882              		.loc 1 293 27 is_stmt 1 discriminator 1 view .LVU315
 883 0460 0429     		cmp	r1, #4
 884 0462 08D9     		bls	.L12
 296:Drivers/CMSIS/DSP/Source/TransformFunctions/arm_cfft_radix4_q31.c ****     n2 >>= 2U;
 885              		.loc 1 296 5 view .LVU316
 886              	.LVL106:
 297:Drivers/CMSIS/DSP/Source/TransformFunctions/arm_cfft_radix4_q31.c ****     ia1 = 0U;
 887              		.loc 1 297 5 view .LVU317
 297:Drivers/CMSIS/DSP/Source/TransformFunctions/arm_cfft_radix4_q31.c ****     ia1 = 0U;
 888              		.loc 1 297 8 is_stmt 0 view .LVU318
 889 0464 109B     		ldr	r3, [sp, #64]
 890 0466 9B08     		lsrs	r3, r3, #2
 891 0468 0C93     		str	r3, [sp, #48]
 892              	.LVL107:
 298:Drivers/CMSIS/DSP/Source/TransformFunctions/arm_cfft_radix4_q31.c **** 
 893              		.loc 1 298 5 is_stmt 1 view .LVU319
 301:Drivers/CMSIS/DSP/Source/TransformFunctions/arm_cfft_radix4_q31.c ****     {
 894              		.loc 1 301 5 view .LVU320
 301:Drivers/CMSIS/DSP/Source/TransformFunctions/arm_cfft_radix4_q31.c ****     {
 895              		.loc 1 301 12 is_stmt 0 view .LVU321
 896 046a 159B     		ldr	r3, [sp, #84]
 897              	.LVL108:
 301:Drivers/CMSIS/DSP/Source/TransformFunctions/arm_cfft_radix4_q31.c ****     {
 898              		.loc 1 301 12 view .LVU322
 899 046c 1E46     		mov	r6, r3
 900 046e 1497     		str	r7, [sp, #80]
 901 0470 1691     		str	r1, [sp, #88]
 902 0472 D346     		mov	fp, r10
 301:Drivers/CMSIS/DSP/Source/TransformFunctions/arm_cfft_radix4_q31.c ****     {
 903              		.loc 1 301 5 view .LVU323
 904 0474 CCE7     		b	.L4
ARM GAS  /tmp/ccuzNZ5H.s 			page 25


 905              	.LVL109:
 906              	.L12:
 301:Drivers/CMSIS/DSP/Source/TransformFunctions/arm_cfft_radix4_q31.c ****     {
 907              		.loc 1 301 5 view .LVU324
 908 0476 179C     		ldr	r4, [sp, #92]
 909 0478 D146     		mov	r9, r10
 910              	.LVL110:
 911              	.L9:
 391:Drivers/CMSIS/DSP/Source/TransformFunctions/arm_cfft_radix4_q31.c ****   }
 392:Drivers/CMSIS/DSP/Source/TransformFunctions/arm_cfft_radix4_q31.c **** #else
 393:Drivers/CMSIS/DSP/Source/TransformFunctions/arm_cfft_radix4_q31.c ****   uint32_t n1, n2, ia1, ia2, ia3, i0, j, k;
 394:Drivers/CMSIS/DSP/Source/TransformFunctions/arm_cfft_radix4_q31.c ****   q31_t t1, t2, r1, r2, s1, s2, co1, co2, co3, si1, si2, si3;
 395:Drivers/CMSIS/DSP/Source/TransformFunctions/arm_cfft_radix4_q31.c **** 
 396:Drivers/CMSIS/DSP/Source/TransformFunctions/arm_cfft_radix4_q31.c ****   q31_t xa, xb, xc, xd;
 397:Drivers/CMSIS/DSP/Source/TransformFunctions/arm_cfft_radix4_q31.c ****   q31_t ya, yb, yc, yd;
 398:Drivers/CMSIS/DSP/Source/TransformFunctions/arm_cfft_radix4_q31.c ****   q31_t xa_out, xb_out, xc_out, xd_out;
 399:Drivers/CMSIS/DSP/Source/TransformFunctions/arm_cfft_radix4_q31.c ****   q31_t ya_out, yb_out, yc_out, yd_out;
 400:Drivers/CMSIS/DSP/Source/TransformFunctions/arm_cfft_radix4_q31.c **** 
 401:Drivers/CMSIS/DSP/Source/TransformFunctions/arm_cfft_radix4_q31.c ****   q31_t *ptr1;
 402:Drivers/CMSIS/DSP/Source/TransformFunctions/arm_cfft_radix4_q31.c ****   q31_t *pSi0;
 403:Drivers/CMSIS/DSP/Source/TransformFunctions/arm_cfft_radix4_q31.c ****   q31_t *pSi1;
 404:Drivers/CMSIS/DSP/Source/TransformFunctions/arm_cfft_radix4_q31.c ****   q31_t *pSi2;
 405:Drivers/CMSIS/DSP/Source/TransformFunctions/arm_cfft_radix4_q31.c ****   q31_t *pSi3;
 406:Drivers/CMSIS/DSP/Source/TransformFunctions/arm_cfft_radix4_q31.c ****   q63_t xaya, xbyb, xcyc, xdyd;
 407:Drivers/CMSIS/DSP/Source/TransformFunctions/arm_cfft_radix4_q31.c ****   /* Total process is divided into three stages */
 408:Drivers/CMSIS/DSP/Source/TransformFunctions/arm_cfft_radix4_q31.c **** 
 409:Drivers/CMSIS/DSP/Source/TransformFunctions/arm_cfft_radix4_q31.c ****   /* process first stage, middle stages, & last stage */
 410:Drivers/CMSIS/DSP/Source/TransformFunctions/arm_cfft_radix4_q31.c **** 
 411:Drivers/CMSIS/DSP/Source/TransformFunctions/arm_cfft_radix4_q31.c **** 
 412:Drivers/CMSIS/DSP/Source/TransformFunctions/arm_cfft_radix4_q31.c ****   /* start of first stage process */
 413:Drivers/CMSIS/DSP/Source/TransformFunctions/arm_cfft_radix4_q31.c **** 
 414:Drivers/CMSIS/DSP/Source/TransformFunctions/arm_cfft_radix4_q31.c ****   /*  Initializations for the first stage */
 415:Drivers/CMSIS/DSP/Source/TransformFunctions/arm_cfft_radix4_q31.c ****   n2 = fftLen;
 416:Drivers/CMSIS/DSP/Source/TransformFunctions/arm_cfft_radix4_q31.c ****   n1 = n2;
 417:Drivers/CMSIS/DSP/Source/TransformFunctions/arm_cfft_radix4_q31.c ****   /* n2 = fftLen/4 */
 418:Drivers/CMSIS/DSP/Source/TransformFunctions/arm_cfft_radix4_q31.c ****   n2 >>= 2U;
 419:Drivers/CMSIS/DSP/Source/TransformFunctions/arm_cfft_radix4_q31.c **** 
 420:Drivers/CMSIS/DSP/Source/TransformFunctions/arm_cfft_radix4_q31.c ****   ia1 = 0U;
 421:Drivers/CMSIS/DSP/Source/TransformFunctions/arm_cfft_radix4_q31.c **** 
 422:Drivers/CMSIS/DSP/Source/TransformFunctions/arm_cfft_radix4_q31.c ****   j = n2;
 423:Drivers/CMSIS/DSP/Source/TransformFunctions/arm_cfft_radix4_q31.c **** 
 424:Drivers/CMSIS/DSP/Source/TransformFunctions/arm_cfft_radix4_q31.c ****   pSi0 = pSrc;
 425:Drivers/CMSIS/DSP/Source/TransformFunctions/arm_cfft_radix4_q31.c ****   pSi1 = pSi0 + 2 * n2;
 426:Drivers/CMSIS/DSP/Source/TransformFunctions/arm_cfft_radix4_q31.c ****   pSi2 = pSi1 + 2 * n2;
 427:Drivers/CMSIS/DSP/Source/TransformFunctions/arm_cfft_radix4_q31.c ****   pSi3 = pSi2 + 2 * n2;
 428:Drivers/CMSIS/DSP/Source/TransformFunctions/arm_cfft_radix4_q31.c **** 
 429:Drivers/CMSIS/DSP/Source/TransformFunctions/arm_cfft_radix4_q31.c ****   /*  Calculation of first stage */
 430:Drivers/CMSIS/DSP/Source/TransformFunctions/arm_cfft_radix4_q31.c ****   do
 431:Drivers/CMSIS/DSP/Source/TransformFunctions/arm_cfft_radix4_q31.c ****   {
 432:Drivers/CMSIS/DSP/Source/TransformFunctions/arm_cfft_radix4_q31.c ****     /* input is in 1.31(q31) format and provide 4 guard bits for the input */
 433:Drivers/CMSIS/DSP/Source/TransformFunctions/arm_cfft_radix4_q31.c **** 
 434:Drivers/CMSIS/DSP/Source/TransformFunctions/arm_cfft_radix4_q31.c ****     /*  Butterfly implementation */
 435:Drivers/CMSIS/DSP/Source/TransformFunctions/arm_cfft_radix4_q31.c ****     /* xa + xc */
 436:Drivers/CMSIS/DSP/Source/TransformFunctions/arm_cfft_radix4_q31.c ****     r1 = (pSi0[0] >> 4U) + (pSi2[0] >> 4U);
 437:Drivers/CMSIS/DSP/Source/TransformFunctions/arm_cfft_radix4_q31.c ****     /* xa - xc */
 438:Drivers/CMSIS/DSP/Source/TransformFunctions/arm_cfft_radix4_q31.c ****     r2 = (pSi0[0] >> 4U) - (pSi2[0] >> 4U);
 439:Drivers/CMSIS/DSP/Source/TransformFunctions/arm_cfft_radix4_q31.c **** 
ARM GAS  /tmp/ccuzNZ5H.s 			page 26


 440:Drivers/CMSIS/DSP/Source/TransformFunctions/arm_cfft_radix4_q31.c ****     /* xb + xd */
 441:Drivers/CMSIS/DSP/Source/TransformFunctions/arm_cfft_radix4_q31.c ****     t1 = (pSi1[0] >> 4U) + (pSi3[0] >> 4U);
 442:Drivers/CMSIS/DSP/Source/TransformFunctions/arm_cfft_radix4_q31.c **** 
 443:Drivers/CMSIS/DSP/Source/TransformFunctions/arm_cfft_radix4_q31.c ****     /* ya + yc */
 444:Drivers/CMSIS/DSP/Source/TransformFunctions/arm_cfft_radix4_q31.c ****     s1 = (pSi0[1] >> 4U) + (pSi2[1] >> 4U);
 445:Drivers/CMSIS/DSP/Source/TransformFunctions/arm_cfft_radix4_q31.c ****     /* ya - yc */
 446:Drivers/CMSIS/DSP/Source/TransformFunctions/arm_cfft_radix4_q31.c ****     s2 = (pSi0[1] >> 4U) - (pSi2[1] >> 4U);
 447:Drivers/CMSIS/DSP/Source/TransformFunctions/arm_cfft_radix4_q31.c **** 
 448:Drivers/CMSIS/DSP/Source/TransformFunctions/arm_cfft_radix4_q31.c ****     /* xa' = xa + xb + xc + xd */
 449:Drivers/CMSIS/DSP/Source/TransformFunctions/arm_cfft_radix4_q31.c ****     *pSi0++ = (r1 + t1);
 450:Drivers/CMSIS/DSP/Source/TransformFunctions/arm_cfft_radix4_q31.c ****     /* (xa + xc) - (xb + xd) */
 451:Drivers/CMSIS/DSP/Source/TransformFunctions/arm_cfft_radix4_q31.c ****     r1 = r1 - t1;
 452:Drivers/CMSIS/DSP/Source/TransformFunctions/arm_cfft_radix4_q31.c ****     /* yb + yd */
 453:Drivers/CMSIS/DSP/Source/TransformFunctions/arm_cfft_radix4_q31.c ****     t2 = (pSi1[1] >> 4U) + (pSi3[1] >> 4U);
 454:Drivers/CMSIS/DSP/Source/TransformFunctions/arm_cfft_radix4_q31.c **** 
 455:Drivers/CMSIS/DSP/Source/TransformFunctions/arm_cfft_radix4_q31.c ****     /* ya' = ya + yb + yc + yd */
 456:Drivers/CMSIS/DSP/Source/TransformFunctions/arm_cfft_radix4_q31.c ****     *pSi0++ = (s1 + t2);
 457:Drivers/CMSIS/DSP/Source/TransformFunctions/arm_cfft_radix4_q31.c **** 
 458:Drivers/CMSIS/DSP/Source/TransformFunctions/arm_cfft_radix4_q31.c ****     /* (ya + yc) - (yb + yd) */
 459:Drivers/CMSIS/DSP/Source/TransformFunctions/arm_cfft_radix4_q31.c ****     s1 = s1 - t2;
 460:Drivers/CMSIS/DSP/Source/TransformFunctions/arm_cfft_radix4_q31.c **** 
 461:Drivers/CMSIS/DSP/Source/TransformFunctions/arm_cfft_radix4_q31.c ****     /* yb - yd */
 462:Drivers/CMSIS/DSP/Source/TransformFunctions/arm_cfft_radix4_q31.c ****     t1 = (pSi1[1] >> 4U) - (pSi3[1] >> 4U);
 463:Drivers/CMSIS/DSP/Source/TransformFunctions/arm_cfft_radix4_q31.c ****     /* xb - xd */
 464:Drivers/CMSIS/DSP/Source/TransformFunctions/arm_cfft_radix4_q31.c ****     t2 = (pSi1[0] >> 4U) - (pSi3[0] >> 4U);
 465:Drivers/CMSIS/DSP/Source/TransformFunctions/arm_cfft_radix4_q31.c **** 
 466:Drivers/CMSIS/DSP/Source/TransformFunctions/arm_cfft_radix4_q31.c ****     /*  index calculation for the coefficients */
 467:Drivers/CMSIS/DSP/Source/TransformFunctions/arm_cfft_radix4_q31.c ****     ia2 = 2U * ia1;
 468:Drivers/CMSIS/DSP/Source/TransformFunctions/arm_cfft_radix4_q31.c ****     co2 = pCoef[ia2 * 2U];
 469:Drivers/CMSIS/DSP/Source/TransformFunctions/arm_cfft_radix4_q31.c ****     si2 = pCoef[(ia2 * 2U) + 1U];
 470:Drivers/CMSIS/DSP/Source/TransformFunctions/arm_cfft_radix4_q31.c **** 
 471:Drivers/CMSIS/DSP/Source/TransformFunctions/arm_cfft_radix4_q31.c ****     /* xc' = (xa-xb+xc-xd)co2 + (ya-yb+yc-yd)(si2) */
 472:Drivers/CMSIS/DSP/Source/TransformFunctions/arm_cfft_radix4_q31.c ****     *pSi1++ = (((int32_t) (((q63_t) r1 * co2) >> 32)) +
 473:Drivers/CMSIS/DSP/Source/TransformFunctions/arm_cfft_radix4_q31.c ****                      ((int32_t) (((q63_t) s1 * si2) >> 32))) << 1U;
 474:Drivers/CMSIS/DSP/Source/TransformFunctions/arm_cfft_radix4_q31.c **** 
 475:Drivers/CMSIS/DSP/Source/TransformFunctions/arm_cfft_radix4_q31.c ****     /* yc' = (ya-yb+yc-yd)co2 - (xa-xb+xc-xd)(si2) */
 476:Drivers/CMSIS/DSP/Source/TransformFunctions/arm_cfft_radix4_q31.c ****     *pSi1++ = (((int32_t) (((q63_t) s1 * co2) >> 32)) -
 477:Drivers/CMSIS/DSP/Source/TransformFunctions/arm_cfft_radix4_q31.c ****                             ((int32_t) (((q63_t) r1 * si2) >> 32))) << 1U;
 478:Drivers/CMSIS/DSP/Source/TransformFunctions/arm_cfft_radix4_q31.c **** 
 479:Drivers/CMSIS/DSP/Source/TransformFunctions/arm_cfft_radix4_q31.c ****     /* (xa - xc) + (yb - yd) */
 480:Drivers/CMSIS/DSP/Source/TransformFunctions/arm_cfft_radix4_q31.c ****     r1 = r2 + t1;
 481:Drivers/CMSIS/DSP/Source/TransformFunctions/arm_cfft_radix4_q31.c ****     /* (xa - xc) - (yb - yd) */
 482:Drivers/CMSIS/DSP/Source/TransformFunctions/arm_cfft_radix4_q31.c ****     r2 = r2 - t1;
 483:Drivers/CMSIS/DSP/Source/TransformFunctions/arm_cfft_radix4_q31.c **** 
 484:Drivers/CMSIS/DSP/Source/TransformFunctions/arm_cfft_radix4_q31.c ****     /* (ya - yc) - (xb - xd) */
 485:Drivers/CMSIS/DSP/Source/TransformFunctions/arm_cfft_radix4_q31.c ****     s1 = s2 - t2;
 486:Drivers/CMSIS/DSP/Source/TransformFunctions/arm_cfft_radix4_q31.c ****     /* (ya - yc) + (xb - xd) */
 487:Drivers/CMSIS/DSP/Source/TransformFunctions/arm_cfft_radix4_q31.c ****     s2 = s2 + t2;
 488:Drivers/CMSIS/DSP/Source/TransformFunctions/arm_cfft_radix4_q31.c **** 
 489:Drivers/CMSIS/DSP/Source/TransformFunctions/arm_cfft_radix4_q31.c ****     co1 = pCoef[ia1 * 2U];
 490:Drivers/CMSIS/DSP/Source/TransformFunctions/arm_cfft_radix4_q31.c ****     si1 = pCoef[(ia1 * 2U) + 1U];
 491:Drivers/CMSIS/DSP/Source/TransformFunctions/arm_cfft_radix4_q31.c **** 
 492:Drivers/CMSIS/DSP/Source/TransformFunctions/arm_cfft_radix4_q31.c ****     /* xb' = (xa+yb-xc-yd)co1 + (ya-xb-yc+xd)(si1) */
 493:Drivers/CMSIS/DSP/Source/TransformFunctions/arm_cfft_radix4_q31.c ****     *pSi2++ = (((int32_t) (((q63_t) r1 * co1) >> 32)) +
 494:Drivers/CMSIS/DSP/Source/TransformFunctions/arm_cfft_radix4_q31.c ****                      ((int32_t) (((q63_t) s1 * si1) >> 32))) << 1U;
 495:Drivers/CMSIS/DSP/Source/TransformFunctions/arm_cfft_radix4_q31.c **** 
 496:Drivers/CMSIS/DSP/Source/TransformFunctions/arm_cfft_radix4_q31.c ****     /* yb' = (ya-xb-yc+xd)co1 - (xa+yb-xc-yd)(si1) */
ARM GAS  /tmp/ccuzNZ5H.s 			page 27


 497:Drivers/CMSIS/DSP/Source/TransformFunctions/arm_cfft_radix4_q31.c ****     *pSi2++ = (((int32_t) (((q63_t) s1 * co1) >> 32)) -
 498:Drivers/CMSIS/DSP/Source/TransformFunctions/arm_cfft_radix4_q31.c ****                             ((int32_t) (((q63_t) r1 * si1) >> 32))) << 1U;
 499:Drivers/CMSIS/DSP/Source/TransformFunctions/arm_cfft_radix4_q31.c **** 
 500:Drivers/CMSIS/DSP/Source/TransformFunctions/arm_cfft_radix4_q31.c ****     /*  index calculation for the coefficients */
 501:Drivers/CMSIS/DSP/Source/TransformFunctions/arm_cfft_radix4_q31.c ****     ia3 = 3U * ia1;
 502:Drivers/CMSIS/DSP/Source/TransformFunctions/arm_cfft_radix4_q31.c ****     co3 = pCoef[ia3 * 2U];
 503:Drivers/CMSIS/DSP/Source/TransformFunctions/arm_cfft_radix4_q31.c ****     si3 = pCoef[(ia3 * 2U) + 1U];
 504:Drivers/CMSIS/DSP/Source/TransformFunctions/arm_cfft_radix4_q31.c **** 
 505:Drivers/CMSIS/DSP/Source/TransformFunctions/arm_cfft_radix4_q31.c ****     /* xd' = (xa-yb-xc+yd)co3 + (ya+xb-yc-xd)(si3) */
 506:Drivers/CMSIS/DSP/Source/TransformFunctions/arm_cfft_radix4_q31.c ****     *pSi3++ = (((int32_t) (((q63_t) r2 * co3) >> 32)) +
 507:Drivers/CMSIS/DSP/Source/TransformFunctions/arm_cfft_radix4_q31.c ****                      ((int32_t) (((q63_t) s2 * si3) >> 32))) << 1U;
 508:Drivers/CMSIS/DSP/Source/TransformFunctions/arm_cfft_radix4_q31.c **** 
 509:Drivers/CMSIS/DSP/Source/TransformFunctions/arm_cfft_radix4_q31.c ****     /* yd' = (ya+xb-yc-xd)co3 - (xa-yb-xc+yd)(si3) */
 510:Drivers/CMSIS/DSP/Source/TransformFunctions/arm_cfft_radix4_q31.c ****     *pSi3++ = (((int32_t) (((q63_t) s2 * co3) >> 32)) -
 511:Drivers/CMSIS/DSP/Source/TransformFunctions/arm_cfft_radix4_q31.c ****                             ((int32_t) (((q63_t) r2 * si3) >> 32))) << 1U;
 512:Drivers/CMSIS/DSP/Source/TransformFunctions/arm_cfft_radix4_q31.c **** 
 513:Drivers/CMSIS/DSP/Source/TransformFunctions/arm_cfft_radix4_q31.c ****     /*  Twiddle coefficients index modifier */
 514:Drivers/CMSIS/DSP/Source/TransformFunctions/arm_cfft_radix4_q31.c ****     ia1 = ia1 + twidCoefModifier;
 515:Drivers/CMSIS/DSP/Source/TransformFunctions/arm_cfft_radix4_q31.c **** 
 516:Drivers/CMSIS/DSP/Source/TransformFunctions/arm_cfft_radix4_q31.c ****   } while (--j);
 517:Drivers/CMSIS/DSP/Source/TransformFunctions/arm_cfft_radix4_q31.c **** 
 518:Drivers/CMSIS/DSP/Source/TransformFunctions/arm_cfft_radix4_q31.c ****   /* end of first stage process */
 519:Drivers/CMSIS/DSP/Source/TransformFunctions/arm_cfft_radix4_q31.c **** 
 520:Drivers/CMSIS/DSP/Source/TransformFunctions/arm_cfft_radix4_q31.c ****   /* data is in 5.27(q27) format */
 521:Drivers/CMSIS/DSP/Source/TransformFunctions/arm_cfft_radix4_q31.c **** 
 522:Drivers/CMSIS/DSP/Source/TransformFunctions/arm_cfft_radix4_q31.c **** 
 523:Drivers/CMSIS/DSP/Source/TransformFunctions/arm_cfft_radix4_q31.c ****   /* start of Middle stages process */
 524:Drivers/CMSIS/DSP/Source/TransformFunctions/arm_cfft_radix4_q31.c **** 
 525:Drivers/CMSIS/DSP/Source/TransformFunctions/arm_cfft_radix4_q31.c **** 
 526:Drivers/CMSIS/DSP/Source/TransformFunctions/arm_cfft_radix4_q31.c ****   /* each stage in middle stages provides two down scaling of the input */
 527:Drivers/CMSIS/DSP/Source/TransformFunctions/arm_cfft_radix4_q31.c **** 
 528:Drivers/CMSIS/DSP/Source/TransformFunctions/arm_cfft_radix4_q31.c ****   twidCoefModifier <<= 2U;
 529:Drivers/CMSIS/DSP/Source/TransformFunctions/arm_cfft_radix4_q31.c **** 
 530:Drivers/CMSIS/DSP/Source/TransformFunctions/arm_cfft_radix4_q31.c **** 
 531:Drivers/CMSIS/DSP/Source/TransformFunctions/arm_cfft_radix4_q31.c ****   for (k = fftLen / 4U; k > 4U; k >>= 2U)
 532:Drivers/CMSIS/DSP/Source/TransformFunctions/arm_cfft_radix4_q31.c ****   {
 533:Drivers/CMSIS/DSP/Source/TransformFunctions/arm_cfft_radix4_q31.c ****     /*  Initializations for the first stage */
 534:Drivers/CMSIS/DSP/Source/TransformFunctions/arm_cfft_radix4_q31.c ****     n1 = n2;
 535:Drivers/CMSIS/DSP/Source/TransformFunctions/arm_cfft_radix4_q31.c ****     n2 >>= 2U;
 536:Drivers/CMSIS/DSP/Source/TransformFunctions/arm_cfft_radix4_q31.c ****     ia1 = 0U;
 537:Drivers/CMSIS/DSP/Source/TransformFunctions/arm_cfft_radix4_q31.c **** 
 538:Drivers/CMSIS/DSP/Source/TransformFunctions/arm_cfft_radix4_q31.c ****     /*  Calculation of first stage */
 539:Drivers/CMSIS/DSP/Source/TransformFunctions/arm_cfft_radix4_q31.c ****     for (j = 0U; j <= (n2 - 1U); j++)
 540:Drivers/CMSIS/DSP/Source/TransformFunctions/arm_cfft_radix4_q31.c ****     {
 541:Drivers/CMSIS/DSP/Source/TransformFunctions/arm_cfft_radix4_q31.c ****       /*  index calculation for the coefficients */
 542:Drivers/CMSIS/DSP/Source/TransformFunctions/arm_cfft_radix4_q31.c ****       ia2 = ia1 + ia1;
 543:Drivers/CMSIS/DSP/Source/TransformFunctions/arm_cfft_radix4_q31.c ****       ia3 = ia2 + ia1;
 544:Drivers/CMSIS/DSP/Source/TransformFunctions/arm_cfft_radix4_q31.c ****       co1 = pCoef[ia1 * 2U];
 545:Drivers/CMSIS/DSP/Source/TransformFunctions/arm_cfft_radix4_q31.c ****       si1 = pCoef[(ia1 * 2U) + 1U];
 546:Drivers/CMSIS/DSP/Source/TransformFunctions/arm_cfft_radix4_q31.c ****       co2 = pCoef[ia2 * 2U];
 547:Drivers/CMSIS/DSP/Source/TransformFunctions/arm_cfft_radix4_q31.c ****       si2 = pCoef[(ia2 * 2U) + 1U];
 548:Drivers/CMSIS/DSP/Source/TransformFunctions/arm_cfft_radix4_q31.c ****       co3 = pCoef[ia3 * 2U];
 549:Drivers/CMSIS/DSP/Source/TransformFunctions/arm_cfft_radix4_q31.c ****       si3 = pCoef[(ia3 * 2U) + 1U];
 550:Drivers/CMSIS/DSP/Source/TransformFunctions/arm_cfft_radix4_q31.c ****       /*  Twiddle coefficients index modifier */
 551:Drivers/CMSIS/DSP/Source/TransformFunctions/arm_cfft_radix4_q31.c ****       ia1 = ia1 + twidCoefModifier;
 552:Drivers/CMSIS/DSP/Source/TransformFunctions/arm_cfft_radix4_q31.c **** 
 553:Drivers/CMSIS/DSP/Source/TransformFunctions/arm_cfft_radix4_q31.c ****       pSi0 = pSrc + 2 * j;
ARM GAS  /tmp/ccuzNZ5H.s 			page 28


 554:Drivers/CMSIS/DSP/Source/TransformFunctions/arm_cfft_radix4_q31.c ****       pSi1 = pSi0 + 2 * n2;
 555:Drivers/CMSIS/DSP/Source/TransformFunctions/arm_cfft_radix4_q31.c ****       pSi2 = pSi1 + 2 * n2;
 556:Drivers/CMSIS/DSP/Source/TransformFunctions/arm_cfft_radix4_q31.c ****       pSi3 = pSi2 + 2 * n2;
 557:Drivers/CMSIS/DSP/Source/TransformFunctions/arm_cfft_radix4_q31.c **** 
 558:Drivers/CMSIS/DSP/Source/TransformFunctions/arm_cfft_radix4_q31.c ****       for (i0 = j; i0 < fftLen; i0 += n1)
 559:Drivers/CMSIS/DSP/Source/TransformFunctions/arm_cfft_radix4_q31.c ****       {
 560:Drivers/CMSIS/DSP/Source/TransformFunctions/arm_cfft_radix4_q31.c ****         /*  Butterfly implementation */
 561:Drivers/CMSIS/DSP/Source/TransformFunctions/arm_cfft_radix4_q31.c ****         /* xa + xc */
 562:Drivers/CMSIS/DSP/Source/TransformFunctions/arm_cfft_radix4_q31.c ****         r1 = pSi0[0] + pSi2[0];
 563:Drivers/CMSIS/DSP/Source/TransformFunctions/arm_cfft_radix4_q31.c **** 
 564:Drivers/CMSIS/DSP/Source/TransformFunctions/arm_cfft_radix4_q31.c ****         /* xa - xc */
 565:Drivers/CMSIS/DSP/Source/TransformFunctions/arm_cfft_radix4_q31.c ****         r2 = pSi0[0] - pSi2[0];
 566:Drivers/CMSIS/DSP/Source/TransformFunctions/arm_cfft_radix4_q31.c **** 
 567:Drivers/CMSIS/DSP/Source/TransformFunctions/arm_cfft_radix4_q31.c **** 
 568:Drivers/CMSIS/DSP/Source/TransformFunctions/arm_cfft_radix4_q31.c ****         /* ya + yc */
 569:Drivers/CMSIS/DSP/Source/TransformFunctions/arm_cfft_radix4_q31.c ****         s1 = pSi0[1] + pSi2[1];
 570:Drivers/CMSIS/DSP/Source/TransformFunctions/arm_cfft_radix4_q31.c **** 
 571:Drivers/CMSIS/DSP/Source/TransformFunctions/arm_cfft_radix4_q31.c ****         /* ya - yc */
 572:Drivers/CMSIS/DSP/Source/TransformFunctions/arm_cfft_radix4_q31.c ****         s2 = pSi0[1] - pSi2[1];
 573:Drivers/CMSIS/DSP/Source/TransformFunctions/arm_cfft_radix4_q31.c **** 
 574:Drivers/CMSIS/DSP/Source/TransformFunctions/arm_cfft_radix4_q31.c **** 
 575:Drivers/CMSIS/DSP/Source/TransformFunctions/arm_cfft_radix4_q31.c ****         /* xb + xd */
 576:Drivers/CMSIS/DSP/Source/TransformFunctions/arm_cfft_radix4_q31.c ****         t1 = pSi1[0] + pSi3[0];
 577:Drivers/CMSIS/DSP/Source/TransformFunctions/arm_cfft_radix4_q31.c **** 
 578:Drivers/CMSIS/DSP/Source/TransformFunctions/arm_cfft_radix4_q31.c **** 
 579:Drivers/CMSIS/DSP/Source/TransformFunctions/arm_cfft_radix4_q31.c ****         /* xa' = xa + xb + xc + xd */
 580:Drivers/CMSIS/DSP/Source/TransformFunctions/arm_cfft_radix4_q31.c ****         pSi0[0] = (r1 + t1) >> 2U;
 581:Drivers/CMSIS/DSP/Source/TransformFunctions/arm_cfft_radix4_q31.c ****         /* xa + xc -(xb + xd) */
 582:Drivers/CMSIS/DSP/Source/TransformFunctions/arm_cfft_radix4_q31.c ****         r1 = r1 - t1;
 583:Drivers/CMSIS/DSP/Source/TransformFunctions/arm_cfft_radix4_q31.c **** 
 584:Drivers/CMSIS/DSP/Source/TransformFunctions/arm_cfft_radix4_q31.c ****         /* yb + yd */
 585:Drivers/CMSIS/DSP/Source/TransformFunctions/arm_cfft_radix4_q31.c ****         t2 = pSi1[1] + pSi3[1];
 586:Drivers/CMSIS/DSP/Source/TransformFunctions/arm_cfft_radix4_q31.c **** 
 587:Drivers/CMSIS/DSP/Source/TransformFunctions/arm_cfft_radix4_q31.c ****         /* ya' = ya + yb + yc + yd */
 588:Drivers/CMSIS/DSP/Source/TransformFunctions/arm_cfft_radix4_q31.c ****         pSi0[1] = (s1 + t2) >> 2U;
 589:Drivers/CMSIS/DSP/Source/TransformFunctions/arm_cfft_radix4_q31.c ****         pSi0 += 2 * n1;
 590:Drivers/CMSIS/DSP/Source/TransformFunctions/arm_cfft_radix4_q31.c **** 
 591:Drivers/CMSIS/DSP/Source/TransformFunctions/arm_cfft_radix4_q31.c ****         /* (ya + yc) - (yb + yd) */
 592:Drivers/CMSIS/DSP/Source/TransformFunctions/arm_cfft_radix4_q31.c ****         s1 = s1 - t2;
 593:Drivers/CMSIS/DSP/Source/TransformFunctions/arm_cfft_radix4_q31.c **** 
 594:Drivers/CMSIS/DSP/Source/TransformFunctions/arm_cfft_radix4_q31.c ****         /* (yb - yd) */
 595:Drivers/CMSIS/DSP/Source/TransformFunctions/arm_cfft_radix4_q31.c ****         t1 = pSi1[1] - pSi3[1];
 596:Drivers/CMSIS/DSP/Source/TransformFunctions/arm_cfft_radix4_q31.c **** 
 597:Drivers/CMSIS/DSP/Source/TransformFunctions/arm_cfft_radix4_q31.c ****         /* (xb - xd) */
 598:Drivers/CMSIS/DSP/Source/TransformFunctions/arm_cfft_radix4_q31.c ****         t2 = pSi1[0] - pSi3[0];
 599:Drivers/CMSIS/DSP/Source/TransformFunctions/arm_cfft_radix4_q31.c **** 
 600:Drivers/CMSIS/DSP/Source/TransformFunctions/arm_cfft_radix4_q31.c **** 
 601:Drivers/CMSIS/DSP/Source/TransformFunctions/arm_cfft_radix4_q31.c ****         /* xc' = (xa-xb+xc-xd)co2 + (ya-yb+yc-yd)(si2) */
 602:Drivers/CMSIS/DSP/Source/TransformFunctions/arm_cfft_radix4_q31.c ****         pSi1[0] = (((int32_t) (((q63_t) r1 * co2) >> 32)) +
 603:Drivers/CMSIS/DSP/Source/TransformFunctions/arm_cfft_radix4_q31.c ****                          ((int32_t) (((q63_t) s1 * si2) >> 32))) >> 1U;
 604:Drivers/CMSIS/DSP/Source/TransformFunctions/arm_cfft_radix4_q31.c **** 
 605:Drivers/CMSIS/DSP/Source/TransformFunctions/arm_cfft_radix4_q31.c ****         /* yc' = (ya-yb+yc-yd)co2 - (xa-xb+xc-xd)(si2) */
 606:Drivers/CMSIS/DSP/Source/TransformFunctions/arm_cfft_radix4_q31.c ****         pSi1[1] = (((int32_t) (((q63_t) s1 * co2) >> 32)) -
 607:Drivers/CMSIS/DSP/Source/TransformFunctions/arm_cfft_radix4_q31.c ****                                 ((int32_t) (((q63_t) r1 * si2) >> 32))) >> 1U;
 608:Drivers/CMSIS/DSP/Source/TransformFunctions/arm_cfft_radix4_q31.c ****         pSi1 += 2 * n1;
 609:Drivers/CMSIS/DSP/Source/TransformFunctions/arm_cfft_radix4_q31.c **** 
 610:Drivers/CMSIS/DSP/Source/TransformFunctions/arm_cfft_radix4_q31.c ****         /* (xa - xc) + (yb - yd) */
ARM GAS  /tmp/ccuzNZ5H.s 			page 29


 611:Drivers/CMSIS/DSP/Source/TransformFunctions/arm_cfft_radix4_q31.c ****         r1 = r2 + t1;
 612:Drivers/CMSIS/DSP/Source/TransformFunctions/arm_cfft_radix4_q31.c ****         /* (xa - xc) - (yb - yd) */
 613:Drivers/CMSIS/DSP/Source/TransformFunctions/arm_cfft_radix4_q31.c ****         r2 = r2 - t1;
 614:Drivers/CMSIS/DSP/Source/TransformFunctions/arm_cfft_radix4_q31.c **** 
 615:Drivers/CMSIS/DSP/Source/TransformFunctions/arm_cfft_radix4_q31.c ****         /* (ya - yc) -  (xb - xd) */
 616:Drivers/CMSIS/DSP/Source/TransformFunctions/arm_cfft_radix4_q31.c ****         s1 = s2 - t2;
 617:Drivers/CMSIS/DSP/Source/TransformFunctions/arm_cfft_radix4_q31.c ****         /* (ya - yc) +  (xb - xd) */
 618:Drivers/CMSIS/DSP/Source/TransformFunctions/arm_cfft_radix4_q31.c ****         s2 = s2 + t2;
 619:Drivers/CMSIS/DSP/Source/TransformFunctions/arm_cfft_radix4_q31.c **** 
 620:Drivers/CMSIS/DSP/Source/TransformFunctions/arm_cfft_radix4_q31.c ****         /* xb' = (xa+yb-xc-yd)co1 + (ya-xb-yc+xd)(si1) */
 621:Drivers/CMSIS/DSP/Source/TransformFunctions/arm_cfft_radix4_q31.c ****         pSi2[0] = (((int32_t) (((q63_t) r1 * co1) >> 32)) +
 622:Drivers/CMSIS/DSP/Source/TransformFunctions/arm_cfft_radix4_q31.c ****                          ((int32_t) (((q63_t) s1 * si1) >> 32))) >> 1U;
 623:Drivers/CMSIS/DSP/Source/TransformFunctions/arm_cfft_radix4_q31.c **** 
 624:Drivers/CMSIS/DSP/Source/TransformFunctions/arm_cfft_radix4_q31.c ****         /* yb' = (ya-xb-yc+xd)co1 - (xa+yb-xc-yd)(si1) */
 625:Drivers/CMSIS/DSP/Source/TransformFunctions/arm_cfft_radix4_q31.c ****         pSi2[1] = (((int32_t) (((q63_t) s1 * co1) >> 32)) -
 626:Drivers/CMSIS/DSP/Source/TransformFunctions/arm_cfft_radix4_q31.c ****                                 ((int32_t) (((q63_t) r1 * si1) >> 32))) >> 1U;
 627:Drivers/CMSIS/DSP/Source/TransformFunctions/arm_cfft_radix4_q31.c ****         pSi2 += 2 * n1;
 628:Drivers/CMSIS/DSP/Source/TransformFunctions/arm_cfft_radix4_q31.c **** 
 629:Drivers/CMSIS/DSP/Source/TransformFunctions/arm_cfft_radix4_q31.c ****         /* xd' = (xa-yb-xc+yd)co3 + (ya+xb-yc-xd)(si3) */
 630:Drivers/CMSIS/DSP/Source/TransformFunctions/arm_cfft_radix4_q31.c ****         pSi3[0] = (((int32_t) (((q63_t) r2 * co3) >> 32)) +
 631:Drivers/CMSIS/DSP/Source/TransformFunctions/arm_cfft_radix4_q31.c ****                          ((int32_t) (((q63_t) s2 * si3) >> 32))) >> 1U;
 632:Drivers/CMSIS/DSP/Source/TransformFunctions/arm_cfft_radix4_q31.c **** 
 633:Drivers/CMSIS/DSP/Source/TransformFunctions/arm_cfft_radix4_q31.c ****         /* yd' = (ya+xb-yc-xd)co3 - (xa-yb-xc+yd)(si3) */
 634:Drivers/CMSIS/DSP/Source/TransformFunctions/arm_cfft_radix4_q31.c ****         pSi3[1] = (((int32_t) (((q63_t) s2 * co3) >> 32)) -
 635:Drivers/CMSIS/DSP/Source/TransformFunctions/arm_cfft_radix4_q31.c ****                                 ((int32_t) (((q63_t) r2 * si3) >> 32))) >> 1U;
 636:Drivers/CMSIS/DSP/Source/TransformFunctions/arm_cfft_radix4_q31.c ****         pSi3 += 2 * n1;
 637:Drivers/CMSIS/DSP/Source/TransformFunctions/arm_cfft_radix4_q31.c ****       }
 638:Drivers/CMSIS/DSP/Source/TransformFunctions/arm_cfft_radix4_q31.c ****     }
 639:Drivers/CMSIS/DSP/Source/TransformFunctions/arm_cfft_radix4_q31.c ****     twidCoefModifier <<= 2U;
 640:Drivers/CMSIS/DSP/Source/TransformFunctions/arm_cfft_radix4_q31.c ****   }
 641:Drivers/CMSIS/DSP/Source/TransformFunctions/arm_cfft_radix4_q31.c **** #endif
 642:Drivers/CMSIS/DSP/Source/TransformFunctions/arm_cfft_radix4_q31.c **** 
 643:Drivers/CMSIS/DSP/Source/TransformFunctions/arm_cfft_radix4_q31.c ****   /* End of Middle stages process */
 644:Drivers/CMSIS/DSP/Source/TransformFunctions/arm_cfft_radix4_q31.c **** 
 645:Drivers/CMSIS/DSP/Source/TransformFunctions/arm_cfft_radix4_q31.c ****   /* data is in 11.21(q21) format for the 1024 point as there are 3 middle stages */
 646:Drivers/CMSIS/DSP/Source/TransformFunctions/arm_cfft_radix4_q31.c ****   /* data is in 9.23(q23) format for the 256 point as there are 2 middle stages */
 647:Drivers/CMSIS/DSP/Source/TransformFunctions/arm_cfft_radix4_q31.c ****   /* data is in 7.25(q25) format for the 64 point as there are 1 middle stage */
 648:Drivers/CMSIS/DSP/Source/TransformFunctions/arm_cfft_radix4_q31.c ****   /* data is in 5.27(q27) format for the 16 point as there are no middle stages */
 649:Drivers/CMSIS/DSP/Source/TransformFunctions/arm_cfft_radix4_q31.c **** 
 650:Drivers/CMSIS/DSP/Source/TransformFunctions/arm_cfft_radix4_q31.c **** 
 651:Drivers/CMSIS/DSP/Source/TransformFunctions/arm_cfft_radix4_q31.c ****   /* start of Last stage process */
 652:Drivers/CMSIS/DSP/Source/TransformFunctions/arm_cfft_radix4_q31.c ****   /*  Initializations for the last stage */
 653:Drivers/CMSIS/DSP/Source/TransformFunctions/arm_cfft_radix4_q31.c ****   j = fftLen >> 2;
 654:Drivers/CMSIS/DSP/Source/TransformFunctions/arm_cfft_radix4_q31.c ****   ptr1 = &pSrc[0];
 655:Drivers/CMSIS/DSP/Source/TransformFunctions/arm_cfft_radix4_q31.c **** 
 656:Drivers/CMSIS/DSP/Source/TransformFunctions/arm_cfft_radix4_q31.c ****   /*  Calculations of last stage */
 657:Drivers/CMSIS/DSP/Source/TransformFunctions/arm_cfft_radix4_q31.c ****   do
 912              		.loc 1 657 3 is_stmt 1 view .LVU325
 658:Drivers/CMSIS/DSP/Source/TransformFunctions/arm_cfft_radix4_q31.c ****   {
 659:Drivers/CMSIS/DSP/Source/TransformFunctions/arm_cfft_radix4_q31.c **** 
 660:Drivers/CMSIS/DSP/Source/TransformFunctions/arm_cfft_radix4_q31.c **** #ifndef ARM_MATH_BIG_ENDIAN
 661:Drivers/CMSIS/DSP/Source/TransformFunctions/arm_cfft_radix4_q31.c **** 
 662:Drivers/CMSIS/DSP/Source/TransformFunctions/arm_cfft_radix4_q31.c ****     /* Read xa (real), ya(imag) input */
 663:Drivers/CMSIS/DSP/Source/TransformFunctions/arm_cfft_radix4_q31.c ****     xaya = *__SIMD64(ptr1)++;
 913              		.loc 1 663 5 view .LVU326
 914              		.loc 1 663 10 is_stmt 0 view .LVU327
 915 047a D9F80020 		ldr	r2, [r9]
ARM GAS  /tmp/ccuzNZ5H.s 			page 30


 916 047e D9F80430 		ldr	r3, [r9, #4]
 917              	.LVL111:
 664:Drivers/CMSIS/DSP/Source/TransformFunctions/arm_cfft_radix4_q31.c ****     xa = (q31_t) xaya;
 918              		.loc 1 664 5 is_stmt 1 view .LVU328
 665:Drivers/CMSIS/DSP/Source/TransformFunctions/arm_cfft_radix4_q31.c ****     ya = (q31_t) (xaya >> 32);
 919              		.loc 1 665 5 view .LVU329
 666:Drivers/CMSIS/DSP/Source/TransformFunctions/arm_cfft_radix4_q31.c **** 
 667:Drivers/CMSIS/DSP/Source/TransformFunctions/arm_cfft_radix4_q31.c ****     /* Read xb (real), yb(imag) input */
 668:Drivers/CMSIS/DSP/Source/TransformFunctions/arm_cfft_radix4_q31.c ****     xbyb = *__SIMD64(ptr1)++;
 920              		.loc 1 668 5 view .LVU330
 921              		.loc 1 668 10 is_stmt 0 view .LVU331
 922 0482 D9F80870 		ldr	r7, [r9, #8]
 923 0486 D9F80C80 		ldr	r8, [r9, #12]
 924              	.LVL112:
 669:Drivers/CMSIS/DSP/Source/TransformFunctions/arm_cfft_radix4_q31.c ****     xb = (q31_t) xbyb;
 925              		.loc 1 669 5 is_stmt 1 view .LVU332
 670:Drivers/CMSIS/DSP/Source/TransformFunctions/arm_cfft_radix4_q31.c ****     yb = (q31_t) (xbyb >> 32);
 926              		.loc 1 670 5 view .LVU333
 671:Drivers/CMSIS/DSP/Source/TransformFunctions/arm_cfft_radix4_q31.c **** 
 672:Drivers/CMSIS/DSP/Source/TransformFunctions/arm_cfft_radix4_q31.c ****     /* Read xc (real), yc(imag) input */
 673:Drivers/CMSIS/DSP/Source/TransformFunctions/arm_cfft_radix4_q31.c ****     xcyc = *__SIMD64(ptr1)++;
 927              		.loc 1 673 5 view .LVU334
 928              		.loc 1 673 10 is_stmt 0 view .LVU335
 929 048a D9F810E0 		ldr	lr, [r9, #16]
 930 048e D9F81460 		ldr	r6, [r9, #20]
 931              	.LVL113:
 674:Drivers/CMSIS/DSP/Source/TransformFunctions/arm_cfft_radix4_q31.c ****     xc = (q31_t) xcyc;
 932              		.loc 1 674 5 is_stmt 1 view .LVU336
 675:Drivers/CMSIS/DSP/Source/TransformFunctions/arm_cfft_radix4_q31.c ****     yc = (q31_t) (xcyc >> 32);
 933              		.loc 1 675 5 view .LVU337
 676:Drivers/CMSIS/DSP/Source/TransformFunctions/arm_cfft_radix4_q31.c **** 
 677:Drivers/CMSIS/DSP/Source/TransformFunctions/arm_cfft_radix4_q31.c ****     /* Read xc (real), yc(imag) input */
 678:Drivers/CMSIS/DSP/Source/TransformFunctions/arm_cfft_radix4_q31.c ****     xdyd = *__SIMD64(ptr1)++;
 934              		.loc 1 678 5 view .LVU338
 935              		.loc 1 678 10 is_stmt 0 view .LVU339
 936 0492 D9F81850 		ldr	r5, [r9, #24]
 937 0496 D9F81CC0 		ldr	ip, [r9, #28]
 938              	.LVL114:
 679:Drivers/CMSIS/DSP/Source/TransformFunctions/arm_cfft_radix4_q31.c ****     xd = (q31_t) xdyd;
 939              		.loc 1 679 5 is_stmt 1 view .LVU340
 680:Drivers/CMSIS/DSP/Source/TransformFunctions/arm_cfft_radix4_q31.c ****     yd = (q31_t) (xdyd >> 32);
 940              		.loc 1 680 5 view .LVU341
 681:Drivers/CMSIS/DSP/Source/TransformFunctions/arm_cfft_radix4_q31.c **** 
 682:Drivers/CMSIS/DSP/Source/TransformFunctions/arm_cfft_radix4_q31.c **** #else
 683:Drivers/CMSIS/DSP/Source/TransformFunctions/arm_cfft_radix4_q31.c **** 
 684:Drivers/CMSIS/DSP/Source/TransformFunctions/arm_cfft_radix4_q31.c ****     /* Read xa (real), ya(imag) input */
 685:Drivers/CMSIS/DSP/Source/TransformFunctions/arm_cfft_radix4_q31.c ****     xaya = *__SIMD64(ptr1)++;
 686:Drivers/CMSIS/DSP/Source/TransformFunctions/arm_cfft_radix4_q31.c ****     ya = (q31_t) xaya;
 687:Drivers/CMSIS/DSP/Source/TransformFunctions/arm_cfft_radix4_q31.c ****     xa = (q31_t) (xaya >> 32);
 688:Drivers/CMSIS/DSP/Source/TransformFunctions/arm_cfft_radix4_q31.c **** 
 689:Drivers/CMSIS/DSP/Source/TransformFunctions/arm_cfft_radix4_q31.c ****     /* Read xb (real), yb(imag) input */
 690:Drivers/CMSIS/DSP/Source/TransformFunctions/arm_cfft_radix4_q31.c ****     xbyb = *__SIMD64(ptr1)++;
 691:Drivers/CMSIS/DSP/Source/TransformFunctions/arm_cfft_radix4_q31.c ****     yb = (q31_t) xbyb;
 692:Drivers/CMSIS/DSP/Source/TransformFunctions/arm_cfft_radix4_q31.c ****     xb = (q31_t) (xbyb >> 32);
 693:Drivers/CMSIS/DSP/Source/TransformFunctions/arm_cfft_radix4_q31.c **** 
 694:Drivers/CMSIS/DSP/Source/TransformFunctions/arm_cfft_radix4_q31.c ****     /* Read xc (real), yc(imag) input */
 695:Drivers/CMSIS/DSP/Source/TransformFunctions/arm_cfft_radix4_q31.c ****     xcyc = *__SIMD64(ptr1)++;
ARM GAS  /tmp/ccuzNZ5H.s 			page 31


 696:Drivers/CMSIS/DSP/Source/TransformFunctions/arm_cfft_radix4_q31.c ****     yc = (q31_t) xcyc;
 697:Drivers/CMSIS/DSP/Source/TransformFunctions/arm_cfft_radix4_q31.c ****     xc = (q31_t) (xcyc >> 32);
 698:Drivers/CMSIS/DSP/Source/TransformFunctions/arm_cfft_radix4_q31.c **** 
 699:Drivers/CMSIS/DSP/Source/TransformFunctions/arm_cfft_radix4_q31.c ****     /* Read xc (real), yc(imag) input */
 700:Drivers/CMSIS/DSP/Source/TransformFunctions/arm_cfft_radix4_q31.c ****     xdyd = *__SIMD64(ptr1)++;
 701:Drivers/CMSIS/DSP/Source/TransformFunctions/arm_cfft_radix4_q31.c ****     yd = (q31_t) xdyd;
 702:Drivers/CMSIS/DSP/Source/TransformFunctions/arm_cfft_radix4_q31.c ****     xd = (q31_t) (xdyd >> 32);
 703:Drivers/CMSIS/DSP/Source/TransformFunctions/arm_cfft_radix4_q31.c **** 
 704:Drivers/CMSIS/DSP/Source/TransformFunctions/arm_cfft_radix4_q31.c **** 
 705:Drivers/CMSIS/DSP/Source/TransformFunctions/arm_cfft_radix4_q31.c **** #endif
 706:Drivers/CMSIS/DSP/Source/TransformFunctions/arm_cfft_radix4_q31.c **** 
 707:Drivers/CMSIS/DSP/Source/TransformFunctions/arm_cfft_radix4_q31.c ****     /* xa' = xa + xb + xc + xd */
 708:Drivers/CMSIS/DSP/Source/TransformFunctions/arm_cfft_radix4_q31.c ****     xa_out = xa + xb + xc + xd;
 941              		.loc 1 708 5 view .LVU342
 942              		.loc 1 708 17 is_stmt 0 view .LVU343
 943 049a D019     		adds	r0, r2, r7
 944              		.loc 1 708 22 view .LVU344
 945 049c 7044     		add	r0, r0, lr
 946              		.loc 1 708 12 view .LVU345
 947 049e 2844     		add	r0, r0, r5
 948              	.LVL115:
 709:Drivers/CMSIS/DSP/Source/TransformFunctions/arm_cfft_radix4_q31.c **** 
 710:Drivers/CMSIS/DSP/Source/TransformFunctions/arm_cfft_radix4_q31.c ****     /* ya' = ya + yb + yc + yd */
 711:Drivers/CMSIS/DSP/Source/TransformFunctions/arm_cfft_radix4_q31.c ****     ya_out = ya + yb + yc + yd;
 949              		.loc 1 711 5 is_stmt 1 view .LVU346
 950              		.loc 1 711 17 is_stmt 0 view .LVU347
 951 04a0 03EB0801 		add	r1, r3, r8
 952              		.loc 1 711 22 view .LVU348
 953 04a4 3144     		add	r1, r1, r6
 954              		.loc 1 711 12 view .LVU349
 955 04a6 6144     		add	r1, r1, ip
 956              	.LVL116:
 712:Drivers/CMSIS/DSP/Source/TransformFunctions/arm_cfft_radix4_q31.c **** 
 713:Drivers/CMSIS/DSP/Source/TransformFunctions/arm_cfft_radix4_q31.c ****     /* pointer updation for writing */
 714:Drivers/CMSIS/DSP/Source/TransformFunctions/arm_cfft_radix4_q31.c ****     ptr1 = ptr1 - 8U;
 957              		.loc 1 714 5 is_stmt 1 view .LVU350
 715:Drivers/CMSIS/DSP/Source/TransformFunctions/arm_cfft_radix4_q31.c **** 
 716:Drivers/CMSIS/DSP/Source/TransformFunctions/arm_cfft_radix4_q31.c ****     /* writing xa' and ya' */
 717:Drivers/CMSIS/DSP/Source/TransformFunctions/arm_cfft_radix4_q31.c ****     *ptr1++ = xa_out;
 958              		.loc 1 717 5 view .LVU351
 959              		.loc 1 717 13 is_stmt 0 view .LVU352
 960 04a8 C9F80000 		str	r0, [r9]
 718:Drivers/CMSIS/DSP/Source/TransformFunctions/arm_cfft_radix4_q31.c ****     *ptr1++ = ya_out;
 961              		.loc 1 718 5 is_stmt 1 view .LVU353
 962              	.LVL117:
 963              		.loc 1 718 13 is_stmt 0 view .LVU354
 964 04ac C9F80410 		str	r1, [r9, #4]
 719:Drivers/CMSIS/DSP/Source/TransformFunctions/arm_cfft_radix4_q31.c **** 
 720:Drivers/CMSIS/DSP/Source/TransformFunctions/arm_cfft_radix4_q31.c ****     xc_out = (xa - xb + xc - xd);
 965              		.loc 1 720 5 is_stmt 1 view .LVU355
 966              		.loc 1 720 18 is_stmt 0 view .LVU356
 967 04b0 D01B     		subs	r0, r2, r7
 968              	.LVL118:
 969              		.loc 1 720 23 view .LVU357
 970 04b2 7044     		add	r0, r0, lr
 971              		.loc 1 720 12 view .LVU358
 972 04b4 401B     		subs	r0, r0, r5
ARM GAS  /tmp/ccuzNZ5H.s 			page 32


 973              	.LVL119:
 721:Drivers/CMSIS/DSP/Source/TransformFunctions/arm_cfft_radix4_q31.c ****     yc_out = (ya - yb + yc - yd);
 974              		.loc 1 721 5 is_stmt 1 view .LVU359
 975              		.loc 1 721 18 is_stmt 0 view .LVU360
 976 04b6 A3EB0801 		sub	r1, r3, r8
 977              	.LVL120:
 978              		.loc 1 721 23 view .LVU361
 979 04ba 3144     		add	r1, r1, r6
 980              		.loc 1 721 12 view .LVU362
 981 04bc A1EB0C01 		sub	r1, r1, ip
 982              	.LVL121:
 722:Drivers/CMSIS/DSP/Source/TransformFunctions/arm_cfft_radix4_q31.c **** 
 723:Drivers/CMSIS/DSP/Source/TransformFunctions/arm_cfft_radix4_q31.c ****     /* writing xc' and yc' */
 724:Drivers/CMSIS/DSP/Source/TransformFunctions/arm_cfft_radix4_q31.c ****     *ptr1++ = xc_out;
 983              		.loc 1 724 5 is_stmt 1 view .LVU363
 984              		.loc 1 724 13 is_stmt 0 view .LVU364
 985 04c0 C9F80800 		str	r0, [r9, #8]
 725:Drivers/CMSIS/DSP/Source/TransformFunctions/arm_cfft_radix4_q31.c ****     *ptr1++ = yc_out;
 986              		.loc 1 725 5 is_stmt 1 view .LVU365
 987              	.LVL122:
 988              		.loc 1 725 13 is_stmt 0 view .LVU366
 989 04c4 C9F80C10 		str	r1, [r9, #12]
 726:Drivers/CMSIS/DSP/Source/TransformFunctions/arm_cfft_radix4_q31.c **** 
 727:Drivers/CMSIS/DSP/Source/TransformFunctions/arm_cfft_radix4_q31.c ****     xb_out = (xa + yb - xc - yd);
 990              		.loc 1 727 5 is_stmt 1 view .LVU367
 991              		.loc 1 727 18 is_stmt 0 view .LVU368
 992 04c8 02EB0800 		add	r0, r2, r8
 993              	.LVL123:
 994              		.loc 1 727 23 view .LVU369
 995 04cc A0EB0E00 		sub	r0, r0, lr
 996              		.loc 1 727 12 view .LVU370
 997 04d0 A0EB0C00 		sub	r0, r0, ip
 998              	.LVL124:
 728:Drivers/CMSIS/DSP/Source/TransformFunctions/arm_cfft_radix4_q31.c ****     yb_out = (ya - xb - yc + xd);
 999              		.loc 1 728 5 is_stmt 1 view .LVU371
 1000              		.loc 1 728 18 is_stmt 0 view .LVU372
 1001 04d4 D91B     		subs	r1, r3, r7
 1002              	.LVL125:
 1003              		.loc 1 728 23 view .LVU373
 1004 04d6 891B     		subs	r1, r1, r6
 1005              		.loc 1 728 12 view .LVU374
 1006 04d8 2944     		add	r1, r1, r5
 1007              	.LVL126:
 729:Drivers/CMSIS/DSP/Source/TransformFunctions/arm_cfft_radix4_q31.c **** 
 730:Drivers/CMSIS/DSP/Source/TransformFunctions/arm_cfft_radix4_q31.c ****     /* writing xb' and yb' */
 731:Drivers/CMSIS/DSP/Source/TransformFunctions/arm_cfft_radix4_q31.c ****     *ptr1++ = xb_out;
 1008              		.loc 1 731 5 is_stmt 1 view .LVU375
 1009              		.loc 1 731 13 is_stmt 0 view .LVU376
 1010 04da C9F81000 		str	r0, [r9, #16]
 732:Drivers/CMSIS/DSP/Source/TransformFunctions/arm_cfft_radix4_q31.c ****     *ptr1++ = yb_out;
 1011              		.loc 1 732 5 is_stmt 1 view .LVU377
 1012              	.LVL127:
 1013              		.loc 1 732 13 is_stmt 0 view .LVU378
 1014 04de C9F81410 		str	r1, [r9, #20]
 733:Drivers/CMSIS/DSP/Source/TransformFunctions/arm_cfft_radix4_q31.c **** 
 734:Drivers/CMSIS/DSP/Source/TransformFunctions/arm_cfft_radix4_q31.c ****     xd_out = (xa - yb - xc + yd);
 1015              		.loc 1 734 5 is_stmt 1 view .LVU379
ARM GAS  /tmp/ccuzNZ5H.s 			page 33


 1016              		.loc 1 734 18 is_stmt 0 view .LVU380
 1017 04e2 A2EB0802 		sub	r2, r2, r8
 1018              	.LVL128:
 1019              		.loc 1 734 23 view .LVU381
 1020 04e6 A2EB0E02 		sub	r2, r2, lr
 1021              		.loc 1 734 12 view .LVU382
 1022 04ea 6244     		add	r2, r2, ip
 1023              	.LVL129:
 735:Drivers/CMSIS/DSP/Source/TransformFunctions/arm_cfft_radix4_q31.c ****     yd_out = (ya + xb - yc - xd);
 1024              		.loc 1 735 5 is_stmt 1 view .LVU383
 1025              		.loc 1 735 18 is_stmt 0 view .LVU384
 1026 04ec 3B44     		add	r3, r3, r7
 1027              	.LVL130:
 1028              		.loc 1 735 23 view .LVU385
 1029 04ee 9B1B     		subs	r3, r3, r6
 1030              		.loc 1 735 12 view .LVU386
 1031 04f0 5B1B     		subs	r3, r3, r5
 1032              	.LVL131:
 736:Drivers/CMSIS/DSP/Source/TransformFunctions/arm_cfft_radix4_q31.c **** 
 737:Drivers/CMSIS/DSP/Source/TransformFunctions/arm_cfft_radix4_q31.c ****     /* writing xd' and yd' */
 738:Drivers/CMSIS/DSP/Source/TransformFunctions/arm_cfft_radix4_q31.c ****     *ptr1++ = xd_out;
 1033              		.loc 1 738 5 is_stmt 1 view .LVU387
 1034              		.loc 1 738 13 is_stmt 0 view .LVU388
 1035 04f2 C9F81820 		str	r2, [r9, #24]
 739:Drivers/CMSIS/DSP/Source/TransformFunctions/arm_cfft_radix4_q31.c ****     *ptr1++ = yd_out;
 1036              		.loc 1 739 5 is_stmt 1 view .LVU389
 1037              	.LVL132:
 1038              		.loc 1 739 13 is_stmt 0 view .LVU390
 1039 04f6 C9F81C30 		str	r3, [r9, #28]
 1040 04fa 09F12009 		add	r9, r9, #32
 1041              	.LVL133:
 740:Drivers/CMSIS/DSP/Source/TransformFunctions/arm_cfft_radix4_q31.c **** 
 741:Drivers/CMSIS/DSP/Source/TransformFunctions/arm_cfft_radix4_q31.c **** 
 742:Drivers/CMSIS/DSP/Source/TransformFunctions/arm_cfft_radix4_q31.c ****   } while (--j);
 1042              		.loc 1 742 12 is_stmt 1 discriminator 1 view .LVU391
 1043              		.loc 1 742 12 is_stmt 0 discriminator 1 view .LVU392
 1044 04fe 013C     		subs	r4, r4, #1
 1045              	.LVL134:
 1046              		.loc 1 742 12 discriminator 1 view .LVU393
 1047 0500 BBD1     		bne	.L9
 743:Drivers/CMSIS/DSP/Source/TransformFunctions/arm_cfft_radix4_q31.c **** 
 744:Drivers/CMSIS/DSP/Source/TransformFunctions/arm_cfft_radix4_q31.c ****   /* output is in 11.21(q21) format for the 1024 point */
 745:Drivers/CMSIS/DSP/Source/TransformFunctions/arm_cfft_radix4_q31.c ****   /* output is in 9.23(q23) format for the 256 point */
 746:Drivers/CMSIS/DSP/Source/TransformFunctions/arm_cfft_radix4_q31.c ****   /* output is in 7.25(q25) format for the 64 point */
 747:Drivers/CMSIS/DSP/Source/TransformFunctions/arm_cfft_radix4_q31.c ****   /* output is in 5.27(q27) format for the 16 point */
 748:Drivers/CMSIS/DSP/Source/TransformFunctions/arm_cfft_radix4_q31.c **** 
 749:Drivers/CMSIS/DSP/Source/TransformFunctions/arm_cfft_radix4_q31.c ****   /* End of last stage process */
 750:Drivers/CMSIS/DSP/Source/TransformFunctions/arm_cfft_radix4_q31.c **** 
 751:Drivers/CMSIS/DSP/Source/TransformFunctions/arm_cfft_radix4_q31.c **** }
 1048              		.loc 1 751 1 view .LVU394
 1049 0502 19B0     		add	sp, sp, #100
 1050              	.LCFI2:
 1051              		.cfi_def_cfa_offset 36
 1052              		@ sp needed
 1053 0504 BDE8F08F 		pop	{r4, r5, r6, r7, r8, r9, r10, fp, pc}
 1054              		.loc 1 751 1 view .LVU395
 1055              		.cfi_endproc
ARM GAS  /tmp/ccuzNZ5H.s 			page 34


 1056              	.LFE136:
 1058              		.section	.text.arm_radix4_butterfly_inverse_q31,"ax",%progbits
 1059              		.align	1
 1060              		.global	arm_radix4_butterfly_inverse_q31
 1061              		.syntax unified
 1062              		.thumb
 1063              		.thumb_func
 1065              	arm_radix4_butterfly_inverse_q31:
 1066              	.LVL135:
 1067              	.LFB137:
 752:Drivers/CMSIS/DSP/Source/TransformFunctions/arm_cfft_radix4_q31.c **** 
 753:Drivers/CMSIS/DSP/Source/TransformFunctions/arm_cfft_radix4_q31.c **** 
 754:Drivers/CMSIS/DSP/Source/TransformFunctions/arm_cfft_radix4_q31.c **** /**
 755:Drivers/CMSIS/DSP/Source/TransformFunctions/arm_cfft_radix4_q31.c ****  * @brief  Core function for the Q31 CIFFT butterfly process.
 756:Drivers/CMSIS/DSP/Source/TransformFunctions/arm_cfft_radix4_q31.c ****  * @param[in, out] *pSrc            points to the in-place buffer of Q31 data type.
 757:Drivers/CMSIS/DSP/Source/TransformFunctions/arm_cfft_radix4_q31.c ****  * @param[in]      fftLen           length of the FFT.
 758:Drivers/CMSIS/DSP/Source/TransformFunctions/arm_cfft_radix4_q31.c ****  * @param[in]      *pCoef           points to twiddle coefficient buffer.
 759:Drivers/CMSIS/DSP/Source/TransformFunctions/arm_cfft_radix4_q31.c ****  * @param[in]      twidCoefModifier twiddle coefficient modifier that supports different size FFTs 
 760:Drivers/CMSIS/DSP/Source/TransformFunctions/arm_cfft_radix4_q31.c ****  * @return none.
 761:Drivers/CMSIS/DSP/Source/TransformFunctions/arm_cfft_radix4_q31.c ****  */
 762:Drivers/CMSIS/DSP/Source/TransformFunctions/arm_cfft_radix4_q31.c **** 
 763:Drivers/CMSIS/DSP/Source/TransformFunctions/arm_cfft_radix4_q31.c **** 
 764:Drivers/CMSIS/DSP/Source/TransformFunctions/arm_cfft_radix4_q31.c **** /*
 765:Drivers/CMSIS/DSP/Source/TransformFunctions/arm_cfft_radix4_q31.c **** * Radix-4 IFFT algorithm used is :
 766:Drivers/CMSIS/DSP/Source/TransformFunctions/arm_cfft_radix4_q31.c **** *
 767:Drivers/CMSIS/DSP/Source/TransformFunctions/arm_cfft_radix4_q31.c **** * CIFFT uses same twiddle coefficients as CFFT Function
 768:Drivers/CMSIS/DSP/Source/TransformFunctions/arm_cfft_radix4_q31.c **** *  x[k] = x[n] + (j)k * x[n + fftLen/4] + (-1)k * x[n+fftLen/2] + (-j)k * x[n+3*fftLen/4]
 769:Drivers/CMSIS/DSP/Source/TransformFunctions/arm_cfft_radix4_q31.c **** *
 770:Drivers/CMSIS/DSP/Source/TransformFunctions/arm_cfft_radix4_q31.c **** *
 771:Drivers/CMSIS/DSP/Source/TransformFunctions/arm_cfft_radix4_q31.c **** * IFFT is implemented with following changes in equations from FFT
 772:Drivers/CMSIS/DSP/Source/TransformFunctions/arm_cfft_radix4_q31.c **** *
 773:Drivers/CMSIS/DSP/Source/TransformFunctions/arm_cfft_radix4_q31.c **** * Input real and imaginary data:
 774:Drivers/CMSIS/DSP/Source/TransformFunctions/arm_cfft_radix4_q31.c **** * x(n) = xa + j * ya
 775:Drivers/CMSIS/DSP/Source/TransformFunctions/arm_cfft_radix4_q31.c **** * x(n+N/4 ) = xb + j * yb
 776:Drivers/CMSIS/DSP/Source/TransformFunctions/arm_cfft_radix4_q31.c **** * x(n+N/2 ) = xc + j * yc
 777:Drivers/CMSIS/DSP/Source/TransformFunctions/arm_cfft_radix4_q31.c **** * x(n+3N 4) = xd + j * yd
 778:Drivers/CMSIS/DSP/Source/TransformFunctions/arm_cfft_radix4_q31.c **** *
 779:Drivers/CMSIS/DSP/Source/TransformFunctions/arm_cfft_radix4_q31.c **** *
 780:Drivers/CMSIS/DSP/Source/TransformFunctions/arm_cfft_radix4_q31.c **** * Output real and imaginary data:
 781:Drivers/CMSIS/DSP/Source/TransformFunctions/arm_cfft_radix4_q31.c **** * x(4r) = xa'+ j * ya'
 782:Drivers/CMSIS/DSP/Source/TransformFunctions/arm_cfft_radix4_q31.c **** * x(4r+1) = xb'+ j * yb'
 783:Drivers/CMSIS/DSP/Source/TransformFunctions/arm_cfft_radix4_q31.c **** * x(4r+2) = xc'+ j * yc'
 784:Drivers/CMSIS/DSP/Source/TransformFunctions/arm_cfft_radix4_q31.c **** * x(4r+3) = xd'+ j * yd'
 785:Drivers/CMSIS/DSP/Source/TransformFunctions/arm_cfft_radix4_q31.c **** *
 786:Drivers/CMSIS/DSP/Source/TransformFunctions/arm_cfft_radix4_q31.c **** *
 787:Drivers/CMSIS/DSP/Source/TransformFunctions/arm_cfft_radix4_q31.c **** * Twiddle factors for radix-4 IFFT:
 788:Drivers/CMSIS/DSP/Source/TransformFunctions/arm_cfft_radix4_q31.c **** * Wn = co1 + j * (si1)
 789:Drivers/CMSIS/DSP/Source/TransformFunctions/arm_cfft_radix4_q31.c **** * W2n = co2 + j * (si2)
 790:Drivers/CMSIS/DSP/Source/TransformFunctions/arm_cfft_radix4_q31.c **** * W3n = co3 + j * (si3)
 791:Drivers/CMSIS/DSP/Source/TransformFunctions/arm_cfft_radix4_q31.c **** 
 792:Drivers/CMSIS/DSP/Source/TransformFunctions/arm_cfft_radix4_q31.c **** * The real and imaginary output values for the radix-4 butterfly are
 793:Drivers/CMSIS/DSP/Source/TransformFunctions/arm_cfft_radix4_q31.c **** * xa' = xa + xb + xc + xd
 794:Drivers/CMSIS/DSP/Source/TransformFunctions/arm_cfft_radix4_q31.c **** * ya' = ya + yb + yc + yd
 795:Drivers/CMSIS/DSP/Source/TransformFunctions/arm_cfft_radix4_q31.c **** * xb' = (xa-yb-xc+yd)* co1 - (ya+xb-yc-xd)* (si1)
 796:Drivers/CMSIS/DSP/Source/TransformFunctions/arm_cfft_radix4_q31.c **** * yb' = (ya+xb-yc-xd)* co1 + (xa-yb-xc+yd)* (si1)
 797:Drivers/CMSIS/DSP/Source/TransformFunctions/arm_cfft_radix4_q31.c **** * xc' = (xa-xb+xc-xd)* co2 - (ya-yb+yc-yd)* (si2)
 798:Drivers/CMSIS/DSP/Source/TransformFunctions/arm_cfft_radix4_q31.c **** * yc' = (ya-yb+yc-yd)* co2 + (xa-xb+xc-xd)* (si2)
ARM GAS  /tmp/ccuzNZ5H.s 			page 35


 799:Drivers/CMSIS/DSP/Source/TransformFunctions/arm_cfft_radix4_q31.c **** * xd' = (xa+yb-xc-yd)* co3 - (ya-xb-yc+xd)* (si3)
 800:Drivers/CMSIS/DSP/Source/TransformFunctions/arm_cfft_radix4_q31.c **** * yd' = (ya-xb-yc+xd)* co3 + (xa+yb-xc-yd)* (si3)
 801:Drivers/CMSIS/DSP/Source/TransformFunctions/arm_cfft_radix4_q31.c **** *
 802:Drivers/CMSIS/DSP/Source/TransformFunctions/arm_cfft_radix4_q31.c **** */
 803:Drivers/CMSIS/DSP/Source/TransformFunctions/arm_cfft_radix4_q31.c **** 
 804:Drivers/CMSIS/DSP/Source/TransformFunctions/arm_cfft_radix4_q31.c **** void arm_radix4_butterfly_inverse_q31(
 805:Drivers/CMSIS/DSP/Source/TransformFunctions/arm_cfft_radix4_q31.c ****   q31_t * pSrc,
 806:Drivers/CMSIS/DSP/Source/TransformFunctions/arm_cfft_radix4_q31.c ****   uint32_t fftLen,
 807:Drivers/CMSIS/DSP/Source/TransformFunctions/arm_cfft_radix4_q31.c ****   q31_t * pCoef,
 808:Drivers/CMSIS/DSP/Source/TransformFunctions/arm_cfft_radix4_q31.c ****   uint32_t twidCoefModifier)
 809:Drivers/CMSIS/DSP/Source/TransformFunctions/arm_cfft_radix4_q31.c **** {
 1068              		.loc 1 809 1 is_stmt 1 view -0
 1069              		.cfi_startproc
 1070              		@ args = 0, pretend = 0, frame = 96
 1071              		@ frame_needed = 0, uses_anonymous_args = 0
 1072              		.loc 1 809 1 is_stmt 0 view .LVU397
 1073 0000 2DE9F04F 		push	{r4, r5, r6, r7, r8, r9, r10, fp, lr}
 1074              	.LCFI3:
 1075              		.cfi_def_cfa_offset 36
 1076              		.cfi_offset 4, -36
 1077              		.cfi_offset 5, -32
 1078              		.cfi_offset 6, -28
 1079              		.cfi_offset 7, -24
 1080              		.cfi_offset 8, -20
 1081              		.cfi_offset 9, -16
 1082              		.cfi_offset 10, -12
 1083              		.cfi_offset 11, -8
 1084              		.cfi_offset 14, -4
 1085 0004 99B0     		sub	sp, sp, #100
 1086              	.LCFI4:
 1087              		.cfi_def_cfa_offset 136
 1088 0006 8146     		mov	r9, r0
 1089 0008 0D91     		str	r1, [sp, #52]
 1090 000a 0092     		str	r2, [sp]
 1091 000c 0C93     		str	r3, [sp, #48]
 810:Drivers/CMSIS/DSP/Source/TransformFunctions/arm_cfft_radix4_q31.c **** #if defined(ARM_MATH_CM7)
 811:Drivers/CMSIS/DSP/Source/TransformFunctions/arm_cfft_radix4_q31.c ****   uint32_t n1, n2, ia1, ia2, ia3, i0, i1, i2, i3, j, k;
 1092              		.loc 1 811 3 is_stmt 1 view .LVU398
 812:Drivers/CMSIS/DSP/Source/TransformFunctions/arm_cfft_radix4_q31.c ****   q31_t t1, t2, r1, r2, s1, s2, co1, co2, co3, si1, si2, si3;
 1093              		.loc 1 812 3 view .LVU399
 813:Drivers/CMSIS/DSP/Source/TransformFunctions/arm_cfft_radix4_q31.c ****   q31_t xa, xb, xc, xd;
 1094              		.loc 1 813 3 view .LVU400
 814:Drivers/CMSIS/DSP/Source/TransformFunctions/arm_cfft_radix4_q31.c ****   q31_t ya, yb, yc, yd;
 1095              		.loc 1 814 3 view .LVU401
 815:Drivers/CMSIS/DSP/Source/TransformFunctions/arm_cfft_radix4_q31.c ****   q31_t xa_out, xb_out, xc_out, xd_out;
 1096              		.loc 1 815 3 view .LVU402
 816:Drivers/CMSIS/DSP/Source/TransformFunctions/arm_cfft_radix4_q31.c ****   q31_t ya_out, yb_out, yc_out, yd_out;
 1097              		.loc 1 816 3 view .LVU403
 817:Drivers/CMSIS/DSP/Source/TransformFunctions/arm_cfft_radix4_q31.c **** 
 818:Drivers/CMSIS/DSP/Source/TransformFunctions/arm_cfft_radix4_q31.c ****   q31_t *ptr1;
 1098              		.loc 1 818 3 view .LVU404
 819:Drivers/CMSIS/DSP/Source/TransformFunctions/arm_cfft_radix4_q31.c ****   q63_t xaya, xbyb, xcyc, xdyd;
 1099              		.loc 1 819 3 view .LVU405
 820:Drivers/CMSIS/DSP/Source/TransformFunctions/arm_cfft_radix4_q31.c **** 
 821:Drivers/CMSIS/DSP/Source/TransformFunctions/arm_cfft_radix4_q31.c ****   /* input is be 1.31(q31) format for all FFT sizes */
 822:Drivers/CMSIS/DSP/Source/TransformFunctions/arm_cfft_radix4_q31.c ****   /* Total process is divided into three stages */
 823:Drivers/CMSIS/DSP/Source/TransformFunctions/arm_cfft_radix4_q31.c ****   /* process first stage, middle stages, & last stage */
ARM GAS  /tmp/ccuzNZ5H.s 			page 36


 824:Drivers/CMSIS/DSP/Source/TransformFunctions/arm_cfft_radix4_q31.c **** 
 825:Drivers/CMSIS/DSP/Source/TransformFunctions/arm_cfft_radix4_q31.c ****   /* Start of first stage process */
 826:Drivers/CMSIS/DSP/Source/TransformFunctions/arm_cfft_radix4_q31.c **** 
 827:Drivers/CMSIS/DSP/Source/TransformFunctions/arm_cfft_radix4_q31.c ****   /* Initializations for the first stage */
 828:Drivers/CMSIS/DSP/Source/TransformFunctions/arm_cfft_radix4_q31.c ****   n2 = fftLen;
 1100              		.loc 1 828 3 view .LVU406
 1101              	.LVL136:
 829:Drivers/CMSIS/DSP/Source/TransformFunctions/arm_cfft_radix4_q31.c ****   n1 = n2;
 1102              		.loc 1 829 3 view .LVU407
 830:Drivers/CMSIS/DSP/Source/TransformFunctions/arm_cfft_radix4_q31.c ****   /* n2 = fftLen/4 */
 831:Drivers/CMSIS/DSP/Source/TransformFunctions/arm_cfft_radix4_q31.c ****   n2 >>= 2U;
 1103              		.loc 1 831 3 view .LVU408
 1104              		.loc 1 831 6 is_stmt 0 view .LVU409
 1105 000e 8B08     		lsrs	r3, r1, #2
 1106              	.LVL137:
 1107              		.loc 1 831 6 view .LVU410
 1108 0010 1793     		str	r3, [sp, #92]
 1109              	.LVL138:
 832:Drivers/CMSIS/DSP/Source/TransformFunctions/arm_cfft_radix4_q31.c ****   i0 = 0U;
 1110              		.loc 1 832 3 is_stmt 1 view .LVU411
 833:Drivers/CMSIS/DSP/Source/TransformFunctions/arm_cfft_radix4_q31.c ****   ia1 = 0U;
 1111              		.loc 1 833 3 view .LVU412
 834:Drivers/CMSIS/DSP/Source/TransformFunctions/arm_cfft_radix4_q31.c **** 
 835:Drivers/CMSIS/DSP/Source/TransformFunctions/arm_cfft_radix4_q31.c ****   j = n2;
 1112              		.loc 1 835 3 view .LVU413
 1113              		.loc 1 835 5 is_stmt 0 view .LVU414
 1114 0012 1593     		str	r3, [sp, #84]
 832:Drivers/CMSIS/DSP/Source/TransformFunctions/arm_cfft_radix4_q31.c ****   ia1 = 0U;
 1115              		.loc 1 832 6 view .LVU415
 1116 0014 0024     		movs	r4, #0
 833:Drivers/CMSIS/DSP/Source/TransformFunctions/arm_cfft_radix4_q31.c ****   ia1 = 0U;
 1117              		.loc 1 833 7 view .LVU416
 1118 0016 0194     		str	r4, [sp, #4]
 1119 0018 A246     		mov	r10, r4
 1120              	.LVL139:
 1121              	.L14:
 836:Drivers/CMSIS/DSP/Source/TransformFunctions/arm_cfft_radix4_q31.c **** 
 837:Drivers/CMSIS/DSP/Source/TransformFunctions/arm_cfft_radix4_q31.c ****   do
 1122              		.loc 1 837 3 is_stmt 1 view .LVU417
 838:Drivers/CMSIS/DSP/Source/TransformFunctions/arm_cfft_radix4_q31.c ****   {
 839:Drivers/CMSIS/DSP/Source/TransformFunctions/arm_cfft_radix4_q31.c **** 
 840:Drivers/CMSIS/DSP/Source/TransformFunctions/arm_cfft_radix4_q31.c ****     /* input is in 1.31(q31) format and provide 4 guard bits for the input */
 841:Drivers/CMSIS/DSP/Source/TransformFunctions/arm_cfft_radix4_q31.c **** 
 842:Drivers/CMSIS/DSP/Source/TransformFunctions/arm_cfft_radix4_q31.c ****     /*  index calculation for the input as, */
 843:Drivers/CMSIS/DSP/Source/TransformFunctions/arm_cfft_radix4_q31.c ****     /*  pSrc[i0 + 0], pSrc[i0 + fftLen/4], pSrc[i0 + fftLen/2U], pSrc[i0 + 3fftLen/4] */
 844:Drivers/CMSIS/DSP/Source/TransformFunctions/arm_cfft_radix4_q31.c ****     i1 = i0 + n2;
 1123              		.loc 1 844 5 view .LVU418
 1124              		.loc 1 844 8 is_stmt 0 view .LVU419
 1125 001a 179A     		ldr	r2, [sp, #92]
 1126 001c 0AEB020C 		add	ip, r10, r2
 1127              	.LVL140:
 845:Drivers/CMSIS/DSP/Source/TransformFunctions/arm_cfft_radix4_q31.c ****     i2 = i1 + n2;
 1128              		.loc 1 845 5 is_stmt 1 view .LVU420
 1129              		.loc 1 845 8 is_stmt 0 view .LVU421
 1130 0020 0AEB4203 		add	r3, r10, r2, lsl #1
 1131              	.LVL141:
 846:Drivers/CMSIS/DSP/Source/TransformFunctions/arm_cfft_radix4_q31.c ****     i3 = i2 + n2;
ARM GAS  /tmp/ccuzNZ5H.s 			page 37


 1132              		.loc 1 846 5 is_stmt 1 view .LVU422
 1133              		.loc 1 846 8 is_stmt 0 view .LVU423
 1134 0024 02EB030B 		add	fp, r2, r3
 1135              	.LVL142:
 847:Drivers/CMSIS/DSP/Source/TransformFunctions/arm_cfft_radix4_q31.c **** 
 848:Drivers/CMSIS/DSP/Source/TransformFunctions/arm_cfft_radix4_q31.c ****     /*  Butterfly implementation */
 849:Drivers/CMSIS/DSP/Source/TransformFunctions/arm_cfft_radix4_q31.c ****     /* xa + xc */
 850:Drivers/CMSIS/DSP/Source/TransformFunctions/arm_cfft_radix4_q31.c ****     r1 = (pSrc[2U * i0] >> 4U) + (pSrc[2U * i2] >> 4U);
 1136              		.loc 1 850 5 is_stmt 1 view .LVU424
 1137              		.loc 1 850 15 is_stmt 0 view .LVU425
 1138 0028 4FEACA00 		lsl	r0, r10, #3
 1139 002c 59F83A10 		ldr	r1, [r9, r10, lsl #3]
 1140              		.loc 1 850 39 view .LVU426
 1141 0030 DF00     		lsls	r7, r3, #3
 1142 0032 0393     		str	r3, [sp, #12]
 1143 0034 59F83330 		ldr	r3, [r9, r3, lsl #3]
 1144              	.LVL143:
 1145              		.loc 1 850 49 view .LVU427
 1146 0038 1B11     		asrs	r3, r3, #4
 1147              		.loc 1 850 8 view .LVU428
 1148 003a 03EB2112 		add	r2, r3, r1, asr #4
 1149              	.LVL144:
 851:Drivers/CMSIS/DSP/Source/TransformFunctions/arm_cfft_radix4_q31.c ****     /* xa - xc */
 852:Drivers/CMSIS/DSP/Source/TransformFunctions/arm_cfft_radix4_q31.c ****     r2 = (pSrc[2U * i0] >> 4U) - (pSrc[2U * i2] >> 4U);
 1150              		.loc 1 852 5 is_stmt 1 view .LVU429
 1151              		.loc 1 852 8 is_stmt 0 view .LVU430
 1152 003e C3EB2111 		rsb	r1, r3, r1, asr #4
 1153 0042 0891     		str	r1, [sp, #32]
 1154              	.LVL145:
 853:Drivers/CMSIS/DSP/Source/TransformFunctions/arm_cfft_radix4_q31.c **** 
 854:Drivers/CMSIS/DSP/Source/TransformFunctions/arm_cfft_radix4_q31.c ****     /* xb + xd */
 855:Drivers/CMSIS/DSP/Source/TransformFunctions/arm_cfft_radix4_q31.c ****     t1 = (pSrc[2U * i1] >> 4U) + (pSrc[2U * i3] >> 4U);
 1155              		.loc 1 855 5 is_stmt 1 view .LVU431
 1156              		.loc 1 855 15 is_stmt 0 view .LVU432
 1157 0044 4FEACC06 		lsl	r6, ip, #3
 1158 0048 59F83C50 		ldr	r5, [r9, ip, lsl #3]
 1159              		.loc 1 855 39 view .LVU433
 1160 004c 4FEACB04 		lsl	r4, fp, #3
 1161 0050 59F83B30 		ldr	r3, [r9, fp, lsl #3]
 1162              		.loc 1 855 49 view .LVU434
 1163 0054 1B11     		asrs	r3, r3, #4
 1164              		.loc 1 855 8 view .LVU435
 1165 0056 03EB2511 		add	r1, r3, r5, asr #4
 1166              	.LVL146:
 856:Drivers/CMSIS/DSP/Source/TransformFunctions/arm_cfft_radix4_q31.c **** 
 857:Drivers/CMSIS/DSP/Source/TransformFunctions/arm_cfft_radix4_q31.c ****     /* ya + yc */
 858:Drivers/CMSIS/DSP/Source/TransformFunctions/arm_cfft_radix4_q31.c ****     s1 = (pSrc[(2U * i0) + 1U] >> 4U) + (pSrc[(2U * i2) + 1U] >> 4U);
 1167              		.loc 1 858 5 is_stmt 1 view .LVU436
 1168              		.loc 1 858 15 is_stmt 0 view .LVU437
 1169 005a 0430     		adds	r0, r0, #4
 1170 005c 59F80050 		ldr	r5, [r9, r0]
 1171              		.loc 1 858 46 view .LVU438
 1172 0060 0437     		adds	r7, r7, #4
 1173 0062 0497     		str	r7, [sp, #16]
 1174 0064 59F80730 		ldr	r3, [r9, r7]
 1175              		.loc 1 858 63 view .LVU439
 1176 0068 1F11     		asrs	r7, r3, #4
ARM GAS  /tmp/ccuzNZ5H.s 			page 38


 1177              		.loc 1 858 8 view .LVU440
 1178 006a 07EB2513 		add	r3, r7, r5, asr #4
 1179              	.LVL147:
 859:Drivers/CMSIS/DSP/Source/TransformFunctions/arm_cfft_radix4_q31.c ****     /* ya - yc */
 860:Drivers/CMSIS/DSP/Source/TransformFunctions/arm_cfft_radix4_q31.c ****     s2 = (pSrc[(2U * i0) + 1U] >> 4U) - (pSrc[(2U * i2) + 1U] >> 4U);
 1180              		.loc 1 860 5 is_stmt 1 view .LVU441
 1181              		.loc 1 860 8 is_stmt 0 view .LVU442
 1182 006e C7EB2515 		rsb	r5, r7, r5, asr #4
 1183 0072 0995     		str	r5, [sp, #36]
 1184              	.LVL148:
 861:Drivers/CMSIS/DSP/Source/TransformFunctions/arm_cfft_radix4_q31.c **** 
 862:Drivers/CMSIS/DSP/Source/TransformFunctions/arm_cfft_radix4_q31.c ****     /* xa' = xa + xb + xc + xd */
 863:Drivers/CMSIS/DSP/Source/TransformFunctions/arm_cfft_radix4_q31.c ****     pSrc[2U * i0] = (r1 + t1);
 1185              		.loc 1 863 5 is_stmt 1 view .LVU443
 1186              		.loc 1 863 25 is_stmt 0 view .LVU444
 1187 0074 5518     		adds	r5, r2, r1
 1188              	.LVL149:
 1189              		.loc 1 863 19 view .LVU445
 1190 0076 49F83A50 		str	r5, [r9, r10, lsl #3]
 864:Drivers/CMSIS/DSP/Source/TransformFunctions/arm_cfft_radix4_q31.c ****     /* (xa + xc) - (xb + xd) */
 865:Drivers/CMSIS/DSP/Source/TransformFunctions/arm_cfft_radix4_q31.c ****     r1 = r1 - t1;
 1191              		.loc 1 865 5 is_stmt 1 view .LVU446
 1192              		.loc 1 865 8 is_stmt 0 view .LVU447
 1193 007a 521A     		subs	r2, r2, r1
 1194              	.LVL150:
 866:Drivers/CMSIS/DSP/Source/TransformFunctions/arm_cfft_radix4_q31.c ****     /* yb + yd */
 867:Drivers/CMSIS/DSP/Source/TransformFunctions/arm_cfft_radix4_q31.c ****     t2 = (pSrc[(2U * i1) + 1U] >> 4U) + (pSrc[(2U * i3) + 1U] >> 4U);
 1195              		.loc 1 867 5 is_stmt 1 view .LVU448
 1196              		.loc 1 867 15 is_stmt 0 view .LVU449
 1197 007c 06F1040E 		add	lr, r6, #4
 1198 0080 59F80E50 		ldr	r5, [r9, lr]
 1199              		.loc 1 867 46 view .LVU450
 1200 0084 261D     		adds	r6, r4, #4
 1201 0086 59F80610 		ldr	r1, [r9, r6]
 1202              	.LVL151:
 1203              		.loc 1 867 63 view .LVU451
 1204 008a 0911     		asrs	r1, r1, #4
 1205              		.loc 1 867 8 view .LVU452
 1206 008c 01EB2511 		add	r1, r1, r5, asr #4
 1207              	.LVL152:
 868:Drivers/CMSIS/DSP/Source/TransformFunctions/arm_cfft_radix4_q31.c ****     /* ya' = ya + yb + yc + yd */
 869:Drivers/CMSIS/DSP/Source/TransformFunctions/arm_cfft_radix4_q31.c ****     pSrc[(2U * i0) + 1U] = (s1 + t2);
 1208              		.loc 1 869 5 is_stmt 1 view .LVU453
 1209              		.loc 1 869 32 is_stmt 0 view .LVU454
 1210 0090 5C18     		adds	r4, r3, r1
 1211              		.loc 1 869 26 view .LVU455
 1212 0092 49F80040 		str	r4, [r9, r0]
 870:Drivers/CMSIS/DSP/Source/TransformFunctions/arm_cfft_radix4_q31.c **** 
 871:Drivers/CMSIS/DSP/Source/TransformFunctions/arm_cfft_radix4_q31.c ****     /* (ya + yc) - (yb + yd) */
 872:Drivers/CMSIS/DSP/Source/TransformFunctions/arm_cfft_radix4_q31.c ****     s1 = s1 - t2;
 1213              		.loc 1 872 5 is_stmt 1 view .LVU456
 1214              		.loc 1 872 8 is_stmt 0 view .LVU457
 1215 0096 5B1A     		subs	r3, r3, r1
 1216              	.LVL153:
 873:Drivers/CMSIS/DSP/Source/TransformFunctions/arm_cfft_radix4_q31.c **** 
 874:Drivers/CMSIS/DSP/Source/TransformFunctions/arm_cfft_radix4_q31.c ****     /* yb - yd */
 875:Drivers/CMSIS/DSP/Source/TransformFunctions/arm_cfft_radix4_q31.c ****     t1 = (pSrc[(2U * i1) + 1U] >> 4U) - (pSrc[(2U * i3) + 1U] >> 4U);
ARM GAS  /tmp/ccuzNZ5H.s 			page 39


 1217              		.loc 1 875 5 is_stmt 1 view .LVU458
 1218              		.loc 1 875 15 is_stmt 0 view .LVU459
 1219 0098 59F80E00 		ldr	r0, [r9, lr]
 1220              		.loc 1 875 46 view .LVU460
 1221 009c 0596     		str	r6, [sp, #20]
 1222 009e 59F80610 		ldr	r1, [r9, r6]
 1223              	.LVL154:
 1224              		.loc 1 875 63 view .LVU461
 1225 00a2 0911     		asrs	r1, r1, #4
 1226              		.loc 1 875 8 view .LVU462
 1227 00a4 C1EB2011 		rsb	r1, r1, r0, asr #4
 1228 00a8 0A91     		str	r1, [sp, #40]
 1229              	.LVL155:
 876:Drivers/CMSIS/DSP/Source/TransformFunctions/arm_cfft_radix4_q31.c ****     /* xb - xd */
 877:Drivers/CMSIS/DSP/Source/TransformFunctions/arm_cfft_radix4_q31.c ****     t2 = (pSrc[2U * i1] >> 4U) - (pSrc[2U * i3] >> 4U);
 1230              		.loc 1 877 5 is_stmt 1 view .LVU463
 1231              		.loc 1 877 15 is_stmt 0 view .LVU464
 1232 00aa 59F83C00 		ldr	r0, [r9, ip, lsl #3]
 1233              		.loc 1 877 39 view .LVU465
 1234 00ae 59F83B10 		ldr	r1, [r9, fp, lsl #3]
 1235              	.LVL156:
 1236              		.loc 1 877 49 view .LVU466
 1237 00b2 0911     		asrs	r1, r1, #4
 1238              		.loc 1 877 8 view .LVU467
 1239 00b4 C1EB2010 		rsb	r0, r1, r0, asr #4
 1240 00b8 0B90     		str	r0, [sp, #44]
 1241              	.LVL157:
 878:Drivers/CMSIS/DSP/Source/TransformFunctions/arm_cfft_radix4_q31.c **** 
 879:Drivers/CMSIS/DSP/Source/TransformFunctions/arm_cfft_radix4_q31.c ****     /*  index calculation for the coefficients */
 880:Drivers/CMSIS/DSP/Source/TransformFunctions/arm_cfft_radix4_q31.c ****     ia2 = 2U * ia1;
 1242              		.loc 1 880 5 is_stmt 1 view .LVU468
 881:Drivers/CMSIS/DSP/Source/TransformFunctions/arm_cfft_radix4_q31.c ****     co2 = pCoef[ia2 * 2U];
 1243              		.loc 1 881 5 view .LVU469
 1244              		.loc 1 881 16 is_stmt 0 view .LVU470
 1245 00ba 019C     		ldr	r4, [sp, #4]
 1246 00bc 2101     		lsls	r1, r4, #4
 1247              		.loc 1 881 9 view .LVU471
 1248 00be 0098     		ldr	r0, [sp]
 1249              	.LVL158:
 1250              		.loc 1 881 9 view .LVU472
 1251 00c0 4558     		ldr	r5, [r0, r1]
 1252              	.LVL159:
 882:Drivers/CMSIS/DSP/Source/TransformFunctions/arm_cfft_radix4_q31.c ****     si2 = pCoef[(ia2 * 2U) + 1U];
 1253              		.loc 1 882 5 is_stmt 1 view .LVU473
 1254              		.loc 1 882 16 is_stmt 0 view .LVU474
 1255 00c2 0431     		adds	r1, r1, #4
 1256              		.loc 1 882 9 view .LVU475
 1257 00c4 4158     		ldr	r1, [r0, r1]
 1258              	.LVL160:
 883:Drivers/CMSIS/DSP/Source/TransformFunctions/arm_cfft_radix4_q31.c **** 
 884:Drivers/CMSIS/DSP/Source/TransformFunctions/arm_cfft_radix4_q31.c ****     /* xc' = (xa-xb+xc-xd)co2 - (ya-yb+yc-yd)(si2) */
 885:Drivers/CMSIS/DSP/Source/TransformFunctions/arm_cfft_radix4_q31.c ****     pSrc[2U * i1] = (((int32_t) (((q63_t) r1 * co2) >> 32)) -
 1259              		.loc 1 885 5 is_stmt 1 view .LVU476
 1260              		.loc 1 885 35 is_stmt 0 view .LVU477
 1261 00c6 D417     		asrs	r4, r2, #31
 1262              		.loc 1 885 46 view .LVU478
 1263 00c8 EE17     		asrs	r6, r5, #31
ARM GAS  /tmp/ccuzNZ5H.s 			page 40


 1264 00ca 0796     		str	r6, [sp, #28]
 1265 00cc 02FB06F0 		mul	r0, r2, r6
 1266 00d0 0694     		str	r4, [sp, #24]
 1267 00d2 05FB0400 		mla	r0, r5, r4, r0
 1268 00d6 0292     		str	r2, [sp, #8]
 1269 00d8 A2FB0564 		umull	r6, r4, r2, r5
 1270 00dc 2044     		add	r0, r0, r4
 886:Drivers/CMSIS/DSP/Source/TransformFunctions/arm_cfft_radix4_q31.c ****                      ((int32_t) (((q63_t) s1 * si2) >> 32))) << 1U;
 1271              		.loc 1 886 35 view .LVU479
 1272 00de DE17     		asrs	r6, r3, #31
 1273              		.loc 1 886 46 view .LVU480
 1274 00e0 CC17     		asrs	r4, r1, #31
 1275 00e2 03FB04F7 		mul	r7, r3, r4
 1276 00e6 01FB0677 		mla	r7, r1, r6, r7
 1277 00ea A3FB0182 		umull	r8, r2, r3, r1
 1278              	.LVL161:
 1279              		.loc 1 886 46 view .LVU481
 1280 00ee 1744     		add	r7, r7, r2
 885:Drivers/CMSIS/DSP/Source/TransformFunctions/arm_cfft_radix4_q31.c ****                      ((int32_t) (((q63_t) s1 * si2) >> 32))) << 1U;
 1281              		.loc 1 885 61 view .LVU482
 1282 00f0 C01B     		subs	r0, r0, r7
 1283              		.loc 1 886 62 view .LVU483
 1284 00f2 4000     		lsls	r0, r0, #1
 885:Drivers/CMSIS/DSP/Source/TransformFunctions/arm_cfft_radix4_q31.c ****                      ((int32_t) (((q63_t) s1 * si2) >> 32))) << 1U;
 1285              		.loc 1 885 19 view .LVU484
 1286 00f4 49F83C00 		str	r0, [r9, ip, lsl #3]
 887:Drivers/CMSIS/DSP/Source/TransformFunctions/arm_cfft_radix4_q31.c **** 
 888:Drivers/CMSIS/DSP/Source/TransformFunctions/arm_cfft_radix4_q31.c ****     /* yc' = (ya-yb+yc-yd)co2 + (xa-xb+xc-xd)(si2) */
 889:Drivers/CMSIS/DSP/Source/TransformFunctions/arm_cfft_radix4_q31.c ****     pSrc[2U * i1 + 1U] = (((int32_t) (((q63_t) s1 * co2) >> 32)) +
 1287              		.loc 1 889 5 is_stmt 1 view .LVU485
 1288              		.loc 1 889 51 is_stmt 0 view .LVU486
 1289 00f8 05FB06F6 		mul	r6, r5, r6
 1290 00fc 0798     		ldr	r0, [sp, #28]
 1291 00fe 03FB0066 		mla	r6, r3, r0, r6
 1292 0102 A5FB0353 		umull	r5, r3, r5, r3
 1293              	.LVL162:
 1294              		.loc 1 889 51 view .LVU487
 1295 0106 3344     		add	r3, r3, r6
 890:Drivers/CMSIS/DSP/Source/TransformFunctions/arm_cfft_radix4_q31.c ****                           ((int32_t) (((q63_t) r1 * si2) >> 32))) << 1U;
 1296              		.loc 1 890 51 view .LVU488
 1297 0108 029A     		ldr	r2, [sp, #8]
 1298 010a 02FB04F4 		mul	r4, r2, r4
 1299 010e 069D     		ldr	r5, [sp, #24]
 1300 0110 01FB0544 		mla	r4, r1, r5, r4
 1301 0114 A2FB0121 		umull	r2, r1, r2, r1
 1302              	.LVL163:
 1303              		.loc 1 890 51 view .LVU489
 1304 0118 0C44     		add	r4, r4, r1
 889:Drivers/CMSIS/DSP/Source/TransformFunctions/arm_cfft_radix4_q31.c ****                           ((int32_t) (((q63_t) r1 * si2) >> 32))) << 1U;
 1305              		.loc 1 889 66 view .LVU490
 1306 011a 2344     		add	r3, r3, r4
 1307              		.loc 1 890 67 view .LVU491
 1308 011c 5B00     		lsls	r3, r3, #1
 889:Drivers/CMSIS/DSP/Source/TransformFunctions/arm_cfft_radix4_q31.c ****                           ((int32_t) (((q63_t) r1 * si2) >> 32))) << 1U;
 1309              		.loc 1 889 24 view .LVU492
 1310 011e 49F80E30 		str	r3, [r9, lr]
 891:Drivers/CMSIS/DSP/Source/TransformFunctions/arm_cfft_radix4_q31.c **** 
ARM GAS  /tmp/ccuzNZ5H.s 			page 41


 892:Drivers/CMSIS/DSP/Source/TransformFunctions/arm_cfft_radix4_q31.c ****     /* (xa - xc) - (yb - yd) */
 893:Drivers/CMSIS/DSP/Source/TransformFunctions/arm_cfft_radix4_q31.c ****     r1 = r2 - t1;
 1311              		.loc 1 893 5 is_stmt 1 view .LVU493
 1312              		.loc 1 893 8 is_stmt 0 view .LVU494
 1313 0122 089A     		ldr	r2, [sp, #32]
 1314 0124 0A9B     		ldr	r3, [sp, #40]
 1315 0126 D51A     		subs	r5, r2, r3
 1316              	.LVL164:
 894:Drivers/CMSIS/DSP/Source/TransformFunctions/arm_cfft_radix4_q31.c ****     /* (xa - xc) + (yb - yd) */
 895:Drivers/CMSIS/DSP/Source/TransformFunctions/arm_cfft_radix4_q31.c ****     r2 = r2 + t1;
 1317              		.loc 1 895 5 is_stmt 1 view .LVU495
 1318              		.loc 1 895 8 is_stmt 0 view .LVU496
 1319 0128 1344     		add	r3, r3, r2
 1320 012a 9846     		mov	r8, r3
 1321              	.LVL165:
 896:Drivers/CMSIS/DSP/Source/TransformFunctions/arm_cfft_radix4_q31.c **** 
 897:Drivers/CMSIS/DSP/Source/TransformFunctions/arm_cfft_radix4_q31.c ****     /* (ya - yc) + (xb - xd) */
 898:Drivers/CMSIS/DSP/Source/TransformFunctions/arm_cfft_radix4_q31.c ****     s1 = s2 + t2;
 1322              		.loc 1 898 5 is_stmt 1 view .LVU497
 1323              		.loc 1 898 8 is_stmt 0 view .LVU498
 1324 012c 0999     		ldr	r1, [sp, #36]
 1325 012e 0B9B     		ldr	r3, [sp, #44]
 1326              	.LVL166:
 1327              		.loc 1 898 8 view .LVU499
 1328 0130 CA18     		adds	r2, r1, r3
 1329              	.LVL167:
 899:Drivers/CMSIS/DSP/Source/TransformFunctions/arm_cfft_radix4_q31.c ****     /* (ya - yc) - (xb - xd) */
 900:Drivers/CMSIS/DSP/Source/TransformFunctions/arm_cfft_radix4_q31.c ****     s2 = s2 - t2;
 1330              		.loc 1 900 5 is_stmt 1 view .LVU500
 1331              		.loc 1 900 8 is_stmt 0 view .LVU501
 1332 0132 CB1A     		subs	r3, r1, r3
 1333 0134 0293     		str	r3, [sp, #8]
 1334              	.LVL168:
 901:Drivers/CMSIS/DSP/Source/TransformFunctions/arm_cfft_radix4_q31.c **** 
 902:Drivers/CMSIS/DSP/Source/TransformFunctions/arm_cfft_radix4_q31.c ****     co1 = pCoef[ia1 * 2U];
 1335              		.loc 1 902 5 is_stmt 1 view .LVU502
 1336              		.loc 1 902 16 is_stmt 0 view .LVU503
 1337 0136 019C     		ldr	r4, [sp, #4]
 1338 0138 E100     		lsls	r1, r4, #3
 1339              		.loc 1 902 9 view .LVU504
 1340 013a 0098     		ldr	r0, [sp]
 1341 013c 50F83460 		ldr	r6, [r0, r4, lsl #3]
 1342              	.LVL169:
 903:Drivers/CMSIS/DSP/Source/TransformFunctions/arm_cfft_radix4_q31.c ****     si1 = pCoef[(ia1 * 2U) + 1U];
 1343              		.loc 1 903 5 is_stmt 1 view .LVU505
 1344              		.loc 1 903 16 is_stmt 0 view .LVU506
 1345 0140 0431     		adds	r1, r1, #4
 1346              		.loc 1 903 9 view .LVU507
 1347 0142 4158     		ldr	r1, [r0, r1]
 1348              	.LVL170:
 904:Drivers/CMSIS/DSP/Source/TransformFunctions/arm_cfft_radix4_q31.c **** 
 905:Drivers/CMSIS/DSP/Source/TransformFunctions/arm_cfft_radix4_q31.c ****     /* xb' = (xa+yb-xc-yd)co1 - (ya-xb-yc+xd)(si1) */
 906:Drivers/CMSIS/DSP/Source/TransformFunctions/arm_cfft_radix4_q31.c ****     pSrc[2U * i2] = (((int32_t) (((q63_t) r1 * co1) >> 32)) -
 1349              		.loc 1 906 5 is_stmt 1 view .LVU508
 1350              		.loc 1 906 35 is_stmt 0 view .LVU509
 1351 0144 4FEAE57E 		asr	lr, r5, #31
 1352              		.loc 1 906 46 view .LVU510
ARM GAS  /tmp/ccuzNZ5H.s 			page 42


 1353 0148 F417     		asrs	r4, r6, #31
 1354 014a 0694     		str	r4, [sp, #24]
 1355 014c 05FB04F0 		mul	r0, r5, r4
 1356 0150 06FB0E00 		mla	r0, r6, lr, r0
 1357 0154 A5FB0674 		umull	r7, r4, r5, r6
 1358 0158 2044     		add	r0, r0, r4
 907:Drivers/CMSIS/DSP/Source/TransformFunctions/arm_cfft_radix4_q31.c ****                      ((int32_t) (((q63_t) s1 * si1) >> 32))) << 1U;
 1359              		.loc 1 907 35 view .LVU511
 1360 015a D717     		asrs	r7, r2, #31
 1361              		.loc 1 907 46 view .LVU512
 1362 015c CC17     		asrs	r4, r1, #31
 1363 015e 02FB04FC 		mul	ip, r2, r4
 1364              	.LVL171:
 1365              		.loc 1 907 46 view .LVU513
 1366 0162 0797     		str	r7, [sp, #28]
 1367 0164 01FB07C3 		mla	r3, r1, r7, ip
 1368              	.LVL172:
 1369              		.loc 1 907 46 view .LVU514
 1370 0168 A2FB01C7 		umull	ip, r7, r2, r1
 1371 016c 3B44     		add	r3, r3, r7
 906:Drivers/CMSIS/DSP/Source/TransformFunctions/arm_cfft_radix4_q31.c ****                      ((int32_t) (((q63_t) s1 * si1) >> 32))) << 1U;
 1372              		.loc 1 906 61 view .LVU515
 1373 016e C01A     		subs	r0, r0, r3
 1374              		.loc 1 907 62 view .LVU516
 1375 0170 4000     		lsls	r0, r0, #1
 906:Drivers/CMSIS/DSP/Source/TransformFunctions/arm_cfft_radix4_q31.c ****                      ((int32_t) (((q63_t) s1 * si1) >> 32))) << 1U;
 1376              		.loc 1 906 19 view .LVU517
 1377 0172 039F     		ldr	r7, [sp, #12]
 1378 0174 49F83700 		str	r0, [r9, r7, lsl #3]
 908:Drivers/CMSIS/DSP/Source/TransformFunctions/arm_cfft_radix4_q31.c **** 
 909:Drivers/CMSIS/DSP/Source/TransformFunctions/arm_cfft_radix4_q31.c ****     /* yb' = (ya-xb-yc+xd)co1 + (xa+yb-xc-yd)(si1) */
 910:Drivers/CMSIS/DSP/Source/TransformFunctions/arm_cfft_radix4_q31.c ****     pSrc[(2U * i2) + 1U] = (((int32_t) (((q63_t) s1 * co1) >> 32)) +
 1379              		.loc 1 910 5 is_stmt 1 view .LVU518
 1380              		.loc 1 910 53 is_stmt 0 view .LVU519
 1381 0178 079F     		ldr	r7, [sp, #28]
 1382 017a 06FB07F7 		mul	r7, r6, r7
 1383 017e 0698     		ldr	r0, [sp, #24]
 1384 0180 02FB0077 		mla	r7, r2, r0, r7
 1385 0184 A6FB0262 		umull	r6, r2, r6, r2
 1386              	.LVL173:
 1387              		.loc 1 910 53 view .LVU520
 1388 0188 3A44     		add	r2, r2, r7
 911:Drivers/CMSIS/DSP/Source/TransformFunctions/arm_cfft_radix4_q31.c ****                             ((int32_t) (((q63_t) r1 * si1) >> 32))) << 1U;
 1389              		.loc 1 911 53 view .LVU521
 1390 018a 05FB04F4 		mul	r4, r5, r4
 1391 018e 01FB0E44 		mla	r4, r1, lr, r4
 1392 0192 A5FB0151 		umull	r5, r1, r5, r1
 1393              	.LVL174:
 1394              		.loc 1 911 53 view .LVU522
 1395 0196 0C44     		add	r4, r4, r1
 910:Drivers/CMSIS/DSP/Source/TransformFunctions/arm_cfft_radix4_q31.c ****                             ((int32_t) (((q63_t) r1 * si1) >> 32))) << 1U;
 1396              		.loc 1 910 68 view .LVU523
 1397 0198 2244     		add	r2, r2, r4
 1398              		.loc 1 911 69 view .LVU524
 1399 019a 5200     		lsls	r2, r2, #1
 910:Drivers/CMSIS/DSP/Source/TransformFunctions/arm_cfft_radix4_q31.c ****                             ((int32_t) (((q63_t) r1 * si1) >> 32))) << 1U;
 1400              		.loc 1 910 26 view .LVU525
ARM GAS  /tmp/ccuzNZ5H.s 			page 43


 1401 019c 049F     		ldr	r7, [sp, #16]
 1402 019e 49F80720 		str	r2, [r9, r7]
 912:Drivers/CMSIS/DSP/Source/TransformFunctions/arm_cfft_radix4_q31.c **** 
 913:Drivers/CMSIS/DSP/Source/TransformFunctions/arm_cfft_radix4_q31.c ****     /*  index calculation for the coefficients */
 914:Drivers/CMSIS/DSP/Source/TransformFunctions/arm_cfft_radix4_q31.c ****     ia3 = 3U * ia1;
 1403              		.loc 1 914 5 is_stmt 1 view .LVU526
 1404              	.LVL175:
 915:Drivers/CMSIS/DSP/Source/TransformFunctions/arm_cfft_radix4_q31.c ****     co3 = pCoef[ia3 * 2U];
 1405              		.loc 1 915 5 view .LVU527
 1406              		.loc 1 915 16 is_stmt 0 view .LVU528
 1407 01a2 019C     		ldr	r4, [sp, #4]
 1408 01a4 04EB4402 		add	r2, r4, r4, lsl #1
 1409 01a8 D200     		lsls	r2, r2, #3
 1410              		.loc 1 915 9 view .LVU529
 1411 01aa 0098     		ldr	r0, [sp]
 1412 01ac 8458     		ldr	r4, [r0, r2]
 1413              	.LVL176:
 916:Drivers/CMSIS/DSP/Source/TransformFunctions/arm_cfft_radix4_q31.c ****     si3 = pCoef[(ia3 * 2U) + 1U];
 1414              		.loc 1 916 5 is_stmt 1 view .LVU530
 1415              		.loc 1 916 16 is_stmt 0 view .LVU531
 1416 01ae 0432     		adds	r2, r2, #4
 1417              		.loc 1 916 9 view .LVU532
 1418 01b0 8258     		ldr	r2, [r0, r2]
 1419              	.LVL177:
 917:Drivers/CMSIS/DSP/Source/TransformFunctions/arm_cfft_radix4_q31.c **** 
 918:Drivers/CMSIS/DSP/Source/TransformFunctions/arm_cfft_radix4_q31.c ****     /* xd' = (xa-yb-xc+yd)co3 - (ya+xb-yc-xd)(si3) */
 919:Drivers/CMSIS/DSP/Source/TransformFunctions/arm_cfft_radix4_q31.c ****     pSrc[2U * i3] = (((int32_t) (((q63_t) r2 * co3) >> 32)) -
 1420              		.loc 1 919 5 is_stmt 1 view .LVU533
 1421              		.loc 1 919 35 is_stmt 0 view .LVU534
 1422 01b2 4FEAE877 		asr	r7, r8, #31
 1423              		.loc 1 919 46 view .LVU535
 1424 01b6 4FEAE47C 		asr	ip, r4, #31
 1425 01ba 08FB0CF1 		mul	r1, r8, ip
 1426 01be 04FB0711 		mla	r1, r4, r7, r1
 1427 01c2 A8FB0450 		umull	r5, r0, r8, r4
 1428 01c6 0B18     		adds	r3, r1, r0
 920:Drivers/CMSIS/DSP/Source/TransformFunctions/arm_cfft_radix4_q31.c ****                      ((int32_t) (((q63_t) s2 * si3) >> 32))) << 1U;
 1429              		.loc 1 920 35 view .LVU536
 1430 01c8 0299     		ldr	r1, [sp, #8]
 1431 01ca CD17     		asrs	r5, r1, #31
 1432              		.loc 1 920 46 view .LVU537
 1433 01cc D017     		asrs	r0, r2, #31
 1434 01ce 01FB00F6 		mul	r6, r1, r0
 1435 01d2 02FB0566 		mla	r6, r2, r5, r6
 1436 01d6 A1FB021E 		umull	r1, lr, r1, r2
 1437 01da 7644     		add	r6, r6, lr
 919:Drivers/CMSIS/DSP/Source/TransformFunctions/arm_cfft_radix4_q31.c ****                      ((int32_t) (((q63_t) s2 * si3) >> 32))) << 1U;
 1438              		.loc 1 919 61 view .LVU538
 1439 01dc 991B     		subs	r1, r3, r6
 1440              		.loc 1 920 62 view .LVU539
 1441 01de 4900     		lsls	r1, r1, #1
 919:Drivers/CMSIS/DSP/Source/TransformFunctions/arm_cfft_radix4_q31.c ****                      ((int32_t) (((q63_t) s2 * si3) >> 32))) << 1U;
 1442              		.loc 1 919 19 view .LVU540
 1443 01e0 49F83B10 		str	r1, [r9, fp, lsl #3]
 921:Drivers/CMSIS/DSP/Source/TransformFunctions/arm_cfft_radix4_q31.c **** 
 922:Drivers/CMSIS/DSP/Source/TransformFunctions/arm_cfft_radix4_q31.c ****     /* yd' = (ya+xb-yc-xd)co3 + (xa-yb-xc+yd)(si3) */
 923:Drivers/CMSIS/DSP/Source/TransformFunctions/arm_cfft_radix4_q31.c ****     pSrc[(2U * i3) + 1U] = (((int32_t) (((q63_t) s2 * co3) >> 32)) +
ARM GAS  /tmp/ccuzNZ5H.s 			page 44


 1444              		.loc 1 923 5 is_stmt 1 view .LVU541
 1445              		.loc 1 923 53 is_stmt 0 view .LVU542
 1446 01e4 04FB05F5 		mul	r5, r4, r5
 1447 01e8 029B     		ldr	r3, [sp, #8]
 1448 01ea 03FB0C55 		mla	r5, r3, ip, r5
 1449 01ee A4FB0343 		umull	r4, r3, r4, r3
 1450              	.LVL178:
 1451              		.loc 1 923 53 view .LVU543
 1452 01f2 2B44     		add	r3, r3, r5
 924:Drivers/CMSIS/DSP/Source/TransformFunctions/arm_cfft_radix4_q31.c ****                             ((int32_t) (((q63_t) r2 * si3) >> 32))) << 1U;
 1453              		.loc 1 924 53 view .LVU544
 1454 01f4 08FB00F1 		mul	r1, r8, r0
 1455 01f8 02FB0711 		mla	r1, r2, r7, r1
 1456 01fc A8FB0202 		umull	r0, r2, r8, r2
 1457              	.LVL179:
 1458              		.loc 1 924 53 view .LVU545
 1459 0200 0A44     		add	r2, r2, r1
 923:Drivers/CMSIS/DSP/Source/TransformFunctions/arm_cfft_radix4_q31.c ****                             ((int32_t) (((q63_t) r2 * si3) >> 32))) << 1U;
 1460              		.loc 1 923 68 view .LVU546
 1461 0202 1344     		add	r3, r3, r2
 1462              		.loc 1 924 69 view .LVU547
 1463 0204 5B00     		lsls	r3, r3, #1
 923:Drivers/CMSIS/DSP/Source/TransformFunctions/arm_cfft_radix4_q31.c ****                             ((int32_t) (((q63_t) r2 * si3) >> 32))) << 1U;
 1464              		.loc 1 923 26 view .LVU548
 1465 0206 059E     		ldr	r6, [sp, #20]
 1466 0208 49F80630 		str	r3, [r9, r6]
 925:Drivers/CMSIS/DSP/Source/TransformFunctions/arm_cfft_radix4_q31.c **** 
 926:Drivers/CMSIS/DSP/Source/TransformFunctions/arm_cfft_radix4_q31.c ****     /*  Twiddle coefficients index modifier */
 927:Drivers/CMSIS/DSP/Source/TransformFunctions/arm_cfft_radix4_q31.c ****     ia1 = ia1 + twidCoefModifier;
 1467              		.loc 1 927 5 is_stmt 1 view .LVU549
 1468              		.loc 1 927 9 is_stmt 0 view .LVU550
 1469 020c 019C     		ldr	r4, [sp, #4]
 1470 020e 0C9B     		ldr	r3, [sp, #48]
 1471 0210 E318     		adds	r3, r4, r3
 1472 0212 0193     		str	r3, [sp, #4]
 1473              	.LVL180:
 928:Drivers/CMSIS/DSP/Source/TransformFunctions/arm_cfft_radix4_q31.c **** 
 929:Drivers/CMSIS/DSP/Source/TransformFunctions/arm_cfft_radix4_q31.c ****     /*  Updating input index */
 930:Drivers/CMSIS/DSP/Source/TransformFunctions/arm_cfft_radix4_q31.c ****     i0 = i0 + 1U;
 1474              		.loc 1 930 5 is_stmt 1 view .LVU551
 1475              		.loc 1 930 8 is_stmt 0 view .LVU552
 1476 0214 0AF1010A 		add	r10, r10, #1
 1477              	.LVL181:
 931:Drivers/CMSIS/DSP/Source/TransformFunctions/arm_cfft_radix4_q31.c **** 
 932:Drivers/CMSIS/DSP/Source/TransformFunctions/arm_cfft_radix4_q31.c ****   } while (--j);
 1478              		.loc 1 932 12 is_stmt 1 discriminator 1 view .LVU553
 1479              		.loc 1 932 12 is_stmt 0 discriminator 1 view .LVU554
 1480 0218 159B     		ldr	r3, [sp, #84]
 1481              	.LVL182:
 1482              		.loc 1 932 12 discriminator 1 view .LVU555
 1483 021a 013B     		subs	r3, r3, #1
 1484              	.LVL183:
 1485              		.loc 1 932 12 discriminator 1 view .LVU556
 1486 021c 1593     		str	r3, [sp, #84]
 1487 021e 7FF4FCAE 		bne	.L14
 933:Drivers/CMSIS/DSP/Source/TransformFunctions/arm_cfft_radix4_q31.c **** 
 934:Drivers/CMSIS/DSP/Source/TransformFunctions/arm_cfft_radix4_q31.c ****   /* data is in 5.27(q27) format */
ARM GAS  /tmp/ccuzNZ5H.s 			page 45


 935:Drivers/CMSIS/DSP/Source/TransformFunctions/arm_cfft_radix4_q31.c ****   /* each stage provides two down scaling of the input */
 936:Drivers/CMSIS/DSP/Source/TransformFunctions/arm_cfft_radix4_q31.c **** 
 937:Drivers/CMSIS/DSP/Source/TransformFunctions/arm_cfft_radix4_q31.c **** 
 938:Drivers/CMSIS/DSP/Source/TransformFunctions/arm_cfft_radix4_q31.c ****   /* Start of Middle stages process */
 939:Drivers/CMSIS/DSP/Source/TransformFunctions/arm_cfft_radix4_q31.c **** 
 940:Drivers/CMSIS/DSP/Source/TransformFunctions/arm_cfft_radix4_q31.c ****   twidCoefModifier <<= 2U;
 1488              		.loc 1 940 3 is_stmt 1 view .LVU557
 1489              		.loc 1 940 20 is_stmt 0 view .LVU558
 1490 0222 0C9B     		ldr	r3, [sp, #48]
 1491              	.LVL184:
 1492              		.loc 1 940 20 view .LVU559
 1493 0224 9D00     		lsls	r5, r3, #2
 1494              	.LVL185:
 941:Drivers/CMSIS/DSP/Source/TransformFunctions/arm_cfft_radix4_q31.c **** 
 942:Drivers/CMSIS/DSP/Source/TransformFunctions/arm_cfft_radix4_q31.c ****   /*  Calculation of second stage to excluding last stage */
 943:Drivers/CMSIS/DSP/Source/TransformFunctions/arm_cfft_radix4_q31.c ****   for (k = fftLen / 4U; k > 4U; k >>= 2U)
 1495              		.loc 1 943 3 is_stmt 1 view .LVU560
 1496              		.loc 1 943 10 is_stmt 0 view .LVU561
 1497 0226 0D9B     		ldr	r3, [sp, #52]
 1498 0228 9908     		lsrs	r1, r3, #2
 1499              	.LVL186:
 831:Drivers/CMSIS/DSP/Source/TransformFunctions/arm_cfft_radix4_q31.c ****   i0 = 0U;
 1500              		.loc 1 831 6 view .LVU562
 1501 022a 179B     		ldr	r3, [sp, #92]
 1502 022c 1093     		str	r3, [sp, #64]
 1503 022e 2F46     		mov	r7, r5
 1504 0230 CA46     		mov	r10, r9
 1505              	.LVL187:
 831:Drivers/CMSIS/DSP/Source/TransformFunctions/arm_cfft_radix4_q31.c ****   i0 = 0U;
 1506              		.loc 1 831 6 view .LVU563
 1507 0232 009D     		ldr	r5, [sp]
 1508              	.LVL188:
 1509              		.loc 1 943 3 view .LVU564
 1510 0234 12E1     		b	.L15
 1511              	.LVL189:
 1512              	.L18:
 944:Drivers/CMSIS/DSP/Source/TransformFunctions/arm_cfft_radix4_q31.c ****   {
 945:Drivers/CMSIS/DSP/Source/TransformFunctions/arm_cfft_radix4_q31.c ****     /*  Initializations for the first stage */
 946:Drivers/CMSIS/DSP/Source/TransformFunctions/arm_cfft_radix4_q31.c ****     n1 = n2;
 947:Drivers/CMSIS/DSP/Source/TransformFunctions/arm_cfft_radix4_q31.c ****     n2 >>= 2U;
 948:Drivers/CMSIS/DSP/Source/TransformFunctions/arm_cfft_radix4_q31.c ****     ia1 = 0U;
 949:Drivers/CMSIS/DSP/Source/TransformFunctions/arm_cfft_radix4_q31.c **** 
 950:Drivers/CMSIS/DSP/Source/TransformFunctions/arm_cfft_radix4_q31.c ****     for (j = 0; j <= (n2 - 1U); j++)
 951:Drivers/CMSIS/DSP/Source/TransformFunctions/arm_cfft_radix4_q31.c ****     {
 952:Drivers/CMSIS/DSP/Source/TransformFunctions/arm_cfft_radix4_q31.c ****       /*  index calculation for the coefficients */
 953:Drivers/CMSIS/DSP/Source/TransformFunctions/arm_cfft_radix4_q31.c ****       ia2 = ia1 + ia1;
 954:Drivers/CMSIS/DSP/Source/TransformFunctions/arm_cfft_radix4_q31.c ****       ia3 = ia2 + ia1;
 955:Drivers/CMSIS/DSP/Source/TransformFunctions/arm_cfft_radix4_q31.c ****       co1 = pCoef[ia1 * 2U];
 956:Drivers/CMSIS/DSP/Source/TransformFunctions/arm_cfft_radix4_q31.c ****       si1 = pCoef[(ia1 * 2U) + 1U];
 957:Drivers/CMSIS/DSP/Source/TransformFunctions/arm_cfft_radix4_q31.c ****       co2 = pCoef[ia2 * 2U];
 958:Drivers/CMSIS/DSP/Source/TransformFunctions/arm_cfft_radix4_q31.c ****       si2 = pCoef[(ia2 * 2U) + 1U];
 959:Drivers/CMSIS/DSP/Source/TransformFunctions/arm_cfft_radix4_q31.c ****       co3 = pCoef[ia3 * 2U];
 960:Drivers/CMSIS/DSP/Source/TransformFunctions/arm_cfft_radix4_q31.c ****       si3 = pCoef[(ia3 * 2U) + 1U];
 961:Drivers/CMSIS/DSP/Source/TransformFunctions/arm_cfft_radix4_q31.c ****       /*  Twiddle coefficients index modifier */
 962:Drivers/CMSIS/DSP/Source/TransformFunctions/arm_cfft_radix4_q31.c ****       ia1 = ia1 + twidCoefModifier;
 963:Drivers/CMSIS/DSP/Source/TransformFunctions/arm_cfft_radix4_q31.c **** 
 964:Drivers/CMSIS/DSP/Source/TransformFunctions/arm_cfft_radix4_q31.c ****       for (i0 = j; i0 < fftLen; i0 += n1)
ARM GAS  /tmp/ccuzNZ5H.s 			page 46


 965:Drivers/CMSIS/DSP/Source/TransformFunctions/arm_cfft_radix4_q31.c ****       {
 966:Drivers/CMSIS/DSP/Source/TransformFunctions/arm_cfft_radix4_q31.c ****         /*  index calculation for the input as, */
 967:Drivers/CMSIS/DSP/Source/TransformFunctions/arm_cfft_radix4_q31.c ****         /*  pSrc[i0 + 0], pSrc[i0 + fftLen/4], pSrc[i0 + fftLen/2U], pSrc[i0 + 3fftLen/4] */
 968:Drivers/CMSIS/DSP/Source/TransformFunctions/arm_cfft_radix4_q31.c ****         i1 = i0 + n2;
 1513              		.loc 1 968 9 is_stmt 1 view .LVU565
 1514              		.loc 1 968 12 is_stmt 0 view .LVU566
 1515 0236 0C9A     		ldr	r2, [sp, #48]
 1516 0238 0AEB020C 		add	ip, r10, r2
 1517              	.LVL190:
 969:Drivers/CMSIS/DSP/Source/TransformFunctions/arm_cfft_radix4_q31.c ****         i2 = i1 + n2;
 1518              		.loc 1 969 9 is_stmt 1 view .LVU567
 1519              		.loc 1 969 12 is_stmt 0 view .LVU568
 1520 023c 0AEB4203 		add	r3, r10, r2, lsl #1
 1521              	.LVL191:
 970:Drivers/CMSIS/DSP/Source/TransformFunctions/arm_cfft_radix4_q31.c ****         i3 = i2 + n2;
 1522              		.loc 1 970 9 is_stmt 1 view .LVU569
 1523              		.loc 1 970 12 is_stmt 0 view .LVU570
 1524 0240 02EB0308 		add	r8, r2, r3
 1525              	.LVL192:
 971:Drivers/CMSIS/DSP/Source/TransformFunctions/arm_cfft_radix4_q31.c **** 
 972:Drivers/CMSIS/DSP/Source/TransformFunctions/arm_cfft_radix4_q31.c ****         /*  Butterfly implementation */
 973:Drivers/CMSIS/DSP/Source/TransformFunctions/arm_cfft_radix4_q31.c ****         /* xa + xc */
 974:Drivers/CMSIS/DSP/Source/TransformFunctions/arm_cfft_radix4_q31.c ****         r1 = pSrc[2U * i0] + pSrc[2U * i2];
 1526              		.loc 1 974 9 is_stmt 1 view .LVU571
 1527              		.loc 1 974 18 is_stmt 0 view .LVU572
 1528 0244 4FEACA04 		lsl	r4, r10, #3
 1529 0248 5BF83A00 		ldr	r0, [fp, r10, lsl #3]
 1530              		.loc 1 974 34 view .LVU573
 1531 024c DA00     		lsls	r2, r3, #3
 1532 024e 0593     		str	r3, [sp, #20]
 1533 0250 5BF83310 		ldr	r1, [fp, r3, lsl #3]
 1534              		.loc 1 974 12 view .LVU574
 1535 0254 4318     		adds	r3, r0, r1
 1536              	.LVL193:
 975:Drivers/CMSIS/DSP/Source/TransformFunctions/arm_cfft_radix4_q31.c ****         /* xa - xc */
 976:Drivers/CMSIS/DSP/Source/TransformFunctions/arm_cfft_radix4_q31.c ****         r2 = pSrc[2U * i0] - pSrc[2U * i2];
 1537              		.loc 1 976 9 is_stmt 1 view .LVU575
 1538              		.loc 1 976 12 is_stmt 0 view .LVU576
 1539 0256 401A     		subs	r0, r0, r1
 1540 0258 0790     		str	r0, [sp, #28]
 1541              	.LVL194:
 977:Drivers/CMSIS/DSP/Source/TransformFunctions/arm_cfft_radix4_q31.c **** 
 978:Drivers/CMSIS/DSP/Source/TransformFunctions/arm_cfft_radix4_q31.c ****         /* ya + yc */
 979:Drivers/CMSIS/DSP/Source/TransformFunctions/arm_cfft_radix4_q31.c ****         s1 = pSrc[(2U * i0) + 1U] + pSrc[(2U * i2) + 1U];
 1542              		.loc 1 979 9 is_stmt 1 view .LVU577
 1543              		.loc 1 979 18 is_stmt 0 view .LVU578
 1544 025a 0434     		adds	r4, r4, #4
 1545 025c 5BF80400 		ldr	r0, [fp, r4]
 1546              	.LVL195:
 1547              		.loc 1 979 41 view .LVU579
 1548 0260 151D     		adds	r5, r2, #4
 1549 0262 0695     		str	r5, [sp, #24]
 1550 0264 5BF80510 		ldr	r1, [fp, r5]
 1551              		.loc 1 979 12 view .LVU580
 1552 0268 4218     		adds	r2, r0, r1
 1553              	.LVL196:
 980:Drivers/CMSIS/DSP/Source/TransformFunctions/arm_cfft_radix4_q31.c ****         /* ya - yc */
ARM GAS  /tmp/ccuzNZ5H.s 			page 47


 981:Drivers/CMSIS/DSP/Source/TransformFunctions/arm_cfft_radix4_q31.c ****         s2 = pSrc[(2U * i0) + 1U] - pSrc[(2U * i2) + 1U];
 1554              		.loc 1 981 9 is_stmt 1 view .LVU581
 1555              		.loc 1 981 12 is_stmt 0 view .LVU582
 1556 026a 461A     		subs	r6, r0, r1
 1557 026c 0896     		str	r6, [sp, #32]
 1558              	.LVL197:
 982:Drivers/CMSIS/DSP/Source/TransformFunctions/arm_cfft_radix4_q31.c **** 
 983:Drivers/CMSIS/DSP/Source/TransformFunctions/arm_cfft_radix4_q31.c ****         /* xb + xd */
 984:Drivers/CMSIS/DSP/Source/TransformFunctions/arm_cfft_radix4_q31.c ****         t1 = pSrc[2U * i1] + pSrc[2U * i3];
 1559              		.loc 1 984 9 is_stmt 1 view .LVU583
 1560              		.loc 1 984 18 is_stmt 0 view .LVU584
 1561 026e 4FEACC05 		lsl	r5, ip, #3
 1562 0272 5BF83C00 		ldr	r0, [fp, ip, lsl #3]
 1563              		.loc 1 984 34 view .LVU585
 1564 0276 4FEAC806 		lsl	r6, r8, #3
 1565              	.LVL198:
 1566              		.loc 1 984 34 view .LVU586
 1567 027a 5BF83810 		ldr	r1, [fp, r8, lsl #3]
 1568              		.loc 1 984 12 view .LVU587
 1569 027e 0144     		add	r1, r1, r0
 1570              	.LVL199:
 985:Drivers/CMSIS/DSP/Source/TransformFunctions/arm_cfft_radix4_q31.c **** 
 986:Drivers/CMSIS/DSP/Source/TransformFunctions/arm_cfft_radix4_q31.c ****         /* xa' = xa + xb + xc + xd */
 987:Drivers/CMSIS/DSP/Source/TransformFunctions/arm_cfft_radix4_q31.c ****         pSrc[2U * i0] = (r1 + t1) >> 2U;
 1571              		.loc 1 987 9 is_stmt 1 view .LVU588
 1572              		.loc 1 987 29 is_stmt 0 view .LVU589
 1573 0280 5818     		adds	r0, r3, r1
 1574              		.loc 1 987 35 view .LVU590
 1575 0282 8010     		asrs	r0, r0, #2
 1576              		.loc 1 987 23 view .LVU591
 1577 0284 4BF83A00 		str	r0, [fp, r10, lsl #3]
 988:Drivers/CMSIS/DSP/Source/TransformFunctions/arm_cfft_radix4_q31.c ****         /* xa + xc -(xb + xd) */
 989:Drivers/CMSIS/DSP/Source/TransformFunctions/arm_cfft_radix4_q31.c ****         r1 = r1 - t1;
 1578              		.loc 1 989 9 is_stmt 1 view .LVU592
 1579              		.loc 1 989 12 is_stmt 0 view .LVU593
 1580 0288 5B1A     		subs	r3, r3, r1
 1581              	.LVL200:
 990:Drivers/CMSIS/DSP/Source/TransformFunctions/arm_cfft_radix4_q31.c ****         /* yb + yd */
 991:Drivers/CMSIS/DSP/Source/TransformFunctions/arm_cfft_radix4_q31.c ****         t2 = pSrc[(2U * i1) + 1U] + pSrc[(2U * i3) + 1U];
 1582              		.loc 1 991 9 is_stmt 1 view .LVU594
 1583              		.loc 1 991 18 is_stmt 0 view .LVU595
 1584 028a 0435     		adds	r5, r5, #4
 1585 028c 5BF80500 		ldr	r0, [fp, r5]
 1586              		.loc 1 991 41 view .LVU596
 1587 0290 06F10409 		add	r9, r6, #4
 1588 0294 5BF80910 		ldr	r1, [fp, r9]
 1589              	.LVL201:
 1590              		.loc 1 991 12 view .LVU597
 1591 0298 0144     		add	r1, r1, r0
 1592              	.LVL202:
 992:Drivers/CMSIS/DSP/Source/TransformFunctions/arm_cfft_radix4_q31.c ****         /* ya' = ya + yb + yc + yd */
 993:Drivers/CMSIS/DSP/Source/TransformFunctions/arm_cfft_radix4_q31.c ****         pSrc[(2U * i0) + 1U] = (s1 + t2) >> 2U;
 1593              		.loc 1 993 9 is_stmt 1 view .LVU598
 1594              		.loc 1 993 36 is_stmt 0 view .LVU599
 1595 029a 5018     		adds	r0, r2, r1
 1596              		.loc 1 993 42 view .LVU600
 1597 029c 8010     		asrs	r0, r0, #2
ARM GAS  /tmp/ccuzNZ5H.s 			page 48


 1598              		.loc 1 993 30 view .LVU601
 1599 029e 4BF80400 		str	r0, [fp, r4]
 994:Drivers/CMSIS/DSP/Source/TransformFunctions/arm_cfft_radix4_q31.c **** 
 995:Drivers/CMSIS/DSP/Source/TransformFunctions/arm_cfft_radix4_q31.c ****         /* (ya + yc) - (yb + yd) */
 996:Drivers/CMSIS/DSP/Source/TransformFunctions/arm_cfft_radix4_q31.c ****         s1 = s1 - t2;
 1600              		.loc 1 996 9 is_stmt 1 view .LVU602
 1601              		.loc 1 996 12 is_stmt 0 view .LVU603
 1602 02a2 521A     		subs	r2, r2, r1
 1603              	.LVL203:
 997:Drivers/CMSIS/DSP/Source/TransformFunctions/arm_cfft_radix4_q31.c **** 
 998:Drivers/CMSIS/DSP/Source/TransformFunctions/arm_cfft_radix4_q31.c ****         /* (yb - yd) */
 999:Drivers/CMSIS/DSP/Source/TransformFunctions/arm_cfft_radix4_q31.c ****         t1 = pSrc[(2U * i1) + 1U] - pSrc[(2U * i3) + 1U];
 1604              		.loc 1 999 9 is_stmt 1 view .LVU604
 1605              		.loc 1 999 18 is_stmt 0 view .LVU605
 1606 02a4 5BF80500 		ldr	r0, [fp, r5]
 1607              		.loc 1 999 41 view .LVU606
 1608 02a8 5BF80910 		ldr	r1, [fp, r9]
 1609              	.LVL204:
 1610              		.loc 1 999 12 view .LVU607
 1611 02ac 441A     		subs	r4, r0, r1
 1612 02ae 0994     		str	r4, [sp, #36]
 1613              	.LVL205:
1000:Drivers/CMSIS/DSP/Source/TransformFunctions/arm_cfft_radix4_q31.c ****         /* (xb - xd) */
1001:Drivers/CMSIS/DSP/Source/TransformFunctions/arm_cfft_radix4_q31.c ****         t2 = pSrc[2U * i1] - pSrc[2U * i3];
 1614              		.loc 1 1001 9 is_stmt 1 view .LVU608
 1615              		.loc 1 1001 18 is_stmt 0 view .LVU609
 1616 02b0 5BF83C70 		ldr	r7, [fp, ip, lsl #3]
 1617              		.loc 1 1001 34 view .LVU610
 1618 02b4 5BF83810 		ldr	r1, [fp, r8, lsl #3]
 1619              		.loc 1 1001 12 view .LVU611
 1620 02b8 791A     		subs	r1, r7, r1
 1621 02ba 0A91     		str	r1, [sp, #40]
 1622              	.LVL206:
1002:Drivers/CMSIS/DSP/Source/TransformFunctions/arm_cfft_radix4_q31.c **** 
1003:Drivers/CMSIS/DSP/Source/TransformFunctions/arm_cfft_radix4_q31.c ****         /* xc' = (xa-xb+xc-xd)co2 - (ya-yb+yc-yd)(si2) */
1004:Drivers/CMSIS/DSP/Source/TransformFunctions/arm_cfft_radix4_q31.c ****         pSrc[2U * i1] = (((int32_t) (((q63_t) r1 * co2) >> 32U)) -
 1623              		.loc 1 1004 9 is_stmt 1 view .LVU612
 1624              		.loc 1 1004 39 is_stmt 0 view .LVU613
 1625 02bc 4FEAE37E 		asr	lr, r3, #31
 1626              		.loc 1 1004 50 view .LVU614
 1627 02c0 0398     		ldr	r0, [sp, #12]
 1628 02c2 C717     		asrs	r7, r0, #31
 1629 02c4 0097     		str	r7, [sp]
 1630 02c6 03FB07F1 		mul	r1, r3, r7
 1631              	.LVL207:
 1632              		.loc 1 1004 50 view .LVU615
 1633 02ca 00FB0E11 		mla	r1, r0, lr, r1
 1634 02ce A3FB0040 		umull	r4, r0, r3, r0
 1635              	.LVL208:
 1636              		.loc 1 1004 50 view .LVU616
 1637 02d2 0144     		add	r1, r1, r0
1005:Drivers/CMSIS/DSP/Source/TransformFunctions/arm_cfft_radix4_q31.c ****                          ((int32_t) (((q63_t) s1 * si2) >> 32U))) >> 1U;
 1638              		.loc 1 1005 39 view .LVU617
 1639 02d4 D417     		asrs	r4, r2, #31
 1640              		.loc 1 1005 50 view .LVU618
 1641 02d6 049F     		ldr	r7, [sp, #16]
 1642 02d8 F817     		asrs	r0, r7, #31
ARM GAS  /tmp/ccuzNZ5H.s 			page 49


 1643 02da 02FB00F6 		mul	r6, r2, r0
 1644 02de 07FB0466 		mla	r6, r7, r4, r6
 1645 02e2 0B96     		str	r6, [sp, #44]
 1646 02e4 A2FB0767 		umull	r6, r7, r2, r7
 1647 02e8 0B9E     		ldr	r6, [sp, #44]
 1648 02ea 3E44     		add	r6, r6, r7
1004:Drivers/CMSIS/DSP/Source/TransformFunctions/arm_cfft_radix4_q31.c ****                          ((int32_t) (((q63_t) s1 * si2) >> 32U))) >> 1U;
 1649              		.loc 1 1004 66 view .LVU619
 1650 02ec 891B     		subs	r1, r1, r6
 1651              		.loc 1 1005 67 view .LVU620
 1652 02ee 4910     		asrs	r1, r1, #1
1004:Drivers/CMSIS/DSP/Source/TransformFunctions/arm_cfft_radix4_q31.c ****                          ((int32_t) (((q63_t) s1 * si2) >> 32U))) >> 1U;
 1653              		.loc 1 1004 23 view .LVU621
 1654 02f0 4BF83C10 		str	r1, [fp, ip, lsl #3]
1006:Drivers/CMSIS/DSP/Source/TransformFunctions/arm_cfft_radix4_q31.c **** 
1007:Drivers/CMSIS/DSP/Source/TransformFunctions/arm_cfft_radix4_q31.c ****         /* yc' = (ya-yb+yc-yd)co2 + (xa-xb+xc-xd)(si2) */
1008:Drivers/CMSIS/DSP/Source/TransformFunctions/arm_cfft_radix4_q31.c ****         pSrc[(2U * i1) + 1U] =
 1655              		.loc 1 1008 9 is_stmt 1 view .LVU622
1009:Drivers/CMSIS/DSP/Source/TransformFunctions/arm_cfft_radix4_q31.c ****           (((int32_t) (((q63_t) s1 * co2) >> 32U)) +
 1656              		.loc 1 1009 36 is_stmt 0 view .LVU623
 1657 02f4 0399     		ldr	r1, [sp, #12]
 1658 02f6 01FB04F4 		mul	r4, r1, r4
 1659 02fa 009F     		ldr	r7, [sp]
 1660 02fc 02FB0744 		mla	r4, r2, r7, r4
 1661 0300 A1FB0221 		umull	r2, r1, r1, r2
 1662              	.LVL209:
 1663              		.loc 1 1009 36 view .LVU624
 1664 0304 2144     		add	r1, r1, r4
1010:Drivers/CMSIS/DSP/Source/TransformFunctions/arm_cfft_radix4_q31.c ****            ((int32_t) (((q63_t) r1 * si2) >> 32U))) >> 1U;
 1665              		.loc 1 1010 36 view .LVU625
 1666 0306 03FB00F0 		mul	r0, r3, r0
 1667 030a 049A     		ldr	r2, [sp, #16]
 1668 030c 02FB0E00 		mla	r0, r2, lr, r0
 1669 0310 A3FB0232 		umull	r3, r2, r3, r2
 1670              	.LVL210:
 1671              		.loc 1 1010 36 view .LVU626
 1672 0314 1044     		add	r0, r0, r2
1009:Drivers/CMSIS/DSP/Source/TransformFunctions/arm_cfft_radix4_q31.c ****           (((int32_t) (((q63_t) s1 * co2) >> 32U)) +
 1673              		.loc 1 1009 52 view .LVU627
 1674 0316 0144     		add	r1, r1, r0
 1675              		.loc 1 1010 53 view .LVU628
 1676 0318 4910     		asrs	r1, r1, #1
1008:Drivers/CMSIS/DSP/Source/TransformFunctions/arm_cfft_radix4_q31.c ****           (((int32_t) (((q63_t) s1 * co2) >> 32U)) +
 1677              		.loc 1 1008 30 view .LVU629
 1678 031a 4BF80510 		str	r1, [fp, r5]
1011:Drivers/CMSIS/DSP/Source/TransformFunctions/arm_cfft_radix4_q31.c **** 
1012:Drivers/CMSIS/DSP/Source/TransformFunctions/arm_cfft_radix4_q31.c ****         /* (xa - xc) - (yb - yd) */
1013:Drivers/CMSIS/DSP/Source/TransformFunctions/arm_cfft_radix4_q31.c ****         r1 = r2 - t1;
 1679              		.loc 1 1013 9 is_stmt 1 view .LVU630
 1680              		.loc 1 1013 12 is_stmt 0 view .LVU631
 1681 031e 079A     		ldr	r2, [sp, #28]
 1682 0320 0998     		ldr	r0, [sp, #36]
 1683 0322 141A     		subs	r4, r2, r0
 1684              	.LVL211:
1014:Drivers/CMSIS/DSP/Source/TransformFunctions/arm_cfft_radix4_q31.c ****         /* (xa - xc) + (yb - yd) */
1015:Drivers/CMSIS/DSP/Source/TransformFunctions/arm_cfft_radix4_q31.c ****         r2 = r2 + t1;
 1685              		.loc 1 1015 9 is_stmt 1 view .LVU632
ARM GAS  /tmp/ccuzNZ5H.s 			page 50


 1686              		.loc 1 1015 12 is_stmt 0 view .LVU633
 1687 0324 1318     		adds	r3, r2, r0
 1688 0326 0093     		str	r3, [sp]
 1689              	.LVL212:
1016:Drivers/CMSIS/DSP/Source/TransformFunctions/arm_cfft_radix4_q31.c **** 
1017:Drivers/CMSIS/DSP/Source/TransformFunctions/arm_cfft_radix4_q31.c ****         /* (ya - yc) +  (xb - xd) */
1018:Drivers/CMSIS/DSP/Source/TransformFunctions/arm_cfft_radix4_q31.c ****         s1 = s2 + t2;
 1690              		.loc 1 1018 9 is_stmt 1 view .LVU634
 1691              		.loc 1 1018 12 is_stmt 0 view .LVU635
 1692 0328 089A     		ldr	r2, [sp, #32]
 1693 032a 0A99     		ldr	r1, [sp, #40]
 1694 032c 5518     		adds	r5, r2, r1
 1695              	.LVL213:
1019:Drivers/CMSIS/DSP/Source/TransformFunctions/arm_cfft_radix4_q31.c ****         /* (ya - yc) -  (xb - xd) */
1020:Drivers/CMSIS/DSP/Source/TransformFunctions/arm_cfft_radix4_q31.c ****         s2 = s2 - t2;
 1696              		.loc 1 1020 9 is_stmt 1 view .LVU636
 1697              		.loc 1 1020 12 is_stmt 0 view .LVU637
 1698 032e 521A     		subs	r2, r2, r1
 1699 0330 0792     		str	r2, [sp, #28]
 1700              	.LVL214:
1021:Drivers/CMSIS/DSP/Source/TransformFunctions/arm_cfft_radix4_q31.c **** 
1022:Drivers/CMSIS/DSP/Source/TransformFunctions/arm_cfft_radix4_q31.c ****         /* xb' = (xa+yb-xc-yd)co1 - (ya-xb-yc+xd)(si1) */
1023:Drivers/CMSIS/DSP/Source/TransformFunctions/arm_cfft_radix4_q31.c ****         pSrc[2U * i2] = (((int32_t) (((q63_t) r1 * co1) >> 32)) -
 1701              		.loc 1 1023 9 is_stmt 1 view .LVU638
 1702              		.loc 1 1023 39 is_stmt 0 view .LVU639
 1703 0332 4FEAE47C 		asr	ip, r4, #31
 1704              	.LVL215:
 1705              		.loc 1 1023 50 view .LVU640
 1706 0336 0198     		ldr	r0, [sp, #4]
 1707 0338 4FEAE07E 		asr	lr, r0, #31
 1708 033c 04FB0EF2 		mul	r2, r4, lr
 1709              	.LVL216:
 1710              		.loc 1 1023 50 view .LVU641
 1711 0340 00FB0C22 		mla	r2, r0, ip, r2
 1712 0344 A4FB0060 		umull	r6, r0, r4, r0
 1713 0348 0244     		add	r2, r2, r0
1024:Drivers/CMSIS/DSP/Source/TransformFunctions/arm_cfft_radix4_q31.c ****                          ((int32_t) (((q63_t) s1 * si1) >> 32))) >> 1U;
 1714              		.loc 1 1024 39 view .LVU642
 1715 034a EE17     		asrs	r6, r5, #31
 1716              		.loc 1 1024 50 view .LVU643
 1717 034c 029B     		ldr	r3, [sp, #8]
 1718              	.LVL217:
 1719              		.loc 1 1024 50 view .LVU644
 1720 034e D817     		asrs	r0, r3, #31
 1721 0350 05FB00F7 		mul	r7, r5, r0
 1722 0354 03FB0677 		mla	r7, r3, r6, r7
 1723 0358 A5FB0331 		umull	r3, r1, r5, r3
 1724 035c 0F44     		add	r7, r7, r1
1023:Drivers/CMSIS/DSP/Source/TransformFunctions/arm_cfft_radix4_q31.c ****                          ((int32_t) (((q63_t) s1 * si1) >> 32))) >> 1U;
 1725              		.loc 1 1023 65 view .LVU645
 1726 035e D21B     		subs	r2, r2, r7
 1727              		.loc 1 1024 66 view .LVU646
 1728 0360 5210     		asrs	r2, r2, #1
1023:Drivers/CMSIS/DSP/Source/TransformFunctions/arm_cfft_radix4_q31.c ****                          ((int32_t) (((q63_t) s1 * si1) >> 32))) >> 1U;
 1729              		.loc 1 1023 23 view .LVU647
 1730 0362 0599     		ldr	r1, [sp, #20]
 1731 0364 4BF83120 		str	r2, [fp, r1, lsl #3]
ARM GAS  /tmp/ccuzNZ5H.s 			page 51


1025:Drivers/CMSIS/DSP/Source/TransformFunctions/arm_cfft_radix4_q31.c **** 
1026:Drivers/CMSIS/DSP/Source/TransformFunctions/arm_cfft_radix4_q31.c ****         /* yb' = (ya-xb-yc+xd)co1 + (xa+yb-xc-yd)(si1) */
1027:Drivers/CMSIS/DSP/Source/TransformFunctions/arm_cfft_radix4_q31.c ****         pSrc[(2U * i2) + 1U] = (((int32_t) (((q63_t) s1 * co1) >> 32)) +
 1732              		.loc 1 1027 9 is_stmt 1 view .LVU648
 1733              		.loc 1 1027 57 is_stmt 0 view .LVU649
 1734 0368 019A     		ldr	r2, [sp, #4]
 1735 036a 02FB06F6 		mul	r6, r2, r6
 1736 036e 05FB0E66 		mla	r6, r5, lr, r6
 1737 0372 A2FB0552 		umull	r5, r2, r2, r5
 1738              	.LVL218:
 1739              		.loc 1 1027 57 view .LVU650
 1740 0376 3244     		add	r2, r2, r6
1028:Drivers/CMSIS/DSP/Source/TransformFunctions/arm_cfft_radix4_q31.c ****                                 ((int32_t) (((q63_t) r1 * si1) >> 32))) >> 1U;
 1741              		.loc 1 1028 57 view .LVU651
 1742 0378 04FB00F0 		mul	r0, r4, r0
 1743 037c 029D     		ldr	r5, [sp, #8]
 1744 037e 05FB0C00 		mla	r0, r5, ip, r0
 1745 0382 A4FB0545 		umull	r4, r5, r4, r5
 1746              	.LVL219:
 1747              		.loc 1 1028 57 view .LVU652
 1748 0386 2844     		add	r0, r0, r5
1027:Drivers/CMSIS/DSP/Source/TransformFunctions/arm_cfft_radix4_q31.c ****                                 ((int32_t) (((q63_t) r1 * si1) >> 32))) >> 1U;
 1749              		.loc 1 1027 72 view .LVU653
 1750 0388 0244     		add	r2, r2, r0
 1751              		.loc 1 1028 73 view .LVU654
 1752 038a 5210     		asrs	r2, r2, #1
1027:Drivers/CMSIS/DSP/Source/TransformFunctions/arm_cfft_radix4_q31.c ****                                 ((int32_t) (((q63_t) r1 * si1) >> 32))) >> 1U;
 1753              		.loc 1 1027 30 view .LVU655
 1754 038c 069D     		ldr	r5, [sp, #24]
 1755 038e 4BF80520 		str	r2, [fp, r5]
1029:Drivers/CMSIS/DSP/Source/TransformFunctions/arm_cfft_radix4_q31.c **** 
1030:Drivers/CMSIS/DSP/Source/TransformFunctions/arm_cfft_radix4_q31.c ****         /* xd' = (xa-yb-xc+yd)co3 - (ya+xb-yc-xd)(si3) */
1031:Drivers/CMSIS/DSP/Source/TransformFunctions/arm_cfft_radix4_q31.c ****         pSrc[(2U * i3)] = (((int32_t) (((q63_t) r2 * co3) >> 32)) -
 1756              		.loc 1 1031 9 is_stmt 1 view .LVU656
 1757              		.loc 1 1031 41 is_stmt 0 view .LVU657
 1758 0392 009C     		ldr	r4, [sp]
 1759 0394 E617     		asrs	r6, r4, #31
 1760              		.loc 1 1031 52 view .LVU658
 1761 0396 0E9B     		ldr	r3, [sp, #56]
 1762 0398 DF17     		asrs	r7, r3, #31
 1763 039a 04FB07F2 		mul	r2, r4, r7
 1764 039e 03FB0622 		mla	r2, r3, r6, r2
 1765 03a2 A4FB0340 		umull	r4, r0, r4, r3
 1766 03a6 0244     		add	r2, r2, r0
 1767 03a8 0692     		str	r2, [sp, #24]
1032:Drivers/CMSIS/DSP/Source/TransformFunctions/arm_cfft_radix4_q31.c ****                            ((int32_t) (((q63_t) s2 * si3) >> 32))) >> 1U;
 1768              		.loc 1 1032 41 view .LVU659
 1769 03aa 079D     		ldr	r5, [sp, #28]
 1770 03ac EC17     		asrs	r4, r5, #31
 1771              		.loc 1 1032 52 view .LVU660
 1772 03ae 0F99     		ldr	r1, [sp, #60]
 1773 03b0 CA17     		asrs	r2, r1, #31
 1774 03b2 0592     		str	r2, [sp, #20]
 1775              	.LVL220:
 1776              		.loc 1 1032 52 view .LVU661
 1777 03b4 2846     		mov	r0, r5
 1778 03b6 02FB05F5 		mul	r5, r2, r5
ARM GAS  /tmp/ccuzNZ5H.s 			page 52


 1779 03ba 01FB0455 		mla	r5, r1, r4, r5
 1780 03be A0FB01EC 		umull	lr, ip, r0, r1
 1781 03c2 6544     		add	r5, r5, ip
1031:Drivers/CMSIS/DSP/Source/TransformFunctions/arm_cfft_radix4_q31.c ****                            ((int32_t) (((q63_t) s2 * si3) >> 32))) >> 1U;
 1782              		.loc 1 1031 67 view .LVU662
 1783 03c4 069A     		ldr	r2, [sp, #24]
 1784 03c6 521B     		subs	r2, r2, r5
 1785              		.loc 1 1032 68 view .LVU663
 1786 03c8 5210     		asrs	r2, r2, #1
1031:Drivers/CMSIS/DSP/Source/TransformFunctions/arm_cfft_radix4_q31.c ****                            ((int32_t) (((q63_t) s2 * si3) >> 32))) >> 1U;
 1787              		.loc 1 1031 25 view .LVU664
 1788 03ca 4BF83820 		str	r2, [fp, r8, lsl #3]
1033:Drivers/CMSIS/DSP/Source/TransformFunctions/arm_cfft_radix4_q31.c **** 
1034:Drivers/CMSIS/DSP/Source/TransformFunctions/arm_cfft_radix4_q31.c ****         /* yd' = (ya+xb-yc-xd)co3 + (xa-yb-xc+yd)(si3) */
1035:Drivers/CMSIS/DSP/Source/TransformFunctions/arm_cfft_radix4_q31.c ****         pSrc[(2U * i3) + 1U] = (((int32_t) (((q63_t) s2 * co3) >> 32)) +
 1789              		.loc 1 1035 9 is_stmt 1 view .LVU665
 1790              		.loc 1 1035 57 is_stmt 0 view .LVU666
 1791 03ce 03FB04F4 		mul	r4, r3, r4
 1792 03d2 00FB0744 		mla	r4, r0, r7, r4
 1793 03d6 A3FB0032 		umull	r3, r2, r3, r0
 1794 03da 2244     		add	r2, r2, r4
1036:Drivers/CMSIS/DSP/Source/TransformFunctions/arm_cfft_radix4_q31.c ****                                 ((int32_t) (((q63_t) r2 * si3) >> 32))) >> 1U;
 1795              		.loc 1 1036 57 view .LVU667
 1796 03dc 009C     		ldr	r4, [sp]
 1797 03de 0598     		ldr	r0, [sp, #20]
 1798 03e0 04FB00F0 		mul	r0, r4, r0
 1799 03e4 0B46     		mov	r3, r1
 1800 03e6 01FB0600 		mla	r0, r1, r6, r0
 1801 03ea A4FB0313 		umull	r1, r3, r4, r3
 1802 03ee 1844     		add	r0, r0, r3
1035:Drivers/CMSIS/DSP/Source/TransformFunctions/arm_cfft_radix4_q31.c ****                                 ((int32_t) (((q63_t) r2 * si3) >> 32))) >> 1U;
 1803              		.loc 1 1035 72 view .LVU668
 1804 03f0 0244     		add	r2, r2, r0
 1805              		.loc 1 1036 73 view .LVU669
 1806 03f2 5210     		asrs	r2, r2, #1
1035:Drivers/CMSIS/DSP/Source/TransformFunctions/arm_cfft_radix4_q31.c ****                                 ((int32_t) (((q63_t) r2 * si3) >> 32))) >> 1U;
 1807              		.loc 1 1035 30 view .LVU670
 1808 03f4 4BF80920 		str	r2, [fp, r9]
 964:Drivers/CMSIS/DSP/Source/TransformFunctions/arm_cfft_radix4_q31.c ****       {
 1809              		.loc 1 964 36 is_stmt 1 discriminator 3 view .LVU671
 1810 03f8 109B     		ldr	r3, [sp, #64]
 1811 03fa 9A44     		add	r10, r10, r3
 1812              	.LVL221:
 1813              	.L17:
 964:Drivers/CMSIS/DSP/Source/TransformFunctions/arm_cfft_radix4_q31.c ****       {
 1814              		.loc 1 964 23 discriminator 1 view .LVU672
 1815 03fc 0D9B     		ldr	r3, [sp, #52]
 1816 03fe 9A45     		cmp	r10, r3
 1817 0400 FFF419AF 		bcc	.L18
 950:Drivers/CMSIS/DSP/Source/TransformFunctions/arm_cfft_radix4_q31.c ****     {
 1818              		.loc 1 950 34 is_stmt 0 discriminator 2 view .LVU673
 1819 0404 119B     		ldr	r3, [sp, #68]
 1820 0406 129E     		ldr	r6, [sp, #72]
 1821 0408 139D     		ldr	r5, [sp, #76]
 950:Drivers/CMSIS/DSP/Source/TransformFunctions/arm_cfft_radix4_q31.c ****     {
 1822              		.loc 1 950 34 is_stmt 1 discriminator 2 view .LVU674
 1823 040a 0136     		adds	r6, r6, #1
ARM GAS  /tmp/ccuzNZ5H.s 			page 53


 1824              	.LVL222:
 1825              	.L16:
 950:Drivers/CMSIS/DSP/Source/TransformFunctions/arm_cfft_radix4_q31.c ****     {
 1826              		.loc 1 950 19 discriminator 1 view .LVU675
 950:Drivers/CMSIS/DSP/Source/TransformFunctions/arm_cfft_radix4_q31.c ****     {
 1827              		.loc 1 950 26 is_stmt 0 discriminator 1 view .LVU676
 1828 040c 0C9A     		ldr	r2, [sp, #48]
 1829 040e 013A     		subs	r2, r2, #1
 950:Drivers/CMSIS/DSP/Source/TransformFunctions/arm_cfft_radix4_q31.c ****     {
 1830              		.loc 1 950 19 discriminator 1 view .LVU677
 1831 0410 B242     		cmp	r2, r6
 1832 0412 1CD3     		bcc	.L23
 953:Drivers/CMSIS/DSP/Source/TransformFunctions/arm_cfft_radix4_q31.c ****       ia3 = ia2 + ia1;
 1833              		.loc 1 953 7 is_stmt 1 view .LVU678
 1834              	.LVL223:
 954:Drivers/CMSIS/DSP/Source/TransformFunctions/arm_cfft_radix4_q31.c ****       co1 = pCoef[ia1 * 2U];
 1835              		.loc 1 954 7 view .LVU679
 954:Drivers/CMSIS/DSP/Source/TransformFunctions/arm_cfft_radix4_q31.c ****       co1 = pCoef[ia1 * 2U];
 1836              		.loc 1 954 11 is_stmt 0 view .LVU680
 1837 0414 03EB4301 		add	r1, r3, r3, lsl #1
 1838              	.LVL224:
 955:Drivers/CMSIS/DSP/Source/TransformFunctions/arm_cfft_radix4_q31.c ****       si1 = pCoef[(ia1 * 2U) + 1U];
 1839              		.loc 1 955 7 is_stmt 1 view .LVU681
 955:Drivers/CMSIS/DSP/Source/TransformFunctions/arm_cfft_radix4_q31.c ****       si1 = pCoef[(ia1 * 2U) + 1U];
 1840              		.loc 1 955 18 is_stmt 0 view .LVU682
 1841 0418 DA00     		lsls	r2, r3, #3
 955:Drivers/CMSIS/DSP/Source/TransformFunctions/arm_cfft_radix4_q31.c ****       si1 = pCoef[(ia1 * 2U) + 1U];
 1842              		.loc 1 955 11 view .LVU683
 1843 041a 55F83300 		ldr	r0, [r5, r3, lsl #3]
 1844 041e 0190     		str	r0, [sp, #4]
 1845              	.LVL225:
 956:Drivers/CMSIS/DSP/Source/TransformFunctions/arm_cfft_radix4_q31.c ****       co2 = pCoef[ia2 * 2U];
 1846              		.loc 1 956 7 is_stmt 1 view .LVU684
 956:Drivers/CMSIS/DSP/Source/TransformFunctions/arm_cfft_radix4_q31.c ****       co2 = pCoef[ia2 * 2U];
 1847              		.loc 1 956 18 is_stmt 0 view .LVU685
 1848 0420 0432     		adds	r2, r2, #4
 956:Drivers/CMSIS/DSP/Source/TransformFunctions/arm_cfft_radix4_q31.c ****       co2 = pCoef[ia2 * 2U];
 1849              		.loc 1 956 11 view .LVU686
 1850 0422 AA58     		ldr	r2, [r5, r2]
 1851 0424 0292     		str	r2, [sp, #8]
 1852              	.LVL226:
 957:Drivers/CMSIS/DSP/Source/TransformFunctions/arm_cfft_radix4_q31.c ****       si2 = pCoef[(ia2 * 2U) + 1U];
 1853              		.loc 1 957 7 is_stmt 1 view .LVU687
 957:Drivers/CMSIS/DSP/Source/TransformFunctions/arm_cfft_radix4_q31.c ****       si2 = pCoef[(ia2 * 2U) + 1U];
 1854              		.loc 1 957 18 is_stmt 0 view .LVU688
 1855 0426 1A01     		lsls	r2, r3, #4
 1856              	.LVL227:
 957:Drivers/CMSIS/DSP/Source/TransformFunctions/arm_cfft_radix4_q31.c ****       si2 = pCoef[(ia2 * 2U) + 1U];
 1857              		.loc 1 957 11 view .LVU689
 1858 0428 A858     		ldr	r0, [r5, r2]
 1859              	.LVL228:
 957:Drivers/CMSIS/DSP/Source/TransformFunctions/arm_cfft_radix4_q31.c ****       si2 = pCoef[(ia2 * 2U) + 1U];
 1860              		.loc 1 957 11 view .LVU690
 1861 042a 0390     		str	r0, [sp, #12]
 1862              	.LVL229:
 958:Drivers/CMSIS/DSP/Source/TransformFunctions/arm_cfft_radix4_q31.c ****       co3 = pCoef[ia3 * 2U];
 1863              		.loc 1 958 7 is_stmt 1 view .LVU691
ARM GAS  /tmp/ccuzNZ5H.s 			page 54


 958:Drivers/CMSIS/DSP/Source/TransformFunctions/arm_cfft_radix4_q31.c ****       co3 = pCoef[ia3 * 2U];
 1864              		.loc 1 958 18 is_stmt 0 view .LVU692
 1865 042c 0432     		adds	r2, r2, #4
 958:Drivers/CMSIS/DSP/Source/TransformFunctions/arm_cfft_radix4_q31.c ****       co3 = pCoef[ia3 * 2U];
 1866              		.loc 1 958 11 view .LVU693
 1867 042e AA58     		ldr	r2, [r5, r2]
 1868 0430 0492     		str	r2, [sp, #16]
 1869              	.LVL230:
 959:Drivers/CMSIS/DSP/Source/TransformFunctions/arm_cfft_radix4_q31.c ****       si3 = pCoef[(ia3 * 2U) + 1U];
 1870              		.loc 1 959 7 is_stmt 1 view .LVU694
 959:Drivers/CMSIS/DSP/Source/TransformFunctions/arm_cfft_radix4_q31.c ****       si3 = pCoef[(ia3 * 2U) + 1U];
 1871              		.loc 1 959 18 is_stmt 0 view .LVU695
 1872 0432 CA00     		lsls	r2, r1, #3
 1873              	.LVL231:
 959:Drivers/CMSIS/DSP/Source/TransformFunctions/arm_cfft_radix4_q31.c ****       si3 = pCoef[(ia3 * 2U) + 1U];
 1874              		.loc 1 959 11 view .LVU696
 1875 0434 55F83110 		ldr	r1, [r5, r1, lsl #3]
 1876              	.LVL232:
 959:Drivers/CMSIS/DSP/Source/TransformFunctions/arm_cfft_radix4_q31.c ****       si3 = pCoef[(ia3 * 2U) + 1U];
 1877              		.loc 1 959 11 view .LVU697
 1878 0438 0E91     		str	r1, [sp, #56]
 1879              	.LVL233:
 960:Drivers/CMSIS/DSP/Source/TransformFunctions/arm_cfft_radix4_q31.c ****       /*  Twiddle coefficients index modifier */
 1880              		.loc 1 960 7 is_stmt 1 view .LVU698
 960:Drivers/CMSIS/DSP/Source/TransformFunctions/arm_cfft_radix4_q31.c ****       /*  Twiddle coefficients index modifier */
 1881              		.loc 1 960 18 is_stmt 0 view .LVU699
 1882 043a 0432     		adds	r2, r2, #4
 960:Drivers/CMSIS/DSP/Source/TransformFunctions/arm_cfft_radix4_q31.c ****       /*  Twiddle coefficients index modifier */
 1883              		.loc 1 960 11 view .LVU700
 1884 043c AA58     		ldr	r2, [r5, r2]
 1885 043e 0F92     		str	r2, [sp, #60]
 1886              	.LVL234:
 962:Drivers/CMSIS/DSP/Source/TransformFunctions/arm_cfft_radix4_q31.c **** 
 1887              		.loc 1 962 7 is_stmt 1 view .LVU701
 962:Drivers/CMSIS/DSP/Source/TransformFunctions/arm_cfft_radix4_q31.c **** 
 1888              		.loc 1 962 11 is_stmt 0 view .LVU702
 1889 0440 149A     		ldr	r2, [sp, #80]
 1890              	.LVL235:
 962:Drivers/CMSIS/DSP/Source/TransformFunctions/arm_cfft_radix4_q31.c **** 
 1891              		.loc 1 962 11 view .LVU703
 1892 0442 1344     		add	r3, r3, r2
 1893              	.LVL236:
 964:Drivers/CMSIS/DSP/Source/TransformFunctions/arm_cfft_radix4_q31.c ****       {
 1894              		.loc 1 964 7 is_stmt 1 view .LVU704
 964:Drivers/CMSIS/DSP/Source/TransformFunctions/arm_cfft_radix4_q31.c ****       {
 1895              		.loc 1 964 7 is_stmt 0 view .LVU705
 1896 0444 1193     		str	r3, [sp, #68]
 1897 0446 B246     		mov	r10, r6
 1898 0448 1296     		str	r6, [sp, #72]
 1899 044a 1395     		str	r5, [sp, #76]
 1900 044c D6E7     		b	.L17
 1901              	.LVL237:
 1902              	.L23:
1037:Drivers/CMSIS/DSP/Source/TransformFunctions/arm_cfft_radix4_q31.c ****       }
1038:Drivers/CMSIS/DSP/Source/TransformFunctions/arm_cfft_radix4_q31.c ****     }
1039:Drivers/CMSIS/DSP/Source/TransformFunctions/arm_cfft_radix4_q31.c ****     twidCoefModifier <<= 2U;
 1903              		.loc 1 1039 22 view .LVU706
ARM GAS  /tmp/ccuzNZ5H.s 			page 55


 1904 044e 149F     		ldr	r7, [sp, #80]
 1905 0450 1699     		ldr	r1, [sp, #88]
 1906 0452 DA46     		mov	r10, fp
 1907              		.loc 1 1039 5 is_stmt 1 view .LVU707
 1908              		.loc 1 1039 22 is_stmt 0 view .LVU708
 1909 0454 BF00     		lsls	r7, r7, #2
 1910              	.LVL238:
 943:Drivers/CMSIS/DSP/Source/TransformFunctions/arm_cfft_radix4_q31.c ****   {
 1911              		.loc 1 943 35 is_stmt 1 discriminator 2 view .LVU709
 1912 0456 8908     		lsrs	r1, r1, #2
 1913              	.LVL239:
 947:Drivers/CMSIS/DSP/Source/TransformFunctions/arm_cfft_radix4_q31.c ****     ia1 = 0U;
 1914              		.loc 1 947 8 is_stmt 0 view .LVU710
 1915 0458 0C9B     		ldr	r3, [sp, #48]
 1916              	.LVL240:
 947:Drivers/CMSIS/DSP/Source/TransformFunctions/arm_cfft_radix4_q31.c ****     ia1 = 0U;
 1917              		.loc 1 947 8 view .LVU711
 1918 045a 1093     		str	r3, [sp, #64]
 1919              	.LVL241:
 1920              	.L15:
 943:Drivers/CMSIS/DSP/Source/TransformFunctions/arm_cfft_radix4_q31.c ****   {
 1921              		.loc 1 943 27 is_stmt 1 discriminator 1 view .LVU712
 1922 045c 0429     		cmp	r1, #4
 1923 045e 08D9     		bls	.L24
 946:Drivers/CMSIS/DSP/Source/TransformFunctions/arm_cfft_radix4_q31.c ****     n2 >>= 2U;
 1924              		.loc 1 946 5 view .LVU713
 1925              	.LVL242:
 947:Drivers/CMSIS/DSP/Source/TransformFunctions/arm_cfft_radix4_q31.c ****     ia1 = 0U;
 1926              		.loc 1 947 5 view .LVU714
 947:Drivers/CMSIS/DSP/Source/TransformFunctions/arm_cfft_radix4_q31.c ****     ia1 = 0U;
 1927              		.loc 1 947 8 is_stmt 0 view .LVU715
 1928 0460 109B     		ldr	r3, [sp, #64]
 1929 0462 9B08     		lsrs	r3, r3, #2
 1930 0464 0C93     		str	r3, [sp, #48]
 1931              	.LVL243:
 948:Drivers/CMSIS/DSP/Source/TransformFunctions/arm_cfft_radix4_q31.c **** 
 1932              		.loc 1 948 5 is_stmt 1 view .LVU716
 950:Drivers/CMSIS/DSP/Source/TransformFunctions/arm_cfft_radix4_q31.c ****     {
 1933              		.loc 1 950 5 view .LVU717
 950:Drivers/CMSIS/DSP/Source/TransformFunctions/arm_cfft_radix4_q31.c ****     {
 1934              		.loc 1 950 12 is_stmt 0 view .LVU718
 1935 0466 159B     		ldr	r3, [sp, #84]
 1936              	.LVL244:
 950:Drivers/CMSIS/DSP/Source/TransformFunctions/arm_cfft_radix4_q31.c ****     {
 1937              		.loc 1 950 12 view .LVU719
 1938 0468 1E46     		mov	r6, r3
 1939 046a 1497     		str	r7, [sp, #80]
 1940 046c 1691     		str	r1, [sp, #88]
 1941 046e D346     		mov	fp, r10
 950:Drivers/CMSIS/DSP/Source/TransformFunctions/arm_cfft_radix4_q31.c ****     {
 1942              		.loc 1 950 5 view .LVU720
 1943 0470 CCE7     		b	.L16
 1944              	.LVL245:
 1945              	.L24:
 950:Drivers/CMSIS/DSP/Source/TransformFunctions/arm_cfft_radix4_q31.c ****     {
 1946              		.loc 1 950 5 view .LVU721
 1947 0472 179C     		ldr	r4, [sp, #92]
ARM GAS  /tmp/ccuzNZ5H.s 			page 56


 1948 0474 D146     		mov	r9, r10
 1949              	.LVL246:
 1950              	.L21:
1040:Drivers/CMSIS/DSP/Source/TransformFunctions/arm_cfft_radix4_q31.c ****   }
1041:Drivers/CMSIS/DSP/Source/TransformFunctions/arm_cfft_radix4_q31.c **** #else
1042:Drivers/CMSIS/DSP/Source/TransformFunctions/arm_cfft_radix4_q31.c ****   uint32_t n1, n2, ia1, ia2, ia3, i0, j, k;
1043:Drivers/CMSIS/DSP/Source/TransformFunctions/arm_cfft_radix4_q31.c ****   q31_t t1, t2, r1, r2, s1, s2, co1, co2, co3, si1, si2, si3;
1044:Drivers/CMSIS/DSP/Source/TransformFunctions/arm_cfft_radix4_q31.c ****   q31_t xa, xb, xc, xd;
1045:Drivers/CMSIS/DSP/Source/TransformFunctions/arm_cfft_radix4_q31.c ****   q31_t ya, yb, yc, yd;
1046:Drivers/CMSIS/DSP/Source/TransformFunctions/arm_cfft_radix4_q31.c ****   q31_t xa_out, xb_out, xc_out, xd_out;
1047:Drivers/CMSIS/DSP/Source/TransformFunctions/arm_cfft_radix4_q31.c ****   q31_t ya_out, yb_out, yc_out, yd_out;
1048:Drivers/CMSIS/DSP/Source/TransformFunctions/arm_cfft_radix4_q31.c **** 
1049:Drivers/CMSIS/DSP/Source/TransformFunctions/arm_cfft_radix4_q31.c ****   q31_t *ptr1;
1050:Drivers/CMSIS/DSP/Source/TransformFunctions/arm_cfft_radix4_q31.c ****   q31_t *pSi0;
1051:Drivers/CMSIS/DSP/Source/TransformFunctions/arm_cfft_radix4_q31.c ****   q31_t *pSi1;
1052:Drivers/CMSIS/DSP/Source/TransformFunctions/arm_cfft_radix4_q31.c ****   q31_t *pSi2;
1053:Drivers/CMSIS/DSP/Source/TransformFunctions/arm_cfft_radix4_q31.c ****   q31_t *pSi3;
1054:Drivers/CMSIS/DSP/Source/TransformFunctions/arm_cfft_radix4_q31.c ****   q63_t xaya, xbyb, xcyc, xdyd;
1055:Drivers/CMSIS/DSP/Source/TransformFunctions/arm_cfft_radix4_q31.c **** 
1056:Drivers/CMSIS/DSP/Source/TransformFunctions/arm_cfft_radix4_q31.c ****   /* input is be 1.31(q31) format for all FFT sizes */
1057:Drivers/CMSIS/DSP/Source/TransformFunctions/arm_cfft_radix4_q31.c ****   /* Total process is divided into three stages */
1058:Drivers/CMSIS/DSP/Source/TransformFunctions/arm_cfft_radix4_q31.c ****   /* process first stage, middle stages, & last stage */
1059:Drivers/CMSIS/DSP/Source/TransformFunctions/arm_cfft_radix4_q31.c **** 
1060:Drivers/CMSIS/DSP/Source/TransformFunctions/arm_cfft_radix4_q31.c ****   /* Start of first stage process */
1061:Drivers/CMSIS/DSP/Source/TransformFunctions/arm_cfft_radix4_q31.c **** 
1062:Drivers/CMSIS/DSP/Source/TransformFunctions/arm_cfft_radix4_q31.c ****   /* Initializations for the first stage */
1063:Drivers/CMSIS/DSP/Source/TransformFunctions/arm_cfft_radix4_q31.c ****   n2 = fftLen;
1064:Drivers/CMSIS/DSP/Source/TransformFunctions/arm_cfft_radix4_q31.c ****   n1 = n2;
1065:Drivers/CMSIS/DSP/Source/TransformFunctions/arm_cfft_radix4_q31.c ****   /* n2 = fftLen/4 */
1066:Drivers/CMSIS/DSP/Source/TransformFunctions/arm_cfft_radix4_q31.c ****   n2 >>= 2U;
1067:Drivers/CMSIS/DSP/Source/TransformFunctions/arm_cfft_radix4_q31.c **** 
1068:Drivers/CMSIS/DSP/Source/TransformFunctions/arm_cfft_radix4_q31.c ****   ia1 = 0U;
1069:Drivers/CMSIS/DSP/Source/TransformFunctions/arm_cfft_radix4_q31.c **** 
1070:Drivers/CMSIS/DSP/Source/TransformFunctions/arm_cfft_radix4_q31.c ****   j = n2;
1071:Drivers/CMSIS/DSP/Source/TransformFunctions/arm_cfft_radix4_q31.c **** 
1072:Drivers/CMSIS/DSP/Source/TransformFunctions/arm_cfft_radix4_q31.c ****   pSi0 = pSrc;
1073:Drivers/CMSIS/DSP/Source/TransformFunctions/arm_cfft_radix4_q31.c ****   pSi1 = pSi0 + 2 * n2;
1074:Drivers/CMSIS/DSP/Source/TransformFunctions/arm_cfft_radix4_q31.c ****   pSi2 = pSi1 + 2 * n2;
1075:Drivers/CMSIS/DSP/Source/TransformFunctions/arm_cfft_radix4_q31.c ****   pSi3 = pSi2 + 2 * n2;
1076:Drivers/CMSIS/DSP/Source/TransformFunctions/arm_cfft_radix4_q31.c **** 
1077:Drivers/CMSIS/DSP/Source/TransformFunctions/arm_cfft_radix4_q31.c ****   do
1078:Drivers/CMSIS/DSP/Source/TransformFunctions/arm_cfft_radix4_q31.c ****   {
1079:Drivers/CMSIS/DSP/Source/TransformFunctions/arm_cfft_radix4_q31.c ****     /*  Butterfly implementation */
1080:Drivers/CMSIS/DSP/Source/TransformFunctions/arm_cfft_radix4_q31.c ****     /* xa + xc */
1081:Drivers/CMSIS/DSP/Source/TransformFunctions/arm_cfft_radix4_q31.c ****     r1 = (pSi0[0] >> 4U) + (pSi2[0] >> 4U);
1082:Drivers/CMSIS/DSP/Source/TransformFunctions/arm_cfft_radix4_q31.c ****     /* xa - xc */
1083:Drivers/CMSIS/DSP/Source/TransformFunctions/arm_cfft_radix4_q31.c ****     r2 = (pSi0[0] >> 4U) - (pSi2[0] >> 4U);
1084:Drivers/CMSIS/DSP/Source/TransformFunctions/arm_cfft_radix4_q31.c **** 
1085:Drivers/CMSIS/DSP/Source/TransformFunctions/arm_cfft_radix4_q31.c ****     /* xb + xd */
1086:Drivers/CMSIS/DSP/Source/TransformFunctions/arm_cfft_radix4_q31.c ****     t1 = (pSi1[0] >> 4U) + (pSi3[0] >> 4U);
1087:Drivers/CMSIS/DSP/Source/TransformFunctions/arm_cfft_radix4_q31.c **** 
1088:Drivers/CMSIS/DSP/Source/TransformFunctions/arm_cfft_radix4_q31.c ****     /* ya + yc */
1089:Drivers/CMSIS/DSP/Source/TransformFunctions/arm_cfft_radix4_q31.c ****     s1 = (pSi0[1] >> 4U) + (pSi2[1] >> 4U);
1090:Drivers/CMSIS/DSP/Source/TransformFunctions/arm_cfft_radix4_q31.c ****     /* ya - yc */
1091:Drivers/CMSIS/DSP/Source/TransformFunctions/arm_cfft_radix4_q31.c ****     s2 = (pSi0[1] >> 4U) - (pSi2[1] >> 4U);
1092:Drivers/CMSIS/DSP/Source/TransformFunctions/arm_cfft_radix4_q31.c **** 
1093:Drivers/CMSIS/DSP/Source/TransformFunctions/arm_cfft_radix4_q31.c ****     /* xa' = xa + xb + xc + xd */
ARM GAS  /tmp/ccuzNZ5H.s 			page 57


1094:Drivers/CMSIS/DSP/Source/TransformFunctions/arm_cfft_radix4_q31.c ****     *pSi0++ = (r1 + t1);
1095:Drivers/CMSIS/DSP/Source/TransformFunctions/arm_cfft_radix4_q31.c ****     /* (xa + xc) - (xb + xd) */
1096:Drivers/CMSIS/DSP/Source/TransformFunctions/arm_cfft_radix4_q31.c ****     r1 = r1 - t1;
1097:Drivers/CMSIS/DSP/Source/TransformFunctions/arm_cfft_radix4_q31.c ****     /* yb + yd */
1098:Drivers/CMSIS/DSP/Source/TransformFunctions/arm_cfft_radix4_q31.c ****     t2 = (pSi1[1] >> 4U) + (pSi3[1] >> 4U);
1099:Drivers/CMSIS/DSP/Source/TransformFunctions/arm_cfft_radix4_q31.c ****     /* ya' = ya + yb + yc + yd */
1100:Drivers/CMSIS/DSP/Source/TransformFunctions/arm_cfft_radix4_q31.c ****     *pSi0++ = (s1 + t2);
1101:Drivers/CMSIS/DSP/Source/TransformFunctions/arm_cfft_radix4_q31.c **** 
1102:Drivers/CMSIS/DSP/Source/TransformFunctions/arm_cfft_radix4_q31.c ****     /* (ya + yc) - (yb + yd) */
1103:Drivers/CMSIS/DSP/Source/TransformFunctions/arm_cfft_radix4_q31.c ****     s1 = s1 - t2;
1104:Drivers/CMSIS/DSP/Source/TransformFunctions/arm_cfft_radix4_q31.c **** 
1105:Drivers/CMSIS/DSP/Source/TransformFunctions/arm_cfft_radix4_q31.c ****     /* yb - yd */
1106:Drivers/CMSIS/DSP/Source/TransformFunctions/arm_cfft_radix4_q31.c ****     t1 = (pSi1[1] >> 4U) - (pSi3[1] >> 4U);
1107:Drivers/CMSIS/DSP/Source/TransformFunctions/arm_cfft_radix4_q31.c ****     /* xb - xd */
1108:Drivers/CMSIS/DSP/Source/TransformFunctions/arm_cfft_radix4_q31.c ****     t2 = (pSi1[0] >> 4U) - (pSi3[0] >> 4U);
1109:Drivers/CMSIS/DSP/Source/TransformFunctions/arm_cfft_radix4_q31.c **** 
1110:Drivers/CMSIS/DSP/Source/TransformFunctions/arm_cfft_radix4_q31.c ****     /*  index calculation for the coefficients */
1111:Drivers/CMSIS/DSP/Source/TransformFunctions/arm_cfft_radix4_q31.c ****     ia2 = 2U * ia1;
1112:Drivers/CMSIS/DSP/Source/TransformFunctions/arm_cfft_radix4_q31.c ****     co2 = pCoef[ia2 * 2U];
1113:Drivers/CMSIS/DSP/Source/TransformFunctions/arm_cfft_radix4_q31.c ****     si2 = pCoef[(ia2 * 2U) + 1U];
1114:Drivers/CMSIS/DSP/Source/TransformFunctions/arm_cfft_radix4_q31.c **** 
1115:Drivers/CMSIS/DSP/Source/TransformFunctions/arm_cfft_radix4_q31.c ****     /* xc' = (xa-xb+xc-xd)co2 - (ya-yb+yc-yd)(si2) */
1116:Drivers/CMSIS/DSP/Source/TransformFunctions/arm_cfft_radix4_q31.c ****     *pSi1++ = (((int32_t) (((q63_t) r1 * co2) >> 32)) -
1117:Drivers/CMSIS/DSP/Source/TransformFunctions/arm_cfft_radix4_q31.c ****                      ((int32_t) (((q63_t) s1 * si2) >> 32))) << 1U;
1118:Drivers/CMSIS/DSP/Source/TransformFunctions/arm_cfft_radix4_q31.c **** 
1119:Drivers/CMSIS/DSP/Source/TransformFunctions/arm_cfft_radix4_q31.c ****     /* yc' = (ya-yb+yc-yd)co2 + (xa-xb+xc-xd)(si2) */
1120:Drivers/CMSIS/DSP/Source/TransformFunctions/arm_cfft_radix4_q31.c ****     *pSi1++ = (((int32_t) (((q63_t) s1 * co2) >> 32)) +
1121:Drivers/CMSIS/DSP/Source/TransformFunctions/arm_cfft_radix4_q31.c ****                           ((int32_t) (((q63_t) r1 * si2) >> 32))) << 1U;
1122:Drivers/CMSIS/DSP/Source/TransformFunctions/arm_cfft_radix4_q31.c **** 
1123:Drivers/CMSIS/DSP/Source/TransformFunctions/arm_cfft_radix4_q31.c ****     /* (xa - xc) - (yb - yd) */
1124:Drivers/CMSIS/DSP/Source/TransformFunctions/arm_cfft_radix4_q31.c ****     r1 = r2 - t1;
1125:Drivers/CMSIS/DSP/Source/TransformFunctions/arm_cfft_radix4_q31.c ****     /* (xa - xc) + (yb - yd) */
1126:Drivers/CMSIS/DSP/Source/TransformFunctions/arm_cfft_radix4_q31.c ****     r2 = r2 + t1;
1127:Drivers/CMSIS/DSP/Source/TransformFunctions/arm_cfft_radix4_q31.c **** 
1128:Drivers/CMSIS/DSP/Source/TransformFunctions/arm_cfft_radix4_q31.c ****     /* (ya - yc) + (xb - xd) */
1129:Drivers/CMSIS/DSP/Source/TransformFunctions/arm_cfft_radix4_q31.c ****     s1 = s2 + t2;
1130:Drivers/CMSIS/DSP/Source/TransformFunctions/arm_cfft_radix4_q31.c ****     /* (ya - yc) - (xb - xd) */
1131:Drivers/CMSIS/DSP/Source/TransformFunctions/arm_cfft_radix4_q31.c ****     s2 = s2 - t2;
1132:Drivers/CMSIS/DSP/Source/TransformFunctions/arm_cfft_radix4_q31.c **** 
1133:Drivers/CMSIS/DSP/Source/TransformFunctions/arm_cfft_radix4_q31.c ****     co1 = pCoef[ia1 * 2U];
1134:Drivers/CMSIS/DSP/Source/TransformFunctions/arm_cfft_radix4_q31.c ****     si1 = pCoef[(ia1 * 2U) + 1U];
1135:Drivers/CMSIS/DSP/Source/TransformFunctions/arm_cfft_radix4_q31.c **** 
1136:Drivers/CMSIS/DSP/Source/TransformFunctions/arm_cfft_radix4_q31.c ****     /* xb' = (xa+yb-xc-yd)co1 - (ya-xb-yc+xd)(si1) */
1137:Drivers/CMSIS/DSP/Source/TransformFunctions/arm_cfft_radix4_q31.c ****     *pSi2++ = (((int32_t) (((q63_t) r1 * co1) >> 32)) -
1138:Drivers/CMSIS/DSP/Source/TransformFunctions/arm_cfft_radix4_q31.c ****                      ((int32_t) (((q63_t) s1 * si1) >> 32))) << 1U;
1139:Drivers/CMSIS/DSP/Source/TransformFunctions/arm_cfft_radix4_q31.c **** 
1140:Drivers/CMSIS/DSP/Source/TransformFunctions/arm_cfft_radix4_q31.c ****     /* yb' = (ya-xb-yc+xd)co1 + (xa+yb-xc-yd)(si1) */
1141:Drivers/CMSIS/DSP/Source/TransformFunctions/arm_cfft_radix4_q31.c ****     *pSi2++ = (((int32_t) (((q63_t) s1 * co1) >> 32)) +
1142:Drivers/CMSIS/DSP/Source/TransformFunctions/arm_cfft_radix4_q31.c ****                             ((int32_t) (((q63_t) r1 * si1) >> 32))) << 1U;
1143:Drivers/CMSIS/DSP/Source/TransformFunctions/arm_cfft_radix4_q31.c **** 
1144:Drivers/CMSIS/DSP/Source/TransformFunctions/arm_cfft_radix4_q31.c ****     /*  index calculation for the coefficients */
1145:Drivers/CMSIS/DSP/Source/TransformFunctions/arm_cfft_radix4_q31.c ****     ia3 = 3U * ia1;
1146:Drivers/CMSIS/DSP/Source/TransformFunctions/arm_cfft_radix4_q31.c ****     co3 = pCoef[ia3 * 2U];
1147:Drivers/CMSIS/DSP/Source/TransformFunctions/arm_cfft_radix4_q31.c ****     si3 = pCoef[(ia3 * 2U) + 1U];
1148:Drivers/CMSIS/DSP/Source/TransformFunctions/arm_cfft_radix4_q31.c **** 
1149:Drivers/CMSIS/DSP/Source/TransformFunctions/arm_cfft_radix4_q31.c ****     /* xd' = (xa-yb-xc+yd)co3 - (ya+xb-yc-xd)(si3) */
1150:Drivers/CMSIS/DSP/Source/TransformFunctions/arm_cfft_radix4_q31.c ****     *pSi3++ = (((int32_t) (((q63_t) r2 * co3) >> 32)) -
ARM GAS  /tmp/ccuzNZ5H.s 			page 58


1151:Drivers/CMSIS/DSP/Source/TransformFunctions/arm_cfft_radix4_q31.c ****                      ((int32_t) (((q63_t) s2 * si3) >> 32))) << 1U;
1152:Drivers/CMSIS/DSP/Source/TransformFunctions/arm_cfft_radix4_q31.c **** 
1153:Drivers/CMSIS/DSP/Source/TransformFunctions/arm_cfft_radix4_q31.c ****     /* yd' = (ya+xb-yc-xd)co3 + (xa-yb-xc+yd)(si3) */
1154:Drivers/CMSIS/DSP/Source/TransformFunctions/arm_cfft_radix4_q31.c ****     *pSi3++ = (((int32_t) (((q63_t) s2 * co3) >> 32)) +
1155:Drivers/CMSIS/DSP/Source/TransformFunctions/arm_cfft_radix4_q31.c ****                             ((int32_t) (((q63_t) r2 * si3) >> 32))) << 1U;
1156:Drivers/CMSIS/DSP/Source/TransformFunctions/arm_cfft_radix4_q31.c **** 
1157:Drivers/CMSIS/DSP/Source/TransformFunctions/arm_cfft_radix4_q31.c ****     /*  Twiddle coefficients index modifier */
1158:Drivers/CMSIS/DSP/Source/TransformFunctions/arm_cfft_radix4_q31.c ****     ia1 = ia1 + twidCoefModifier;
1159:Drivers/CMSIS/DSP/Source/TransformFunctions/arm_cfft_radix4_q31.c **** 
1160:Drivers/CMSIS/DSP/Source/TransformFunctions/arm_cfft_radix4_q31.c ****   } while (--j);
1161:Drivers/CMSIS/DSP/Source/TransformFunctions/arm_cfft_radix4_q31.c **** 
1162:Drivers/CMSIS/DSP/Source/TransformFunctions/arm_cfft_radix4_q31.c ****   /* data is in 5.27(q27) format */
1163:Drivers/CMSIS/DSP/Source/TransformFunctions/arm_cfft_radix4_q31.c ****   /* each stage provides two down scaling of the input */
1164:Drivers/CMSIS/DSP/Source/TransformFunctions/arm_cfft_radix4_q31.c **** 
1165:Drivers/CMSIS/DSP/Source/TransformFunctions/arm_cfft_radix4_q31.c **** 
1166:Drivers/CMSIS/DSP/Source/TransformFunctions/arm_cfft_radix4_q31.c ****   /* Start of Middle stages process */
1167:Drivers/CMSIS/DSP/Source/TransformFunctions/arm_cfft_radix4_q31.c **** 
1168:Drivers/CMSIS/DSP/Source/TransformFunctions/arm_cfft_radix4_q31.c ****   twidCoefModifier <<= 2U;
1169:Drivers/CMSIS/DSP/Source/TransformFunctions/arm_cfft_radix4_q31.c **** 
1170:Drivers/CMSIS/DSP/Source/TransformFunctions/arm_cfft_radix4_q31.c ****   /*  Calculation of second stage to excluding last stage */
1171:Drivers/CMSIS/DSP/Source/TransformFunctions/arm_cfft_radix4_q31.c ****   for (k = fftLen / 4U; k > 4U; k >>= 2U)
1172:Drivers/CMSIS/DSP/Source/TransformFunctions/arm_cfft_radix4_q31.c ****   {
1173:Drivers/CMSIS/DSP/Source/TransformFunctions/arm_cfft_radix4_q31.c ****     /*  Initializations for the first stage */
1174:Drivers/CMSIS/DSP/Source/TransformFunctions/arm_cfft_radix4_q31.c ****     n1 = n2;
1175:Drivers/CMSIS/DSP/Source/TransformFunctions/arm_cfft_radix4_q31.c ****     n2 >>= 2U;
1176:Drivers/CMSIS/DSP/Source/TransformFunctions/arm_cfft_radix4_q31.c ****     ia1 = 0U;
1177:Drivers/CMSIS/DSP/Source/TransformFunctions/arm_cfft_radix4_q31.c **** 
1178:Drivers/CMSIS/DSP/Source/TransformFunctions/arm_cfft_radix4_q31.c ****     for (j = 0; j <= (n2 - 1U); j++)
1179:Drivers/CMSIS/DSP/Source/TransformFunctions/arm_cfft_radix4_q31.c ****     {
1180:Drivers/CMSIS/DSP/Source/TransformFunctions/arm_cfft_radix4_q31.c ****       /*  index calculation for the coefficients */
1181:Drivers/CMSIS/DSP/Source/TransformFunctions/arm_cfft_radix4_q31.c ****       ia2 = ia1 + ia1;
1182:Drivers/CMSIS/DSP/Source/TransformFunctions/arm_cfft_radix4_q31.c ****       ia3 = ia2 + ia1;
1183:Drivers/CMSIS/DSP/Source/TransformFunctions/arm_cfft_radix4_q31.c ****       co1 = pCoef[ia1 * 2U];
1184:Drivers/CMSIS/DSP/Source/TransformFunctions/arm_cfft_radix4_q31.c ****       si1 = pCoef[(ia1 * 2U) + 1U];
1185:Drivers/CMSIS/DSP/Source/TransformFunctions/arm_cfft_radix4_q31.c ****       co2 = pCoef[ia2 * 2U];
1186:Drivers/CMSIS/DSP/Source/TransformFunctions/arm_cfft_radix4_q31.c ****       si2 = pCoef[(ia2 * 2U) + 1U];
1187:Drivers/CMSIS/DSP/Source/TransformFunctions/arm_cfft_radix4_q31.c ****       co3 = pCoef[ia3 * 2U];
1188:Drivers/CMSIS/DSP/Source/TransformFunctions/arm_cfft_radix4_q31.c ****       si3 = pCoef[(ia3 * 2U) + 1U];
1189:Drivers/CMSIS/DSP/Source/TransformFunctions/arm_cfft_radix4_q31.c ****       /*  Twiddle coefficients index modifier */
1190:Drivers/CMSIS/DSP/Source/TransformFunctions/arm_cfft_radix4_q31.c ****       ia1 = ia1 + twidCoefModifier;
1191:Drivers/CMSIS/DSP/Source/TransformFunctions/arm_cfft_radix4_q31.c **** 
1192:Drivers/CMSIS/DSP/Source/TransformFunctions/arm_cfft_radix4_q31.c ****       pSi0 = pSrc + 2 * j;
1193:Drivers/CMSIS/DSP/Source/TransformFunctions/arm_cfft_radix4_q31.c ****       pSi1 = pSi0 + 2 * n2;
1194:Drivers/CMSIS/DSP/Source/TransformFunctions/arm_cfft_radix4_q31.c ****       pSi2 = pSi1 + 2 * n2;
1195:Drivers/CMSIS/DSP/Source/TransformFunctions/arm_cfft_radix4_q31.c ****       pSi3 = pSi2 + 2 * n2;
1196:Drivers/CMSIS/DSP/Source/TransformFunctions/arm_cfft_radix4_q31.c **** 
1197:Drivers/CMSIS/DSP/Source/TransformFunctions/arm_cfft_radix4_q31.c ****       for (i0 = j; i0 < fftLen; i0 += n1)
1198:Drivers/CMSIS/DSP/Source/TransformFunctions/arm_cfft_radix4_q31.c ****       {
1199:Drivers/CMSIS/DSP/Source/TransformFunctions/arm_cfft_radix4_q31.c ****         /*  Butterfly implementation */
1200:Drivers/CMSIS/DSP/Source/TransformFunctions/arm_cfft_radix4_q31.c ****         /* xa + xc */
1201:Drivers/CMSIS/DSP/Source/TransformFunctions/arm_cfft_radix4_q31.c ****         r1 = pSi0[0] + pSi2[0];
1202:Drivers/CMSIS/DSP/Source/TransformFunctions/arm_cfft_radix4_q31.c **** 
1203:Drivers/CMSIS/DSP/Source/TransformFunctions/arm_cfft_radix4_q31.c ****         /* xa - xc */
1204:Drivers/CMSIS/DSP/Source/TransformFunctions/arm_cfft_radix4_q31.c ****         r2 = pSi0[0] - pSi2[0];
1205:Drivers/CMSIS/DSP/Source/TransformFunctions/arm_cfft_radix4_q31.c **** 
1206:Drivers/CMSIS/DSP/Source/TransformFunctions/arm_cfft_radix4_q31.c **** 
1207:Drivers/CMSIS/DSP/Source/TransformFunctions/arm_cfft_radix4_q31.c ****         /* ya + yc */
ARM GAS  /tmp/ccuzNZ5H.s 			page 59


1208:Drivers/CMSIS/DSP/Source/TransformFunctions/arm_cfft_radix4_q31.c ****         s1 = pSi0[1] + pSi2[1];
1209:Drivers/CMSIS/DSP/Source/TransformFunctions/arm_cfft_radix4_q31.c **** 
1210:Drivers/CMSIS/DSP/Source/TransformFunctions/arm_cfft_radix4_q31.c ****         /* ya - yc */
1211:Drivers/CMSIS/DSP/Source/TransformFunctions/arm_cfft_radix4_q31.c ****         s2 = pSi0[1] - pSi2[1];
1212:Drivers/CMSIS/DSP/Source/TransformFunctions/arm_cfft_radix4_q31.c **** 
1213:Drivers/CMSIS/DSP/Source/TransformFunctions/arm_cfft_radix4_q31.c **** 
1214:Drivers/CMSIS/DSP/Source/TransformFunctions/arm_cfft_radix4_q31.c ****         /* xb + xd */
1215:Drivers/CMSIS/DSP/Source/TransformFunctions/arm_cfft_radix4_q31.c ****         t1 = pSi1[0] + pSi3[0];
1216:Drivers/CMSIS/DSP/Source/TransformFunctions/arm_cfft_radix4_q31.c **** 
1217:Drivers/CMSIS/DSP/Source/TransformFunctions/arm_cfft_radix4_q31.c **** 
1218:Drivers/CMSIS/DSP/Source/TransformFunctions/arm_cfft_radix4_q31.c ****         /* xa' = xa + xb + xc + xd */
1219:Drivers/CMSIS/DSP/Source/TransformFunctions/arm_cfft_radix4_q31.c ****         pSi0[0] = (r1 + t1) >> 2U;
1220:Drivers/CMSIS/DSP/Source/TransformFunctions/arm_cfft_radix4_q31.c ****         /* xa + xc -(xb + xd) */
1221:Drivers/CMSIS/DSP/Source/TransformFunctions/arm_cfft_radix4_q31.c ****         r1 = r1 - t1;
1222:Drivers/CMSIS/DSP/Source/TransformFunctions/arm_cfft_radix4_q31.c ****         /* yb + yd */
1223:Drivers/CMSIS/DSP/Source/TransformFunctions/arm_cfft_radix4_q31.c ****         t2 = pSi1[1] + pSi3[1];
1224:Drivers/CMSIS/DSP/Source/TransformFunctions/arm_cfft_radix4_q31.c **** 
1225:Drivers/CMSIS/DSP/Source/TransformFunctions/arm_cfft_radix4_q31.c ****         /* ya' = ya + yb + yc + yd */
1226:Drivers/CMSIS/DSP/Source/TransformFunctions/arm_cfft_radix4_q31.c ****         pSi0[1] = (s1 + t2) >> 2U;
1227:Drivers/CMSIS/DSP/Source/TransformFunctions/arm_cfft_radix4_q31.c ****         pSi0 += 2 * n1;
1228:Drivers/CMSIS/DSP/Source/TransformFunctions/arm_cfft_radix4_q31.c **** 
1229:Drivers/CMSIS/DSP/Source/TransformFunctions/arm_cfft_radix4_q31.c ****         /* (ya + yc) - (yb + yd) */
1230:Drivers/CMSIS/DSP/Source/TransformFunctions/arm_cfft_radix4_q31.c ****         s1 = s1 - t2;
1231:Drivers/CMSIS/DSP/Source/TransformFunctions/arm_cfft_radix4_q31.c **** 
1232:Drivers/CMSIS/DSP/Source/TransformFunctions/arm_cfft_radix4_q31.c ****         /* (yb - yd) */
1233:Drivers/CMSIS/DSP/Source/TransformFunctions/arm_cfft_radix4_q31.c ****         t1 = pSi1[1] - pSi3[1];
1234:Drivers/CMSIS/DSP/Source/TransformFunctions/arm_cfft_radix4_q31.c **** 
1235:Drivers/CMSIS/DSP/Source/TransformFunctions/arm_cfft_radix4_q31.c ****         /* (xb - xd) */
1236:Drivers/CMSIS/DSP/Source/TransformFunctions/arm_cfft_radix4_q31.c ****         t2 = pSi1[0] - pSi3[0];
1237:Drivers/CMSIS/DSP/Source/TransformFunctions/arm_cfft_radix4_q31.c **** 
1238:Drivers/CMSIS/DSP/Source/TransformFunctions/arm_cfft_radix4_q31.c **** 
1239:Drivers/CMSIS/DSP/Source/TransformFunctions/arm_cfft_radix4_q31.c ****         /* xc' = (xa-xb+xc-xd)co2 - (ya-yb+yc-yd)(si2) */
1240:Drivers/CMSIS/DSP/Source/TransformFunctions/arm_cfft_radix4_q31.c ****         pSi1[0] = (((int32_t) (((q63_t) r1 * co2) >> 32U)) -
1241:Drivers/CMSIS/DSP/Source/TransformFunctions/arm_cfft_radix4_q31.c ****                          ((int32_t) (((q63_t) s1 * si2) >> 32U))) >> 1U;
1242:Drivers/CMSIS/DSP/Source/TransformFunctions/arm_cfft_radix4_q31.c **** 
1243:Drivers/CMSIS/DSP/Source/TransformFunctions/arm_cfft_radix4_q31.c ****         /* yc' = (ya-yb+yc-yd)co2 + (xa-xb+xc-xd)(si2) */
1244:Drivers/CMSIS/DSP/Source/TransformFunctions/arm_cfft_radix4_q31.c ****         pSi1[1] =
1245:Drivers/CMSIS/DSP/Source/TransformFunctions/arm_cfft_radix4_q31.c **** 
1246:Drivers/CMSIS/DSP/Source/TransformFunctions/arm_cfft_radix4_q31.c ****           (((int32_t) (((q63_t) s1 * co2) >> 32U)) +
1247:Drivers/CMSIS/DSP/Source/TransformFunctions/arm_cfft_radix4_q31.c ****            ((int32_t) (((q63_t) r1 * si2) >> 32U))) >> 1U;
1248:Drivers/CMSIS/DSP/Source/TransformFunctions/arm_cfft_radix4_q31.c ****         pSi1 += 2 * n1;
1249:Drivers/CMSIS/DSP/Source/TransformFunctions/arm_cfft_radix4_q31.c **** 
1250:Drivers/CMSIS/DSP/Source/TransformFunctions/arm_cfft_radix4_q31.c ****         /* (xa - xc) - (yb - yd) */
1251:Drivers/CMSIS/DSP/Source/TransformFunctions/arm_cfft_radix4_q31.c ****         r1 = r2 - t1;
1252:Drivers/CMSIS/DSP/Source/TransformFunctions/arm_cfft_radix4_q31.c ****         /* (xa - xc) + (yb - yd) */
1253:Drivers/CMSIS/DSP/Source/TransformFunctions/arm_cfft_radix4_q31.c ****         r2 = r2 + t1;
1254:Drivers/CMSIS/DSP/Source/TransformFunctions/arm_cfft_radix4_q31.c **** 
1255:Drivers/CMSIS/DSP/Source/TransformFunctions/arm_cfft_radix4_q31.c ****         /* (ya - yc) +  (xb - xd) */
1256:Drivers/CMSIS/DSP/Source/TransformFunctions/arm_cfft_radix4_q31.c ****         s1 = s2 + t2;
1257:Drivers/CMSIS/DSP/Source/TransformFunctions/arm_cfft_radix4_q31.c ****         /* (ya - yc) -  (xb - xd) */
1258:Drivers/CMSIS/DSP/Source/TransformFunctions/arm_cfft_radix4_q31.c ****         s2 = s2 - t2;
1259:Drivers/CMSIS/DSP/Source/TransformFunctions/arm_cfft_radix4_q31.c **** 
1260:Drivers/CMSIS/DSP/Source/TransformFunctions/arm_cfft_radix4_q31.c ****         /* xb' = (xa+yb-xc-yd)co1 - (ya-xb-yc+xd)(si1) */
1261:Drivers/CMSIS/DSP/Source/TransformFunctions/arm_cfft_radix4_q31.c ****         pSi2[0] = (((int32_t) (((q63_t) r1 * co1) >> 32)) -
1262:Drivers/CMSIS/DSP/Source/TransformFunctions/arm_cfft_radix4_q31.c ****                          ((int32_t) (((q63_t) s1 * si1) >> 32))) >> 1U;
1263:Drivers/CMSIS/DSP/Source/TransformFunctions/arm_cfft_radix4_q31.c **** 
1264:Drivers/CMSIS/DSP/Source/TransformFunctions/arm_cfft_radix4_q31.c ****         /* yb' = (ya-xb-yc+xd)co1 + (xa+yb-xc-yd)(si1) */
ARM GAS  /tmp/ccuzNZ5H.s 			page 60


1265:Drivers/CMSIS/DSP/Source/TransformFunctions/arm_cfft_radix4_q31.c ****         pSi2[1] = (((int32_t) (((q63_t) s1 * co1) >> 32)) +
1266:Drivers/CMSIS/DSP/Source/TransformFunctions/arm_cfft_radix4_q31.c ****                                 ((int32_t) (((q63_t) r1 * si1) >> 32))) >> 1U;
1267:Drivers/CMSIS/DSP/Source/TransformFunctions/arm_cfft_radix4_q31.c ****         pSi2 += 2 * n1;
1268:Drivers/CMSIS/DSP/Source/TransformFunctions/arm_cfft_radix4_q31.c **** 
1269:Drivers/CMSIS/DSP/Source/TransformFunctions/arm_cfft_radix4_q31.c ****         /* xd' = (xa-yb-xc+yd)co3 - (ya+xb-yc-xd)(si3) */
1270:Drivers/CMSIS/DSP/Source/TransformFunctions/arm_cfft_radix4_q31.c ****         pSi3[0] = (((int32_t) (((q63_t) r2 * co3) >> 32)) -
1271:Drivers/CMSIS/DSP/Source/TransformFunctions/arm_cfft_radix4_q31.c ****                            ((int32_t) (((q63_t) s2 * si3) >> 32))) >> 1U;
1272:Drivers/CMSIS/DSP/Source/TransformFunctions/arm_cfft_radix4_q31.c **** 
1273:Drivers/CMSIS/DSP/Source/TransformFunctions/arm_cfft_radix4_q31.c ****         /* yd' = (ya+xb-yc-xd)co3 + (xa-yb-xc+yd)(si3) */
1274:Drivers/CMSIS/DSP/Source/TransformFunctions/arm_cfft_radix4_q31.c ****         pSi3[1] = (((int32_t) (((q63_t) s2 * co3) >> 32)) +
1275:Drivers/CMSIS/DSP/Source/TransformFunctions/arm_cfft_radix4_q31.c ****                                 ((int32_t) (((q63_t) r2 * si3) >> 32))) >> 1U;
1276:Drivers/CMSIS/DSP/Source/TransformFunctions/arm_cfft_radix4_q31.c ****         pSi3 += 2 * n1;
1277:Drivers/CMSIS/DSP/Source/TransformFunctions/arm_cfft_radix4_q31.c ****       }
1278:Drivers/CMSIS/DSP/Source/TransformFunctions/arm_cfft_radix4_q31.c ****     }
1279:Drivers/CMSIS/DSP/Source/TransformFunctions/arm_cfft_radix4_q31.c ****     twidCoefModifier <<= 2U;
1280:Drivers/CMSIS/DSP/Source/TransformFunctions/arm_cfft_radix4_q31.c ****   }
1281:Drivers/CMSIS/DSP/Source/TransformFunctions/arm_cfft_radix4_q31.c **** #endif
1282:Drivers/CMSIS/DSP/Source/TransformFunctions/arm_cfft_radix4_q31.c **** 
1283:Drivers/CMSIS/DSP/Source/TransformFunctions/arm_cfft_radix4_q31.c ****   /* End of Middle stages process */
1284:Drivers/CMSIS/DSP/Source/TransformFunctions/arm_cfft_radix4_q31.c **** 
1285:Drivers/CMSIS/DSP/Source/TransformFunctions/arm_cfft_radix4_q31.c ****   /* data is in 11.21(q21) format for the 1024 point as there are 3 middle stages */
1286:Drivers/CMSIS/DSP/Source/TransformFunctions/arm_cfft_radix4_q31.c ****   /* data is in 9.23(q23) format for the 256 point as there are 2 middle stages */
1287:Drivers/CMSIS/DSP/Source/TransformFunctions/arm_cfft_radix4_q31.c ****   /* data is in 7.25(q25) format for the 64 point as there are 1 middle stage */
1288:Drivers/CMSIS/DSP/Source/TransformFunctions/arm_cfft_radix4_q31.c ****   /* data is in 5.27(q27) format for the 16 point as there are no middle stages */
1289:Drivers/CMSIS/DSP/Source/TransformFunctions/arm_cfft_radix4_q31.c **** 
1290:Drivers/CMSIS/DSP/Source/TransformFunctions/arm_cfft_radix4_q31.c **** 
1291:Drivers/CMSIS/DSP/Source/TransformFunctions/arm_cfft_radix4_q31.c ****   /* Start of last stage process */
1292:Drivers/CMSIS/DSP/Source/TransformFunctions/arm_cfft_radix4_q31.c **** 
1293:Drivers/CMSIS/DSP/Source/TransformFunctions/arm_cfft_radix4_q31.c **** 
1294:Drivers/CMSIS/DSP/Source/TransformFunctions/arm_cfft_radix4_q31.c ****   /*  Initializations for the last stage */
1295:Drivers/CMSIS/DSP/Source/TransformFunctions/arm_cfft_radix4_q31.c ****   j = fftLen >> 2;
1296:Drivers/CMSIS/DSP/Source/TransformFunctions/arm_cfft_radix4_q31.c ****   ptr1 = &pSrc[0];
1297:Drivers/CMSIS/DSP/Source/TransformFunctions/arm_cfft_radix4_q31.c **** 
1298:Drivers/CMSIS/DSP/Source/TransformFunctions/arm_cfft_radix4_q31.c ****   /*  Calculations of last stage */
1299:Drivers/CMSIS/DSP/Source/TransformFunctions/arm_cfft_radix4_q31.c ****   do
 1951              		.loc 1 1299 3 is_stmt 1 view .LVU722
1300:Drivers/CMSIS/DSP/Source/TransformFunctions/arm_cfft_radix4_q31.c ****   {
1301:Drivers/CMSIS/DSP/Source/TransformFunctions/arm_cfft_radix4_q31.c **** #ifndef ARM_MATH_BIG_ENDIAN
1302:Drivers/CMSIS/DSP/Source/TransformFunctions/arm_cfft_radix4_q31.c ****     /* Read xa (real), ya(imag) input */
1303:Drivers/CMSIS/DSP/Source/TransformFunctions/arm_cfft_radix4_q31.c ****     xaya = *__SIMD64(ptr1)++;
 1952              		.loc 1 1303 5 view .LVU723
 1953              		.loc 1 1303 10 is_stmt 0 view .LVU724
 1954 0476 D9F80020 		ldr	r2, [r9]
 1955 047a D9F80430 		ldr	r3, [r9, #4]
 1956              	.LVL247:
1304:Drivers/CMSIS/DSP/Source/TransformFunctions/arm_cfft_radix4_q31.c ****     xa = (q31_t) xaya;
 1957              		.loc 1 1304 5 is_stmt 1 view .LVU725
1305:Drivers/CMSIS/DSP/Source/TransformFunctions/arm_cfft_radix4_q31.c ****     ya = (q31_t) (xaya >> 32);
 1958              		.loc 1 1305 5 view .LVU726
1306:Drivers/CMSIS/DSP/Source/TransformFunctions/arm_cfft_radix4_q31.c **** 
1307:Drivers/CMSIS/DSP/Source/TransformFunctions/arm_cfft_radix4_q31.c ****     /* Read xb (real), yb(imag) input */
1308:Drivers/CMSIS/DSP/Source/TransformFunctions/arm_cfft_radix4_q31.c ****     xbyb = *__SIMD64(ptr1)++;
 1959              		.loc 1 1308 5 view .LVU727
 1960              		.loc 1 1308 10 is_stmt 0 view .LVU728
 1961 047e D9F80870 		ldr	r7, [r9, #8]
 1962 0482 D9F80C80 		ldr	r8, [r9, #12]
 1963              	.LVL248:
ARM GAS  /tmp/ccuzNZ5H.s 			page 61


1309:Drivers/CMSIS/DSP/Source/TransformFunctions/arm_cfft_radix4_q31.c ****     xb = (q31_t) xbyb;
 1964              		.loc 1 1309 5 is_stmt 1 view .LVU729
1310:Drivers/CMSIS/DSP/Source/TransformFunctions/arm_cfft_radix4_q31.c ****     yb = (q31_t) (xbyb >> 32);
 1965              		.loc 1 1310 5 view .LVU730
1311:Drivers/CMSIS/DSP/Source/TransformFunctions/arm_cfft_radix4_q31.c **** 
1312:Drivers/CMSIS/DSP/Source/TransformFunctions/arm_cfft_radix4_q31.c ****     /* Read xc (real), yc(imag) input */
1313:Drivers/CMSIS/DSP/Source/TransformFunctions/arm_cfft_radix4_q31.c ****     xcyc = *__SIMD64(ptr1)++;
 1966              		.loc 1 1313 5 view .LVU731
 1967              		.loc 1 1313 10 is_stmt 0 view .LVU732
 1968 0486 D9F810E0 		ldr	lr, [r9, #16]
 1969 048a D9F81460 		ldr	r6, [r9, #20]
 1970              	.LVL249:
1314:Drivers/CMSIS/DSP/Source/TransformFunctions/arm_cfft_radix4_q31.c ****     xc = (q31_t) xcyc;
 1971              		.loc 1 1314 5 is_stmt 1 view .LVU733
1315:Drivers/CMSIS/DSP/Source/TransformFunctions/arm_cfft_radix4_q31.c ****     yc = (q31_t) (xcyc >> 32);
 1972              		.loc 1 1315 5 view .LVU734
1316:Drivers/CMSIS/DSP/Source/TransformFunctions/arm_cfft_radix4_q31.c **** 
1317:Drivers/CMSIS/DSP/Source/TransformFunctions/arm_cfft_radix4_q31.c ****     /* Read xc (real), yc(imag) input */
1318:Drivers/CMSIS/DSP/Source/TransformFunctions/arm_cfft_radix4_q31.c ****     xdyd = *__SIMD64(ptr1)++;
 1973              		.loc 1 1318 5 view .LVU735
 1974              		.loc 1 1318 10 is_stmt 0 view .LVU736
 1975 048e D9F81850 		ldr	r5, [r9, #24]
 1976 0492 D9F81CC0 		ldr	ip, [r9, #28]
 1977              	.LVL250:
1319:Drivers/CMSIS/DSP/Source/TransformFunctions/arm_cfft_radix4_q31.c ****     xd = (q31_t) xdyd;
 1978              		.loc 1 1319 5 is_stmt 1 view .LVU737
1320:Drivers/CMSIS/DSP/Source/TransformFunctions/arm_cfft_radix4_q31.c ****     yd = (q31_t) (xdyd >> 32);
 1979              		.loc 1 1320 5 view .LVU738
1321:Drivers/CMSIS/DSP/Source/TransformFunctions/arm_cfft_radix4_q31.c **** 
1322:Drivers/CMSIS/DSP/Source/TransformFunctions/arm_cfft_radix4_q31.c **** #else
1323:Drivers/CMSIS/DSP/Source/TransformFunctions/arm_cfft_radix4_q31.c **** 
1324:Drivers/CMSIS/DSP/Source/TransformFunctions/arm_cfft_radix4_q31.c ****     /* Read xa (real), ya(imag) input */
1325:Drivers/CMSIS/DSP/Source/TransformFunctions/arm_cfft_radix4_q31.c ****     xaya = *__SIMD64(ptr1)++;
1326:Drivers/CMSIS/DSP/Source/TransformFunctions/arm_cfft_radix4_q31.c ****     ya = (q31_t) xaya;
1327:Drivers/CMSIS/DSP/Source/TransformFunctions/arm_cfft_radix4_q31.c ****     xa = (q31_t) (xaya >> 32);
1328:Drivers/CMSIS/DSP/Source/TransformFunctions/arm_cfft_radix4_q31.c **** 
1329:Drivers/CMSIS/DSP/Source/TransformFunctions/arm_cfft_radix4_q31.c ****     /* Read xb (real), yb(imag) input */
1330:Drivers/CMSIS/DSP/Source/TransformFunctions/arm_cfft_radix4_q31.c ****     xbyb = *__SIMD64(ptr1)++;
1331:Drivers/CMSIS/DSP/Source/TransformFunctions/arm_cfft_radix4_q31.c ****     yb = (q31_t) xbyb;
1332:Drivers/CMSIS/DSP/Source/TransformFunctions/arm_cfft_radix4_q31.c ****     xb = (q31_t) (xbyb >> 32);
1333:Drivers/CMSIS/DSP/Source/TransformFunctions/arm_cfft_radix4_q31.c **** 
1334:Drivers/CMSIS/DSP/Source/TransformFunctions/arm_cfft_radix4_q31.c ****     /* Read xc (real), yc(imag) input */
1335:Drivers/CMSIS/DSP/Source/TransformFunctions/arm_cfft_radix4_q31.c ****     xcyc = *__SIMD64(ptr1)++;
1336:Drivers/CMSIS/DSP/Source/TransformFunctions/arm_cfft_radix4_q31.c ****     yc = (q31_t) xcyc;
1337:Drivers/CMSIS/DSP/Source/TransformFunctions/arm_cfft_radix4_q31.c ****     xc = (q31_t) (xcyc >> 32);
1338:Drivers/CMSIS/DSP/Source/TransformFunctions/arm_cfft_radix4_q31.c **** 
1339:Drivers/CMSIS/DSP/Source/TransformFunctions/arm_cfft_radix4_q31.c ****     /* Read xc (real), yc(imag) input */
1340:Drivers/CMSIS/DSP/Source/TransformFunctions/arm_cfft_radix4_q31.c ****     xdyd = *__SIMD64(ptr1)++;
1341:Drivers/CMSIS/DSP/Source/TransformFunctions/arm_cfft_radix4_q31.c ****     yd = (q31_t) xdyd;
1342:Drivers/CMSIS/DSP/Source/TransformFunctions/arm_cfft_radix4_q31.c ****     xd = (q31_t) (xdyd >> 32);
1343:Drivers/CMSIS/DSP/Source/TransformFunctions/arm_cfft_radix4_q31.c **** 
1344:Drivers/CMSIS/DSP/Source/TransformFunctions/arm_cfft_radix4_q31.c **** 
1345:Drivers/CMSIS/DSP/Source/TransformFunctions/arm_cfft_radix4_q31.c **** #endif
1346:Drivers/CMSIS/DSP/Source/TransformFunctions/arm_cfft_radix4_q31.c **** 
1347:Drivers/CMSIS/DSP/Source/TransformFunctions/arm_cfft_radix4_q31.c ****     /* xa' = xa + xb + xc + xd */
1348:Drivers/CMSIS/DSP/Source/TransformFunctions/arm_cfft_radix4_q31.c ****     xa_out = xa + xb + xc + xd;
 1980              		.loc 1 1348 5 view .LVU739
ARM GAS  /tmp/ccuzNZ5H.s 			page 62


 1981              		.loc 1 1348 17 is_stmt 0 view .LVU740
 1982 0496 D019     		adds	r0, r2, r7
 1983              		.loc 1 1348 22 view .LVU741
 1984 0498 7044     		add	r0, r0, lr
 1985              		.loc 1 1348 12 view .LVU742
 1986 049a 2844     		add	r0, r0, r5
 1987              	.LVL251:
1349:Drivers/CMSIS/DSP/Source/TransformFunctions/arm_cfft_radix4_q31.c **** 
1350:Drivers/CMSIS/DSP/Source/TransformFunctions/arm_cfft_radix4_q31.c ****     /* ya' = ya + yb + yc + yd */
1351:Drivers/CMSIS/DSP/Source/TransformFunctions/arm_cfft_radix4_q31.c ****     ya_out = ya + yb + yc + yd;
 1988              		.loc 1 1351 5 is_stmt 1 view .LVU743
 1989              		.loc 1 1351 17 is_stmt 0 view .LVU744
 1990 049c 03EB0801 		add	r1, r3, r8
 1991              		.loc 1 1351 22 view .LVU745
 1992 04a0 3144     		add	r1, r1, r6
 1993              		.loc 1 1351 12 view .LVU746
 1994 04a2 6144     		add	r1, r1, ip
 1995              	.LVL252:
1352:Drivers/CMSIS/DSP/Source/TransformFunctions/arm_cfft_radix4_q31.c **** 
1353:Drivers/CMSIS/DSP/Source/TransformFunctions/arm_cfft_radix4_q31.c ****     /* pointer updation for writing */
1354:Drivers/CMSIS/DSP/Source/TransformFunctions/arm_cfft_radix4_q31.c ****     ptr1 = ptr1 - 8U;
 1996              		.loc 1 1354 5 is_stmt 1 view .LVU747
1355:Drivers/CMSIS/DSP/Source/TransformFunctions/arm_cfft_radix4_q31.c **** 
1356:Drivers/CMSIS/DSP/Source/TransformFunctions/arm_cfft_radix4_q31.c ****     /* writing xa' and ya' */
1357:Drivers/CMSIS/DSP/Source/TransformFunctions/arm_cfft_radix4_q31.c ****     *ptr1++ = xa_out;
 1997              		.loc 1 1357 5 view .LVU748
 1998              		.loc 1 1357 13 is_stmt 0 view .LVU749
 1999 04a4 C9F80000 		str	r0, [r9]
1358:Drivers/CMSIS/DSP/Source/TransformFunctions/arm_cfft_radix4_q31.c ****     *ptr1++ = ya_out;
 2000              		.loc 1 1358 5 is_stmt 1 view .LVU750
 2001              	.LVL253:
 2002              		.loc 1 1358 13 is_stmt 0 view .LVU751
 2003 04a8 C9F80410 		str	r1, [r9, #4]
1359:Drivers/CMSIS/DSP/Source/TransformFunctions/arm_cfft_radix4_q31.c **** 
1360:Drivers/CMSIS/DSP/Source/TransformFunctions/arm_cfft_radix4_q31.c ****     xc_out = (xa - xb + xc - xd);
 2004              		.loc 1 1360 5 is_stmt 1 view .LVU752
 2005              		.loc 1 1360 18 is_stmt 0 view .LVU753
 2006 04ac D01B     		subs	r0, r2, r7
 2007              	.LVL254:
 2008              		.loc 1 1360 23 view .LVU754
 2009 04ae 7044     		add	r0, r0, lr
 2010              		.loc 1 1360 12 view .LVU755
 2011 04b0 401B     		subs	r0, r0, r5
 2012              	.LVL255:
1361:Drivers/CMSIS/DSP/Source/TransformFunctions/arm_cfft_radix4_q31.c ****     yc_out = (ya - yb + yc - yd);
 2013              		.loc 1 1361 5 is_stmt 1 view .LVU756
 2014              		.loc 1 1361 18 is_stmt 0 view .LVU757
 2015 04b2 A3EB0801 		sub	r1, r3, r8
 2016              	.LVL256:
 2017              		.loc 1 1361 23 view .LVU758
 2018 04b6 3144     		add	r1, r1, r6
 2019              		.loc 1 1361 12 view .LVU759
 2020 04b8 A1EB0C01 		sub	r1, r1, ip
 2021              	.LVL257:
1362:Drivers/CMSIS/DSP/Source/TransformFunctions/arm_cfft_radix4_q31.c **** 
1363:Drivers/CMSIS/DSP/Source/TransformFunctions/arm_cfft_radix4_q31.c ****     /* writing xc' and yc' */
1364:Drivers/CMSIS/DSP/Source/TransformFunctions/arm_cfft_radix4_q31.c ****     *ptr1++ = xc_out;
ARM GAS  /tmp/ccuzNZ5H.s 			page 63


 2022              		.loc 1 1364 5 is_stmt 1 view .LVU760
 2023              		.loc 1 1364 13 is_stmt 0 view .LVU761
 2024 04bc C9F80800 		str	r0, [r9, #8]
1365:Drivers/CMSIS/DSP/Source/TransformFunctions/arm_cfft_radix4_q31.c ****     *ptr1++ = yc_out;
 2025              		.loc 1 1365 5 is_stmt 1 view .LVU762
 2026              	.LVL258:
 2027              		.loc 1 1365 13 is_stmt 0 view .LVU763
 2028 04c0 C9F80C10 		str	r1, [r9, #12]
1366:Drivers/CMSIS/DSP/Source/TransformFunctions/arm_cfft_radix4_q31.c **** 
1367:Drivers/CMSIS/DSP/Source/TransformFunctions/arm_cfft_radix4_q31.c ****     xb_out = (xa - yb - xc + yd);
 2029              		.loc 1 1367 5 is_stmt 1 view .LVU764
 2030              		.loc 1 1367 18 is_stmt 0 view .LVU765
 2031 04c4 A2EB0800 		sub	r0, r2, r8
 2032              	.LVL259:
 2033              		.loc 1 1367 23 view .LVU766
 2034 04c8 A0EB0E00 		sub	r0, r0, lr
 2035              		.loc 1 1367 12 view .LVU767
 2036 04cc 6044     		add	r0, r0, ip
 2037              	.LVL260:
1368:Drivers/CMSIS/DSP/Source/TransformFunctions/arm_cfft_radix4_q31.c ****     yb_out = (ya + xb - yc - xd);
 2038              		.loc 1 1368 5 is_stmt 1 view .LVU768
 2039              		.loc 1 1368 18 is_stmt 0 view .LVU769
 2040 04ce D919     		adds	r1, r3, r7
 2041              	.LVL261:
 2042              		.loc 1 1368 23 view .LVU770
 2043 04d0 891B     		subs	r1, r1, r6
 2044              		.loc 1 1368 12 view .LVU771
 2045 04d2 491B     		subs	r1, r1, r5
 2046              	.LVL262:
1369:Drivers/CMSIS/DSP/Source/TransformFunctions/arm_cfft_radix4_q31.c **** 
1370:Drivers/CMSIS/DSP/Source/TransformFunctions/arm_cfft_radix4_q31.c ****     /* writing xb' and yb' */
1371:Drivers/CMSIS/DSP/Source/TransformFunctions/arm_cfft_radix4_q31.c ****     *ptr1++ = xb_out;
 2047              		.loc 1 1371 5 is_stmt 1 view .LVU772
 2048              		.loc 1 1371 13 is_stmt 0 view .LVU773
 2049 04d4 C9F81000 		str	r0, [r9, #16]
1372:Drivers/CMSIS/DSP/Source/TransformFunctions/arm_cfft_radix4_q31.c ****     *ptr1++ = yb_out;
 2050              		.loc 1 1372 5 is_stmt 1 view .LVU774
 2051              	.LVL263:
 2052              		.loc 1 1372 13 is_stmt 0 view .LVU775
 2053 04d8 C9F81410 		str	r1, [r9, #20]
1373:Drivers/CMSIS/DSP/Source/TransformFunctions/arm_cfft_radix4_q31.c **** 
1374:Drivers/CMSIS/DSP/Source/TransformFunctions/arm_cfft_radix4_q31.c ****     xd_out = (xa + yb - xc - yd);
 2054              		.loc 1 1374 5 is_stmt 1 view .LVU776
 2055              		.loc 1 1374 18 is_stmt 0 view .LVU777
 2056 04dc 4244     		add	r2, r2, r8
 2057              	.LVL264:
 2058              		.loc 1 1374 23 view .LVU778
 2059 04de A2EB0E02 		sub	r2, r2, lr
 2060              		.loc 1 1374 12 view .LVU779
 2061 04e2 A2EB0C02 		sub	r2, r2, ip
 2062              	.LVL265:
1375:Drivers/CMSIS/DSP/Source/TransformFunctions/arm_cfft_radix4_q31.c ****     yd_out = (ya - xb - yc + xd);
 2063              		.loc 1 1375 5 is_stmt 1 view .LVU780
 2064              		.loc 1 1375 18 is_stmt 0 view .LVU781
