ARM GAS  /tmp/ccRHSwPY.s 			page 1


   1              		.cpu cortex-m7
   2              		.arch armv7e-m
   3              		.fpu fpv5-sp-d16
   4              		.eabi_attribute 27, 1
   5              		.eabi_attribute 28, 1
   6              		.eabi_attribute 20, 1
   7              		.eabi_attribute 21, 1
   8              		.eabi_attribute 23, 3
   9              		.eabi_attribute 24, 1
  10              		.eabi_attribute 25, 1
  11              		.eabi_attribute 26, 1
  12              		.eabi_attribute 30, 1
  13              		.eabi_attribute 34, 1
  14              		.eabi_attribute 18, 4
  15              		.file	"arm_conv_q31.c"
  16              		.text
  17              	.Ltext0:
  18              		.cfi_sections	.debug_frame
  19              		.file 1 "Drivers/CMSIS/DSP/Source/FilteringFunctions/arm_conv_q31.c"
  20              		.section	.text.arm_conv_q31,"ax",%progbits
  21              		.align	1
  22              		.global	arm_conv_q31
  23              		.syntax unified
  24              		.thumb
  25              		.thumb_func
  27              	arm_conv_q31:
  28              	.LVL0:
  29              	.LFB135:
   1:Drivers/CMSIS/DSP/Source/FilteringFunctions/arm_conv_q31.c **** /* ----------------------------------------------------------------------
   2:Drivers/CMSIS/DSP/Source/FilteringFunctions/arm_conv_q31.c ****  * Project:      CMSIS DSP Library
   3:Drivers/CMSIS/DSP/Source/FilteringFunctions/arm_conv_q31.c ****  * Title:        arm_conv_q31.c
   4:Drivers/CMSIS/DSP/Source/FilteringFunctions/arm_conv_q31.c ****  * Description:  Convolution of Q31 sequences
   5:Drivers/CMSIS/DSP/Source/FilteringFunctions/arm_conv_q31.c ****  *
   6:Drivers/CMSIS/DSP/Source/FilteringFunctions/arm_conv_q31.c ****  * $Date:        27. January 2017
   7:Drivers/CMSIS/DSP/Source/FilteringFunctions/arm_conv_q31.c ****  * $Revision:    V.1.5.1
   8:Drivers/CMSIS/DSP/Source/FilteringFunctions/arm_conv_q31.c ****  *
   9:Drivers/CMSIS/DSP/Source/FilteringFunctions/arm_conv_q31.c ****  * Target Processor: Cortex-M cores
  10:Drivers/CMSIS/DSP/Source/FilteringFunctions/arm_conv_q31.c ****  * -------------------------------------------------------------------- */
  11:Drivers/CMSIS/DSP/Source/FilteringFunctions/arm_conv_q31.c **** /*
  12:Drivers/CMSIS/DSP/Source/FilteringFunctions/arm_conv_q31.c ****  * Copyright (C) 2010-2017 ARM Limited or its affiliates. All rights reserved.
  13:Drivers/CMSIS/DSP/Source/FilteringFunctions/arm_conv_q31.c ****  *
  14:Drivers/CMSIS/DSP/Source/FilteringFunctions/arm_conv_q31.c ****  * SPDX-License-Identifier: Apache-2.0
  15:Drivers/CMSIS/DSP/Source/FilteringFunctions/arm_conv_q31.c ****  *
  16:Drivers/CMSIS/DSP/Source/FilteringFunctions/arm_conv_q31.c ****  * Licensed under the Apache License, Version 2.0 (the License); you may
  17:Drivers/CMSIS/DSP/Source/FilteringFunctions/arm_conv_q31.c ****  * not use this file except in compliance with the License.
  18:Drivers/CMSIS/DSP/Source/FilteringFunctions/arm_conv_q31.c ****  * You may obtain a copy of the License at
  19:Drivers/CMSIS/DSP/Source/FilteringFunctions/arm_conv_q31.c ****  *
  20:Drivers/CMSIS/DSP/Source/FilteringFunctions/arm_conv_q31.c ****  * www.apache.org/licenses/LICENSE-2.0
  21:Drivers/CMSIS/DSP/Source/FilteringFunctions/arm_conv_q31.c ****  *
  22:Drivers/CMSIS/DSP/Source/FilteringFunctions/arm_conv_q31.c ****  * Unless required by applicable law or agreed to in writing, software
  23:Drivers/CMSIS/DSP/Source/FilteringFunctions/arm_conv_q31.c ****  * distributed under the License is distributed on an AS IS BASIS, WITHOUT
  24:Drivers/CMSIS/DSP/Source/FilteringFunctions/arm_conv_q31.c ****  * WARRANTIES OR CONDITIONS OF ANY KIND, either express or implied.
  25:Drivers/CMSIS/DSP/Source/FilteringFunctions/arm_conv_q31.c ****  * See the License for the specific language governing permissions and
  26:Drivers/CMSIS/DSP/Source/FilteringFunctions/arm_conv_q31.c ****  * limitations under the License.
  27:Drivers/CMSIS/DSP/Source/FilteringFunctions/arm_conv_q31.c ****  */
  28:Drivers/CMSIS/DSP/Source/FilteringFunctions/arm_conv_q31.c **** 
  29:Drivers/CMSIS/DSP/Source/FilteringFunctions/arm_conv_q31.c **** #include "arm_math.h"
ARM GAS  /tmp/ccRHSwPY.s 			page 2


  30:Drivers/CMSIS/DSP/Source/FilteringFunctions/arm_conv_q31.c **** 
  31:Drivers/CMSIS/DSP/Source/FilteringFunctions/arm_conv_q31.c **** /**
  32:Drivers/CMSIS/DSP/Source/FilteringFunctions/arm_conv_q31.c ****  * @ingroup groupFilters
  33:Drivers/CMSIS/DSP/Source/FilteringFunctions/arm_conv_q31.c ****  */
  34:Drivers/CMSIS/DSP/Source/FilteringFunctions/arm_conv_q31.c **** 
  35:Drivers/CMSIS/DSP/Source/FilteringFunctions/arm_conv_q31.c **** /**
  36:Drivers/CMSIS/DSP/Source/FilteringFunctions/arm_conv_q31.c ****  * @addtogroup Conv
  37:Drivers/CMSIS/DSP/Source/FilteringFunctions/arm_conv_q31.c ****  * @{
  38:Drivers/CMSIS/DSP/Source/FilteringFunctions/arm_conv_q31.c ****  */
  39:Drivers/CMSIS/DSP/Source/FilteringFunctions/arm_conv_q31.c **** 
  40:Drivers/CMSIS/DSP/Source/FilteringFunctions/arm_conv_q31.c **** /**
  41:Drivers/CMSIS/DSP/Source/FilteringFunctions/arm_conv_q31.c ****  * @brief Convolution of Q31 sequences.
  42:Drivers/CMSIS/DSP/Source/FilteringFunctions/arm_conv_q31.c ****  * @param[in] *pSrcA points to the first input sequence.
  43:Drivers/CMSIS/DSP/Source/FilteringFunctions/arm_conv_q31.c ****  * @param[in] srcALen length of the first input sequence.
  44:Drivers/CMSIS/DSP/Source/FilteringFunctions/arm_conv_q31.c ****  * @param[in] *pSrcB points to the second input sequence.
  45:Drivers/CMSIS/DSP/Source/FilteringFunctions/arm_conv_q31.c ****  * @param[in] srcBLen length of the second input sequence.
  46:Drivers/CMSIS/DSP/Source/FilteringFunctions/arm_conv_q31.c ****  * @param[out] *pDst points to the location where the output result is written.  Length srcALen+src
  47:Drivers/CMSIS/DSP/Source/FilteringFunctions/arm_conv_q31.c ****  * @return none.
  48:Drivers/CMSIS/DSP/Source/FilteringFunctions/arm_conv_q31.c ****  *
  49:Drivers/CMSIS/DSP/Source/FilteringFunctions/arm_conv_q31.c ****  * @details
  50:Drivers/CMSIS/DSP/Source/FilteringFunctions/arm_conv_q31.c ****  * <b>Scaling and Overflow Behavior:</b>
  51:Drivers/CMSIS/DSP/Source/FilteringFunctions/arm_conv_q31.c ****  *
  52:Drivers/CMSIS/DSP/Source/FilteringFunctions/arm_conv_q31.c ****  * \par
  53:Drivers/CMSIS/DSP/Source/FilteringFunctions/arm_conv_q31.c ****  * The function is implemented using an internal 64-bit accumulator.
  54:Drivers/CMSIS/DSP/Source/FilteringFunctions/arm_conv_q31.c ****  * The accumulator has a 2.62 format and maintains full precision of the intermediate multiplicatio
  55:Drivers/CMSIS/DSP/Source/FilteringFunctions/arm_conv_q31.c ****  * There is no saturation on intermediate additions.
  56:Drivers/CMSIS/DSP/Source/FilteringFunctions/arm_conv_q31.c ****  * Thus, if the accumulator overflows it wraps around and distorts the result.
  57:Drivers/CMSIS/DSP/Source/FilteringFunctions/arm_conv_q31.c ****  * The input signals should be scaled down to avoid intermediate overflows.
  58:Drivers/CMSIS/DSP/Source/FilteringFunctions/arm_conv_q31.c ****  * Scale down the inputs by log2(min(srcALen, srcBLen)) (log2 is read as log to the base 2) times t
  59:Drivers/CMSIS/DSP/Source/FilteringFunctions/arm_conv_q31.c ****  * as maximum of min(srcALen, srcBLen) number of additions are carried internally.
  60:Drivers/CMSIS/DSP/Source/FilteringFunctions/arm_conv_q31.c ****  * The 2.62 accumulator is right shifted by 31 bits and saturated to 1.31 format to yield the final
  61:Drivers/CMSIS/DSP/Source/FilteringFunctions/arm_conv_q31.c ****  *
  62:Drivers/CMSIS/DSP/Source/FilteringFunctions/arm_conv_q31.c ****  * \par
  63:Drivers/CMSIS/DSP/Source/FilteringFunctions/arm_conv_q31.c ****  * See <code>arm_conv_fast_q31()</code> for a faster but less precise implementation of this functi
  64:Drivers/CMSIS/DSP/Source/FilteringFunctions/arm_conv_q31.c ****  */
  65:Drivers/CMSIS/DSP/Source/FilteringFunctions/arm_conv_q31.c **** 
  66:Drivers/CMSIS/DSP/Source/FilteringFunctions/arm_conv_q31.c **** void arm_conv_q31(
  67:Drivers/CMSIS/DSP/Source/FilteringFunctions/arm_conv_q31.c ****   q31_t * pSrcA,
  68:Drivers/CMSIS/DSP/Source/FilteringFunctions/arm_conv_q31.c ****   uint32_t srcALen,
  69:Drivers/CMSIS/DSP/Source/FilteringFunctions/arm_conv_q31.c ****   q31_t * pSrcB,
  70:Drivers/CMSIS/DSP/Source/FilteringFunctions/arm_conv_q31.c ****   uint32_t srcBLen,
  71:Drivers/CMSIS/DSP/Source/FilteringFunctions/arm_conv_q31.c ****   q31_t * pDst)
  72:Drivers/CMSIS/DSP/Source/FilteringFunctions/arm_conv_q31.c **** {
  30              		.loc 1 72 1 view -0
  31              		.cfi_startproc
  32              		@ args = 4, pretend = 0, frame = 48
  33              		@ frame_needed = 0, uses_anonymous_args = 0
  34              		.loc 1 72 1 is_stmt 0 view .LVU1
  35 0000 2DE9F04F 		push	{r4, r5, r6, r7, r8, r9, r10, fp, lr}
  36              	.LCFI0:
  37              		.cfi_def_cfa_offset 36
  38              		.cfi_offset 4, -36
  39              		.cfi_offset 5, -32
  40              		.cfi_offset 6, -28
  41              		.cfi_offset 7, -24
  42              		.cfi_offset 8, -20
  43              		.cfi_offset 9, -16
ARM GAS  /tmp/ccRHSwPY.s 			page 3


  44              		.cfi_offset 10, -12
  45              		.cfi_offset 11, -8
  46              		.cfi_offset 14, -4
  47 0004 8DB0     		sub	sp, sp, #52
  48              	.LCFI1:
  49              		.cfi_def_cfa_offset 88
  50 0006 8646     		mov	lr, r0
  51 0008 8A46     		mov	r10, r1
  52 000a 0692     		str	r2, [sp, #24]
  53 000c DDF858B0 		ldr	fp, [sp, #88]
  73:Drivers/CMSIS/DSP/Source/FilteringFunctions/arm_conv_q31.c **** 
  74:Drivers/CMSIS/DSP/Source/FilteringFunctions/arm_conv_q31.c **** 
  75:Drivers/CMSIS/DSP/Source/FilteringFunctions/arm_conv_q31.c **** #if defined (ARM_MATH_DSP)
  76:Drivers/CMSIS/DSP/Source/FilteringFunctions/arm_conv_q31.c **** 
  77:Drivers/CMSIS/DSP/Source/FilteringFunctions/arm_conv_q31.c ****   /* Run the below code for Cortex-M4 and Cortex-M3 */
  78:Drivers/CMSIS/DSP/Source/FilteringFunctions/arm_conv_q31.c **** 
  79:Drivers/CMSIS/DSP/Source/FilteringFunctions/arm_conv_q31.c ****   q31_t *pIn1;                                   /* inputA pointer */
  54              		.loc 1 79 3 is_stmt 1 view .LVU2
  80:Drivers/CMSIS/DSP/Source/FilteringFunctions/arm_conv_q31.c ****   q31_t *pIn2;                                   /* inputB pointer */
  55              		.loc 1 80 3 view .LVU3
  81:Drivers/CMSIS/DSP/Source/FilteringFunctions/arm_conv_q31.c ****   q31_t *pOut = pDst;                            /* output pointer */
  56              		.loc 1 81 3 view .LVU4
  57              	.LVL1:
  82:Drivers/CMSIS/DSP/Source/FilteringFunctions/arm_conv_q31.c ****   q31_t *px;                                     /* Intermediate inputA pointer  */
  58              		.loc 1 82 3 view .LVU5
  83:Drivers/CMSIS/DSP/Source/FilteringFunctions/arm_conv_q31.c ****   q31_t *py;                                     /* Intermediate inputB pointer  */
  59              		.loc 1 83 3 view .LVU6
  84:Drivers/CMSIS/DSP/Source/FilteringFunctions/arm_conv_q31.c ****   q31_t *pSrc1, *pSrc2;                          /* Intermediate pointers */
  60              		.loc 1 84 3 view .LVU7
  85:Drivers/CMSIS/DSP/Source/FilteringFunctions/arm_conv_q31.c ****   q63_t sum;                                     /* Accumulator */
  61              		.loc 1 85 3 view .LVU8
  86:Drivers/CMSIS/DSP/Source/FilteringFunctions/arm_conv_q31.c ****   q63_t acc0, acc1, acc2;                        /* Accumulator */
  62              		.loc 1 86 3 view .LVU9
  87:Drivers/CMSIS/DSP/Source/FilteringFunctions/arm_conv_q31.c ****   q31_t x0, x1, x2, c0;                          /* Temporary variables to hold state and coefficie
  63              		.loc 1 87 3 view .LVU10
  88:Drivers/CMSIS/DSP/Source/FilteringFunctions/arm_conv_q31.c ****   uint32_t j, k, count, blkCnt, blockSize1, blockSize2, blockSize3;     /* loop counter */
  64              		.loc 1 88 3 view .LVU11
  89:Drivers/CMSIS/DSP/Source/FilteringFunctions/arm_conv_q31.c **** 
  90:Drivers/CMSIS/DSP/Source/FilteringFunctions/arm_conv_q31.c ****   /* The algorithm implementation is based on the lengths of the inputs. */
  91:Drivers/CMSIS/DSP/Source/FilteringFunctions/arm_conv_q31.c ****   /* srcB is always made to slide across srcA. */
  92:Drivers/CMSIS/DSP/Source/FilteringFunctions/arm_conv_q31.c ****   /* So srcBLen is always considered as shorter or equal to srcALen */
  93:Drivers/CMSIS/DSP/Source/FilteringFunctions/arm_conv_q31.c ****   if (srcALen >= srcBLen)
  65              		.loc 1 93 3 view .LVU12
  66              		.loc 1 93 6 is_stmt 0 view .LVU13
  67 0010 9942     		cmp	r1, r3
  68 0012 04D3     		bcc	.L2
  94:Drivers/CMSIS/DSP/Source/FilteringFunctions/arm_conv_q31.c ****   {
  95:Drivers/CMSIS/DSP/Source/FilteringFunctions/arm_conv_q31.c ****     /* Initialization of inputA pointer */
  96:Drivers/CMSIS/DSP/Source/FilteringFunctions/arm_conv_q31.c ****     pIn1 = pSrcA;
  69              		.loc 1 96 10 view .LVU14
  70 0014 0690     		str	r0, [sp, #24]
  97:Drivers/CMSIS/DSP/Source/FilteringFunctions/arm_conv_q31.c **** 
  98:Drivers/CMSIS/DSP/Source/FilteringFunctions/arm_conv_q31.c ****     /* Initialization of inputB pointer */
  99:Drivers/CMSIS/DSP/Source/FilteringFunctions/arm_conv_q31.c ****     pIn2 = pSrcB;
  71              		.loc 1 99 10 view .LVU15
  72 0016 9646     		mov	lr, r2
  93:Drivers/CMSIS/DSP/Source/FilteringFunctions/arm_conv_q31.c ****   {
ARM GAS  /tmp/ccRHSwPY.s 			page 4


  73              		.loc 1 93 6 view .LVU16
  74 0018 1A46     		mov	r2, r3
  75              	.LVL2:
  93:Drivers/CMSIS/DSP/Source/FilteringFunctions/arm_conv_q31.c ****   {
  76              		.loc 1 93 6 view .LVU17
  77 001a 0B46     		mov	r3, r1
  78              	.LVL3:
  93:Drivers/CMSIS/DSP/Source/FilteringFunctions/arm_conv_q31.c ****   {
  79              		.loc 1 93 6 view .LVU18
  80 001c 9246     		mov	r10, r2
  81              	.LVL4:
  82              	.L2:
 100:Drivers/CMSIS/DSP/Source/FilteringFunctions/arm_conv_q31.c ****   }
 101:Drivers/CMSIS/DSP/Source/FilteringFunctions/arm_conv_q31.c ****   else
 102:Drivers/CMSIS/DSP/Source/FilteringFunctions/arm_conv_q31.c ****   {
 103:Drivers/CMSIS/DSP/Source/FilteringFunctions/arm_conv_q31.c ****     /* Initialization of inputA pointer */
 104:Drivers/CMSIS/DSP/Source/FilteringFunctions/arm_conv_q31.c ****     pIn1 = (q31_t *) pSrcB;
 105:Drivers/CMSIS/DSP/Source/FilteringFunctions/arm_conv_q31.c **** 
 106:Drivers/CMSIS/DSP/Source/FilteringFunctions/arm_conv_q31.c ****     /* Initialization of inputB pointer */
 107:Drivers/CMSIS/DSP/Source/FilteringFunctions/arm_conv_q31.c ****     pIn2 = (q31_t *) pSrcA;
 108:Drivers/CMSIS/DSP/Source/FilteringFunctions/arm_conv_q31.c **** 
 109:Drivers/CMSIS/DSP/Source/FilteringFunctions/arm_conv_q31.c ****     /* srcBLen is always considered as shorter or equal to srcALen */
 110:Drivers/CMSIS/DSP/Source/FilteringFunctions/arm_conv_q31.c ****     j = srcBLen;
 111:Drivers/CMSIS/DSP/Source/FilteringFunctions/arm_conv_q31.c ****     srcBLen = srcALen;
 112:Drivers/CMSIS/DSP/Source/FilteringFunctions/arm_conv_q31.c ****     srcALen = j;
 113:Drivers/CMSIS/DSP/Source/FilteringFunctions/arm_conv_q31.c ****   }
 114:Drivers/CMSIS/DSP/Source/FilteringFunctions/arm_conv_q31.c **** 
 115:Drivers/CMSIS/DSP/Source/FilteringFunctions/arm_conv_q31.c ****   /* conv(x,y) at n = x[n] * y[0] + x[n-1] * y[1] + x[n-2] * y[2] + ...+ x[n-N+1] * y[N -1] */
 116:Drivers/CMSIS/DSP/Source/FilteringFunctions/arm_conv_q31.c ****   /* The function is internally
 117:Drivers/CMSIS/DSP/Source/FilteringFunctions/arm_conv_q31.c ****    * divided into three stages according to the number of multiplications that has to be
 118:Drivers/CMSIS/DSP/Source/FilteringFunctions/arm_conv_q31.c ****    * taken place between inputA samples and inputB samples. In the first stage of the
 119:Drivers/CMSIS/DSP/Source/FilteringFunctions/arm_conv_q31.c ****    * algorithm, the multiplications increase by one for every iteration.
 120:Drivers/CMSIS/DSP/Source/FilteringFunctions/arm_conv_q31.c ****    * In the second stage of the algorithm, srcBLen number of multiplications are done.
 121:Drivers/CMSIS/DSP/Source/FilteringFunctions/arm_conv_q31.c ****    * In the third stage of the algorithm, the multiplications decrease by one
 122:Drivers/CMSIS/DSP/Source/FilteringFunctions/arm_conv_q31.c ****    * for every iteration. */
 123:Drivers/CMSIS/DSP/Source/FilteringFunctions/arm_conv_q31.c **** 
 124:Drivers/CMSIS/DSP/Source/FilteringFunctions/arm_conv_q31.c ****   /* The algorithm is implemented in three stages.
 125:Drivers/CMSIS/DSP/Source/FilteringFunctions/arm_conv_q31.c ****      The loop counters of each stage is initiated here. */
 126:Drivers/CMSIS/DSP/Source/FilteringFunctions/arm_conv_q31.c ****   blockSize1 = srcBLen - 1U;
  83              		.loc 1 126 3 is_stmt 1 view .LVU19
  84              		.loc 1 126 14 is_stmt 0 view .LVU20
  85 001e 0AF1FF32 		add	r2, r10, #-1
  86              	.LVL5:
 127:Drivers/CMSIS/DSP/Source/FilteringFunctions/arm_conv_q31.c ****   blockSize2 = srcALen - (srcBLen - 1U);
  87              		.loc 1 127 3 is_stmt 1 view .LVU21
  88              		.loc 1 127 24 is_stmt 0 view .LVU22
  89 0022 A3EB0A03 		sub	r3, r3, r10
  90              	.LVL6:
  91              		.loc 1 127 14 view .LVU23
  92 0026 03F10109 		add	r9, r3, #1
  93              	.LVL7:
 128:Drivers/CMSIS/DSP/Source/FilteringFunctions/arm_conv_q31.c ****   blockSize3 = blockSize1;
  94              		.loc 1 128 3 is_stmt 1 view .LVU24
 129:Drivers/CMSIS/DSP/Source/FilteringFunctions/arm_conv_q31.c **** 
 130:Drivers/CMSIS/DSP/Source/FilteringFunctions/arm_conv_q31.c ****   /* --------------------------
 131:Drivers/CMSIS/DSP/Source/FilteringFunctions/arm_conv_q31.c ****    * Initializations of stage1
 132:Drivers/CMSIS/DSP/Source/FilteringFunctions/arm_conv_q31.c ****    * -------------------------*/
ARM GAS  /tmp/ccRHSwPY.s 			page 5


 133:Drivers/CMSIS/DSP/Source/FilteringFunctions/arm_conv_q31.c **** 
 134:Drivers/CMSIS/DSP/Source/FilteringFunctions/arm_conv_q31.c ****   /* sum = x[0] * y[0]
 135:Drivers/CMSIS/DSP/Source/FilteringFunctions/arm_conv_q31.c ****    * sum = x[0] * y[1] + x[1] * y[0]
 136:Drivers/CMSIS/DSP/Source/FilteringFunctions/arm_conv_q31.c ****    * ....
 137:Drivers/CMSIS/DSP/Source/FilteringFunctions/arm_conv_q31.c ****    * sum = x[0] * y[srcBlen - 1] + x[1] * y[srcBlen - 2] +...+ x[srcBLen - 1] * y[0]
 138:Drivers/CMSIS/DSP/Source/FilteringFunctions/arm_conv_q31.c ****    */
 139:Drivers/CMSIS/DSP/Source/FilteringFunctions/arm_conv_q31.c **** 
 140:Drivers/CMSIS/DSP/Source/FilteringFunctions/arm_conv_q31.c ****   /* In this stage the MAC operations are increased by 1 for every iteration.
 141:Drivers/CMSIS/DSP/Source/FilteringFunctions/arm_conv_q31.c ****      The count variable holds the number of MAC operations performed */
 142:Drivers/CMSIS/DSP/Source/FilteringFunctions/arm_conv_q31.c ****   count = 1U;
  95              		.loc 1 142 3 view .LVU25
 143:Drivers/CMSIS/DSP/Source/FilteringFunctions/arm_conv_q31.c **** 
 144:Drivers/CMSIS/DSP/Source/FilteringFunctions/arm_conv_q31.c ****   /* Working pointer of inputA */
 145:Drivers/CMSIS/DSP/Source/FilteringFunctions/arm_conv_q31.c ****   px = pIn1;
  96              		.loc 1 145 3 view .LVU26
 146:Drivers/CMSIS/DSP/Source/FilteringFunctions/arm_conv_q31.c **** 
 147:Drivers/CMSIS/DSP/Source/FilteringFunctions/arm_conv_q31.c ****   /* Working pointer of inputB */
 148:Drivers/CMSIS/DSP/Source/FilteringFunctions/arm_conv_q31.c ****   py = pIn2;
  97              		.loc 1 148 3 view .LVU27
 149:Drivers/CMSIS/DSP/Source/FilteringFunctions/arm_conv_q31.c **** 
 150:Drivers/CMSIS/DSP/Source/FilteringFunctions/arm_conv_q31.c **** 
 151:Drivers/CMSIS/DSP/Source/FilteringFunctions/arm_conv_q31.c ****   /* ------------------------
 152:Drivers/CMSIS/DSP/Source/FilteringFunctions/arm_conv_q31.c ****    * Stage1 process
 153:Drivers/CMSIS/DSP/Source/FilteringFunctions/arm_conv_q31.c ****    * ----------------------*/
 154:Drivers/CMSIS/DSP/Source/FilteringFunctions/arm_conv_q31.c **** 
 155:Drivers/CMSIS/DSP/Source/FilteringFunctions/arm_conv_q31.c ****   /* The first stage starts here */
 156:Drivers/CMSIS/DSP/Source/FilteringFunctions/arm_conv_q31.c ****   while (blockSize1 > 0U)
  98              		.loc 1 156 3 view .LVU28
 148:Drivers/CMSIS/DSP/Source/FilteringFunctions/arm_conv_q31.c **** 
  99              		.loc 1 148 6 is_stmt 0 view .LVU29
 100 002a 7146     		mov	r1, lr
 142:Drivers/CMSIS/DSP/Source/FilteringFunctions/arm_conv_q31.c **** 
 101              		.loc 1 142 9 view .LVU30
 102 002c 4FF0010C 		mov	ip, #1
 103 0030 0092     		str	r2, [sp]
 104 0032 1446     		mov	r4, r2
 105              		.loc 1 156 9 view .LVU31
 106 0034 6FE0     		b	.L3
 107              	.LVL8:
 108              	.L5:
 157:Drivers/CMSIS/DSP/Source/FilteringFunctions/arm_conv_q31.c ****   {
 158:Drivers/CMSIS/DSP/Source/FilteringFunctions/arm_conv_q31.c ****     /* Accumulator is made zero for every iteration */
 159:Drivers/CMSIS/DSP/Source/FilteringFunctions/arm_conv_q31.c ****     sum = 0;
 160:Drivers/CMSIS/DSP/Source/FilteringFunctions/arm_conv_q31.c **** 
 161:Drivers/CMSIS/DSP/Source/FilteringFunctions/arm_conv_q31.c ****     /* Apply loop unrolling and compute 4 MACs simultaneously. */
 162:Drivers/CMSIS/DSP/Source/FilteringFunctions/arm_conv_q31.c ****     k = count >> 2U;
 163:Drivers/CMSIS/DSP/Source/FilteringFunctions/arm_conv_q31.c **** 
 164:Drivers/CMSIS/DSP/Source/FilteringFunctions/arm_conv_q31.c ****     /* First part of the processing with loop unrolling.  Compute 4 MACs at a time.
 165:Drivers/CMSIS/DSP/Source/FilteringFunctions/arm_conv_q31.c ****      ** a second loop below computes MACs for the remaining 1 to 3 samples. */
 166:Drivers/CMSIS/DSP/Source/FilteringFunctions/arm_conv_q31.c ****     while (k > 0U)
 167:Drivers/CMSIS/DSP/Source/FilteringFunctions/arm_conv_q31.c ****     {
 168:Drivers/CMSIS/DSP/Source/FilteringFunctions/arm_conv_q31.c ****       /* x[0] * y[srcBLen - 1] */
 169:Drivers/CMSIS/DSP/Source/FilteringFunctions/arm_conv_q31.c ****       sum += (q63_t) * px++ * (*py--);
 109              		.loc 1 169 7 is_stmt 1 view .LVU32
 110              		.loc 1 169 22 is_stmt 0 view .LVU33
 111 0036 3068     		ldr	r0, [r6]
 112              		.loc 1 169 14 view .LVU34
ARM GAS  /tmp/ccRHSwPY.s 			page 6


 113 0038 4FEAE07C 		asr	ip, r0, #31
 114              	.LVL9:
 115              		.loc 1 169 32 view .LVU35
 116 003c 0D68     		ldr	r5, [r1]
 117 003e EA17     		asrs	r2, r5, #31
 118              		.loc 1 169 29 view .LVU36
 119 0040 00FB02F2 		mul	r2, r0, r2
 120 0044 05FB0C22 		mla	r2, r5, ip, r2
 121 0048 A0FB05C0 		umull	ip, r0, r0, r5
 122 004c 1044     		add	r0, r0, r2
 123              		.loc 1 169 11 view .LVU37
 124 004e 13EB0C02 		adds	r2, r3, ip
 125 0052 40EB0805 		adc	r5, r0, r8
 126              	.LVL10:
 170:Drivers/CMSIS/DSP/Source/FilteringFunctions/arm_conv_q31.c ****       /* x[1] * y[srcBLen - 2] */
 171:Drivers/CMSIS/DSP/Source/FilteringFunctions/arm_conv_q31.c ****       sum += (q63_t) * px++ * (*py--);
 127              		.loc 1 171 7 is_stmt 1 view .LVU38
 128              		.loc 1 171 22 is_stmt 0 view .LVU39
 129 0056 7068     		ldr	r0, [r6, #4]
 130              		.loc 1 171 14 view .LVU40
 131 0058 4FEAE078 		asr	r8, r0, #31
 132              	.LVL11:
 133              		.loc 1 171 32 view .LVU41
 134 005c 51F8043C 		ldr	r3, [r1, #-4]
 135 0060 4FEAE37C 		asr	ip, r3, #31
 136              		.loc 1 171 29 view .LVU42
 137 0064 00FB0CFC 		mul	ip, r0, ip
 138 0068 03FB08CC 		mla	ip, r3, r8, ip
 139 006c A0FB0330 		umull	r3, r0, r0, r3
 140 0070 6044     		add	r0, r0, ip
 141              		.loc 1 171 11 view .LVU43
 142 0072 D318     		adds	r3, r2, r3
 143 0074 40EB0500 		adc	r0, r0, r5
 144              	.LVL12:
 172:Drivers/CMSIS/DSP/Source/FilteringFunctions/arm_conv_q31.c ****       /* x[2] * y[srcBLen - 3] */
 173:Drivers/CMSIS/DSP/Source/FilteringFunctions/arm_conv_q31.c ****       sum += (q63_t) * px++ * (*py--);
 145              		.loc 1 173 7 is_stmt 1 view .LVU44
 146              		.loc 1 173 22 is_stmt 0 view .LVU45
 147 0078 B268     		ldr	r2, [r6, #8]
 148              		.loc 1 173 14 view .LVU46
 149 007a 4FEAE278 		asr	r8, r2, #31
 150              	.LVL13:
 151              		.loc 1 173 32 view .LVU47
 152 007e 51F8085C 		ldr	r5, [r1, #-8]
 153 0082 4FEAE57C 		asr	ip, r5, #31
 154              		.loc 1 173 29 view .LVU48
 155 0086 02FB0CFC 		mul	ip, r2, ip
 156 008a 05FB08CC 		mla	ip, r5, r8, ip
 157 008e A2FB0552 		umull	r5, r2, r2, r5
 158 0092 6244     		add	r2, r2, ip
 159              		.loc 1 173 11 view .LVU49
 160 0094 5D19     		adds	r5, r3, r5
 161 0096 42EB0000 		adc	r0, r2, r0
 162              	.LVL14:
 174:Drivers/CMSIS/DSP/Source/FilteringFunctions/arm_conv_q31.c ****       /* x[3] * y[srcBLen - 4] */
 175:Drivers/CMSIS/DSP/Source/FilteringFunctions/arm_conv_q31.c ****       sum += (q63_t) * px++ * (*py--);
 163              		.loc 1 175 7 is_stmt 1 view .LVU50
ARM GAS  /tmp/ccRHSwPY.s 			page 7


 164              		.loc 1 175 22 is_stmt 0 view .LVU51
 165 009a F368     		ldr	r3, [r6, #12]
 166              		.loc 1 175 14 view .LVU52
 167 009c 4FEAE378 		asr	r8, r3, #31
 168              	.LVL15:
 169              		.loc 1 175 32 view .LVU53
 170 00a0 51F80C2C 		ldr	r2, [r1, #-12]
 171 00a4 4FEAE27C 		asr	ip, r2, #31
 172              		.loc 1 175 29 view .LVU54
 173 00a8 03FB0CFC 		mul	ip, r3, ip
 174 00ac 02FB08CC 		mla	ip, r2, r8, ip
 175 00b0 A3FB0228 		umull	r2, r8, r3, r2
 176 00b4 E044     		add	r8, r8, ip
 177              		.loc 1 175 11 view .LVU55
 178 00b6 AB18     		adds	r3, r5, r2
 179 00b8 48EB0008 		adc	r8, r8, r0
 180              	.LVL16:
 176:Drivers/CMSIS/DSP/Source/FilteringFunctions/arm_conv_q31.c **** 
 177:Drivers/CMSIS/DSP/Source/FilteringFunctions/arm_conv_q31.c ****       /* Decrement the loop counter */
 178:Drivers/CMSIS/DSP/Source/FilteringFunctions/arm_conv_q31.c ****       k--;
 181              		.loc 1 178 7 is_stmt 1 view .LVU56
 182              		.loc 1 178 8 is_stmt 0 view .LVU57
 183 00bc 013F     		subs	r7, r7, #1
 184              	.LVL17:
 175:Drivers/CMSIS/DSP/Source/FilteringFunctions/arm_conv_q31.c **** 
 185              		.loc 1 175 35 view .LVU58
 186 00be 1039     		subs	r1, r1, #16
 187              	.LVL18:
 175:Drivers/CMSIS/DSP/Source/FilteringFunctions/arm_conv_q31.c **** 
 188              		.loc 1 175 26 view .LVU59
 189 00c0 1036     		adds	r6, r6, #16
 190              	.LVL19:
 191              	.L4:
 166:Drivers/CMSIS/DSP/Source/FilteringFunctions/arm_conv_q31.c ****     {
 192              		.loc 1 166 14 is_stmt 1 view .LVU60
 193 00c2 002F     		cmp	r7, #0
 194 00c4 B7D1     		bne	.L5
 179:Drivers/CMSIS/DSP/Source/FilteringFunctions/arm_conv_q31.c ****     }
 180:Drivers/CMSIS/DSP/Source/FilteringFunctions/arm_conv_q31.c **** 
 181:Drivers/CMSIS/DSP/Source/FilteringFunctions/arm_conv_q31.c ****     /* If the count is not a multiple of 4, compute any remaining MACs here.
 182:Drivers/CMSIS/DSP/Source/FilteringFunctions/arm_conv_q31.c ****      ** No loop unrolling is used. */
 183:Drivers/CMSIS/DSP/Source/FilteringFunctions/arm_conv_q31.c ****     k = count % 0x4U;
 195              		.loc 1 183 7 is_stmt 0 view .LVU61
 196 00c6 DDF804C0 		ldr	ip, [sp, #4]
 197              		.loc 1 183 5 is_stmt 1 view .LVU62
 198              		.loc 1 183 7 is_stmt 0 view .LVU63
 199 00ca 0CF00307 		and	r7, ip, #3
 200              	.LVL20:
 184:Drivers/CMSIS/DSP/Source/FilteringFunctions/arm_conv_q31.c **** 
 185:Drivers/CMSIS/DSP/Source/FilteringFunctions/arm_conv_q31.c ****     while (k > 0U)
 201              		.loc 1 185 5 is_stmt 1 view .LVU64
 202              		.loc 1 185 11 is_stmt 0 view .LVU65
 203 00ce 12E0     		b	.L6
 204              	.L7:
 186:Drivers/CMSIS/DSP/Source/FilteringFunctions/arm_conv_q31.c ****     {
 187:Drivers/CMSIS/DSP/Source/FilteringFunctions/arm_conv_q31.c ****       /* Perform the multiply-accumulate */
 188:Drivers/CMSIS/DSP/Source/FilteringFunctions/arm_conv_q31.c ****       sum += (q63_t) * px++ * (*py--);
ARM GAS  /tmp/ccRHSwPY.s 			page 8


 205              		.loc 1 188 7 is_stmt 1 view .LVU66
 206              	.LVL21:
 207              		.loc 1 188 22 is_stmt 0 view .LVU67
 208 00d0 56F8042B 		ldr	r2, [r6], #4
 209              	.LVL22:
 210              		.loc 1 188 14 view .LVU68
 211 00d4 4FEAE27C 		asr	ip, r2, #31
 212              	.LVL23:
 213              		.loc 1 188 32 view .LVU69
 214 00d8 51F80409 		ldr	r0, [r1], #-4
 215              	.LVL24:
 216              		.loc 1 188 32 view .LVU70
 217 00dc C517     		asrs	r5, r0, #31
 218              		.loc 1 188 29 view .LVU71
 219 00de 02FB05F5 		mul	r5, r2, r5
 220 00e2 00FB0C55 		mla	r5, r0, ip, r5
 221 00e6 A2FB0020 		umull	r2, r0, r2, r0
 222 00ea 2844     		add	r0, r0, r5
 223              		.loc 1 188 11 view .LVU72
 224 00ec 9A18     		adds	r2, r3, r2
 225 00ee 1346     		mov	r3, r2
 226              	.LVL25:
 227              		.loc 1 188 11 view .LVU73
 228 00f0 40EB0808 		adc	r8, r0, r8
 229              	.LVL26:
 189:Drivers/CMSIS/DSP/Source/FilteringFunctions/arm_conv_q31.c **** 
 190:Drivers/CMSIS/DSP/Source/FilteringFunctions/arm_conv_q31.c ****       /* Decrement the loop counter */
 191:Drivers/CMSIS/DSP/Source/FilteringFunctions/arm_conv_q31.c ****       k--;
 230              		.loc 1 191 7 is_stmt 1 view .LVU74
 231              		.loc 1 191 8 is_stmt 0 view .LVU75
 232 00f4 013F     		subs	r7, r7, #1
 233              	.LVL27:
 234              	.L6:
 185:Drivers/CMSIS/DSP/Source/FilteringFunctions/arm_conv_q31.c ****     {
 235              		.loc 1 185 14 is_stmt 1 view .LVU76
 236 00f6 002F     		cmp	r7, #0
 237 00f8 EAD1     		bne	.L7
 192:Drivers/CMSIS/DSP/Source/FilteringFunctions/arm_conv_q31.c ****     }
 193:Drivers/CMSIS/DSP/Source/FilteringFunctions/arm_conv_q31.c **** 
 194:Drivers/CMSIS/DSP/Source/FilteringFunctions/arm_conv_q31.c ****     /* Store the result in the accumulator in the destination buffer. */
 195:Drivers/CMSIS/DSP/Source/FilteringFunctions/arm_conv_q31.c ****     *pOut++ = (q31_t) (sum >> 31);
 238              		.loc 1 195 28 is_stmt 0 view .LVU77
 239 00fa DDF804C0 		ldr	ip, [sp, #4]
 240              		.loc 1 195 5 is_stmt 1 view .LVU78
 241              		.loc 1 195 28 is_stmt 0 view .LVU79
 242 00fe DB0F     		lsrs	r3, r3, #31
 243              	.LVL28:
 244              		.loc 1 195 28 view .LVU80
 245 0100 43EA4803 		orr	r3, r3, r8, lsl #1
 246              	.LVL29:
 247              		.loc 1 195 13 view .LVU81
 248 0104 4BF8043B 		str	r3, [fp], #4
 249              	.LVL30:
 196:Drivers/CMSIS/DSP/Source/FilteringFunctions/arm_conv_q31.c **** 
 197:Drivers/CMSIS/DSP/Source/FilteringFunctions/arm_conv_q31.c ****     /* Update the inputA and inputB pointers for next MAC calculation */
 198:Drivers/CMSIS/DSP/Source/FilteringFunctions/arm_conv_q31.c ****     py = pIn2 + count;
 250              		.loc 1 198 5 is_stmt 1 view .LVU82
ARM GAS  /tmp/ccRHSwPY.s 			page 9


 251              		.loc 1 198 8 is_stmt 0 view .LVU83
 252 0108 0EEB8C01 		add	r1, lr, ip, lsl #2
 253              	.LVL31:
 199:Drivers/CMSIS/DSP/Source/FilteringFunctions/arm_conv_q31.c ****     px = pIn1;
 254              		.loc 1 199 5 is_stmt 1 view .LVU84
 200:Drivers/CMSIS/DSP/Source/FilteringFunctions/arm_conv_q31.c **** 
 201:Drivers/CMSIS/DSP/Source/FilteringFunctions/arm_conv_q31.c ****     /* Increment the MAC count */
 202:Drivers/CMSIS/DSP/Source/FilteringFunctions/arm_conv_q31.c ****     count++;
 255              		.loc 1 202 5 view .LVU85
 256              		.loc 1 202 10 is_stmt 0 view .LVU86
 257 010c 0CF1010C 		add	ip, ip, #1
 258              	.LVL32:
 203:Drivers/CMSIS/DSP/Source/FilteringFunctions/arm_conv_q31.c **** 
 204:Drivers/CMSIS/DSP/Source/FilteringFunctions/arm_conv_q31.c ****     /* Decrement the loop counter */
 205:Drivers/CMSIS/DSP/Source/FilteringFunctions/arm_conv_q31.c ****     blockSize1--;
 259              		.loc 1 205 5 is_stmt 1 view .LVU87
 260              		.loc 1 205 15 is_stmt 0 view .LVU88
 261 0110 009B     		ldr	r3, [sp]
 262 0112 013B     		subs	r3, r3, #1
 263 0114 0093     		str	r3, [sp]
 264              	.LVL33:
 265              	.L3:
 156:Drivers/CMSIS/DSP/Source/FilteringFunctions/arm_conv_q31.c ****   {
 266              		.loc 1 156 21 is_stmt 1 view .LVU89
 267 0116 009B     		ldr	r3, [sp]
 268 0118 3BB1     		cbz	r3, .L33
 159:Drivers/CMSIS/DSP/Source/FilteringFunctions/arm_conv_q31.c **** 
 269              		.loc 1 159 5 view .LVU90
 270              	.LVL34:
 162:Drivers/CMSIS/DSP/Source/FilteringFunctions/arm_conv_q31.c **** 
 271              		.loc 1 162 5 view .LVU91
 162:Drivers/CMSIS/DSP/Source/FilteringFunctions/arm_conv_q31.c **** 
 272              		.loc 1 162 7 is_stmt 0 view .LVU92
 273 011a 4FEA9C07 		lsr	r7, ip, #2
 274              	.LVL35:
 166:Drivers/CMSIS/DSP/Source/FilteringFunctions/arm_conv_q31.c ****     {
 275              		.loc 1 166 5 is_stmt 1 view .LVU93
 166:Drivers/CMSIS/DSP/Source/FilteringFunctions/arm_conv_q31.c ****     {
 276              		.loc 1 166 11 is_stmt 0 view .LVU94
 277 011e 069E     		ldr	r6, [sp, #24]
 159:Drivers/CMSIS/DSP/Source/FilteringFunctions/arm_conv_q31.c **** 
 278              		.loc 1 159 9 view .LVU95
 279 0120 0023     		movs	r3, #0
 280 0122 9846     		mov	r8, r3
 281 0124 CDF804C0 		str	ip, [sp, #4]
 166:Drivers/CMSIS/DSP/Source/FilteringFunctions/arm_conv_q31.c ****     {
 282              		.loc 1 166 11 view .LVU96
 283 0128 CBE7     		b	.L4
 284              	.LVL36:
 285              	.L33:
 206:Drivers/CMSIS/DSP/Source/FilteringFunctions/arm_conv_q31.c ****   }
 207:Drivers/CMSIS/DSP/Source/FilteringFunctions/arm_conv_q31.c **** 
 208:Drivers/CMSIS/DSP/Source/FilteringFunctions/arm_conv_q31.c ****   /* --------------------------
 209:Drivers/CMSIS/DSP/Source/FilteringFunctions/arm_conv_q31.c ****    * Initializations of stage2
 210:Drivers/CMSIS/DSP/Source/FilteringFunctions/arm_conv_q31.c ****    * ------------------------*/
 211:Drivers/CMSIS/DSP/Source/FilteringFunctions/arm_conv_q31.c **** 
 212:Drivers/CMSIS/DSP/Source/FilteringFunctions/arm_conv_q31.c ****   /* sum = x[0] * y[srcBLen-1] + x[1] * y[srcBLen-2] +...+ x[srcBLen-1] * y[0]
ARM GAS  /tmp/ccRHSwPY.s 			page 10


 213:Drivers/CMSIS/DSP/Source/FilteringFunctions/arm_conv_q31.c ****    * sum = x[1] * y[srcBLen-1] + x[2] * y[srcBLen-2] +...+ x[srcBLen] * y[0]
 214:Drivers/CMSIS/DSP/Source/FilteringFunctions/arm_conv_q31.c ****    * ....
 215:Drivers/CMSIS/DSP/Source/FilteringFunctions/arm_conv_q31.c ****    * sum = x[srcALen-srcBLen-2] * y[srcBLen-1] + x[srcALen] * y[srcBLen-2] +...+ x[srcALen-1] * y[0
 216:Drivers/CMSIS/DSP/Source/FilteringFunctions/arm_conv_q31.c ****    */
 217:Drivers/CMSIS/DSP/Source/FilteringFunctions/arm_conv_q31.c **** 
 218:Drivers/CMSIS/DSP/Source/FilteringFunctions/arm_conv_q31.c ****   /* Working pointer of inputA */
 219:Drivers/CMSIS/DSP/Source/FilteringFunctions/arm_conv_q31.c ****   px = pIn1;
 220:Drivers/CMSIS/DSP/Source/FilteringFunctions/arm_conv_q31.c **** 
 221:Drivers/CMSIS/DSP/Source/FilteringFunctions/arm_conv_q31.c ****   /* Working pointer of inputB */
 222:Drivers/CMSIS/DSP/Source/FilteringFunctions/arm_conv_q31.c ****   pSrc2 = pIn2 + (srcBLen - 1U);
 286              		.loc 1 222 16 view .LVU97
 287 012a 1D46     		mov	r5, r3
 288 012c 2246     		mov	r2, r4
 219:Drivers/CMSIS/DSP/Source/FilteringFunctions/arm_conv_q31.c **** 
 289              		.loc 1 219 3 is_stmt 1 view .LVU98
 290              		.loc 1 222 3 view .LVU99
 291              		.loc 1 222 16 is_stmt 0 view .LVU100
 292 012e 6FF04043 		mvn	r3, #-1073741824
 293              	.LVL37:
 294              		.loc 1 222 16 view .LVU101
 295 0132 5344     		add	r3, r3, r10
 296              		.loc 1 222 9 view .LVU102
 297 0134 0EEB8303 		add	r3, lr, r3, lsl #2
 298 0138 0593     		str	r3, [sp, #20]
 299              	.LVL38:
 223:Drivers/CMSIS/DSP/Source/FilteringFunctions/arm_conv_q31.c ****   py = pSrc2;
 300              		.loc 1 223 3 is_stmt 1 view .LVU103
 224:Drivers/CMSIS/DSP/Source/FilteringFunctions/arm_conv_q31.c **** 
 225:Drivers/CMSIS/DSP/Source/FilteringFunctions/arm_conv_q31.c ****   /* count is index by which the pointer pIn1 to be incremented */
 226:Drivers/CMSIS/DSP/Source/FilteringFunctions/arm_conv_q31.c ****   count = 0U;
 301              		.loc 1 226 3 view .LVU104
 227:Drivers/CMSIS/DSP/Source/FilteringFunctions/arm_conv_q31.c **** 
 228:Drivers/CMSIS/DSP/Source/FilteringFunctions/arm_conv_q31.c ****   /* -------------------
 229:Drivers/CMSIS/DSP/Source/FilteringFunctions/arm_conv_q31.c ****    * Stage2 process
 230:Drivers/CMSIS/DSP/Source/FilteringFunctions/arm_conv_q31.c ****    * ------------------*/
 231:Drivers/CMSIS/DSP/Source/FilteringFunctions/arm_conv_q31.c **** 
 232:Drivers/CMSIS/DSP/Source/FilteringFunctions/arm_conv_q31.c ****   /* Stage2 depends on srcBLen as in this stage srcBLen number of MACS are performed.
 233:Drivers/CMSIS/DSP/Source/FilteringFunctions/arm_conv_q31.c ****    * So, to loop unroll over blockSize2,
 234:Drivers/CMSIS/DSP/Source/FilteringFunctions/arm_conv_q31.c ****    * srcBLen should be greater than or equal to 4 */
 235:Drivers/CMSIS/DSP/Source/FilteringFunctions/arm_conv_q31.c ****   if (srcBLen >= 4U)
 302              		.loc 1 235 3 view .LVU105
 303              		.loc 1 235 6 is_stmt 0 view .LVU106
 304 013a BAF1030F 		cmp	r10, #3
 305 013e 40F2D381 		bls	.L30
 306              	.LVL39:
 236:Drivers/CMSIS/DSP/Source/FilteringFunctions/arm_conv_q31.c ****   {
 237:Drivers/CMSIS/DSP/Source/FilteringFunctions/arm_conv_q31.c ****     /* Loop unroll by 3 */
 238:Drivers/CMSIS/DSP/Source/FilteringFunctions/arm_conv_q31.c ****     blkCnt = blockSize2 / 3;
 307              		.loc 1 238 5 is_stmt 1 view .LVU107
 308              		.loc 1 238 12 is_stmt 0 view .LVU108
 309 0142 D04B     		ldr	r3, .L38
 310              	.LVL40:
 311              		.loc 1 238 12 view .LVU109
 312 0144 A3FB0913 		umull	r1, r3, r3, r9
 313 0148 5B08     		lsrs	r3, r3, #1
 314 014a 0793     		str	r3, [sp, #28]
 315              	.LVL41:
ARM GAS  /tmp/ccRHSwPY.s 			page 11


 239:Drivers/CMSIS/DSP/Source/FilteringFunctions/arm_conv_q31.c **** 
 240:Drivers/CMSIS/DSP/Source/FilteringFunctions/arm_conv_q31.c ****     while (blkCnt > 0U)
 316              		.loc 1 240 5 is_stmt 1 view .LVU110
 219:Drivers/CMSIS/DSP/Source/FilteringFunctions/arm_conv_q31.c **** 
 317              		.loc 1 219 6 is_stmt 0 view .LVU111
 318 014c 069C     		ldr	r4, [sp, #24]
 319 014e 0895     		str	r5, [sp, #32]
 320 0150 0A92     		str	r2, [sp, #40]
 321 0152 CDF82C90 		str	r9, [sp, #44]
 322 0156 CDF824A0 		str	r10, [sp, #36]
 323 015a 5D46     		mov	r5, fp
 324              	.LVL42:
 325              		.loc 1 240 11 view .LVU112
 326 015c 53E0     		b	.L10
 327              	.LVL43:
 328              	.L13:
 241:Drivers/CMSIS/DSP/Source/FilteringFunctions/arm_conv_q31.c ****     {
 242:Drivers/CMSIS/DSP/Source/FilteringFunctions/arm_conv_q31.c ****       /* Set all accumulators to zero */
 243:Drivers/CMSIS/DSP/Source/FilteringFunctions/arm_conv_q31.c ****       acc0 = 0;
 244:Drivers/CMSIS/DSP/Source/FilteringFunctions/arm_conv_q31.c ****       acc1 = 0;
 245:Drivers/CMSIS/DSP/Source/FilteringFunctions/arm_conv_q31.c ****       acc2 = 0;
 246:Drivers/CMSIS/DSP/Source/FilteringFunctions/arm_conv_q31.c **** 
 247:Drivers/CMSIS/DSP/Source/FilteringFunctions/arm_conv_q31.c ****       /* read x[0], x[1], x[2] samples */
 248:Drivers/CMSIS/DSP/Source/FilteringFunctions/arm_conv_q31.c ****       x0 = *(px++);
 249:Drivers/CMSIS/DSP/Source/FilteringFunctions/arm_conv_q31.c ****       x1 = *(px++);
 250:Drivers/CMSIS/DSP/Source/FilteringFunctions/arm_conv_q31.c **** 
 251:Drivers/CMSIS/DSP/Source/FilteringFunctions/arm_conv_q31.c ****       /* Apply loop unrolling and compute 3 MACs simultaneously. */
 252:Drivers/CMSIS/DSP/Source/FilteringFunctions/arm_conv_q31.c ****       k = srcBLen / 3;
 253:Drivers/CMSIS/DSP/Source/FilteringFunctions/arm_conv_q31.c **** 
 254:Drivers/CMSIS/DSP/Source/FilteringFunctions/arm_conv_q31.c ****       /* First part of the processing with loop unrolling.  Compute 3 MACs at a time.
 255:Drivers/CMSIS/DSP/Source/FilteringFunctions/arm_conv_q31.c ****        ** a second loop below computes MACs for the remaining 1 to 2 samples. */
 256:Drivers/CMSIS/DSP/Source/FilteringFunctions/arm_conv_q31.c ****       do
 257:Drivers/CMSIS/DSP/Source/FilteringFunctions/arm_conv_q31.c ****       {
 258:Drivers/CMSIS/DSP/Source/FilteringFunctions/arm_conv_q31.c ****         /* Read y[srcBLen - 1] sample */
 259:Drivers/CMSIS/DSP/Source/FilteringFunctions/arm_conv_q31.c ****         c0 = *(py);
 260:Drivers/CMSIS/DSP/Source/FilteringFunctions/arm_conv_q31.c **** 
 261:Drivers/CMSIS/DSP/Source/FilteringFunctions/arm_conv_q31.c ****         /* Read x[3] sample */
 262:Drivers/CMSIS/DSP/Source/FilteringFunctions/arm_conv_q31.c ****         x2 = *(px);
 263:Drivers/CMSIS/DSP/Source/FilteringFunctions/arm_conv_q31.c **** 
 264:Drivers/CMSIS/DSP/Source/FilteringFunctions/arm_conv_q31.c ****         /* Perform the multiply-accumulates */
 265:Drivers/CMSIS/DSP/Source/FilteringFunctions/arm_conv_q31.c ****         /* acc0 +=  x[0] * y[srcBLen - 1] */
 266:Drivers/CMSIS/DSP/Source/FilteringFunctions/arm_conv_q31.c ****         acc0 += ((q63_t) x0 * c0);
 267:Drivers/CMSIS/DSP/Source/FilteringFunctions/arm_conv_q31.c ****         /* acc1 +=  x[1] * y[srcBLen - 1] */
 268:Drivers/CMSIS/DSP/Source/FilteringFunctions/arm_conv_q31.c ****         acc1 += ((q63_t) x1 * c0);
 269:Drivers/CMSIS/DSP/Source/FilteringFunctions/arm_conv_q31.c ****         /* acc2 +=  x[2] * y[srcBLen - 1] */
 270:Drivers/CMSIS/DSP/Source/FilteringFunctions/arm_conv_q31.c ****         acc2 += ((q63_t) x2 * c0);
 271:Drivers/CMSIS/DSP/Source/FilteringFunctions/arm_conv_q31.c **** 
 272:Drivers/CMSIS/DSP/Source/FilteringFunctions/arm_conv_q31.c ****         /* Read y[srcBLen - 2] sample */
 273:Drivers/CMSIS/DSP/Source/FilteringFunctions/arm_conv_q31.c ****         c0 = *(py - 1U);
 274:Drivers/CMSIS/DSP/Source/FilteringFunctions/arm_conv_q31.c **** 
 275:Drivers/CMSIS/DSP/Source/FilteringFunctions/arm_conv_q31.c ****         /* Read x[4] sample */
 276:Drivers/CMSIS/DSP/Source/FilteringFunctions/arm_conv_q31.c ****         x0 = *(px + 1U);
 277:Drivers/CMSIS/DSP/Source/FilteringFunctions/arm_conv_q31.c **** 
 278:Drivers/CMSIS/DSP/Source/FilteringFunctions/arm_conv_q31.c ****         /* Perform the multiply-accumulate */
 279:Drivers/CMSIS/DSP/Source/FilteringFunctions/arm_conv_q31.c ****         /* acc0 +=  x[1] * y[srcBLen - 2] */
 280:Drivers/CMSIS/DSP/Source/FilteringFunctions/arm_conv_q31.c ****         acc0 += ((q63_t) x1 * c0);
 281:Drivers/CMSIS/DSP/Source/FilteringFunctions/arm_conv_q31.c ****         /* acc1 +=  x[2] * y[srcBLen - 2] */
ARM GAS  /tmp/ccRHSwPY.s 			page 12


 282:Drivers/CMSIS/DSP/Source/FilteringFunctions/arm_conv_q31.c ****         acc1 += ((q63_t) x2 * c0);
 283:Drivers/CMSIS/DSP/Source/FilteringFunctions/arm_conv_q31.c ****         /* acc2 +=  x[3] * y[srcBLen - 2] */
 284:Drivers/CMSIS/DSP/Source/FilteringFunctions/arm_conv_q31.c ****         acc2 += ((q63_t) x0 * c0);
 285:Drivers/CMSIS/DSP/Source/FilteringFunctions/arm_conv_q31.c **** 
 286:Drivers/CMSIS/DSP/Source/FilteringFunctions/arm_conv_q31.c ****         /* Read y[srcBLen - 3] sample */
 287:Drivers/CMSIS/DSP/Source/FilteringFunctions/arm_conv_q31.c ****         c0 = *(py - 2U);
 288:Drivers/CMSIS/DSP/Source/FilteringFunctions/arm_conv_q31.c **** 
 289:Drivers/CMSIS/DSP/Source/FilteringFunctions/arm_conv_q31.c ****         /* Read x[5] sample */
 290:Drivers/CMSIS/DSP/Source/FilteringFunctions/arm_conv_q31.c ****         x1 = *(px + 2U);
 291:Drivers/CMSIS/DSP/Source/FilteringFunctions/arm_conv_q31.c **** 
 292:Drivers/CMSIS/DSP/Source/FilteringFunctions/arm_conv_q31.c ****         /* Perform the multiply-accumulates */
 293:Drivers/CMSIS/DSP/Source/FilteringFunctions/arm_conv_q31.c ****         /* acc0 +=  x[2] * y[srcBLen - 3] */
 294:Drivers/CMSIS/DSP/Source/FilteringFunctions/arm_conv_q31.c ****         acc0 += ((q63_t) x2 * c0);
 295:Drivers/CMSIS/DSP/Source/FilteringFunctions/arm_conv_q31.c ****         /* acc1 +=  x[3] * y[srcBLen - 2] */
 296:Drivers/CMSIS/DSP/Source/FilteringFunctions/arm_conv_q31.c ****         acc1 += ((q63_t) x0 * c0);
 297:Drivers/CMSIS/DSP/Source/FilteringFunctions/arm_conv_q31.c ****         /* acc2 +=  x[4] * y[srcBLen - 2] */
 298:Drivers/CMSIS/DSP/Source/FilteringFunctions/arm_conv_q31.c ****         acc2 += ((q63_t) x1 * c0);
 299:Drivers/CMSIS/DSP/Source/FilteringFunctions/arm_conv_q31.c **** 
 300:Drivers/CMSIS/DSP/Source/FilteringFunctions/arm_conv_q31.c ****         /* update scratch pointers */
 301:Drivers/CMSIS/DSP/Source/FilteringFunctions/arm_conv_q31.c ****         px += 3U;
 302:Drivers/CMSIS/DSP/Source/FilteringFunctions/arm_conv_q31.c ****         py -= 3U;
 303:Drivers/CMSIS/DSP/Source/FilteringFunctions/arm_conv_q31.c **** 
 304:Drivers/CMSIS/DSP/Source/FilteringFunctions/arm_conv_q31.c ****       } while (--k);
 305:Drivers/CMSIS/DSP/Source/FilteringFunctions/arm_conv_q31.c **** 
 306:Drivers/CMSIS/DSP/Source/FilteringFunctions/arm_conv_q31.c ****       /* If the srcBLen is not a multiple of 3, compute any remaining MACs here.
 307:Drivers/CMSIS/DSP/Source/FilteringFunctions/arm_conv_q31.c ****        ** No loop unrolling is used. */
 308:Drivers/CMSIS/DSP/Source/FilteringFunctions/arm_conv_q31.c ****       k = srcBLen - (3 * (srcBLen / 3));
 309:Drivers/CMSIS/DSP/Source/FilteringFunctions/arm_conv_q31.c **** 
 310:Drivers/CMSIS/DSP/Source/FilteringFunctions/arm_conv_q31.c ****       while (k > 0U)
 311:Drivers/CMSIS/DSP/Source/FilteringFunctions/arm_conv_q31.c ****       {
 312:Drivers/CMSIS/DSP/Source/FilteringFunctions/arm_conv_q31.c ****         /* Read y[srcBLen - 5] sample */
 313:Drivers/CMSIS/DSP/Source/FilteringFunctions/arm_conv_q31.c ****         c0 = *(py--);
 329              		.loc 1 313 9 is_stmt 1 view .LVU113
 330              		.loc 1 313 18 is_stmt 0 view .LVU114
 331 015e 9C46     		mov	ip, r3
 332              	.LVL44:
 333              		.loc 1 313 12 view .LVU115
 334 0160 5CF80439 		ldr	r3, [ip], #-4
 335              	.LVL45:
 314:Drivers/CMSIS/DSP/Source/FilteringFunctions/arm_conv_q31.c **** 
 315:Drivers/CMSIS/DSP/Source/FilteringFunctions/arm_conv_q31.c ****         /* Read x[7] sample */
 316:Drivers/CMSIS/DSP/Source/FilteringFunctions/arm_conv_q31.c ****         x2 = *(px++);
 336              		.loc 1 316 9 is_stmt 1 view .LVU116
 337              		.loc 1 316 18 is_stmt 0 view .LVU117
 338 0164 2646     		mov	r6, r4
 339              	.LVL46:
 340              		.loc 1 316 12 view .LVU118
 341 0166 56F8044B 		ldr	r4, [r6], #4
 342              	.LVL47:
 317:Drivers/CMSIS/DSP/Source/FilteringFunctions/arm_conv_q31.c **** 
 318:Drivers/CMSIS/DSP/Source/FilteringFunctions/arm_conv_q31.c ****         /* Perform the multiply-accumulates */
 319:Drivers/CMSIS/DSP/Source/FilteringFunctions/arm_conv_q31.c ****         /* acc0 +=  x[4] * y[srcBLen - 5] */
 320:Drivers/CMSIS/DSP/Source/FilteringFunctions/arm_conv_q31.c ****         acc0 += ((q63_t) x0 * c0);
 343              		.loc 1 320 9 is_stmt 1 view .LVU119
 344              		.loc 1 320 18 is_stmt 0 view .LVU120
 345 016a 4FEAE278 		asr	r8, r2, #31
 346              		.loc 1 320 29 view .LVU121
ARM GAS  /tmp/ccRHSwPY.s 			page 13


 347 016e 4FEAE37E 		asr	lr, r3, #31
 348 0172 02FB0EF5 		mul	r5, r2, lr
 349 0176 03FB0855 		mla	r5, r3, r8, r5
 350 017a A2FB0328 		umull	r2, r8, r2, r3
 351              	.LVL48:
 352              		.loc 1 320 29 view .LVU122
 353 017e 4544     		add	r5, r5, r8
 354              		.loc 1 320 14 view .LVU123
 355 0180 0198     		ldr	r0, [sp, #4]
 356 0182 1218     		adds	r2, r2, r0
 357 0184 0192     		str	r2, [sp, #4]
 358              	.LVL49:
 359              		.loc 1 320 14 view .LVU124
 360 0186 45EB0B0B 		adc	fp, r5, fp
 361              	.LVL50:
 321:Drivers/CMSIS/DSP/Source/FilteringFunctions/arm_conv_q31.c ****         /* acc1 +=  x[5] * y[srcBLen - 5] */
 322:Drivers/CMSIS/DSP/Source/FilteringFunctions/arm_conv_q31.c ****         acc1 += ((q63_t) x1 * c0);
 362              		.loc 1 322 9 is_stmt 1 view .LVU125
 363              		.loc 1 322 18 is_stmt 0 view .LVU126
 364 018a CA17     		asrs	r2, r1, #31
 365              	.LVL51:
 366              		.loc 1 322 29 view .LVU127
 367 018c 03FB02F2 		mul	r2, r3, r2
 368 0190 01FB0E22 		mla	r2, r1, lr, r2
 369 0194 A3FB0158 		umull	r5, r8, r3, r1
 370 0198 4244     		add	r2, r2, r8
 371              		.loc 1 322 14 view .LVU128
 372 019a 0298     		ldr	r0, [sp, #8]
 373 019c 2D18     		adds	r5, r5, r0
 374 019e 0295     		str	r5, [sp, #8]
 375              	.LVL52:
 376              		.loc 1 322 14 view .LVU129
 377 01a0 42EB0909 		adc	r9, r2, r9
 378              	.LVL53:
 323:Drivers/CMSIS/DSP/Source/FilteringFunctions/arm_conv_q31.c ****         /* acc2 +=  x[6] * y[srcBLen - 5] */
 324:Drivers/CMSIS/DSP/Source/FilteringFunctions/arm_conv_q31.c ****         acc2 += ((q63_t) x2 * c0);
 379              		.loc 1 324 9 is_stmt 1 view .LVU130
 380              		.loc 1 324 18 is_stmt 0 view .LVU131
 381 01a4 E217     		asrs	r2, r4, #31
 382              		.loc 1 324 29 view .LVU132
 383 01a6 03FB02F2 		mul	r2, r3, r2
 384 01aa 04FB0E22 		mla	r2, r4, lr, r2
 385 01ae A3FB0435 		umull	r3, r5, r3, r4
 386              	.LVL54:
 387              		.loc 1 324 29 view .LVU133
 388 01b2 2A44     		add	r2, r2, r5
 389              		.loc 1 324 14 view .LVU134
 390 01b4 13EB0A03 		adds	r3, r3, r10
 391 01b8 9A46     		mov	r10, r3
 392              	.LVL55:
 393              		.loc 1 324 14 view .LVU135
 394 01ba 009B     		ldr	r3, [sp]
 395 01bc 42EB0303 		adc	r3, r2, r3
 396 01c0 0093     		str	r3, [sp]
 325:Drivers/CMSIS/DSP/Source/FilteringFunctions/arm_conv_q31.c **** 
 326:Drivers/CMSIS/DSP/Source/FilteringFunctions/arm_conv_q31.c ****         /* Reuse the present samples for the next MAC */
 327:Drivers/CMSIS/DSP/Source/FilteringFunctions/arm_conv_q31.c ****         x0 = x1;
ARM GAS  /tmp/ccRHSwPY.s 			page 14


 397              		.loc 1 327 9 is_stmt 1 view .LVU136
 398              	.LVL56:
 328:Drivers/CMSIS/DSP/Source/FilteringFunctions/arm_conv_q31.c ****         x1 = x2;
 399              		.loc 1 328 9 view .LVU137
 329:Drivers/CMSIS/DSP/Source/FilteringFunctions/arm_conv_q31.c **** 
 330:Drivers/CMSIS/DSP/Source/FilteringFunctions/arm_conv_q31.c ****         /* Decrement the loop counter */
 331:Drivers/CMSIS/DSP/Source/FilteringFunctions/arm_conv_q31.c ****         k--;
 400              		.loc 1 331 9 view .LVU138
 401              		.loc 1 331 10 is_stmt 0 view .LVU139
 402 01c2 013F     		subs	r7, r7, #1
 403              	.LVL57:
 327:Drivers/CMSIS/DSP/Source/FilteringFunctions/arm_conv_q31.c ****         x1 = x2;
 404              		.loc 1 327 12 view .LVU140
 405 01c4 0A46     		mov	r2, r1
 328:Drivers/CMSIS/DSP/Source/FilteringFunctions/arm_conv_q31.c ****         x1 = x2;
 406              		.loc 1 328 12 view .LVU141
 407 01c6 2146     		mov	r1, r4
 408              	.LVL58:
 313:Drivers/CMSIS/DSP/Source/FilteringFunctions/arm_conv_q31.c **** 
 409              		.loc 1 313 18 view .LVU142
 410 01c8 6346     		mov	r3, ip
 316:Drivers/CMSIS/DSP/Source/FilteringFunctions/arm_conv_q31.c **** 
 411              		.loc 1 316 18 view .LVU143
 412 01ca 3446     		mov	r4, r6
 413              	.LVL59:
 414              	.L12:
 310:Drivers/CMSIS/DSP/Source/FilteringFunctions/arm_conv_q31.c ****       {
 415              		.loc 1 310 16 is_stmt 1 view .LVU144
 416 01cc 002F     		cmp	r7, #0
 417 01ce C6D1     		bne	.L13
 332:Drivers/CMSIS/DSP/Source/FilteringFunctions/arm_conv_q31.c ****       }
 333:Drivers/CMSIS/DSP/Source/FilteringFunctions/arm_conv_q31.c **** 
 334:Drivers/CMSIS/DSP/Source/FilteringFunctions/arm_conv_q31.c ****       /* Store the results in the accumulators in the destination buffer. */
 335:Drivers/CMSIS/DSP/Source/FilteringFunctions/arm_conv_q31.c ****       *pOut++ = (q31_t) (acc0 >> 31);
 418              		.loc 1 335 31 is_stmt 0 view .LVU145
 419 01d0 169D     		ldr	r5, [sp, #88]
 420 01d2 0098     		ldr	r0, [sp]
 421              		.loc 1 335 7 is_stmt 1 view .LVU146
 422              		.loc 1 335 31 is_stmt 0 view .LVU147
 423 01d4 019B     		ldr	r3, [sp, #4]
 424              	.LVL60:
 425              		.loc 1 335 31 view .LVU148
 426 01d6 DB0F     		lsrs	r3, r3, #31
 427 01d8 43EA4B03 		orr	r3, r3, fp, lsl #1
 428              	.LVL61:
 429              		.loc 1 335 15 view .LVU149
 430 01dc 2B60     		str	r3, [r5]
 336:Drivers/CMSIS/DSP/Source/FilteringFunctions/arm_conv_q31.c ****       *pOut++ = (q31_t) (acc1 >> 31);
 431              		.loc 1 336 7 is_stmt 1 view .LVU150
 432              		.loc 1 336 31 is_stmt 0 view .LVU151
 433 01de 029B     		ldr	r3, [sp, #8]
 434 01e0 DB0F     		lsrs	r3, r3, #31
 435 01e2 43EA4903 		orr	r3, r3, r9, lsl #1
 436              	.LVL62:
 437              		.loc 1 336 15 view .LVU152
 438 01e6 6B60     		str	r3, [r5, #4]
 337:Drivers/CMSIS/DSP/Source/FilteringFunctions/arm_conv_q31.c ****       *pOut++ = (q31_t) (acc2 >> 31);
ARM GAS  /tmp/ccRHSwPY.s 			page 15


 439              		.loc 1 337 7 is_stmt 1 view .LVU153
 440              		.loc 1 337 31 is_stmt 0 view .LVU154
 441 01e8 4FEADA73 		lsr	r3, r10, #31
 442 01ec 43EA4003 		orr	r3, r3, r0, lsl #1
 443              	.LVL63:
 444              		.loc 1 337 15 view .LVU155
 445 01f0 AB60     		str	r3, [r5, #8]
 338:Drivers/CMSIS/DSP/Source/FilteringFunctions/arm_conv_q31.c **** 
 339:Drivers/CMSIS/DSP/Source/FilteringFunctions/arm_conv_q31.c ****       /* Increment the pointer pIn1 index, count by 3 */
 340:Drivers/CMSIS/DSP/Source/FilteringFunctions/arm_conv_q31.c ****       count += 3U;
 446              		.loc 1 340 7 is_stmt 1 view .LVU156
 447              		.loc 1 340 13 is_stmt 0 view .LVU157
 448 01f2 089B     		ldr	r3, [sp, #32]
 449 01f4 0333     		adds	r3, r3, #3
 450 01f6 0893     		str	r3, [sp, #32]
 451              	.LVL64:
 341:Drivers/CMSIS/DSP/Source/FilteringFunctions/arm_conv_q31.c **** 
 342:Drivers/CMSIS/DSP/Source/FilteringFunctions/arm_conv_q31.c ****       /* Update the inputA and inputB pointers for next MAC calculation */
 343:Drivers/CMSIS/DSP/Source/FilteringFunctions/arm_conv_q31.c ****       px = pIn1 + count;
 452              		.loc 1 343 7 is_stmt 1 view .LVU158
 453              		.loc 1 343 10 is_stmt 0 view .LVU159
 454 01f8 069A     		ldr	r2, [sp, #24]
 455              	.LVL65:
 456              		.loc 1 343 10 view .LVU160
 457 01fa 02EB8304 		add	r4, r2, r3, lsl #2
 458              	.LVL66:
 344:Drivers/CMSIS/DSP/Source/FilteringFunctions/arm_conv_q31.c ****       py = pSrc2;
 459              		.loc 1 344 7 is_stmt 1 view .LVU161
 345:Drivers/CMSIS/DSP/Source/FilteringFunctions/arm_conv_q31.c **** 
 346:Drivers/CMSIS/DSP/Source/FilteringFunctions/arm_conv_q31.c ****       /* Decrement the loop counter */
 347:Drivers/CMSIS/DSP/Source/FilteringFunctions/arm_conv_q31.c ****       blkCnt--;
 460              		.loc 1 347 7 view .LVU162
 461              		.loc 1 347 13 is_stmt 0 view .LVU163
 462 01fe 079B     		ldr	r3, [sp, #28]
 463              	.LVL67:
 464              		.loc 1 347 13 view .LVU164
 465 0200 013B     		subs	r3, r3, #1
 466 0202 0793     		str	r3, [sp, #28]
 467              	.LVL68:
 337:Drivers/CMSIS/DSP/Source/FilteringFunctions/arm_conv_q31.c **** 
 468              		.loc 1 337 12 view .LVU165
 469 0204 0C35     		adds	r5, r5, #12
 470              	.LVL69:
 471              	.L10:
 240:Drivers/CMSIS/DSP/Source/FilteringFunctions/arm_conv_q31.c ****     {
 472              		.loc 1 240 19 is_stmt 1 view .LVU166
 473 0206 079B     		ldr	r3, [sp, #28]
 474 0208 002B     		cmp	r3, #0
 475 020a 00F0AE80 		beq	.L34
 243:Drivers/CMSIS/DSP/Source/FilteringFunctions/arm_conv_q31.c ****       acc1 = 0;
 476              		.loc 1 243 7 view .LVU167
 477              	.LVL70:
 244:Drivers/CMSIS/DSP/Source/FilteringFunctions/arm_conv_q31.c ****       acc2 = 0;
 478              		.loc 1 244 7 view .LVU168
 245:Drivers/CMSIS/DSP/Source/FilteringFunctions/arm_conv_q31.c **** 
 479              		.loc 1 245 7 view .LVU169
 248:Drivers/CMSIS/DSP/Source/FilteringFunctions/arm_conv_q31.c ****       x1 = *(px++);
ARM GAS  /tmp/ccRHSwPY.s 			page 16


 480              		.loc 1 248 7 view .LVU170
 248:Drivers/CMSIS/DSP/Source/FilteringFunctions/arm_conv_q31.c ****       x1 = *(px++);
 481              		.loc 1 248 10 is_stmt 0 view .LVU171
 482 020e 2346     		mov	r3, r4
 483 0210 53F8082B 		ldr	r2, [r3], #8
 484 0214 0093     		str	r3, [sp]
 485              	.LVL71:
 249:Drivers/CMSIS/DSP/Source/FilteringFunctions/arm_conv_q31.c **** 
 486              		.loc 1 249 7 is_stmt 1 view .LVU172
 249:Drivers/CMSIS/DSP/Source/FilteringFunctions/arm_conv_q31.c **** 
 487              		.loc 1 249 10 is_stmt 0 view .LVU173
 488 0216 6168     		ldr	r1, [r4, #4]
 489              	.LVL72:
 252:Drivers/CMSIS/DSP/Source/FilteringFunctions/arm_conv_q31.c **** 
 490              		.loc 1 252 7 is_stmt 1 view .LVU174
 252:Drivers/CMSIS/DSP/Source/FilteringFunctions/arm_conv_q31.c **** 
 491              		.loc 1 252 9 is_stmt 0 view .LVU175
 492 0218 9A4B     		ldr	r3, .L38
 493              	.LVL73:
 252:Drivers/CMSIS/DSP/Source/FilteringFunctions/arm_conv_q31.c **** 
 494              		.loc 1 252 9 view .LVU176
 495 021a 0998     		ldr	r0, [sp, #36]
 496 021c A3FB0003 		umull	r0, r3, r3, r0
 497 0220 5B08     		lsrs	r3, r3, #1
 498 0222 0393     		str	r3, [sp, #12]
 499              	.LVL74:
 252:Drivers/CMSIS/DSP/Source/FilteringFunctions/arm_conv_q31.c **** 
 500              		.loc 1 252 9 view .LVU177
 501 0224 059B     		ldr	r3, [sp, #20]
 502              	.LVL75:
 245:Drivers/CMSIS/DSP/Source/FilteringFunctions/arm_conv_q31.c **** 
 503              		.loc 1 245 12 view .LVU178
 504 0226 4FF0000A 		mov	r10, #0
 505 022a 5046     		mov	r0, r10
 244:Drivers/CMSIS/DSP/Source/FilteringFunctions/arm_conv_q31.c ****       acc2 = 0;
 506              		.loc 1 244 12 view .LVU179
 507 022c CDF808A0 		str	r10, [sp, #8]
 508 0230 D146     		mov	r9, r10
 243:Drivers/CMSIS/DSP/Source/FilteringFunctions/arm_conv_q31.c ****       acc1 = 0;
 509              		.loc 1 243 12 view .LVU180
 510 0232 CDF804A0 		str	r10, [sp, #4]
 511 0236 9846     		mov	r8, r3
 512 0238 1695     		str	r5, [sp, #88]
 513 023a D646     		mov	lr, r10
 514              	.LVL76:
 515              	.L11:
 256:Drivers/CMSIS/DSP/Source/FilteringFunctions/arm_conv_q31.c ****       {
 516              		.loc 1 256 7 is_stmt 1 view .LVU181
 259:Drivers/CMSIS/DSP/Source/FilteringFunctions/arm_conv_q31.c **** 
 517              		.loc 1 259 9 view .LVU182
 259:Drivers/CMSIS/DSP/Source/FilteringFunctions/arm_conv_q31.c **** 
 518              		.loc 1 259 12 is_stmt 0 view .LVU183
 519 023c D8F80040 		ldr	r4, [r8]
 520              	.LVL77:
 262:Drivers/CMSIS/DSP/Source/FilteringFunctions/arm_conv_q31.c **** 
 521              		.loc 1 262 9 is_stmt 1 view .LVU184
 262:Drivers/CMSIS/DSP/Source/FilteringFunctions/arm_conv_q31.c **** 
ARM GAS  /tmp/ccRHSwPY.s 			page 17


 522              		.loc 1 262 12 is_stmt 0 view .LVU185
 523 0240 009B     		ldr	r3, [sp]
 524 0242 1B68     		ldr	r3, [r3]
 525              	.LVL78:
 266:Drivers/CMSIS/DSP/Source/FilteringFunctions/arm_conv_q31.c ****         /* acc1 +=  x[1] * y[srcBLen - 1] */
 526              		.loc 1 266 9 is_stmt 1 view .LVU186
 266:Drivers/CMSIS/DSP/Source/FilteringFunctions/arm_conv_q31.c ****         /* acc1 +=  x[1] * y[srcBLen - 1] */
 527              		.loc 1 266 18 is_stmt 0 view .LVU187
 528 0244 D517     		asrs	r5, r2, #31
 266:Drivers/CMSIS/DSP/Source/FilteringFunctions/arm_conv_q31.c ****         /* acc1 +=  x[1] * y[srcBLen - 1] */
 529              		.loc 1 266 29 view .LVU188
 530 0246 E617     		asrs	r6, r4, #31
 531 0248 02FB06F7 		mul	r7, r2, r6
 532 024c 04FB0577 		mla	r7, r4, r5, r7
 533 0250 A2FB0452 		umull	r5, r2, r2, r4
 534              	.LVL79:
 266:Drivers/CMSIS/DSP/Source/FilteringFunctions/arm_conv_q31.c ****         /* acc1 +=  x[1] * y[srcBLen - 1] */
 535              		.loc 1 266 29 view .LVU189
 536 0254 3A44     		add	r2, r2, r7
 266:Drivers/CMSIS/DSP/Source/FilteringFunctions/arm_conv_q31.c ****         /* acc1 +=  x[1] * y[srcBLen - 1] */
 537              		.loc 1 266 14 view .LVU190
 538 0256 019F     		ldr	r7, [sp, #4]
 539 0258 ED19     		adds	r5, r5, r7
 540 025a 0195     		str	r5, [sp, #4]
 541              	.LVL80:
 266:Drivers/CMSIS/DSP/Source/FilteringFunctions/arm_conv_q31.c ****         /* acc1 +=  x[1] * y[srcBLen - 1] */
 542              		.loc 1 266 14 view .LVU191
 543 025c 42EB0907 		adc	r7, r2, r9
 544              	.LVL81:
 266:Drivers/CMSIS/DSP/Source/FilteringFunctions/arm_conv_q31.c ****         /* acc1 +=  x[1] * y[srcBLen - 1] */
 545              		.loc 1 266 14 view .LVU192
 546 0260 0497     		str	r7, [sp, #16]
 547              	.LVL82:
 268:Drivers/CMSIS/DSP/Source/FilteringFunctions/arm_conv_q31.c ****         /* acc2 +=  x[2] * y[srcBLen - 1] */
 548              		.loc 1 268 9 is_stmt 1 view .LVU193
 268:Drivers/CMSIS/DSP/Source/FilteringFunctions/arm_conv_q31.c ****         /* acc2 +=  x[2] * y[srcBLen - 1] */
 549              		.loc 1 268 18 is_stmt 0 view .LVU194
 550 0262 4FEAE17C 		asr	ip, r1, #31
 268:Drivers/CMSIS/DSP/Source/FilteringFunctions/arm_conv_q31.c ****         /* acc2 +=  x[2] * y[srcBLen - 1] */
 551              		.loc 1 268 29 view .LVU195
 552 0266 04FB0CF9 		mul	r9, r4, ip
 553 026a 01FB0699 		mla	r9, r1, r6, r9
 554 026e A4FB0172 		umull	r7, r2, r4, r1
 555              	.LVL83:
 268:Drivers/CMSIS/DSP/Source/FilteringFunctions/arm_conv_q31.c ****         /* acc2 +=  x[2] * y[srcBLen - 1] */
 556              		.loc 1 268 29 view .LVU196
 557 0272 4A44     		add	r2, r2, r9
 268:Drivers/CMSIS/DSP/Source/FilteringFunctions/arm_conv_q31.c ****         /* acc2 +=  x[2] * y[srcBLen - 1] */
 558              		.loc 1 268 14 view .LVU197
 559 0274 029D     		ldr	r5, [sp, #8]
 560              	.LVL84:
 268:Drivers/CMSIS/DSP/Source/FilteringFunctions/arm_conv_q31.c ****         /* acc2 +=  x[2] * y[srcBLen - 1] */
 561              		.loc 1 268 14 view .LVU198
 562 0276 7F19     		adds	r7, r7, r5
 563 0278 42EB0E0E 		adc	lr, r2, lr
 564              	.LVL85:
 270:Drivers/CMSIS/DSP/Source/FilteringFunctions/arm_conv_q31.c **** 
ARM GAS  /tmp/ccRHSwPY.s 			page 18


 565              		.loc 1 270 9 is_stmt 1 view .LVU199
 270:Drivers/CMSIS/DSP/Source/FilteringFunctions/arm_conv_q31.c **** 
 566              		.loc 1 270 18 is_stmt 0 view .LVU200
 567 027c 4FEAE379 		asr	r9, r3, #31
 270:Drivers/CMSIS/DSP/Source/FilteringFunctions/arm_conv_q31.c **** 
 568              		.loc 1 270 29 view .LVU201
 569 0280 04FB09F2 		mul	r2, r4, r9
 570 0284 03FB0622 		mla	r2, r3, r6, r2
 571 0288 A4FB0364 		umull	r6, r4, r4, r3
 572              	.LVL86:
 270:Drivers/CMSIS/DSP/Source/FilteringFunctions/arm_conv_q31.c **** 
 573              		.loc 1 270 29 view .LVU202
 574 028c 1444     		add	r4, r4, r2
 270:Drivers/CMSIS/DSP/Source/FilteringFunctions/arm_conv_q31.c **** 
 575              		.loc 1 270 14 view .LVU203
 576 028e 16EB0A06 		adds	r6, r6, r10
 577 0292 44EB0000 		adc	r0, r4, r0
 578              	.LVL87:
 273:Drivers/CMSIS/DSP/Source/FilteringFunctions/arm_conv_q31.c **** 
 579              		.loc 1 273 9 is_stmt 1 view .LVU204
 273:Drivers/CMSIS/DSP/Source/FilteringFunctions/arm_conv_q31.c **** 
 580              		.loc 1 273 12 is_stmt 0 view .LVU205
 581 0296 58F8044C 		ldr	r4, [r8, #-4]
 582              	.LVL88:
 276:Drivers/CMSIS/DSP/Source/FilteringFunctions/arm_conv_q31.c **** 
 583              		.loc 1 276 9 is_stmt 1 view .LVU206
 276:Drivers/CMSIS/DSP/Source/FilteringFunctions/arm_conv_q31.c **** 
 584              		.loc 1 276 12 is_stmt 0 view .LVU207
 585 029a 009A     		ldr	r2, [sp]
 586 029c 5268     		ldr	r2, [r2, #4]
 587              	.LVL89:
 280:Drivers/CMSIS/DSP/Source/FilteringFunctions/arm_conv_q31.c ****         /* acc1 +=  x[2] * y[srcBLen - 2] */
 588              		.loc 1 280 9 is_stmt 1 view .LVU208
 280:Drivers/CMSIS/DSP/Source/FilteringFunctions/arm_conv_q31.c ****         /* acc1 +=  x[2] * y[srcBLen - 2] */
 589              		.loc 1 280 29 is_stmt 0 view .LVU209
 590 029e 4FEAE47A 		asr	r10, r4, #31
 591 02a2 01FB0AFB 		mul	fp, r1, r10
 592 02a6 04FB0CBB 		mla	fp, r4, ip, fp
 593 02aa A1FB041C 		umull	r1, ip, r1, r4
 594              	.LVL90:
 280:Drivers/CMSIS/DSP/Source/FilteringFunctions/arm_conv_q31.c ****         /* acc1 +=  x[2] * y[srcBLen - 2] */
 595              		.loc 1 280 29 view .LVU210
 596 02ae DC44     		add	ip, ip, fp
 280:Drivers/CMSIS/DSP/Source/FilteringFunctions/arm_conv_q31.c ****         /* acc1 +=  x[2] * y[srcBLen - 2] */
 597              		.loc 1 280 14 view .LVU211
 598 02b0 019D     		ldr	r5, [sp, #4]
 599 02b2 4D19     		adds	r5, r1, r5
 600 02b4 0499     		ldr	r1, [sp, #16]
 601 02b6 4CEB0101 		adc	r1, ip, r1
 602 02ba 0291     		str	r1, [sp, #8]
 603              	.LVL91:
 282:Drivers/CMSIS/DSP/Source/FilteringFunctions/arm_conv_q31.c ****         /* acc2 +=  x[3] * y[srcBLen - 2] */
 604              		.loc 1 282 9 is_stmt 1 view .LVU212
 282:Drivers/CMSIS/DSP/Source/FilteringFunctions/arm_conv_q31.c ****         /* acc2 +=  x[3] * y[srcBLen - 2] */
 605              		.loc 1 282 29 is_stmt 0 view .LVU213
 606 02bc 03FB0AFB 		mul	fp, r3, r10
 607 02c0 04FB09BB 		mla	fp, r4, r9, fp
ARM GAS  /tmp/ccRHSwPY.s 			page 19


 608 02c4 A3FB041C 		umull	r1, ip, r3, r4
 609              	.LVL92:
 282:Drivers/CMSIS/DSP/Source/FilteringFunctions/arm_conv_q31.c ****         /* acc2 +=  x[3] * y[srcBLen - 2] */
 610              		.loc 1 282 29 view .LVU214
 611 02c8 DC44     		add	ip, ip, fp
 282:Drivers/CMSIS/DSP/Source/FilteringFunctions/arm_conv_q31.c ****         /* acc2 +=  x[3] * y[srcBLen - 2] */
 612              		.loc 1 282 14 view .LVU215
 613 02ca CF19     		adds	r7, r1, r7
 614              	.LVL93:
 282:Drivers/CMSIS/DSP/Source/FilteringFunctions/arm_conv_q31.c ****         /* acc2 +=  x[3] * y[srcBLen - 2] */
 615              		.loc 1 282 14 view .LVU216
 616 02cc 4CEB0E0C 		adc	ip, ip, lr
 617              	.LVL94:
 284:Drivers/CMSIS/DSP/Source/FilteringFunctions/arm_conv_q31.c **** 
 618              		.loc 1 284 9 is_stmt 1 view .LVU217
 284:Drivers/CMSIS/DSP/Source/FilteringFunctions/arm_conv_q31.c **** 
 619              		.loc 1 284 18 is_stmt 0 view .LVU218
 620 02d0 4FEAE27E 		asr	lr, r2, #31
 284:Drivers/CMSIS/DSP/Source/FilteringFunctions/arm_conv_q31.c **** 
 621              		.loc 1 284 29 view .LVU219
 622 02d4 04FB0EF1 		mul	r1, r4, lr
 623 02d8 02FB0A1A 		mla	r10, r2, r10, r1
 624 02dc A4FB0214 		umull	r1, r4, r4, r2
 625              	.LVL95:
 284:Drivers/CMSIS/DSP/Source/FilteringFunctions/arm_conv_q31.c **** 
 626              		.loc 1 284 29 view .LVU220
 627 02e0 5444     		add	r4, r4, r10
 284:Drivers/CMSIS/DSP/Source/FilteringFunctions/arm_conv_q31.c **** 
 628              		.loc 1 284 14 view .LVU221
 629 02e2 8E19     		adds	r6, r1, r6
 630              	.LVL96:
 284:Drivers/CMSIS/DSP/Source/FilteringFunctions/arm_conv_q31.c **** 
 631              		.loc 1 284 14 view .LVU222
 632 02e4 44EB000B 		adc	fp, r4, r0
 633              	.LVL97:
 287:Drivers/CMSIS/DSP/Source/FilteringFunctions/arm_conv_q31.c **** 
 634              		.loc 1 287 9 is_stmt 1 view .LVU223
 287:Drivers/CMSIS/DSP/Source/FilteringFunctions/arm_conv_q31.c **** 
 635              		.loc 1 287 12 is_stmt 0 view .LVU224
 636 02e8 58F8080C 		ldr	r0, [r8, #-8]
 637              	.LVL98:
 290:Drivers/CMSIS/DSP/Source/FilteringFunctions/arm_conv_q31.c **** 
 638              		.loc 1 290 9 is_stmt 1 view .LVU225
 290:Drivers/CMSIS/DSP/Source/FilteringFunctions/arm_conv_q31.c **** 
 639              		.loc 1 290 12 is_stmt 0 view .LVU226
 640 02ec 0099     		ldr	r1, [sp]
 641 02ee 8968     		ldr	r1, [r1, #8]
 642              	.LVL99:
 294:Drivers/CMSIS/DSP/Source/FilteringFunctions/arm_conv_q31.c ****         /* acc1 +=  x[3] * y[srcBLen - 2] */
 643              		.loc 1 294 9 is_stmt 1 view .LVU227
 294:Drivers/CMSIS/DSP/Source/FilteringFunctions/arm_conv_q31.c ****         /* acc1 +=  x[3] * y[srcBLen - 2] */
 644              		.loc 1 294 29 is_stmt 0 view .LVU228
 645 02f0 C417     		asrs	r4, r0, #31
 646 02f2 03FB04FA 		mul	r10, r3, r4
 647 02f6 00FB09A9 		mla	r9, r0, r9, r10
 648 02fa A3FB003A 		umull	r3, r10, r3, r0
 649              	.LVL100:
ARM GAS  /tmp/ccRHSwPY.s 			page 20


 294:Drivers/CMSIS/DSP/Source/FilteringFunctions/arm_conv_q31.c ****         /* acc1 +=  x[3] * y[srcBLen - 2] */
 650              		.loc 1 294 29 view .LVU229
 651 02fe D144     		add	r9, r9, r10
 294:Drivers/CMSIS/DSP/Source/FilteringFunctions/arm_conv_q31.c ****         /* acc1 +=  x[3] * y[srcBLen - 2] */
 652              		.loc 1 294 14 view .LVU230
 653 0300 5B19     		adds	r3, r3, r5
 654 0302 0193     		str	r3, [sp, #4]
 655 0304 029D     		ldr	r5, [sp, #8]
 656              	.LVL101:
 294:Drivers/CMSIS/DSP/Source/FilteringFunctions/arm_conv_q31.c ****         /* acc1 +=  x[3] * y[srcBLen - 2] */
 657              		.loc 1 294 14 view .LVU231
 658 0306 49EB0509 		adc	r9, r9, r5
 659              	.LVL102:
 296:Drivers/CMSIS/DSP/Source/FilteringFunctions/arm_conv_q31.c ****         /* acc2 +=  x[4] * y[srcBLen - 2] */
 660              		.loc 1 296 9 is_stmt 1 view .LVU232
 296:Drivers/CMSIS/DSP/Source/FilteringFunctions/arm_conv_q31.c ****         /* acc2 +=  x[4] * y[srcBLen - 2] */
 661              		.loc 1 296 29 is_stmt 0 view .LVU233
 662 030a 02FB04F3 		mul	r3, r2, r4
 663              	.LVL103:
 296:Drivers/CMSIS/DSP/Source/FilteringFunctions/arm_conv_q31.c ****         /* acc2 +=  x[4] * y[srcBLen - 2] */
 664              		.loc 1 296 29 view .LVU234
 665 030e 00FB0E33 		mla	r3, r0, lr, r3
 666 0312 A2FB005E 		umull	r5, lr, r2, r0
 667 0316 7344     		add	r3, r3, lr
 296:Drivers/CMSIS/DSP/Source/FilteringFunctions/arm_conv_q31.c ****         /* acc2 +=  x[4] * y[srcBLen - 2] */
 668              		.loc 1 296 14 view .LVU235
 669 0318 ED19     		adds	r5, r5, r7
 670 031a 0295     		str	r5, [sp, #8]
 671 031c 43EB0C0E 		adc	lr, r3, ip
 672              	.LVL104:
 298:Drivers/CMSIS/DSP/Source/FilteringFunctions/arm_conv_q31.c **** 
 673              		.loc 1 298 9 is_stmt 1 view .LVU236
 298:Drivers/CMSIS/DSP/Source/FilteringFunctions/arm_conv_q31.c **** 
 674              		.loc 1 298 18 is_stmt 0 view .LVU237
 675 0320 CB17     		asrs	r3, r1, #31
 298:Drivers/CMSIS/DSP/Source/FilteringFunctions/arm_conv_q31.c **** 
 676              		.loc 1 298 29 view .LVU238
 677 0322 00FB03F3 		mul	r3, r0, r3
 678 0326 01FB0433 		mla	r3, r1, r4, r3
 679 032a A0FB0140 		umull	r4, r0, r0, r1
 680              	.LVL105:
 298:Drivers/CMSIS/DSP/Source/FilteringFunctions/arm_conv_q31.c **** 
 681              		.loc 1 298 29 view .LVU239
 682 032e 1844     		add	r0, r0, r3
 298:Drivers/CMSIS/DSP/Source/FilteringFunctions/arm_conv_q31.c **** 
 683              		.loc 1 298 14 view .LVU240
 684 0330 14EB060A 		adds	r10, r4, r6
 685 0334 40EB0B00 		adc	r0, r0, fp
 686              	.LVL106:
 301:Drivers/CMSIS/DSP/Source/FilteringFunctions/arm_conv_q31.c ****         py -= 3U;
 687              		.loc 1 301 9 is_stmt 1 view .LVU241
 301:Drivers/CMSIS/DSP/Source/FilteringFunctions/arm_conv_q31.c ****         py -= 3U;
 688              		.loc 1 301 12 is_stmt 0 view .LVU242
 689 0338 009B     		ldr	r3, [sp]
 690 033a 0C33     		adds	r3, r3, #12
 691 033c 0093     		str	r3, [sp]
 692              	.LVL107:
ARM GAS  /tmp/ccRHSwPY.s 			page 21


 302:Drivers/CMSIS/DSP/Source/FilteringFunctions/arm_conv_q31.c **** 
 693              		.loc 1 302 9 is_stmt 1 view .LVU243
 302:Drivers/CMSIS/DSP/Source/FilteringFunctions/arm_conv_q31.c **** 
 694              		.loc 1 302 12 is_stmt 0 view .LVU244
 695 033e A8F10C08 		sub	r8, r8, #12
 696              	.LVL108:
 304:Drivers/CMSIS/DSP/Source/FilteringFunctions/arm_conv_q31.c **** 
 697              		.loc 1 304 16 is_stmt 1 discriminator 1 view .LVU245
 304:Drivers/CMSIS/DSP/Source/FilteringFunctions/arm_conv_q31.c **** 
 698              		.loc 1 304 16 is_stmt 0 discriminator 1 view .LVU246
 699 0342 039B     		ldr	r3, [sp, #12]
 700              	.LVL109:
 304:Drivers/CMSIS/DSP/Source/FilteringFunctions/arm_conv_q31.c **** 
 701              		.loc 1 304 16 discriminator 1 view .LVU247
 702 0344 013B     		subs	r3, r3, #1
 703              	.LVL110:
 304:Drivers/CMSIS/DSP/Source/FilteringFunctions/arm_conv_q31.c **** 
 704              		.loc 1 304 16 discriminator 1 view .LVU248
 705 0346 0393     		str	r3, [sp, #12]
 706 0348 7FF478AF 		bne	.L11
 308:Drivers/CMSIS/DSP/Source/FilteringFunctions/arm_conv_q31.c **** 
 707              		.loc 1 308 9 view .LVU249
 708 034c CB46     		mov	fp, r9
 709 034e F146     		mov	r9, lr
 710              	.LVL111:
 308:Drivers/CMSIS/DSP/Source/FilteringFunctions/arm_conv_q31.c **** 
 711              		.loc 1 308 7 is_stmt 1 view .LVU250
 308:Drivers/CMSIS/DSP/Source/FilteringFunctions/arm_conv_q31.c **** 
 712              		.loc 1 308 9 is_stmt 0 view .LVU251
 713 0350 4C4C     		ldr	r4, .L38
 714 0352 099E     		ldr	r6, [sp, #36]
 715 0354 A4FB0643 		umull	r4, r3, r4, r6
 716              	.LVL112:
 308:Drivers/CMSIS/DSP/Source/FilteringFunctions/arm_conv_q31.c **** 
 717              		.loc 1 308 9 view .LVU252
 718 0358 23F00107 		bic	r7, r3, #1
 719 035c 07EB5307 		add	r7, r7, r3, lsr #1
 720 0360 F71B     		subs	r7, r6, r7
 721              	.LVL113:
 310:Drivers/CMSIS/DSP/Source/FilteringFunctions/arm_conv_q31.c ****       {
 722              		.loc 1 310 7 is_stmt 1 view .LVU253
 723 0362 009C     		ldr	r4, [sp]
 724 0364 4346     		mov	r3, r8
 725 0366 0090     		str	r0, [sp]
 726              	.LVL114:
 310:Drivers/CMSIS/DSP/Source/FilteringFunctions/arm_conv_q31.c ****       {
 727              		.loc 1 310 13 is_stmt 0 view .LVU254
 728 0368 30E7     		b	.L12
 729              	.LVL115:
 730              	.L34:
 348:Drivers/CMSIS/DSP/Source/FilteringFunctions/arm_conv_q31.c ****     }
 349:Drivers/CMSIS/DSP/Source/FilteringFunctions/arm_conv_q31.c **** 
 350:Drivers/CMSIS/DSP/Source/FilteringFunctions/arm_conv_q31.c ****     /* If the blockSize2 is not a multiple of 3, compute any remaining output samples here.
 351:Drivers/CMSIS/DSP/Source/FilteringFunctions/arm_conv_q31.c ****      ** No loop unrolling is used. */
 352:Drivers/CMSIS/DSP/Source/FilteringFunctions/arm_conv_q31.c ****     blkCnt = blockSize2 - 3 * (blockSize2 / 3);
 731              		.loc 1 352 12 view .LVU255
 732 036a 0A9A     		ldr	r2, [sp, #40]
ARM GAS  /tmp/ccRHSwPY.s 			page 22


 733 036c DDF82C90 		ldr	r9, [sp, #44]
 734 0370 DDF824A0 		ldr	r10, [sp, #36]
 735 0374 AB46     		mov	fp, r5
 736 0376 089D     		ldr	r5, [sp, #32]
 737              	.LVL116:
 738              		.loc 1 352 5 is_stmt 1 view .LVU256
 739              		.loc 1 352 12 is_stmt 0 view .LVU257
 740 0378 A3F15533 		sub	r3, r3, #1431655765
 741              	.LVL117:
 742              		.loc 1 352 12 view .LVU258
 743 037c A3FB0913 		umull	r1, r3, r3, r9
 744 0380 23F0010C 		bic	ip, r3, #1
 745 0384 0CEB530C 		add	ip, ip, r3, lsr #1
 746 0388 A9EB0C07 		sub	r7, r9, ip
 747              	.LVL118:
 353:Drivers/CMSIS/DSP/Source/FilteringFunctions/arm_conv_q31.c **** 
 354:Drivers/CMSIS/DSP/Source/FilteringFunctions/arm_conv_q31.c ****     while (blkCnt > 0U)
 748              		.loc 1 354 5 is_stmt 1 view .LVU259
 749 038c 0195     		str	r5, [sp, #4]
 750 038e 0097     		str	r7, [sp]
 751 0390 1046     		mov	r0, r2
 752 0392 DDF818E0 		ldr	lr, [sp, #24]
 753              		.loc 1 354 11 is_stmt 0 view .LVU260
 754 0396 6CE0     		b	.L15
 755              	.LVL119:
 756              	.L17:
 355:Drivers/CMSIS/DSP/Source/FilteringFunctions/arm_conv_q31.c ****     {
 356:Drivers/CMSIS/DSP/Source/FilteringFunctions/arm_conv_q31.c ****       /* Accumulator is made zero for every iteration */
 357:Drivers/CMSIS/DSP/Source/FilteringFunctions/arm_conv_q31.c ****       sum = 0;
 358:Drivers/CMSIS/DSP/Source/FilteringFunctions/arm_conv_q31.c **** 
 359:Drivers/CMSIS/DSP/Source/FilteringFunctions/arm_conv_q31.c ****       /* Apply loop unrolling and compute 4 MACs simultaneously. */
 360:Drivers/CMSIS/DSP/Source/FilteringFunctions/arm_conv_q31.c ****       k = srcBLen >> 2U;
 361:Drivers/CMSIS/DSP/Source/FilteringFunctions/arm_conv_q31.c **** 
 362:Drivers/CMSIS/DSP/Source/FilteringFunctions/arm_conv_q31.c ****       /* First part of the processing with loop unrolling.  Compute 4 MACs at a time.
 363:Drivers/CMSIS/DSP/Source/FilteringFunctions/arm_conv_q31.c ****        ** a second loop below computes MACs for the remaining 1 to 3 samples. */
 364:Drivers/CMSIS/DSP/Source/FilteringFunctions/arm_conv_q31.c ****       while (k > 0U)
 365:Drivers/CMSIS/DSP/Source/FilteringFunctions/arm_conv_q31.c ****       {
 366:Drivers/CMSIS/DSP/Source/FilteringFunctions/arm_conv_q31.c ****         /* Perform the multiply-accumulates */
 367:Drivers/CMSIS/DSP/Source/FilteringFunctions/arm_conv_q31.c ****         sum += (q63_t) * px++ * (*py--);
 757              		.loc 1 367 9 is_stmt 1 view .LVU261
 758              		.loc 1 367 24 is_stmt 0 view .LVU262
 759 0398 2168     		ldr	r1, [r4]
 760              		.loc 1 367 16 view .LVU263
 761 039a 4FEAE17C 		asr	ip, r1, #31
 762              	.LVL120:
 763              		.loc 1 367 34 view .LVU264
 764 039e 3768     		ldr	r7, [r6]
 765 03a0 FA17     		asrs	r2, r7, #31
 766              		.loc 1 367 31 view .LVU265
 767 03a2 01FB02F2 		mul	r2, r1, r2
 768 03a6 07FB0C22 		mla	r2, r7, ip, r2
 769 03aa A1FB07C1 		umull	ip, r1, r1, r7
 770 03ae 1144     		add	r1, r1, r2
 771              		.loc 1 367 13 view .LVU266
 772 03b0 13EB0C02 		adds	r2, r3, ip
 773 03b4 41EB0807 		adc	r7, r1, r8
 774              	.LVL121:
ARM GAS  /tmp/ccRHSwPY.s 			page 23


 368:Drivers/CMSIS/DSP/Source/FilteringFunctions/arm_conv_q31.c ****         sum += (q63_t) * px++ * (*py--);
 775              		.loc 1 368 9 is_stmt 1 view .LVU267
 776              		.loc 1 368 24 is_stmt 0 view .LVU268
 777 03b8 6168     		ldr	r1, [r4, #4]
 778              		.loc 1 368 16 view .LVU269
 779 03ba 4FEAE178 		asr	r8, r1, #31
 780              	.LVL122:
 781              		.loc 1 368 34 view .LVU270
 782 03be 56F8043C 		ldr	r3, [r6, #-4]
 783 03c2 4FEAE37C 		asr	ip, r3, #31
 784              		.loc 1 368 31 view .LVU271
 785 03c6 01FB0CFC 		mul	ip, r1, ip
 786 03ca 03FB08CC 		mla	ip, r3, r8, ip
 787 03ce A1FB0331 		umull	r3, r1, r1, r3
 788 03d2 6144     		add	r1, r1, ip
 789              		.loc 1 368 13 view .LVU272
 790 03d4 D318     		adds	r3, r2, r3
 791 03d6 41EB0701 		adc	r1, r1, r7
 792              	.LVL123:
 369:Drivers/CMSIS/DSP/Source/FilteringFunctions/arm_conv_q31.c ****         sum += (q63_t) * px++ * (*py--);
 793              		.loc 1 369 9 is_stmt 1 view .LVU273
 794              		.loc 1 369 24 is_stmt 0 view .LVU274
 795 03da A268     		ldr	r2, [r4, #8]
 796              		.loc 1 369 16 view .LVU275
 797 03dc 4FEAE278 		asr	r8, r2, #31
 798              	.LVL124:
 799              		.loc 1 369 34 view .LVU276
 800 03e0 56F8087C 		ldr	r7, [r6, #-8]
 801 03e4 4FEAE77C 		asr	ip, r7, #31
 802              		.loc 1 369 31 view .LVU277
 803 03e8 02FB0CFC 		mul	ip, r2, ip
 804 03ec 07FB08CC 		mla	ip, r7, r8, ip
 805 03f0 A2FB0772 		umull	r7, r2, r2, r7
 806 03f4 6244     		add	r2, r2, ip
 807              		.loc 1 369 13 view .LVU278
 808 03f6 DF19     		adds	r7, r3, r7
 809 03f8 42EB0101 		adc	r1, r2, r1
 810              	.LVL125:
 370:Drivers/CMSIS/DSP/Source/FilteringFunctions/arm_conv_q31.c ****         sum += (q63_t) * px++ * (*py--);
 811              		.loc 1 370 9 is_stmt 1 view .LVU279
 812              		.loc 1 370 24 is_stmt 0 view .LVU280
 813 03fc E368     		ldr	r3, [r4, #12]
 814              		.loc 1 370 16 view .LVU281
 815 03fe 4FEAE378 		asr	r8, r3, #31
 816              	.LVL126:
 817              		.loc 1 370 34 view .LVU282
 818 0402 56F80C2C 		ldr	r2, [r6, #-12]
 819 0406 4FEAE27C 		asr	ip, r2, #31
 820              		.loc 1 370 31 view .LVU283
 821 040a 03FB0CFC 		mul	ip, r3, ip
 822 040e 02FB08CC 		mla	ip, r2, r8, ip
 823 0412 A3FB0228 		umull	r2, r8, r3, r2
 824 0416 E044     		add	r8, r8, ip
 825              		.loc 1 370 13 view .LVU284
 826 0418 BB18     		adds	r3, r7, r2
 827 041a 48EB0108 		adc	r8, r8, r1
 828              	.LVL127:
ARM GAS  /tmp/ccRHSwPY.s 			page 24


 371:Drivers/CMSIS/DSP/Source/FilteringFunctions/arm_conv_q31.c **** 
 372:Drivers/CMSIS/DSP/Source/FilteringFunctions/arm_conv_q31.c ****         /* Decrement the loop counter */
 373:Drivers/CMSIS/DSP/Source/FilteringFunctions/arm_conv_q31.c ****         k--;
 829              		.loc 1 373 9 is_stmt 1 view .LVU285
 830              		.loc 1 373 10 is_stmt 0 view .LVU286
 831 041e 013D     		subs	r5, r5, #1
 832              	.LVL128:
 370:Drivers/CMSIS/DSP/Source/FilteringFunctions/arm_conv_q31.c ****         sum += (q63_t) * px++ * (*py--);
 833              		.loc 1 370 37 view .LVU287
 834 0420 103E     		subs	r6, r6, #16
 835              	.LVL129:
 370:Drivers/CMSIS/DSP/Source/FilteringFunctions/arm_conv_q31.c ****         sum += (q63_t) * px++ * (*py--);
 836              		.loc 1 370 28 view .LVU288
 837 0422 1034     		adds	r4, r4, #16
 838              	.LVL130:
 839              	.L16:
 364:Drivers/CMSIS/DSP/Source/FilteringFunctions/arm_conv_q31.c ****       {
 840              		.loc 1 364 16 is_stmt 1 view .LVU289
 841 0424 002D     		cmp	r5, #0
 842 0426 B7D1     		bne	.L17
 374:Drivers/CMSIS/DSP/Source/FilteringFunctions/arm_conv_q31.c ****       }
 375:Drivers/CMSIS/DSP/Source/FilteringFunctions/arm_conv_q31.c **** 
 376:Drivers/CMSIS/DSP/Source/FilteringFunctions/arm_conv_q31.c ****       /* If the srcBLen is not a multiple of 4, compute any remaining MACs here.
 377:Drivers/CMSIS/DSP/Source/FilteringFunctions/arm_conv_q31.c ****        ** No loop unrolling is used. */
 378:Drivers/CMSIS/DSP/Source/FilteringFunctions/arm_conv_q31.c ****       k = srcBLen % 0x4U;
 843              		.loc 1 378 7 view .LVU290
 844              		.loc 1 378 9 is_stmt 0 view .LVU291
 845 0428 0AF00305 		and	r5, r10, #3
 846              	.LVL131:
 379:Drivers/CMSIS/DSP/Source/FilteringFunctions/arm_conv_q31.c **** 
 380:Drivers/CMSIS/DSP/Source/FilteringFunctions/arm_conv_q31.c ****       while (k > 0U)
 847              		.loc 1 380 7 is_stmt 1 view .LVU292
 848              		.loc 1 380 13 is_stmt 0 view .LVU293
 849 042c 12E0     		b	.L18
 850              	.L19:
 381:Drivers/CMSIS/DSP/Source/FilteringFunctions/arm_conv_q31.c ****       {
 382:Drivers/CMSIS/DSP/Source/FilteringFunctions/arm_conv_q31.c ****         /* Perform the multiply-accumulate */
 383:Drivers/CMSIS/DSP/Source/FilteringFunctions/arm_conv_q31.c ****         sum += (q63_t) * px++ * (*py--);
 851              		.loc 1 383 9 is_stmt 1 view .LVU294
 852              	.LVL132:
 853              		.loc 1 383 24 is_stmt 0 view .LVU295
 854 042e 54F8042B 		ldr	r2, [r4], #4
 855              	.LVL133:
 856              		.loc 1 383 16 view .LVU296
 857 0432 4FEAE27C 		asr	ip, r2, #31
 858              	.LVL134:
 859              		.loc 1 383 34 view .LVU297
 860 0436 56F80419 		ldr	r1, [r6], #-4
 861              	.LVL135:
 862              		.loc 1 383 34 view .LVU298
 863 043a CF17     		asrs	r7, r1, #31
 864              		.loc 1 383 31 view .LVU299
 865 043c 02FB07F7 		mul	r7, r2, r7
 866 0440 01FB0C77 		mla	r7, r1, ip, r7
 867 0444 A2FB0121 		umull	r2, r1, r2, r1
 868 0448 3944     		add	r1, r1, r7
 869              		.loc 1 383 13 view .LVU300
ARM GAS  /tmp/ccRHSwPY.s 			page 25


 870 044a 9A18     		adds	r2, r3, r2
 871 044c 1346     		mov	r3, r2
 872              	.LVL136:
 873              		.loc 1 383 13 view .LVU301
 874 044e 41EB0808 		adc	r8, r1, r8
 875              	.LVL137:
 384:Drivers/CMSIS/DSP/Source/FilteringFunctions/arm_conv_q31.c **** 
 385:Drivers/CMSIS/DSP/Source/FilteringFunctions/arm_conv_q31.c ****         /* Decrement the loop counter */
 386:Drivers/CMSIS/DSP/Source/FilteringFunctions/arm_conv_q31.c ****         k--;
 876              		.loc 1 386 9 is_stmt 1 view .LVU302
 877              		.loc 1 386 10 is_stmt 0 view .LVU303
 878 0452 013D     		subs	r5, r5, #1
 879              	.LVL138:
 880              	.L18:
 380:Drivers/CMSIS/DSP/Source/FilteringFunctions/arm_conv_q31.c ****       {
 881              		.loc 1 380 16 is_stmt 1 view .LVU304
 882 0454 002D     		cmp	r5, #0
 883 0456 EAD1     		bne	.L19
 387:Drivers/CMSIS/DSP/Source/FilteringFunctions/arm_conv_q31.c ****       }
 388:Drivers/CMSIS/DSP/Source/FilteringFunctions/arm_conv_q31.c **** 
 389:Drivers/CMSIS/DSP/Source/FilteringFunctions/arm_conv_q31.c ****       /* Store the result in the accumulator in the destination buffer. */
 390:Drivers/CMSIS/DSP/Source/FilteringFunctions/arm_conv_q31.c ****       *pOut++ = (q31_t) (sum >> 31);
 884              		.loc 1 390 7 view .LVU305
 885              		.loc 1 390 30 is_stmt 0 view .LVU306
 886 0458 DB0F     		lsrs	r3, r3, #31
 887              	.LVL139:
 888              		.loc 1 390 30 view .LVU307
 889 045a 43EA4803 		orr	r3, r3, r8, lsl #1
 890              	.LVL140:
 891              		.loc 1 390 15 view .LVU308
 892 045e 4BF8043B 		str	r3, [fp], #4
 893              	.LVL141:
 391:Drivers/CMSIS/DSP/Source/FilteringFunctions/arm_conv_q31.c **** 
 392:Drivers/CMSIS/DSP/Source/FilteringFunctions/arm_conv_q31.c ****       /* Increment the MAC count */
 393:Drivers/CMSIS/DSP/Source/FilteringFunctions/arm_conv_q31.c ****       count++;
 894              		.loc 1 393 7 is_stmt 1 view .LVU309
 895              		.loc 1 393 12 is_stmt 0 view .LVU310
 896 0462 019B     		ldr	r3, [sp, #4]
 897 0464 0133     		adds	r3, r3, #1
 898 0466 0193     		str	r3, [sp, #4]
 899              	.LVL142:
 394:Drivers/CMSIS/DSP/Source/FilteringFunctions/arm_conv_q31.c **** 
 395:Drivers/CMSIS/DSP/Source/FilteringFunctions/arm_conv_q31.c ****       /* Update the inputA and inputB pointers for next MAC calculation */
 396:Drivers/CMSIS/DSP/Source/FilteringFunctions/arm_conv_q31.c ****       px = pIn1 + count;
 900              		.loc 1 396 7 is_stmt 1 view .LVU311
 901              		.loc 1 396 10 is_stmt 0 view .LVU312
 902 0468 0EEB8304 		add	r4, lr, r3, lsl #2
 903              	.LVL143:
 397:Drivers/CMSIS/DSP/Source/FilteringFunctions/arm_conv_q31.c ****       py = pSrc2;
 904              		.loc 1 397 7 is_stmt 1 view .LVU313
 398:Drivers/CMSIS/DSP/Source/FilteringFunctions/arm_conv_q31.c **** 
 399:Drivers/CMSIS/DSP/Source/FilteringFunctions/arm_conv_q31.c ****       /* Decrement the loop counter */
 400:Drivers/CMSIS/DSP/Source/FilteringFunctions/arm_conv_q31.c ****       blkCnt--;
 905              		.loc 1 400 7 view .LVU314
 906              		.loc 1 400 13 is_stmt 0 view .LVU315
 907 046c 009B     		ldr	r3, [sp]
 908              	.LVL144:
ARM GAS  /tmp/ccRHSwPY.s 			page 26


 909              		.loc 1 400 13 view .LVU316
 910 046e 013B     		subs	r3, r3, #1
 911 0470 0093     		str	r3, [sp]
 912              	.LVL145:
 913              	.L15:
 354:Drivers/CMSIS/DSP/Source/FilteringFunctions/arm_conv_q31.c ****     {
 914              		.loc 1 354 19 is_stmt 1 view .LVU317
 915 0472 009B     		ldr	r3, [sp]
 916 0474 43B1     		cbz	r3, .L35
 357:Drivers/CMSIS/DSP/Source/FilteringFunctions/arm_conv_q31.c **** 
 917              		.loc 1 357 7 view .LVU318
 918              	.LVL146:
 360:Drivers/CMSIS/DSP/Source/FilteringFunctions/arm_conv_q31.c **** 
 919              		.loc 1 360 7 view .LVU319
 360:Drivers/CMSIS/DSP/Source/FilteringFunctions/arm_conv_q31.c **** 
 920              		.loc 1 360 9 is_stmt 0 view .LVU320
 921 0476 4FEA9A05 		lsr	r5, r10, #2
 922              	.LVL147:
 364:Drivers/CMSIS/DSP/Source/FilteringFunctions/arm_conv_q31.c ****       {
 923              		.loc 1 364 7 is_stmt 1 view .LVU321
 364:Drivers/CMSIS/DSP/Source/FilteringFunctions/arm_conv_q31.c ****       {
 924              		.loc 1 364 13 is_stmt 0 view .LVU322
 925 047a 059E     		ldr	r6, [sp, #20]
 357:Drivers/CMSIS/DSP/Source/FilteringFunctions/arm_conv_q31.c **** 
 926              		.loc 1 357 11 view .LVU323
 927 047c 0023     		movs	r3, #0
 928 047e 9846     		mov	r8, r3
 364:Drivers/CMSIS/DSP/Source/FilteringFunctions/arm_conv_q31.c ****       {
 929              		.loc 1 364 13 view .LVU324
 930 0480 D0E7     		b	.L16
 931              	.L39:
 932 0482 00BF     		.align	2
 933              	.L38:
 934 0484 ABAAAAAA 		.word	-1431655765
 935              	.LVL148:
 936              	.L35:
 364:Drivers/CMSIS/DSP/Source/FilteringFunctions/arm_conv_q31.c ****       {
 937              		.loc 1 364 13 view .LVU325
 938 0488 0246     		mov	r2, r0
 939              	.LVL149:
 940              	.L21:
 401:Drivers/CMSIS/DSP/Source/FilteringFunctions/arm_conv_q31.c ****     }
 402:Drivers/CMSIS/DSP/Source/FilteringFunctions/arm_conv_q31.c ****   }
 403:Drivers/CMSIS/DSP/Source/FilteringFunctions/arm_conv_q31.c ****   else
 404:Drivers/CMSIS/DSP/Source/FilteringFunctions/arm_conv_q31.c ****   {
 405:Drivers/CMSIS/DSP/Source/FilteringFunctions/arm_conv_q31.c ****     /* If the srcBLen is not a multiple of 4,
 406:Drivers/CMSIS/DSP/Source/FilteringFunctions/arm_conv_q31.c ****      * the blockSize2 loop cannot be unrolled by 4 */
 407:Drivers/CMSIS/DSP/Source/FilteringFunctions/arm_conv_q31.c ****     blkCnt = blockSize2;
 408:Drivers/CMSIS/DSP/Source/FilteringFunctions/arm_conv_q31.c **** 
 409:Drivers/CMSIS/DSP/Source/FilteringFunctions/arm_conv_q31.c ****     while (blkCnt > 0U)
 410:Drivers/CMSIS/DSP/Source/FilteringFunctions/arm_conv_q31.c ****     {
 411:Drivers/CMSIS/DSP/Source/FilteringFunctions/arm_conv_q31.c ****       /* Accumulator is made zero for every iteration */
 412:Drivers/CMSIS/DSP/Source/FilteringFunctions/arm_conv_q31.c ****       sum = 0;
 413:Drivers/CMSIS/DSP/Source/FilteringFunctions/arm_conv_q31.c **** 
 414:Drivers/CMSIS/DSP/Source/FilteringFunctions/arm_conv_q31.c ****       /* srcBLen number of MACS should be performed */
 415:Drivers/CMSIS/DSP/Source/FilteringFunctions/arm_conv_q31.c ****       k = srcBLen;
 416:Drivers/CMSIS/DSP/Source/FilteringFunctions/arm_conv_q31.c **** 
ARM GAS  /tmp/ccRHSwPY.s 			page 27


 417:Drivers/CMSIS/DSP/Source/FilteringFunctions/arm_conv_q31.c ****       while (k > 0U)
 418:Drivers/CMSIS/DSP/Source/FilteringFunctions/arm_conv_q31.c ****       {
 419:Drivers/CMSIS/DSP/Source/FilteringFunctions/arm_conv_q31.c ****         /* Perform the multiply-accumulate */
 420:Drivers/CMSIS/DSP/Source/FilteringFunctions/arm_conv_q31.c ****         sum += (q63_t) * px++ * (*py--);
 421:Drivers/CMSIS/DSP/Source/FilteringFunctions/arm_conv_q31.c **** 
 422:Drivers/CMSIS/DSP/Source/FilteringFunctions/arm_conv_q31.c ****         /* Decrement the loop counter */
 423:Drivers/CMSIS/DSP/Source/FilteringFunctions/arm_conv_q31.c ****         k--;
 424:Drivers/CMSIS/DSP/Source/FilteringFunctions/arm_conv_q31.c ****       }
 425:Drivers/CMSIS/DSP/Source/FilteringFunctions/arm_conv_q31.c **** 
 426:Drivers/CMSIS/DSP/Source/FilteringFunctions/arm_conv_q31.c ****       /* Store the result in the accumulator in the destination buffer. */
 427:Drivers/CMSIS/DSP/Source/FilteringFunctions/arm_conv_q31.c ****       *pOut++ = (q31_t) (sum >> 31);
 428:Drivers/CMSIS/DSP/Source/FilteringFunctions/arm_conv_q31.c **** 
 429:Drivers/CMSIS/DSP/Source/FilteringFunctions/arm_conv_q31.c ****       /* Increment the MAC count */
 430:Drivers/CMSIS/DSP/Source/FilteringFunctions/arm_conv_q31.c ****       count++;
 431:Drivers/CMSIS/DSP/Source/FilteringFunctions/arm_conv_q31.c **** 
 432:Drivers/CMSIS/DSP/Source/FilteringFunctions/arm_conv_q31.c ****       /* Update the inputA and inputB pointers for next MAC calculation */
 433:Drivers/CMSIS/DSP/Source/FilteringFunctions/arm_conv_q31.c ****       px = pIn1 + count;
 434:Drivers/CMSIS/DSP/Source/FilteringFunctions/arm_conv_q31.c ****       py = pSrc2;
 435:Drivers/CMSIS/DSP/Source/FilteringFunctions/arm_conv_q31.c **** 
 436:Drivers/CMSIS/DSP/Source/FilteringFunctions/arm_conv_q31.c ****       /* Decrement the loop counter */
 437:Drivers/CMSIS/DSP/Source/FilteringFunctions/arm_conv_q31.c ****       blkCnt--;
 438:Drivers/CMSIS/DSP/Source/FilteringFunctions/arm_conv_q31.c ****     }
 439:Drivers/CMSIS/DSP/Source/FilteringFunctions/arm_conv_q31.c ****   }
 440:Drivers/CMSIS/DSP/Source/FilteringFunctions/arm_conv_q31.c **** 
 441:Drivers/CMSIS/DSP/Source/FilteringFunctions/arm_conv_q31.c **** 
 442:Drivers/CMSIS/DSP/Source/FilteringFunctions/arm_conv_q31.c ****   /* --------------------------
 443:Drivers/CMSIS/DSP/Source/FilteringFunctions/arm_conv_q31.c ****    * Initializations of stage3
 444:Drivers/CMSIS/DSP/Source/FilteringFunctions/arm_conv_q31.c ****    * -------------------------*/
 445:Drivers/CMSIS/DSP/Source/FilteringFunctions/arm_conv_q31.c **** 
 446:Drivers/CMSIS/DSP/Source/FilteringFunctions/arm_conv_q31.c ****   /* sum += x[srcALen-srcBLen+1] * y[srcBLen-1] + x[srcALen-srcBLen+2] * y[srcBLen-2] +...+ x[srcAL
 447:Drivers/CMSIS/DSP/Source/FilteringFunctions/arm_conv_q31.c ****    * sum += x[srcALen-srcBLen+2] * y[srcBLen-1] + x[srcALen-srcBLen+3] * y[srcBLen-2] +...+ x[srcAL
 448:Drivers/CMSIS/DSP/Source/FilteringFunctions/arm_conv_q31.c ****    * ....
 449:Drivers/CMSIS/DSP/Source/FilteringFunctions/arm_conv_q31.c ****    * sum +=  x[srcALen-2] * y[srcBLen-1] + x[srcALen-1] * y[srcBLen-2]
 450:Drivers/CMSIS/DSP/Source/FilteringFunctions/arm_conv_q31.c ****    * sum +=  x[srcALen-1] * y[srcBLen-1]
 451:Drivers/CMSIS/DSP/Source/FilteringFunctions/arm_conv_q31.c ****    */
 452:Drivers/CMSIS/DSP/Source/FilteringFunctions/arm_conv_q31.c **** 
 453:Drivers/CMSIS/DSP/Source/FilteringFunctions/arm_conv_q31.c ****   /* In this stage the MAC operations are decreased by 1 for every iteration.
 454:Drivers/CMSIS/DSP/Source/FilteringFunctions/arm_conv_q31.c ****      The blockSize3 variable holds the number of MAC operations performed */
 455:Drivers/CMSIS/DSP/Source/FilteringFunctions/arm_conv_q31.c **** 
 456:Drivers/CMSIS/DSP/Source/FilteringFunctions/arm_conv_q31.c ****   /* Working pointer of inputA */
 457:Drivers/CMSIS/DSP/Source/FilteringFunctions/arm_conv_q31.c ****   pSrc1 = (pIn1 + srcALen) - (srcBLen - 1U);
 941              		.loc 1 457 3 is_stmt 1 view .LVU326
 942              		.loc 1 457 9 is_stmt 0 view .LVU327
 943 048a 069B     		ldr	r3, [sp, #24]
 944 048c 03EB8904 		add	r4, r3, r9, lsl #2
 945              	.LVL150:
 458:Drivers/CMSIS/DSP/Source/FilteringFunctions/arm_conv_q31.c ****   px = pSrc1;
 946              		.loc 1 458 3 is_stmt 1 view .LVU328
 459:Drivers/CMSIS/DSP/Source/FilteringFunctions/arm_conv_q31.c **** 
 460:Drivers/CMSIS/DSP/Source/FilteringFunctions/arm_conv_q31.c ****   /* Working pointer of inputB */
 461:Drivers/CMSIS/DSP/Source/FilteringFunctions/arm_conv_q31.c ****   pSrc2 = pIn2 + (srcBLen - 1U);
 947              		.loc 1 461 3 view .LVU329
 462:Drivers/CMSIS/DSP/Source/FilteringFunctions/arm_conv_q31.c ****   py = pSrc2;
 948              		.loc 1 462 3 view .LVU330
 463:Drivers/CMSIS/DSP/Source/FilteringFunctions/arm_conv_q31.c **** 
 464:Drivers/CMSIS/DSP/Source/FilteringFunctions/arm_conv_q31.c ****   /* -------------------
 465:Drivers/CMSIS/DSP/Source/FilteringFunctions/arm_conv_q31.c ****    * Stage3 process
ARM GAS  /tmp/ccRHSwPY.s 			page 28


 466:Drivers/CMSIS/DSP/Source/FilteringFunctions/arm_conv_q31.c ****    * ------------------*/
 467:Drivers/CMSIS/DSP/Source/FilteringFunctions/arm_conv_q31.c **** 
 468:Drivers/CMSIS/DSP/Source/FilteringFunctions/arm_conv_q31.c ****   while (blockSize3 > 0U)
 949              		.loc 1 468 3 view .LVU331
 950              		.loc 1 468 9 is_stmt 0 view .LVU332
 951 0490 A1E0     		b	.L24
 952              	.LVL151:
 953              	.L22:
 420:Drivers/CMSIS/DSP/Source/FilteringFunctions/arm_conv_q31.c **** 
 954              		.loc 1 420 9 is_stmt 1 view .LVU333
 420:Drivers/CMSIS/DSP/Source/FilteringFunctions/arm_conv_q31.c **** 
 955              		.loc 1 420 24 is_stmt 0 view .LVU334
 956 0492 56F8042B 		ldr	r2, [r6], #4
 957              	.LVL152:
 420:Drivers/CMSIS/DSP/Source/FilteringFunctions/arm_conv_q31.c **** 
 958              		.loc 1 420 16 view .LVU335
 959 0496 4FEAE27E 		asr	lr, r2, #31
 960              	.LVL153:
 420:Drivers/CMSIS/DSP/Source/FilteringFunctions/arm_conv_q31.c **** 
 961              		.loc 1 420 34 view .LVU336
 962 049a 50F80419 		ldr	r1, [r0], #-4
 963              	.LVL154:
 420:Drivers/CMSIS/DSP/Source/FilteringFunctions/arm_conv_q31.c **** 
 964              		.loc 1 420 34 view .LVU337
 965 049e CD17     		asrs	r5, r1, #31
 420:Drivers/CMSIS/DSP/Source/FilteringFunctions/arm_conv_q31.c **** 
 966              		.loc 1 420 31 view .LVU338
 967 04a0 02FB05F5 		mul	r5, r2, r5
 968 04a4 01FB0E55 		mla	r5, r1, lr, r5
 969 04a8 A2FB0121 		umull	r2, r1, r2, r1
 970 04ac 2944     		add	r1, r1, r5
 420:Drivers/CMSIS/DSP/Source/FilteringFunctions/arm_conv_q31.c **** 
 971              		.loc 1 420 13 view .LVU339
 972 04ae 9A18     		adds	r2, r3, r2
 973 04b0 1346     		mov	r3, r2
 974              	.LVL155:
 420:Drivers/CMSIS/DSP/Source/FilteringFunctions/arm_conv_q31.c **** 
 975              		.loc 1 420 13 view .LVU340
 976 04b2 41EB0C0C 		adc	ip, r1, ip
 977              	.LVL156:
 423:Drivers/CMSIS/DSP/Source/FilteringFunctions/arm_conv_q31.c ****       }
 978              		.loc 1 423 9 is_stmt 1 view .LVU341
 423:Drivers/CMSIS/DSP/Source/FilteringFunctions/arm_conv_q31.c ****       }
 979              		.loc 1 423 10 is_stmt 0 view .LVU342
 980 04b6 013C     		subs	r4, r4, #1
 981              	.LVL157:
 982              	.L23:
 417:Drivers/CMSIS/DSP/Source/FilteringFunctions/arm_conv_q31.c ****       {
 983              		.loc 1 417 16 is_stmt 1 view .LVU343
 984 04b8 002C     		cmp	r4, #0
 985 04ba EAD1     		bne	.L22
 427:Drivers/CMSIS/DSP/Source/FilteringFunctions/arm_conv_q31.c **** 
 986              		.loc 1 427 30 is_stmt 0 view .LVU344
 987 04bc DDF800E0 		ldr	lr, [sp]
 988 04c0 019D     		ldr	r5, [sp, #4]
 427:Drivers/CMSIS/DSP/Source/FilteringFunctions/arm_conv_q31.c **** 
 989              		.loc 1 427 7 is_stmt 1 view .LVU345
ARM GAS  /tmp/ccRHSwPY.s 			page 29


 427:Drivers/CMSIS/DSP/Source/FilteringFunctions/arm_conv_q31.c **** 
 990              		.loc 1 427 30 is_stmt 0 view .LVU346
 991 04c2 DB0F     		lsrs	r3, r3, #31
 992              	.LVL158:
 427:Drivers/CMSIS/DSP/Source/FilteringFunctions/arm_conv_q31.c **** 
 993              		.loc 1 427 30 view .LVU347
 994 04c4 43EA4C03 		orr	r3, r3, ip, lsl #1
 995              	.LVL159:
 427:Drivers/CMSIS/DSP/Source/FilteringFunctions/arm_conv_q31.c **** 
 996              		.loc 1 427 15 view .LVU348
 997 04c8 4BF8043B 		str	r3, [fp], #4
 998              	.LVL160:
 430:Drivers/CMSIS/DSP/Source/FilteringFunctions/arm_conv_q31.c **** 
 999              		.loc 1 430 7 is_stmt 1 view .LVU349
 430:Drivers/CMSIS/DSP/Source/FilteringFunctions/arm_conv_q31.c **** 
 1000              		.loc 1 430 12 is_stmt 0 view .LVU350
 1001 04cc 0EF1010E 		add	lr, lr, #1
 1002              	.LVL161:
 433:Drivers/CMSIS/DSP/Source/FilteringFunctions/arm_conv_q31.c ****       py = pSrc2;
 1003              		.loc 1 433 7 is_stmt 1 view .LVU351
 433:Drivers/CMSIS/DSP/Source/FilteringFunctions/arm_conv_q31.c ****       py = pSrc2;
 1004              		.loc 1 433 10 is_stmt 0 view .LVU352
 1005 04d0 08EB8E06 		add	r6, r8, lr, lsl #2
 1006              	.LVL162:
 434:Drivers/CMSIS/DSP/Source/FilteringFunctions/arm_conv_q31.c **** 
 1007              		.loc 1 434 7 is_stmt 1 view .LVU353
 437:Drivers/CMSIS/DSP/Source/FilteringFunctions/arm_conv_q31.c ****     }
 1008              		.loc 1 437 7 view .LVU354
 437:Drivers/CMSIS/DSP/Source/FilteringFunctions/arm_conv_q31.c ****     }
 1009              		.loc 1 437 13 is_stmt 0 view .LVU355
 1010 04d4 013D     		subs	r5, r5, #1
 1011              	.LVL163:
 1012              	.L9:
 409:Drivers/CMSIS/DSP/Source/FilteringFunctions/arm_conv_q31.c ****     {
 1013              		.loc 1 409 19 is_stmt 1 view .LVU356
 1014 04d6 7DB1     		cbz	r5, .L36
 415:Drivers/CMSIS/DSP/Source/FilteringFunctions/arm_conv_q31.c **** 
 1015              		.loc 1 415 9 is_stmt 0 view .LVU357
 1016 04d8 3C46     		mov	r4, r7
 1017 04da 0598     		ldr	r0, [sp, #20]
 412:Drivers/CMSIS/DSP/Source/FilteringFunctions/arm_conv_q31.c **** 
 1018              		.loc 1 412 11 view .LVU358
 1019 04dc 0023     		movs	r3, #0
 1020 04de 9C46     		mov	ip, r3
 1021 04e0 CDF800E0 		str	lr, [sp]
 1022 04e4 0195     		str	r5, [sp, #4]
 1023 04e6 E7E7     		b	.L23
 1024              	.LVL164:
 1025              	.L30:
 219:Drivers/CMSIS/DSP/Source/FilteringFunctions/arm_conv_q31.c **** 
 1026              		.loc 1 219 6 view .LVU359
 1027 04e8 DDF81880 		ldr	r8, [sp, #24]
 1028 04ec 4646     		mov	r6, r8
 1029 04ee AE46     		mov	lr, r5
 1030              	.LVL165:
 219:Drivers/CMSIS/DSP/Source/FilteringFunctions/arm_conv_q31.c **** 
 1031              		.loc 1 219 6 view .LVU360
ARM GAS  /tmp/ccRHSwPY.s 			page 30


 1032 04f0 4D46     		mov	r5, r9
 1033              	.LVL166:
 219:Drivers/CMSIS/DSP/Source/FilteringFunctions/arm_conv_q31.c **** 
 1034              		.loc 1 219 6 view .LVU361
 1035 04f2 5746     		mov	r7, r10
 1036 04f4 9246     		mov	r10, r2
 1037              	.LVL167:
 219:Drivers/CMSIS/DSP/Source/FilteringFunctions/arm_conv_q31.c **** 
 1038              		.loc 1 219 6 view .LVU362
 1039 04f6 EEE7     		b	.L9
 1040              	.LVL168:
 1041              	.L36:
 219:Drivers/CMSIS/DSP/Source/FilteringFunctions/arm_conv_q31.c **** 
 1042              		.loc 1 219 6 view .LVU363
 1043 04f8 5246     		mov	r2, r10
 1044 04fa C6E7     		b	.L21
 1045              	.LVL169:
 1046              	.L26:
 469:Drivers/CMSIS/DSP/Source/FilteringFunctions/arm_conv_q31.c ****   {
 470:Drivers/CMSIS/DSP/Source/FilteringFunctions/arm_conv_q31.c ****     /* Accumulator is made zero for every iteration */
 471:Drivers/CMSIS/DSP/Source/FilteringFunctions/arm_conv_q31.c ****     sum = 0;
 472:Drivers/CMSIS/DSP/Source/FilteringFunctions/arm_conv_q31.c **** 
 473:Drivers/CMSIS/DSP/Source/FilteringFunctions/arm_conv_q31.c ****     /* Apply loop unrolling and compute 4 MACs simultaneously. */
 474:Drivers/CMSIS/DSP/Source/FilteringFunctions/arm_conv_q31.c ****     k = blockSize3 >> 2U;
 475:Drivers/CMSIS/DSP/Source/FilteringFunctions/arm_conv_q31.c **** 
 476:Drivers/CMSIS/DSP/Source/FilteringFunctions/arm_conv_q31.c ****     /* First part of the processing with loop unrolling.  Compute 4 MACs at a time.
 477:Drivers/CMSIS/DSP/Source/FilteringFunctions/arm_conv_q31.c ****      ** a second loop below computes MACs for the remaining 1 to 3 samples. */
 478:Drivers/CMSIS/DSP/Source/FilteringFunctions/arm_conv_q31.c ****     while (k > 0U)
 479:Drivers/CMSIS/DSP/Source/FilteringFunctions/arm_conv_q31.c ****     {
 480:Drivers/CMSIS/DSP/Source/FilteringFunctions/arm_conv_q31.c ****       /* sum += x[srcALen - srcBLen + 1] * y[srcBLen - 1] */
 481:Drivers/CMSIS/DSP/Source/FilteringFunctions/arm_conv_q31.c ****       sum += (q63_t) * px++ * (*py--);
 1047              		.loc 1 481 7 is_stmt 1 view .LVU364
 1048              		.loc 1 481 22 is_stmt 0 view .LVU365
 1049 04fc 3368     		ldr	r3, [r6]
 1050              		.loc 1 481 14 view .LVU366
 1051 04fe 4FEAE378 		asr	r8, r3, #31
 1052              	.LVL170:
 1053              		.loc 1 481 32 view .LVU367
 1054 0502 D7F800E0 		ldr	lr, [r7]
 1055 0506 4FEAEE70 		asr	r0, lr, #31
 1056              		.loc 1 481 29 view .LVU368
 1057 050a 03FB00F0 		mul	r0, r3, r0
 1058 050e 0EFB0800 		mla	r0, lr, r8, r0
 1059 0512 A3FB0E3E 		umull	r3, lr, r3, lr
 1060 0516 7044     		add	r0, r0, lr
 1061              		.loc 1 481 11 view .LVU369
 1062 0518 CB18     		adds	r3, r1, r3
 1063 051a 40EB0500 		adc	r0, r0, r5
 1064              	.LVL171:
 482:Drivers/CMSIS/DSP/Source/FilteringFunctions/arm_conv_q31.c ****       /* sum += x[srcALen - srcBLen + 2] * y[srcBLen - 2] */
 483:Drivers/CMSIS/DSP/Source/FilteringFunctions/arm_conv_q31.c ****       sum += (q63_t) * px++ * (*py--);
 1065              		.loc 1 483 7 is_stmt 1 view .LVU370
 1066              		.loc 1 483 22 is_stmt 0 view .LVU371
 1067 051e 7568     		ldr	r5, [r6, #4]
 1068              		.loc 1 483 14 view .LVU372
 1069 0520 4FEAE578 		asr	r8, r5, #31
 1070              	.LVL172:
ARM GAS  /tmp/ccRHSwPY.s 			page 31


 1071              		.loc 1 483 32 view .LVU373
 1072 0524 57F804EC 		ldr	lr, [r7, #-4]
 1073 0528 4FEAEE71 		asr	r1, lr, #31
 1074              		.loc 1 483 29 view .LVU374
 1075 052c 05FB01F1 		mul	r1, r5, r1
 1076 0530 0EFB0811 		mla	r1, lr, r8, r1
 1077 0534 A5FB0E5E 		umull	r5, lr, r5, lr
 1078 0538 7144     		add	r1, r1, lr
 1079              		.loc 1 483 11 view .LVU375
 1080 053a 5B19     		adds	r3, r3, r5
 1081              	.LVL173:
 1082              		.loc 1 483 11 view .LVU376
 1083 053c 41EB0001 		adc	r1, r1, r0
 1084              	.LVL174:
 484:Drivers/CMSIS/DSP/Source/FilteringFunctions/arm_conv_q31.c ****       /* sum += x[srcALen - srcBLen + 3] * y[srcBLen - 3] */
 485:Drivers/CMSIS/DSP/Source/FilteringFunctions/arm_conv_q31.c ****       sum += (q63_t) * px++ * (*py--);
 1085              		.loc 1 485 7 is_stmt 1 view .LVU377
 1086              		.loc 1 485 22 is_stmt 0 view .LVU378
 1087 0540 B568     		ldr	r5, [r6, #8]
 1088              		.loc 1 485 14 view .LVU379
 1089 0542 4FEAE578 		asr	r8, r5, #31
 1090              	.LVL175:
 1091              		.loc 1 485 32 view .LVU380
 1092 0546 57F808EC 		ldr	lr, [r7, #-8]
 1093 054a 4FEAEE70 		asr	r0, lr, #31
 1094              		.loc 1 485 29 view .LVU381
 1095 054e 05FB00F0 		mul	r0, r5, r0
 1096 0552 0EFB0800 		mla	r0, lr, r8, r0
 1097 0556 A5FB0E5E 		umull	r5, lr, r5, lr
 1098 055a 7044     		add	r0, r0, lr
 1099              		.loc 1 485 11 view .LVU382
 1100 055c 5B19     		adds	r3, r3, r5
 1101              	.LVL176:
 1102              		.loc 1 485 11 view .LVU383
 1103 055e 40EB0100 		adc	r0, r0, r1
 1104              	.LVL177:
 486:Drivers/CMSIS/DSP/Source/FilteringFunctions/arm_conv_q31.c ****       /* sum += x[srcALen - srcBLen + 4] * y[srcBLen - 4] */
 487:Drivers/CMSIS/DSP/Source/FilteringFunctions/arm_conv_q31.c ****       sum += (q63_t) * px++ * (*py--);
 1105              		.loc 1 487 7 is_stmt 1 view .LVU384
 1106              		.loc 1 487 22 is_stmt 0 view .LVU385
 1107 0562 F168     		ldr	r1, [r6, #12]
 1108              		.loc 1 487 14 view .LVU386
 1109 0564 4FEAE178 		asr	r8, r1, #31
 1110              	.LVL178:
 1111              		.loc 1 487 32 view .LVU387
 1112 0568 57F80CEC 		ldr	lr, [r7, #-12]
 1113 056c 4FEAEE75 		asr	r5, lr, #31
 1114              		.loc 1 487 29 view .LVU388
 1115 0570 01FB05F5 		mul	r5, r1, r5
 1116 0574 0EFB0855 		mla	r5, lr, r8, r5
 1117 0578 A1FB0E1E 		umull	r1, lr, r1, lr
 1118 057c 7544     		add	r5, r5, lr
 1119              		.loc 1 487 11 view .LVU389
 1120 057e 5918     		adds	r1, r3, r1
 1121 0580 45EB0005 		adc	r5, r5, r0
 1122              	.LVL179:
 488:Drivers/CMSIS/DSP/Source/FilteringFunctions/arm_conv_q31.c **** 
ARM GAS  /tmp/ccRHSwPY.s 			page 32


 489:Drivers/CMSIS/DSP/Source/FilteringFunctions/arm_conv_q31.c ****       /* Decrement the loop counter */
 490:Drivers/CMSIS/DSP/Source/FilteringFunctions/arm_conv_q31.c ****       k--;
 1123              		.loc 1 490 7 is_stmt 1 view .LVU390
 1124              		.loc 1 490 8 is_stmt 0 view .LVU391
 1125 0584 0CF1FF3C 		add	ip, ip, #-1
 1126              	.LVL180:
 487:Drivers/CMSIS/DSP/Source/FilteringFunctions/arm_conv_q31.c **** 
 1127              		.loc 1 487 35 view .LVU392
 1128 0588 103F     		subs	r7, r7, #16
 1129              	.LVL181:
 487:Drivers/CMSIS/DSP/Source/FilteringFunctions/arm_conv_q31.c **** 
 1130              		.loc 1 487 26 view .LVU393
 1131 058a 1036     		adds	r6, r6, #16
 1132              	.LVL182:
 1133              	.L25:
 478:Drivers/CMSIS/DSP/Source/FilteringFunctions/arm_conv_q31.c ****     {
 1134              		.loc 1 478 14 is_stmt 1 view .LVU394
 1135 058c BCF1000F 		cmp	ip, #0
 1136 0590 B4D1     		bne	.L26
 491:Drivers/CMSIS/DSP/Source/FilteringFunctions/arm_conv_q31.c ****     }
 492:Drivers/CMSIS/DSP/Source/FilteringFunctions/arm_conv_q31.c **** 
 493:Drivers/CMSIS/DSP/Source/FilteringFunctions/arm_conv_q31.c ****     /* If the blockSize3 is not a multiple of 4, compute any remaining MACs here.
 494:Drivers/CMSIS/DSP/Source/FilteringFunctions/arm_conv_q31.c ****      ** No loop unrolling is used. */
 495:Drivers/CMSIS/DSP/Source/FilteringFunctions/arm_conv_q31.c ****     k = blockSize3 % 0x4U;
 1137              		.loc 1 495 5 view .LVU395
 1138              		.loc 1 495 7 is_stmt 0 view .LVU396
 1139 0592 02F0030C 		and	ip, r2, #3
 1140              	.LVL183:
 496:Drivers/CMSIS/DSP/Source/FilteringFunctions/arm_conv_q31.c **** 
 497:Drivers/CMSIS/DSP/Source/FilteringFunctions/arm_conv_q31.c ****     while (k > 0U)
 1141              		.loc 1 497 5 is_stmt 1 view .LVU397
 1142              		.loc 1 497 11 is_stmt 0 view .LVU398
 1143 0596 14E0     		b	.L27
 1144              	.L28:
 498:Drivers/CMSIS/DSP/Source/FilteringFunctions/arm_conv_q31.c ****     {
 499:Drivers/CMSIS/DSP/Source/FilteringFunctions/arm_conv_q31.c ****       /* Perform the multiply-accumulate */
 500:Drivers/CMSIS/DSP/Source/FilteringFunctions/arm_conv_q31.c ****       sum += (q63_t) * px++ * (*py--);
 1145              		.loc 1 500 7 is_stmt 1 view .LVU399
 1146              	.LVL184:
 1147              		.loc 1 500 22 is_stmt 0 view .LVU400
 1148 0598 56F8043B 		ldr	r3, [r6], #4
 1149              	.LVL185:
 1150              		.loc 1 500 14 view .LVU401
 1151 059c 4FEAE378 		asr	r8, r3, #31
 1152              	.LVL186:
 1153              		.loc 1 500 32 view .LVU402
 1154 05a0 57F804E9 		ldr	lr, [r7], #-4
 1155              	.LVL187:
 1156              		.loc 1 500 32 view .LVU403
 1157 05a4 4FEAEE70 		asr	r0, lr, #31
 1158              		.loc 1 500 29 view .LVU404
 1159 05a8 03FB00F0 		mul	r0, r3, r0
 1160 05ac 0EFB0800 		mla	r0, lr, r8, r0
 1161 05b0 A3FB0E3E 		umull	r3, lr, r3, lr
 1162 05b4 7044     		add	r0, r0, lr
 1163              		.loc 1 500 11 view .LVU405
 1164 05b6 CB18     		adds	r3, r1, r3
ARM GAS  /tmp/ccRHSwPY.s 			page 33


 1165 05b8 1946     		mov	r1, r3
 1166              	.LVL188:
 1167              		.loc 1 500 11 view .LVU406
 1168 05ba 40EB0505 		adc	r5, r0, r5
 1169              	.LVL189:
 501:Drivers/CMSIS/DSP/Source/FilteringFunctions/arm_conv_q31.c **** 
 502:Drivers/CMSIS/DSP/Source/FilteringFunctions/arm_conv_q31.c ****       /* Decrement the loop counter */
 503:Drivers/CMSIS/DSP/Source/FilteringFunctions/arm_conv_q31.c ****       k--;
 1170              		.loc 1 503 7 is_stmt 1 view .LVU407
 1171              		.loc 1 503 8 is_stmt 0 view .LVU408
 1172 05be 0CF1FF3C 		add	ip, ip, #-1
 1173              	.LVL190:
 1174              	.L27:
 497:Drivers/CMSIS/DSP/Source/FilteringFunctions/arm_conv_q31.c ****     {
 1175              		.loc 1 497 14 is_stmt 1 view .LVU409
 1176 05c2 BCF1000F 		cmp	ip, #0
 1177 05c6 E7D1     		bne	.L28
 504:Drivers/CMSIS/DSP/Source/FilteringFunctions/arm_conv_q31.c ****     }
 505:Drivers/CMSIS/DSP/Source/FilteringFunctions/arm_conv_q31.c **** 
 506:Drivers/CMSIS/DSP/Source/FilteringFunctions/arm_conv_q31.c ****     /* Store the result in the accumulator in the destination buffer. */
 507:Drivers/CMSIS/DSP/Source/FilteringFunctions/arm_conv_q31.c ****     *pOut++ = (q31_t) (sum >> 31);
 1178              		.loc 1 507 5 view .LVU410
 1179              		.loc 1 507 28 is_stmt 0 view .LVU411
 1180 05c8 C90F     		lsrs	r1, r1, #31
 1181              	.LVL191:
 1182              		.loc 1 507 28 view .LVU412
 1183 05ca 41EA4501 		orr	r1, r1, r5, lsl #1
 1184              	.LVL192:
 1185              		.loc 1 507 13 view .LVU413
 1186 05ce 4BF8041B 		str	r1, [fp], #4
 1187              	.LVL193:
 508:Drivers/CMSIS/DSP/Source/FilteringFunctions/arm_conv_q31.c **** 
 509:Drivers/CMSIS/DSP/Source/FilteringFunctions/arm_conv_q31.c ****     /* Update the inputA and inputB pointers for next MAC calculation */
 510:Drivers/CMSIS/DSP/Source/FilteringFunctions/arm_conv_q31.c ****     px = ++pSrc1;
 1188              		.loc 1 510 5 is_stmt 1 view .LVU414
 1189              		.loc 1 510 8 is_stmt 0 view .LVU415
 1190 05d2 0434     		adds	r4, r4, #4
 1191              	.LVL194:
 511:Drivers/CMSIS/DSP/Source/FilteringFunctions/arm_conv_q31.c ****     py = pSrc2;
 1192              		.loc 1 511 5 is_stmt 1 view .LVU416
 512:Drivers/CMSIS/DSP/Source/FilteringFunctions/arm_conv_q31.c **** 
 513:Drivers/CMSIS/DSP/Source/FilteringFunctions/arm_conv_q31.c ****     /* Decrement the loop counter */
 514:Drivers/CMSIS/DSP/Source/FilteringFunctions/arm_conv_q31.c ****     blockSize3--;
 1193              		.loc 1 514 5 view .LVU417
 1194              		.loc 1 514 15 is_stmt 0 view .LVU418
 1195 05d4 013A     		subs	r2, r2, #1
 1196              	.LVL195:
 1197              	.L24:
 468:Drivers/CMSIS/DSP/Source/FilteringFunctions/arm_conv_q31.c ****   {
 1198              		.loc 1 468 21 is_stmt 1 view .LVU419
 1199 05d6 32B1     		cbz	r2, .L37
 471:Drivers/CMSIS/DSP/Source/FilteringFunctions/arm_conv_q31.c **** 
 1200              		.loc 1 471 5 view .LVU420
 1201              	.LVL196:
 474:Drivers/CMSIS/DSP/Source/FilteringFunctions/arm_conv_q31.c **** 
 1202              		.loc 1 474 5 view .LVU421
 474:Drivers/CMSIS/DSP/Source/FilteringFunctions/arm_conv_q31.c **** 
ARM GAS  /tmp/ccRHSwPY.s 			page 34


 1203              		.loc 1 474 7 is_stmt 0 view .LVU422
 1204 05d8 4FEA920C 		lsr	ip, r2, #2
 1205              	.LVL197:
 478:Drivers/CMSIS/DSP/Source/FilteringFunctions/arm_conv_q31.c ****     {
 1206              		.loc 1 478 5 is_stmt 1 view .LVU423
 478:Drivers/CMSIS/DSP/Source/FilteringFunctions/arm_conv_q31.c ****     {
 1207              		.loc 1 478 11 is_stmt 0 view .LVU424
 1208 05dc 059F     		ldr	r7, [sp, #20]
 1209 05de 2646     		mov	r6, r4
 471:Drivers/CMSIS/DSP/Source/FilteringFunctions/arm_conv_q31.c **** 
 1210              		.loc 1 471 9 view .LVU425
 1211 05e0 0021     		movs	r1, #0
 1212 05e2 0D46     		mov	r5, r1
 478:Drivers/CMSIS/DSP/Source/FilteringFunctions/arm_conv_q31.c ****     {
 1213              		.loc 1 478 11 view .LVU426
 1214 05e4 D2E7     		b	.L25
 1215              	.LVL198:
 1216              	.L37:
 515:Drivers/CMSIS/DSP/Source/FilteringFunctions/arm_conv_q31.c ****   }
 516:Drivers/CMSIS/DSP/Source/FilteringFunctions/arm_conv_q31.c **** 
 517:Drivers/CMSIS/DSP/Source/FilteringFunctions/arm_conv_q31.c **** #else
 518:Drivers/CMSIS/DSP/Source/FilteringFunctions/arm_conv_q31.c **** 
 519:Drivers/CMSIS/DSP/Source/FilteringFunctions/arm_conv_q31.c ****   /* Run the below code for Cortex-M0 */
 520:Drivers/CMSIS/DSP/Source/FilteringFunctions/arm_conv_q31.c **** 
 521:Drivers/CMSIS/DSP/Source/FilteringFunctions/arm_conv_q31.c ****   q31_t *pIn1 = pSrcA;                           /* input pointer */
 522:Drivers/CMSIS/DSP/Source/FilteringFunctions/arm_conv_q31.c ****   q31_t *pIn2 = pSrcB;                           /* coefficient pointer */
 523:Drivers/CMSIS/DSP/Source/FilteringFunctions/arm_conv_q31.c ****   q63_t sum;                                     /* Accumulator */
 524:Drivers/CMSIS/DSP/Source/FilteringFunctions/arm_conv_q31.c ****   uint32_t i, j;                                 /* loop counter */
 525:Drivers/CMSIS/DSP/Source/FilteringFunctions/arm_conv_q31.c **** 
 526:Drivers/CMSIS/DSP/Source/FilteringFunctions/arm_conv_q31.c ****   /* Loop to calculate output of convolution for output length number of times */
 527:Drivers/CMSIS/DSP/Source/FilteringFunctions/arm_conv_q31.c ****   for (i = 0; i < (srcALen + srcBLen - 1); i++)
 528:Drivers/CMSIS/DSP/Source/FilteringFunctions/arm_conv_q31.c ****   {
 529:Drivers/CMSIS/DSP/Source/FilteringFunctions/arm_conv_q31.c ****     /* Initialize sum with zero to carry on MAC operations */
 530:Drivers/CMSIS/DSP/Source/FilteringFunctions/arm_conv_q31.c ****     sum = 0;
 531:Drivers/CMSIS/DSP/Source/FilteringFunctions/arm_conv_q31.c **** 
 532:Drivers/CMSIS/DSP/Source/FilteringFunctions/arm_conv_q31.c ****     /* Loop to perform MAC operations according to convolution equation */
 533:Drivers/CMSIS/DSP/Source/FilteringFunctions/arm_conv_q31.c ****     for (j = 0; j <= i; j++)
 534:Drivers/CMSIS/DSP/Source/FilteringFunctions/arm_conv_q31.c ****     {
 535:Drivers/CMSIS/DSP/Source/FilteringFunctions/arm_conv_q31.c ****       /* Check the array limitations */
 536:Drivers/CMSIS/DSP/Source/FilteringFunctions/arm_conv_q31.c ****       if (((i - j) < srcBLen) && (j < srcALen))
 537:Drivers/CMSIS/DSP/Source/FilteringFunctions/arm_conv_q31.c ****       {
 538:Drivers/CMSIS/DSP/Source/FilteringFunctions/arm_conv_q31.c ****         /* z[i] += x[i-j] * y[j] */
 539:Drivers/CMSIS/DSP/Source/FilteringFunctions/arm_conv_q31.c ****         sum += ((q63_t) pIn1[j] * (pIn2[i - j]));
 540:Drivers/CMSIS/DSP/Source/FilteringFunctions/arm_conv_q31.c ****       }
 541:Drivers/CMSIS/DSP/Source/FilteringFunctions/arm_conv_q31.c ****     }
 542:Drivers/CMSIS/DSP/Source/FilteringFunctions/arm_conv_q31.c **** 
 543:Drivers/CMSIS/DSP/Source/FilteringFunctions/arm_conv_q31.c ****     /* Store the output in the destination buffer */
 544:Drivers/CMSIS/DSP/Source/FilteringFunctions/arm_conv_q31.c ****     pDst[i] = (q31_t) (sum >> 31U);
 545:Drivers/CMSIS/DSP/Source/FilteringFunctions/arm_conv_q31.c ****   }
 546:Drivers/CMSIS/DSP/Source/FilteringFunctions/arm_conv_q31.c **** 
 547:Drivers/CMSIS/DSP/Source/FilteringFunctions/arm_conv_q31.c **** #endif /*     #if defined (ARM_MATH_DSP) */
 548:Drivers/CMSIS/DSP/Source/FilteringFunctions/arm_conv_q31.c **** 
 549:Drivers/CMSIS/DSP/Source/FilteringFunctions/arm_conv_q31.c **** }
 1217              		.loc 1 549 1 view .LVU427
 1218 05e6 0DB0     		add	sp, sp, #52
 1219              	.LCFI2:
 1220              		.cfi_def_cfa_offset 36
ARM GAS  /tmp/ccRHSwPY.s 			page 35


 1221              		@ sp needed
 1222 05e8 BDE8F08F 		pop	{r4, r5, r6, r7, r8, r9, r10, fp, pc}
 1223              		.loc 1 549 1 view .LVU428
 1224              		.cfi_endproc
 1225              	.LFE135:
 1227              		.text
 1228              	.Letext0:
 1229              		.file 2 "/usr/arm-none-eabi/include/machine/_default_types.h"
 1230              		.file 3 "/usr/arm-none-eabi/include/sys/_stdint.h"
 1231              		.file 4 "Drivers/CMSIS/DSP/Include/arm_math.h"
ARM GAS  /tmp/ccRHSwPY.s 			page 36

