ARM GAS  /tmp/ccj2uHfG.s 			page 1


   1              		.cpu cortex-m7
   2              		.arch armv7e-m
   3              		.fpu fpv5-sp-d16
   4              		.eabi_attribute 27, 1
   5              		.eabi_attribute 28, 1
   6              		.eabi_attribute 20, 1
   7              		.eabi_attribute 21, 1
   8              		.eabi_attribute 23, 3
   9              		.eabi_attribute 24, 1
  10              		.eabi_attribute 25, 1
  11              		.eabi_attribute 26, 1
  12              		.eabi_attribute 30, 1
  13              		.eabi_attribute 34, 1
  14              		.eabi_attribute 18, 4
  15              		.file	"arm_correlate_fast_q31.c"
  16              		.text
  17              	.Ltext0:
  18              		.cfi_sections	.debug_frame
  19              		.file 1 "Drivers/CMSIS/DSP/Source/FilteringFunctions/arm_correlate_fast_q31.c"
  20              		.section	.text.arm_correlate_fast_q31,"ax",%progbits
  21              		.align	1
  22              		.global	arm_correlate_fast_q31
  23              		.syntax unified
  24              		.thumb
  25              		.thumb_func
  27              	arm_correlate_fast_q31:
  28              	.LVL0:
  29              	.LFB135:
   1:Drivers/CMSIS/DSP/Source/FilteringFunctions/arm_correlate_fast_q31.c **** /* ----------------------------------------------------------------------
   2:Drivers/CMSIS/DSP/Source/FilteringFunctions/arm_correlate_fast_q31.c ****  * Project:      CMSIS DSP Library
   3:Drivers/CMSIS/DSP/Source/FilteringFunctions/arm_correlate_fast_q31.c ****  * Title:        arm_correlate_fast_q31.c
   4:Drivers/CMSIS/DSP/Source/FilteringFunctions/arm_correlate_fast_q31.c ****  * Description:  Fast Q31 Correlation
   5:Drivers/CMSIS/DSP/Source/FilteringFunctions/arm_correlate_fast_q31.c ****  *
   6:Drivers/CMSIS/DSP/Source/FilteringFunctions/arm_correlate_fast_q31.c ****  * $Date:        27. January 2017
   7:Drivers/CMSIS/DSP/Source/FilteringFunctions/arm_correlate_fast_q31.c ****  * $Revision:    V.1.5.1
   8:Drivers/CMSIS/DSP/Source/FilteringFunctions/arm_correlate_fast_q31.c ****  *
   9:Drivers/CMSIS/DSP/Source/FilteringFunctions/arm_correlate_fast_q31.c ****  * Target Processor: Cortex-M cores
  10:Drivers/CMSIS/DSP/Source/FilteringFunctions/arm_correlate_fast_q31.c ****  * -------------------------------------------------------------------- */
  11:Drivers/CMSIS/DSP/Source/FilteringFunctions/arm_correlate_fast_q31.c **** /*
  12:Drivers/CMSIS/DSP/Source/FilteringFunctions/arm_correlate_fast_q31.c ****  * Copyright (C) 2010-2017 ARM Limited or its affiliates. All rights reserved.
  13:Drivers/CMSIS/DSP/Source/FilteringFunctions/arm_correlate_fast_q31.c ****  *
  14:Drivers/CMSIS/DSP/Source/FilteringFunctions/arm_correlate_fast_q31.c ****  * SPDX-License-Identifier: Apache-2.0
  15:Drivers/CMSIS/DSP/Source/FilteringFunctions/arm_correlate_fast_q31.c ****  *
  16:Drivers/CMSIS/DSP/Source/FilteringFunctions/arm_correlate_fast_q31.c ****  * Licensed under the Apache License, Version 2.0 (the License); you may
  17:Drivers/CMSIS/DSP/Source/FilteringFunctions/arm_correlate_fast_q31.c ****  * not use this file except in compliance with the License.
  18:Drivers/CMSIS/DSP/Source/FilteringFunctions/arm_correlate_fast_q31.c ****  * You may obtain a copy of the License at
  19:Drivers/CMSIS/DSP/Source/FilteringFunctions/arm_correlate_fast_q31.c ****  *
  20:Drivers/CMSIS/DSP/Source/FilteringFunctions/arm_correlate_fast_q31.c ****  * www.apache.org/licenses/LICENSE-2.0
  21:Drivers/CMSIS/DSP/Source/FilteringFunctions/arm_correlate_fast_q31.c ****  *
  22:Drivers/CMSIS/DSP/Source/FilteringFunctions/arm_correlate_fast_q31.c ****  * Unless required by applicable law or agreed to in writing, software
  23:Drivers/CMSIS/DSP/Source/FilteringFunctions/arm_correlate_fast_q31.c ****  * distributed under the License is distributed on an AS IS BASIS, WITHOUT
  24:Drivers/CMSIS/DSP/Source/FilteringFunctions/arm_correlate_fast_q31.c ****  * WARRANTIES OR CONDITIONS OF ANY KIND, either express or implied.
  25:Drivers/CMSIS/DSP/Source/FilteringFunctions/arm_correlate_fast_q31.c ****  * See the License for the specific language governing permissions and
  26:Drivers/CMSIS/DSP/Source/FilteringFunctions/arm_correlate_fast_q31.c ****  * limitations under the License.
  27:Drivers/CMSIS/DSP/Source/FilteringFunctions/arm_correlate_fast_q31.c ****  */
  28:Drivers/CMSIS/DSP/Source/FilteringFunctions/arm_correlate_fast_q31.c **** 
  29:Drivers/CMSIS/DSP/Source/FilteringFunctions/arm_correlate_fast_q31.c **** #include "arm_math.h"
ARM GAS  /tmp/ccj2uHfG.s 			page 2


  30:Drivers/CMSIS/DSP/Source/FilteringFunctions/arm_correlate_fast_q31.c **** 
  31:Drivers/CMSIS/DSP/Source/FilteringFunctions/arm_correlate_fast_q31.c **** /**
  32:Drivers/CMSIS/DSP/Source/FilteringFunctions/arm_correlate_fast_q31.c ****  * @ingroup groupFilters
  33:Drivers/CMSIS/DSP/Source/FilteringFunctions/arm_correlate_fast_q31.c ****  */
  34:Drivers/CMSIS/DSP/Source/FilteringFunctions/arm_correlate_fast_q31.c **** 
  35:Drivers/CMSIS/DSP/Source/FilteringFunctions/arm_correlate_fast_q31.c **** /**
  36:Drivers/CMSIS/DSP/Source/FilteringFunctions/arm_correlate_fast_q31.c ****  * @addtogroup Corr
  37:Drivers/CMSIS/DSP/Source/FilteringFunctions/arm_correlate_fast_q31.c ****  * @{
  38:Drivers/CMSIS/DSP/Source/FilteringFunctions/arm_correlate_fast_q31.c ****  */
  39:Drivers/CMSIS/DSP/Source/FilteringFunctions/arm_correlate_fast_q31.c **** 
  40:Drivers/CMSIS/DSP/Source/FilteringFunctions/arm_correlate_fast_q31.c **** /**
  41:Drivers/CMSIS/DSP/Source/FilteringFunctions/arm_correlate_fast_q31.c ****  * @brief Correlation of Q31 sequences (fast version) for Cortex-M3 and Cortex-M4.
  42:Drivers/CMSIS/DSP/Source/FilteringFunctions/arm_correlate_fast_q31.c ****  * @param[in] *pSrcA points to the first input sequence.
  43:Drivers/CMSIS/DSP/Source/FilteringFunctions/arm_correlate_fast_q31.c ****  * @param[in] srcALen length of the first input sequence.
  44:Drivers/CMSIS/DSP/Source/FilteringFunctions/arm_correlate_fast_q31.c ****  * @param[in] *pSrcB points to the second input sequence.
  45:Drivers/CMSIS/DSP/Source/FilteringFunctions/arm_correlate_fast_q31.c ****  * @param[in] srcBLen length of the second input sequence.
  46:Drivers/CMSIS/DSP/Source/FilteringFunctions/arm_correlate_fast_q31.c ****  * @param[out] *pDst points to the location where the output result is written.  Length 2 * max(src
  47:Drivers/CMSIS/DSP/Source/FilteringFunctions/arm_correlate_fast_q31.c ****  * @return none.
  48:Drivers/CMSIS/DSP/Source/FilteringFunctions/arm_correlate_fast_q31.c ****  *
  49:Drivers/CMSIS/DSP/Source/FilteringFunctions/arm_correlate_fast_q31.c ****  * @details
  50:Drivers/CMSIS/DSP/Source/FilteringFunctions/arm_correlate_fast_q31.c ****  * <b>Scaling and Overflow Behavior:</b>
  51:Drivers/CMSIS/DSP/Source/FilteringFunctions/arm_correlate_fast_q31.c ****  *
  52:Drivers/CMSIS/DSP/Source/FilteringFunctions/arm_correlate_fast_q31.c ****  * \par
  53:Drivers/CMSIS/DSP/Source/FilteringFunctions/arm_correlate_fast_q31.c ****  * This function is optimized for speed at the expense of fixed-point precision and overflow protec
  54:Drivers/CMSIS/DSP/Source/FilteringFunctions/arm_correlate_fast_q31.c ****  * The result of each 1.31 x 1.31 multiplication is truncated to 2.30 format.
  55:Drivers/CMSIS/DSP/Source/FilteringFunctions/arm_correlate_fast_q31.c ****  * These intermediate results are accumulated in a 32-bit register in 2.30 format.
  56:Drivers/CMSIS/DSP/Source/FilteringFunctions/arm_correlate_fast_q31.c ****  * Finally, the accumulator is saturated and converted to a 1.31 result.
  57:Drivers/CMSIS/DSP/Source/FilteringFunctions/arm_correlate_fast_q31.c ****  *
  58:Drivers/CMSIS/DSP/Source/FilteringFunctions/arm_correlate_fast_q31.c ****  * \par
  59:Drivers/CMSIS/DSP/Source/FilteringFunctions/arm_correlate_fast_q31.c ****  * The fast version has the same overflow behavior as the standard version but provides less precis
  60:Drivers/CMSIS/DSP/Source/FilteringFunctions/arm_correlate_fast_q31.c ****  * In order to avoid overflows completely the input signals must be scaled down.
  61:Drivers/CMSIS/DSP/Source/FilteringFunctions/arm_correlate_fast_q31.c ****  * The input signals should be scaled down to avoid intermediate overflows.
  62:Drivers/CMSIS/DSP/Source/FilteringFunctions/arm_correlate_fast_q31.c ****  * Scale down one of the inputs by 1/min(srcALen, srcBLen)to avoid overflows since a
  63:Drivers/CMSIS/DSP/Source/FilteringFunctions/arm_correlate_fast_q31.c ****  * maximum of min(srcALen, srcBLen) number of additions is carried internally.
  64:Drivers/CMSIS/DSP/Source/FilteringFunctions/arm_correlate_fast_q31.c ****  *
  65:Drivers/CMSIS/DSP/Source/FilteringFunctions/arm_correlate_fast_q31.c ****  * \par
  66:Drivers/CMSIS/DSP/Source/FilteringFunctions/arm_correlate_fast_q31.c ****  * See <code>arm_correlate_q31()</code> for a slower implementation of this function which uses 64-
  67:Drivers/CMSIS/DSP/Source/FilteringFunctions/arm_correlate_fast_q31.c ****  */
  68:Drivers/CMSIS/DSP/Source/FilteringFunctions/arm_correlate_fast_q31.c **** 
  69:Drivers/CMSIS/DSP/Source/FilteringFunctions/arm_correlate_fast_q31.c **** void arm_correlate_fast_q31(
  70:Drivers/CMSIS/DSP/Source/FilteringFunctions/arm_correlate_fast_q31.c ****   q31_t * pSrcA,
  71:Drivers/CMSIS/DSP/Source/FilteringFunctions/arm_correlate_fast_q31.c ****   uint32_t srcALen,
  72:Drivers/CMSIS/DSP/Source/FilteringFunctions/arm_correlate_fast_q31.c ****   q31_t * pSrcB,
  73:Drivers/CMSIS/DSP/Source/FilteringFunctions/arm_correlate_fast_q31.c ****   uint32_t srcBLen,
  74:Drivers/CMSIS/DSP/Source/FilteringFunctions/arm_correlate_fast_q31.c ****   q31_t * pDst)
  75:Drivers/CMSIS/DSP/Source/FilteringFunctions/arm_correlate_fast_q31.c **** {
  30              		.loc 1 75 1 view -0
  31              		.cfi_startproc
  32              		@ args = 4, pretend = 0, frame = 48
  33              		@ frame_needed = 0, uses_anonymous_args = 0
  34              		.loc 1 75 1 is_stmt 0 view .LVU1
  35 0000 2DE9F04F 		push	{r4, r5, r6, r7, r8, r9, r10, fp, lr}
  36              	.LCFI0:
  37              		.cfi_def_cfa_offset 36
  38              		.cfi_offset 4, -36
  39              		.cfi_offset 5, -32
  40              		.cfi_offset 6, -28
ARM GAS  /tmp/ccj2uHfG.s 			page 3


  41              		.cfi_offset 7, -24
  42              		.cfi_offset 8, -20
  43              		.cfi_offset 9, -16
  44              		.cfi_offset 10, -12
  45              		.cfi_offset 11, -8
  46              		.cfi_offset 14, -4
  47 0004 8DB0     		sub	sp, sp, #52
  48              	.LCFI1:
  49              		.cfi_def_cfa_offset 88
  50 0006 0490     		str	r0, [sp, #16]
  51 0008 0392     		str	r2, [sp, #12]
  52 000a 9B46     		mov	fp, r3
  76:Drivers/CMSIS/DSP/Source/FilteringFunctions/arm_correlate_fast_q31.c ****   q31_t *pIn1;                                   /* inputA pointer               */
  53              		.loc 1 76 3 is_stmt 1 view .LVU2
  77:Drivers/CMSIS/DSP/Source/FilteringFunctions/arm_correlate_fast_q31.c ****   q31_t *pIn2;                                   /* inputB pointer               */
  54              		.loc 1 77 3 view .LVU3
  78:Drivers/CMSIS/DSP/Source/FilteringFunctions/arm_correlate_fast_q31.c ****   q31_t *pOut = pDst;                            /* output pointer               */
  55              		.loc 1 78 3 view .LVU4
  56              	.LVL1:
  79:Drivers/CMSIS/DSP/Source/FilteringFunctions/arm_correlate_fast_q31.c ****   q31_t *px;                                     /* Intermediate inputA pointer  */
  57              		.loc 1 79 3 view .LVU5
  80:Drivers/CMSIS/DSP/Source/FilteringFunctions/arm_correlate_fast_q31.c ****   q31_t *py;                                     /* Intermediate inputB pointer  */
  58              		.loc 1 80 3 view .LVU6
  81:Drivers/CMSIS/DSP/Source/FilteringFunctions/arm_correlate_fast_q31.c ****   q31_t *pSrc1;                                  /* Intermediate pointers        */
  59              		.loc 1 81 3 view .LVU7
  82:Drivers/CMSIS/DSP/Source/FilteringFunctions/arm_correlate_fast_q31.c ****   q31_t sum, acc0, acc1, acc2, acc3;             /* Accumulators                  */
  60              		.loc 1 82 3 view .LVU8
  83:Drivers/CMSIS/DSP/Source/FilteringFunctions/arm_correlate_fast_q31.c ****   q31_t x0, x1, x2, x3, c0;                      /* temporary variables for holding input and coeff
  61              		.loc 1 83 3 view .LVU9
  84:Drivers/CMSIS/DSP/Source/FilteringFunctions/arm_correlate_fast_q31.c ****   uint32_t j, k = 0U, count, blkCnt, outBlockSize, blockSize1, blockSize2, blockSize3;  /* loop cou
  62              		.loc 1 84 3 view .LVU10
  85:Drivers/CMSIS/DSP/Source/FilteringFunctions/arm_correlate_fast_q31.c ****   int32_t inc = 1;                               /* Destination address modifier */
  63              		.loc 1 85 3 view .LVU11
  86:Drivers/CMSIS/DSP/Source/FilteringFunctions/arm_correlate_fast_q31.c **** 
  87:Drivers/CMSIS/DSP/Source/FilteringFunctions/arm_correlate_fast_q31.c **** 
  88:Drivers/CMSIS/DSP/Source/FilteringFunctions/arm_correlate_fast_q31.c ****   /* The algorithm implementation is based on the lengths of the inputs. */
  89:Drivers/CMSIS/DSP/Source/FilteringFunctions/arm_correlate_fast_q31.c ****   /* srcB is always made to slide across srcA. */
  90:Drivers/CMSIS/DSP/Source/FilteringFunctions/arm_correlate_fast_q31.c ****   /* So srcBLen is always considered as shorter or equal to srcALen */
  91:Drivers/CMSIS/DSP/Source/FilteringFunctions/arm_correlate_fast_q31.c ****   if (srcALen >= srcBLen)
  64              		.loc 1 91 3 view .LVU12
  65              		.loc 1 91 6 is_stmt 0 view .LVU13
  66 000c 9942     		cmp	r1, r3
  67 000e 1DD3     		bcc	.L2
  92:Drivers/CMSIS/DSP/Source/FilteringFunctions/arm_correlate_fast_q31.c ****   {
  93:Drivers/CMSIS/DSP/Source/FilteringFunctions/arm_correlate_fast_q31.c ****     /* Initialization of inputA pointer */
  94:Drivers/CMSIS/DSP/Source/FilteringFunctions/arm_correlate_fast_q31.c ****     pIn1 = (pSrcA);
  68              		.loc 1 94 5 is_stmt 1 view .LVU14
  69              	.LVL2:
  95:Drivers/CMSIS/DSP/Source/FilteringFunctions/arm_correlate_fast_q31.c **** 
  96:Drivers/CMSIS/DSP/Source/FilteringFunctions/arm_correlate_fast_q31.c ****     /* Initialization of inputB pointer */
  97:Drivers/CMSIS/DSP/Source/FilteringFunctions/arm_correlate_fast_q31.c ****     pIn2 = (pSrcB);
  70              		.loc 1 97 5 view .LVU15
  98:Drivers/CMSIS/DSP/Source/FilteringFunctions/arm_correlate_fast_q31.c **** 
  99:Drivers/CMSIS/DSP/Source/FilteringFunctions/arm_correlate_fast_q31.c ****     /* Number of output samples is calculated */
 100:Drivers/CMSIS/DSP/Source/FilteringFunctions/arm_correlate_fast_q31.c ****     outBlockSize = (2U * srcALen) - 1U;
  71              		.loc 1 100 5 view .LVU16
  72              		.loc 1 100 24 is_stmt 0 view .LVU17
ARM GAS  /tmp/ccj2uHfG.s 			page 4


  73 0010 4B00     		lsls	r3, r1, #1
  74              	.LVL3:
  75              		.loc 1 100 18 view .LVU18
  76 0012 013B     		subs	r3, r3, #1
  77              	.LVL4:
 101:Drivers/CMSIS/DSP/Source/FilteringFunctions/arm_correlate_fast_q31.c **** 
 102:Drivers/CMSIS/DSP/Source/FilteringFunctions/arm_correlate_fast_q31.c ****     /* When srcALen > srcBLen, zero padding is done to srcB
 103:Drivers/CMSIS/DSP/Source/FilteringFunctions/arm_correlate_fast_q31.c ****      * to make their lengths equal.
 104:Drivers/CMSIS/DSP/Source/FilteringFunctions/arm_correlate_fast_q31.c ****      * Instead, (outBlockSize - (srcALen + srcBLen - 1))
 105:Drivers/CMSIS/DSP/Source/FilteringFunctions/arm_correlate_fast_q31.c ****      * number of output samples are made zero */
 106:Drivers/CMSIS/DSP/Source/FilteringFunctions/arm_correlate_fast_q31.c ****     j = outBlockSize - (srcALen + (srcBLen - 1U));
  78              		.loc 1 106 5 is_stmt 1 view .LVU19
  79              		.loc 1 106 33 is_stmt 0 view .LVU20
  80 0014 01EB0B02 		add	r2, r1, fp
  81              	.LVL5:
  82              		.loc 1 106 22 view .LVU21
  83 0018 9B1A     		subs	r3, r3, r2
  84              	.LVL6:
  85              		.loc 1 106 7 view .LVU22
  86 001a 0133     		adds	r3, r3, #1
  87              	.LVL7:
 107:Drivers/CMSIS/DSP/Source/FilteringFunctions/arm_correlate_fast_q31.c **** 
 108:Drivers/CMSIS/DSP/Source/FilteringFunctions/arm_correlate_fast_q31.c ****     /* Updating the pointer position to non zero value */
 109:Drivers/CMSIS/DSP/Source/FilteringFunctions/arm_correlate_fast_q31.c ****     pOut += j;
  88              		.loc 1 109 5 is_stmt 1 view .LVU23
  89              		.loc 1 109 10 is_stmt 0 view .LVU24
  90 001c 169A     		ldr	r2, [sp, #88]
  91 001e 02EB830A 		add	r10, r2, r3, lsl #2
  92              	.LVL8:
  85:Drivers/CMSIS/DSP/Source/FilteringFunctions/arm_correlate_fast_q31.c **** 
  93              		.loc 1 85 11 view .LVU25
  94 0022 0124     		movs	r4, #1
  95              	.LVL9:
  96              	.L3:
 110:Drivers/CMSIS/DSP/Source/FilteringFunctions/arm_correlate_fast_q31.c **** 
 111:Drivers/CMSIS/DSP/Source/FilteringFunctions/arm_correlate_fast_q31.c ****   }
 112:Drivers/CMSIS/DSP/Source/FilteringFunctions/arm_correlate_fast_q31.c ****   else
 113:Drivers/CMSIS/DSP/Source/FilteringFunctions/arm_correlate_fast_q31.c ****   {
 114:Drivers/CMSIS/DSP/Source/FilteringFunctions/arm_correlate_fast_q31.c ****     /* Initialization of inputA pointer */
 115:Drivers/CMSIS/DSP/Source/FilteringFunctions/arm_correlate_fast_q31.c ****     pIn1 = (pSrcB);
 116:Drivers/CMSIS/DSP/Source/FilteringFunctions/arm_correlate_fast_q31.c **** 
 117:Drivers/CMSIS/DSP/Source/FilteringFunctions/arm_correlate_fast_q31.c ****     /* Initialization of inputB pointer */
 118:Drivers/CMSIS/DSP/Source/FilteringFunctions/arm_correlate_fast_q31.c ****     pIn2 = (pSrcA);
 119:Drivers/CMSIS/DSP/Source/FilteringFunctions/arm_correlate_fast_q31.c **** 
 120:Drivers/CMSIS/DSP/Source/FilteringFunctions/arm_correlate_fast_q31.c ****     /* srcBLen is always considered as shorter or equal to srcALen */
 121:Drivers/CMSIS/DSP/Source/FilteringFunctions/arm_correlate_fast_q31.c ****     j = srcBLen;
 122:Drivers/CMSIS/DSP/Source/FilteringFunctions/arm_correlate_fast_q31.c ****     srcBLen = srcALen;
 123:Drivers/CMSIS/DSP/Source/FilteringFunctions/arm_correlate_fast_q31.c ****     srcALen = j;
 124:Drivers/CMSIS/DSP/Source/FilteringFunctions/arm_correlate_fast_q31.c **** 
 125:Drivers/CMSIS/DSP/Source/FilteringFunctions/arm_correlate_fast_q31.c ****     /* CORR(x, y) = Reverse order(CORR(y, x)) */
 126:Drivers/CMSIS/DSP/Source/FilteringFunctions/arm_correlate_fast_q31.c ****     /* Hence set the destination pointer to point to the last output sample */
 127:Drivers/CMSIS/DSP/Source/FilteringFunctions/arm_correlate_fast_q31.c ****     pOut = pDst + ((srcALen + srcBLen) - 2U);
 128:Drivers/CMSIS/DSP/Source/FilteringFunctions/arm_correlate_fast_q31.c **** 
 129:Drivers/CMSIS/DSP/Source/FilteringFunctions/arm_correlate_fast_q31.c ****     /* Destination address modifier is set to -1 */
 130:Drivers/CMSIS/DSP/Source/FilteringFunctions/arm_correlate_fast_q31.c ****     inc = -1;
 131:Drivers/CMSIS/DSP/Source/FilteringFunctions/arm_correlate_fast_q31.c **** 
 132:Drivers/CMSIS/DSP/Source/FilteringFunctions/arm_correlate_fast_q31.c ****   }
ARM GAS  /tmp/ccj2uHfG.s 			page 5


 133:Drivers/CMSIS/DSP/Source/FilteringFunctions/arm_correlate_fast_q31.c **** 
 134:Drivers/CMSIS/DSP/Source/FilteringFunctions/arm_correlate_fast_q31.c ****   /* The function is internally
 135:Drivers/CMSIS/DSP/Source/FilteringFunctions/arm_correlate_fast_q31.c ****    * divided into three parts according to the number of multiplications that has to be
 136:Drivers/CMSIS/DSP/Source/FilteringFunctions/arm_correlate_fast_q31.c ****    * taken place between inputA samples and inputB samples. In the first part of the
 137:Drivers/CMSIS/DSP/Source/FilteringFunctions/arm_correlate_fast_q31.c ****    * algorithm, the multiplications increase by one for every iteration.
 138:Drivers/CMSIS/DSP/Source/FilteringFunctions/arm_correlate_fast_q31.c ****    * In the second part of the algorithm, srcBLen number of multiplications are done.
 139:Drivers/CMSIS/DSP/Source/FilteringFunctions/arm_correlate_fast_q31.c ****    * In the third part of the algorithm, the multiplications decrease by one
 140:Drivers/CMSIS/DSP/Source/FilteringFunctions/arm_correlate_fast_q31.c ****    * for every iteration.*/
 141:Drivers/CMSIS/DSP/Source/FilteringFunctions/arm_correlate_fast_q31.c ****   /* The algorithm is implemented in three stages.
 142:Drivers/CMSIS/DSP/Source/FilteringFunctions/arm_correlate_fast_q31.c ****    * The loop counters of each stage is initiated here. */
 143:Drivers/CMSIS/DSP/Source/FilteringFunctions/arm_correlate_fast_q31.c ****   blockSize1 = srcBLen - 1U;
  97              		.loc 1 143 3 is_stmt 1 view .LVU26
  98              		.loc 1 143 14 is_stmt 0 view .LVU27
  99 0024 0BF1FF33 		add	r3, fp, #-1
 100              	.LVL10:
 144:Drivers/CMSIS/DSP/Source/FilteringFunctions/arm_correlate_fast_q31.c ****   blockSize2 = srcALen - (srcBLen - 1U);
 101              		.loc 1 144 3 is_stmt 1 view .LVU28
 102              		.loc 1 144 24 is_stmt 0 view .LVU29
 103 0028 A1EB0B01 		sub	r1, r1, fp
 104              	.LVL11:
 105              		.loc 1 144 14 view .LVU30
 106 002c 01F10109 		add	r9, r1, #1
 107              	.LVL12:
 145:Drivers/CMSIS/DSP/Source/FilteringFunctions/arm_correlate_fast_q31.c ****   blockSize3 = blockSize1;
 108              		.loc 1 145 3 is_stmt 1 view .LVU31
 146:Drivers/CMSIS/DSP/Source/FilteringFunctions/arm_correlate_fast_q31.c **** 
 147:Drivers/CMSIS/DSP/Source/FilteringFunctions/arm_correlate_fast_q31.c ****   /* --------------------------
 148:Drivers/CMSIS/DSP/Source/FilteringFunctions/arm_correlate_fast_q31.c ****    * Initializations of stage1
 149:Drivers/CMSIS/DSP/Source/FilteringFunctions/arm_correlate_fast_q31.c ****    * -------------------------*/
 150:Drivers/CMSIS/DSP/Source/FilteringFunctions/arm_correlate_fast_q31.c **** 
 151:Drivers/CMSIS/DSP/Source/FilteringFunctions/arm_correlate_fast_q31.c ****   /* sum = x[0] * y[srcBlen - 1]
 152:Drivers/CMSIS/DSP/Source/FilteringFunctions/arm_correlate_fast_q31.c ****    * sum = x[0] * y[srcBlen - 2] + x[1] * y[srcBlen - 1]
 153:Drivers/CMSIS/DSP/Source/FilteringFunctions/arm_correlate_fast_q31.c ****    * ....
 154:Drivers/CMSIS/DSP/Source/FilteringFunctions/arm_correlate_fast_q31.c ****    * sum = x[0] * y[0] + x[1] * y[1] +...+ x[srcBLen - 1] * y[srcBLen - 1]
 155:Drivers/CMSIS/DSP/Source/FilteringFunctions/arm_correlate_fast_q31.c ****    */
 156:Drivers/CMSIS/DSP/Source/FilteringFunctions/arm_correlate_fast_q31.c **** 
 157:Drivers/CMSIS/DSP/Source/FilteringFunctions/arm_correlate_fast_q31.c ****   /* In this stage the MAC operations are increased by 1 for every iteration.
 158:Drivers/CMSIS/DSP/Source/FilteringFunctions/arm_correlate_fast_q31.c ****      The count variable holds the number of MAC operations performed */
 159:Drivers/CMSIS/DSP/Source/FilteringFunctions/arm_correlate_fast_q31.c ****   count = 1U;
 109              		.loc 1 159 3 view .LVU32
 160:Drivers/CMSIS/DSP/Source/FilteringFunctions/arm_correlate_fast_q31.c **** 
 161:Drivers/CMSIS/DSP/Source/FilteringFunctions/arm_correlate_fast_q31.c ****   /* Working pointer of inputA */
 162:Drivers/CMSIS/DSP/Source/FilteringFunctions/arm_correlate_fast_q31.c ****   px = pIn1;
 110              		.loc 1 162 3 view .LVU33
 163:Drivers/CMSIS/DSP/Source/FilteringFunctions/arm_correlate_fast_q31.c **** 
 164:Drivers/CMSIS/DSP/Source/FilteringFunctions/arm_correlate_fast_q31.c ****   /* Working pointer of inputB */
 165:Drivers/CMSIS/DSP/Source/FilteringFunctions/arm_correlate_fast_q31.c ****   pSrc1 = pIn2 + (srcBLen - 1U);
 111              		.loc 1 165 3 view .LVU34
 112              		.loc 1 165 16 is_stmt 0 view .LVU35
 113 0030 6FF0404C 		mvn	ip, #-1073741824
 114 0034 DC44     		add	ip, ip, fp
 115              		.loc 1 165 9 view .LVU36
 116 0036 039A     		ldr	r2, [sp, #12]
 117 0038 02EB8C0C 		add	ip, r2, ip, lsl #2
 118              	.LVL13:
 166:Drivers/CMSIS/DSP/Source/FilteringFunctions/arm_correlate_fast_q31.c ****   py = pSrc1;
 119              		.loc 1 166 3 is_stmt 1 view .LVU37
ARM GAS  /tmp/ccj2uHfG.s 			page 6


 167:Drivers/CMSIS/DSP/Source/FilteringFunctions/arm_correlate_fast_q31.c **** 
 168:Drivers/CMSIS/DSP/Source/FilteringFunctions/arm_correlate_fast_q31.c ****   /* ------------------------
 169:Drivers/CMSIS/DSP/Source/FilteringFunctions/arm_correlate_fast_q31.c ****    * Stage1 process
 170:Drivers/CMSIS/DSP/Source/FilteringFunctions/arm_correlate_fast_q31.c ****    * ----------------------*/
 171:Drivers/CMSIS/DSP/Source/FilteringFunctions/arm_correlate_fast_q31.c **** 
 172:Drivers/CMSIS/DSP/Source/FilteringFunctions/arm_correlate_fast_q31.c ****   /* The first stage starts here */
 173:Drivers/CMSIS/DSP/Source/FilteringFunctions/arm_correlate_fast_q31.c ****   while (blockSize1 > 0U)
 120              		.loc 1 173 3 view .LVU38
 143:Drivers/CMSIS/DSP/Source/FilteringFunctions/arm_correlate_fast_q31.c ****   blockSize2 = srcALen - (srcBLen - 1U);
 121              		.loc 1 143 14 is_stmt 0 view .LVU39
 122 003c 1846     		mov	r0, r3
 123              	.LVL14:
 166:Drivers/CMSIS/DSP/Source/FilteringFunctions/arm_correlate_fast_q31.c ****   py = pSrc1;
 124              		.loc 1 166 6 view .LVU40
 125 003e 6146     		mov	r1, ip
 159:Drivers/CMSIS/DSP/Source/FilteringFunctions/arm_correlate_fast_q31.c **** 
 126              		.loc 1 159 9 view .LVU41
 127 0040 0127     		movs	r7, #1
 128 0042 CDF800A0 		str	r10, [sp]
 129 0046 9E46     		mov	lr, r3
 130 0048 A046     		mov	r8, r4
 131              		.loc 1 173 9 view .LVU42
 132 004a 69E0     		b	.L4
 133              	.LVL15:
 134              	.L2:
 115:Drivers/CMSIS/DSP/Source/FilteringFunctions/arm_correlate_fast_q31.c **** 
 135              		.loc 1 115 5 is_stmt 1 view .LVU43
 118:Drivers/CMSIS/DSP/Source/FilteringFunctions/arm_correlate_fast_q31.c **** 
 136              		.loc 1 118 5 view .LVU44
 121:Drivers/CMSIS/DSP/Source/FilteringFunctions/arm_correlate_fast_q31.c ****     srcBLen = srcALen;
 137              		.loc 1 121 5 view .LVU45
 122:Drivers/CMSIS/DSP/Source/FilteringFunctions/arm_correlate_fast_q31.c ****     srcALen = j;
 138              		.loc 1 122 5 view .LVU46
 123:Drivers/CMSIS/DSP/Source/FilteringFunctions/arm_correlate_fast_q31.c **** 
 139              		.loc 1 123 5 view .LVU47
 127:Drivers/CMSIS/DSP/Source/FilteringFunctions/arm_correlate_fast_q31.c **** 
 140              		.loc 1 127 5 view .LVU48
 127:Drivers/CMSIS/DSP/Source/FilteringFunctions/arm_correlate_fast_q31.c **** 
 141              		.loc 1 127 29 is_stmt 0 view .LVU49
 142 004c CA18     		adds	r2, r1, r3
 143              	.LVL16:
 127:Drivers/CMSIS/DSP/Source/FilteringFunctions/arm_correlate_fast_q31.c **** 
 144              		.loc 1 127 17 view .LVU50
 145 004e 424B     		ldr	r3, .L39
 146              	.LVL17:
 127:Drivers/CMSIS/DSP/Source/FilteringFunctions/arm_correlate_fast_q31.c **** 
 147              		.loc 1 127 17 view .LVU51
 148 0050 1344     		add	r3, r3, r2
 127:Drivers/CMSIS/DSP/Source/FilteringFunctions/arm_correlate_fast_q31.c **** 
 149              		.loc 1 127 10 view .LVU52
 150 0052 169A     		ldr	r2, [sp, #88]
 151 0054 02EB830A 		add	r10, r2, r3, lsl #2
 152              	.LVL18:
 130:Drivers/CMSIS/DSP/Source/FilteringFunctions/arm_correlate_fast_q31.c **** 
 153              		.loc 1 130 5 is_stmt 1 view .LVU53
 127:Drivers/CMSIS/DSP/Source/FilteringFunctions/arm_correlate_fast_q31.c **** 
 154              		.loc 1 127 10 is_stmt 0 view .LVU54
ARM GAS  /tmp/ccj2uHfG.s 			page 7


 155 0058 049B     		ldr	r3, [sp, #16]
 115:Drivers/CMSIS/DSP/Source/FilteringFunctions/arm_correlate_fast_q31.c **** 
 156              		.loc 1 115 10 view .LVU55
 157 005a 039A     		ldr	r2, [sp, #12]
 158 005c 0492     		str	r2, [sp, #16]
 159              	.LVL19:
 118:Drivers/CMSIS/DSP/Source/FilteringFunctions/arm_correlate_fast_q31.c **** 
 160              		.loc 1 118 10 view .LVU56
 161 005e 0393     		str	r3, [sp, #12]
 162              	.LVL20:
 127:Drivers/CMSIS/DSP/Source/FilteringFunctions/arm_correlate_fast_q31.c **** 
 163              		.loc 1 127 10 view .LVU57
 164 0060 0B46     		mov	r3, r1
 165              	.LVL21:
 123:Drivers/CMSIS/DSP/Source/FilteringFunctions/arm_correlate_fast_q31.c **** 
 166              		.loc 1 123 13 view .LVU58
 167 0062 5946     		mov	r1, fp
 168              	.LVL22:
 122:Drivers/CMSIS/DSP/Source/FilteringFunctions/arm_correlate_fast_q31.c ****     srcALen = j;
 169              		.loc 1 122 13 view .LVU59
 170 0064 9B46     		mov	fp, r3
 171              	.LVL23:
 130:Drivers/CMSIS/DSP/Source/FilteringFunctions/arm_correlate_fast_q31.c **** 
 172              		.loc 1 130 9 view .LVU60
 173 0066 4FF0FF34 		mov	r4, #-1
 174 006a DBE7     		b	.L3
 175              	.LVL24:
 176              	.L6:
 174:Drivers/CMSIS/DSP/Source/FilteringFunctions/arm_correlate_fast_q31.c ****   {
 175:Drivers/CMSIS/DSP/Source/FilteringFunctions/arm_correlate_fast_q31.c ****     /* Accumulator is made zero for every iteration */
 176:Drivers/CMSIS/DSP/Source/FilteringFunctions/arm_correlate_fast_q31.c ****     sum = 0;
 177:Drivers/CMSIS/DSP/Source/FilteringFunctions/arm_correlate_fast_q31.c **** 
 178:Drivers/CMSIS/DSP/Source/FilteringFunctions/arm_correlate_fast_q31.c ****     /* Apply loop unrolling and compute 4 MACs simultaneously. */
 179:Drivers/CMSIS/DSP/Source/FilteringFunctions/arm_correlate_fast_q31.c ****     k = count >> 2;
 180:Drivers/CMSIS/DSP/Source/FilteringFunctions/arm_correlate_fast_q31.c **** 
 181:Drivers/CMSIS/DSP/Source/FilteringFunctions/arm_correlate_fast_q31.c ****     /* First part of the processing with loop unrolling.  Compute 4 MACs at a time.
 182:Drivers/CMSIS/DSP/Source/FilteringFunctions/arm_correlate_fast_q31.c ****      ** a second loop below computes MACs for the remaining 1 to 3 samples. */
 183:Drivers/CMSIS/DSP/Source/FilteringFunctions/arm_correlate_fast_q31.c ****     while (k > 0U)
 184:Drivers/CMSIS/DSP/Source/FilteringFunctions/arm_correlate_fast_q31.c ****     {
 185:Drivers/CMSIS/DSP/Source/FilteringFunctions/arm_correlate_fast_q31.c ****       /* x[0] * y[srcBLen - 4] */
 186:Drivers/CMSIS/DSP/Source/FilteringFunctions/arm_correlate_fast_q31.c ****       sum = (q31_t) ((((q63_t) sum << 32) +
 177              		.loc 1 186 7 is_stmt 1 view .LVU61
 187:Drivers/CMSIS/DSP/Source/FilteringFunctions/arm_correlate_fast_q31.c ****                       ((q63_t) * px++ * (*py++))) >> 32);
 178              		.loc 1 187 32 is_stmt 0 view .LVU62
 179 006c 1768     		ldr	r7, [r2]
 180              		.loc 1 187 24 view .LVU63
 181 006e 4FEAE77A 		asr	r10, r7, #31
 182              	.LVL25:
 183              		.loc 1 187 42 view .LVU64
 184 0072 0D68     		ldr	r5, [r1]
 185 0074 EC17     		asrs	r4, r5, #31
 186              		.loc 1 187 39 view .LVU65
 187 0076 07FB04F4 		mul	r4, r7, r4
 188 007a 05FB0A44 		mla	r4, r5, r10, r4
 189 007e A7FB0575 		umull	r7, r5, r7, r5
 190 0082 2C44     		add	r4, r4, r5
 186:Drivers/CMSIS/DSP/Source/FilteringFunctions/arm_correlate_fast_q31.c ****                       ((q63_t) * px++ * (*py++))) >> 32);
ARM GAS  /tmp/ccj2uHfG.s 			page 8


 191              		.loc 1 186 43 view .LVU66
 192 0084 2344     		add	r3, r3, r4
 193              	.LVL26:
 188:Drivers/CMSIS/DSP/Source/FilteringFunctions/arm_correlate_fast_q31.c ****       /* x[1] * y[srcBLen - 3] */
 189:Drivers/CMSIS/DSP/Source/FilteringFunctions/arm_correlate_fast_q31.c ****       sum = (q31_t) ((((q63_t) sum << 32) +
 194              		.loc 1 189 7 is_stmt 1 view .LVU67
 190:Drivers/CMSIS/DSP/Source/FilteringFunctions/arm_correlate_fast_q31.c ****                       ((q63_t) * px++ * (*py++))) >> 32);
 195              		.loc 1 190 32 is_stmt 0 view .LVU68
 196 0086 5768     		ldr	r7, [r2, #4]
 197              		.loc 1 190 24 view .LVU69
 198 0088 4FEAE77A 		asr	r10, r7, #31
 199              	.LVL27:
 200              		.loc 1 190 42 view .LVU70
 201 008c 4D68     		ldr	r5, [r1, #4]
 202 008e EC17     		asrs	r4, r5, #31
 203              		.loc 1 190 39 view .LVU71
 204 0090 07FB04F4 		mul	r4, r7, r4
 205 0094 05FB0A44 		mla	r4, r5, r10, r4
 206 0098 A7FB0575 		umull	r7, r5, r7, r5
 207 009c 2C44     		add	r4, r4, r5
 189:Drivers/CMSIS/DSP/Source/FilteringFunctions/arm_correlate_fast_q31.c ****                       ((q63_t) * px++ * (*py++))) >> 32);
 208              		.loc 1 189 43 view .LVU72
 209 009e 2344     		add	r3, r3, r4
 191:Drivers/CMSIS/DSP/Source/FilteringFunctions/arm_correlate_fast_q31.c ****       /* x[2] * y[srcBLen - 2] */
 192:Drivers/CMSIS/DSP/Source/FilteringFunctions/arm_correlate_fast_q31.c ****       sum = (q31_t) ((((q63_t) sum << 32) +
 210              		.loc 1 192 7 is_stmt 1 view .LVU73
 211              	.LVL28:
 193:Drivers/CMSIS/DSP/Source/FilteringFunctions/arm_correlate_fast_q31.c ****                       ((q63_t) * px++ * (*py++))) >> 32);
 212              		.loc 1 193 32 is_stmt 0 view .LVU74
 213 00a0 9768     		ldr	r7, [r2, #8]
 214              		.loc 1 193 24 view .LVU75
 215 00a2 4FEAE77A 		asr	r10, r7, #31
 216              	.LVL29:
 217              		.loc 1 193 42 view .LVU76
 218 00a6 8D68     		ldr	r5, [r1, #8]
 219 00a8 EC17     		asrs	r4, r5, #31
 220              		.loc 1 193 39 view .LVU77
 221 00aa 07FB04F4 		mul	r4, r7, r4
 222 00ae 05FB0A44 		mla	r4, r5, r10, r4
 223 00b2 A7FB0575 		umull	r7, r5, r7, r5
 224 00b6 2C44     		add	r4, r4, r5
 192:Drivers/CMSIS/DSP/Source/FilteringFunctions/arm_correlate_fast_q31.c ****                       ((q63_t) * px++ * (*py++))) >> 32);
 225              		.loc 1 192 43 view .LVU78
 226 00b8 1C44     		add	r4, r4, r3
 194:Drivers/CMSIS/DSP/Source/FilteringFunctions/arm_correlate_fast_q31.c ****       /* x[3] * y[srcBLen - 1] */
 195:Drivers/CMSIS/DSP/Source/FilteringFunctions/arm_correlate_fast_q31.c ****       sum = (q31_t) ((((q63_t) sum << 32) +
 227              		.loc 1 195 7 is_stmt 1 view .LVU79
 228              	.LVL30:
 196:Drivers/CMSIS/DSP/Source/FilteringFunctions/arm_correlate_fast_q31.c ****                       ((q63_t) * px++ * (*py++))) >> 32);
 229              		.loc 1 196 32 is_stmt 0 view .LVU80
 230 00ba D768     		ldr	r7, [r2, #12]
 231              		.loc 1 196 24 view .LVU81
 232 00bc 4FEAE77A 		asr	r10, r7, #31
 233              	.LVL31:
 234              		.loc 1 196 42 view .LVU82
 235 00c0 CD68     		ldr	r5, [r1, #12]
 236 00c2 EB17     		asrs	r3, r5, #31
ARM GAS  /tmp/ccj2uHfG.s 			page 9


 237              		.loc 1 196 39 view .LVU83
 238 00c4 07FB03F3 		mul	r3, r7, r3
 239 00c8 05FB0A33 		mla	r3, r5, r10, r3
 240 00cc A7FB0575 		umull	r7, r5, r7, r5
 241 00d0 2B44     		add	r3, r3, r5
 195:Drivers/CMSIS/DSP/Source/FilteringFunctions/arm_correlate_fast_q31.c ****                       ((q63_t) * px++ * (*py++))) >> 32);
 242              		.loc 1 195 11 view .LVU84
 243 00d2 2344     		add	r3, r3, r4
 244              	.LVL32:
 197:Drivers/CMSIS/DSP/Source/FilteringFunctions/arm_correlate_fast_q31.c **** 
 198:Drivers/CMSIS/DSP/Source/FilteringFunctions/arm_correlate_fast_q31.c ****       /* Decrement the loop counter */
 199:Drivers/CMSIS/DSP/Source/FilteringFunctions/arm_correlate_fast_q31.c ****       k--;
 245              		.loc 1 199 7 is_stmt 1 view .LVU85
 246              		.loc 1 199 8 is_stmt 0 view .LVU86
 247 00d4 013E     		subs	r6, r6, #1
 248              	.LVL33:
 196:Drivers/CMSIS/DSP/Source/FilteringFunctions/arm_correlate_fast_q31.c **** 
 249              		.loc 1 196 45 view .LVU87
 250 00d6 1031     		adds	r1, r1, #16
 251              	.LVL34:
 196:Drivers/CMSIS/DSP/Source/FilteringFunctions/arm_correlate_fast_q31.c **** 
 252              		.loc 1 196 36 view .LVU88
 253 00d8 1032     		adds	r2, r2, #16
 254              	.LVL35:
 255              	.L5:
 183:Drivers/CMSIS/DSP/Source/FilteringFunctions/arm_correlate_fast_q31.c ****     {
 256              		.loc 1 183 14 is_stmt 1 view .LVU89
 257 00da 002E     		cmp	r6, #0
 258 00dc C6D1     		bne	.L6
 200:Drivers/CMSIS/DSP/Source/FilteringFunctions/arm_correlate_fast_q31.c ****     }
 201:Drivers/CMSIS/DSP/Source/FilteringFunctions/arm_correlate_fast_q31.c **** 
 202:Drivers/CMSIS/DSP/Source/FilteringFunctions/arm_correlate_fast_q31.c ****     /* If the count is not a multiple of 4, compute any remaining MACs here.
 203:Drivers/CMSIS/DSP/Source/FilteringFunctions/arm_correlate_fast_q31.c ****      ** No loop unrolling is used. */
 204:Drivers/CMSIS/DSP/Source/FilteringFunctions/arm_correlate_fast_q31.c ****     k = count % 0x4U;
 259              		.loc 1 204 7 is_stmt 0 view .LVU90
 260 00de 019F     		ldr	r7, [sp, #4]
 261              		.loc 1 204 5 is_stmt 1 view .LVU91
 262              		.loc 1 204 7 is_stmt 0 view .LVU92
 263 00e0 07F00304 		and	r4, r7, #3
 264              	.LVL36:
 205:Drivers/CMSIS/DSP/Source/FilteringFunctions/arm_correlate_fast_q31.c **** 
 206:Drivers/CMSIS/DSP/Source/FilteringFunctions/arm_correlate_fast_q31.c ****     while (k > 0U)
 265              		.loc 1 206 5 is_stmt 1 view .LVU93
 266              		.loc 1 206 11 is_stmt 0 view .LVU94
 267 00e4 0FE0     		b	.L7
 268              	.L8:
 207:Drivers/CMSIS/DSP/Source/FilteringFunctions/arm_correlate_fast_q31.c ****     {
 208:Drivers/CMSIS/DSP/Source/FilteringFunctions/arm_correlate_fast_q31.c ****       /* Perform the multiply-accumulates */
 209:Drivers/CMSIS/DSP/Source/FilteringFunctions/arm_correlate_fast_q31.c ****       /* x[0] * y[srcBLen - 1] */
 210:Drivers/CMSIS/DSP/Source/FilteringFunctions/arm_correlate_fast_q31.c ****       sum = (q31_t) ((((q63_t) sum << 32) +
 269              		.loc 1 210 7 is_stmt 1 view .LVU95
 270              	.LVL37:
 211:Drivers/CMSIS/DSP/Source/FilteringFunctions/arm_correlate_fast_q31.c ****                       ((q63_t) * px++ * (*py++))) >> 32);
 271              		.loc 1 211 32 is_stmt 0 view .LVU96
 272 00e6 52F8047B 		ldr	r7, [r2], #4
 273              	.LVL38:
 274              		.loc 1 211 24 view .LVU97
ARM GAS  /tmp/ccj2uHfG.s 			page 10


 275 00ea 4FEAE77A 		asr	r10, r7, #31
 276              	.LVL39:
 277              		.loc 1 211 42 view .LVU98
 278 00ee 51F8046B 		ldr	r6, [r1], #4
 279              	.LVL40:
 280              		.loc 1 211 42 view .LVU99
 281 00f2 F517     		asrs	r5, r6, #31
 282              		.loc 1 211 39 view .LVU100
 283 00f4 07FB05F5 		mul	r5, r7, r5
 284 00f8 06FB0A55 		mla	r5, r6, r10, r5
 285 00fc A7FB0676 		umull	r7, r6, r7, r6
 286 0100 3544     		add	r5, r5, r6
 210:Drivers/CMSIS/DSP/Source/FilteringFunctions/arm_correlate_fast_q31.c ****                       ((q63_t) * px++ * (*py++))) >> 32);
 287              		.loc 1 210 11 view .LVU101
 288 0102 2B44     		add	r3, r3, r5
 289              	.LVL41:
 212:Drivers/CMSIS/DSP/Source/FilteringFunctions/arm_correlate_fast_q31.c **** 
 213:Drivers/CMSIS/DSP/Source/FilteringFunctions/arm_correlate_fast_q31.c ****       /* Decrement the loop counter */
 214:Drivers/CMSIS/DSP/Source/FilteringFunctions/arm_correlate_fast_q31.c ****       k--;
 290              		.loc 1 214 7 is_stmt 1 view .LVU102
 291              		.loc 1 214 8 is_stmt 0 view .LVU103
 292 0104 013C     		subs	r4, r4, #1
 293              	.LVL42:
 294              	.L7:
 206:Drivers/CMSIS/DSP/Source/FilteringFunctions/arm_correlate_fast_q31.c ****     {
 295              		.loc 1 206 14 is_stmt 1 view .LVU104
 296 0106 002C     		cmp	r4, #0
 297 0108 EDD1     		bne	.L8
 215:Drivers/CMSIS/DSP/Source/FilteringFunctions/arm_correlate_fast_q31.c ****     }
 216:Drivers/CMSIS/DSP/Source/FilteringFunctions/arm_correlate_fast_q31.c **** 
 217:Drivers/CMSIS/DSP/Source/FilteringFunctions/arm_correlate_fast_q31.c ****     /* Store the result in the accumulator in the destination buffer. */
 218:Drivers/CMSIS/DSP/Source/FilteringFunctions/arm_correlate_fast_q31.c ****     *pOut = sum << 1;
 298              		.loc 1 218 17 is_stmt 0 view .LVU105
 299 010a 019F     		ldr	r7, [sp, #4]
 300              		.loc 1 218 5 is_stmt 1 view .LVU106
 301              		.loc 1 218 17 is_stmt 0 view .LVU107
 302 010c 5B00     		lsls	r3, r3, #1
 303              	.LVL43:
 304              		.loc 1 218 11 view .LVU108
 305 010e 009A     		ldr	r2, [sp]
 306              	.LVL44:
 307              		.loc 1 218 11 view .LVU109
 308 0110 1360     		str	r3, [r2]
 219:Drivers/CMSIS/DSP/Source/FilteringFunctions/arm_correlate_fast_q31.c ****     /* Destination pointer is updated according to the address modifier, inc */
 220:Drivers/CMSIS/DSP/Source/FilteringFunctions/arm_correlate_fast_q31.c ****     pOut += inc;
 309              		.loc 1 220 5 is_stmt 1 view .LVU110
 310              		.loc 1 220 10 is_stmt 0 view .LVU111
 311 0112 02EB8803 		add	r3, r2, r8, lsl #2
 312 0116 0093     		str	r3, [sp]
 313              	.LVL45:
 221:Drivers/CMSIS/DSP/Source/FilteringFunctions/arm_correlate_fast_q31.c **** 
 222:Drivers/CMSIS/DSP/Source/FilteringFunctions/arm_correlate_fast_q31.c ****     /* Update the inputA and inputB pointers for next MAC calculation */
 223:Drivers/CMSIS/DSP/Source/FilteringFunctions/arm_correlate_fast_q31.c ****     py = pSrc1 - count;
 314              		.loc 1 223 5 is_stmt 1 view .LVU112
 315              		.loc 1 223 8 is_stmt 0 view .LVU113
 316 0118 ACEB8701 		sub	r1, ip, r7, lsl #2
 317              	.LVL46:
ARM GAS  /tmp/ccj2uHfG.s 			page 11


 224:Drivers/CMSIS/DSP/Source/FilteringFunctions/arm_correlate_fast_q31.c ****     px = pIn1;
 318              		.loc 1 224 5 is_stmt 1 view .LVU114
 225:Drivers/CMSIS/DSP/Source/FilteringFunctions/arm_correlate_fast_q31.c **** 
 226:Drivers/CMSIS/DSP/Source/FilteringFunctions/arm_correlate_fast_q31.c ****     /* Increment the MAC count */
 227:Drivers/CMSIS/DSP/Source/FilteringFunctions/arm_correlate_fast_q31.c ****     count++;
 319              		.loc 1 227 5 view .LVU115
 320              		.loc 1 227 10 is_stmt 0 view .LVU116
 321 011c 0137     		adds	r7, r7, #1
 322              	.LVL47:
 228:Drivers/CMSIS/DSP/Source/FilteringFunctions/arm_correlate_fast_q31.c **** 
 229:Drivers/CMSIS/DSP/Source/FilteringFunctions/arm_correlate_fast_q31.c ****     /* Decrement the loop counter */
 230:Drivers/CMSIS/DSP/Source/FilteringFunctions/arm_correlate_fast_q31.c ****     blockSize1--;
 323              		.loc 1 230 5 is_stmt 1 view .LVU117
 324              		.loc 1 230 15 is_stmt 0 view .LVU118
 325 011e 0138     		subs	r0, r0, #1
 326              	.LVL48:
 327              	.L4:
 173:Drivers/CMSIS/DSP/Source/FilteringFunctions/arm_correlate_fast_q31.c ****   {
 328              		.loc 1 173 21 is_stmt 1 view .LVU119
 329 0120 20B1     		cbz	r0, .L34
 176:Drivers/CMSIS/DSP/Source/FilteringFunctions/arm_correlate_fast_q31.c **** 
 330              		.loc 1 176 5 view .LVU120
 331              	.LVL49:
 179:Drivers/CMSIS/DSP/Source/FilteringFunctions/arm_correlate_fast_q31.c **** 
 332              		.loc 1 179 5 view .LVU121
 179:Drivers/CMSIS/DSP/Source/FilteringFunctions/arm_correlate_fast_q31.c **** 
 333              		.loc 1 179 7 is_stmt 0 view .LVU122
 334 0122 BE08     		lsrs	r6, r7, #2
 335              	.LVL50:
 183:Drivers/CMSIS/DSP/Source/FilteringFunctions/arm_correlate_fast_q31.c ****     {
 336              		.loc 1 183 5 is_stmt 1 view .LVU123
 183:Drivers/CMSIS/DSP/Source/FilteringFunctions/arm_correlate_fast_q31.c ****     {
 337              		.loc 1 183 11 is_stmt 0 view .LVU124
 338 0124 049A     		ldr	r2, [sp, #16]
 176:Drivers/CMSIS/DSP/Source/FilteringFunctions/arm_correlate_fast_q31.c **** 
 339              		.loc 1 176 9 view .LVU125
 340 0126 0023     		movs	r3, #0
 341 0128 0197     		str	r7, [sp, #4]
 183:Drivers/CMSIS/DSP/Source/FilteringFunctions/arm_correlate_fast_q31.c ****     {
 342              		.loc 1 183 11 view .LVU126
 343 012a D6E7     		b	.L5
 344              	.LVL51:
 345              	.L34:
 231:Drivers/CMSIS/DSP/Source/FilteringFunctions/arm_correlate_fast_q31.c ****   }
 232:Drivers/CMSIS/DSP/Source/FilteringFunctions/arm_correlate_fast_q31.c **** 
 233:Drivers/CMSIS/DSP/Source/FilteringFunctions/arm_correlate_fast_q31.c ****   /* --------------------------
 234:Drivers/CMSIS/DSP/Source/FilteringFunctions/arm_correlate_fast_q31.c ****    * Initializations of stage2
 235:Drivers/CMSIS/DSP/Source/FilteringFunctions/arm_correlate_fast_q31.c ****    * ------------------------*/
 236:Drivers/CMSIS/DSP/Source/FilteringFunctions/arm_correlate_fast_q31.c **** 
 237:Drivers/CMSIS/DSP/Source/FilteringFunctions/arm_correlate_fast_q31.c ****   /* sum = x[0] * y[0] + x[1] * y[1] +...+ x[srcBLen-1] * y[srcBLen-1]
 238:Drivers/CMSIS/DSP/Source/FilteringFunctions/arm_correlate_fast_q31.c ****    * sum = x[1] * y[0] + x[2] * y[1] +...+ x[srcBLen] * y[srcBLen-1]
 239:Drivers/CMSIS/DSP/Source/FilteringFunctions/arm_correlate_fast_q31.c ****    * ....
 240:Drivers/CMSIS/DSP/Source/FilteringFunctions/arm_correlate_fast_q31.c ****    * sum = x[srcALen-srcBLen-2] * y[0] + x[srcALen-srcBLen-1] * y[1] +...+ x[srcALen-1] * y[srcBLen
 241:Drivers/CMSIS/DSP/Source/FilteringFunctions/arm_correlate_fast_q31.c ****    */
 242:Drivers/CMSIS/DSP/Source/FilteringFunctions/arm_correlate_fast_q31.c **** 
 243:Drivers/CMSIS/DSP/Source/FilteringFunctions/arm_correlate_fast_q31.c ****   /* Working pointer of inputA */
 244:Drivers/CMSIS/DSP/Source/FilteringFunctions/arm_correlate_fast_q31.c ****   px = pIn1;
ARM GAS  /tmp/ccj2uHfG.s 			page 12


 245:Drivers/CMSIS/DSP/Source/FilteringFunctions/arm_correlate_fast_q31.c **** 
 246:Drivers/CMSIS/DSP/Source/FilteringFunctions/arm_correlate_fast_q31.c ****   /* Working pointer of inputB */
 247:Drivers/CMSIS/DSP/Source/FilteringFunctions/arm_correlate_fast_q31.c ****   py = pIn2;
 248:Drivers/CMSIS/DSP/Source/FilteringFunctions/arm_correlate_fast_q31.c **** 
 249:Drivers/CMSIS/DSP/Source/FilteringFunctions/arm_correlate_fast_q31.c ****   /* count is index by which the pointer pIn1 to be incremented */
 250:Drivers/CMSIS/DSP/Source/FilteringFunctions/arm_correlate_fast_q31.c ****   count = 0U;
 251:Drivers/CMSIS/DSP/Source/FilteringFunctions/arm_correlate_fast_q31.c **** 
 252:Drivers/CMSIS/DSP/Source/FilteringFunctions/arm_correlate_fast_q31.c ****   /* -------------------
 253:Drivers/CMSIS/DSP/Source/FilteringFunctions/arm_correlate_fast_q31.c ****    * Stage2 process
 254:Drivers/CMSIS/DSP/Source/FilteringFunctions/arm_correlate_fast_q31.c ****    * ------------------*/
 255:Drivers/CMSIS/DSP/Source/FilteringFunctions/arm_correlate_fast_q31.c **** 
 256:Drivers/CMSIS/DSP/Source/FilteringFunctions/arm_correlate_fast_q31.c ****   /* Stage2 depends on srcBLen as in this stage srcBLen number of MACS are performed.
 257:Drivers/CMSIS/DSP/Source/FilteringFunctions/arm_correlate_fast_q31.c ****    * So, to loop unroll over blockSize2,
 258:Drivers/CMSIS/DSP/Source/FilteringFunctions/arm_correlate_fast_q31.c ****    * srcBLen should be greater than or equal to 4 */
 259:Drivers/CMSIS/DSP/Source/FilteringFunctions/arm_correlate_fast_q31.c ****   if (srcBLen >= 4U)
 346              		.loc 1 259 6 view .LVU127
 347 012c DDF800A0 		ldr	r10, [sp]
 348 0130 7346     		mov	r3, lr
 349 0132 4446     		mov	r4, r8
 244:Drivers/CMSIS/DSP/Source/FilteringFunctions/arm_correlate_fast_q31.c **** 
 350              		.loc 1 244 3 is_stmt 1 view .LVU128
 247:Drivers/CMSIS/DSP/Source/FilteringFunctions/arm_correlate_fast_q31.c **** 
 351              		.loc 1 247 3 view .LVU129
 352              	.LVL52:
 250:Drivers/CMSIS/DSP/Source/FilteringFunctions/arm_correlate_fast_q31.c **** 
 353              		.loc 1 250 3 view .LVU130
 354              		.loc 1 259 3 view .LVU131
 355              		.loc 1 259 6 is_stmt 0 view .LVU132
 356 0134 BBF1030F 		cmp	fp, #3
 357 0138 40F2E481 		bls	.L31
 358              	.LVL53:
 260:Drivers/CMSIS/DSP/Source/FilteringFunctions/arm_correlate_fast_q31.c ****   {
 261:Drivers/CMSIS/DSP/Source/FilteringFunctions/arm_correlate_fast_q31.c ****     /* Loop unroll over blockSize2, by 4 */
 262:Drivers/CMSIS/DSP/Source/FilteringFunctions/arm_correlate_fast_q31.c ****     blkCnt = blockSize2 >> 2U;
 359              		.loc 1 262 5 is_stmt 1 view .LVU133
 360              		.loc 1 262 12 is_stmt 0 view .LVU134
 361 013c 4FEA9902 		lsr	r2, r9, #2
 362 0140 0592     		str	r2, [sp, #20]
 363              	.LVL54:
 263:Drivers/CMSIS/DSP/Source/FilteringFunctions/arm_correlate_fast_q31.c **** 
 264:Drivers/CMSIS/DSP/Source/FilteringFunctions/arm_correlate_fast_q31.c ****     while (blkCnt > 0U)
 364              		.loc 1 264 5 is_stmt 1 view .LVU135
 244:Drivers/CMSIS/DSP/Source/FilteringFunctions/arm_correlate_fast_q31.c **** 
 365              		.loc 1 244 6 is_stmt 0 view .LVU136
 366 0142 0499     		ldr	r1, [sp, #16]
 367 0144 0690     		str	r0, [sp, #24]
 368 0146 CDF828E0 		str	lr, [sp, #40]
 369 014a 4646     		mov	r6, r8
 370 014c 5446     		mov	r4, r10
 371              	.LVL55:
 244:Drivers/CMSIS/DSP/Source/FilteringFunctions/arm_correlate_fast_q31.c **** 
 372              		.loc 1 244 6 view .LVU137
 373 014e CDF82C90 		str	r9, [sp, #44]
 374 0152 CDF81CB0 		str	fp, [sp, #28]
 375              		.loc 1 264 11 view .LVU138
 376 0156 55E0     		b	.L11
 377              	.L40:
ARM GAS  /tmp/ccj2uHfG.s 			page 13


 378              		.align	2
 379              	.L39:
 380 0158 FEFFFF3F 		.word	1073741822
 381              	.LVL56:
 382              	.L14:
 265:Drivers/CMSIS/DSP/Source/FilteringFunctions/arm_correlate_fast_q31.c ****     {
 266:Drivers/CMSIS/DSP/Source/FilteringFunctions/arm_correlate_fast_q31.c ****       /* Set all accumulators to zero */
 267:Drivers/CMSIS/DSP/Source/FilteringFunctions/arm_correlate_fast_q31.c ****       acc0 = 0;
 268:Drivers/CMSIS/DSP/Source/FilteringFunctions/arm_correlate_fast_q31.c ****       acc1 = 0;
 269:Drivers/CMSIS/DSP/Source/FilteringFunctions/arm_correlate_fast_q31.c ****       acc2 = 0;
 270:Drivers/CMSIS/DSP/Source/FilteringFunctions/arm_correlate_fast_q31.c ****       acc3 = 0;
 271:Drivers/CMSIS/DSP/Source/FilteringFunctions/arm_correlate_fast_q31.c **** 
 272:Drivers/CMSIS/DSP/Source/FilteringFunctions/arm_correlate_fast_q31.c ****       /* read x[0], x[1], x[2] samples */
 273:Drivers/CMSIS/DSP/Source/FilteringFunctions/arm_correlate_fast_q31.c ****       x0 = *(px++);
 274:Drivers/CMSIS/DSP/Source/FilteringFunctions/arm_correlate_fast_q31.c ****       x1 = *(px++);
 275:Drivers/CMSIS/DSP/Source/FilteringFunctions/arm_correlate_fast_q31.c ****       x2 = *(px++);
 276:Drivers/CMSIS/DSP/Source/FilteringFunctions/arm_correlate_fast_q31.c **** 
 277:Drivers/CMSIS/DSP/Source/FilteringFunctions/arm_correlate_fast_q31.c ****       /* Apply loop unrolling and compute 4 MACs simultaneously. */
 278:Drivers/CMSIS/DSP/Source/FilteringFunctions/arm_correlate_fast_q31.c ****       k = srcBLen >> 2U;
 279:Drivers/CMSIS/DSP/Source/FilteringFunctions/arm_correlate_fast_q31.c **** 
 280:Drivers/CMSIS/DSP/Source/FilteringFunctions/arm_correlate_fast_q31.c ****       /* First part of the processing with loop unrolling.  Compute 4 MACs at a time.
 281:Drivers/CMSIS/DSP/Source/FilteringFunctions/arm_correlate_fast_q31.c ****        ** a second loop below computes MACs for the remaining 1 to 3 samples. */
 282:Drivers/CMSIS/DSP/Source/FilteringFunctions/arm_correlate_fast_q31.c ****       do
 283:Drivers/CMSIS/DSP/Source/FilteringFunctions/arm_correlate_fast_q31.c ****       {
 284:Drivers/CMSIS/DSP/Source/FilteringFunctions/arm_correlate_fast_q31.c ****         /* Read y[0] sample */
 285:Drivers/CMSIS/DSP/Source/FilteringFunctions/arm_correlate_fast_q31.c ****         c0 = *(py++);
 286:Drivers/CMSIS/DSP/Source/FilteringFunctions/arm_correlate_fast_q31.c **** 
 287:Drivers/CMSIS/DSP/Source/FilteringFunctions/arm_correlate_fast_q31.c ****         /* Read x[3] sample */
 288:Drivers/CMSIS/DSP/Source/FilteringFunctions/arm_correlate_fast_q31.c ****         x3 = *(px++);
 289:Drivers/CMSIS/DSP/Source/FilteringFunctions/arm_correlate_fast_q31.c **** 
 290:Drivers/CMSIS/DSP/Source/FilteringFunctions/arm_correlate_fast_q31.c ****         /* Perform the multiply-accumulate */
 291:Drivers/CMSIS/DSP/Source/FilteringFunctions/arm_correlate_fast_q31.c ****         /* acc0 +=  x[0] * y[0] */
 292:Drivers/CMSIS/DSP/Source/FilteringFunctions/arm_correlate_fast_q31.c ****         acc0 = (q31_t) ((((q63_t) acc0 << 32) + ((q63_t) x0 * c0)) >> 32);
 293:Drivers/CMSIS/DSP/Source/FilteringFunctions/arm_correlate_fast_q31.c ****         /* acc1 +=  x[1] * y[0] */
 294:Drivers/CMSIS/DSP/Source/FilteringFunctions/arm_correlate_fast_q31.c ****         acc1 = (q31_t) ((((q63_t) acc1 << 32) + ((q63_t) x1 * c0)) >> 32);
 295:Drivers/CMSIS/DSP/Source/FilteringFunctions/arm_correlate_fast_q31.c ****         /* acc2 +=  x[2] * y[0] */
 296:Drivers/CMSIS/DSP/Source/FilteringFunctions/arm_correlate_fast_q31.c ****         acc2 = (q31_t) ((((q63_t) acc2 << 32) + ((q63_t) x2 * c0)) >> 32);
 297:Drivers/CMSIS/DSP/Source/FilteringFunctions/arm_correlate_fast_q31.c ****         /* acc3 +=  x[3] * y[0] */
 298:Drivers/CMSIS/DSP/Source/FilteringFunctions/arm_correlate_fast_q31.c ****         acc3 = (q31_t) ((((q63_t) acc3 << 32) + ((q63_t) x3 * c0)) >> 32);
 299:Drivers/CMSIS/DSP/Source/FilteringFunctions/arm_correlate_fast_q31.c **** 
 300:Drivers/CMSIS/DSP/Source/FilteringFunctions/arm_correlate_fast_q31.c ****         /* Read y[1] sample */
 301:Drivers/CMSIS/DSP/Source/FilteringFunctions/arm_correlate_fast_q31.c ****         c0 = *(py++);
 302:Drivers/CMSIS/DSP/Source/FilteringFunctions/arm_correlate_fast_q31.c **** 
 303:Drivers/CMSIS/DSP/Source/FilteringFunctions/arm_correlate_fast_q31.c ****         /* Read x[4] sample */
 304:Drivers/CMSIS/DSP/Source/FilteringFunctions/arm_correlate_fast_q31.c ****         x0 = *(px++);
 305:Drivers/CMSIS/DSP/Source/FilteringFunctions/arm_correlate_fast_q31.c **** 
 306:Drivers/CMSIS/DSP/Source/FilteringFunctions/arm_correlate_fast_q31.c ****         /* Perform the multiply-accumulates */
 307:Drivers/CMSIS/DSP/Source/FilteringFunctions/arm_correlate_fast_q31.c ****         /* acc0 +=  x[1] * y[1] */
 308:Drivers/CMSIS/DSP/Source/FilteringFunctions/arm_correlate_fast_q31.c ****         acc0 = (q31_t) ((((q63_t) acc0 << 32) + ((q63_t) x1 * c0)) >> 32);
 309:Drivers/CMSIS/DSP/Source/FilteringFunctions/arm_correlate_fast_q31.c ****         /* acc1 +=  x[2] * y[1] */
 310:Drivers/CMSIS/DSP/Source/FilteringFunctions/arm_correlate_fast_q31.c ****         acc1 = (q31_t) ((((q63_t) acc1 << 32) + ((q63_t) x2 * c0)) >> 32);
 311:Drivers/CMSIS/DSP/Source/FilteringFunctions/arm_correlate_fast_q31.c ****         /* acc2 +=  x[3] * y[1] */
 312:Drivers/CMSIS/DSP/Source/FilteringFunctions/arm_correlate_fast_q31.c ****         acc2 = (q31_t) ((((q63_t) acc2 << 32) + ((q63_t) x3 * c0)) >> 32);
 313:Drivers/CMSIS/DSP/Source/FilteringFunctions/arm_correlate_fast_q31.c ****         /* acc3 +=  x[4] * y[1] */
 314:Drivers/CMSIS/DSP/Source/FilteringFunctions/arm_correlate_fast_q31.c ****         acc3 = (q31_t) ((((q63_t) acc3 << 32) + ((q63_t) x0 * c0)) >> 32);
 315:Drivers/CMSIS/DSP/Source/FilteringFunctions/arm_correlate_fast_q31.c **** 
 316:Drivers/CMSIS/DSP/Source/FilteringFunctions/arm_correlate_fast_q31.c ****         /* Read y[2] sample */
ARM GAS  /tmp/ccj2uHfG.s 			page 14


 317:Drivers/CMSIS/DSP/Source/FilteringFunctions/arm_correlate_fast_q31.c ****         c0 = *(py++);
 318:Drivers/CMSIS/DSP/Source/FilteringFunctions/arm_correlate_fast_q31.c **** 
 319:Drivers/CMSIS/DSP/Source/FilteringFunctions/arm_correlate_fast_q31.c ****         /* Read x[5] sample */
 320:Drivers/CMSIS/DSP/Source/FilteringFunctions/arm_correlate_fast_q31.c ****         x1 = *(px++);
 321:Drivers/CMSIS/DSP/Source/FilteringFunctions/arm_correlate_fast_q31.c **** 
 322:Drivers/CMSIS/DSP/Source/FilteringFunctions/arm_correlate_fast_q31.c ****         /* Perform the multiply-accumulates */
 323:Drivers/CMSIS/DSP/Source/FilteringFunctions/arm_correlate_fast_q31.c ****         /* acc0 +=  x[2] * y[2] */
 324:Drivers/CMSIS/DSP/Source/FilteringFunctions/arm_correlate_fast_q31.c ****         acc0 = (q31_t) ((((q63_t) acc0 << 32) + ((q63_t) x2 * c0)) >> 32);
 325:Drivers/CMSIS/DSP/Source/FilteringFunctions/arm_correlate_fast_q31.c ****         /* acc1 +=  x[3] * y[2] */
 326:Drivers/CMSIS/DSP/Source/FilteringFunctions/arm_correlate_fast_q31.c ****         acc1 = (q31_t) ((((q63_t) acc1 << 32) + ((q63_t) x3 * c0)) >> 32);
 327:Drivers/CMSIS/DSP/Source/FilteringFunctions/arm_correlate_fast_q31.c ****         /* acc2 +=  x[4] * y[2] */
 328:Drivers/CMSIS/DSP/Source/FilteringFunctions/arm_correlate_fast_q31.c ****         acc2 = (q31_t) ((((q63_t) acc2 << 32) + ((q63_t) x0 * c0)) >> 32);
 329:Drivers/CMSIS/DSP/Source/FilteringFunctions/arm_correlate_fast_q31.c ****         /* acc3 +=  x[5] * y[2] */
 330:Drivers/CMSIS/DSP/Source/FilteringFunctions/arm_correlate_fast_q31.c ****         acc3 = (q31_t) ((((q63_t) acc3 << 32) + ((q63_t) x1 * c0)) >> 32);
 331:Drivers/CMSIS/DSP/Source/FilteringFunctions/arm_correlate_fast_q31.c **** 
 332:Drivers/CMSIS/DSP/Source/FilteringFunctions/arm_correlate_fast_q31.c ****         /* Read y[3] sample */
 333:Drivers/CMSIS/DSP/Source/FilteringFunctions/arm_correlate_fast_q31.c ****         c0 = *(py++);
 334:Drivers/CMSIS/DSP/Source/FilteringFunctions/arm_correlate_fast_q31.c **** 
 335:Drivers/CMSIS/DSP/Source/FilteringFunctions/arm_correlate_fast_q31.c ****         /* Read x[6] sample */
 336:Drivers/CMSIS/DSP/Source/FilteringFunctions/arm_correlate_fast_q31.c ****         x2 = *(px++);
 337:Drivers/CMSIS/DSP/Source/FilteringFunctions/arm_correlate_fast_q31.c **** 
 338:Drivers/CMSIS/DSP/Source/FilteringFunctions/arm_correlate_fast_q31.c ****         /* Perform the multiply-accumulates */
 339:Drivers/CMSIS/DSP/Source/FilteringFunctions/arm_correlate_fast_q31.c ****         /* acc0 +=  x[3] * y[3] */
 340:Drivers/CMSIS/DSP/Source/FilteringFunctions/arm_correlate_fast_q31.c ****         acc0 = (q31_t) ((((q63_t) acc0 << 32) + ((q63_t) x3 * c0)) >> 32);
 341:Drivers/CMSIS/DSP/Source/FilteringFunctions/arm_correlate_fast_q31.c ****         /* acc1 +=  x[4] * y[3] */
 342:Drivers/CMSIS/DSP/Source/FilteringFunctions/arm_correlate_fast_q31.c ****         acc1 = (q31_t) ((((q63_t) acc1 << 32) + ((q63_t) x0 * c0)) >> 32);
 343:Drivers/CMSIS/DSP/Source/FilteringFunctions/arm_correlate_fast_q31.c ****         /* acc2 +=  x[5] * y[3] */
 344:Drivers/CMSIS/DSP/Source/FilteringFunctions/arm_correlate_fast_q31.c ****         acc2 = (q31_t) ((((q63_t) acc2 << 32) + ((q63_t) x1 * c0)) >> 32);
 345:Drivers/CMSIS/DSP/Source/FilteringFunctions/arm_correlate_fast_q31.c ****         /* acc3 +=  x[6] * y[3] */
 346:Drivers/CMSIS/DSP/Source/FilteringFunctions/arm_correlate_fast_q31.c ****         acc3 = (q31_t) ((((q63_t) acc3 << 32) + ((q63_t) x2 * c0)) >> 32);
 347:Drivers/CMSIS/DSP/Source/FilteringFunctions/arm_correlate_fast_q31.c **** 
 348:Drivers/CMSIS/DSP/Source/FilteringFunctions/arm_correlate_fast_q31.c **** 
 349:Drivers/CMSIS/DSP/Source/FilteringFunctions/arm_correlate_fast_q31.c ****       } while (--k);
 350:Drivers/CMSIS/DSP/Source/FilteringFunctions/arm_correlate_fast_q31.c **** 
 351:Drivers/CMSIS/DSP/Source/FilteringFunctions/arm_correlate_fast_q31.c ****       /* If the srcBLen is not a multiple of 4, compute any remaining MACs here.
 352:Drivers/CMSIS/DSP/Source/FilteringFunctions/arm_correlate_fast_q31.c ****        ** No loop unrolling is used. */
 353:Drivers/CMSIS/DSP/Source/FilteringFunctions/arm_correlate_fast_q31.c ****       k = srcBLen % 0x4U;
 354:Drivers/CMSIS/DSP/Source/FilteringFunctions/arm_correlate_fast_q31.c **** 
 355:Drivers/CMSIS/DSP/Source/FilteringFunctions/arm_correlate_fast_q31.c ****       while (k > 0U)
 356:Drivers/CMSIS/DSP/Source/FilteringFunctions/arm_correlate_fast_q31.c ****       {
 357:Drivers/CMSIS/DSP/Source/FilteringFunctions/arm_correlate_fast_q31.c ****         /* Read y[4] sample */
 358:Drivers/CMSIS/DSP/Source/FilteringFunctions/arm_correlate_fast_q31.c ****         c0 = *(py++);
 383              		.loc 1 358 9 is_stmt 1 view .LVU139
 384              		.loc 1 358 18 is_stmt 0 view .LVU140
 385 015c A146     		mov	r9, r4
 386              	.LVL57:
 387              		.loc 1 358 12 view .LVU141
 388 015e 59F8044B 		ldr	r4, [r9], #4
 389              	.LVL58:
 359:Drivers/CMSIS/DSP/Source/FilteringFunctions/arm_correlate_fast_q31.c **** 
 360:Drivers/CMSIS/DSP/Source/FilteringFunctions/arm_correlate_fast_q31.c ****         /* Read x[7] sample */
 361:Drivers/CMSIS/DSP/Source/FilteringFunctions/arm_correlate_fast_q31.c ****         x3 = *(px++);
 390              		.loc 1 361 9 is_stmt 1 view .LVU142
 391              		.loc 1 361 18 is_stmt 0 view .LVU143
 392 0162 2F46     		mov	r7, r5
 393              	.LVL59:
 394              		.loc 1 361 12 view .LVU144
ARM GAS  /tmp/ccj2uHfG.s 			page 15


 395 0164 57F8045B 		ldr	r5, [r7], #4
 396              	.LVL60:
 362:Drivers/CMSIS/DSP/Source/FilteringFunctions/arm_correlate_fast_q31.c **** 
 363:Drivers/CMSIS/DSP/Source/FilteringFunctions/arm_correlate_fast_q31.c ****         /* Perform the multiply-accumulates */
 364:Drivers/CMSIS/DSP/Source/FilteringFunctions/arm_correlate_fast_q31.c ****         /* acc0 +=  x[4] * y[4] */
 365:Drivers/CMSIS/DSP/Source/FilteringFunctions/arm_correlate_fast_q31.c ****         acc0 = (q31_t) ((((q63_t) acc0 << 32) + ((q63_t) x0 * c0)) >> 32);
 397              		.loc 1 365 9 is_stmt 1 view .LVU145
 398              		.loc 1 365 50 is_stmt 0 view .LVU146
 399 0168 4FEAE27B 		asr	fp, r2, #31
 400              		.loc 1 365 61 view .LVU147
 401 016c E617     		asrs	r6, r4, #31
 402 016e 02FB06FA 		mul	r10, r2, r6
 403 0172 04FB0BAA 		mla	r10, r4, fp, r10
 404 0176 A2FB042B 		umull	r2, fp, r2, r4
 405              	.LVL61:
 406              		.loc 1 365 61 view .LVU148
 407 017a DA44     		add	r10, r10, fp
 408              		.loc 1 365 14 view .LVU149
 409 017c 029A     		ldr	r2, [sp, #8]
 410 017e 5244     		add	r2, r2, r10
 411 0180 0292     		str	r2, [sp, #8]
 412              	.LVL62:
 366:Drivers/CMSIS/DSP/Source/FilteringFunctions/arm_correlate_fast_q31.c ****         /* acc1 +=  x[5] * y[4] */
 367:Drivers/CMSIS/DSP/Source/FilteringFunctions/arm_correlate_fast_q31.c ****         acc1 = (q31_t) ((((q63_t) acc1 << 32) + ((q63_t) x1 * c0)) >> 32);
 413              		.loc 1 367 9 is_stmt 1 view .LVU150
 414              		.loc 1 367 50 is_stmt 0 view .LVU151
 415 0182 C217     		asrs	r2, r0, #31
 416              	.LVL63:
 417              		.loc 1 367 61 view .LVU152
 418 0184 04FB02F2 		mul	r2, r4, r2
 419 0188 00FB0622 		mla	r2, r0, r6, r2
 420 018c A4FB00BA 		umull	fp, r10, r4, r0
 421 0190 5244     		add	r2, r2, r10
 422              		.loc 1 367 14 view .LVU153
 423 0192 9444     		add	ip, ip, r2
 424              	.LVL64:
 368:Drivers/CMSIS/DSP/Source/FilteringFunctions/arm_correlate_fast_q31.c ****         /* acc2 +=  x[6] * y[4] */
 369:Drivers/CMSIS/DSP/Source/FilteringFunctions/arm_correlate_fast_q31.c ****         acc2 = (q31_t) ((((q63_t) acc2 << 32) + ((q63_t) x2 * c0)) >> 32);
 425              		.loc 1 369 9 is_stmt 1 view .LVU154
 426              		.loc 1 369 50 is_stmt 0 view .LVU155
 427 0194 CA17     		asrs	r2, r1, #31
 428              		.loc 1 369 61 view .LVU156
 429 0196 04FB02F2 		mul	r2, r4, r2
 430 019a 01FB0622 		mla	r2, r1, r6, r2
 431 019e A4FB01BA 		umull	fp, r10, r4, r1
 432 01a2 5244     		add	r2, r2, r10
 433              		.loc 1 369 14 view .LVU157
 434 01a4 9044     		add	r8, r8, r2
 435              	.LVL65:
 370:Drivers/CMSIS/DSP/Source/FilteringFunctions/arm_correlate_fast_q31.c ****         /* acc3 +=  x[7] * y[4] */
 371:Drivers/CMSIS/DSP/Source/FilteringFunctions/arm_correlate_fast_q31.c ****         acc3 = (q31_t) ((((q63_t) acc3 << 32) + ((q63_t) x3 * c0)) >> 32);
 436              		.loc 1 371 9 is_stmt 1 view .LVU158
 437              		.loc 1 371 50 is_stmt 0 view .LVU159
 438 01a6 EA17     		asrs	r2, r5, #31
 439              		.loc 1 371 61 view .LVU160
 440 01a8 04FB02F2 		mul	r2, r4, r2
 441 01ac 05FB0622 		mla	r2, r5, r6, r2
ARM GAS  /tmp/ccj2uHfG.s 			page 16


 442 01b0 A4FB0546 		umull	r4, r6, r4, r5
 443              	.LVL66:
 444              		.loc 1 371 61 view .LVU161
 445 01b4 3244     		add	r2, r2, r6
 446              		.loc 1 371 14 view .LVU162
 447 01b6 9644     		add	lr, lr, r2
 448              	.LVL67:
 372:Drivers/CMSIS/DSP/Source/FilteringFunctions/arm_correlate_fast_q31.c **** 
 373:Drivers/CMSIS/DSP/Source/FilteringFunctions/arm_correlate_fast_q31.c ****         /* Reuse the present samples for the next MAC */
 374:Drivers/CMSIS/DSP/Source/FilteringFunctions/arm_correlate_fast_q31.c ****         x0 = x1;
 449              		.loc 1 374 9 is_stmt 1 view .LVU163
 375:Drivers/CMSIS/DSP/Source/FilteringFunctions/arm_correlate_fast_q31.c ****         x1 = x2;
 450              		.loc 1 375 9 view .LVU164
 376:Drivers/CMSIS/DSP/Source/FilteringFunctions/arm_correlate_fast_q31.c ****         x2 = x3;
 451              		.loc 1 376 9 view .LVU165
 377:Drivers/CMSIS/DSP/Source/FilteringFunctions/arm_correlate_fast_q31.c **** 
 378:Drivers/CMSIS/DSP/Source/FilteringFunctions/arm_correlate_fast_q31.c ****         /* Decrement the loop counter */
 379:Drivers/CMSIS/DSP/Source/FilteringFunctions/arm_correlate_fast_q31.c ****         k--;
 452              		.loc 1 379 9 view .LVU166
 453              		.loc 1 379 10 is_stmt 0 view .LVU167
 454 01b8 013B     		subs	r3, r3, #1
 455              	.LVL68:
 374:Drivers/CMSIS/DSP/Source/FilteringFunctions/arm_correlate_fast_q31.c ****         x1 = x2;
 456              		.loc 1 374 12 view .LVU168
 457 01ba 0246     		mov	r2, r0
 375:Drivers/CMSIS/DSP/Source/FilteringFunctions/arm_correlate_fast_q31.c ****         x2 = x3;
 458              		.loc 1 375 12 view .LVU169
 459 01bc 0846     		mov	r0, r1
 460              	.LVL69:
 376:Drivers/CMSIS/DSP/Source/FilteringFunctions/arm_correlate_fast_q31.c **** 
 461              		.loc 1 376 12 view .LVU170
 462 01be 2946     		mov	r1, r5
 463              	.LVL70:
 358:Drivers/CMSIS/DSP/Source/FilteringFunctions/arm_correlate_fast_q31.c **** 
 464              		.loc 1 358 18 view .LVU171
 465 01c0 4C46     		mov	r4, r9
 361:Drivers/CMSIS/DSP/Source/FilteringFunctions/arm_correlate_fast_q31.c **** 
 466              		.loc 1 361 18 view .LVU172
 467 01c2 3D46     		mov	r5, r7
 468              	.LVL71:
 469              	.L13:
 355:Drivers/CMSIS/DSP/Source/FilteringFunctions/arm_correlate_fast_q31.c ****       {
 470              		.loc 1 355 16 is_stmt 1 view .LVU173
 471 01c4 002B     		cmp	r3, #0
 472 01c6 C9D1     		bne	.L14
 380:Drivers/CMSIS/DSP/Source/FilteringFunctions/arm_correlate_fast_q31.c ****       }
 381:Drivers/CMSIS/DSP/Source/FilteringFunctions/arm_correlate_fast_q31.c **** 
 382:Drivers/CMSIS/DSP/Source/FilteringFunctions/arm_correlate_fast_q31.c ****       /* Store the result in the accumulator in the destination buffer. */
 383:Drivers/CMSIS/DSP/Source/FilteringFunctions/arm_correlate_fast_q31.c ****       *pOut = (q31_t) (acc0 << 1);
 473              		.loc 1 383 15 is_stmt 0 view .LVU174
 474 01c8 089C     		ldr	r4, [sp, #32]
 475              	.LVL72:
 476              		.loc 1 383 15 view .LVU175
 477 01ca 6346     		mov	r3, ip
 478              	.LVL73:
 479              		.loc 1 383 15 view .LVU176
 480 01cc 009E     		ldr	r6, [sp]
ARM GAS  /tmp/ccj2uHfG.s 			page 17


 481              		.loc 1 383 7 is_stmt 1 view .LVU177
 482              		.loc 1 383 15 is_stmt 0 view .LVU178
 483 01ce 029A     		ldr	r2, [sp, #8]
 484              	.LVL74:
 485              		.loc 1 383 15 view .LVU179
 486 01d0 5200     		lsls	r2, r2, #1
 487              		.loc 1 383 13 view .LVU180
 488 01d2 2260     		str	r2, [r4]
 384:Drivers/CMSIS/DSP/Source/FilteringFunctions/arm_correlate_fast_q31.c ****       /* Destination pointer is updated according to the address modifier, inc */
 385:Drivers/CMSIS/DSP/Source/FilteringFunctions/arm_correlate_fast_q31.c ****       pOut += inc;
 489              		.loc 1 385 7 is_stmt 1 view .LVU181
 490              	.LVL75:
 386:Drivers/CMSIS/DSP/Source/FilteringFunctions/arm_correlate_fast_q31.c **** 
 387:Drivers/CMSIS/DSP/Source/FilteringFunctions/arm_correlate_fast_q31.c ****       *pOut = (q31_t) (acc1 << 1);
 491              		.loc 1 387 7 view .LVU182
 492              		.loc 1 387 15 is_stmt 0 view .LVU183
 493 01d4 5B00     		lsls	r3, r3, #1
 494              		.loc 1 387 13 view .LVU184
 495 01d6 44F82630 		str	r3, [r4, r6, lsl #2]
 388:Drivers/CMSIS/DSP/Source/FilteringFunctions/arm_correlate_fast_q31.c ****       pOut += inc;
 496              		.loc 1 388 7 is_stmt 1 view .LVU185
 497              		.loc 1 388 12 is_stmt 0 view .LVU186
 498 01da 04EBC602 		add	r2, r4, r6, lsl #3
 499              	.LVL76:
 389:Drivers/CMSIS/DSP/Source/FilteringFunctions/arm_correlate_fast_q31.c **** 
 390:Drivers/CMSIS/DSP/Source/FilteringFunctions/arm_correlate_fast_q31.c ****       *pOut = (q31_t) (acc2 << 1);
 500              		.loc 1 390 7 is_stmt 1 view .LVU187
 501              		.loc 1 390 15 is_stmt 0 view .LVU188
 502 01de 4FEA4803 		lsl	r3, r8, #1
 503              		.loc 1 390 13 view .LVU189
 504 01e2 44F83630 		str	r3, [r4, r6, lsl #3]
 391:Drivers/CMSIS/DSP/Source/FilteringFunctions/arm_correlate_fast_q31.c ****       pOut += inc;
 505              		.loc 1 391 7 is_stmt 1 view .LVU190
 506              	.LVL77:
 392:Drivers/CMSIS/DSP/Source/FilteringFunctions/arm_correlate_fast_q31.c **** 
 393:Drivers/CMSIS/DSP/Source/FilteringFunctions/arm_correlate_fast_q31.c ****       *pOut = (q31_t) (acc3 << 1);
 507              		.loc 1 393 7 view .LVU191
 508              		.loc 1 393 15 is_stmt 0 view .LVU192
 509 01e6 4FEA4E03 		lsl	r3, lr, #1
 510              		.loc 1 393 13 view .LVU193
 511 01ea 42F82630 		str	r3, [r2, r6, lsl #2]
 394:Drivers/CMSIS/DSP/Source/FilteringFunctions/arm_correlate_fast_q31.c ****       pOut += inc;
 512              		.loc 1 394 7 is_stmt 1 view .LVU194
 513              		.loc 1 394 12 is_stmt 0 view .LVU195
 514 01ee 02EBC604 		add	r4, r2, r6, lsl #3
 515              	.LVL78:
 395:Drivers/CMSIS/DSP/Source/FilteringFunctions/arm_correlate_fast_q31.c **** 
 396:Drivers/CMSIS/DSP/Source/FilteringFunctions/arm_correlate_fast_q31.c ****       /* Increment the pointer pIn1 index, count by 4 */
 397:Drivers/CMSIS/DSP/Source/FilteringFunctions/arm_correlate_fast_q31.c ****       count += 4U;
 516              		.loc 1 397 7 is_stmt 1 view .LVU196
 517              		.loc 1 397 13 is_stmt 0 view .LVU197
 518 01f2 069B     		ldr	r3, [sp, #24]
 519 01f4 0433     		adds	r3, r3, #4
 520 01f6 0693     		str	r3, [sp, #24]
 521              	.LVL79:
 398:Drivers/CMSIS/DSP/Source/FilteringFunctions/arm_correlate_fast_q31.c **** 
 399:Drivers/CMSIS/DSP/Source/FilteringFunctions/arm_correlate_fast_q31.c ****       /* Update the inputA and inputB pointers for next MAC calculation */
ARM GAS  /tmp/ccj2uHfG.s 			page 18


 400:Drivers/CMSIS/DSP/Source/FilteringFunctions/arm_correlate_fast_q31.c ****       px = pIn1 + count;
 522              		.loc 1 400 7 is_stmt 1 view .LVU198
 523              		.loc 1 400 10 is_stmt 0 view .LVU199
 524 01f8 049A     		ldr	r2, [sp, #16]
 525 01fa 02EB8301 		add	r1, r2, r3, lsl #2
 526              	.LVL80:
 401:Drivers/CMSIS/DSP/Source/FilteringFunctions/arm_correlate_fast_q31.c ****       py = pIn2;
 527              		.loc 1 401 7 is_stmt 1 view .LVU200
 402:Drivers/CMSIS/DSP/Source/FilteringFunctions/arm_correlate_fast_q31.c **** 
 403:Drivers/CMSIS/DSP/Source/FilteringFunctions/arm_correlate_fast_q31.c **** 
 404:Drivers/CMSIS/DSP/Source/FilteringFunctions/arm_correlate_fast_q31.c ****       /* Decrement the loop counter */
 405:Drivers/CMSIS/DSP/Source/FilteringFunctions/arm_correlate_fast_q31.c ****       blkCnt--;
 528              		.loc 1 405 7 view .LVU201
 529              		.loc 1 405 13 is_stmt 0 view .LVU202
 530 01fe 059B     		ldr	r3, [sp, #20]
 531              	.LVL81:
 532              		.loc 1 405 13 view .LVU203
 533 0200 013B     		subs	r3, r3, #1
 534 0202 0593     		str	r3, [sp, #20]
 535              	.LVL82:
 536              	.L11:
 264:Drivers/CMSIS/DSP/Source/FilteringFunctions/arm_correlate_fast_q31.c ****     {
 537              		.loc 1 264 19 is_stmt 1 view .LVU204
 538 0204 059B     		ldr	r3, [sp, #20]
 539 0206 002B     		cmp	r3, #0
 540 0208 00F0CF80 		beq	.L35
 267:Drivers/CMSIS/DSP/Source/FilteringFunctions/arm_correlate_fast_q31.c ****       acc1 = 0;
 541              		.loc 1 267 7 view .LVU205
 542              	.LVL83:
 268:Drivers/CMSIS/DSP/Source/FilteringFunctions/arm_correlate_fast_q31.c ****       acc2 = 0;
 543              		.loc 1 268 7 view .LVU206
 269:Drivers/CMSIS/DSP/Source/FilteringFunctions/arm_correlate_fast_q31.c ****       acc3 = 0;
 544              		.loc 1 269 7 view .LVU207
 270:Drivers/CMSIS/DSP/Source/FilteringFunctions/arm_correlate_fast_q31.c **** 
 545              		.loc 1 270 7 view .LVU208
 273:Drivers/CMSIS/DSP/Source/FilteringFunctions/arm_correlate_fast_q31.c ****       x1 = *(px++);
 546              		.loc 1 273 7 view .LVU209
 273:Drivers/CMSIS/DSP/Source/FilteringFunctions/arm_correlate_fast_q31.c ****       x1 = *(px++);
 547              		.loc 1 273 10 is_stmt 0 view .LVU210
 548 020c 0A68     		ldr	r2, [r1]
 549              	.LVL84:
 274:Drivers/CMSIS/DSP/Source/FilteringFunctions/arm_correlate_fast_q31.c ****       x2 = *(px++);
 550              		.loc 1 274 7 is_stmt 1 view .LVU211
 274:Drivers/CMSIS/DSP/Source/FilteringFunctions/arm_correlate_fast_q31.c ****       x2 = *(px++);
 551              		.loc 1 274 10 is_stmt 0 view .LVU212
 552 020e 4868     		ldr	r0, [r1, #4]
 553              	.LVL85:
 275:Drivers/CMSIS/DSP/Source/FilteringFunctions/arm_correlate_fast_q31.c **** 
 554              		.loc 1 275 7 is_stmt 1 view .LVU213
 275:Drivers/CMSIS/DSP/Source/FilteringFunctions/arm_correlate_fast_q31.c **** 
 555              		.loc 1 275 16 is_stmt 0 view .LVU214
 556 0210 01F10C03 		add	r3, r1, #12
 557 0214 0093     		str	r3, [sp]
 558              	.LVL86:
 275:Drivers/CMSIS/DSP/Source/FilteringFunctions/arm_correlate_fast_q31.c **** 
 559              		.loc 1 275 10 view .LVU215
 560 0216 8968     		ldr	r1, [r1, #8]
ARM GAS  /tmp/ccj2uHfG.s 			page 19


 561              	.LVL87:
 278:Drivers/CMSIS/DSP/Source/FilteringFunctions/arm_correlate_fast_q31.c **** 
 562              		.loc 1 278 7 is_stmt 1 view .LVU216
 278:Drivers/CMSIS/DSP/Source/FilteringFunctions/arm_correlate_fast_q31.c **** 
 563              		.loc 1 278 9 is_stmt 0 view .LVU217
 564 0218 079B     		ldr	r3, [sp, #28]
 565              	.LVL88:
 278:Drivers/CMSIS/DSP/Source/FilteringFunctions/arm_correlate_fast_q31.c **** 
 566              		.loc 1 278 9 view .LVU218
 567 021a 9B08     		lsrs	r3, r3, #2
 568 021c 0293     		str	r3, [sp, #8]
 569              	.LVL89:
 278:Drivers/CMSIS/DSP/Source/FilteringFunctions/arm_correlate_fast_q31.c **** 
 570              		.loc 1 278 9 view .LVU219
 571 021e 039B     		ldr	r3, [sp, #12]
 572              	.LVL90:
 278:Drivers/CMSIS/DSP/Source/FilteringFunctions/arm_correlate_fast_q31.c **** 
 573              		.loc 1 278 9 view .LVU220
 574 0220 0193     		str	r3, [sp, #4]
 270:Drivers/CMSIS/DSP/Source/FilteringFunctions/arm_correlate_fast_q31.c **** 
 575              		.loc 1 270 12 view .LVU221
 576 0222 4FF0000E 		mov	lr, #0
 269:Drivers/CMSIS/DSP/Source/FilteringFunctions/arm_correlate_fast_q31.c ****       acc3 = 0;
 577              		.loc 1 269 12 view .LVU222
 578 0226 F046     		mov	r8, lr
 268:Drivers/CMSIS/DSP/Source/FilteringFunctions/arm_correlate_fast_q31.c ****       acc2 = 0;
 579              		.loc 1 268 12 view .LVU223
 580 0228 7346     		mov	r3, lr
 267:Drivers/CMSIS/DSP/Source/FilteringFunctions/arm_correlate_fast_q31.c ****       acc1 = 0;
 581              		.loc 1 267 12 view .LVU224
 582 022a 7746     		mov	r7, lr
 583 022c 0894     		str	r4, [sp, #32]
 584 022e 0996     		str	r6, [sp, #36]
 585              	.LVL91:
 586              	.L12:
 282:Drivers/CMSIS/DSP/Source/FilteringFunctions/arm_correlate_fast_q31.c ****       {
 587              		.loc 1 282 7 is_stmt 1 view .LVU225
 285:Drivers/CMSIS/DSP/Source/FilteringFunctions/arm_correlate_fast_q31.c **** 
 588              		.loc 1 285 9 view .LVU226
 285:Drivers/CMSIS/DSP/Source/FilteringFunctions/arm_correlate_fast_q31.c **** 
 589              		.loc 1 285 12 is_stmt 0 view .LVU227
 590 0230 019C     		ldr	r4, [sp, #4]
 591 0232 2468     		ldr	r4, [r4]
 592              	.LVL92:
 288:Drivers/CMSIS/DSP/Source/FilteringFunctions/arm_correlate_fast_q31.c **** 
 593              		.loc 1 288 9 is_stmt 1 view .LVU228
 288:Drivers/CMSIS/DSP/Source/FilteringFunctions/arm_correlate_fast_q31.c **** 
 594              		.loc 1 288 12 is_stmt 0 view .LVU229
 595 0234 009D     		ldr	r5, [sp]
 596 0236 2D68     		ldr	r5, [r5]
 597              	.LVL93:
 292:Drivers/CMSIS/DSP/Source/FilteringFunctions/arm_correlate_fast_q31.c ****         /* acc1 +=  x[1] * y[0] */
 598              		.loc 1 292 9 is_stmt 1 view .LVU230
 292:Drivers/CMSIS/DSP/Source/FilteringFunctions/arm_correlate_fast_q31.c ****         /* acc1 +=  x[1] * y[0] */
 599              		.loc 1 292 50 is_stmt 0 view .LVU231
 600 0238 4FEAE27C 		asr	ip, r2, #31
 292:Drivers/CMSIS/DSP/Source/FilteringFunctions/arm_correlate_fast_q31.c ****         /* acc1 +=  x[1] * y[0] */
ARM GAS  /tmp/ccj2uHfG.s 			page 20


 601              		.loc 1 292 61 view .LVU232
 602 023c E617     		asrs	r6, r4, #31
 603 023e 02FB06F9 		mul	r9, r2, r6
 604 0242 04FB0C99 		mla	r9, r4, ip, r9
 605 0246 A2FB042C 		umull	r2, ip, r2, r4
 606              	.LVL94:
 292:Drivers/CMSIS/DSP/Source/FilteringFunctions/arm_correlate_fast_q31.c ****         /* acc1 +=  x[1] * y[0] */
 607              		.loc 1 292 61 view .LVU233
 608 024a E144     		add	r9, r9, ip
 292:Drivers/CMSIS/DSP/Source/FilteringFunctions/arm_correlate_fast_q31.c ****         /* acc1 +=  x[1] * y[0] */
 609              		.loc 1 292 47 view .LVU234
 610 024c B944     		add	r9, r9, r7
 611              	.LVL95:
 294:Drivers/CMSIS/DSP/Source/FilteringFunctions/arm_correlate_fast_q31.c ****         /* acc2 +=  x[2] * y[0] */
 612              		.loc 1 294 9 is_stmt 1 view .LVU235
 294:Drivers/CMSIS/DSP/Source/FilteringFunctions/arm_correlate_fast_q31.c ****         /* acc2 +=  x[2] * y[0] */
 613              		.loc 1 294 50 is_stmt 0 view .LVU236
 614 024e 4FEAE07A 		asr	r10, r0, #31
 294:Drivers/CMSIS/DSP/Source/FilteringFunctions/arm_correlate_fast_q31.c ****         /* acc2 +=  x[2] * y[0] */
 615              		.loc 1 294 61 view .LVU237
 616 0252 04FB0AF2 		mul	r2, r4, r10
 617 0256 00FB0622 		mla	r2, r0, r6, r2
 618 025a A4FB00C7 		umull	ip, r7, r4, r0
 619 025e 3A44     		add	r2, r2, r7
 294:Drivers/CMSIS/DSP/Source/FilteringFunctions/arm_correlate_fast_q31.c ****         /* acc2 +=  x[2] * y[0] */
 620              		.loc 1 294 47 view .LVU238
 621 0260 1344     		add	r3, r3, r2
 622              	.LVL96:
 296:Drivers/CMSIS/DSP/Source/FilteringFunctions/arm_correlate_fast_q31.c ****         /* acc3 +=  x[3] * y[0] */
 623              		.loc 1 296 9 is_stmt 1 view .LVU239
 296:Drivers/CMSIS/DSP/Source/FilteringFunctions/arm_correlate_fast_q31.c ****         /* acc3 +=  x[3] * y[0] */
 624              		.loc 1 296 50 is_stmt 0 view .LVU240
 625 0262 4FEAE17C 		asr	ip, r1, #31
 296:Drivers/CMSIS/DSP/Source/FilteringFunctions/arm_correlate_fast_q31.c ****         /* acc3 +=  x[3] * y[0] */
 626              		.loc 1 296 61 view .LVU241
 627 0266 04FB0CF2 		mul	r2, r4, ip
 628 026a 01FB0622 		mla	r2, r1, r6, r2
 629 026e A4FB01B7 		umull	fp, r7, r4, r1
 630 0272 3A44     		add	r2, r2, r7
 296:Drivers/CMSIS/DSP/Source/FilteringFunctions/arm_correlate_fast_q31.c ****         /* acc3 +=  x[3] * y[0] */
 631              		.loc 1 296 47 view .LVU242
 632 0274 9044     		add	r8, r8, r2
 633              	.LVL97:
 298:Drivers/CMSIS/DSP/Source/FilteringFunctions/arm_correlate_fast_q31.c **** 
 634              		.loc 1 298 9 is_stmt 1 view .LVU243
 298:Drivers/CMSIS/DSP/Source/FilteringFunctions/arm_correlate_fast_q31.c **** 
 635              		.loc 1 298 50 is_stmt 0 view .LVU244
 636 0276 EF17     		asrs	r7, r5, #31
 298:Drivers/CMSIS/DSP/Source/FilteringFunctions/arm_correlate_fast_q31.c **** 
 637              		.loc 1 298 61 view .LVU245
 638 0278 04FB07F2 		mul	r2, r4, r7
 639 027c 05FB0622 		mla	r2, r5, r6, r2
 640 0280 A4FB0546 		umull	r4, r6, r4, r5
 641              	.LVL98:
 298:Drivers/CMSIS/DSP/Source/FilteringFunctions/arm_correlate_fast_q31.c **** 
 642              		.loc 1 298 61 view .LVU246
 643 0284 3244     		add	r2, r2, r6
ARM GAS  /tmp/ccj2uHfG.s 			page 21


 298:Drivers/CMSIS/DSP/Source/FilteringFunctions/arm_correlate_fast_q31.c **** 
 644              		.loc 1 298 47 view .LVU247
 645 0286 9644     		add	lr, lr, r2
 646              	.LVL99:
 301:Drivers/CMSIS/DSP/Source/FilteringFunctions/arm_correlate_fast_q31.c **** 
 647              		.loc 1 301 9 is_stmt 1 view .LVU248
 301:Drivers/CMSIS/DSP/Source/FilteringFunctions/arm_correlate_fast_q31.c **** 
 648              		.loc 1 301 12 is_stmt 0 view .LVU249
 649 0288 019C     		ldr	r4, [sp, #4]
 650 028a 6468     		ldr	r4, [r4, #4]
 651              	.LVL100:
 304:Drivers/CMSIS/DSP/Source/FilteringFunctions/arm_correlate_fast_q31.c **** 
 652              		.loc 1 304 9 is_stmt 1 view .LVU250
 304:Drivers/CMSIS/DSP/Source/FilteringFunctions/arm_correlate_fast_q31.c **** 
 653              		.loc 1 304 12 is_stmt 0 view .LVU251
 654 028c 009A     		ldr	r2, [sp]
 655 028e 5268     		ldr	r2, [r2, #4]
 656              	.LVL101:
 308:Drivers/CMSIS/DSP/Source/FilteringFunctions/arm_correlate_fast_q31.c ****         /* acc1 +=  x[2] * y[1] */
 657              		.loc 1 308 9 is_stmt 1 view .LVU252
 308:Drivers/CMSIS/DSP/Source/FilteringFunctions/arm_correlate_fast_q31.c ****         /* acc1 +=  x[2] * y[1] */
 658              		.loc 1 308 61 is_stmt 0 view .LVU253
 659 0290 4FEAE47B 		asr	fp, r4, #31
 660 0294 00FB0BF6 		mul	r6, r0, fp
 661 0298 04FB0A66 		mla	r6, r4, r10, r6
 662 029c A0FB040A 		umull	r0, r10, r0, r4
 663              	.LVL102:
 308:Drivers/CMSIS/DSP/Source/FilteringFunctions/arm_correlate_fast_q31.c ****         /* acc1 +=  x[2] * y[1] */
 664              		.loc 1 308 61 view .LVU254
 665 02a0 5644     		add	r6, r6, r10
 308:Drivers/CMSIS/DSP/Source/FilteringFunctions/arm_correlate_fast_q31.c ****         /* acc1 +=  x[2] * y[1] */
 666              		.loc 1 308 47 view .LVU255
 667 02a2 4E44     		add	r6, r6, r9
 310:Drivers/CMSIS/DSP/Source/FilteringFunctions/arm_correlate_fast_q31.c ****         /* acc2 +=  x[3] * y[1] */
 668              		.loc 1 310 9 is_stmt 1 view .LVU256
 310:Drivers/CMSIS/DSP/Source/FilteringFunctions/arm_correlate_fast_q31.c ****         /* acc2 +=  x[3] * y[1] */
 669              		.loc 1 310 61 is_stmt 0 view .LVU257
 670 02a4 01FB0BF0 		mul	r0, r1, fp
 671 02a8 04FB0C00 		mla	r0, r4, ip, r0
 672 02ac A1FB04A9 		umull	r10, r9, r1, r4
 673 02b0 4844     		add	r0, r0, r9
 310:Drivers/CMSIS/DSP/Source/FilteringFunctions/arm_correlate_fast_q31.c ****         /* acc2 +=  x[3] * y[1] */
 674              		.loc 1 310 47 view .LVU258
 675 02b2 0344     		add	r3, r3, r0
 312:Drivers/CMSIS/DSP/Source/FilteringFunctions/arm_correlate_fast_q31.c ****         /* acc3 +=  x[4] * y[1] */
 676              		.loc 1 312 9 is_stmt 1 view .LVU259
 312:Drivers/CMSIS/DSP/Source/FilteringFunctions/arm_correlate_fast_q31.c ****         /* acc3 +=  x[4] * y[1] */
 677              		.loc 1 312 61 is_stmt 0 view .LVU260
 678 02b4 05FB0BF9 		mul	r9, r5, fp
 679 02b8 04FB0799 		mla	r9, r4, r7, r9
 680 02bc A5FB04A0 		umull	r10, r0, r5, r4
 681 02c0 8144     		add	r9, r9, r0
 312:Drivers/CMSIS/DSP/Source/FilteringFunctions/arm_correlate_fast_q31.c ****         /* acc3 +=  x[4] * y[1] */
 682              		.loc 1 312 47 view .LVU261
 683 02c2 C144     		add	r9, r9, r8
 314:Drivers/CMSIS/DSP/Source/FilteringFunctions/arm_correlate_fast_q31.c **** 
 684              		.loc 1 314 9 is_stmt 1 view .LVU262
ARM GAS  /tmp/ccj2uHfG.s 			page 22


 314:Drivers/CMSIS/DSP/Source/FilteringFunctions/arm_correlate_fast_q31.c **** 
 685              		.loc 1 314 50 is_stmt 0 view .LVU263
 686 02c4 4FEAE278 		asr	r8, r2, #31
 314:Drivers/CMSIS/DSP/Source/FilteringFunctions/arm_correlate_fast_q31.c **** 
 687              		.loc 1 314 61 view .LVU264
 688 02c8 04FB08F0 		mul	r0, r4, r8
 689 02cc 02FB0B00 		mla	r0, r2, fp, r0
 690 02d0 A4FB024A 		umull	r4, r10, r4, r2
 691              	.LVL103:
 314:Drivers/CMSIS/DSP/Source/FilteringFunctions/arm_correlate_fast_q31.c **** 
 692              		.loc 1 314 61 view .LVU265
 693 02d4 5044     		add	r0, r0, r10
 314:Drivers/CMSIS/DSP/Source/FilteringFunctions/arm_correlate_fast_q31.c **** 
 694              		.loc 1 314 47 view .LVU266
 695 02d6 8644     		add	lr, lr, r0
 317:Drivers/CMSIS/DSP/Source/FilteringFunctions/arm_correlate_fast_q31.c **** 
 696              		.loc 1 317 9 is_stmt 1 view .LVU267
 697              	.LVL104:
 317:Drivers/CMSIS/DSP/Source/FilteringFunctions/arm_correlate_fast_q31.c **** 
 698              		.loc 1 317 12 is_stmt 0 view .LVU268
 699 02d8 019C     		ldr	r4, [sp, #4]
 700 02da A468     		ldr	r4, [r4, #8]
 701              	.LVL105:
 320:Drivers/CMSIS/DSP/Source/FilteringFunctions/arm_correlate_fast_q31.c **** 
 702              		.loc 1 320 9 is_stmt 1 view .LVU269
 320:Drivers/CMSIS/DSP/Source/FilteringFunctions/arm_correlate_fast_q31.c **** 
 703              		.loc 1 320 12 is_stmt 0 view .LVU270
 704 02dc 0098     		ldr	r0, [sp]
 705 02de 8068     		ldr	r0, [r0, #8]
 706              	.LVL106:
 324:Drivers/CMSIS/DSP/Source/FilteringFunctions/arm_correlate_fast_q31.c ****         /* acc1 +=  x[3] * y[2] */
 707              		.loc 1 324 9 is_stmt 1 view .LVU271
 324:Drivers/CMSIS/DSP/Source/FilteringFunctions/arm_correlate_fast_q31.c ****         /* acc1 +=  x[3] * y[2] */
 708              		.loc 1 324 61 is_stmt 0 view .LVU272
 709 02e0 4FEAE47A 		asr	r10, r4, #31
 710 02e4 01FB0AFB 		mul	fp, r1, r10
 711 02e8 04FB0CBC 		mla	ip, r4, ip, fp
 712 02ec A1FB041B 		umull	r1, fp, r1, r4
 713              	.LVL107:
 324:Drivers/CMSIS/DSP/Source/FilteringFunctions/arm_correlate_fast_q31.c ****         /* acc1 +=  x[3] * y[2] */
 714              		.loc 1 324 61 view .LVU273
 715 02f0 DC44     		add	ip, ip, fp
 324:Drivers/CMSIS/DSP/Source/FilteringFunctions/arm_correlate_fast_q31.c ****         /* acc1 +=  x[3] * y[2] */
 716              		.loc 1 324 47 view .LVU274
 717 02f2 B444     		add	ip, ip, r6
 326:Drivers/CMSIS/DSP/Source/FilteringFunctions/arm_correlate_fast_q31.c ****         /* acc2 +=  x[4] * y[2] */
 718              		.loc 1 326 9 is_stmt 1 view .LVU275
 326:Drivers/CMSIS/DSP/Source/FilteringFunctions/arm_correlate_fast_q31.c ****         /* acc2 +=  x[4] * y[2] */
 719              		.loc 1 326 61 is_stmt 0 view .LVU276
 720 02f4 05FB0AFB 		mul	fp, r5, r10
 721 02f8 04FB07BB 		mla	fp, r4, r7, fp
 722 02fc A5FB0461 		umull	r6, r1, r5, r4
 723 0300 8B44     		add	fp, fp, r1
 326:Drivers/CMSIS/DSP/Source/FilteringFunctions/arm_correlate_fast_q31.c ****         /* acc2 +=  x[4] * y[2] */
 724              		.loc 1 326 47 view .LVU277
 725 0302 9B44     		add	fp, fp, r3
 328:Drivers/CMSIS/DSP/Source/FilteringFunctions/arm_correlate_fast_q31.c ****         /* acc3 +=  x[5] * y[2] */
ARM GAS  /tmp/ccj2uHfG.s 			page 23


 726              		.loc 1 328 9 is_stmt 1 view .LVU278
 328:Drivers/CMSIS/DSP/Source/FilteringFunctions/arm_correlate_fast_q31.c ****         /* acc3 +=  x[5] * y[2] */
 727              		.loc 1 328 61 is_stmt 0 view .LVU279
 728 0304 02FB0AF6 		mul	r6, r2, r10
 729 0308 04FB0866 		mla	r6, r4, r8, r6
 730 030c A2FB0413 		umull	r1, r3, r2, r4
 731 0310 1E44     		add	r6, r6, r3
 328:Drivers/CMSIS/DSP/Source/FilteringFunctions/arm_correlate_fast_q31.c ****         /* acc3 +=  x[5] * y[2] */
 732              		.loc 1 328 47 view .LVU280
 733 0312 4E44     		add	r6, r6, r9
 330:Drivers/CMSIS/DSP/Source/FilteringFunctions/arm_correlate_fast_q31.c **** 
 734              		.loc 1 330 9 is_stmt 1 view .LVU281
 330:Drivers/CMSIS/DSP/Source/FilteringFunctions/arm_correlate_fast_q31.c **** 
 735              		.loc 1 330 50 is_stmt 0 view .LVU282
 736 0314 4FEAE079 		asr	r9, r0, #31
 330:Drivers/CMSIS/DSP/Source/FilteringFunctions/arm_correlate_fast_q31.c **** 
 737              		.loc 1 330 61 view .LVU283
 738 0318 04FB09F3 		mul	r3, r4, r9
 739 031c 00FB0A33 		mla	r3, r0, r10, r3
 740 0320 A4FB0041 		umull	r4, r1, r4, r0
 741              	.LVL108:
 330:Drivers/CMSIS/DSP/Source/FilteringFunctions/arm_correlate_fast_q31.c **** 
 742              		.loc 1 330 61 view .LVU284
 743 0324 0B44     		add	r3, r3, r1
 330:Drivers/CMSIS/DSP/Source/FilteringFunctions/arm_correlate_fast_q31.c **** 
 744              		.loc 1 330 47 view .LVU285
 745 0326 9E44     		add	lr, lr, r3
 333:Drivers/CMSIS/DSP/Source/FilteringFunctions/arm_correlate_fast_q31.c **** 
 746              		.loc 1 333 9 is_stmt 1 view .LVU286
 747 0328 0199     		ldr	r1, [sp, #4]
 748 032a 0B46     		mov	r3, r1
 749              	.LVL109:
 333:Drivers/CMSIS/DSP/Source/FilteringFunctions/arm_correlate_fast_q31.c **** 
 750              		.loc 1 333 12 is_stmt 0 view .LVU287
 751 032c CC68     		ldr	r4, [r1, #12]
 752 032e 1033     		adds	r3, r3, #16
 753 0330 0193     		str	r3, [sp, #4]
 754              	.LVL110:
 336:Drivers/CMSIS/DSP/Source/FilteringFunctions/arm_correlate_fast_q31.c **** 
 755              		.loc 1 336 9 is_stmt 1 view .LVU288
 756 0332 DDF800A0 		ldr	r10, [sp]
 757 0336 5346     		mov	r3, r10
 758              	.LVL111:
 336:Drivers/CMSIS/DSP/Source/FilteringFunctions/arm_correlate_fast_q31.c **** 
 759              		.loc 1 336 12 is_stmt 0 view .LVU289
 760 0338 DAF80C10 		ldr	r1, [r10, #12]
 761              	.LVL112:
 336:Drivers/CMSIS/DSP/Source/FilteringFunctions/arm_correlate_fast_q31.c **** 
 762              		.loc 1 336 12 view .LVU290
 763 033c 1033     		adds	r3, r3, #16
 764 033e 0093     		str	r3, [sp]
 765              	.LVL113:
 340:Drivers/CMSIS/DSP/Source/FilteringFunctions/arm_correlate_fast_q31.c ****         /* acc1 +=  x[4] * y[3] */
 766              		.loc 1 340 9 is_stmt 1 view .LVU291
 340:Drivers/CMSIS/DSP/Source/FilteringFunctions/arm_correlate_fast_q31.c ****         /* acc1 +=  x[4] * y[3] */
 767              		.loc 1 340 61 is_stmt 0 view .LVU292
 768 0340 4FEAE47A 		asr	r10, r4, #31
ARM GAS  /tmp/ccj2uHfG.s 			page 24


 769              	.LVL114:
 340:Drivers/CMSIS/DSP/Source/FilteringFunctions/arm_correlate_fast_q31.c ****         /* acc1 +=  x[4] * y[3] */
 770              		.loc 1 340 61 view .LVU293
 771 0344 05FB0AF3 		mul	r3, r5, r10
 772              	.LVL115:
 340:Drivers/CMSIS/DSP/Source/FilteringFunctions/arm_correlate_fast_q31.c ****         /* acc1 +=  x[4] * y[3] */
 773              		.loc 1 340 61 view .LVU294
 774 0348 04FB0733 		mla	r3, r4, r7, r3
 775 034c A5FB0457 		umull	r5, r7, r5, r4
 776              	.LVL116:
 340:Drivers/CMSIS/DSP/Source/FilteringFunctions/arm_correlate_fast_q31.c ****         /* acc1 +=  x[4] * y[3] */
 777              		.loc 1 340 61 view .LVU295
 778 0350 3B44     		add	r3, r3, r7
 340:Drivers/CMSIS/DSP/Source/FilteringFunctions/arm_correlate_fast_q31.c ****         /* acc1 +=  x[4] * y[3] */
 779              		.loc 1 340 14 view .LVU296
 780 0352 0CEB0307 		add	r7, ip, r3
 781              	.LVL117:
 342:Drivers/CMSIS/DSP/Source/FilteringFunctions/arm_correlate_fast_q31.c ****         /* acc2 +=  x[5] * y[3] */
 782              		.loc 1 342 9 is_stmt 1 view .LVU297
 342:Drivers/CMSIS/DSP/Source/FilteringFunctions/arm_correlate_fast_q31.c ****         /* acc2 +=  x[5] * y[3] */
 783              		.loc 1 342 61 is_stmt 0 view .LVU298
 784 0356 02FB0AF3 		mul	r3, r2, r10
 785 035a 04FB0833 		mla	r3, r4, r8, r3
 786 035e A2FB04C5 		umull	ip, r5, r2, r4
 787 0362 2B44     		add	r3, r3, r5
 342:Drivers/CMSIS/DSP/Source/FilteringFunctions/arm_correlate_fast_q31.c ****         /* acc2 +=  x[5] * y[3] */
 788              		.loc 1 342 14 view .LVU299
 789 0364 5B44     		add	r3, r3, fp
 790              	.LVL118:
 344:Drivers/CMSIS/DSP/Source/FilteringFunctions/arm_correlate_fast_q31.c ****         /* acc3 +=  x[6] * y[3] */
 791              		.loc 1 344 9 is_stmt 1 view .LVU300
 344:Drivers/CMSIS/DSP/Source/FilteringFunctions/arm_correlate_fast_q31.c ****         /* acc3 +=  x[6] * y[3] */
 792              		.loc 1 344 61 is_stmt 0 view .LVU301
 793 0366 00FB0AF8 		mul	r8, r0, r10
 794 036a 04FB0988 		mla	r8, r4, r9, r8
 795 036e A0FB04C5 		umull	ip, r5, r0, r4
 796 0372 A844     		add	r8, r8, r5
 344:Drivers/CMSIS/DSP/Source/FilteringFunctions/arm_correlate_fast_q31.c ****         /* acc3 +=  x[6] * y[3] */
 797              		.loc 1 344 14 view .LVU302
 798 0374 B044     		add	r8, r8, r6
 799              	.LVL119:
 346:Drivers/CMSIS/DSP/Source/FilteringFunctions/arm_correlate_fast_q31.c **** 
 800              		.loc 1 346 9 is_stmt 1 view .LVU303
 346:Drivers/CMSIS/DSP/Source/FilteringFunctions/arm_correlate_fast_q31.c **** 
 801              		.loc 1 346 50 is_stmt 0 view .LVU304
 802 0376 CD17     		asrs	r5, r1, #31
 346:Drivers/CMSIS/DSP/Source/FilteringFunctions/arm_correlate_fast_q31.c **** 
 803              		.loc 1 346 61 view .LVU305
 804 0378 04FB05F5 		mul	r5, r4, r5
 805 037c 01FB0A55 		mla	r5, r1, r10, r5
 806 0380 A4FB0146 		umull	r4, r6, r4, r1
 807              	.LVL120:
 346:Drivers/CMSIS/DSP/Source/FilteringFunctions/arm_correlate_fast_q31.c **** 
 808              		.loc 1 346 61 view .LVU306
 809 0384 3544     		add	r5, r5, r6
 346:Drivers/CMSIS/DSP/Source/FilteringFunctions/arm_correlate_fast_q31.c **** 
 810              		.loc 1 346 14 view .LVU307
ARM GAS  /tmp/ccj2uHfG.s 			page 25


 811 0386 AE44     		add	lr, lr, r5
 812              	.LVL121:
 349:Drivers/CMSIS/DSP/Source/FilteringFunctions/arm_correlate_fast_q31.c **** 
 813              		.loc 1 349 16 is_stmt 1 discriminator 1 view .LVU308
 349:Drivers/CMSIS/DSP/Source/FilteringFunctions/arm_correlate_fast_q31.c **** 
 814              		.loc 1 349 16 is_stmt 0 discriminator 1 view .LVU309
 815 0388 029C     		ldr	r4, [sp, #8]
 816 038a 013C     		subs	r4, r4, #1
 817              	.LVL122:
 349:Drivers/CMSIS/DSP/Source/FilteringFunctions/arm_correlate_fast_q31.c **** 
 818              		.loc 1 349 16 discriminator 1 view .LVU310
 819 038c 0294     		str	r4, [sp, #8]
 820 038e 7FF44FAF 		bne	.L12
 353:Drivers/CMSIS/DSP/Source/FilteringFunctions/arm_correlate_fast_q31.c **** 
 821              		.loc 1 353 9 view .LVU311
 822 0392 0297     		str	r7, [sp, #8]
 823 0394 099E     		ldr	r6, [sp, #36]
 353:Drivers/CMSIS/DSP/Source/FilteringFunctions/arm_correlate_fast_q31.c **** 
 824              		.loc 1 353 7 is_stmt 1 view .LVU312
 353:Drivers/CMSIS/DSP/Source/FilteringFunctions/arm_correlate_fast_q31.c **** 
 825              		.loc 1 353 9 is_stmt 0 view .LVU313
 826 0396 079D     		ldr	r5, [sp, #28]
 827 0398 05F0030C 		and	ip, r5, #3
 828              	.LVL123:
 355:Drivers/CMSIS/DSP/Source/FilteringFunctions/arm_correlate_fast_q31.c ****       {
 829              		.loc 1 355 7 is_stmt 1 view .LVU314
 830 039c 009D     		ldr	r5, [sp]
 831 039e 019C     		ldr	r4, [sp, #4]
 832 03a0 6746     		mov	r7, ip
 833              	.LVL124:
 355:Drivers/CMSIS/DSP/Source/FilteringFunctions/arm_correlate_fast_q31.c ****       {
 834              		.loc 1 355 7 is_stmt 0 view .LVU315
 835 03a2 9C46     		mov	ip, r3
 836              	.LVL125:
 355:Drivers/CMSIS/DSP/Source/FilteringFunctions/arm_correlate_fast_q31.c ****       {
 837              		.loc 1 355 7 view .LVU316
 838 03a4 0096     		str	r6, [sp]
 839              	.LVL126:
 355:Drivers/CMSIS/DSP/Source/FilteringFunctions/arm_correlate_fast_q31.c ****       {
 840              		.loc 1 355 7 view .LVU317
 841 03a6 3B46     		mov	r3, r7
 842              	.LVL127:
 355:Drivers/CMSIS/DSP/Source/FilteringFunctions/arm_correlate_fast_q31.c ****       {
 843              		.loc 1 355 13 view .LVU318
 844 03a8 0CE7     		b	.L13
 845              	.LVL128:
 846              	.L35:
 406:Drivers/CMSIS/DSP/Source/FilteringFunctions/arm_correlate_fast_q31.c ****     }
 407:Drivers/CMSIS/DSP/Source/FilteringFunctions/arm_correlate_fast_q31.c **** 
 408:Drivers/CMSIS/DSP/Source/FilteringFunctions/arm_correlate_fast_q31.c ****     /* If the blockSize2 is not a multiple of 4, compute any remaining output samples here.
 409:Drivers/CMSIS/DSP/Source/FilteringFunctions/arm_correlate_fast_q31.c ****      ** No loop unrolling is used. */
 410:Drivers/CMSIS/DSP/Source/FilteringFunctions/arm_correlate_fast_q31.c ****     blkCnt = blockSize2 % 0x4U;
 847              		.loc 1 410 12 view .LVU319
 848 03aa A246     		mov	r10, r4
 849 03ac 0698     		ldr	r0, [sp, #24]
 850 03ae 0A9B     		ldr	r3, [sp, #40]
 851              	.LVL129:
ARM GAS  /tmp/ccj2uHfG.s 			page 26


 852              		.loc 1 410 12 view .LVU320
 853 03b0 3446     		mov	r4, r6
 854              	.LVL130:
 855              		.loc 1 410 12 view .LVU321
 856 03b2 DDF82C90 		ldr	r9, [sp, #44]
 857 03b6 DDF81CB0 		ldr	fp, [sp, #28]
 858              		.loc 1 410 5 is_stmt 1 view .LVU322
 859              		.loc 1 410 12 is_stmt 0 view .LVU323
 860 03ba 09F0030C 		and	ip, r9, #3
 861              	.LVL131:
 411:Drivers/CMSIS/DSP/Source/FilteringFunctions/arm_correlate_fast_q31.c **** 
 412:Drivers/CMSIS/DSP/Source/FilteringFunctions/arm_correlate_fast_q31.c ****     while (blkCnt > 0U)
 862              		.loc 1 412 5 is_stmt 1 view .LVU324
 863 03be CDF800A0 		str	r10, [sp]
 864 03c2 0190     		str	r0, [sp, #4]
 865 03c4 9E46     		mov	lr, r3
 866 03c6 6646     		mov	r6, ip
 867 03c8 DDF810C0 		ldr	ip, [sp, #16]
 868              	.LVL132:
 869              		.loc 1 412 11 is_stmt 0 view .LVU325
 870 03cc 5DE0     		b	.L16
 871              	.LVL133:
 872              	.L18:
 413:Drivers/CMSIS/DSP/Source/FilteringFunctions/arm_correlate_fast_q31.c ****     {
 414:Drivers/CMSIS/DSP/Source/FilteringFunctions/arm_correlate_fast_q31.c ****       /* Accumulator is made zero for every iteration */
 415:Drivers/CMSIS/DSP/Source/FilteringFunctions/arm_correlate_fast_q31.c ****       sum = 0;
 416:Drivers/CMSIS/DSP/Source/FilteringFunctions/arm_correlate_fast_q31.c **** 
 417:Drivers/CMSIS/DSP/Source/FilteringFunctions/arm_correlate_fast_q31.c ****       /* Apply loop unrolling and compute 4 MACs simultaneously. */
 418:Drivers/CMSIS/DSP/Source/FilteringFunctions/arm_correlate_fast_q31.c ****       k = srcBLen >> 2U;
 419:Drivers/CMSIS/DSP/Source/FilteringFunctions/arm_correlate_fast_q31.c **** 
 420:Drivers/CMSIS/DSP/Source/FilteringFunctions/arm_correlate_fast_q31.c ****       /* First part of the processing with loop unrolling.  Compute 4 MACs at a time.
 421:Drivers/CMSIS/DSP/Source/FilteringFunctions/arm_correlate_fast_q31.c ****        ** a second loop below computes MACs for the remaining 1 to 3 samples. */
 422:Drivers/CMSIS/DSP/Source/FilteringFunctions/arm_correlate_fast_q31.c ****       while (k > 0U)
 423:Drivers/CMSIS/DSP/Source/FilteringFunctions/arm_correlate_fast_q31.c ****       {
 424:Drivers/CMSIS/DSP/Source/FilteringFunctions/arm_correlate_fast_q31.c ****         /* Perform the multiply-accumulates */
 425:Drivers/CMSIS/DSP/Source/FilteringFunctions/arm_correlate_fast_q31.c ****         sum = (q31_t) ((((q63_t) sum << 32) +
 873              		.loc 1 425 9 is_stmt 1 view .LVU326
 426:Drivers/CMSIS/DSP/Source/FilteringFunctions/arm_correlate_fast_q31.c ****                         ((q63_t) * px++ * (*py++))) >> 32);
 874              		.loc 1 426 34 is_stmt 0 view .LVU327
 875 03ce 0F68     		ldr	r7, [r1]
 876              		.loc 1 426 26 view .LVU328
 877 03d0 4FEAE77A 		asr	r10, r7, #31
 878              	.LVL134:
 879              		.loc 1 426 44 view .LVU329
 880 03d4 1568     		ldr	r5, [r2]
 881 03d6 E817     		asrs	r0, r5, #31
 882              		.loc 1 426 41 view .LVU330
 883 03d8 07FB00F0 		mul	r0, r7, r0
 884 03dc 05FB0A00 		mla	r0, r5, r10, r0
 885 03e0 A7FB0575 		umull	r7, r5, r7, r5
 886 03e4 2844     		add	r0, r0, r5
 425:Drivers/CMSIS/DSP/Source/FilteringFunctions/arm_correlate_fast_q31.c ****                         ((q63_t) * px++ * (*py++))) >> 32);
 887              		.loc 1 425 45 view .LVU331
 888 03e6 0344     		add	r3, r3, r0
 889              	.LVL135:
 427:Drivers/CMSIS/DSP/Source/FilteringFunctions/arm_correlate_fast_q31.c ****         sum = (q31_t) ((((q63_t) sum << 32) +
 890              		.loc 1 427 9 is_stmt 1 view .LVU332
ARM GAS  /tmp/ccj2uHfG.s 			page 27


 428:Drivers/CMSIS/DSP/Source/FilteringFunctions/arm_correlate_fast_q31.c ****                         ((q63_t) * px++ * (*py++))) >> 32);
 891              		.loc 1 428 34 is_stmt 0 view .LVU333
 892 03e8 4F68     		ldr	r7, [r1, #4]
 893              		.loc 1 428 26 view .LVU334
 894 03ea 4FEAE77A 		asr	r10, r7, #31
 895              	.LVL136:
 896              		.loc 1 428 44 view .LVU335
 897 03ee 5568     		ldr	r5, [r2, #4]
 898 03f0 E817     		asrs	r0, r5, #31
 899              		.loc 1 428 41 view .LVU336
 900 03f2 07FB00F0 		mul	r0, r7, r0
 901 03f6 05FB0A00 		mla	r0, r5, r10, r0
 902 03fa A7FB0575 		umull	r7, r5, r7, r5
 903 03fe 2844     		add	r0, r0, r5
 427:Drivers/CMSIS/DSP/Source/FilteringFunctions/arm_correlate_fast_q31.c ****         sum = (q31_t) ((((q63_t) sum << 32) +
 904              		.loc 1 427 45 view .LVU337
 905 0400 0344     		add	r3, r3, r0
 429:Drivers/CMSIS/DSP/Source/FilteringFunctions/arm_correlate_fast_q31.c ****         sum = (q31_t) ((((q63_t) sum << 32) +
 906              		.loc 1 429 9 is_stmt 1 view .LVU338
 907              	.LVL137:
 430:Drivers/CMSIS/DSP/Source/FilteringFunctions/arm_correlate_fast_q31.c ****                         ((q63_t) * px++ * (*py++))) >> 32);
 908              		.loc 1 430 34 is_stmt 0 view .LVU339
 909 0402 8F68     		ldr	r7, [r1, #8]
 910              		.loc 1 430 26 view .LVU340
 911 0404 4FEAE77A 		asr	r10, r7, #31
 912              	.LVL138:
 913              		.loc 1 430 44 view .LVU341
 914 0408 9568     		ldr	r5, [r2, #8]
 915 040a E817     		asrs	r0, r5, #31
 916              		.loc 1 430 41 view .LVU342
 917 040c 07FB00F0 		mul	r0, r7, r0
 918 0410 05FB0A00 		mla	r0, r5, r10, r0
 919 0414 A7FB0575 		umull	r7, r5, r7, r5
 920 0418 2844     		add	r0, r0, r5
 429:Drivers/CMSIS/DSP/Source/FilteringFunctions/arm_correlate_fast_q31.c ****         sum = (q31_t) ((((q63_t) sum << 32) +
 921              		.loc 1 429 45 view .LVU343
 922 041a 1844     		add	r0, r0, r3
 431:Drivers/CMSIS/DSP/Source/FilteringFunctions/arm_correlate_fast_q31.c ****         sum = (q31_t) ((((q63_t) sum << 32) +
 923              		.loc 1 431 9 is_stmt 1 view .LVU344
 924              	.LVL139:
 432:Drivers/CMSIS/DSP/Source/FilteringFunctions/arm_correlate_fast_q31.c ****                         ((q63_t) * px++ * (*py++))) >> 32);
 925              		.loc 1 432 34 is_stmt 0 view .LVU345
 926 041c CF68     		ldr	r7, [r1, #12]
 927              		.loc 1 432 26 view .LVU346
 928 041e 4FEAE77A 		asr	r10, r7, #31
 929              	.LVL140:
 930              		.loc 1 432 44 view .LVU347
 931 0422 D568     		ldr	r5, [r2, #12]
 932 0424 EB17     		asrs	r3, r5, #31
 933              		.loc 1 432 41 view .LVU348
 934 0426 07FB03F3 		mul	r3, r7, r3
 935 042a 05FB0A33 		mla	r3, r5, r10, r3
 936 042e A7FB0575 		umull	r7, r5, r7, r5
 937 0432 2B44     		add	r3, r3, r5
 431:Drivers/CMSIS/DSP/Source/FilteringFunctions/arm_correlate_fast_q31.c ****         sum = (q31_t) ((((q63_t) sum << 32) +
 938              		.loc 1 431 13 view .LVU349
 939 0434 0344     		add	r3, r3, r0
ARM GAS  /tmp/ccj2uHfG.s 			page 28


 940              	.LVL141:
 433:Drivers/CMSIS/DSP/Source/FilteringFunctions/arm_correlate_fast_q31.c **** 
 434:Drivers/CMSIS/DSP/Source/FilteringFunctions/arm_correlate_fast_q31.c ****         /* Decrement the loop counter */
 435:Drivers/CMSIS/DSP/Source/FilteringFunctions/arm_correlate_fast_q31.c ****         k--;
 941              		.loc 1 435 9 is_stmt 1 view .LVU350
 942              		.loc 1 435 10 is_stmt 0 view .LVU351
 943 0436 013C     		subs	r4, r4, #1
 944              	.LVL142:
 432:Drivers/CMSIS/DSP/Source/FilteringFunctions/arm_correlate_fast_q31.c ****                         ((q63_t) * px++ * (*py++))) >> 32);
 945              		.loc 1 432 47 view .LVU352
 946 0438 1032     		adds	r2, r2, #16
 947              	.LVL143:
 432:Drivers/CMSIS/DSP/Source/FilteringFunctions/arm_correlate_fast_q31.c ****                         ((q63_t) * px++ * (*py++))) >> 32);
 948              		.loc 1 432 38 view .LVU353
 949 043a 1031     		adds	r1, r1, #16
 950              	.LVL144:
 951              	.L17:
 422:Drivers/CMSIS/DSP/Source/FilteringFunctions/arm_correlate_fast_q31.c ****       {
 952              		.loc 1 422 16 is_stmt 1 view .LVU354
 953 043c 002C     		cmp	r4, #0
 954 043e C6D1     		bne	.L18
 436:Drivers/CMSIS/DSP/Source/FilteringFunctions/arm_correlate_fast_q31.c ****       }
 437:Drivers/CMSIS/DSP/Source/FilteringFunctions/arm_correlate_fast_q31.c **** 
 438:Drivers/CMSIS/DSP/Source/FilteringFunctions/arm_correlate_fast_q31.c ****       /* If the srcBLen is not a multiple of 4, compute any remaining MACs here.
 439:Drivers/CMSIS/DSP/Source/FilteringFunctions/arm_correlate_fast_q31.c ****        ** No loop unrolling is used. */
 440:Drivers/CMSIS/DSP/Source/FilteringFunctions/arm_correlate_fast_q31.c ****       k = srcBLen % 0x4U;
 955              		.loc 1 440 9 is_stmt 0 view .LVU355
 956 0440 4446     		mov	r4, r8
 957              	.LVL145:
 958              		.loc 1 440 7 is_stmt 1 view .LVU356
 959              		.loc 1 440 9 is_stmt 0 view .LVU357
 960 0442 0BF00307 		and	r7, fp, #3
 961              	.LVL146:
 441:Drivers/CMSIS/DSP/Source/FilteringFunctions/arm_correlate_fast_q31.c **** 
 442:Drivers/CMSIS/DSP/Source/FilteringFunctions/arm_correlate_fast_q31.c ****       while (k > 0U)
 962              		.loc 1 442 7 is_stmt 1 view .LVU358
 963 0446 9846     		mov	r8, r3
 964 0448 3B46     		mov	r3, r7
 965              	.LVL147:
 966              		.loc 1 442 13 is_stmt 0 view .LVU359
 967 044a 0FE0     		b	.L19
 968              	.LVL148:
 969              	.L20:
 443:Drivers/CMSIS/DSP/Source/FilteringFunctions/arm_correlate_fast_q31.c ****       {
 444:Drivers/CMSIS/DSP/Source/FilteringFunctions/arm_correlate_fast_q31.c ****         /* Perform the multiply-accumulate */
 445:Drivers/CMSIS/DSP/Source/FilteringFunctions/arm_correlate_fast_q31.c ****         sum = (q31_t) ((((q63_t) sum << 32) +
 970              		.loc 1 445 9 is_stmt 1 view .LVU360
 446:Drivers/CMSIS/DSP/Source/FilteringFunctions/arm_correlate_fast_q31.c ****                         ((q63_t) * px++ * (*py++))) >> 32);
 971              		.loc 1 446 34 is_stmt 0 view .LVU361
 972 044c 51F8047B 		ldr	r7, [r1], #4
 973              	.LVL149:
 974              		.loc 1 446 26 view .LVU362
 975 0450 4FEAE77A 		asr	r10, r7, #31
 976              	.LVL150:
 977              		.loc 1 446 44 view .LVU363
 978 0454 52F8045B 		ldr	r5, [r2], #4
 979              	.LVL151:
ARM GAS  /tmp/ccj2uHfG.s 			page 29


 980              		.loc 1 446 44 view .LVU364
 981 0458 E817     		asrs	r0, r5, #31
 982              		.loc 1 446 41 view .LVU365
 983 045a 07FB00F0 		mul	r0, r7, r0
 984 045e 05FB0A00 		mla	r0, r5, r10, r0
 985 0462 A7FB0575 		umull	r7, r5, r7, r5
 986 0466 2844     		add	r0, r0, r5
 445:Drivers/CMSIS/DSP/Source/FilteringFunctions/arm_correlate_fast_q31.c ****                         ((q63_t) * px++ * (*py++))) >> 32);
 987              		.loc 1 445 13 view .LVU366
 988 0468 8044     		add	r8, r8, r0
 989              	.LVL152:
 447:Drivers/CMSIS/DSP/Source/FilteringFunctions/arm_correlate_fast_q31.c **** 
 448:Drivers/CMSIS/DSP/Source/FilteringFunctions/arm_correlate_fast_q31.c ****         /* Decrement the loop counter */
 449:Drivers/CMSIS/DSP/Source/FilteringFunctions/arm_correlate_fast_q31.c ****         k--;
 990              		.loc 1 449 9 is_stmt 1 view .LVU367
 991              		.loc 1 449 10 is_stmt 0 view .LVU368
 992 046a 013B     		subs	r3, r3, #1
 993              	.LVL153:
 994              	.L19:
 442:Drivers/CMSIS/DSP/Source/FilteringFunctions/arm_correlate_fast_q31.c ****       {
 995              		.loc 1 442 16 is_stmt 1 view .LVU369
 996 046c 002B     		cmp	r3, #0
 997 046e EDD1     		bne	.L20
 450:Drivers/CMSIS/DSP/Source/FilteringFunctions/arm_correlate_fast_q31.c ****       }
 451:Drivers/CMSIS/DSP/Source/FilteringFunctions/arm_correlate_fast_q31.c **** 
 452:Drivers/CMSIS/DSP/Source/FilteringFunctions/arm_correlate_fast_q31.c ****       /* Store the result in the accumulator in the destination buffer. */
 453:Drivers/CMSIS/DSP/Source/FilteringFunctions/arm_correlate_fast_q31.c ****       *pOut = sum << 1;
 998              		.loc 1 453 19 is_stmt 0 view .LVU370
 999 0470 4346     		mov	r3, r8
 1000              	.LVL154:
 1001              		.loc 1 453 7 is_stmt 1 view .LVU371
 1002              		.loc 1 453 19 is_stmt 0 view .LVU372
 1003 0472 5B00     		lsls	r3, r3, #1
 1004              		.loc 1 453 13 view .LVU373
 1005 0474 009A     		ldr	r2, [sp]
 1006              	.LVL155:
 1007              		.loc 1 453 13 view .LVU374
 1008 0476 1360     		str	r3, [r2]
 454:Drivers/CMSIS/DSP/Source/FilteringFunctions/arm_correlate_fast_q31.c ****       /* Destination pointer is updated according to the address modifier, inc */
 455:Drivers/CMSIS/DSP/Source/FilteringFunctions/arm_correlate_fast_q31.c ****       pOut += inc;
 1009              		.loc 1 455 7 is_stmt 1 view .LVU375
 1010              		.loc 1 455 12 is_stmt 0 view .LVU376
 1011 0478 02EB8403 		add	r3, r2, r4, lsl #2
 1012 047c 0093     		str	r3, [sp]
 1013              	.LVL156:
 456:Drivers/CMSIS/DSP/Source/FilteringFunctions/arm_correlate_fast_q31.c **** 
 457:Drivers/CMSIS/DSP/Source/FilteringFunctions/arm_correlate_fast_q31.c ****       /* Increment the MAC count */
 458:Drivers/CMSIS/DSP/Source/FilteringFunctions/arm_correlate_fast_q31.c ****       count++;
 1014              		.loc 1 458 7 is_stmt 1 view .LVU377
 1015              		.loc 1 458 12 is_stmt 0 view .LVU378
 1016 047e 019B     		ldr	r3, [sp, #4]
 1017              	.LVL157:
 1018              		.loc 1 458 12 view .LVU379
 1019 0480 0133     		adds	r3, r3, #1
 1020 0482 0193     		str	r3, [sp, #4]
 1021              	.LVL158:
 459:Drivers/CMSIS/DSP/Source/FilteringFunctions/arm_correlate_fast_q31.c **** 
ARM GAS  /tmp/ccj2uHfG.s 			page 30


 460:Drivers/CMSIS/DSP/Source/FilteringFunctions/arm_correlate_fast_q31.c ****       /* Update the inputA and inputB pointers for next MAC calculation */
 461:Drivers/CMSIS/DSP/Source/FilteringFunctions/arm_correlate_fast_q31.c ****       px = pIn1 + count;
 1022              		.loc 1 461 7 is_stmt 1 view .LVU380
 1023              		.loc 1 461 10 is_stmt 0 view .LVU381
 1024 0484 0CEB8301 		add	r1, ip, r3, lsl #2
 1025              	.LVL159:
 462:Drivers/CMSIS/DSP/Source/FilteringFunctions/arm_correlate_fast_q31.c ****       py = pIn2;
 1026              		.loc 1 462 7 is_stmt 1 view .LVU382
 463:Drivers/CMSIS/DSP/Source/FilteringFunctions/arm_correlate_fast_q31.c **** 
 464:Drivers/CMSIS/DSP/Source/FilteringFunctions/arm_correlate_fast_q31.c **** 
 465:Drivers/CMSIS/DSP/Source/FilteringFunctions/arm_correlate_fast_q31.c ****       /* Decrement the loop counter */
 466:Drivers/CMSIS/DSP/Source/FilteringFunctions/arm_correlate_fast_q31.c ****       blkCnt--;
 1027              		.loc 1 466 7 view .LVU383
 1028              		.loc 1 466 13 is_stmt 0 view .LVU384
 1029 0488 013E     		subs	r6, r6, #1
 1030              	.LVL160:
 1031              	.L16:
 412:Drivers/CMSIS/DSP/Source/FilteringFunctions/arm_correlate_fast_q31.c ****     {
 1032              		.loc 1 412 19 is_stmt 1 view .LVU385
 1033 048a 36B1     		cbz	r6, .L36
 415:Drivers/CMSIS/DSP/Source/FilteringFunctions/arm_correlate_fast_q31.c **** 
 1034              		.loc 1 415 7 view .LVU386
 1035              	.LVL161:
 418:Drivers/CMSIS/DSP/Source/FilteringFunctions/arm_correlate_fast_q31.c **** 
 1036              		.loc 1 418 7 view .LVU387
 418:Drivers/CMSIS/DSP/Source/FilteringFunctions/arm_correlate_fast_q31.c **** 
 1037              		.loc 1 418 9 is_stmt 0 view .LVU388
 1038 048c 4FEA9B07 		lsr	r7, fp, #2
 1039              	.LVL162:
 422:Drivers/CMSIS/DSP/Source/FilteringFunctions/arm_correlate_fast_q31.c ****       {
 1040              		.loc 1 422 7 is_stmt 1 view .LVU389
 422:Drivers/CMSIS/DSP/Source/FilteringFunctions/arm_correlate_fast_q31.c ****       {
 1041              		.loc 1 422 13 is_stmt 0 view .LVU390
 1042 0490 039A     		ldr	r2, [sp, #12]
 415:Drivers/CMSIS/DSP/Source/FilteringFunctions/arm_correlate_fast_q31.c **** 
 1043              		.loc 1 415 11 view .LVU391
 1044 0492 0023     		movs	r3, #0
 1045 0494 A046     		mov	r8, r4
 1046 0496 3C46     		mov	r4, r7
 422:Drivers/CMSIS/DSP/Source/FilteringFunctions/arm_correlate_fast_q31.c ****       {
 1047              		.loc 1 422 13 view .LVU392
 1048 0498 D0E7     		b	.L17
 1049              	.LVL163:
 1050              	.L36:
 422:Drivers/CMSIS/DSP/Source/FilteringFunctions/arm_correlate_fast_q31.c ****       {
 1051              		.loc 1 422 13 view .LVU393
 1052 049a DDF800A0 		ldr	r10, [sp]
 1053 049e 7346     		mov	r3, lr
 1054              	.LVL164:
 1055              	.L22:
 467:Drivers/CMSIS/DSP/Source/FilteringFunctions/arm_correlate_fast_q31.c ****     }
 468:Drivers/CMSIS/DSP/Source/FilteringFunctions/arm_correlate_fast_q31.c ****   }
 469:Drivers/CMSIS/DSP/Source/FilteringFunctions/arm_correlate_fast_q31.c ****   else
 470:Drivers/CMSIS/DSP/Source/FilteringFunctions/arm_correlate_fast_q31.c ****   {
 471:Drivers/CMSIS/DSP/Source/FilteringFunctions/arm_correlate_fast_q31.c ****     /* If the srcBLen is not a multiple of 4,
 472:Drivers/CMSIS/DSP/Source/FilteringFunctions/arm_correlate_fast_q31.c ****      * the blockSize2 loop cannot be unrolled by 4 */
 473:Drivers/CMSIS/DSP/Source/FilteringFunctions/arm_correlate_fast_q31.c ****     blkCnt = blockSize2;
ARM GAS  /tmp/ccj2uHfG.s 			page 31


 474:Drivers/CMSIS/DSP/Source/FilteringFunctions/arm_correlate_fast_q31.c **** 
 475:Drivers/CMSIS/DSP/Source/FilteringFunctions/arm_correlate_fast_q31.c ****     while (blkCnt > 0U)
 476:Drivers/CMSIS/DSP/Source/FilteringFunctions/arm_correlate_fast_q31.c ****     {
 477:Drivers/CMSIS/DSP/Source/FilteringFunctions/arm_correlate_fast_q31.c ****       /* Accumulator is made zero for every iteration */
 478:Drivers/CMSIS/DSP/Source/FilteringFunctions/arm_correlate_fast_q31.c ****       sum = 0;
 479:Drivers/CMSIS/DSP/Source/FilteringFunctions/arm_correlate_fast_q31.c **** 
 480:Drivers/CMSIS/DSP/Source/FilteringFunctions/arm_correlate_fast_q31.c ****       /* Loop over srcBLen */
 481:Drivers/CMSIS/DSP/Source/FilteringFunctions/arm_correlate_fast_q31.c ****       k = srcBLen;
 482:Drivers/CMSIS/DSP/Source/FilteringFunctions/arm_correlate_fast_q31.c **** 
 483:Drivers/CMSIS/DSP/Source/FilteringFunctions/arm_correlate_fast_q31.c ****       while (k > 0U)
 484:Drivers/CMSIS/DSP/Source/FilteringFunctions/arm_correlate_fast_q31.c ****       {
 485:Drivers/CMSIS/DSP/Source/FilteringFunctions/arm_correlate_fast_q31.c ****         /* Perform the multiply-accumulate */
 486:Drivers/CMSIS/DSP/Source/FilteringFunctions/arm_correlate_fast_q31.c ****         sum = (q31_t) ((((q63_t) sum << 32) +
 487:Drivers/CMSIS/DSP/Source/FilteringFunctions/arm_correlate_fast_q31.c ****                         ((q63_t) * px++ * (*py++))) >> 32);
 488:Drivers/CMSIS/DSP/Source/FilteringFunctions/arm_correlate_fast_q31.c **** 
 489:Drivers/CMSIS/DSP/Source/FilteringFunctions/arm_correlate_fast_q31.c ****         /* Decrement the loop counter */
 490:Drivers/CMSIS/DSP/Source/FilteringFunctions/arm_correlate_fast_q31.c ****         k--;
 491:Drivers/CMSIS/DSP/Source/FilteringFunctions/arm_correlate_fast_q31.c ****       }
 492:Drivers/CMSIS/DSP/Source/FilteringFunctions/arm_correlate_fast_q31.c **** 
 493:Drivers/CMSIS/DSP/Source/FilteringFunctions/arm_correlate_fast_q31.c ****       /* Store the result in the accumulator in the destination buffer. */
 494:Drivers/CMSIS/DSP/Source/FilteringFunctions/arm_correlate_fast_q31.c ****       *pOut = sum << 1;
 495:Drivers/CMSIS/DSP/Source/FilteringFunctions/arm_correlate_fast_q31.c ****       /* Destination pointer is updated according to the address modifier, inc */
 496:Drivers/CMSIS/DSP/Source/FilteringFunctions/arm_correlate_fast_q31.c ****       pOut += inc;
 497:Drivers/CMSIS/DSP/Source/FilteringFunctions/arm_correlate_fast_q31.c **** 
 498:Drivers/CMSIS/DSP/Source/FilteringFunctions/arm_correlate_fast_q31.c ****       /* Increment the MAC count */
 499:Drivers/CMSIS/DSP/Source/FilteringFunctions/arm_correlate_fast_q31.c ****       count++;
 500:Drivers/CMSIS/DSP/Source/FilteringFunctions/arm_correlate_fast_q31.c **** 
 501:Drivers/CMSIS/DSP/Source/FilteringFunctions/arm_correlate_fast_q31.c ****       /* Update the inputA and inputB pointers for next MAC calculation */
 502:Drivers/CMSIS/DSP/Source/FilteringFunctions/arm_correlate_fast_q31.c ****       px = pIn1 + count;
 503:Drivers/CMSIS/DSP/Source/FilteringFunctions/arm_correlate_fast_q31.c ****       py = pIn2;
 504:Drivers/CMSIS/DSP/Source/FilteringFunctions/arm_correlate_fast_q31.c **** 
 505:Drivers/CMSIS/DSP/Source/FilteringFunctions/arm_correlate_fast_q31.c ****       /* Decrement the loop counter */
 506:Drivers/CMSIS/DSP/Source/FilteringFunctions/arm_correlate_fast_q31.c ****       blkCnt--;
 507:Drivers/CMSIS/DSP/Source/FilteringFunctions/arm_correlate_fast_q31.c ****     }
 508:Drivers/CMSIS/DSP/Source/FilteringFunctions/arm_correlate_fast_q31.c ****   }
 509:Drivers/CMSIS/DSP/Source/FilteringFunctions/arm_correlate_fast_q31.c **** 
 510:Drivers/CMSIS/DSP/Source/FilteringFunctions/arm_correlate_fast_q31.c ****   /* --------------------------
 511:Drivers/CMSIS/DSP/Source/FilteringFunctions/arm_correlate_fast_q31.c ****    * Initializations of stage3
 512:Drivers/CMSIS/DSP/Source/FilteringFunctions/arm_correlate_fast_q31.c ****    * -------------------------*/
 513:Drivers/CMSIS/DSP/Source/FilteringFunctions/arm_correlate_fast_q31.c **** 
 514:Drivers/CMSIS/DSP/Source/FilteringFunctions/arm_correlate_fast_q31.c ****   /* sum += x[srcALen-srcBLen+1] * y[0] + x[srcALen-srcBLen+2] * y[1] +...+ x[srcALen-1] * y[srcBLe
 515:Drivers/CMSIS/DSP/Source/FilteringFunctions/arm_correlate_fast_q31.c ****    * sum += x[srcALen-srcBLen+2] * y[0] + x[srcALen-srcBLen+3] * y[1] +...+ x[srcALen-1] * y[srcBLe
 516:Drivers/CMSIS/DSP/Source/FilteringFunctions/arm_correlate_fast_q31.c ****    * ....
 517:Drivers/CMSIS/DSP/Source/FilteringFunctions/arm_correlate_fast_q31.c ****    * sum +=  x[srcALen-2] * y[0] + x[srcALen-1] * y[1]
 518:Drivers/CMSIS/DSP/Source/FilteringFunctions/arm_correlate_fast_q31.c ****    * sum +=  x[srcALen-1] * y[0]
 519:Drivers/CMSIS/DSP/Source/FilteringFunctions/arm_correlate_fast_q31.c ****    */
 520:Drivers/CMSIS/DSP/Source/FilteringFunctions/arm_correlate_fast_q31.c **** 
 521:Drivers/CMSIS/DSP/Source/FilteringFunctions/arm_correlate_fast_q31.c ****   /* In this stage the MAC operations are decreased by 1 for every iteration.
 522:Drivers/CMSIS/DSP/Source/FilteringFunctions/arm_correlate_fast_q31.c ****      The count variable holds the number of MAC operations performed */
 523:Drivers/CMSIS/DSP/Source/FilteringFunctions/arm_correlate_fast_q31.c ****   count = srcBLen - 1U;
 1056              		.loc 1 523 3 is_stmt 1 view .LVU394
 524:Drivers/CMSIS/DSP/Source/FilteringFunctions/arm_correlate_fast_q31.c **** 
 525:Drivers/CMSIS/DSP/Source/FilteringFunctions/arm_correlate_fast_q31.c ****   /* Working pointer of inputA */
 526:Drivers/CMSIS/DSP/Source/FilteringFunctions/arm_correlate_fast_q31.c ****   pSrc1 = ((pIn1 + srcALen) - srcBLen) + 1U;
 1057              		.loc 1 526 3 view .LVU395
 1058              		.loc 1 526 9 is_stmt 0 view .LVU396
 1059 04a0 049A     		ldr	r2, [sp, #16]
ARM GAS  /tmp/ccj2uHfG.s 			page 32


 1060 04a2 02EB8907 		add	r7, r2, r9, lsl #2
 1061              	.LVL165:
 527:Drivers/CMSIS/DSP/Source/FilteringFunctions/arm_correlate_fast_q31.c ****   px = pSrc1;
 1062              		.loc 1 527 3 is_stmt 1 view .LVU397
 528:Drivers/CMSIS/DSP/Source/FilteringFunctions/arm_correlate_fast_q31.c **** 
 529:Drivers/CMSIS/DSP/Source/FilteringFunctions/arm_correlate_fast_q31.c ****   /* Working pointer of inputB */
 530:Drivers/CMSIS/DSP/Source/FilteringFunctions/arm_correlate_fast_q31.c ****   py = pIn2;
 1063              		.loc 1 530 3 view .LVU398
 531:Drivers/CMSIS/DSP/Source/FilteringFunctions/arm_correlate_fast_q31.c **** 
 532:Drivers/CMSIS/DSP/Source/FilteringFunctions/arm_correlate_fast_q31.c ****   /* -------------------
 533:Drivers/CMSIS/DSP/Source/FilteringFunctions/arm_correlate_fast_q31.c ****    * Stage3 process
 534:Drivers/CMSIS/DSP/Source/FilteringFunctions/arm_correlate_fast_q31.c ****    * ------------------*/
 535:Drivers/CMSIS/DSP/Source/FilteringFunctions/arm_correlate_fast_q31.c **** 
 536:Drivers/CMSIS/DSP/Source/FilteringFunctions/arm_correlate_fast_q31.c ****   while (blockSize3 > 0U)
 1064              		.loc 1 536 3 view .LVU399
 145:Drivers/CMSIS/DSP/Source/FilteringFunctions/arm_correlate_fast_q31.c **** 
 1065              		.loc 1 145 14 is_stmt 0 view .LVU400
 1066 04a6 1E46     		mov	r6, r3
 1067 04a8 A446     		mov	ip, r4
 1068              		.loc 1 536 9 view .LVU401
 1069 04aa 98E0     		b	.L25
 1070              	.LVL166:
 1071              	.L23:
 486:Drivers/CMSIS/DSP/Source/FilteringFunctions/arm_correlate_fast_q31.c ****                         ((q63_t) * px++ * (*py++))) >> 32);
 1072              		.loc 1 486 9 is_stmt 1 view .LVU402
 487:Drivers/CMSIS/DSP/Source/FilteringFunctions/arm_correlate_fast_q31.c **** 
 1073              		.loc 1 487 34 is_stmt 0 view .LVU403
 1074 04ac 55F8041B 		ldr	r1, [r5], #4
 1075              	.LVL167:
 487:Drivers/CMSIS/DSP/Source/FilteringFunctions/arm_correlate_fast_q31.c **** 
 1076              		.loc 1 487 26 view .LVU404
 1077 04b0 4FEAE17E 		asr	lr, r1, #31
 1078              	.LVL168:
 487:Drivers/CMSIS/DSP/Source/FilteringFunctions/arm_correlate_fast_q31.c **** 
 1079              		.loc 1 487 44 view .LVU405
 1080 04b4 56F8047B 		ldr	r7, [r6], #4
 1081              	.LVL169:
 487:Drivers/CMSIS/DSP/Source/FilteringFunctions/arm_correlate_fast_q31.c **** 
 1082              		.loc 1 487 44 view .LVU406
 1083 04b8 FB17     		asrs	r3, r7, #31
 487:Drivers/CMSIS/DSP/Source/FilteringFunctions/arm_correlate_fast_q31.c **** 
 1084              		.loc 1 487 41 view .LVU407
 1085 04ba 01FB03F3 		mul	r3, r1, r3
 1086 04be 07FB0E33 		mla	r3, r7, lr, r3
 1087 04c2 A1FB0717 		umull	r1, r7, r1, r7
 1088 04c6 3B44     		add	r3, r3, r7
 486:Drivers/CMSIS/DSP/Source/FilteringFunctions/arm_correlate_fast_q31.c ****                         ((q63_t) * px++ * (*py++))) >> 32);
 1089              		.loc 1 486 13 view .LVU408
 1090 04c8 9C44     		add	ip, ip, r3
 1091              	.LVL170:
 490:Drivers/CMSIS/DSP/Source/FilteringFunctions/arm_correlate_fast_q31.c ****       }
 1092              		.loc 1 490 9 is_stmt 1 view .LVU409
 490:Drivers/CMSIS/DSP/Source/FilteringFunctions/arm_correlate_fast_q31.c ****       }
 1093              		.loc 1 490 10 is_stmt 0 view .LVU410
 1094 04ca 013A     		subs	r2, r2, #1
 1095              	.LVL171:
 1096              	.L24:
ARM GAS  /tmp/ccj2uHfG.s 			page 33


 483:Drivers/CMSIS/DSP/Source/FilteringFunctions/arm_correlate_fast_q31.c ****       {
 1097              		.loc 1 483 16 is_stmt 1 view .LVU411
 1098 04cc 002A     		cmp	r2, #0
 1099 04ce EDD1     		bne	.L23
 494:Drivers/CMSIS/DSP/Source/FilteringFunctions/arm_correlate_fast_q31.c ****       /* Destination pointer is updated according to the address modifier, inc */
 1100              		.loc 1 494 19 is_stmt 0 view .LVU412
 1101 04d0 DDF804E0 		ldr	lr, [sp, #4]
 1102 04d4 5246     		mov	r2, r10
 1103              	.LVL172:
 494:Drivers/CMSIS/DSP/Source/FilteringFunctions/arm_correlate_fast_q31.c ****       /* Destination pointer is updated according to the address modifier, inc */
 1104              		.loc 1 494 19 view .LVU413
 1105 04d6 DDF800A0 		ldr	r10, [sp]
 1106              	.LVL173:
 494:Drivers/CMSIS/DSP/Source/FilteringFunctions/arm_correlate_fast_q31.c ****       /* Destination pointer is updated according to the address modifier, inc */
 1107              		.loc 1 494 7 is_stmt 1 view .LVU414
 494:Drivers/CMSIS/DSP/Source/FilteringFunctions/arm_correlate_fast_q31.c ****       /* Destination pointer is updated according to the address modifier, inc */
 1108              		.loc 1 494 19 is_stmt 0 view .LVU415
 1109 04da 4FEA4C03 		lsl	r3, ip, #1
 494:Drivers/CMSIS/DSP/Source/FilteringFunctions/arm_correlate_fast_q31.c ****       /* Destination pointer is updated according to the address modifier, inc */
 1110              		.loc 1 494 13 view .LVU416
 1111 04de CAF80030 		str	r3, [r10]
 496:Drivers/CMSIS/DSP/Source/FilteringFunctions/arm_correlate_fast_q31.c **** 
 1112              		.loc 1 496 7 is_stmt 1 view .LVU417
 496:Drivers/CMSIS/DSP/Source/FilteringFunctions/arm_correlate_fast_q31.c **** 
 1113              		.loc 1 496 12 is_stmt 0 view .LVU418
 1114 04e2 0AEB840A 		add	r10, r10, r4, lsl #2
 1115              	.LVL174:
 499:Drivers/CMSIS/DSP/Source/FilteringFunctions/arm_correlate_fast_q31.c **** 
 1116              		.loc 1 499 7 is_stmt 1 view .LVU419
 499:Drivers/CMSIS/DSP/Source/FilteringFunctions/arm_correlate_fast_q31.c **** 
 1117              		.loc 1 499 12 is_stmt 0 view .LVU420
 1118 04e6 0EF1010E 		add	lr, lr, #1
 1119              	.LVL175:
 502:Drivers/CMSIS/DSP/Source/FilteringFunctions/arm_correlate_fast_q31.c ****       py = pIn2;
 1120              		.loc 1 502 7 is_stmt 1 view .LVU421
 502:Drivers/CMSIS/DSP/Source/FilteringFunctions/arm_correlate_fast_q31.c ****       py = pIn2;
 1121              		.loc 1 502 10 is_stmt 0 view .LVU422
 1122 04ea 08EB8E05 		add	r5, r8, lr, lsl #2
 1123              	.LVL176:
 503:Drivers/CMSIS/DSP/Source/FilteringFunctions/arm_correlate_fast_q31.c **** 
 1124              		.loc 1 503 7 is_stmt 1 view .LVU423
 506:Drivers/CMSIS/DSP/Source/FilteringFunctions/arm_correlate_fast_q31.c ****     }
 1125              		.loc 1 506 7 view .LVU424
 506:Drivers/CMSIS/DSP/Source/FilteringFunctions/arm_correlate_fast_q31.c ****     }
 1126              		.loc 1 506 13 is_stmt 0 view .LVU425
 1127 04ee 0138     		subs	r0, r0, #1
 1128              	.LVL177:
 1129              	.L10:
 475:Drivers/CMSIS/DSP/Source/FilteringFunctions/arm_correlate_fast_q31.c ****     {
 1130              		.loc 1 475 19 is_stmt 1 view .LVU426
 1131 04f0 80B1     		cbz	r0, .L37
 1132 04f2 039E     		ldr	r6, [sp, #12]
 478:Drivers/CMSIS/DSP/Source/FilteringFunctions/arm_correlate_fast_q31.c **** 
 1133              		.loc 1 478 11 is_stmt 0 view .LVU427
 1134 04f4 4FF0000C 		mov	ip, #0
 1135 04f8 CDF800A0 		str	r10, [sp]
 1136 04fc CDF804E0 		str	lr, [sp, #4]
ARM GAS  /tmp/ccj2uHfG.s 			page 34


 1137 0500 9246     		mov	r10, r2
 1138              	.LVL178:
 478:Drivers/CMSIS/DSP/Source/FilteringFunctions/arm_correlate_fast_q31.c **** 
 1139              		.loc 1 478 11 view .LVU428
 1140 0502 E3E7     		b	.L24
 1141              	.LVL179:
 1142              	.L31:
 244:Drivers/CMSIS/DSP/Source/FilteringFunctions/arm_correlate_fast_q31.c **** 
 1143              		.loc 1 244 6 view .LVU429
 1144 0504 DDF81080 		ldr	r8, [sp, #16]
 1145 0508 4546     		mov	r5, r8
 1146 050a 8646     		mov	lr, r0
 1147 050c 4846     		mov	r0, r9
 1148              	.LVL180:
 244:Drivers/CMSIS/DSP/Source/FilteringFunctions/arm_correlate_fast_q31.c **** 
 1149              		.loc 1 244 6 view .LVU430
 1150 050e 5A46     		mov	r2, fp
 1151 0510 9B46     		mov	fp, r3
 1152              	.LVL181:
 244:Drivers/CMSIS/DSP/Source/FilteringFunctions/arm_correlate_fast_q31.c **** 
 1153              		.loc 1 244 6 view .LVU431
 1154 0512 EDE7     		b	.L10
 1155              	.LVL182:
 1156              	.L37:
 244:Drivers/CMSIS/DSP/Source/FilteringFunctions/arm_correlate_fast_q31.c **** 
 1157              		.loc 1 244 6 view .LVU432
 1158 0514 5B46     		mov	r3, fp
 1159 0516 C3E7     		b	.L22
 1160              	.LVL183:
 1161              	.L27:
 537:Drivers/CMSIS/DSP/Source/FilteringFunctions/arm_correlate_fast_q31.c ****   {
 538:Drivers/CMSIS/DSP/Source/FilteringFunctions/arm_correlate_fast_q31.c ****     /* Accumulator is made zero for every iteration */
 539:Drivers/CMSIS/DSP/Source/FilteringFunctions/arm_correlate_fast_q31.c ****     sum = 0;
 540:Drivers/CMSIS/DSP/Source/FilteringFunctions/arm_correlate_fast_q31.c **** 
 541:Drivers/CMSIS/DSP/Source/FilteringFunctions/arm_correlate_fast_q31.c ****     /* Apply loop unrolling and compute 4 MACs simultaneously. */
 542:Drivers/CMSIS/DSP/Source/FilteringFunctions/arm_correlate_fast_q31.c ****     k = count >> 2U;
 543:Drivers/CMSIS/DSP/Source/FilteringFunctions/arm_correlate_fast_q31.c **** 
 544:Drivers/CMSIS/DSP/Source/FilteringFunctions/arm_correlate_fast_q31.c ****     /* First part of the processing with loop unrolling.  Compute 4 MACs at a time.
 545:Drivers/CMSIS/DSP/Source/FilteringFunctions/arm_correlate_fast_q31.c ****      ** a second loop below computes MACs for the remaining 1 to 3 samples. */
 546:Drivers/CMSIS/DSP/Source/FilteringFunctions/arm_correlate_fast_q31.c ****     while (k > 0U)
 547:Drivers/CMSIS/DSP/Source/FilteringFunctions/arm_correlate_fast_q31.c ****     {
 548:Drivers/CMSIS/DSP/Source/FilteringFunctions/arm_correlate_fast_q31.c ****       /* Perform the multiply-accumulates */
 549:Drivers/CMSIS/DSP/Source/FilteringFunctions/arm_correlate_fast_q31.c ****       /* sum += x[srcALen - srcBLen + 4] * y[3] */
 550:Drivers/CMSIS/DSP/Source/FilteringFunctions/arm_correlate_fast_q31.c ****       sum = (q31_t) ((((q63_t) sum << 32) +
 1162              		.loc 1 550 7 is_stmt 1 view .LVU433
 551:Drivers/CMSIS/DSP/Source/FilteringFunctions/arm_correlate_fast_q31.c ****                       ((q63_t) * px++ * (*py++))) >> 32);
 1163              		.loc 1 551 32 is_stmt 0 view .LVU434
 1164 0518 D0F80080 		ldr	r8, [r0]
 1165              		.loc 1 551 24 view .LVU435
 1166 051c 4FEAE879 		asr	r9, r8, #31
 1167              	.LVL184:
 1168              		.loc 1 551 42 view .LVU436
 1169 0520 D5F800E0 		ldr	lr, [r5]
 1170 0524 4FEAEE72 		asr	r2, lr, #31
 1171              		.loc 1 551 39 view .LVU437
 1172 0528 08FB02F2 		mul	r2, r8, r2
 1173 052c 0EFB0922 		mla	r2, lr, r9, r2
ARM GAS  /tmp/ccj2uHfG.s 			page 35


 1174 0530 A8FB0E8E 		umull	r8, lr, r8, lr
 1175 0534 7244     		add	r2, r2, lr
 550:Drivers/CMSIS/DSP/Source/FilteringFunctions/arm_correlate_fast_q31.c ****                       ((q63_t) * px++ * (*py++))) >> 32);
 1176              		.loc 1 550 43 view .LVU438
 1177 0536 0A44     		add	r2, r2, r1
 1178              	.LVL185:
 552:Drivers/CMSIS/DSP/Source/FilteringFunctions/arm_correlate_fast_q31.c ****       /* sum += x[srcALen - srcBLen + 3] * y[2] */
 553:Drivers/CMSIS/DSP/Source/FilteringFunctions/arm_correlate_fast_q31.c ****       sum = (q31_t) ((((q63_t) sum << 32) +
 1179              		.loc 1 553 7 is_stmt 1 view .LVU439
 554:Drivers/CMSIS/DSP/Source/FilteringFunctions/arm_correlate_fast_q31.c ****                       ((q63_t) * px++ * (*py++))) >> 32);
 1180              		.loc 1 554 32 is_stmt 0 view .LVU440
 1181 0538 D0F80480 		ldr	r8, [r0, #4]
 1182              		.loc 1 554 24 view .LVU441
 1183 053c 4FEAE879 		asr	r9, r8, #31
 1184              	.LVL186:
 1185              		.loc 1 554 42 view .LVU442
 1186 0540 D5F804E0 		ldr	lr, [r5, #4]
 1187 0544 4FEAEE71 		asr	r1, lr, #31
 1188              		.loc 1 554 39 view .LVU443
 1189 0548 08FB01F1 		mul	r1, r8, r1
 1190 054c 0EFB0911 		mla	r1, lr, r9, r1
 1191 0550 A8FB0E8E 		umull	r8, lr, r8, lr
 1192 0554 7144     		add	r1, r1, lr
 553:Drivers/CMSIS/DSP/Source/FilteringFunctions/arm_correlate_fast_q31.c ****                       ((q63_t) * px++ * (*py++))) >> 32);
 1193              		.loc 1 553 43 view .LVU444
 1194 0556 0A44     		add	r2, r2, r1
 555:Drivers/CMSIS/DSP/Source/FilteringFunctions/arm_correlate_fast_q31.c ****       /* sum += x[srcALen - srcBLen + 2] * y[1] */
 556:Drivers/CMSIS/DSP/Source/FilteringFunctions/arm_correlate_fast_q31.c ****       sum = (q31_t) ((((q63_t) sum << 32) +
 1195              		.loc 1 556 7 is_stmt 1 view .LVU445
 1196              	.LVL187:
 557:Drivers/CMSIS/DSP/Source/FilteringFunctions/arm_correlate_fast_q31.c ****                       ((q63_t) * px++ * (*py++))) >> 32);
 1197              		.loc 1 557 32 is_stmt 0 view .LVU446
 1198 0558 D0F80880 		ldr	r8, [r0, #8]
 1199              		.loc 1 557 24 view .LVU447
 1200 055c 4FEAE879 		asr	r9, r8, #31
 1201              	.LVL188:
 1202              		.loc 1 557 42 view .LVU448
 1203 0560 D5F808E0 		ldr	lr, [r5, #8]
 1204 0564 4FEAEE71 		asr	r1, lr, #31
 1205              		.loc 1 557 39 view .LVU449
 1206 0568 08FB01F1 		mul	r1, r8, r1
 1207 056c 0EFB0911 		mla	r1, lr, r9, r1
 1208 0570 A8FB0E8E 		umull	r8, lr, r8, lr
 1209 0574 7144     		add	r1, r1, lr
 556:Drivers/CMSIS/DSP/Source/FilteringFunctions/arm_correlate_fast_q31.c ****                       ((q63_t) * px++ * (*py++))) >> 32);
 1210              		.loc 1 556 43 view .LVU450
 1211 0576 0A44     		add	r2, r2, r1
 558:Drivers/CMSIS/DSP/Source/FilteringFunctions/arm_correlate_fast_q31.c ****       /* sum += x[srcALen - srcBLen + 1] * y[0] */
 559:Drivers/CMSIS/DSP/Source/FilteringFunctions/arm_correlate_fast_q31.c ****       sum = (q31_t) ((((q63_t) sum << 32) +
 1212              		.loc 1 559 7 is_stmt 1 view .LVU451
 1213              	.LVL189:
 560:Drivers/CMSIS/DSP/Source/FilteringFunctions/arm_correlate_fast_q31.c ****                       ((q63_t) * px++ * (*py++))) >> 32);
 1214              		.loc 1 560 32 is_stmt 0 view .LVU452
 1215 0578 D0F80C80 		ldr	r8, [r0, #12]
 1216              		.loc 1 560 24 view .LVU453
 1217 057c 4FEAE879 		asr	r9, r8, #31
 1218              	.LVL190:
ARM GAS  /tmp/ccj2uHfG.s 			page 36


 1219              		.loc 1 560 42 view .LVU454
 1220 0580 D5F80CE0 		ldr	lr, [r5, #12]
 1221 0584 4FEAEE71 		asr	r1, lr, #31
 1222              		.loc 1 560 39 view .LVU455
 1223 0588 08FB01F1 		mul	r1, r8, r1
 1224 058c 0EFB0911 		mla	r1, lr, r9, r1
 1225 0590 A8FB0E8E 		umull	r8, lr, r8, lr
 1226 0594 7144     		add	r1, r1, lr
 559:Drivers/CMSIS/DSP/Source/FilteringFunctions/arm_correlate_fast_q31.c ****                       ((q63_t) * px++ * (*py++))) >> 32);
 1227              		.loc 1 559 11 view .LVU456
 1228 0596 1144     		add	r1, r1, r2
 1229              	.LVL191:
 561:Drivers/CMSIS/DSP/Source/FilteringFunctions/arm_correlate_fast_q31.c **** 
 562:Drivers/CMSIS/DSP/Source/FilteringFunctions/arm_correlate_fast_q31.c ****       /* Decrement the loop counter */
 563:Drivers/CMSIS/DSP/Source/FilteringFunctions/arm_correlate_fast_q31.c ****       k--;
 1230              		.loc 1 563 7 is_stmt 1 view .LVU457
 1231              		.loc 1 563 8 is_stmt 0 view .LVU458
 1232 0598 013C     		subs	r4, r4, #1
 1233              	.LVL192:
 560:Drivers/CMSIS/DSP/Source/FilteringFunctions/arm_correlate_fast_q31.c **** 
 1234              		.loc 1 560 45 view .LVU459
 1235 059a 1035     		adds	r5, r5, #16
 1236              	.LVL193:
 560:Drivers/CMSIS/DSP/Source/FilteringFunctions/arm_correlate_fast_q31.c **** 
 1237              		.loc 1 560 36 view .LVU460
 1238 059c 1030     		adds	r0, r0, #16
 1239              	.LVL194:
 1240              	.L26:
 546:Drivers/CMSIS/DSP/Source/FilteringFunctions/arm_correlate_fast_q31.c ****     {
 1241              		.loc 1 546 14 is_stmt 1 view .LVU461
 1242 059e 002C     		cmp	r4, #0
 1243 05a0 BAD1     		bne	.L27
 564:Drivers/CMSIS/DSP/Source/FilteringFunctions/arm_correlate_fast_q31.c ****     }
 565:Drivers/CMSIS/DSP/Source/FilteringFunctions/arm_correlate_fast_q31.c **** 
 566:Drivers/CMSIS/DSP/Source/FilteringFunctions/arm_correlate_fast_q31.c ****     /* If the count is not a multiple of 4, compute any remaining MACs here.
 567:Drivers/CMSIS/DSP/Source/FilteringFunctions/arm_correlate_fast_q31.c ****      ** No loop unrolling is used. */
 568:Drivers/CMSIS/DSP/Source/FilteringFunctions/arm_correlate_fast_q31.c ****     k = count % 0x4U;
 1244              		.loc 1 568 5 view .LVU462
 1245              		.loc 1 568 7 is_stmt 0 view .LVU463
 1246 05a2 03F00304 		and	r4, r3, #3
 1247              	.LVL195:
 569:Drivers/CMSIS/DSP/Source/FilteringFunctions/arm_correlate_fast_q31.c **** 
 570:Drivers/CMSIS/DSP/Source/FilteringFunctions/arm_correlate_fast_q31.c ****     while (k > 0U)
 1248              		.loc 1 570 5 is_stmt 1 view .LVU464
 1249              		.loc 1 570 11 is_stmt 0 view .LVU465
 1250 05a6 10E0     		b	.L28
 1251              	.L29:
 571:Drivers/CMSIS/DSP/Source/FilteringFunctions/arm_correlate_fast_q31.c ****     {
 572:Drivers/CMSIS/DSP/Source/FilteringFunctions/arm_correlate_fast_q31.c ****       /* Perform the multiply-accumulates */
 573:Drivers/CMSIS/DSP/Source/FilteringFunctions/arm_correlate_fast_q31.c ****       sum = (q31_t) ((((q63_t) sum << 32) +
 1252              		.loc 1 573 7 is_stmt 1 view .LVU466
 1253              	.LVL196:
 574:Drivers/CMSIS/DSP/Source/FilteringFunctions/arm_correlate_fast_q31.c ****                       ((q63_t) * px++ * (*py++))) >> 32);
 1254              		.loc 1 574 32 is_stmt 0 view .LVU467
 1255 05a8 50F8048B 		ldr	r8, [r0], #4
 1256              	.LVL197:
 1257              		.loc 1 574 24 view .LVU468
ARM GAS  /tmp/ccj2uHfG.s 			page 37


 1258 05ac 4FEAE879 		asr	r9, r8, #31
 1259              	.LVL198:
 1260              		.loc 1 574 42 view .LVU469
 1261 05b0 55F804EB 		ldr	lr, [r5], #4
 1262              	.LVL199:
 1263              		.loc 1 574 42 view .LVU470
 1264 05b4 4FEAEE72 		asr	r2, lr, #31
 1265              		.loc 1 574 39 view .LVU471
 1266 05b8 08FB02F2 		mul	r2, r8, r2
 1267 05bc 0EFB0922 		mla	r2, lr, r9, r2
 1268 05c0 A8FB0E8E 		umull	r8, lr, r8, lr
 1269 05c4 7244     		add	r2, r2, lr
 573:Drivers/CMSIS/DSP/Source/FilteringFunctions/arm_correlate_fast_q31.c ****                       ((q63_t) * px++ * (*py++))) >> 32);
 1270              		.loc 1 573 11 view .LVU472
 1271 05c6 1144     		add	r1, r1, r2
 1272              	.LVL200:
 575:Drivers/CMSIS/DSP/Source/FilteringFunctions/arm_correlate_fast_q31.c **** 
 576:Drivers/CMSIS/DSP/Source/FilteringFunctions/arm_correlate_fast_q31.c ****       /* Decrement the loop counter */
 577:Drivers/CMSIS/DSP/Source/FilteringFunctions/arm_correlate_fast_q31.c ****       k--;
 1273              		.loc 1 577 7 is_stmt 1 view .LVU473
 1274              		.loc 1 577 8 is_stmt 0 view .LVU474
 1275 05c8 013C     		subs	r4, r4, #1
 1276              	.LVL201:
 1277              	.L28:
 570:Drivers/CMSIS/DSP/Source/FilteringFunctions/arm_correlate_fast_q31.c ****     {
 1278              		.loc 1 570 14 is_stmt 1 view .LVU475
 1279 05ca 002C     		cmp	r4, #0
 1280 05cc ECD1     		bne	.L29
 578:Drivers/CMSIS/DSP/Source/FilteringFunctions/arm_correlate_fast_q31.c ****     }
 579:Drivers/CMSIS/DSP/Source/FilteringFunctions/arm_correlate_fast_q31.c **** 
 580:Drivers/CMSIS/DSP/Source/FilteringFunctions/arm_correlate_fast_q31.c ****     /* Store the result in the accumulator in the destination buffer. */
 581:Drivers/CMSIS/DSP/Source/FilteringFunctions/arm_correlate_fast_q31.c ****     *pOut = sum << 1;
 1281              		.loc 1 581 5 view .LVU476
 1282              		.loc 1 581 17 is_stmt 0 view .LVU477
 1283 05ce 4900     		lsls	r1, r1, #1
 1284              	.LVL202:
 1285              		.loc 1 581 11 view .LVU478
 1286 05d0 CAF80010 		str	r1, [r10]
 582:Drivers/CMSIS/DSP/Source/FilteringFunctions/arm_correlate_fast_q31.c ****     /* Destination pointer is updated according to the address modifier, inc */
 583:Drivers/CMSIS/DSP/Source/FilteringFunctions/arm_correlate_fast_q31.c ****     pOut += inc;
 1287              		.loc 1 583 5 is_stmt 1 view .LVU479
 1288              		.loc 1 583 10 is_stmt 0 view .LVU480
 1289 05d4 0AEB8C0A 		add	r10, r10, ip, lsl #2
 1290              	.LVL203:
 584:Drivers/CMSIS/DSP/Source/FilteringFunctions/arm_correlate_fast_q31.c **** 
 585:Drivers/CMSIS/DSP/Source/FilteringFunctions/arm_correlate_fast_q31.c ****     /* Update the inputA and inputB pointers for next MAC calculation */
 586:Drivers/CMSIS/DSP/Source/FilteringFunctions/arm_correlate_fast_q31.c ****     px = ++pSrc1;
 1291              		.loc 1 586 5 is_stmt 1 view .LVU481
 1292              		.loc 1 586 8 is_stmt 0 view .LVU482
 1293 05d8 0437     		adds	r7, r7, #4
 1294              	.LVL204:
 587:Drivers/CMSIS/DSP/Source/FilteringFunctions/arm_correlate_fast_q31.c ****     py = pIn2;
 1295              		.loc 1 587 5 is_stmt 1 view .LVU483
 588:Drivers/CMSIS/DSP/Source/FilteringFunctions/arm_correlate_fast_q31.c **** 
 589:Drivers/CMSIS/DSP/Source/FilteringFunctions/arm_correlate_fast_q31.c ****     /* Decrement the MAC count */
 590:Drivers/CMSIS/DSP/Source/FilteringFunctions/arm_correlate_fast_q31.c ****     count--;
 1296              		.loc 1 590 5 view .LVU484
ARM GAS  /tmp/ccj2uHfG.s 			page 38


 1297              		.loc 1 590 10 is_stmt 0 view .LVU485
 1298 05da 013B     		subs	r3, r3, #1
 1299              	.LVL205:
 591:Drivers/CMSIS/DSP/Source/FilteringFunctions/arm_correlate_fast_q31.c **** 
 592:Drivers/CMSIS/DSP/Source/FilteringFunctions/arm_correlate_fast_q31.c ****     /* Decrement the loop counter */
 593:Drivers/CMSIS/DSP/Source/FilteringFunctions/arm_correlate_fast_q31.c ****     blockSize3--;
 1300              		.loc 1 593 5 is_stmt 1 view .LVU486
 1301              		.loc 1 593 15 is_stmt 0 view .LVU487
 1302 05dc 013E     		subs	r6, r6, #1
 1303              	.LVL206:
 1304              	.L25:
 536:Drivers/CMSIS/DSP/Source/FilteringFunctions/arm_correlate_fast_q31.c ****   {
 1305              		.loc 1 536 21 is_stmt 1 view .LVU488
 1306 05de 26B1     		cbz	r6, .L38
 539:Drivers/CMSIS/DSP/Source/FilteringFunctions/arm_correlate_fast_q31.c **** 
 1307              		.loc 1 539 5 view .LVU489
 1308              	.LVL207:
 542:Drivers/CMSIS/DSP/Source/FilteringFunctions/arm_correlate_fast_q31.c **** 
 1309              		.loc 1 542 5 view .LVU490
 542:Drivers/CMSIS/DSP/Source/FilteringFunctions/arm_correlate_fast_q31.c **** 
 1310              		.loc 1 542 7 is_stmt 0 view .LVU491
 1311 05e0 9C08     		lsrs	r4, r3, #2
 1312              	.LVL208:
 546:Drivers/CMSIS/DSP/Source/FilteringFunctions/arm_correlate_fast_q31.c ****     {
 1313              		.loc 1 546 5 is_stmt 1 view .LVU492
 546:Drivers/CMSIS/DSP/Source/FilteringFunctions/arm_correlate_fast_q31.c ****     {
 1314              		.loc 1 546 11 is_stmt 0 view .LVU493
 1315 05e2 039D     		ldr	r5, [sp, #12]
 1316 05e4 3846     		mov	r0, r7
 539:Drivers/CMSIS/DSP/Source/FilteringFunctions/arm_correlate_fast_q31.c **** 
 1317              		.loc 1 539 9 view .LVU494
 1318 05e6 0021     		movs	r1, #0
 546:Drivers/CMSIS/DSP/Source/FilteringFunctions/arm_correlate_fast_q31.c ****     {
 1319              		.loc 1 546 11 view .LVU495
 1320 05e8 D9E7     		b	.L26
 1321              	.LVL209:
 1322              	.L38:
 594:Drivers/CMSIS/DSP/Source/FilteringFunctions/arm_correlate_fast_q31.c ****   }
 595:Drivers/CMSIS/DSP/Source/FilteringFunctions/arm_correlate_fast_q31.c **** 
 596:Drivers/CMSIS/DSP/Source/FilteringFunctions/arm_correlate_fast_q31.c **** }
 1323              		.loc 1 596 1 view .LVU496
 1324 05ea 0DB0     		add	sp, sp, #52
 1325              	.LCFI2:
 1326              		.cfi_def_cfa_offset 36
 1327              		@ sp needed
 1328 05ec BDE8F08F 		pop	{r4, r5, r6, r7, r8, r9, r10, fp, pc}
 1329              		.loc 1 596 1 view .LVU497
 1330              		.cfi_endproc
 1331              	.LFE135:
 1333              		.text
 1334              	.Letext0:
 1335              		.file 2 "/usr/arm-none-eabi/include/machine/_default_types.h"
 1336              		.file 3 "/usr/arm-none-eabi/include/sys/_stdint.h"
 1337              		.file 4 "Drivers/CMSIS/DSP/Include/arm_math.h"
ARM GAS  /tmp/ccj2uHfG.s 			page 39

