ARM GAS  /tmp/ccy4hloz.s 			page 1


   1              		.cpu cortex-m7
   2              		.arch armv7e-m
   3              		.fpu fpv5-sp-d16
   4              		.eabi_attribute 27, 1
   5              		.eabi_attribute 28, 1
   6              		.eabi_attribute 20, 1
   7              		.eabi_attribute 21, 1
   8              		.eabi_attribute 23, 3
   9              		.eabi_attribute 24, 1
  10              		.eabi_attribute 25, 1
  11              		.eabi_attribute 26, 1
  12              		.eabi_attribute 30, 1
  13              		.eabi_attribute 34, 1
  14              		.eabi_attribute 18, 4
  15              		.file	"arm_mean_q31.c"
  16              		.text
  17              	.Ltext0:
  18              		.cfi_sections	.debug_frame
  19              		.file 1 "Drivers/CMSIS/DSP/Source/StatisticsFunctions/arm_mean_q31.c"
  20              		.section	.text.arm_mean_q31,"ax",%progbits
  21              		.align	1
  22              		.global	arm_mean_q31
  23              		.syntax unified
  24              		.thumb
  25              		.thumb_func
  27              	arm_mean_q31:
  28              	.LVL0:
  29              	.LFB135:
   1:Drivers/CMSIS/DSP/Source/StatisticsFunctions/arm_mean_q31.c **** /* ----------------------------------------------------------------------
   2:Drivers/CMSIS/DSP/Source/StatisticsFunctions/arm_mean_q31.c ****  * Project:      CMSIS DSP Library
   3:Drivers/CMSIS/DSP/Source/StatisticsFunctions/arm_mean_q31.c ****  * Title:        arm_mean_q31.c
   4:Drivers/CMSIS/DSP/Source/StatisticsFunctions/arm_mean_q31.c ****  * Description:  Mean value of a Q31 vector
   5:Drivers/CMSIS/DSP/Source/StatisticsFunctions/arm_mean_q31.c ****  *
   6:Drivers/CMSIS/DSP/Source/StatisticsFunctions/arm_mean_q31.c ****  * $Date:        27. January 2017
   7:Drivers/CMSIS/DSP/Source/StatisticsFunctions/arm_mean_q31.c ****  * $Revision:    V.1.5.1
   8:Drivers/CMSIS/DSP/Source/StatisticsFunctions/arm_mean_q31.c ****  *
   9:Drivers/CMSIS/DSP/Source/StatisticsFunctions/arm_mean_q31.c ****  * Target Processor: Cortex-M cores
  10:Drivers/CMSIS/DSP/Source/StatisticsFunctions/arm_mean_q31.c ****  * -------------------------------------------------------------------- */
  11:Drivers/CMSIS/DSP/Source/StatisticsFunctions/arm_mean_q31.c **** /*
  12:Drivers/CMSIS/DSP/Source/StatisticsFunctions/arm_mean_q31.c ****  * Copyright (C) 2010-2017 ARM Limited or its affiliates. All rights reserved.
  13:Drivers/CMSIS/DSP/Source/StatisticsFunctions/arm_mean_q31.c ****  *
  14:Drivers/CMSIS/DSP/Source/StatisticsFunctions/arm_mean_q31.c ****  * SPDX-License-Identifier: Apache-2.0
  15:Drivers/CMSIS/DSP/Source/StatisticsFunctions/arm_mean_q31.c ****  *
  16:Drivers/CMSIS/DSP/Source/StatisticsFunctions/arm_mean_q31.c ****  * Licensed under the Apache License, Version 2.0 (the License); you may
  17:Drivers/CMSIS/DSP/Source/StatisticsFunctions/arm_mean_q31.c ****  * not use this file except in compliance with the License.
  18:Drivers/CMSIS/DSP/Source/StatisticsFunctions/arm_mean_q31.c ****  * You may obtain a copy of the License at
  19:Drivers/CMSIS/DSP/Source/StatisticsFunctions/arm_mean_q31.c ****  *
  20:Drivers/CMSIS/DSP/Source/StatisticsFunctions/arm_mean_q31.c ****  * www.apache.org/licenses/LICENSE-2.0
  21:Drivers/CMSIS/DSP/Source/StatisticsFunctions/arm_mean_q31.c ****  *
  22:Drivers/CMSIS/DSP/Source/StatisticsFunctions/arm_mean_q31.c ****  * Unless required by applicable law or agreed to in writing, software
  23:Drivers/CMSIS/DSP/Source/StatisticsFunctions/arm_mean_q31.c ****  * distributed under the License is distributed on an AS IS BASIS, WITHOUT
  24:Drivers/CMSIS/DSP/Source/StatisticsFunctions/arm_mean_q31.c ****  * WARRANTIES OR CONDITIONS OF ANY KIND, either express or implied.
  25:Drivers/CMSIS/DSP/Source/StatisticsFunctions/arm_mean_q31.c ****  * See the License for the specific language governing permissions and
  26:Drivers/CMSIS/DSP/Source/StatisticsFunctions/arm_mean_q31.c ****  * limitations under the License.
  27:Drivers/CMSIS/DSP/Source/StatisticsFunctions/arm_mean_q31.c ****  */
  28:Drivers/CMSIS/DSP/Source/StatisticsFunctions/arm_mean_q31.c **** 
  29:Drivers/CMSIS/DSP/Source/StatisticsFunctions/arm_mean_q31.c **** #include "arm_math.h"
ARM GAS  /tmp/ccy4hloz.s 			page 2


  30:Drivers/CMSIS/DSP/Source/StatisticsFunctions/arm_mean_q31.c **** 
  31:Drivers/CMSIS/DSP/Source/StatisticsFunctions/arm_mean_q31.c **** /**
  32:Drivers/CMSIS/DSP/Source/StatisticsFunctions/arm_mean_q31.c ****  * @ingroup groupStats
  33:Drivers/CMSIS/DSP/Source/StatisticsFunctions/arm_mean_q31.c ****  */
  34:Drivers/CMSIS/DSP/Source/StatisticsFunctions/arm_mean_q31.c **** 
  35:Drivers/CMSIS/DSP/Source/StatisticsFunctions/arm_mean_q31.c **** /**
  36:Drivers/CMSIS/DSP/Source/StatisticsFunctions/arm_mean_q31.c ****  * @addtogroup mean
  37:Drivers/CMSIS/DSP/Source/StatisticsFunctions/arm_mean_q31.c ****  * @{
  38:Drivers/CMSIS/DSP/Source/StatisticsFunctions/arm_mean_q31.c ****  */
  39:Drivers/CMSIS/DSP/Source/StatisticsFunctions/arm_mean_q31.c **** 
  40:Drivers/CMSIS/DSP/Source/StatisticsFunctions/arm_mean_q31.c **** 
  41:Drivers/CMSIS/DSP/Source/StatisticsFunctions/arm_mean_q31.c **** /**
  42:Drivers/CMSIS/DSP/Source/StatisticsFunctions/arm_mean_q31.c ****  * @brief Mean value of a Q31 vector.
  43:Drivers/CMSIS/DSP/Source/StatisticsFunctions/arm_mean_q31.c ****  * @param[in]       *pSrc points to the input vector
  44:Drivers/CMSIS/DSP/Source/StatisticsFunctions/arm_mean_q31.c ****  * @param[in]       blockSize length of the input vector
  45:Drivers/CMSIS/DSP/Source/StatisticsFunctions/arm_mean_q31.c ****  * @param[out]      *pResult mean value returned here
  46:Drivers/CMSIS/DSP/Source/StatisticsFunctions/arm_mean_q31.c ****  * @return none.
  47:Drivers/CMSIS/DSP/Source/StatisticsFunctions/arm_mean_q31.c ****  *
  48:Drivers/CMSIS/DSP/Source/StatisticsFunctions/arm_mean_q31.c ****  * @details
  49:Drivers/CMSIS/DSP/Source/StatisticsFunctions/arm_mean_q31.c ****  * <b>Scaling and Overflow Behavior:</b>
  50:Drivers/CMSIS/DSP/Source/StatisticsFunctions/arm_mean_q31.c ****  *\par
  51:Drivers/CMSIS/DSP/Source/StatisticsFunctions/arm_mean_q31.c ****  * The function is implemented using a 64-bit internal accumulator.
  52:Drivers/CMSIS/DSP/Source/StatisticsFunctions/arm_mean_q31.c ****  * The input is represented in 1.31 format and is accumulated in a 64-bit
  53:Drivers/CMSIS/DSP/Source/StatisticsFunctions/arm_mean_q31.c ****  * accumulator in 33.31 format.
  54:Drivers/CMSIS/DSP/Source/StatisticsFunctions/arm_mean_q31.c ****  * There is no risk of internal overflow with this approach, and the
  55:Drivers/CMSIS/DSP/Source/StatisticsFunctions/arm_mean_q31.c ****  * full precision of intermediate result is preserved.
  56:Drivers/CMSIS/DSP/Source/StatisticsFunctions/arm_mean_q31.c ****  * Finally, the accumulator is truncated to yield a result of 1.31 format.
  57:Drivers/CMSIS/DSP/Source/StatisticsFunctions/arm_mean_q31.c ****  *
  58:Drivers/CMSIS/DSP/Source/StatisticsFunctions/arm_mean_q31.c ****  */
  59:Drivers/CMSIS/DSP/Source/StatisticsFunctions/arm_mean_q31.c **** 
  60:Drivers/CMSIS/DSP/Source/StatisticsFunctions/arm_mean_q31.c **** void arm_mean_q31(
  61:Drivers/CMSIS/DSP/Source/StatisticsFunctions/arm_mean_q31.c ****   q31_t * pSrc,
  62:Drivers/CMSIS/DSP/Source/StatisticsFunctions/arm_mean_q31.c ****   uint32_t blockSize,
  63:Drivers/CMSIS/DSP/Source/StatisticsFunctions/arm_mean_q31.c ****   q31_t * pResult)
  64:Drivers/CMSIS/DSP/Source/StatisticsFunctions/arm_mean_q31.c **** {
  30              		.loc 1 64 1 view -0
  31              		.cfi_startproc
  32              		@ args = 0, pretend = 0, frame = 0
  33              		@ frame_needed = 0, uses_anonymous_args = 0
  34              		.loc 1 64 1 is_stmt 0 view .LVU1
  35 0000 2DE9F041 		push	{r4, r5, r6, r7, r8, lr}
  36              	.LCFI0:
  37              		.cfi_def_cfa_offset 24
  38              		.cfi_offset 4, -24
  39              		.cfi_offset 5, -20
  40              		.cfi_offset 6, -16
  41              		.cfi_offset 7, -12
  42              		.cfi_offset 8, -8
  43              		.cfi_offset 14, -4
  44 0004 8446     		mov	ip, r0
  45 0006 0B46     		mov	r3, r1
  46 0008 9046     		mov	r8, r2
  65:Drivers/CMSIS/DSP/Source/StatisticsFunctions/arm_mean_q31.c ****   q63_t sum = 0;                                 /* Temporary result storage */
  47              		.loc 1 65 3 is_stmt 1 view .LVU2
  48              	.LVL1:
  66:Drivers/CMSIS/DSP/Source/StatisticsFunctions/arm_mean_q31.c ****   uint32_t blkCnt;                               /* loop counter */
  49              		.loc 1 66 3 view .LVU3
ARM GAS  /tmp/ccy4hloz.s 			page 3


  67:Drivers/CMSIS/DSP/Source/StatisticsFunctions/arm_mean_q31.c **** 
  68:Drivers/CMSIS/DSP/Source/StatisticsFunctions/arm_mean_q31.c **** #if defined (ARM_MATH_DSP)
  69:Drivers/CMSIS/DSP/Source/StatisticsFunctions/arm_mean_q31.c ****   /* Run the below code for Cortex-M4 and Cortex-M3 */
  70:Drivers/CMSIS/DSP/Source/StatisticsFunctions/arm_mean_q31.c **** 
  71:Drivers/CMSIS/DSP/Source/StatisticsFunctions/arm_mean_q31.c ****   q31_t in1, in2, in3, in4;
  50              		.loc 1 71 3 view .LVU4
  72:Drivers/CMSIS/DSP/Source/StatisticsFunctions/arm_mean_q31.c **** 
  73:Drivers/CMSIS/DSP/Source/StatisticsFunctions/arm_mean_q31.c ****   /*loop Unrolling */
  74:Drivers/CMSIS/DSP/Source/StatisticsFunctions/arm_mean_q31.c ****   blkCnt = blockSize >> 2U;
  51              		.loc 1 74 3 view .LVU5
  52              		.loc 1 74 10 is_stmt 0 view .LVU6
  53 000a 8F08     		lsrs	r7, r1, #2
  54              	.LVL2:
  75:Drivers/CMSIS/DSP/Source/StatisticsFunctions/arm_mean_q31.c **** 
  76:Drivers/CMSIS/DSP/Source/StatisticsFunctions/arm_mean_q31.c ****   /* First part of the processing with loop unrolling.  Compute 4 outputs at a time.
  77:Drivers/CMSIS/DSP/Source/StatisticsFunctions/arm_mean_q31.c ****    ** a second loop below computes the remaining 1 to 3 samples. */
  78:Drivers/CMSIS/DSP/Source/StatisticsFunctions/arm_mean_q31.c ****   while (blkCnt > 0U)
  55              		.loc 1 78 3 is_stmt 1 view .LVU7
  65:Drivers/CMSIS/DSP/Source/StatisticsFunctions/arm_mean_q31.c ****   uint32_t blkCnt;                               /* loop counter */
  56              		.loc 1 65 9 is_stmt 0 view .LVU8
  57 000c 0020     		movs	r0, #0
  58              	.LVL3:
  65:Drivers/CMSIS/DSP/Source/StatisticsFunctions/arm_mean_q31.c ****   uint32_t blkCnt;                               /* loop counter */
  59              		.loc 1 65 9 view .LVU9
  60 000e 0146     		mov	r1, r0
  61              	.LVL4:
  62              		.loc 1 78 9 view .LVU10
  63 0010 16E0     		b	.L2
  64              	.LVL5:
  65              	.L3:
  79:Drivers/CMSIS/DSP/Source/StatisticsFunctions/arm_mean_q31.c ****   {
  80:Drivers/CMSIS/DSP/Source/StatisticsFunctions/arm_mean_q31.c ****     /* C = (A[0] + A[1] + A[2] + ... + A[blockSize-1]) */
  81:Drivers/CMSIS/DSP/Source/StatisticsFunctions/arm_mean_q31.c ****     in1 = *pSrc++;
  66              		.loc 1 81 5 is_stmt 1 view .LVU11
  67              		.loc 1 81 9 is_stmt 0 view .LVU12
  68 0012 DCF80040 		ldr	r4, [ip]
  69              	.LVL6:
  82:Drivers/CMSIS/DSP/Source/StatisticsFunctions/arm_mean_q31.c ****     in2 = *pSrc++;
  70              		.loc 1 82 5 is_stmt 1 view .LVU13
  71              		.loc 1 82 9 is_stmt 0 view .LVU14
  72 0016 DCF80450 		ldr	r5, [ip, #4]
  73              	.LVL7:
  83:Drivers/CMSIS/DSP/Source/StatisticsFunctions/arm_mean_q31.c ****     in3 = *pSrc++;
  74              		.loc 1 83 5 is_stmt 1 view .LVU15
  75              		.loc 1 83 9 is_stmt 0 view .LVU16
  76 001a DCF80860 		ldr	r6, [ip, #8]
  77              	.LVL8:
  84:Drivers/CMSIS/DSP/Source/StatisticsFunctions/arm_mean_q31.c ****     in4 = *pSrc++;
  78              		.loc 1 84 5 is_stmt 1 view .LVU17
  79              		.loc 1 84 9 is_stmt 0 view .LVU18
  80 001e DCF80C20 		ldr	r2, [ip, #12]
  81              	.LVL9:
  85:Drivers/CMSIS/DSP/Source/StatisticsFunctions/arm_mean_q31.c **** 
  86:Drivers/CMSIS/DSP/Source/StatisticsFunctions/arm_mean_q31.c ****     sum += in1;
  82              		.loc 1 86 5 is_stmt 1 view .LVU19
  83              		.loc 1 86 9 is_stmt 0 view .LVU20
  84 0022 2018     		adds	r0, r4, r0
ARM GAS  /tmp/ccy4hloz.s 			page 4


  85              	.LVL10:
  86              		.loc 1 86 9 view .LVU21
  87 0024 41EBE474 		adc	r4, r1, r4, asr #31
  88              	.LVL11:
  87:Drivers/CMSIS/DSP/Source/StatisticsFunctions/arm_mean_q31.c ****     sum += in2;
  89              		.loc 1 87 5 is_stmt 1 view .LVU22
  90              		.loc 1 87 9 is_stmt 0 view .LVU23
  91 0028 2818     		adds	r0, r5, r0
  92              	.LVL12:
  93              		.loc 1 87 9 view .LVU24
  94 002a 44EBE574 		adc	r4, r4, r5, asr #31
  95              	.LVL13:
  88:Drivers/CMSIS/DSP/Source/StatisticsFunctions/arm_mean_q31.c ****     sum += in3;
  96              		.loc 1 88 5 is_stmt 1 view .LVU25
  97              		.loc 1 88 9 is_stmt 0 view .LVU26
  98 002e 3018     		adds	r0, r6, r0
  99              	.LVL14:
 100              		.loc 1 88 9 view .LVU27
 101 0030 44EBE674 		adc	r4, r4, r6, asr #31
 102              	.LVL15:
  89:Drivers/CMSIS/DSP/Source/StatisticsFunctions/arm_mean_q31.c ****     sum += in4;
 103              		.loc 1 89 5 is_stmt 1 view .LVU28
 104              		.loc 1 89 9 is_stmt 0 view .LVU29
 105 0034 1018     		adds	r0, r2, r0
 106              	.LVL16:
 107              		.loc 1 89 9 view .LVU30
 108 0036 44EBE271 		adc	r1, r4, r2, asr #31
 109              	.LVL17:
  90:Drivers/CMSIS/DSP/Source/StatisticsFunctions/arm_mean_q31.c **** 
  91:Drivers/CMSIS/DSP/Source/StatisticsFunctions/arm_mean_q31.c ****     /* Decrement the loop counter */
  92:Drivers/CMSIS/DSP/Source/StatisticsFunctions/arm_mean_q31.c ****     blkCnt--;
 110              		.loc 1 92 5 is_stmt 1 view .LVU31
 111              		.loc 1 92 11 is_stmt 0 view .LVU32
 112 003a 013F     		subs	r7, r7, #1
 113              	.LVL18:
  84:Drivers/CMSIS/DSP/Source/StatisticsFunctions/arm_mean_q31.c **** 
 114              		.loc 1 84 16 view .LVU33
 115 003c 0CF1100C 		add	ip, ip, #16
 116              	.LVL19:
 117              	.L2:
  78:Drivers/CMSIS/DSP/Source/StatisticsFunctions/arm_mean_q31.c ****   {
 118              		.loc 1 78 17 is_stmt 1 view .LVU34
 119 0040 002F     		cmp	r7, #0
 120 0042 E6D1     		bne	.L3
  93:Drivers/CMSIS/DSP/Source/StatisticsFunctions/arm_mean_q31.c ****   }
  94:Drivers/CMSIS/DSP/Source/StatisticsFunctions/arm_mean_q31.c **** 
  95:Drivers/CMSIS/DSP/Source/StatisticsFunctions/arm_mean_q31.c ****   /* If the blockSize is not a multiple of 4, compute any remaining output samples here.
  96:Drivers/CMSIS/DSP/Source/StatisticsFunctions/arm_mean_q31.c ****    ** No loop unrolling is used. */
  97:Drivers/CMSIS/DSP/Source/StatisticsFunctions/arm_mean_q31.c ****   blkCnt = blockSize % 0x4U;
 121              		.loc 1 97 3 view .LVU35
 122              		.loc 1 97 10 is_stmt 0 view .LVU36
 123 0044 03F00302 		and	r2, r3, #3
 124              	.LVL20:
  98:Drivers/CMSIS/DSP/Source/StatisticsFunctions/arm_mean_q31.c **** 
  99:Drivers/CMSIS/DSP/Source/StatisticsFunctions/arm_mean_q31.c **** #else
 100:Drivers/CMSIS/DSP/Source/StatisticsFunctions/arm_mean_q31.c ****   /* Run the below code for Cortex-M0 */
 101:Drivers/CMSIS/DSP/Source/StatisticsFunctions/arm_mean_q31.c **** 
ARM GAS  /tmp/ccy4hloz.s 			page 5


 102:Drivers/CMSIS/DSP/Source/StatisticsFunctions/arm_mean_q31.c ****   /* Loop over blockSize number of values */
 103:Drivers/CMSIS/DSP/Source/StatisticsFunctions/arm_mean_q31.c ****   blkCnt = blockSize;
 104:Drivers/CMSIS/DSP/Source/StatisticsFunctions/arm_mean_q31.c **** 
 105:Drivers/CMSIS/DSP/Source/StatisticsFunctions/arm_mean_q31.c **** #endif /* #if defined (ARM_MATH_DSP) */
 106:Drivers/CMSIS/DSP/Source/StatisticsFunctions/arm_mean_q31.c **** 
 107:Drivers/CMSIS/DSP/Source/StatisticsFunctions/arm_mean_q31.c ****   while (blkCnt > 0U)
 125              		.loc 1 107 3 is_stmt 1 view .LVU37
 126              		.loc 1 107 9 is_stmt 0 view .LVU38
 127 0048 05E0     		b	.L4
 128              	.L5:
 108:Drivers/CMSIS/DSP/Source/StatisticsFunctions/arm_mean_q31.c ****   {
 109:Drivers/CMSIS/DSP/Source/StatisticsFunctions/arm_mean_q31.c ****     /* C = (A[0] + A[1] + A[2] + ... + A[blockSize-1]) */
 110:Drivers/CMSIS/DSP/Source/StatisticsFunctions/arm_mean_q31.c ****     sum += *pSrc++;
 129              		.loc 1 110 5 is_stmt 1 view .LVU39
 130              	.LVL21:
 131              		.loc 1 110 12 is_stmt 0 view .LVU40
 132 004a 5CF8044B 		ldr	r4, [ip], #4
 133              	.LVL22:
 134              		.loc 1 110 9 view .LVU41
 135 004e 2018     		adds	r0, r4, r0
 136              	.LVL23:
 137              		.loc 1 110 9 view .LVU42
 138 0050 41EBE471 		adc	r1, r1, r4, asr #31
 139              	.LVL24:
 111:Drivers/CMSIS/DSP/Source/StatisticsFunctions/arm_mean_q31.c **** 
 112:Drivers/CMSIS/DSP/Source/StatisticsFunctions/arm_mean_q31.c ****     /* Decrement the loop counter */
 113:Drivers/CMSIS/DSP/Source/StatisticsFunctions/arm_mean_q31.c ****     blkCnt--;
 140              		.loc 1 113 5 is_stmt 1 view .LVU43
 141              		.loc 1 113 11 is_stmt 0 view .LVU44
 142 0054 013A     		subs	r2, r2, #1
 143              	.LVL25:
 144              	.L4:
 107:Drivers/CMSIS/DSP/Source/StatisticsFunctions/arm_mean_q31.c ****   {
 145              		.loc 1 107 17 is_stmt 1 view .LVU45
 146 0056 002A     		cmp	r2, #0
 147 0058 F7D1     		bne	.L5
 114:Drivers/CMSIS/DSP/Source/StatisticsFunctions/arm_mean_q31.c ****   }
 115:Drivers/CMSIS/DSP/Source/StatisticsFunctions/arm_mean_q31.c **** 
 116:Drivers/CMSIS/DSP/Source/StatisticsFunctions/arm_mean_q31.c ****   /* C = (A[0] + A[1] + A[2] + ... + A[blockSize-1]) / blockSize  */
 117:Drivers/CMSIS/DSP/Source/StatisticsFunctions/arm_mean_q31.c ****   /* Store the result to the destination */
 118:Drivers/CMSIS/DSP/Source/StatisticsFunctions/arm_mean_q31.c ****   *pResult = (q31_t) (sum / (int32_t) blockSize);
 148              		.loc 1 118 3 view .LVU46
 149              		.loc 1 118 27 is_stmt 0 view .LVU47
 150 005a 1A46     		mov	r2, r3
 151              	.LVL26:
 152              		.loc 1 118 27 view .LVU48
 153 005c DB17     		asrs	r3, r3, #31
 154              	.LVL27:
 155              		.loc 1 118 27 view .LVU49
 156 005e FFF7FEFF 		bl	__aeabi_ldivmod
 157              	.LVL28:
 158              		.loc 1 118 12 view .LVU50
 159 0062 C8F80000 		str	r0, [r8]
 119:Drivers/CMSIS/DSP/Source/StatisticsFunctions/arm_mean_q31.c **** }
 160              		.loc 1 119 1 view .LVU51
 161 0066 BDE8F081 		pop	{r4, r5, r6, r7, r8, pc}
 162              		.loc 1 119 1 view .LVU52
ARM GAS  /tmp/ccy4hloz.s 			page 6


 163              		.cfi_endproc
 164              	.LFE135:
 166              		.text
 167              	.Letext0:
 168              		.file 2 "/usr/arm-none-eabi/include/machine/_default_types.h"
 169              		.file 3 "/usr/arm-none-eabi/include/sys/_stdint.h"
 170              		.file 4 "Drivers/CMSIS/DSP/Include/arm_math.h"
ARM GAS  /tmp/ccy4hloz.s 			page 7

