ARM GAS  /tmp/ccYYIQGv.s 			page 1


   1              		.cpu cortex-m7
   2              		.arch armv7e-m
   3              		.fpu fpv5-sp-d16
   4              		.eabi_attribute 27, 1
   5              		.eabi_attribute 28, 1
   6              		.eabi_attribute 20, 1
   7              		.eabi_attribute 21, 1
   8              		.eabi_attribute 23, 3
   9              		.eabi_attribute 24, 1
  10              		.eabi_attribute 25, 1
  11              		.eabi_attribute 26, 1
  12              		.eabi_attribute 30, 1
  13              		.eabi_attribute 34, 1
  14              		.eabi_attribute 18, 4
  15              		.file	"arm_correlate_q31.c"
  16              		.text
  17              	.Ltext0:
  18              		.cfi_sections	.debug_frame
  19              		.file 1 "Drivers/CMSIS/DSP/Source/FilteringFunctions/arm_correlate_q31.c"
  20              		.section	.text.arm_correlate_q31,"ax",%progbits
  21              		.align	1
  22              		.global	arm_correlate_q31
  23              		.syntax unified
  24              		.thumb
  25              		.thumb_func
  27              	arm_correlate_q31:
  28              	.LVL0:
  29              	.LFB135:
   1:Drivers/CMSIS/DSP/Source/FilteringFunctions/arm_correlate_q31.c **** /* ----------------------------------------------------------------------
   2:Drivers/CMSIS/DSP/Source/FilteringFunctions/arm_correlate_q31.c ****  * Project:      CMSIS DSP Library
   3:Drivers/CMSIS/DSP/Source/FilteringFunctions/arm_correlate_q31.c ****  * Title:        arm_correlate_q31.c
   4:Drivers/CMSIS/DSP/Source/FilteringFunctions/arm_correlate_q31.c ****  * Description:  Correlation of Q31 sequences
   5:Drivers/CMSIS/DSP/Source/FilteringFunctions/arm_correlate_q31.c ****  *
   6:Drivers/CMSIS/DSP/Source/FilteringFunctions/arm_correlate_q31.c ****  * $Date:        27. January 2017
   7:Drivers/CMSIS/DSP/Source/FilteringFunctions/arm_correlate_q31.c ****  * $Revision:    V.1.5.1
   8:Drivers/CMSIS/DSP/Source/FilteringFunctions/arm_correlate_q31.c ****  *
   9:Drivers/CMSIS/DSP/Source/FilteringFunctions/arm_correlate_q31.c ****  * Target Processor: Cortex-M cores
  10:Drivers/CMSIS/DSP/Source/FilteringFunctions/arm_correlate_q31.c ****  * -------------------------------------------------------------------- */
  11:Drivers/CMSIS/DSP/Source/FilteringFunctions/arm_correlate_q31.c **** /*
  12:Drivers/CMSIS/DSP/Source/FilteringFunctions/arm_correlate_q31.c ****  * Copyright (C) 2010-2017 ARM Limited or its affiliates. All rights reserved.
  13:Drivers/CMSIS/DSP/Source/FilteringFunctions/arm_correlate_q31.c ****  *
  14:Drivers/CMSIS/DSP/Source/FilteringFunctions/arm_correlate_q31.c ****  * SPDX-License-Identifier: Apache-2.0
  15:Drivers/CMSIS/DSP/Source/FilteringFunctions/arm_correlate_q31.c ****  *
  16:Drivers/CMSIS/DSP/Source/FilteringFunctions/arm_correlate_q31.c ****  * Licensed under the Apache License, Version 2.0 (the License); you may
  17:Drivers/CMSIS/DSP/Source/FilteringFunctions/arm_correlate_q31.c ****  * not use this file except in compliance with the License.
  18:Drivers/CMSIS/DSP/Source/FilteringFunctions/arm_correlate_q31.c ****  * You may obtain a copy of the License at
  19:Drivers/CMSIS/DSP/Source/FilteringFunctions/arm_correlate_q31.c ****  *
  20:Drivers/CMSIS/DSP/Source/FilteringFunctions/arm_correlate_q31.c ****  * www.apache.org/licenses/LICENSE-2.0
  21:Drivers/CMSIS/DSP/Source/FilteringFunctions/arm_correlate_q31.c ****  *
  22:Drivers/CMSIS/DSP/Source/FilteringFunctions/arm_correlate_q31.c ****  * Unless required by applicable law or agreed to in writing, software
  23:Drivers/CMSIS/DSP/Source/FilteringFunctions/arm_correlate_q31.c ****  * distributed under the License is distributed on an AS IS BASIS, WITHOUT
  24:Drivers/CMSIS/DSP/Source/FilteringFunctions/arm_correlate_q31.c ****  * WARRANTIES OR CONDITIONS OF ANY KIND, either express or implied.
  25:Drivers/CMSIS/DSP/Source/FilteringFunctions/arm_correlate_q31.c ****  * See the License for the specific language governing permissions and
  26:Drivers/CMSIS/DSP/Source/FilteringFunctions/arm_correlate_q31.c ****  * limitations under the License.
  27:Drivers/CMSIS/DSP/Source/FilteringFunctions/arm_correlate_q31.c ****  */
  28:Drivers/CMSIS/DSP/Source/FilteringFunctions/arm_correlate_q31.c **** 
  29:Drivers/CMSIS/DSP/Source/FilteringFunctions/arm_correlate_q31.c **** #include "arm_math.h"
ARM GAS  /tmp/ccYYIQGv.s 			page 2


  30:Drivers/CMSIS/DSP/Source/FilteringFunctions/arm_correlate_q31.c **** 
  31:Drivers/CMSIS/DSP/Source/FilteringFunctions/arm_correlate_q31.c **** /**
  32:Drivers/CMSIS/DSP/Source/FilteringFunctions/arm_correlate_q31.c ****  * @ingroup groupFilters
  33:Drivers/CMSIS/DSP/Source/FilteringFunctions/arm_correlate_q31.c ****  */
  34:Drivers/CMSIS/DSP/Source/FilteringFunctions/arm_correlate_q31.c **** 
  35:Drivers/CMSIS/DSP/Source/FilteringFunctions/arm_correlate_q31.c **** /**
  36:Drivers/CMSIS/DSP/Source/FilteringFunctions/arm_correlate_q31.c ****  * @addtogroup Corr
  37:Drivers/CMSIS/DSP/Source/FilteringFunctions/arm_correlate_q31.c ****  * @{
  38:Drivers/CMSIS/DSP/Source/FilteringFunctions/arm_correlate_q31.c ****  */
  39:Drivers/CMSIS/DSP/Source/FilteringFunctions/arm_correlate_q31.c **** 
  40:Drivers/CMSIS/DSP/Source/FilteringFunctions/arm_correlate_q31.c **** /**
  41:Drivers/CMSIS/DSP/Source/FilteringFunctions/arm_correlate_q31.c ****  * @brief Correlation of Q31 sequences.
  42:Drivers/CMSIS/DSP/Source/FilteringFunctions/arm_correlate_q31.c ****  * @param[in] *pSrcA points to the first input sequence.
  43:Drivers/CMSIS/DSP/Source/FilteringFunctions/arm_correlate_q31.c ****  * @param[in] srcALen length of the first input sequence.
  44:Drivers/CMSIS/DSP/Source/FilteringFunctions/arm_correlate_q31.c ****  * @param[in] *pSrcB points to the second input sequence.
  45:Drivers/CMSIS/DSP/Source/FilteringFunctions/arm_correlate_q31.c ****  * @param[in] srcBLen length of the second input sequence.
  46:Drivers/CMSIS/DSP/Source/FilteringFunctions/arm_correlate_q31.c ****  * @param[out] *pDst points to the location where the output result is written.  Length 2 * max(src
  47:Drivers/CMSIS/DSP/Source/FilteringFunctions/arm_correlate_q31.c ****  * @return none.
  48:Drivers/CMSIS/DSP/Source/FilteringFunctions/arm_correlate_q31.c ****  *
  49:Drivers/CMSIS/DSP/Source/FilteringFunctions/arm_correlate_q31.c ****  * @details
  50:Drivers/CMSIS/DSP/Source/FilteringFunctions/arm_correlate_q31.c ****  * <b>Scaling and Overflow Behavior:</b>
  51:Drivers/CMSIS/DSP/Source/FilteringFunctions/arm_correlate_q31.c ****  *
  52:Drivers/CMSIS/DSP/Source/FilteringFunctions/arm_correlate_q31.c ****  * \par
  53:Drivers/CMSIS/DSP/Source/FilteringFunctions/arm_correlate_q31.c ****  * The function is implemented using an internal 64-bit accumulator.
  54:Drivers/CMSIS/DSP/Source/FilteringFunctions/arm_correlate_q31.c ****  * The accumulator has a 2.62 format and maintains full precision of the intermediate multiplicatio
  55:Drivers/CMSIS/DSP/Source/FilteringFunctions/arm_correlate_q31.c ****  * There is no saturation on intermediate additions.
  56:Drivers/CMSIS/DSP/Source/FilteringFunctions/arm_correlate_q31.c ****  * Thus, if the accumulator overflows it wraps around and distorts the result.
  57:Drivers/CMSIS/DSP/Source/FilteringFunctions/arm_correlate_q31.c ****  * The input signals should be scaled down to avoid intermediate overflows.
  58:Drivers/CMSIS/DSP/Source/FilteringFunctions/arm_correlate_q31.c ****  * Scale down one of the inputs by 1/min(srcALen, srcBLen)to avoid overflows since a
  59:Drivers/CMSIS/DSP/Source/FilteringFunctions/arm_correlate_q31.c ****  * maximum of min(srcALen, srcBLen) number of additions is carried internally.
  60:Drivers/CMSIS/DSP/Source/FilteringFunctions/arm_correlate_q31.c ****  * The 2.62 accumulator is right shifted by 31 bits and saturated to 1.31 format to yield the final
  61:Drivers/CMSIS/DSP/Source/FilteringFunctions/arm_correlate_q31.c ****  *
  62:Drivers/CMSIS/DSP/Source/FilteringFunctions/arm_correlate_q31.c ****  * \par
  63:Drivers/CMSIS/DSP/Source/FilteringFunctions/arm_correlate_q31.c ****  * See <code>arm_correlate_fast_q31()</code> for a faster but less precise implementation of this f
  64:Drivers/CMSIS/DSP/Source/FilteringFunctions/arm_correlate_q31.c ****  */
  65:Drivers/CMSIS/DSP/Source/FilteringFunctions/arm_correlate_q31.c **** 
  66:Drivers/CMSIS/DSP/Source/FilteringFunctions/arm_correlate_q31.c **** void arm_correlate_q31(
  67:Drivers/CMSIS/DSP/Source/FilteringFunctions/arm_correlate_q31.c ****   q31_t * pSrcA,
  68:Drivers/CMSIS/DSP/Source/FilteringFunctions/arm_correlate_q31.c ****   uint32_t srcALen,
  69:Drivers/CMSIS/DSP/Source/FilteringFunctions/arm_correlate_q31.c ****   q31_t * pSrcB,
  70:Drivers/CMSIS/DSP/Source/FilteringFunctions/arm_correlate_q31.c ****   uint32_t srcBLen,
  71:Drivers/CMSIS/DSP/Source/FilteringFunctions/arm_correlate_q31.c ****   q31_t * pDst)
  72:Drivers/CMSIS/DSP/Source/FilteringFunctions/arm_correlate_q31.c **** {
  30              		.loc 1 72 1 view -0
  31              		.cfi_startproc
  32              		@ args = 4, pretend = 0, frame = 56
  33              		@ frame_needed = 0, uses_anonymous_args = 0
  34              		.loc 1 72 1 is_stmt 0 view .LVU1
  35 0000 2DE9F04F 		push	{r4, r5, r6, r7, r8, r9, r10, fp, lr}
  36              	.LCFI0:
  37              		.cfi_def_cfa_offset 36
  38              		.cfi_offset 4, -36
  39              		.cfi_offset 5, -32
  40              		.cfi_offset 6, -28
  41              		.cfi_offset 7, -24
  42              		.cfi_offset 8, -20
  43              		.cfi_offset 9, -16
ARM GAS  /tmp/ccYYIQGv.s 			page 3


  44              		.cfi_offset 10, -12
  45              		.cfi_offset 11, -8
  46              		.cfi_offset 14, -4
  47 0004 8FB0     		sub	sp, sp, #60
  48              	.LCFI1:
  49              		.cfi_def_cfa_offset 96
  50 0006 0790     		str	r0, [sp, #28]
  51 0008 0592     		str	r2, [sp, #20]
  52 000a 0693     		str	r3, [sp, #24]
  73:Drivers/CMSIS/DSP/Source/FilteringFunctions/arm_correlate_q31.c **** 
  74:Drivers/CMSIS/DSP/Source/FilteringFunctions/arm_correlate_q31.c **** #if defined (ARM_MATH_DSP)
  75:Drivers/CMSIS/DSP/Source/FilteringFunctions/arm_correlate_q31.c **** 
  76:Drivers/CMSIS/DSP/Source/FilteringFunctions/arm_correlate_q31.c ****   /* Run the below code for Cortex-M4 and Cortex-M3 */
  77:Drivers/CMSIS/DSP/Source/FilteringFunctions/arm_correlate_q31.c **** 
  78:Drivers/CMSIS/DSP/Source/FilteringFunctions/arm_correlate_q31.c ****   q31_t *pIn1;                                   /* inputA pointer               */
  53              		.loc 1 78 3 is_stmt 1 view .LVU2
  79:Drivers/CMSIS/DSP/Source/FilteringFunctions/arm_correlate_q31.c ****   q31_t *pIn2;                                   /* inputB pointer               */
  54              		.loc 1 79 3 view .LVU3
  80:Drivers/CMSIS/DSP/Source/FilteringFunctions/arm_correlate_q31.c ****   q31_t *pOut = pDst;                            /* output pointer               */
  55              		.loc 1 80 3 view .LVU4
  56              	.LVL1:
  81:Drivers/CMSIS/DSP/Source/FilteringFunctions/arm_correlate_q31.c ****   q31_t *px;                                     /* Intermediate inputA pointer  */
  57              		.loc 1 81 3 view .LVU5
  82:Drivers/CMSIS/DSP/Source/FilteringFunctions/arm_correlate_q31.c ****   q31_t *py;                                     /* Intermediate inputB pointer  */
  58              		.loc 1 82 3 view .LVU6
  83:Drivers/CMSIS/DSP/Source/FilteringFunctions/arm_correlate_q31.c ****   q31_t *pSrc1;                                  /* Intermediate pointers        */
  59              		.loc 1 83 3 view .LVU7
  84:Drivers/CMSIS/DSP/Source/FilteringFunctions/arm_correlate_q31.c ****   q63_t sum, acc0, acc1, acc2;                   /* Accumulators                  */
  60              		.loc 1 84 3 view .LVU8
  85:Drivers/CMSIS/DSP/Source/FilteringFunctions/arm_correlate_q31.c ****   q31_t x0, x1, x2, c0;                          /* temporary variables for holding input and coeff
  61              		.loc 1 85 3 view .LVU9
  86:Drivers/CMSIS/DSP/Source/FilteringFunctions/arm_correlate_q31.c ****   uint32_t j, k = 0U, count, blkCnt, outBlockSize, blockSize1, blockSize2, blockSize3;  /* loop cou
  62              		.loc 1 86 3 view .LVU10
  87:Drivers/CMSIS/DSP/Source/FilteringFunctions/arm_correlate_q31.c ****   int32_t inc = 1;                               /* Destination address modifier */
  63              		.loc 1 87 3 view .LVU11
  88:Drivers/CMSIS/DSP/Source/FilteringFunctions/arm_correlate_q31.c **** 
  89:Drivers/CMSIS/DSP/Source/FilteringFunctions/arm_correlate_q31.c **** 
  90:Drivers/CMSIS/DSP/Source/FilteringFunctions/arm_correlate_q31.c ****   /* The algorithm implementation is based on the lengths of the inputs. */
  91:Drivers/CMSIS/DSP/Source/FilteringFunctions/arm_correlate_q31.c ****   /* srcB is always made to slide across srcA. */
  92:Drivers/CMSIS/DSP/Source/FilteringFunctions/arm_correlate_q31.c ****   /* So srcBLen is always considered as shorter or equal to srcALen */
  93:Drivers/CMSIS/DSP/Source/FilteringFunctions/arm_correlate_q31.c ****   /* But CORR(x, y) is reverse of CORR(y, x) */
  94:Drivers/CMSIS/DSP/Source/FilteringFunctions/arm_correlate_q31.c ****   /* So, when srcBLen > srcALen, output pointer is made to point to the end of the output buffer */
  95:Drivers/CMSIS/DSP/Source/FilteringFunctions/arm_correlate_q31.c ****   /* and the destination pointer modifier, inc is set to -1 */
  96:Drivers/CMSIS/DSP/Source/FilteringFunctions/arm_correlate_q31.c ****   /* If srcALen > srcBLen, zero pad has to be done to srcB to make the two inputs of same length */
  97:Drivers/CMSIS/DSP/Source/FilteringFunctions/arm_correlate_q31.c ****   /* But to improve the performance,
  98:Drivers/CMSIS/DSP/Source/FilteringFunctions/arm_correlate_q31.c ****    * we include zeroes in the output instead of zero padding either of the the inputs*/
  99:Drivers/CMSIS/DSP/Source/FilteringFunctions/arm_correlate_q31.c ****   /* If srcALen > srcBLen,
 100:Drivers/CMSIS/DSP/Source/FilteringFunctions/arm_correlate_q31.c ****    * (srcALen - srcBLen) zeroes has to included in the starting of the output buffer */
 101:Drivers/CMSIS/DSP/Source/FilteringFunctions/arm_correlate_q31.c ****   /* If srcALen < srcBLen,
 102:Drivers/CMSIS/DSP/Source/FilteringFunctions/arm_correlate_q31.c ****    * (srcALen - srcBLen) zeroes has to included in the ending of the output buffer */
 103:Drivers/CMSIS/DSP/Source/FilteringFunctions/arm_correlate_q31.c ****   if (srcALen >= srcBLen)
  64              		.loc 1 103 3 view .LVU12
  65              		.loc 1 103 6 is_stmt 0 view .LVU13
  66 000c 9942     		cmp	r1, r3
  67 000e 1DD3     		bcc	.L2
  68 0010 1A46     		mov	r2, r3
  69              	.LVL2:
ARM GAS  /tmp/ccYYIQGv.s 			page 4


 104:Drivers/CMSIS/DSP/Source/FilteringFunctions/arm_correlate_q31.c ****   {
 105:Drivers/CMSIS/DSP/Source/FilteringFunctions/arm_correlate_q31.c ****     /* Initialization of inputA pointer */
 106:Drivers/CMSIS/DSP/Source/FilteringFunctions/arm_correlate_q31.c ****     pIn1 = (pSrcA);
  70              		.loc 1 106 5 is_stmt 1 view .LVU14
 107:Drivers/CMSIS/DSP/Source/FilteringFunctions/arm_correlate_q31.c **** 
 108:Drivers/CMSIS/DSP/Source/FilteringFunctions/arm_correlate_q31.c ****     /* Initialization of inputB pointer */
 109:Drivers/CMSIS/DSP/Source/FilteringFunctions/arm_correlate_q31.c ****     pIn2 = (pSrcB);
  71              		.loc 1 109 5 view .LVU15
 110:Drivers/CMSIS/DSP/Source/FilteringFunctions/arm_correlate_q31.c **** 
 111:Drivers/CMSIS/DSP/Source/FilteringFunctions/arm_correlate_q31.c ****     /* Number of output samples is calculated */
 112:Drivers/CMSIS/DSP/Source/FilteringFunctions/arm_correlate_q31.c ****     outBlockSize = (2U * srcALen) - 1U;
  72              		.loc 1 112 5 view .LVU16
  73              		.loc 1 112 24 is_stmt 0 view .LVU17
  74 0012 4B00     		lsls	r3, r1, #1
  75              	.LVL3:
  76              		.loc 1 112 18 view .LVU18
  77 0014 013B     		subs	r3, r3, #1
  78              	.LVL4:
 113:Drivers/CMSIS/DSP/Source/FilteringFunctions/arm_correlate_q31.c **** 
 114:Drivers/CMSIS/DSP/Source/FilteringFunctions/arm_correlate_q31.c ****     /* When srcALen > srcBLen, zero padding is done to srcB
 115:Drivers/CMSIS/DSP/Source/FilteringFunctions/arm_correlate_q31.c ****      * to make their lengths equal.
 116:Drivers/CMSIS/DSP/Source/FilteringFunctions/arm_correlate_q31.c ****      * Instead, (outBlockSize - (srcALen + srcBLen - 1))
 117:Drivers/CMSIS/DSP/Source/FilteringFunctions/arm_correlate_q31.c ****      * number of output samples are made zero */
 118:Drivers/CMSIS/DSP/Source/FilteringFunctions/arm_correlate_q31.c ****     j = outBlockSize - (srcALen + (srcBLen - 1U));
  79              		.loc 1 118 5 is_stmt 1 view .LVU19
  80              		.loc 1 118 33 is_stmt 0 view .LVU20
  81 0016 8A18     		adds	r2, r1, r2
  82              	.LVL5:
  83              		.loc 1 118 22 view .LVU21
  84 0018 9B1A     		subs	r3, r3, r2
  85              	.LVL6:
  86              		.loc 1 118 7 view .LVU22
  87 001a 0133     		adds	r3, r3, #1
  88              	.LVL7:
 119:Drivers/CMSIS/DSP/Source/FilteringFunctions/arm_correlate_q31.c **** 
 120:Drivers/CMSIS/DSP/Source/FilteringFunctions/arm_correlate_q31.c ****     /* Updating the pointer position to non zero value */
 121:Drivers/CMSIS/DSP/Source/FilteringFunctions/arm_correlate_q31.c ****     pOut += j;
  89              		.loc 1 121 5 is_stmt 1 view .LVU23
  90              		.loc 1 121 10 is_stmt 0 view .LVU24
  91 001c 189A     		ldr	r2, [sp, #96]
  92 001e 02EB8305 		add	r5, r2, r3, lsl #2
  93              	.LVL8:
  87:Drivers/CMSIS/DSP/Source/FilteringFunctions/arm_correlate_q31.c **** 
  94              		.loc 1 87 11 view .LVU25
  95 0022 4FF0010B 		mov	fp, #1
  96              	.LVL9:
  97              	.L3:
 122:Drivers/CMSIS/DSP/Source/FilteringFunctions/arm_correlate_q31.c **** 
 123:Drivers/CMSIS/DSP/Source/FilteringFunctions/arm_correlate_q31.c ****   }
 124:Drivers/CMSIS/DSP/Source/FilteringFunctions/arm_correlate_q31.c ****   else
 125:Drivers/CMSIS/DSP/Source/FilteringFunctions/arm_correlate_q31.c ****   {
 126:Drivers/CMSIS/DSP/Source/FilteringFunctions/arm_correlate_q31.c ****     /* Initialization of inputA pointer */
 127:Drivers/CMSIS/DSP/Source/FilteringFunctions/arm_correlate_q31.c ****     pIn1 = (pSrcB);
 128:Drivers/CMSIS/DSP/Source/FilteringFunctions/arm_correlate_q31.c **** 
 129:Drivers/CMSIS/DSP/Source/FilteringFunctions/arm_correlate_q31.c ****     /* Initialization of inputB pointer */
 130:Drivers/CMSIS/DSP/Source/FilteringFunctions/arm_correlate_q31.c ****     pIn2 = (pSrcA);
 131:Drivers/CMSIS/DSP/Source/FilteringFunctions/arm_correlate_q31.c **** 
ARM GAS  /tmp/ccYYIQGv.s 			page 5


 132:Drivers/CMSIS/DSP/Source/FilteringFunctions/arm_correlate_q31.c ****     /* srcBLen is always considered as shorter or equal to srcALen */
 133:Drivers/CMSIS/DSP/Source/FilteringFunctions/arm_correlate_q31.c ****     j = srcBLen;
 134:Drivers/CMSIS/DSP/Source/FilteringFunctions/arm_correlate_q31.c ****     srcBLen = srcALen;
 135:Drivers/CMSIS/DSP/Source/FilteringFunctions/arm_correlate_q31.c ****     srcALen = j;
 136:Drivers/CMSIS/DSP/Source/FilteringFunctions/arm_correlate_q31.c **** 
 137:Drivers/CMSIS/DSP/Source/FilteringFunctions/arm_correlate_q31.c ****     /* CORR(x, y) = Reverse order(CORR(y, x)) */
 138:Drivers/CMSIS/DSP/Source/FilteringFunctions/arm_correlate_q31.c ****     /* Hence set the destination pointer to point to the last output sample */
 139:Drivers/CMSIS/DSP/Source/FilteringFunctions/arm_correlate_q31.c ****     pOut = pDst + ((srcALen + srcBLen) - 2U);
 140:Drivers/CMSIS/DSP/Source/FilteringFunctions/arm_correlate_q31.c **** 
 141:Drivers/CMSIS/DSP/Source/FilteringFunctions/arm_correlate_q31.c ****     /* Destination address modifier is set to -1 */
 142:Drivers/CMSIS/DSP/Source/FilteringFunctions/arm_correlate_q31.c ****     inc = -1;
 143:Drivers/CMSIS/DSP/Source/FilteringFunctions/arm_correlate_q31.c **** 
 144:Drivers/CMSIS/DSP/Source/FilteringFunctions/arm_correlate_q31.c ****   }
 145:Drivers/CMSIS/DSP/Source/FilteringFunctions/arm_correlate_q31.c **** 
 146:Drivers/CMSIS/DSP/Source/FilteringFunctions/arm_correlate_q31.c ****   /* The function is internally
 147:Drivers/CMSIS/DSP/Source/FilteringFunctions/arm_correlate_q31.c ****    * divided into three parts according to the number of multiplications that has to be
 148:Drivers/CMSIS/DSP/Source/FilteringFunctions/arm_correlate_q31.c ****    * taken place between inputA samples and inputB samples. In the first part of the
 149:Drivers/CMSIS/DSP/Source/FilteringFunctions/arm_correlate_q31.c ****    * algorithm, the multiplications increase by one for every iteration.
 150:Drivers/CMSIS/DSP/Source/FilteringFunctions/arm_correlate_q31.c ****    * In the second part of the algorithm, srcBLen number of multiplications are done.
 151:Drivers/CMSIS/DSP/Source/FilteringFunctions/arm_correlate_q31.c ****    * In the third part of the algorithm, the multiplications decrease by one
 152:Drivers/CMSIS/DSP/Source/FilteringFunctions/arm_correlate_q31.c ****    * for every iteration.*/
 153:Drivers/CMSIS/DSP/Source/FilteringFunctions/arm_correlate_q31.c ****   /* The algorithm is implemented in three stages.
 154:Drivers/CMSIS/DSP/Source/FilteringFunctions/arm_correlate_q31.c ****    * The loop counters of each stage is initiated here. */
 155:Drivers/CMSIS/DSP/Source/FilteringFunctions/arm_correlate_q31.c ****   blockSize1 = srcBLen - 1U;
  98              		.loc 1 155 3 is_stmt 1 view .LVU26
  99              		.loc 1 155 14 is_stmt 0 view .LVU27
 100 0026 069B     		ldr	r3, [sp, #24]
 101 0028 5C1E     		subs	r4, r3, #1
 102              	.LVL10:
 156:Drivers/CMSIS/DSP/Source/FilteringFunctions/arm_correlate_q31.c ****   blockSize2 = srcALen - (srcBLen - 1U);
 103              		.loc 1 156 3 is_stmt 1 view .LVU28
 104              		.loc 1 156 24 is_stmt 0 view .LVU29
 105 002a C91A     		subs	r1, r1, r3
 106              	.LVL11:
 107              		.loc 1 156 14 view .LVU30
 108 002c 01F1010E 		add	lr, r1, #1
 109              	.LVL12:
 157:Drivers/CMSIS/DSP/Source/FilteringFunctions/arm_correlate_q31.c ****   blockSize3 = blockSize1;
 110              		.loc 1 157 3 is_stmt 1 view .LVU31
 158:Drivers/CMSIS/DSP/Source/FilteringFunctions/arm_correlate_q31.c **** 
 159:Drivers/CMSIS/DSP/Source/FilteringFunctions/arm_correlate_q31.c ****   /* --------------------------
 160:Drivers/CMSIS/DSP/Source/FilteringFunctions/arm_correlate_q31.c ****    * Initializations of stage1
 161:Drivers/CMSIS/DSP/Source/FilteringFunctions/arm_correlate_q31.c ****    * -------------------------*/
 162:Drivers/CMSIS/DSP/Source/FilteringFunctions/arm_correlate_q31.c **** 
 163:Drivers/CMSIS/DSP/Source/FilteringFunctions/arm_correlate_q31.c ****   /* sum = x[0] * y[srcBlen - 1]
 164:Drivers/CMSIS/DSP/Source/FilteringFunctions/arm_correlate_q31.c ****    * sum = x[0] * y[srcBlen - 2] + x[1] * y[srcBlen - 1]
 165:Drivers/CMSIS/DSP/Source/FilteringFunctions/arm_correlate_q31.c ****    * ....
 166:Drivers/CMSIS/DSP/Source/FilteringFunctions/arm_correlate_q31.c ****    * sum = x[0] * y[0] + x[1] * y[1] +...+ x[srcBLen - 1] * y[srcBLen - 1]
 167:Drivers/CMSIS/DSP/Source/FilteringFunctions/arm_correlate_q31.c ****    */
 168:Drivers/CMSIS/DSP/Source/FilteringFunctions/arm_correlate_q31.c **** 
 169:Drivers/CMSIS/DSP/Source/FilteringFunctions/arm_correlate_q31.c ****   /* In this stage the MAC operations are increased by 1 for every iteration.
 170:Drivers/CMSIS/DSP/Source/FilteringFunctions/arm_correlate_q31.c ****      The count variable holds the number of MAC operations performed */
 171:Drivers/CMSIS/DSP/Source/FilteringFunctions/arm_correlate_q31.c ****   count = 1U;
 111              		.loc 1 171 3 view .LVU32
 172:Drivers/CMSIS/DSP/Source/FilteringFunctions/arm_correlate_q31.c **** 
 173:Drivers/CMSIS/DSP/Source/FilteringFunctions/arm_correlate_q31.c ****   /* Working pointer of inputA */
 174:Drivers/CMSIS/DSP/Source/FilteringFunctions/arm_correlate_q31.c ****   px = pIn1;
ARM GAS  /tmp/ccYYIQGv.s 			page 6


 112              		.loc 1 174 3 view .LVU33
 175:Drivers/CMSIS/DSP/Source/FilteringFunctions/arm_correlate_q31.c **** 
 176:Drivers/CMSIS/DSP/Source/FilteringFunctions/arm_correlate_q31.c ****   /* Working pointer of inputB */
 177:Drivers/CMSIS/DSP/Source/FilteringFunctions/arm_correlate_q31.c ****   pSrc1 = pIn2 + (srcBLen - 1U);
 113              		.loc 1 177 3 view .LVU34
 114              		.loc 1 177 16 is_stmt 0 view .LVU35
 115 0030 6FF04047 		mvn	r7, #-1073741824
 116 0034 1F44     		add	r7, r7, r3
 117              		.loc 1 177 9 view .LVU36
 118 0036 059B     		ldr	r3, [sp, #20]
 119 0038 03EB8701 		add	r1, r3, r7, lsl #2
 120              	.LVL13:
 178:Drivers/CMSIS/DSP/Source/FilteringFunctions/arm_correlate_q31.c ****   py = pSrc1;
 121              		.loc 1 178 3 is_stmt 1 view .LVU37
 179:Drivers/CMSIS/DSP/Source/FilteringFunctions/arm_correlate_q31.c **** 
 180:Drivers/CMSIS/DSP/Source/FilteringFunctions/arm_correlate_q31.c ****   /* ------------------------
 181:Drivers/CMSIS/DSP/Source/FilteringFunctions/arm_correlate_q31.c ****    * Stage1 process
 182:Drivers/CMSIS/DSP/Source/FilteringFunctions/arm_correlate_q31.c ****    * ----------------------*/
 183:Drivers/CMSIS/DSP/Source/FilteringFunctions/arm_correlate_q31.c **** 
 184:Drivers/CMSIS/DSP/Source/FilteringFunctions/arm_correlate_q31.c ****   /* The first stage starts here */
 185:Drivers/CMSIS/DSP/Source/FilteringFunctions/arm_correlate_q31.c ****   while (blockSize1 > 0U)
 122              		.loc 1 185 3 view .LVU38
 178:Drivers/CMSIS/DSP/Source/FilteringFunctions/arm_correlate_q31.c ****   py = pSrc1;
 123              		.loc 1 178 6 is_stmt 0 view .LVU39
 124 003c 0A46     		mov	r2, r1
 171:Drivers/CMSIS/DSP/Source/FilteringFunctions/arm_correlate_q31.c **** 
 125              		.loc 1 171 9 view .LVU40
 126 003e 0126     		movs	r6, #1
 127 0040 0095     		str	r5, [sp]
 128 0042 2546     		mov	r5, r4
 129              	.LVL14:
 171:Drivers/CMSIS/DSP/Source/FilteringFunctions/arm_correlate_q31.c **** 
 130              		.loc 1 171 9 view .LVU41
 131 0044 2046     		mov	r0, r4
 132 0046 F246     		mov	r10, lr
 133 0048 8846     		mov	r8, r1
 134              		.loc 1 185 9 view .LVU42
 135 004a 80E0     		b	.L4
 136              	.LVL15:
 137              	.L2:
 127:Drivers/CMSIS/DSP/Source/FilteringFunctions/arm_correlate_q31.c **** 
 138              		.loc 1 127 5 is_stmt 1 view .LVU43
 130:Drivers/CMSIS/DSP/Source/FilteringFunctions/arm_correlate_q31.c **** 
 139              		.loc 1 130 5 view .LVU44
 133:Drivers/CMSIS/DSP/Source/FilteringFunctions/arm_correlate_q31.c ****     srcBLen = srcALen;
 140              		.loc 1 133 5 view .LVU45
 134:Drivers/CMSIS/DSP/Source/FilteringFunctions/arm_correlate_q31.c ****     srcALen = j;
 141              		.loc 1 134 5 view .LVU46
 135:Drivers/CMSIS/DSP/Source/FilteringFunctions/arm_correlate_q31.c **** 
 142              		.loc 1 135 5 view .LVU47
 139:Drivers/CMSIS/DSP/Source/FilteringFunctions/arm_correlate_q31.c **** 
 143              		.loc 1 139 5 view .LVU48
 139:Drivers/CMSIS/DSP/Source/FilteringFunctions/arm_correlate_q31.c **** 
 144              		.loc 1 139 29 is_stmt 0 view .LVU49
 145 004c 0698     		ldr	r0, [sp, #24]
 146              	.LVL16:
 139:Drivers/CMSIS/DSP/Source/FilteringFunctions/arm_correlate_q31.c **** 
ARM GAS  /tmp/ccYYIQGv.s 			page 7


 147              		.loc 1 139 29 view .LVU50
 148 004e 0A18     		adds	r2, r1, r0
 149              	.LVL17:
 139:Drivers/CMSIS/DSP/Source/FilteringFunctions/arm_correlate_q31.c **** 
 150              		.loc 1 139 17 view .LVU51
 151 0050 4D4D     		ldr	r5, .L39
 152 0052 1544     		add	r5, r5, r2
 139:Drivers/CMSIS/DSP/Source/FilteringFunctions/arm_correlate_q31.c **** 
 153              		.loc 1 139 10 view .LVU52
 154 0054 189B     		ldr	r3, [sp, #96]
 155 0056 03EB8505 		add	r5, r3, r5, lsl #2
 156              	.LVL18:
 142:Drivers/CMSIS/DSP/Source/FilteringFunctions/arm_correlate_q31.c **** 
 157              		.loc 1 142 5 is_stmt 1 view .LVU53
 139:Drivers/CMSIS/DSP/Source/FilteringFunctions/arm_correlate_q31.c **** 
 158              		.loc 1 139 10 is_stmt 0 view .LVU54
 159 005a 079B     		ldr	r3, [sp, #28]
 127:Drivers/CMSIS/DSP/Source/FilteringFunctions/arm_correlate_q31.c **** 
 160              		.loc 1 127 10 view .LVU55
 161 005c 059A     		ldr	r2, [sp, #20]
 162 005e 0792     		str	r2, [sp, #28]
 163              	.LVL19:
 130:Drivers/CMSIS/DSP/Source/FilteringFunctions/arm_correlate_q31.c **** 
 164              		.loc 1 130 10 view .LVU56
 165 0060 0593     		str	r3, [sp, #20]
 166              	.LVL20:
 139:Drivers/CMSIS/DSP/Source/FilteringFunctions/arm_correlate_q31.c **** 
 167              		.loc 1 139 10 view .LVU57
 168 0062 0B46     		mov	r3, r1
 169              	.LVL21:
 135:Drivers/CMSIS/DSP/Source/FilteringFunctions/arm_correlate_q31.c **** 
 170              		.loc 1 135 13 view .LVU58
 171 0064 0146     		mov	r1, r0
 172              	.LVL22:
 134:Drivers/CMSIS/DSP/Source/FilteringFunctions/arm_correlate_q31.c ****     srcALen = j;
 173              		.loc 1 134 13 view .LVU59
 174 0066 0693     		str	r3, [sp, #24]
 175              	.LVL23:
 142:Drivers/CMSIS/DSP/Source/FilteringFunctions/arm_correlate_q31.c **** 
 176              		.loc 1 142 9 view .LVU60
 177 0068 4FF0FF3B 		mov	fp, #-1
 178 006c DBE7     		b	.L3
 179              	.LVL24:
 180              	.L6:
 186:Drivers/CMSIS/DSP/Source/FilteringFunctions/arm_correlate_q31.c ****   {
 187:Drivers/CMSIS/DSP/Source/FilteringFunctions/arm_correlate_q31.c ****     /* Accumulator is made zero for every iteration */
 188:Drivers/CMSIS/DSP/Source/FilteringFunctions/arm_correlate_q31.c ****     sum = 0;
 189:Drivers/CMSIS/DSP/Source/FilteringFunctions/arm_correlate_q31.c **** 
 190:Drivers/CMSIS/DSP/Source/FilteringFunctions/arm_correlate_q31.c ****     /* Apply loop unrolling and compute 4 MACs simultaneously. */
 191:Drivers/CMSIS/DSP/Source/FilteringFunctions/arm_correlate_q31.c ****     k = count >> 2;
 192:Drivers/CMSIS/DSP/Source/FilteringFunctions/arm_correlate_q31.c **** 
 193:Drivers/CMSIS/DSP/Source/FilteringFunctions/arm_correlate_q31.c ****     /* First part of the processing with loop unrolling.  Compute 4 MACs at a time.
 194:Drivers/CMSIS/DSP/Source/FilteringFunctions/arm_correlate_q31.c ****      ** a second loop below computes MACs for the remaining 1 to 3 samples. */
 195:Drivers/CMSIS/DSP/Source/FilteringFunctions/arm_correlate_q31.c ****     while (k > 0U)
 196:Drivers/CMSIS/DSP/Source/FilteringFunctions/arm_correlate_q31.c ****     {
 197:Drivers/CMSIS/DSP/Source/FilteringFunctions/arm_correlate_q31.c ****       /* x[0] * y[srcBLen - 4] */
 198:Drivers/CMSIS/DSP/Source/FilteringFunctions/arm_correlate_q31.c ****       sum += (q63_t) * px++ * (*py++);
ARM GAS  /tmp/ccYYIQGv.s 			page 8


 181              		.loc 1 198 7 is_stmt 1 view .LVU61
 182              		.loc 1 198 22 is_stmt 0 view .LVU62
 183 006e DCF80060 		ldr	r6, [ip]
 184              		.loc 1 198 14 view .LVU63
 185 0072 4FEAE67E 		asr	lr, r6, #31
 186              	.LVL25:
 187              		.loc 1 198 32 view .LVU64
 188 0076 1768     		ldr	r7, [r2]
 189 0078 FC17     		asrs	r4, r7, #31
 190              		.loc 1 198 29 view .LVU65
 191 007a 06FB04F4 		mul	r4, r6, r4
 192 007e 07FB0E44 		mla	r4, r7, lr, r4
 193 0082 A6FB07E6 		umull	lr, r6, r6, r7
 194 0086 2644     		add	r6, r6, r4
 195              		.loc 1 198 11 view .LVU66
 196 0088 13EB0E04 		adds	r4, r3, lr
 197 008c 46EB0907 		adc	r7, r6, r9
 198              	.LVL26:
 199:Drivers/CMSIS/DSP/Source/FilteringFunctions/arm_correlate_q31.c ****       /* x[1] * y[srcBLen - 3] */
 200:Drivers/CMSIS/DSP/Source/FilteringFunctions/arm_correlate_q31.c ****       sum += (q63_t) * px++ * (*py++);
 199              		.loc 1 200 7 is_stmt 1 view .LVU67
 200              		.loc 1 200 22 is_stmt 0 view .LVU68
 201 0090 DCF80460 		ldr	r6, [ip, #4]
 202              		.loc 1 200 14 view .LVU69
 203 0094 4FEAE679 		asr	r9, r6, #31
 204              	.LVL27:
 205              		.loc 1 200 32 view .LVU70
 206 0098 5368     		ldr	r3, [r2, #4]
 207 009a 4FEAE37E 		asr	lr, r3, #31
 208              		.loc 1 200 29 view .LVU71
 209 009e 06FB0EFE 		mul	lr, r6, lr
 210 00a2 03FB09EE 		mla	lr, r3, r9, lr
 211 00a6 A6FB0336 		umull	r3, r6, r6, r3
 212 00aa 7644     		add	r6, r6, lr
 213              		.loc 1 200 11 view .LVU72
 214 00ac E318     		adds	r3, r4, r3
 215 00ae 46EB0706 		adc	r6, r6, r7
 216              	.LVL28:
 201:Drivers/CMSIS/DSP/Source/FilteringFunctions/arm_correlate_q31.c ****       /* x[2] * y[srcBLen - 2] */
 202:Drivers/CMSIS/DSP/Source/FilteringFunctions/arm_correlate_q31.c ****       sum += (q63_t) * px++ * (*py++);
 217              		.loc 1 202 7 is_stmt 1 view .LVU73
 218              		.loc 1 202 22 is_stmt 0 view .LVU74
 219 00b2 DCF80840 		ldr	r4, [ip, #8]
 220              		.loc 1 202 14 view .LVU75
 221 00b6 4FEAE479 		asr	r9, r4, #31
 222              	.LVL29:
 223              		.loc 1 202 32 view .LVU76
 224 00ba 9768     		ldr	r7, [r2, #8]
 225 00bc 4FEAE77E 		asr	lr, r7, #31
 226              		.loc 1 202 29 view .LVU77
 227 00c0 04FB0EFE 		mul	lr, r4, lr
 228 00c4 07FB09EE 		mla	lr, r7, r9, lr
 229 00c8 A4FB0774 		umull	r7, r4, r4, r7
 230 00cc 7444     		add	r4, r4, lr
 231              		.loc 1 202 11 view .LVU78
 232 00ce DF19     		adds	r7, r3, r7
 233 00d0 44EB0606 		adc	r6, r4, r6
ARM GAS  /tmp/ccYYIQGv.s 			page 9


 234              	.LVL30:
 203:Drivers/CMSIS/DSP/Source/FilteringFunctions/arm_correlate_q31.c ****       /* x[3] * y[srcBLen - 1] */
 204:Drivers/CMSIS/DSP/Source/FilteringFunctions/arm_correlate_q31.c ****       sum += (q63_t) * px++ * (*py++);
 235              		.loc 1 204 7 is_stmt 1 view .LVU79
 236              		.loc 1 204 22 is_stmt 0 view .LVU80
 237 00d4 DCF80C30 		ldr	r3, [ip, #12]
 238              		.loc 1 204 14 view .LVU81
 239 00d8 4FEAE379 		asr	r9, r3, #31
 240              	.LVL31:
 241              		.loc 1 204 32 view .LVU82
 242 00dc D468     		ldr	r4, [r2, #12]
 243 00de 4FEAE47E 		asr	lr, r4, #31
 244              		.loc 1 204 29 view .LVU83
 245 00e2 03FB0EFE 		mul	lr, r3, lr
 246 00e6 04FB09EE 		mla	lr, r4, r9, lr
 247 00ea A3FB0449 		umull	r4, r9, r3, r4
 248 00ee F144     		add	r9, r9, lr
 249              		.loc 1 204 11 view .LVU84
 250 00f0 3B19     		adds	r3, r7, r4
 251 00f2 49EB0609 		adc	r9, r9, r6
 252              	.LVL32:
 205:Drivers/CMSIS/DSP/Source/FilteringFunctions/arm_correlate_q31.c **** 
 206:Drivers/CMSIS/DSP/Source/FilteringFunctions/arm_correlate_q31.c ****       /* Decrement the loop counter */
 207:Drivers/CMSIS/DSP/Source/FilteringFunctions/arm_correlate_q31.c ****       k--;
 253              		.loc 1 207 7 is_stmt 1 view .LVU85
 254              		.loc 1 207 8 is_stmt 0 view .LVU86
 255 00f6 0139     		subs	r1, r1, #1
 256              	.LVL33:
 204:Drivers/CMSIS/DSP/Source/FilteringFunctions/arm_correlate_q31.c **** 
 257              		.loc 1 204 35 view .LVU87
 258 00f8 1032     		adds	r2, r2, #16
 259              	.LVL34:
 204:Drivers/CMSIS/DSP/Source/FilteringFunctions/arm_correlate_q31.c **** 
 260              		.loc 1 204 26 view .LVU88
 261 00fa 0CF1100C 		add	ip, ip, #16
 262              	.LVL35:
 263              	.L5:
 195:Drivers/CMSIS/DSP/Source/FilteringFunctions/arm_correlate_q31.c ****     {
 264              		.loc 1 195 14 is_stmt 1 view .LVU89
 265 00fe 0029     		cmp	r1, #0
 266 0100 B5D1     		bne	.L6
 208:Drivers/CMSIS/DSP/Source/FilteringFunctions/arm_correlate_q31.c ****     }
 209:Drivers/CMSIS/DSP/Source/FilteringFunctions/arm_correlate_q31.c **** 
 210:Drivers/CMSIS/DSP/Source/FilteringFunctions/arm_correlate_q31.c ****     /* If the count is not a multiple of 4, compute any remaining MACs here.
 211:Drivers/CMSIS/DSP/Source/FilteringFunctions/arm_correlate_q31.c ****      ** No loop unrolling is used. */
 212:Drivers/CMSIS/DSP/Source/FilteringFunctions/arm_correlate_q31.c ****     k = count % 0x4U;
 267              		.loc 1 212 7 is_stmt 0 view .LVU90
 268 0102 019E     		ldr	r6, [sp, #4]
 269              		.loc 1 212 5 is_stmt 1 view .LVU91
 270              		.loc 1 212 7 is_stmt 0 view .LVU92
 271 0104 06F00307 		and	r7, r6, #3
 272              	.LVL36:
 213:Drivers/CMSIS/DSP/Source/FilteringFunctions/arm_correlate_q31.c **** 
 214:Drivers/CMSIS/DSP/Source/FilteringFunctions/arm_correlate_q31.c ****     while (k > 0U)
 273              		.loc 1 214 5 is_stmt 1 view .LVU93
 274              		.loc 1 214 11 is_stmt 0 view .LVU94
 275 0108 12E0     		b	.L7
ARM GAS  /tmp/ccYYIQGv.s 			page 10


 276              	.L8:
 215:Drivers/CMSIS/DSP/Source/FilteringFunctions/arm_correlate_q31.c ****     {
 216:Drivers/CMSIS/DSP/Source/FilteringFunctions/arm_correlate_q31.c ****       /* Perform the multiply-accumulates */
 217:Drivers/CMSIS/DSP/Source/FilteringFunctions/arm_correlate_q31.c ****       /* x[0] * y[srcBLen - 1] */
 218:Drivers/CMSIS/DSP/Source/FilteringFunctions/arm_correlate_q31.c ****       sum += (q63_t) * px++ * (*py++);
 277              		.loc 1 218 7 is_stmt 1 view .LVU95
 278              	.LVL37:
 279              		.loc 1 218 22 is_stmt 0 view .LVU96
 280 010a 5CF8041B 		ldr	r1, [ip], #4
 281              	.LVL38:
 282              		.loc 1 218 14 view .LVU97
 283 010e 4FEAE17E 		asr	lr, r1, #31
 284              	.LVL39:
 285              		.loc 1 218 32 view .LVU98
 286 0112 52F8044B 		ldr	r4, [r2], #4
 287              	.LVL40:
 288              		.loc 1 218 32 view .LVU99
 289 0116 E617     		asrs	r6, r4, #31
 290              		.loc 1 218 29 view .LVU100
 291 0118 01FB06F6 		mul	r6, r1, r6
 292 011c 04FB0E66 		mla	r6, r4, lr, r6
 293 0120 A1FB0414 		umull	r1, r4, r1, r4
 294 0124 3444     		add	r4, r4, r6
 295              		.loc 1 218 11 view .LVU101
 296 0126 5918     		adds	r1, r3, r1
 297 0128 0B46     		mov	r3, r1
 298              	.LVL41:
 299              		.loc 1 218 11 view .LVU102
 300 012a 44EB0909 		adc	r9, r4, r9
 301              	.LVL42:
 219:Drivers/CMSIS/DSP/Source/FilteringFunctions/arm_correlate_q31.c **** 
 220:Drivers/CMSIS/DSP/Source/FilteringFunctions/arm_correlate_q31.c ****       /* Decrement the loop counter */
 221:Drivers/CMSIS/DSP/Source/FilteringFunctions/arm_correlate_q31.c ****       k--;
 302              		.loc 1 221 7 is_stmt 1 view .LVU103
 303              		.loc 1 221 8 is_stmt 0 view .LVU104
 304 012e 013F     		subs	r7, r7, #1
 305              	.LVL43:
 306              	.L7:
 214:Drivers/CMSIS/DSP/Source/FilteringFunctions/arm_correlate_q31.c ****     {
 307              		.loc 1 214 14 is_stmt 1 view .LVU105
 308 0130 002F     		cmp	r7, #0
 309 0132 EAD1     		bne	.L8
 222:Drivers/CMSIS/DSP/Source/FilteringFunctions/arm_correlate_q31.c ****     }
 223:Drivers/CMSIS/DSP/Source/FilteringFunctions/arm_correlate_q31.c **** 
 224:Drivers/CMSIS/DSP/Source/FilteringFunctions/arm_correlate_q31.c ****     /* Store the result in the accumulator in the destination buffer. */
 225:Drivers/CMSIS/DSP/Source/FilteringFunctions/arm_correlate_q31.c ****     *pOut = (q31_t) (sum >> 31);
 310              		.loc 1 225 26 is_stmt 0 view .LVU106
 311 0134 019E     		ldr	r6, [sp, #4]
 312              		.loc 1 225 5 is_stmt 1 view .LVU107
 313              		.loc 1 225 26 is_stmt 0 view .LVU108
 314 0136 DB0F     		lsrs	r3, r3, #31
 315              	.LVL44:
 316              		.loc 1 225 26 view .LVU109
 317 0138 43EA4903 		orr	r3, r3, r9, lsl #1
 318              		.loc 1 225 11 view .LVU110
 319 013c 009A     		ldr	r2, [sp]
 320              	.LVL45:
ARM GAS  /tmp/ccYYIQGv.s 			page 11


 321              		.loc 1 225 11 view .LVU111
 322 013e 1360     		str	r3, [r2]
 226:Drivers/CMSIS/DSP/Source/FilteringFunctions/arm_correlate_q31.c ****     /* Destination pointer is updated according to the address modifier, inc */
 227:Drivers/CMSIS/DSP/Source/FilteringFunctions/arm_correlate_q31.c ****     pOut += inc;
 323              		.loc 1 227 5 is_stmt 1 view .LVU112
 324              		.loc 1 227 10 is_stmt 0 view .LVU113
 325 0140 02EB8B03 		add	r3, r2, fp, lsl #2
 326 0144 0093     		str	r3, [sp]
 327              	.LVL46:
 228:Drivers/CMSIS/DSP/Source/FilteringFunctions/arm_correlate_q31.c **** 
 229:Drivers/CMSIS/DSP/Source/FilteringFunctions/arm_correlate_q31.c ****     /* Update the inputA and inputB pointers for next MAC calculation */
 230:Drivers/CMSIS/DSP/Source/FilteringFunctions/arm_correlate_q31.c ****     py = pSrc1 - count;
 328              		.loc 1 230 5 is_stmt 1 view .LVU114
 329              		.loc 1 230 8 is_stmt 0 view .LVU115
 330 0146 A8EB8602 		sub	r2, r8, r6, lsl #2
 331              	.LVL47:
 231:Drivers/CMSIS/DSP/Source/FilteringFunctions/arm_correlate_q31.c ****     px = pIn1;
 332              		.loc 1 231 5 is_stmt 1 view .LVU116
 232:Drivers/CMSIS/DSP/Source/FilteringFunctions/arm_correlate_q31.c **** 
 233:Drivers/CMSIS/DSP/Source/FilteringFunctions/arm_correlate_q31.c ****     /* Increment the MAC count */
 234:Drivers/CMSIS/DSP/Source/FilteringFunctions/arm_correlate_q31.c ****     count++;
 333              		.loc 1 234 5 view .LVU117
 334              		.loc 1 234 10 is_stmt 0 view .LVU118
 335 014a 0136     		adds	r6, r6, #1
 336              	.LVL48:
 235:Drivers/CMSIS/DSP/Source/FilteringFunctions/arm_correlate_q31.c **** 
 236:Drivers/CMSIS/DSP/Source/FilteringFunctions/arm_correlate_q31.c ****     /* Decrement the loop counter */
 237:Drivers/CMSIS/DSP/Source/FilteringFunctions/arm_correlate_q31.c ****     blockSize1--;
 337              		.loc 1 237 5 is_stmt 1 view .LVU119
 338              		.loc 1 237 15 is_stmt 0 view .LVU120
 339 014c 013D     		subs	r5, r5, #1
 340              	.LVL49:
 341              	.L4:
 185:Drivers/CMSIS/DSP/Source/FilteringFunctions/arm_correlate_q31.c ****   {
 342              		.loc 1 185 21 is_stmt 1 view .LVU121
 343 014e 35B1     		cbz	r5, .L34
 188:Drivers/CMSIS/DSP/Source/FilteringFunctions/arm_correlate_q31.c **** 
 344              		.loc 1 188 5 view .LVU122
 345              	.LVL50:
 191:Drivers/CMSIS/DSP/Source/FilteringFunctions/arm_correlate_q31.c **** 
 346              		.loc 1 191 5 view .LVU123
 191:Drivers/CMSIS/DSP/Source/FilteringFunctions/arm_correlate_q31.c **** 
 347              		.loc 1 191 7 is_stmt 0 view .LVU124
 348 0150 B108     		lsrs	r1, r6, #2
 349              	.LVL51:
 195:Drivers/CMSIS/DSP/Source/FilteringFunctions/arm_correlate_q31.c ****     {
 350              		.loc 1 195 5 is_stmt 1 view .LVU125
 195:Drivers/CMSIS/DSP/Source/FilteringFunctions/arm_correlate_q31.c ****     {
 351              		.loc 1 195 11 is_stmt 0 view .LVU126
 352 0152 DDF81CC0 		ldr	ip, [sp, #28]
 188:Drivers/CMSIS/DSP/Source/FilteringFunctions/arm_correlate_q31.c **** 
 353              		.loc 1 188 9 view .LVU127
 354 0156 0023     		movs	r3, #0
 355 0158 9946     		mov	r9, r3
 356 015a 0196     		str	r6, [sp, #4]
 195:Drivers/CMSIS/DSP/Source/FilteringFunctions/arm_correlate_q31.c ****     {
 357              		.loc 1 195 11 view .LVU128
ARM GAS  /tmp/ccYYIQGv.s 			page 12


 358 015c CFE7     		b	.L5
 359              	.LVL52:
 360              	.L34:
 238:Drivers/CMSIS/DSP/Source/FilteringFunctions/arm_correlate_q31.c ****   }
 239:Drivers/CMSIS/DSP/Source/FilteringFunctions/arm_correlate_q31.c **** 
 240:Drivers/CMSIS/DSP/Source/FilteringFunctions/arm_correlate_q31.c ****   /* --------------------------
 241:Drivers/CMSIS/DSP/Source/FilteringFunctions/arm_correlate_q31.c ****    * Initializations of stage2
 242:Drivers/CMSIS/DSP/Source/FilteringFunctions/arm_correlate_q31.c ****    * ------------------------*/
 243:Drivers/CMSIS/DSP/Source/FilteringFunctions/arm_correlate_q31.c **** 
 244:Drivers/CMSIS/DSP/Source/FilteringFunctions/arm_correlate_q31.c ****   /* sum = x[0] * y[0] + x[1] * y[1] +...+ x[srcBLen-1] * y[srcBLen-1]
 245:Drivers/CMSIS/DSP/Source/FilteringFunctions/arm_correlate_q31.c ****    * sum = x[1] * y[0] + x[2] * y[1] +...+ x[srcBLen] * y[srcBLen-1]
 246:Drivers/CMSIS/DSP/Source/FilteringFunctions/arm_correlate_q31.c ****    * ....
 247:Drivers/CMSIS/DSP/Source/FilteringFunctions/arm_correlate_q31.c ****    * sum = x[srcALen-srcBLen-2] * y[0] + x[srcALen-srcBLen-1] * y[1] +...+ x[srcALen-1] * y[srcBLen
 248:Drivers/CMSIS/DSP/Source/FilteringFunctions/arm_correlate_q31.c ****    */
 249:Drivers/CMSIS/DSP/Source/FilteringFunctions/arm_correlate_q31.c **** 
 250:Drivers/CMSIS/DSP/Source/FilteringFunctions/arm_correlate_q31.c ****   /* Working pointer of inputA */
 251:Drivers/CMSIS/DSP/Source/FilteringFunctions/arm_correlate_q31.c ****   px = pIn1;
 252:Drivers/CMSIS/DSP/Source/FilteringFunctions/arm_correlate_q31.c **** 
 253:Drivers/CMSIS/DSP/Source/FilteringFunctions/arm_correlate_q31.c ****   /* Working pointer of inputB */
 254:Drivers/CMSIS/DSP/Source/FilteringFunctions/arm_correlate_q31.c ****   py = pIn2;
 255:Drivers/CMSIS/DSP/Source/FilteringFunctions/arm_correlate_q31.c **** 
 256:Drivers/CMSIS/DSP/Source/FilteringFunctions/arm_correlate_q31.c ****   /* count is index by which the pointer pIn1 to be incremented */
 257:Drivers/CMSIS/DSP/Source/FilteringFunctions/arm_correlate_q31.c ****   count = 0U;
 258:Drivers/CMSIS/DSP/Source/FilteringFunctions/arm_correlate_q31.c **** 
 259:Drivers/CMSIS/DSP/Source/FilteringFunctions/arm_correlate_q31.c ****   /* -------------------
 260:Drivers/CMSIS/DSP/Source/FilteringFunctions/arm_correlate_q31.c ****    * Stage2 process
 261:Drivers/CMSIS/DSP/Source/FilteringFunctions/arm_correlate_q31.c ****    * ------------------*/
 262:Drivers/CMSIS/DSP/Source/FilteringFunctions/arm_correlate_q31.c **** 
 263:Drivers/CMSIS/DSP/Source/FilteringFunctions/arm_correlate_q31.c ****   /* Stage2 depends on srcBLen as in this stage srcBLen number of MACS are performed.
 264:Drivers/CMSIS/DSP/Source/FilteringFunctions/arm_correlate_q31.c ****    * So, to loop unroll over blockSize2,
 265:Drivers/CMSIS/DSP/Source/FilteringFunctions/arm_correlate_q31.c ****    * srcBLen should be greater than or equal to 4 */
 266:Drivers/CMSIS/DSP/Source/FilteringFunctions/arm_correlate_q31.c ****   if (srcBLen >= 4U)
 361              		.loc 1 266 6 view .LVU129
 362 015e 0446     		mov	r4, r0
 363 0160 D646     		mov	lr, r10
 364 0162 AA46     		mov	r10, r5
 365              	.LVL53:
 366              		.loc 1 266 6 view .LVU130
 367 0164 009D     		ldr	r5, [sp]
 368              	.LVL54:
 251:Drivers/CMSIS/DSP/Source/FilteringFunctions/arm_correlate_q31.c **** 
 369              		.loc 1 251 3 is_stmt 1 view .LVU131
 254:Drivers/CMSIS/DSP/Source/FilteringFunctions/arm_correlate_q31.c **** 
 370              		.loc 1 254 3 view .LVU132
 257:Drivers/CMSIS/DSP/Source/FilteringFunctions/arm_correlate_q31.c **** 
 371              		.loc 1 257 3 view .LVU133
 372              		.loc 1 266 3 view .LVU134
 373              		.loc 1 266 6 is_stmt 0 view .LVU135
 374 0166 069B     		ldr	r3, [sp, #24]
 375 0168 032B     		cmp	r3, #3
 376 016a 40F2EA81 		bls	.L31
 267:Drivers/CMSIS/DSP/Source/FilteringFunctions/arm_correlate_q31.c ****   {
 268:Drivers/CMSIS/DSP/Source/FilteringFunctions/arm_correlate_q31.c ****     /* Loop unroll by 3 */
 269:Drivers/CMSIS/DSP/Source/FilteringFunctions/arm_correlate_q31.c ****     blkCnt = blockSize2 / 3;
 377              		.loc 1 269 5 is_stmt 1 view .LVU136
 378              		.loc 1 269 12 is_stmt 0 view .LVU137
 379 016e 074B     		ldr	r3, .L39+4
ARM GAS  /tmp/ccYYIQGv.s 			page 13


 380 0170 A3FB0E23 		umull	r2, r3, r3, lr
 381 0174 5B08     		lsrs	r3, r3, #1
 382 0176 0893     		str	r3, [sp, #32]
 383              	.LVL55:
 270:Drivers/CMSIS/DSP/Source/FilteringFunctions/arm_correlate_q31.c **** 
 271:Drivers/CMSIS/DSP/Source/FilteringFunctions/arm_correlate_q31.c ****     while (blkCnt > 0U)
 384              		.loc 1 271 5 is_stmt 1 view .LVU138
 251:Drivers/CMSIS/DSP/Source/FilteringFunctions/arm_correlate_q31.c **** 
 385              		.loc 1 251 6 is_stmt 0 view .LVU139
 386 0178 079A     		ldr	r2, [sp, #28]
 387 017a CDF824A0 		str	r10, [sp, #36]
 388 017e 0C90     		str	r0, [sp, #48]
 389 0180 5C46     		mov	r4, fp
 390 0182 CDF834E0 		str	lr, [sp, #52]
 391              		.loc 1 271 11 view .LVU140
 392 0186 5DE0     		b	.L11
 393              	.L40:
 394              		.align	2
 395              	.L39:
 396 0188 FEFFFF3F 		.word	1073741822
 397 018c ABAAAAAA 		.word	-1431655765
 398              	.LVL56:
 399              	.L14:
 272:Drivers/CMSIS/DSP/Source/FilteringFunctions/arm_correlate_q31.c ****     {
 273:Drivers/CMSIS/DSP/Source/FilteringFunctions/arm_correlate_q31.c ****       /* Set all accumulators to zero */
 274:Drivers/CMSIS/DSP/Source/FilteringFunctions/arm_correlate_q31.c ****       acc0 = 0;
 275:Drivers/CMSIS/DSP/Source/FilteringFunctions/arm_correlate_q31.c ****       acc1 = 0;
 276:Drivers/CMSIS/DSP/Source/FilteringFunctions/arm_correlate_q31.c ****       acc2 = 0;
 277:Drivers/CMSIS/DSP/Source/FilteringFunctions/arm_correlate_q31.c **** 
 278:Drivers/CMSIS/DSP/Source/FilteringFunctions/arm_correlate_q31.c ****       /* read x[0], x[1] samples */
 279:Drivers/CMSIS/DSP/Source/FilteringFunctions/arm_correlate_q31.c ****       x0 = *(px++);
 280:Drivers/CMSIS/DSP/Source/FilteringFunctions/arm_correlate_q31.c ****       x1 = *(px++);
 281:Drivers/CMSIS/DSP/Source/FilteringFunctions/arm_correlate_q31.c **** 
 282:Drivers/CMSIS/DSP/Source/FilteringFunctions/arm_correlate_q31.c ****       /* Apply loop unrolling and compute 3 MACs simultaneously. */
 283:Drivers/CMSIS/DSP/Source/FilteringFunctions/arm_correlate_q31.c ****       k = srcBLen / 3;
 284:Drivers/CMSIS/DSP/Source/FilteringFunctions/arm_correlate_q31.c **** 
 285:Drivers/CMSIS/DSP/Source/FilteringFunctions/arm_correlate_q31.c ****       /* First part of the processing with loop unrolling.  Compute 3 MACs at a time.
 286:Drivers/CMSIS/DSP/Source/FilteringFunctions/arm_correlate_q31.c ****        ** a second loop below computes MACs for the remaining 1 to 2 samples. */
 287:Drivers/CMSIS/DSP/Source/FilteringFunctions/arm_correlate_q31.c ****       do
 288:Drivers/CMSIS/DSP/Source/FilteringFunctions/arm_correlate_q31.c ****       {
 289:Drivers/CMSIS/DSP/Source/FilteringFunctions/arm_correlate_q31.c ****         /* Read y[0] sample */
 290:Drivers/CMSIS/DSP/Source/FilteringFunctions/arm_correlate_q31.c ****         c0 = *(py);
 291:Drivers/CMSIS/DSP/Source/FilteringFunctions/arm_correlate_q31.c **** 
 292:Drivers/CMSIS/DSP/Source/FilteringFunctions/arm_correlate_q31.c ****         /* Read x[2] sample */
 293:Drivers/CMSIS/DSP/Source/FilteringFunctions/arm_correlate_q31.c ****         x2 = *(px);
 294:Drivers/CMSIS/DSP/Source/FilteringFunctions/arm_correlate_q31.c **** 
 295:Drivers/CMSIS/DSP/Source/FilteringFunctions/arm_correlate_q31.c ****         /* Perform the multiply-accumulate */
 296:Drivers/CMSIS/DSP/Source/FilteringFunctions/arm_correlate_q31.c ****         /* acc0 +=  x[0] * y[0] */
 297:Drivers/CMSIS/DSP/Source/FilteringFunctions/arm_correlate_q31.c ****         acc0 += ((q63_t) x0 * c0);
 298:Drivers/CMSIS/DSP/Source/FilteringFunctions/arm_correlate_q31.c ****         /* acc1 +=  x[1] * y[0] */
 299:Drivers/CMSIS/DSP/Source/FilteringFunctions/arm_correlate_q31.c ****         acc1 += ((q63_t) x1 * c0);
 300:Drivers/CMSIS/DSP/Source/FilteringFunctions/arm_correlate_q31.c ****         /* acc2 +=  x[2] * y[0] */
 301:Drivers/CMSIS/DSP/Source/FilteringFunctions/arm_correlate_q31.c ****         acc2 += ((q63_t) x2 * c0);
 302:Drivers/CMSIS/DSP/Source/FilteringFunctions/arm_correlate_q31.c **** 
 303:Drivers/CMSIS/DSP/Source/FilteringFunctions/arm_correlate_q31.c ****         /* Read y[1] sample */
 304:Drivers/CMSIS/DSP/Source/FilteringFunctions/arm_correlate_q31.c ****         c0 = *(py + 1U);
 305:Drivers/CMSIS/DSP/Source/FilteringFunctions/arm_correlate_q31.c **** 
ARM GAS  /tmp/ccYYIQGv.s 			page 14


 306:Drivers/CMSIS/DSP/Source/FilteringFunctions/arm_correlate_q31.c ****         /* Read x[3] sample */
 307:Drivers/CMSIS/DSP/Source/FilteringFunctions/arm_correlate_q31.c ****         x0 = *(px + 1U);
 308:Drivers/CMSIS/DSP/Source/FilteringFunctions/arm_correlate_q31.c **** 
 309:Drivers/CMSIS/DSP/Source/FilteringFunctions/arm_correlate_q31.c ****         /* Perform the multiply-accumulates */
 310:Drivers/CMSIS/DSP/Source/FilteringFunctions/arm_correlate_q31.c ****         /* acc0 +=  x[1] * y[1] */
 311:Drivers/CMSIS/DSP/Source/FilteringFunctions/arm_correlate_q31.c ****         acc0 += ((q63_t) x1 * c0);
 312:Drivers/CMSIS/DSP/Source/FilteringFunctions/arm_correlate_q31.c ****         /* acc1 +=  x[2] * y[1] */
 313:Drivers/CMSIS/DSP/Source/FilteringFunctions/arm_correlate_q31.c ****         acc1 += ((q63_t) x2 * c0);
 314:Drivers/CMSIS/DSP/Source/FilteringFunctions/arm_correlate_q31.c ****         /* acc2 +=  x[3] * y[1] */
 315:Drivers/CMSIS/DSP/Source/FilteringFunctions/arm_correlate_q31.c ****         acc2 += ((q63_t) x0 * c0);
 316:Drivers/CMSIS/DSP/Source/FilteringFunctions/arm_correlate_q31.c **** 
 317:Drivers/CMSIS/DSP/Source/FilteringFunctions/arm_correlate_q31.c ****         /* Read y[2] sample */
 318:Drivers/CMSIS/DSP/Source/FilteringFunctions/arm_correlate_q31.c ****         c0 = *(py + 2U);
 319:Drivers/CMSIS/DSP/Source/FilteringFunctions/arm_correlate_q31.c **** 
 320:Drivers/CMSIS/DSP/Source/FilteringFunctions/arm_correlate_q31.c ****         /* Read x[4] sample */
 321:Drivers/CMSIS/DSP/Source/FilteringFunctions/arm_correlate_q31.c ****         x1 = *(px + 2U);
 322:Drivers/CMSIS/DSP/Source/FilteringFunctions/arm_correlate_q31.c **** 
 323:Drivers/CMSIS/DSP/Source/FilteringFunctions/arm_correlate_q31.c ****         /* Perform the multiply-accumulates */
 324:Drivers/CMSIS/DSP/Source/FilteringFunctions/arm_correlate_q31.c ****         /* acc0 +=  x[2] * y[2] */
 325:Drivers/CMSIS/DSP/Source/FilteringFunctions/arm_correlate_q31.c ****         acc0 += ((q63_t) x2 * c0);
 326:Drivers/CMSIS/DSP/Source/FilteringFunctions/arm_correlate_q31.c ****         /* acc1 +=  x[3] * y[2] */
 327:Drivers/CMSIS/DSP/Source/FilteringFunctions/arm_correlate_q31.c ****         acc1 += ((q63_t) x0 * c0);
 328:Drivers/CMSIS/DSP/Source/FilteringFunctions/arm_correlate_q31.c ****         /* acc2 +=  x[4] * y[2] */
 329:Drivers/CMSIS/DSP/Source/FilteringFunctions/arm_correlate_q31.c ****         acc2 += ((q63_t) x1 * c0);
 330:Drivers/CMSIS/DSP/Source/FilteringFunctions/arm_correlate_q31.c **** 
 331:Drivers/CMSIS/DSP/Source/FilteringFunctions/arm_correlate_q31.c ****         /* update scratch pointers */
 332:Drivers/CMSIS/DSP/Source/FilteringFunctions/arm_correlate_q31.c ****         px += 3U;
 333:Drivers/CMSIS/DSP/Source/FilteringFunctions/arm_correlate_q31.c ****         py += 3U;
 334:Drivers/CMSIS/DSP/Source/FilteringFunctions/arm_correlate_q31.c **** 
 335:Drivers/CMSIS/DSP/Source/FilteringFunctions/arm_correlate_q31.c ****       } while (--k);
 336:Drivers/CMSIS/DSP/Source/FilteringFunctions/arm_correlate_q31.c **** 
 337:Drivers/CMSIS/DSP/Source/FilteringFunctions/arm_correlate_q31.c ****       /* If the srcBLen is not a multiple of 3, compute any remaining MACs here.
 338:Drivers/CMSIS/DSP/Source/FilteringFunctions/arm_correlate_q31.c ****        ** No loop unrolling is used. */
 339:Drivers/CMSIS/DSP/Source/FilteringFunctions/arm_correlate_q31.c ****       k = srcBLen - (3 * (srcBLen / 3));
 340:Drivers/CMSIS/DSP/Source/FilteringFunctions/arm_correlate_q31.c **** 
 341:Drivers/CMSIS/DSP/Source/FilteringFunctions/arm_correlate_q31.c ****       while (k > 0U)
 342:Drivers/CMSIS/DSP/Source/FilteringFunctions/arm_correlate_q31.c ****       {
 343:Drivers/CMSIS/DSP/Source/FilteringFunctions/arm_correlate_q31.c ****         /* Read y[4] sample */
 344:Drivers/CMSIS/DSP/Source/FilteringFunctions/arm_correlate_q31.c ****         c0 = *(py++);
 400              		.loc 1 344 9 is_stmt 1 view .LVU141
 401              		.loc 1 344 18 is_stmt 0 view .LVU142
 402 0190 9C46     		mov	ip, r3
 403              	.LVL57:
 404              		.loc 1 344 12 view .LVU143
 405 0192 5CF8043B 		ldr	r3, [ip], #4
 406              	.LVL58:
 345:Drivers/CMSIS/DSP/Source/FilteringFunctions/arm_correlate_q31.c **** 
 346:Drivers/CMSIS/DSP/Source/FilteringFunctions/arm_correlate_q31.c ****         /* Read x[7] sample */
 347:Drivers/CMSIS/DSP/Source/FilteringFunctions/arm_correlate_q31.c ****         x2 = *(px++);
 407              		.loc 1 347 9 is_stmt 1 view .LVU144
 408              		.loc 1 347 18 is_stmt 0 view .LVU145
 409 0196 2646     		mov	r6, r4
 410              	.LVL59:
 411              		.loc 1 347 12 view .LVU146
 412 0198 56F8044B 		ldr	r4, [r6], #4
 413              	.LVL60:
 348:Drivers/CMSIS/DSP/Source/FilteringFunctions/arm_correlate_q31.c **** 
ARM GAS  /tmp/ccYYIQGv.s 			page 15


 349:Drivers/CMSIS/DSP/Source/FilteringFunctions/arm_correlate_q31.c ****         /* Perform the multiply-accumulates */
 350:Drivers/CMSIS/DSP/Source/FilteringFunctions/arm_correlate_q31.c ****         /* acc0 +=  x[4] * y[4] */
 351:Drivers/CMSIS/DSP/Source/FilteringFunctions/arm_correlate_q31.c ****         acc0 += ((q63_t) x0 * c0);
 414              		.loc 1 351 9 is_stmt 1 view .LVU147
 415              		.loc 1 351 18 is_stmt 0 view .LVU148
 416 019c 4FEAE178 		asr	r8, r1, #31
 417              		.loc 1 351 29 view .LVU149
 418 01a0 4FEAE37E 		asr	lr, r3, #31
 419 01a4 01FB0EF5 		mul	r5, r1, lr
 420 01a8 03FB0855 		mla	r5, r3, r8, r5
 421 01ac A1FB0318 		umull	r1, r8, r1, r3
 422              	.LVL61:
 423              		.loc 1 351 29 view .LVU150
 424 01b0 4544     		add	r5, r5, r8
 425              		.loc 1 351 14 view .LVU151
 426 01b2 0198     		ldr	r0, [sp, #4]
 427 01b4 0918     		adds	r1, r1, r0
 428 01b6 0191     		str	r1, [sp, #4]
 429              	.LVL62:
 430              		.loc 1 351 14 view .LVU152
 431 01b8 45EB0B0B 		adc	fp, r5, fp
 432              	.LVL63:
 352:Drivers/CMSIS/DSP/Source/FilteringFunctions/arm_correlate_q31.c ****         /* acc1 +=  x[5] * y[4] */
 353:Drivers/CMSIS/DSP/Source/FilteringFunctions/arm_correlate_q31.c ****         acc1 += ((q63_t) x1 * c0);
 433              		.loc 1 353 9 is_stmt 1 view .LVU153
 434              		.loc 1 353 18 is_stmt 0 view .LVU154
 435 01bc D117     		asrs	r1, r2, #31
 436              	.LVL64:
 437              		.loc 1 353 29 view .LVU155
 438 01be 03FB01F1 		mul	r1, r3, r1
 439 01c2 02FB0E11 		mla	r1, r2, lr, r1
 440 01c6 A3FB0258 		umull	r5, r8, r3, r2
 441 01ca 4144     		add	r1, r1, r8
 442              		.loc 1 353 14 view .LVU156
 443 01cc 0298     		ldr	r0, [sp, #8]
 444 01ce 2D18     		adds	r5, r5, r0
 445 01d0 0295     		str	r5, [sp, #8]
 446              	.LVL65:
 447              		.loc 1 353 14 view .LVU157
 448 01d2 41EB0909 		adc	r9, r1, r9
 449              	.LVL66:
 354:Drivers/CMSIS/DSP/Source/FilteringFunctions/arm_correlate_q31.c ****         /* acc2 +=  x[6] * y[4] */
 355:Drivers/CMSIS/DSP/Source/FilteringFunctions/arm_correlate_q31.c ****         acc2 += ((q63_t) x2 * c0);
 450              		.loc 1 355 9 is_stmt 1 view .LVU158
 451              		.loc 1 355 18 is_stmt 0 view .LVU159
 452 01d6 E117     		asrs	r1, r4, #31
 453              		.loc 1 355 29 view .LVU160
 454 01d8 03FB01F1 		mul	r1, r3, r1
 455 01dc 04FB0E11 		mla	r1, r4, lr, r1
 456 01e0 A3FB0435 		umull	r3, r5, r3, r4
 457              	.LVL67:
 458              		.loc 1 355 29 view .LVU161
 459 01e4 2944     		add	r1, r1, r5
 460              		.loc 1 355 14 view .LVU162
 461 01e6 13EB0A03 		adds	r3, r3, r10
 462 01ea 9A46     		mov	r10, r3
 463              	.LVL68:
ARM GAS  /tmp/ccYYIQGv.s 			page 16


 464              		.loc 1 355 14 view .LVU163
 465 01ec 009B     		ldr	r3, [sp]
 466 01ee 41EB0303 		adc	r3, r1, r3
 467 01f2 0093     		str	r3, [sp]
 356:Drivers/CMSIS/DSP/Source/FilteringFunctions/arm_correlate_q31.c **** 
 357:Drivers/CMSIS/DSP/Source/FilteringFunctions/arm_correlate_q31.c ****         /* Reuse the present samples for the next MAC */
 358:Drivers/CMSIS/DSP/Source/FilteringFunctions/arm_correlate_q31.c ****         x0 = x1;
 468              		.loc 1 358 9 is_stmt 1 view .LVU164
 469              	.LVL69:
 359:Drivers/CMSIS/DSP/Source/FilteringFunctions/arm_correlate_q31.c ****         x1 = x2;
 470              		.loc 1 359 9 view .LVU165
 360:Drivers/CMSIS/DSP/Source/FilteringFunctions/arm_correlate_q31.c **** 
 361:Drivers/CMSIS/DSP/Source/FilteringFunctions/arm_correlate_q31.c ****         /* Decrement the loop counter */
 362:Drivers/CMSIS/DSP/Source/FilteringFunctions/arm_correlate_q31.c ****         k--;
 471              		.loc 1 362 9 view .LVU166
 472              		.loc 1 362 10 is_stmt 0 view .LVU167
 473 01f4 013F     		subs	r7, r7, #1
 474              	.LVL70:
 358:Drivers/CMSIS/DSP/Source/FilteringFunctions/arm_correlate_q31.c ****         x1 = x2;
 475              		.loc 1 358 12 view .LVU168
 476 01f6 1146     		mov	r1, r2
 359:Drivers/CMSIS/DSP/Source/FilteringFunctions/arm_correlate_q31.c ****         x1 = x2;
 477              		.loc 1 359 12 view .LVU169
 478 01f8 2246     		mov	r2, r4
 479              	.LVL71:
 344:Drivers/CMSIS/DSP/Source/FilteringFunctions/arm_correlate_q31.c **** 
 480              		.loc 1 344 18 view .LVU170
 481 01fa 6346     		mov	r3, ip
 347:Drivers/CMSIS/DSP/Source/FilteringFunctions/arm_correlate_q31.c **** 
 482              		.loc 1 347 18 view .LVU171
 483 01fc 3446     		mov	r4, r6
 484              	.LVL72:
 485              	.L13:
 341:Drivers/CMSIS/DSP/Source/FilteringFunctions/arm_correlate_q31.c ****       {
 486              		.loc 1 341 16 is_stmt 1 view .LVU172
 487 01fe 002F     		cmp	r7, #0
 488 0200 C6D1     		bne	.L14
 363:Drivers/CMSIS/DSP/Source/FilteringFunctions/arm_correlate_q31.c ****       }
 364:Drivers/CMSIS/DSP/Source/FilteringFunctions/arm_correlate_q31.c **** 
 365:Drivers/CMSIS/DSP/Source/FilteringFunctions/arm_correlate_q31.c ****       /* Store the result in the accumulator in the destination buffer. */
 366:Drivers/CMSIS/DSP/Source/FilteringFunctions/arm_correlate_q31.c ****       *pOut = (q31_t) (acc0 >> 31);
 489              		.loc 1 366 29 is_stmt 0 view .LVU173
 490 0202 039D     		ldr	r5, [sp, #12]
 491 0204 049C     		ldr	r4, [sp, #16]
 492              	.LVL73:
 493              		.loc 1 366 29 view .LVU174
 494 0206 0098     		ldr	r0, [sp]
 495              		.loc 1 366 7 is_stmt 1 view .LVU175
 496              		.loc 1 366 29 is_stmt 0 view .LVU176
 497 0208 019B     		ldr	r3, [sp, #4]
 498              	.LVL74:
 499              		.loc 1 366 29 view .LVU177
 500 020a DB0F     		lsrs	r3, r3, #31
 501 020c 43EA4B03 		orr	r3, r3, fp, lsl #1
 502              		.loc 1 366 13 view .LVU178
 503 0210 2B60     		str	r3, [r5]
 367:Drivers/CMSIS/DSP/Source/FilteringFunctions/arm_correlate_q31.c ****       /* Destination pointer is updated according to the address modifier, inc */
ARM GAS  /tmp/ccYYIQGv.s 			page 17


 368:Drivers/CMSIS/DSP/Source/FilteringFunctions/arm_correlate_q31.c ****       pOut += inc;
 504              		.loc 1 368 7 is_stmt 1 view .LVU179
 505              	.LVL75:
 369:Drivers/CMSIS/DSP/Source/FilteringFunctions/arm_correlate_q31.c **** 
 370:Drivers/CMSIS/DSP/Source/FilteringFunctions/arm_correlate_q31.c ****       *pOut = (q31_t) (acc1 >> 31);
 506              		.loc 1 370 7 view .LVU180
 507              		.loc 1 370 29 is_stmt 0 view .LVU181
 508 0212 029B     		ldr	r3, [sp, #8]
 509 0214 DB0F     		lsrs	r3, r3, #31
 510 0216 43EA4903 		orr	r3, r3, r9, lsl #1
 511              		.loc 1 370 13 view .LVU182
 512 021a 45F82430 		str	r3, [r5, r4, lsl #2]
 371:Drivers/CMSIS/DSP/Source/FilteringFunctions/arm_correlate_q31.c ****       pOut += inc;
 513              		.loc 1 371 7 is_stmt 1 view .LVU183
 514              		.loc 1 371 12 is_stmt 0 view .LVU184
 515 021e 05EBC402 		add	r2, r5, r4, lsl #3
 516              	.LVL76:
 372:Drivers/CMSIS/DSP/Source/FilteringFunctions/arm_correlate_q31.c **** 
 373:Drivers/CMSIS/DSP/Source/FilteringFunctions/arm_correlate_q31.c ****       *pOut = (q31_t) (acc2 >> 31);
 517              		.loc 1 373 7 is_stmt 1 view .LVU185
 518              		.loc 1 373 29 is_stmt 0 view .LVU186
 519 0222 4FEADA73 		lsr	r3, r10, #31
 520 0226 43EA4003 		orr	r3, r3, r0, lsl #1
 521              		.loc 1 373 13 view .LVU187
 522 022a 45F83430 		str	r3, [r5, r4, lsl #3]
 374:Drivers/CMSIS/DSP/Source/FilteringFunctions/arm_correlate_q31.c ****       pOut += inc;
 523              		.loc 1 374 7 is_stmt 1 view .LVU188
 524              		.loc 1 374 12 is_stmt 0 view .LVU189
 525 022e 02EB8405 		add	r5, r2, r4, lsl #2
 526              	.LVL77:
 375:Drivers/CMSIS/DSP/Source/FilteringFunctions/arm_correlate_q31.c **** 
 376:Drivers/CMSIS/DSP/Source/FilteringFunctions/arm_correlate_q31.c ****       /* Increment the pointer pIn1 index, count by 3 */
 377:Drivers/CMSIS/DSP/Source/FilteringFunctions/arm_correlate_q31.c ****       count += 3U;
 527              		.loc 1 377 7 is_stmt 1 view .LVU190
 528              		.loc 1 377 13 is_stmt 0 view .LVU191
 529 0232 099B     		ldr	r3, [sp, #36]
 530 0234 0333     		adds	r3, r3, #3
 531 0236 0993     		str	r3, [sp, #36]
 532              	.LVL78:
 378:Drivers/CMSIS/DSP/Source/FilteringFunctions/arm_correlate_q31.c **** 
 379:Drivers/CMSIS/DSP/Source/FilteringFunctions/arm_correlate_q31.c ****       /* Update the inputA and inputB pointers for next MAC calculation */
 380:Drivers/CMSIS/DSP/Source/FilteringFunctions/arm_correlate_q31.c ****       px = pIn1 + count;
 533              		.loc 1 380 7 is_stmt 1 view .LVU192
 534              		.loc 1 380 10 is_stmt 0 view .LVU193
 535 0238 079A     		ldr	r2, [sp, #28]
 536 023a 02EB8302 		add	r2, r2, r3, lsl #2
 537              	.LVL79:
 381:Drivers/CMSIS/DSP/Source/FilteringFunctions/arm_correlate_q31.c ****       py = pIn2;
 538              		.loc 1 381 7 is_stmt 1 view .LVU194
 382:Drivers/CMSIS/DSP/Source/FilteringFunctions/arm_correlate_q31.c **** 
 383:Drivers/CMSIS/DSP/Source/FilteringFunctions/arm_correlate_q31.c **** 
 384:Drivers/CMSIS/DSP/Source/FilteringFunctions/arm_correlate_q31.c ****       /* Decrement the loop counter */
 385:Drivers/CMSIS/DSP/Source/FilteringFunctions/arm_correlate_q31.c ****       blkCnt--;
 539              		.loc 1 385 7 view .LVU195
 540              		.loc 1 385 13 is_stmt 0 view .LVU196
 541 023e 089B     		ldr	r3, [sp, #32]
 542              	.LVL80:
ARM GAS  /tmp/ccYYIQGv.s 			page 18


 543              		.loc 1 385 13 view .LVU197
 544 0240 013B     		subs	r3, r3, #1
 545 0242 0893     		str	r3, [sp, #32]
 546              	.LVL81:
 547              	.L11:
 271:Drivers/CMSIS/DSP/Source/FilteringFunctions/arm_correlate_q31.c ****     {
 548              		.loc 1 271 19 is_stmt 1 view .LVU198
 549 0244 089B     		ldr	r3, [sp, #32]
 550 0246 002B     		cmp	r3, #0
 551 0248 00F0B480 		beq	.L35
 274:Drivers/CMSIS/DSP/Source/FilteringFunctions/arm_correlate_q31.c ****       acc1 = 0;
 552              		.loc 1 274 7 view .LVU199
 553              	.LVL82:
 275:Drivers/CMSIS/DSP/Source/FilteringFunctions/arm_correlate_q31.c ****       acc2 = 0;
 554              		.loc 1 275 7 view .LVU200
 276:Drivers/CMSIS/DSP/Source/FilteringFunctions/arm_correlate_q31.c **** 
 555              		.loc 1 276 7 view .LVU201
 279:Drivers/CMSIS/DSP/Source/FilteringFunctions/arm_correlate_q31.c ****       x1 = *(px++);
 556              		.loc 1 279 7 view .LVU202
 279:Drivers/CMSIS/DSP/Source/FilteringFunctions/arm_correlate_q31.c ****       x1 = *(px++);
 557              		.loc 1 279 10 is_stmt 0 view .LVU203
 558 024c 1346     		mov	r3, r2
 559 024e 53F8081B 		ldr	r1, [r3], #8
 560 0252 0093     		str	r3, [sp]
 561              	.LVL83:
 280:Drivers/CMSIS/DSP/Source/FilteringFunctions/arm_correlate_q31.c **** 
 562              		.loc 1 280 7 is_stmt 1 view .LVU204
 280:Drivers/CMSIS/DSP/Source/FilteringFunctions/arm_correlate_q31.c **** 
 563              		.loc 1 280 10 is_stmt 0 view .LVU205
 564 0254 5268     		ldr	r2, [r2, #4]
 565              	.LVL84:
 283:Drivers/CMSIS/DSP/Source/FilteringFunctions/arm_correlate_q31.c **** 
 566              		.loc 1 283 7 is_stmt 1 view .LVU206
 283:Drivers/CMSIS/DSP/Source/FilteringFunctions/arm_correlate_q31.c **** 
 567              		.loc 1 283 9 is_stmt 0 view .LVU207
 568 0256 C14B     		ldr	r3, .L41
 569              	.LVL85:
 283:Drivers/CMSIS/DSP/Source/FilteringFunctions/arm_correlate_q31.c **** 
 570              		.loc 1 283 9 view .LVU208
 571 0258 0698     		ldr	r0, [sp, #24]
 572 025a A3FB0003 		umull	r0, r3, r3, r0
 573 025e 5B08     		lsrs	r3, r3, #1
 574 0260 0393     		str	r3, [sp, #12]
 575              	.LVL86:
 283:Drivers/CMSIS/DSP/Source/FilteringFunctions/arm_correlate_q31.c **** 
 576              		.loc 1 283 9 view .LVU209
 577 0262 059B     		ldr	r3, [sp, #20]
 578              	.LVL87:
 276:Drivers/CMSIS/DSP/Source/FilteringFunctions/arm_correlate_q31.c **** 
 579              		.loc 1 276 12 view .LVU210
 580 0264 4FF0000A 		mov	r10, #0
 581 0268 5046     		mov	r0, r10
 275:Drivers/CMSIS/DSP/Source/FilteringFunctions/arm_correlate_q31.c ****       acc2 = 0;
 582              		.loc 1 275 12 view .LVU211
 583 026a CDF808A0 		str	r10, [sp, #8]
 584 026e D146     		mov	r9, r10
 274:Drivers/CMSIS/DSP/Source/FilteringFunctions/arm_correlate_q31.c ****       acc1 = 0;
ARM GAS  /tmp/ccYYIQGv.s 			page 19


 585              		.loc 1 274 12 view .LVU212
 586 0270 CDF804A0 		str	r10, [sp, #4]
 587 0274 0A95     		str	r5, [sp, #40]
 588 0276 9846     		mov	r8, r3
 589 0278 0B94     		str	r4, [sp, #44]
 590 027a D646     		mov	lr, r10
 591              	.LVL88:
 592              	.L12:
 287:Drivers/CMSIS/DSP/Source/FilteringFunctions/arm_correlate_q31.c ****       {
 593              		.loc 1 287 7 is_stmt 1 view .LVU213
 290:Drivers/CMSIS/DSP/Source/FilteringFunctions/arm_correlate_q31.c **** 
 594              		.loc 1 290 9 view .LVU214
 290:Drivers/CMSIS/DSP/Source/FilteringFunctions/arm_correlate_q31.c **** 
 595              		.loc 1 290 12 is_stmt 0 view .LVU215
 596 027c D8F80040 		ldr	r4, [r8]
 597              	.LVL89:
 293:Drivers/CMSIS/DSP/Source/FilteringFunctions/arm_correlate_q31.c **** 
 598              		.loc 1 293 9 is_stmt 1 view .LVU216
 293:Drivers/CMSIS/DSP/Source/FilteringFunctions/arm_correlate_q31.c **** 
 599              		.loc 1 293 12 is_stmt 0 view .LVU217
 600 0280 009B     		ldr	r3, [sp]
 601 0282 1B68     		ldr	r3, [r3]
 602              	.LVL90:
 297:Drivers/CMSIS/DSP/Source/FilteringFunctions/arm_correlate_q31.c ****         /* acc1 +=  x[1] * y[0] */
 603              		.loc 1 297 9 is_stmt 1 view .LVU218
 297:Drivers/CMSIS/DSP/Source/FilteringFunctions/arm_correlate_q31.c ****         /* acc1 +=  x[1] * y[0] */
 604              		.loc 1 297 18 is_stmt 0 view .LVU219
 605 0284 CD17     		asrs	r5, r1, #31
 297:Drivers/CMSIS/DSP/Source/FilteringFunctions/arm_correlate_q31.c ****         /* acc1 +=  x[1] * y[0] */
 606              		.loc 1 297 29 view .LVU220
 607 0286 E617     		asrs	r6, r4, #31
 608 0288 01FB06F7 		mul	r7, r1, r6
 609 028c 04FB0577 		mla	r7, r4, r5, r7
 610 0290 A1FB0451 		umull	r5, r1, r1, r4
 611              	.LVL91:
 297:Drivers/CMSIS/DSP/Source/FilteringFunctions/arm_correlate_q31.c ****         /* acc1 +=  x[1] * y[0] */
 612              		.loc 1 297 29 view .LVU221
 613 0294 3944     		add	r1, r1, r7
 297:Drivers/CMSIS/DSP/Source/FilteringFunctions/arm_correlate_q31.c ****         /* acc1 +=  x[1] * y[0] */
 614              		.loc 1 297 14 view .LVU222
 615 0296 019F     		ldr	r7, [sp, #4]
 616 0298 ED19     		adds	r5, r5, r7
 617 029a 0195     		str	r5, [sp, #4]
 618              	.LVL92:
 297:Drivers/CMSIS/DSP/Source/FilteringFunctions/arm_correlate_q31.c ****         /* acc1 +=  x[1] * y[0] */
 619              		.loc 1 297 14 view .LVU223
 620 029c 41EB0907 		adc	r7, r1, r9
 621              	.LVL93:
 297:Drivers/CMSIS/DSP/Source/FilteringFunctions/arm_correlate_q31.c ****         /* acc1 +=  x[1] * y[0] */
 622              		.loc 1 297 14 view .LVU224
 623 02a0 0497     		str	r7, [sp, #16]
 624              	.LVL94:
 299:Drivers/CMSIS/DSP/Source/FilteringFunctions/arm_correlate_q31.c ****         /* acc2 +=  x[2] * y[0] */
 625              		.loc 1 299 9 is_stmt 1 view .LVU225
 299:Drivers/CMSIS/DSP/Source/FilteringFunctions/arm_correlate_q31.c ****         /* acc2 +=  x[2] * y[0] */
 626              		.loc 1 299 18 is_stmt 0 view .LVU226
 627 02a2 4FEAE27C 		asr	ip, r2, #31
ARM GAS  /tmp/ccYYIQGv.s 			page 20


 299:Drivers/CMSIS/DSP/Source/FilteringFunctions/arm_correlate_q31.c ****         /* acc2 +=  x[2] * y[0] */
 628              		.loc 1 299 29 view .LVU227
 629 02a6 04FB0CF9 		mul	r9, r4, ip
 630 02aa 02FB0699 		mla	r9, r2, r6, r9
 631 02ae A4FB0271 		umull	r7, r1, r4, r2
 632              	.LVL95:
 299:Drivers/CMSIS/DSP/Source/FilteringFunctions/arm_correlate_q31.c ****         /* acc2 +=  x[2] * y[0] */
 633              		.loc 1 299 29 view .LVU228
 634 02b2 4944     		add	r1, r1, r9
 299:Drivers/CMSIS/DSP/Source/FilteringFunctions/arm_correlate_q31.c ****         /* acc2 +=  x[2] * y[0] */
 635              		.loc 1 299 14 view .LVU229
 636 02b4 029D     		ldr	r5, [sp, #8]
 637              	.LVL96:
 299:Drivers/CMSIS/DSP/Source/FilteringFunctions/arm_correlate_q31.c ****         /* acc2 +=  x[2] * y[0] */
 638              		.loc 1 299 14 view .LVU230
 639 02b6 7F19     		adds	r7, r7, r5
 640 02b8 41EB0E0E 		adc	lr, r1, lr
 641              	.LVL97:
 301:Drivers/CMSIS/DSP/Source/FilteringFunctions/arm_correlate_q31.c **** 
 642              		.loc 1 301 9 is_stmt 1 view .LVU231
 301:Drivers/CMSIS/DSP/Source/FilteringFunctions/arm_correlate_q31.c **** 
 643              		.loc 1 301 18 is_stmt 0 view .LVU232
 644 02bc 4FEAE379 		asr	r9, r3, #31
 301:Drivers/CMSIS/DSP/Source/FilteringFunctions/arm_correlate_q31.c **** 
 645              		.loc 1 301 29 view .LVU233
 646 02c0 04FB09F1 		mul	r1, r4, r9
 647 02c4 03FB0611 		mla	r1, r3, r6, r1
 648 02c8 A4FB0364 		umull	r6, r4, r4, r3
 649              	.LVL98:
 301:Drivers/CMSIS/DSP/Source/FilteringFunctions/arm_correlate_q31.c **** 
 650              		.loc 1 301 29 view .LVU234
 651 02cc 0C44     		add	r4, r4, r1
 301:Drivers/CMSIS/DSP/Source/FilteringFunctions/arm_correlate_q31.c **** 
 652              		.loc 1 301 14 view .LVU235
 653 02ce 16EB0A06 		adds	r6, r6, r10
 654 02d2 44EB0000 		adc	r0, r4, r0
 655              	.LVL99:
 304:Drivers/CMSIS/DSP/Source/FilteringFunctions/arm_correlate_q31.c **** 
 656              		.loc 1 304 9 is_stmt 1 view .LVU236
 304:Drivers/CMSIS/DSP/Source/FilteringFunctions/arm_correlate_q31.c **** 
 657              		.loc 1 304 12 is_stmt 0 view .LVU237
 658 02d6 D8F80440 		ldr	r4, [r8, #4]
 659              	.LVL100:
 307:Drivers/CMSIS/DSP/Source/FilteringFunctions/arm_correlate_q31.c **** 
 660              		.loc 1 307 9 is_stmt 1 view .LVU238
 307:Drivers/CMSIS/DSP/Source/FilteringFunctions/arm_correlate_q31.c **** 
 661              		.loc 1 307 12 is_stmt 0 view .LVU239
 662 02da 0099     		ldr	r1, [sp]
 663 02dc 4968     		ldr	r1, [r1, #4]
 664              	.LVL101:
 311:Drivers/CMSIS/DSP/Source/FilteringFunctions/arm_correlate_q31.c ****         /* acc1 +=  x[2] * y[1] */
 665              		.loc 1 311 9 is_stmt 1 view .LVU240
 311:Drivers/CMSIS/DSP/Source/FilteringFunctions/arm_correlate_q31.c ****         /* acc1 +=  x[2] * y[1] */
 666              		.loc 1 311 29 is_stmt 0 view .LVU241
 667 02de 4FEAE47A 		asr	r10, r4, #31
 668 02e2 02FB0AFB 		mul	fp, r2, r10
 669 02e6 04FB0CBB 		mla	fp, r4, ip, fp
ARM GAS  /tmp/ccYYIQGv.s 			page 21


 670 02ea A2FB042C 		umull	r2, ip, r2, r4
 671              	.LVL102:
 311:Drivers/CMSIS/DSP/Source/FilteringFunctions/arm_correlate_q31.c ****         /* acc1 +=  x[2] * y[1] */
 672              		.loc 1 311 29 view .LVU242
 673 02ee DC44     		add	ip, ip, fp
 311:Drivers/CMSIS/DSP/Source/FilteringFunctions/arm_correlate_q31.c ****         /* acc1 +=  x[2] * y[1] */
 674              		.loc 1 311 14 view .LVU243
 675 02f0 019D     		ldr	r5, [sp, #4]
 676 02f2 5519     		adds	r5, r2, r5
 677 02f4 049A     		ldr	r2, [sp, #16]
 678 02f6 4CEB0202 		adc	r2, ip, r2
 679 02fa 0292     		str	r2, [sp, #8]
 680              	.LVL103:
 313:Drivers/CMSIS/DSP/Source/FilteringFunctions/arm_correlate_q31.c ****         /* acc2 +=  x[3] * y[1] */
 681              		.loc 1 313 9 is_stmt 1 view .LVU244
 313:Drivers/CMSIS/DSP/Source/FilteringFunctions/arm_correlate_q31.c ****         /* acc2 +=  x[3] * y[1] */
 682              		.loc 1 313 29 is_stmt 0 view .LVU245
 683 02fc 03FB0AFB 		mul	fp, r3, r10
 684 0300 04FB09BB 		mla	fp, r4, r9, fp
 685 0304 A3FB042C 		umull	r2, ip, r3, r4
 686              	.LVL104:
 313:Drivers/CMSIS/DSP/Source/FilteringFunctions/arm_correlate_q31.c ****         /* acc2 +=  x[3] * y[1] */
 687              		.loc 1 313 29 view .LVU246
 688 0308 DC44     		add	ip, ip, fp
 313:Drivers/CMSIS/DSP/Source/FilteringFunctions/arm_correlate_q31.c ****         /* acc2 +=  x[3] * y[1] */
 689              		.loc 1 313 14 view .LVU247
 690 030a D719     		adds	r7, r2, r7
 691              	.LVL105:
 313:Drivers/CMSIS/DSP/Source/FilteringFunctions/arm_correlate_q31.c ****         /* acc2 +=  x[3] * y[1] */
 692              		.loc 1 313 14 view .LVU248
 693 030c 4CEB0E0C 		adc	ip, ip, lr
 694              	.LVL106:
 315:Drivers/CMSIS/DSP/Source/FilteringFunctions/arm_correlate_q31.c **** 
 695              		.loc 1 315 9 is_stmt 1 view .LVU249
 315:Drivers/CMSIS/DSP/Source/FilteringFunctions/arm_correlate_q31.c **** 
 696              		.loc 1 315 18 is_stmt 0 view .LVU250
 697 0310 4FEAE17E 		asr	lr, r1, #31
 315:Drivers/CMSIS/DSP/Source/FilteringFunctions/arm_correlate_q31.c **** 
 698              		.loc 1 315 29 view .LVU251
 699 0314 04FB0EF2 		mul	r2, r4, lr
 700 0318 01FB0A2A 		mla	r10, r1, r10, r2
 701 031c A4FB0124 		umull	r2, r4, r4, r1
 702              	.LVL107:
 315:Drivers/CMSIS/DSP/Source/FilteringFunctions/arm_correlate_q31.c **** 
 703              		.loc 1 315 29 view .LVU252
 704 0320 5444     		add	r4, r4, r10
 315:Drivers/CMSIS/DSP/Source/FilteringFunctions/arm_correlate_q31.c **** 
 705              		.loc 1 315 14 view .LVU253
 706 0322 9619     		adds	r6, r2, r6
 707              	.LVL108:
 315:Drivers/CMSIS/DSP/Source/FilteringFunctions/arm_correlate_q31.c **** 
 708              		.loc 1 315 14 view .LVU254
 709 0324 44EB000B 		adc	fp, r4, r0
 710              	.LVL109:
 318:Drivers/CMSIS/DSP/Source/FilteringFunctions/arm_correlate_q31.c **** 
 711              		.loc 1 318 9 is_stmt 1 view .LVU255
 318:Drivers/CMSIS/DSP/Source/FilteringFunctions/arm_correlate_q31.c **** 
ARM GAS  /tmp/ccYYIQGv.s 			page 22


 712              		.loc 1 318 12 is_stmt 0 view .LVU256
 713 0328 D8F80800 		ldr	r0, [r8, #8]
 714              	.LVL110:
 321:Drivers/CMSIS/DSP/Source/FilteringFunctions/arm_correlate_q31.c **** 
 715              		.loc 1 321 9 is_stmt 1 view .LVU257
 321:Drivers/CMSIS/DSP/Source/FilteringFunctions/arm_correlate_q31.c **** 
 716              		.loc 1 321 12 is_stmt 0 view .LVU258
 717 032c 009A     		ldr	r2, [sp]
 718 032e 9268     		ldr	r2, [r2, #8]
 719              	.LVL111:
 325:Drivers/CMSIS/DSP/Source/FilteringFunctions/arm_correlate_q31.c ****         /* acc1 +=  x[3] * y[2] */
 720              		.loc 1 325 9 is_stmt 1 view .LVU259
 325:Drivers/CMSIS/DSP/Source/FilteringFunctions/arm_correlate_q31.c ****         /* acc1 +=  x[3] * y[2] */
 721              		.loc 1 325 29 is_stmt 0 view .LVU260
 722 0330 C417     		asrs	r4, r0, #31
 723 0332 03FB04FA 		mul	r10, r3, r4
 724 0336 00FB09A9 		mla	r9, r0, r9, r10
 725 033a A3FB003A 		umull	r3, r10, r3, r0
 726              	.LVL112:
 325:Drivers/CMSIS/DSP/Source/FilteringFunctions/arm_correlate_q31.c ****         /* acc1 +=  x[3] * y[2] */
 727              		.loc 1 325 29 view .LVU261
 728 033e D144     		add	r9, r9, r10
 325:Drivers/CMSIS/DSP/Source/FilteringFunctions/arm_correlate_q31.c ****         /* acc1 +=  x[3] * y[2] */
 729              		.loc 1 325 14 view .LVU262
 730 0340 5B19     		adds	r3, r3, r5
 731 0342 0193     		str	r3, [sp, #4]
 732 0344 029D     		ldr	r5, [sp, #8]
 733              	.LVL113:
 325:Drivers/CMSIS/DSP/Source/FilteringFunctions/arm_correlate_q31.c ****         /* acc1 +=  x[3] * y[2] */
 734              		.loc 1 325 14 view .LVU263
 735 0346 49EB0509 		adc	r9, r9, r5
 736              	.LVL114:
 327:Drivers/CMSIS/DSP/Source/FilteringFunctions/arm_correlate_q31.c ****         /* acc2 +=  x[4] * y[2] */
 737              		.loc 1 327 9 is_stmt 1 view .LVU264
 327:Drivers/CMSIS/DSP/Source/FilteringFunctions/arm_correlate_q31.c ****         /* acc2 +=  x[4] * y[2] */
 738              		.loc 1 327 29 is_stmt 0 view .LVU265
 739 034a 01FB04F3 		mul	r3, r1, r4
 740              	.LVL115:
 327:Drivers/CMSIS/DSP/Source/FilteringFunctions/arm_correlate_q31.c ****         /* acc2 +=  x[4] * y[2] */
 741              		.loc 1 327 29 view .LVU266
 742 034e 00FB0E33 		mla	r3, r0, lr, r3
 743 0352 A1FB005E 		umull	r5, lr, r1, r0
 744 0356 7344     		add	r3, r3, lr
 327:Drivers/CMSIS/DSP/Source/FilteringFunctions/arm_correlate_q31.c ****         /* acc2 +=  x[4] * y[2] */
 745              		.loc 1 327 14 view .LVU267
 746 0358 ED19     		adds	r5, r5, r7
 747 035a 0295     		str	r5, [sp, #8]
 748 035c 43EB0C0E 		adc	lr, r3, ip
 749              	.LVL116:
 329:Drivers/CMSIS/DSP/Source/FilteringFunctions/arm_correlate_q31.c **** 
 750              		.loc 1 329 9 is_stmt 1 view .LVU268
 329:Drivers/CMSIS/DSP/Source/FilteringFunctions/arm_correlate_q31.c **** 
 751              		.loc 1 329 18 is_stmt 0 view .LVU269
 752 0360 D317     		asrs	r3, r2, #31
 329:Drivers/CMSIS/DSP/Source/FilteringFunctions/arm_correlate_q31.c **** 
 753              		.loc 1 329 29 view .LVU270
 754 0362 00FB03F3 		mul	r3, r0, r3
ARM GAS  /tmp/ccYYIQGv.s 			page 23


 755 0366 02FB0433 		mla	r3, r2, r4, r3
 756 036a A0FB0240 		umull	r4, r0, r0, r2
 757              	.LVL117:
 329:Drivers/CMSIS/DSP/Source/FilteringFunctions/arm_correlate_q31.c **** 
 758              		.loc 1 329 29 view .LVU271
 759 036e 1844     		add	r0, r0, r3
 329:Drivers/CMSIS/DSP/Source/FilteringFunctions/arm_correlate_q31.c **** 
 760              		.loc 1 329 14 view .LVU272
 761 0370 14EB060A 		adds	r10, r4, r6
 762 0374 40EB0B00 		adc	r0, r0, fp
 763              	.LVL118:
 332:Drivers/CMSIS/DSP/Source/FilteringFunctions/arm_correlate_q31.c ****         py += 3U;
 764              		.loc 1 332 9 is_stmt 1 view .LVU273
 332:Drivers/CMSIS/DSP/Source/FilteringFunctions/arm_correlate_q31.c ****         py += 3U;
 765              		.loc 1 332 12 is_stmt 0 view .LVU274
 766 0378 009B     		ldr	r3, [sp]
 767 037a 0C33     		adds	r3, r3, #12
 768 037c 0093     		str	r3, [sp]
 769              	.LVL119:
 333:Drivers/CMSIS/DSP/Source/FilteringFunctions/arm_correlate_q31.c **** 
 770              		.loc 1 333 9 is_stmt 1 view .LVU275
 333:Drivers/CMSIS/DSP/Source/FilteringFunctions/arm_correlate_q31.c **** 
 771              		.loc 1 333 12 is_stmt 0 view .LVU276
 772 037e 08F10C08 		add	r8, r8, #12
 773              	.LVL120:
 335:Drivers/CMSIS/DSP/Source/FilteringFunctions/arm_correlate_q31.c **** 
 774              		.loc 1 335 16 is_stmt 1 discriminator 1 view .LVU277
 335:Drivers/CMSIS/DSP/Source/FilteringFunctions/arm_correlate_q31.c **** 
 775              		.loc 1 335 16 is_stmt 0 discriminator 1 view .LVU278
 776 0382 039B     		ldr	r3, [sp, #12]
 777              	.LVL121:
 335:Drivers/CMSIS/DSP/Source/FilteringFunctions/arm_correlate_q31.c **** 
 778              		.loc 1 335 16 discriminator 1 view .LVU279
 779 0384 013B     		subs	r3, r3, #1
 780              	.LVL122:
 335:Drivers/CMSIS/DSP/Source/FilteringFunctions/arm_correlate_q31.c **** 
 781              		.loc 1 335 16 discriminator 1 view .LVU280
 782 0386 0393     		str	r3, [sp, #12]
 783 0388 7FF478AF 		bne	.L12
 339:Drivers/CMSIS/DSP/Source/FilteringFunctions/arm_correlate_q31.c **** 
 784              		.loc 1 339 9 view .LVU281
 785 038c 0A9D     		ldr	r5, [sp, #40]
 786              	.LVL123:
 339:Drivers/CMSIS/DSP/Source/FilteringFunctions/arm_correlate_q31.c **** 
 787              		.loc 1 339 9 view .LVU282
 788 038e 0B9C     		ldr	r4, [sp, #44]
 789 0390 CB46     		mov	fp, r9
 790 0392 F146     		mov	r9, lr
 791              	.LVL124:
 339:Drivers/CMSIS/DSP/Source/FilteringFunctions/arm_correlate_q31.c **** 
 792              		.loc 1 339 7 is_stmt 1 view .LVU283
 339:Drivers/CMSIS/DSP/Source/FilteringFunctions/arm_correlate_q31.c **** 
 793              		.loc 1 339 9 is_stmt 0 view .LVU284
 794 0394 714E     		ldr	r6, .L41
 795 0396 069F     		ldr	r7, [sp, #24]
 796 0398 A6FB0763 		umull	r6, r3, r6, r7
 797              	.LVL125:
ARM GAS  /tmp/ccYYIQGv.s 			page 24


 339:Drivers/CMSIS/DSP/Source/FilteringFunctions/arm_correlate_q31.c **** 
 798              		.loc 1 339 9 view .LVU285
 799 039c 23F00107 		bic	r7, r3, #1
 800 03a0 07EB5307 		add	r7, r7, r3, lsr #1
 801 03a4 069E     		ldr	r6, [sp, #24]
 802 03a6 F71B     		subs	r7, r6, r7
 803              	.LVL126:
 341:Drivers/CMSIS/DSP/Source/FilteringFunctions/arm_correlate_q31.c ****       {
 804              		.loc 1 341 7 is_stmt 1 view .LVU286
 805 03a8 0395     		str	r5, [sp, #12]
 806 03aa 4346     		mov	r3, r8
 807 03ac 0494     		str	r4, [sp, #16]
 808 03ae 009C     		ldr	r4, [sp]
 809 03b0 0090     		str	r0, [sp]
 810              	.LVL127:
 341:Drivers/CMSIS/DSP/Source/FilteringFunctions/arm_correlate_q31.c ****       {
 811              		.loc 1 341 13 is_stmt 0 view .LVU287
 812 03b2 24E7     		b	.L13
 813              	.LVL128:
 814              	.L35:
 386:Drivers/CMSIS/DSP/Source/FilteringFunctions/arm_correlate_q31.c ****     }
 387:Drivers/CMSIS/DSP/Source/FilteringFunctions/arm_correlate_q31.c **** 
 388:Drivers/CMSIS/DSP/Source/FilteringFunctions/arm_correlate_q31.c ****     /* If the blockSize2 is not a multiple of 3, compute any remaining output samples here.
 389:Drivers/CMSIS/DSP/Source/FilteringFunctions/arm_correlate_q31.c ****      ** No loop unrolling is used. */
 390:Drivers/CMSIS/DSP/Source/FilteringFunctions/arm_correlate_q31.c ****     blkCnt = blockSize2 - 3 * (blockSize2 / 3);
 815              		.loc 1 390 12 view .LVU288
 816 03b4 DDF824A0 		ldr	r10, [sp, #36]
 817 03b8 A346     		mov	fp, r4
 818 03ba 0C9C     		ldr	r4, [sp, #48]
 819 03bc DDF834E0 		ldr	lr, [sp, #52]
 820              		.loc 1 390 5 is_stmt 1 view .LVU289
 821              		.loc 1 390 12 is_stmt 0 view .LVU290
 822 03c0 A3F15533 		sub	r3, r3, #1431655765
 823              	.LVL129:
 824              		.loc 1 390 12 view .LVU291
 825 03c4 A3FB0E13 		umull	r1, r3, r3, lr
 826 03c8 23F0010C 		bic	ip, r3, #1
 827 03cc 0CEB530C 		add	ip, ip, r3, lsr #1
 828 03d0 AEEB0C01 		sub	r1, lr, ip
 829              	.LVL130:
 391:Drivers/CMSIS/DSP/Source/FilteringFunctions/arm_correlate_q31.c **** 
 392:Drivers/CMSIS/DSP/Source/FilteringFunctions/arm_correlate_q31.c ****     while (blkCnt > 0U)
 830              		.loc 1 392 5 is_stmt 1 view .LVU292
 831 03d4 0095     		str	r5, [sp]
 832 03d6 CDF804A0 		str	r10, [sp, #4]
 833 03da 0294     		str	r4, [sp, #8]
 834 03dc DDF81C90 		ldr	r9, [sp, #28]
 835 03e0 069F     		ldr	r7, [sp, #24]
 836              		.loc 1 392 11 is_stmt 0 view .LVU293
 837 03e2 70E0     		b	.L16
 838              	.LVL131:
 839              	.L18:
 393:Drivers/CMSIS/DSP/Source/FilteringFunctions/arm_correlate_q31.c ****     {
 394:Drivers/CMSIS/DSP/Source/FilteringFunctions/arm_correlate_q31.c ****       /* Accumulator is made zero for every iteration */
 395:Drivers/CMSIS/DSP/Source/FilteringFunctions/arm_correlate_q31.c ****       sum = 0;
 396:Drivers/CMSIS/DSP/Source/FilteringFunctions/arm_correlate_q31.c **** 
 397:Drivers/CMSIS/DSP/Source/FilteringFunctions/arm_correlate_q31.c ****       /* Apply loop unrolling and compute 4 MACs simultaneously. */
ARM GAS  /tmp/ccYYIQGv.s 			page 25


 398:Drivers/CMSIS/DSP/Source/FilteringFunctions/arm_correlate_q31.c ****       k = srcBLen >> 2U;
 399:Drivers/CMSIS/DSP/Source/FilteringFunctions/arm_correlate_q31.c **** 
 400:Drivers/CMSIS/DSP/Source/FilteringFunctions/arm_correlate_q31.c ****       /* First part of the processing with loop unrolling.  Compute 4 MACs at a time.
 401:Drivers/CMSIS/DSP/Source/FilteringFunctions/arm_correlate_q31.c ****        ** a second loop below computes MACs for the remaining 1 to 3 samples. */
 402:Drivers/CMSIS/DSP/Source/FilteringFunctions/arm_correlate_q31.c ****       while (k > 0U)
 403:Drivers/CMSIS/DSP/Source/FilteringFunctions/arm_correlate_q31.c ****       {
 404:Drivers/CMSIS/DSP/Source/FilteringFunctions/arm_correlate_q31.c ****         /* Perform the multiply-accumulates */
 405:Drivers/CMSIS/DSP/Source/FilteringFunctions/arm_correlate_q31.c ****         sum += (q63_t) * px++ * (*py++);
 840              		.loc 1 405 9 is_stmt 1 view .LVU294
 841              		.loc 1 405 24 is_stmt 0 view .LVU295
 842 03e4 1568     		ldr	r5, [r2]
 843              		.loc 1 405 16 view .LVU296
 844 03e6 4FEAE57A 		asr	r10, r5, #31
 845              	.LVL132:
 846              		.loc 1 405 34 view .LVU297
 847 03ea 3368     		ldr	r3, [r6]
 848 03ec 4FEAE37C 		asr	ip, r3, #31
 849              		.loc 1 405 31 view .LVU298
 850 03f0 05FB0CFC 		mul	ip, r5, ip
 851 03f4 03FB0ACA 		mla	r10, r3, r10, ip
 852 03f8 A5FB033C 		umull	r3, ip, r5, r3
 853 03fc D444     		add	ip, ip, r10
 854              		.loc 1 405 13 view .LVU299
 855 03fe 18EB0308 		adds	r8, r8, r3
 856              	.LVL133:
 857              		.loc 1 405 13 view .LVU300
 858 0402 4CEB040C 		adc	ip, ip, r4
 859              	.LVL134:
 406:Drivers/CMSIS/DSP/Source/FilteringFunctions/arm_correlate_q31.c ****         sum += (q63_t) * px++ * (*py++);
 860              		.loc 1 406 9 is_stmt 1 view .LVU301
 861              		.loc 1 406 24 is_stmt 0 view .LVU302
 862 0406 5468     		ldr	r4, [r2, #4]
 863              		.loc 1 406 16 view .LVU303
 864 0408 4FEAE47A 		asr	r10, r4, #31
 865              	.LVL135:
 866              		.loc 1 406 34 view .LVU304
 867 040c 7368     		ldr	r3, [r6, #4]
 868 040e DD17     		asrs	r5, r3, #31
 869              		.loc 1 406 31 view .LVU305
 870 0410 04FB05F5 		mul	r5, r4, r5
 871 0414 03FB0A55 		mla	r5, r3, r10, r5
 872 0418 A4FB0334 		umull	r3, r4, r4, r3
 873 041c 2C44     		add	r4, r4, r5
 874              		.loc 1 406 13 view .LVU306
 875 041e 18EB0308 		adds	r8, r8, r3
 876              	.LVL136:
 877              		.loc 1 406 13 view .LVU307
 878 0422 44EB0C04 		adc	r4, r4, ip
 879              	.LVL137:
 407:Drivers/CMSIS/DSP/Source/FilteringFunctions/arm_correlate_q31.c ****         sum += (q63_t) * px++ * (*py++);
 880              		.loc 1 407 9 is_stmt 1 view .LVU308
 881              		.loc 1 407 24 is_stmt 0 view .LVU309
 882 0426 9368     		ldr	r3, [r2, #8]
 883              		.loc 1 407 16 view .LVU310
 884 0428 4FEAE37A 		asr	r10, r3, #31
 885              	.LVL138:
 886              		.loc 1 407 34 view .LVU311
ARM GAS  /tmp/ccYYIQGv.s 			page 26


 887 042c B568     		ldr	r5, [r6, #8]
 888 042e 4FEAE57C 		asr	ip, r5, #31
 889              		.loc 1 407 31 view .LVU312
 890 0432 03FB0CFC 		mul	ip, r3, ip
 891 0436 05FB0ACC 		mla	ip, r5, r10, ip
 892 043a A3FB0553 		umull	r5, r3, r3, r5
 893 043e 6344     		add	r3, r3, ip
 894              		.loc 1 407 13 view .LVU313
 895 0440 18EB050C 		adds	ip, r8, r5
 896 0444 43EB0403 		adc	r3, r3, r4
 897              	.LVL139:
 408:Drivers/CMSIS/DSP/Source/FilteringFunctions/arm_correlate_q31.c ****         sum += (q63_t) * px++ * (*py++);
 898              		.loc 1 408 9 is_stmt 1 view .LVU314
 899              		.loc 1 408 24 is_stmt 0 view .LVU315
 900 0448 D468     		ldr	r4, [r2, #12]
 901              		.loc 1 408 16 view .LVU316
 902 044a 4FEAE47A 		asr	r10, r4, #31
 903              	.LVL140:
 904              		.loc 1 408 34 view .LVU317
 905 044e F568     		ldr	r5, [r6, #12]
 906 0450 4FEAE578 		asr	r8, r5, #31
 907              		.loc 1 408 31 view .LVU318
 908 0454 04FB08F8 		mul	r8, r4, r8
 909 0458 05FB0A88 		mla	r8, r5, r10, r8
 910 045c A4FB0554 		umull	r5, r4, r4, r5
 911 0460 4444     		add	r4, r4, r8
 912              		.loc 1 408 13 view .LVU319
 913 0462 1CEB0508 		adds	r8, ip, r5
 914 0466 44EB0304 		adc	r4, r4, r3
 915              	.LVL141:
 409:Drivers/CMSIS/DSP/Source/FilteringFunctions/arm_correlate_q31.c **** 
 410:Drivers/CMSIS/DSP/Source/FilteringFunctions/arm_correlate_q31.c ****         /* Decrement the loop counter */
 411:Drivers/CMSIS/DSP/Source/FilteringFunctions/arm_correlate_q31.c ****         k--;
 916              		.loc 1 411 9 is_stmt 1 view .LVU320
 917              		.loc 1 411 10 is_stmt 0 view .LVU321
 918 046a 0138     		subs	r0, r0, #1
 919              	.LVL142:
 408:Drivers/CMSIS/DSP/Source/FilteringFunctions/arm_correlate_q31.c ****         sum += (q63_t) * px++ * (*py++);
 920              		.loc 1 408 37 view .LVU322
 921 046c 1036     		adds	r6, r6, #16
 922              	.LVL143:
 408:Drivers/CMSIS/DSP/Source/FilteringFunctions/arm_correlate_q31.c ****         sum += (q63_t) * px++ * (*py++);
 923              		.loc 1 408 28 view .LVU323
 924 046e 1032     		adds	r2, r2, #16
 925              	.LVL144:
 926              	.L17:
 402:Drivers/CMSIS/DSP/Source/FilteringFunctions/arm_correlate_q31.c ****       {
 927              		.loc 1 402 16 is_stmt 1 view .LVU324
 928 0470 0028     		cmp	r0, #0
 929 0472 B7D1     		bne	.L18
 412:Drivers/CMSIS/DSP/Source/FilteringFunctions/arm_correlate_q31.c ****       }
 413:Drivers/CMSIS/DSP/Source/FilteringFunctions/arm_correlate_q31.c **** 
 414:Drivers/CMSIS/DSP/Source/FilteringFunctions/arm_correlate_q31.c ****       /* If the srcBLen is not a multiple of 4, compute any remaining MACs here.
 415:Drivers/CMSIS/DSP/Source/FilteringFunctions/arm_correlate_q31.c ****        ** No loop unrolling is used. */
 416:Drivers/CMSIS/DSP/Source/FilteringFunctions/arm_correlate_q31.c ****       k = srcBLen % 0x4U;
 930              		.loc 1 416 9 is_stmt 0 view .LVU325
 931 0474 4346     		mov	r3, r8
ARM GAS  /tmp/ccYYIQGv.s 			page 27


 932              		.loc 1 416 7 is_stmt 1 view .LVU326
 933              		.loc 1 416 9 is_stmt 0 view .LVU327
 934 0476 07F00300 		and	r0, r7, #3
 935              	.LVL145:
 417:Drivers/CMSIS/DSP/Source/FilteringFunctions/arm_correlate_q31.c **** 
 418:Drivers/CMSIS/DSP/Source/FilteringFunctions/arm_correlate_q31.c ****       while (k > 0U)
 936              		.loc 1 418 7 is_stmt 1 view .LVU328
 937 047a 9046     		mov	r8, r2
 938              	.LVL146:
 939              		.loc 1 418 13 is_stmt 0 view .LVU329
 940 047c 13E0     		b	.L19
 941              	.LVL147:
 942              	.L20:
 419:Drivers/CMSIS/DSP/Source/FilteringFunctions/arm_correlate_q31.c ****       {
 420:Drivers/CMSIS/DSP/Source/FilteringFunctions/arm_correlate_q31.c ****         /* Perform the multiply-accumulate */
 421:Drivers/CMSIS/DSP/Source/FilteringFunctions/arm_correlate_q31.c ****         sum += (q63_t) * px++ * (*py++);
 943              		.loc 1 421 9 is_stmt 1 view .LVU330
 944              		.loc 1 421 24 is_stmt 0 view .LVU331
 945 047e 58F8045B 		ldr	r5, [r8], #4
 946              	.LVL148:
 947              		.loc 1 421 16 view .LVU332
 948 0482 4FEAE57A 		asr	r10, r5, #31
 949              	.LVL149:
 950              		.loc 1 421 34 view .LVU333
 951 0486 56F8042B 		ldr	r2, [r6], #4
 952              	.LVL150:
 953              		.loc 1 421 34 view .LVU334
 954 048a 4FEAE27C 		asr	ip, r2, #31
 955              		.loc 1 421 31 view .LVU335
 956 048e 05FB0CFC 		mul	ip, r5, ip
 957 0492 02FB0ACC 		mla	ip, r2, r10, ip
 958 0496 A5FB0252 		umull	r5, r2, r5, r2
 959 049a 9444     		add	ip, ip, r2
 960              		.loc 1 421 13 view .LVU336
 961 049c 5D19     		adds	r5, r3, r5
 962 049e 2B46     		mov	r3, r5
 963              	.LVL151:
 964              		.loc 1 421 13 view .LVU337
 965 04a0 4CEB0404 		adc	r4, ip, r4
 966              	.LVL152:
 422:Drivers/CMSIS/DSP/Source/FilteringFunctions/arm_correlate_q31.c **** 
 423:Drivers/CMSIS/DSP/Source/FilteringFunctions/arm_correlate_q31.c ****         /* Decrement the loop counter */
 424:Drivers/CMSIS/DSP/Source/FilteringFunctions/arm_correlate_q31.c ****         k--;
 967              		.loc 1 424 9 is_stmt 1 view .LVU338
 968              		.loc 1 424 10 is_stmt 0 view .LVU339
 969 04a4 0138     		subs	r0, r0, #1
 970              	.LVL153:
 971              	.L19:
 418:Drivers/CMSIS/DSP/Source/FilteringFunctions/arm_correlate_q31.c ****       {
 972              		.loc 1 418 16 is_stmt 1 view .LVU340
 973 04a6 0028     		cmp	r0, #0
 974 04a8 E9D1     		bne	.L20
 425:Drivers/CMSIS/DSP/Source/FilteringFunctions/arm_correlate_q31.c ****       }
 426:Drivers/CMSIS/DSP/Source/FilteringFunctions/arm_correlate_q31.c **** 
 427:Drivers/CMSIS/DSP/Source/FilteringFunctions/arm_correlate_q31.c ****       /* Store the result in the accumulator in the destination buffer. */
 428:Drivers/CMSIS/DSP/Source/FilteringFunctions/arm_correlate_q31.c ****       *pOut = (q31_t) (sum >> 31);
 975              		.loc 1 428 7 view .LVU341
ARM GAS  /tmp/ccYYIQGv.s 			page 28


 976              		.loc 1 428 28 is_stmt 0 view .LVU342
 977 04aa DB0F     		lsrs	r3, r3, #31
 978              	.LVL154:
 979              		.loc 1 428 28 view .LVU343
 980 04ac 43EA4403 		orr	r3, r3, r4, lsl #1
 981              		.loc 1 428 13 view .LVU344
 982 04b0 009A     		ldr	r2, [sp]
 983 04b2 1360     		str	r3, [r2]
 429:Drivers/CMSIS/DSP/Source/FilteringFunctions/arm_correlate_q31.c ****       /* Destination pointer is updated according to the address modifier, inc */
 430:Drivers/CMSIS/DSP/Source/FilteringFunctions/arm_correlate_q31.c ****       pOut += inc;
 984              		.loc 1 430 7 is_stmt 1 view .LVU345
 985              		.loc 1 430 12 is_stmt 0 view .LVU346
 986 04b4 02EB8B03 		add	r3, r2, fp, lsl #2
 987 04b8 0093     		str	r3, [sp]
 988              	.LVL155:
 431:Drivers/CMSIS/DSP/Source/FilteringFunctions/arm_correlate_q31.c **** 
 432:Drivers/CMSIS/DSP/Source/FilteringFunctions/arm_correlate_q31.c ****       /* Increment the MAC count */
 433:Drivers/CMSIS/DSP/Source/FilteringFunctions/arm_correlate_q31.c ****       count++;
 989              		.loc 1 433 7 is_stmt 1 view .LVU347
 990              		.loc 1 433 12 is_stmt 0 view .LVU348
 991 04ba 019B     		ldr	r3, [sp, #4]
 992              	.LVL156:
 993              		.loc 1 433 12 view .LVU349
 994 04bc 0133     		adds	r3, r3, #1
 995 04be 0193     		str	r3, [sp, #4]
 996              	.LVL157:
 434:Drivers/CMSIS/DSP/Source/FilteringFunctions/arm_correlate_q31.c **** 
 435:Drivers/CMSIS/DSP/Source/FilteringFunctions/arm_correlate_q31.c ****       /* Update the inputA and inputB pointers for next MAC calculation */
 436:Drivers/CMSIS/DSP/Source/FilteringFunctions/arm_correlate_q31.c ****       px = pIn1 + count;
 997              		.loc 1 436 7 is_stmt 1 view .LVU350
 998              		.loc 1 436 10 is_stmt 0 view .LVU351
 999 04c0 09EB8302 		add	r2, r9, r3, lsl #2
 1000              	.LVL158:
 437:Drivers/CMSIS/DSP/Source/FilteringFunctions/arm_correlate_q31.c ****       py = pIn2;
 1001              		.loc 1 437 7 is_stmt 1 view .LVU352
 438:Drivers/CMSIS/DSP/Source/FilteringFunctions/arm_correlate_q31.c **** 
 439:Drivers/CMSIS/DSP/Source/FilteringFunctions/arm_correlate_q31.c ****       /* Decrement the loop counter */
 440:Drivers/CMSIS/DSP/Source/FilteringFunctions/arm_correlate_q31.c ****       blkCnt--;
 1002              		.loc 1 440 7 view .LVU353
 1003              		.loc 1 440 13 is_stmt 0 view .LVU354
 1004 04c4 0139     		subs	r1, r1, #1
 1005              	.LVL159:
 1006              	.L16:
 392:Drivers/CMSIS/DSP/Source/FilteringFunctions/arm_correlate_q31.c ****     {
 1007              		.loc 1 392 19 is_stmt 1 view .LVU355
 1008 04c6 29B1     		cbz	r1, .L36
 395:Drivers/CMSIS/DSP/Source/FilteringFunctions/arm_correlate_q31.c **** 
 1009              		.loc 1 395 7 view .LVU356
 1010              	.LVL160:
 398:Drivers/CMSIS/DSP/Source/FilteringFunctions/arm_correlate_q31.c **** 
 1011              		.loc 1 398 7 view .LVU357
 398:Drivers/CMSIS/DSP/Source/FilteringFunctions/arm_correlate_q31.c **** 
 1012              		.loc 1 398 9 is_stmt 0 view .LVU358
 1013 04c8 B808     		lsrs	r0, r7, #2
 1014              	.LVL161:
 402:Drivers/CMSIS/DSP/Source/FilteringFunctions/arm_correlate_q31.c ****       {
 1015              		.loc 1 402 7 is_stmt 1 view .LVU359
ARM GAS  /tmp/ccYYIQGv.s 			page 29


 402:Drivers/CMSIS/DSP/Source/FilteringFunctions/arm_correlate_q31.c ****       {
 1016              		.loc 1 402 13 is_stmt 0 view .LVU360
 1017 04ca 059E     		ldr	r6, [sp, #20]
 395:Drivers/CMSIS/DSP/Source/FilteringFunctions/arm_correlate_q31.c **** 
 1018              		.loc 1 395 11 view .LVU361
 1019 04cc 0023     		movs	r3, #0
 1020 04ce 1C46     		mov	r4, r3
 1021 04d0 9846     		mov	r8, r3
 402:Drivers/CMSIS/DSP/Source/FilteringFunctions/arm_correlate_q31.c ****       {
 1022              		.loc 1 402 13 view .LVU362
 1023 04d2 CDE7     		b	.L17
 1024              	.LVL162:
 1025              	.L36:
 402:Drivers/CMSIS/DSP/Source/FilteringFunctions/arm_correlate_q31.c ****       {
 1026              		.loc 1 402 13 view .LVU363
 1027 04d4 009D     		ldr	r5, [sp]
 1028 04d6 029C     		ldr	r4, [sp, #8]
 1029              	.LVL163:
 1030              	.L22:
 441:Drivers/CMSIS/DSP/Source/FilteringFunctions/arm_correlate_q31.c ****     }
 442:Drivers/CMSIS/DSP/Source/FilteringFunctions/arm_correlate_q31.c ****   }
 443:Drivers/CMSIS/DSP/Source/FilteringFunctions/arm_correlate_q31.c ****   else
 444:Drivers/CMSIS/DSP/Source/FilteringFunctions/arm_correlate_q31.c ****   {
 445:Drivers/CMSIS/DSP/Source/FilteringFunctions/arm_correlate_q31.c ****     /* If the srcBLen is not a multiple of 4,
 446:Drivers/CMSIS/DSP/Source/FilteringFunctions/arm_correlate_q31.c ****      * the blockSize2 loop cannot be unrolled by 4 */
 447:Drivers/CMSIS/DSP/Source/FilteringFunctions/arm_correlate_q31.c ****     blkCnt = blockSize2;
 448:Drivers/CMSIS/DSP/Source/FilteringFunctions/arm_correlate_q31.c **** 
 449:Drivers/CMSIS/DSP/Source/FilteringFunctions/arm_correlate_q31.c ****     while (blkCnt > 0U)
 450:Drivers/CMSIS/DSP/Source/FilteringFunctions/arm_correlate_q31.c ****     {
 451:Drivers/CMSIS/DSP/Source/FilteringFunctions/arm_correlate_q31.c ****       /* Accumulator is made zero for every iteration */
 452:Drivers/CMSIS/DSP/Source/FilteringFunctions/arm_correlate_q31.c ****       sum = 0;
 453:Drivers/CMSIS/DSP/Source/FilteringFunctions/arm_correlate_q31.c **** 
 454:Drivers/CMSIS/DSP/Source/FilteringFunctions/arm_correlate_q31.c ****       /* Loop over srcBLen */
 455:Drivers/CMSIS/DSP/Source/FilteringFunctions/arm_correlate_q31.c ****       k = srcBLen;
 456:Drivers/CMSIS/DSP/Source/FilteringFunctions/arm_correlate_q31.c **** 
 457:Drivers/CMSIS/DSP/Source/FilteringFunctions/arm_correlate_q31.c ****       while (k > 0U)
 458:Drivers/CMSIS/DSP/Source/FilteringFunctions/arm_correlate_q31.c ****       {
 459:Drivers/CMSIS/DSP/Source/FilteringFunctions/arm_correlate_q31.c ****         /* Perform the multiply-accumulate */
 460:Drivers/CMSIS/DSP/Source/FilteringFunctions/arm_correlate_q31.c ****         sum += (q63_t) * px++ * (*py++);
 461:Drivers/CMSIS/DSP/Source/FilteringFunctions/arm_correlate_q31.c **** 
 462:Drivers/CMSIS/DSP/Source/FilteringFunctions/arm_correlate_q31.c ****         /* Decrement the loop counter */
 463:Drivers/CMSIS/DSP/Source/FilteringFunctions/arm_correlate_q31.c ****         k--;
 464:Drivers/CMSIS/DSP/Source/FilteringFunctions/arm_correlate_q31.c ****       }
 465:Drivers/CMSIS/DSP/Source/FilteringFunctions/arm_correlate_q31.c **** 
 466:Drivers/CMSIS/DSP/Source/FilteringFunctions/arm_correlate_q31.c ****       /* Store the result in the accumulator in the destination buffer. */
 467:Drivers/CMSIS/DSP/Source/FilteringFunctions/arm_correlate_q31.c ****       *pOut = (q31_t) (sum >> 31);
 468:Drivers/CMSIS/DSP/Source/FilteringFunctions/arm_correlate_q31.c ****       /* Destination pointer is updated according to the address modifier, inc */
 469:Drivers/CMSIS/DSP/Source/FilteringFunctions/arm_correlate_q31.c ****       pOut += inc;
 470:Drivers/CMSIS/DSP/Source/FilteringFunctions/arm_correlate_q31.c **** 
 471:Drivers/CMSIS/DSP/Source/FilteringFunctions/arm_correlate_q31.c ****       /* Increment the MAC count */
 472:Drivers/CMSIS/DSP/Source/FilteringFunctions/arm_correlate_q31.c ****       count++;
 473:Drivers/CMSIS/DSP/Source/FilteringFunctions/arm_correlate_q31.c **** 
 474:Drivers/CMSIS/DSP/Source/FilteringFunctions/arm_correlate_q31.c ****       /* Update the inputA and inputB pointers for next MAC calculation */
 475:Drivers/CMSIS/DSP/Source/FilteringFunctions/arm_correlate_q31.c ****       px = pIn1 + count;
 476:Drivers/CMSIS/DSP/Source/FilteringFunctions/arm_correlate_q31.c ****       py = pIn2;
 477:Drivers/CMSIS/DSP/Source/FilteringFunctions/arm_correlate_q31.c **** 
 478:Drivers/CMSIS/DSP/Source/FilteringFunctions/arm_correlate_q31.c ****       /* Decrement the loop counter */
ARM GAS  /tmp/ccYYIQGv.s 			page 30


 479:Drivers/CMSIS/DSP/Source/FilteringFunctions/arm_correlate_q31.c ****       blkCnt--;
 480:Drivers/CMSIS/DSP/Source/FilteringFunctions/arm_correlate_q31.c ****     }
 481:Drivers/CMSIS/DSP/Source/FilteringFunctions/arm_correlate_q31.c ****   }
 482:Drivers/CMSIS/DSP/Source/FilteringFunctions/arm_correlate_q31.c **** 
 483:Drivers/CMSIS/DSP/Source/FilteringFunctions/arm_correlate_q31.c ****   /* --------------------------
 484:Drivers/CMSIS/DSP/Source/FilteringFunctions/arm_correlate_q31.c ****    * Initializations of stage3
 485:Drivers/CMSIS/DSP/Source/FilteringFunctions/arm_correlate_q31.c ****    * -------------------------*/
 486:Drivers/CMSIS/DSP/Source/FilteringFunctions/arm_correlate_q31.c **** 
 487:Drivers/CMSIS/DSP/Source/FilteringFunctions/arm_correlate_q31.c ****   /* sum += x[srcALen-srcBLen+1] * y[0] + x[srcALen-srcBLen+2] * y[1] +...+ x[srcALen-1] * y[srcBLe
 488:Drivers/CMSIS/DSP/Source/FilteringFunctions/arm_correlate_q31.c ****    * sum += x[srcALen-srcBLen+2] * y[0] + x[srcALen-srcBLen+3] * y[1] +...+ x[srcALen-1] * y[srcBLe
 489:Drivers/CMSIS/DSP/Source/FilteringFunctions/arm_correlate_q31.c ****    * ....
 490:Drivers/CMSIS/DSP/Source/FilteringFunctions/arm_correlate_q31.c ****    * sum +=  x[srcALen-2] * y[0] + x[srcALen-1] * y[1]
 491:Drivers/CMSIS/DSP/Source/FilteringFunctions/arm_correlate_q31.c ****    * sum +=  x[srcALen-1] * y[0]
 492:Drivers/CMSIS/DSP/Source/FilteringFunctions/arm_correlate_q31.c ****    */
 493:Drivers/CMSIS/DSP/Source/FilteringFunctions/arm_correlate_q31.c **** 
 494:Drivers/CMSIS/DSP/Source/FilteringFunctions/arm_correlate_q31.c ****   /* In this stage the MAC operations are decreased by 1 for every iteration.
 495:Drivers/CMSIS/DSP/Source/FilteringFunctions/arm_correlate_q31.c ****      The count variable holds the number of MAC operations performed */
 496:Drivers/CMSIS/DSP/Source/FilteringFunctions/arm_correlate_q31.c ****   count = srcBLen - 1U;
 1031              		.loc 1 496 3 is_stmt 1 view .LVU364
 497:Drivers/CMSIS/DSP/Source/FilteringFunctions/arm_correlate_q31.c **** 
 498:Drivers/CMSIS/DSP/Source/FilteringFunctions/arm_correlate_q31.c ****   /* Working pointer of inputA */
 499:Drivers/CMSIS/DSP/Source/FilteringFunctions/arm_correlate_q31.c ****   pSrc1 = pIn1 + (srcALen - (srcBLen - 1U));
 1032              		.loc 1 499 3 view .LVU365
 1033              		.loc 1 499 9 is_stmt 0 view .LVU366
 1034 04d8 079B     		ldr	r3, [sp, #28]
 1035 04da 03EB8E0C 		add	ip, r3, lr, lsl #2
 1036              	.LVL164:
 500:Drivers/CMSIS/DSP/Source/FilteringFunctions/arm_correlate_q31.c ****   px = pSrc1;
 1037              		.loc 1 500 3 is_stmt 1 view .LVU367
 501:Drivers/CMSIS/DSP/Source/FilteringFunctions/arm_correlate_q31.c **** 
 502:Drivers/CMSIS/DSP/Source/FilteringFunctions/arm_correlate_q31.c ****   /* Working pointer of inputB */
 503:Drivers/CMSIS/DSP/Source/FilteringFunctions/arm_correlate_q31.c ****   py = pIn2;
 1038              		.loc 1 503 3 view .LVU368
 504:Drivers/CMSIS/DSP/Source/FilteringFunctions/arm_correlate_q31.c **** 
 505:Drivers/CMSIS/DSP/Source/FilteringFunctions/arm_correlate_q31.c ****   /* -------------------
 506:Drivers/CMSIS/DSP/Source/FilteringFunctions/arm_correlate_q31.c ****    * Stage3 process
 507:Drivers/CMSIS/DSP/Source/FilteringFunctions/arm_correlate_q31.c ****    * ------------------*/
 508:Drivers/CMSIS/DSP/Source/FilteringFunctions/arm_correlate_q31.c **** 
 509:Drivers/CMSIS/DSP/Source/FilteringFunctions/arm_correlate_q31.c ****   while (blockSize3 > 0U)
 1039              		.loc 1 509 3 view .LVU369
 157:Drivers/CMSIS/DSP/Source/FilteringFunctions/arm_correlate_q31.c **** 
 1040              		.loc 1 157 14 is_stmt 0 view .LVU370
 1041 04de 2746     		mov	r7, r4
 1042              		.loc 1 509 9 view .LVU371
 1043 04e0 B7E0     		b	.L25
 1044              	.LVL165:
 1045              	.L23:
 460:Drivers/CMSIS/DSP/Source/FilteringFunctions/arm_correlate_q31.c **** 
 1046              		.loc 1 460 9 is_stmt 1 view .LVU372
 460:Drivers/CMSIS/DSP/Source/FilteringFunctions/arm_correlate_q31.c **** 
 1047              		.loc 1 460 24 is_stmt 0 view .LVU373
 1048 04e2 56F8042B 		ldr	r2, [r6], #4
 1049              	.LVL166:
 460:Drivers/CMSIS/DSP/Source/FilteringFunctions/arm_correlate_q31.c **** 
 1050              		.loc 1 460 16 view .LVU374
 1051 04e6 4FEAE27A 		asr	r10, r2, #31
 1052              	.LVL167:
ARM GAS  /tmp/ccYYIQGv.s 			page 31


 460:Drivers/CMSIS/DSP/Source/FilteringFunctions/arm_correlate_q31.c **** 
 1053              		.loc 1 460 34 view .LVU375
 1054 04ea 54F8041B 		ldr	r1, [r4], #4
 1055              	.LVL168:
 460:Drivers/CMSIS/DSP/Source/FilteringFunctions/arm_correlate_q31.c **** 
 1056              		.loc 1 460 34 view .LVU376
 1057 04ee 4FEAE17E 		asr	lr, r1, #31
 460:Drivers/CMSIS/DSP/Source/FilteringFunctions/arm_correlate_q31.c **** 
 1058              		.loc 1 460 31 view .LVU377
 1059 04f2 02FB0EFE 		mul	lr, r2, lr
 1060 04f6 01FB0AEE 		mla	lr, r1, r10, lr
 1061 04fa A2FB0121 		umull	r2, r1, r2, r1
 1062 04fe 7144     		add	r1, r1, lr
 460:Drivers/CMSIS/DSP/Source/FilteringFunctions/arm_correlate_q31.c **** 
 1063              		.loc 1 460 13 view .LVU378
 1064 0500 9A18     		adds	r2, r3, r2
 1065 0502 1346     		mov	r3, r2
 1066              	.LVL169:
 460:Drivers/CMSIS/DSP/Source/FilteringFunctions/arm_correlate_q31.c **** 
 1067              		.loc 1 460 13 view .LVU379
 1068 0504 41EB0C0C 		adc	ip, r1, ip
 1069              	.LVL170:
 463:Drivers/CMSIS/DSP/Source/FilteringFunctions/arm_correlate_q31.c ****       }
 1070              		.loc 1 463 9 is_stmt 1 view .LVU380
 463:Drivers/CMSIS/DSP/Source/FilteringFunctions/arm_correlate_q31.c ****       }
 1071              		.loc 1 463 10 is_stmt 0 view .LVU381
 1072 0508 0138     		subs	r0, r0, #1
 1073              	.LVL171:
 1074              	.L24:
 457:Drivers/CMSIS/DSP/Source/FilteringFunctions/arm_correlate_q31.c ****       {
 1075              		.loc 1 457 16 is_stmt 1 view .LVU382
 1076 050a 0028     		cmp	r0, #0
 1077 050c E9D1     		bne	.L23
 467:Drivers/CMSIS/DSP/Source/FilteringFunctions/arm_correlate_q31.c ****       /* Destination pointer is updated according to the address modifier, inc */
 1078              		.loc 1 467 28 is_stmt 0 view .LVU383
 1079 050e DDF800E0 		ldr	lr, [sp]
 1080 0512 DDF804A0 		ldr	r10, [sp, #4]
 467:Drivers/CMSIS/DSP/Source/FilteringFunctions/arm_correlate_q31.c ****       /* Destination pointer is updated according to the address modifier, inc */
 1081              		.loc 1 467 7 is_stmt 1 view .LVU384
 467:Drivers/CMSIS/DSP/Source/FilteringFunctions/arm_correlate_q31.c ****       /* Destination pointer is updated according to the address modifier, inc */
 1082              		.loc 1 467 28 is_stmt 0 view .LVU385
 1083 0516 DB0F     		lsrs	r3, r3, #31
 1084              	.LVL172:
 467:Drivers/CMSIS/DSP/Source/FilteringFunctions/arm_correlate_q31.c ****       /* Destination pointer is updated according to the address modifier, inc */
 1085              		.loc 1 467 28 view .LVU386
 1086 0518 43EA4C03 		orr	r3, r3, ip, lsl #1
 467:Drivers/CMSIS/DSP/Source/FilteringFunctions/arm_correlate_q31.c ****       /* Destination pointer is updated according to the address modifier, inc */
 1087              		.loc 1 467 13 view .LVU387
 1088 051c CEF80030 		str	r3, [lr]
 469:Drivers/CMSIS/DSP/Source/FilteringFunctions/arm_correlate_q31.c **** 
 1089              		.loc 1 469 7 is_stmt 1 view .LVU388
 469:Drivers/CMSIS/DSP/Source/FilteringFunctions/arm_correlate_q31.c **** 
 1090              		.loc 1 469 12 is_stmt 0 view .LVU389
 1091 0520 0EEB8B0E 		add	lr, lr, fp, lsl #2
 1092              	.LVL173:
 472:Drivers/CMSIS/DSP/Source/FilteringFunctions/arm_correlate_q31.c **** 
 1093              		.loc 1 472 7 is_stmt 1 view .LVU390
ARM GAS  /tmp/ccYYIQGv.s 			page 32


 472:Drivers/CMSIS/DSP/Source/FilteringFunctions/arm_correlate_q31.c **** 
 1094              		.loc 1 472 12 is_stmt 0 view .LVU391
 1095 0524 0AF1010A 		add	r10, r10, #1
 1096              	.LVL174:
 475:Drivers/CMSIS/DSP/Source/FilteringFunctions/arm_correlate_q31.c ****       py = pIn2;
 1097              		.loc 1 475 7 is_stmt 1 view .LVU392
 475:Drivers/CMSIS/DSP/Source/FilteringFunctions/arm_correlate_q31.c ****       py = pIn2;
 1098              		.loc 1 475 10 is_stmt 0 view .LVU393
 1099 0528 08EB8A06 		add	r6, r8, r10, lsl #2
 1100              	.LVL175:
 476:Drivers/CMSIS/DSP/Source/FilteringFunctions/arm_correlate_q31.c **** 
 1101              		.loc 1 476 7 is_stmt 1 view .LVU394
 479:Drivers/CMSIS/DSP/Source/FilteringFunctions/arm_correlate_q31.c ****     }
 1102              		.loc 1 479 7 view .LVU395
 479:Drivers/CMSIS/DSP/Source/FilteringFunctions/arm_correlate_q31.c ****     }
 1103              		.loc 1 479 13 is_stmt 0 view .LVU396
 1104 052c 013D     		subs	r5, r5, #1
 1105              	.LVL176:
 1106              	.L10:
 449:Drivers/CMSIS/DSP/Source/FilteringFunctions/arm_correlate_q31.c ****     {
 1107              		.loc 1 449 19 is_stmt 1 view .LVU397
 1108 052e 8DB1     		cbz	r5, .L37
 455:Drivers/CMSIS/DSP/Source/FilteringFunctions/arm_correlate_q31.c **** 
 1109              		.loc 1 455 9 is_stmt 0 view .LVU398
 1110 0530 0698     		ldr	r0, [sp, #24]
 1111 0532 059C     		ldr	r4, [sp, #20]
 452:Drivers/CMSIS/DSP/Source/FilteringFunctions/arm_correlate_q31.c **** 
 1112              		.loc 1 452 11 view .LVU399
 1113 0534 0023     		movs	r3, #0
 1114 0536 9C46     		mov	ip, r3
 1115 0538 CDF800E0 		str	lr, [sp]
 1116 053c CDF804A0 		str	r10, [sp, #4]
 1117 0540 E3E7     		b	.L24
 1118              	.LVL177:
 1119              	.L31:
 447:Drivers/CMSIS/DSP/Source/FilteringFunctions/arm_correlate_q31.c **** 
 1120              		.loc 1 447 12 view .LVU400
 1121 0542 7046     		mov	r0, lr
 1122              	.LVL178:
 251:Drivers/CMSIS/DSP/Source/FilteringFunctions/arm_correlate_q31.c **** 
 1123              		.loc 1 251 6 view .LVU401
 1124 0544 DDF81C80 		ldr	r8, [sp, #28]
 1125              	.LVL179:
 251:Drivers/CMSIS/DSP/Source/FilteringFunctions/arm_correlate_q31.c **** 
 1126              		.loc 1 251 6 view .LVU402
 1127 0548 4646     		mov	r6, r8
 1128 054a 2746     		mov	r7, r4
 1129 054c F146     		mov	r9, lr
 1130 054e AE46     		mov	lr, r5
 1131              	.LVL180:
 251:Drivers/CMSIS/DSP/Source/FilteringFunctions/arm_correlate_q31.c **** 
 1132              		.loc 1 251 6 view .LVU403
 1133 0550 0546     		mov	r5, r0
 1134 0552 ECE7     		b	.L10
 1135              	.LVL181:
 1136              	.L37:
 251:Drivers/CMSIS/DSP/Source/FilteringFunctions/arm_correlate_q31.c **** 
ARM GAS  /tmp/ccYYIQGv.s 			page 33


 1137              		.loc 1 251 6 view .LVU404
 1138 0554 7546     		mov	r5, lr
 1139              	.LVL182:
 251:Drivers/CMSIS/DSP/Source/FilteringFunctions/arm_correlate_q31.c **** 
 1140              		.loc 1 251 6 view .LVU405
 1141 0556 3C46     		mov	r4, r7
 1142 0558 CE46     		mov	lr, r9
 1143              	.LVL183:
 251:Drivers/CMSIS/DSP/Source/FilteringFunctions/arm_correlate_q31.c **** 
 1144              		.loc 1 251 6 view .LVU406
 1145 055a BDE7     		b	.L22
 1146              	.L42:
 1147              		.align	2
 1148              	.L41:
 1149 055c ABAAAAAA 		.word	-1431655765
 1150              	.LVL184:
 1151              	.L27:
 510:Drivers/CMSIS/DSP/Source/FilteringFunctions/arm_correlate_q31.c ****   {
 511:Drivers/CMSIS/DSP/Source/FilteringFunctions/arm_correlate_q31.c ****     /* Accumulator is made zero for every iteration */
 512:Drivers/CMSIS/DSP/Source/FilteringFunctions/arm_correlate_q31.c ****     sum = 0;
 513:Drivers/CMSIS/DSP/Source/FilteringFunctions/arm_correlate_q31.c **** 
 514:Drivers/CMSIS/DSP/Source/FilteringFunctions/arm_correlate_q31.c ****     /* Apply loop unrolling and compute 4 MACs simultaneously. */
 515:Drivers/CMSIS/DSP/Source/FilteringFunctions/arm_correlate_q31.c ****     k = count >> 2U;
 516:Drivers/CMSIS/DSP/Source/FilteringFunctions/arm_correlate_q31.c **** 
 517:Drivers/CMSIS/DSP/Source/FilteringFunctions/arm_correlate_q31.c ****     /* First part of the processing with loop unrolling.  Compute 4 MACs at a time.
 518:Drivers/CMSIS/DSP/Source/FilteringFunctions/arm_correlate_q31.c ****      ** a second loop below computes MACs for the remaining 1 to 3 samples. */
 519:Drivers/CMSIS/DSP/Source/FilteringFunctions/arm_correlate_q31.c ****     while (k > 0U)
 520:Drivers/CMSIS/DSP/Source/FilteringFunctions/arm_correlate_q31.c ****     {
 521:Drivers/CMSIS/DSP/Source/FilteringFunctions/arm_correlate_q31.c ****       /* Perform the multiply-accumulates */
 522:Drivers/CMSIS/DSP/Source/FilteringFunctions/arm_correlate_q31.c ****       /* sum += x[srcALen - srcBLen + 4] * y[3] */
 523:Drivers/CMSIS/DSP/Source/FilteringFunctions/arm_correlate_q31.c ****       sum += (q63_t) * px++ * (*py++);
 1152              		.loc 1 523 7 is_stmt 1 view .LVU407
 1153              		.loc 1 523 22 is_stmt 0 view .LVU408
 1154 0560 0168     		ldr	r1, [r0]
 1155              		.loc 1 523 14 view .LVU409
 1156 0562 4FEAE17A 		asr	r10, r1, #31
 1157              	.LVL185:
 1158              		.loc 1 523 32 view .LVU410
 1159 0566 D6F80080 		ldr	r8, [r6]
 1160 056a 4FEAE872 		asr	r2, r8, #31
 1161              		.loc 1 523 29 view .LVU411
 1162 056e 01FB02F2 		mul	r2, r1, r2
 1163 0572 08FB0A22 		mla	r2, r8, r10, r2
 1164 0576 A1FB0881 		umull	r8, r1, r1, r8
 1165 057a 1144     		add	r1, r1, r2
 1166              		.loc 1 523 11 view .LVU412
 1167 057c 13EB0803 		adds	r3, r3, r8
 1168              	.LVL186:
 1169              		.loc 1 523 11 view .LVU413
 1170 0580 41EB0901 		adc	r1, r1, r9
 1171              	.LVL187:
 524:Drivers/CMSIS/DSP/Source/FilteringFunctions/arm_correlate_q31.c ****       /* sum += x[srcALen - srcBLen + 3] * y[2] */
 525:Drivers/CMSIS/DSP/Source/FilteringFunctions/arm_correlate_q31.c ****       sum += (q63_t) * px++ * (*py++);
 1172              		.loc 1 525 7 is_stmt 1 view .LVU414
 1173              		.loc 1 525 22 is_stmt 0 view .LVU415
 1174 0584 D0F80480 		ldr	r8, [r0, #4]
 1175              		.loc 1 525 14 view .LVU416
ARM GAS  /tmp/ccYYIQGv.s 			page 34


 1176 0588 4FEAE87A 		asr	r10, r8, #31
 1177              	.LVL188:
 1178              		.loc 1 525 32 view .LVU417
 1179 058c D6F80490 		ldr	r9, [r6, #4]
 1180 0590 4FEAE972 		asr	r2, r9, #31
 1181              		.loc 1 525 29 view .LVU418
 1182 0594 08FB02F2 		mul	r2, r8, r2
 1183 0598 09FB0A22 		mla	r2, r9, r10, r2
 1184 059c A8FB0989 		umull	r8, r9, r8, r9
 1185 05a0 4A44     		add	r2, r2, r9
 1186              		.loc 1 525 11 view .LVU419
 1187 05a2 13EB0803 		adds	r3, r3, r8
 1188              	.LVL189:
 1189              		.loc 1 525 11 view .LVU420
 1190 05a6 42EB0102 		adc	r2, r2, r1
 1191              	.LVL190:
 526:Drivers/CMSIS/DSP/Source/FilteringFunctions/arm_correlate_q31.c ****       /* sum += x[srcALen - srcBLen + 2] * y[1] */
 527:Drivers/CMSIS/DSP/Source/FilteringFunctions/arm_correlate_q31.c ****       sum += (q63_t) * px++ * (*py++);
 1192              		.loc 1 527 7 is_stmt 1 view .LVU421
 1193              		.loc 1 527 22 is_stmt 0 view .LVU422
 1194 05aa 8168     		ldr	r1, [r0, #8]
 1195              		.loc 1 527 14 view .LVU423
 1196 05ac 4FEAE17A 		asr	r10, r1, #31
 1197              	.LVL191:
 1198              		.loc 1 527 32 view .LVU424
 1199 05b0 D6F80880 		ldr	r8, [r6, #8]
 1200 05b4 4FEAE879 		asr	r9, r8, #31
 1201              		.loc 1 527 29 view .LVU425
 1202 05b8 01FB09F9 		mul	r9, r1, r9
 1203 05bc 08FB0A99 		mla	r9, r8, r10, r9
 1204 05c0 A1FB0881 		umull	r8, r1, r1, r8
 1205 05c4 4944     		add	r1, r1, r9
 1206              		.loc 1 527 11 view .LVU426
 1207 05c6 13EB0808 		adds	r8, r3, r8
 1208 05ca 41EB0201 		adc	r1, r1, r2
 1209              	.LVL192:
 528:Drivers/CMSIS/DSP/Source/FilteringFunctions/arm_correlate_q31.c ****       /* sum += x[srcALen - srcBLen + 1] * y[0] */
 529:Drivers/CMSIS/DSP/Source/FilteringFunctions/arm_correlate_q31.c ****       sum += (q63_t) * px++ * (*py++);
 1210              		.loc 1 529 7 is_stmt 1 view .LVU427
 1211              		.loc 1 529 22 is_stmt 0 view .LVU428
 1212 05ce C268     		ldr	r2, [r0, #12]
 1213              		.loc 1 529 14 view .LVU429
 1214 05d0 4FEAE27A 		asr	r10, r2, #31
 1215              	.LVL193:
 1216              		.loc 1 529 32 view .LVU430
 1217 05d4 D6F80C90 		ldr	r9, [r6, #12]
 1218 05d8 4FEAE973 		asr	r3, r9, #31
 1219              		.loc 1 529 29 view .LVU431
 1220 05dc 02FB03F3 		mul	r3, r2, r3
 1221 05e0 09FB0A33 		mla	r3, r9, r10, r3
 1222 05e4 A2FB0929 		umull	r2, r9, r2, r9
 1223 05e8 9944     		add	r9, r9, r3
 1224              		.loc 1 529 11 view .LVU432
 1225 05ea 18EB0203 		adds	r3, r8, r2
 1226 05ee 49EB0109 		adc	r9, r9, r1
 1227              	.LVL194:
 530:Drivers/CMSIS/DSP/Source/FilteringFunctions/arm_correlate_q31.c **** 
ARM GAS  /tmp/ccYYIQGv.s 			page 35


 531:Drivers/CMSIS/DSP/Source/FilteringFunctions/arm_correlate_q31.c ****       /* Decrement the loop counter */
 532:Drivers/CMSIS/DSP/Source/FilteringFunctions/arm_correlate_q31.c ****       k--;
 1228              		.loc 1 532 7 is_stmt 1 view .LVU433
 1229              		.loc 1 532 8 is_stmt 0 view .LVU434
 1230 05f2 013C     		subs	r4, r4, #1
 1231              	.LVL195:
 529:Drivers/CMSIS/DSP/Source/FilteringFunctions/arm_correlate_q31.c **** 
 1232              		.loc 1 529 35 view .LVU435
 1233 05f4 1036     		adds	r6, r6, #16
 1234              	.LVL196:
 529:Drivers/CMSIS/DSP/Source/FilteringFunctions/arm_correlate_q31.c **** 
 1235              		.loc 1 529 26 view .LVU436
 1236 05f6 1030     		adds	r0, r0, #16
 1237              	.LVL197:
 1238              	.L26:
 519:Drivers/CMSIS/DSP/Source/FilteringFunctions/arm_correlate_q31.c ****     {
 1239              		.loc 1 519 14 is_stmt 1 view .LVU437
 1240 05f8 002C     		cmp	r4, #0
 1241 05fa B1D1     		bne	.L27
 533:Drivers/CMSIS/DSP/Source/FilteringFunctions/arm_correlate_q31.c ****     }
 534:Drivers/CMSIS/DSP/Source/FilteringFunctions/arm_correlate_q31.c **** 
 535:Drivers/CMSIS/DSP/Source/FilteringFunctions/arm_correlate_q31.c ****     /* If the count is not a multiple of 4, compute any remaining MACs here.
 536:Drivers/CMSIS/DSP/Source/FilteringFunctions/arm_correlate_q31.c ****      ** No loop unrolling is used. */
 537:Drivers/CMSIS/DSP/Source/FilteringFunctions/arm_correlate_q31.c ****     k = count % 0x4U;
 1242              		.loc 1 537 7 is_stmt 0 view .LVU438
 1243 05fc 7446     		mov	r4, lr
 1244              	.LVL198:
 1245              		.loc 1 537 7 view .LVU439
 1246 05fe 4946     		mov	r1, r9
 1247              		.loc 1 537 5 is_stmt 1 view .LVU440
 1248              		.loc 1 537 7 is_stmt 0 view .LVU441
 1249 0600 0EF00308 		and	r8, lr, #3
 1250              	.LVL199:
 538:Drivers/CMSIS/DSP/Source/FilteringFunctions/arm_correlate_q31.c **** 
 539:Drivers/CMSIS/DSP/Source/FilteringFunctions/arm_correlate_q31.c ****     while (k > 0U)
 1251              		.loc 1 539 5 is_stmt 1 view .LVU442
 1252 0604 8146     		mov	r9, r0
 1253              	.LVL200:
 1254              		.loc 1 539 5 is_stmt 0 view .LVU443
 1255 0606 1A46     		mov	r2, r3
 1256 0608 4346     		mov	r3, r8
 1257              	.LVL201:
 1258              		.loc 1 539 5 view .LVU444
 1259 060a 9046     		mov	r8, r2
 1260              	.LVL202:
 1261              		.loc 1 539 11 view .LVU445
 1262 060c 14E0     		b	.L28
 1263              	.LVL203:
 1264              	.L29:
 540:Drivers/CMSIS/DSP/Source/FilteringFunctions/arm_correlate_q31.c ****     {
 541:Drivers/CMSIS/DSP/Source/FilteringFunctions/arm_correlate_q31.c ****       /* Perform the multiply-accumulates */
 542:Drivers/CMSIS/DSP/Source/FilteringFunctions/arm_correlate_q31.c ****       sum += (q63_t) * px++ * (*py++);
 1265              		.loc 1 542 7 is_stmt 1 view .LVU446
 1266              		.loc 1 542 22 is_stmt 0 view .LVU447
 1267 060e 59F8042B 		ldr	r2, [r9], #4
 1268              	.LVL204:
 1269              		.loc 1 542 14 view .LVU448
ARM GAS  /tmp/ccYYIQGv.s 			page 36


 1270 0612 4FEAE27A 		asr	r10, r2, #31
 1271              	.LVL205:
 1272              		.loc 1 542 32 view .LVU449
 1273 0616 56F8040B 		ldr	r0, [r6], #4
 1274              	.LVL206:
 1275              		.loc 1 542 32 view .LVU450
 1276 061a 4FEAE07E 		asr	lr, r0, #31
 1277              		.loc 1 542 29 view .LVU451
 1278 061e 02FB0EFE 		mul	lr, r2, lr
 1279 0622 00FB0AEE 		mla	lr, r0, r10, lr
 1280 0626 A2FB0020 		umull	r2, r0, r2, r0
 1281 062a 8644     		add	lr, lr, r0
 1282              		.loc 1 542 11 view .LVU452
 1283 062c 18EB0202 		adds	r2, r8, r2
 1284 0630 9046     		mov	r8, r2
 1285              	.LVL207:
 1286              		.loc 1 542 11 view .LVU453
 1287 0632 4EEB0101 		adc	r1, lr, r1
 1288              	.LVL208:
 543:Drivers/CMSIS/DSP/Source/FilteringFunctions/arm_correlate_q31.c **** 
 544:Drivers/CMSIS/DSP/Source/FilteringFunctions/arm_correlate_q31.c ****       /* Decrement the loop counter */
 545:Drivers/CMSIS/DSP/Source/FilteringFunctions/arm_correlate_q31.c ****       k--;
 1289              		.loc 1 545 7 is_stmt 1 view .LVU454
 1290              		.loc 1 545 8 is_stmt 0 view .LVU455
 1291 0636 013B     		subs	r3, r3, #1
 1292              	.LVL209:
 1293              	.L28:
 539:Drivers/CMSIS/DSP/Source/FilteringFunctions/arm_correlate_q31.c ****     {
 1294              		.loc 1 539 14 is_stmt 1 view .LVU456
 1295 0638 002B     		cmp	r3, #0
 1296 063a E8D1     		bne	.L29
 546:Drivers/CMSIS/DSP/Source/FilteringFunctions/arm_correlate_q31.c ****     }
 547:Drivers/CMSIS/DSP/Source/FilteringFunctions/arm_correlate_q31.c **** 
 548:Drivers/CMSIS/DSP/Source/FilteringFunctions/arm_correlate_q31.c ****     /* Store the result in the accumulator in the destination buffer. */
 549:Drivers/CMSIS/DSP/Source/FilteringFunctions/arm_correlate_q31.c ****     *pOut = (q31_t) (sum >> 31);
 1297              		.loc 1 549 26 is_stmt 0 view .LVU457
 1298 063c 4346     		mov	r3, r8
 1299              	.LVL210:
 1300              		.loc 1 549 5 is_stmt 1 view .LVU458
 1301              		.loc 1 549 26 is_stmt 0 view .LVU459
 1302 063e DB0F     		lsrs	r3, r3, #31
 1303 0640 43EA4103 		orr	r3, r3, r1, lsl #1
 1304              		.loc 1 549 11 view .LVU460
 1305 0644 2B60     		str	r3, [r5]
 550:Drivers/CMSIS/DSP/Source/FilteringFunctions/arm_correlate_q31.c ****     /* Destination pointer is updated according to the address modifier, inc */
 551:Drivers/CMSIS/DSP/Source/FilteringFunctions/arm_correlate_q31.c ****     pOut += inc;
 1306              		.loc 1 551 5 is_stmt 1 view .LVU461
 1307              		.loc 1 551 10 is_stmt 0 view .LVU462
 1308 0646 05EB8B05 		add	r5, r5, fp, lsl #2
 1309              	.LVL211:
 552:Drivers/CMSIS/DSP/Source/FilteringFunctions/arm_correlate_q31.c **** 
 553:Drivers/CMSIS/DSP/Source/FilteringFunctions/arm_correlate_q31.c ****     /* Update the inputA and inputB pointers for next MAC calculation */
 554:Drivers/CMSIS/DSP/Source/FilteringFunctions/arm_correlate_q31.c ****     px = ++pSrc1;
 1310              		.loc 1 554 5 is_stmt 1 view .LVU463
 1311              		.loc 1 554 8 is_stmt 0 view .LVU464
 1312 064a 0CF1040C 		add	ip, ip, #4
 1313              	.LVL212:
ARM GAS  /tmp/ccYYIQGv.s 			page 37


 555:Drivers/CMSIS/DSP/Source/FilteringFunctions/arm_correlate_q31.c ****     py = pIn2;
 1314              		.loc 1 555 5 is_stmt 1 view .LVU465
 556:Drivers/CMSIS/DSP/Source/FilteringFunctions/arm_correlate_q31.c **** 
 557:Drivers/CMSIS/DSP/Source/FilteringFunctions/arm_correlate_q31.c ****     /* Decrement the MAC count */
 558:Drivers/CMSIS/DSP/Source/FilteringFunctions/arm_correlate_q31.c ****     count--;
 1315              		.loc 1 558 5 view .LVU466
 1316              		.loc 1 558 10 is_stmt 0 view .LVU467
 1317 064e 013C     		subs	r4, r4, #1
 1318              	.LVL213:
 559:Drivers/CMSIS/DSP/Source/FilteringFunctions/arm_correlate_q31.c **** 
 560:Drivers/CMSIS/DSP/Source/FilteringFunctions/arm_correlate_q31.c ****     /* Decrement the loop counter */
 561:Drivers/CMSIS/DSP/Source/FilteringFunctions/arm_correlate_q31.c ****     blockSize3--;
 1319              		.loc 1 561 5 is_stmt 1 view .LVU468
 1320              		.loc 1 561 15 is_stmt 0 view .LVU469
 1321 0650 013F     		subs	r7, r7, #1
 1322              	.LVL214:
 1323              	.L25:
 509:Drivers/CMSIS/DSP/Source/FilteringFunctions/arm_correlate_q31.c ****   {
 1324              		.loc 1 509 21 is_stmt 1 view .LVU470
 1325 0652 47B1     		cbz	r7, .L38
 512:Drivers/CMSIS/DSP/Source/FilteringFunctions/arm_correlate_q31.c **** 
 1326              		.loc 1 512 5 view .LVU471
 1327              	.LVL215:
 515:Drivers/CMSIS/DSP/Source/FilteringFunctions/arm_correlate_q31.c **** 
 1328              		.loc 1 515 5 view .LVU472
 515:Drivers/CMSIS/DSP/Source/FilteringFunctions/arm_correlate_q31.c **** 
 1329              		.loc 1 515 7 is_stmt 0 view .LVU473
 1330 0654 4FEA9408 		lsr	r8, r4, #2
 1331              	.LVL216:
 519:Drivers/CMSIS/DSP/Source/FilteringFunctions/arm_correlate_q31.c ****     {
 1332              		.loc 1 519 5 is_stmt 1 view .LVU474
 519:Drivers/CMSIS/DSP/Source/FilteringFunctions/arm_correlate_q31.c ****     {
 1333              		.loc 1 519 11 is_stmt 0 view .LVU475
 1334 0658 059E     		ldr	r6, [sp, #20]
 1335 065a 6046     		mov	r0, ip
 512:Drivers/CMSIS/DSP/Source/FilteringFunctions/arm_correlate_q31.c **** 
 1336              		.loc 1 512 9 view .LVU476
 1337 065c 0023     		movs	r3, #0
 1338 065e A646     		mov	lr, r4
 1339 0660 4446     		mov	r4, r8
 1340              	.LVL217:
 512:Drivers/CMSIS/DSP/Source/FilteringFunctions/arm_correlate_q31.c **** 
 1341              		.loc 1 512 9 view .LVU477
 1342 0662 9946     		mov	r9, r3
 519:Drivers/CMSIS/DSP/Source/FilteringFunctions/arm_correlate_q31.c ****     {
 1343              		.loc 1 519 11 view .LVU478
 1344 0664 C8E7     		b	.L26
 1345              	.LVL218:
 1346              	.L38:
 562:Drivers/CMSIS/DSP/Source/FilteringFunctions/arm_correlate_q31.c ****   }
 563:Drivers/CMSIS/DSP/Source/FilteringFunctions/arm_correlate_q31.c **** 
 564:Drivers/CMSIS/DSP/Source/FilteringFunctions/arm_correlate_q31.c **** #else
 565:Drivers/CMSIS/DSP/Source/FilteringFunctions/arm_correlate_q31.c **** 
 566:Drivers/CMSIS/DSP/Source/FilteringFunctions/arm_correlate_q31.c ****   /* Run the below code for Cortex-M0 */
 567:Drivers/CMSIS/DSP/Source/FilteringFunctions/arm_correlate_q31.c **** 
 568:Drivers/CMSIS/DSP/Source/FilteringFunctions/arm_correlate_q31.c ****   q31_t *pIn1 = pSrcA;                           /* inputA pointer               */
 569:Drivers/CMSIS/DSP/Source/FilteringFunctions/arm_correlate_q31.c ****   q31_t *pIn2 = pSrcB + (srcBLen - 1U);          /* inputB pointer               */
ARM GAS  /tmp/ccYYIQGv.s 			page 38


 570:Drivers/CMSIS/DSP/Source/FilteringFunctions/arm_correlate_q31.c ****   q63_t sum;                                     /* Accumulators                  */
 571:Drivers/CMSIS/DSP/Source/FilteringFunctions/arm_correlate_q31.c ****   uint32_t i = 0U, j;                            /* loop counters */
 572:Drivers/CMSIS/DSP/Source/FilteringFunctions/arm_correlate_q31.c ****   uint32_t inv = 0U;                             /* Reverse order flag */
 573:Drivers/CMSIS/DSP/Source/FilteringFunctions/arm_correlate_q31.c ****   uint32_t tot = 0U;                             /* Length */
 574:Drivers/CMSIS/DSP/Source/FilteringFunctions/arm_correlate_q31.c **** 
 575:Drivers/CMSIS/DSP/Source/FilteringFunctions/arm_correlate_q31.c ****   /* The algorithm implementation is based on the lengths of the inputs. */
 576:Drivers/CMSIS/DSP/Source/FilteringFunctions/arm_correlate_q31.c ****   /* srcB is always made to slide across srcA. */
 577:Drivers/CMSIS/DSP/Source/FilteringFunctions/arm_correlate_q31.c ****   /* So srcBLen is always considered as shorter or equal to srcALen */
 578:Drivers/CMSIS/DSP/Source/FilteringFunctions/arm_correlate_q31.c ****   /* But CORR(x, y) is reverse of CORR(y, x) */
 579:Drivers/CMSIS/DSP/Source/FilteringFunctions/arm_correlate_q31.c ****   /* So, when srcBLen > srcALen, output pointer is made to point to the end of the output buffer */
 580:Drivers/CMSIS/DSP/Source/FilteringFunctions/arm_correlate_q31.c ****   /* and a varaible, inv is set to 1 */
 581:Drivers/CMSIS/DSP/Source/FilteringFunctions/arm_correlate_q31.c ****   /* If lengths are not equal then zero pad has to be done to  make the two
 582:Drivers/CMSIS/DSP/Source/FilteringFunctions/arm_correlate_q31.c ****    * inputs of same length. But to improve the performance, we include zeroes
 583:Drivers/CMSIS/DSP/Source/FilteringFunctions/arm_correlate_q31.c ****    * in the output instead of zero padding either of the the inputs*/
 584:Drivers/CMSIS/DSP/Source/FilteringFunctions/arm_correlate_q31.c ****   /* If srcALen > srcBLen, (srcALen - srcBLen) zeroes has to included in the
 585:Drivers/CMSIS/DSP/Source/FilteringFunctions/arm_correlate_q31.c ****    * starting of the output buffer */
 586:Drivers/CMSIS/DSP/Source/FilteringFunctions/arm_correlate_q31.c ****   /* If srcALen < srcBLen, (srcALen - srcBLen) zeroes has to included in the
 587:Drivers/CMSIS/DSP/Source/FilteringFunctions/arm_correlate_q31.c ****    * ending of the output buffer */
 588:Drivers/CMSIS/DSP/Source/FilteringFunctions/arm_correlate_q31.c ****   /* Once the zero padding is done the remaining of the output is calcualted
 589:Drivers/CMSIS/DSP/Source/FilteringFunctions/arm_correlate_q31.c ****    * using correlation but with the shorter signal time shifted. */
 590:Drivers/CMSIS/DSP/Source/FilteringFunctions/arm_correlate_q31.c **** 
 591:Drivers/CMSIS/DSP/Source/FilteringFunctions/arm_correlate_q31.c ****   /* Calculate the length of the remaining sequence */
 592:Drivers/CMSIS/DSP/Source/FilteringFunctions/arm_correlate_q31.c ****   tot = ((srcALen + srcBLen) - 2U);
 593:Drivers/CMSIS/DSP/Source/FilteringFunctions/arm_correlate_q31.c **** 
 594:Drivers/CMSIS/DSP/Source/FilteringFunctions/arm_correlate_q31.c ****   if (srcALen > srcBLen)
 595:Drivers/CMSIS/DSP/Source/FilteringFunctions/arm_correlate_q31.c ****   {
 596:Drivers/CMSIS/DSP/Source/FilteringFunctions/arm_correlate_q31.c ****     /* Calculating the number of zeros to be padded to the output */
 597:Drivers/CMSIS/DSP/Source/FilteringFunctions/arm_correlate_q31.c ****     j = srcALen - srcBLen;
 598:Drivers/CMSIS/DSP/Source/FilteringFunctions/arm_correlate_q31.c **** 
 599:Drivers/CMSIS/DSP/Source/FilteringFunctions/arm_correlate_q31.c ****     /* Initialise the pointer after zero padding */
 600:Drivers/CMSIS/DSP/Source/FilteringFunctions/arm_correlate_q31.c ****     pDst += j;
 601:Drivers/CMSIS/DSP/Source/FilteringFunctions/arm_correlate_q31.c ****   }
 602:Drivers/CMSIS/DSP/Source/FilteringFunctions/arm_correlate_q31.c **** 
 603:Drivers/CMSIS/DSP/Source/FilteringFunctions/arm_correlate_q31.c ****   else if (srcALen < srcBLen)
 604:Drivers/CMSIS/DSP/Source/FilteringFunctions/arm_correlate_q31.c ****   {
 605:Drivers/CMSIS/DSP/Source/FilteringFunctions/arm_correlate_q31.c ****     /* Initialization to inputB pointer */
 606:Drivers/CMSIS/DSP/Source/FilteringFunctions/arm_correlate_q31.c ****     pIn1 = pSrcB;
 607:Drivers/CMSIS/DSP/Source/FilteringFunctions/arm_correlate_q31.c **** 
 608:Drivers/CMSIS/DSP/Source/FilteringFunctions/arm_correlate_q31.c ****     /* Initialization to the end of inputA pointer */
 609:Drivers/CMSIS/DSP/Source/FilteringFunctions/arm_correlate_q31.c ****     pIn2 = pSrcA + (srcALen - 1U);
 610:Drivers/CMSIS/DSP/Source/FilteringFunctions/arm_correlate_q31.c **** 
 611:Drivers/CMSIS/DSP/Source/FilteringFunctions/arm_correlate_q31.c ****     /* Initialisation of the pointer after zero padding */
 612:Drivers/CMSIS/DSP/Source/FilteringFunctions/arm_correlate_q31.c ****     pDst = pDst + tot;
 613:Drivers/CMSIS/DSP/Source/FilteringFunctions/arm_correlate_q31.c **** 
 614:Drivers/CMSIS/DSP/Source/FilteringFunctions/arm_correlate_q31.c ****     /* Swapping the lengths */
 615:Drivers/CMSIS/DSP/Source/FilteringFunctions/arm_correlate_q31.c ****     j = srcALen;
 616:Drivers/CMSIS/DSP/Source/FilteringFunctions/arm_correlate_q31.c ****     srcALen = srcBLen;
 617:Drivers/CMSIS/DSP/Source/FilteringFunctions/arm_correlate_q31.c ****     srcBLen = j;
 618:Drivers/CMSIS/DSP/Source/FilteringFunctions/arm_correlate_q31.c **** 
 619:Drivers/CMSIS/DSP/Source/FilteringFunctions/arm_correlate_q31.c ****     /* Setting the reverse flag */
 620:Drivers/CMSIS/DSP/Source/FilteringFunctions/arm_correlate_q31.c ****     inv = 1;
 621:Drivers/CMSIS/DSP/Source/FilteringFunctions/arm_correlate_q31.c **** 
 622:Drivers/CMSIS/DSP/Source/FilteringFunctions/arm_correlate_q31.c ****   }
 623:Drivers/CMSIS/DSP/Source/FilteringFunctions/arm_correlate_q31.c **** 
 624:Drivers/CMSIS/DSP/Source/FilteringFunctions/arm_correlate_q31.c ****   /* Loop to calculate correlation for output length number of times */
 625:Drivers/CMSIS/DSP/Source/FilteringFunctions/arm_correlate_q31.c ****   for (i = 0U; i <= tot; i++)
 626:Drivers/CMSIS/DSP/Source/FilteringFunctions/arm_correlate_q31.c ****   {
ARM GAS  /tmp/ccYYIQGv.s 			page 39


 627:Drivers/CMSIS/DSP/Source/FilteringFunctions/arm_correlate_q31.c ****     /* Initialize sum with zero to carry on MAC operations */
 628:Drivers/CMSIS/DSP/Source/FilteringFunctions/arm_correlate_q31.c ****     sum = 0;
 629:Drivers/CMSIS/DSP/Source/FilteringFunctions/arm_correlate_q31.c **** 
 630:Drivers/CMSIS/DSP/Source/FilteringFunctions/arm_correlate_q31.c ****     /* Loop to perform MAC operations according to correlation equation */
 631:Drivers/CMSIS/DSP/Source/FilteringFunctions/arm_correlate_q31.c ****     for (j = 0U; j <= i; j++)
 632:Drivers/CMSIS/DSP/Source/FilteringFunctions/arm_correlate_q31.c ****     {
 633:Drivers/CMSIS/DSP/Source/FilteringFunctions/arm_correlate_q31.c ****       /* Check the array limitations */
 634:Drivers/CMSIS/DSP/Source/FilteringFunctions/arm_correlate_q31.c ****       if ((((i - j) < srcBLen) && (j < srcALen)))
 635:Drivers/CMSIS/DSP/Source/FilteringFunctions/arm_correlate_q31.c ****       {
 636:Drivers/CMSIS/DSP/Source/FilteringFunctions/arm_correlate_q31.c ****         /* z[i] += x[i-j] * y[j] */
 637:Drivers/CMSIS/DSP/Source/FilteringFunctions/arm_correlate_q31.c ****         sum += ((q63_t) pIn1[j] * pIn2[-((int32_t) i - j)]);
 638:Drivers/CMSIS/DSP/Source/FilteringFunctions/arm_correlate_q31.c ****       }
 639:Drivers/CMSIS/DSP/Source/FilteringFunctions/arm_correlate_q31.c ****     }
 640:Drivers/CMSIS/DSP/Source/FilteringFunctions/arm_correlate_q31.c ****     /* Store the output in the destination buffer */
 641:Drivers/CMSIS/DSP/Source/FilteringFunctions/arm_correlate_q31.c ****     if (inv == 1)
 642:Drivers/CMSIS/DSP/Source/FilteringFunctions/arm_correlate_q31.c ****       *pDst-- = (q31_t) (sum >> 31U);
 643:Drivers/CMSIS/DSP/Source/FilteringFunctions/arm_correlate_q31.c ****     else
 644:Drivers/CMSIS/DSP/Source/FilteringFunctions/arm_correlate_q31.c ****       *pDst++ = (q31_t) (sum >> 31U);
 645:Drivers/CMSIS/DSP/Source/FilteringFunctions/arm_correlate_q31.c ****   }
 646:Drivers/CMSIS/DSP/Source/FilteringFunctions/arm_correlate_q31.c **** 
 647:Drivers/CMSIS/DSP/Source/FilteringFunctions/arm_correlate_q31.c **** #endif /*   #if defined (ARM_MATH_DSP) */
 648:Drivers/CMSIS/DSP/Source/FilteringFunctions/arm_correlate_q31.c **** 
 649:Drivers/CMSIS/DSP/Source/FilteringFunctions/arm_correlate_q31.c **** }
 1347              		.loc 1 649 1 view .LVU479
 1348 0666 0FB0     		add	sp, sp, #60
 1349              	.LCFI2:
 1350              		.cfi_def_cfa_offset 36
 1351              		@ sp needed
 1352 0668 BDE8F08F 		pop	{r4, r5, r6, r7, r8, r9, r10, fp, pc}
 1353              		.loc 1 649 1 view .LVU480
 1354              		.cfi_endproc
 1355              	.LFE135:
 1357              		.text
 1358              	.Letext0:
 1359              		.file 2 "/usr/arm-none-eabi/include/machine/_default_types.h"
 1360              		.file 3 "/usr/arm-none-eabi/include/sys/_stdint.h"
 1361              		.file 4 "Drivers/CMSIS/DSP/Include/arm_math.h"
ARM GAS  /tmp/ccYYIQGv.s 			page 40

