ARM GAS  /tmp/ccYf7o5c.s 			page 1


   1              		.cpu cortex-m7
   2              		.arch armv7e-m
   3              		.fpu fpv5-sp-d16
   4              		.eabi_attribute 27, 1
   5              		.eabi_attribute 28, 1
   6              		.eabi_attribute 20, 1
   7              		.eabi_attribute 21, 1
   8              		.eabi_attribute 23, 3
   9              		.eabi_attribute 24, 1
  10              		.eabi_attribute 25, 1
  11              		.eabi_attribute 26, 1
  12              		.eabi_attribute 30, 1
  13              		.eabi_attribute 34, 1
  14              		.eabi_attribute 18, 4
  15              		.file	"arm_conv_fast_q31.c"
  16              		.text
  17              	.Ltext0:
  18              		.cfi_sections	.debug_frame
  19              		.file 1 "Drivers/CMSIS/DSP/Source/FilteringFunctions/arm_conv_fast_q31.c"
  20              		.section	.text.arm_conv_fast_q31,"ax",%progbits
  21              		.align	1
  22              		.global	arm_conv_fast_q31
  23              		.syntax unified
  24              		.thumb
  25              		.thumb_func
  27              	arm_conv_fast_q31:
  28              	.LVL0:
  29              	.LFB135:
   1:Drivers/CMSIS/DSP/Source/FilteringFunctions/arm_conv_fast_q31.c **** /* ----------------------------------------------------------------------
   2:Drivers/CMSIS/DSP/Source/FilteringFunctions/arm_conv_fast_q31.c ****  * Project:      CMSIS DSP Library
   3:Drivers/CMSIS/DSP/Source/FilteringFunctions/arm_conv_fast_q31.c ****  * Title:        arm_conv_fast_q31.c
   4:Drivers/CMSIS/DSP/Source/FilteringFunctions/arm_conv_fast_q31.c ****  * Description:  Fast Q31 Convolution
   5:Drivers/CMSIS/DSP/Source/FilteringFunctions/arm_conv_fast_q31.c ****  *
   6:Drivers/CMSIS/DSP/Source/FilteringFunctions/arm_conv_fast_q31.c ****  * $Date:        27. January 2017
   7:Drivers/CMSIS/DSP/Source/FilteringFunctions/arm_conv_fast_q31.c ****  * $Revision:    V.1.5.1
   8:Drivers/CMSIS/DSP/Source/FilteringFunctions/arm_conv_fast_q31.c ****  *
   9:Drivers/CMSIS/DSP/Source/FilteringFunctions/arm_conv_fast_q31.c ****  * Target Processor: Cortex-M cores
  10:Drivers/CMSIS/DSP/Source/FilteringFunctions/arm_conv_fast_q31.c ****  * -------------------------------------------------------------------- */
  11:Drivers/CMSIS/DSP/Source/FilteringFunctions/arm_conv_fast_q31.c **** /*
  12:Drivers/CMSIS/DSP/Source/FilteringFunctions/arm_conv_fast_q31.c ****  * Copyright (C) 2010-2017 ARM Limited or its affiliates. All rights reserved.
  13:Drivers/CMSIS/DSP/Source/FilteringFunctions/arm_conv_fast_q31.c ****  *
  14:Drivers/CMSIS/DSP/Source/FilteringFunctions/arm_conv_fast_q31.c ****  * SPDX-License-Identifier: Apache-2.0
  15:Drivers/CMSIS/DSP/Source/FilteringFunctions/arm_conv_fast_q31.c ****  *
  16:Drivers/CMSIS/DSP/Source/FilteringFunctions/arm_conv_fast_q31.c ****  * Licensed under the Apache License, Version 2.0 (the License); you may
  17:Drivers/CMSIS/DSP/Source/FilteringFunctions/arm_conv_fast_q31.c ****  * not use this file except in compliance with the License.
  18:Drivers/CMSIS/DSP/Source/FilteringFunctions/arm_conv_fast_q31.c ****  * You may obtain a copy of the License at
  19:Drivers/CMSIS/DSP/Source/FilteringFunctions/arm_conv_fast_q31.c ****  *
  20:Drivers/CMSIS/DSP/Source/FilteringFunctions/arm_conv_fast_q31.c ****  * www.apache.org/licenses/LICENSE-2.0
  21:Drivers/CMSIS/DSP/Source/FilteringFunctions/arm_conv_fast_q31.c ****  *
  22:Drivers/CMSIS/DSP/Source/FilteringFunctions/arm_conv_fast_q31.c ****  * Unless required by applicable law or agreed to in writing, software
  23:Drivers/CMSIS/DSP/Source/FilteringFunctions/arm_conv_fast_q31.c ****  * distributed under the License is distributed on an AS IS BASIS, WITHOUT
  24:Drivers/CMSIS/DSP/Source/FilteringFunctions/arm_conv_fast_q31.c ****  * WARRANTIES OR CONDITIONS OF ANY KIND, either express or implied.
  25:Drivers/CMSIS/DSP/Source/FilteringFunctions/arm_conv_fast_q31.c ****  * See the License for the specific language governing permissions and
  26:Drivers/CMSIS/DSP/Source/FilteringFunctions/arm_conv_fast_q31.c ****  * limitations under the License.
  27:Drivers/CMSIS/DSP/Source/FilteringFunctions/arm_conv_fast_q31.c ****  */
  28:Drivers/CMSIS/DSP/Source/FilteringFunctions/arm_conv_fast_q31.c **** 
  29:Drivers/CMSIS/DSP/Source/FilteringFunctions/arm_conv_fast_q31.c **** #include "arm_math.h"
ARM GAS  /tmp/ccYf7o5c.s 			page 2


  30:Drivers/CMSIS/DSP/Source/FilteringFunctions/arm_conv_fast_q31.c **** 
  31:Drivers/CMSIS/DSP/Source/FilteringFunctions/arm_conv_fast_q31.c **** /**
  32:Drivers/CMSIS/DSP/Source/FilteringFunctions/arm_conv_fast_q31.c ****  * @ingroup groupFilters
  33:Drivers/CMSIS/DSP/Source/FilteringFunctions/arm_conv_fast_q31.c ****  */
  34:Drivers/CMSIS/DSP/Source/FilteringFunctions/arm_conv_fast_q31.c **** 
  35:Drivers/CMSIS/DSP/Source/FilteringFunctions/arm_conv_fast_q31.c **** /**
  36:Drivers/CMSIS/DSP/Source/FilteringFunctions/arm_conv_fast_q31.c ****  * @addtogroup Conv
  37:Drivers/CMSIS/DSP/Source/FilteringFunctions/arm_conv_fast_q31.c ****  * @{
  38:Drivers/CMSIS/DSP/Source/FilteringFunctions/arm_conv_fast_q31.c ****  */
  39:Drivers/CMSIS/DSP/Source/FilteringFunctions/arm_conv_fast_q31.c **** 
  40:Drivers/CMSIS/DSP/Source/FilteringFunctions/arm_conv_fast_q31.c **** /**
  41:Drivers/CMSIS/DSP/Source/FilteringFunctions/arm_conv_fast_q31.c ****  * @param[in] *pSrcA points to the first input sequence.
  42:Drivers/CMSIS/DSP/Source/FilteringFunctions/arm_conv_fast_q31.c ****  * @param[in] srcALen length of the first input sequence.
  43:Drivers/CMSIS/DSP/Source/FilteringFunctions/arm_conv_fast_q31.c ****  * @param[in] *pSrcB points to the second input sequence.
  44:Drivers/CMSIS/DSP/Source/FilteringFunctions/arm_conv_fast_q31.c ****  * @param[in] srcBLen length of the second input sequence.
  45:Drivers/CMSIS/DSP/Source/FilteringFunctions/arm_conv_fast_q31.c ****  * @param[out] *pDst points to the location where the output result is written.  Length srcALen+src
  46:Drivers/CMSIS/DSP/Source/FilteringFunctions/arm_conv_fast_q31.c ****  * @return none.
  47:Drivers/CMSIS/DSP/Source/FilteringFunctions/arm_conv_fast_q31.c ****  *
  48:Drivers/CMSIS/DSP/Source/FilteringFunctions/arm_conv_fast_q31.c ****  * @details
  49:Drivers/CMSIS/DSP/Source/FilteringFunctions/arm_conv_fast_q31.c ****  * <b>Scaling and Overflow Behavior:</b>
  50:Drivers/CMSIS/DSP/Source/FilteringFunctions/arm_conv_fast_q31.c ****  *
  51:Drivers/CMSIS/DSP/Source/FilteringFunctions/arm_conv_fast_q31.c ****  * \par
  52:Drivers/CMSIS/DSP/Source/FilteringFunctions/arm_conv_fast_q31.c ****  * This function is optimized for speed at the expense of fixed-point precision and overflow protec
  53:Drivers/CMSIS/DSP/Source/FilteringFunctions/arm_conv_fast_q31.c ****  * The result of each 1.31 x 1.31 multiplication is truncated to 2.30 format.
  54:Drivers/CMSIS/DSP/Source/FilteringFunctions/arm_conv_fast_q31.c ****  * These intermediate results are accumulated in a 32-bit register in 2.30 format.
  55:Drivers/CMSIS/DSP/Source/FilteringFunctions/arm_conv_fast_q31.c ****  * Finally, the accumulator is saturated and converted to a 1.31 result.
  56:Drivers/CMSIS/DSP/Source/FilteringFunctions/arm_conv_fast_q31.c ****  *
  57:Drivers/CMSIS/DSP/Source/FilteringFunctions/arm_conv_fast_q31.c ****  * \par
  58:Drivers/CMSIS/DSP/Source/FilteringFunctions/arm_conv_fast_q31.c ****  * The fast version has the same overflow behavior as the standard version but provides less precis
  59:Drivers/CMSIS/DSP/Source/FilteringFunctions/arm_conv_fast_q31.c ****  * In order to avoid overflows completely the input signals must be scaled down.
  60:Drivers/CMSIS/DSP/Source/FilteringFunctions/arm_conv_fast_q31.c ****  * Scale down the inputs by log2(min(srcALen, srcBLen)) (log2 is read as log to the base 2) times t
  61:Drivers/CMSIS/DSP/Source/FilteringFunctions/arm_conv_fast_q31.c ****  * as maximum of min(srcALen, srcBLen) number of additions are carried internally.
  62:Drivers/CMSIS/DSP/Source/FilteringFunctions/arm_conv_fast_q31.c ****  *
  63:Drivers/CMSIS/DSP/Source/FilteringFunctions/arm_conv_fast_q31.c ****  * \par
  64:Drivers/CMSIS/DSP/Source/FilteringFunctions/arm_conv_fast_q31.c ****  * See <code>arm_conv_q31()</code> for a slower implementation of this function which uses 64-bit a
  65:Drivers/CMSIS/DSP/Source/FilteringFunctions/arm_conv_fast_q31.c ****  */
  66:Drivers/CMSIS/DSP/Source/FilteringFunctions/arm_conv_fast_q31.c **** 
  67:Drivers/CMSIS/DSP/Source/FilteringFunctions/arm_conv_fast_q31.c **** void arm_conv_fast_q31(
  68:Drivers/CMSIS/DSP/Source/FilteringFunctions/arm_conv_fast_q31.c ****   q31_t * pSrcA,
  69:Drivers/CMSIS/DSP/Source/FilteringFunctions/arm_conv_fast_q31.c ****   uint32_t srcALen,
  70:Drivers/CMSIS/DSP/Source/FilteringFunctions/arm_conv_fast_q31.c ****   q31_t * pSrcB,
  71:Drivers/CMSIS/DSP/Source/FilteringFunctions/arm_conv_fast_q31.c ****   uint32_t srcBLen,
  72:Drivers/CMSIS/DSP/Source/FilteringFunctions/arm_conv_fast_q31.c ****   q31_t * pDst)
  73:Drivers/CMSIS/DSP/Source/FilteringFunctions/arm_conv_fast_q31.c **** {
  30              		.loc 1 73 1 view -0
  31              		.cfi_startproc
  32              		@ args = 4, pretend = 0, frame = 40
  33              		@ frame_needed = 0, uses_anonymous_args = 0
  34              		.loc 1 73 1 is_stmt 0 view .LVU1
  35 0000 2DE9F04F 		push	{r4, r5, r6, r7, r8, r9, r10, fp, lr}
  36              	.LCFI0:
  37              		.cfi_def_cfa_offset 36
  38              		.cfi_offset 4, -36
  39              		.cfi_offset 5, -32
  40              		.cfi_offset 6, -28
  41              		.cfi_offset 7, -24
  42              		.cfi_offset 8, -20
ARM GAS  /tmp/ccYf7o5c.s 			page 3


  43              		.cfi_offset 9, -16
  44              		.cfi_offset 10, -12
  45              		.cfi_offset 11, -8
  46              		.cfi_offset 14, -4
  47 0004 8BB0     		sub	sp, sp, #44
  48              	.LCFI1:
  49              		.cfi_def_cfa_offset 80
  50 0006 8646     		mov	lr, r0
  51 0008 0491     		str	r1, [sp, #16]
  52 000a 0592     		str	r2, [sp, #20]
  53 000c 149C     		ldr	r4, [sp, #80]
  74:Drivers/CMSIS/DSP/Source/FilteringFunctions/arm_conv_fast_q31.c ****   q31_t *pIn1;                                   /* inputA pointer */
  54              		.loc 1 74 3 is_stmt 1 view .LVU2
  75:Drivers/CMSIS/DSP/Source/FilteringFunctions/arm_conv_fast_q31.c ****   q31_t *pIn2;                                   /* inputB pointer */
  55              		.loc 1 75 3 view .LVU3
  76:Drivers/CMSIS/DSP/Source/FilteringFunctions/arm_conv_fast_q31.c ****   q31_t *pOut = pDst;                            /* output pointer */
  56              		.loc 1 76 3 view .LVU4
  57              	.LVL1:
  77:Drivers/CMSIS/DSP/Source/FilteringFunctions/arm_conv_fast_q31.c ****   q31_t *px;                                     /* Intermediate inputA pointer  */
  58              		.loc 1 77 3 view .LVU5
  78:Drivers/CMSIS/DSP/Source/FilteringFunctions/arm_conv_fast_q31.c ****   q31_t *py;                                     /* Intermediate inputB pointer  */
  59              		.loc 1 78 3 view .LVU6
  79:Drivers/CMSIS/DSP/Source/FilteringFunctions/arm_conv_fast_q31.c ****   q31_t *pSrc1, *pSrc2;                          /* Intermediate pointers */
  60              		.loc 1 79 3 view .LVU7
  80:Drivers/CMSIS/DSP/Source/FilteringFunctions/arm_conv_fast_q31.c ****   q31_t sum, acc0, acc1, acc2, acc3;             /* Accumulator */
  61              		.loc 1 80 3 view .LVU8
  81:Drivers/CMSIS/DSP/Source/FilteringFunctions/arm_conv_fast_q31.c ****   q31_t x0, x1, x2, x3, c0;                      /* Temporary variables to hold state and coefficie
  62              		.loc 1 81 3 view .LVU9
  82:Drivers/CMSIS/DSP/Source/FilteringFunctions/arm_conv_fast_q31.c ****   uint32_t j, k, count, blkCnt, blockSize1, blockSize2, blockSize3;     /* loop counter */
  63              		.loc 1 82 3 view .LVU10
  83:Drivers/CMSIS/DSP/Source/FilteringFunctions/arm_conv_fast_q31.c **** 
  84:Drivers/CMSIS/DSP/Source/FilteringFunctions/arm_conv_fast_q31.c ****   /* The algorithm implementation is based on the lengths of the inputs. */
  85:Drivers/CMSIS/DSP/Source/FilteringFunctions/arm_conv_fast_q31.c ****   /* srcB is always made to slide across srcA. */
  86:Drivers/CMSIS/DSP/Source/FilteringFunctions/arm_conv_fast_q31.c ****   /* So srcBLen is always considered as shorter or equal to srcALen */
  87:Drivers/CMSIS/DSP/Source/FilteringFunctions/arm_conv_fast_q31.c ****   if (srcALen >= srcBLen)
  64              		.loc 1 87 3 view .LVU11
  65              		.loc 1 87 6 is_stmt 0 view .LVU12
  66 000e 9942     		cmp	r1, r3
  67 0010 04D3     		bcc	.L2
  88:Drivers/CMSIS/DSP/Source/FilteringFunctions/arm_conv_fast_q31.c ****   {
  89:Drivers/CMSIS/DSP/Source/FilteringFunctions/arm_conv_fast_q31.c ****     /* Initialization of inputA pointer */
  90:Drivers/CMSIS/DSP/Source/FilteringFunctions/arm_conv_fast_q31.c ****     pIn1 = pSrcA;
  68              		.loc 1 90 10 view .LVU13
  69 0012 0590     		str	r0, [sp, #20]
  91:Drivers/CMSIS/DSP/Source/FilteringFunctions/arm_conv_fast_q31.c **** 
  92:Drivers/CMSIS/DSP/Source/FilteringFunctions/arm_conv_fast_q31.c ****     /* Initialization of inputB pointer */
  93:Drivers/CMSIS/DSP/Source/FilteringFunctions/arm_conv_fast_q31.c ****     pIn2 = pSrcB;
  70              		.loc 1 93 10 view .LVU14
  71 0014 9646     		mov	lr, r2
  87:Drivers/CMSIS/DSP/Source/FilteringFunctions/arm_conv_fast_q31.c ****   {
  72              		.loc 1 87 6 view .LVU15
  73 0016 1A46     		mov	r2, r3
  74              	.LVL2:
  87:Drivers/CMSIS/DSP/Source/FilteringFunctions/arm_conv_fast_q31.c ****   {
  75              		.loc 1 87 6 view .LVU16
  76 0018 0B46     		mov	r3, r1
  77              	.LVL3:
ARM GAS  /tmp/ccYf7o5c.s 			page 4


  87:Drivers/CMSIS/DSP/Source/FilteringFunctions/arm_conv_fast_q31.c ****   {
  78              		.loc 1 87 6 view .LVU17
  79 001a 0492     		str	r2, [sp, #16]
  80              	.LVL4:
  81              	.L2:
  94:Drivers/CMSIS/DSP/Source/FilteringFunctions/arm_conv_fast_q31.c ****   }
  95:Drivers/CMSIS/DSP/Source/FilteringFunctions/arm_conv_fast_q31.c ****   else
  96:Drivers/CMSIS/DSP/Source/FilteringFunctions/arm_conv_fast_q31.c ****   {
  97:Drivers/CMSIS/DSP/Source/FilteringFunctions/arm_conv_fast_q31.c ****     /* Initialization of inputA pointer */
  98:Drivers/CMSIS/DSP/Source/FilteringFunctions/arm_conv_fast_q31.c ****     pIn1 = pSrcB;
  99:Drivers/CMSIS/DSP/Source/FilteringFunctions/arm_conv_fast_q31.c **** 
 100:Drivers/CMSIS/DSP/Source/FilteringFunctions/arm_conv_fast_q31.c ****     /* Initialization of inputB pointer */
 101:Drivers/CMSIS/DSP/Source/FilteringFunctions/arm_conv_fast_q31.c ****     pIn2 = pSrcA;
 102:Drivers/CMSIS/DSP/Source/FilteringFunctions/arm_conv_fast_q31.c **** 
 103:Drivers/CMSIS/DSP/Source/FilteringFunctions/arm_conv_fast_q31.c ****     /* srcBLen is always considered as shorter or equal to srcALen */
 104:Drivers/CMSIS/DSP/Source/FilteringFunctions/arm_conv_fast_q31.c ****     j = srcBLen;
 105:Drivers/CMSIS/DSP/Source/FilteringFunctions/arm_conv_fast_q31.c ****     srcBLen = srcALen;
 106:Drivers/CMSIS/DSP/Source/FilteringFunctions/arm_conv_fast_q31.c ****     srcALen = j;
 107:Drivers/CMSIS/DSP/Source/FilteringFunctions/arm_conv_fast_q31.c ****   }
 108:Drivers/CMSIS/DSP/Source/FilteringFunctions/arm_conv_fast_q31.c **** 
 109:Drivers/CMSIS/DSP/Source/FilteringFunctions/arm_conv_fast_q31.c ****   /* conv(x,y) at n = x[n] * y[0] + x[n-1] * y[1] + x[n-2] * y[2] + ...+ x[n-N+1] * y[N -1] */
 110:Drivers/CMSIS/DSP/Source/FilteringFunctions/arm_conv_fast_q31.c ****   /* The function is internally
 111:Drivers/CMSIS/DSP/Source/FilteringFunctions/arm_conv_fast_q31.c ****    * divided into three stages according to the number of multiplications that has to be
 112:Drivers/CMSIS/DSP/Source/FilteringFunctions/arm_conv_fast_q31.c ****    * taken place between inputA samples and inputB samples. In the first stage of the
 113:Drivers/CMSIS/DSP/Source/FilteringFunctions/arm_conv_fast_q31.c ****    * algorithm, the multiplications increase by one for every iteration.
 114:Drivers/CMSIS/DSP/Source/FilteringFunctions/arm_conv_fast_q31.c ****    * In the second stage of the algorithm, srcBLen number of multiplications are done.
 115:Drivers/CMSIS/DSP/Source/FilteringFunctions/arm_conv_fast_q31.c ****    * In the third stage of the algorithm, the multiplications decrease by one
 116:Drivers/CMSIS/DSP/Source/FilteringFunctions/arm_conv_fast_q31.c ****    * for every iteration. */
 117:Drivers/CMSIS/DSP/Source/FilteringFunctions/arm_conv_fast_q31.c **** 
 118:Drivers/CMSIS/DSP/Source/FilteringFunctions/arm_conv_fast_q31.c ****   /* The algorithm is implemented in three stages.
 119:Drivers/CMSIS/DSP/Source/FilteringFunctions/arm_conv_fast_q31.c ****      The loop counters of each stage is initiated here. */
 120:Drivers/CMSIS/DSP/Source/FilteringFunctions/arm_conv_fast_q31.c ****   blockSize1 = srcBLen - 1U;
  82              		.loc 1 120 3 is_stmt 1 view .LVU18
  83              		.loc 1 120 14 is_stmt 0 view .LVU19
  84 001c 0499     		ldr	r1, [sp, #16]
  85 001e 4A1E     		subs	r2, r1, #1
  86              	.LVL5:
 121:Drivers/CMSIS/DSP/Source/FilteringFunctions/arm_conv_fast_q31.c ****   blockSize2 = srcALen - (srcBLen - 1U);
  87              		.loc 1 121 3 is_stmt 1 view .LVU20
  88              		.loc 1 121 24 is_stmt 0 view .LVU21
  89 0020 5B1A     		subs	r3, r3, r1
  90              	.LVL6:
  91              		.loc 1 121 14 view .LVU22
  92 0022 03F10109 		add	r9, r3, #1
  93              	.LVL7:
 122:Drivers/CMSIS/DSP/Source/FilteringFunctions/arm_conv_fast_q31.c ****   blockSize3 = blockSize1;
  94              		.loc 1 122 3 is_stmt 1 view .LVU23
 123:Drivers/CMSIS/DSP/Source/FilteringFunctions/arm_conv_fast_q31.c **** 
 124:Drivers/CMSIS/DSP/Source/FilteringFunctions/arm_conv_fast_q31.c ****   /* --------------------------
 125:Drivers/CMSIS/DSP/Source/FilteringFunctions/arm_conv_fast_q31.c ****    * Initializations of stage1
 126:Drivers/CMSIS/DSP/Source/FilteringFunctions/arm_conv_fast_q31.c ****    * -------------------------*/
 127:Drivers/CMSIS/DSP/Source/FilteringFunctions/arm_conv_fast_q31.c **** 
 128:Drivers/CMSIS/DSP/Source/FilteringFunctions/arm_conv_fast_q31.c ****   /* sum = x[0] * y[0]
 129:Drivers/CMSIS/DSP/Source/FilteringFunctions/arm_conv_fast_q31.c ****    * sum = x[0] * y[1] + x[1] * y[0]
 130:Drivers/CMSIS/DSP/Source/FilteringFunctions/arm_conv_fast_q31.c ****    * ....
 131:Drivers/CMSIS/DSP/Source/FilteringFunctions/arm_conv_fast_q31.c ****    * sum = x[0] * y[srcBlen - 1] + x[1] * y[srcBlen - 2] +...+ x[srcBLen - 1] * y[0]
 132:Drivers/CMSIS/DSP/Source/FilteringFunctions/arm_conv_fast_q31.c ****    */
ARM GAS  /tmp/ccYf7o5c.s 			page 5


 133:Drivers/CMSIS/DSP/Source/FilteringFunctions/arm_conv_fast_q31.c **** 
 134:Drivers/CMSIS/DSP/Source/FilteringFunctions/arm_conv_fast_q31.c ****   /* In this stage the MAC operations are increased by 1 for every iteration.
 135:Drivers/CMSIS/DSP/Source/FilteringFunctions/arm_conv_fast_q31.c ****      The count variable holds the number of MAC operations performed */
 136:Drivers/CMSIS/DSP/Source/FilteringFunctions/arm_conv_fast_q31.c ****   count = 1U;
  95              		.loc 1 136 3 view .LVU24
 137:Drivers/CMSIS/DSP/Source/FilteringFunctions/arm_conv_fast_q31.c **** 
 138:Drivers/CMSIS/DSP/Source/FilteringFunctions/arm_conv_fast_q31.c ****   /* Working pointer of inputA */
 139:Drivers/CMSIS/DSP/Source/FilteringFunctions/arm_conv_fast_q31.c ****   px = pIn1;
  96              		.loc 1 139 3 view .LVU25
 140:Drivers/CMSIS/DSP/Source/FilteringFunctions/arm_conv_fast_q31.c **** 
 141:Drivers/CMSIS/DSP/Source/FilteringFunctions/arm_conv_fast_q31.c ****   /* Working pointer of inputB */
 142:Drivers/CMSIS/DSP/Source/FilteringFunctions/arm_conv_fast_q31.c ****   py = pIn2;
  97              		.loc 1 142 3 view .LVU26
 143:Drivers/CMSIS/DSP/Source/FilteringFunctions/arm_conv_fast_q31.c **** 
 144:Drivers/CMSIS/DSP/Source/FilteringFunctions/arm_conv_fast_q31.c **** 
 145:Drivers/CMSIS/DSP/Source/FilteringFunctions/arm_conv_fast_q31.c ****   /* ------------------------
 146:Drivers/CMSIS/DSP/Source/FilteringFunctions/arm_conv_fast_q31.c ****    * Stage1 process
 147:Drivers/CMSIS/DSP/Source/FilteringFunctions/arm_conv_fast_q31.c ****    * ----------------------*/
 148:Drivers/CMSIS/DSP/Source/FilteringFunctions/arm_conv_fast_q31.c **** 
 149:Drivers/CMSIS/DSP/Source/FilteringFunctions/arm_conv_fast_q31.c ****   /* The first stage starts here */
 150:Drivers/CMSIS/DSP/Source/FilteringFunctions/arm_conv_fast_q31.c ****   while (blockSize1 > 0U)
  98              		.loc 1 150 3 view .LVU27
 120:Drivers/CMSIS/DSP/Source/FilteringFunctions/arm_conv_fast_q31.c ****   blockSize2 = srcALen - (srcBLen - 1U);
  99              		.loc 1 120 14 is_stmt 0 view .LVU28
 100 0026 1046     		mov	r0, r2
 101              	.LVL8:
 142:Drivers/CMSIS/DSP/Source/FilteringFunctions/arm_conv_fast_q31.c **** 
 102              		.loc 1 142 6 view .LVU29
 103 0028 7146     		mov	r1, lr
 136:Drivers/CMSIS/DSP/Source/FilteringFunctions/arm_conv_fast_q31.c **** 
 104              		.loc 1 136 9 view .LVU30
 105 002a 4FF0010C 		mov	ip, #1
 106 002e 9046     		mov	r8, r2
 107              		.loc 1 150 9 view .LVU31
 108 0030 5CE0     		b	.L3
 109              	.LVL9:
 110              	.L5:
 151:Drivers/CMSIS/DSP/Source/FilteringFunctions/arm_conv_fast_q31.c ****   {
 152:Drivers/CMSIS/DSP/Source/FilteringFunctions/arm_conv_fast_q31.c ****     /* Accumulator is made zero for every iteration */
 153:Drivers/CMSIS/DSP/Source/FilteringFunctions/arm_conv_fast_q31.c ****     sum = 0;
 154:Drivers/CMSIS/DSP/Source/FilteringFunctions/arm_conv_fast_q31.c **** 
 155:Drivers/CMSIS/DSP/Source/FilteringFunctions/arm_conv_fast_q31.c ****     /* Apply loop unrolling and compute 4 MACs simultaneously. */
 156:Drivers/CMSIS/DSP/Source/FilteringFunctions/arm_conv_fast_q31.c ****     k = count >> 2U;
 157:Drivers/CMSIS/DSP/Source/FilteringFunctions/arm_conv_fast_q31.c **** 
 158:Drivers/CMSIS/DSP/Source/FilteringFunctions/arm_conv_fast_q31.c ****     /* First part of the processing with loop unrolling.  Compute 4 MACs at a time.
 159:Drivers/CMSIS/DSP/Source/FilteringFunctions/arm_conv_fast_q31.c ****      ** a second loop below computes MACs for the remaining 1 to 3 samples. */
 160:Drivers/CMSIS/DSP/Source/FilteringFunctions/arm_conv_fast_q31.c ****     while (k > 0U)
 161:Drivers/CMSIS/DSP/Source/FilteringFunctions/arm_conv_fast_q31.c ****     {
 162:Drivers/CMSIS/DSP/Source/FilteringFunctions/arm_conv_fast_q31.c ****       /* x[0] * y[srcBLen - 1] */
 163:Drivers/CMSIS/DSP/Source/FilteringFunctions/arm_conv_fast_q31.c ****       sum = (q31_t) ((((q63_t) sum << 32) +
 111              		.loc 1 163 7 is_stmt 1 view .LVU32
 164:Drivers/CMSIS/DSP/Source/FilteringFunctions/arm_conv_fast_q31.c ****                       ((q63_t) * px++ * (*py--))) >> 32);
 112              		.loc 1 164 32 is_stmt 0 view .LVU33
 113 0032 D6F800A0 		ldr	r10, [r6]
 114              		.loc 1 164 24 view .LVU34
 115 0036 4FEAEA7B 		asr	fp, r10, #31
 116              	.LVL10:
ARM GAS  /tmp/ccYf7o5c.s 			page 6


 117              		.loc 1 164 42 view .LVU35
 118 003a 0D68     		ldr	r5, [r1]
 119 003c EA17     		asrs	r2, r5, #31
 120              		.loc 1 164 39 view .LVU36
 121 003e 0AFB02F2 		mul	r2, r10, r2
 122 0042 05FB0B22 		mla	r2, r5, fp, r2
 123 0046 AAFB05A5 		umull	r10, r5, r10, r5
 124 004a 2A44     		add	r2, r2, r5
 163:Drivers/CMSIS/DSP/Source/FilteringFunctions/arm_conv_fast_q31.c ****                       ((q63_t) * px++ * (*py--))) >> 32);
 125              		.loc 1 163 43 view .LVU37
 126 004c 1344     		add	r3, r3, r2
 127              	.LVL11:
 165:Drivers/CMSIS/DSP/Source/FilteringFunctions/arm_conv_fast_q31.c **** 
 166:Drivers/CMSIS/DSP/Source/FilteringFunctions/arm_conv_fast_q31.c ****       /* x[1] * y[srcBLen - 2] */
 167:Drivers/CMSIS/DSP/Source/FilteringFunctions/arm_conv_fast_q31.c ****       sum = (q31_t) ((((q63_t) sum << 32) +
 128              		.loc 1 167 7 is_stmt 1 view .LVU38
 168:Drivers/CMSIS/DSP/Source/FilteringFunctions/arm_conv_fast_q31.c ****                       ((q63_t) * px++ * (*py--))) >> 32);
 129              		.loc 1 168 32 is_stmt 0 view .LVU39
 130 004e D6F804A0 		ldr	r10, [r6, #4]
 131              		.loc 1 168 24 view .LVU40
 132 0052 4FEAEA7B 		asr	fp, r10, #31
 133              	.LVL12:
 134              		.loc 1 168 42 view .LVU41
 135 0056 51F8045C 		ldr	r5, [r1, #-4]
 136 005a EA17     		asrs	r2, r5, #31
 137              		.loc 1 168 39 view .LVU42
 138 005c 0AFB02F2 		mul	r2, r10, r2
 139 0060 05FB0B22 		mla	r2, r5, fp, r2
 140 0064 AAFB05A5 		umull	r10, r5, r10, r5
 141 0068 2A44     		add	r2, r2, r5
 167:Drivers/CMSIS/DSP/Source/FilteringFunctions/arm_conv_fast_q31.c ****                       ((q63_t) * px++ * (*py--))) >> 32);
 142              		.loc 1 167 43 view .LVU43
 143 006a 9D18     		adds	r5, r3, r2
 169:Drivers/CMSIS/DSP/Source/FilteringFunctions/arm_conv_fast_q31.c **** 
 170:Drivers/CMSIS/DSP/Source/FilteringFunctions/arm_conv_fast_q31.c ****       /* x[2] * y[srcBLen - 3] */
 171:Drivers/CMSIS/DSP/Source/FilteringFunctions/arm_conv_fast_q31.c ****       sum = (q31_t) ((((q63_t) sum << 32) +
 144              		.loc 1 171 7 is_stmt 1 view .LVU44
 145              	.LVL13:
 172:Drivers/CMSIS/DSP/Source/FilteringFunctions/arm_conv_fast_q31.c ****                       ((q63_t) * px++ * (*py--))) >> 32);
 146              		.loc 1 172 32 is_stmt 0 view .LVU45
 147 006c D6F808A0 		ldr	r10, [r6, #8]
 148              		.loc 1 172 24 view .LVU46
 149 0070 4FEAEA7B 		asr	fp, r10, #31
 150              	.LVL14:
 151              		.loc 1 172 42 view .LVU47
 152 0074 51F8082C 		ldr	r2, [r1, #-8]
 153 0078 D317     		asrs	r3, r2, #31
 154              		.loc 1 172 39 view .LVU48
 155 007a 0AFB03F3 		mul	r3, r10, r3
 156 007e 02FB0B33 		mla	r3, r2, fp, r3
 157 0082 AAFB02A2 		umull	r10, r2, r10, r2
 158 0086 1344     		add	r3, r3, r2
 171:Drivers/CMSIS/DSP/Source/FilteringFunctions/arm_conv_fast_q31.c ****                       ((q63_t) * px++ * (*py--))) >> 32);
 159              		.loc 1 171 43 view .LVU49
 160 0088 2B44     		add	r3, r3, r5
 173:Drivers/CMSIS/DSP/Source/FilteringFunctions/arm_conv_fast_q31.c **** 
 174:Drivers/CMSIS/DSP/Source/FilteringFunctions/arm_conv_fast_q31.c ****       /* x[3] * y[srcBLen - 4] */
ARM GAS  /tmp/ccYf7o5c.s 			page 7


 175:Drivers/CMSIS/DSP/Source/FilteringFunctions/arm_conv_fast_q31.c ****       sum = (q31_t) ((((q63_t) sum << 32) +
 161              		.loc 1 175 7 is_stmt 1 view .LVU50
 162              	.LVL15:
 176:Drivers/CMSIS/DSP/Source/FilteringFunctions/arm_conv_fast_q31.c ****                       ((q63_t) * px++ * (*py--))) >> 32);
 163              		.loc 1 176 32 is_stmt 0 view .LVU51
 164 008a D6F80CA0 		ldr	r10, [r6, #12]
 165              		.loc 1 176 24 view .LVU52
 166 008e 4FEAEA7B 		asr	fp, r10, #31
 167              	.LVL16:
 168              		.loc 1 176 42 view .LVU53
 169 0092 51F80C2C 		ldr	r2, [r1, #-12]
 170 0096 D517     		asrs	r5, r2, #31
 171              		.loc 1 176 39 view .LVU54
 172 0098 0AFB05F5 		mul	r5, r10, r5
 173 009c 02FB0B55 		mla	r5, r2, fp, r5
 174 00a0 AAFB02A2 		umull	r10, r2, r10, r2
 175 00a4 1544     		add	r5, r5, r2
 175:Drivers/CMSIS/DSP/Source/FilteringFunctions/arm_conv_fast_q31.c ****                       ((q63_t) * px++ * (*py--))) >> 32);
 176              		.loc 1 175 11 view .LVU55
 177 00a6 2B44     		add	r3, r3, r5
 178              	.LVL17:
 177:Drivers/CMSIS/DSP/Source/FilteringFunctions/arm_conv_fast_q31.c **** 
 178:Drivers/CMSIS/DSP/Source/FilteringFunctions/arm_conv_fast_q31.c ****       /* Decrement the loop counter */
 179:Drivers/CMSIS/DSP/Source/FilteringFunctions/arm_conv_fast_q31.c ****       k--;
 179              		.loc 1 179 7 is_stmt 1 view .LVU56
 180              		.loc 1 179 8 is_stmt 0 view .LVU57
 181 00a8 013F     		subs	r7, r7, #1
 182              	.LVL18:
 176:Drivers/CMSIS/DSP/Source/FilteringFunctions/arm_conv_fast_q31.c **** 
 183              		.loc 1 176 45 view .LVU58
 184 00aa 1039     		subs	r1, r1, #16
 185              	.LVL19:
 176:Drivers/CMSIS/DSP/Source/FilteringFunctions/arm_conv_fast_q31.c **** 
 186              		.loc 1 176 36 view .LVU59
 187 00ac 1036     		adds	r6, r6, #16
 188              	.LVL20:
 189              	.L4:
 160:Drivers/CMSIS/DSP/Source/FilteringFunctions/arm_conv_fast_q31.c ****     {
 190              		.loc 1 160 14 is_stmt 1 view .LVU60
 191 00ae 002F     		cmp	r7, #0
 192 00b0 BFD1     		bne	.L5
 180:Drivers/CMSIS/DSP/Source/FilteringFunctions/arm_conv_fast_q31.c ****     }
 181:Drivers/CMSIS/DSP/Source/FilteringFunctions/arm_conv_fast_q31.c **** 
 182:Drivers/CMSIS/DSP/Source/FilteringFunctions/arm_conv_fast_q31.c ****     /* If the count is not a multiple of 4, compute any remaining MACs here.
 183:Drivers/CMSIS/DSP/Source/FilteringFunctions/arm_conv_fast_q31.c ****      ** No loop unrolling is used. */
 184:Drivers/CMSIS/DSP/Source/FilteringFunctions/arm_conv_fast_q31.c ****     k = count % 0x4U;
 193              		.loc 1 184 5 view .LVU61
 194              		.loc 1 184 7 is_stmt 0 view .LVU62
 195 00b2 0CF00302 		and	r2, ip, #3
 196              	.LVL21:
 185:Drivers/CMSIS/DSP/Source/FilteringFunctions/arm_conv_fast_q31.c **** 
 186:Drivers/CMSIS/DSP/Source/FilteringFunctions/arm_conv_fast_q31.c ****     while (k > 0U)
 197              		.loc 1 186 5 is_stmt 1 view .LVU63
 198              		.loc 1 186 11 is_stmt 0 view .LVU64
 199 00b6 0FE0     		b	.L6
 200              	.L7:
 187:Drivers/CMSIS/DSP/Source/FilteringFunctions/arm_conv_fast_q31.c ****     {
ARM GAS  /tmp/ccYf7o5c.s 			page 8


 188:Drivers/CMSIS/DSP/Source/FilteringFunctions/arm_conv_fast_q31.c ****       /* Perform the multiply-accumulate */
 189:Drivers/CMSIS/DSP/Source/FilteringFunctions/arm_conv_fast_q31.c ****       sum = (q31_t) ((((q63_t) sum << 32) +
 201              		.loc 1 189 7 is_stmt 1 view .LVU65
 202              	.LVL22:
 190:Drivers/CMSIS/DSP/Source/FilteringFunctions/arm_conv_fast_q31.c ****                       ((q63_t) * px++ * (*py--))) >> 32);
 203              		.loc 1 190 32 is_stmt 0 view .LVU66
 204 00b8 56F804AB 		ldr	r10, [r6], #4
 205              	.LVL23:
 206              		.loc 1 190 24 view .LVU67
 207 00bc 4FEAEA7B 		asr	fp, r10, #31
 208              	.LVL24:
 209              		.loc 1 190 42 view .LVU68
 210 00c0 51F80479 		ldr	r7, [r1], #-4
 211              	.LVL25:
 212              		.loc 1 190 42 view .LVU69
 213 00c4 FD17     		asrs	r5, r7, #31
 214              		.loc 1 190 39 view .LVU70
 215 00c6 0AFB05F5 		mul	r5, r10, r5
 216 00ca 07FB0B55 		mla	r5, r7, fp, r5
 217 00ce AAFB07A7 		umull	r10, r7, r10, r7
 218 00d2 3D44     		add	r5, r5, r7
 189:Drivers/CMSIS/DSP/Source/FilteringFunctions/arm_conv_fast_q31.c ****                       ((q63_t) * px++ * (*py--))) >> 32);
 219              		.loc 1 189 11 view .LVU71
 220 00d4 2B44     		add	r3, r3, r5
 221              	.LVL26:
 191:Drivers/CMSIS/DSP/Source/FilteringFunctions/arm_conv_fast_q31.c **** 
 192:Drivers/CMSIS/DSP/Source/FilteringFunctions/arm_conv_fast_q31.c ****       /* Decrement the loop counter */
 193:Drivers/CMSIS/DSP/Source/FilteringFunctions/arm_conv_fast_q31.c ****       k--;
 222              		.loc 1 193 7 is_stmt 1 view .LVU72
 223              		.loc 1 193 8 is_stmt 0 view .LVU73
 224 00d6 013A     		subs	r2, r2, #1
 225              	.LVL27:
 226              	.L6:
 186:Drivers/CMSIS/DSP/Source/FilteringFunctions/arm_conv_fast_q31.c ****     {
 227              		.loc 1 186 14 is_stmt 1 view .LVU74
 228 00d8 002A     		cmp	r2, #0
 229 00da EDD1     		bne	.L7
 194:Drivers/CMSIS/DSP/Source/FilteringFunctions/arm_conv_fast_q31.c ****     }
 195:Drivers/CMSIS/DSP/Source/FilteringFunctions/arm_conv_fast_q31.c **** 
 196:Drivers/CMSIS/DSP/Source/FilteringFunctions/arm_conv_fast_q31.c ****     /* Store the result in the accumulator in the destination buffer. */
 197:Drivers/CMSIS/DSP/Source/FilteringFunctions/arm_conv_fast_q31.c ****     *pOut++ = sum << 1;
 230              		.loc 1 197 5 view .LVU75
 231              	.LVL28:
 232              		.loc 1 197 19 is_stmt 0 view .LVU76
 233 00dc 5B00     		lsls	r3, r3, #1
 234              	.LVL29:
 235              		.loc 1 197 13 view .LVU77
 236 00de 44F8043B 		str	r3, [r4], #4
 237              	.LVL30:
 198:Drivers/CMSIS/DSP/Source/FilteringFunctions/arm_conv_fast_q31.c **** 
 199:Drivers/CMSIS/DSP/Source/FilteringFunctions/arm_conv_fast_q31.c ****     /* Update the inputA and inputB pointers for next MAC calculation */
 200:Drivers/CMSIS/DSP/Source/FilteringFunctions/arm_conv_fast_q31.c ****     py = pIn2 + count;
 238              		.loc 1 200 5 is_stmt 1 view .LVU78
 239              		.loc 1 200 8 is_stmt 0 view .LVU79
 240 00e2 0EEB8C01 		add	r1, lr, ip, lsl #2
 241              	.LVL31:
 201:Drivers/CMSIS/DSP/Source/FilteringFunctions/arm_conv_fast_q31.c ****     px = pIn1;
ARM GAS  /tmp/ccYf7o5c.s 			page 9


 242              		.loc 1 201 5 is_stmt 1 view .LVU80
 202:Drivers/CMSIS/DSP/Source/FilteringFunctions/arm_conv_fast_q31.c **** 
 203:Drivers/CMSIS/DSP/Source/FilteringFunctions/arm_conv_fast_q31.c ****     /* Increment the MAC count */
 204:Drivers/CMSIS/DSP/Source/FilteringFunctions/arm_conv_fast_q31.c ****     count++;
 243              		.loc 1 204 5 view .LVU81
 244              		.loc 1 204 10 is_stmt 0 view .LVU82
 245 00e6 0CF1010C 		add	ip, ip, #1
 246              	.LVL32:
 205:Drivers/CMSIS/DSP/Source/FilteringFunctions/arm_conv_fast_q31.c **** 
 206:Drivers/CMSIS/DSP/Source/FilteringFunctions/arm_conv_fast_q31.c ****     /* Decrement the loop counter */
 207:Drivers/CMSIS/DSP/Source/FilteringFunctions/arm_conv_fast_q31.c ****     blockSize1--;
 247              		.loc 1 207 5 is_stmt 1 view .LVU83
 248              		.loc 1 207 15 is_stmt 0 view .LVU84
 249 00ea 0138     		subs	r0, r0, #1
 250              	.LVL33:
 251              	.L3:
 150:Drivers/CMSIS/DSP/Source/FilteringFunctions/arm_conv_fast_q31.c ****   {
 252              		.loc 1 150 21 is_stmt 1 view .LVU85
 253 00ec 20B1     		cbz	r0, .L33
 153:Drivers/CMSIS/DSP/Source/FilteringFunctions/arm_conv_fast_q31.c **** 
 254              		.loc 1 153 5 view .LVU86
 255              	.LVL34:
 156:Drivers/CMSIS/DSP/Source/FilteringFunctions/arm_conv_fast_q31.c **** 
 256              		.loc 1 156 5 view .LVU87
 156:Drivers/CMSIS/DSP/Source/FilteringFunctions/arm_conv_fast_q31.c **** 
 257              		.loc 1 156 7 is_stmt 0 view .LVU88
 258 00ee 4FEA9C07 		lsr	r7, ip, #2
 259              	.LVL35:
 160:Drivers/CMSIS/DSP/Source/FilteringFunctions/arm_conv_fast_q31.c ****     {
 260              		.loc 1 160 5 is_stmt 1 view .LVU89
 160:Drivers/CMSIS/DSP/Source/FilteringFunctions/arm_conv_fast_q31.c ****     {
 261              		.loc 1 160 11 is_stmt 0 view .LVU90
 262 00f2 059E     		ldr	r6, [sp, #20]
 153:Drivers/CMSIS/DSP/Source/FilteringFunctions/arm_conv_fast_q31.c **** 
 263              		.loc 1 153 9 view .LVU91
 264 00f4 0023     		movs	r3, #0
 160:Drivers/CMSIS/DSP/Source/FilteringFunctions/arm_conv_fast_q31.c ****     {
 265              		.loc 1 160 11 view .LVU92
 266 00f6 DAE7     		b	.L4
 267              	.LVL36:
 268              	.L33:
 208:Drivers/CMSIS/DSP/Source/FilteringFunctions/arm_conv_fast_q31.c ****   }
 209:Drivers/CMSIS/DSP/Source/FilteringFunctions/arm_conv_fast_q31.c **** 
 210:Drivers/CMSIS/DSP/Source/FilteringFunctions/arm_conv_fast_q31.c ****   /* --------------------------
 211:Drivers/CMSIS/DSP/Source/FilteringFunctions/arm_conv_fast_q31.c ****    * Initializations of stage2
 212:Drivers/CMSIS/DSP/Source/FilteringFunctions/arm_conv_fast_q31.c ****    * ------------------------*/
 213:Drivers/CMSIS/DSP/Source/FilteringFunctions/arm_conv_fast_q31.c **** 
 214:Drivers/CMSIS/DSP/Source/FilteringFunctions/arm_conv_fast_q31.c ****   /* sum = x[0] * y[srcBLen-1] + x[1] * y[srcBLen-2] +...+ x[srcBLen-1] * y[0]
 215:Drivers/CMSIS/DSP/Source/FilteringFunctions/arm_conv_fast_q31.c ****    * sum = x[1] * y[srcBLen-1] + x[2] * y[srcBLen-2] +...+ x[srcBLen] * y[0]
 216:Drivers/CMSIS/DSP/Source/FilteringFunctions/arm_conv_fast_q31.c ****    * ....
 217:Drivers/CMSIS/DSP/Source/FilteringFunctions/arm_conv_fast_q31.c ****    * sum = x[srcALen-srcBLen-2] * y[srcBLen-1] + x[srcALen] * y[srcBLen-2] +...+ x[srcALen-1] * y[0
 218:Drivers/CMSIS/DSP/Source/FilteringFunctions/arm_conv_fast_q31.c ****    */
 219:Drivers/CMSIS/DSP/Source/FilteringFunctions/arm_conv_fast_q31.c **** 
 220:Drivers/CMSIS/DSP/Source/FilteringFunctions/arm_conv_fast_q31.c ****   /* Working pointer of inputA */
 221:Drivers/CMSIS/DSP/Source/FilteringFunctions/arm_conv_fast_q31.c ****   px = pIn1;
 222:Drivers/CMSIS/DSP/Source/FilteringFunctions/arm_conv_fast_q31.c **** 
 223:Drivers/CMSIS/DSP/Source/FilteringFunctions/arm_conv_fast_q31.c ****   /* Working pointer of inputB */
ARM GAS  /tmp/ccYf7o5c.s 			page 10


 224:Drivers/CMSIS/DSP/Source/FilteringFunctions/arm_conv_fast_q31.c ****   pSrc2 = pIn2 + (srcBLen - 1U);
 269              		.loc 1 224 16 view .LVU93
 270 00f8 4246     		mov	r2, r8
 221:Drivers/CMSIS/DSP/Source/FilteringFunctions/arm_conv_fast_q31.c **** 
 271              		.loc 1 221 3 is_stmt 1 view .LVU94
 272              		.loc 1 224 3 view .LVU95
 273              		.loc 1 224 16 is_stmt 0 view .LVU96
 274 00fa 6FF04043 		mvn	r3, #-1073741824
 275 00fe 0499     		ldr	r1, [sp, #16]
 276              	.LVL37:
 277              		.loc 1 224 16 view .LVU97
 278 0100 0B44     		add	r3, r3, r1
 279              		.loc 1 224 9 view .LVU98
 280 0102 0EEB8303 		add	r3, lr, r3, lsl #2
 281 0106 0393     		str	r3, [sp, #12]
 282              	.LVL38:
 225:Drivers/CMSIS/DSP/Source/FilteringFunctions/arm_conv_fast_q31.c ****   py = pSrc2;
 283              		.loc 1 225 3 is_stmt 1 view .LVU99
 226:Drivers/CMSIS/DSP/Source/FilteringFunctions/arm_conv_fast_q31.c **** 
 227:Drivers/CMSIS/DSP/Source/FilteringFunctions/arm_conv_fast_q31.c ****   /* count is index by which the pointer pIn1 to be incremented */
 228:Drivers/CMSIS/DSP/Source/FilteringFunctions/arm_conv_fast_q31.c ****   count = 0U;
 284              		.loc 1 228 3 view .LVU100
 229:Drivers/CMSIS/DSP/Source/FilteringFunctions/arm_conv_fast_q31.c **** 
 230:Drivers/CMSIS/DSP/Source/FilteringFunctions/arm_conv_fast_q31.c ****   /* -------------------
 231:Drivers/CMSIS/DSP/Source/FilteringFunctions/arm_conv_fast_q31.c ****    * Stage2 process
 232:Drivers/CMSIS/DSP/Source/FilteringFunctions/arm_conv_fast_q31.c ****    * ------------------*/
 233:Drivers/CMSIS/DSP/Source/FilteringFunctions/arm_conv_fast_q31.c **** 
 234:Drivers/CMSIS/DSP/Source/FilteringFunctions/arm_conv_fast_q31.c ****   /* Stage2 depends on srcBLen as in this stage srcBLen number of MACS are performed.
 235:Drivers/CMSIS/DSP/Source/FilteringFunctions/arm_conv_fast_q31.c ****    * So, to loop unroll over blockSize2,
 236:Drivers/CMSIS/DSP/Source/FilteringFunctions/arm_conv_fast_q31.c ****    * srcBLen should be greater than or equal to 4 */
 237:Drivers/CMSIS/DSP/Source/FilteringFunctions/arm_conv_fast_q31.c ****   if (srcBLen >= 4U)
 285              		.loc 1 237 3 view .LVU101
 286              		.loc 1 237 6 is_stmt 0 view .LVU102
 287 0108 0329     		cmp	r1, #3
 288 010a 40F2CB81 		bls	.L30
 289              	.LVL39:
 238:Drivers/CMSIS/DSP/Source/FilteringFunctions/arm_conv_fast_q31.c ****   {
 239:Drivers/CMSIS/DSP/Source/FilteringFunctions/arm_conv_fast_q31.c ****     /* Loop unroll over blockSize2, by 4 */
 240:Drivers/CMSIS/DSP/Source/FilteringFunctions/arm_conv_fast_q31.c ****     blkCnt = blockSize2 >> 2U;
 290              		.loc 1 240 5 is_stmt 1 view .LVU103
 291              		.loc 1 240 12 is_stmt 0 view .LVU104
 292 010e 4FEA990A 		lsr	r10, r9, #2
 293              	.LVL40:
 241:Drivers/CMSIS/DSP/Source/FilteringFunctions/arm_conv_fast_q31.c **** 
 242:Drivers/CMSIS/DSP/Source/FilteringFunctions/arm_conv_fast_q31.c ****     while (blkCnt > 0U)
 294              		.loc 1 242 5 is_stmt 1 view .LVU105
 221:Drivers/CMSIS/DSP/Source/FilteringFunctions/arm_conv_fast_q31.c **** 
 295              		.loc 1 221 6 is_stmt 0 view .LVU106
 296 0112 0599     		ldr	r1, [sp, #20]
 297 0114 0790     		str	r0, [sp, #28]
 298 0116 CDF818A0 		str	r10, [sp, #24]
 299 011a CDF82080 		str	r8, [sp, #32]
 300 011e CDF82490 		str	r9, [sp, #36]
 301 0122 2646     		mov	r6, r4
 302              		.loc 1 242 11 view .LVU107
 303 0124 4CE0     		b	.L10
 304              	.LVL41:
ARM GAS  /tmp/ccYf7o5c.s 			page 11


 305              	.L13:
 243:Drivers/CMSIS/DSP/Source/FilteringFunctions/arm_conv_fast_q31.c ****     {
 244:Drivers/CMSIS/DSP/Source/FilteringFunctions/arm_conv_fast_q31.c ****       /* Set all accumulators to zero */
 245:Drivers/CMSIS/DSP/Source/FilteringFunctions/arm_conv_fast_q31.c ****       acc0 = 0;
 246:Drivers/CMSIS/DSP/Source/FilteringFunctions/arm_conv_fast_q31.c ****       acc1 = 0;
 247:Drivers/CMSIS/DSP/Source/FilteringFunctions/arm_conv_fast_q31.c ****       acc2 = 0;
 248:Drivers/CMSIS/DSP/Source/FilteringFunctions/arm_conv_fast_q31.c ****       acc3 = 0;
 249:Drivers/CMSIS/DSP/Source/FilteringFunctions/arm_conv_fast_q31.c **** 
 250:Drivers/CMSIS/DSP/Source/FilteringFunctions/arm_conv_fast_q31.c ****       /* read x[0], x[1], x[2] samples */
 251:Drivers/CMSIS/DSP/Source/FilteringFunctions/arm_conv_fast_q31.c ****       x0 = *(px++);
 252:Drivers/CMSIS/DSP/Source/FilteringFunctions/arm_conv_fast_q31.c ****       x1 = *(px++);
 253:Drivers/CMSIS/DSP/Source/FilteringFunctions/arm_conv_fast_q31.c ****       x2 = *(px++);
 254:Drivers/CMSIS/DSP/Source/FilteringFunctions/arm_conv_fast_q31.c **** 
 255:Drivers/CMSIS/DSP/Source/FilteringFunctions/arm_conv_fast_q31.c ****       /* Apply loop unrolling and compute 4 MACs simultaneously. */
 256:Drivers/CMSIS/DSP/Source/FilteringFunctions/arm_conv_fast_q31.c ****       k = srcBLen >> 2U;
 257:Drivers/CMSIS/DSP/Source/FilteringFunctions/arm_conv_fast_q31.c **** 
 258:Drivers/CMSIS/DSP/Source/FilteringFunctions/arm_conv_fast_q31.c ****       /* First part of the processing with loop unrolling.  Compute 4 MACs at a time.
 259:Drivers/CMSIS/DSP/Source/FilteringFunctions/arm_conv_fast_q31.c ****        ** a second loop below computes MACs for the remaining 1 to 3 samples. */
 260:Drivers/CMSIS/DSP/Source/FilteringFunctions/arm_conv_fast_q31.c ****       do
 261:Drivers/CMSIS/DSP/Source/FilteringFunctions/arm_conv_fast_q31.c ****       {
 262:Drivers/CMSIS/DSP/Source/FilteringFunctions/arm_conv_fast_q31.c ****         /* Read y[srcBLen - 1] sample */
 263:Drivers/CMSIS/DSP/Source/FilteringFunctions/arm_conv_fast_q31.c ****         c0 = *(py--);
 264:Drivers/CMSIS/DSP/Source/FilteringFunctions/arm_conv_fast_q31.c **** 
 265:Drivers/CMSIS/DSP/Source/FilteringFunctions/arm_conv_fast_q31.c ****         /* Read x[3] sample */
 266:Drivers/CMSIS/DSP/Source/FilteringFunctions/arm_conv_fast_q31.c ****         x3 = *(px++);
 267:Drivers/CMSIS/DSP/Source/FilteringFunctions/arm_conv_fast_q31.c **** 
 268:Drivers/CMSIS/DSP/Source/FilteringFunctions/arm_conv_fast_q31.c ****         /* Perform the multiply-accumulates */
 269:Drivers/CMSIS/DSP/Source/FilteringFunctions/arm_conv_fast_q31.c ****         /* acc0 +=  x[0] * y[srcBLen - 1] */
 270:Drivers/CMSIS/DSP/Source/FilteringFunctions/arm_conv_fast_q31.c ****         acc0 = (q31_t) ((((q63_t) acc0 << 32) + ((q63_t) x0 * c0)) >> 32);
 271:Drivers/CMSIS/DSP/Source/FilteringFunctions/arm_conv_fast_q31.c **** 
 272:Drivers/CMSIS/DSP/Source/FilteringFunctions/arm_conv_fast_q31.c ****         /* acc1 +=  x[1] * y[srcBLen - 1] */
 273:Drivers/CMSIS/DSP/Source/FilteringFunctions/arm_conv_fast_q31.c ****         acc1 = (q31_t) ((((q63_t) acc1 << 32) + ((q63_t) x1 * c0)) >> 32);
 274:Drivers/CMSIS/DSP/Source/FilteringFunctions/arm_conv_fast_q31.c **** 
 275:Drivers/CMSIS/DSP/Source/FilteringFunctions/arm_conv_fast_q31.c ****         /* acc2 +=  x[2] * y[srcBLen - 1] */
 276:Drivers/CMSIS/DSP/Source/FilteringFunctions/arm_conv_fast_q31.c ****         acc2 = (q31_t) ((((q63_t) acc2 << 32) + ((q63_t) x2 * c0)) >> 32);
 277:Drivers/CMSIS/DSP/Source/FilteringFunctions/arm_conv_fast_q31.c **** 
 278:Drivers/CMSIS/DSP/Source/FilteringFunctions/arm_conv_fast_q31.c ****         /* acc3 +=  x[3] * y[srcBLen - 1] */
 279:Drivers/CMSIS/DSP/Source/FilteringFunctions/arm_conv_fast_q31.c ****         acc3 = (q31_t) ((((q63_t) acc3 << 32) + ((q63_t) x3 * c0)) >> 32);
 280:Drivers/CMSIS/DSP/Source/FilteringFunctions/arm_conv_fast_q31.c **** 
 281:Drivers/CMSIS/DSP/Source/FilteringFunctions/arm_conv_fast_q31.c ****         /* Read y[srcBLen - 2] sample */
 282:Drivers/CMSIS/DSP/Source/FilteringFunctions/arm_conv_fast_q31.c ****         c0 = *(py--);
 283:Drivers/CMSIS/DSP/Source/FilteringFunctions/arm_conv_fast_q31.c **** 
 284:Drivers/CMSIS/DSP/Source/FilteringFunctions/arm_conv_fast_q31.c ****         /* Read x[4] sample */
 285:Drivers/CMSIS/DSP/Source/FilteringFunctions/arm_conv_fast_q31.c ****         x0 = *(px++);
 286:Drivers/CMSIS/DSP/Source/FilteringFunctions/arm_conv_fast_q31.c **** 
 287:Drivers/CMSIS/DSP/Source/FilteringFunctions/arm_conv_fast_q31.c ****         /* Perform the multiply-accumulate */
 288:Drivers/CMSIS/DSP/Source/FilteringFunctions/arm_conv_fast_q31.c ****         /* acc0 +=  x[1] * y[srcBLen - 2] */
 289:Drivers/CMSIS/DSP/Source/FilteringFunctions/arm_conv_fast_q31.c ****         acc0 = (q31_t) ((((q63_t) acc0 << 32) + ((q63_t) x1 * c0)) >> 32);
 290:Drivers/CMSIS/DSP/Source/FilteringFunctions/arm_conv_fast_q31.c ****         /* acc1 +=  x[2] * y[srcBLen - 2] */
 291:Drivers/CMSIS/DSP/Source/FilteringFunctions/arm_conv_fast_q31.c ****         acc1 = (q31_t) ((((q63_t) acc1 << 32) + ((q63_t) x2 * c0)) >> 32);
 292:Drivers/CMSIS/DSP/Source/FilteringFunctions/arm_conv_fast_q31.c ****         /* acc2 +=  x[3] * y[srcBLen - 2] */
 293:Drivers/CMSIS/DSP/Source/FilteringFunctions/arm_conv_fast_q31.c ****         acc2 = (q31_t) ((((q63_t) acc2 << 32) + ((q63_t) x3 * c0)) >> 32);
 294:Drivers/CMSIS/DSP/Source/FilteringFunctions/arm_conv_fast_q31.c ****         /* acc3 +=  x[4] * y[srcBLen - 2] */
 295:Drivers/CMSIS/DSP/Source/FilteringFunctions/arm_conv_fast_q31.c ****         acc3 = (q31_t) ((((q63_t) acc3 << 32) + ((q63_t) x0 * c0)) >> 32);
 296:Drivers/CMSIS/DSP/Source/FilteringFunctions/arm_conv_fast_q31.c **** 
 297:Drivers/CMSIS/DSP/Source/FilteringFunctions/arm_conv_fast_q31.c ****         /* Read y[srcBLen - 3] sample */
 298:Drivers/CMSIS/DSP/Source/FilteringFunctions/arm_conv_fast_q31.c ****         c0 = *(py--);
ARM GAS  /tmp/ccYf7o5c.s 			page 12


 299:Drivers/CMSIS/DSP/Source/FilteringFunctions/arm_conv_fast_q31.c **** 
 300:Drivers/CMSIS/DSP/Source/FilteringFunctions/arm_conv_fast_q31.c ****         /* Read x[5] sample */
 301:Drivers/CMSIS/DSP/Source/FilteringFunctions/arm_conv_fast_q31.c ****         x1 = *(px++);
 302:Drivers/CMSIS/DSP/Source/FilteringFunctions/arm_conv_fast_q31.c **** 
 303:Drivers/CMSIS/DSP/Source/FilteringFunctions/arm_conv_fast_q31.c ****         /* Perform the multiply-accumulates */
 304:Drivers/CMSIS/DSP/Source/FilteringFunctions/arm_conv_fast_q31.c ****         /* acc0 +=  x[2] * y[srcBLen - 3] */
 305:Drivers/CMSIS/DSP/Source/FilteringFunctions/arm_conv_fast_q31.c ****         acc0 = (q31_t) ((((q63_t) acc0 << 32) + ((q63_t) x2 * c0)) >> 32);
 306:Drivers/CMSIS/DSP/Source/FilteringFunctions/arm_conv_fast_q31.c ****         /* acc1 +=  x[3] * y[srcBLen - 3] */
 307:Drivers/CMSIS/DSP/Source/FilteringFunctions/arm_conv_fast_q31.c ****         acc1 = (q31_t) ((((q63_t) acc1 << 32) + ((q63_t) x3 * c0)) >> 32);
 308:Drivers/CMSIS/DSP/Source/FilteringFunctions/arm_conv_fast_q31.c ****         /* acc2 +=  x[4] * y[srcBLen - 3] */
 309:Drivers/CMSIS/DSP/Source/FilteringFunctions/arm_conv_fast_q31.c ****         acc2 = (q31_t) ((((q63_t) acc2 << 32) + ((q63_t) x0 * c0)) >> 32);
 310:Drivers/CMSIS/DSP/Source/FilteringFunctions/arm_conv_fast_q31.c ****         /* acc3 +=  x[5] * y[srcBLen - 3] */
 311:Drivers/CMSIS/DSP/Source/FilteringFunctions/arm_conv_fast_q31.c ****         acc3 = (q31_t) ((((q63_t) acc3 << 32) + ((q63_t) x1 * c0)) >> 32);
 312:Drivers/CMSIS/DSP/Source/FilteringFunctions/arm_conv_fast_q31.c **** 
 313:Drivers/CMSIS/DSP/Source/FilteringFunctions/arm_conv_fast_q31.c ****         /* Read y[srcBLen - 4] sample */
 314:Drivers/CMSIS/DSP/Source/FilteringFunctions/arm_conv_fast_q31.c ****         c0 = *(py--);
 315:Drivers/CMSIS/DSP/Source/FilteringFunctions/arm_conv_fast_q31.c **** 
 316:Drivers/CMSIS/DSP/Source/FilteringFunctions/arm_conv_fast_q31.c ****         /* Read x[6] sample */
 317:Drivers/CMSIS/DSP/Source/FilteringFunctions/arm_conv_fast_q31.c ****         x2 = *(px++);
 318:Drivers/CMSIS/DSP/Source/FilteringFunctions/arm_conv_fast_q31.c **** 
 319:Drivers/CMSIS/DSP/Source/FilteringFunctions/arm_conv_fast_q31.c ****         /* Perform the multiply-accumulates */
 320:Drivers/CMSIS/DSP/Source/FilteringFunctions/arm_conv_fast_q31.c ****         /* acc0 +=  x[3] * y[srcBLen - 4] */
 321:Drivers/CMSIS/DSP/Source/FilteringFunctions/arm_conv_fast_q31.c ****         acc0 = (q31_t) ((((q63_t) acc0 << 32) + ((q63_t) x3 * c0)) >> 32);
 322:Drivers/CMSIS/DSP/Source/FilteringFunctions/arm_conv_fast_q31.c ****         /* acc1 +=  x[4] * y[srcBLen - 4] */
 323:Drivers/CMSIS/DSP/Source/FilteringFunctions/arm_conv_fast_q31.c ****         acc1 = (q31_t) ((((q63_t) acc1 << 32) + ((q63_t) x0 * c0)) >> 32);
 324:Drivers/CMSIS/DSP/Source/FilteringFunctions/arm_conv_fast_q31.c ****         /* acc2 +=  x[5] * y[srcBLen - 4] */
 325:Drivers/CMSIS/DSP/Source/FilteringFunctions/arm_conv_fast_q31.c ****         acc2 = (q31_t) ((((q63_t) acc2 << 32) + ((q63_t) x1 * c0)) >> 32);
 326:Drivers/CMSIS/DSP/Source/FilteringFunctions/arm_conv_fast_q31.c ****         /* acc3 +=  x[6] * y[srcBLen - 4] */
 327:Drivers/CMSIS/DSP/Source/FilteringFunctions/arm_conv_fast_q31.c ****         acc3 = (q31_t) ((((q63_t) acc3 << 32) + ((q63_t) x2 * c0)) >> 32);
 328:Drivers/CMSIS/DSP/Source/FilteringFunctions/arm_conv_fast_q31.c **** 
 329:Drivers/CMSIS/DSP/Source/FilteringFunctions/arm_conv_fast_q31.c **** 
 330:Drivers/CMSIS/DSP/Source/FilteringFunctions/arm_conv_fast_q31.c ****       } while (--k);
 331:Drivers/CMSIS/DSP/Source/FilteringFunctions/arm_conv_fast_q31.c **** 
 332:Drivers/CMSIS/DSP/Source/FilteringFunctions/arm_conv_fast_q31.c ****       /* If the srcBLen is not a multiple of 4, compute any remaining MACs here.
 333:Drivers/CMSIS/DSP/Source/FilteringFunctions/arm_conv_fast_q31.c ****        ** No loop unrolling is used. */
 334:Drivers/CMSIS/DSP/Source/FilteringFunctions/arm_conv_fast_q31.c ****       k = srcBLen % 0x4U;
 335:Drivers/CMSIS/DSP/Source/FilteringFunctions/arm_conv_fast_q31.c **** 
 336:Drivers/CMSIS/DSP/Source/FilteringFunctions/arm_conv_fast_q31.c ****       while (k > 0U)
 337:Drivers/CMSIS/DSP/Source/FilteringFunctions/arm_conv_fast_q31.c ****       {
 338:Drivers/CMSIS/DSP/Source/FilteringFunctions/arm_conv_fast_q31.c ****         /* Read y[srcBLen - 5] sample */
 339:Drivers/CMSIS/DSP/Source/FilteringFunctions/arm_conv_fast_q31.c ****         c0 = *(py--);
 306              		.loc 1 339 9 is_stmt 1 view .LVU108
 307              		.loc 1 339 18 is_stmt 0 view .LVU109
 308 0126 A146     		mov	r9, r4
 309              	.LVL42:
 310              		.loc 1 339 12 view .LVU110
 311 0128 59F80449 		ldr	r4, [r9], #-4
 312              	.LVL43:
 340:Drivers/CMSIS/DSP/Source/FilteringFunctions/arm_conv_fast_q31.c **** 
 341:Drivers/CMSIS/DSP/Source/FilteringFunctions/arm_conv_fast_q31.c ****         /* Read x[7] sample */
 342:Drivers/CMSIS/DSP/Source/FilteringFunctions/arm_conv_fast_q31.c ****         x3 = *(px++);
 313              		.loc 1 342 9 is_stmt 1 view .LVU111
 314              		.loc 1 342 18 is_stmt 0 view .LVU112
 315 012c 2F46     		mov	r7, r5
 316              	.LVL44:
 317              		.loc 1 342 12 view .LVU113
 318 012e 57F8045B 		ldr	r5, [r7], #4
ARM GAS  /tmp/ccYf7o5c.s 			page 13


 319              	.LVL45:
 343:Drivers/CMSIS/DSP/Source/FilteringFunctions/arm_conv_fast_q31.c **** 
 344:Drivers/CMSIS/DSP/Source/FilteringFunctions/arm_conv_fast_q31.c ****         /* Perform the multiply-accumulates */
 345:Drivers/CMSIS/DSP/Source/FilteringFunctions/arm_conv_fast_q31.c ****         /* acc0 +=  x[4] * y[srcBLen - 5] */
 346:Drivers/CMSIS/DSP/Source/FilteringFunctions/arm_conv_fast_q31.c ****         acc0 = (q31_t) ((((q63_t) acc0 << 32) + ((q63_t) x0 * c0)) >> 32);
 320              		.loc 1 346 9 is_stmt 1 view .LVU114
 321              		.loc 1 346 50 is_stmt 0 view .LVU115
 322 0132 4FEAE27B 		asr	fp, r2, #31
 323              		.loc 1 346 61 view .LVU116
 324 0136 E617     		asrs	r6, r4, #31
 325 0138 02FB06FA 		mul	r10, r2, r6
 326 013c 04FB0BAA 		mla	r10, r4, fp, r10
 327 0140 A2FB042B 		umull	r2, fp, r2, r4
 328              	.LVL46:
 329              		.loc 1 346 61 view .LVU117
 330 0144 DA44     		add	r10, r10, fp
 331              		.loc 1 346 14 view .LVU118
 332 0146 029A     		ldr	r2, [sp, #8]
 333 0148 5244     		add	r2, r2, r10
 334 014a 0292     		str	r2, [sp, #8]
 335              	.LVL47:
 347:Drivers/CMSIS/DSP/Source/FilteringFunctions/arm_conv_fast_q31.c ****         /* acc1 +=  x[5] * y[srcBLen - 5] */
 348:Drivers/CMSIS/DSP/Source/FilteringFunctions/arm_conv_fast_q31.c ****         acc1 = (q31_t) ((((q63_t) acc1 << 32) + ((q63_t) x1 * c0)) >> 32);
 336              		.loc 1 348 9 is_stmt 1 view .LVU119
 337              		.loc 1 348 50 is_stmt 0 view .LVU120
 338 014c C217     		asrs	r2, r0, #31
 339              	.LVL48:
 340              		.loc 1 348 61 view .LVU121
 341 014e 04FB02F2 		mul	r2, r4, r2
 342 0152 00FB0622 		mla	r2, r0, r6, r2
 343 0156 A4FB00BA 		umull	fp, r10, r4, r0
 344 015a 5244     		add	r2, r2, r10
 345              		.loc 1 348 14 view .LVU122
 346 015c 9444     		add	ip, ip, r2
 347              	.LVL49:
 349:Drivers/CMSIS/DSP/Source/FilteringFunctions/arm_conv_fast_q31.c ****         /* acc2 +=  x[6] * y[srcBLen - 5] */
 350:Drivers/CMSIS/DSP/Source/FilteringFunctions/arm_conv_fast_q31.c ****         acc2 = (q31_t) ((((q63_t) acc2 << 32) + ((q63_t) x2 * c0)) >> 32);
 348              		.loc 1 350 9 is_stmt 1 view .LVU123
 349              		.loc 1 350 50 is_stmt 0 view .LVU124
 350 015e CA17     		asrs	r2, r1, #31
 351              		.loc 1 350 61 view .LVU125
 352 0160 04FB02F2 		mul	r2, r4, r2
 353 0164 01FB0622 		mla	r2, r1, r6, r2
 354 0168 A4FB01BA 		umull	fp, r10, r4, r1
 355 016c 5244     		add	r2, r2, r10
 356              		.loc 1 350 14 view .LVU126
 357 016e 9044     		add	r8, r8, r2
 358              	.LVL50:
 351:Drivers/CMSIS/DSP/Source/FilteringFunctions/arm_conv_fast_q31.c ****         /* acc3 +=  x[7] * y[srcBLen - 5] */
 352:Drivers/CMSIS/DSP/Source/FilteringFunctions/arm_conv_fast_q31.c ****         acc3 = (q31_t) ((((q63_t) acc3 << 32) + ((q63_t) x3 * c0)) >> 32);
 359              		.loc 1 352 9 is_stmt 1 view .LVU127
 360              		.loc 1 352 50 is_stmt 0 view .LVU128
 361 0170 EA17     		asrs	r2, r5, #31
 362              		.loc 1 352 61 view .LVU129
 363 0172 04FB02F2 		mul	r2, r4, r2
 364 0176 05FB0622 		mla	r2, r5, r6, r2
 365 017a A4FB0546 		umull	r4, r6, r4, r5
ARM GAS  /tmp/ccYf7o5c.s 			page 14


 366              	.LVL51:
 367              		.loc 1 352 61 view .LVU130
 368 017e 3244     		add	r2, r2, r6
 369              		.loc 1 352 14 view .LVU131
 370 0180 9644     		add	lr, lr, r2
 371              	.LVL52:
 353:Drivers/CMSIS/DSP/Source/FilteringFunctions/arm_conv_fast_q31.c **** 
 354:Drivers/CMSIS/DSP/Source/FilteringFunctions/arm_conv_fast_q31.c ****         /* Reuse the present samples for the next MAC */
 355:Drivers/CMSIS/DSP/Source/FilteringFunctions/arm_conv_fast_q31.c ****         x0 = x1;
 372              		.loc 1 355 9 is_stmt 1 view .LVU132
 356:Drivers/CMSIS/DSP/Source/FilteringFunctions/arm_conv_fast_q31.c ****         x1 = x2;
 373              		.loc 1 356 9 view .LVU133
 357:Drivers/CMSIS/DSP/Source/FilteringFunctions/arm_conv_fast_q31.c ****         x2 = x3;
 374              		.loc 1 357 9 view .LVU134
 358:Drivers/CMSIS/DSP/Source/FilteringFunctions/arm_conv_fast_q31.c **** 
 359:Drivers/CMSIS/DSP/Source/FilteringFunctions/arm_conv_fast_q31.c ****         /* Decrement the loop counter */
 360:Drivers/CMSIS/DSP/Source/FilteringFunctions/arm_conv_fast_q31.c ****         k--;
 375              		.loc 1 360 9 view .LVU135
 376              		.loc 1 360 10 is_stmt 0 view .LVU136
 377 0182 013B     		subs	r3, r3, #1
 378              	.LVL53:
 355:Drivers/CMSIS/DSP/Source/FilteringFunctions/arm_conv_fast_q31.c ****         x1 = x2;
 379              		.loc 1 355 12 view .LVU137
 380 0184 0246     		mov	r2, r0
 356:Drivers/CMSIS/DSP/Source/FilteringFunctions/arm_conv_fast_q31.c ****         x2 = x3;
 381              		.loc 1 356 12 view .LVU138
 382 0186 0846     		mov	r0, r1
 383              	.LVL54:
 357:Drivers/CMSIS/DSP/Source/FilteringFunctions/arm_conv_fast_q31.c **** 
 384              		.loc 1 357 12 view .LVU139
 385 0188 2946     		mov	r1, r5
 386              	.LVL55:
 339:Drivers/CMSIS/DSP/Source/FilteringFunctions/arm_conv_fast_q31.c **** 
 387              		.loc 1 339 18 view .LVU140
 388 018a 4C46     		mov	r4, r9
 342:Drivers/CMSIS/DSP/Source/FilteringFunctions/arm_conv_fast_q31.c **** 
 389              		.loc 1 342 18 view .LVU141
 390 018c 3D46     		mov	r5, r7
 391              	.LVL56:
 392              	.L12:
 336:Drivers/CMSIS/DSP/Source/FilteringFunctions/arm_conv_fast_q31.c ****       {
 393              		.loc 1 336 16 is_stmt 1 view .LVU142
 394 018e 002B     		cmp	r3, #0
 395 0190 C9D1     		bne	.L13
 361:Drivers/CMSIS/DSP/Source/FilteringFunctions/arm_conv_fast_q31.c ****       }
 362:Drivers/CMSIS/DSP/Source/FilteringFunctions/arm_conv_fast_q31.c **** 
 363:Drivers/CMSIS/DSP/Source/FilteringFunctions/arm_conv_fast_q31.c ****       /* Store the results in the accumulators in the destination buffer. */
 364:Drivers/CMSIS/DSP/Source/FilteringFunctions/arm_conv_fast_q31.c ****       *pOut++ = (q31_t) (acc0 << 1);
 396              		.loc 1 364 17 is_stmt 0 view .LVU143
 397 0192 6346     		mov	r3, ip
 398              	.LVL57:
 399              		.loc 1 364 17 view .LVU144
 400 0194 149E     		ldr	r6, [sp, #80]
 401              		.loc 1 364 7 is_stmt 1 view .LVU145
 402              	.LVL58:
 403              		.loc 1 364 17 is_stmt 0 view .LVU146
 404 0196 029A     		ldr	r2, [sp, #8]
ARM GAS  /tmp/ccYf7o5c.s 			page 15


 405              	.LVL59:
 406              		.loc 1 364 17 view .LVU147
 407 0198 5200     		lsls	r2, r2, #1
 408              		.loc 1 364 15 view .LVU148
 409 019a 3260     		str	r2, [r6]
 365:Drivers/CMSIS/DSP/Source/FilteringFunctions/arm_conv_fast_q31.c ****       *pOut++ = (q31_t) (acc1 << 1);
 410              		.loc 1 365 7 is_stmt 1 view .LVU149
 411              	.LVL60:
 412              		.loc 1 365 17 is_stmt 0 view .LVU150
 413 019c 5B00     		lsls	r3, r3, #1
 414              		.loc 1 365 15 view .LVU151
 415 019e 7360     		str	r3, [r6, #4]
 366:Drivers/CMSIS/DSP/Source/FilteringFunctions/arm_conv_fast_q31.c ****       *pOut++ = (q31_t) (acc2 << 1);
 416              		.loc 1 366 7 is_stmt 1 view .LVU152
 417              	.LVL61:
 418              		.loc 1 366 17 is_stmt 0 view .LVU153
 419 01a0 4FEA4803 		lsl	r3, r8, #1
 420              		.loc 1 366 15 view .LVU154
 421 01a4 B360     		str	r3, [r6, #8]
 367:Drivers/CMSIS/DSP/Source/FilteringFunctions/arm_conv_fast_q31.c ****       *pOut++ = (q31_t) (acc3 << 1);
 422              		.loc 1 367 7 is_stmt 1 view .LVU155
 423              	.LVL62:
 424              		.loc 1 367 17 is_stmt 0 view .LVU156
 425 01a6 4FEA4E03 		lsl	r3, lr, #1
 426              		.loc 1 367 15 view .LVU157
 427 01aa F360     		str	r3, [r6, #12]
 368:Drivers/CMSIS/DSP/Source/FilteringFunctions/arm_conv_fast_q31.c **** 
 369:Drivers/CMSIS/DSP/Source/FilteringFunctions/arm_conv_fast_q31.c ****       /* Increment the pointer pIn1 index, count by 4 */
 370:Drivers/CMSIS/DSP/Source/FilteringFunctions/arm_conv_fast_q31.c ****       count += 4U;
 428              		.loc 1 370 7 is_stmt 1 view .LVU158
 429              		.loc 1 370 13 is_stmt 0 view .LVU159
 430 01ac 079B     		ldr	r3, [sp, #28]
 431 01ae 0433     		adds	r3, r3, #4
 432 01b0 0793     		str	r3, [sp, #28]
 433              	.LVL63:
 371:Drivers/CMSIS/DSP/Source/FilteringFunctions/arm_conv_fast_q31.c **** 
 372:Drivers/CMSIS/DSP/Source/FilteringFunctions/arm_conv_fast_q31.c ****       /* Update the inputA and inputB pointers for next MAC calculation */
 373:Drivers/CMSIS/DSP/Source/FilteringFunctions/arm_conv_fast_q31.c ****       px = pIn1 + count;
 434              		.loc 1 373 7 is_stmt 1 view .LVU160
 435              		.loc 1 373 10 is_stmt 0 view .LVU161
 436 01b2 059A     		ldr	r2, [sp, #20]
 437 01b4 02EB8301 		add	r1, r2, r3, lsl #2
 438              	.LVL64:
 374:Drivers/CMSIS/DSP/Source/FilteringFunctions/arm_conv_fast_q31.c ****       py = pSrc2;
 439              		.loc 1 374 7 is_stmt 1 view .LVU162
 375:Drivers/CMSIS/DSP/Source/FilteringFunctions/arm_conv_fast_q31.c **** 
 376:Drivers/CMSIS/DSP/Source/FilteringFunctions/arm_conv_fast_q31.c ****       /* Decrement the loop counter */
 377:Drivers/CMSIS/DSP/Source/FilteringFunctions/arm_conv_fast_q31.c ****       blkCnt--;
 440              		.loc 1 377 7 view .LVU163
 441              		.loc 1 377 13 is_stmt 0 view .LVU164
 442 01b8 069B     		ldr	r3, [sp, #24]
 443              	.LVL65:
 444              		.loc 1 377 13 view .LVU165
 445 01ba 013B     		subs	r3, r3, #1
 446 01bc 0693     		str	r3, [sp, #24]
 447              	.LVL66:
 367:Drivers/CMSIS/DSP/Source/FilteringFunctions/arm_conv_fast_q31.c **** 
ARM GAS  /tmp/ccYf7o5c.s 			page 16


 448              		.loc 1 367 12 view .LVU166
 449 01be 1036     		adds	r6, r6, #16
 450              	.LVL67:
 451              	.L10:
 242:Drivers/CMSIS/DSP/Source/FilteringFunctions/arm_conv_fast_q31.c ****     {
 452              		.loc 1 242 19 is_stmt 1 view .LVU167
 453 01c0 069B     		ldr	r3, [sp, #24]
 454 01c2 002B     		cmp	r3, #0
 455 01c4 00F0CF80 		beq	.L34
 245:Drivers/CMSIS/DSP/Source/FilteringFunctions/arm_conv_fast_q31.c ****       acc1 = 0;
 456              		.loc 1 245 7 view .LVU168
 457              	.LVL68:
 246:Drivers/CMSIS/DSP/Source/FilteringFunctions/arm_conv_fast_q31.c ****       acc2 = 0;
 458              		.loc 1 246 7 view .LVU169
 247:Drivers/CMSIS/DSP/Source/FilteringFunctions/arm_conv_fast_q31.c ****       acc3 = 0;
 459              		.loc 1 247 7 view .LVU170
 248:Drivers/CMSIS/DSP/Source/FilteringFunctions/arm_conv_fast_q31.c **** 
 460              		.loc 1 248 7 view .LVU171
 251:Drivers/CMSIS/DSP/Source/FilteringFunctions/arm_conv_fast_q31.c ****       x1 = *(px++);
 461              		.loc 1 251 7 view .LVU172
 251:Drivers/CMSIS/DSP/Source/FilteringFunctions/arm_conv_fast_q31.c ****       x1 = *(px++);
 462              		.loc 1 251 10 is_stmt 0 view .LVU173
 463 01c8 0A68     		ldr	r2, [r1]
 464              	.LVL69:
 252:Drivers/CMSIS/DSP/Source/FilteringFunctions/arm_conv_fast_q31.c ****       x2 = *(px++);
 465              		.loc 1 252 7 is_stmt 1 view .LVU174
 252:Drivers/CMSIS/DSP/Source/FilteringFunctions/arm_conv_fast_q31.c ****       x2 = *(px++);
 466              		.loc 1 252 10 is_stmt 0 view .LVU175
 467 01ca 4868     		ldr	r0, [r1, #4]
 468              	.LVL70:
 253:Drivers/CMSIS/DSP/Source/FilteringFunctions/arm_conv_fast_q31.c **** 
 469              		.loc 1 253 7 is_stmt 1 view .LVU176
 253:Drivers/CMSIS/DSP/Source/FilteringFunctions/arm_conv_fast_q31.c **** 
 470              		.loc 1 253 16 is_stmt 0 view .LVU177
 471 01cc 01F10C03 		add	r3, r1, #12
 472 01d0 0093     		str	r3, [sp]
 473              	.LVL71:
 253:Drivers/CMSIS/DSP/Source/FilteringFunctions/arm_conv_fast_q31.c **** 
 474              		.loc 1 253 10 view .LVU178
 475 01d2 8968     		ldr	r1, [r1, #8]
 476              	.LVL72:
 256:Drivers/CMSIS/DSP/Source/FilteringFunctions/arm_conv_fast_q31.c **** 
 477              		.loc 1 256 7 is_stmt 1 view .LVU179
 256:Drivers/CMSIS/DSP/Source/FilteringFunctions/arm_conv_fast_q31.c **** 
 478              		.loc 1 256 9 is_stmt 0 view .LVU180
 479 01d4 049B     		ldr	r3, [sp, #16]
 480              	.LVL73:
 256:Drivers/CMSIS/DSP/Source/FilteringFunctions/arm_conv_fast_q31.c **** 
 481              		.loc 1 256 9 view .LVU181
 482 01d6 9B08     		lsrs	r3, r3, #2
 483 01d8 0293     		str	r3, [sp, #8]
 484              	.LVL74:
 256:Drivers/CMSIS/DSP/Source/FilteringFunctions/arm_conv_fast_q31.c **** 
 485              		.loc 1 256 9 view .LVU182
 486 01da 039B     		ldr	r3, [sp, #12]
 487              	.LVL75:
 256:Drivers/CMSIS/DSP/Source/FilteringFunctions/arm_conv_fast_q31.c **** 
ARM GAS  /tmp/ccYf7o5c.s 			page 17


 488              		.loc 1 256 9 view .LVU183
 489 01dc 0193     		str	r3, [sp, #4]
 248:Drivers/CMSIS/DSP/Source/FilteringFunctions/arm_conv_fast_q31.c **** 
 490              		.loc 1 248 12 view .LVU184
 491 01de 4FF0000E 		mov	lr, #0
 247:Drivers/CMSIS/DSP/Source/FilteringFunctions/arm_conv_fast_q31.c ****       acc3 = 0;
 492              		.loc 1 247 12 view .LVU185
 493 01e2 F046     		mov	r8, lr
 246:Drivers/CMSIS/DSP/Source/FilteringFunctions/arm_conv_fast_q31.c ****       acc2 = 0;
 494              		.loc 1 246 12 view .LVU186
 495 01e4 7346     		mov	r3, lr
 245:Drivers/CMSIS/DSP/Source/FilteringFunctions/arm_conv_fast_q31.c ****       acc1 = 0;
 496              		.loc 1 245 12 view .LVU187
 497 01e6 7746     		mov	r7, lr
 498 01e8 1496     		str	r6, [sp, #80]
 499              	.LVL76:
 500              	.L11:
 260:Drivers/CMSIS/DSP/Source/FilteringFunctions/arm_conv_fast_q31.c ****       {
 501              		.loc 1 260 7 is_stmt 1 view .LVU188
 263:Drivers/CMSIS/DSP/Source/FilteringFunctions/arm_conv_fast_q31.c **** 
 502              		.loc 1 263 9 view .LVU189
 263:Drivers/CMSIS/DSP/Source/FilteringFunctions/arm_conv_fast_q31.c **** 
 503              		.loc 1 263 12 is_stmt 0 view .LVU190
 504 01ea 019C     		ldr	r4, [sp, #4]
 505 01ec 2468     		ldr	r4, [r4]
 506              	.LVL77:
 266:Drivers/CMSIS/DSP/Source/FilteringFunctions/arm_conv_fast_q31.c **** 
 507              		.loc 1 266 9 is_stmt 1 view .LVU191
 266:Drivers/CMSIS/DSP/Source/FilteringFunctions/arm_conv_fast_q31.c **** 
 508              		.loc 1 266 12 is_stmt 0 view .LVU192
 509 01ee 009D     		ldr	r5, [sp]
 510 01f0 2D68     		ldr	r5, [r5]
 511              	.LVL78:
 270:Drivers/CMSIS/DSP/Source/FilteringFunctions/arm_conv_fast_q31.c **** 
 512              		.loc 1 270 9 is_stmt 1 view .LVU193
 270:Drivers/CMSIS/DSP/Source/FilteringFunctions/arm_conv_fast_q31.c **** 
 513              		.loc 1 270 50 is_stmt 0 view .LVU194
 514 01f2 4FEAE27C 		asr	ip, r2, #31
 270:Drivers/CMSIS/DSP/Source/FilteringFunctions/arm_conv_fast_q31.c **** 
 515              		.loc 1 270 61 view .LVU195
 516 01f6 E617     		asrs	r6, r4, #31
 517 01f8 02FB06F9 		mul	r9, r2, r6
 518 01fc 04FB0C99 		mla	r9, r4, ip, r9
 519 0200 A2FB042C 		umull	r2, ip, r2, r4
 520              	.LVL79:
 270:Drivers/CMSIS/DSP/Source/FilteringFunctions/arm_conv_fast_q31.c **** 
 521              		.loc 1 270 61 view .LVU196
 522 0204 E144     		add	r9, r9, ip
 270:Drivers/CMSIS/DSP/Source/FilteringFunctions/arm_conv_fast_q31.c **** 
 523              		.loc 1 270 47 view .LVU197
 524 0206 B944     		add	r9, r9, r7
 525              	.LVL80:
 273:Drivers/CMSIS/DSP/Source/FilteringFunctions/arm_conv_fast_q31.c **** 
 526              		.loc 1 273 9 is_stmt 1 view .LVU198
 273:Drivers/CMSIS/DSP/Source/FilteringFunctions/arm_conv_fast_q31.c **** 
 527              		.loc 1 273 50 is_stmt 0 view .LVU199
 528 0208 4FEAE07A 		asr	r10, r0, #31
ARM GAS  /tmp/ccYf7o5c.s 			page 18


 273:Drivers/CMSIS/DSP/Source/FilteringFunctions/arm_conv_fast_q31.c **** 
 529              		.loc 1 273 61 view .LVU200
 530 020c 04FB0AF2 		mul	r2, r4, r10
 531 0210 00FB0622 		mla	r2, r0, r6, r2
 532 0214 A4FB00C7 		umull	ip, r7, r4, r0
 533 0218 3A44     		add	r2, r2, r7
 273:Drivers/CMSIS/DSP/Source/FilteringFunctions/arm_conv_fast_q31.c **** 
 534              		.loc 1 273 47 view .LVU201
 535 021a 1344     		add	r3, r3, r2
 536              	.LVL81:
 276:Drivers/CMSIS/DSP/Source/FilteringFunctions/arm_conv_fast_q31.c **** 
 537              		.loc 1 276 9 is_stmt 1 view .LVU202
 276:Drivers/CMSIS/DSP/Source/FilteringFunctions/arm_conv_fast_q31.c **** 
 538              		.loc 1 276 50 is_stmt 0 view .LVU203
 539 021c 4FEAE17C 		asr	ip, r1, #31
 276:Drivers/CMSIS/DSP/Source/FilteringFunctions/arm_conv_fast_q31.c **** 
 540              		.loc 1 276 61 view .LVU204
 541 0220 04FB0CF2 		mul	r2, r4, ip
 542 0224 01FB0622 		mla	r2, r1, r6, r2
 543 0228 A4FB01B7 		umull	fp, r7, r4, r1
 544 022c 3A44     		add	r2, r2, r7
 276:Drivers/CMSIS/DSP/Source/FilteringFunctions/arm_conv_fast_q31.c **** 
 545              		.loc 1 276 47 view .LVU205
 546 022e 9044     		add	r8, r8, r2
 547              	.LVL82:
 279:Drivers/CMSIS/DSP/Source/FilteringFunctions/arm_conv_fast_q31.c **** 
 548              		.loc 1 279 9 is_stmt 1 view .LVU206
 279:Drivers/CMSIS/DSP/Source/FilteringFunctions/arm_conv_fast_q31.c **** 
 549              		.loc 1 279 50 is_stmt 0 view .LVU207
 550 0230 EF17     		asrs	r7, r5, #31
 279:Drivers/CMSIS/DSP/Source/FilteringFunctions/arm_conv_fast_q31.c **** 
 551              		.loc 1 279 61 view .LVU208
 552 0232 04FB07F2 		mul	r2, r4, r7
 553 0236 05FB0622 		mla	r2, r5, r6, r2
 554 023a A4FB0546 		umull	r4, r6, r4, r5
 555              	.LVL83:
 279:Drivers/CMSIS/DSP/Source/FilteringFunctions/arm_conv_fast_q31.c **** 
 556              		.loc 1 279 61 view .LVU209
 557 023e 3244     		add	r2, r2, r6
 279:Drivers/CMSIS/DSP/Source/FilteringFunctions/arm_conv_fast_q31.c **** 
 558              		.loc 1 279 47 view .LVU210
 559 0240 9644     		add	lr, lr, r2
 560              	.LVL84:
 282:Drivers/CMSIS/DSP/Source/FilteringFunctions/arm_conv_fast_q31.c **** 
 561              		.loc 1 282 9 is_stmt 1 view .LVU211
 282:Drivers/CMSIS/DSP/Source/FilteringFunctions/arm_conv_fast_q31.c **** 
 562              		.loc 1 282 12 is_stmt 0 view .LVU212
 563 0242 019C     		ldr	r4, [sp, #4]
 564 0244 54F8044C 		ldr	r4, [r4, #-4]
 565              	.LVL85:
 285:Drivers/CMSIS/DSP/Source/FilteringFunctions/arm_conv_fast_q31.c **** 
 566              		.loc 1 285 9 is_stmt 1 view .LVU213
 285:Drivers/CMSIS/DSP/Source/FilteringFunctions/arm_conv_fast_q31.c **** 
 567              		.loc 1 285 12 is_stmt 0 view .LVU214
 568 0248 009A     		ldr	r2, [sp]
 569 024a 5268     		ldr	r2, [r2, #4]
 570              	.LVL86:
ARM GAS  /tmp/ccYf7o5c.s 			page 19


 289:Drivers/CMSIS/DSP/Source/FilteringFunctions/arm_conv_fast_q31.c ****         /* acc1 +=  x[2] * y[srcBLen - 2] */
 571              		.loc 1 289 9 is_stmt 1 view .LVU215
 289:Drivers/CMSIS/DSP/Source/FilteringFunctions/arm_conv_fast_q31.c ****         /* acc1 +=  x[2] * y[srcBLen - 2] */
 572              		.loc 1 289 61 is_stmt 0 view .LVU216
 573 024c 4FEAE47B 		asr	fp, r4, #31
 574 0250 00FB0BF6 		mul	r6, r0, fp
 575 0254 04FB0A66 		mla	r6, r4, r10, r6
 576 0258 A0FB040A 		umull	r0, r10, r0, r4
 577              	.LVL87:
 289:Drivers/CMSIS/DSP/Source/FilteringFunctions/arm_conv_fast_q31.c ****         /* acc1 +=  x[2] * y[srcBLen - 2] */
 578              		.loc 1 289 61 view .LVU217
 579 025c 5644     		add	r6, r6, r10
 289:Drivers/CMSIS/DSP/Source/FilteringFunctions/arm_conv_fast_q31.c ****         /* acc1 +=  x[2] * y[srcBLen - 2] */
 580              		.loc 1 289 47 view .LVU218
 581 025e 4E44     		add	r6, r6, r9
 291:Drivers/CMSIS/DSP/Source/FilteringFunctions/arm_conv_fast_q31.c ****         /* acc2 +=  x[3] * y[srcBLen - 2] */
 582              		.loc 1 291 9 is_stmt 1 view .LVU219
 291:Drivers/CMSIS/DSP/Source/FilteringFunctions/arm_conv_fast_q31.c ****         /* acc2 +=  x[3] * y[srcBLen - 2] */
 583              		.loc 1 291 61 is_stmt 0 view .LVU220
 584 0260 01FB0BF0 		mul	r0, r1, fp
 585 0264 04FB0C00 		mla	r0, r4, ip, r0
 586 0268 A1FB04A9 		umull	r10, r9, r1, r4
 587 026c 4844     		add	r0, r0, r9
 291:Drivers/CMSIS/DSP/Source/FilteringFunctions/arm_conv_fast_q31.c ****         /* acc2 +=  x[3] * y[srcBLen - 2] */
 588              		.loc 1 291 47 view .LVU221
 589 026e 0344     		add	r3, r3, r0
 293:Drivers/CMSIS/DSP/Source/FilteringFunctions/arm_conv_fast_q31.c ****         /* acc3 +=  x[4] * y[srcBLen - 2] */
 590              		.loc 1 293 9 is_stmt 1 view .LVU222
 293:Drivers/CMSIS/DSP/Source/FilteringFunctions/arm_conv_fast_q31.c ****         /* acc3 +=  x[4] * y[srcBLen - 2] */
 591              		.loc 1 293 61 is_stmt 0 view .LVU223
 592 0270 05FB0BF9 		mul	r9, r5, fp
 593 0274 04FB0799 		mla	r9, r4, r7, r9
 594 0278 A5FB04A0 		umull	r10, r0, r5, r4
 595 027c 8144     		add	r9, r9, r0
 293:Drivers/CMSIS/DSP/Source/FilteringFunctions/arm_conv_fast_q31.c ****         /* acc3 +=  x[4] * y[srcBLen - 2] */
 596              		.loc 1 293 47 view .LVU224
 597 027e C144     		add	r9, r9, r8
 295:Drivers/CMSIS/DSP/Source/FilteringFunctions/arm_conv_fast_q31.c **** 
 598              		.loc 1 295 9 is_stmt 1 view .LVU225
 295:Drivers/CMSIS/DSP/Source/FilteringFunctions/arm_conv_fast_q31.c **** 
 599              		.loc 1 295 50 is_stmt 0 view .LVU226
 600 0280 4FEAE278 		asr	r8, r2, #31
 295:Drivers/CMSIS/DSP/Source/FilteringFunctions/arm_conv_fast_q31.c **** 
 601              		.loc 1 295 61 view .LVU227
 602 0284 04FB08F0 		mul	r0, r4, r8
 603 0288 02FB0B00 		mla	r0, r2, fp, r0
 604 028c A4FB024A 		umull	r4, r10, r4, r2
 605              	.LVL88:
 295:Drivers/CMSIS/DSP/Source/FilteringFunctions/arm_conv_fast_q31.c **** 
 606              		.loc 1 295 61 view .LVU228
 607 0290 5044     		add	r0, r0, r10
 295:Drivers/CMSIS/DSP/Source/FilteringFunctions/arm_conv_fast_q31.c **** 
 608              		.loc 1 295 47 view .LVU229
 609 0292 8644     		add	lr, lr, r0
 298:Drivers/CMSIS/DSP/Source/FilteringFunctions/arm_conv_fast_q31.c **** 
 610              		.loc 1 298 9 is_stmt 1 view .LVU230
 611              	.LVL89:
ARM GAS  /tmp/ccYf7o5c.s 			page 20


 298:Drivers/CMSIS/DSP/Source/FilteringFunctions/arm_conv_fast_q31.c **** 
 612              		.loc 1 298 12 is_stmt 0 view .LVU231
 613 0294 019C     		ldr	r4, [sp, #4]
 614 0296 54F8084C 		ldr	r4, [r4, #-8]
 615              	.LVL90:
 301:Drivers/CMSIS/DSP/Source/FilteringFunctions/arm_conv_fast_q31.c **** 
 616              		.loc 1 301 9 is_stmt 1 view .LVU232
 301:Drivers/CMSIS/DSP/Source/FilteringFunctions/arm_conv_fast_q31.c **** 
 617              		.loc 1 301 12 is_stmt 0 view .LVU233
 618 029a 0098     		ldr	r0, [sp]
 619 029c 8068     		ldr	r0, [r0, #8]
 620              	.LVL91:
 305:Drivers/CMSIS/DSP/Source/FilteringFunctions/arm_conv_fast_q31.c ****         /* acc1 +=  x[3] * y[srcBLen - 3] */
 621              		.loc 1 305 9 is_stmt 1 view .LVU234
 305:Drivers/CMSIS/DSP/Source/FilteringFunctions/arm_conv_fast_q31.c ****         /* acc1 +=  x[3] * y[srcBLen - 3] */
 622              		.loc 1 305 61 is_stmt 0 view .LVU235
 623 029e 4FEAE47A 		asr	r10, r4, #31
 624 02a2 01FB0AFB 		mul	fp, r1, r10
 625 02a6 04FB0CBC 		mla	ip, r4, ip, fp
 626 02aa A1FB041B 		umull	r1, fp, r1, r4
 627              	.LVL92:
 305:Drivers/CMSIS/DSP/Source/FilteringFunctions/arm_conv_fast_q31.c ****         /* acc1 +=  x[3] * y[srcBLen - 3] */
 628              		.loc 1 305 61 view .LVU236
 629 02ae DC44     		add	ip, ip, fp
 305:Drivers/CMSIS/DSP/Source/FilteringFunctions/arm_conv_fast_q31.c ****         /* acc1 +=  x[3] * y[srcBLen - 3] */
 630              		.loc 1 305 47 view .LVU237
 631 02b0 B444     		add	ip, ip, r6
 307:Drivers/CMSIS/DSP/Source/FilteringFunctions/arm_conv_fast_q31.c ****         /* acc2 +=  x[4] * y[srcBLen - 3] */
 632              		.loc 1 307 9 is_stmt 1 view .LVU238
 307:Drivers/CMSIS/DSP/Source/FilteringFunctions/arm_conv_fast_q31.c ****         /* acc2 +=  x[4] * y[srcBLen - 3] */
 633              		.loc 1 307 61 is_stmt 0 view .LVU239
 634 02b2 05FB0AFB 		mul	fp, r5, r10
 635 02b6 04FB07BB 		mla	fp, r4, r7, fp
 636 02ba A5FB0461 		umull	r6, r1, r5, r4
 637 02be 8B44     		add	fp, fp, r1
 307:Drivers/CMSIS/DSP/Source/FilteringFunctions/arm_conv_fast_q31.c ****         /* acc2 +=  x[4] * y[srcBLen - 3] */
 638              		.loc 1 307 47 view .LVU240
 639 02c0 9B44     		add	fp, fp, r3
 309:Drivers/CMSIS/DSP/Source/FilteringFunctions/arm_conv_fast_q31.c ****         /* acc3 +=  x[5] * y[srcBLen - 3] */
 640              		.loc 1 309 9 is_stmt 1 view .LVU241
 309:Drivers/CMSIS/DSP/Source/FilteringFunctions/arm_conv_fast_q31.c ****         /* acc3 +=  x[5] * y[srcBLen - 3] */
 641              		.loc 1 309 61 is_stmt 0 view .LVU242
 642 02c2 02FB0AF6 		mul	r6, r2, r10
 643 02c6 04FB0866 		mla	r6, r4, r8, r6
 644 02ca A2FB0413 		umull	r1, r3, r2, r4
 645 02ce 1E44     		add	r6, r6, r3
 309:Drivers/CMSIS/DSP/Source/FilteringFunctions/arm_conv_fast_q31.c ****         /* acc3 +=  x[5] * y[srcBLen - 3] */
 646              		.loc 1 309 47 view .LVU243
 647 02d0 4E44     		add	r6, r6, r9
 311:Drivers/CMSIS/DSP/Source/FilteringFunctions/arm_conv_fast_q31.c **** 
 648              		.loc 1 311 9 is_stmt 1 view .LVU244
 311:Drivers/CMSIS/DSP/Source/FilteringFunctions/arm_conv_fast_q31.c **** 
 649              		.loc 1 311 50 is_stmt 0 view .LVU245
 650 02d2 4FEAE079 		asr	r9, r0, #31
 311:Drivers/CMSIS/DSP/Source/FilteringFunctions/arm_conv_fast_q31.c **** 
 651              		.loc 1 311 61 view .LVU246
 652 02d6 04FB09F3 		mul	r3, r4, r9
ARM GAS  /tmp/ccYf7o5c.s 			page 21


 653 02da 00FB0A33 		mla	r3, r0, r10, r3
 654 02de A4FB0041 		umull	r4, r1, r4, r0
 655              	.LVL93:
 311:Drivers/CMSIS/DSP/Source/FilteringFunctions/arm_conv_fast_q31.c **** 
 656              		.loc 1 311 61 view .LVU247
 657 02e2 0B44     		add	r3, r3, r1
 311:Drivers/CMSIS/DSP/Source/FilteringFunctions/arm_conv_fast_q31.c **** 
 658              		.loc 1 311 47 view .LVU248
 659 02e4 9E44     		add	lr, lr, r3
 314:Drivers/CMSIS/DSP/Source/FilteringFunctions/arm_conv_fast_q31.c **** 
 660              		.loc 1 314 9 is_stmt 1 view .LVU249
 661 02e6 0199     		ldr	r1, [sp, #4]
 662              	.LVL94:
 314:Drivers/CMSIS/DSP/Source/FilteringFunctions/arm_conv_fast_q31.c **** 
 663              		.loc 1 314 12 is_stmt 0 view .LVU250
 664 02e8 51F80C4C 		ldr	r4, [r1, #-12]
 665 02ec A1F11003 		sub	r3, r1, #16
 666 02f0 0193     		str	r3, [sp, #4]
 667              	.LVL95:
 317:Drivers/CMSIS/DSP/Source/FilteringFunctions/arm_conv_fast_q31.c **** 
 668              		.loc 1 317 9 is_stmt 1 view .LVU251
 669 02f2 DDF800A0 		ldr	r10, [sp]
 670 02f6 5346     		mov	r3, r10
 671              	.LVL96:
 317:Drivers/CMSIS/DSP/Source/FilteringFunctions/arm_conv_fast_q31.c **** 
 672              		.loc 1 317 12 is_stmt 0 view .LVU252
 673 02f8 DAF80C10 		ldr	r1, [r10, #12]
 674              	.LVL97:
 317:Drivers/CMSIS/DSP/Source/FilteringFunctions/arm_conv_fast_q31.c **** 
 675              		.loc 1 317 12 view .LVU253
 676 02fc 1033     		adds	r3, r3, #16
 677 02fe 0093     		str	r3, [sp]
 678              	.LVL98:
 321:Drivers/CMSIS/DSP/Source/FilteringFunctions/arm_conv_fast_q31.c ****         /* acc1 +=  x[4] * y[srcBLen - 4] */
 679              		.loc 1 321 9 is_stmt 1 view .LVU254
 321:Drivers/CMSIS/DSP/Source/FilteringFunctions/arm_conv_fast_q31.c ****         /* acc1 +=  x[4] * y[srcBLen - 4] */
 680              		.loc 1 321 61 is_stmt 0 view .LVU255
 681 0300 4FEAE47A 		asr	r10, r4, #31
 682              	.LVL99:
 321:Drivers/CMSIS/DSP/Source/FilteringFunctions/arm_conv_fast_q31.c ****         /* acc1 +=  x[4] * y[srcBLen - 4] */
 683              		.loc 1 321 61 view .LVU256
 684 0304 05FB0AF3 		mul	r3, r5, r10
 685              	.LVL100:
 321:Drivers/CMSIS/DSP/Source/FilteringFunctions/arm_conv_fast_q31.c ****         /* acc1 +=  x[4] * y[srcBLen - 4] */
 686              		.loc 1 321 61 view .LVU257
 687 0308 04FB0733 		mla	r3, r4, r7, r3
 688 030c A5FB0457 		umull	r5, r7, r5, r4
 689              	.LVL101:
 321:Drivers/CMSIS/DSP/Source/FilteringFunctions/arm_conv_fast_q31.c ****         /* acc1 +=  x[4] * y[srcBLen - 4] */
 690              		.loc 1 321 61 view .LVU258
 691 0310 3B44     		add	r3, r3, r7
 321:Drivers/CMSIS/DSP/Source/FilteringFunctions/arm_conv_fast_q31.c ****         /* acc1 +=  x[4] * y[srcBLen - 4] */
 692              		.loc 1 321 14 view .LVU259
 693 0312 0CEB0307 		add	r7, ip, r3
 694              	.LVL102:
 323:Drivers/CMSIS/DSP/Source/FilteringFunctions/arm_conv_fast_q31.c ****         /* acc2 +=  x[5] * y[srcBLen - 4] */
 695              		.loc 1 323 9 is_stmt 1 view .LVU260
ARM GAS  /tmp/ccYf7o5c.s 			page 22


 323:Drivers/CMSIS/DSP/Source/FilteringFunctions/arm_conv_fast_q31.c ****         /* acc2 +=  x[5] * y[srcBLen - 4] */
 696              		.loc 1 323 61 is_stmt 0 view .LVU261
 697 0316 02FB0AF3 		mul	r3, r2, r10
 698 031a 04FB0833 		mla	r3, r4, r8, r3
 699 031e A2FB04C5 		umull	ip, r5, r2, r4
 700 0322 2B44     		add	r3, r3, r5
 323:Drivers/CMSIS/DSP/Source/FilteringFunctions/arm_conv_fast_q31.c ****         /* acc2 +=  x[5] * y[srcBLen - 4] */
 701              		.loc 1 323 14 view .LVU262
 702 0324 5B44     		add	r3, r3, fp
 703              	.LVL103:
 325:Drivers/CMSIS/DSP/Source/FilteringFunctions/arm_conv_fast_q31.c ****         /* acc3 +=  x[6] * y[srcBLen - 4] */
 704              		.loc 1 325 9 is_stmt 1 view .LVU263
 325:Drivers/CMSIS/DSP/Source/FilteringFunctions/arm_conv_fast_q31.c ****         /* acc3 +=  x[6] * y[srcBLen - 4] */
 705              		.loc 1 325 61 is_stmt 0 view .LVU264
 706 0326 00FB0AF8 		mul	r8, r0, r10
 707 032a 04FB0988 		mla	r8, r4, r9, r8
 708 032e A0FB04C5 		umull	ip, r5, r0, r4
 709 0332 A844     		add	r8, r8, r5
 325:Drivers/CMSIS/DSP/Source/FilteringFunctions/arm_conv_fast_q31.c ****         /* acc3 +=  x[6] * y[srcBLen - 4] */
 710              		.loc 1 325 14 view .LVU265
 711 0334 B044     		add	r8, r8, r6
 712              	.LVL104:
 327:Drivers/CMSIS/DSP/Source/FilteringFunctions/arm_conv_fast_q31.c **** 
 713              		.loc 1 327 9 is_stmt 1 view .LVU266
 327:Drivers/CMSIS/DSP/Source/FilteringFunctions/arm_conv_fast_q31.c **** 
 714              		.loc 1 327 50 is_stmt 0 view .LVU267
 715 0336 CD17     		asrs	r5, r1, #31
 327:Drivers/CMSIS/DSP/Source/FilteringFunctions/arm_conv_fast_q31.c **** 
 716              		.loc 1 327 61 view .LVU268
 717 0338 04FB05F5 		mul	r5, r4, r5
 718 033c 01FB0A55 		mla	r5, r1, r10, r5
 719 0340 A4FB0146 		umull	r4, r6, r4, r1
 720              	.LVL105:
 327:Drivers/CMSIS/DSP/Source/FilteringFunctions/arm_conv_fast_q31.c **** 
 721              		.loc 1 327 61 view .LVU269
 722 0344 3544     		add	r5, r5, r6
 327:Drivers/CMSIS/DSP/Source/FilteringFunctions/arm_conv_fast_q31.c **** 
 723              		.loc 1 327 14 view .LVU270
 724 0346 AE44     		add	lr, lr, r5
 725              	.LVL106:
 330:Drivers/CMSIS/DSP/Source/FilteringFunctions/arm_conv_fast_q31.c **** 
 726              		.loc 1 330 16 is_stmt 1 discriminator 1 view .LVU271
 330:Drivers/CMSIS/DSP/Source/FilteringFunctions/arm_conv_fast_q31.c **** 
 727              		.loc 1 330 16 is_stmt 0 discriminator 1 view .LVU272
 728 0348 029C     		ldr	r4, [sp, #8]
 729 034a 013C     		subs	r4, r4, #1
 730              	.LVL107:
 330:Drivers/CMSIS/DSP/Source/FilteringFunctions/arm_conv_fast_q31.c **** 
 731              		.loc 1 330 16 discriminator 1 view .LVU273
 732 034c 0294     		str	r4, [sp, #8]
 733 034e 7FF44CAF 		bne	.L11
 334:Drivers/CMSIS/DSP/Source/FilteringFunctions/arm_conv_fast_q31.c **** 
 734              		.loc 1 334 9 view .LVU274
 735 0352 0297     		str	r7, [sp, #8]
 334:Drivers/CMSIS/DSP/Source/FilteringFunctions/arm_conv_fast_q31.c **** 
 736              		.loc 1 334 7 is_stmt 1 view .LVU275
 334:Drivers/CMSIS/DSP/Source/FilteringFunctions/arm_conv_fast_q31.c **** 
ARM GAS  /tmp/ccYf7o5c.s 			page 23


 737              		.loc 1 334 9 is_stmt 0 view .LVU276
 738 0354 049C     		ldr	r4, [sp, #16]
 739              	.LVL108:
 334:Drivers/CMSIS/DSP/Source/FilteringFunctions/arm_conv_fast_q31.c **** 
 740              		.loc 1 334 9 view .LVU277
 741 0356 04F0030C 		and	ip, r4, #3
 742              	.LVL109:
 336:Drivers/CMSIS/DSP/Source/FilteringFunctions/arm_conv_fast_q31.c ****       {
 743              		.loc 1 336 7 is_stmt 1 view .LVU278
 744 035a 009D     		ldr	r5, [sp]
 745 035c 019C     		ldr	r4, [sp, #4]
 746 035e 6746     		mov	r7, ip
 747              	.LVL110:
 336:Drivers/CMSIS/DSP/Source/FilteringFunctions/arm_conv_fast_q31.c ****       {
 748              		.loc 1 336 7 is_stmt 0 view .LVU279
 749 0360 9C46     		mov	ip, r3
 750              	.LVL111:
 336:Drivers/CMSIS/DSP/Source/FilteringFunctions/arm_conv_fast_q31.c ****       {
 751              		.loc 1 336 7 view .LVU280
 752 0362 3B46     		mov	r3, r7
 753              	.LVL112:
 336:Drivers/CMSIS/DSP/Source/FilteringFunctions/arm_conv_fast_q31.c ****       {
 754              		.loc 1 336 13 view .LVU281
 755 0364 13E7     		b	.L12
 756              	.LVL113:
 757              	.L34:
 378:Drivers/CMSIS/DSP/Source/FilteringFunctions/arm_conv_fast_q31.c ****     }
 379:Drivers/CMSIS/DSP/Source/FilteringFunctions/arm_conv_fast_q31.c **** 
 380:Drivers/CMSIS/DSP/Source/FilteringFunctions/arm_conv_fast_q31.c ****     /* If the blockSize2 is not a multiple of 4, compute any remaining output samples here.
 381:Drivers/CMSIS/DSP/Source/FilteringFunctions/arm_conv_fast_q31.c ****      ** No loop unrolling is used. */
 382:Drivers/CMSIS/DSP/Source/FilteringFunctions/arm_conv_fast_q31.c ****     blkCnt = blockSize2 % 0x4U;
 758              		.loc 1 382 12 view .LVU282
 759 0366 0798     		ldr	r0, [sp, #28]
 760 0368 089A     		ldr	r2, [sp, #32]
 761 036a DDF82490 		ldr	r9, [sp, #36]
 762 036e 3446     		mov	r4, r6
 763              		.loc 1 382 5 is_stmt 1 view .LVU283
 764              		.loc 1 382 12 is_stmt 0 view .LVU284
 765 0370 09F0030C 		and	ip, r9, #3
 766              	.LVL114:
 383:Drivers/CMSIS/DSP/Source/FilteringFunctions/arm_conv_fast_q31.c **** 
 384:Drivers/CMSIS/DSP/Source/FilteringFunctions/arm_conv_fast_q31.c ****     while (blkCnt > 0U)
 767              		.loc 1 384 5 is_stmt 1 view .LVU285
 768 0374 0090     		str	r0, [sp]
 769 0376 6646     		mov	r6, ip
 770              	.LVL115:
 771              		.loc 1 384 5 is_stmt 0 view .LVU286
 772 0378 9346     		mov	fp, r2
 773 037a 049F     		ldr	r7, [sp, #16]
 774 037c DDF814C0 		ldr	ip, [sp, #20]
 775              	.LVL116:
 776              		.loc 1 384 5 view .LVU287
 777 0380 A646     		mov	lr, r4
 778              		.loc 1 384 11 view .LVU288
 779 0382 5FE0     		b	.L15
 780              	.LVL117:
 781              	.L17:
ARM GAS  /tmp/ccYf7o5c.s 			page 24


 385:Drivers/CMSIS/DSP/Source/FilteringFunctions/arm_conv_fast_q31.c ****     {
 386:Drivers/CMSIS/DSP/Source/FilteringFunctions/arm_conv_fast_q31.c ****       /* Accumulator is made zero for every iteration */
 387:Drivers/CMSIS/DSP/Source/FilteringFunctions/arm_conv_fast_q31.c ****       sum = 0;
 388:Drivers/CMSIS/DSP/Source/FilteringFunctions/arm_conv_fast_q31.c **** 
 389:Drivers/CMSIS/DSP/Source/FilteringFunctions/arm_conv_fast_q31.c ****       /* Apply loop unrolling and compute 4 MACs simultaneously. */
 390:Drivers/CMSIS/DSP/Source/FilteringFunctions/arm_conv_fast_q31.c ****       k = srcBLen >> 2U;
 391:Drivers/CMSIS/DSP/Source/FilteringFunctions/arm_conv_fast_q31.c **** 
 392:Drivers/CMSIS/DSP/Source/FilteringFunctions/arm_conv_fast_q31.c ****       /* First part of the processing with loop unrolling.  Compute 4 MACs at a time.
 393:Drivers/CMSIS/DSP/Source/FilteringFunctions/arm_conv_fast_q31.c ****        ** a second loop below computes MACs for the remaining 1 to 3 samples. */
 394:Drivers/CMSIS/DSP/Source/FilteringFunctions/arm_conv_fast_q31.c ****       while (k > 0U)
 395:Drivers/CMSIS/DSP/Source/FilteringFunctions/arm_conv_fast_q31.c ****       {
 396:Drivers/CMSIS/DSP/Source/FilteringFunctions/arm_conv_fast_q31.c ****         /* Perform the multiply-accumulates */
 397:Drivers/CMSIS/DSP/Source/FilteringFunctions/arm_conv_fast_q31.c ****         sum = (q31_t) ((((q63_t) sum << 32) +
 782              		.loc 1 397 9 is_stmt 1 view .LVU289
 398:Drivers/CMSIS/DSP/Source/FilteringFunctions/arm_conv_fast_q31.c ****                         ((q63_t) * px++ * (*py--))) >> 32);
 783              		.loc 1 398 34 is_stmt 0 view .LVU290
 784 0384 0D68     		ldr	r5, [r1]
 785              		.loc 1 398 26 view .LVU291
 786 0386 4FEAE57A 		asr	r10, r5, #31
 787              	.LVL118:
 788              		.loc 1 398 44 view .LVU292
 789 038a 1468     		ldr	r4, [r2]
 790 038c E017     		asrs	r0, r4, #31
 791              		.loc 1 398 41 view .LVU293
 792 038e 05FB00F0 		mul	r0, r5, r0
 793 0392 04FB0A00 		mla	r0, r4, r10, r0
 794 0396 A5FB0454 		umull	r5, r4, r5, r4
 795 039a 2044     		add	r0, r0, r4
 397:Drivers/CMSIS/DSP/Source/FilteringFunctions/arm_conv_fast_q31.c ****                         ((q63_t) * px++ * (*py--))) >> 32);
 796              		.loc 1 397 45 view .LVU294
 797 039c 0344     		add	r3, r3, r0
 798              	.LVL119:
 399:Drivers/CMSIS/DSP/Source/FilteringFunctions/arm_conv_fast_q31.c ****         sum = (q31_t) ((((q63_t) sum << 32) +
 799              		.loc 1 399 9 is_stmt 1 view .LVU295
 400:Drivers/CMSIS/DSP/Source/FilteringFunctions/arm_conv_fast_q31.c ****                         ((q63_t) * px++ * (*py--))) >> 32);
 800              		.loc 1 400 34 is_stmt 0 view .LVU296
 801 039e 4D68     		ldr	r5, [r1, #4]
 802              		.loc 1 400 26 view .LVU297
 803 03a0 4FEAE57A 		asr	r10, r5, #31
 804              	.LVL120:
 805              		.loc 1 400 44 view .LVU298
 806 03a4 52F8044C 		ldr	r4, [r2, #-4]
 807 03a8 E017     		asrs	r0, r4, #31
 808              		.loc 1 400 41 view .LVU299
 809 03aa 05FB00F0 		mul	r0, r5, r0
 810 03ae 04FB0A00 		mla	r0, r4, r10, r0
 811 03b2 A5FB0454 		umull	r5, r4, r5, r4
 812 03b6 2044     		add	r0, r0, r4
 399:Drivers/CMSIS/DSP/Source/FilteringFunctions/arm_conv_fast_q31.c ****         sum = (q31_t) ((((q63_t) sum << 32) +
 813              		.loc 1 399 45 view .LVU300
 814 03b8 0344     		add	r3, r3, r0
 401:Drivers/CMSIS/DSP/Source/FilteringFunctions/arm_conv_fast_q31.c ****         sum = (q31_t) ((((q63_t) sum << 32) +
 815              		.loc 1 401 9 is_stmt 1 view .LVU301
 816              	.LVL121:
 402:Drivers/CMSIS/DSP/Source/FilteringFunctions/arm_conv_fast_q31.c ****                         ((q63_t) * px++ * (*py--))) >> 32);
 817              		.loc 1 402 34 is_stmt 0 view .LVU302
 818 03ba 8D68     		ldr	r5, [r1, #8]
ARM GAS  /tmp/ccYf7o5c.s 			page 25


 819              		.loc 1 402 26 view .LVU303
 820 03bc 4FEAE57A 		asr	r10, r5, #31
 821              	.LVL122:
 822              		.loc 1 402 44 view .LVU304
 823 03c0 52F8084C 		ldr	r4, [r2, #-8]
 824 03c4 E017     		asrs	r0, r4, #31
 825              		.loc 1 402 41 view .LVU305
 826 03c6 05FB00F0 		mul	r0, r5, r0
 827 03ca 04FB0A00 		mla	r0, r4, r10, r0
 828 03ce A5FB0454 		umull	r5, r4, r5, r4
 829 03d2 2044     		add	r0, r0, r4
 401:Drivers/CMSIS/DSP/Source/FilteringFunctions/arm_conv_fast_q31.c ****         sum = (q31_t) ((((q63_t) sum << 32) +
 830              		.loc 1 401 45 view .LVU306
 831 03d4 1844     		add	r0, r0, r3
 403:Drivers/CMSIS/DSP/Source/FilteringFunctions/arm_conv_fast_q31.c ****         sum = (q31_t) ((((q63_t) sum << 32) +
 832              		.loc 1 403 9 is_stmt 1 view .LVU307
 833              	.LVL123:
 404:Drivers/CMSIS/DSP/Source/FilteringFunctions/arm_conv_fast_q31.c ****                         ((q63_t) * px++ * (*py--))) >> 32);
 834              		.loc 1 404 34 is_stmt 0 view .LVU308
 835 03d6 CC68     		ldr	r4, [r1, #12]
 836              		.loc 1 404 26 view .LVU309
 837 03d8 4FEAE47A 		asr	r10, r4, #31
 838              	.LVL124:
 839              		.loc 1 404 44 view .LVU310
 840 03dc 52F80C5C 		ldr	r5, [r2, #-12]
 841 03e0 EB17     		asrs	r3, r5, #31
 842              		.loc 1 404 41 view .LVU311
 843 03e2 04FB03F3 		mul	r3, r4, r3
 844 03e6 05FB0A33 		mla	r3, r5, r10, r3
 845 03ea A4FB0545 		umull	r4, r5, r4, r5
 846 03ee 2B44     		add	r3, r3, r5
 403:Drivers/CMSIS/DSP/Source/FilteringFunctions/arm_conv_fast_q31.c ****         sum = (q31_t) ((((q63_t) sum << 32) +
 847              		.loc 1 403 13 view .LVU312
 848 03f0 0344     		add	r3, r3, r0
 849              	.LVL125:
 405:Drivers/CMSIS/DSP/Source/FilteringFunctions/arm_conv_fast_q31.c **** 
 406:Drivers/CMSIS/DSP/Source/FilteringFunctions/arm_conv_fast_q31.c ****         /* Decrement the loop counter */
 407:Drivers/CMSIS/DSP/Source/FilteringFunctions/arm_conv_fast_q31.c ****         k--;
 850              		.loc 1 407 9 is_stmt 1 view .LVU313
 851              		.loc 1 407 10 is_stmt 0 view .LVU314
 852 03f2 013E     		subs	r6, r6, #1
 853              	.LVL126:
 404:Drivers/CMSIS/DSP/Source/FilteringFunctions/arm_conv_fast_q31.c ****                         ((q63_t) * px++ * (*py--))) >> 32);
 854              		.loc 1 404 47 view .LVU315
 855 03f4 103A     		subs	r2, r2, #16
 856              	.LVL127:
 404:Drivers/CMSIS/DSP/Source/FilteringFunctions/arm_conv_fast_q31.c ****                         ((q63_t) * px++ * (*py--))) >> 32);
 857              		.loc 1 404 38 view .LVU316
 858 03f6 1031     		adds	r1, r1, #16
 859              	.LVL128:
 860              	.L16:
 394:Drivers/CMSIS/DSP/Source/FilteringFunctions/arm_conv_fast_q31.c ****       {
 861              		.loc 1 394 16 is_stmt 1 view .LVU317
 862 03f8 002E     		cmp	r6, #0
 863 03fa C3D1     		bne	.L17
 408:Drivers/CMSIS/DSP/Source/FilteringFunctions/arm_conv_fast_q31.c ****       }
 409:Drivers/CMSIS/DSP/Source/FilteringFunctions/arm_conv_fast_q31.c **** 
ARM GAS  /tmp/ccYf7o5c.s 			page 26


 410:Drivers/CMSIS/DSP/Source/FilteringFunctions/arm_conv_fast_q31.c ****       /* If the srcBLen is not a multiple of 4, compute any remaining MACs here.
 411:Drivers/CMSIS/DSP/Source/FilteringFunctions/arm_conv_fast_q31.c ****        ** No loop unrolling is used. */
 412:Drivers/CMSIS/DSP/Source/FilteringFunctions/arm_conv_fast_q31.c ****       k = srcBLen % 0x4U;
 864              		.loc 1 412 9 is_stmt 0 view .LVU318
 865 03fc 4646     		mov	r6, r8
 866              	.LVL129:
 867              		.loc 1 412 7 is_stmt 1 view .LVU319
 868              		.loc 1 412 9 is_stmt 0 view .LVU320
 869 03fe 07F00304 		and	r4, r7, #3
 870              	.LVL130:
 413:Drivers/CMSIS/DSP/Source/FilteringFunctions/arm_conv_fast_q31.c **** 
 414:Drivers/CMSIS/DSP/Source/FilteringFunctions/arm_conv_fast_q31.c ****       while (k > 0U)
 871              		.loc 1 414 7 is_stmt 1 view .LVU321
 872 0402 9846     		mov	r8, r3
 873              	.LVL131:
 874              		.loc 1 414 7 is_stmt 0 view .LVU322
 875 0404 2346     		mov	r3, r4
 876              	.LVL132:
 877              		.loc 1 414 13 view .LVU323
 878 0406 0FE0     		b	.L18
 879              	.LVL133:
 880              	.L19:
 415:Drivers/CMSIS/DSP/Source/FilteringFunctions/arm_conv_fast_q31.c ****       {
 416:Drivers/CMSIS/DSP/Source/FilteringFunctions/arm_conv_fast_q31.c ****         /* Perform the multiply-accumulate */
 417:Drivers/CMSIS/DSP/Source/FilteringFunctions/arm_conv_fast_q31.c ****         sum = (q31_t) ((((q63_t) sum << 32) +
 881              		.loc 1 417 9 is_stmt 1 view .LVU324
 418:Drivers/CMSIS/DSP/Source/FilteringFunctions/arm_conv_fast_q31.c ****                         ((q63_t) * px++ * (*py--))) >> 32);
 882              		.loc 1 418 34 is_stmt 0 view .LVU325
 883 0408 51F8044B 		ldr	r4, [r1], #4
 884              	.LVL134:
 885              		.loc 1 418 26 view .LVU326
 886 040c 4FEAE47A 		asr	r10, r4, #31
 887              	.LVL135:
 888              		.loc 1 418 44 view .LVU327
 889 0410 52F80459 		ldr	r5, [r2], #-4
 890              	.LVL136:
 891              		.loc 1 418 44 view .LVU328
 892 0414 E817     		asrs	r0, r5, #31
 893              		.loc 1 418 41 view .LVU329
 894 0416 04FB00F0 		mul	r0, r4, r0
 895 041a 05FB0A00 		mla	r0, r5, r10, r0
 896 041e A4FB0545 		umull	r4, r5, r4, r5
 897 0422 2844     		add	r0, r0, r5
 417:Drivers/CMSIS/DSP/Source/FilteringFunctions/arm_conv_fast_q31.c ****                         ((q63_t) * px++ * (*py--))) >> 32);
 898              		.loc 1 417 13 view .LVU330
 899 0424 8044     		add	r8, r8, r0
 900              	.LVL137:
 419:Drivers/CMSIS/DSP/Source/FilteringFunctions/arm_conv_fast_q31.c **** 
 420:Drivers/CMSIS/DSP/Source/FilteringFunctions/arm_conv_fast_q31.c ****         /* Decrement the loop counter */
 421:Drivers/CMSIS/DSP/Source/FilteringFunctions/arm_conv_fast_q31.c ****         k--;
 901              		.loc 1 421 9 is_stmt 1 view .LVU331
 902              		.loc 1 421 10 is_stmt 0 view .LVU332
 903 0426 013B     		subs	r3, r3, #1
 904              	.LVL138:
 905              	.L18:
 414:Drivers/CMSIS/DSP/Source/FilteringFunctions/arm_conv_fast_q31.c ****       {
 906              		.loc 1 414 16 is_stmt 1 view .LVU333
ARM GAS  /tmp/ccYf7o5c.s 			page 27


 907 0428 002B     		cmp	r3, #0
 908 042a EDD1     		bne	.L19
 422:Drivers/CMSIS/DSP/Source/FilteringFunctions/arm_conv_fast_q31.c ****       }
 423:Drivers/CMSIS/DSP/Source/FilteringFunctions/arm_conv_fast_q31.c **** 
 424:Drivers/CMSIS/DSP/Source/FilteringFunctions/arm_conv_fast_q31.c ****       /* Store the result in the accumulator in the destination buffer. */
 425:Drivers/CMSIS/DSP/Source/FilteringFunctions/arm_conv_fast_q31.c ****       *pOut++ = sum << 1;
 909              		.loc 1 425 12 is_stmt 0 view .LVU334
 910 042c 4346     		mov	r3, r8
 911              	.LVL139:
 912              		.loc 1 425 7 is_stmt 1 view .LVU335
 913              		.loc 1 425 12 is_stmt 0 view .LVU336
 914 042e 7446     		mov	r4, lr
 915              	.LVL140:
 916              		.loc 1 425 21 view .LVU337
 917 0430 5B00     		lsls	r3, r3, #1
 918              		.loc 1 425 15 view .LVU338
 919 0432 44F8043B 		str	r3, [r4], #4
 920              	.LVL141:
 426:Drivers/CMSIS/DSP/Source/FilteringFunctions/arm_conv_fast_q31.c **** 
 427:Drivers/CMSIS/DSP/Source/FilteringFunctions/arm_conv_fast_q31.c ****       /* Increment the MAC count */
 428:Drivers/CMSIS/DSP/Source/FilteringFunctions/arm_conv_fast_q31.c ****       count++;
 921              		.loc 1 428 7 is_stmt 1 view .LVU339
 922              		.loc 1 428 12 is_stmt 0 view .LVU340
 923 0436 009B     		ldr	r3, [sp]
 924 0438 0133     		adds	r3, r3, #1
 925 043a 0093     		str	r3, [sp]
 926              	.LVL142:
 429:Drivers/CMSIS/DSP/Source/FilteringFunctions/arm_conv_fast_q31.c **** 
 430:Drivers/CMSIS/DSP/Source/FilteringFunctions/arm_conv_fast_q31.c ****       /* Update the inputA and inputB pointers for next MAC calculation */
 431:Drivers/CMSIS/DSP/Source/FilteringFunctions/arm_conv_fast_q31.c ****       px = pIn1 + count;
 927              		.loc 1 431 7 is_stmt 1 view .LVU341
 928              		.loc 1 431 10 is_stmt 0 view .LVU342
 929 043c 0CEB8301 		add	r1, ip, r3, lsl #2
 930              	.LVL143:
 432:Drivers/CMSIS/DSP/Source/FilteringFunctions/arm_conv_fast_q31.c ****       py = pSrc2;
 931              		.loc 1 432 7 is_stmt 1 view .LVU343
 433:Drivers/CMSIS/DSP/Source/FilteringFunctions/arm_conv_fast_q31.c **** 
 434:Drivers/CMSIS/DSP/Source/FilteringFunctions/arm_conv_fast_q31.c ****       /* Decrement the loop counter */
 435:Drivers/CMSIS/DSP/Source/FilteringFunctions/arm_conv_fast_q31.c ****       blkCnt--;
 932              		.loc 1 435 7 view .LVU344
 933              		.loc 1 435 13 is_stmt 0 view .LVU345
 934 0440 013E     		subs	r6, r6, #1
 935              	.LVL144:
 425:Drivers/CMSIS/DSP/Source/FilteringFunctions/arm_conv_fast_q31.c **** 
 936              		.loc 1 425 12 view .LVU346
 937 0442 A646     		mov	lr, r4
 938              	.LVL145:
 939              	.L15:
 384:Drivers/CMSIS/DSP/Source/FilteringFunctions/arm_conv_fast_q31.c ****     {
 940              		.loc 1 384 19 is_stmt 1 view .LVU347
 941 0444 2EB1     		cbz	r6, .L35
 387:Drivers/CMSIS/DSP/Source/FilteringFunctions/arm_conv_fast_q31.c **** 
 942              		.loc 1 387 7 view .LVU348
 943              	.LVL146:
 390:Drivers/CMSIS/DSP/Source/FilteringFunctions/arm_conv_fast_q31.c **** 
 944              		.loc 1 390 7 view .LVU349
 390:Drivers/CMSIS/DSP/Source/FilteringFunctions/arm_conv_fast_q31.c **** 
ARM GAS  /tmp/ccYf7o5c.s 			page 28


 945              		.loc 1 390 9 is_stmt 0 view .LVU350
 946 0446 BC08     		lsrs	r4, r7, #2
 947              	.LVL147:
 394:Drivers/CMSIS/DSP/Source/FilteringFunctions/arm_conv_fast_q31.c ****       {
 948              		.loc 1 394 7 is_stmt 1 view .LVU351
 394:Drivers/CMSIS/DSP/Source/FilteringFunctions/arm_conv_fast_q31.c ****       {
 949              		.loc 1 394 13 is_stmt 0 view .LVU352
 950 0448 039A     		ldr	r2, [sp, #12]
 387:Drivers/CMSIS/DSP/Source/FilteringFunctions/arm_conv_fast_q31.c **** 
 951              		.loc 1 387 11 view .LVU353
 952 044a 0023     		movs	r3, #0
 953 044c B046     		mov	r8, r6
 954 044e 2646     		mov	r6, r4
 955              	.LVL148:
 394:Drivers/CMSIS/DSP/Source/FilteringFunctions/arm_conv_fast_q31.c ****       {
 956              		.loc 1 394 13 view .LVU354
 957 0450 D2E7     		b	.L16
 958              	.LVL149:
 959              	.L35:
 394:Drivers/CMSIS/DSP/Source/FilteringFunctions/arm_conv_fast_q31.c ****       {
 960              		.loc 1 394 13 view .LVU355
 961 0452 5A46     		mov	r2, fp
 962 0454 7446     		mov	r4, lr
 963              	.LVL150:
 964              	.L21:
 436:Drivers/CMSIS/DSP/Source/FilteringFunctions/arm_conv_fast_q31.c ****     }
 437:Drivers/CMSIS/DSP/Source/FilteringFunctions/arm_conv_fast_q31.c ****   }
 438:Drivers/CMSIS/DSP/Source/FilteringFunctions/arm_conv_fast_q31.c ****   else
 439:Drivers/CMSIS/DSP/Source/FilteringFunctions/arm_conv_fast_q31.c ****   {
 440:Drivers/CMSIS/DSP/Source/FilteringFunctions/arm_conv_fast_q31.c ****     /* If the srcBLen is not a multiple of 4,
 441:Drivers/CMSIS/DSP/Source/FilteringFunctions/arm_conv_fast_q31.c ****      * the blockSize2 loop cannot be unrolled by 4 */
 442:Drivers/CMSIS/DSP/Source/FilteringFunctions/arm_conv_fast_q31.c ****     blkCnt = blockSize2;
 443:Drivers/CMSIS/DSP/Source/FilteringFunctions/arm_conv_fast_q31.c **** 
 444:Drivers/CMSIS/DSP/Source/FilteringFunctions/arm_conv_fast_q31.c ****     while (blkCnt > 0U)
 445:Drivers/CMSIS/DSP/Source/FilteringFunctions/arm_conv_fast_q31.c ****     {
 446:Drivers/CMSIS/DSP/Source/FilteringFunctions/arm_conv_fast_q31.c ****       /* Accumulator is made zero for every iteration */
 447:Drivers/CMSIS/DSP/Source/FilteringFunctions/arm_conv_fast_q31.c ****       sum = 0;
 448:Drivers/CMSIS/DSP/Source/FilteringFunctions/arm_conv_fast_q31.c **** 
 449:Drivers/CMSIS/DSP/Source/FilteringFunctions/arm_conv_fast_q31.c ****       /* srcBLen number of MACS should be performed */
 450:Drivers/CMSIS/DSP/Source/FilteringFunctions/arm_conv_fast_q31.c ****       k = srcBLen;
 451:Drivers/CMSIS/DSP/Source/FilteringFunctions/arm_conv_fast_q31.c **** 
 452:Drivers/CMSIS/DSP/Source/FilteringFunctions/arm_conv_fast_q31.c ****       while (k > 0U)
 453:Drivers/CMSIS/DSP/Source/FilteringFunctions/arm_conv_fast_q31.c ****       {
 454:Drivers/CMSIS/DSP/Source/FilteringFunctions/arm_conv_fast_q31.c ****         /* Perform the multiply-accumulate */
 455:Drivers/CMSIS/DSP/Source/FilteringFunctions/arm_conv_fast_q31.c ****         sum = (q31_t) ((((q63_t) sum << 32) +
 456:Drivers/CMSIS/DSP/Source/FilteringFunctions/arm_conv_fast_q31.c ****                         ((q63_t) * px++ * (*py--))) >> 32);
 457:Drivers/CMSIS/DSP/Source/FilteringFunctions/arm_conv_fast_q31.c **** 
 458:Drivers/CMSIS/DSP/Source/FilteringFunctions/arm_conv_fast_q31.c ****         /* Decrement the loop counter */
 459:Drivers/CMSIS/DSP/Source/FilteringFunctions/arm_conv_fast_q31.c ****         k--;
 460:Drivers/CMSIS/DSP/Source/FilteringFunctions/arm_conv_fast_q31.c ****       }
 461:Drivers/CMSIS/DSP/Source/FilteringFunctions/arm_conv_fast_q31.c **** 
 462:Drivers/CMSIS/DSP/Source/FilteringFunctions/arm_conv_fast_q31.c ****       /* Store the result in the accumulator in the destination buffer. */
 463:Drivers/CMSIS/DSP/Source/FilteringFunctions/arm_conv_fast_q31.c ****       *pOut++ = sum << 1;
 464:Drivers/CMSIS/DSP/Source/FilteringFunctions/arm_conv_fast_q31.c **** 
 465:Drivers/CMSIS/DSP/Source/FilteringFunctions/arm_conv_fast_q31.c ****       /* Increment the MAC count */
 466:Drivers/CMSIS/DSP/Source/FilteringFunctions/arm_conv_fast_q31.c ****       count++;
 467:Drivers/CMSIS/DSP/Source/FilteringFunctions/arm_conv_fast_q31.c **** 
ARM GAS  /tmp/ccYf7o5c.s 			page 29


 468:Drivers/CMSIS/DSP/Source/FilteringFunctions/arm_conv_fast_q31.c ****       /* Update the inputA and inputB pointers for next MAC calculation */
 469:Drivers/CMSIS/DSP/Source/FilteringFunctions/arm_conv_fast_q31.c ****       px = pIn1 + count;
 470:Drivers/CMSIS/DSP/Source/FilteringFunctions/arm_conv_fast_q31.c ****       py = pSrc2;
 471:Drivers/CMSIS/DSP/Source/FilteringFunctions/arm_conv_fast_q31.c **** 
 472:Drivers/CMSIS/DSP/Source/FilteringFunctions/arm_conv_fast_q31.c ****       /* Decrement the loop counter */
 473:Drivers/CMSIS/DSP/Source/FilteringFunctions/arm_conv_fast_q31.c ****       blkCnt--;
 474:Drivers/CMSIS/DSP/Source/FilteringFunctions/arm_conv_fast_q31.c ****     }
 475:Drivers/CMSIS/DSP/Source/FilteringFunctions/arm_conv_fast_q31.c ****   }
 476:Drivers/CMSIS/DSP/Source/FilteringFunctions/arm_conv_fast_q31.c **** 
 477:Drivers/CMSIS/DSP/Source/FilteringFunctions/arm_conv_fast_q31.c **** 
 478:Drivers/CMSIS/DSP/Source/FilteringFunctions/arm_conv_fast_q31.c ****   /* --------------------------
 479:Drivers/CMSIS/DSP/Source/FilteringFunctions/arm_conv_fast_q31.c ****    * Initializations of stage3
 480:Drivers/CMSIS/DSP/Source/FilteringFunctions/arm_conv_fast_q31.c ****    * -------------------------*/
 481:Drivers/CMSIS/DSP/Source/FilteringFunctions/arm_conv_fast_q31.c **** 
 482:Drivers/CMSIS/DSP/Source/FilteringFunctions/arm_conv_fast_q31.c ****   /* sum += x[srcALen-srcBLen+1] * y[srcBLen-1] + x[srcALen-srcBLen+2] * y[srcBLen-2] +...+ x[srcAL
 483:Drivers/CMSIS/DSP/Source/FilteringFunctions/arm_conv_fast_q31.c ****    * sum += x[srcALen-srcBLen+2] * y[srcBLen-1] + x[srcALen-srcBLen+3] * y[srcBLen-2] +...+ x[srcAL
 484:Drivers/CMSIS/DSP/Source/FilteringFunctions/arm_conv_fast_q31.c ****    * ....
 485:Drivers/CMSIS/DSP/Source/FilteringFunctions/arm_conv_fast_q31.c ****    * sum +=  x[srcALen-2] * y[srcBLen-1] + x[srcALen-1] * y[srcBLen-2]
 486:Drivers/CMSIS/DSP/Source/FilteringFunctions/arm_conv_fast_q31.c ****    * sum +=  x[srcALen-1] * y[srcBLen-1]
 487:Drivers/CMSIS/DSP/Source/FilteringFunctions/arm_conv_fast_q31.c ****    */
 488:Drivers/CMSIS/DSP/Source/FilteringFunctions/arm_conv_fast_q31.c **** 
 489:Drivers/CMSIS/DSP/Source/FilteringFunctions/arm_conv_fast_q31.c ****   /* In this stage the MAC operations are decreased by 1 for every iteration.
 490:Drivers/CMSIS/DSP/Source/FilteringFunctions/arm_conv_fast_q31.c ****      The blockSize3 variable holds the number of MAC operations performed */
 491:Drivers/CMSIS/DSP/Source/FilteringFunctions/arm_conv_fast_q31.c **** 
 492:Drivers/CMSIS/DSP/Source/FilteringFunctions/arm_conv_fast_q31.c ****   /* Working pointer of inputA */
 493:Drivers/CMSIS/DSP/Source/FilteringFunctions/arm_conv_fast_q31.c ****   pSrc1 = (pIn1 + srcALen) - (srcBLen - 1U);
 965              		.loc 1 493 3 is_stmt 1 view .LVU356
 966              		.loc 1 493 9 is_stmt 0 view .LVU357
 967 0456 059B     		ldr	r3, [sp, #20]
 968 0458 03EB8900 		add	r0, r3, r9, lsl #2
 969              	.LVL151:
 494:Drivers/CMSIS/DSP/Source/FilteringFunctions/arm_conv_fast_q31.c ****   px = pSrc1;
 970              		.loc 1 494 3 is_stmt 1 view .LVU358
 495:Drivers/CMSIS/DSP/Source/FilteringFunctions/arm_conv_fast_q31.c **** 
 496:Drivers/CMSIS/DSP/Source/FilteringFunctions/arm_conv_fast_q31.c ****   /* Working pointer of inputB */
 497:Drivers/CMSIS/DSP/Source/FilteringFunctions/arm_conv_fast_q31.c ****   pSrc2 = pIn2 + (srcBLen - 1U);
 971              		.loc 1 497 3 view .LVU359
 498:Drivers/CMSIS/DSP/Source/FilteringFunctions/arm_conv_fast_q31.c ****   py = pSrc2;
 972              		.loc 1 498 3 view .LVU360
 499:Drivers/CMSIS/DSP/Source/FilteringFunctions/arm_conv_fast_q31.c **** 
 500:Drivers/CMSIS/DSP/Source/FilteringFunctions/arm_conv_fast_q31.c ****   /* -------------------
 501:Drivers/CMSIS/DSP/Source/FilteringFunctions/arm_conv_fast_q31.c ****    * Stage3 process
 502:Drivers/CMSIS/DSP/Source/FilteringFunctions/arm_conv_fast_q31.c ****    * ------------------*/
 503:Drivers/CMSIS/DSP/Source/FilteringFunctions/arm_conv_fast_q31.c **** 
 504:Drivers/CMSIS/DSP/Source/FilteringFunctions/arm_conv_fast_q31.c ****   while (blockSize3 > 0U)
 973              		.loc 1 504 3 view .LVU361
 974 045c A146     		mov	r9, r4
 975              		.loc 1 504 9 is_stmt 0 view .LVU362
 976 045e 82E0     		b	.L24
 977              	.LVL152:
 978              	.L22:
 455:Drivers/CMSIS/DSP/Source/FilteringFunctions/arm_conv_fast_q31.c ****                         ((q63_t) * px++ * (*py--))) >> 32);
 979              		.loc 1 455 9 is_stmt 1 view .LVU363
 456:Drivers/CMSIS/DSP/Source/FilteringFunctions/arm_conv_fast_q31.c **** 
 980              		.loc 1 456 34 is_stmt 0 view .LVU364
 981 0460 58F804AB 		ldr	r10, [r8], #4
 982              	.LVL153:
ARM GAS  /tmp/ccYf7o5c.s 			page 30


 456:Drivers/CMSIS/DSP/Source/FilteringFunctions/arm_conv_fast_q31.c **** 
 983              		.loc 1 456 26 view .LVU365
 984 0464 4FEAEA7B 		asr	fp, r10, #31
 985              	.LVL154:
 456:Drivers/CMSIS/DSP/Source/FilteringFunctions/arm_conv_fast_q31.c **** 
 986              		.loc 1 456 44 view .LVU366
 987 0468 57F80459 		ldr	r5, [r7], #-4
 988              	.LVL155:
 456:Drivers/CMSIS/DSP/Source/FilteringFunctions/arm_conv_fast_q31.c **** 
 989              		.loc 1 456 44 view .LVU367
 990 046c EB17     		asrs	r3, r5, #31
 456:Drivers/CMSIS/DSP/Source/FilteringFunctions/arm_conv_fast_q31.c **** 
 991              		.loc 1 456 41 view .LVU368
 992 046e 0AFB03F3 		mul	r3, r10, r3
 993 0472 05FB0B33 		mla	r3, r5, fp, r3
 994 0476 AAFB05A5 		umull	r10, r5, r10, r5
 995 047a 2B44     		add	r3, r3, r5
 455:Drivers/CMSIS/DSP/Source/FilteringFunctions/arm_conv_fast_q31.c ****                         ((q63_t) * px++ * (*py--))) >> 32);
 996              		.loc 1 455 13 view .LVU369
 997 047c 9C44     		add	ip, ip, r3
 998              	.LVL156:
 459:Drivers/CMSIS/DSP/Source/FilteringFunctions/arm_conv_fast_q31.c ****       }
 999              		.loc 1 459 9 is_stmt 1 view .LVU370
 459:Drivers/CMSIS/DSP/Source/FilteringFunctions/arm_conv_fast_q31.c ****       }
 1000              		.loc 1 459 10 is_stmt 0 view .LVU371
 1001 047e 0139     		subs	r1, r1, #1
 1002              	.LVL157:
 1003              	.L23:
 452:Drivers/CMSIS/DSP/Source/FilteringFunctions/arm_conv_fast_q31.c ****       {
 1004              		.loc 1 452 16 is_stmt 1 view .LVU372
 1005 0480 0029     		cmp	r1, #0
 1006 0482 EDD1     		bne	.L22
 463:Drivers/CMSIS/DSP/Source/FilteringFunctions/arm_conv_fast_q31.c **** 
 1007              		.loc 1 463 7 view .LVU373
 1008              	.LVL158:
 463:Drivers/CMSIS/DSP/Source/FilteringFunctions/arm_conv_fast_q31.c **** 
 1009              		.loc 1 463 21 is_stmt 0 view .LVU374
 1010 0484 4FEA4C03 		lsl	r3, ip, #1
 463:Drivers/CMSIS/DSP/Source/FilteringFunctions/arm_conv_fast_q31.c **** 
 1011              		.loc 1 463 15 view .LVU375
 1012 0488 44F8043B 		str	r3, [r4], #4
 1013              	.LVL159:
 466:Drivers/CMSIS/DSP/Source/FilteringFunctions/arm_conv_fast_q31.c **** 
 1014              		.loc 1 466 7 is_stmt 1 view .LVU376
 466:Drivers/CMSIS/DSP/Source/FilteringFunctions/arm_conv_fast_q31.c **** 
 1015              		.loc 1 466 12 is_stmt 0 view .LVU377
 1016 048c 0130     		adds	r0, r0, #1
 1017              	.LVL160:
 469:Drivers/CMSIS/DSP/Source/FilteringFunctions/arm_conv_fast_q31.c ****       py = pSrc2;
 1018              		.loc 1 469 7 is_stmt 1 view .LVU378
 469:Drivers/CMSIS/DSP/Source/FilteringFunctions/arm_conv_fast_q31.c ****       py = pSrc2;
 1019              		.loc 1 469 10 is_stmt 0 view .LVU379
 1020 048e 0EEB8005 		add	r5, lr, r0, lsl #2
 1021              	.LVL161:
 470:Drivers/CMSIS/DSP/Source/FilteringFunctions/arm_conv_fast_q31.c **** 
 1022              		.loc 1 470 7 is_stmt 1 view .LVU380
 473:Drivers/CMSIS/DSP/Source/FilteringFunctions/arm_conv_fast_q31.c ****     }
ARM GAS  /tmp/ccYf7o5c.s 			page 31


 1023              		.loc 1 473 7 view .LVU381
 473:Drivers/CMSIS/DSP/Source/FilteringFunctions/arm_conv_fast_q31.c ****     }
 1024              		.loc 1 473 13 is_stmt 0 view .LVU382
 1025 0492 013E     		subs	r6, r6, #1
 1026              	.LVL162:
 1027              	.L9:
 444:Drivers/CMSIS/DSP/Source/FilteringFunctions/arm_conv_fast_q31.c ****     {
 1028              		.loc 1 444 19 is_stmt 1 view .LVU383
 1029 0494 002E     		cmp	r6, #0
 1030 0496 DED0     		beq	.L21
 450:Drivers/CMSIS/DSP/Source/FilteringFunctions/arm_conv_fast_q31.c **** 
 1031              		.loc 1 450 9 is_stmt 0 view .LVU384
 1032 0498 0499     		ldr	r1, [sp, #16]
 1033 049a 039F     		ldr	r7, [sp, #12]
 447:Drivers/CMSIS/DSP/Source/FilteringFunctions/arm_conv_fast_q31.c **** 
 1034              		.loc 1 447 11 view .LVU385
 1035 049c 4FF0000C 		mov	ip, #0
 1036 04a0 A846     		mov	r8, r5
 1037 04a2 EDE7     		b	.L23
 1038              	.LVL163:
 1039              	.L30:
 221:Drivers/CMSIS/DSP/Source/FilteringFunctions/arm_conv_fast_q31.c **** 
 1040              		.loc 1 221 6 view .LVU386
 1041 04a4 DDF814E0 		ldr	lr, [sp, #20]
 1042              	.LVL164:
 221:Drivers/CMSIS/DSP/Source/FilteringFunctions/arm_conv_fast_q31.c **** 
 1043              		.loc 1 221 6 view .LVU387
 1044 04a8 7546     		mov	r5, lr
 1045 04aa 4E46     		mov	r6, r9
 1046 04ac F2E7     		b	.L9
 1047              	.LVL165:
 1048              	.L26:
 505:Drivers/CMSIS/DSP/Source/FilteringFunctions/arm_conv_fast_q31.c ****   {
 506:Drivers/CMSIS/DSP/Source/FilteringFunctions/arm_conv_fast_q31.c ****     /* Accumulator is made zero for every iteration */
 507:Drivers/CMSIS/DSP/Source/FilteringFunctions/arm_conv_fast_q31.c ****     sum = 0;
 508:Drivers/CMSIS/DSP/Source/FilteringFunctions/arm_conv_fast_q31.c **** 
 509:Drivers/CMSIS/DSP/Source/FilteringFunctions/arm_conv_fast_q31.c ****     /* Apply loop unrolling and compute 4 MACs simultaneously. */
 510:Drivers/CMSIS/DSP/Source/FilteringFunctions/arm_conv_fast_q31.c ****     k = blockSize3 >> 2U;
 511:Drivers/CMSIS/DSP/Source/FilteringFunctions/arm_conv_fast_q31.c **** 
 512:Drivers/CMSIS/DSP/Source/FilteringFunctions/arm_conv_fast_q31.c ****     /* First part of the processing with loop unrolling.  Compute 4 MACs at a time.
 513:Drivers/CMSIS/DSP/Source/FilteringFunctions/arm_conv_fast_q31.c ****      ** a second loop below computes MACs for the remaining 1 to 3 samples. */
 514:Drivers/CMSIS/DSP/Source/FilteringFunctions/arm_conv_fast_q31.c ****     while (k > 0U)
 515:Drivers/CMSIS/DSP/Source/FilteringFunctions/arm_conv_fast_q31.c ****     {
 516:Drivers/CMSIS/DSP/Source/FilteringFunctions/arm_conv_fast_q31.c ****       /* sum += x[srcALen - srcBLen + 1] * y[srcBLen - 1] */
 517:Drivers/CMSIS/DSP/Source/FilteringFunctions/arm_conv_fast_q31.c ****       sum = (q31_t) ((((q63_t) sum << 32) +
 1049              		.loc 1 517 7 is_stmt 1 view .LVU388
 518:Drivers/CMSIS/DSP/Source/FilteringFunctions/arm_conv_fast_q31.c ****                       ((q63_t) * px++ * (*py--))) >> 32);
 1050              		.loc 1 518 32 is_stmt 0 view .LVU389
 1051 04ae D5F800E0 		ldr	lr, [r5]
 1052              		.loc 1 518 24 view .LVU390
 1053 04b2 4FEAEE78 		asr	r8, lr, #31
 1054              	.LVL166:
 1055              		.loc 1 518 42 view .LVU391
 1056 04b6 3468     		ldr	r4, [r6]
 1057 04b8 E317     		asrs	r3, r4, #31
 1058              		.loc 1 518 39 view .LVU392
 1059 04ba 0EFB03F3 		mul	r3, lr, r3
ARM GAS  /tmp/ccYf7o5c.s 			page 32


 1060 04be 04FB0833 		mla	r3, r4, r8, r3
 1061 04c2 AEFB04EC 		umull	lr, ip, lr, r4
 1062 04c6 6344     		add	r3, r3, ip
 517:Drivers/CMSIS/DSP/Source/FilteringFunctions/arm_conv_fast_q31.c ****                       ((q63_t) * px++ * (*py--))) >> 32);
 1063              		.loc 1 517 43 view .LVU393
 1064 04c8 0B44     		add	r3, r3, r1
 1065              	.LVL167:
 519:Drivers/CMSIS/DSP/Source/FilteringFunctions/arm_conv_fast_q31.c **** 
 520:Drivers/CMSIS/DSP/Source/FilteringFunctions/arm_conv_fast_q31.c ****       /* sum += x[srcALen - srcBLen + 2] * y[srcBLen - 2] */
 521:Drivers/CMSIS/DSP/Source/FilteringFunctions/arm_conv_fast_q31.c ****       sum = (q31_t) ((((q63_t) sum << 32) +
 1066              		.loc 1 521 7 is_stmt 1 view .LVU394
 522:Drivers/CMSIS/DSP/Source/FilteringFunctions/arm_conv_fast_q31.c ****                       ((q63_t) * px++ * (*py--))) >> 32);
 1067              		.loc 1 522 32 is_stmt 0 view .LVU395
 1068 04ca D5F804E0 		ldr	lr, [r5, #4]
 1069              		.loc 1 522 24 view .LVU396
 1070 04ce 4FEAEE78 		asr	r8, lr, #31
 1071              	.LVL168:
 1072              		.loc 1 522 42 view .LVU397
 1073 04d2 56F8044C 		ldr	r4, [r6, #-4]
 1074 04d6 E117     		asrs	r1, r4, #31
 1075              		.loc 1 522 39 view .LVU398
 1076 04d8 0EFB01F1 		mul	r1, lr, r1
 1077 04dc 04FB0811 		mla	r1, r4, r8, r1
 1078 04e0 AEFB04EC 		umull	lr, ip, lr, r4
 1079 04e4 6144     		add	r1, r1, ip
 521:Drivers/CMSIS/DSP/Source/FilteringFunctions/arm_conv_fast_q31.c ****                       ((q63_t) * px++ * (*py--))) >> 32);
 1080              		.loc 1 521 43 view .LVU399
 1081 04e6 0B44     		add	r3, r3, r1
 523:Drivers/CMSIS/DSP/Source/FilteringFunctions/arm_conv_fast_q31.c **** 
 524:Drivers/CMSIS/DSP/Source/FilteringFunctions/arm_conv_fast_q31.c ****       /* sum += x[srcALen - srcBLen + 3] * y[srcBLen - 3] */
 525:Drivers/CMSIS/DSP/Source/FilteringFunctions/arm_conv_fast_q31.c ****       sum = (q31_t) ((((q63_t) sum << 32) +
 1082              		.loc 1 525 7 is_stmt 1 view .LVU400
 1083              	.LVL169:
 526:Drivers/CMSIS/DSP/Source/FilteringFunctions/arm_conv_fast_q31.c ****                       ((q63_t) * px++ * (*py--))) >> 32);
 1084              		.loc 1 526 32 is_stmt 0 view .LVU401
 1085 04e8 D5F808E0 		ldr	lr, [r5, #8]
 1086              		.loc 1 526 24 view .LVU402
 1087 04ec 4FEAEE78 		asr	r8, lr, #31
 1088              	.LVL170:
 1089              		.loc 1 526 42 view .LVU403
 1090 04f0 56F8084C 		ldr	r4, [r6, #-8]
 1091 04f4 E117     		asrs	r1, r4, #31
 1092              		.loc 1 526 39 view .LVU404
 1093 04f6 0EFB01F1 		mul	r1, lr, r1
 1094 04fa 04FB0811 		mla	r1, r4, r8, r1
 1095 04fe AEFB04EC 		umull	lr, ip, lr, r4
 1096 0502 6144     		add	r1, r1, ip
 525:Drivers/CMSIS/DSP/Source/FilteringFunctions/arm_conv_fast_q31.c ****                       ((q63_t) * px++ * (*py--))) >> 32);
 1097              		.loc 1 525 43 view .LVU405
 1098 0504 0B44     		add	r3, r3, r1
 527:Drivers/CMSIS/DSP/Source/FilteringFunctions/arm_conv_fast_q31.c **** 
 528:Drivers/CMSIS/DSP/Source/FilteringFunctions/arm_conv_fast_q31.c ****       /* sum += x[srcALen - srcBLen + 4] * y[srcBLen - 4] */
 529:Drivers/CMSIS/DSP/Source/FilteringFunctions/arm_conv_fast_q31.c ****       sum = (q31_t) ((((q63_t) sum << 32) +
 1099              		.loc 1 529 7 is_stmt 1 view .LVU406
 1100              	.LVL171:
 530:Drivers/CMSIS/DSP/Source/FilteringFunctions/arm_conv_fast_q31.c ****                       ((q63_t) * px++ * (*py--))) >> 32);
 1101              		.loc 1 530 32 is_stmt 0 view .LVU407
ARM GAS  /tmp/ccYf7o5c.s 			page 33


 1102 0506 D5F80CE0 		ldr	lr, [r5, #12]
 1103              		.loc 1 530 24 view .LVU408
 1104 050a 4FEAEE78 		asr	r8, lr, #31
 1105              	.LVL172:
 1106              		.loc 1 530 42 view .LVU409
 1107 050e 56F80C4C 		ldr	r4, [r6, #-12]
 1108 0512 E117     		asrs	r1, r4, #31
 1109              		.loc 1 530 39 view .LVU410
 1110 0514 0EFB01F1 		mul	r1, lr, r1
 1111 0518 04FB0811 		mla	r1, r4, r8, r1
 1112 051c AEFB04EC 		umull	lr, ip, lr, r4
 1113 0520 6144     		add	r1, r1, ip
 529:Drivers/CMSIS/DSP/Source/FilteringFunctions/arm_conv_fast_q31.c ****                       ((q63_t) * px++ * (*py--))) >> 32);
 1114              		.loc 1 529 11 view .LVU411
 1115 0522 1944     		add	r1, r1, r3
 1116              	.LVL173:
 531:Drivers/CMSIS/DSP/Source/FilteringFunctions/arm_conv_fast_q31.c **** 
 532:Drivers/CMSIS/DSP/Source/FilteringFunctions/arm_conv_fast_q31.c ****       /* Decrement the loop counter */
 533:Drivers/CMSIS/DSP/Source/FilteringFunctions/arm_conv_fast_q31.c ****       k--;
 1117              		.loc 1 533 7 is_stmt 1 view .LVU412
 1118              		.loc 1 533 8 is_stmt 0 view .LVU413
 1119 0524 013F     		subs	r7, r7, #1
 1120              	.LVL174:
 530:Drivers/CMSIS/DSP/Source/FilteringFunctions/arm_conv_fast_q31.c **** 
 1121              		.loc 1 530 45 view .LVU414
 1122 0526 103E     		subs	r6, r6, #16
 1123              	.LVL175:
 530:Drivers/CMSIS/DSP/Source/FilteringFunctions/arm_conv_fast_q31.c **** 
 1124              		.loc 1 530 36 view .LVU415
 1125 0528 1035     		adds	r5, r5, #16
 1126              	.LVL176:
 1127              	.L25:
 514:Drivers/CMSIS/DSP/Source/FilteringFunctions/arm_conv_fast_q31.c ****     {
 1128              		.loc 1 514 14 is_stmt 1 view .LVU416
 1129 052a 002F     		cmp	r7, #0
 1130 052c BFD1     		bne	.L26
 534:Drivers/CMSIS/DSP/Source/FilteringFunctions/arm_conv_fast_q31.c ****     }
 535:Drivers/CMSIS/DSP/Source/FilteringFunctions/arm_conv_fast_q31.c **** 
 536:Drivers/CMSIS/DSP/Source/FilteringFunctions/arm_conv_fast_q31.c ****     /* If the blockSize3 is not a multiple of 4, compute any remaining MACs here.
 537:Drivers/CMSIS/DSP/Source/FilteringFunctions/arm_conv_fast_q31.c ****      ** No loop unrolling is used. */
 538:Drivers/CMSIS/DSP/Source/FilteringFunctions/arm_conv_fast_q31.c ****     k = blockSize3 % 0x4U;
 1131              		.loc 1 538 5 view .LVU417
 1132              		.loc 1 538 7 is_stmt 0 view .LVU418
 1133 052e 02F00304 		and	r4, r2, #3
 1134              	.LVL177:
 539:Drivers/CMSIS/DSP/Source/FilteringFunctions/arm_conv_fast_q31.c **** 
 540:Drivers/CMSIS/DSP/Source/FilteringFunctions/arm_conv_fast_q31.c ****     while (k > 0U)
 1135              		.loc 1 540 5 is_stmt 1 view .LVU419
 1136              		.loc 1 540 11 is_stmt 0 view .LVU420
 1137 0532 0FE0     		b	.L27
 1138              	.L28:
 541:Drivers/CMSIS/DSP/Source/FilteringFunctions/arm_conv_fast_q31.c ****     {
 542:Drivers/CMSIS/DSP/Source/FilteringFunctions/arm_conv_fast_q31.c ****       /* Perform the multiply-accumulate */
 543:Drivers/CMSIS/DSP/Source/FilteringFunctions/arm_conv_fast_q31.c ****       sum = (q31_t) ((((q63_t) sum << 32) +
 1139              		.loc 1 543 7 is_stmt 1 view .LVU421
 1140              	.LVL178:
 544:Drivers/CMSIS/DSP/Source/FilteringFunctions/arm_conv_fast_q31.c ****                       ((q63_t) * px++ * (*py--))) >> 32);
ARM GAS  /tmp/ccYf7o5c.s 			page 34


 1141              		.loc 1 544 32 is_stmt 0 view .LVU422
 1142 0534 55F804CB 		ldr	ip, [r5], #4
 1143              	.LVL179:
 1144              		.loc 1 544 24 view .LVU423
 1145 0538 4FEAEC78 		asr	r8, ip, #31
 1146              	.LVL180:
 1147              		.loc 1 544 42 view .LVU424
 1148 053c 56F80479 		ldr	r7, [r6], #-4
 1149              	.LVL181:
 1150              		.loc 1 544 42 view .LVU425
 1151 0540 FB17     		asrs	r3, r7, #31
 1152              		.loc 1 544 39 view .LVU426
 1153 0542 0CFB03F3 		mul	r3, ip, r3
 1154 0546 07FB0833 		mla	r3, r7, r8, r3
 1155 054a ACFB07C7 		umull	ip, r7, ip, r7
 1156 054e 3B44     		add	r3, r3, r7
 543:Drivers/CMSIS/DSP/Source/FilteringFunctions/arm_conv_fast_q31.c ****                       ((q63_t) * px++ * (*py--))) >> 32);
 1157              		.loc 1 543 11 view .LVU427
 1158 0550 1944     		add	r1, r1, r3
 1159              	.LVL182:
 545:Drivers/CMSIS/DSP/Source/FilteringFunctions/arm_conv_fast_q31.c **** 
 546:Drivers/CMSIS/DSP/Source/FilteringFunctions/arm_conv_fast_q31.c ****       /* Decrement the loop counter */
 547:Drivers/CMSIS/DSP/Source/FilteringFunctions/arm_conv_fast_q31.c ****       k--;
 1160              		.loc 1 547 7 is_stmt 1 view .LVU428
 1161              		.loc 1 547 8 is_stmt 0 view .LVU429
 1162 0552 013C     		subs	r4, r4, #1
 1163              	.LVL183:
 1164              	.L27:
 540:Drivers/CMSIS/DSP/Source/FilteringFunctions/arm_conv_fast_q31.c ****     {
 1165              		.loc 1 540 14 is_stmt 1 view .LVU430
 1166 0554 002C     		cmp	r4, #0
 1167 0556 EDD1     		bne	.L28
 548:Drivers/CMSIS/DSP/Source/FilteringFunctions/arm_conv_fast_q31.c ****     }
 549:Drivers/CMSIS/DSP/Source/FilteringFunctions/arm_conv_fast_q31.c **** 
 550:Drivers/CMSIS/DSP/Source/FilteringFunctions/arm_conv_fast_q31.c ****     /* Store the result in the accumulator in the destination buffer. */
 551:Drivers/CMSIS/DSP/Source/FilteringFunctions/arm_conv_fast_q31.c ****     *pOut++ = sum << 1;
 1168              		.loc 1 551 5 view .LVU431
 1169              		.loc 1 551 10 is_stmt 0 view .LVU432
 1170 0558 4C46     		mov	r4, r9
 1171              	.LVL184:
 1172              		.loc 1 551 19 view .LVU433
 1173 055a 4900     		lsls	r1, r1, #1
 1174              	.LVL185:
 1175              		.loc 1 551 13 view .LVU434
 1176 055c 44F8041B 		str	r1, [r4], #4
 1177              	.LVL186:
 552:Drivers/CMSIS/DSP/Source/FilteringFunctions/arm_conv_fast_q31.c **** 
 553:Drivers/CMSIS/DSP/Source/FilteringFunctions/arm_conv_fast_q31.c ****     /* Update the inputA and inputB pointers for next MAC calculation */
 554:Drivers/CMSIS/DSP/Source/FilteringFunctions/arm_conv_fast_q31.c ****     px = ++pSrc1;
 1178              		.loc 1 554 5 is_stmt 1 view .LVU435
 1179              		.loc 1 554 8 is_stmt 0 view .LVU436
 1180 0560 0430     		adds	r0, r0, #4
 1181              	.LVL187:
 555:Drivers/CMSIS/DSP/Source/FilteringFunctions/arm_conv_fast_q31.c ****     py = pSrc2;
 1182              		.loc 1 555 5 is_stmt 1 view .LVU437
 556:Drivers/CMSIS/DSP/Source/FilteringFunctions/arm_conv_fast_q31.c **** 
 557:Drivers/CMSIS/DSP/Source/FilteringFunctions/arm_conv_fast_q31.c ****     /* Decrement the loop counter */
ARM GAS  /tmp/ccYf7o5c.s 			page 35


 558:Drivers/CMSIS/DSP/Source/FilteringFunctions/arm_conv_fast_q31.c ****     blockSize3--;
 1183              		.loc 1 558 5 view .LVU438
 1184              		.loc 1 558 15 is_stmt 0 view .LVU439
 1185 0562 013A     		subs	r2, r2, #1
 1186              	.LVL188:
 551:Drivers/CMSIS/DSP/Source/FilteringFunctions/arm_conv_fast_q31.c **** 
 1187              		.loc 1 551 10 view .LVU440
 1188 0564 A146     		mov	r9, r4
 1189              	.LVL189:
 1190              	.L24:
 504:Drivers/CMSIS/DSP/Source/FilteringFunctions/arm_conv_fast_q31.c ****   {
 1191              		.loc 1 504 21 is_stmt 1 view .LVU441
 1192 0566 22B1     		cbz	r2, .L36
 507:Drivers/CMSIS/DSP/Source/FilteringFunctions/arm_conv_fast_q31.c **** 
 1193              		.loc 1 507 5 view .LVU442
 1194              	.LVL190:
 510:Drivers/CMSIS/DSP/Source/FilteringFunctions/arm_conv_fast_q31.c **** 
 1195              		.loc 1 510 5 view .LVU443
 510:Drivers/CMSIS/DSP/Source/FilteringFunctions/arm_conv_fast_q31.c **** 
 1196              		.loc 1 510 7 is_stmt 0 view .LVU444
 1197 0568 9708     		lsrs	r7, r2, #2
 1198              	.LVL191:
 514:Drivers/CMSIS/DSP/Source/FilteringFunctions/arm_conv_fast_q31.c ****     {
 1199              		.loc 1 514 5 is_stmt 1 view .LVU445
 514:Drivers/CMSIS/DSP/Source/FilteringFunctions/arm_conv_fast_q31.c ****     {
 1200              		.loc 1 514 11 is_stmt 0 view .LVU446
 1201 056a 039E     		ldr	r6, [sp, #12]
 1202 056c 0546     		mov	r5, r0
 507:Drivers/CMSIS/DSP/Source/FilteringFunctions/arm_conv_fast_q31.c **** 
 1203              		.loc 1 507 9 view .LVU447
 1204 056e 0021     		movs	r1, #0
 514:Drivers/CMSIS/DSP/Source/FilteringFunctions/arm_conv_fast_q31.c ****     {
 1205              		.loc 1 514 11 view .LVU448
 1206 0570 DBE7     		b	.L25
 1207              	.LVL192:
 1208              	.L36:
 559:Drivers/CMSIS/DSP/Source/FilteringFunctions/arm_conv_fast_q31.c ****   }
 560:Drivers/CMSIS/DSP/Source/FilteringFunctions/arm_conv_fast_q31.c **** 
 561:Drivers/CMSIS/DSP/Source/FilteringFunctions/arm_conv_fast_q31.c **** }
 1209              		.loc 1 561 1 view .LVU449
 1210 0572 0BB0     		add	sp, sp, #44
 1211              	.LCFI2:
 1212              		.cfi_def_cfa_offset 36
 1213              		@ sp needed
 1214 0574 BDE8F08F 		pop	{r4, r5, r6, r7, r8, r9, r10, fp, pc}
 1215              		.loc 1 561 1 view .LVU450
 1216              		.cfi_endproc
 1217              	.LFE135:
 1219              		.text
 1220              	.Letext0:
 1221              		.file 2 "/usr/arm-none-eabi/include/machine/_default_types.h"
 1222              		.file 3 "/usr/arm-none-eabi/include/sys/_stdint.h"
 1223              		.file 4 "Drivers/CMSIS/DSP/Include/arm_math.h"
ARM GAS  /tmp/ccYf7o5c.s 			page 36

