ARM GAS  /tmp/ccbF8xSv.s 			page 1


   1              		.cpu cortex-m7
   2              		.arch armv7e-m
   3              		.fpu fpv5-sp-d16
   4              		.eabi_attribute 27, 1
   5              		.eabi_attribute 28, 1
   6              		.eabi_attribute 20, 1
   7              		.eabi_attribute 21, 1
   8              		.eabi_attribute 23, 3
   9              		.eabi_attribute 24, 1
  10              		.eabi_attribute 25, 1
  11              		.eabi_attribute 26, 1
  12              		.eabi_attribute 30, 1
  13              		.eabi_attribute 34, 1
  14              		.eabi_attribute 18, 4
  15              		.file	"arm_float_to_q15.c"
  16              		.text
  17              	.Ltext0:
  18              		.cfi_sections	.debug_frame
  19              		.file 1 "Drivers/CMSIS/DSP/Source/SupportFunctions/arm_float_to_q15.c"
  20              		.section	.text.arm_float_to_q15,"ax",%progbits
  21              		.align	1
  22              		.global	arm_float_to_q15
  23              		.syntax unified
  24              		.thumb
  25              		.thumb_func
  27              	arm_float_to_q15:
  28              	.LVL0:
  29              	.LFB135:
   1:Drivers/CMSIS/DSP/Source/SupportFunctions/arm_float_to_q15.c **** /* ----------------------------------------------------------------------
   2:Drivers/CMSIS/DSP/Source/SupportFunctions/arm_float_to_q15.c ****  * Project:      CMSIS DSP Library
   3:Drivers/CMSIS/DSP/Source/SupportFunctions/arm_float_to_q15.c ****  * Title:        arm_float_to_q15.c
   4:Drivers/CMSIS/DSP/Source/SupportFunctions/arm_float_to_q15.c ****  * Description:  Converts the elements of the floating-point vector to Q15 vector
   5:Drivers/CMSIS/DSP/Source/SupportFunctions/arm_float_to_q15.c ****  *
   6:Drivers/CMSIS/DSP/Source/SupportFunctions/arm_float_to_q15.c ****  * $Date:        27. January 2017
   7:Drivers/CMSIS/DSP/Source/SupportFunctions/arm_float_to_q15.c ****  * $Revision:    V.1.5.1
   8:Drivers/CMSIS/DSP/Source/SupportFunctions/arm_float_to_q15.c ****  *
   9:Drivers/CMSIS/DSP/Source/SupportFunctions/arm_float_to_q15.c ****  * Target Processor: Cortex-M cores
  10:Drivers/CMSIS/DSP/Source/SupportFunctions/arm_float_to_q15.c ****  * -------------------------------------------------------------------- */
  11:Drivers/CMSIS/DSP/Source/SupportFunctions/arm_float_to_q15.c **** /*
  12:Drivers/CMSIS/DSP/Source/SupportFunctions/arm_float_to_q15.c ****  * Copyright (C) 2010-2017 ARM Limited or its affiliates. All rights reserved.
  13:Drivers/CMSIS/DSP/Source/SupportFunctions/arm_float_to_q15.c ****  *
  14:Drivers/CMSIS/DSP/Source/SupportFunctions/arm_float_to_q15.c ****  * SPDX-License-Identifier: Apache-2.0
  15:Drivers/CMSIS/DSP/Source/SupportFunctions/arm_float_to_q15.c ****  *
  16:Drivers/CMSIS/DSP/Source/SupportFunctions/arm_float_to_q15.c ****  * Licensed under the Apache License, Version 2.0 (the License); you may
  17:Drivers/CMSIS/DSP/Source/SupportFunctions/arm_float_to_q15.c ****  * not use this file except in compliance with the License.
  18:Drivers/CMSIS/DSP/Source/SupportFunctions/arm_float_to_q15.c ****  * You may obtain a copy of the License at
  19:Drivers/CMSIS/DSP/Source/SupportFunctions/arm_float_to_q15.c ****  *
  20:Drivers/CMSIS/DSP/Source/SupportFunctions/arm_float_to_q15.c ****  * www.apache.org/licenses/LICENSE-2.0
  21:Drivers/CMSIS/DSP/Source/SupportFunctions/arm_float_to_q15.c ****  *
  22:Drivers/CMSIS/DSP/Source/SupportFunctions/arm_float_to_q15.c ****  * Unless required by applicable law or agreed to in writing, software
  23:Drivers/CMSIS/DSP/Source/SupportFunctions/arm_float_to_q15.c ****  * distributed under the License is distributed on an AS IS BASIS, WITHOUT
  24:Drivers/CMSIS/DSP/Source/SupportFunctions/arm_float_to_q15.c ****  * WARRANTIES OR CONDITIONS OF ANY KIND, either express or implied.
  25:Drivers/CMSIS/DSP/Source/SupportFunctions/arm_float_to_q15.c ****  * See the License for the specific language governing permissions and
  26:Drivers/CMSIS/DSP/Source/SupportFunctions/arm_float_to_q15.c ****  * limitations under the License.
  27:Drivers/CMSIS/DSP/Source/SupportFunctions/arm_float_to_q15.c ****  */
  28:Drivers/CMSIS/DSP/Source/SupportFunctions/arm_float_to_q15.c **** 
  29:Drivers/CMSIS/DSP/Source/SupportFunctions/arm_float_to_q15.c **** #include "arm_math.h"
ARM GAS  /tmp/ccbF8xSv.s 			page 2


  30:Drivers/CMSIS/DSP/Source/SupportFunctions/arm_float_to_q15.c **** 
  31:Drivers/CMSIS/DSP/Source/SupportFunctions/arm_float_to_q15.c **** /**
  32:Drivers/CMSIS/DSP/Source/SupportFunctions/arm_float_to_q15.c ****  * @ingroup groupSupport
  33:Drivers/CMSIS/DSP/Source/SupportFunctions/arm_float_to_q15.c ****  */
  34:Drivers/CMSIS/DSP/Source/SupportFunctions/arm_float_to_q15.c **** 
  35:Drivers/CMSIS/DSP/Source/SupportFunctions/arm_float_to_q15.c **** /**
  36:Drivers/CMSIS/DSP/Source/SupportFunctions/arm_float_to_q15.c ****  * @addtogroup float_to_x
  37:Drivers/CMSIS/DSP/Source/SupportFunctions/arm_float_to_q15.c ****  * @{
  38:Drivers/CMSIS/DSP/Source/SupportFunctions/arm_float_to_q15.c ****  */
  39:Drivers/CMSIS/DSP/Source/SupportFunctions/arm_float_to_q15.c **** 
  40:Drivers/CMSIS/DSP/Source/SupportFunctions/arm_float_to_q15.c **** /**
  41:Drivers/CMSIS/DSP/Source/SupportFunctions/arm_float_to_q15.c ****  * @brief Converts the elements of the floating-point vector to Q15 vector.
  42:Drivers/CMSIS/DSP/Source/SupportFunctions/arm_float_to_q15.c ****  * @param[in]       *pSrc points to the floating-point input vector
  43:Drivers/CMSIS/DSP/Source/SupportFunctions/arm_float_to_q15.c ****  * @param[out]      *pDst points to the Q15 output vector
  44:Drivers/CMSIS/DSP/Source/SupportFunctions/arm_float_to_q15.c ****  * @param[in]       blockSize length of the input vector
  45:Drivers/CMSIS/DSP/Source/SupportFunctions/arm_float_to_q15.c ****  * @return none.
  46:Drivers/CMSIS/DSP/Source/SupportFunctions/arm_float_to_q15.c ****  *
  47:Drivers/CMSIS/DSP/Source/SupportFunctions/arm_float_to_q15.c ****  * \par Description:
  48:Drivers/CMSIS/DSP/Source/SupportFunctions/arm_float_to_q15.c ****  * \par
  49:Drivers/CMSIS/DSP/Source/SupportFunctions/arm_float_to_q15.c ****  * The equation used for the conversion process is:
  50:Drivers/CMSIS/DSP/Source/SupportFunctions/arm_float_to_q15.c ****  * <pre>
  51:Drivers/CMSIS/DSP/Source/SupportFunctions/arm_float_to_q15.c ****  * 	pDst[n] = (q15_t)(pSrc[n] * 32768);   0 <= n < blockSize.
  52:Drivers/CMSIS/DSP/Source/SupportFunctions/arm_float_to_q15.c ****  * </pre>
  53:Drivers/CMSIS/DSP/Source/SupportFunctions/arm_float_to_q15.c ****  * \par Scaling and Overflow Behavior:
  54:Drivers/CMSIS/DSP/Source/SupportFunctions/arm_float_to_q15.c ****  * \par
  55:Drivers/CMSIS/DSP/Source/SupportFunctions/arm_float_to_q15.c ****  * The function uses saturating arithmetic.
  56:Drivers/CMSIS/DSP/Source/SupportFunctions/arm_float_to_q15.c ****  * Results outside of the allowable Q15 range [0x8000 0x7FFF] will be saturated.
  57:Drivers/CMSIS/DSP/Source/SupportFunctions/arm_float_to_q15.c ****  * \note
  58:Drivers/CMSIS/DSP/Source/SupportFunctions/arm_float_to_q15.c ****  * In order to apply rounding, the library should be rebuilt with the ROUNDING macro
  59:Drivers/CMSIS/DSP/Source/SupportFunctions/arm_float_to_q15.c ****  * defined in the preprocessor section of project options.
  60:Drivers/CMSIS/DSP/Source/SupportFunctions/arm_float_to_q15.c ****  *
  61:Drivers/CMSIS/DSP/Source/SupportFunctions/arm_float_to_q15.c ****  */
  62:Drivers/CMSIS/DSP/Source/SupportFunctions/arm_float_to_q15.c **** 
  63:Drivers/CMSIS/DSP/Source/SupportFunctions/arm_float_to_q15.c **** 
  64:Drivers/CMSIS/DSP/Source/SupportFunctions/arm_float_to_q15.c **** void arm_float_to_q15(
  65:Drivers/CMSIS/DSP/Source/SupportFunctions/arm_float_to_q15.c ****   float32_t * pSrc,
  66:Drivers/CMSIS/DSP/Source/SupportFunctions/arm_float_to_q15.c ****   q15_t * pDst,
  67:Drivers/CMSIS/DSP/Source/SupportFunctions/arm_float_to_q15.c ****   uint32_t blockSize)
  68:Drivers/CMSIS/DSP/Source/SupportFunctions/arm_float_to_q15.c **** {
  30              		.loc 1 68 1 view -0
  31              		.cfi_startproc
  32              		@ args = 0, pretend = 0, frame = 0
  33              		@ frame_needed = 0, uses_anonymous_args = 0
  34              		@ link register save eliminated.
  35              		.loc 1 68 1 is_stmt 0 view .LVU1
  36 0000 10B4     		push	{r4}
  37              	.LCFI0:
  38              		.cfi_def_cfa_offset 4
  39              		.cfi_offset 4, -4
  69:Drivers/CMSIS/DSP/Source/SupportFunctions/arm_float_to_q15.c ****   float32_t *pIn = pSrc;                         /* Src pointer */
  40              		.loc 1 69 3 is_stmt 1 view .LVU2
  41              	.LVL1:
  70:Drivers/CMSIS/DSP/Source/SupportFunctions/arm_float_to_q15.c ****   uint32_t blkCnt;                               /* loop counter */
  42              		.loc 1 70 3 view .LVU3
  71:Drivers/CMSIS/DSP/Source/SupportFunctions/arm_float_to_q15.c **** 
  72:Drivers/CMSIS/DSP/Source/SupportFunctions/arm_float_to_q15.c **** #ifdef ARM_MATH_ROUNDING
  73:Drivers/CMSIS/DSP/Source/SupportFunctions/arm_float_to_q15.c **** 
ARM GAS  /tmp/ccbF8xSv.s 			page 3


  74:Drivers/CMSIS/DSP/Source/SupportFunctions/arm_float_to_q15.c ****   float32_t in;
  75:Drivers/CMSIS/DSP/Source/SupportFunctions/arm_float_to_q15.c **** 
  76:Drivers/CMSIS/DSP/Source/SupportFunctions/arm_float_to_q15.c **** #endif /*      #ifdef ARM_MATH_ROUNDING        */
  77:Drivers/CMSIS/DSP/Source/SupportFunctions/arm_float_to_q15.c **** 
  78:Drivers/CMSIS/DSP/Source/SupportFunctions/arm_float_to_q15.c **** #if defined (ARM_MATH_DSP)
  79:Drivers/CMSIS/DSP/Source/SupportFunctions/arm_float_to_q15.c **** 
  80:Drivers/CMSIS/DSP/Source/SupportFunctions/arm_float_to_q15.c ****   /* Run the below code for Cortex-M4 and Cortex-M3 */
  81:Drivers/CMSIS/DSP/Source/SupportFunctions/arm_float_to_q15.c **** 
  82:Drivers/CMSIS/DSP/Source/SupportFunctions/arm_float_to_q15.c ****   /*loop Unrolling */
  83:Drivers/CMSIS/DSP/Source/SupportFunctions/arm_float_to_q15.c ****   blkCnt = blockSize >> 2U;
  43              		.loc 1 83 3 view .LVU4
  44              		.loc 1 83 10 is_stmt 0 view .LVU5
  45 0002 9408     		lsrs	r4, r2, #2
  46              	.LVL2:
  84:Drivers/CMSIS/DSP/Source/SupportFunctions/arm_float_to_q15.c **** 
  85:Drivers/CMSIS/DSP/Source/SupportFunctions/arm_float_to_q15.c ****   /* First part of the processing with loop unrolling.  Compute 4 outputs at a time.
  86:Drivers/CMSIS/DSP/Source/SupportFunctions/arm_float_to_q15.c ****    ** a second loop below computes the remaining 1 to 3 samples. */
  87:Drivers/CMSIS/DSP/Source/SupportFunctions/arm_float_to_q15.c ****   while (blkCnt > 0U)
  47              		.loc 1 87 3 is_stmt 1 view .LVU6
  48              		.loc 1 87 9 is_stmt 0 view .LVU7
  49 0004 26E0     		b	.L2
  50              	.LVL3:
  51              	.L3:
  88:Drivers/CMSIS/DSP/Source/SupportFunctions/arm_float_to_q15.c ****   {
  89:Drivers/CMSIS/DSP/Source/SupportFunctions/arm_float_to_q15.c **** 
  90:Drivers/CMSIS/DSP/Source/SupportFunctions/arm_float_to_q15.c **** #ifdef ARM_MATH_ROUNDING
  91:Drivers/CMSIS/DSP/Source/SupportFunctions/arm_float_to_q15.c ****     /* C = A * 32768 */
  92:Drivers/CMSIS/DSP/Source/SupportFunctions/arm_float_to_q15.c ****     /* convert from float to q15 and then store the results in the destination buffer */
  93:Drivers/CMSIS/DSP/Source/SupportFunctions/arm_float_to_q15.c ****     in = *pIn++;
  94:Drivers/CMSIS/DSP/Source/SupportFunctions/arm_float_to_q15.c ****     in = (in * 32768.0f);
  95:Drivers/CMSIS/DSP/Source/SupportFunctions/arm_float_to_q15.c ****     in += in > 0.0f ? 0.5f : -0.5f;
  96:Drivers/CMSIS/DSP/Source/SupportFunctions/arm_float_to_q15.c ****     *pDst++ = (q15_t) (__SSAT((q31_t) (in), 16));
  97:Drivers/CMSIS/DSP/Source/SupportFunctions/arm_float_to_q15.c **** 
  98:Drivers/CMSIS/DSP/Source/SupportFunctions/arm_float_to_q15.c ****     in = *pIn++;
  99:Drivers/CMSIS/DSP/Source/SupportFunctions/arm_float_to_q15.c ****     in = (in * 32768.0f);
 100:Drivers/CMSIS/DSP/Source/SupportFunctions/arm_float_to_q15.c ****     in += in > 0.0f ? 0.5f : -0.5f;
 101:Drivers/CMSIS/DSP/Source/SupportFunctions/arm_float_to_q15.c ****     *pDst++ = (q15_t) (__SSAT((q31_t) (in), 16));
 102:Drivers/CMSIS/DSP/Source/SupportFunctions/arm_float_to_q15.c **** 
 103:Drivers/CMSIS/DSP/Source/SupportFunctions/arm_float_to_q15.c ****     in = *pIn++;
 104:Drivers/CMSIS/DSP/Source/SupportFunctions/arm_float_to_q15.c ****     in = (in * 32768.0f);
 105:Drivers/CMSIS/DSP/Source/SupportFunctions/arm_float_to_q15.c ****     in += in > 0.0f ? 0.5f : -0.5f;
 106:Drivers/CMSIS/DSP/Source/SupportFunctions/arm_float_to_q15.c ****     *pDst++ = (q15_t) (__SSAT((q31_t) (in), 16));
 107:Drivers/CMSIS/DSP/Source/SupportFunctions/arm_float_to_q15.c **** 
 108:Drivers/CMSIS/DSP/Source/SupportFunctions/arm_float_to_q15.c ****     in = *pIn++;
 109:Drivers/CMSIS/DSP/Source/SupportFunctions/arm_float_to_q15.c ****     in = (in * 32768.0f);
 110:Drivers/CMSIS/DSP/Source/SupportFunctions/arm_float_to_q15.c ****     in += in > 0.0f ? 0.5f : -0.5f;
 111:Drivers/CMSIS/DSP/Source/SupportFunctions/arm_float_to_q15.c ****     *pDst++ = (q15_t) (__SSAT((q31_t) (in), 16));
 112:Drivers/CMSIS/DSP/Source/SupportFunctions/arm_float_to_q15.c **** 
 113:Drivers/CMSIS/DSP/Source/SupportFunctions/arm_float_to_q15.c **** #else
 114:Drivers/CMSIS/DSP/Source/SupportFunctions/arm_float_to_q15.c **** 
 115:Drivers/CMSIS/DSP/Source/SupportFunctions/arm_float_to_q15.c ****     /* C = A * 32768 */
 116:Drivers/CMSIS/DSP/Source/SupportFunctions/arm_float_to_q15.c ****     /* convert from float to q15 and then store the results in the destination buffer */
 117:Drivers/CMSIS/DSP/Source/SupportFunctions/arm_float_to_q15.c ****     *pDst++ = (q15_t) __SSAT((q31_t) (*pIn++ * 32768.0f), 16);
  52              		.loc 1 117 5 is_stmt 1 view .LVU8
  53              	.LBB2:
  54              		.loc 1 117 23 view .LVU9
  55              		.loc 1 117 23 is_stmt 0 view .LVU10
ARM GAS  /tmp/ccbF8xSv.s 			page 4


  56 0006 D0ED007A 		vldr.32	s15, [r0]
  57 000a FEEEE87A 		vcvt.s32.f32	s15, s15, #15
  58              	.LVL4:
  59              		.loc 1 117 23 is_stmt 1 view .LVU11
  60 000e 17EE903A 		vmov	r3, s15	@ int
  61              		.syntax unified
  62              	@ 117 "Drivers/CMSIS/DSP/Source/SupportFunctions/arm_float_to_q15.c" 1
  63 0012 03F30F03 		ssat r3, #16, r3
  64              	@ 0 "" 2
  65              	.LVL5:
  66              		.loc 1 117 23 view .LVU12
  67              		.loc 1 117 23 is_stmt 0 view .LVU13
  68              		.thumb
  69              		.syntax unified
  70              	.LBE2:
  71              		.loc 1 117 13 view .LVU14
  72 0016 0B80     		strh	r3, [r1]	@ movhi
 118:Drivers/CMSIS/DSP/Source/SupportFunctions/arm_float_to_q15.c ****     *pDst++ = (q15_t) __SSAT((q31_t) (*pIn++ * 32768.0f), 16);
  73              		.loc 1 118 5 is_stmt 1 view .LVU15
  74              	.LBB3:
  75              		.loc 1 118 23 view .LVU16
  76              	.LVL6:
  77              		.loc 1 118 23 is_stmt 0 view .LVU17
  78 0018 D0ED017A 		vldr.32	s15, [r0, #4]
  79              	.LVL7:
  80              		.loc 1 118 23 view .LVU18
  81 001c FEEEE87A 		vcvt.s32.f32	s15, s15, #15
  82              	.LVL8:
  83              		.loc 1 118 23 is_stmt 1 view .LVU19
  84 0020 17EE903A 		vmov	r3, s15	@ int
  85              	.LVL9:
  86              		.loc 1 118 23 is_stmt 0 view .LVU20
  87              		.syntax unified
  88              	@ 118 "Drivers/CMSIS/DSP/Source/SupportFunctions/arm_float_to_q15.c" 1
  89 0024 03F30F03 		ssat r3, #16, r3
  90              	@ 0 "" 2
  91              	.LVL10:
  92              		.loc 1 118 23 is_stmt 1 view .LVU21
  93              		.loc 1 118 23 is_stmt 0 view .LVU22
  94              		.thumb
  95              		.syntax unified
  96              	.LBE3:
  97              		.loc 1 118 13 view .LVU23
  98 0028 4B80     		strh	r3, [r1, #2]	@ movhi
 119:Drivers/CMSIS/DSP/Source/SupportFunctions/arm_float_to_q15.c ****     *pDst++ = (q15_t) __SSAT((q31_t) (*pIn++ * 32768.0f), 16);
  99              		.loc 1 119 5 is_stmt 1 view .LVU24
 100              	.LBB4:
 101              		.loc 1 119 23 view .LVU25
 102              	.LVL11:
 103              		.loc 1 119 23 is_stmt 0 view .LVU26
 104 002a D0ED027A 		vldr.32	s15, [r0, #8]
 105              	.LVL12:
 106              		.loc 1 119 23 view .LVU27
 107 002e FEEEE87A 		vcvt.s32.f32	s15, s15, #15
 108              	.LVL13:
 109              		.loc 1 119 23 is_stmt 1 view .LVU28
 110 0032 17EE903A 		vmov	r3, s15	@ int
ARM GAS  /tmp/ccbF8xSv.s 			page 5


 111              	.LVL14:
 112              		.loc 1 119 23 is_stmt 0 view .LVU29
 113              		.syntax unified
 114              	@ 119 "Drivers/CMSIS/DSP/Source/SupportFunctions/arm_float_to_q15.c" 1
 115 0036 03F30F03 		ssat r3, #16, r3
 116              	@ 0 "" 2
 117              	.LVL15:
 118              		.loc 1 119 23 is_stmt 1 view .LVU30
 119              		.loc 1 119 23 is_stmt 0 view .LVU31
 120              		.thumb
 121              		.syntax unified
 122              	.LBE4:
 123              		.loc 1 119 13 view .LVU32
 124 003a 8B80     		strh	r3, [r1, #4]	@ movhi
 120:Drivers/CMSIS/DSP/Source/SupportFunctions/arm_float_to_q15.c ****     *pDst++ = (q15_t) __SSAT((q31_t) (*pIn++ * 32768.0f), 16);
 125              		.loc 1 120 5 is_stmt 1 view .LVU33
 126              	.LBB5:
 127              		.loc 1 120 23 view .LVU34
 128              	.LVL16:
 129              		.loc 1 120 23 is_stmt 0 view .LVU35
 130 003c D0ED037A 		vldr.32	s15, [r0, #12]
 131              	.LVL17:
 132              		.loc 1 120 23 view .LVU36
 133 0040 FEEEE87A 		vcvt.s32.f32	s15, s15, #15
 134              	.LVL18:
 135              		.loc 1 120 23 is_stmt 1 view .LVU37
 136 0044 17EE903A 		vmov	r3, s15	@ int
 137              	.LVL19:
 138              		.loc 1 120 23 is_stmt 0 view .LVU38
 139              		.syntax unified
 140              	@ 120 "Drivers/CMSIS/DSP/Source/SupportFunctions/arm_float_to_q15.c" 1
 141 0048 03F30F03 		ssat r3, #16, r3
 142              	@ 0 "" 2
 143              	.LVL20:
 144              		.loc 1 120 23 is_stmt 1 view .LVU39
 145              		.loc 1 120 23 is_stmt 0 view .LVU40
 146              		.thumb
 147              		.syntax unified
 148              	.LBE5:
 149              		.loc 1 120 13 view .LVU41
 150 004c CB80     		strh	r3, [r1, #6]	@ movhi
 121:Drivers/CMSIS/DSP/Source/SupportFunctions/arm_float_to_q15.c **** 
 122:Drivers/CMSIS/DSP/Source/SupportFunctions/arm_float_to_q15.c **** #endif /*      #ifdef ARM_MATH_ROUNDING        */
 123:Drivers/CMSIS/DSP/Source/SupportFunctions/arm_float_to_q15.c **** 
 124:Drivers/CMSIS/DSP/Source/SupportFunctions/arm_float_to_q15.c ****     /* Decrement the loop counter */
 125:Drivers/CMSIS/DSP/Source/SupportFunctions/arm_float_to_q15.c ****     blkCnt--;
 151              		.loc 1 125 5 is_stmt 1 view .LVU42
 152              		.loc 1 125 11 is_stmt 0 view .LVU43
 153 004e 013C     		subs	r4, r4, #1
 154              	.LVL21:
 155              	.LBB6:
 120:Drivers/CMSIS/DSP/Source/SupportFunctions/arm_float_to_q15.c ****     *pDst++ = (q15_t) __SSAT((q31_t) (*pIn++ * 32768.0f), 16);
 156              		.loc 1 120 23 view .LVU44
 157 0050 1030     		adds	r0, r0, #16
 158              	.LVL22:
 120:Drivers/CMSIS/DSP/Source/SupportFunctions/arm_float_to_q15.c ****     *pDst++ = (q15_t) __SSAT((q31_t) (*pIn++ * 32768.0f), 16);
 159              		.loc 1 120 23 view .LVU45
ARM GAS  /tmp/ccbF8xSv.s 			page 6


 160              	.LBE6:
 120:Drivers/CMSIS/DSP/Source/SupportFunctions/arm_float_to_q15.c ****     *pDst++ = (q15_t) __SSAT((q31_t) (*pIn++ * 32768.0f), 16);
 161              		.loc 1 120 10 view .LVU46
 162 0052 0831     		adds	r1, r1, #8
 163              	.LVL23:
 164              	.L2:
  87:Drivers/CMSIS/DSP/Source/SupportFunctions/arm_float_to_q15.c ****   {
 165              		.loc 1 87 17 is_stmt 1 view .LVU47
 166 0054 002C     		cmp	r4, #0
 167 0056 D6D1     		bne	.L3
 126:Drivers/CMSIS/DSP/Source/SupportFunctions/arm_float_to_q15.c ****   }
 127:Drivers/CMSIS/DSP/Source/SupportFunctions/arm_float_to_q15.c **** 
 128:Drivers/CMSIS/DSP/Source/SupportFunctions/arm_float_to_q15.c ****   /* If the blockSize is not a multiple of 4, compute any remaining output samples here.
 129:Drivers/CMSIS/DSP/Source/SupportFunctions/arm_float_to_q15.c ****    ** No loop unrolling is used. */
 130:Drivers/CMSIS/DSP/Source/SupportFunctions/arm_float_to_q15.c ****   blkCnt = blockSize % 0x4U;
 168              		.loc 1 130 3 view .LVU48
 169              		.loc 1 130 10 is_stmt 0 view .LVU49
 170 0058 02F00302 		and	r2, r2, #3
 171              	.LVL24:
 131:Drivers/CMSIS/DSP/Source/SupportFunctions/arm_float_to_q15.c **** 
 132:Drivers/CMSIS/DSP/Source/SupportFunctions/arm_float_to_q15.c ****   while (blkCnt > 0U)
 172              		.loc 1 132 3 is_stmt 1 view .LVU50
 173              		.loc 1 132 9 is_stmt 0 view .LVU51
 174 005c 0AE0     		b	.L4
 175              	.L5:
 133:Drivers/CMSIS/DSP/Source/SupportFunctions/arm_float_to_q15.c ****   {
 134:Drivers/CMSIS/DSP/Source/SupportFunctions/arm_float_to_q15.c **** 
 135:Drivers/CMSIS/DSP/Source/SupportFunctions/arm_float_to_q15.c **** #ifdef ARM_MATH_ROUNDING
 136:Drivers/CMSIS/DSP/Source/SupportFunctions/arm_float_to_q15.c ****     /* C = A * 32768 */
 137:Drivers/CMSIS/DSP/Source/SupportFunctions/arm_float_to_q15.c ****     /* convert from float to q15 and then store the results in the destination buffer */
 138:Drivers/CMSIS/DSP/Source/SupportFunctions/arm_float_to_q15.c ****     in = *pIn++;
 139:Drivers/CMSIS/DSP/Source/SupportFunctions/arm_float_to_q15.c ****     in = (in * 32768.0f);
 140:Drivers/CMSIS/DSP/Source/SupportFunctions/arm_float_to_q15.c ****     in += in > 0.0f ? 0.5f : -0.5f;
 141:Drivers/CMSIS/DSP/Source/SupportFunctions/arm_float_to_q15.c ****     *pDst++ = (q15_t) (__SSAT((q31_t) (in), 16));
 142:Drivers/CMSIS/DSP/Source/SupportFunctions/arm_float_to_q15.c **** 
 143:Drivers/CMSIS/DSP/Source/SupportFunctions/arm_float_to_q15.c **** #else
 144:Drivers/CMSIS/DSP/Source/SupportFunctions/arm_float_to_q15.c **** 
 145:Drivers/CMSIS/DSP/Source/SupportFunctions/arm_float_to_q15.c ****     /* C = A * 32768 */
 146:Drivers/CMSIS/DSP/Source/SupportFunctions/arm_float_to_q15.c ****     /* convert from float to q15 and then store the results in the destination buffer */
 147:Drivers/CMSIS/DSP/Source/SupportFunctions/arm_float_to_q15.c ****     *pDst++ = (q15_t) __SSAT((q31_t) (*pIn++ * 32768.0f), 16);
 176              		.loc 1 147 5 is_stmt 1 view .LVU52
 177              	.LBB7:
 178              		.loc 1 147 23 view .LVU53
 179              	.LVL25:
 180              		.loc 1 147 23 is_stmt 0 view .LVU54
 181 005e F0EC017A 		vldmia.32	r0!, {s15}
 182              	.LVL26:
 183              		.loc 1 147 23 view .LVU55
 184 0062 FEEEE87A 		vcvt.s32.f32	s15, s15, #15
 185              	.LVL27:
 186              		.loc 1 147 23 is_stmt 1 view .LVU56
 187 0066 17EE903A 		vmov	r3, s15	@ int
 188              		.syntax unified
 189              	@ 147 "Drivers/CMSIS/DSP/Source/SupportFunctions/arm_float_to_q15.c" 1
 190 006a 03F30F03 		ssat r3, #16, r3
 191              	@ 0 "" 2
 192              	.LVL28:
ARM GAS  /tmp/ccbF8xSv.s 			page 7


 193              		.loc 1 147 23 view .LVU57
 194              		.loc 1 147 23 is_stmt 0 view .LVU58
 195              		.thumb
 196              		.syntax unified
 197              	.LBE7:
 198              		.loc 1 147 13 view .LVU59
 199 006e 21F8023B 		strh	r3, [r1], #2	@ movhi
 200              	.LVL29:
 148:Drivers/CMSIS/DSP/Source/SupportFunctions/arm_float_to_q15.c **** 
 149:Drivers/CMSIS/DSP/Source/SupportFunctions/arm_float_to_q15.c **** #endif /*      #ifdef ARM_MATH_ROUNDING        */
 150:Drivers/CMSIS/DSP/Source/SupportFunctions/arm_float_to_q15.c **** 
 151:Drivers/CMSIS/DSP/Source/SupportFunctions/arm_float_to_q15.c ****     /* Decrement the loop counter */
 152:Drivers/CMSIS/DSP/Source/SupportFunctions/arm_float_to_q15.c ****     blkCnt--;
 201              		.loc 1 152 5 is_stmt 1 view .LVU60
 202              		.loc 1 152 11 is_stmt 0 view .LVU61
 203 0072 013A     		subs	r2, r2, #1
 204              	.LVL30:
 205              	.L4:
 132:Drivers/CMSIS/DSP/Source/SupportFunctions/arm_float_to_q15.c ****   {
 206              		.loc 1 132 17 is_stmt 1 view .LVU62
 207 0074 002A     		cmp	r2, #0
 208 0076 F2D1     		bne	.L5
 153:Drivers/CMSIS/DSP/Source/SupportFunctions/arm_float_to_q15.c ****   }
 154:Drivers/CMSIS/DSP/Source/SupportFunctions/arm_float_to_q15.c **** 
 155:Drivers/CMSIS/DSP/Source/SupportFunctions/arm_float_to_q15.c **** 
 156:Drivers/CMSIS/DSP/Source/SupportFunctions/arm_float_to_q15.c **** #else
 157:Drivers/CMSIS/DSP/Source/SupportFunctions/arm_float_to_q15.c **** 
 158:Drivers/CMSIS/DSP/Source/SupportFunctions/arm_float_to_q15.c ****   /* Run the below code for Cortex-M0 */
 159:Drivers/CMSIS/DSP/Source/SupportFunctions/arm_float_to_q15.c **** 
 160:Drivers/CMSIS/DSP/Source/SupportFunctions/arm_float_to_q15.c ****   /* Loop over blockSize number of values */
 161:Drivers/CMSIS/DSP/Source/SupportFunctions/arm_float_to_q15.c ****   blkCnt = blockSize;
 162:Drivers/CMSIS/DSP/Source/SupportFunctions/arm_float_to_q15.c **** 
 163:Drivers/CMSIS/DSP/Source/SupportFunctions/arm_float_to_q15.c ****   while (blkCnt > 0U)
 164:Drivers/CMSIS/DSP/Source/SupportFunctions/arm_float_to_q15.c ****   {
 165:Drivers/CMSIS/DSP/Source/SupportFunctions/arm_float_to_q15.c **** 
 166:Drivers/CMSIS/DSP/Source/SupportFunctions/arm_float_to_q15.c **** #ifdef ARM_MATH_ROUNDING
 167:Drivers/CMSIS/DSP/Source/SupportFunctions/arm_float_to_q15.c ****     /* C = A * 32768 */
 168:Drivers/CMSIS/DSP/Source/SupportFunctions/arm_float_to_q15.c ****     /* convert from float to q15 and then store the results in the destination buffer */
 169:Drivers/CMSIS/DSP/Source/SupportFunctions/arm_float_to_q15.c ****     in = *pIn++;
 170:Drivers/CMSIS/DSP/Source/SupportFunctions/arm_float_to_q15.c ****     in = (in * 32768.0f);
 171:Drivers/CMSIS/DSP/Source/SupportFunctions/arm_float_to_q15.c ****     in += in > 0 ? 0.5f : -0.5f;
 172:Drivers/CMSIS/DSP/Source/SupportFunctions/arm_float_to_q15.c ****     *pDst++ = (q15_t) (__SSAT((q31_t) (in), 16));
 173:Drivers/CMSIS/DSP/Source/SupportFunctions/arm_float_to_q15.c **** 
 174:Drivers/CMSIS/DSP/Source/SupportFunctions/arm_float_to_q15.c **** #else
 175:Drivers/CMSIS/DSP/Source/SupportFunctions/arm_float_to_q15.c **** 
 176:Drivers/CMSIS/DSP/Source/SupportFunctions/arm_float_to_q15.c ****     /* C = A * 32768 */
 177:Drivers/CMSIS/DSP/Source/SupportFunctions/arm_float_to_q15.c ****     /* convert from float to q15 and then store the results in the destination buffer */
 178:Drivers/CMSIS/DSP/Source/SupportFunctions/arm_float_to_q15.c ****     *pDst++ = (q15_t) __SSAT((q31_t) (*pIn++ * 32768.0f), 16);
 179:Drivers/CMSIS/DSP/Source/SupportFunctions/arm_float_to_q15.c **** 
 180:Drivers/CMSIS/DSP/Source/SupportFunctions/arm_float_to_q15.c **** #endif /*      #ifdef ARM_MATH_ROUNDING        */
 181:Drivers/CMSIS/DSP/Source/SupportFunctions/arm_float_to_q15.c **** 
 182:Drivers/CMSIS/DSP/Source/SupportFunctions/arm_float_to_q15.c ****     /* Decrement the loop counter */
 183:Drivers/CMSIS/DSP/Source/SupportFunctions/arm_float_to_q15.c ****     blkCnt--;
 184:Drivers/CMSIS/DSP/Source/SupportFunctions/arm_float_to_q15.c ****   }
 185:Drivers/CMSIS/DSP/Source/SupportFunctions/arm_float_to_q15.c **** 
 186:Drivers/CMSIS/DSP/Source/SupportFunctions/arm_float_to_q15.c **** #endif /* #if defined (ARM_MATH_DSP) */
 187:Drivers/CMSIS/DSP/Source/SupportFunctions/arm_float_to_q15.c **** 
ARM GAS  /tmp/ccbF8xSv.s 			page 8


 188:Drivers/CMSIS/DSP/Source/SupportFunctions/arm_float_to_q15.c **** }
 209              		.loc 1 188 1 is_stmt 0 view .LVU63
 210 0078 5DF8044B 		ldr	r4, [sp], #4
 211              	.LCFI1:
 212              		.cfi_restore 4
 213              		.cfi_def_cfa_offset 0
 214 007c 7047     		bx	lr
 215              		.cfi_endproc
 216              	.LFE135:
 218              		.text
 219              	.Letext0:
 220              		.file 2 "/usr/arm-none-eabi/include/machine/_default_types.h"
 221              		.file 3 "/usr/arm-none-eabi/include/sys/_stdint.h"
 222              		.file 4 "Drivers/CMSIS/DSP/Include/arm_math.h"
ARM GAS  /tmp/ccbF8xSv.s 			page 9


DEFINED SYMBOLS
                            *ABS*:00000000 arm_float_to_q15.c
     /tmp/ccbF8xSv.s:21     .text.arm_float_to_q15:00000000 $t
     /tmp/ccbF8xSv.s:27     .text.arm_float_to_q15:00000000 arm_float_to_q15

NO UNDEFINED SYMBOLS
