ARM GAS  /tmp/ccS8pXJL.s 			page 1


   1              		.cpu cortex-m7
   2              		.arch armv7e-m
   3              		.fpu fpv5-sp-d16
   4              		.eabi_attribute 27, 1
   5              		.eabi_attribute 28, 1
   6              		.eabi_attribute 20, 1
   7              		.eabi_attribute 21, 1
   8              		.eabi_attribute 23, 3
   9              		.eabi_attribute 24, 1
  10              		.eabi_attribute 25, 1
  11              		.eabi_attribute 26, 1
  12              		.eabi_attribute 30, 1
  13              		.eabi_attribute 34, 1
  14              		.eabi_attribute 18, 4
  15              		.file	"arm_biquad_cascade_df2T_f64.c"
  16              		.text
  17              	.Ltext0:
  18              		.cfi_sections	.debug_frame
  19              		.file 1 "Drivers/CMSIS/DSP/Source/FilteringFunctions/arm_biquad_cascade_df2T_f64.c"
  20              		.section	.text.arm_biquad_cascade_df2T_f64,"ax",%progbits
  21              		.align	1
  22              		.global	arm_biquad_cascade_df2T_f64
  23              		.syntax unified
  24              		.thumb
  25              		.thumb_func
  27              	arm_biquad_cascade_df2T_f64:
  28              	.LVL0:
  29              	.LFB135:
   1:Drivers/CMSIS/DSP/Source/FilteringFunctions/arm_biquad_cascade_df2T_f64.c **** /* ----------------------------------------------------------------------
   2:Drivers/CMSIS/DSP/Source/FilteringFunctions/arm_biquad_cascade_df2T_f64.c ****  * Project:      CMSIS DSP Library
   3:Drivers/CMSIS/DSP/Source/FilteringFunctions/arm_biquad_cascade_df2T_f64.c ****  * Title:        arm_biquad_cascade_df2T_f64.c
   4:Drivers/CMSIS/DSP/Source/FilteringFunctions/arm_biquad_cascade_df2T_f64.c ****  * Description:  Processing function for floating-point transposed direct form II Biquad cascade fi
   5:Drivers/CMSIS/DSP/Source/FilteringFunctions/arm_biquad_cascade_df2T_f64.c ****  *
   6:Drivers/CMSIS/DSP/Source/FilteringFunctions/arm_biquad_cascade_df2T_f64.c ****  * $Date:        27. January 2017
   7:Drivers/CMSIS/DSP/Source/FilteringFunctions/arm_biquad_cascade_df2T_f64.c ****  * $Revision:    V.1.5.1
   8:Drivers/CMSIS/DSP/Source/FilteringFunctions/arm_biquad_cascade_df2T_f64.c ****  *
   9:Drivers/CMSIS/DSP/Source/FilteringFunctions/arm_biquad_cascade_df2T_f64.c ****  * Target Processor: Cortex-M cores
  10:Drivers/CMSIS/DSP/Source/FilteringFunctions/arm_biquad_cascade_df2T_f64.c ****  * -------------------------------------------------------------------- */
  11:Drivers/CMSIS/DSP/Source/FilteringFunctions/arm_biquad_cascade_df2T_f64.c **** /*
  12:Drivers/CMSIS/DSP/Source/FilteringFunctions/arm_biquad_cascade_df2T_f64.c ****  * Copyright (C) 2010-2017 ARM Limited or its affiliates. All rights reserved.
  13:Drivers/CMSIS/DSP/Source/FilteringFunctions/arm_biquad_cascade_df2T_f64.c ****  *
  14:Drivers/CMSIS/DSP/Source/FilteringFunctions/arm_biquad_cascade_df2T_f64.c ****  * SPDX-License-Identifier: Apache-2.0
  15:Drivers/CMSIS/DSP/Source/FilteringFunctions/arm_biquad_cascade_df2T_f64.c ****  *
  16:Drivers/CMSIS/DSP/Source/FilteringFunctions/arm_biquad_cascade_df2T_f64.c ****  * Licensed under the Apache License, Version 2.0 (the License); you may
  17:Drivers/CMSIS/DSP/Source/FilteringFunctions/arm_biquad_cascade_df2T_f64.c ****  * not use this file except in compliance with the License.
  18:Drivers/CMSIS/DSP/Source/FilteringFunctions/arm_biquad_cascade_df2T_f64.c ****  * You may obtain a copy of the License at
  19:Drivers/CMSIS/DSP/Source/FilteringFunctions/arm_biquad_cascade_df2T_f64.c ****  *
  20:Drivers/CMSIS/DSP/Source/FilteringFunctions/arm_biquad_cascade_df2T_f64.c ****  * www.apache.org/licenses/LICENSE-2.0
  21:Drivers/CMSIS/DSP/Source/FilteringFunctions/arm_biquad_cascade_df2T_f64.c ****  *
  22:Drivers/CMSIS/DSP/Source/FilteringFunctions/arm_biquad_cascade_df2T_f64.c ****  * Unless required by applicable law or agreed to in writing, software
  23:Drivers/CMSIS/DSP/Source/FilteringFunctions/arm_biquad_cascade_df2T_f64.c ****  * distributed under the License is distributed on an AS IS BASIS, WITHOUT
  24:Drivers/CMSIS/DSP/Source/FilteringFunctions/arm_biquad_cascade_df2T_f64.c ****  * WARRANTIES OR CONDITIONS OF ANY KIND, either express or implied.
  25:Drivers/CMSIS/DSP/Source/FilteringFunctions/arm_biquad_cascade_df2T_f64.c ****  * See the License for the specific language governing permissions and
  26:Drivers/CMSIS/DSP/Source/FilteringFunctions/arm_biquad_cascade_df2T_f64.c ****  * limitations under the License.
  27:Drivers/CMSIS/DSP/Source/FilteringFunctions/arm_biquad_cascade_df2T_f64.c ****  */
  28:Drivers/CMSIS/DSP/Source/FilteringFunctions/arm_biquad_cascade_df2T_f64.c **** 
  29:Drivers/CMSIS/DSP/Source/FilteringFunctions/arm_biquad_cascade_df2T_f64.c **** #include "arm_math.h"
ARM GAS  /tmp/ccS8pXJL.s 			page 2


  30:Drivers/CMSIS/DSP/Source/FilteringFunctions/arm_biquad_cascade_df2T_f64.c **** 
  31:Drivers/CMSIS/DSP/Source/FilteringFunctions/arm_biquad_cascade_df2T_f64.c **** /**
  32:Drivers/CMSIS/DSP/Source/FilteringFunctions/arm_biquad_cascade_df2T_f64.c **** * @ingroup groupFilters
  33:Drivers/CMSIS/DSP/Source/FilteringFunctions/arm_biquad_cascade_df2T_f64.c **** */
  34:Drivers/CMSIS/DSP/Source/FilteringFunctions/arm_biquad_cascade_df2T_f64.c **** 
  35:Drivers/CMSIS/DSP/Source/FilteringFunctions/arm_biquad_cascade_df2T_f64.c **** /**
  36:Drivers/CMSIS/DSP/Source/FilteringFunctions/arm_biquad_cascade_df2T_f64.c **** * @defgroup BiquadCascadeDF2T Biquad Cascade IIR Filters Using a Direct Form II Transposed Structur
  37:Drivers/CMSIS/DSP/Source/FilteringFunctions/arm_biquad_cascade_df2T_f64.c **** *
  38:Drivers/CMSIS/DSP/Source/FilteringFunctions/arm_biquad_cascade_df2T_f64.c **** * This set of functions implements arbitrary order recursive (IIR) filters using a transposed direc
  39:Drivers/CMSIS/DSP/Source/FilteringFunctions/arm_biquad_cascade_df2T_f64.c **** * The filters are implemented as a cascade of second order Biquad sections.
  40:Drivers/CMSIS/DSP/Source/FilteringFunctions/arm_biquad_cascade_df2T_f64.c **** * These functions provide a slight memory savings as compared to the direct form I Biquad filter fu
  41:Drivers/CMSIS/DSP/Source/FilteringFunctions/arm_biquad_cascade_df2T_f64.c **** * Only floating-point data is supported.
  42:Drivers/CMSIS/DSP/Source/FilteringFunctions/arm_biquad_cascade_df2T_f64.c **** *
  43:Drivers/CMSIS/DSP/Source/FilteringFunctions/arm_biquad_cascade_df2T_f64.c **** * This function operate on blocks of input and output data and each call to the function
  44:Drivers/CMSIS/DSP/Source/FilteringFunctions/arm_biquad_cascade_df2T_f64.c **** * processes <code>blockSize</code> samples through the filter.
  45:Drivers/CMSIS/DSP/Source/FilteringFunctions/arm_biquad_cascade_df2T_f64.c **** * <code>pSrc</code> points to the array of input data and
  46:Drivers/CMSIS/DSP/Source/FilteringFunctions/arm_biquad_cascade_df2T_f64.c **** * <code>pDst</code> points to the array of output data.
  47:Drivers/CMSIS/DSP/Source/FilteringFunctions/arm_biquad_cascade_df2T_f64.c **** * Both arrays contain <code>blockSize</code> values.
  48:Drivers/CMSIS/DSP/Source/FilteringFunctions/arm_biquad_cascade_df2T_f64.c **** *
  49:Drivers/CMSIS/DSP/Source/FilteringFunctions/arm_biquad_cascade_df2T_f64.c **** * \par Algorithm
  50:Drivers/CMSIS/DSP/Source/FilteringFunctions/arm_biquad_cascade_df2T_f64.c **** * Each Biquad stage implements a second order filter using the difference equation:
  51:Drivers/CMSIS/DSP/Source/FilteringFunctions/arm_biquad_cascade_df2T_f64.c **** * <pre>
  52:Drivers/CMSIS/DSP/Source/FilteringFunctions/arm_biquad_cascade_df2T_f64.c **** *    y[n] = b0 * x[n] + d1
  53:Drivers/CMSIS/DSP/Source/FilteringFunctions/arm_biquad_cascade_df2T_f64.c **** *    d1 = b1 * x[n] + a1 * y[n] + d2
  54:Drivers/CMSIS/DSP/Source/FilteringFunctions/arm_biquad_cascade_df2T_f64.c **** *    d2 = b2 * x[n] + a2 * y[n]
  55:Drivers/CMSIS/DSP/Source/FilteringFunctions/arm_biquad_cascade_df2T_f64.c **** * </pre>
  56:Drivers/CMSIS/DSP/Source/FilteringFunctions/arm_biquad_cascade_df2T_f64.c **** * where d1 and d2 represent the two state values.
  57:Drivers/CMSIS/DSP/Source/FilteringFunctions/arm_biquad_cascade_df2T_f64.c **** *
  58:Drivers/CMSIS/DSP/Source/FilteringFunctions/arm_biquad_cascade_df2T_f64.c **** * \par
  59:Drivers/CMSIS/DSP/Source/FilteringFunctions/arm_biquad_cascade_df2T_f64.c **** * A Biquad filter using a transposed Direct Form II structure is shown below.
  60:Drivers/CMSIS/DSP/Source/FilteringFunctions/arm_biquad_cascade_df2T_f64.c **** * \image html BiquadDF2Transposed.gif "Single transposed Direct Form II Biquad"
  61:Drivers/CMSIS/DSP/Source/FilteringFunctions/arm_biquad_cascade_df2T_f64.c **** * Coefficients <code>b0, b1, and b2 </code> multiply the input signal <code>x[n]</code> and are ref
  62:Drivers/CMSIS/DSP/Source/FilteringFunctions/arm_biquad_cascade_df2T_f64.c **** * Coefficients <code>a1</code> and <code>a2</code> multiply the output signal <code>y[n]</code> and
  63:Drivers/CMSIS/DSP/Source/FilteringFunctions/arm_biquad_cascade_df2T_f64.c **** * Pay careful attention to the sign of the feedback coefficients.
  64:Drivers/CMSIS/DSP/Source/FilteringFunctions/arm_biquad_cascade_df2T_f64.c **** * Some design tools flip the sign of the feedback coefficients:
  65:Drivers/CMSIS/DSP/Source/FilteringFunctions/arm_biquad_cascade_df2T_f64.c **** * <pre>
  66:Drivers/CMSIS/DSP/Source/FilteringFunctions/arm_biquad_cascade_df2T_f64.c **** *    y[n] = b0 * x[n] + d1;
  67:Drivers/CMSIS/DSP/Source/FilteringFunctions/arm_biquad_cascade_df2T_f64.c **** *    d1 = b1 * x[n] - a1 * y[n] + d2;
  68:Drivers/CMSIS/DSP/Source/FilteringFunctions/arm_biquad_cascade_df2T_f64.c **** *    d2 = b2 * x[n] - a2 * y[n];
  69:Drivers/CMSIS/DSP/Source/FilteringFunctions/arm_biquad_cascade_df2T_f64.c **** * </pre>
  70:Drivers/CMSIS/DSP/Source/FilteringFunctions/arm_biquad_cascade_df2T_f64.c **** * In this case the feedback coefficients <code>a1</code> and <code>a2</code> must be negated when u
  71:Drivers/CMSIS/DSP/Source/FilteringFunctions/arm_biquad_cascade_df2T_f64.c **** *
  72:Drivers/CMSIS/DSP/Source/FilteringFunctions/arm_biquad_cascade_df2T_f64.c **** * \par
  73:Drivers/CMSIS/DSP/Source/FilteringFunctions/arm_biquad_cascade_df2T_f64.c **** * Higher order filters are realized as a cascade of second order sections.
  74:Drivers/CMSIS/DSP/Source/FilteringFunctions/arm_biquad_cascade_df2T_f64.c **** * <code>numStages</code> refers to the number of second order stages used.
  75:Drivers/CMSIS/DSP/Source/FilteringFunctions/arm_biquad_cascade_df2T_f64.c **** * For example, an 8th order filter would be realized with <code>numStages=4</code> second order sta
  76:Drivers/CMSIS/DSP/Source/FilteringFunctions/arm_biquad_cascade_df2T_f64.c **** * A 9th order filter would be realized with <code>numStages=5</code> second order stages with the
  77:Drivers/CMSIS/DSP/Source/FilteringFunctions/arm_biquad_cascade_df2T_f64.c **** * coefficients for one of the stages configured as a first order filter (<code>b2=0</code> and <cod
  78:Drivers/CMSIS/DSP/Source/FilteringFunctions/arm_biquad_cascade_df2T_f64.c **** *
  79:Drivers/CMSIS/DSP/Source/FilteringFunctions/arm_biquad_cascade_df2T_f64.c **** * \par
  80:Drivers/CMSIS/DSP/Source/FilteringFunctions/arm_biquad_cascade_df2T_f64.c **** * <code>pState</code> points to the state variable array.
  81:Drivers/CMSIS/DSP/Source/FilteringFunctions/arm_biquad_cascade_df2T_f64.c **** * Each Biquad stage has 2 state variables <code>d1</code> and <code>d2</code>.
  82:Drivers/CMSIS/DSP/Source/FilteringFunctions/arm_biquad_cascade_df2T_f64.c **** * The state variables are arranged in the <code>pState</code> array as:
  83:Drivers/CMSIS/DSP/Source/FilteringFunctions/arm_biquad_cascade_df2T_f64.c **** * <pre>
  84:Drivers/CMSIS/DSP/Source/FilteringFunctions/arm_biquad_cascade_df2T_f64.c **** *     {d11, d12, d21, d22, ...}
  85:Drivers/CMSIS/DSP/Source/FilteringFunctions/arm_biquad_cascade_df2T_f64.c **** * </pre>
  86:Drivers/CMSIS/DSP/Source/FilteringFunctions/arm_biquad_cascade_df2T_f64.c **** * where <code>d1x</code> refers to the state variables for the first Biquad and
ARM GAS  /tmp/ccS8pXJL.s 			page 3


  87:Drivers/CMSIS/DSP/Source/FilteringFunctions/arm_biquad_cascade_df2T_f64.c **** * <code>d2x</code> refers to the state variables for the second Biquad.
  88:Drivers/CMSIS/DSP/Source/FilteringFunctions/arm_biquad_cascade_df2T_f64.c **** * The state array has a total length of <code>2*numStages</code> values.
  89:Drivers/CMSIS/DSP/Source/FilteringFunctions/arm_biquad_cascade_df2T_f64.c **** * The state variables are updated after each block of data is processed; the coefficients are untou
  90:Drivers/CMSIS/DSP/Source/FilteringFunctions/arm_biquad_cascade_df2T_f64.c **** *
  91:Drivers/CMSIS/DSP/Source/FilteringFunctions/arm_biquad_cascade_df2T_f64.c **** * \par
  92:Drivers/CMSIS/DSP/Source/FilteringFunctions/arm_biquad_cascade_df2T_f64.c **** * The CMSIS library contains Biquad filters in both Direct Form I and transposed Direct Form II.
  93:Drivers/CMSIS/DSP/Source/FilteringFunctions/arm_biquad_cascade_df2T_f64.c **** * The advantage of the Direct Form I structure is that it is numerically more robust for fixed-poin
  94:Drivers/CMSIS/DSP/Source/FilteringFunctions/arm_biquad_cascade_df2T_f64.c **** * That is why the Direct Form I structure supports Q15 and Q31 data types.
  95:Drivers/CMSIS/DSP/Source/FilteringFunctions/arm_biquad_cascade_df2T_f64.c **** * The transposed Direct Form II structure, on the other hand, requires a wide dynamic range for the
  96:Drivers/CMSIS/DSP/Source/FilteringFunctions/arm_biquad_cascade_df2T_f64.c **** * Because of this, the CMSIS library only has a floating-point version of the Direct Form II Biquad
  97:Drivers/CMSIS/DSP/Source/FilteringFunctions/arm_biquad_cascade_df2T_f64.c **** * The advantage of the Direct Form II Biquad is that it requires half the number of state variables
  98:Drivers/CMSIS/DSP/Source/FilteringFunctions/arm_biquad_cascade_df2T_f64.c **** *
  99:Drivers/CMSIS/DSP/Source/FilteringFunctions/arm_biquad_cascade_df2T_f64.c **** * \par Instance Structure
 100:Drivers/CMSIS/DSP/Source/FilteringFunctions/arm_biquad_cascade_df2T_f64.c **** * The coefficients and state variables for a filter are stored together in an instance data structu
 101:Drivers/CMSIS/DSP/Source/FilteringFunctions/arm_biquad_cascade_df2T_f64.c **** * A separate instance structure must be defined for each filter.
 102:Drivers/CMSIS/DSP/Source/FilteringFunctions/arm_biquad_cascade_df2T_f64.c **** * Coefficient arrays may be shared among several instances while state variable arrays cannot be sh
 103:Drivers/CMSIS/DSP/Source/FilteringFunctions/arm_biquad_cascade_df2T_f64.c **** *
 104:Drivers/CMSIS/DSP/Source/FilteringFunctions/arm_biquad_cascade_df2T_f64.c **** * \par Init Functions
 105:Drivers/CMSIS/DSP/Source/FilteringFunctions/arm_biquad_cascade_df2T_f64.c **** * There is also an associated initialization function.
 106:Drivers/CMSIS/DSP/Source/FilteringFunctions/arm_biquad_cascade_df2T_f64.c **** * The initialization function performs following operations:
 107:Drivers/CMSIS/DSP/Source/FilteringFunctions/arm_biquad_cascade_df2T_f64.c **** * - Sets the values of the internal structure fields.
 108:Drivers/CMSIS/DSP/Source/FilteringFunctions/arm_biquad_cascade_df2T_f64.c **** * - Zeros out the values in the state buffer.
 109:Drivers/CMSIS/DSP/Source/FilteringFunctions/arm_biquad_cascade_df2T_f64.c **** * To do this manually without calling the init function, assign the follow subfields of the instanc
 110:Drivers/CMSIS/DSP/Source/FilteringFunctions/arm_biquad_cascade_df2T_f64.c **** * numStages, pCoeffs, pState. Also set all of the values in pState to zero.
 111:Drivers/CMSIS/DSP/Source/FilteringFunctions/arm_biquad_cascade_df2T_f64.c **** *
 112:Drivers/CMSIS/DSP/Source/FilteringFunctions/arm_biquad_cascade_df2T_f64.c **** * \par
 113:Drivers/CMSIS/DSP/Source/FilteringFunctions/arm_biquad_cascade_df2T_f64.c **** * Use of the initialization function is optional.
 114:Drivers/CMSIS/DSP/Source/FilteringFunctions/arm_biquad_cascade_df2T_f64.c **** * However, if the initialization function is used, then the instance structure cannot be placed int
 115:Drivers/CMSIS/DSP/Source/FilteringFunctions/arm_biquad_cascade_df2T_f64.c **** * To place an instance structure into a const data section, the instance structure must be manually
 116:Drivers/CMSIS/DSP/Source/FilteringFunctions/arm_biquad_cascade_df2T_f64.c **** * Set the values in the state buffer to zeros before static initialization.
 117:Drivers/CMSIS/DSP/Source/FilteringFunctions/arm_biquad_cascade_df2T_f64.c **** * For example, to statically initialize the instance structure use
 118:Drivers/CMSIS/DSP/Source/FilteringFunctions/arm_biquad_cascade_df2T_f64.c **** * <pre>
 119:Drivers/CMSIS/DSP/Source/FilteringFunctions/arm_biquad_cascade_df2T_f64.c **** *     arm_biquad_cascade_df2T_instance_f64 S1 = {numStages, pState, pCoeffs};
 120:Drivers/CMSIS/DSP/Source/FilteringFunctions/arm_biquad_cascade_df2T_f64.c **** * </pre>
 121:Drivers/CMSIS/DSP/Source/FilteringFunctions/arm_biquad_cascade_df2T_f64.c **** * where <code>numStages</code> is the number of Biquad stages in the filter; <code>pState</code> is
 122:Drivers/CMSIS/DSP/Source/FilteringFunctions/arm_biquad_cascade_df2T_f64.c **** * <code>pCoeffs</code> is the address of the coefficient buffer;
 123:Drivers/CMSIS/DSP/Source/FilteringFunctions/arm_biquad_cascade_df2T_f64.c **** *
 124:Drivers/CMSIS/DSP/Source/FilteringFunctions/arm_biquad_cascade_df2T_f64.c **** */
 125:Drivers/CMSIS/DSP/Source/FilteringFunctions/arm_biquad_cascade_df2T_f64.c **** 
 126:Drivers/CMSIS/DSP/Source/FilteringFunctions/arm_biquad_cascade_df2T_f64.c **** /**
 127:Drivers/CMSIS/DSP/Source/FilteringFunctions/arm_biquad_cascade_df2T_f64.c **** * @addtogroup BiquadCascadeDF2T
 128:Drivers/CMSIS/DSP/Source/FilteringFunctions/arm_biquad_cascade_df2T_f64.c **** * @{
 129:Drivers/CMSIS/DSP/Source/FilteringFunctions/arm_biquad_cascade_df2T_f64.c **** */
 130:Drivers/CMSIS/DSP/Source/FilteringFunctions/arm_biquad_cascade_df2T_f64.c **** 
 131:Drivers/CMSIS/DSP/Source/FilteringFunctions/arm_biquad_cascade_df2T_f64.c **** /**
 132:Drivers/CMSIS/DSP/Source/FilteringFunctions/arm_biquad_cascade_df2T_f64.c **** * @brief Processing function for the floating-point transposed direct form II Biquad cascade filter
 133:Drivers/CMSIS/DSP/Source/FilteringFunctions/arm_biquad_cascade_df2T_f64.c **** * @param[in]  *S        points to an instance of the filter data structure.
 134:Drivers/CMSIS/DSP/Source/FilteringFunctions/arm_biquad_cascade_df2T_f64.c **** * @param[in]  *pSrc     points to the block of input data.
 135:Drivers/CMSIS/DSP/Source/FilteringFunctions/arm_biquad_cascade_df2T_f64.c **** * @param[out] *pDst     points to the block of output data
 136:Drivers/CMSIS/DSP/Source/FilteringFunctions/arm_biquad_cascade_df2T_f64.c **** * @param[in]  blockSize number of samples to process.
 137:Drivers/CMSIS/DSP/Source/FilteringFunctions/arm_biquad_cascade_df2T_f64.c **** * @return none.
 138:Drivers/CMSIS/DSP/Source/FilteringFunctions/arm_biquad_cascade_df2T_f64.c **** */
 139:Drivers/CMSIS/DSP/Source/FilteringFunctions/arm_biquad_cascade_df2T_f64.c **** 
 140:Drivers/CMSIS/DSP/Source/FilteringFunctions/arm_biquad_cascade_df2T_f64.c **** 
 141:Drivers/CMSIS/DSP/Source/FilteringFunctions/arm_biquad_cascade_df2T_f64.c **** LOW_OPTIMIZATION_ENTER
 142:Drivers/CMSIS/DSP/Source/FilteringFunctions/arm_biquad_cascade_df2T_f64.c **** void arm_biquad_cascade_df2T_f64(
 143:Drivers/CMSIS/DSP/Source/FilteringFunctions/arm_biquad_cascade_df2T_f64.c **** const arm_biquad_cascade_df2T_instance_f64 * S,
ARM GAS  /tmp/ccS8pXJL.s 			page 4


 144:Drivers/CMSIS/DSP/Source/FilteringFunctions/arm_biquad_cascade_df2T_f64.c **** float64_t * pSrc,
 145:Drivers/CMSIS/DSP/Source/FilteringFunctions/arm_biquad_cascade_df2T_f64.c **** float64_t * pDst,
 146:Drivers/CMSIS/DSP/Source/FilteringFunctions/arm_biquad_cascade_df2T_f64.c **** uint32_t blockSize)
 147:Drivers/CMSIS/DSP/Source/FilteringFunctions/arm_biquad_cascade_df2T_f64.c **** {
  30              		.loc 1 147 1 view -0
  31              		.cfi_startproc
  32              		@ args = 0, pretend = 0, frame = 200
  33              		@ frame_needed = 0, uses_anonymous_args = 0
  34              		.loc 1 147 1 is_stmt 0 view .LVU1
  35 0000 2DE9F04F 		push	{r4, r5, r6, r7, r8, r9, r10, fp, lr}
  36              	.LCFI0:
  37              		.cfi_def_cfa_offset 36
  38              		.cfi_offset 4, -36
  39              		.cfi_offset 5, -32
  40              		.cfi_offset 6, -28
  41              		.cfi_offset 7, -24
  42              		.cfi_offset 8, -20
  43              		.cfi_offset 9, -16
  44              		.cfi_offset 10, -12
  45              		.cfi_offset 11, -8
  46              		.cfi_offset 14, -4
  47 0004 2DED108B 		vpush.64	{d8, d9, d10, d11, d12, d13, d14, d15}
  48              	.LCFI1:
  49              		.cfi_def_cfa_offset 100
  50              		.cfi_offset 80, -100
  51              		.cfi_offset 81, -96
  52              		.cfi_offset 82, -92
  53              		.cfi_offset 83, -88
  54              		.cfi_offset 84, -84
  55              		.cfi_offset 85, -80
  56              		.cfi_offset 86, -76
  57              		.cfi_offset 87, -72
  58              		.cfi_offset 88, -68
  59              		.cfi_offset 89, -64
  60              		.cfi_offset 90, -60
  61              		.cfi_offset 91, -56
  62              		.cfi_offset 92, -52
  63              		.cfi_offset 93, -48
  64              		.cfi_offset 94, -44
  65              		.cfi_offset 95, -40
  66 0008 B3B0     		sub	sp, sp, #204
  67              	.LCFI2:
  68              		.cfi_def_cfa_offset 304
  69 000a 2791     		str	r1, [sp, #156]
  70 000c 1446     		mov	r4, r2
  71 000e 2992     		str	r2, [sp, #164]
 148:Drivers/CMSIS/DSP/Source/FilteringFunctions/arm_biquad_cascade_df2T_f64.c **** 
 149:Drivers/CMSIS/DSP/Source/FilteringFunctions/arm_biquad_cascade_df2T_f64.c ****    float64_t *pIn = pSrc;                         /*  source pointer            */
  72              		.loc 1 149 4 is_stmt 1 view .LVU2
  73              	.LVL1:
 150:Drivers/CMSIS/DSP/Source/FilteringFunctions/arm_biquad_cascade_df2T_f64.c ****    float64_t *pOut = pDst;                        /*  destination pointer       */
  74              		.loc 1 150 4 view .LVU3
 151:Drivers/CMSIS/DSP/Source/FilteringFunctions/arm_biquad_cascade_df2T_f64.c ****    float64_t *pState = S->pState;                 /*  State pointer             */
  75              		.loc 1 151 4 view .LVU4
 152:Drivers/CMSIS/DSP/Source/FilteringFunctions/arm_biquad_cascade_df2T_f64.c ****    float64_t *pCoeffs = S->pCoeffs;               /*  coefficient pointer       */
  76              		.loc 1 152 4 view .LVU5
 153:Drivers/CMSIS/DSP/Source/FilteringFunctions/arm_biquad_cascade_df2T_f64.c ****    float64_t acc1;                                /*  accumulator               */
ARM GAS  /tmp/ccS8pXJL.s 			page 5


  77              		.loc 1 153 4 view .LVU6
 154:Drivers/CMSIS/DSP/Source/FilteringFunctions/arm_biquad_cascade_df2T_f64.c ****    float64_t b0, b1, b2, a1, a2;                  /*  Filter coefficients       */
  78              		.loc 1 154 4 view .LVU7
 155:Drivers/CMSIS/DSP/Source/FilteringFunctions/arm_biquad_cascade_df2T_f64.c ****    float64_t Xn1;                                 /*  temporary input           */
  79              		.loc 1 155 4 view .LVU8
 156:Drivers/CMSIS/DSP/Source/FilteringFunctions/arm_biquad_cascade_df2T_f64.c ****    float64_t d1, d2;                              /*  state variables           */
  80              		.loc 1 156 4 view .LVU9
 157:Drivers/CMSIS/DSP/Source/FilteringFunctions/arm_biquad_cascade_df2T_f64.c ****    uint32_t sample, stage = S->numStages;         /*  loop counters             */
  81              		.loc 1 157 4 view .LVU10
  82              		.loc 1 157 21 is_stmt 0 view .LVU11
  83 0010 0178     		ldrb	r1, [r0]	@ zero_extendqisi2
  84              	.LVL2:
  85              		.loc 1 157 21 view .LVU12
  86 0012 2891     		str	r1, [sp, #160]
  87              	.LVL3:
 158:Drivers/CMSIS/DSP/Source/FilteringFunctions/arm_biquad_cascade_df2T_f64.c **** 
 159:Drivers/CMSIS/DSP/Source/FilteringFunctions/arm_biquad_cascade_df2T_f64.c **** #if defined(ARM_MATH_CM7)
 160:Drivers/CMSIS/DSP/Source/FilteringFunctions/arm_biquad_cascade_df2T_f64.c **** 
 161:Drivers/CMSIS/DSP/Source/FilteringFunctions/arm_biquad_cascade_df2T_f64.c ****    float64_t Xn2, Xn3, Xn4, Xn5, Xn6, Xn7, Xn8;   /*  Input State variables     */
 162:Drivers/CMSIS/DSP/Source/FilteringFunctions/arm_biquad_cascade_df2T_f64.c ****    float64_t Xn9, Xn10, Xn11, Xn12, Xn13, Xn14, Xn15, Xn16;
 163:Drivers/CMSIS/DSP/Source/FilteringFunctions/arm_biquad_cascade_df2T_f64.c ****    float64_t acc2, acc3, acc4, acc5, acc6, acc7;  /*  Simulates the accumulator */
 164:Drivers/CMSIS/DSP/Source/FilteringFunctions/arm_biquad_cascade_df2T_f64.c ****    float64_t acc8, acc9, acc10, acc11, acc12, acc13, acc14, acc15, acc16;
 165:Drivers/CMSIS/DSP/Source/FilteringFunctions/arm_biquad_cascade_df2T_f64.c **** 
 166:Drivers/CMSIS/DSP/Source/FilteringFunctions/arm_biquad_cascade_df2T_f64.c ****    do
 167:Drivers/CMSIS/DSP/Source/FilteringFunctions/arm_biquad_cascade_df2T_f64.c ****    {
 168:Drivers/CMSIS/DSP/Source/FilteringFunctions/arm_biquad_cascade_df2T_f64.c ****       /* Reading the coefficients */
 169:Drivers/CMSIS/DSP/Source/FilteringFunctions/arm_biquad_cascade_df2T_f64.c ****       b0 = pCoeffs[0];
 170:Drivers/CMSIS/DSP/Source/FilteringFunctions/arm_biquad_cascade_df2T_f64.c ****       b1 = pCoeffs[1];
 171:Drivers/CMSIS/DSP/Source/FilteringFunctions/arm_biquad_cascade_df2T_f64.c ****       b2 = pCoeffs[2];
 172:Drivers/CMSIS/DSP/Source/FilteringFunctions/arm_biquad_cascade_df2T_f64.c ****       a1 = pCoeffs[3];
 173:Drivers/CMSIS/DSP/Source/FilteringFunctions/arm_biquad_cascade_df2T_f64.c ****       /* Apply loop unrolling and compute 16 output values simultaneously. */
 174:Drivers/CMSIS/DSP/Source/FilteringFunctions/arm_biquad_cascade_df2T_f64.c ****       sample = blockSize >> 4U;
  88              		.loc 1 174 14 view .LVU13
  89 0014 4FEA131E 		lsr	lr, r3, #4
  90 0018 8268     		ldr	r2, [r0, #8]
  91              	.LVL4:
  92              		.loc 1 174 14 view .LVU14
  93 001a 02F1280C 		add	ip, r2, #40
  94 001e 4268     		ldr	r2, [r0, #4]
  95 0020 1032     		adds	r2, r2, #16
  96 0022 4FEACE11 		lsl	r1, lr, #7
  97              	.LVL5:
  98              		.loc 1 174 14 view .LVU15
  99 0026 3191     		str	r1, [sp, #196]
 100 0028 04EBCE11 		add	r1, r4, lr, lsl #7
 101 002c 2F91     		str	r1, [sp, #188]
 175:Drivers/CMSIS/DSP/Source/FilteringFunctions/arm_biquad_cascade_df2T_f64.c ****       a2 = pCoeffs[4];
 176:Drivers/CMSIS/DSP/Source/FilteringFunctions/arm_biquad_cascade_df2T_f64.c **** 
 177:Drivers/CMSIS/DSP/Source/FilteringFunctions/arm_biquad_cascade_df2T_f64.c ****       /*Reading the state values */
 178:Drivers/CMSIS/DSP/Source/FilteringFunctions/arm_biquad_cascade_df2T_f64.c ****       d1 = pState[0];
 179:Drivers/CMSIS/DSP/Source/FilteringFunctions/arm_biquad_cascade_df2T_f64.c ****       d2 = pState[1];
 180:Drivers/CMSIS/DSP/Source/FilteringFunctions/arm_biquad_cascade_df2T_f64.c **** 
 181:Drivers/CMSIS/DSP/Source/FilteringFunctions/arm_biquad_cascade_df2T_f64.c ****       pCoeffs += 5U;
 182:Drivers/CMSIS/DSP/Source/FilteringFunctions/arm_biquad_cascade_df2T_f64.c **** 
 183:Drivers/CMSIS/DSP/Source/FilteringFunctions/arm_biquad_cascade_df2T_f64.c **** 
 184:Drivers/CMSIS/DSP/Source/FilteringFunctions/arm_biquad_cascade_df2T_f64.c ****       /* First part of the processing with loop unrolling.  Compute 16 outputs at a time.
 185:Drivers/CMSIS/DSP/Source/FilteringFunctions/arm_biquad_cascade_df2T_f64.c ****        ** a second loop below computes the remaining 1 to 15 samples. */
ARM GAS  /tmp/ccS8pXJL.s 			page 6


 186:Drivers/CMSIS/DSP/Source/FilteringFunctions/arm_biquad_cascade_df2T_f64.c ****       while (sample > 0U) {
 187:Drivers/CMSIS/DSP/Source/FilteringFunctions/arm_biquad_cascade_df2T_f64.c **** 
 188:Drivers/CMSIS/DSP/Source/FilteringFunctions/arm_biquad_cascade_df2T_f64.c ****          /* y[n] = b0 * x[n] + d1 */
 189:Drivers/CMSIS/DSP/Source/FilteringFunctions/arm_biquad_cascade_df2T_f64.c ****          /* d1 = b1 * x[n] + a1 * y[n] + d2 */
 190:Drivers/CMSIS/DSP/Source/FilteringFunctions/arm_biquad_cascade_df2T_f64.c ****          /* d2 = b2 * x[n] + a2 * y[n] */
 191:Drivers/CMSIS/DSP/Source/FilteringFunctions/arm_biquad_cascade_df2T_f64.c **** 
 192:Drivers/CMSIS/DSP/Source/FilteringFunctions/arm_biquad_cascade_df2T_f64.c ****          /* Read the first 2 inputs. 2 cycles */
 193:Drivers/CMSIS/DSP/Source/FilteringFunctions/arm_biquad_cascade_df2T_f64.c ****          Xn1  = pIn[0 ];
 194:Drivers/CMSIS/DSP/Source/FilteringFunctions/arm_biquad_cascade_df2T_f64.c ****          Xn2  = pIn[1 ];
 195:Drivers/CMSIS/DSP/Source/FilteringFunctions/arm_biquad_cascade_df2T_f64.c **** 
 196:Drivers/CMSIS/DSP/Source/FilteringFunctions/arm_biquad_cascade_df2T_f64.c ****          /* Sample 1. 5 cycles */
 197:Drivers/CMSIS/DSP/Source/FilteringFunctions/arm_biquad_cascade_df2T_f64.c ****          Xn3  = pIn[2 ];
 198:Drivers/CMSIS/DSP/Source/FilteringFunctions/arm_biquad_cascade_df2T_f64.c ****          acc1 = b0 * Xn1 + d1;
 199:Drivers/CMSIS/DSP/Source/FilteringFunctions/arm_biquad_cascade_df2T_f64.c **** 
 200:Drivers/CMSIS/DSP/Source/FilteringFunctions/arm_biquad_cascade_df2T_f64.c ****          Xn4  = pIn[3 ];
 201:Drivers/CMSIS/DSP/Source/FilteringFunctions/arm_biquad_cascade_df2T_f64.c ****          d1 = b1 * Xn1 + d2;
 202:Drivers/CMSIS/DSP/Source/FilteringFunctions/arm_biquad_cascade_df2T_f64.c **** 
 203:Drivers/CMSIS/DSP/Source/FilteringFunctions/arm_biquad_cascade_df2T_f64.c ****          Xn5  = pIn[4 ];
 204:Drivers/CMSIS/DSP/Source/FilteringFunctions/arm_biquad_cascade_df2T_f64.c ****          d2 = b2 * Xn1;
 205:Drivers/CMSIS/DSP/Source/FilteringFunctions/arm_biquad_cascade_df2T_f64.c **** 
 206:Drivers/CMSIS/DSP/Source/FilteringFunctions/arm_biquad_cascade_df2T_f64.c ****          Xn6  = pIn[5 ];
 207:Drivers/CMSIS/DSP/Source/FilteringFunctions/arm_biquad_cascade_df2T_f64.c ****          d1 += a1 * acc1;
 208:Drivers/CMSIS/DSP/Source/FilteringFunctions/arm_biquad_cascade_df2T_f64.c **** 
 209:Drivers/CMSIS/DSP/Source/FilteringFunctions/arm_biquad_cascade_df2T_f64.c ****          Xn7  = pIn[6 ];
 210:Drivers/CMSIS/DSP/Source/FilteringFunctions/arm_biquad_cascade_df2T_f64.c ****          d2 += a2 * acc1;
 211:Drivers/CMSIS/DSP/Source/FilteringFunctions/arm_biquad_cascade_df2T_f64.c **** 
 212:Drivers/CMSIS/DSP/Source/FilteringFunctions/arm_biquad_cascade_df2T_f64.c ****          /* Sample 2. 5 cycles */
 213:Drivers/CMSIS/DSP/Source/FilteringFunctions/arm_biquad_cascade_df2T_f64.c ****          Xn8  = pIn[7 ];
 214:Drivers/CMSIS/DSP/Source/FilteringFunctions/arm_biquad_cascade_df2T_f64.c ****          acc2 = b0 * Xn2 + d1;
 215:Drivers/CMSIS/DSP/Source/FilteringFunctions/arm_biquad_cascade_df2T_f64.c **** 
 216:Drivers/CMSIS/DSP/Source/FilteringFunctions/arm_biquad_cascade_df2T_f64.c ****          Xn9  = pIn[8 ];
 217:Drivers/CMSIS/DSP/Source/FilteringFunctions/arm_biquad_cascade_df2T_f64.c ****          d1 = b1 * Xn2 + d2;
 218:Drivers/CMSIS/DSP/Source/FilteringFunctions/arm_biquad_cascade_df2T_f64.c **** 
 219:Drivers/CMSIS/DSP/Source/FilteringFunctions/arm_biquad_cascade_df2T_f64.c ****          Xn10 = pIn[9 ];
 220:Drivers/CMSIS/DSP/Source/FilteringFunctions/arm_biquad_cascade_df2T_f64.c ****          d2 = b2 * Xn2;
 221:Drivers/CMSIS/DSP/Source/FilteringFunctions/arm_biquad_cascade_df2T_f64.c **** 
 222:Drivers/CMSIS/DSP/Source/FilteringFunctions/arm_biquad_cascade_df2T_f64.c ****          Xn11 = pIn[10];
 223:Drivers/CMSIS/DSP/Source/FilteringFunctions/arm_biquad_cascade_df2T_f64.c ****          d1 += a1 * acc2;
 224:Drivers/CMSIS/DSP/Source/FilteringFunctions/arm_biquad_cascade_df2T_f64.c **** 
 225:Drivers/CMSIS/DSP/Source/FilteringFunctions/arm_biquad_cascade_df2T_f64.c ****          Xn12 = pIn[11];
 226:Drivers/CMSIS/DSP/Source/FilteringFunctions/arm_biquad_cascade_df2T_f64.c ****          d2 += a2 * acc2;
 227:Drivers/CMSIS/DSP/Source/FilteringFunctions/arm_biquad_cascade_df2T_f64.c **** 
 228:Drivers/CMSIS/DSP/Source/FilteringFunctions/arm_biquad_cascade_df2T_f64.c ****          /* Sample 3. 5 cycles */
 229:Drivers/CMSIS/DSP/Source/FilteringFunctions/arm_biquad_cascade_df2T_f64.c ****          Xn13 = pIn[12];
 230:Drivers/CMSIS/DSP/Source/FilteringFunctions/arm_biquad_cascade_df2T_f64.c ****          acc3 = b0 * Xn3 + d1;
 231:Drivers/CMSIS/DSP/Source/FilteringFunctions/arm_biquad_cascade_df2T_f64.c **** 
 232:Drivers/CMSIS/DSP/Source/FilteringFunctions/arm_biquad_cascade_df2T_f64.c ****          Xn14 = pIn[13];
 233:Drivers/CMSIS/DSP/Source/FilteringFunctions/arm_biquad_cascade_df2T_f64.c ****          d1 = b1 * Xn3 + d2;
 234:Drivers/CMSIS/DSP/Source/FilteringFunctions/arm_biquad_cascade_df2T_f64.c **** 
 235:Drivers/CMSIS/DSP/Source/FilteringFunctions/arm_biquad_cascade_df2T_f64.c ****          Xn15 = pIn[14];
 236:Drivers/CMSIS/DSP/Source/FilteringFunctions/arm_biquad_cascade_df2T_f64.c ****          d2 = b2 * Xn3;
 237:Drivers/CMSIS/DSP/Source/FilteringFunctions/arm_biquad_cascade_df2T_f64.c **** 
 238:Drivers/CMSIS/DSP/Source/FilteringFunctions/arm_biquad_cascade_df2T_f64.c ****          Xn16 = pIn[15];
 239:Drivers/CMSIS/DSP/Source/FilteringFunctions/arm_biquad_cascade_df2T_f64.c ****          d1 += a1 * acc3;
 240:Drivers/CMSIS/DSP/Source/FilteringFunctions/arm_biquad_cascade_df2T_f64.c **** 
 241:Drivers/CMSIS/DSP/Source/FilteringFunctions/arm_biquad_cascade_df2T_f64.c ****          pIn += 16;
 242:Drivers/CMSIS/DSP/Source/FilteringFunctions/arm_biquad_cascade_df2T_f64.c ****          d2 += a2 * acc3;
ARM GAS  /tmp/ccS8pXJL.s 			page 7


 243:Drivers/CMSIS/DSP/Source/FilteringFunctions/arm_biquad_cascade_df2T_f64.c **** 
 244:Drivers/CMSIS/DSP/Source/FilteringFunctions/arm_biquad_cascade_df2T_f64.c ****          /* Sample 4. 5 cycles */
 245:Drivers/CMSIS/DSP/Source/FilteringFunctions/arm_biquad_cascade_df2T_f64.c ****          acc4 = b0 * Xn4 + d1;
 246:Drivers/CMSIS/DSP/Source/FilteringFunctions/arm_biquad_cascade_df2T_f64.c ****          d1 = b1 * Xn4 + d2;
 247:Drivers/CMSIS/DSP/Source/FilteringFunctions/arm_biquad_cascade_df2T_f64.c ****          d2 = b2 * Xn4;
 248:Drivers/CMSIS/DSP/Source/FilteringFunctions/arm_biquad_cascade_df2T_f64.c ****          d1 += a1 * acc4;
 249:Drivers/CMSIS/DSP/Source/FilteringFunctions/arm_biquad_cascade_df2T_f64.c ****          d2 += a2 * acc4;
 250:Drivers/CMSIS/DSP/Source/FilteringFunctions/arm_biquad_cascade_df2T_f64.c **** 
 251:Drivers/CMSIS/DSP/Source/FilteringFunctions/arm_biquad_cascade_df2T_f64.c ****          /* Sample 5. 5 cycles */
 252:Drivers/CMSIS/DSP/Source/FilteringFunctions/arm_biquad_cascade_df2T_f64.c ****          acc5 = b0 * Xn5 + d1;
 253:Drivers/CMSIS/DSP/Source/FilteringFunctions/arm_biquad_cascade_df2T_f64.c ****          d1 = b1 * Xn5 + d2;
 254:Drivers/CMSIS/DSP/Source/FilteringFunctions/arm_biquad_cascade_df2T_f64.c ****          d2 = b2 * Xn5;
 255:Drivers/CMSIS/DSP/Source/FilteringFunctions/arm_biquad_cascade_df2T_f64.c ****          d1 += a1 * acc5;
 256:Drivers/CMSIS/DSP/Source/FilteringFunctions/arm_biquad_cascade_df2T_f64.c ****          d2 += a2 * acc5;
 257:Drivers/CMSIS/DSP/Source/FilteringFunctions/arm_biquad_cascade_df2T_f64.c **** 
 258:Drivers/CMSIS/DSP/Source/FilteringFunctions/arm_biquad_cascade_df2T_f64.c ****          /* Sample 6. 5 cycles */
 259:Drivers/CMSIS/DSP/Source/FilteringFunctions/arm_biquad_cascade_df2T_f64.c ****          acc6 = b0 * Xn6 + d1;
 260:Drivers/CMSIS/DSP/Source/FilteringFunctions/arm_biquad_cascade_df2T_f64.c ****          d1 = b1 * Xn6 + d2;
 261:Drivers/CMSIS/DSP/Source/FilteringFunctions/arm_biquad_cascade_df2T_f64.c ****          d2 = b2 * Xn6;
 262:Drivers/CMSIS/DSP/Source/FilteringFunctions/arm_biquad_cascade_df2T_f64.c ****          d1 += a1 * acc6;
 263:Drivers/CMSIS/DSP/Source/FilteringFunctions/arm_biquad_cascade_df2T_f64.c ****          d2 += a2 * acc6;
 264:Drivers/CMSIS/DSP/Source/FilteringFunctions/arm_biquad_cascade_df2T_f64.c **** 
 265:Drivers/CMSIS/DSP/Source/FilteringFunctions/arm_biquad_cascade_df2T_f64.c ****          /* Sample 7. 5 cycles */
 266:Drivers/CMSIS/DSP/Source/FilteringFunctions/arm_biquad_cascade_df2T_f64.c ****          acc7 = b0 * Xn7 + d1;
 267:Drivers/CMSIS/DSP/Source/FilteringFunctions/arm_biquad_cascade_df2T_f64.c ****          d1 = b1 * Xn7 + d2;
 268:Drivers/CMSIS/DSP/Source/FilteringFunctions/arm_biquad_cascade_df2T_f64.c ****          d2 = b2 * Xn7;
 269:Drivers/CMSIS/DSP/Source/FilteringFunctions/arm_biquad_cascade_df2T_f64.c ****          d1 += a1 * acc7;
 270:Drivers/CMSIS/DSP/Source/FilteringFunctions/arm_biquad_cascade_df2T_f64.c ****          d2 += a2 * acc7;
 271:Drivers/CMSIS/DSP/Source/FilteringFunctions/arm_biquad_cascade_df2T_f64.c **** 
 272:Drivers/CMSIS/DSP/Source/FilteringFunctions/arm_biquad_cascade_df2T_f64.c ****          /* Sample 8. 5 cycles */
 273:Drivers/CMSIS/DSP/Source/FilteringFunctions/arm_biquad_cascade_df2T_f64.c ****          acc8 = b0 * Xn8 + d1;
 274:Drivers/CMSIS/DSP/Source/FilteringFunctions/arm_biquad_cascade_df2T_f64.c ****          d1 = b1 * Xn8 + d2;
 275:Drivers/CMSIS/DSP/Source/FilteringFunctions/arm_biquad_cascade_df2T_f64.c ****          d2 = b2 * Xn8;
 276:Drivers/CMSIS/DSP/Source/FilteringFunctions/arm_biquad_cascade_df2T_f64.c ****          d1 += a1 * acc8;
 277:Drivers/CMSIS/DSP/Source/FilteringFunctions/arm_biquad_cascade_df2T_f64.c ****          d2 += a2 * acc8;
 278:Drivers/CMSIS/DSP/Source/FilteringFunctions/arm_biquad_cascade_df2T_f64.c **** 
 279:Drivers/CMSIS/DSP/Source/FilteringFunctions/arm_biquad_cascade_df2T_f64.c ****          /* Sample 9. 5 cycles */
 280:Drivers/CMSIS/DSP/Source/FilteringFunctions/arm_biquad_cascade_df2T_f64.c ****          acc9 = b0 * Xn9 + d1;
 281:Drivers/CMSIS/DSP/Source/FilteringFunctions/arm_biquad_cascade_df2T_f64.c ****          d1 = b1 * Xn9 + d2;
 282:Drivers/CMSIS/DSP/Source/FilteringFunctions/arm_biquad_cascade_df2T_f64.c ****          d2 = b2 * Xn9;
 283:Drivers/CMSIS/DSP/Source/FilteringFunctions/arm_biquad_cascade_df2T_f64.c ****          d1 += a1 * acc9;
 284:Drivers/CMSIS/DSP/Source/FilteringFunctions/arm_biquad_cascade_df2T_f64.c ****          d2 += a2 * acc9;
 285:Drivers/CMSIS/DSP/Source/FilteringFunctions/arm_biquad_cascade_df2T_f64.c **** 
 286:Drivers/CMSIS/DSP/Source/FilteringFunctions/arm_biquad_cascade_df2T_f64.c ****          /* Sample 10. 5 cycles */
 287:Drivers/CMSIS/DSP/Source/FilteringFunctions/arm_biquad_cascade_df2T_f64.c ****          acc10 = b0 * Xn10 + d1;
 288:Drivers/CMSIS/DSP/Source/FilteringFunctions/arm_biquad_cascade_df2T_f64.c ****          d1 = b1 * Xn10 + d2;
 289:Drivers/CMSIS/DSP/Source/FilteringFunctions/arm_biquad_cascade_df2T_f64.c ****          d2 = b2 * Xn10;
 290:Drivers/CMSIS/DSP/Source/FilteringFunctions/arm_biquad_cascade_df2T_f64.c ****          d1 += a1 * acc10;
 291:Drivers/CMSIS/DSP/Source/FilteringFunctions/arm_biquad_cascade_df2T_f64.c ****          d2 += a2 * acc10;
 292:Drivers/CMSIS/DSP/Source/FilteringFunctions/arm_biquad_cascade_df2T_f64.c **** 
 293:Drivers/CMSIS/DSP/Source/FilteringFunctions/arm_biquad_cascade_df2T_f64.c ****          /* Sample 11. 5 cycles */
 294:Drivers/CMSIS/DSP/Source/FilteringFunctions/arm_biquad_cascade_df2T_f64.c ****          acc11 = b0 * Xn11 + d1;
 295:Drivers/CMSIS/DSP/Source/FilteringFunctions/arm_biquad_cascade_df2T_f64.c ****          d1 = b1 * Xn11 + d2;
 296:Drivers/CMSIS/DSP/Source/FilteringFunctions/arm_biquad_cascade_df2T_f64.c ****          d2 = b2 * Xn11;
 297:Drivers/CMSIS/DSP/Source/FilteringFunctions/arm_biquad_cascade_df2T_f64.c ****          d1 += a1 * acc11;
 298:Drivers/CMSIS/DSP/Source/FilteringFunctions/arm_biquad_cascade_df2T_f64.c ****          d2 += a2 * acc11;
 299:Drivers/CMSIS/DSP/Source/FilteringFunctions/arm_biquad_cascade_df2T_f64.c **** 
ARM GAS  /tmp/ccS8pXJL.s 			page 8


 300:Drivers/CMSIS/DSP/Source/FilteringFunctions/arm_biquad_cascade_df2T_f64.c ****          /* Sample 12. 5 cycles */
 301:Drivers/CMSIS/DSP/Source/FilteringFunctions/arm_biquad_cascade_df2T_f64.c ****          acc12 = b0 * Xn12 + d1;
 302:Drivers/CMSIS/DSP/Source/FilteringFunctions/arm_biquad_cascade_df2T_f64.c ****          d1 = b1 * Xn12 + d2;
 303:Drivers/CMSIS/DSP/Source/FilteringFunctions/arm_biquad_cascade_df2T_f64.c ****          d2 = b2 * Xn12;
 304:Drivers/CMSIS/DSP/Source/FilteringFunctions/arm_biquad_cascade_df2T_f64.c ****          d1 += a1 * acc12;
 305:Drivers/CMSIS/DSP/Source/FilteringFunctions/arm_biquad_cascade_df2T_f64.c ****          d2 += a2 * acc12;
 306:Drivers/CMSIS/DSP/Source/FilteringFunctions/arm_biquad_cascade_df2T_f64.c **** 
 307:Drivers/CMSIS/DSP/Source/FilteringFunctions/arm_biquad_cascade_df2T_f64.c ****          /* Sample 13. 5 cycles */
 308:Drivers/CMSIS/DSP/Source/FilteringFunctions/arm_biquad_cascade_df2T_f64.c ****          acc13 = b0 * Xn13 + d1;
 309:Drivers/CMSIS/DSP/Source/FilteringFunctions/arm_biquad_cascade_df2T_f64.c ****          d1 = b1 * Xn13 + d2;
 310:Drivers/CMSIS/DSP/Source/FilteringFunctions/arm_biquad_cascade_df2T_f64.c ****          d2 = b2 * Xn13;
 311:Drivers/CMSIS/DSP/Source/FilteringFunctions/arm_biquad_cascade_df2T_f64.c **** 
 312:Drivers/CMSIS/DSP/Source/FilteringFunctions/arm_biquad_cascade_df2T_f64.c ****          pOut[0 ] = acc1 ;
 313:Drivers/CMSIS/DSP/Source/FilteringFunctions/arm_biquad_cascade_df2T_f64.c ****          d1 += a1 * acc13;
 314:Drivers/CMSIS/DSP/Source/FilteringFunctions/arm_biquad_cascade_df2T_f64.c **** 
 315:Drivers/CMSIS/DSP/Source/FilteringFunctions/arm_biquad_cascade_df2T_f64.c ****          pOut[1 ] = acc2 ;
 316:Drivers/CMSIS/DSP/Source/FilteringFunctions/arm_biquad_cascade_df2T_f64.c ****          d2 += a2 * acc13;
 317:Drivers/CMSIS/DSP/Source/FilteringFunctions/arm_biquad_cascade_df2T_f64.c **** 
 318:Drivers/CMSIS/DSP/Source/FilteringFunctions/arm_biquad_cascade_df2T_f64.c ****          /* Sample 14. 5 cycles */
 319:Drivers/CMSIS/DSP/Source/FilteringFunctions/arm_biquad_cascade_df2T_f64.c ****          pOut[2 ] = acc3 ;
 320:Drivers/CMSIS/DSP/Source/FilteringFunctions/arm_biquad_cascade_df2T_f64.c ****          acc14 = b0 * Xn14 + d1;
 321:Drivers/CMSIS/DSP/Source/FilteringFunctions/arm_biquad_cascade_df2T_f64.c **** 
 322:Drivers/CMSIS/DSP/Source/FilteringFunctions/arm_biquad_cascade_df2T_f64.c ****          pOut[3 ] = acc4 ;
 323:Drivers/CMSIS/DSP/Source/FilteringFunctions/arm_biquad_cascade_df2T_f64.c ****          d1 = b1 * Xn14 + d2;
 324:Drivers/CMSIS/DSP/Source/FilteringFunctions/arm_biquad_cascade_df2T_f64.c **** 
 325:Drivers/CMSIS/DSP/Source/FilteringFunctions/arm_biquad_cascade_df2T_f64.c ****          pOut[4 ] = acc5 ;
 326:Drivers/CMSIS/DSP/Source/FilteringFunctions/arm_biquad_cascade_df2T_f64.c ****          d2 = b2 * Xn14;
 327:Drivers/CMSIS/DSP/Source/FilteringFunctions/arm_biquad_cascade_df2T_f64.c **** 
 328:Drivers/CMSIS/DSP/Source/FilteringFunctions/arm_biquad_cascade_df2T_f64.c ****          pOut[5 ] = acc6 ;
 329:Drivers/CMSIS/DSP/Source/FilteringFunctions/arm_biquad_cascade_df2T_f64.c ****          d1 += a1 * acc14;
 330:Drivers/CMSIS/DSP/Source/FilteringFunctions/arm_biquad_cascade_df2T_f64.c **** 
 331:Drivers/CMSIS/DSP/Source/FilteringFunctions/arm_biquad_cascade_df2T_f64.c ****          pOut[6 ] = acc7 ;
 332:Drivers/CMSIS/DSP/Source/FilteringFunctions/arm_biquad_cascade_df2T_f64.c ****          d2 += a2 * acc14;
 333:Drivers/CMSIS/DSP/Source/FilteringFunctions/arm_biquad_cascade_df2T_f64.c **** 
 334:Drivers/CMSIS/DSP/Source/FilteringFunctions/arm_biquad_cascade_df2T_f64.c ****          /* Sample 15. 5 cycles */
 335:Drivers/CMSIS/DSP/Source/FilteringFunctions/arm_biquad_cascade_df2T_f64.c ****          pOut[7 ] = acc8 ;
 336:Drivers/CMSIS/DSP/Source/FilteringFunctions/arm_biquad_cascade_df2T_f64.c ****          pOut[8 ] = acc9 ;
 337:Drivers/CMSIS/DSP/Source/FilteringFunctions/arm_biquad_cascade_df2T_f64.c ****          acc15 = b0 * Xn15 + d1;
 338:Drivers/CMSIS/DSP/Source/FilteringFunctions/arm_biquad_cascade_df2T_f64.c **** 
 339:Drivers/CMSIS/DSP/Source/FilteringFunctions/arm_biquad_cascade_df2T_f64.c ****          pOut[9 ] = acc10;
 340:Drivers/CMSIS/DSP/Source/FilteringFunctions/arm_biquad_cascade_df2T_f64.c ****          d1 = b1 * Xn15 + d2;
 341:Drivers/CMSIS/DSP/Source/FilteringFunctions/arm_biquad_cascade_df2T_f64.c **** 
 342:Drivers/CMSIS/DSP/Source/FilteringFunctions/arm_biquad_cascade_df2T_f64.c ****          pOut[10] = acc11;
 343:Drivers/CMSIS/DSP/Source/FilteringFunctions/arm_biquad_cascade_df2T_f64.c ****          d2 = b2 * Xn15;
 344:Drivers/CMSIS/DSP/Source/FilteringFunctions/arm_biquad_cascade_df2T_f64.c **** 
 345:Drivers/CMSIS/DSP/Source/FilteringFunctions/arm_biquad_cascade_df2T_f64.c ****          pOut[11] = acc12;
 346:Drivers/CMSIS/DSP/Source/FilteringFunctions/arm_biquad_cascade_df2T_f64.c ****          d1 += a1 * acc15;
 347:Drivers/CMSIS/DSP/Source/FilteringFunctions/arm_biquad_cascade_df2T_f64.c **** 
 348:Drivers/CMSIS/DSP/Source/FilteringFunctions/arm_biquad_cascade_df2T_f64.c ****          pOut[12] = acc13;
 349:Drivers/CMSIS/DSP/Source/FilteringFunctions/arm_biquad_cascade_df2T_f64.c ****          d2 += a2 * acc15;
 350:Drivers/CMSIS/DSP/Source/FilteringFunctions/arm_biquad_cascade_df2T_f64.c **** 
 351:Drivers/CMSIS/DSP/Source/FilteringFunctions/arm_biquad_cascade_df2T_f64.c ****          /* Sample 16. 5 cycles */
 352:Drivers/CMSIS/DSP/Source/FilteringFunctions/arm_biquad_cascade_df2T_f64.c ****          pOut[13] = acc14;
 353:Drivers/CMSIS/DSP/Source/FilteringFunctions/arm_biquad_cascade_df2T_f64.c ****          acc16 = b0 * Xn16 + d1;
 354:Drivers/CMSIS/DSP/Source/FilteringFunctions/arm_biquad_cascade_df2T_f64.c **** 
 355:Drivers/CMSIS/DSP/Source/FilteringFunctions/arm_biquad_cascade_df2T_f64.c ****          pOut[14] = acc15;
 356:Drivers/CMSIS/DSP/Source/FilteringFunctions/arm_biquad_cascade_df2T_f64.c ****          d1 = b1 * Xn16 + d2;
ARM GAS  /tmp/ccS8pXJL.s 			page 9


 357:Drivers/CMSIS/DSP/Source/FilteringFunctions/arm_biquad_cascade_df2T_f64.c **** 
 358:Drivers/CMSIS/DSP/Source/FilteringFunctions/arm_biquad_cascade_df2T_f64.c ****          pOut[15] = acc16;
 359:Drivers/CMSIS/DSP/Source/FilteringFunctions/arm_biquad_cascade_df2T_f64.c ****          d2 = b2 * Xn16;
 360:Drivers/CMSIS/DSP/Source/FilteringFunctions/arm_biquad_cascade_df2T_f64.c **** 
 361:Drivers/CMSIS/DSP/Source/FilteringFunctions/arm_biquad_cascade_df2T_f64.c ****          sample--;
 362:Drivers/CMSIS/DSP/Source/FilteringFunctions/arm_biquad_cascade_df2T_f64.c ****          d1 += a1 * acc16;
 363:Drivers/CMSIS/DSP/Source/FilteringFunctions/arm_biquad_cascade_df2T_f64.c **** 
 364:Drivers/CMSIS/DSP/Source/FilteringFunctions/arm_biquad_cascade_df2T_f64.c ****          pOut += 16;
 365:Drivers/CMSIS/DSP/Source/FilteringFunctions/arm_biquad_cascade_df2T_f64.c ****          d2 += a2 * acc16;
 366:Drivers/CMSIS/DSP/Source/FilteringFunctions/arm_biquad_cascade_df2T_f64.c ****       }
 367:Drivers/CMSIS/DSP/Source/FilteringFunctions/arm_biquad_cascade_df2T_f64.c **** 
 368:Drivers/CMSIS/DSP/Source/FilteringFunctions/arm_biquad_cascade_df2T_f64.c ****       sample = blockSize & 0xFu;
 102              		.loc 1 368 14 view .LVU16
 103 002e 03F00F03 		and	r3, r3, #15
 104              	.LVL6:
 105              		.loc 1 368 14 view .LVU17
 106 0032 D900     		lsls	r1, r3, #3
 107 0034 3091     		str	r1, [sp, #192]
 108 0036 CDF8B4E0 		str	lr, [sp, #180]
 109 003a 2E93     		str	r3, [sp, #184]
 110 003c 1346     		mov	r3, r2
 111 003e 6246     		mov	r2, ip
 112 0040 01E0     		b	.L6
 113              	.LVL7:
 114              	.L8:
 369:Drivers/CMSIS/DSP/Source/FilteringFunctions/arm_biquad_cascade_df2T_f64.c ****       while (sample > 0U) {
 370:Drivers/CMSIS/DSP/Source/FilteringFunctions/arm_biquad_cascade_df2T_f64.c ****          Xn1 = *pIn;
 371:Drivers/CMSIS/DSP/Source/FilteringFunctions/arm_biquad_cascade_df2T_f64.c ****          acc1 = b0 * Xn1 + d1;
 372:Drivers/CMSIS/DSP/Source/FilteringFunctions/arm_biquad_cascade_df2T_f64.c **** 
 373:Drivers/CMSIS/DSP/Source/FilteringFunctions/arm_biquad_cascade_df2T_f64.c ****          pIn++;
 374:Drivers/CMSIS/DSP/Source/FilteringFunctions/arm_biquad_cascade_df2T_f64.c ****          d1 = b1 * Xn1 + d2;
 375:Drivers/CMSIS/DSP/Source/FilteringFunctions/arm_biquad_cascade_df2T_f64.c **** 
 376:Drivers/CMSIS/DSP/Source/FilteringFunctions/arm_biquad_cascade_df2T_f64.c ****          *pOut = acc1;
 377:Drivers/CMSIS/DSP/Source/FilteringFunctions/arm_biquad_cascade_df2T_f64.c ****          d2 = b2 * Xn1;
 378:Drivers/CMSIS/DSP/Source/FilteringFunctions/arm_biquad_cascade_df2T_f64.c **** 
 379:Drivers/CMSIS/DSP/Source/FilteringFunctions/arm_biquad_cascade_df2T_f64.c ****          pOut++;
 380:Drivers/CMSIS/DSP/Source/FilteringFunctions/arm_biquad_cascade_df2T_f64.c ****          d1 += a1 * acc1;
 381:Drivers/CMSIS/DSP/Source/FilteringFunctions/arm_biquad_cascade_df2T_f64.c **** 
 382:Drivers/CMSIS/DSP/Source/FilteringFunctions/arm_biquad_cascade_df2T_f64.c ****          sample--;
 383:Drivers/CMSIS/DSP/Source/FilteringFunctions/arm_biquad_cascade_df2T_f64.c ****          d2 += a2 * acc1;
 384:Drivers/CMSIS/DSP/Source/FilteringFunctions/arm_biquad_cascade_df2T_f64.c ****       }
 385:Drivers/CMSIS/DSP/Source/FilteringFunctions/arm_biquad_cascade_df2T_f64.c **** 
 386:Drivers/CMSIS/DSP/Source/FilteringFunctions/arm_biquad_cascade_df2T_f64.c ****       /* Store the updated state variables back into the state array */
 387:Drivers/CMSIS/DSP/Source/FilteringFunctions/arm_biquad_cascade_df2T_f64.c ****       pState[0] = d1;
 388:Drivers/CMSIS/DSP/Source/FilteringFunctions/arm_biquad_cascade_df2T_f64.c ****       /* The current stage input is given as the output to the next stage */
 389:Drivers/CMSIS/DSP/Source/FilteringFunctions/arm_biquad_cascade_df2T_f64.c ****       pIn = pDst;
 115              		.loc 1 389 11 view .LVU18
 116 0042 2999     		ldr	r1, [sp, #164]
 117              	.LVL8:
 118              		.loc 1 389 11 view .LVU19
 119 0044 2791     		str	r1, [sp, #156]
 120              	.LVL9:
 121              	.L6:
 161:Drivers/CMSIS/DSP/Source/FilteringFunctions/arm_biquad_cascade_df2T_f64.c ****    float64_t Xn9, Xn10, Xn11, Xn12, Xn13, Xn14, Xn15, Xn16;
 122              		.loc 1 161 4 is_stmt 1 view .LVU20
 162:Drivers/CMSIS/DSP/Source/FilteringFunctions/arm_biquad_cascade_df2T_f64.c ****    float64_t acc2, acc3, acc4, acc5, acc6, acc7;  /*  Simulates the accumulator */
 123              		.loc 1 162 4 view .LVU21
ARM GAS  /tmp/ccS8pXJL.s 			page 10


 163:Drivers/CMSIS/DSP/Source/FilteringFunctions/arm_biquad_cascade_df2T_f64.c ****    float64_t acc8, acc9, acc10, acc11, acc12, acc13, acc14, acc15, acc16;
 124              		.loc 1 163 4 view .LVU22
 164:Drivers/CMSIS/DSP/Source/FilteringFunctions/arm_biquad_cascade_df2T_f64.c **** 
 125              		.loc 1 164 4 view .LVU23
 166:Drivers/CMSIS/DSP/Source/FilteringFunctions/arm_biquad_cascade_df2T_f64.c ****    {
 126              		.loc 1 166 4 view .LVU24
 169:Drivers/CMSIS/DSP/Source/FilteringFunctions/arm_biquad_cascade_df2T_f64.c ****       b1 = pCoeffs[1];
 127              		.loc 1 169 7 view .LVU25
 169:Drivers/CMSIS/DSP/Source/FilteringFunctions/arm_biquad_cascade_df2T_f64.c ****       b1 = pCoeffs[1];
 128              		.loc 1 169 10 is_stmt 0 view .LVU26
 129 0046 52E90A89 		ldrd	r8, [r2, #-40]
 130              	.LVL10:
 170:Drivers/CMSIS/DSP/Source/FilteringFunctions/arm_biquad_cascade_df2T_f64.c ****       b2 = pCoeffs[2];
 131              		.loc 1 170 7 is_stmt 1 view .LVU27
 170:Drivers/CMSIS/DSP/Source/FilteringFunctions/arm_biquad_cascade_df2T_f64.c ****       b2 = pCoeffs[2];
 132              		.loc 1 170 10 is_stmt 0 view .LVU28
 133 004a 52E908AB 		ldrd	r10, [r2, #-32]
 134              	.LVL11:
 171:Drivers/CMSIS/DSP/Source/FilteringFunctions/arm_biquad_cascade_df2T_f64.c ****       a1 = pCoeffs[3];
 135              		.loc 1 171 7 is_stmt 1 view .LVU29
 171:Drivers/CMSIS/DSP/Source/FilteringFunctions/arm_biquad_cascade_df2T_f64.c ****       a1 = pCoeffs[3];
 136              		.loc 1 171 10 is_stmt 0 view .LVU30
 137 004e 12ED067B 		vldr.64	d7, [r2, #-24]
 138 0052 8DED007B 		vstr.64	d7, [sp]
 139              	.LVL12:
 172:Drivers/CMSIS/DSP/Source/FilteringFunctions/arm_biquad_cascade_df2T_f64.c ****       /* Apply loop unrolling and compute 16 output values simultaneously. */
 140              		.loc 1 172 7 is_stmt 1 view .LVU31
 172:Drivers/CMSIS/DSP/Source/FilteringFunctions/arm_biquad_cascade_df2T_f64.c ****       /* Apply loop unrolling and compute 16 output values simultaneously. */
 141              		.loc 1 172 10 is_stmt 0 view .LVU32
 142 0056 12ED047B 		vldr.64	d7, [r2, #-16]
 143              	.LVL13:
 172:Drivers/CMSIS/DSP/Source/FilteringFunctions/arm_biquad_cascade_df2T_f64.c ****       /* Apply loop unrolling and compute 16 output values simultaneously. */
 144              		.loc 1 172 10 view .LVU33
 145 005a 8DED027B 		vstr.64	d7, [sp, #8]
 146              	.LVL14:
 174:Drivers/CMSIS/DSP/Source/FilteringFunctions/arm_biquad_cascade_df2T_f64.c ****       a2 = pCoeffs[4];
 147              		.loc 1 174 7 is_stmt 1 view .LVU34
 175:Drivers/CMSIS/DSP/Source/FilteringFunctions/arm_biquad_cascade_df2T_f64.c **** 
 148              		.loc 1 175 7 view .LVU35
 175:Drivers/CMSIS/DSP/Source/FilteringFunctions/arm_biquad_cascade_df2T_f64.c **** 
 149              		.loc 1 175 10 is_stmt 0 view .LVU36
 150 005e 12ED027B 		vldr.64	d7, [r2, #-8]
 151              	.LVL15:
 175:Drivers/CMSIS/DSP/Source/FilteringFunctions/arm_biquad_cascade_df2T_f64.c **** 
 152              		.loc 1 175 10 view .LVU37
 153 0062 8DED047B 		vstr.64	d7, [sp, #16]
 154              	.LVL16:
 178:Drivers/CMSIS/DSP/Source/FilteringFunctions/arm_biquad_cascade_df2T_f64.c ****       d2 = pState[1];
 155              		.loc 1 178 7 is_stmt 1 view .LVU38
 156 0066 1F46     		mov	r7, r3
 178:Drivers/CMSIS/DSP/Source/FilteringFunctions/arm_biquad_cascade_df2T_f64.c ****       d2 = pState[1];
 157              		.loc 1 178 10 is_stmt 0 view .LVU39
 158 0068 13ED047B 		vldr.64	d7, [r3, #-16]
 159              	.LVL17:
 178:Drivers/CMSIS/DSP/Source/FilteringFunctions/arm_biquad_cascade_df2T_f64.c ****       d2 = pState[1];
 160              		.loc 1 178 10 view .LVU40
 161 006c 8DED067B 		vstr.64	d7, [sp, #24]
ARM GAS  /tmp/ccS8pXJL.s 			page 11


 162              	.LVL18:
 179:Drivers/CMSIS/DSP/Source/FilteringFunctions/arm_biquad_cascade_df2T_f64.c **** 
 163              		.loc 1 179 7 is_stmt 1 view .LVU41
 179:Drivers/CMSIS/DSP/Source/FilteringFunctions/arm_biquad_cascade_df2T_f64.c **** 
 164              		.loc 1 179 10 is_stmt 0 view .LVU42
 165 0070 13ED027B 		vldr.64	d7, [r3, #-8]
 166              	.LVL19:
 179:Drivers/CMSIS/DSP/Source/FilteringFunctions/arm_biquad_cascade_df2T_f64.c **** 
 167              		.loc 1 179 10 view .LVU43
 168 0074 8DED087B 		vstr.64	d7, [sp, #32]
 169              	.LVL20:
 181:Drivers/CMSIS/DSP/Source/FilteringFunctions/arm_biquad_cascade_df2T_f64.c **** 
 170              		.loc 1 181 7 is_stmt 1 view .LVU44
 186:Drivers/CMSIS/DSP/Source/FilteringFunctions/arm_biquad_cascade_df2T_f64.c **** 
 171              		.loc 1 186 7 view .LVU45
 186:Drivers/CMSIS/DSP/Source/FilteringFunctions/arm_biquad_cascade_df2T_f64.c **** 
 172              		.loc 1 186 21 view .LVU46
 173 0078 2D99     		ldr	r1, [sp, #180]
 174 007a 0029     		cmp	r1, #0
 175 007c 00F0B884 		beq	.L7
 176 0080 2798     		ldr	r0, [sp, #156]
 177 0082 00F18005 		add	r5, r0, #128
 178 0086 2998     		ldr	r0, [sp, #164]
 179 0088 00F18004 		add	r4, r0, #128
 174:Drivers/CMSIS/DSP/Source/FilteringFunctions/arm_biquad_cascade_df2T_f64.c ****       a2 = pCoeffs[4];
 180              		.loc 1 174 14 is_stmt 0 view .LVU47
 181 008c 2691     		str	r1, [sp, #152]
 182 008e 2A92     		str	r2, [sp, #168]
 183 0090 2B93     		str	r3, [sp, #172]
 184 0092 2C93     		str	r3, [sp, #176]
 185              	.LVL21:
 186              	.L3:
 193:Drivers/CMSIS/DSP/Source/FilteringFunctions/arm_biquad_cascade_df2T_f64.c ****          Xn2  = pIn[1 ];
 187              		.loc 1 193 10 is_stmt 1 view .LVU48
 193:Drivers/CMSIS/DSP/Source/FilteringFunctions/arm_biquad_cascade_df2T_f64.c ****          Xn2  = pIn[1 ];
 188              		.loc 1 193 15 is_stmt 0 view .LVU49
 189 0094 55E92067 		ldrd	r6, [r5, #-128]
 190              	.LVL22:
 194:Drivers/CMSIS/DSP/Source/FilteringFunctions/arm_biquad_cascade_df2T_f64.c **** 
 191              		.loc 1 194 10 is_stmt 1 view .LVU50
 194:Drivers/CMSIS/DSP/Source/FilteringFunctions/arm_biquad_cascade_df2T_f64.c **** 
 192              		.loc 1 194 15 is_stmt 0 view .LVU51
 193 0098 15ED1E7B 		vldr.64	d7, [r5, #-120]
 194 009c 8DED0A7B 		vstr.64	d7, [sp, #40]
 195              	.LVL23:
 197:Drivers/CMSIS/DSP/Source/FilteringFunctions/arm_biquad_cascade_df2T_f64.c ****          acc1 = b0 * Xn1 + d1;
 196              		.loc 1 197 10 is_stmt 1 view .LVU52
 197:Drivers/CMSIS/DSP/Source/FilteringFunctions/arm_biquad_cascade_df2T_f64.c ****          acc1 = b0 * Xn1 + d1;
 197              		.loc 1 197 15 is_stmt 0 view .LVU53
 198 00a0 15ED1C7B 		vldr.64	d7, [r5, #-112]
 199              	.LVL24:
 197:Drivers/CMSIS/DSP/Source/FilteringFunctions/arm_biquad_cascade_df2T_f64.c ****          acc1 = b0 * Xn1 + d1;
 200              		.loc 1 197 15 view .LVU54
 201 00a4 8DED0C7B 		vstr.64	d7, [sp, #48]
 202              	.LVL25:
 198:Drivers/CMSIS/DSP/Source/FilteringFunctions/arm_biquad_cascade_df2T_f64.c **** 
 203              		.loc 1 198 10 is_stmt 1 view .LVU55
ARM GAS  /tmp/ccS8pXJL.s 			page 12


 198:Drivers/CMSIS/DSP/Source/FilteringFunctions/arm_biquad_cascade_df2T_f64.c **** 
 204              		.loc 1 198 20 is_stmt 0 view .LVU56
 205 00a8 3246     		mov	r2, r6
 206 00aa 3B46     		mov	r3, r7
 207 00ac 4046     		mov	r0, r8
 208 00ae 4946     		mov	r1, r9
 209 00b0 FFF7FEFF 		bl	__aeabi_dmul
 210              	.LVL26:
 198:Drivers/CMSIS/DSP/Source/FilteringFunctions/arm_biquad_cascade_df2T_f64.c **** 
 211              		.loc 1 198 15 view .LVU57
 212 00b4 DDE90623 		ldrd	r2, [sp, #24]
 213 00b8 FFF7FEFF 		bl	__aeabi_dadd
 214              	.LVL27:
 215 00bc 41EC190B 		vmov	d9, r0, r1
 216              	.LVL28:
 200:Drivers/CMSIS/DSP/Source/FilteringFunctions/arm_biquad_cascade_df2T_f64.c ****          d1 = b1 * Xn1 + d2;
 217              		.loc 1 200 10 is_stmt 1 view .LVU58
 200:Drivers/CMSIS/DSP/Source/FilteringFunctions/arm_biquad_cascade_df2T_f64.c ****          d1 = b1 * Xn1 + d2;
 218              		.loc 1 200 15 is_stmt 0 view .LVU59
 219 00c0 15ED1A7B 		vldr.64	d7, [r5, #-104]
 220 00c4 8DED067B 		vstr.64	d7, [sp, #24]
 221              	.LVL29:
 201:Drivers/CMSIS/DSP/Source/FilteringFunctions/arm_biquad_cascade_df2T_f64.c **** 
 222              		.loc 1 201 10 is_stmt 1 view .LVU60
 201:Drivers/CMSIS/DSP/Source/FilteringFunctions/arm_biquad_cascade_df2T_f64.c **** 
 223              		.loc 1 201 18 is_stmt 0 view .LVU61
 224 00c8 3246     		mov	r2, r6
 225 00ca 3B46     		mov	r3, r7
 226 00cc 5046     		mov	r0, r10
 227              	.LVL30:
 201:Drivers/CMSIS/DSP/Source/FilteringFunctions/arm_biquad_cascade_df2T_f64.c **** 
 228              		.loc 1 201 18 view .LVU62
 229 00ce 5946     		mov	r1, fp
 230 00d0 FFF7FEFF 		bl	__aeabi_dmul
 231              	.LVL31:
 201:Drivers/CMSIS/DSP/Source/FilteringFunctions/arm_biquad_cascade_df2T_f64.c **** 
 232              		.loc 1 201 13 view .LVU63
 233 00d4 DDE90823 		ldrd	r2, [sp, #32]
 234 00d8 FFF7FEFF 		bl	__aeabi_dadd
 235              	.LVL32:
 236 00dc CDE91401 		strd	r0, [sp, #80]
 237              	.LVL33:
 203:Drivers/CMSIS/DSP/Source/FilteringFunctions/arm_biquad_cascade_df2T_f64.c ****          d2 = b2 * Xn1;
 238              		.loc 1 203 10 is_stmt 1 view .LVU64
 203:Drivers/CMSIS/DSP/Source/FilteringFunctions/arm_biquad_cascade_df2T_f64.c ****          d2 = b2 * Xn1;
 239              		.loc 1 203 15 is_stmt 0 view .LVU65
 240 00e0 15ED187B 		vldr.64	d7, [r5, #-96]
 241 00e4 8DED087B 		vstr.64	d7, [sp, #32]
 242              	.LVL34:
 204:Drivers/CMSIS/DSP/Source/FilteringFunctions/arm_biquad_cascade_df2T_f64.c **** 
 243              		.loc 1 204 10 is_stmt 1 view .LVU66
 204:Drivers/CMSIS/DSP/Source/FilteringFunctions/arm_biquad_cascade_df2T_f64.c **** 
 244              		.loc 1 204 13 is_stmt 0 view .LVU67
 245 00e8 3246     		mov	r2, r6
 246 00ea 3B46     		mov	r3, r7
 247 00ec DDE90001 		ldrd	r0, [sp]
 248              	.LVL35:
ARM GAS  /tmp/ccS8pXJL.s 			page 13


 204:Drivers/CMSIS/DSP/Source/FilteringFunctions/arm_biquad_cascade_df2T_f64.c **** 
 249              		.loc 1 204 13 view .LVU68
 250 00f0 FFF7FEFF 		bl	__aeabi_dmul
 251              	.LVL36:
 204:Drivers/CMSIS/DSP/Source/FilteringFunctions/arm_biquad_cascade_df2T_f64.c **** 
 252              		.loc 1 204 13 view .LVU69
 253 00f4 CDE91601 		strd	r0, [sp, #88]
 254              	.LVL37:
 206:Drivers/CMSIS/DSP/Source/FilteringFunctions/arm_biquad_cascade_df2T_f64.c ****          d1 += a1 * acc1;
 255              		.loc 1 206 10 is_stmt 1 view .LVU70
 206:Drivers/CMSIS/DSP/Source/FilteringFunctions/arm_biquad_cascade_df2T_f64.c ****          d1 += a1 * acc1;
 256              		.loc 1 206 15 is_stmt 0 view .LVU71
 257 00f8 15ED167B 		vldr.64	d7, [r5, #-88]
 258 00fc 8DED0E7B 		vstr.64	d7, [sp, #56]
 259              	.LVL38:
 207:Drivers/CMSIS/DSP/Source/FilteringFunctions/arm_biquad_cascade_df2T_f64.c **** 
 260              		.loc 1 207 10 is_stmt 1 view .LVU72
 209:Drivers/CMSIS/DSP/Source/FilteringFunctions/arm_biquad_cascade_df2T_f64.c ****          d2 += a2 * acc1;
 261              		.loc 1 209 10 view .LVU73
 209:Drivers/CMSIS/DSP/Source/FilteringFunctions/arm_biquad_cascade_df2T_f64.c ****          d2 += a2 * acc1;
 262              		.loc 1 209 15 is_stmt 0 view .LVU74
 263 0100 15ED147B 		vldr.64	d7, [r5, #-80]
 264              	.LVL39:
 209:Drivers/CMSIS/DSP/Source/FilteringFunctions/arm_biquad_cascade_df2T_f64.c ****          d2 += a2 * acc1;
 265              		.loc 1 209 15 view .LVU75
 266 0104 8DED107B 		vstr.64	d7, [sp, #64]
 267              	.LVL40:
 210:Drivers/CMSIS/DSP/Source/FilteringFunctions/arm_biquad_cascade_df2T_f64.c **** 
 268              		.loc 1 210 10 is_stmt 1 view .LVU76
 213:Drivers/CMSIS/DSP/Source/FilteringFunctions/arm_biquad_cascade_df2T_f64.c ****          acc2 = b0 * Xn2 + d1;
 269              		.loc 1 213 10 view .LVU77
 213:Drivers/CMSIS/DSP/Source/FilteringFunctions/arm_biquad_cascade_df2T_f64.c ****          acc2 = b0 * Xn2 + d1;
 270              		.loc 1 213 15 is_stmt 0 view .LVU78
 271 0108 15ED127B 		vldr.64	d7, [r5, #-72]
 272              	.LVL41:
 213:Drivers/CMSIS/DSP/Source/FilteringFunctions/arm_biquad_cascade_df2T_f64.c ****          acc2 = b0 * Xn2 + d1;
 273              		.loc 1 213 15 view .LVU79
 274 010c 8DED127B 		vstr.64	d7, [sp, #72]
 275              	.LVL42:
 214:Drivers/CMSIS/DSP/Source/FilteringFunctions/arm_biquad_cascade_df2T_f64.c **** 
 276              		.loc 1 214 10 is_stmt 1 view .LVU80
 207:Drivers/CMSIS/DSP/Source/FilteringFunctions/arm_biquad_cascade_df2T_f64.c **** 
 277              		.loc 1 207 19 is_stmt 0 view .LVU81
 278 0110 53EC192B 		vmov	r2, r3, d9
 279 0114 DDE90201 		ldrd	r0, [sp, #8]
 280              	.LVL43:
 207:Drivers/CMSIS/DSP/Source/FilteringFunctions/arm_biquad_cascade_df2T_f64.c **** 
 281              		.loc 1 207 19 view .LVU82
 282 0118 FFF7FEFF 		bl	__aeabi_dmul
 283              	.LVL44:
 207:Drivers/CMSIS/DSP/Source/FilteringFunctions/arm_biquad_cascade_df2T_f64.c **** 
 284              		.loc 1 207 13 view .LVU83
 285 011c DDE91423 		ldrd	r2, [sp, #80]
 286 0120 FFF7FEFF 		bl	__aeabi_dadd
 287              	.LVL45:
 288 0124 0646     		mov	r6, r0
 289              	.LVL46:
ARM GAS  /tmp/ccS8pXJL.s 			page 14


 207:Drivers/CMSIS/DSP/Source/FilteringFunctions/arm_biquad_cascade_df2T_f64.c **** 
 290              		.loc 1 207 13 view .LVU84
 291 0126 0F46     		mov	r7, r1
 214:Drivers/CMSIS/DSP/Source/FilteringFunctions/arm_biquad_cascade_df2T_f64.c **** 
 292              		.loc 1 214 20 view .LVU85
 293 0128 DDE90A23 		ldrd	r2, [sp, #40]
 294 012c 4046     		mov	r0, r8
 295 012e 4946     		mov	r1, r9
 296 0130 FFF7FEFF 		bl	__aeabi_dmul
 297              	.LVL47:
 298 0134 0246     		mov	r2, r0
 299 0136 0B46     		mov	r3, r1
 214:Drivers/CMSIS/DSP/Source/FilteringFunctions/arm_biquad_cascade_df2T_f64.c **** 
 300              		.loc 1 214 15 view .LVU86
 301 0138 3046     		mov	r0, r6
 302 013a 3946     		mov	r1, r7
 303 013c FFF7FEFF 		bl	__aeabi_dadd
 304              	.LVL48:
 305 0140 41EC180B 		vmov	d8, r0, r1
 306              	.LVL49:
 216:Drivers/CMSIS/DSP/Source/FilteringFunctions/arm_biquad_cascade_df2T_f64.c ****          d1 = b1 * Xn2 + d2;
 307              		.loc 1 216 10 is_stmt 1 view .LVU87
 216:Drivers/CMSIS/DSP/Source/FilteringFunctions/arm_biquad_cascade_df2T_f64.c ****          d1 = b1 * Xn2 + d2;
 308              		.loc 1 216 15 is_stmt 0 view .LVU88
 309 0144 15ED107B 		vldr.64	d7, [r5, #-64]
 310 0148 8DED147B 		vstr.64	d7, [sp, #80]
 311              	.LVL50:
 217:Drivers/CMSIS/DSP/Source/FilteringFunctions/arm_biquad_cascade_df2T_f64.c **** 
 312              		.loc 1 217 10 is_stmt 1 view .LVU89
 210:Drivers/CMSIS/DSP/Source/FilteringFunctions/arm_biquad_cascade_df2T_f64.c **** 
 313              		.loc 1 210 19 is_stmt 0 view .LVU90
 314 014c 8DED209B 		vstr.64	d9, [sp, #128]
 315 0150 53EC192B 		vmov	r2, r3, d9
 316 0154 DDE90401 		ldrd	r0, [sp, #16]
 317              	.LVL51:
 210:Drivers/CMSIS/DSP/Source/FilteringFunctions/arm_biquad_cascade_df2T_f64.c **** 
 318              		.loc 1 210 19 view .LVU91
 319 0158 FFF7FEFF 		bl	__aeabi_dmul
 320              	.LVL52:
 210:Drivers/CMSIS/DSP/Source/FilteringFunctions/arm_biquad_cascade_df2T_f64.c **** 
 321              		.loc 1 210 13 view .LVU92
 322 015c DDE91623 		ldrd	r2, [sp, #88]
 323 0160 FFF7FEFF 		bl	__aeabi_dadd
 324              	.LVL53:
 325 0164 0646     		mov	r6, r0
 326 0166 0F46     		mov	r7, r1
 217:Drivers/CMSIS/DSP/Source/FilteringFunctions/arm_biquad_cascade_df2T_f64.c **** 
 327              		.loc 1 217 18 view .LVU93
 328 0168 DDE90A23 		ldrd	r2, [sp, #40]
 329 016c 5046     		mov	r0, r10
 330 016e 5946     		mov	r1, fp
 331 0170 FFF7FEFF 		bl	__aeabi_dmul
 332              	.LVL54:
 333 0174 0246     		mov	r2, r0
 334 0176 0B46     		mov	r3, r1
 217:Drivers/CMSIS/DSP/Source/FilteringFunctions/arm_biquad_cascade_df2T_f64.c **** 
 335              		.loc 1 217 13 view .LVU94
ARM GAS  /tmp/ccS8pXJL.s 			page 15


 336 0178 3046     		mov	r0, r6
 337 017a 3946     		mov	r1, r7
 338 017c FFF7FEFF 		bl	__aeabi_dadd
 339              	.LVL55:
 340 0180 0646     		mov	r6, r0
 341 0182 0F46     		mov	r7, r1
 342              	.LVL56:
 219:Drivers/CMSIS/DSP/Source/FilteringFunctions/arm_biquad_cascade_df2T_f64.c ****          d2 = b2 * Xn2;
 343              		.loc 1 219 10 is_stmt 1 view .LVU95
 219:Drivers/CMSIS/DSP/Source/FilteringFunctions/arm_biquad_cascade_df2T_f64.c ****          d2 = b2 * Xn2;
 344              		.loc 1 219 15 is_stmt 0 view .LVU96
 345 0184 15ED0E7B 		vldr.64	d7, [r5, #-56]
 346 0188 8DED167B 		vstr.64	d7, [sp, #88]
 347              	.LVL57:
 220:Drivers/CMSIS/DSP/Source/FilteringFunctions/arm_biquad_cascade_df2T_f64.c **** 
 348              		.loc 1 220 10 is_stmt 1 view .LVU97
 220:Drivers/CMSIS/DSP/Source/FilteringFunctions/arm_biquad_cascade_df2T_f64.c **** 
 349              		.loc 1 220 13 is_stmt 0 view .LVU98
 350 018c DDE90A23 		ldrd	r2, [sp, #40]
 351 0190 DDE90001 		ldrd	r0, [sp]
 352 0194 FFF7FEFF 		bl	__aeabi_dmul
 353              	.LVL58:
 220:Drivers/CMSIS/DSP/Source/FilteringFunctions/arm_biquad_cascade_df2T_f64.c **** 
 354              		.loc 1 220 13 view .LVU99
 355 0198 CDE91E01 		strd	r0, [sp, #120]
 356              	.LVL59:
 222:Drivers/CMSIS/DSP/Source/FilteringFunctions/arm_biquad_cascade_df2T_f64.c ****          d1 += a1 * acc2;
 357              		.loc 1 222 10 is_stmt 1 view .LVU100
 222:Drivers/CMSIS/DSP/Source/FilteringFunctions/arm_biquad_cascade_df2T_f64.c ****          d1 += a1 * acc2;
 358              		.loc 1 222 15 is_stmt 0 view .LVU101
 359 019c 15ED0C7B 		vldr.64	d7, [r5, #-48]
 360 01a0 8DED0A7B 		vstr.64	d7, [sp, #40]
 361              	.LVL60:
 223:Drivers/CMSIS/DSP/Source/FilteringFunctions/arm_biquad_cascade_df2T_f64.c **** 
 362              		.loc 1 223 10 is_stmt 1 view .LVU102
 225:Drivers/CMSIS/DSP/Source/FilteringFunctions/arm_biquad_cascade_df2T_f64.c ****          d2 += a2 * acc2;
 363              		.loc 1 225 10 view .LVU103
 225:Drivers/CMSIS/DSP/Source/FilteringFunctions/arm_biquad_cascade_df2T_f64.c ****          d2 += a2 * acc2;
 364              		.loc 1 225 15 is_stmt 0 view .LVU104
 365 01a4 15ED0A7B 		vldr.64	d7, [r5, #-40]
 366              	.LVL61:
 225:Drivers/CMSIS/DSP/Source/FilteringFunctions/arm_biquad_cascade_df2T_f64.c ****          d2 += a2 * acc2;
 367              		.loc 1 225 15 view .LVU105
 368 01a8 8DED187B 		vstr.64	d7, [sp, #96]
 369              	.LVL62:
 226:Drivers/CMSIS/DSP/Source/FilteringFunctions/arm_biquad_cascade_df2T_f64.c **** 
 370              		.loc 1 226 10 is_stmt 1 view .LVU106
 229:Drivers/CMSIS/DSP/Source/FilteringFunctions/arm_biquad_cascade_df2T_f64.c ****          acc3 = b0 * Xn3 + d1;
 371              		.loc 1 229 10 view .LVU107
 229:Drivers/CMSIS/DSP/Source/FilteringFunctions/arm_biquad_cascade_df2T_f64.c ****          acc3 = b0 * Xn3 + d1;
 372              		.loc 1 229 15 is_stmt 0 view .LVU108
 373 01ac 15ED087B 		vldr.64	d7, [r5, #-32]
 374              	.LVL63:
 229:Drivers/CMSIS/DSP/Source/FilteringFunctions/arm_biquad_cascade_df2T_f64.c ****          acc3 = b0 * Xn3 + d1;
 375              		.loc 1 229 15 view .LVU109
 376 01b0 8DED1A7B 		vstr.64	d7, [sp, #104]
 377              	.LVL64:
ARM GAS  /tmp/ccS8pXJL.s 			page 16


 230:Drivers/CMSIS/DSP/Source/FilteringFunctions/arm_biquad_cascade_df2T_f64.c **** 
 378              		.loc 1 230 10 is_stmt 1 view .LVU110
 223:Drivers/CMSIS/DSP/Source/FilteringFunctions/arm_biquad_cascade_df2T_f64.c **** 
 379              		.loc 1 223 19 is_stmt 0 view .LVU111
 380 01b4 B0EE489A 		vmov.f32	s18, s16
 381 01b8 F0EE689A 		vmov.f32	s19, s17
 382              	.LVL65:
 223:Drivers/CMSIS/DSP/Source/FilteringFunctions/arm_biquad_cascade_df2T_f64.c **** 
 383              		.loc 1 223 19 view .LVU112
 384 01bc 53EC182B 		vmov	r2, r3, d8
 385 01c0 DDE90201 		ldrd	r0, [sp, #8]
 386              	.LVL66:
 223:Drivers/CMSIS/DSP/Source/FilteringFunctions/arm_biquad_cascade_df2T_f64.c **** 
 387              		.loc 1 223 19 view .LVU113
 388 01c4 FFF7FEFF 		bl	__aeabi_dmul
 389              	.LVL67:
 223:Drivers/CMSIS/DSP/Source/FilteringFunctions/arm_biquad_cascade_df2T_f64.c **** 
 390              		.loc 1 223 13 view .LVU114
 391 01c8 3246     		mov	r2, r6
 392 01ca 3B46     		mov	r3, r7
 393 01cc FFF7FEFF 		bl	__aeabi_dadd
 394              	.LVL68:
 395 01d0 0646     		mov	r6, r0
 396              	.LVL69:
 223:Drivers/CMSIS/DSP/Source/FilteringFunctions/arm_biquad_cascade_df2T_f64.c **** 
 397              		.loc 1 223 13 view .LVU115
 398 01d2 0F46     		mov	r7, r1
 230:Drivers/CMSIS/DSP/Source/FilteringFunctions/arm_biquad_cascade_df2T_f64.c **** 
 399              		.loc 1 230 20 view .LVU116
 400 01d4 DDE90C23 		ldrd	r2, [sp, #48]
 401 01d8 4046     		mov	r0, r8
 402 01da 4946     		mov	r1, r9
 403 01dc FFF7FEFF 		bl	__aeabi_dmul
 404              	.LVL70:
 405 01e0 0246     		mov	r2, r0
 406 01e2 0B46     		mov	r3, r1
 230:Drivers/CMSIS/DSP/Source/FilteringFunctions/arm_biquad_cascade_df2T_f64.c **** 
 407              		.loc 1 230 15 view .LVU117
 408 01e4 3046     		mov	r0, r6
 409 01e6 3946     		mov	r1, r7
 410 01e8 FFF7FEFF 		bl	__aeabi_dadd
 411              	.LVL71:
 412 01ec 41EC180B 		vmov	d8, r0, r1
 413              	.LVL72:
 232:Drivers/CMSIS/DSP/Source/FilteringFunctions/arm_biquad_cascade_df2T_f64.c ****          d1 = b1 * Xn3 + d2;
 414              		.loc 1 232 10 is_stmt 1 view .LVU118
 232:Drivers/CMSIS/DSP/Source/FilteringFunctions/arm_biquad_cascade_df2T_f64.c ****          d1 = b1 * Xn3 + d2;
 415              		.loc 1 232 15 is_stmt 0 view .LVU119
 416 01f0 15ED067B 		vldr.64	d7, [r5, #-24]
 417 01f4 8DED1C7B 		vstr.64	d7, [sp, #112]
 418              	.LVL73:
 233:Drivers/CMSIS/DSP/Source/FilteringFunctions/arm_biquad_cascade_df2T_f64.c **** 
 419              		.loc 1 233 10 is_stmt 1 view .LVU120
 226:Drivers/CMSIS/DSP/Source/FilteringFunctions/arm_biquad_cascade_df2T_f64.c **** 
 420              		.loc 1 226 19 is_stmt 0 view .LVU121
 421 01f8 8DED229B 		vstr.64	d9, [sp, #136]
 422 01fc 53EC192B 		vmov	r2, r3, d9
ARM GAS  /tmp/ccS8pXJL.s 			page 17


 423 0200 DDE90401 		ldrd	r0, [sp, #16]
 424              	.LVL74:
 226:Drivers/CMSIS/DSP/Source/FilteringFunctions/arm_biquad_cascade_df2T_f64.c **** 
 425              		.loc 1 226 19 view .LVU122
 426 0204 FFF7FEFF 		bl	__aeabi_dmul
 427              	.LVL75:
 226:Drivers/CMSIS/DSP/Source/FilteringFunctions/arm_biquad_cascade_df2T_f64.c **** 
 428              		.loc 1 226 13 view .LVU123
 429 0208 DDE91E23 		ldrd	r2, [sp, #120]
 430 020c FFF7FEFF 		bl	__aeabi_dadd
 431              	.LVL76:
 432 0210 0646     		mov	r6, r0
 433 0212 0F46     		mov	r7, r1
 233:Drivers/CMSIS/DSP/Source/FilteringFunctions/arm_biquad_cascade_df2T_f64.c **** 
 434              		.loc 1 233 18 view .LVU124
 435 0214 DDE90C23 		ldrd	r2, [sp, #48]
 436 0218 5046     		mov	r0, r10
 437 021a 5946     		mov	r1, fp
 438 021c FFF7FEFF 		bl	__aeabi_dmul
 439              	.LVL77:
 440 0220 0246     		mov	r2, r0
 441 0222 0B46     		mov	r3, r1
 233:Drivers/CMSIS/DSP/Source/FilteringFunctions/arm_biquad_cascade_df2T_f64.c **** 
 442              		.loc 1 233 13 view .LVU125
 443 0224 3046     		mov	r0, r6
 444 0226 3946     		mov	r1, r7
 445 0228 FFF7FEFF 		bl	__aeabi_dadd
 446              	.LVL78:
 447 022c 0646     		mov	r6, r0
 448 022e 0F46     		mov	r7, r1
 449              	.LVL79:
 235:Drivers/CMSIS/DSP/Source/FilteringFunctions/arm_biquad_cascade_df2T_f64.c ****          d2 = b2 * Xn3;
 450              		.loc 1 235 10 is_stmt 1 view .LVU126
 235:Drivers/CMSIS/DSP/Source/FilteringFunctions/arm_biquad_cascade_df2T_f64.c ****          d2 = b2 * Xn3;
 451              		.loc 1 235 15 is_stmt 0 view .LVU127
 452 0230 15ED047B 		vldr.64	d7, [r5, #-16]
 453 0234 8DED1E7B 		vstr.64	d7, [sp, #120]
 454              	.LVL80:
 236:Drivers/CMSIS/DSP/Source/FilteringFunctions/arm_biquad_cascade_df2T_f64.c **** 
 455              		.loc 1 236 10 is_stmt 1 view .LVU128
 236:Drivers/CMSIS/DSP/Source/FilteringFunctions/arm_biquad_cascade_df2T_f64.c **** 
 456              		.loc 1 236 13 is_stmt 0 view .LVU129
 457 0238 DDE90C23 		ldrd	r2, [sp, #48]
 458 023c DDE90001 		ldrd	r0, [sp]
 459 0240 FFF7FEFF 		bl	__aeabi_dmul
 460              	.LVL81:
 236:Drivers/CMSIS/DSP/Source/FilteringFunctions/arm_biquad_cascade_df2T_f64.c **** 
 461              		.loc 1 236 13 view .LVU130
 462 0244 CDE92401 		strd	r0, [sp, #144]
 463              	.LVL82:
 238:Drivers/CMSIS/DSP/Source/FilteringFunctions/arm_biquad_cascade_df2T_f64.c ****          d1 += a1 * acc3;
 464              		.loc 1 238 10 is_stmt 1 view .LVU131
 238:Drivers/CMSIS/DSP/Source/FilteringFunctions/arm_biquad_cascade_df2T_f64.c ****          d1 += a1 * acc3;
 465              		.loc 1 238 15 is_stmt 0 view .LVU132
 466 0248 15ED027B 		vldr.64	d7, [r5, #-8]
 467 024c 8DED0C7B 		vstr.64	d7, [sp, #48]
 468              	.LVL83:
ARM GAS  /tmp/ccS8pXJL.s 			page 18


 239:Drivers/CMSIS/DSP/Source/FilteringFunctions/arm_biquad_cascade_df2T_f64.c **** 
 469              		.loc 1 239 10 is_stmt 1 view .LVU133
 241:Drivers/CMSIS/DSP/Source/FilteringFunctions/arm_biquad_cascade_df2T_f64.c ****          d2 += a2 * acc3;
 470              		.loc 1 241 10 view .LVU134
 242:Drivers/CMSIS/DSP/Source/FilteringFunctions/arm_biquad_cascade_df2T_f64.c **** 
 471              		.loc 1 242 10 view .LVU135
 245:Drivers/CMSIS/DSP/Source/FilteringFunctions/arm_biquad_cascade_df2T_f64.c ****          d1 = b1 * Xn4 + d2;
 472              		.loc 1 245 10 view .LVU136
 239:Drivers/CMSIS/DSP/Source/FilteringFunctions/arm_biquad_cascade_df2T_f64.c **** 
 473              		.loc 1 239 19 is_stmt 0 view .LVU137
 474 0250 53EC182B 		vmov	r2, r3, d8
 475 0254 DDE90201 		ldrd	r0, [sp, #8]
 476              	.LVL84:
 239:Drivers/CMSIS/DSP/Source/FilteringFunctions/arm_biquad_cascade_df2T_f64.c **** 
 477              		.loc 1 239 19 view .LVU138
 478 0258 FFF7FEFF 		bl	__aeabi_dmul
 479              	.LVL85:
 239:Drivers/CMSIS/DSP/Source/FilteringFunctions/arm_biquad_cascade_df2T_f64.c **** 
 480              		.loc 1 239 13 view .LVU139
 481 025c 3246     		mov	r2, r6
 482 025e 3B46     		mov	r3, r7
 483 0260 FFF7FEFF 		bl	__aeabi_dadd
 484              	.LVL86:
 485 0264 0646     		mov	r6, r0
 486              	.LVL87:
 239:Drivers/CMSIS/DSP/Source/FilteringFunctions/arm_biquad_cascade_df2T_f64.c **** 
 487              		.loc 1 239 13 view .LVU140
 488 0266 0F46     		mov	r7, r1
 245:Drivers/CMSIS/DSP/Source/FilteringFunctions/arm_biquad_cascade_df2T_f64.c ****          d1 = b1 * Xn4 + d2;
 489              		.loc 1 245 20 view .LVU141
 490 0268 DDE90623 		ldrd	r2, [sp, #24]
 491 026c 4046     		mov	r0, r8
 492 026e 4946     		mov	r1, r9
 493 0270 FFF7FEFF 		bl	__aeabi_dmul
 494              	.LVL88:
 495 0274 0246     		mov	r2, r0
 496 0276 0B46     		mov	r3, r1
 245:Drivers/CMSIS/DSP/Source/FilteringFunctions/arm_biquad_cascade_df2T_f64.c ****          d1 = b1 * Xn4 + d2;
 497              		.loc 1 245 15 view .LVU142
 498 0278 3046     		mov	r0, r6
 499 027a 3946     		mov	r1, r7
 500 027c FFF7FEFF 		bl	__aeabi_dadd
 501              	.LVL89:
 502 0280 41EC1A0B 		vmov	d10, r0, r1
 503              	.LVL90:
 246:Drivers/CMSIS/DSP/Source/FilteringFunctions/arm_biquad_cascade_df2T_f64.c ****          d2 = b2 * Xn4;
 504              		.loc 1 246 10 is_stmt 1 view .LVU143
 242:Drivers/CMSIS/DSP/Source/FilteringFunctions/arm_biquad_cascade_df2T_f64.c **** 
 505              		.loc 1 242 19 is_stmt 0 view .LVU144
 506 0284 53EC182B 		vmov	r2, r3, d8
 507 0288 DDE90401 		ldrd	r0, [sp, #16]
 508              	.LVL91:
 242:Drivers/CMSIS/DSP/Source/FilteringFunctions/arm_biquad_cascade_df2T_f64.c **** 
 509              		.loc 1 242 19 view .LVU145
 510 028c FFF7FEFF 		bl	__aeabi_dmul
 511              	.LVL92:
 242:Drivers/CMSIS/DSP/Source/FilteringFunctions/arm_biquad_cascade_df2T_f64.c **** 
ARM GAS  /tmp/ccS8pXJL.s 			page 19


 512              		.loc 1 242 13 view .LVU146
 513 0290 DDE92423 		ldrd	r2, [sp, #144]
 514 0294 FFF7FEFF 		bl	__aeabi_dadd
 515              	.LVL93:
 516 0298 0646     		mov	r6, r0
 517 029a 0F46     		mov	r7, r1
 246:Drivers/CMSIS/DSP/Source/FilteringFunctions/arm_biquad_cascade_df2T_f64.c ****          d2 = b2 * Xn4;
 518              		.loc 1 246 18 view .LVU147
 519 029c DDE90623 		ldrd	r2, [sp, #24]
 520 02a0 5046     		mov	r0, r10
 521 02a2 5946     		mov	r1, fp
 522 02a4 FFF7FEFF 		bl	__aeabi_dmul
 523              	.LVL94:
 524 02a8 0246     		mov	r2, r0
 525 02aa 0B46     		mov	r3, r1
 246:Drivers/CMSIS/DSP/Source/FilteringFunctions/arm_biquad_cascade_df2T_f64.c ****          d2 = b2 * Xn4;
 526              		.loc 1 246 13 view .LVU148
 527 02ac 3046     		mov	r0, r6
 528 02ae 3946     		mov	r1, r7
 529 02b0 FFF7FEFF 		bl	__aeabi_dadd
 530              	.LVL95:
 531 02b4 0646     		mov	r6, r0
 532 02b6 0F46     		mov	r7, r1
 533              	.LVL96:
 247:Drivers/CMSIS/DSP/Source/FilteringFunctions/arm_biquad_cascade_df2T_f64.c ****          d1 += a1 * acc4;
 534              		.loc 1 247 10 is_stmt 1 view .LVU149
 247:Drivers/CMSIS/DSP/Source/FilteringFunctions/arm_biquad_cascade_df2T_f64.c ****          d1 += a1 * acc4;
 535              		.loc 1 247 13 is_stmt 0 view .LVU150
 536 02b8 DDE90623 		ldrd	r2, [sp, #24]
 537 02bc DDE90001 		ldrd	r0, [sp]
 538 02c0 FFF7FEFF 		bl	__aeabi_dmul
 539              	.LVL97:
 540 02c4 CDE92401 		strd	r0, [sp, #144]
 541              	.LVL98:
 248:Drivers/CMSIS/DSP/Source/FilteringFunctions/arm_biquad_cascade_df2T_f64.c ****          d2 += a2 * acc4;
 542              		.loc 1 248 10 is_stmt 1 view .LVU151
 249:Drivers/CMSIS/DSP/Source/FilteringFunctions/arm_biquad_cascade_df2T_f64.c **** 
 543              		.loc 1 249 10 view .LVU152
 252:Drivers/CMSIS/DSP/Source/FilteringFunctions/arm_biquad_cascade_df2T_f64.c ****          d1 = b1 * Xn5 + d2;
 544              		.loc 1 252 10 view .LVU153
 248:Drivers/CMSIS/DSP/Source/FilteringFunctions/arm_biquad_cascade_df2T_f64.c ****          d2 += a2 * acc4;
 545              		.loc 1 248 19 is_stmt 0 view .LVU154
 546 02c8 53EC1A2B 		vmov	r2, r3, d10
 547 02cc DDE90201 		ldrd	r0, [sp, #8]
 548              	.LVL99:
 248:Drivers/CMSIS/DSP/Source/FilteringFunctions/arm_biquad_cascade_df2T_f64.c ****          d2 += a2 * acc4;
 549              		.loc 1 248 19 view .LVU155
 550 02d0 FFF7FEFF 		bl	__aeabi_dmul
 551              	.LVL100:
 248:Drivers/CMSIS/DSP/Source/FilteringFunctions/arm_biquad_cascade_df2T_f64.c ****          d2 += a2 * acc4;
 552              		.loc 1 248 13 view .LVU156
 553 02d4 3246     		mov	r2, r6
 554 02d6 3B46     		mov	r3, r7
 555 02d8 FFF7FEFF 		bl	__aeabi_dadd
 556              	.LVL101:
 557 02dc 0646     		mov	r6, r0
 558              	.LVL102:
ARM GAS  /tmp/ccS8pXJL.s 			page 20


 248:Drivers/CMSIS/DSP/Source/FilteringFunctions/arm_biquad_cascade_df2T_f64.c ****          d2 += a2 * acc4;
 559              		.loc 1 248 13 view .LVU157
 560 02de 0F46     		mov	r7, r1
 252:Drivers/CMSIS/DSP/Source/FilteringFunctions/arm_biquad_cascade_df2T_f64.c ****          d1 = b1 * Xn5 + d2;
 561              		.loc 1 252 20 view .LVU158
 562 02e0 DDE90823 		ldrd	r2, [sp, #32]
 563 02e4 4046     		mov	r0, r8
 564 02e6 4946     		mov	r1, r9
 565 02e8 FFF7FEFF 		bl	__aeabi_dmul
 566              	.LVL103:
 567 02ec 0246     		mov	r2, r0
 568 02ee 0B46     		mov	r3, r1
 252:Drivers/CMSIS/DSP/Source/FilteringFunctions/arm_biquad_cascade_df2T_f64.c ****          d1 = b1 * Xn5 + d2;
 569              		.loc 1 252 15 view .LVU159
 570 02f0 3046     		mov	r0, r6
 571 02f2 3946     		mov	r1, r7
 572 02f4 FFF7FEFF 		bl	__aeabi_dadd
 573              	.LVL104:
 574 02f8 41EC190B 		vmov	d9, r0, r1
 575              	.LVL105:
 253:Drivers/CMSIS/DSP/Source/FilteringFunctions/arm_biquad_cascade_df2T_f64.c ****          d2 = b2 * Xn5;
 576              		.loc 1 253 10 is_stmt 1 view .LVU160
 249:Drivers/CMSIS/DSP/Source/FilteringFunctions/arm_biquad_cascade_df2T_f64.c **** 
 577              		.loc 1 249 19 is_stmt 0 view .LVU161
 578 02fc 8DED06AB 		vstr.64	d10, [sp, #24]
 579              	.LVL106:
 249:Drivers/CMSIS/DSP/Source/FilteringFunctions/arm_biquad_cascade_df2T_f64.c **** 
 580              		.loc 1 249 19 view .LVU162
 581 0300 53EC1A2B 		vmov	r2, r3, d10
 582 0304 DDE90401 		ldrd	r0, [sp, #16]
 583              	.LVL107:
 249:Drivers/CMSIS/DSP/Source/FilteringFunctions/arm_biquad_cascade_df2T_f64.c **** 
 584              		.loc 1 249 19 view .LVU163
 585 0308 FFF7FEFF 		bl	__aeabi_dmul
 586              	.LVL108:
 249:Drivers/CMSIS/DSP/Source/FilteringFunctions/arm_biquad_cascade_df2T_f64.c **** 
 587              		.loc 1 249 13 view .LVU164
 588 030c DDE92423 		ldrd	r2, [sp, #144]
 589 0310 FFF7FEFF 		bl	__aeabi_dadd
 590              	.LVL109:
 591 0314 0646     		mov	r6, r0
 592 0316 0F46     		mov	r7, r1
 253:Drivers/CMSIS/DSP/Source/FilteringFunctions/arm_biquad_cascade_df2T_f64.c ****          d2 = b2 * Xn5;
 593              		.loc 1 253 18 view .LVU165
 594 0318 DDE90823 		ldrd	r2, [sp, #32]
 595 031c 5046     		mov	r0, r10
 596 031e 5946     		mov	r1, fp
 597 0320 FFF7FEFF 		bl	__aeabi_dmul
 598              	.LVL110:
 599 0324 0246     		mov	r2, r0
 600 0326 0B46     		mov	r3, r1
 253:Drivers/CMSIS/DSP/Source/FilteringFunctions/arm_biquad_cascade_df2T_f64.c ****          d2 = b2 * Xn5;
 601              		.loc 1 253 13 view .LVU166
 602 0328 3046     		mov	r0, r6
 603 032a 3946     		mov	r1, r7
 604 032c FFF7FEFF 		bl	__aeabi_dadd
 605              	.LVL111:
ARM GAS  /tmp/ccS8pXJL.s 			page 21


 606 0330 0646     		mov	r6, r0
 607 0332 0F46     		mov	r7, r1
 608              	.LVL112:
 254:Drivers/CMSIS/DSP/Source/FilteringFunctions/arm_biquad_cascade_df2T_f64.c ****          d1 += a1 * acc5;
 609              		.loc 1 254 10 is_stmt 1 view .LVU167
 254:Drivers/CMSIS/DSP/Source/FilteringFunctions/arm_biquad_cascade_df2T_f64.c ****          d1 += a1 * acc5;
 610              		.loc 1 254 13 is_stmt 0 view .LVU168
 611 0334 DDE90823 		ldrd	r2, [sp, #32]
 612 0338 DDE90001 		ldrd	r0, [sp]
 613 033c FFF7FEFF 		bl	__aeabi_dmul
 614              	.LVL113:
 615 0340 CDE92401 		strd	r0, [sp, #144]
 616              	.LVL114:
 255:Drivers/CMSIS/DSP/Source/FilteringFunctions/arm_biquad_cascade_df2T_f64.c ****          d2 += a2 * acc5;
 617              		.loc 1 255 10 is_stmt 1 view .LVU169
 256:Drivers/CMSIS/DSP/Source/FilteringFunctions/arm_biquad_cascade_df2T_f64.c **** 
 618              		.loc 1 256 10 view .LVU170
 259:Drivers/CMSIS/DSP/Source/FilteringFunctions/arm_biquad_cascade_df2T_f64.c ****          d1 = b1 * Xn6 + d2;
 619              		.loc 1 259 10 view .LVU171
 255:Drivers/CMSIS/DSP/Source/FilteringFunctions/arm_biquad_cascade_df2T_f64.c ****          d2 += a2 * acc5;
 620              		.loc 1 255 19 is_stmt 0 view .LVU172
 621 0344 B0EE49AA 		vmov.f32	s20, s18
 622 0348 F0EE69AA 		vmov.f32	s21, s19
 623              	.LVL115:
 255:Drivers/CMSIS/DSP/Source/FilteringFunctions/arm_biquad_cascade_df2T_f64.c ****          d2 += a2 * acc5;
 624              		.loc 1 255 19 view .LVU173
 625 034c 53EC192B 		vmov	r2, r3, d9
 626 0350 DDE90201 		ldrd	r0, [sp, #8]
 627              	.LVL116:
 255:Drivers/CMSIS/DSP/Source/FilteringFunctions/arm_biquad_cascade_df2T_f64.c ****          d2 += a2 * acc5;
 628              		.loc 1 255 19 view .LVU174
 629 0354 FFF7FEFF 		bl	__aeabi_dmul
 630              	.LVL117:
 255:Drivers/CMSIS/DSP/Source/FilteringFunctions/arm_biquad_cascade_df2T_f64.c ****          d2 += a2 * acc5;
 631              		.loc 1 255 13 view .LVU175
 632 0358 3246     		mov	r2, r6
 633 035a 3B46     		mov	r3, r7
 634 035c FFF7FEFF 		bl	__aeabi_dadd
 635              	.LVL118:
 636 0360 0646     		mov	r6, r0
 637              	.LVL119:
 255:Drivers/CMSIS/DSP/Source/FilteringFunctions/arm_biquad_cascade_df2T_f64.c ****          d2 += a2 * acc5;
 638              		.loc 1 255 13 view .LVU176
 639 0362 0F46     		mov	r7, r1
 259:Drivers/CMSIS/DSP/Source/FilteringFunctions/arm_biquad_cascade_df2T_f64.c ****          d1 = b1 * Xn6 + d2;
 640              		.loc 1 259 20 view .LVU177
 641 0364 DDE90E23 		ldrd	r2, [sp, #56]
 642 0368 4046     		mov	r0, r8
 643 036a 4946     		mov	r1, r9
 644 036c FFF7FEFF 		bl	__aeabi_dmul
 645              	.LVL120:
 646 0370 0246     		mov	r2, r0
 647 0372 0B46     		mov	r3, r1
 259:Drivers/CMSIS/DSP/Source/FilteringFunctions/arm_biquad_cascade_df2T_f64.c ****          d1 = b1 * Xn6 + d2;
 648              		.loc 1 259 15 view .LVU178
 649 0374 3046     		mov	r0, r6
 650 0376 3946     		mov	r1, r7
ARM GAS  /tmp/ccS8pXJL.s 			page 22


 651 0378 FFF7FEFF 		bl	__aeabi_dadd
 652              	.LVL121:
 653 037c 41EC190B 		vmov	d9, r0, r1
 654              	.LVL122:
 260:Drivers/CMSIS/DSP/Source/FilteringFunctions/arm_biquad_cascade_df2T_f64.c ****          d2 = b2 * Xn6;
 655              		.loc 1 260 10 is_stmt 1 view .LVU179
 256:Drivers/CMSIS/DSP/Source/FilteringFunctions/arm_biquad_cascade_df2T_f64.c **** 
 656              		.loc 1 256 19 is_stmt 0 view .LVU180
 657 0380 8DED08AB 		vstr.64	d10, [sp, #32]
 658              	.LVL123:
 256:Drivers/CMSIS/DSP/Source/FilteringFunctions/arm_biquad_cascade_df2T_f64.c **** 
 659              		.loc 1 256 19 view .LVU181
 660 0384 53EC1A2B 		vmov	r2, r3, d10
 661 0388 DDE90401 		ldrd	r0, [sp, #16]
 662              	.LVL124:
 256:Drivers/CMSIS/DSP/Source/FilteringFunctions/arm_biquad_cascade_df2T_f64.c **** 
 663              		.loc 1 256 19 view .LVU182
 664 038c FFF7FEFF 		bl	__aeabi_dmul
 665              	.LVL125:
 256:Drivers/CMSIS/DSP/Source/FilteringFunctions/arm_biquad_cascade_df2T_f64.c **** 
 666              		.loc 1 256 13 view .LVU183
 667 0390 DDE92423 		ldrd	r2, [sp, #144]
 668 0394 FFF7FEFF 		bl	__aeabi_dadd
 669              	.LVL126:
 670 0398 0646     		mov	r6, r0
 671 039a 0F46     		mov	r7, r1
 260:Drivers/CMSIS/DSP/Source/FilteringFunctions/arm_biquad_cascade_df2T_f64.c ****          d2 = b2 * Xn6;
 672              		.loc 1 260 18 view .LVU184
 673 039c DDE90E23 		ldrd	r2, [sp, #56]
 674 03a0 5046     		mov	r0, r10
 675 03a2 5946     		mov	r1, fp
 676 03a4 FFF7FEFF 		bl	__aeabi_dmul
 677              	.LVL127:
 678 03a8 0246     		mov	r2, r0
 679 03aa 0B46     		mov	r3, r1
 260:Drivers/CMSIS/DSP/Source/FilteringFunctions/arm_biquad_cascade_df2T_f64.c ****          d2 = b2 * Xn6;
 680              		.loc 1 260 13 view .LVU185
 681 03ac 3046     		mov	r0, r6
 682 03ae 3946     		mov	r1, r7
 683 03b0 FFF7FEFF 		bl	__aeabi_dadd
 684              	.LVL128:
 685 03b4 0646     		mov	r6, r0
 686 03b6 0F46     		mov	r7, r1
 687              	.LVL129:
 261:Drivers/CMSIS/DSP/Source/FilteringFunctions/arm_biquad_cascade_df2T_f64.c ****          d1 += a1 * acc6;
 688              		.loc 1 261 10 is_stmt 1 view .LVU186
 261:Drivers/CMSIS/DSP/Source/FilteringFunctions/arm_biquad_cascade_df2T_f64.c ****          d1 += a1 * acc6;
 689              		.loc 1 261 13 is_stmt 0 view .LVU187
 690 03b8 DDE90E23 		ldrd	r2, [sp, #56]
 691 03bc DDE90001 		ldrd	r0, [sp]
 692 03c0 FFF7FEFF 		bl	__aeabi_dmul
 693              	.LVL130:
 694 03c4 CDE92401 		strd	r0, [sp, #144]
 695              	.LVL131:
 262:Drivers/CMSIS/DSP/Source/FilteringFunctions/arm_biquad_cascade_df2T_f64.c ****          d2 += a2 * acc6;
 696              		.loc 1 262 10 is_stmt 1 view .LVU188
 263:Drivers/CMSIS/DSP/Source/FilteringFunctions/arm_biquad_cascade_df2T_f64.c **** 
ARM GAS  /tmp/ccS8pXJL.s 			page 23


 697              		.loc 1 263 10 view .LVU189
 266:Drivers/CMSIS/DSP/Source/FilteringFunctions/arm_biquad_cascade_df2T_f64.c ****          d1 = b1 * Xn7 + d2;
 698              		.loc 1 266 10 view .LVU190
 262:Drivers/CMSIS/DSP/Source/FilteringFunctions/arm_biquad_cascade_df2T_f64.c ****          d2 += a2 * acc6;
 699              		.loc 1 262 19 is_stmt 0 view .LVU191
 700 03c8 53EC192B 		vmov	r2, r3, d9
 701 03cc DDE90201 		ldrd	r0, [sp, #8]
 702              	.LVL132:
 262:Drivers/CMSIS/DSP/Source/FilteringFunctions/arm_biquad_cascade_df2T_f64.c ****          d2 += a2 * acc6;
 703              		.loc 1 262 19 view .LVU192
 704 03d0 FFF7FEFF 		bl	__aeabi_dmul
 705              	.LVL133:
 262:Drivers/CMSIS/DSP/Source/FilteringFunctions/arm_biquad_cascade_df2T_f64.c ****          d2 += a2 * acc6;
 706              		.loc 1 262 13 view .LVU193
 707 03d4 3246     		mov	r2, r6
 708 03d6 3B46     		mov	r3, r7
 709 03d8 FFF7FEFF 		bl	__aeabi_dadd
 710              	.LVL134:
 711 03dc 0646     		mov	r6, r0
 712              	.LVL135:
 262:Drivers/CMSIS/DSP/Source/FilteringFunctions/arm_biquad_cascade_df2T_f64.c ****          d2 += a2 * acc6;
 713              		.loc 1 262 13 view .LVU194
 714 03de 0F46     		mov	r7, r1
 266:Drivers/CMSIS/DSP/Source/FilteringFunctions/arm_biquad_cascade_df2T_f64.c ****          d1 = b1 * Xn7 + d2;
 715              		.loc 1 266 20 view .LVU195
 716 03e0 DDE91023 		ldrd	r2, [sp, #64]
 717 03e4 4046     		mov	r0, r8
 718 03e6 4946     		mov	r1, r9
 719 03e8 FFF7FEFF 		bl	__aeabi_dmul
 720              	.LVL136:
 721 03ec 0246     		mov	r2, r0
 722 03ee 0B46     		mov	r3, r1
 266:Drivers/CMSIS/DSP/Source/FilteringFunctions/arm_biquad_cascade_df2T_f64.c ****          d1 = b1 * Xn7 + d2;
 723              		.loc 1 266 15 view .LVU196
 724 03f0 3046     		mov	r0, r6
 725 03f2 3946     		mov	r1, r7
 726 03f4 FFF7FEFF 		bl	__aeabi_dadd
 727              	.LVL137:
 728 03f8 41EC1F0B 		vmov	d15, r0, r1
 729              	.LVL138:
 267:Drivers/CMSIS/DSP/Source/FilteringFunctions/arm_biquad_cascade_df2T_f64.c ****          d2 = b2 * Xn7;
 730              		.loc 1 267 10 is_stmt 1 view .LVU197
 263:Drivers/CMSIS/DSP/Source/FilteringFunctions/arm_biquad_cascade_df2T_f64.c **** 
 731              		.loc 1 263 19 is_stmt 0 view .LVU198
 732 03fc 8DED0E9B 		vstr.64	d9, [sp, #56]
 733              	.LVL139:
 263:Drivers/CMSIS/DSP/Source/FilteringFunctions/arm_biquad_cascade_df2T_f64.c **** 
 734              		.loc 1 263 19 view .LVU199
 735 0400 53EC192B 		vmov	r2, r3, d9
 736 0404 DDE90401 		ldrd	r0, [sp, #16]
 737              	.LVL140:
 263:Drivers/CMSIS/DSP/Source/FilteringFunctions/arm_biquad_cascade_df2T_f64.c **** 
 738              		.loc 1 263 19 view .LVU200
 739 0408 FFF7FEFF 		bl	__aeabi_dmul
 740              	.LVL141:
 263:Drivers/CMSIS/DSP/Source/FilteringFunctions/arm_biquad_cascade_df2T_f64.c **** 
 741              		.loc 1 263 13 view .LVU201
ARM GAS  /tmp/ccS8pXJL.s 			page 24


 742 040c DDE92423 		ldrd	r2, [sp, #144]
 743 0410 FFF7FEFF 		bl	__aeabi_dadd
 744              	.LVL142:
 745 0414 0646     		mov	r6, r0
 746 0416 0F46     		mov	r7, r1
 267:Drivers/CMSIS/DSP/Source/FilteringFunctions/arm_biquad_cascade_df2T_f64.c ****          d2 = b2 * Xn7;
 747              		.loc 1 267 18 view .LVU202
 748 0418 DDE91023 		ldrd	r2, [sp, #64]
 749 041c 5046     		mov	r0, r10
 750 041e 5946     		mov	r1, fp
 751 0420 FFF7FEFF 		bl	__aeabi_dmul
 752              	.LVL143:
 753 0424 0246     		mov	r2, r0
 754 0426 0B46     		mov	r3, r1
 267:Drivers/CMSIS/DSP/Source/FilteringFunctions/arm_biquad_cascade_df2T_f64.c ****          d2 = b2 * Xn7;
 755              		.loc 1 267 13 view .LVU203
 756 0428 3046     		mov	r0, r6
 757 042a 3946     		mov	r1, r7
 758 042c FFF7FEFF 		bl	__aeabi_dadd
 759              	.LVL144:
 760 0430 0646     		mov	r6, r0
 761 0432 0F46     		mov	r7, r1
 762              	.LVL145:
 268:Drivers/CMSIS/DSP/Source/FilteringFunctions/arm_biquad_cascade_df2T_f64.c ****          d1 += a1 * acc7;
 763              		.loc 1 268 10 is_stmt 1 view .LVU204
 268:Drivers/CMSIS/DSP/Source/FilteringFunctions/arm_biquad_cascade_df2T_f64.c ****          d1 += a1 * acc7;
 764              		.loc 1 268 13 is_stmt 0 view .LVU205
 765 0434 DDE91023 		ldrd	r2, [sp, #64]
 766 0438 DDE90001 		ldrd	r0, [sp]
 767 043c FFF7FEFF 		bl	__aeabi_dmul
 768              	.LVL146:
 769 0440 CDE91001 		strd	r0, [sp, #64]
 770              	.LVL147:
 269:Drivers/CMSIS/DSP/Source/FilteringFunctions/arm_biquad_cascade_df2T_f64.c ****          d2 += a2 * acc7;
 771              		.loc 1 269 10 is_stmt 1 view .LVU206
 270:Drivers/CMSIS/DSP/Source/FilteringFunctions/arm_biquad_cascade_df2T_f64.c **** 
 772              		.loc 1 270 10 view .LVU207
 273:Drivers/CMSIS/DSP/Source/FilteringFunctions/arm_biquad_cascade_df2T_f64.c ****          d1 = b1 * Xn8 + d2;
 773              		.loc 1 273 10 view .LVU208
 269:Drivers/CMSIS/DSP/Source/FilteringFunctions/arm_biquad_cascade_df2T_f64.c ****          d2 += a2 * acc7;
 774              		.loc 1 269 19 is_stmt 0 view .LVU209
 775 0444 53EC1F2B 		vmov	r2, r3, d15
 776 0448 DDE90201 		ldrd	r0, [sp, #8]
 777              	.LVL148:
 269:Drivers/CMSIS/DSP/Source/FilteringFunctions/arm_biquad_cascade_df2T_f64.c ****          d2 += a2 * acc7;
 778              		.loc 1 269 19 view .LVU210
 779 044c FFF7FEFF 		bl	__aeabi_dmul
 780              	.LVL149:
 269:Drivers/CMSIS/DSP/Source/FilteringFunctions/arm_biquad_cascade_df2T_f64.c ****          d2 += a2 * acc7;
 781              		.loc 1 269 13 view .LVU211
 782 0450 3246     		mov	r2, r6
 783 0452 3B46     		mov	r3, r7
 784 0454 FFF7FEFF 		bl	__aeabi_dadd
 785              	.LVL150:
 786 0458 0646     		mov	r6, r0
 787              	.LVL151:
 269:Drivers/CMSIS/DSP/Source/FilteringFunctions/arm_biquad_cascade_df2T_f64.c ****          d2 += a2 * acc7;
ARM GAS  /tmp/ccS8pXJL.s 			page 25


 788              		.loc 1 269 13 view .LVU212
 789 045a 0F46     		mov	r7, r1
 273:Drivers/CMSIS/DSP/Source/FilteringFunctions/arm_biquad_cascade_df2T_f64.c ****          d1 = b1 * Xn8 + d2;
 790              		.loc 1 273 20 view .LVU213
 791 045c DDE91223 		ldrd	r2, [sp, #72]
 792 0460 4046     		mov	r0, r8
 793 0462 4946     		mov	r1, r9
 794 0464 FFF7FEFF 		bl	__aeabi_dmul
 795              	.LVL152:
 796 0468 0246     		mov	r2, r0
 797 046a 0B46     		mov	r3, r1
 273:Drivers/CMSIS/DSP/Source/FilteringFunctions/arm_biquad_cascade_df2T_f64.c ****          d1 = b1 * Xn8 + d2;
 798              		.loc 1 273 15 view .LVU214
 799 046c 3046     		mov	r0, r6
 800 046e 3946     		mov	r1, r7
 801 0470 FFF7FEFF 		bl	__aeabi_dadd
 802              	.LVL153:
 803 0474 41EC1E0B 		vmov	d14, r0, r1
 804              	.LVL154:
 274:Drivers/CMSIS/DSP/Source/FilteringFunctions/arm_biquad_cascade_df2T_f64.c ****          d2 = b2 * Xn8;
 805              		.loc 1 274 10 is_stmt 1 view .LVU215
 270:Drivers/CMSIS/DSP/Source/FilteringFunctions/arm_biquad_cascade_df2T_f64.c **** 
 806              		.loc 1 270 19 is_stmt 0 view .LVU216
 807 0478 53EC1F2B 		vmov	r2, r3, d15
 808 047c DDE90401 		ldrd	r0, [sp, #16]
 809              	.LVL155:
 270:Drivers/CMSIS/DSP/Source/FilteringFunctions/arm_biquad_cascade_df2T_f64.c **** 
 810              		.loc 1 270 19 view .LVU217
 811 0480 FFF7FEFF 		bl	__aeabi_dmul
 812              	.LVL156:
 270:Drivers/CMSIS/DSP/Source/FilteringFunctions/arm_biquad_cascade_df2T_f64.c **** 
 813              		.loc 1 270 13 view .LVU218
 814 0484 DDE91023 		ldrd	r2, [sp, #64]
 815 0488 FFF7FEFF 		bl	__aeabi_dadd
 816              	.LVL157:
 817 048c 0646     		mov	r6, r0
 818 048e 0F46     		mov	r7, r1
 274:Drivers/CMSIS/DSP/Source/FilteringFunctions/arm_biquad_cascade_df2T_f64.c ****          d2 = b2 * Xn8;
 819              		.loc 1 274 18 view .LVU219
 820 0490 DDE91223 		ldrd	r2, [sp, #72]
 821 0494 5046     		mov	r0, r10
 822 0496 5946     		mov	r1, fp
 823 0498 FFF7FEFF 		bl	__aeabi_dmul
 824              	.LVL158:
 825 049c 0246     		mov	r2, r0
 826 049e 0B46     		mov	r3, r1
 274:Drivers/CMSIS/DSP/Source/FilteringFunctions/arm_biquad_cascade_df2T_f64.c ****          d2 = b2 * Xn8;
 827              		.loc 1 274 13 view .LVU220
 828 04a0 3046     		mov	r0, r6
 829 04a2 3946     		mov	r1, r7
 830 04a4 FFF7FEFF 		bl	__aeabi_dadd
 831              	.LVL159:
 832 04a8 0646     		mov	r6, r0
 833 04aa 0F46     		mov	r7, r1
 834              	.LVL160:
 275:Drivers/CMSIS/DSP/Source/FilteringFunctions/arm_biquad_cascade_df2T_f64.c ****          d1 += a1 * acc8;
 835              		.loc 1 275 10 is_stmt 1 view .LVU221
ARM GAS  /tmp/ccS8pXJL.s 			page 26


 275:Drivers/CMSIS/DSP/Source/FilteringFunctions/arm_biquad_cascade_df2T_f64.c ****          d1 += a1 * acc8;
 836              		.loc 1 275 13 is_stmt 0 view .LVU222
 837 04ac DDE91223 		ldrd	r2, [sp, #72]
 838 04b0 DDE90001 		ldrd	r0, [sp]
 839 04b4 FFF7FEFF 		bl	__aeabi_dmul
 840              	.LVL161:
 841 04b8 CDE91001 		strd	r0, [sp, #64]
 842              	.LVL162:
 276:Drivers/CMSIS/DSP/Source/FilteringFunctions/arm_biquad_cascade_df2T_f64.c ****          d2 += a2 * acc8;
 843              		.loc 1 276 10 is_stmt 1 view .LVU223
 277:Drivers/CMSIS/DSP/Source/FilteringFunctions/arm_biquad_cascade_df2T_f64.c **** 
 844              		.loc 1 277 10 view .LVU224
 280:Drivers/CMSIS/DSP/Source/FilteringFunctions/arm_biquad_cascade_df2T_f64.c ****          d1 = b1 * Xn9 + d2;
 845              		.loc 1 280 10 view .LVU225
 276:Drivers/CMSIS/DSP/Source/FilteringFunctions/arm_biquad_cascade_df2T_f64.c ****          d2 += a2 * acc8;
 846              		.loc 1 276 19 is_stmt 0 view .LVU226
 847 04bc 53EC1E2B 		vmov	r2, r3, d14
 848 04c0 DDE90201 		ldrd	r0, [sp, #8]
 849              	.LVL163:
 276:Drivers/CMSIS/DSP/Source/FilteringFunctions/arm_biquad_cascade_df2T_f64.c ****          d2 += a2 * acc8;
 850              		.loc 1 276 19 view .LVU227
 851 04c4 FFF7FEFF 		bl	__aeabi_dmul
 852              	.LVL164:
 276:Drivers/CMSIS/DSP/Source/FilteringFunctions/arm_biquad_cascade_df2T_f64.c ****          d2 += a2 * acc8;
 853              		.loc 1 276 13 view .LVU228
 854 04c8 3246     		mov	r2, r6
 855 04ca 3B46     		mov	r3, r7
 856 04cc FFF7FEFF 		bl	__aeabi_dadd
 857              	.LVL165:
 858 04d0 0646     		mov	r6, r0
 859              	.LVL166:
 276:Drivers/CMSIS/DSP/Source/FilteringFunctions/arm_biquad_cascade_df2T_f64.c ****          d2 += a2 * acc8;
 860              		.loc 1 276 13 view .LVU229
 861 04d2 0F46     		mov	r7, r1
 280:Drivers/CMSIS/DSP/Source/FilteringFunctions/arm_biquad_cascade_df2T_f64.c ****          d1 = b1 * Xn9 + d2;
 862              		.loc 1 280 20 view .LVU230
 863 04d4 DDE91423 		ldrd	r2, [sp, #80]
 864 04d8 4046     		mov	r0, r8
 865 04da 4946     		mov	r1, r9
 866 04dc FFF7FEFF 		bl	__aeabi_dmul
 867              	.LVL167:
 868 04e0 0246     		mov	r2, r0
 869 04e2 0B46     		mov	r3, r1
 280:Drivers/CMSIS/DSP/Source/FilteringFunctions/arm_biquad_cascade_df2T_f64.c ****          d1 = b1 * Xn9 + d2;
 870              		.loc 1 280 15 view .LVU231
 871 04e4 3046     		mov	r0, r6
 872 04e6 3946     		mov	r1, r7
 873 04e8 FFF7FEFF 		bl	__aeabi_dadd
 874              	.LVL168:
 875 04ec 41EC190B 		vmov	d9, r0, r1
 876              	.LVL169:
 281:Drivers/CMSIS/DSP/Source/FilteringFunctions/arm_biquad_cascade_df2T_f64.c ****          d2 = b2 * Xn9;
 877              		.loc 1 281 10 is_stmt 1 view .LVU232
 277:Drivers/CMSIS/DSP/Source/FilteringFunctions/arm_biquad_cascade_df2T_f64.c **** 
 878              		.loc 1 277 19 is_stmt 0 view .LVU233
 879 04f0 53EC1E2B 		vmov	r2, r3, d14
 880 04f4 DDE90401 		ldrd	r0, [sp, #16]
ARM GAS  /tmp/ccS8pXJL.s 			page 27


 881              	.LVL170:
 277:Drivers/CMSIS/DSP/Source/FilteringFunctions/arm_biquad_cascade_df2T_f64.c **** 
 882              		.loc 1 277 19 view .LVU234
 883 04f8 FFF7FEFF 		bl	__aeabi_dmul
 884              	.LVL171:
 277:Drivers/CMSIS/DSP/Source/FilteringFunctions/arm_biquad_cascade_df2T_f64.c **** 
 885              		.loc 1 277 13 view .LVU235
 886 04fc DDE91023 		ldrd	r2, [sp, #64]
 887 0500 FFF7FEFF 		bl	__aeabi_dadd
 888              	.LVL172:
 889 0504 0646     		mov	r6, r0
 890 0506 0F46     		mov	r7, r1
 281:Drivers/CMSIS/DSP/Source/FilteringFunctions/arm_biquad_cascade_df2T_f64.c ****          d2 = b2 * Xn9;
 891              		.loc 1 281 18 view .LVU236
 892 0508 DDE91423 		ldrd	r2, [sp, #80]
 893 050c 5046     		mov	r0, r10
 894 050e 5946     		mov	r1, fp
 895 0510 FFF7FEFF 		bl	__aeabi_dmul
 896              	.LVL173:
 897 0514 0246     		mov	r2, r0
 898 0516 0B46     		mov	r3, r1
 281:Drivers/CMSIS/DSP/Source/FilteringFunctions/arm_biquad_cascade_df2T_f64.c ****          d2 = b2 * Xn9;
 899              		.loc 1 281 13 view .LVU237
 900 0518 3046     		mov	r0, r6
 901 051a 3946     		mov	r1, r7
 902 051c FFF7FEFF 		bl	__aeabi_dadd
 903              	.LVL174:
 904 0520 0646     		mov	r6, r0
 905 0522 0F46     		mov	r7, r1
 906              	.LVL175:
 282:Drivers/CMSIS/DSP/Source/FilteringFunctions/arm_biquad_cascade_df2T_f64.c ****          d1 += a1 * acc9;
 907              		.loc 1 282 10 is_stmt 1 view .LVU238
 282:Drivers/CMSIS/DSP/Source/FilteringFunctions/arm_biquad_cascade_df2T_f64.c ****          d1 += a1 * acc9;
 908              		.loc 1 282 13 is_stmt 0 view .LVU239
 909 0524 DDE91423 		ldrd	r2, [sp, #80]
 910 0528 DDE90001 		ldrd	r0, [sp]
 911 052c FFF7FEFF 		bl	__aeabi_dmul
 912              	.LVL176:
 913 0530 CDE91001 		strd	r0, [sp, #64]
 914              	.LVL177:
 283:Drivers/CMSIS/DSP/Source/FilteringFunctions/arm_biquad_cascade_df2T_f64.c ****          d2 += a2 * acc9;
 915              		.loc 1 283 10 is_stmt 1 view .LVU240
 284:Drivers/CMSIS/DSP/Source/FilteringFunctions/arm_biquad_cascade_df2T_f64.c **** 
 916              		.loc 1 284 10 view .LVU241
 287:Drivers/CMSIS/DSP/Source/FilteringFunctions/arm_biquad_cascade_df2T_f64.c ****          d1 = b1 * Xn10 + d2;
 917              		.loc 1 287 10 view .LVU242
 283:Drivers/CMSIS/DSP/Source/FilteringFunctions/arm_biquad_cascade_df2T_f64.c ****          d2 += a2 * acc9;
 918              		.loc 1 283 19 is_stmt 0 view .LVU243
 919 0534 53EC192B 		vmov	r2, r3, d9
 920 0538 DDE90201 		ldrd	r0, [sp, #8]
 921              	.LVL178:
 283:Drivers/CMSIS/DSP/Source/FilteringFunctions/arm_biquad_cascade_df2T_f64.c ****          d2 += a2 * acc9;
 922              		.loc 1 283 19 view .LVU244
 923 053c FFF7FEFF 		bl	__aeabi_dmul
 924              	.LVL179:
 283:Drivers/CMSIS/DSP/Source/FilteringFunctions/arm_biquad_cascade_df2T_f64.c ****          d2 += a2 * acc9;
 925              		.loc 1 283 13 view .LVU245
ARM GAS  /tmp/ccS8pXJL.s 			page 28


 926 0540 3246     		mov	r2, r6
 927 0542 3B46     		mov	r3, r7
 928 0544 FFF7FEFF 		bl	__aeabi_dadd
 929              	.LVL180:
 930 0548 0646     		mov	r6, r0
 931              	.LVL181:
 283:Drivers/CMSIS/DSP/Source/FilteringFunctions/arm_biquad_cascade_df2T_f64.c ****          d2 += a2 * acc9;
 932              		.loc 1 283 13 view .LVU246
 933 054a 0F46     		mov	r7, r1
 287:Drivers/CMSIS/DSP/Source/FilteringFunctions/arm_biquad_cascade_df2T_f64.c ****          d1 = b1 * Xn10 + d2;
 934              		.loc 1 287 21 view .LVU247
 935 054c DDE91623 		ldrd	r2, [sp, #88]
 936 0550 4046     		mov	r0, r8
 937 0552 4946     		mov	r1, r9
 938 0554 FFF7FEFF 		bl	__aeabi_dmul
 939              	.LVL182:
 940 0558 0246     		mov	r2, r0
 941 055a 0B46     		mov	r3, r1
 287:Drivers/CMSIS/DSP/Source/FilteringFunctions/arm_biquad_cascade_df2T_f64.c ****          d1 = b1 * Xn10 + d2;
 942              		.loc 1 287 16 view .LVU248
 943 055c 3046     		mov	r0, r6
 944 055e 3946     		mov	r1, r7
 945 0560 FFF7FEFF 		bl	__aeabi_dadd
 946              	.LVL183:
 947 0564 41EC1D0B 		vmov	d13, r0, r1
 948              	.LVL184:
 288:Drivers/CMSIS/DSP/Source/FilteringFunctions/arm_biquad_cascade_df2T_f64.c ****          d2 = b2 * Xn10;
 949              		.loc 1 288 10 is_stmt 1 view .LVU249
 284:Drivers/CMSIS/DSP/Source/FilteringFunctions/arm_biquad_cascade_df2T_f64.c **** 
 950              		.loc 1 284 19 is_stmt 0 view .LVU250
 951 0568 53EC192B 		vmov	r2, r3, d9
 952 056c DDE90401 		ldrd	r0, [sp, #16]
 953              	.LVL185:
 284:Drivers/CMSIS/DSP/Source/FilteringFunctions/arm_biquad_cascade_df2T_f64.c **** 
 954              		.loc 1 284 19 view .LVU251
 955 0570 FFF7FEFF 		bl	__aeabi_dmul
 956              	.LVL186:
 284:Drivers/CMSIS/DSP/Source/FilteringFunctions/arm_biquad_cascade_df2T_f64.c **** 
 957              		.loc 1 284 13 view .LVU252
 958 0574 DDE91023 		ldrd	r2, [sp, #64]
 959 0578 FFF7FEFF 		bl	__aeabi_dadd
 960              	.LVL187:
 961 057c 0646     		mov	r6, r0
 962 057e 0F46     		mov	r7, r1
 288:Drivers/CMSIS/DSP/Source/FilteringFunctions/arm_biquad_cascade_df2T_f64.c ****          d2 = b2 * Xn10;
 963              		.loc 1 288 18 view .LVU253
 964 0580 DDE91623 		ldrd	r2, [sp, #88]
 965 0584 5046     		mov	r0, r10
 966 0586 5946     		mov	r1, fp
 967 0588 FFF7FEFF 		bl	__aeabi_dmul
 968              	.LVL188:
 969 058c 0246     		mov	r2, r0
 970 058e 0B46     		mov	r3, r1
 288:Drivers/CMSIS/DSP/Source/FilteringFunctions/arm_biquad_cascade_df2T_f64.c ****          d2 = b2 * Xn10;
 971              		.loc 1 288 13 view .LVU254
 972 0590 3046     		mov	r0, r6
 973 0592 3946     		mov	r1, r7
ARM GAS  /tmp/ccS8pXJL.s 			page 29


 974 0594 FFF7FEFF 		bl	__aeabi_dadd
 975              	.LVL189:
 976 0598 0646     		mov	r6, r0
 977 059a 0F46     		mov	r7, r1
 978              	.LVL190:
 289:Drivers/CMSIS/DSP/Source/FilteringFunctions/arm_biquad_cascade_df2T_f64.c ****          d1 += a1 * acc10;
 979              		.loc 1 289 10 is_stmt 1 view .LVU255
 289:Drivers/CMSIS/DSP/Source/FilteringFunctions/arm_biquad_cascade_df2T_f64.c ****          d1 += a1 * acc10;
 980              		.loc 1 289 13 is_stmt 0 view .LVU256
 981 059c DDE91623 		ldrd	r2, [sp, #88]
 982 05a0 DDE90001 		ldrd	r0, [sp]
 983 05a4 FFF7FEFF 		bl	__aeabi_dmul
 984              	.LVL191:
 985 05a8 CDE91001 		strd	r0, [sp, #64]
 986              	.LVL192:
 290:Drivers/CMSIS/DSP/Source/FilteringFunctions/arm_biquad_cascade_df2T_f64.c ****          d2 += a2 * acc10;
 987              		.loc 1 290 10 is_stmt 1 view .LVU257
 291:Drivers/CMSIS/DSP/Source/FilteringFunctions/arm_biquad_cascade_df2T_f64.c **** 
 988              		.loc 1 291 10 view .LVU258
 294:Drivers/CMSIS/DSP/Source/FilteringFunctions/arm_biquad_cascade_df2T_f64.c ****          d1 = b1 * Xn11 + d2;
 989              		.loc 1 294 10 view .LVU259
 290:Drivers/CMSIS/DSP/Source/FilteringFunctions/arm_biquad_cascade_df2T_f64.c ****          d2 += a2 * acc10;
 990              		.loc 1 290 19 is_stmt 0 view .LVU260
 991 05ac 53EC1D2B 		vmov	r2, r3, d13
 992 05b0 DDE90201 		ldrd	r0, [sp, #8]
 993              	.LVL193:
 290:Drivers/CMSIS/DSP/Source/FilteringFunctions/arm_biquad_cascade_df2T_f64.c ****          d2 += a2 * acc10;
 994              		.loc 1 290 19 view .LVU261
 995 05b4 FFF7FEFF 		bl	__aeabi_dmul
 996              	.LVL194:
 290:Drivers/CMSIS/DSP/Source/FilteringFunctions/arm_biquad_cascade_df2T_f64.c ****          d2 += a2 * acc10;
 997              		.loc 1 290 13 view .LVU262
 998 05b8 3246     		mov	r2, r6
 999 05ba 3B46     		mov	r3, r7
 1000 05bc FFF7FEFF 		bl	__aeabi_dadd
 1001              	.LVL195:
 1002 05c0 0646     		mov	r6, r0
 1003              	.LVL196:
 290:Drivers/CMSIS/DSP/Source/FilteringFunctions/arm_biquad_cascade_df2T_f64.c ****          d2 += a2 * acc10;
 1004              		.loc 1 290 13 view .LVU263
 1005 05c2 0F46     		mov	r7, r1
 294:Drivers/CMSIS/DSP/Source/FilteringFunctions/arm_biquad_cascade_df2T_f64.c ****          d1 = b1 * Xn11 + d2;
 1006              		.loc 1 294 21 view .LVU264
 1007 05c4 DDE90A23 		ldrd	r2, [sp, #40]
 1008 05c8 4046     		mov	r0, r8
 1009 05ca 4946     		mov	r1, r9
 1010 05cc FFF7FEFF 		bl	__aeabi_dmul
 1011              	.LVL197:
 1012 05d0 0246     		mov	r2, r0
 1013 05d2 0B46     		mov	r3, r1
 294:Drivers/CMSIS/DSP/Source/FilteringFunctions/arm_biquad_cascade_df2T_f64.c ****          d1 = b1 * Xn11 + d2;
 1014              		.loc 1 294 16 view .LVU265
 1015 05d4 3046     		mov	r0, r6
 1016 05d6 3946     		mov	r1, r7
 1017 05d8 FFF7FEFF 		bl	__aeabi_dadd
 1018              	.LVL198:
 1019 05dc 41EC1C0B 		vmov	d12, r0, r1
ARM GAS  /tmp/ccS8pXJL.s 			page 30


 1020              	.LVL199:
 295:Drivers/CMSIS/DSP/Source/FilteringFunctions/arm_biquad_cascade_df2T_f64.c ****          d2 = b2 * Xn11;
 1021              		.loc 1 295 10 is_stmt 1 view .LVU266
 291:Drivers/CMSIS/DSP/Source/FilteringFunctions/arm_biquad_cascade_df2T_f64.c **** 
 1022              		.loc 1 291 19 is_stmt 0 view .LVU267
 1023 05e0 53EC1D2B 		vmov	r2, r3, d13
 1024 05e4 DDE90401 		ldrd	r0, [sp, #16]
 1025              	.LVL200:
 291:Drivers/CMSIS/DSP/Source/FilteringFunctions/arm_biquad_cascade_df2T_f64.c **** 
 1026              		.loc 1 291 19 view .LVU268
 1027 05e8 FFF7FEFF 		bl	__aeabi_dmul
 1028              	.LVL201:
 291:Drivers/CMSIS/DSP/Source/FilteringFunctions/arm_biquad_cascade_df2T_f64.c **** 
 1029              		.loc 1 291 13 view .LVU269
 1030 05ec DDE91023 		ldrd	r2, [sp, #64]
 1031 05f0 FFF7FEFF 		bl	__aeabi_dadd
 1032              	.LVL202:
 1033 05f4 0646     		mov	r6, r0
 1034 05f6 0F46     		mov	r7, r1
 295:Drivers/CMSIS/DSP/Source/FilteringFunctions/arm_biquad_cascade_df2T_f64.c ****          d2 = b2 * Xn11;
 1035              		.loc 1 295 18 view .LVU270
 1036 05f8 DDE90A23 		ldrd	r2, [sp, #40]
 1037 05fc 5046     		mov	r0, r10
 1038 05fe 5946     		mov	r1, fp
 1039 0600 FFF7FEFF 		bl	__aeabi_dmul
 1040              	.LVL203:
 1041 0604 0246     		mov	r2, r0
 1042 0606 0B46     		mov	r3, r1
 295:Drivers/CMSIS/DSP/Source/FilteringFunctions/arm_biquad_cascade_df2T_f64.c ****          d2 = b2 * Xn11;
 1043              		.loc 1 295 13 view .LVU271
 1044 0608 3046     		mov	r0, r6
 1045 060a 3946     		mov	r1, r7
 1046 060c FFF7FEFF 		bl	__aeabi_dadd
 1047              	.LVL204:
 1048 0610 0646     		mov	r6, r0
 1049 0612 0F46     		mov	r7, r1
 1050              	.LVL205:
 296:Drivers/CMSIS/DSP/Source/FilteringFunctions/arm_biquad_cascade_df2T_f64.c ****          d1 += a1 * acc11;
 1051              		.loc 1 296 10 is_stmt 1 view .LVU272
 296:Drivers/CMSIS/DSP/Source/FilteringFunctions/arm_biquad_cascade_df2T_f64.c ****          d1 += a1 * acc11;
 1052              		.loc 1 296 13 is_stmt 0 view .LVU273
 1053 0614 DDE90A23 		ldrd	r2, [sp, #40]
 1054 0618 DDE90001 		ldrd	r0, [sp]
 1055 061c FFF7FEFF 		bl	__aeabi_dmul
 1056              	.LVL206:
 1057 0620 CDE90A01 		strd	r0, [sp, #40]
 1058              	.LVL207:
 297:Drivers/CMSIS/DSP/Source/FilteringFunctions/arm_biquad_cascade_df2T_f64.c ****          d2 += a2 * acc11;
 1059              		.loc 1 297 10 is_stmt 1 view .LVU274
 298:Drivers/CMSIS/DSP/Source/FilteringFunctions/arm_biquad_cascade_df2T_f64.c **** 
 1060              		.loc 1 298 10 view .LVU275
 301:Drivers/CMSIS/DSP/Source/FilteringFunctions/arm_biquad_cascade_df2T_f64.c ****          d1 = b1 * Xn12 + d2;
 1061              		.loc 1 301 10 view .LVU276
 297:Drivers/CMSIS/DSP/Source/FilteringFunctions/arm_biquad_cascade_df2T_f64.c ****          d2 += a2 * acc11;
 1062              		.loc 1 297 19 is_stmt 0 view .LVU277
 1063 0624 53EC1C2B 		vmov	r2, r3, d12
 1064 0628 DDE90201 		ldrd	r0, [sp, #8]
ARM GAS  /tmp/ccS8pXJL.s 			page 31


 1065              	.LVL208:
 297:Drivers/CMSIS/DSP/Source/FilteringFunctions/arm_biquad_cascade_df2T_f64.c ****          d2 += a2 * acc11;
 1066              		.loc 1 297 19 view .LVU278
 1067 062c FFF7FEFF 		bl	__aeabi_dmul
 1068              	.LVL209:
 297:Drivers/CMSIS/DSP/Source/FilteringFunctions/arm_biquad_cascade_df2T_f64.c ****          d2 += a2 * acc11;
 1069              		.loc 1 297 13 view .LVU279
 1070 0630 3246     		mov	r2, r6
 1071 0632 3B46     		mov	r3, r7
 1072 0634 FFF7FEFF 		bl	__aeabi_dadd
 1073              	.LVL210:
 1074 0638 0646     		mov	r6, r0
 1075              	.LVL211:
 297:Drivers/CMSIS/DSP/Source/FilteringFunctions/arm_biquad_cascade_df2T_f64.c ****          d2 += a2 * acc11;
 1076              		.loc 1 297 13 view .LVU280
 1077 063a 0F46     		mov	r7, r1
 301:Drivers/CMSIS/DSP/Source/FilteringFunctions/arm_biquad_cascade_df2T_f64.c ****          d1 = b1 * Xn12 + d2;
 1078              		.loc 1 301 21 view .LVU281
 1079 063c DDE91823 		ldrd	r2, [sp, #96]
 1080 0640 4046     		mov	r0, r8
 1081 0642 4946     		mov	r1, r9
 1082 0644 FFF7FEFF 		bl	__aeabi_dmul
 1083              	.LVL212:
 1084 0648 0246     		mov	r2, r0
 1085 064a 0B46     		mov	r3, r1
 301:Drivers/CMSIS/DSP/Source/FilteringFunctions/arm_biquad_cascade_df2T_f64.c ****          d1 = b1 * Xn12 + d2;
 1086              		.loc 1 301 16 view .LVU282
 1087 064c 3046     		mov	r0, r6
 1088 064e 3946     		mov	r1, r7
 1089 0650 FFF7FEFF 		bl	__aeabi_dadd
 1090              	.LVL213:
 1091 0654 41EC1B0B 		vmov	d11, r0, r1
 1092              	.LVL214:
 302:Drivers/CMSIS/DSP/Source/FilteringFunctions/arm_biquad_cascade_df2T_f64.c ****          d2 = b2 * Xn12;
 1093              		.loc 1 302 10 is_stmt 1 view .LVU283
 298:Drivers/CMSIS/DSP/Source/FilteringFunctions/arm_biquad_cascade_df2T_f64.c **** 
 1094              		.loc 1 298 19 is_stmt 0 view .LVU284
 1095 0658 53EC1C2B 		vmov	r2, r3, d12
 1096 065c DDE90401 		ldrd	r0, [sp, #16]
 1097              	.LVL215:
 298:Drivers/CMSIS/DSP/Source/FilteringFunctions/arm_biquad_cascade_df2T_f64.c **** 
 1098              		.loc 1 298 19 view .LVU285
 1099 0660 FFF7FEFF 		bl	__aeabi_dmul
 1100              	.LVL216:
 298:Drivers/CMSIS/DSP/Source/FilteringFunctions/arm_biquad_cascade_df2T_f64.c **** 
 1101              		.loc 1 298 13 view .LVU286
 1102 0664 DDE90A23 		ldrd	r2, [sp, #40]
 1103 0668 FFF7FEFF 		bl	__aeabi_dadd
 1104              	.LVL217:
 1105 066c 0646     		mov	r6, r0
 1106 066e 0F46     		mov	r7, r1
 302:Drivers/CMSIS/DSP/Source/FilteringFunctions/arm_biquad_cascade_df2T_f64.c ****          d2 = b2 * Xn12;
 1107              		.loc 1 302 18 view .LVU287
 1108 0670 DDE91823 		ldrd	r2, [sp, #96]
 1109 0674 5046     		mov	r0, r10
 1110 0676 5946     		mov	r1, fp
 1111 0678 FFF7FEFF 		bl	__aeabi_dmul
ARM GAS  /tmp/ccS8pXJL.s 			page 32


 1112              	.LVL218:
 1113 067c 0246     		mov	r2, r0
 1114 067e 0B46     		mov	r3, r1
 302:Drivers/CMSIS/DSP/Source/FilteringFunctions/arm_biquad_cascade_df2T_f64.c ****          d2 = b2 * Xn12;
 1115              		.loc 1 302 13 view .LVU288
 1116 0680 3046     		mov	r0, r6
 1117 0682 3946     		mov	r1, r7
 1118 0684 FFF7FEFF 		bl	__aeabi_dadd
 1119              	.LVL219:
 1120 0688 0646     		mov	r6, r0
 1121 068a 0F46     		mov	r7, r1
 1122              	.LVL220:
 303:Drivers/CMSIS/DSP/Source/FilteringFunctions/arm_biquad_cascade_df2T_f64.c ****          d1 += a1 * acc12;
 1123              		.loc 1 303 10 is_stmt 1 view .LVU289
 303:Drivers/CMSIS/DSP/Source/FilteringFunctions/arm_biquad_cascade_df2T_f64.c ****          d1 += a1 * acc12;
 1124              		.loc 1 303 13 is_stmt 0 view .LVU290
 1125 068c DDE91823 		ldrd	r2, [sp, #96]
 1126 0690 DDE90001 		ldrd	r0, [sp]
 1127 0694 FFF7FEFF 		bl	__aeabi_dmul
 1128              	.LVL221:
 1129 0698 CDE90A01 		strd	r0, [sp, #40]
 1130              	.LVL222:
 304:Drivers/CMSIS/DSP/Source/FilteringFunctions/arm_biquad_cascade_df2T_f64.c ****          d2 += a2 * acc12;
 1131              		.loc 1 304 10 is_stmt 1 view .LVU291
 305:Drivers/CMSIS/DSP/Source/FilteringFunctions/arm_biquad_cascade_df2T_f64.c **** 
 1132              		.loc 1 305 10 view .LVU292
 308:Drivers/CMSIS/DSP/Source/FilteringFunctions/arm_biquad_cascade_df2T_f64.c ****          d1 = b1 * Xn13 + d2;
 1133              		.loc 1 308 10 view .LVU293
 304:Drivers/CMSIS/DSP/Source/FilteringFunctions/arm_biquad_cascade_df2T_f64.c ****          d2 += a2 * acc12;
 1134              		.loc 1 304 19 is_stmt 0 view .LVU294
 1135 069c 53EC1B2B 		vmov	r2, r3, d11
 1136 06a0 DDE90201 		ldrd	r0, [sp, #8]
 1137              	.LVL223:
 304:Drivers/CMSIS/DSP/Source/FilteringFunctions/arm_biquad_cascade_df2T_f64.c ****          d2 += a2 * acc12;
 1138              		.loc 1 304 19 view .LVU295
 1139 06a4 FFF7FEFF 		bl	__aeabi_dmul
 1140              	.LVL224:
 304:Drivers/CMSIS/DSP/Source/FilteringFunctions/arm_biquad_cascade_df2T_f64.c ****          d2 += a2 * acc12;
 1141              		.loc 1 304 13 view .LVU296
 1142 06a8 3246     		mov	r2, r6
 1143 06aa 3B46     		mov	r3, r7
 1144 06ac FFF7FEFF 		bl	__aeabi_dadd
 1145              	.LVL225:
 1146 06b0 0646     		mov	r6, r0
 1147              	.LVL226:
 304:Drivers/CMSIS/DSP/Source/FilteringFunctions/arm_biquad_cascade_df2T_f64.c ****          d2 += a2 * acc12;
 1148              		.loc 1 304 13 view .LVU297
 1149 06b2 0F46     		mov	r7, r1
 308:Drivers/CMSIS/DSP/Source/FilteringFunctions/arm_biquad_cascade_df2T_f64.c ****          d1 = b1 * Xn13 + d2;
 1150              		.loc 1 308 21 view .LVU298
 1151 06b4 DDE91A23 		ldrd	r2, [sp, #104]
 1152 06b8 4046     		mov	r0, r8
 1153 06ba 4946     		mov	r1, r9
 1154 06bc FFF7FEFF 		bl	__aeabi_dmul
 1155              	.LVL227:
 1156 06c0 0246     		mov	r2, r0
 1157 06c2 0B46     		mov	r3, r1
ARM GAS  /tmp/ccS8pXJL.s 			page 33


 308:Drivers/CMSIS/DSP/Source/FilteringFunctions/arm_biquad_cascade_df2T_f64.c ****          d1 = b1 * Xn13 + d2;
 1158              		.loc 1 308 16 view .LVU299
 1159 06c4 3046     		mov	r0, r6
 1160 06c6 3946     		mov	r1, r7
 1161 06c8 FFF7FEFF 		bl	__aeabi_dadd
 1162              	.LVL228:
 1163 06cc 41EC1A0B 		vmov	d10, r0, r1
 1164              	.LVL229:
 309:Drivers/CMSIS/DSP/Source/FilteringFunctions/arm_biquad_cascade_df2T_f64.c ****          d2 = b2 * Xn13;
 1165              		.loc 1 309 10 is_stmt 1 view .LVU300
 305:Drivers/CMSIS/DSP/Source/FilteringFunctions/arm_biquad_cascade_df2T_f64.c **** 
 1166              		.loc 1 305 19 is_stmt 0 view .LVU301
 1167 06d0 53EC1B2B 		vmov	r2, r3, d11
 1168 06d4 DDE90401 		ldrd	r0, [sp, #16]
 1169              	.LVL230:
 305:Drivers/CMSIS/DSP/Source/FilteringFunctions/arm_biquad_cascade_df2T_f64.c **** 
 1170              		.loc 1 305 19 view .LVU302
 1171 06d8 FFF7FEFF 		bl	__aeabi_dmul
 1172              	.LVL231:
 305:Drivers/CMSIS/DSP/Source/FilteringFunctions/arm_biquad_cascade_df2T_f64.c **** 
 1173              		.loc 1 305 13 view .LVU303
 1174 06dc DDE90A23 		ldrd	r2, [sp, #40]
 1175 06e0 FFF7FEFF 		bl	__aeabi_dadd
 1176              	.LVL232:
 1177 06e4 0646     		mov	r6, r0
 1178 06e6 0F46     		mov	r7, r1
 309:Drivers/CMSIS/DSP/Source/FilteringFunctions/arm_biquad_cascade_df2T_f64.c ****          d2 = b2 * Xn13;
 1179              		.loc 1 309 18 view .LVU304
 1180 06e8 DDE91A23 		ldrd	r2, [sp, #104]
 1181 06ec 5046     		mov	r0, r10
 1182 06ee 5946     		mov	r1, fp
 1183 06f0 FFF7FEFF 		bl	__aeabi_dmul
 1184              	.LVL233:
 1185 06f4 0246     		mov	r2, r0
 1186 06f6 0B46     		mov	r3, r1
 309:Drivers/CMSIS/DSP/Source/FilteringFunctions/arm_biquad_cascade_df2T_f64.c ****          d2 = b2 * Xn13;
 1187              		.loc 1 309 13 view .LVU305
 1188 06f8 3046     		mov	r0, r6
 1189 06fa 3946     		mov	r1, r7
 1190 06fc FFF7FEFF 		bl	__aeabi_dadd
 1191              	.LVL234:
 1192 0700 0646     		mov	r6, r0
 1193 0702 0F46     		mov	r7, r1
 1194              	.LVL235:
 310:Drivers/CMSIS/DSP/Source/FilteringFunctions/arm_biquad_cascade_df2T_f64.c **** 
 1195              		.loc 1 310 10 is_stmt 1 view .LVU306
 310:Drivers/CMSIS/DSP/Source/FilteringFunctions/arm_biquad_cascade_df2T_f64.c **** 
 1196              		.loc 1 310 13 is_stmt 0 view .LVU307
 1197 0704 DDE91A23 		ldrd	r2, [sp, #104]
 1198 0708 DDE90001 		ldrd	r0, [sp]
 1199 070c FFF7FEFF 		bl	__aeabi_dmul
 1200              	.LVL236:
 1201 0710 CDE90A01 		strd	r0, [sp, #40]
 1202              	.LVL237:
 312:Drivers/CMSIS/DSP/Source/FilteringFunctions/arm_biquad_cascade_df2T_f64.c ****          d1 += a1 * acc13;
 1203              		.loc 1 312 10 is_stmt 1 view .LVU308
 312:Drivers/CMSIS/DSP/Source/FilteringFunctions/arm_biquad_cascade_df2T_f64.c ****          d1 += a1 * acc13;
ARM GAS  /tmp/ccS8pXJL.s 			page 34


 1204              		.loc 1 312 19 is_stmt 0 view .LVU309
 1205 0714 9DED207B 		vldr.64	d7, [sp, #128]
 1206 0718 04ED207B 		vstr.64	d7, [r4, #-128]
 313:Drivers/CMSIS/DSP/Source/FilteringFunctions/arm_biquad_cascade_df2T_f64.c **** 
 1207              		.loc 1 313 10 is_stmt 1 view .LVU310
 1208              	.LVL238:
 315:Drivers/CMSIS/DSP/Source/FilteringFunctions/arm_biquad_cascade_df2T_f64.c ****          d2 += a2 * acc13;
 1209              		.loc 1 315 10 view .LVU311
 315:Drivers/CMSIS/DSP/Source/FilteringFunctions/arm_biquad_cascade_df2T_f64.c ****          d2 += a2 * acc13;
 1210              		.loc 1 315 19 is_stmt 0 view .LVU312
 1211 071c 9DED227B 		vldr.64	d7, [sp, #136]
 1212 0720 04ED1E7B 		vstr.64	d7, [r4, #-120]
 316:Drivers/CMSIS/DSP/Source/FilteringFunctions/arm_biquad_cascade_df2T_f64.c **** 
 1213              		.loc 1 316 10 is_stmt 1 view .LVU313
 1214              	.LVL239:
 319:Drivers/CMSIS/DSP/Source/FilteringFunctions/arm_biquad_cascade_df2T_f64.c ****          acc14 = b0 * Xn14 + d1;
 1215              		.loc 1 319 10 view .LVU314
 319:Drivers/CMSIS/DSP/Source/FilteringFunctions/arm_biquad_cascade_df2T_f64.c ****          acc14 = b0 * Xn14 + d1;
 1216              		.loc 1 319 19 is_stmt 0 view .LVU315
 1217 0724 04ED1C8B 		vstr.64	d8, [r4, #-112]
 320:Drivers/CMSIS/DSP/Source/FilteringFunctions/arm_biquad_cascade_df2T_f64.c **** 
 1218              		.loc 1 320 10 is_stmt 1 view .LVU316
 313:Drivers/CMSIS/DSP/Source/FilteringFunctions/arm_biquad_cascade_df2T_f64.c **** 
 1219              		.loc 1 313 19 is_stmt 0 view .LVU317
 1220 0728 53EC1A2B 		vmov	r2, r3, d10
 1221 072c DDE90201 		ldrd	r0, [sp, #8]
 1222              	.LVL240:
 313:Drivers/CMSIS/DSP/Source/FilteringFunctions/arm_biquad_cascade_df2T_f64.c **** 
 1223              		.loc 1 313 19 view .LVU318
 1224 0730 FFF7FEFF 		bl	__aeabi_dmul
 1225              	.LVL241:
 313:Drivers/CMSIS/DSP/Source/FilteringFunctions/arm_biquad_cascade_df2T_f64.c **** 
 1226              		.loc 1 313 13 view .LVU319
 1227 0734 3246     		mov	r2, r6
 1228 0736 3B46     		mov	r3, r7
 1229 0738 FFF7FEFF 		bl	__aeabi_dadd
 1230              	.LVL242:
 1231 073c 0646     		mov	r6, r0
 1232              	.LVL243:
 313:Drivers/CMSIS/DSP/Source/FilteringFunctions/arm_biquad_cascade_df2T_f64.c **** 
 1233              		.loc 1 313 13 view .LVU320
 1234 073e 0F46     		mov	r7, r1
 320:Drivers/CMSIS/DSP/Source/FilteringFunctions/arm_biquad_cascade_df2T_f64.c **** 
 1235              		.loc 1 320 21 view .LVU321
 1236 0740 DDE91C23 		ldrd	r2, [sp, #112]
 1237 0744 4046     		mov	r0, r8
 1238 0746 4946     		mov	r1, r9
 1239 0748 FFF7FEFF 		bl	__aeabi_dmul
 1240              	.LVL244:
 1241 074c 0246     		mov	r2, r0
 1242 074e 0B46     		mov	r3, r1
 320:Drivers/CMSIS/DSP/Source/FilteringFunctions/arm_biquad_cascade_df2T_f64.c **** 
 1243              		.loc 1 320 16 view .LVU322
 1244 0750 3046     		mov	r0, r6
 1245 0752 3946     		mov	r1, r7
 1246 0754 FFF7FEFF 		bl	__aeabi_dadd
 1247              	.LVL245:
ARM GAS  /tmp/ccS8pXJL.s 			page 35


 1248 0758 41EC180B 		vmov	d8, r0, r1
 1249              	.LVL246:
 322:Drivers/CMSIS/DSP/Source/FilteringFunctions/arm_biquad_cascade_df2T_f64.c ****          d1 = b1 * Xn14 + d2;
 1250              		.loc 1 322 10 is_stmt 1 view .LVU323
 322:Drivers/CMSIS/DSP/Source/FilteringFunctions/arm_biquad_cascade_df2T_f64.c ****          d1 = b1 * Xn14 + d2;
 1251              		.loc 1 322 19 is_stmt 0 view .LVU324
 1252 075c 9DED067B 		vldr.64	d7, [sp, #24]
 1253 0760 04ED1A7B 		vstr.64	d7, [r4, #-104]
 323:Drivers/CMSIS/DSP/Source/FilteringFunctions/arm_biquad_cascade_df2T_f64.c **** 
 1254              		.loc 1 323 10 is_stmt 1 view .LVU325
 316:Drivers/CMSIS/DSP/Source/FilteringFunctions/arm_biquad_cascade_df2T_f64.c **** 
 1255              		.loc 1 316 19 is_stmt 0 view .LVU326
 1256 0764 53EC1A2B 		vmov	r2, r3, d10
 1257 0768 DDE90401 		ldrd	r0, [sp, #16]
 1258              	.LVL247:
 316:Drivers/CMSIS/DSP/Source/FilteringFunctions/arm_biquad_cascade_df2T_f64.c **** 
 1259              		.loc 1 316 19 view .LVU327
 1260 076c FFF7FEFF 		bl	__aeabi_dmul
 1261              	.LVL248:
 316:Drivers/CMSIS/DSP/Source/FilteringFunctions/arm_biquad_cascade_df2T_f64.c **** 
 1262              		.loc 1 316 13 view .LVU328
 1263 0770 DDE90A23 		ldrd	r2, [sp, #40]
 1264 0774 FFF7FEFF 		bl	__aeabi_dadd
 1265              	.LVL249:
 1266 0778 0646     		mov	r6, r0
 1267 077a 0F46     		mov	r7, r1
 323:Drivers/CMSIS/DSP/Source/FilteringFunctions/arm_biquad_cascade_df2T_f64.c **** 
 1268              		.loc 1 323 18 view .LVU329
 1269 077c DDE91C23 		ldrd	r2, [sp, #112]
 1270 0780 5046     		mov	r0, r10
 1271 0782 5946     		mov	r1, fp
 1272 0784 FFF7FEFF 		bl	__aeabi_dmul
 1273              	.LVL250:
 1274 0788 0246     		mov	r2, r0
 1275 078a 0B46     		mov	r3, r1
 323:Drivers/CMSIS/DSP/Source/FilteringFunctions/arm_biquad_cascade_df2T_f64.c **** 
 1276              		.loc 1 323 13 view .LVU330
 1277 078c 3046     		mov	r0, r6
 1278 078e 3946     		mov	r1, r7
 1279 0790 FFF7FEFF 		bl	__aeabi_dadd
 1280              	.LVL251:
 1281 0794 0646     		mov	r6, r0
 1282 0796 0F46     		mov	r7, r1
 1283              	.LVL252:
 325:Drivers/CMSIS/DSP/Source/FilteringFunctions/arm_biquad_cascade_df2T_f64.c ****          d2 = b2 * Xn14;
 1284              		.loc 1 325 10 is_stmt 1 view .LVU331
 325:Drivers/CMSIS/DSP/Source/FilteringFunctions/arm_biquad_cascade_df2T_f64.c ****          d2 = b2 * Xn14;
 1285              		.loc 1 325 19 is_stmt 0 view .LVU332
 1286 0798 9DED087B 		vldr.64	d7, [sp, #32]
 1287 079c 04ED187B 		vstr.64	d7, [r4, #-96]
 326:Drivers/CMSIS/DSP/Source/FilteringFunctions/arm_biquad_cascade_df2T_f64.c **** 
 1288              		.loc 1 326 10 is_stmt 1 view .LVU333
 326:Drivers/CMSIS/DSP/Source/FilteringFunctions/arm_biquad_cascade_df2T_f64.c **** 
 1289              		.loc 1 326 13 is_stmt 0 view .LVU334
 1290 07a0 DDE91C23 		ldrd	r2, [sp, #112]
 1291 07a4 DDE90001 		ldrd	r0, [sp]
 1292 07a8 FFF7FEFF 		bl	__aeabi_dmul
ARM GAS  /tmp/ccS8pXJL.s 			page 36


 1293              	.LVL253:
 1294 07ac CDE90601 		strd	r0, [sp, #24]
 1295              	.LVL254:
 328:Drivers/CMSIS/DSP/Source/FilteringFunctions/arm_biquad_cascade_df2T_f64.c ****          d1 += a1 * acc14;
 1296              		.loc 1 328 10 is_stmt 1 view .LVU335
 328:Drivers/CMSIS/DSP/Source/FilteringFunctions/arm_biquad_cascade_df2T_f64.c ****          d1 += a1 * acc14;
 1297              		.loc 1 328 19 is_stmt 0 view .LVU336
 1298 07b0 9DED0E7B 		vldr.64	d7, [sp, #56]
 1299 07b4 04ED167B 		vstr.64	d7, [r4, #-88]
 329:Drivers/CMSIS/DSP/Source/FilteringFunctions/arm_biquad_cascade_df2T_f64.c **** 
 1300              		.loc 1 329 10 is_stmt 1 view .LVU337
 1301              	.LVL255:
 331:Drivers/CMSIS/DSP/Source/FilteringFunctions/arm_biquad_cascade_df2T_f64.c ****          d2 += a2 * acc14;
 1302              		.loc 1 331 10 view .LVU338
 331:Drivers/CMSIS/DSP/Source/FilteringFunctions/arm_biquad_cascade_df2T_f64.c ****          d2 += a2 * acc14;
 1303              		.loc 1 331 19 is_stmt 0 view .LVU339
 1304 07b8 04ED14FB 		vstr.64	d15, [r4, #-80]
 332:Drivers/CMSIS/DSP/Source/FilteringFunctions/arm_biquad_cascade_df2T_f64.c **** 
 1305              		.loc 1 332 10 is_stmt 1 view .LVU340
 1306              	.LVL256:
 335:Drivers/CMSIS/DSP/Source/FilteringFunctions/arm_biquad_cascade_df2T_f64.c ****          pOut[8 ] = acc9 ;
 1307              		.loc 1 335 10 view .LVU341
 335:Drivers/CMSIS/DSP/Source/FilteringFunctions/arm_biquad_cascade_df2T_f64.c ****          pOut[8 ] = acc9 ;
 1308              		.loc 1 335 19 is_stmt 0 view .LVU342
 1309 07bc 04ED12EB 		vstr.64	d14, [r4, #-72]
 336:Drivers/CMSIS/DSP/Source/FilteringFunctions/arm_biquad_cascade_df2T_f64.c ****          acc15 = b0 * Xn15 + d1;
 1310              		.loc 1 336 10 is_stmt 1 view .LVU343
 336:Drivers/CMSIS/DSP/Source/FilteringFunctions/arm_biquad_cascade_df2T_f64.c ****          acc15 = b0 * Xn15 + d1;
 1311              		.loc 1 336 19 is_stmt 0 view .LVU344
 1312 07c0 04ED109B 		vstr.64	d9, [r4, #-64]
 337:Drivers/CMSIS/DSP/Source/FilteringFunctions/arm_biquad_cascade_df2T_f64.c **** 
 1313              		.loc 1 337 10 is_stmt 1 view .LVU345
 329:Drivers/CMSIS/DSP/Source/FilteringFunctions/arm_biquad_cascade_df2T_f64.c **** 
 1314              		.loc 1 329 19 is_stmt 0 view .LVU346
 1315 07c4 53EC182B 		vmov	r2, r3, d8
 1316 07c8 DDE90201 		ldrd	r0, [sp, #8]
 1317              	.LVL257:
 329:Drivers/CMSIS/DSP/Source/FilteringFunctions/arm_biquad_cascade_df2T_f64.c **** 
 1318              		.loc 1 329 19 view .LVU347
 1319 07cc FFF7FEFF 		bl	__aeabi_dmul
 1320              	.LVL258:
 329:Drivers/CMSIS/DSP/Source/FilteringFunctions/arm_biquad_cascade_df2T_f64.c **** 
 1321              		.loc 1 329 13 view .LVU348
 1322 07d0 3246     		mov	r2, r6
 1323 07d2 3B46     		mov	r3, r7
 1324 07d4 FFF7FEFF 		bl	__aeabi_dadd
 1325              	.LVL259:
 1326 07d8 0646     		mov	r6, r0
 1327              	.LVL260:
 329:Drivers/CMSIS/DSP/Source/FilteringFunctions/arm_biquad_cascade_df2T_f64.c **** 
 1328              		.loc 1 329 13 view .LVU349
 1329 07da 0F46     		mov	r7, r1
 337:Drivers/CMSIS/DSP/Source/FilteringFunctions/arm_biquad_cascade_df2T_f64.c **** 
 1330              		.loc 1 337 21 view .LVU350
 1331 07dc DDE91E23 		ldrd	r2, [sp, #120]
 1332 07e0 4046     		mov	r0, r8
 1333 07e2 4946     		mov	r1, r9
ARM GAS  /tmp/ccS8pXJL.s 			page 37


 1334 07e4 FFF7FEFF 		bl	__aeabi_dmul
 1335              	.LVL261:
 1336 07e8 0246     		mov	r2, r0
 1337 07ea 0B46     		mov	r3, r1
 337:Drivers/CMSIS/DSP/Source/FilteringFunctions/arm_biquad_cascade_df2T_f64.c **** 
 1338              		.loc 1 337 16 view .LVU351
 1339 07ec 3046     		mov	r0, r6
 1340 07ee 3946     		mov	r1, r7
 1341 07f0 FFF7FEFF 		bl	__aeabi_dadd
 1342              	.LVL262:
 1343 07f4 41EC190B 		vmov	d9, r0, r1
 1344              	.LVL263:
 339:Drivers/CMSIS/DSP/Source/FilteringFunctions/arm_biquad_cascade_df2T_f64.c ****          d1 = b1 * Xn15 + d2;
 1345              		.loc 1 339 10 is_stmt 1 view .LVU352
 339:Drivers/CMSIS/DSP/Source/FilteringFunctions/arm_biquad_cascade_df2T_f64.c ****          d1 = b1 * Xn15 + d2;
 1346              		.loc 1 339 19 is_stmt 0 view .LVU353
 1347 07f8 04ED0EDB 		vstr.64	d13, [r4, #-56]
 340:Drivers/CMSIS/DSP/Source/FilteringFunctions/arm_biquad_cascade_df2T_f64.c **** 
 1348              		.loc 1 340 10 is_stmt 1 view .LVU354
 332:Drivers/CMSIS/DSP/Source/FilteringFunctions/arm_biquad_cascade_df2T_f64.c **** 
 1349              		.loc 1 332 19 is_stmt 0 view .LVU355
 1350 07fc 53EC182B 		vmov	r2, r3, d8
 1351 0800 DDE90401 		ldrd	r0, [sp, #16]
 1352              	.LVL264:
 332:Drivers/CMSIS/DSP/Source/FilteringFunctions/arm_biquad_cascade_df2T_f64.c **** 
 1353              		.loc 1 332 19 view .LVU356
 1354 0804 FFF7FEFF 		bl	__aeabi_dmul
 1355              	.LVL265:
 332:Drivers/CMSIS/DSP/Source/FilteringFunctions/arm_biquad_cascade_df2T_f64.c **** 
 1356              		.loc 1 332 13 view .LVU357
 1357 0808 DDE90623 		ldrd	r2, [sp, #24]
 1358 080c FFF7FEFF 		bl	__aeabi_dadd
 1359              	.LVL266:
 1360 0810 0646     		mov	r6, r0
 1361 0812 0F46     		mov	r7, r1
 340:Drivers/CMSIS/DSP/Source/FilteringFunctions/arm_biquad_cascade_df2T_f64.c **** 
 1362              		.loc 1 340 18 view .LVU358
 1363 0814 DDE91E23 		ldrd	r2, [sp, #120]
 1364 0818 5046     		mov	r0, r10
 1365 081a 5946     		mov	r1, fp
 1366 081c FFF7FEFF 		bl	__aeabi_dmul
 1367              	.LVL267:
 340:Drivers/CMSIS/DSP/Source/FilteringFunctions/arm_biquad_cascade_df2T_f64.c **** 
 1368              		.loc 1 340 13 view .LVU359
 1369 0820 0246     		mov	r2, r0
 1370 0822 0B46     		mov	r3, r1
 1371 0824 3046     		mov	r0, r6
 1372 0826 3946     		mov	r1, r7
 1373 0828 FFF7FEFF 		bl	__aeabi_dadd
 1374              	.LVL268:
 1375 082c 0646     		mov	r6, r0
 1376 082e 0F46     		mov	r7, r1
 1377              	.LVL269:
 342:Drivers/CMSIS/DSP/Source/FilteringFunctions/arm_biquad_cascade_df2T_f64.c ****          d2 = b2 * Xn15;
 1378              		.loc 1 342 10 is_stmt 1 view .LVU360
 342:Drivers/CMSIS/DSP/Source/FilteringFunctions/arm_biquad_cascade_df2T_f64.c ****          d2 = b2 * Xn15;
 1379              		.loc 1 342 19 is_stmt 0 view .LVU361
ARM GAS  /tmp/ccS8pXJL.s 			page 38


 1380 0830 04ED0CCB 		vstr.64	d12, [r4, #-48]
 343:Drivers/CMSIS/DSP/Source/FilteringFunctions/arm_biquad_cascade_df2T_f64.c **** 
 1381              		.loc 1 343 10 is_stmt 1 view .LVU362
 343:Drivers/CMSIS/DSP/Source/FilteringFunctions/arm_biquad_cascade_df2T_f64.c **** 
 1382              		.loc 1 343 13 is_stmt 0 view .LVU363
 1383 0834 DDE91E23 		ldrd	r2, [sp, #120]
 1384 0838 DDE90001 		ldrd	r0, [sp]
 1385 083c FFF7FEFF 		bl	__aeabi_dmul
 1386              	.LVL270:
 1387 0840 CDE90601 		strd	r0, [sp, #24]
 1388              	.LVL271:
 345:Drivers/CMSIS/DSP/Source/FilteringFunctions/arm_biquad_cascade_df2T_f64.c ****          d1 += a1 * acc15;
 1389              		.loc 1 345 10 is_stmt 1 view .LVU364
 345:Drivers/CMSIS/DSP/Source/FilteringFunctions/arm_biquad_cascade_df2T_f64.c ****          d1 += a1 * acc15;
 1390              		.loc 1 345 19 is_stmt 0 view .LVU365
 1391 0844 04ED0ABB 		vstr.64	d11, [r4, #-40]
 346:Drivers/CMSIS/DSP/Source/FilteringFunctions/arm_biquad_cascade_df2T_f64.c **** 
 1392              		.loc 1 346 10 is_stmt 1 view .LVU366
 1393              	.LVL272:
 348:Drivers/CMSIS/DSP/Source/FilteringFunctions/arm_biquad_cascade_df2T_f64.c ****          d2 += a2 * acc15;
 1394              		.loc 1 348 10 view .LVU367
 348:Drivers/CMSIS/DSP/Source/FilteringFunctions/arm_biquad_cascade_df2T_f64.c ****          d2 += a2 * acc15;
 1395              		.loc 1 348 19 is_stmt 0 view .LVU368
 1396 0848 04ED08AB 		vstr.64	d10, [r4, #-32]
 349:Drivers/CMSIS/DSP/Source/FilteringFunctions/arm_biquad_cascade_df2T_f64.c **** 
 1397              		.loc 1 349 10 is_stmt 1 view .LVU369
 1398              	.LVL273:
 352:Drivers/CMSIS/DSP/Source/FilteringFunctions/arm_biquad_cascade_df2T_f64.c ****          acc16 = b0 * Xn16 + d1;
 1399              		.loc 1 352 10 view .LVU370
 352:Drivers/CMSIS/DSP/Source/FilteringFunctions/arm_biquad_cascade_df2T_f64.c ****          acc16 = b0 * Xn16 + d1;
 1400              		.loc 1 352 19 is_stmt 0 view .LVU371
 1401 084c 04ED068B 		vstr.64	d8, [r4, #-24]
 353:Drivers/CMSIS/DSP/Source/FilteringFunctions/arm_biquad_cascade_df2T_f64.c **** 
 1402              		.loc 1 353 10 is_stmt 1 view .LVU372
 346:Drivers/CMSIS/DSP/Source/FilteringFunctions/arm_biquad_cascade_df2T_f64.c **** 
 1403              		.loc 1 346 19 is_stmt 0 view .LVU373
 1404 0850 53EC192B 		vmov	r2, r3, d9
 1405 0854 DDE90201 		ldrd	r0, [sp, #8]
 1406              	.LVL274:
 346:Drivers/CMSIS/DSP/Source/FilteringFunctions/arm_biquad_cascade_df2T_f64.c **** 
 1407              		.loc 1 346 19 view .LVU374
 1408 0858 FFF7FEFF 		bl	__aeabi_dmul
 1409              	.LVL275:
 346:Drivers/CMSIS/DSP/Source/FilteringFunctions/arm_biquad_cascade_df2T_f64.c **** 
 1410              		.loc 1 346 13 view .LVU375
 1411 085c 3246     		mov	r2, r6
 1412 085e 3B46     		mov	r3, r7
 1413 0860 FFF7FEFF 		bl	__aeabi_dadd
 1414              	.LVL276:
 1415 0864 0646     		mov	r6, r0
 1416              	.LVL277:
 346:Drivers/CMSIS/DSP/Source/FilteringFunctions/arm_biquad_cascade_df2T_f64.c **** 
 1417              		.loc 1 346 13 view .LVU376
 1418 0866 0F46     		mov	r7, r1
 353:Drivers/CMSIS/DSP/Source/FilteringFunctions/arm_biquad_cascade_df2T_f64.c **** 
 1419              		.loc 1 353 21 view .LVU377
 1420 0868 DDE90C23 		ldrd	r2, [sp, #48]
ARM GAS  /tmp/ccS8pXJL.s 			page 39


 1421 086c 4046     		mov	r0, r8
 1422 086e 4946     		mov	r1, r9
 1423 0870 FFF7FEFF 		bl	__aeabi_dmul
 1424              	.LVL278:
 353:Drivers/CMSIS/DSP/Source/FilteringFunctions/arm_biquad_cascade_df2T_f64.c **** 
 1425              		.loc 1 353 16 view .LVU378
 1426 0874 0246     		mov	r2, r0
 1427 0876 0B46     		mov	r3, r1
 1428 0878 3046     		mov	r0, r6
 1429 087a 3946     		mov	r1, r7
 1430 087c FFF7FEFF 		bl	__aeabi_dadd
 1431              	.LVL279:
 1432 0880 0646     		mov	r6, r0
 1433 0882 0F46     		mov	r7, r1
 1434              	.LVL280:
 355:Drivers/CMSIS/DSP/Source/FilteringFunctions/arm_biquad_cascade_df2T_f64.c ****          d1 = b1 * Xn16 + d2;
 1435              		.loc 1 355 10 is_stmt 1 view .LVU379
 355:Drivers/CMSIS/DSP/Source/FilteringFunctions/arm_biquad_cascade_df2T_f64.c ****          d1 = b1 * Xn16 + d2;
 1436              		.loc 1 355 19 is_stmt 0 view .LVU380
 1437 0884 04ED049B 		vstr.64	d9, [r4, #-16]
 356:Drivers/CMSIS/DSP/Source/FilteringFunctions/arm_biquad_cascade_df2T_f64.c **** 
 1438              		.loc 1 356 10 is_stmt 1 view .LVU381
 349:Drivers/CMSIS/DSP/Source/FilteringFunctions/arm_biquad_cascade_df2T_f64.c **** 
 1439              		.loc 1 349 19 is_stmt 0 view .LVU382
 1440 0888 53EC192B 		vmov	r2, r3, d9
 1441 088c DDE90401 		ldrd	r0, [sp, #16]
 1442 0890 FFF7FEFF 		bl	__aeabi_dmul
 1443              	.LVL281:
 349:Drivers/CMSIS/DSP/Source/FilteringFunctions/arm_biquad_cascade_df2T_f64.c **** 
 1444              		.loc 1 349 13 view .LVU383
 1445 0894 DDE90623 		ldrd	r2, [sp, #24]
 1446 0898 FFF7FEFF 		bl	__aeabi_dadd
 1447              	.LVL282:
 1448 089c CDE90601 		strd	r0, [sp, #24]
 1449              	.LVL283:
 356:Drivers/CMSIS/DSP/Source/FilteringFunctions/arm_biquad_cascade_df2T_f64.c **** 
 1450              		.loc 1 356 18 view .LVU384
 1451 08a0 DDE90C23 		ldrd	r2, [sp, #48]
 1452 08a4 5046     		mov	r0, r10
 1453 08a6 5946     		mov	r1, fp
 1454 08a8 FFF7FEFF 		bl	__aeabi_dmul
 1455              	.LVL284:
 356:Drivers/CMSIS/DSP/Source/FilteringFunctions/arm_biquad_cascade_df2T_f64.c **** 
 1456              		.loc 1 356 13 view .LVU385
 1457 08ac 0246     		mov	r2, r0
 1458 08ae 0B46     		mov	r3, r1
 1459 08b0 DDE90601 		ldrd	r0, [sp, #24]
 1460 08b4 FFF7FEFF 		bl	__aeabi_dadd
 1461              	.LVL285:
 1462 08b8 CDE90601 		strd	r0, [sp, #24]
 1463              	.LVL286:
 358:Drivers/CMSIS/DSP/Source/FilteringFunctions/arm_biquad_cascade_df2T_f64.c ****          d2 = b2 * Xn16;
 1464              		.loc 1 358 10 is_stmt 1 view .LVU386
 358:Drivers/CMSIS/DSP/Source/FilteringFunctions/arm_biquad_cascade_df2T_f64.c ****          d2 = b2 * Xn16;
 1465              		.loc 1 358 19 is_stmt 0 view .LVU387
 1466 08bc 44E90267 		strd	r6, [r4, #-8]
 359:Drivers/CMSIS/DSP/Source/FilteringFunctions/arm_biquad_cascade_df2T_f64.c **** 
ARM GAS  /tmp/ccS8pXJL.s 			page 40


 1467              		.loc 1 359 10 is_stmt 1 view .LVU388
 359:Drivers/CMSIS/DSP/Source/FilteringFunctions/arm_biquad_cascade_df2T_f64.c **** 
 1468              		.loc 1 359 13 is_stmt 0 view .LVU389
 1469 08c0 DDE90C23 		ldrd	r2, [sp, #48]
 1470 08c4 DDE90001 		ldrd	r0, [sp]
 1471              	.LVL287:
 359:Drivers/CMSIS/DSP/Source/FilteringFunctions/arm_biquad_cascade_df2T_f64.c **** 
 1472              		.loc 1 359 13 view .LVU390
 1473 08c8 FFF7FEFF 		bl	__aeabi_dmul
 1474              	.LVL288:
 1475 08cc CDE90801 		strd	r0, [sp, #32]
 1476              	.LVL289:
 361:Drivers/CMSIS/DSP/Source/FilteringFunctions/arm_biquad_cascade_df2T_f64.c ****          d1 += a1 * acc16;
 1477              		.loc 1 361 10 is_stmt 1 view .LVU391
 361:Drivers/CMSIS/DSP/Source/FilteringFunctions/arm_biquad_cascade_df2T_f64.c ****          d1 += a1 * acc16;
 1478              		.loc 1 361 16 is_stmt 0 view .LVU392
 1479 08d0 269B     		ldr	r3, [sp, #152]
 1480 08d2 013B     		subs	r3, r3, #1
 1481 08d4 2693     		str	r3, [sp, #152]
 1482              	.LVL290:
 362:Drivers/CMSIS/DSP/Source/FilteringFunctions/arm_biquad_cascade_df2T_f64.c **** 
 1483              		.loc 1 362 10 is_stmt 1 view .LVU393
 362:Drivers/CMSIS/DSP/Source/FilteringFunctions/arm_biquad_cascade_df2T_f64.c **** 
 1484              		.loc 1 362 19 is_stmt 0 view .LVU394
 1485 08d6 3246     		mov	r2, r6
 1486 08d8 3B46     		mov	r3, r7
 1487              	.LVL291:
 362:Drivers/CMSIS/DSP/Source/FilteringFunctions/arm_biquad_cascade_df2T_f64.c **** 
 1488              		.loc 1 362 19 view .LVU395
 1489 08da DDE90201 		ldrd	r0, [sp, #8]
 1490              	.LVL292:
 362:Drivers/CMSIS/DSP/Source/FilteringFunctions/arm_biquad_cascade_df2T_f64.c **** 
 1491              		.loc 1 362 19 view .LVU396
 1492 08de FFF7FEFF 		bl	__aeabi_dmul
 1493              	.LVL293:
 362:Drivers/CMSIS/DSP/Source/FilteringFunctions/arm_biquad_cascade_df2T_f64.c **** 
 1494              		.loc 1 362 13 view .LVU397
 1495 08e2 DDE90623 		ldrd	r2, [sp, #24]
 1496 08e6 FFF7FEFF 		bl	__aeabi_dadd
 1497              	.LVL294:
 1498 08ea CDE90601 		strd	r0, [sp, #24]
 1499              	.LVL295:
 364:Drivers/CMSIS/DSP/Source/FilteringFunctions/arm_biquad_cascade_df2T_f64.c ****          d2 += a2 * acc16;
 1500              		.loc 1 364 10 is_stmt 1 view .LVU398
 365:Drivers/CMSIS/DSP/Source/FilteringFunctions/arm_biquad_cascade_df2T_f64.c ****       }
 1501              		.loc 1 365 10 view .LVU399
 365:Drivers/CMSIS/DSP/Source/FilteringFunctions/arm_biquad_cascade_df2T_f64.c ****       }
 1502              		.loc 1 365 19 is_stmt 0 view .LVU400
 1503 08ee 3246     		mov	r2, r6
 1504 08f0 3B46     		mov	r3, r7
 1505 08f2 DDE90401 		ldrd	r0, [sp, #16]
 1506              	.LVL296:
 365:Drivers/CMSIS/DSP/Source/FilteringFunctions/arm_biquad_cascade_df2T_f64.c ****       }
 1507              		.loc 1 365 19 view .LVU401
 1508 08f6 FFF7FEFF 		bl	__aeabi_dmul
 1509              	.LVL297:
 365:Drivers/CMSIS/DSP/Source/FilteringFunctions/arm_biquad_cascade_df2T_f64.c ****       }
ARM GAS  /tmp/ccS8pXJL.s 			page 41


 1510              		.loc 1 365 13 view .LVU402
 1511 08fa DDE90823 		ldrd	r2, [sp, #32]
 1512 08fe FFF7FEFF 		bl	__aeabi_dadd
 1513              	.LVL298:
 1514 0902 CDE90801 		strd	r0, [sp, #32]
 1515              	.LVL299:
 186:Drivers/CMSIS/DSP/Source/FilteringFunctions/arm_biquad_cascade_df2T_f64.c **** 
 1516              		.loc 1 186 21 is_stmt 1 view .LVU403
 1517 0906 8035     		adds	r5, r5, #128
 1518              	.LVL300:
 186:Drivers/CMSIS/DSP/Source/FilteringFunctions/arm_biquad_cascade_df2T_f64.c **** 
 1519              		.loc 1 186 21 is_stmt 0 view .LVU404
 1520 0908 8034     		adds	r4, r4, #128
 1521 090a 269B     		ldr	r3, [sp, #152]
 1522 090c 002B     		cmp	r3, #0
 1523 090e 7FF4C1AB 		bne	.L3
 1524 0912 2A9A     		ldr	r2, [sp, #168]
 1525 0914 2B9B     		ldr	r3, [sp, #172]
 1526 0916 2C9F     		ldr	r7, [sp, #176]
 1527 0918 2799     		ldr	r1, [sp, #156]
 1528 091a 3198     		ldr	r0, [sp, #196]
 1529              	.LVL301:
 186:Drivers/CMSIS/DSP/Source/FilteringFunctions/arm_biquad_cascade_df2T_f64.c **** 
 1530              		.loc 1 186 21 view .LVU405
 1531 091c 0144     		add	r1, r1, r0
 1532 091e 2791     		str	r1, [sp, #156]
 1533 0920 2F99     		ldr	r1, [sp, #188]
 1534 0922 0C46     		mov	r4, r1
 1535              	.LVL302:
 1536              	.L2:
 368:Drivers/CMSIS/DSP/Source/FilteringFunctions/arm_biquad_cascade_df2T_f64.c ****       while (sample > 0U) {
 1537              		.loc 1 368 7 is_stmt 1 view .LVU406
 369:Drivers/CMSIS/DSP/Source/FilteringFunctions/arm_biquad_cascade_df2T_f64.c ****          Xn1 = *pIn;
 1538              		.loc 1 369 7 view .LVU407
 369:Drivers/CMSIS/DSP/Source/FilteringFunctions/arm_biquad_cascade_df2T_f64.c ****          Xn1 = *pIn;
 1539              		.loc 1 369 21 view .LVU408
 1540 0924 2E99     		ldr	r1, [sp, #184]
 1541 0926 0029     		cmp	r1, #0
 1542 0928 4ED0     		beq	.L4
 1543 092a 2799     		ldr	r1, [sp, #156]
 1544 092c 3098     		ldr	r0, [sp, #192]
 1545 092e 0818     		adds	r0, r1, r0
 1546 0930 0A90     		str	r0, [sp, #40]
 1547 0932 CDE90C89 		strd	r8, [sp, #48]
 1548 0936 CDE90EAB 		strd	r10, [sp, #56]
 1549 093a A146     		mov	r9, r4
 1550 093c 9046     		mov	r8, r2
 1551              	.LVL303:
 369:Drivers/CMSIS/DSP/Source/FilteringFunctions/arm_biquad_cascade_df2T_f64.c ****          Xn1 = *pIn;
 1552              		.loc 1 369 21 is_stmt 0 view .LVU409
 1553 093e 9A46     		mov	r10, r3
 1554              	.LVL304:
 369:Drivers/CMSIS/DSP/Source/FilteringFunctions/arm_biquad_cascade_df2T_f64.c ****          Xn1 = *pIn;
 1555              		.loc 1 369 21 view .LVU410
 1556 0940 1097     		str	r7, [sp, #64]
 1557 0942 8B46     		mov	fp, r1
 1558              	.LVL305:
ARM GAS  /tmp/ccS8pXJL.s 			page 42


 1559              	.L5:
 370:Drivers/CMSIS/DSP/Source/FilteringFunctions/arm_biquad_cascade_df2T_f64.c ****          acc1 = b0 * Xn1 + d1;
 1560              		.loc 1 370 10 is_stmt 1 view .LVU411
 370:Drivers/CMSIS/DSP/Source/FilteringFunctions/arm_biquad_cascade_df2T_f64.c ****          acc1 = b0 * Xn1 + d1;
 1561              		.loc 1 370 14 is_stmt 0 view .LVU412
 1562 0944 FBE80245 		ldrd	r4, [fp], #8
 1563              	.LVL306:
 371:Drivers/CMSIS/DSP/Source/FilteringFunctions/arm_biquad_cascade_df2T_f64.c **** 
 1564              		.loc 1 371 10 is_stmt 1 view .LVU413
 371:Drivers/CMSIS/DSP/Source/FilteringFunctions/arm_biquad_cascade_df2T_f64.c **** 
 1565              		.loc 1 371 20 is_stmt 0 view .LVU414
 1566 0948 2246     		mov	r2, r4
 1567 094a 2B46     		mov	r3, r5
 1568 094c DDE90C01 		ldrd	r0, [sp, #48]
 1569 0950 FFF7FEFF 		bl	__aeabi_dmul
 1570              	.LVL307:
 371:Drivers/CMSIS/DSP/Source/FilteringFunctions/arm_biquad_cascade_df2T_f64.c **** 
 1571              		.loc 1 371 15 view .LVU415
 1572 0954 DDE90623 		ldrd	r2, [sp, #24]
 1573 0958 FFF7FEFF 		bl	__aeabi_dadd
 1574              	.LVL308:
 1575 095c 0646     		mov	r6, r0
 1576 095e 0F46     		mov	r7, r1
 1577              	.LVL309:
 373:Drivers/CMSIS/DSP/Source/FilteringFunctions/arm_biquad_cascade_df2T_f64.c ****          d1 = b1 * Xn1 + d2;
 1578              		.loc 1 373 10 is_stmt 1 view .LVU416
 374:Drivers/CMSIS/DSP/Source/FilteringFunctions/arm_biquad_cascade_df2T_f64.c **** 
 1579              		.loc 1 374 10 view .LVU417
 374:Drivers/CMSIS/DSP/Source/FilteringFunctions/arm_biquad_cascade_df2T_f64.c **** 
 1580              		.loc 1 374 18 is_stmt 0 view .LVU418
 1581 0960 2246     		mov	r2, r4
 1582 0962 2B46     		mov	r3, r5
 1583 0964 DDE90E01 		ldrd	r0, [sp, #56]
 1584 0968 FFF7FEFF 		bl	__aeabi_dmul
 1585              	.LVL310:
 374:Drivers/CMSIS/DSP/Source/FilteringFunctions/arm_biquad_cascade_df2T_f64.c **** 
 1586              		.loc 1 374 13 view .LVU419
 1587 096c DDE90823 		ldrd	r2, [sp, #32]
 1588 0970 FFF7FEFF 		bl	__aeabi_dadd
 1589              	.LVL311:
 1590 0974 CDE90601 		strd	r0, [sp, #24]
 1591              	.LVL312:
 376:Drivers/CMSIS/DSP/Source/FilteringFunctions/arm_biquad_cascade_df2T_f64.c ****          d2 = b2 * Xn1;
 1592              		.loc 1 376 10 is_stmt 1 view .LVU420
 376:Drivers/CMSIS/DSP/Source/FilteringFunctions/arm_biquad_cascade_df2T_f64.c ****          d2 = b2 * Xn1;
 1593              		.loc 1 376 16 is_stmt 0 view .LVU421
 1594 0978 E9E80267 		strd	r6, [r9], #8
 1595              	.LVL313:
 377:Drivers/CMSIS/DSP/Source/FilteringFunctions/arm_biquad_cascade_df2T_f64.c **** 
 1596              		.loc 1 377 10 is_stmt 1 view .LVU422
 377:Drivers/CMSIS/DSP/Source/FilteringFunctions/arm_biquad_cascade_df2T_f64.c **** 
 1597              		.loc 1 377 13 is_stmt 0 view .LVU423
 1598 097c 2246     		mov	r2, r4
 1599 097e 2B46     		mov	r3, r5
 1600 0980 DDE90001 		ldrd	r0, [sp]
 1601              	.LVL314:
 377:Drivers/CMSIS/DSP/Source/FilteringFunctions/arm_biquad_cascade_df2T_f64.c **** 
ARM GAS  /tmp/ccS8pXJL.s 			page 43


 1602              		.loc 1 377 13 view .LVU424
 1603 0984 FFF7FEFF 		bl	__aeabi_dmul
 1604              	.LVL315:
 1605 0988 0446     		mov	r4, r0
 1606              	.LVL316:
 377:Drivers/CMSIS/DSP/Source/FilteringFunctions/arm_biquad_cascade_df2T_f64.c **** 
 1607              		.loc 1 377 13 view .LVU425
 1608 098a 0D46     		mov	r5, r1
 1609              	.LVL317:
 379:Drivers/CMSIS/DSP/Source/FilteringFunctions/arm_biquad_cascade_df2T_f64.c ****          d1 += a1 * acc1;
 1610              		.loc 1 379 10 is_stmt 1 view .LVU426
 380:Drivers/CMSIS/DSP/Source/FilteringFunctions/arm_biquad_cascade_df2T_f64.c **** 
 1611              		.loc 1 380 10 view .LVU427
 380:Drivers/CMSIS/DSP/Source/FilteringFunctions/arm_biquad_cascade_df2T_f64.c **** 
 1612              		.loc 1 380 19 is_stmt 0 view .LVU428
 1613 098c 3246     		mov	r2, r6
 1614 098e 3B46     		mov	r3, r7
 1615 0990 DDE90201 		ldrd	r0, [sp, #8]
 1616 0994 FFF7FEFF 		bl	__aeabi_dmul
 1617              	.LVL318:
 380:Drivers/CMSIS/DSP/Source/FilteringFunctions/arm_biquad_cascade_df2T_f64.c **** 
 1618              		.loc 1 380 13 view .LVU429
 1619 0998 DDE90623 		ldrd	r2, [sp, #24]
 1620 099c FFF7FEFF 		bl	__aeabi_dadd
 1621              	.LVL319:
 1622 09a0 CDE90601 		strd	r0, [sp, #24]
 1623              	.LVL320:
 382:Drivers/CMSIS/DSP/Source/FilteringFunctions/arm_biquad_cascade_df2T_f64.c ****          d2 += a2 * acc1;
 1624              		.loc 1 382 10 is_stmt 1 view .LVU430
 383:Drivers/CMSIS/DSP/Source/FilteringFunctions/arm_biquad_cascade_df2T_f64.c ****       }
 1625              		.loc 1 383 10 view .LVU431
 383:Drivers/CMSIS/DSP/Source/FilteringFunctions/arm_biquad_cascade_df2T_f64.c ****       }
 1626              		.loc 1 383 19 is_stmt 0 view .LVU432
 1627 09a4 3246     		mov	r2, r6
 1628 09a6 3B46     		mov	r3, r7
 1629 09a8 DDE90401 		ldrd	r0, [sp, #16]
 1630              	.LVL321:
 383:Drivers/CMSIS/DSP/Source/FilteringFunctions/arm_biquad_cascade_df2T_f64.c ****       }
 1631              		.loc 1 383 19 view .LVU433
 1632 09ac FFF7FEFF 		bl	__aeabi_dmul
 1633              	.LVL322:
 383:Drivers/CMSIS/DSP/Source/FilteringFunctions/arm_biquad_cascade_df2T_f64.c ****       }
 1634              		.loc 1 383 13 view .LVU434
 1635 09b0 2246     		mov	r2, r4
 1636 09b2 2B46     		mov	r3, r5
 1637 09b4 FFF7FEFF 		bl	__aeabi_dadd
 1638              	.LVL323:
 1639 09b8 CDE90801 		strd	r0, [sp, #32]
 1640              	.LVL324:
 369:Drivers/CMSIS/DSP/Source/FilteringFunctions/arm_biquad_cascade_df2T_f64.c ****          Xn1 = *pIn;
 1641              		.loc 1 369 21 is_stmt 1 view .LVU435
 1642 09bc 0A9B     		ldr	r3, [sp, #40]
 1643 09be 9B45     		cmp	fp, r3
 1644 09c0 C0D1     		bne	.L5
 1645 09c2 4246     		mov	r2, r8
 1646 09c4 5346     		mov	r3, r10
 1647 09c6 109F     		ldr	r7, [sp, #64]
ARM GAS  /tmp/ccS8pXJL.s 			page 44


 1648              	.LVL325:
 1649              	.L4:
 387:Drivers/CMSIS/DSP/Source/FilteringFunctions/arm_biquad_cascade_df2T_f64.c ****       /* The current stage input is given as the output to the next stage */
 1650              		.loc 1 387 7 view .LVU436
 387:Drivers/CMSIS/DSP/Source/FilteringFunctions/arm_biquad_cascade_df2T_f64.c ****       /* The current stage input is given as the output to the next stage */
 1651              		.loc 1 387 17 is_stmt 0 view .LVU437
 1652 09c8 9DED067B 		vldr.64	d7, [sp, #24]
 1653 09cc 07ED047B 		vstr.64	d7, [r7, #-16]
 1654              		.loc 1 389 7 is_stmt 1 view .LVU438
 390:Drivers/CMSIS/DSP/Source/FilteringFunctions/arm_biquad_cascade_df2T_f64.c **** 
 391:Drivers/CMSIS/DSP/Source/FilteringFunctions/arm_biquad_cascade_df2T_f64.c ****       pState[1] = d2;
 1655              		.loc 1 391 7 view .LVU439
 1656              		.loc 1 391 17 is_stmt 0 view .LVU440
 1657 09d0 9DED087B 		vldr.64	d7, [sp, #32]
 1658 09d4 07ED027B 		vstr.64	d7, [r7, #-8]
 392:Drivers/CMSIS/DSP/Source/FilteringFunctions/arm_biquad_cascade_df2T_f64.c ****       /* decrement the loop counter */
 393:Drivers/CMSIS/DSP/Source/FilteringFunctions/arm_biquad_cascade_df2T_f64.c ****       stage--;
 1659              		.loc 1 393 7 is_stmt 1 view .LVU441
 1660              	.LVL326:
 394:Drivers/CMSIS/DSP/Source/FilteringFunctions/arm_biquad_cascade_df2T_f64.c **** 
 395:Drivers/CMSIS/DSP/Source/FilteringFunctions/arm_biquad_cascade_df2T_f64.c ****       pState += 2U;
 1661              		.loc 1 395 7 view .LVU442
 396:Drivers/CMSIS/DSP/Source/FilteringFunctions/arm_biquad_cascade_df2T_f64.c **** 
 397:Drivers/CMSIS/DSP/Source/FilteringFunctions/arm_biquad_cascade_df2T_f64.c ****       /*Reset the output working pointer */
 398:Drivers/CMSIS/DSP/Source/FilteringFunctions/arm_biquad_cascade_df2T_f64.c ****       pOut = pDst;
 1662              		.loc 1 398 7 view .LVU443
 399:Drivers/CMSIS/DSP/Source/FilteringFunctions/arm_biquad_cascade_df2T_f64.c **** 
 400:Drivers/CMSIS/DSP/Source/FilteringFunctions/arm_biquad_cascade_df2T_f64.c ****    } while (stage > 0U);
 1663              		.loc 1 400 19 view .LVU444
 1664 09d8 2832     		adds	r2, r2, #40
 1665 09da 1033     		adds	r3, r3, #16
 1666              	.LVL327:
 1667              		.loc 1 400 19 is_stmt 0 view .LVU445
 1668 09dc 2899     		ldr	r1, [sp, #160]
 1669 09de 0139     		subs	r1, r1, #1
 1670              	.LVL328:
 1671              		.loc 1 400 19 view .LVU446
 1672 09e0 2891     		str	r1, [sp, #160]
 1673 09e2 7FF42EAB 		bne	.L8
 401:Drivers/CMSIS/DSP/Source/FilteringFunctions/arm_biquad_cascade_df2T_f64.c **** 
 402:Drivers/CMSIS/DSP/Source/FilteringFunctions/arm_biquad_cascade_df2T_f64.c **** #elif defined(ARM_MATH_CM0_FAMILY)
 403:Drivers/CMSIS/DSP/Source/FilteringFunctions/arm_biquad_cascade_df2T_f64.c **** 
 404:Drivers/CMSIS/DSP/Source/FilteringFunctions/arm_biquad_cascade_df2T_f64.c ****    /* Run the below code for Cortex-M0 */
 405:Drivers/CMSIS/DSP/Source/FilteringFunctions/arm_biquad_cascade_df2T_f64.c **** 
 406:Drivers/CMSIS/DSP/Source/FilteringFunctions/arm_biquad_cascade_df2T_f64.c ****    do
 407:Drivers/CMSIS/DSP/Source/FilteringFunctions/arm_biquad_cascade_df2T_f64.c ****    {
 408:Drivers/CMSIS/DSP/Source/FilteringFunctions/arm_biquad_cascade_df2T_f64.c ****       /* Reading the coefficients */
 409:Drivers/CMSIS/DSP/Source/FilteringFunctions/arm_biquad_cascade_df2T_f64.c ****       b0 = *pCoeffs++;
 410:Drivers/CMSIS/DSP/Source/FilteringFunctions/arm_biquad_cascade_df2T_f64.c ****       b1 = *pCoeffs++;
 411:Drivers/CMSIS/DSP/Source/FilteringFunctions/arm_biquad_cascade_df2T_f64.c ****       b2 = *pCoeffs++;
 412:Drivers/CMSIS/DSP/Source/FilteringFunctions/arm_biquad_cascade_df2T_f64.c ****       a1 = *pCoeffs++;
 413:Drivers/CMSIS/DSP/Source/FilteringFunctions/arm_biquad_cascade_df2T_f64.c ****       a2 = *pCoeffs++;
 414:Drivers/CMSIS/DSP/Source/FilteringFunctions/arm_biquad_cascade_df2T_f64.c **** 
 415:Drivers/CMSIS/DSP/Source/FilteringFunctions/arm_biquad_cascade_df2T_f64.c ****       /*Reading the state values */
 416:Drivers/CMSIS/DSP/Source/FilteringFunctions/arm_biquad_cascade_df2T_f64.c ****       d1 = pState[0];
 417:Drivers/CMSIS/DSP/Source/FilteringFunctions/arm_biquad_cascade_df2T_f64.c ****       d2 = pState[1];
 418:Drivers/CMSIS/DSP/Source/FilteringFunctions/arm_biquad_cascade_df2T_f64.c **** 
ARM GAS  /tmp/ccS8pXJL.s 			page 45


 419:Drivers/CMSIS/DSP/Source/FilteringFunctions/arm_biquad_cascade_df2T_f64.c **** 
 420:Drivers/CMSIS/DSP/Source/FilteringFunctions/arm_biquad_cascade_df2T_f64.c ****       sample = blockSize;
 421:Drivers/CMSIS/DSP/Source/FilteringFunctions/arm_biquad_cascade_df2T_f64.c **** 
 422:Drivers/CMSIS/DSP/Source/FilteringFunctions/arm_biquad_cascade_df2T_f64.c ****       while (sample > 0U)
 423:Drivers/CMSIS/DSP/Source/FilteringFunctions/arm_biquad_cascade_df2T_f64.c ****       {
 424:Drivers/CMSIS/DSP/Source/FilteringFunctions/arm_biquad_cascade_df2T_f64.c ****          /* Read the input */
 425:Drivers/CMSIS/DSP/Source/FilteringFunctions/arm_biquad_cascade_df2T_f64.c ****          Xn1 = *pIn++;
 426:Drivers/CMSIS/DSP/Source/FilteringFunctions/arm_biquad_cascade_df2T_f64.c **** 
 427:Drivers/CMSIS/DSP/Source/FilteringFunctions/arm_biquad_cascade_df2T_f64.c ****          /* y[n] = b0 * x[n] + d1 */
 428:Drivers/CMSIS/DSP/Source/FilteringFunctions/arm_biquad_cascade_df2T_f64.c ****          acc1 = (b0 * Xn1) + d1;
 429:Drivers/CMSIS/DSP/Source/FilteringFunctions/arm_biquad_cascade_df2T_f64.c **** 
 430:Drivers/CMSIS/DSP/Source/FilteringFunctions/arm_biquad_cascade_df2T_f64.c ****          /* Store the result in the accumulator in the destination buffer. */
 431:Drivers/CMSIS/DSP/Source/FilteringFunctions/arm_biquad_cascade_df2T_f64.c ****          *pOut++ = acc1;
 432:Drivers/CMSIS/DSP/Source/FilteringFunctions/arm_biquad_cascade_df2T_f64.c **** 
 433:Drivers/CMSIS/DSP/Source/FilteringFunctions/arm_biquad_cascade_df2T_f64.c ****          /* Every time after the output is computed state should be updated. */
 434:Drivers/CMSIS/DSP/Source/FilteringFunctions/arm_biquad_cascade_df2T_f64.c ****          /* d1 = b1 * x[n] + a1 * y[n] + d2 */
 435:Drivers/CMSIS/DSP/Source/FilteringFunctions/arm_biquad_cascade_df2T_f64.c ****          d1 = ((b1 * Xn1) + (a1 * acc1)) + d2;
 436:Drivers/CMSIS/DSP/Source/FilteringFunctions/arm_biquad_cascade_df2T_f64.c **** 
 437:Drivers/CMSIS/DSP/Source/FilteringFunctions/arm_biquad_cascade_df2T_f64.c ****          /* d2 = b2 * x[n] + a2 * y[n] */
 438:Drivers/CMSIS/DSP/Source/FilteringFunctions/arm_biquad_cascade_df2T_f64.c ****          d2 = (b2 * Xn1) + (a2 * acc1);
 439:Drivers/CMSIS/DSP/Source/FilteringFunctions/arm_biquad_cascade_df2T_f64.c **** 
 440:Drivers/CMSIS/DSP/Source/FilteringFunctions/arm_biquad_cascade_df2T_f64.c ****          /* decrement the loop counter */
 441:Drivers/CMSIS/DSP/Source/FilteringFunctions/arm_biquad_cascade_df2T_f64.c ****          sample--;
 442:Drivers/CMSIS/DSP/Source/FilteringFunctions/arm_biquad_cascade_df2T_f64.c ****       }
 443:Drivers/CMSIS/DSP/Source/FilteringFunctions/arm_biquad_cascade_df2T_f64.c **** 
 444:Drivers/CMSIS/DSP/Source/FilteringFunctions/arm_biquad_cascade_df2T_f64.c ****       /* Store the updated state variables back into the state array */
 445:Drivers/CMSIS/DSP/Source/FilteringFunctions/arm_biquad_cascade_df2T_f64.c ****       *pState++ = d1;
 446:Drivers/CMSIS/DSP/Source/FilteringFunctions/arm_biquad_cascade_df2T_f64.c ****       *pState++ = d2;
 447:Drivers/CMSIS/DSP/Source/FilteringFunctions/arm_biquad_cascade_df2T_f64.c **** 
 448:Drivers/CMSIS/DSP/Source/FilteringFunctions/arm_biquad_cascade_df2T_f64.c ****       /* The current stage input is given as the output to the next stage */
 449:Drivers/CMSIS/DSP/Source/FilteringFunctions/arm_biquad_cascade_df2T_f64.c ****       pIn = pDst;
 450:Drivers/CMSIS/DSP/Source/FilteringFunctions/arm_biquad_cascade_df2T_f64.c **** 
 451:Drivers/CMSIS/DSP/Source/FilteringFunctions/arm_biquad_cascade_df2T_f64.c ****       /*Reset the output working pointer */
 452:Drivers/CMSIS/DSP/Source/FilteringFunctions/arm_biquad_cascade_df2T_f64.c ****       pOut = pDst;
 453:Drivers/CMSIS/DSP/Source/FilteringFunctions/arm_biquad_cascade_df2T_f64.c **** 
 454:Drivers/CMSIS/DSP/Source/FilteringFunctions/arm_biquad_cascade_df2T_f64.c ****       /* decrement the loop counter */
 455:Drivers/CMSIS/DSP/Source/FilteringFunctions/arm_biquad_cascade_df2T_f64.c ****       stage--;
 456:Drivers/CMSIS/DSP/Source/FilteringFunctions/arm_biquad_cascade_df2T_f64.c **** 
 457:Drivers/CMSIS/DSP/Source/FilteringFunctions/arm_biquad_cascade_df2T_f64.c ****    } while (stage > 0U);
 458:Drivers/CMSIS/DSP/Source/FilteringFunctions/arm_biquad_cascade_df2T_f64.c **** 
 459:Drivers/CMSIS/DSP/Source/FilteringFunctions/arm_biquad_cascade_df2T_f64.c **** #else
 460:Drivers/CMSIS/DSP/Source/FilteringFunctions/arm_biquad_cascade_df2T_f64.c **** 
 461:Drivers/CMSIS/DSP/Source/FilteringFunctions/arm_biquad_cascade_df2T_f64.c ****    float64_t Xn2, Xn3, Xn4;                  	  /*  Input State variables     */
 462:Drivers/CMSIS/DSP/Source/FilteringFunctions/arm_biquad_cascade_df2T_f64.c ****    float64_t acc2, acc3, acc4;              		  /*  accumulator               */
 463:Drivers/CMSIS/DSP/Source/FilteringFunctions/arm_biquad_cascade_df2T_f64.c **** 
 464:Drivers/CMSIS/DSP/Source/FilteringFunctions/arm_biquad_cascade_df2T_f64.c **** 
 465:Drivers/CMSIS/DSP/Source/FilteringFunctions/arm_biquad_cascade_df2T_f64.c ****    float64_t p0, p1, p2, p3, p4, A1;
 466:Drivers/CMSIS/DSP/Source/FilteringFunctions/arm_biquad_cascade_df2T_f64.c **** 
 467:Drivers/CMSIS/DSP/Source/FilteringFunctions/arm_biquad_cascade_df2T_f64.c ****    /* Run the below code for Cortex-M4 and Cortex-M3 */
 468:Drivers/CMSIS/DSP/Source/FilteringFunctions/arm_biquad_cascade_df2T_f64.c ****    do
 469:Drivers/CMSIS/DSP/Source/FilteringFunctions/arm_biquad_cascade_df2T_f64.c ****    {
 470:Drivers/CMSIS/DSP/Source/FilteringFunctions/arm_biquad_cascade_df2T_f64.c ****       /* Reading the coefficients */
 471:Drivers/CMSIS/DSP/Source/FilteringFunctions/arm_biquad_cascade_df2T_f64.c ****       b0 = *pCoeffs++;
 472:Drivers/CMSIS/DSP/Source/FilteringFunctions/arm_biquad_cascade_df2T_f64.c ****       b1 = *pCoeffs++;
 473:Drivers/CMSIS/DSP/Source/FilteringFunctions/arm_biquad_cascade_df2T_f64.c ****       b2 = *pCoeffs++;
 474:Drivers/CMSIS/DSP/Source/FilteringFunctions/arm_biquad_cascade_df2T_f64.c ****       a1 = *pCoeffs++;
 475:Drivers/CMSIS/DSP/Source/FilteringFunctions/arm_biquad_cascade_df2T_f64.c ****       a2 = *pCoeffs++;
ARM GAS  /tmp/ccS8pXJL.s 			page 46


 476:Drivers/CMSIS/DSP/Source/FilteringFunctions/arm_biquad_cascade_df2T_f64.c **** 
 477:Drivers/CMSIS/DSP/Source/FilteringFunctions/arm_biquad_cascade_df2T_f64.c **** 
 478:Drivers/CMSIS/DSP/Source/FilteringFunctions/arm_biquad_cascade_df2T_f64.c ****       /*Reading the state values */
 479:Drivers/CMSIS/DSP/Source/FilteringFunctions/arm_biquad_cascade_df2T_f64.c ****       d1 = pState[0];
 480:Drivers/CMSIS/DSP/Source/FilteringFunctions/arm_biquad_cascade_df2T_f64.c ****       d2 = pState[1];
 481:Drivers/CMSIS/DSP/Source/FilteringFunctions/arm_biquad_cascade_df2T_f64.c **** 
 482:Drivers/CMSIS/DSP/Source/FilteringFunctions/arm_biquad_cascade_df2T_f64.c ****       /* Apply loop unrolling and compute 4 output values simultaneously. */
 483:Drivers/CMSIS/DSP/Source/FilteringFunctions/arm_biquad_cascade_df2T_f64.c ****       sample = blockSize >> 2U;
 484:Drivers/CMSIS/DSP/Source/FilteringFunctions/arm_biquad_cascade_df2T_f64.c **** 
 485:Drivers/CMSIS/DSP/Source/FilteringFunctions/arm_biquad_cascade_df2T_f64.c ****       /* First part of the processing with loop unrolling.  Compute 4 outputs at a time.
 486:Drivers/CMSIS/DSP/Source/FilteringFunctions/arm_biquad_cascade_df2T_f64.c ****    ** a second loop below computes the remaining 1 to 3 samples. */
 487:Drivers/CMSIS/DSP/Source/FilteringFunctions/arm_biquad_cascade_df2T_f64.c ****       while (sample > 0U) {
 488:Drivers/CMSIS/DSP/Source/FilteringFunctions/arm_biquad_cascade_df2T_f64.c **** 
 489:Drivers/CMSIS/DSP/Source/FilteringFunctions/arm_biquad_cascade_df2T_f64.c ****          /* y[n] = b0 * x[n] + d1 */
 490:Drivers/CMSIS/DSP/Source/FilteringFunctions/arm_biquad_cascade_df2T_f64.c ****          /* d1 = b1 * x[n] + a1 * y[n] + d2 */
 491:Drivers/CMSIS/DSP/Source/FilteringFunctions/arm_biquad_cascade_df2T_f64.c ****          /* d2 = b2 * x[n] + a2 * y[n] */
 492:Drivers/CMSIS/DSP/Source/FilteringFunctions/arm_biquad_cascade_df2T_f64.c **** 
 493:Drivers/CMSIS/DSP/Source/FilteringFunctions/arm_biquad_cascade_df2T_f64.c ****          /* Read the four inputs */
 494:Drivers/CMSIS/DSP/Source/FilteringFunctions/arm_biquad_cascade_df2T_f64.c ****          Xn1 = pIn[0];
 495:Drivers/CMSIS/DSP/Source/FilteringFunctions/arm_biquad_cascade_df2T_f64.c ****          Xn2 = pIn[1];
 496:Drivers/CMSIS/DSP/Source/FilteringFunctions/arm_biquad_cascade_df2T_f64.c ****          Xn3 = pIn[2];
 497:Drivers/CMSIS/DSP/Source/FilteringFunctions/arm_biquad_cascade_df2T_f64.c ****          Xn4 = pIn[3];
 498:Drivers/CMSIS/DSP/Source/FilteringFunctions/arm_biquad_cascade_df2T_f64.c ****          pIn += 4;
 499:Drivers/CMSIS/DSP/Source/FilteringFunctions/arm_biquad_cascade_df2T_f64.c **** 
 500:Drivers/CMSIS/DSP/Source/FilteringFunctions/arm_biquad_cascade_df2T_f64.c ****          p0 = b0 * Xn1;
 501:Drivers/CMSIS/DSP/Source/FilteringFunctions/arm_biquad_cascade_df2T_f64.c ****          p1 = b1 * Xn1;
 502:Drivers/CMSIS/DSP/Source/FilteringFunctions/arm_biquad_cascade_df2T_f64.c ****          acc1 = p0 + d1;
 503:Drivers/CMSIS/DSP/Source/FilteringFunctions/arm_biquad_cascade_df2T_f64.c ****          p0 = b0 * Xn2;
 504:Drivers/CMSIS/DSP/Source/FilteringFunctions/arm_biquad_cascade_df2T_f64.c ****          p3 = a1 * acc1;
 505:Drivers/CMSIS/DSP/Source/FilteringFunctions/arm_biquad_cascade_df2T_f64.c ****          p2 = b2 * Xn1;
 506:Drivers/CMSIS/DSP/Source/FilteringFunctions/arm_biquad_cascade_df2T_f64.c ****          A1 = p1 + p3;
 507:Drivers/CMSIS/DSP/Source/FilteringFunctions/arm_biquad_cascade_df2T_f64.c ****          p4 = a2 * acc1;
 508:Drivers/CMSIS/DSP/Source/FilteringFunctions/arm_biquad_cascade_df2T_f64.c ****          d1 = A1 + d2;
 509:Drivers/CMSIS/DSP/Source/FilteringFunctions/arm_biquad_cascade_df2T_f64.c ****          d2 = p2 + p4;
 510:Drivers/CMSIS/DSP/Source/FilteringFunctions/arm_biquad_cascade_df2T_f64.c **** 
 511:Drivers/CMSIS/DSP/Source/FilteringFunctions/arm_biquad_cascade_df2T_f64.c ****          p1 = b1 * Xn2;
 512:Drivers/CMSIS/DSP/Source/FilteringFunctions/arm_biquad_cascade_df2T_f64.c ****          acc2 = p0 + d1;
 513:Drivers/CMSIS/DSP/Source/FilteringFunctions/arm_biquad_cascade_df2T_f64.c ****          p0 = b0 * Xn3;
 514:Drivers/CMSIS/DSP/Source/FilteringFunctions/arm_biquad_cascade_df2T_f64.c ****          p3 = a1 * acc2;
 515:Drivers/CMSIS/DSP/Source/FilteringFunctions/arm_biquad_cascade_df2T_f64.c ****          p2 = b2 * Xn2;
 516:Drivers/CMSIS/DSP/Source/FilteringFunctions/arm_biquad_cascade_df2T_f64.c ****          A1 = p1 + p3;
 517:Drivers/CMSIS/DSP/Source/FilteringFunctions/arm_biquad_cascade_df2T_f64.c ****          p4 = a2 * acc2;
 518:Drivers/CMSIS/DSP/Source/FilteringFunctions/arm_biquad_cascade_df2T_f64.c ****          d1 = A1 + d2;
 519:Drivers/CMSIS/DSP/Source/FilteringFunctions/arm_biquad_cascade_df2T_f64.c ****          d2 = p2 + p4;
 520:Drivers/CMSIS/DSP/Source/FilteringFunctions/arm_biquad_cascade_df2T_f64.c **** 
 521:Drivers/CMSIS/DSP/Source/FilteringFunctions/arm_biquad_cascade_df2T_f64.c ****          p1 = b1 * Xn3;
 522:Drivers/CMSIS/DSP/Source/FilteringFunctions/arm_biquad_cascade_df2T_f64.c ****          acc3 = p0 + d1;
 523:Drivers/CMSIS/DSP/Source/FilteringFunctions/arm_biquad_cascade_df2T_f64.c ****          p0 = b0 * Xn4;
 524:Drivers/CMSIS/DSP/Source/FilteringFunctions/arm_biquad_cascade_df2T_f64.c ****          p3 = a1 * acc3;
 525:Drivers/CMSIS/DSP/Source/FilteringFunctions/arm_biquad_cascade_df2T_f64.c ****          p2 = b2 * Xn3;
 526:Drivers/CMSIS/DSP/Source/FilteringFunctions/arm_biquad_cascade_df2T_f64.c ****          A1 = p1 + p3;
 527:Drivers/CMSIS/DSP/Source/FilteringFunctions/arm_biquad_cascade_df2T_f64.c ****          p4 = a2 * acc3;
 528:Drivers/CMSIS/DSP/Source/FilteringFunctions/arm_biquad_cascade_df2T_f64.c ****          d1 = A1 + d2;
 529:Drivers/CMSIS/DSP/Source/FilteringFunctions/arm_biquad_cascade_df2T_f64.c ****          d2 = p2 + p4;
 530:Drivers/CMSIS/DSP/Source/FilteringFunctions/arm_biquad_cascade_df2T_f64.c **** 
 531:Drivers/CMSIS/DSP/Source/FilteringFunctions/arm_biquad_cascade_df2T_f64.c ****          acc4 = p0 + d1;
 532:Drivers/CMSIS/DSP/Source/FilteringFunctions/arm_biquad_cascade_df2T_f64.c ****          p1 = b1 * Xn4;
ARM GAS  /tmp/ccS8pXJL.s 			page 47


 533:Drivers/CMSIS/DSP/Source/FilteringFunctions/arm_biquad_cascade_df2T_f64.c ****          p3 = a1 * acc4;
 534:Drivers/CMSIS/DSP/Source/FilteringFunctions/arm_biquad_cascade_df2T_f64.c ****          p2 = b2 * Xn4;
 535:Drivers/CMSIS/DSP/Source/FilteringFunctions/arm_biquad_cascade_df2T_f64.c ****          A1 = p1 + p3;
 536:Drivers/CMSIS/DSP/Source/FilteringFunctions/arm_biquad_cascade_df2T_f64.c ****          p4 = a2 * acc4;
 537:Drivers/CMSIS/DSP/Source/FilteringFunctions/arm_biquad_cascade_df2T_f64.c ****          d1 = A1 + d2;
 538:Drivers/CMSIS/DSP/Source/FilteringFunctions/arm_biquad_cascade_df2T_f64.c ****          d2 = p2 + p4;
 539:Drivers/CMSIS/DSP/Source/FilteringFunctions/arm_biquad_cascade_df2T_f64.c **** 
 540:Drivers/CMSIS/DSP/Source/FilteringFunctions/arm_biquad_cascade_df2T_f64.c ****          pOut[0] = acc1;
 541:Drivers/CMSIS/DSP/Source/FilteringFunctions/arm_biquad_cascade_df2T_f64.c ****          pOut[1] = acc2;
 542:Drivers/CMSIS/DSP/Source/FilteringFunctions/arm_biquad_cascade_df2T_f64.c ****          pOut[2] = acc3;
 543:Drivers/CMSIS/DSP/Source/FilteringFunctions/arm_biquad_cascade_df2T_f64.c ****          pOut[3] = acc4;
 544:Drivers/CMSIS/DSP/Source/FilteringFunctions/arm_biquad_cascade_df2T_f64.c **** 				 pOut += 4;
 545:Drivers/CMSIS/DSP/Source/FilteringFunctions/arm_biquad_cascade_df2T_f64.c **** 
 546:Drivers/CMSIS/DSP/Source/FilteringFunctions/arm_biquad_cascade_df2T_f64.c ****          sample--;
 547:Drivers/CMSIS/DSP/Source/FilteringFunctions/arm_biquad_cascade_df2T_f64.c ****       }
 548:Drivers/CMSIS/DSP/Source/FilteringFunctions/arm_biquad_cascade_df2T_f64.c **** 
 549:Drivers/CMSIS/DSP/Source/FilteringFunctions/arm_biquad_cascade_df2T_f64.c ****       sample = blockSize & 0x3U;
 550:Drivers/CMSIS/DSP/Source/FilteringFunctions/arm_biquad_cascade_df2T_f64.c ****       while (sample > 0U) {
 551:Drivers/CMSIS/DSP/Source/FilteringFunctions/arm_biquad_cascade_df2T_f64.c ****          Xn1 = *pIn++;
 552:Drivers/CMSIS/DSP/Source/FilteringFunctions/arm_biquad_cascade_df2T_f64.c **** 
 553:Drivers/CMSIS/DSP/Source/FilteringFunctions/arm_biquad_cascade_df2T_f64.c ****          p0 = b0 * Xn1;
 554:Drivers/CMSIS/DSP/Source/FilteringFunctions/arm_biquad_cascade_df2T_f64.c ****          p1 = b1 * Xn1;
 555:Drivers/CMSIS/DSP/Source/FilteringFunctions/arm_biquad_cascade_df2T_f64.c ****          acc1 = p0 + d1;
 556:Drivers/CMSIS/DSP/Source/FilteringFunctions/arm_biquad_cascade_df2T_f64.c ****          p3 = a1 * acc1;
 557:Drivers/CMSIS/DSP/Source/FilteringFunctions/arm_biquad_cascade_df2T_f64.c ****          p2 = b2 * Xn1;
 558:Drivers/CMSIS/DSP/Source/FilteringFunctions/arm_biquad_cascade_df2T_f64.c ****          A1 = p1 + p3;
 559:Drivers/CMSIS/DSP/Source/FilteringFunctions/arm_biquad_cascade_df2T_f64.c ****          p4 = a2 * acc1;
 560:Drivers/CMSIS/DSP/Source/FilteringFunctions/arm_biquad_cascade_df2T_f64.c ****          d1 = A1 + d2;
 561:Drivers/CMSIS/DSP/Source/FilteringFunctions/arm_biquad_cascade_df2T_f64.c ****          d2 = p2 + p4;
 562:Drivers/CMSIS/DSP/Source/FilteringFunctions/arm_biquad_cascade_df2T_f64.c **** 
 563:Drivers/CMSIS/DSP/Source/FilteringFunctions/arm_biquad_cascade_df2T_f64.c ****          *pOut++ = acc1;
 564:Drivers/CMSIS/DSP/Source/FilteringFunctions/arm_biquad_cascade_df2T_f64.c **** 
 565:Drivers/CMSIS/DSP/Source/FilteringFunctions/arm_biquad_cascade_df2T_f64.c ****          sample--;
 566:Drivers/CMSIS/DSP/Source/FilteringFunctions/arm_biquad_cascade_df2T_f64.c ****       }
 567:Drivers/CMSIS/DSP/Source/FilteringFunctions/arm_biquad_cascade_df2T_f64.c **** 
 568:Drivers/CMSIS/DSP/Source/FilteringFunctions/arm_biquad_cascade_df2T_f64.c ****       /* Store the updated state variables back into the state array */
 569:Drivers/CMSIS/DSP/Source/FilteringFunctions/arm_biquad_cascade_df2T_f64.c ****       *pState++ = d1;
 570:Drivers/CMSIS/DSP/Source/FilteringFunctions/arm_biquad_cascade_df2T_f64.c ****       *pState++ = d2;
 571:Drivers/CMSIS/DSP/Source/FilteringFunctions/arm_biquad_cascade_df2T_f64.c **** 
 572:Drivers/CMSIS/DSP/Source/FilteringFunctions/arm_biquad_cascade_df2T_f64.c ****       /* The current stage input is given as the output to the next stage */
 573:Drivers/CMSIS/DSP/Source/FilteringFunctions/arm_biquad_cascade_df2T_f64.c ****       pIn = pDst;
 574:Drivers/CMSIS/DSP/Source/FilteringFunctions/arm_biquad_cascade_df2T_f64.c **** 
 575:Drivers/CMSIS/DSP/Source/FilteringFunctions/arm_biquad_cascade_df2T_f64.c ****       /*Reset the output working pointer */
 576:Drivers/CMSIS/DSP/Source/FilteringFunctions/arm_biquad_cascade_df2T_f64.c ****       pOut = pDst;
 577:Drivers/CMSIS/DSP/Source/FilteringFunctions/arm_biquad_cascade_df2T_f64.c **** 
 578:Drivers/CMSIS/DSP/Source/FilteringFunctions/arm_biquad_cascade_df2T_f64.c ****       /* decrement the loop counter */
 579:Drivers/CMSIS/DSP/Source/FilteringFunctions/arm_biquad_cascade_df2T_f64.c ****       stage--;
 580:Drivers/CMSIS/DSP/Source/FilteringFunctions/arm_biquad_cascade_df2T_f64.c **** 
 581:Drivers/CMSIS/DSP/Source/FilteringFunctions/arm_biquad_cascade_df2T_f64.c ****    } while (stage > 0U);
 582:Drivers/CMSIS/DSP/Source/FilteringFunctions/arm_biquad_cascade_df2T_f64.c **** 
 583:Drivers/CMSIS/DSP/Source/FilteringFunctions/arm_biquad_cascade_df2T_f64.c **** #endif
 584:Drivers/CMSIS/DSP/Source/FilteringFunctions/arm_biquad_cascade_df2T_f64.c **** 
 585:Drivers/CMSIS/DSP/Source/FilteringFunctions/arm_biquad_cascade_df2T_f64.c **** }
 1674              		.loc 1 585 1 view .LVU447
 1675 09e6 33B0     		add	sp, sp, #204
 1676              	.LCFI3:
 1677              		.cfi_remember_state
ARM GAS  /tmp/ccS8pXJL.s 			page 48


 1678              		.cfi_def_cfa_offset 100
 1679              	.LVL329:
 1680              		.loc 1 585 1 view .LVU448
 1681              		@ sp needed
 1682 09e8 BDEC108B 		vldm	sp!, {d8-d15}
 1683              	.LCFI4:
 1684              		.cfi_restore 94
 1685              		.cfi_restore 95
 1686              		.cfi_restore 92
 1687              		.cfi_restore 93
 1688              		.cfi_restore 90
 1689              		.cfi_restore 91
 1690              		.cfi_restore 88
 1691              		.cfi_restore 89
 1692              		.cfi_restore 86
 1693              		.cfi_restore 87
 1694              		.cfi_restore 84
 1695              		.cfi_restore 85
 1696              		.cfi_restore 82
 1697              		.cfi_restore 83
 1698              		.cfi_restore 80
 1699              		.cfi_restore 81
 1700              		.cfi_def_cfa_offset 36
 1701 09ec BDE8F08F 		pop	{r4, r5, r6, r7, r8, r9, r10, fp, pc}
 1702              	.LVL330:
 1703              	.L7:
 1704              	.LCFI5:
 1705              		.cfi_restore_state
 186:Drivers/CMSIS/DSP/Source/FilteringFunctions/arm_biquad_cascade_df2T_f64.c **** 
 1706              		.loc 1 186 21 view .LVU449
 1707 09f0 2999     		ldr	r1, [sp, #164]
 1708 09f2 0C46     		mov	r4, r1
 1709 09f4 96E7     		b	.L2
 1710              		.cfi_endproc
 1711              	.LFE135:
 1713              		.text
 1714              	.Letext0:
 1715              		.file 2 "/usr/arm-none-eabi/include/machine/_default_types.h"
 1716              		.file 3 "/usr/arm-none-eabi/include/sys/_stdint.h"
 1717              		.file 4 "Drivers/CMSIS/DSP/Include/arm_math.h"
ARM GAS  /tmp/ccS8pXJL.s 			page 49

