ARM GAS  /tmp/ccQmvCRG.s 			page 1


   1              		.cpu cortex-m7
   2              		.arch armv7e-m
   3              		.fpu fpv5-sp-d16
   4              		.eabi_attribute 27, 1
   5              		.eabi_attribute 28, 1
   6              		.eabi_attribute 20, 1
   7              		.eabi_attribute 21, 1
   8              		.eabi_attribute 23, 3
   9              		.eabi_attribute 24, 1
  10              		.eabi_attribute 25, 1
  11              		.eabi_attribute 26, 1
  12              		.eabi_attribute 30, 1
  13              		.eabi_attribute 34, 1
  14              		.eabi_attribute 18, 4
  15              		.file	"arm_conv_fast_q15.c"
  16              		.text
  17              	.Ltext0:
  18              		.cfi_sections	.debug_frame
  19              		.file 1 "Drivers/CMSIS/DSP/Source/FilteringFunctions/arm_conv_fast_q15.c"
  20              		.section	.text.arm_conv_fast_q15,"ax",%progbits
  21              		.align	1
  22              		.global	arm_conv_fast_q15
  23              		.syntax unified
  24              		.thumb
  25              		.thumb_func
  27              	arm_conv_fast_q15:
  28              	.LVL0:
  29              	.LFB135:
   1:Drivers/CMSIS/DSP/Source/FilteringFunctions/arm_conv_fast_q15.c **** /* ----------------------------------------------------------------------
   2:Drivers/CMSIS/DSP/Source/FilteringFunctions/arm_conv_fast_q15.c ****  * Project:      CMSIS DSP Library
   3:Drivers/CMSIS/DSP/Source/FilteringFunctions/arm_conv_fast_q15.c ****  * Title:        arm_conv_fast_q15.c
   4:Drivers/CMSIS/DSP/Source/FilteringFunctions/arm_conv_fast_q15.c ****  * Description:  Fast Q15 Convolution
   5:Drivers/CMSIS/DSP/Source/FilteringFunctions/arm_conv_fast_q15.c ****  *
   6:Drivers/CMSIS/DSP/Source/FilteringFunctions/arm_conv_fast_q15.c ****  * $Date:        27. January 2017
   7:Drivers/CMSIS/DSP/Source/FilteringFunctions/arm_conv_fast_q15.c ****  * $Revision:    V.1.5.1
   8:Drivers/CMSIS/DSP/Source/FilteringFunctions/arm_conv_fast_q15.c ****  *
   9:Drivers/CMSIS/DSP/Source/FilteringFunctions/arm_conv_fast_q15.c ****  * Target Processor: Cortex-M cores
  10:Drivers/CMSIS/DSP/Source/FilteringFunctions/arm_conv_fast_q15.c ****  * -------------------------------------------------------------------- */
  11:Drivers/CMSIS/DSP/Source/FilteringFunctions/arm_conv_fast_q15.c **** /*
  12:Drivers/CMSIS/DSP/Source/FilteringFunctions/arm_conv_fast_q15.c ****  * Copyright (C) 2010-2017 ARM Limited or its affiliates. All rights reserved.
  13:Drivers/CMSIS/DSP/Source/FilteringFunctions/arm_conv_fast_q15.c ****  *
  14:Drivers/CMSIS/DSP/Source/FilteringFunctions/arm_conv_fast_q15.c ****  * SPDX-License-Identifier: Apache-2.0
  15:Drivers/CMSIS/DSP/Source/FilteringFunctions/arm_conv_fast_q15.c ****  *
  16:Drivers/CMSIS/DSP/Source/FilteringFunctions/arm_conv_fast_q15.c ****  * Licensed under the Apache License, Version 2.0 (the License); you may
  17:Drivers/CMSIS/DSP/Source/FilteringFunctions/arm_conv_fast_q15.c ****  * not use this file except in compliance with the License.
  18:Drivers/CMSIS/DSP/Source/FilteringFunctions/arm_conv_fast_q15.c ****  * You may obtain a copy of the License at
  19:Drivers/CMSIS/DSP/Source/FilteringFunctions/arm_conv_fast_q15.c ****  *
  20:Drivers/CMSIS/DSP/Source/FilteringFunctions/arm_conv_fast_q15.c ****  * www.apache.org/licenses/LICENSE-2.0
  21:Drivers/CMSIS/DSP/Source/FilteringFunctions/arm_conv_fast_q15.c ****  *
  22:Drivers/CMSIS/DSP/Source/FilteringFunctions/arm_conv_fast_q15.c ****  * Unless required by applicable law or agreed to in writing, software
  23:Drivers/CMSIS/DSP/Source/FilteringFunctions/arm_conv_fast_q15.c ****  * distributed under the License is distributed on an AS IS BASIS, WITHOUT
  24:Drivers/CMSIS/DSP/Source/FilteringFunctions/arm_conv_fast_q15.c ****  * WARRANTIES OR CONDITIONS OF ANY KIND, either express or implied.
  25:Drivers/CMSIS/DSP/Source/FilteringFunctions/arm_conv_fast_q15.c ****  * See the License for the specific language governing permissions and
  26:Drivers/CMSIS/DSP/Source/FilteringFunctions/arm_conv_fast_q15.c ****  * limitations under the License.
  27:Drivers/CMSIS/DSP/Source/FilteringFunctions/arm_conv_fast_q15.c ****  */
  28:Drivers/CMSIS/DSP/Source/FilteringFunctions/arm_conv_fast_q15.c **** 
  29:Drivers/CMSIS/DSP/Source/FilteringFunctions/arm_conv_fast_q15.c **** #include "arm_math.h"
ARM GAS  /tmp/ccQmvCRG.s 			page 2


  30:Drivers/CMSIS/DSP/Source/FilteringFunctions/arm_conv_fast_q15.c **** 
  31:Drivers/CMSIS/DSP/Source/FilteringFunctions/arm_conv_fast_q15.c **** /**
  32:Drivers/CMSIS/DSP/Source/FilteringFunctions/arm_conv_fast_q15.c ****  * @ingroup groupFilters
  33:Drivers/CMSIS/DSP/Source/FilteringFunctions/arm_conv_fast_q15.c ****  */
  34:Drivers/CMSIS/DSP/Source/FilteringFunctions/arm_conv_fast_q15.c **** 
  35:Drivers/CMSIS/DSP/Source/FilteringFunctions/arm_conv_fast_q15.c **** /**
  36:Drivers/CMSIS/DSP/Source/FilteringFunctions/arm_conv_fast_q15.c ****  * @addtogroup Conv
  37:Drivers/CMSIS/DSP/Source/FilteringFunctions/arm_conv_fast_q15.c ****  * @{
  38:Drivers/CMSIS/DSP/Source/FilteringFunctions/arm_conv_fast_q15.c ****  */
  39:Drivers/CMSIS/DSP/Source/FilteringFunctions/arm_conv_fast_q15.c **** 
  40:Drivers/CMSIS/DSP/Source/FilteringFunctions/arm_conv_fast_q15.c **** /**
  41:Drivers/CMSIS/DSP/Source/FilteringFunctions/arm_conv_fast_q15.c ****  * @brief Convolution of Q15 sequences (fast version) for Cortex-M3 and Cortex-M4.
  42:Drivers/CMSIS/DSP/Source/FilteringFunctions/arm_conv_fast_q15.c ****  * @param[in] *pSrcA points to the first input sequence.
  43:Drivers/CMSIS/DSP/Source/FilteringFunctions/arm_conv_fast_q15.c ****  * @param[in] srcALen length of the first input sequence.
  44:Drivers/CMSIS/DSP/Source/FilteringFunctions/arm_conv_fast_q15.c ****  * @param[in] *pSrcB points to the second input sequence.
  45:Drivers/CMSIS/DSP/Source/FilteringFunctions/arm_conv_fast_q15.c ****  * @param[in] srcBLen length of the second input sequence.
  46:Drivers/CMSIS/DSP/Source/FilteringFunctions/arm_conv_fast_q15.c ****  * @param[out] *pDst points to the location where the output result is written.  Length srcALen+src
  47:Drivers/CMSIS/DSP/Source/FilteringFunctions/arm_conv_fast_q15.c ****  * @return none.
  48:Drivers/CMSIS/DSP/Source/FilteringFunctions/arm_conv_fast_q15.c ****  *
  49:Drivers/CMSIS/DSP/Source/FilteringFunctions/arm_conv_fast_q15.c ****  * <b>Scaling and Overflow Behavior:</b>
  50:Drivers/CMSIS/DSP/Source/FilteringFunctions/arm_conv_fast_q15.c ****  *
  51:Drivers/CMSIS/DSP/Source/FilteringFunctions/arm_conv_fast_q15.c ****  * \par
  52:Drivers/CMSIS/DSP/Source/FilteringFunctions/arm_conv_fast_q15.c ****  * This fast version uses a 32-bit accumulator with 2.30 format.
  53:Drivers/CMSIS/DSP/Source/FilteringFunctions/arm_conv_fast_q15.c ****  * The accumulator maintains full precision of the intermediate multiplication results
  54:Drivers/CMSIS/DSP/Source/FilteringFunctions/arm_conv_fast_q15.c ****  * but provides only a single guard bit. There is no saturation on intermediate additions.
  55:Drivers/CMSIS/DSP/Source/FilteringFunctions/arm_conv_fast_q15.c ****  * Thus, if the accumulator overflows it wraps around and distorts the result.
  56:Drivers/CMSIS/DSP/Source/FilteringFunctions/arm_conv_fast_q15.c ****  * The input signals should be scaled down to avoid intermediate overflows.
  57:Drivers/CMSIS/DSP/Source/FilteringFunctions/arm_conv_fast_q15.c ****  * Scale down the inputs by log2(min(srcALen, srcBLen)) (log2 is read as log to the base 2) times t
  58:Drivers/CMSIS/DSP/Source/FilteringFunctions/arm_conv_fast_q15.c ****  * as maximum of min(srcALen, srcBLen) number of additions are carried internally.
  59:Drivers/CMSIS/DSP/Source/FilteringFunctions/arm_conv_fast_q15.c ****  * The 2.30 accumulator is right shifted by 15 bits and then saturated to 1.15 format to yield the 
  60:Drivers/CMSIS/DSP/Source/FilteringFunctions/arm_conv_fast_q15.c ****  *
  61:Drivers/CMSIS/DSP/Source/FilteringFunctions/arm_conv_fast_q15.c ****  * \par
  62:Drivers/CMSIS/DSP/Source/FilteringFunctions/arm_conv_fast_q15.c ****  * See <code>arm_conv_q15()</code> for a slower implementation of this function which uses 64-bit a
  63:Drivers/CMSIS/DSP/Source/FilteringFunctions/arm_conv_fast_q15.c ****  */
  64:Drivers/CMSIS/DSP/Source/FilteringFunctions/arm_conv_fast_q15.c **** 
  65:Drivers/CMSIS/DSP/Source/FilteringFunctions/arm_conv_fast_q15.c **** void arm_conv_fast_q15(
  66:Drivers/CMSIS/DSP/Source/FilteringFunctions/arm_conv_fast_q15.c ****   q15_t * pSrcA,
  67:Drivers/CMSIS/DSP/Source/FilteringFunctions/arm_conv_fast_q15.c ****   uint32_t srcALen,
  68:Drivers/CMSIS/DSP/Source/FilteringFunctions/arm_conv_fast_q15.c ****   q15_t * pSrcB,
  69:Drivers/CMSIS/DSP/Source/FilteringFunctions/arm_conv_fast_q15.c ****   uint32_t srcBLen,
  70:Drivers/CMSIS/DSP/Source/FilteringFunctions/arm_conv_fast_q15.c ****   q15_t * pDst)
  71:Drivers/CMSIS/DSP/Source/FilteringFunctions/arm_conv_fast_q15.c **** {
  30              		.loc 1 71 1 view -0
  31              		.cfi_startproc
  32              		@ args = 4, pretend = 0, frame = 48
  33              		@ frame_needed = 0, uses_anonymous_args = 0
  34              		.loc 1 71 1 is_stmt 0 view .LVU1
  35 0000 2DE9F04F 		push	{r4, r5, r6, r7, r8, r9, r10, fp, lr}
  36              	.LCFI0:
  37              		.cfi_def_cfa_offset 36
  38              		.cfi_offset 4, -36
  39              		.cfi_offset 5, -32
  40              		.cfi_offset 6, -28
  41              		.cfi_offset 7, -24
  42              		.cfi_offset 8, -20
  43              		.cfi_offset 9, -16
  44              		.cfi_offset 10, -12
ARM GAS  /tmp/ccQmvCRG.s 			page 3


  45              		.cfi_offset 11, -8
  46              		.cfi_offset 14, -4
  47 0004 8DB0     		sub	sp, sp, #52
  48              	.LCFI1:
  49              		.cfi_def_cfa_offset 88
  50 0006 0691     		str	r1, [sp, #24]
  51 0008 0492     		str	r2, [sp, #16]
  72:Drivers/CMSIS/DSP/Source/FilteringFunctions/arm_conv_fast_q15.c **** #ifndef UNALIGNED_SUPPORT_DISABLE
  73:Drivers/CMSIS/DSP/Source/FilteringFunctions/arm_conv_fast_q15.c ****   q15_t *pIn1;                                   /* inputA pointer */
  52              		.loc 1 73 3 is_stmt 1 view .LVU2
  74:Drivers/CMSIS/DSP/Source/FilteringFunctions/arm_conv_fast_q15.c ****   q15_t *pIn2;                                   /* inputB pointer */
  53              		.loc 1 74 3 view .LVU3
  75:Drivers/CMSIS/DSP/Source/FilteringFunctions/arm_conv_fast_q15.c ****   q15_t *pOut = pDst;                            /* output pointer */
  54              		.loc 1 75 3 view .LVU4
  55              	.LVL1:
  76:Drivers/CMSIS/DSP/Source/FilteringFunctions/arm_conv_fast_q15.c ****   q31_t sum, acc0, acc1, acc2, acc3;             /* Accumulator */
  56              		.loc 1 76 3 view .LVU5
  77:Drivers/CMSIS/DSP/Source/FilteringFunctions/arm_conv_fast_q15.c ****   q15_t *px;                                     /* Intermediate inputA pointer  */
  57              		.loc 1 77 3 view .LVU6
  78:Drivers/CMSIS/DSP/Source/FilteringFunctions/arm_conv_fast_q15.c ****   q15_t *py;                                     /* Intermediate inputB pointer  */
  58              		.loc 1 78 3 view .LVU7
  79:Drivers/CMSIS/DSP/Source/FilteringFunctions/arm_conv_fast_q15.c ****   q15_t *pSrc1, *pSrc2;                          /* Intermediate pointers */
  59              		.loc 1 79 3 view .LVU8
  80:Drivers/CMSIS/DSP/Source/FilteringFunctions/arm_conv_fast_q15.c ****   q31_t x0, x1, x2, x3, c0;                      /* Temporary variables to hold state and coefficie
  60              		.loc 1 80 3 view .LVU9
  81:Drivers/CMSIS/DSP/Source/FilteringFunctions/arm_conv_fast_q15.c ****   uint32_t blockSize1, blockSize2, blockSize3, j, k, count, blkCnt;     /* loop counter */
  61              		.loc 1 81 3 view .LVU10
  82:Drivers/CMSIS/DSP/Source/FilteringFunctions/arm_conv_fast_q15.c **** 
  83:Drivers/CMSIS/DSP/Source/FilteringFunctions/arm_conv_fast_q15.c ****   /* The algorithm implementation is based on the lengths of the inputs. */
  84:Drivers/CMSIS/DSP/Source/FilteringFunctions/arm_conv_fast_q15.c ****   /* srcB is always made to slide across srcA. */
  85:Drivers/CMSIS/DSP/Source/FilteringFunctions/arm_conv_fast_q15.c ****   /* So srcBLen is always considered as shorter or equal to srcALen */
  86:Drivers/CMSIS/DSP/Source/FilteringFunctions/arm_conv_fast_q15.c ****   if (srcALen >= srcBLen)
  62              		.loc 1 86 3 view .LVU11
  63              		.loc 1 86 6 is_stmt 0 view .LVU12
  64 000a 9942     		cmp	r1, r3
  65 000c 04D3     		bcc	.L2
  87:Drivers/CMSIS/DSP/Source/FilteringFunctions/arm_conv_fast_q15.c ****   {
  88:Drivers/CMSIS/DSP/Source/FilteringFunctions/arm_conv_fast_q15.c ****     /* Initialization of inputA pointer */
  89:Drivers/CMSIS/DSP/Source/FilteringFunctions/arm_conv_fast_q15.c ****     pIn1 = pSrcA;
  66              		.loc 1 89 10 view .LVU13
  67 000e 0490     		str	r0, [sp, #16]
  90:Drivers/CMSIS/DSP/Source/FilteringFunctions/arm_conv_fast_q15.c **** 
  91:Drivers/CMSIS/DSP/Source/FilteringFunctions/arm_conv_fast_q15.c ****     /* Initialization of inputB pointer */
  92:Drivers/CMSIS/DSP/Source/FilteringFunctions/arm_conv_fast_q15.c ****     pIn2 = pSrcB;
  68              		.loc 1 92 10 view .LVU14
  69 0010 1046     		mov	r0, r2
  70              	.LVL2:
  86:Drivers/CMSIS/DSP/Source/FilteringFunctions/arm_conv_fast_q15.c ****   {
  71              		.loc 1 86 6 view .LVU15
  72 0012 1A46     		mov	r2, r3
  73              	.LVL3:
  86:Drivers/CMSIS/DSP/Source/FilteringFunctions/arm_conv_fast_q15.c ****   {
  74              		.loc 1 86 6 view .LVU16
  75 0014 0B46     		mov	r3, r1
  76              	.LVL4:
  86:Drivers/CMSIS/DSP/Source/FilteringFunctions/arm_conv_fast_q15.c ****   {
  77              		.loc 1 86 6 view .LVU17
ARM GAS  /tmp/ccQmvCRG.s 			page 4


  78 0016 0692     		str	r2, [sp, #24]
  79              	.LVL5:
  80              	.L2:
  93:Drivers/CMSIS/DSP/Source/FilteringFunctions/arm_conv_fast_q15.c ****   }
  94:Drivers/CMSIS/DSP/Source/FilteringFunctions/arm_conv_fast_q15.c ****   else
  95:Drivers/CMSIS/DSP/Source/FilteringFunctions/arm_conv_fast_q15.c ****   {
  96:Drivers/CMSIS/DSP/Source/FilteringFunctions/arm_conv_fast_q15.c ****     /* Initialization of inputA pointer */
  97:Drivers/CMSIS/DSP/Source/FilteringFunctions/arm_conv_fast_q15.c ****     pIn1 = pSrcB;
  98:Drivers/CMSIS/DSP/Source/FilteringFunctions/arm_conv_fast_q15.c **** 
  99:Drivers/CMSIS/DSP/Source/FilteringFunctions/arm_conv_fast_q15.c ****     /* Initialization of inputB pointer */
 100:Drivers/CMSIS/DSP/Source/FilteringFunctions/arm_conv_fast_q15.c ****     pIn2 = pSrcA;
 101:Drivers/CMSIS/DSP/Source/FilteringFunctions/arm_conv_fast_q15.c **** 
 102:Drivers/CMSIS/DSP/Source/FilteringFunctions/arm_conv_fast_q15.c ****     /* srcBLen is always considered as shorter or equal to srcALen */
 103:Drivers/CMSIS/DSP/Source/FilteringFunctions/arm_conv_fast_q15.c ****     j = srcBLen;
 104:Drivers/CMSIS/DSP/Source/FilteringFunctions/arm_conv_fast_q15.c ****     srcBLen = srcALen;
 105:Drivers/CMSIS/DSP/Source/FilteringFunctions/arm_conv_fast_q15.c ****     srcALen = j;
 106:Drivers/CMSIS/DSP/Source/FilteringFunctions/arm_conv_fast_q15.c ****   }
 107:Drivers/CMSIS/DSP/Source/FilteringFunctions/arm_conv_fast_q15.c **** 
 108:Drivers/CMSIS/DSP/Source/FilteringFunctions/arm_conv_fast_q15.c ****   /* conv(x,y) at n = x[n] * y[0] + x[n-1] * y[1] + x[n-2] * y[2] + ...+ x[n-N+1] * y[N -1] */
 109:Drivers/CMSIS/DSP/Source/FilteringFunctions/arm_conv_fast_q15.c ****   /* The function is internally
 110:Drivers/CMSIS/DSP/Source/FilteringFunctions/arm_conv_fast_q15.c ****    * divided into three stages according to the number of multiplications that has to be
 111:Drivers/CMSIS/DSP/Source/FilteringFunctions/arm_conv_fast_q15.c ****    * taken place between inputA samples and inputB samples. In the first stage of the
 112:Drivers/CMSIS/DSP/Source/FilteringFunctions/arm_conv_fast_q15.c ****    * algorithm, the multiplications increase by one for every iteration.
 113:Drivers/CMSIS/DSP/Source/FilteringFunctions/arm_conv_fast_q15.c ****    * In the second stage of the algorithm, srcBLen number of multiplications are done.
 114:Drivers/CMSIS/DSP/Source/FilteringFunctions/arm_conv_fast_q15.c ****    * In the third stage of the algorithm, the multiplications decrease by one
 115:Drivers/CMSIS/DSP/Source/FilteringFunctions/arm_conv_fast_q15.c ****    * for every iteration. */
 116:Drivers/CMSIS/DSP/Source/FilteringFunctions/arm_conv_fast_q15.c **** 
 117:Drivers/CMSIS/DSP/Source/FilteringFunctions/arm_conv_fast_q15.c ****   /* The algorithm is implemented in three stages.
 118:Drivers/CMSIS/DSP/Source/FilteringFunctions/arm_conv_fast_q15.c ****      The loop counters of each stage is initiated here. */
 119:Drivers/CMSIS/DSP/Source/FilteringFunctions/arm_conv_fast_q15.c ****   blockSize1 = srcBLen - 1U;
  81              		.loc 1 119 3 is_stmt 1 view .LVU18
  82              		.loc 1 119 14 is_stmt 0 view .LVU19
  83 0018 069A     		ldr	r2, [sp, #24]
  84 001a 571E     		subs	r7, r2, #1
  85              	.LVL6:
 120:Drivers/CMSIS/DSP/Source/FilteringFunctions/arm_conv_fast_q15.c ****   blockSize2 = srcALen - (srcBLen - 1U);
  86              		.loc 1 120 3 is_stmt 1 view .LVU20
  87              		.loc 1 120 24 is_stmt 0 view .LVU21
  88 001c 9B1A     		subs	r3, r3, r2
  89              	.LVL7:
  90              		.loc 1 120 14 view .LVU22
  91 001e 03F10108 		add	r8, r3, #1
  92              	.LVL8:
 121:Drivers/CMSIS/DSP/Source/FilteringFunctions/arm_conv_fast_q15.c ****   blockSize3 = blockSize1;
  93              		.loc 1 121 3 is_stmt 1 view .LVU23
 122:Drivers/CMSIS/DSP/Source/FilteringFunctions/arm_conv_fast_q15.c **** 
 123:Drivers/CMSIS/DSP/Source/FilteringFunctions/arm_conv_fast_q15.c ****   /* --------------------------
 124:Drivers/CMSIS/DSP/Source/FilteringFunctions/arm_conv_fast_q15.c ****    * Initializations of stage1
 125:Drivers/CMSIS/DSP/Source/FilteringFunctions/arm_conv_fast_q15.c ****    * -------------------------*/
 126:Drivers/CMSIS/DSP/Source/FilteringFunctions/arm_conv_fast_q15.c **** 
 127:Drivers/CMSIS/DSP/Source/FilteringFunctions/arm_conv_fast_q15.c ****   /* sum = x[0] * y[0]
 128:Drivers/CMSIS/DSP/Source/FilteringFunctions/arm_conv_fast_q15.c ****    * sum = x[0] * y[1] + x[1] * y[0]
 129:Drivers/CMSIS/DSP/Source/FilteringFunctions/arm_conv_fast_q15.c ****    * ....
 130:Drivers/CMSIS/DSP/Source/FilteringFunctions/arm_conv_fast_q15.c ****    * sum = x[0] * y[srcBlen - 1] + x[1] * y[srcBlen - 2] +...+ x[srcBLen - 1] * y[0]
 131:Drivers/CMSIS/DSP/Source/FilteringFunctions/arm_conv_fast_q15.c ****    */
 132:Drivers/CMSIS/DSP/Source/FilteringFunctions/arm_conv_fast_q15.c **** 
 133:Drivers/CMSIS/DSP/Source/FilteringFunctions/arm_conv_fast_q15.c ****   /* In this stage the MAC operations are increased by 1 for every iteration.
ARM GAS  /tmp/ccQmvCRG.s 			page 5


 134:Drivers/CMSIS/DSP/Source/FilteringFunctions/arm_conv_fast_q15.c ****      The count variable holds the number of MAC operations performed */
 135:Drivers/CMSIS/DSP/Source/FilteringFunctions/arm_conv_fast_q15.c ****   count = 1U;
  94              		.loc 1 135 3 view .LVU24
 136:Drivers/CMSIS/DSP/Source/FilteringFunctions/arm_conv_fast_q15.c **** 
 137:Drivers/CMSIS/DSP/Source/FilteringFunctions/arm_conv_fast_q15.c ****   /* Working pointer of inputA */
 138:Drivers/CMSIS/DSP/Source/FilteringFunctions/arm_conv_fast_q15.c ****   px = pIn1;
  95              		.loc 1 138 3 view .LVU25
 139:Drivers/CMSIS/DSP/Source/FilteringFunctions/arm_conv_fast_q15.c **** 
 140:Drivers/CMSIS/DSP/Source/FilteringFunctions/arm_conv_fast_q15.c ****   /* Working pointer of inputB */
 141:Drivers/CMSIS/DSP/Source/FilteringFunctions/arm_conv_fast_q15.c ****   py = pIn2;
  96              		.loc 1 141 3 view .LVU26
 142:Drivers/CMSIS/DSP/Source/FilteringFunctions/arm_conv_fast_q15.c **** 
 143:Drivers/CMSIS/DSP/Source/FilteringFunctions/arm_conv_fast_q15.c **** 
 144:Drivers/CMSIS/DSP/Source/FilteringFunctions/arm_conv_fast_q15.c ****   /* ------------------------
 145:Drivers/CMSIS/DSP/Source/FilteringFunctions/arm_conv_fast_q15.c ****    * Stage1 process
 146:Drivers/CMSIS/DSP/Source/FilteringFunctions/arm_conv_fast_q15.c ****    * ----------------------*/
 147:Drivers/CMSIS/DSP/Source/FilteringFunctions/arm_conv_fast_q15.c **** 
 148:Drivers/CMSIS/DSP/Source/FilteringFunctions/arm_conv_fast_q15.c ****   /* For loop unrolling by 4, this stage is divided into two. */
 149:Drivers/CMSIS/DSP/Source/FilteringFunctions/arm_conv_fast_q15.c ****   /* First part of this stage computes the MAC operations less than 4 */
 150:Drivers/CMSIS/DSP/Source/FilteringFunctions/arm_conv_fast_q15.c ****   /* Second part of this stage computes the MAC operations greater than or equal to 4 */
 151:Drivers/CMSIS/DSP/Source/FilteringFunctions/arm_conv_fast_q15.c **** 
 152:Drivers/CMSIS/DSP/Source/FilteringFunctions/arm_conv_fast_q15.c ****   /* The first part of the stage starts here */
 153:Drivers/CMSIS/DSP/Source/FilteringFunctions/arm_conv_fast_q15.c ****   while ((count < 4U) && (blockSize1 > 0U))
  97              		.loc 1 153 3 view .LVU27
 141:Drivers/CMSIS/DSP/Source/FilteringFunctions/arm_conv_fast_q15.c **** 
  98              		.loc 1 141 6 is_stmt 0 view .LVU28
  99 0022 0346     		mov	r3, r0
 119:Drivers/CMSIS/DSP/Source/FilteringFunctions/arm_conv_fast_q15.c ****   blockSize2 = srcALen - (srcBLen - 1U);
 100              		.loc 1 119 14 view .LVU29
 101 0024 BA46     		mov	r10, r7
 135:Drivers/CMSIS/DSP/Source/FilteringFunctions/arm_conv_fast_q15.c **** 
 102              		.loc 1 135 9 view .LVU30
 103 0026 0125     		movs	r5, #1
 104              		.loc 1 153 9 view .LVU31
 105 0028 13E0     		b	.L3
 106              	.LVL9:
 107              	.L4:
 154:Drivers/CMSIS/DSP/Source/FilteringFunctions/arm_conv_fast_q15.c ****   {
 155:Drivers/CMSIS/DSP/Source/FilteringFunctions/arm_conv_fast_q15.c ****     /* Accumulator is made zero for every iteration */
 156:Drivers/CMSIS/DSP/Source/FilteringFunctions/arm_conv_fast_q15.c ****     sum = 0;
 157:Drivers/CMSIS/DSP/Source/FilteringFunctions/arm_conv_fast_q15.c **** 
 158:Drivers/CMSIS/DSP/Source/FilteringFunctions/arm_conv_fast_q15.c ****     /* Loop over number of MAC operations between
 159:Drivers/CMSIS/DSP/Source/FilteringFunctions/arm_conv_fast_q15.c ****      * inputA samples and inputB samples */
 160:Drivers/CMSIS/DSP/Source/FilteringFunctions/arm_conv_fast_q15.c ****     k = count;
 161:Drivers/CMSIS/DSP/Source/FilteringFunctions/arm_conv_fast_q15.c **** 
 162:Drivers/CMSIS/DSP/Source/FilteringFunctions/arm_conv_fast_q15.c ****     while (k > 0U)
 163:Drivers/CMSIS/DSP/Source/FilteringFunctions/arm_conv_fast_q15.c ****     {
 164:Drivers/CMSIS/DSP/Source/FilteringFunctions/arm_conv_fast_q15.c ****       /* Perform the multiply-accumulates */
 165:Drivers/CMSIS/DSP/Source/FilteringFunctions/arm_conv_fast_q15.c ****       sum = __SMLAD(*px++, *py--, sum);
 108              		.loc 1 165 7 is_stmt 1 view .LVU32
 109              		.loc 1 165 21 is_stmt 0 view .LVU33
 110 002a 32F9026B 		ldrsh	r6, [r2], #2
 111              	.LVL10:
 112              		.loc 1 165 28 view .LVU34
 113 002e 33F902C9 		ldrsh	ip, [r3], #-2
 114              	.LVL11:
 115              	.LBB66:
ARM GAS  /tmp/ccQmvCRG.s 			page 6


 116              	.LBI66:
 117              		.file 2 "Drivers/CMSIS/Include/cmsis_gcc.h"
   1:Drivers/CMSIS/Include/cmsis_gcc.h **** /**************************************************************************//**
   2:Drivers/CMSIS/Include/cmsis_gcc.h ****  * @file     cmsis_gcc.h
   3:Drivers/CMSIS/Include/cmsis_gcc.h ****  * @brief    CMSIS compiler GCC header file
   4:Drivers/CMSIS/Include/cmsis_gcc.h ****  * @version  V5.0.4
   5:Drivers/CMSIS/Include/cmsis_gcc.h ****  * @date     09. April 2018
   6:Drivers/CMSIS/Include/cmsis_gcc.h ****  ******************************************************************************/
   7:Drivers/CMSIS/Include/cmsis_gcc.h **** /*
   8:Drivers/CMSIS/Include/cmsis_gcc.h ****  * Copyright (c) 2009-2018 Arm Limited. All rights reserved.
   9:Drivers/CMSIS/Include/cmsis_gcc.h ****  *
  10:Drivers/CMSIS/Include/cmsis_gcc.h ****  * SPDX-License-Identifier: Apache-2.0
  11:Drivers/CMSIS/Include/cmsis_gcc.h ****  *
  12:Drivers/CMSIS/Include/cmsis_gcc.h ****  * Licensed under the Apache License, Version 2.0 (the License); you may
  13:Drivers/CMSIS/Include/cmsis_gcc.h ****  * not use this file except in compliance with the License.
  14:Drivers/CMSIS/Include/cmsis_gcc.h ****  * You may obtain a copy of the License at
  15:Drivers/CMSIS/Include/cmsis_gcc.h ****  *
  16:Drivers/CMSIS/Include/cmsis_gcc.h ****  * www.apache.org/licenses/LICENSE-2.0
  17:Drivers/CMSIS/Include/cmsis_gcc.h ****  *
  18:Drivers/CMSIS/Include/cmsis_gcc.h ****  * Unless required by applicable law or agreed to in writing, software
  19:Drivers/CMSIS/Include/cmsis_gcc.h ****  * distributed under the License is distributed on an AS IS BASIS, WITHOUT
  20:Drivers/CMSIS/Include/cmsis_gcc.h ****  * WARRANTIES OR CONDITIONS OF ANY KIND, either express or implied.
  21:Drivers/CMSIS/Include/cmsis_gcc.h ****  * See the License for the specific language governing permissions and
  22:Drivers/CMSIS/Include/cmsis_gcc.h ****  * limitations under the License.
  23:Drivers/CMSIS/Include/cmsis_gcc.h ****  */
  24:Drivers/CMSIS/Include/cmsis_gcc.h **** 
  25:Drivers/CMSIS/Include/cmsis_gcc.h **** #ifndef __CMSIS_GCC_H
  26:Drivers/CMSIS/Include/cmsis_gcc.h **** #define __CMSIS_GCC_H
  27:Drivers/CMSIS/Include/cmsis_gcc.h **** 
  28:Drivers/CMSIS/Include/cmsis_gcc.h **** /* ignore some GCC warnings */
  29:Drivers/CMSIS/Include/cmsis_gcc.h **** #pragma GCC diagnostic push
  30:Drivers/CMSIS/Include/cmsis_gcc.h **** #pragma GCC diagnostic ignored "-Wsign-conversion"
  31:Drivers/CMSIS/Include/cmsis_gcc.h **** #pragma GCC diagnostic ignored "-Wconversion"
  32:Drivers/CMSIS/Include/cmsis_gcc.h **** #pragma GCC diagnostic ignored "-Wunused-parameter"
  33:Drivers/CMSIS/Include/cmsis_gcc.h **** 
  34:Drivers/CMSIS/Include/cmsis_gcc.h **** /* Fallback for __has_builtin */
  35:Drivers/CMSIS/Include/cmsis_gcc.h **** #ifndef __has_builtin
  36:Drivers/CMSIS/Include/cmsis_gcc.h ****   #define __has_builtin(x) (0)
  37:Drivers/CMSIS/Include/cmsis_gcc.h **** #endif
  38:Drivers/CMSIS/Include/cmsis_gcc.h **** 
  39:Drivers/CMSIS/Include/cmsis_gcc.h **** /* CMSIS compiler specific defines */
  40:Drivers/CMSIS/Include/cmsis_gcc.h **** #ifndef   __ASM
  41:Drivers/CMSIS/Include/cmsis_gcc.h ****   #define __ASM                                  __asm
  42:Drivers/CMSIS/Include/cmsis_gcc.h **** #endif
  43:Drivers/CMSIS/Include/cmsis_gcc.h **** #ifndef   __INLINE
  44:Drivers/CMSIS/Include/cmsis_gcc.h ****   #define __INLINE                               inline
  45:Drivers/CMSIS/Include/cmsis_gcc.h **** #endif
  46:Drivers/CMSIS/Include/cmsis_gcc.h **** #ifndef   __STATIC_INLINE
  47:Drivers/CMSIS/Include/cmsis_gcc.h ****   #define __STATIC_INLINE                        static inline
  48:Drivers/CMSIS/Include/cmsis_gcc.h **** #endif
  49:Drivers/CMSIS/Include/cmsis_gcc.h **** #ifndef   __STATIC_FORCEINLINE                 
  50:Drivers/CMSIS/Include/cmsis_gcc.h ****   #define __STATIC_FORCEINLINE                   __attribute__((always_inline)) static inline
  51:Drivers/CMSIS/Include/cmsis_gcc.h **** #endif                                           
  52:Drivers/CMSIS/Include/cmsis_gcc.h **** #ifndef   __NO_RETURN
  53:Drivers/CMSIS/Include/cmsis_gcc.h ****   #define __NO_RETURN                            __attribute__((__noreturn__))
  54:Drivers/CMSIS/Include/cmsis_gcc.h **** #endif
  55:Drivers/CMSIS/Include/cmsis_gcc.h **** #ifndef   __USED
ARM GAS  /tmp/ccQmvCRG.s 			page 7


  56:Drivers/CMSIS/Include/cmsis_gcc.h ****   #define __USED                                 __attribute__((used))
  57:Drivers/CMSIS/Include/cmsis_gcc.h **** #endif
  58:Drivers/CMSIS/Include/cmsis_gcc.h **** #ifndef   __WEAK
  59:Drivers/CMSIS/Include/cmsis_gcc.h ****   #define __WEAK                                 __attribute__((weak))
  60:Drivers/CMSIS/Include/cmsis_gcc.h **** #endif
  61:Drivers/CMSIS/Include/cmsis_gcc.h **** #ifndef   __PACKED
  62:Drivers/CMSIS/Include/cmsis_gcc.h ****   #define __PACKED                               __attribute__((packed, aligned(1)))
  63:Drivers/CMSIS/Include/cmsis_gcc.h **** #endif
  64:Drivers/CMSIS/Include/cmsis_gcc.h **** #ifndef   __PACKED_STRUCT
  65:Drivers/CMSIS/Include/cmsis_gcc.h ****   #define __PACKED_STRUCT                        struct __attribute__((packed, aligned(1)))
  66:Drivers/CMSIS/Include/cmsis_gcc.h **** #endif
  67:Drivers/CMSIS/Include/cmsis_gcc.h **** #ifndef   __PACKED_UNION
  68:Drivers/CMSIS/Include/cmsis_gcc.h ****   #define __PACKED_UNION                         union __attribute__((packed, aligned(1)))
  69:Drivers/CMSIS/Include/cmsis_gcc.h **** #endif
  70:Drivers/CMSIS/Include/cmsis_gcc.h **** #ifndef   __UNALIGNED_UINT32        /* deprecated */
  71:Drivers/CMSIS/Include/cmsis_gcc.h ****   #pragma GCC diagnostic push
  72:Drivers/CMSIS/Include/cmsis_gcc.h ****   #pragma GCC diagnostic ignored "-Wpacked"
  73:Drivers/CMSIS/Include/cmsis_gcc.h ****   #pragma GCC diagnostic ignored "-Wattributes"
  74:Drivers/CMSIS/Include/cmsis_gcc.h ****   struct __attribute__((packed)) T_UINT32 { uint32_t v; };
  75:Drivers/CMSIS/Include/cmsis_gcc.h ****   #pragma GCC diagnostic pop
  76:Drivers/CMSIS/Include/cmsis_gcc.h ****   #define __UNALIGNED_UINT32(x)                  (((struct T_UINT32 *)(x))->v)
  77:Drivers/CMSIS/Include/cmsis_gcc.h **** #endif
  78:Drivers/CMSIS/Include/cmsis_gcc.h **** #ifndef   __UNALIGNED_UINT16_WRITE
  79:Drivers/CMSIS/Include/cmsis_gcc.h ****   #pragma GCC diagnostic push
  80:Drivers/CMSIS/Include/cmsis_gcc.h ****   #pragma GCC diagnostic ignored "-Wpacked"
  81:Drivers/CMSIS/Include/cmsis_gcc.h ****   #pragma GCC diagnostic ignored "-Wattributes"
  82:Drivers/CMSIS/Include/cmsis_gcc.h ****   __PACKED_STRUCT T_UINT16_WRITE { uint16_t v; };
  83:Drivers/CMSIS/Include/cmsis_gcc.h ****   #pragma GCC diagnostic pop
  84:Drivers/CMSIS/Include/cmsis_gcc.h ****   #define __UNALIGNED_UINT16_WRITE(addr, val)    (void)((((struct T_UINT16_WRITE *)(void *)(addr))-
  85:Drivers/CMSIS/Include/cmsis_gcc.h **** #endif
  86:Drivers/CMSIS/Include/cmsis_gcc.h **** #ifndef   __UNALIGNED_UINT16_READ
  87:Drivers/CMSIS/Include/cmsis_gcc.h ****   #pragma GCC diagnostic push
  88:Drivers/CMSIS/Include/cmsis_gcc.h ****   #pragma GCC diagnostic ignored "-Wpacked"
  89:Drivers/CMSIS/Include/cmsis_gcc.h ****   #pragma GCC diagnostic ignored "-Wattributes"
  90:Drivers/CMSIS/Include/cmsis_gcc.h ****   __PACKED_STRUCT T_UINT16_READ { uint16_t v; };
  91:Drivers/CMSIS/Include/cmsis_gcc.h ****   #pragma GCC diagnostic pop
  92:Drivers/CMSIS/Include/cmsis_gcc.h ****   #define __UNALIGNED_UINT16_READ(addr)          (((const struct T_UINT16_READ *)(const void *)(add
  93:Drivers/CMSIS/Include/cmsis_gcc.h **** #endif
  94:Drivers/CMSIS/Include/cmsis_gcc.h **** #ifndef   __UNALIGNED_UINT32_WRITE
  95:Drivers/CMSIS/Include/cmsis_gcc.h ****   #pragma GCC diagnostic push
  96:Drivers/CMSIS/Include/cmsis_gcc.h ****   #pragma GCC diagnostic ignored "-Wpacked"
  97:Drivers/CMSIS/Include/cmsis_gcc.h ****   #pragma GCC diagnostic ignored "-Wattributes"
  98:Drivers/CMSIS/Include/cmsis_gcc.h ****   __PACKED_STRUCT T_UINT32_WRITE { uint32_t v; };
  99:Drivers/CMSIS/Include/cmsis_gcc.h ****   #pragma GCC diagnostic pop
 100:Drivers/CMSIS/Include/cmsis_gcc.h ****   #define __UNALIGNED_UINT32_WRITE(addr, val)    (void)((((struct T_UINT32_WRITE *)(void *)(addr))-
 101:Drivers/CMSIS/Include/cmsis_gcc.h **** #endif
 102:Drivers/CMSIS/Include/cmsis_gcc.h **** #ifndef   __UNALIGNED_UINT32_READ
 103:Drivers/CMSIS/Include/cmsis_gcc.h ****   #pragma GCC diagnostic push
 104:Drivers/CMSIS/Include/cmsis_gcc.h ****   #pragma GCC diagnostic ignored "-Wpacked"
 105:Drivers/CMSIS/Include/cmsis_gcc.h ****   #pragma GCC diagnostic ignored "-Wattributes"
 106:Drivers/CMSIS/Include/cmsis_gcc.h ****   __PACKED_STRUCT T_UINT32_READ { uint32_t v; };
 107:Drivers/CMSIS/Include/cmsis_gcc.h ****   #pragma GCC diagnostic pop
 108:Drivers/CMSIS/Include/cmsis_gcc.h ****   #define __UNALIGNED_UINT32_READ(addr)          (((const struct T_UINT32_READ *)(const void *)(add
 109:Drivers/CMSIS/Include/cmsis_gcc.h **** #endif
 110:Drivers/CMSIS/Include/cmsis_gcc.h **** #ifndef   __ALIGNED
 111:Drivers/CMSIS/Include/cmsis_gcc.h ****   #define __ALIGNED(x)                           __attribute__((aligned(x)))
 112:Drivers/CMSIS/Include/cmsis_gcc.h **** #endif
ARM GAS  /tmp/ccQmvCRG.s 			page 8


 113:Drivers/CMSIS/Include/cmsis_gcc.h **** #ifndef   __RESTRICT
 114:Drivers/CMSIS/Include/cmsis_gcc.h ****   #define __RESTRICT                             __restrict
 115:Drivers/CMSIS/Include/cmsis_gcc.h **** #endif
 116:Drivers/CMSIS/Include/cmsis_gcc.h **** 
 117:Drivers/CMSIS/Include/cmsis_gcc.h **** 
 118:Drivers/CMSIS/Include/cmsis_gcc.h **** /* ###########################  Core Function Access  ########################### */
 119:Drivers/CMSIS/Include/cmsis_gcc.h **** /** \ingroup  CMSIS_Core_FunctionInterface
 120:Drivers/CMSIS/Include/cmsis_gcc.h ****     \defgroup CMSIS_Core_RegAccFunctions CMSIS Core Register Access Functions
 121:Drivers/CMSIS/Include/cmsis_gcc.h ****   @{
 122:Drivers/CMSIS/Include/cmsis_gcc.h ****  */
 123:Drivers/CMSIS/Include/cmsis_gcc.h **** 
 124:Drivers/CMSIS/Include/cmsis_gcc.h **** /**
 125:Drivers/CMSIS/Include/cmsis_gcc.h ****   \brief   Enable IRQ Interrupts
 126:Drivers/CMSIS/Include/cmsis_gcc.h ****   \details Enables IRQ interrupts by clearing the I-bit in the CPSR.
 127:Drivers/CMSIS/Include/cmsis_gcc.h ****            Can only be executed in Privileged modes.
 128:Drivers/CMSIS/Include/cmsis_gcc.h ****  */
 129:Drivers/CMSIS/Include/cmsis_gcc.h **** __STATIC_FORCEINLINE void __enable_irq(void)
 130:Drivers/CMSIS/Include/cmsis_gcc.h **** {
 131:Drivers/CMSIS/Include/cmsis_gcc.h ****   __ASM volatile ("cpsie i" : : : "memory");
 132:Drivers/CMSIS/Include/cmsis_gcc.h **** }
 133:Drivers/CMSIS/Include/cmsis_gcc.h **** 
 134:Drivers/CMSIS/Include/cmsis_gcc.h **** 
 135:Drivers/CMSIS/Include/cmsis_gcc.h **** /**
 136:Drivers/CMSIS/Include/cmsis_gcc.h ****   \brief   Disable IRQ Interrupts
 137:Drivers/CMSIS/Include/cmsis_gcc.h ****   \details Disables IRQ interrupts by setting the I-bit in the CPSR.
 138:Drivers/CMSIS/Include/cmsis_gcc.h ****            Can only be executed in Privileged modes.
 139:Drivers/CMSIS/Include/cmsis_gcc.h ****  */
 140:Drivers/CMSIS/Include/cmsis_gcc.h **** __STATIC_FORCEINLINE void __disable_irq(void)
 141:Drivers/CMSIS/Include/cmsis_gcc.h **** {
 142:Drivers/CMSIS/Include/cmsis_gcc.h ****   __ASM volatile ("cpsid i" : : : "memory");
 143:Drivers/CMSIS/Include/cmsis_gcc.h **** }
 144:Drivers/CMSIS/Include/cmsis_gcc.h **** 
 145:Drivers/CMSIS/Include/cmsis_gcc.h **** 
 146:Drivers/CMSIS/Include/cmsis_gcc.h **** /**
 147:Drivers/CMSIS/Include/cmsis_gcc.h ****   \brief   Get Control Register
 148:Drivers/CMSIS/Include/cmsis_gcc.h ****   \details Returns the content of the Control Register.
 149:Drivers/CMSIS/Include/cmsis_gcc.h ****   \return               Control Register value
 150:Drivers/CMSIS/Include/cmsis_gcc.h ****  */
 151:Drivers/CMSIS/Include/cmsis_gcc.h **** __STATIC_FORCEINLINE uint32_t __get_CONTROL(void)
 152:Drivers/CMSIS/Include/cmsis_gcc.h **** {
 153:Drivers/CMSIS/Include/cmsis_gcc.h ****   uint32_t result;
 154:Drivers/CMSIS/Include/cmsis_gcc.h **** 
 155:Drivers/CMSIS/Include/cmsis_gcc.h ****   __ASM volatile ("MRS %0, control" : "=r" (result) );
 156:Drivers/CMSIS/Include/cmsis_gcc.h ****   return(result);
 157:Drivers/CMSIS/Include/cmsis_gcc.h **** }
 158:Drivers/CMSIS/Include/cmsis_gcc.h **** 
 159:Drivers/CMSIS/Include/cmsis_gcc.h **** 
 160:Drivers/CMSIS/Include/cmsis_gcc.h **** #if (defined (__ARM_FEATURE_CMSE ) && (__ARM_FEATURE_CMSE == 3))
 161:Drivers/CMSIS/Include/cmsis_gcc.h **** /**
 162:Drivers/CMSIS/Include/cmsis_gcc.h ****   \brief   Get Control Register (non-secure)
 163:Drivers/CMSIS/Include/cmsis_gcc.h ****   \details Returns the content of the non-secure Control Register when in secure mode.
 164:Drivers/CMSIS/Include/cmsis_gcc.h ****   \return               non-secure Control Register value
 165:Drivers/CMSIS/Include/cmsis_gcc.h ****  */
 166:Drivers/CMSIS/Include/cmsis_gcc.h **** __STATIC_FORCEINLINE uint32_t __TZ_get_CONTROL_NS(void)
 167:Drivers/CMSIS/Include/cmsis_gcc.h **** {
 168:Drivers/CMSIS/Include/cmsis_gcc.h ****   uint32_t result;
 169:Drivers/CMSIS/Include/cmsis_gcc.h **** 
ARM GAS  /tmp/ccQmvCRG.s 			page 9


 170:Drivers/CMSIS/Include/cmsis_gcc.h ****   __ASM volatile ("MRS %0, control_ns" : "=r" (result) );
 171:Drivers/CMSIS/Include/cmsis_gcc.h ****   return(result);
 172:Drivers/CMSIS/Include/cmsis_gcc.h **** }
 173:Drivers/CMSIS/Include/cmsis_gcc.h **** #endif
 174:Drivers/CMSIS/Include/cmsis_gcc.h **** 
 175:Drivers/CMSIS/Include/cmsis_gcc.h **** 
 176:Drivers/CMSIS/Include/cmsis_gcc.h **** /**
 177:Drivers/CMSIS/Include/cmsis_gcc.h ****   \brief   Set Control Register
 178:Drivers/CMSIS/Include/cmsis_gcc.h ****   \details Writes the given value to the Control Register.
 179:Drivers/CMSIS/Include/cmsis_gcc.h ****   \param [in]    control  Control Register value to set
 180:Drivers/CMSIS/Include/cmsis_gcc.h ****  */
 181:Drivers/CMSIS/Include/cmsis_gcc.h **** __STATIC_FORCEINLINE void __set_CONTROL(uint32_t control)
 182:Drivers/CMSIS/Include/cmsis_gcc.h **** {
 183:Drivers/CMSIS/Include/cmsis_gcc.h ****   __ASM volatile ("MSR control, %0" : : "r" (control) : "memory");
 184:Drivers/CMSIS/Include/cmsis_gcc.h **** }
 185:Drivers/CMSIS/Include/cmsis_gcc.h **** 
 186:Drivers/CMSIS/Include/cmsis_gcc.h **** 
 187:Drivers/CMSIS/Include/cmsis_gcc.h **** #if (defined (__ARM_FEATURE_CMSE ) && (__ARM_FEATURE_CMSE == 3))
 188:Drivers/CMSIS/Include/cmsis_gcc.h **** /**
 189:Drivers/CMSIS/Include/cmsis_gcc.h ****   \brief   Set Control Register (non-secure)
 190:Drivers/CMSIS/Include/cmsis_gcc.h ****   \details Writes the given value to the non-secure Control Register when in secure state.
 191:Drivers/CMSIS/Include/cmsis_gcc.h ****   \param [in]    control  Control Register value to set
 192:Drivers/CMSIS/Include/cmsis_gcc.h ****  */
 193:Drivers/CMSIS/Include/cmsis_gcc.h **** __STATIC_FORCEINLINE void __TZ_set_CONTROL_NS(uint32_t control)
 194:Drivers/CMSIS/Include/cmsis_gcc.h **** {
 195:Drivers/CMSIS/Include/cmsis_gcc.h ****   __ASM volatile ("MSR control_ns, %0" : : "r" (control) : "memory");
 196:Drivers/CMSIS/Include/cmsis_gcc.h **** }
 197:Drivers/CMSIS/Include/cmsis_gcc.h **** #endif
 198:Drivers/CMSIS/Include/cmsis_gcc.h **** 
 199:Drivers/CMSIS/Include/cmsis_gcc.h **** 
 200:Drivers/CMSIS/Include/cmsis_gcc.h **** /**
 201:Drivers/CMSIS/Include/cmsis_gcc.h ****   \brief   Get IPSR Register
 202:Drivers/CMSIS/Include/cmsis_gcc.h ****   \details Returns the content of the IPSR Register.
 203:Drivers/CMSIS/Include/cmsis_gcc.h ****   \return               IPSR Register value
 204:Drivers/CMSIS/Include/cmsis_gcc.h ****  */
 205:Drivers/CMSIS/Include/cmsis_gcc.h **** __STATIC_FORCEINLINE uint32_t __get_IPSR(void)
 206:Drivers/CMSIS/Include/cmsis_gcc.h **** {
 207:Drivers/CMSIS/Include/cmsis_gcc.h ****   uint32_t result;
 208:Drivers/CMSIS/Include/cmsis_gcc.h **** 
 209:Drivers/CMSIS/Include/cmsis_gcc.h ****   __ASM volatile ("MRS %0, ipsr" : "=r" (result) );
 210:Drivers/CMSIS/Include/cmsis_gcc.h ****   return(result);
 211:Drivers/CMSIS/Include/cmsis_gcc.h **** }
 212:Drivers/CMSIS/Include/cmsis_gcc.h **** 
 213:Drivers/CMSIS/Include/cmsis_gcc.h **** 
 214:Drivers/CMSIS/Include/cmsis_gcc.h **** /**
 215:Drivers/CMSIS/Include/cmsis_gcc.h ****   \brief   Get APSR Register
 216:Drivers/CMSIS/Include/cmsis_gcc.h ****   \details Returns the content of the APSR Register.
 217:Drivers/CMSIS/Include/cmsis_gcc.h ****   \return               APSR Register value
 218:Drivers/CMSIS/Include/cmsis_gcc.h ****  */
 219:Drivers/CMSIS/Include/cmsis_gcc.h **** __STATIC_FORCEINLINE uint32_t __get_APSR(void)
 220:Drivers/CMSIS/Include/cmsis_gcc.h **** {
 221:Drivers/CMSIS/Include/cmsis_gcc.h ****   uint32_t result;
 222:Drivers/CMSIS/Include/cmsis_gcc.h **** 
 223:Drivers/CMSIS/Include/cmsis_gcc.h ****   __ASM volatile ("MRS %0, apsr" : "=r" (result) );
 224:Drivers/CMSIS/Include/cmsis_gcc.h ****   return(result);
 225:Drivers/CMSIS/Include/cmsis_gcc.h **** }
 226:Drivers/CMSIS/Include/cmsis_gcc.h **** 
ARM GAS  /tmp/ccQmvCRG.s 			page 10


 227:Drivers/CMSIS/Include/cmsis_gcc.h **** 
 228:Drivers/CMSIS/Include/cmsis_gcc.h **** /**
 229:Drivers/CMSIS/Include/cmsis_gcc.h ****   \brief   Get xPSR Register
 230:Drivers/CMSIS/Include/cmsis_gcc.h ****   \details Returns the content of the xPSR Register.
 231:Drivers/CMSIS/Include/cmsis_gcc.h ****   \return               xPSR Register value
 232:Drivers/CMSIS/Include/cmsis_gcc.h ****  */
 233:Drivers/CMSIS/Include/cmsis_gcc.h **** __STATIC_FORCEINLINE uint32_t __get_xPSR(void)
 234:Drivers/CMSIS/Include/cmsis_gcc.h **** {
 235:Drivers/CMSIS/Include/cmsis_gcc.h ****   uint32_t result;
 236:Drivers/CMSIS/Include/cmsis_gcc.h **** 
 237:Drivers/CMSIS/Include/cmsis_gcc.h ****   __ASM volatile ("MRS %0, xpsr" : "=r" (result) );
 238:Drivers/CMSIS/Include/cmsis_gcc.h ****   return(result);
 239:Drivers/CMSIS/Include/cmsis_gcc.h **** }
 240:Drivers/CMSIS/Include/cmsis_gcc.h **** 
 241:Drivers/CMSIS/Include/cmsis_gcc.h **** 
 242:Drivers/CMSIS/Include/cmsis_gcc.h **** /**
 243:Drivers/CMSIS/Include/cmsis_gcc.h ****   \brief   Get Process Stack Pointer
 244:Drivers/CMSIS/Include/cmsis_gcc.h ****   \details Returns the current value of the Process Stack Pointer (PSP).
 245:Drivers/CMSIS/Include/cmsis_gcc.h ****   \return               PSP Register value
 246:Drivers/CMSIS/Include/cmsis_gcc.h ****  */
 247:Drivers/CMSIS/Include/cmsis_gcc.h **** __STATIC_FORCEINLINE uint32_t __get_PSP(void)
 248:Drivers/CMSIS/Include/cmsis_gcc.h **** {
 249:Drivers/CMSIS/Include/cmsis_gcc.h ****   uint32_t result;
 250:Drivers/CMSIS/Include/cmsis_gcc.h **** 
 251:Drivers/CMSIS/Include/cmsis_gcc.h ****   __ASM volatile ("MRS %0, psp"  : "=r" (result) );
 252:Drivers/CMSIS/Include/cmsis_gcc.h ****   return(result);
 253:Drivers/CMSIS/Include/cmsis_gcc.h **** }
 254:Drivers/CMSIS/Include/cmsis_gcc.h **** 
 255:Drivers/CMSIS/Include/cmsis_gcc.h **** 
 256:Drivers/CMSIS/Include/cmsis_gcc.h **** #if (defined (__ARM_FEATURE_CMSE ) && (__ARM_FEATURE_CMSE == 3))
 257:Drivers/CMSIS/Include/cmsis_gcc.h **** /**
 258:Drivers/CMSIS/Include/cmsis_gcc.h ****   \brief   Get Process Stack Pointer (non-secure)
 259:Drivers/CMSIS/Include/cmsis_gcc.h ****   \details Returns the current value of the non-secure Process Stack Pointer (PSP) when in secure s
 260:Drivers/CMSIS/Include/cmsis_gcc.h ****   \return               PSP Register value
 261:Drivers/CMSIS/Include/cmsis_gcc.h ****  */
 262:Drivers/CMSIS/Include/cmsis_gcc.h **** __STATIC_FORCEINLINE uint32_t __TZ_get_PSP_NS(void)
 263:Drivers/CMSIS/Include/cmsis_gcc.h **** {
 264:Drivers/CMSIS/Include/cmsis_gcc.h ****   uint32_t result;
 265:Drivers/CMSIS/Include/cmsis_gcc.h **** 
 266:Drivers/CMSIS/Include/cmsis_gcc.h ****   __ASM volatile ("MRS %0, psp_ns"  : "=r" (result) );
 267:Drivers/CMSIS/Include/cmsis_gcc.h ****   return(result);
 268:Drivers/CMSIS/Include/cmsis_gcc.h **** }
 269:Drivers/CMSIS/Include/cmsis_gcc.h **** #endif
 270:Drivers/CMSIS/Include/cmsis_gcc.h **** 
 271:Drivers/CMSIS/Include/cmsis_gcc.h **** 
 272:Drivers/CMSIS/Include/cmsis_gcc.h **** /**
 273:Drivers/CMSIS/Include/cmsis_gcc.h ****   \brief   Set Process Stack Pointer
 274:Drivers/CMSIS/Include/cmsis_gcc.h ****   \details Assigns the given value to the Process Stack Pointer (PSP).
 275:Drivers/CMSIS/Include/cmsis_gcc.h ****   \param [in]    topOfProcStack  Process Stack Pointer value to set
 276:Drivers/CMSIS/Include/cmsis_gcc.h ****  */
 277:Drivers/CMSIS/Include/cmsis_gcc.h **** __STATIC_FORCEINLINE void __set_PSP(uint32_t topOfProcStack)
 278:Drivers/CMSIS/Include/cmsis_gcc.h **** {
 279:Drivers/CMSIS/Include/cmsis_gcc.h ****   __ASM volatile ("MSR psp, %0" : : "r" (topOfProcStack) : );
 280:Drivers/CMSIS/Include/cmsis_gcc.h **** }
 281:Drivers/CMSIS/Include/cmsis_gcc.h **** 
 282:Drivers/CMSIS/Include/cmsis_gcc.h **** 
 283:Drivers/CMSIS/Include/cmsis_gcc.h **** #if (defined (__ARM_FEATURE_CMSE ) && (__ARM_FEATURE_CMSE == 3))
ARM GAS  /tmp/ccQmvCRG.s 			page 11


 284:Drivers/CMSIS/Include/cmsis_gcc.h **** /**
 285:Drivers/CMSIS/Include/cmsis_gcc.h ****   \brief   Set Process Stack Pointer (non-secure)
 286:Drivers/CMSIS/Include/cmsis_gcc.h ****   \details Assigns the given value to the non-secure Process Stack Pointer (PSP) when in secure sta
 287:Drivers/CMSIS/Include/cmsis_gcc.h ****   \param [in]    topOfProcStack  Process Stack Pointer value to set
 288:Drivers/CMSIS/Include/cmsis_gcc.h ****  */
 289:Drivers/CMSIS/Include/cmsis_gcc.h **** __STATIC_FORCEINLINE void __TZ_set_PSP_NS(uint32_t topOfProcStack)
 290:Drivers/CMSIS/Include/cmsis_gcc.h **** {
 291:Drivers/CMSIS/Include/cmsis_gcc.h ****   __ASM volatile ("MSR psp_ns, %0" : : "r" (topOfProcStack) : );
 292:Drivers/CMSIS/Include/cmsis_gcc.h **** }
 293:Drivers/CMSIS/Include/cmsis_gcc.h **** #endif
 294:Drivers/CMSIS/Include/cmsis_gcc.h **** 
 295:Drivers/CMSIS/Include/cmsis_gcc.h **** 
 296:Drivers/CMSIS/Include/cmsis_gcc.h **** /**
 297:Drivers/CMSIS/Include/cmsis_gcc.h ****   \brief   Get Main Stack Pointer
 298:Drivers/CMSIS/Include/cmsis_gcc.h ****   \details Returns the current value of the Main Stack Pointer (MSP).
 299:Drivers/CMSIS/Include/cmsis_gcc.h ****   \return               MSP Register value
 300:Drivers/CMSIS/Include/cmsis_gcc.h ****  */
 301:Drivers/CMSIS/Include/cmsis_gcc.h **** __STATIC_FORCEINLINE uint32_t __get_MSP(void)
 302:Drivers/CMSIS/Include/cmsis_gcc.h **** {
 303:Drivers/CMSIS/Include/cmsis_gcc.h ****   uint32_t result;
 304:Drivers/CMSIS/Include/cmsis_gcc.h **** 
 305:Drivers/CMSIS/Include/cmsis_gcc.h ****   __ASM volatile ("MRS %0, msp" : "=r" (result) );
 306:Drivers/CMSIS/Include/cmsis_gcc.h ****   return(result);
 307:Drivers/CMSIS/Include/cmsis_gcc.h **** }
 308:Drivers/CMSIS/Include/cmsis_gcc.h **** 
 309:Drivers/CMSIS/Include/cmsis_gcc.h **** 
 310:Drivers/CMSIS/Include/cmsis_gcc.h **** #if (defined (__ARM_FEATURE_CMSE ) && (__ARM_FEATURE_CMSE == 3))
 311:Drivers/CMSIS/Include/cmsis_gcc.h **** /**
 312:Drivers/CMSIS/Include/cmsis_gcc.h ****   \brief   Get Main Stack Pointer (non-secure)
 313:Drivers/CMSIS/Include/cmsis_gcc.h ****   \details Returns the current value of the non-secure Main Stack Pointer (MSP) when in secure stat
 314:Drivers/CMSIS/Include/cmsis_gcc.h ****   \return               MSP Register value
 315:Drivers/CMSIS/Include/cmsis_gcc.h ****  */
 316:Drivers/CMSIS/Include/cmsis_gcc.h **** __STATIC_FORCEINLINE uint32_t __TZ_get_MSP_NS(void)
 317:Drivers/CMSIS/Include/cmsis_gcc.h **** {
 318:Drivers/CMSIS/Include/cmsis_gcc.h ****   uint32_t result;
 319:Drivers/CMSIS/Include/cmsis_gcc.h **** 
 320:Drivers/CMSIS/Include/cmsis_gcc.h ****   __ASM volatile ("MRS %0, msp_ns" : "=r" (result) );
 321:Drivers/CMSIS/Include/cmsis_gcc.h ****   return(result);
 322:Drivers/CMSIS/Include/cmsis_gcc.h **** }
 323:Drivers/CMSIS/Include/cmsis_gcc.h **** #endif
 324:Drivers/CMSIS/Include/cmsis_gcc.h **** 
 325:Drivers/CMSIS/Include/cmsis_gcc.h **** 
 326:Drivers/CMSIS/Include/cmsis_gcc.h **** /**
 327:Drivers/CMSIS/Include/cmsis_gcc.h ****   \brief   Set Main Stack Pointer
 328:Drivers/CMSIS/Include/cmsis_gcc.h ****   \details Assigns the given value to the Main Stack Pointer (MSP).
 329:Drivers/CMSIS/Include/cmsis_gcc.h ****   \param [in]    topOfMainStack  Main Stack Pointer value to set
 330:Drivers/CMSIS/Include/cmsis_gcc.h ****  */
 331:Drivers/CMSIS/Include/cmsis_gcc.h **** __STATIC_FORCEINLINE void __set_MSP(uint32_t topOfMainStack)
 332:Drivers/CMSIS/Include/cmsis_gcc.h **** {
 333:Drivers/CMSIS/Include/cmsis_gcc.h ****   __ASM volatile ("MSR msp, %0" : : "r" (topOfMainStack) : );
 334:Drivers/CMSIS/Include/cmsis_gcc.h **** }
 335:Drivers/CMSIS/Include/cmsis_gcc.h **** 
 336:Drivers/CMSIS/Include/cmsis_gcc.h **** 
 337:Drivers/CMSIS/Include/cmsis_gcc.h **** #if (defined (__ARM_FEATURE_CMSE ) && (__ARM_FEATURE_CMSE == 3))
 338:Drivers/CMSIS/Include/cmsis_gcc.h **** /**
 339:Drivers/CMSIS/Include/cmsis_gcc.h ****   \brief   Set Main Stack Pointer (non-secure)
 340:Drivers/CMSIS/Include/cmsis_gcc.h ****   \details Assigns the given value to the non-secure Main Stack Pointer (MSP) when in secure state.
ARM GAS  /tmp/ccQmvCRG.s 			page 12


 341:Drivers/CMSIS/Include/cmsis_gcc.h ****   \param [in]    topOfMainStack  Main Stack Pointer value to set
 342:Drivers/CMSIS/Include/cmsis_gcc.h ****  */
 343:Drivers/CMSIS/Include/cmsis_gcc.h **** __STATIC_FORCEINLINE void __TZ_set_MSP_NS(uint32_t topOfMainStack)
 344:Drivers/CMSIS/Include/cmsis_gcc.h **** {
 345:Drivers/CMSIS/Include/cmsis_gcc.h ****   __ASM volatile ("MSR msp_ns, %0" : : "r" (topOfMainStack) : );
 346:Drivers/CMSIS/Include/cmsis_gcc.h **** }
 347:Drivers/CMSIS/Include/cmsis_gcc.h **** #endif
 348:Drivers/CMSIS/Include/cmsis_gcc.h **** 
 349:Drivers/CMSIS/Include/cmsis_gcc.h **** 
 350:Drivers/CMSIS/Include/cmsis_gcc.h **** #if (defined (__ARM_FEATURE_CMSE ) && (__ARM_FEATURE_CMSE == 3))
 351:Drivers/CMSIS/Include/cmsis_gcc.h **** /**
 352:Drivers/CMSIS/Include/cmsis_gcc.h ****   \brief   Get Stack Pointer (non-secure)
 353:Drivers/CMSIS/Include/cmsis_gcc.h ****   \details Returns the current value of the non-secure Stack Pointer (SP) when in secure state.
 354:Drivers/CMSIS/Include/cmsis_gcc.h ****   \return               SP Register value
 355:Drivers/CMSIS/Include/cmsis_gcc.h ****  */
 356:Drivers/CMSIS/Include/cmsis_gcc.h **** __STATIC_FORCEINLINE uint32_t __TZ_get_SP_NS(void)
 357:Drivers/CMSIS/Include/cmsis_gcc.h **** {
 358:Drivers/CMSIS/Include/cmsis_gcc.h ****   uint32_t result;
 359:Drivers/CMSIS/Include/cmsis_gcc.h **** 
 360:Drivers/CMSIS/Include/cmsis_gcc.h ****   __ASM volatile ("MRS %0, sp_ns" : "=r" (result) );
 361:Drivers/CMSIS/Include/cmsis_gcc.h ****   return(result);
 362:Drivers/CMSIS/Include/cmsis_gcc.h **** }
 363:Drivers/CMSIS/Include/cmsis_gcc.h **** 
 364:Drivers/CMSIS/Include/cmsis_gcc.h **** 
 365:Drivers/CMSIS/Include/cmsis_gcc.h **** /**
 366:Drivers/CMSIS/Include/cmsis_gcc.h ****   \brief   Set Stack Pointer (non-secure)
 367:Drivers/CMSIS/Include/cmsis_gcc.h ****   \details Assigns the given value to the non-secure Stack Pointer (SP) when in secure state.
 368:Drivers/CMSIS/Include/cmsis_gcc.h ****   \param [in]    topOfStack  Stack Pointer value to set
 369:Drivers/CMSIS/Include/cmsis_gcc.h ****  */
 370:Drivers/CMSIS/Include/cmsis_gcc.h **** __STATIC_FORCEINLINE void __TZ_set_SP_NS(uint32_t topOfStack)
 371:Drivers/CMSIS/Include/cmsis_gcc.h **** {
 372:Drivers/CMSIS/Include/cmsis_gcc.h ****   __ASM volatile ("MSR sp_ns, %0" : : "r" (topOfStack) : );
 373:Drivers/CMSIS/Include/cmsis_gcc.h **** }
 374:Drivers/CMSIS/Include/cmsis_gcc.h **** #endif
 375:Drivers/CMSIS/Include/cmsis_gcc.h **** 
 376:Drivers/CMSIS/Include/cmsis_gcc.h **** 
 377:Drivers/CMSIS/Include/cmsis_gcc.h **** /**
 378:Drivers/CMSIS/Include/cmsis_gcc.h ****   \brief   Get Priority Mask
 379:Drivers/CMSIS/Include/cmsis_gcc.h ****   \details Returns the current state of the priority mask bit from the Priority Mask Register.
 380:Drivers/CMSIS/Include/cmsis_gcc.h ****   \return               Priority Mask value
 381:Drivers/CMSIS/Include/cmsis_gcc.h ****  */
 382:Drivers/CMSIS/Include/cmsis_gcc.h **** __STATIC_FORCEINLINE uint32_t __get_PRIMASK(void)
 383:Drivers/CMSIS/Include/cmsis_gcc.h **** {
 384:Drivers/CMSIS/Include/cmsis_gcc.h ****   uint32_t result;
 385:Drivers/CMSIS/Include/cmsis_gcc.h **** 
 386:Drivers/CMSIS/Include/cmsis_gcc.h ****   __ASM volatile ("MRS %0, primask" : "=r" (result) :: "memory");
 387:Drivers/CMSIS/Include/cmsis_gcc.h ****   return(result);
 388:Drivers/CMSIS/Include/cmsis_gcc.h **** }
 389:Drivers/CMSIS/Include/cmsis_gcc.h **** 
 390:Drivers/CMSIS/Include/cmsis_gcc.h **** 
 391:Drivers/CMSIS/Include/cmsis_gcc.h **** #if (defined (__ARM_FEATURE_CMSE ) && (__ARM_FEATURE_CMSE == 3))
 392:Drivers/CMSIS/Include/cmsis_gcc.h **** /**
 393:Drivers/CMSIS/Include/cmsis_gcc.h ****   \brief   Get Priority Mask (non-secure)
 394:Drivers/CMSIS/Include/cmsis_gcc.h ****   \details Returns the current state of the non-secure priority mask bit from the Priority Mask Reg
 395:Drivers/CMSIS/Include/cmsis_gcc.h ****   \return               Priority Mask value
 396:Drivers/CMSIS/Include/cmsis_gcc.h ****  */
 397:Drivers/CMSIS/Include/cmsis_gcc.h **** __STATIC_FORCEINLINE uint32_t __TZ_get_PRIMASK_NS(void)
ARM GAS  /tmp/ccQmvCRG.s 			page 13


 398:Drivers/CMSIS/Include/cmsis_gcc.h **** {
 399:Drivers/CMSIS/Include/cmsis_gcc.h ****   uint32_t result;
 400:Drivers/CMSIS/Include/cmsis_gcc.h **** 
 401:Drivers/CMSIS/Include/cmsis_gcc.h ****   __ASM volatile ("MRS %0, primask_ns" : "=r" (result) :: "memory");
 402:Drivers/CMSIS/Include/cmsis_gcc.h ****   return(result);
 403:Drivers/CMSIS/Include/cmsis_gcc.h **** }
 404:Drivers/CMSIS/Include/cmsis_gcc.h **** #endif
 405:Drivers/CMSIS/Include/cmsis_gcc.h **** 
 406:Drivers/CMSIS/Include/cmsis_gcc.h **** 
 407:Drivers/CMSIS/Include/cmsis_gcc.h **** /**
 408:Drivers/CMSIS/Include/cmsis_gcc.h ****   \brief   Set Priority Mask
 409:Drivers/CMSIS/Include/cmsis_gcc.h ****   \details Assigns the given value to the Priority Mask Register.
 410:Drivers/CMSIS/Include/cmsis_gcc.h ****   \param [in]    priMask  Priority Mask
 411:Drivers/CMSIS/Include/cmsis_gcc.h ****  */
 412:Drivers/CMSIS/Include/cmsis_gcc.h **** __STATIC_FORCEINLINE void __set_PRIMASK(uint32_t priMask)
 413:Drivers/CMSIS/Include/cmsis_gcc.h **** {
 414:Drivers/CMSIS/Include/cmsis_gcc.h ****   __ASM volatile ("MSR primask, %0" : : "r" (priMask) : "memory");
 415:Drivers/CMSIS/Include/cmsis_gcc.h **** }
 416:Drivers/CMSIS/Include/cmsis_gcc.h **** 
 417:Drivers/CMSIS/Include/cmsis_gcc.h **** 
 418:Drivers/CMSIS/Include/cmsis_gcc.h **** #if (defined (__ARM_FEATURE_CMSE ) && (__ARM_FEATURE_CMSE == 3))
 419:Drivers/CMSIS/Include/cmsis_gcc.h **** /**
 420:Drivers/CMSIS/Include/cmsis_gcc.h ****   \brief   Set Priority Mask (non-secure)
 421:Drivers/CMSIS/Include/cmsis_gcc.h ****   \details Assigns the given value to the non-secure Priority Mask Register when in secure state.
 422:Drivers/CMSIS/Include/cmsis_gcc.h ****   \param [in]    priMask  Priority Mask
 423:Drivers/CMSIS/Include/cmsis_gcc.h ****  */
 424:Drivers/CMSIS/Include/cmsis_gcc.h **** __STATIC_FORCEINLINE void __TZ_set_PRIMASK_NS(uint32_t priMask)
 425:Drivers/CMSIS/Include/cmsis_gcc.h **** {
 426:Drivers/CMSIS/Include/cmsis_gcc.h ****   __ASM volatile ("MSR primask_ns, %0" : : "r" (priMask) : "memory");
 427:Drivers/CMSIS/Include/cmsis_gcc.h **** }
 428:Drivers/CMSIS/Include/cmsis_gcc.h **** #endif
 429:Drivers/CMSIS/Include/cmsis_gcc.h **** 
 430:Drivers/CMSIS/Include/cmsis_gcc.h **** 
 431:Drivers/CMSIS/Include/cmsis_gcc.h **** #if ((defined (__ARM_ARCH_7M__      ) && (__ARM_ARCH_7M__      == 1)) || \
 432:Drivers/CMSIS/Include/cmsis_gcc.h ****      (defined (__ARM_ARCH_7EM__     ) && (__ARM_ARCH_7EM__     == 1)) || \
 433:Drivers/CMSIS/Include/cmsis_gcc.h ****      (defined (__ARM_ARCH_8M_MAIN__ ) && (__ARM_ARCH_8M_MAIN__ == 1))    )
 434:Drivers/CMSIS/Include/cmsis_gcc.h **** /**
 435:Drivers/CMSIS/Include/cmsis_gcc.h ****   \brief   Enable FIQ
 436:Drivers/CMSIS/Include/cmsis_gcc.h ****   \details Enables FIQ interrupts by clearing the F-bit in the CPSR.
 437:Drivers/CMSIS/Include/cmsis_gcc.h ****            Can only be executed in Privileged modes.
 438:Drivers/CMSIS/Include/cmsis_gcc.h ****  */
 439:Drivers/CMSIS/Include/cmsis_gcc.h **** __STATIC_FORCEINLINE void __enable_fault_irq(void)
 440:Drivers/CMSIS/Include/cmsis_gcc.h **** {
 441:Drivers/CMSIS/Include/cmsis_gcc.h ****   __ASM volatile ("cpsie f" : : : "memory");
 442:Drivers/CMSIS/Include/cmsis_gcc.h **** }
 443:Drivers/CMSIS/Include/cmsis_gcc.h **** 
 444:Drivers/CMSIS/Include/cmsis_gcc.h **** 
 445:Drivers/CMSIS/Include/cmsis_gcc.h **** /**
 446:Drivers/CMSIS/Include/cmsis_gcc.h ****   \brief   Disable FIQ
 447:Drivers/CMSIS/Include/cmsis_gcc.h ****   \details Disables FIQ interrupts by setting the F-bit in the CPSR.
 448:Drivers/CMSIS/Include/cmsis_gcc.h ****            Can only be executed in Privileged modes.
 449:Drivers/CMSIS/Include/cmsis_gcc.h ****  */
 450:Drivers/CMSIS/Include/cmsis_gcc.h **** __STATIC_FORCEINLINE void __disable_fault_irq(void)
 451:Drivers/CMSIS/Include/cmsis_gcc.h **** {
 452:Drivers/CMSIS/Include/cmsis_gcc.h ****   __ASM volatile ("cpsid f" : : : "memory");
 453:Drivers/CMSIS/Include/cmsis_gcc.h **** }
 454:Drivers/CMSIS/Include/cmsis_gcc.h **** 
ARM GAS  /tmp/ccQmvCRG.s 			page 14


 455:Drivers/CMSIS/Include/cmsis_gcc.h **** 
 456:Drivers/CMSIS/Include/cmsis_gcc.h **** /**
 457:Drivers/CMSIS/Include/cmsis_gcc.h ****   \brief   Get Base Priority
 458:Drivers/CMSIS/Include/cmsis_gcc.h ****   \details Returns the current value of the Base Priority register.
 459:Drivers/CMSIS/Include/cmsis_gcc.h ****   \return               Base Priority register value
 460:Drivers/CMSIS/Include/cmsis_gcc.h ****  */
 461:Drivers/CMSIS/Include/cmsis_gcc.h **** __STATIC_FORCEINLINE uint32_t __get_BASEPRI(void)
 462:Drivers/CMSIS/Include/cmsis_gcc.h **** {
 463:Drivers/CMSIS/Include/cmsis_gcc.h ****   uint32_t result;
 464:Drivers/CMSIS/Include/cmsis_gcc.h **** 
 465:Drivers/CMSIS/Include/cmsis_gcc.h ****   __ASM volatile ("MRS %0, basepri" : "=r" (result) );
 466:Drivers/CMSIS/Include/cmsis_gcc.h ****   return(result);
 467:Drivers/CMSIS/Include/cmsis_gcc.h **** }
 468:Drivers/CMSIS/Include/cmsis_gcc.h **** 
 469:Drivers/CMSIS/Include/cmsis_gcc.h **** 
 470:Drivers/CMSIS/Include/cmsis_gcc.h **** #if (defined (__ARM_FEATURE_CMSE ) && (__ARM_FEATURE_CMSE == 3))
 471:Drivers/CMSIS/Include/cmsis_gcc.h **** /**
 472:Drivers/CMSIS/Include/cmsis_gcc.h ****   \brief   Get Base Priority (non-secure)
 473:Drivers/CMSIS/Include/cmsis_gcc.h ****   \details Returns the current value of the non-secure Base Priority register when in secure state.
 474:Drivers/CMSIS/Include/cmsis_gcc.h ****   \return               Base Priority register value
 475:Drivers/CMSIS/Include/cmsis_gcc.h ****  */
 476:Drivers/CMSIS/Include/cmsis_gcc.h **** __STATIC_FORCEINLINE uint32_t __TZ_get_BASEPRI_NS(void)
 477:Drivers/CMSIS/Include/cmsis_gcc.h **** {
 478:Drivers/CMSIS/Include/cmsis_gcc.h ****   uint32_t result;
 479:Drivers/CMSIS/Include/cmsis_gcc.h **** 
 480:Drivers/CMSIS/Include/cmsis_gcc.h ****   __ASM volatile ("MRS %0, basepri_ns" : "=r" (result) );
 481:Drivers/CMSIS/Include/cmsis_gcc.h ****   return(result);
 482:Drivers/CMSIS/Include/cmsis_gcc.h **** }
 483:Drivers/CMSIS/Include/cmsis_gcc.h **** #endif
 484:Drivers/CMSIS/Include/cmsis_gcc.h **** 
 485:Drivers/CMSIS/Include/cmsis_gcc.h **** 
 486:Drivers/CMSIS/Include/cmsis_gcc.h **** /**
 487:Drivers/CMSIS/Include/cmsis_gcc.h ****   \brief   Set Base Priority
 488:Drivers/CMSIS/Include/cmsis_gcc.h ****   \details Assigns the given value to the Base Priority register.
 489:Drivers/CMSIS/Include/cmsis_gcc.h ****   \param [in]    basePri  Base Priority value to set
 490:Drivers/CMSIS/Include/cmsis_gcc.h ****  */
 491:Drivers/CMSIS/Include/cmsis_gcc.h **** __STATIC_FORCEINLINE void __set_BASEPRI(uint32_t basePri)
 492:Drivers/CMSIS/Include/cmsis_gcc.h **** {
 493:Drivers/CMSIS/Include/cmsis_gcc.h ****   __ASM volatile ("MSR basepri, %0" : : "r" (basePri) : "memory");
 494:Drivers/CMSIS/Include/cmsis_gcc.h **** }
 495:Drivers/CMSIS/Include/cmsis_gcc.h **** 
 496:Drivers/CMSIS/Include/cmsis_gcc.h **** 
 497:Drivers/CMSIS/Include/cmsis_gcc.h **** #if (defined (__ARM_FEATURE_CMSE ) && (__ARM_FEATURE_CMSE == 3))
 498:Drivers/CMSIS/Include/cmsis_gcc.h **** /**
 499:Drivers/CMSIS/Include/cmsis_gcc.h ****   \brief   Set Base Priority (non-secure)
 500:Drivers/CMSIS/Include/cmsis_gcc.h ****   \details Assigns the given value to the non-secure Base Priority register when in secure state.
 501:Drivers/CMSIS/Include/cmsis_gcc.h ****   \param [in]    basePri  Base Priority value to set
 502:Drivers/CMSIS/Include/cmsis_gcc.h ****  */
 503:Drivers/CMSIS/Include/cmsis_gcc.h **** __STATIC_FORCEINLINE void __TZ_set_BASEPRI_NS(uint32_t basePri)
 504:Drivers/CMSIS/Include/cmsis_gcc.h **** {
 505:Drivers/CMSIS/Include/cmsis_gcc.h ****   __ASM volatile ("MSR basepri_ns, %0" : : "r" (basePri) : "memory");
 506:Drivers/CMSIS/Include/cmsis_gcc.h **** }
 507:Drivers/CMSIS/Include/cmsis_gcc.h **** #endif
 508:Drivers/CMSIS/Include/cmsis_gcc.h **** 
 509:Drivers/CMSIS/Include/cmsis_gcc.h **** 
 510:Drivers/CMSIS/Include/cmsis_gcc.h **** /**
 511:Drivers/CMSIS/Include/cmsis_gcc.h ****   \brief   Set Base Priority with condition
ARM GAS  /tmp/ccQmvCRG.s 			page 15


 512:Drivers/CMSIS/Include/cmsis_gcc.h ****   \details Assigns the given value to the Base Priority register only if BASEPRI masking is disable
 513:Drivers/CMSIS/Include/cmsis_gcc.h ****            or the new value increases the BASEPRI priority level.
 514:Drivers/CMSIS/Include/cmsis_gcc.h ****   \param [in]    basePri  Base Priority value to set
 515:Drivers/CMSIS/Include/cmsis_gcc.h ****  */
 516:Drivers/CMSIS/Include/cmsis_gcc.h **** __STATIC_FORCEINLINE void __set_BASEPRI_MAX(uint32_t basePri)
 517:Drivers/CMSIS/Include/cmsis_gcc.h **** {
 518:Drivers/CMSIS/Include/cmsis_gcc.h ****   __ASM volatile ("MSR basepri_max, %0" : : "r" (basePri) : "memory");
 519:Drivers/CMSIS/Include/cmsis_gcc.h **** }
 520:Drivers/CMSIS/Include/cmsis_gcc.h **** 
 521:Drivers/CMSIS/Include/cmsis_gcc.h **** 
 522:Drivers/CMSIS/Include/cmsis_gcc.h **** /**
 523:Drivers/CMSIS/Include/cmsis_gcc.h ****   \brief   Get Fault Mask
 524:Drivers/CMSIS/Include/cmsis_gcc.h ****   \details Returns the current value of the Fault Mask register.
 525:Drivers/CMSIS/Include/cmsis_gcc.h ****   \return               Fault Mask register value
 526:Drivers/CMSIS/Include/cmsis_gcc.h ****  */
 527:Drivers/CMSIS/Include/cmsis_gcc.h **** __STATIC_FORCEINLINE uint32_t __get_FAULTMASK(void)
 528:Drivers/CMSIS/Include/cmsis_gcc.h **** {
 529:Drivers/CMSIS/Include/cmsis_gcc.h ****   uint32_t result;
 530:Drivers/CMSIS/Include/cmsis_gcc.h **** 
 531:Drivers/CMSIS/Include/cmsis_gcc.h ****   __ASM volatile ("MRS %0, faultmask" : "=r" (result) );
 532:Drivers/CMSIS/Include/cmsis_gcc.h ****   return(result);
 533:Drivers/CMSIS/Include/cmsis_gcc.h **** }
 534:Drivers/CMSIS/Include/cmsis_gcc.h **** 
 535:Drivers/CMSIS/Include/cmsis_gcc.h **** 
 536:Drivers/CMSIS/Include/cmsis_gcc.h **** #if (defined (__ARM_FEATURE_CMSE ) && (__ARM_FEATURE_CMSE == 3))
 537:Drivers/CMSIS/Include/cmsis_gcc.h **** /**
 538:Drivers/CMSIS/Include/cmsis_gcc.h ****   \brief   Get Fault Mask (non-secure)
 539:Drivers/CMSIS/Include/cmsis_gcc.h ****   \details Returns the current value of the non-secure Fault Mask register when in secure state.
 540:Drivers/CMSIS/Include/cmsis_gcc.h ****   \return               Fault Mask register value
 541:Drivers/CMSIS/Include/cmsis_gcc.h ****  */
 542:Drivers/CMSIS/Include/cmsis_gcc.h **** __STATIC_FORCEINLINE uint32_t __TZ_get_FAULTMASK_NS(void)
 543:Drivers/CMSIS/Include/cmsis_gcc.h **** {
 544:Drivers/CMSIS/Include/cmsis_gcc.h ****   uint32_t result;
 545:Drivers/CMSIS/Include/cmsis_gcc.h **** 
 546:Drivers/CMSIS/Include/cmsis_gcc.h ****   __ASM volatile ("MRS %0, faultmask_ns" : "=r" (result) );
 547:Drivers/CMSIS/Include/cmsis_gcc.h ****   return(result);
 548:Drivers/CMSIS/Include/cmsis_gcc.h **** }
 549:Drivers/CMSIS/Include/cmsis_gcc.h **** #endif
 550:Drivers/CMSIS/Include/cmsis_gcc.h **** 
 551:Drivers/CMSIS/Include/cmsis_gcc.h **** 
 552:Drivers/CMSIS/Include/cmsis_gcc.h **** /**
 553:Drivers/CMSIS/Include/cmsis_gcc.h ****   \brief   Set Fault Mask
 554:Drivers/CMSIS/Include/cmsis_gcc.h ****   \details Assigns the given value to the Fault Mask register.
 555:Drivers/CMSIS/Include/cmsis_gcc.h ****   \param [in]    faultMask  Fault Mask value to set
 556:Drivers/CMSIS/Include/cmsis_gcc.h ****  */
 557:Drivers/CMSIS/Include/cmsis_gcc.h **** __STATIC_FORCEINLINE void __set_FAULTMASK(uint32_t faultMask)
 558:Drivers/CMSIS/Include/cmsis_gcc.h **** {
 559:Drivers/CMSIS/Include/cmsis_gcc.h ****   __ASM volatile ("MSR faultmask, %0" : : "r" (faultMask) : "memory");
 560:Drivers/CMSIS/Include/cmsis_gcc.h **** }
 561:Drivers/CMSIS/Include/cmsis_gcc.h **** 
 562:Drivers/CMSIS/Include/cmsis_gcc.h **** 
 563:Drivers/CMSIS/Include/cmsis_gcc.h **** #if (defined (__ARM_FEATURE_CMSE ) && (__ARM_FEATURE_CMSE == 3))
 564:Drivers/CMSIS/Include/cmsis_gcc.h **** /**
 565:Drivers/CMSIS/Include/cmsis_gcc.h ****   \brief   Set Fault Mask (non-secure)
 566:Drivers/CMSIS/Include/cmsis_gcc.h ****   \details Assigns the given value to the non-secure Fault Mask register when in secure state.
 567:Drivers/CMSIS/Include/cmsis_gcc.h ****   \param [in]    faultMask  Fault Mask value to set
 568:Drivers/CMSIS/Include/cmsis_gcc.h ****  */
ARM GAS  /tmp/ccQmvCRG.s 			page 16


 569:Drivers/CMSIS/Include/cmsis_gcc.h **** __STATIC_FORCEINLINE void __TZ_set_FAULTMASK_NS(uint32_t faultMask)
 570:Drivers/CMSIS/Include/cmsis_gcc.h **** {
 571:Drivers/CMSIS/Include/cmsis_gcc.h ****   __ASM volatile ("MSR faultmask_ns, %0" : : "r" (faultMask) : "memory");
 572:Drivers/CMSIS/Include/cmsis_gcc.h **** }
 573:Drivers/CMSIS/Include/cmsis_gcc.h **** #endif
 574:Drivers/CMSIS/Include/cmsis_gcc.h **** 
 575:Drivers/CMSIS/Include/cmsis_gcc.h **** #endif /* ((defined (__ARM_ARCH_7M__      ) && (__ARM_ARCH_7M__      == 1)) || \
 576:Drivers/CMSIS/Include/cmsis_gcc.h ****            (defined (__ARM_ARCH_7EM__     ) && (__ARM_ARCH_7EM__     == 1)) || \
 577:Drivers/CMSIS/Include/cmsis_gcc.h ****            (defined (__ARM_ARCH_8M_MAIN__ ) && (__ARM_ARCH_8M_MAIN__ == 1))    ) */
 578:Drivers/CMSIS/Include/cmsis_gcc.h **** 
 579:Drivers/CMSIS/Include/cmsis_gcc.h **** 
 580:Drivers/CMSIS/Include/cmsis_gcc.h **** #if ((defined (__ARM_ARCH_8M_MAIN__ ) && (__ARM_ARCH_8M_MAIN__ == 1)) || \
 581:Drivers/CMSIS/Include/cmsis_gcc.h ****      (defined (__ARM_ARCH_8M_BASE__ ) && (__ARM_ARCH_8M_BASE__ == 1))    )
 582:Drivers/CMSIS/Include/cmsis_gcc.h **** 
 583:Drivers/CMSIS/Include/cmsis_gcc.h **** /**
 584:Drivers/CMSIS/Include/cmsis_gcc.h ****   \brief   Get Process Stack Pointer Limit
 585:Drivers/CMSIS/Include/cmsis_gcc.h ****   Devices without ARMv8-M Main Extensions (i.e. Cortex-M23) lack the non-secure
 586:Drivers/CMSIS/Include/cmsis_gcc.h ****   Stack Pointer Limit register hence zero is returned always in non-secure
 587:Drivers/CMSIS/Include/cmsis_gcc.h ****   mode.
 588:Drivers/CMSIS/Include/cmsis_gcc.h ****   
 589:Drivers/CMSIS/Include/cmsis_gcc.h ****   \details Returns the current value of the Process Stack Pointer Limit (PSPLIM).
 590:Drivers/CMSIS/Include/cmsis_gcc.h ****   \return               PSPLIM Register value
 591:Drivers/CMSIS/Include/cmsis_gcc.h ****  */
 592:Drivers/CMSIS/Include/cmsis_gcc.h **** __STATIC_FORCEINLINE uint32_t __get_PSPLIM(void)
 593:Drivers/CMSIS/Include/cmsis_gcc.h **** {
 594:Drivers/CMSIS/Include/cmsis_gcc.h **** #if (!(defined (__ARM_ARCH_8M_MAIN__ ) && (__ARM_ARCH_8M_MAIN__ == 1)) && \
 595:Drivers/CMSIS/Include/cmsis_gcc.h ****     (!defined (__ARM_FEATURE_CMSE) || (__ARM_FEATURE_CMSE < 3)))
 596:Drivers/CMSIS/Include/cmsis_gcc.h ****     // without main extensions, the non-secure PSPLIM is RAZ/WI
 597:Drivers/CMSIS/Include/cmsis_gcc.h ****   return 0U;
 598:Drivers/CMSIS/Include/cmsis_gcc.h **** #else
 599:Drivers/CMSIS/Include/cmsis_gcc.h ****   uint32_t result;
 600:Drivers/CMSIS/Include/cmsis_gcc.h ****   __ASM volatile ("MRS %0, psplim"  : "=r" (result) );
 601:Drivers/CMSIS/Include/cmsis_gcc.h ****   return result;
 602:Drivers/CMSIS/Include/cmsis_gcc.h **** #endif
 603:Drivers/CMSIS/Include/cmsis_gcc.h **** }
 604:Drivers/CMSIS/Include/cmsis_gcc.h **** 
 605:Drivers/CMSIS/Include/cmsis_gcc.h **** #if (defined (__ARM_FEATURE_CMSE) && (__ARM_FEATURE_CMSE == 3))
 606:Drivers/CMSIS/Include/cmsis_gcc.h **** /**
 607:Drivers/CMSIS/Include/cmsis_gcc.h ****   \brief   Get Process Stack Pointer Limit (non-secure)
 608:Drivers/CMSIS/Include/cmsis_gcc.h ****   Devices without ARMv8-M Main Extensions (i.e. Cortex-M23) lack the non-secure
 609:Drivers/CMSIS/Include/cmsis_gcc.h ****   Stack Pointer Limit register hence zero is returned always.
 610:Drivers/CMSIS/Include/cmsis_gcc.h **** 
 611:Drivers/CMSIS/Include/cmsis_gcc.h ****   \details Returns the current value of the non-secure Process Stack Pointer Limit (PSPLIM) when in
 612:Drivers/CMSIS/Include/cmsis_gcc.h ****   \return               PSPLIM Register value
 613:Drivers/CMSIS/Include/cmsis_gcc.h ****  */
 614:Drivers/CMSIS/Include/cmsis_gcc.h **** __STATIC_FORCEINLINE uint32_t __TZ_get_PSPLIM_NS(void)
 615:Drivers/CMSIS/Include/cmsis_gcc.h **** {
 616:Drivers/CMSIS/Include/cmsis_gcc.h **** #if (!(defined (__ARM_ARCH_8M_MAIN__ ) && (__ARM_ARCH_8M_MAIN__ == 1)))
 617:Drivers/CMSIS/Include/cmsis_gcc.h ****   // without main extensions, the non-secure PSPLIM is RAZ/WI
 618:Drivers/CMSIS/Include/cmsis_gcc.h ****   return 0U;
 619:Drivers/CMSIS/Include/cmsis_gcc.h **** #else
 620:Drivers/CMSIS/Include/cmsis_gcc.h ****   uint32_t result;
 621:Drivers/CMSIS/Include/cmsis_gcc.h ****   __ASM volatile ("MRS %0, psplim_ns"  : "=r" (result) );
 622:Drivers/CMSIS/Include/cmsis_gcc.h ****   return result;
 623:Drivers/CMSIS/Include/cmsis_gcc.h **** #endif
 624:Drivers/CMSIS/Include/cmsis_gcc.h **** }
 625:Drivers/CMSIS/Include/cmsis_gcc.h **** #endif
ARM GAS  /tmp/ccQmvCRG.s 			page 17


 626:Drivers/CMSIS/Include/cmsis_gcc.h **** 
 627:Drivers/CMSIS/Include/cmsis_gcc.h **** 
 628:Drivers/CMSIS/Include/cmsis_gcc.h **** /**
 629:Drivers/CMSIS/Include/cmsis_gcc.h ****   \brief   Set Process Stack Pointer Limit
 630:Drivers/CMSIS/Include/cmsis_gcc.h ****   Devices without ARMv8-M Main Extensions (i.e. Cortex-M23) lack the non-secure
 631:Drivers/CMSIS/Include/cmsis_gcc.h ****   Stack Pointer Limit register hence the write is silently ignored in non-secure
 632:Drivers/CMSIS/Include/cmsis_gcc.h ****   mode.
 633:Drivers/CMSIS/Include/cmsis_gcc.h ****   
 634:Drivers/CMSIS/Include/cmsis_gcc.h ****   \details Assigns the given value to the Process Stack Pointer Limit (PSPLIM).
 635:Drivers/CMSIS/Include/cmsis_gcc.h ****   \param [in]    ProcStackPtrLimit  Process Stack Pointer Limit value to set
 636:Drivers/CMSIS/Include/cmsis_gcc.h ****  */
 637:Drivers/CMSIS/Include/cmsis_gcc.h **** __STATIC_FORCEINLINE void __set_PSPLIM(uint32_t ProcStackPtrLimit)
 638:Drivers/CMSIS/Include/cmsis_gcc.h **** {
 639:Drivers/CMSIS/Include/cmsis_gcc.h **** #if (!(defined (__ARM_ARCH_8M_MAIN__ ) && (__ARM_ARCH_8M_MAIN__ == 1)) && \
 640:Drivers/CMSIS/Include/cmsis_gcc.h ****     (!defined (__ARM_FEATURE_CMSE) || (__ARM_FEATURE_CMSE < 3)))
 641:Drivers/CMSIS/Include/cmsis_gcc.h ****   // without main extensions, the non-secure PSPLIM is RAZ/WI
 642:Drivers/CMSIS/Include/cmsis_gcc.h ****   (void)ProcStackPtrLimit;
 643:Drivers/CMSIS/Include/cmsis_gcc.h **** #else
 644:Drivers/CMSIS/Include/cmsis_gcc.h ****   __ASM volatile ("MSR psplim, %0" : : "r" (ProcStackPtrLimit));
 645:Drivers/CMSIS/Include/cmsis_gcc.h **** #endif
 646:Drivers/CMSIS/Include/cmsis_gcc.h **** }
 647:Drivers/CMSIS/Include/cmsis_gcc.h **** 
 648:Drivers/CMSIS/Include/cmsis_gcc.h **** 
 649:Drivers/CMSIS/Include/cmsis_gcc.h **** #if (defined (__ARM_FEATURE_CMSE  ) && (__ARM_FEATURE_CMSE   == 3))
 650:Drivers/CMSIS/Include/cmsis_gcc.h **** /**
 651:Drivers/CMSIS/Include/cmsis_gcc.h ****   \brief   Set Process Stack Pointer (non-secure)
 652:Drivers/CMSIS/Include/cmsis_gcc.h ****   Devices without ARMv8-M Main Extensions (i.e. Cortex-M23) lack the non-secure
 653:Drivers/CMSIS/Include/cmsis_gcc.h ****   Stack Pointer Limit register hence the write is silently ignored.
 654:Drivers/CMSIS/Include/cmsis_gcc.h **** 
 655:Drivers/CMSIS/Include/cmsis_gcc.h ****   \details Assigns the given value to the non-secure Process Stack Pointer Limit (PSPLIM) when in s
 656:Drivers/CMSIS/Include/cmsis_gcc.h ****   \param [in]    ProcStackPtrLimit  Process Stack Pointer Limit value to set
 657:Drivers/CMSIS/Include/cmsis_gcc.h ****  */
 658:Drivers/CMSIS/Include/cmsis_gcc.h **** __STATIC_FORCEINLINE void __TZ_set_PSPLIM_NS(uint32_t ProcStackPtrLimit)
 659:Drivers/CMSIS/Include/cmsis_gcc.h **** {
 660:Drivers/CMSIS/Include/cmsis_gcc.h **** #if (!(defined (__ARM_ARCH_8M_MAIN__ ) && (__ARM_ARCH_8M_MAIN__ == 1)))
 661:Drivers/CMSIS/Include/cmsis_gcc.h ****   // without main extensions, the non-secure PSPLIM is RAZ/WI
 662:Drivers/CMSIS/Include/cmsis_gcc.h ****   (void)ProcStackPtrLimit;
 663:Drivers/CMSIS/Include/cmsis_gcc.h **** #else
 664:Drivers/CMSIS/Include/cmsis_gcc.h ****   __ASM volatile ("MSR psplim_ns, %0\n" : : "r" (ProcStackPtrLimit));
 665:Drivers/CMSIS/Include/cmsis_gcc.h **** #endif
 666:Drivers/CMSIS/Include/cmsis_gcc.h **** }
 667:Drivers/CMSIS/Include/cmsis_gcc.h **** #endif
 668:Drivers/CMSIS/Include/cmsis_gcc.h **** 
 669:Drivers/CMSIS/Include/cmsis_gcc.h **** 
 670:Drivers/CMSIS/Include/cmsis_gcc.h **** /**
 671:Drivers/CMSIS/Include/cmsis_gcc.h ****   \brief   Get Main Stack Pointer Limit
 672:Drivers/CMSIS/Include/cmsis_gcc.h ****   Devices without ARMv8-M Main Extensions (i.e. Cortex-M23) lack the non-secure
 673:Drivers/CMSIS/Include/cmsis_gcc.h ****   Stack Pointer Limit register hence zero is returned always in non-secure
 674:Drivers/CMSIS/Include/cmsis_gcc.h ****   mode.
 675:Drivers/CMSIS/Include/cmsis_gcc.h **** 
 676:Drivers/CMSIS/Include/cmsis_gcc.h ****   \details Returns the current value of the Main Stack Pointer Limit (MSPLIM).
 677:Drivers/CMSIS/Include/cmsis_gcc.h ****   \return               MSPLIM Register value
 678:Drivers/CMSIS/Include/cmsis_gcc.h ****  */
 679:Drivers/CMSIS/Include/cmsis_gcc.h **** __STATIC_FORCEINLINE uint32_t __get_MSPLIM(void)
 680:Drivers/CMSIS/Include/cmsis_gcc.h **** {
 681:Drivers/CMSIS/Include/cmsis_gcc.h **** #if (!(defined (__ARM_ARCH_8M_MAIN__ ) && (__ARM_ARCH_8M_MAIN__ == 1)) && \
 682:Drivers/CMSIS/Include/cmsis_gcc.h ****     (!defined (__ARM_FEATURE_CMSE) || (__ARM_FEATURE_CMSE < 3)))
ARM GAS  /tmp/ccQmvCRG.s 			page 18


 683:Drivers/CMSIS/Include/cmsis_gcc.h ****   // without main extensions, the non-secure MSPLIM is RAZ/WI
 684:Drivers/CMSIS/Include/cmsis_gcc.h ****   return 0U;
 685:Drivers/CMSIS/Include/cmsis_gcc.h **** #else
 686:Drivers/CMSIS/Include/cmsis_gcc.h ****   uint32_t result;
 687:Drivers/CMSIS/Include/cmsis_gcc.h ****   __ASM volatile ("MRS %0, msplim" : "=r" (result) );
 688:Drivers/CMSIS/Include/cmsis_gcc.h ****   return result;
 689:Drivers/CMSIS/Include/cmsis_gcc.h **** #endif
 690:Drivers/CMSIS/Include/cmsis_gcc.h **** }
 691:Drivers/CMSIS/Include/cmsis_gcc.h **** 
 692:Drivers/CMSIS/Include/cmsis_gcc.h **** 
 693:Drivers/CMSIS/Include/cmsis_gcc.h **** #if (defined (__ARM_FEATURE_CMSE  ) && (__ARM_FEATURE_CMSE   == 3))
 694:Drivers/CMSIS/Include/cmsis_gcc.h **** /**
 695:Drivers/CMSIS/Include/cmsis_gcc.h ****   \brief   Get Main Stack Pointer Limit (non-secure)
 696:Drivers/CMSIS/Include/cmsis_gcc.h ****   Devices without ARMv8-M Main Extensions (i.e. Cortex-M23) lack the non-secure
 697:Drivers/CMSIS/Include/cmsis_gcc.h ****   Stack Pointer Limit register hence zero is returned always.
 698:Drivers/CMSIS/Include/cmsis_gcc.h **** 
 699:Drivers/CMSIS/Include/cmsis_gcc.h ****   \details Returns the current value of the non-secure Main Stack Pointer Limit(MSPLIM) when in sec
 700:Drivers/CMSIS/Include/cmsis_gcc.h ****   \return               MSPLIM Register value
 701:Drivers/CMSIS/Include/cmsis_gcc.h ****  */
 702:Drivers/CMSIS/Include/cmsis_gcc.h **** __STATIC_FORCEINLINE uint32_t __TZ_get_MSPLIM_NS(void)
 703:Drivers/CMSIS/Include/cmsis_gcc.h **** {
 704:Drivers/CMSIS/Include/cmsis_gcc.h **** #if (!(defined (__ARM_ARCH_8M_MAIN__ ) && (__ARM_ARCH_8M_MAIN__ == 1)))
 705:Drivers/CMSIS/Include/cmsis_gcc.h ****   // without main extensions, the non-secure MSPLIM is RAZ/WI
 706:Drivers/CMSIS/Include/cmsis_gcc.h ****   return 0U;
 707:Drivers/CMSIS/Include/cmsis_gcc.h **** #else
 708:Drivers/CMSIS/Include/cmsis_gcc.h ****   uint32_t result;
 709:Drivers/CMSIS/Include/cmsis_gcc.h ****   __ASM volatile ("MRS %0, msplim_ns" : "=r" (result) );
 710:Drivers/CMSIS/Include/cmsis_gcc.h ****   return result;
 711:Drivers/CMSIS/Include/cmsis_gcc.h **** #endif
 712:Drivers/CMSIS/Include/cmsis_gcc.h **** }
 713:Drivers/CMSIS/Include/cmsis_gcc.h **** #endif
 714:Drivers/CMSIS/Include/cmsis_gcc.h **** 
 715:Drivers/CMSIS/Include/cmsis_gcc.h **** 
 716:Drivers/CMSIS/Include/cmsis_gcc.h **** /**
 717:Drivers/CMSIS/Include/cmsis_gcc.h ****   \brief   Set Main Stack Pointer Limit
 718:Drivers/CMSIS/Include/cmsis_gcc.h ****   Devices without ARMv8-M Main Extensions (i.e. Cortex-M23) lack the non-secure
 719:Drivers/CMSIS/Include/cmsis_gcc.h ****   Stack Pointer Limit register hence the write is silently ignored in non-secure
 720:Drivers/CMSIS/Include/cmsis_gcc.h ****   mode.
 721:Drivers/CMSIS/Include/cmsis_gcc.h **** 
 722:Drivers/CMSIS/Include/cmsis_gcc.h ****   \details Assigns the given value to the Main Stack Pointer Limit (MSPLIM).
 723:Drivers/CMSIS/Include/cmsis_gcc.h ****   \param [in]    MainStackPtrLimit  Main Stack Pointer Limit value to set
 724:Drivers/CMSIS/Include/cmsis_gcc.h ****  */
 725:Drivers/CMSIS/Include/cmsis_gcc.h **** __STATIC_FORCEINLINE void __set_MSPLIM(uint32_t MainStackPtrLimit)
 726:Drivers/CMSIS/Include/cmsis_gcc.h **** {
 727:Drivers/CMSIS/Include/cmsis_gcc.h **** #if (!(defined (__ARM_ARCH_8M_MAIN__ ) && (__ARM_ARCH_8M_MAIN__ == 1)) && \
 728:Drivers/CMSIS/Include/cmsis_gcc.h ****     (!defined (__ARM_FEATURE_CMSE) || (__ARM_FEATURE_CMSE < 3)))
 729:Drivers/CMSIS/Include/cmsis_gcc.h ****   // without main extensions, the non-secure MSPLIM is RAZ/WI
 730:Drivers/CMSIS/Include/cmsis_gcc.h ****   (void)MainStackPtrLimit;
 731:Drivers/CMSIS/Include/cmsis_gcc.h **** #else
 732:Drivers/CMSIS/Include/cmsis_gcc.h ****   __ASM volatile ("MSR msplim, %0" : : "r" (MainStackPtrLimit));
 733:Drivers/CMSIS/Include/cmsis_gcc.h **** #endif
 734:Drivers/CMSIS/Include/cmsis_gcc.h **** }
 735:Drivers/CMSIS/Include/cmsis_gcc.h **** 
 736:Drivers/CMSIS/Include/cmsis_gcc.h **** 
 737:Drivers/CMSIS/Include/cmsis_gcc.h **** #if (defined (__ARM_FEATURE_CMSE  ) && (__ARM_FEATURE_CMSE   == 3))
 738:Drivers/CMSIS/Include/cmsis_gcc.h **** /**
 739:Drivers/CMSIS/Include/cmsis_gcc.h ****   \brief   Set Main Stack Pointer Limit (non-secure)
ARM GAS  /tmp/ccQmvCRG.s 			page 19


 740:Drivers/CMSIS/Include/cmsis_gcc.h ****   Devices without ARMv8-M Main Extensions (i.e. Cortex-M23) lack the non-secure
 741:Drivers/CMSIS/Include/cmsis_gcc.h ****   Stack Pointer Limit register hence the write is silently ignored.
 742:Drivers/CMSIS/Include/cmsis_gcc.h **** 
 743:Drivers/CMSIS/Include/cmsis_gcc.h ****   \details Assigns the given value to the non-secure Main Stack Pointer Limit (MSPLIM) when in secu
 744:Drivers/CMSIS/Include/cmsis_gcc.h ****   \param [in]    MainStackPtrLimit  Main Stack Pointer value to set
 745:Drivers/CMSIS/Include/cmsis_gcc.h ****  */
 746:Drivers/CMSIS/Include/cmsis_gcc.h **** __STATIC_FORCEINLINE void __TZ_set_MSPLIM_NS(uint32_t MainStackPtrLimit)
 747:Drivers/CMSIS/Include/cmsis_gcc.h **** {
 748:Drivers/CMSIS/Include/cmsis_gcc.h **** #if (!(defined (__ARM_ARCH_8M_MAIN__ ) && (__ARM_ARCH_8M_MAIN__ == 1)))
 749:Drivers/CMSIS/Include/cmsis_gcc.h ****   // without main extensions, the non-secure MSPLIM is RAZ/WI
 750:Drivers/CMSIS/Include/cmsis_gcc.h ****   (void)MainStackPtrLimit;
 751:Drivers/CMSIS/Include/cmsis_gcc.h **** #else
 752:Drivers/CMSIS/Include/cmsis_gcc.h ****   __ASM volatile ("MSR msplim_ns, %0" : : "r" (MainStackPtrLimit));
 753:Drivers/CMSIS/Include/cmsis_gcc.h **** #endif
 754:Drivers/CMSIS/Include/cmsis_gcc.h **** }
 755:Drivers/CMSIS/Include/cmsis_gcc.h **** #endif
 756:Drivers/CMSIS/Include/cmsis_gcc.h **** 
 757:Drivers/CMSIS/Include/cmsis_gcc.h **** #endif /* ((defined (__ARM_ARCH_8M_MAIN__ ) && (__ARM_ARCH_8M_MAIN__ == 1)) || \
 758:Drivers/CMSIS/Include/cmsis_gcc.h ****            (defined (__ARM_ARCH_8M_BASE__ ) && (__ARM_ARCH_8M_BASE__ == 1))    ) */
 759:Drivers/CMSIS/Include/cmsis_gcc.h **** 
 760:Drivers/CMSIS/Include/cmsis_gcc.h **** 
 761:Drivers/CMSIS/Include/cmsis_gcc.h **** /**
 762:Drivers/CMSIS/Include/cmsis_gcc.h ****   \brief   Get FPSCR
 763:Drivers/CMSIS/Include/cmsis_gcc.h ****   \details Returns the current value of the Floating Point Status/Control register.
 764:Drivers/CMSIS/Include/cmsis_gcc.h ****   \return               Floating Point Status/Control register value
 765:Drivers/CMSIS/Include/cmsis_gcc.h ****  */
 766:Drivers/CMSIS/Include/cmsis_gcc.h **** __STATIC_FORCEINLINE uint32_t __get_FPSCR(void)
 767:Drivers/CMSIS/Include/cmsis_gcc.h **** {
 768:Drivers/CMSIS/Include/cmsis_gcc.h **** #if ((defined (__FPU_PRESENT) && (__FPU_PRESENT == 1U)) && \
 769:Drivers/CMSIS/Include/cmsis_gcc.h ****      (defined (__FPU_USED   ) && (__FPU_USED    == 1U))     )
 770:Drivers/CMSIS/Include/cmsis_gcc.h **** #if __has_builtin(__builtin_arm_get_fpscr) 
 771:Drivers/CMSIS/Include/cmsis_gcc.h **** // Re-enable using built-in when GCC has been fixed
 772:Drivers/CMSIS/Include/cmsis_gcc.h **** // || (__GNUC__ > 7) || (__GNUC__ == 7 && __GNUC_MINOR__ >= 2)
 773:Drivers/CMSIS/Include/cmsis_gcc.h ****   /* see https://gcc.gnu.org/ml/gcc-patches/2017-04/msg00443.html */
 774:Drivers/CMSIS/Include/cmsis_gcc.h ****   return __builtin_arm_get_fpscr();
 775:Drivers/CMSIS/Include/cmsis_gcc.h **** #else
 776:Drivers/CMSIS/Include/cmsis_gcc.h ****   uint32_t result;
 777:Drivers/CMSIS/Include/cmsis_gcc.h **** 
 778:Drivers/CMSIS/Include/cmsis_gcc.h ****   __ASM volatile ("VMRS %0, fpscr" : "=r" (result) );
 779:Drivers/CMSIS/Include/cmsis_gcc.h ****   return(result);
 780:Drivers/CMSIS/Include/cmsis_gcc.h **** #endif
 781:Drivers/CMSIS/Include/cmsis_gcc.h **** #else
 782:Drivers/CMSIS/Include/cmsis_gcc.h ****   return(0U);
 783:Drivers/CMSIS/Include/cmsis_gcc.h **** #endif
 784:Drivers/CMSIS/Include/cmsis_gcc.h **** }
 785:Drivers/CMSIS/Include/cmsis_gcc.h **** 
 786:Drivers/CMSIS/Include/cmsis_gcc.h **** 
 787:Drivers/CMSIS/Include/cmsis_gcc.h **** /**
 788:Drivers/CMSIS/Include/cmsis_gcc.h ****   \brief   Set FPSCR
 789:Drivers/CMSIS/Include/cmsis_gcc.h ****   \details Assigns the given value to the Floating Point Status/Control register.
 790:Drivers/CMSIS/Include/cmsis_gcc.h ****   \param [in]    fpscr  Floating Point Status/Control value to set
 791:Drivers/CMSIS/Include/cmsis_gcc.h ****  */
 792:Drivers/CMSIS/Include/cmsis_gcc.h **** __STATIC_FORCEINLINE void __set_FPSCR(uint32_t fpscr)
 793:Drivers/CMSIS/Include/cmsis_gcc.h **** {
 794:Drivers/CMSIS/Include/cmsis_gcc.h **** #if ((defined (__FPU_PRESENT) && (__FPU_PRESENT == 1U)) && \
 795:Drivers/CMSIS/Include/cmsis_gcc.h ****      (defined (__FPU_USED   ) && (__FPU_USED    == 1U))     )
 796:Drivers/CMSIS/Include/cmsis_gcc.h **** #if __has_builtin(__builtin_arm_set_fpscr)
ARM GAS  /tmp/ccQmvCRG.s 			page 20


 797:Drivers/CMSIS/Include/cmsis_gcc.h **** // Re-enable using built-in when GCC has been fixed
 798:Drivers/CMSIS/Include/cmsis_gcc.h **** // || (__GNUC__ > 7) || (__GNUC__ == 7 && __GNUC_MINOR__ >= 2)
 799:Drivers/CMSIS/Include/cmsis_gcc.h ****   /* see https://gcc.gnu.org/ml/gcc-patches/2017-04/msg00443.html */
 800:Drivers/CMSIS/Include/cmsis_gcc.h ****   __builtin_arm_set_fpscr(fpscr);
 801:Drivers/CMSIS/Include/cmsis_gcc.h **** #else
 802:Drivers/CMSIS/Include/cmsis_gcc.h ****   __ASM volatile ("VMSR fpscr, %0" : : "r" (fpscr) : "vfpcc", "memory");
 803:Drivers/CMSIS/Include/cmsis_gcc.h **** #endif
 804:Drivers/CMSIS/Include/cmsis_gcc.h **** #else
 805:Drivers/CMSIS/Include/cmsis_gcc.h ****   (void)fpscr;
 806:Drivers/CMSIS/Include/cmsis_gcc.h **** #endif
 807:Drivers/CMSIS/Include/cmsis_gcc.h **** }
 808:Drivers/CMSIS/Include/cmsis_gcc.h **** 
 809:Drivers/CMSIS/Include/cmsis_gcc.h **** 
 810:Drivers/CMSIS/Include/cmsis_gcc.h **** /*@} end of CMSIS_Core_RegAccFunctions */
 811:Drivers/CMSIS/Include/cmsis_gcc.h **** 
 812:Drivers/CMSIS/Include/cmsis_gcc.h **** 
 813:Drivers/CMSIS/Include/cmsis_gcc.h **** /* ##########################  Core Instruction Access  ######################### */
 814:Drivers/CMSIS/Include/cmsis_gcc.h **** /** \defgroup CMSIS_Core_InstructionInterface CMSIS Core Instruction Interface
 815:Drivers/CMSIS/Include/cmsis_gcc.h ****   Access to dedicated instructions
 816:Drivers/CMSIS/Include/cmsis_gcc.h ****   @{
 817:Drivers/CMSIS/Include/cmsis_gcc.h **** */
 818:Drivers/CMSIS/Include/cmsis_gcc.h **** 
 819:Drivers/CMSIS/Include/cmsis_gcc.h **** /* Define macros for porting to both thumb1 and thumb2.
 820:Drivers/CMSIS/Include/cmsis_gcc.h ****  * For thumb1, use low register (r0-r7), specified by constraint "l"
 821:Drivers/CMSIS/Include/cmsis_gcc.h ****  * Otherwise, use general registers, specified by constraint "r" */
 822:Drivers/CMSIS/Include/cmsis_gcc.h **** #if defined (__thumb__) && !defined (__thumb2__)
 823:Drivers/CMSIS/Include/cmsis_gcc.h **** #define __CMSIS_GCC_OUT_REG(r) "=l" (r)
 824:Drivers/CMSIS/Include/cmsis_gcc.h **** #define __CMSIS_GCC_RW_REG(r) "+l" (r)
 825:Drivers/CMSIS/Include/cmsis_gcc.h **** #define __CMSIS_GCC_USE_REG(r) "l" (r)
 826:Drivers/CMSIS/Include/cmsis_gcc.h **** #else
 827:Drivers/CMSIS/Include/cmsis_gcc.h **** #define __CMSIS_GCC_OUT_REG(r) "=r" (r)
 828:Drivers/CMSIS/Include/cmsis_gcc.h **** #define __CMSIS_GCC_RW_REG(r) "+r" (r)
 829:Drivers/CMSIS/Include/cmsis_gcc.h **** #define __CMSIS_GCC_USE_REG(r) "r" (r)
 830:Drivers/CMSIS/Include/cmsis_gcc.h **** #endif
 831:Drivers/CMSIS/Include/cmsis_gcc.h **** 
 832:Drivers/CMSIS/Include/cmsis_gcc.h **** /**
 833:Drivers/CMSIS/Include/cmsis_gcc.h ****   \brief   No Operation
 834:Drivers/CMSIS/Include/cmsis_gcc.h ****   \details No Operation does nothing. This instruction can be used for code alignment purposes.
 835:Drivers/CMSIS/Include/cmsis_gcc.h ****  */
 836:Drivers/CMSIS/Include/cmsis_gcc.h **** #define __NOP()                             __ASM volatile ("nop")
 837:Drivers/CMSIS/Include/cmsis_gcc.h **** 
 838:Drivers/CMSIS/Include/cmsis_gcc.h **** /**
 839:Drivers/CMSIS/Include/cmsis_gcc.h ****   \brief   Wait For Interrupt
 840:Drivers/CMSIS/Include/cmsis_gcc.h ****   \details Wait For Interrupt is a hint instruction that suspends execution until one of a number o
 841:Drivers/CMSIS/Include/cmsis_gcc.h ****  */
 842:Drivers/CMSIS/Include/cmsis_gcc.h **** #define __WFI()                             __ASM volatile ("wfi")
 843:Drivers/CMSIS/Include/cmsis_gcc.h **** 
 844:Drivers/CMSIS/Include/cmsis_gcc.h **** 
 845:Drivers/CMSIS/Include/cmsis_gcc.h **** /**
 846:Drivers/CMSIS/Include/cmsis_gcc.h ****   \brief   Wait For Event
 847:Drivers/CMSIS/Include/cmsis_gcc.h ****   \details Wait For Event is a hint instruction that permits the processor to enter
 848:Drivers/CMSIS/Include/cmsis_gcc.h ****            a low-power state until one of a number of events occurs.
 849:Drivers/CMSIS/Include/cmsis_gcc.h ****  */
 850:Drivers/CMSIS/Include/cmsis_gcc.h **** #define __WFE()                             __ASM volatile ("wfe")
 851:Drivers/CMSIS/Include/cmsis_gcc.h **** 
 852:Drivers/CMSIS/Include/cmsis_gcc.h **** 
 853:Drivers/CMSIS/Include/cmsis_gcc.h **** /**
ARM GAS  /tmp/ccQmvCRG.s 			page 21


 854:Drivers/CMSIS/Include/cmsis_gcc.h ****   \brief   Send Event
 855:Drivers/CMSIS/Include/cmsis_gcc.h ****   \details Send Event is a hint instruction. It causes an event to be signaled to the CPU.
 856:Drivers/CMSIS/Include/cmsis_gcc.h ****  */
 857:Drivers/CMSIS/Include/cmsis_gcc.h **** #define __SEV()                             __ASM volatile ("sev")
 858:Drivers/CMSIS/Include/cmsis_gcc.h **** 
 859:Drivers/CMSIS/Include/cmsis_gcc.h **** 
 860:Drivers/CMSIS/Include/cmsis_gcc.h **** /**
 861:Drivers/CMSIS/Include/cmsis_gcc.h ****   \brief   Instruction Synchronization Barrier
 862:Drivers/CMSIS/Include/cmsis_gcc.h ****   \details Instruction Synchronization Barrier flushes the pipeline in the processor,
 863:Drivers/CMSIS/Include/cmsis_gcc.h ****            so that all instructions following the ISB are fetched from cache or memory,
 864:Drivers/CMSIS/Include/cmsis_gcc.h ****            after the instruction has been completed.
 865:Drivers/CMSIS/Include/cmsis_gcc.h ****  */
 866:Drivers/CMSIS/Include/cmsis_gcc.h **** __STATIC_FORCEINLINE void __ISB(void)
 867:Drivers/CMSIS/Include/cmsis_gcc.h **** {
 868:Drivers/CMSIS/Include/cmsis_gcc.h ****   __ASM volatile ("isb 0xF":::"memory");
 869:Drivers/CMSIS/Include/cmsis_gcc.h **** }
 870:Drivers/CMSIS/Include/cmsis_gcc.h **** 
 871:Drivers/CMSIS/Include/cmsis_gcc.h **** 
 872:Drivers/CMSIS/Include/cmsis_gcc.h **** /**
 873:Drivers/CMSIS/Include/cmsis_gcc.h ****   \brief   Data Synchronization Barrier
 874:Drivers/CMSIS/Include/cmsis_gcc.h ****   \details Acts as a special kind of Data Memory Barrier.
 875:Drivers/CMSIS/Include/cmsis_gcc.h ****            It completes when all explicit memory accesses before this instruction complete.
 876:Drivers/CMSIS/Include/cmsis_gcc.h ****  */
 877:Drivers/CMSIS/Include/cmsis_gcc.h **** __STATIC_FORCEINLINE void __DSB(void)
 878:Drivers/CMSIS/Include/cmsis_gcc.h **** {
 879:Drivers/CMSIS/Include/cmsis_gcc.h ****   __ASM volatile ("dsb 0xF":::"memory");
 880:Drivers/CMSIS/Include/cmsis_gcc.h **** }
 881:Drivers/CMSIS/Include/cmsis_gcc.h **** 
 882:Drivers/CMSIS/Include/cmsis_gcc.h **** 
 883:Drivers/CMSIS/Include/cmsis_gcc.h **** /**
 884:Drivers/CMSIS/Include/cmsis_gcc.h ****   \brief   Data Memory Barrier
 885:Drivers/CMSIS/Include/cmsis_gcc.h ****   \details Ensures the apparent order of the explicit memory operations before
 886:Drivers/CMSIS/Include/cmsis_gcc.h ****            and after the instruction, without ensuring their completion.
 887:Drivers/CMSIS/Include/cmsis_gcc.h ****  */
 888:Drivers/CMSIS/Include/cmsis_gcc.h **** __STATIC_FORCEINLINE void __DMB(void)
 889:Drivers/CMSIS/Include/cmsis_gcc.h **** {
 890:Drivers/CMSIS/Include/cmsis_gcc.h ****   __ASM volatile ("dmb 0xF":::"memory");
 891:Drivers/CMSIS/Include/cmsis_gcc.h **** }
 892:Drivers/CMSIS/Include/cmsis_gcc.h **** 
 893:Drivers/CMSIS/Include/cmsis_gcc.h **** 
 894:Drivers/CMSIS/Include/cmsis_gcc.h **** /**
 895:Drivers/CMSIS/Include/cmsis_gcc.h ****   \brief   Reverse byte order (32 bit)
 896:Drivers/CMSIS/Include/cmsis_gcc.h ****   \details Reverses the byte order in unsigned integer value. For example, 0x12345678 becomes 0x785
 897:Drivers/CMSIS/Include/cmsis_gcc.h ****   \param [in]    value  Value to reverse
 898:Drivers/CMSIS/Include/cmsis_gcc.h ****   \return               Reversed value
 899:Drivers/CMSIS/Include/cmsis_gcc.h ****  */
 900:Drivers/CMSIS/Include/cmsis_gcc.h **** __STATIC_FORCEINLINE uint32_t __REV(uint32_t value)
 901:Drivers/CMSIS/Include/cmsis_gcc.h **** {
 902:Drivers/CMSIS/Include/cmsis_gcc.h **** #if (__GNUC__ > 4) || (__GNUC__ == 4 && __GNUC_MINOR__ >= 5)
 903:Drivers/CMSIS/Include/cmsis_gcc.h ****   return __builtin_bswap32(value);
 904:Drivers/CMSIS/Include/cmsis_gcc.h **** #else
 905:Drivers/CMSIS/Include/cmsis_gcc.h ****   uint32_t result;
 906:Drivers/CMSIS/Include/cmsis_gcc.h **** 
 907:Drivers/CMSIS/Include/cmsis_gcc.h ****   __ASM volatile ("rev %0, %1" : __CMSIS_GCC_OUT_REG (result) : __CMSIS_GCC_USE_REG (value) );
 908:Drivers/CMSIS/Include/cmsis_gcc.h ****   return result;
 909:Drivers/CMSIS/Include/cmsis_gcc.h **** #endif
 910:Drivers/CMSIS/Include/cmsis_gcc.h **** }
ARM GAS  /tmp/ccQmvCRG.s 			page 22


 911:Drivers/CMSIS/Include/cmsis_gcc.h **** 
 912:Drivers/CMSIS/Include/cmsis_gcc.h **** 
 913:Drivers/CMSIS/Include/cmsis_gcc.h **** /**
 914:Drivers/CMSIS/Include/cmsis_gcc.h ****   \brief   Reverse byte order (16 bit)
 915:Drivers/CMSIS/Include/cmsis_gcc.h ****   \details Reverses the byte order within each halfword of a word. For example, 0x12345678 becomes 
 916:Drivers/CMSIS/Include/cmsis_gcc.h ****   \param [in]    value  Value to reverse
 917:Drivers/CMSIS/Include/cmsis_gcc.h ****   \return               Reversed value
 918:Drivers/CMSIS/Include/cmsis_gcc.h ****  */
 919:Drivers/CMSIS/Include/cmsis_gcc.h **** __STATIC_FORCEINLINE uint32_t __REV16(uint32_t value)
 920:Drivers/CMSIS/Include/cmsis_gcc.h **** {
 921:Drivers/CMSIS/Include/cmsis_gcc.h ****   uint32_t result;
 922:Drivers/CMSIS/Include/cmsis_gcc.h **** 
 923:Drivers/CMSIS/Include/cmsis_gcc.h ****   __ASM volatile ("rev16 %0, %1" : __CMSIS_GCC_OUT_REG (result) : __CMSIS_GCC_USE_REG (value) );
 924:Drivers/CMSIS/Include/cmsis_gcc.h ****   return result;
 925:Drivers/CMSIS/Include/cmsis_gcc.h **** }
 926:Drivers/CMSIS/Include/cmsis_gcc.h **** 
 927:Drivers/CMSIS/Include/cmsis_gcc.h **** 
 928:Drivers/CMSIS/Include/cmsis_gcc.h **** /**
 929:Drivers/CMSIS/Include/cmsis_gcc.h ****   \brief   Reverse byte order (16 bit)
 930:Drivers/CMSIS/Include/cmsis_gcc.h ****   \details Reverses the byte order in a 16-bit value and returns the signed 16-bit result. For exam
 931:Drivers/CMSIS/Include/cmsis_gcc.h ****   \param [in]    value  Value to reverse
 932:Drivers/CMSIS/Include/cmsis_gcc.h ****   \return               Reversed value
 933:Drivers/CMSIS/Include/cmsis_gcc.h ****  */
 934:Drivers/CMSIS/Include/cmsis_gcc.h **** __STATIC_FORCEINLINE int16_t __REVSH(int16_t value)
 935:Drivers/CMSIS/Include/cmsis_gcc.h **** {
 936:Drivers/CMSIS/Include/cmsis_gcc.h **** #if (__GNUC__ > 4) || (__GNUC__ == 4 && __GNUC_MINOR__ >= 8)
 937:Drivers/CMSIS/Include/cmsis_gcc.h ****   return (int16_t)__builtin_bswap16(value);
 938:Drivers/CMSIS/Include/cmsis_gcc.h **** #else
 939:Drivers/CMSIS/Include/cmsis_gcc.h ****   int16_t result;
 940:Drivers/CMSIS/Include/cmsis_gcc.h **** 
 941:Drivers/CMSIS/Include/cmsis_gcc.h ****   __ASM volatile ("revsh %0, %1" : __CMSIS_GCC_OUT_REG (result) : __CMSIS_GCC_USE_REG (value) );
 942:Drivers/CMSIS/Include/cmsis_gcc.h ****   return result;
 943:Drivers/CMSIS/Include/cmsis_gcc.h **** #endif
 944:Drivers/CMSIS/Include/cmsis_gcc.h **** }
 945:Drivers/CMSIS/Include/cmsis_gcc.h **** 
 946:Drivers/CMSIS/Include/cmsis_gcc.h **** 
 947:Drivers/CMSIS/Include/cmsis_gcc.h **** /**
 948:Drivers/CMSIS/Include/cmsis_gcc.h ****   \brief   Rotate Right in unsigned value (32 bit)
 949:Drivers/CMSIS/Include/cmsis_gcc.h ****   \details Rotate Right (immediate) provides the value of the contents of a register rotated by a v
 950:Drivers/CMSIS/Include/cmsis_gcc.h ****   \param [in]    op1  Value to rotate
 951:Drivers/CMSIS/Include/cmsis_gcc.h ****   \param [in]    op2  Number of Bits to rotate
 952:Drivers/CMSIS/Include/cmsis_gcc.h ****   \return               Rotated value
 953:Drivers/CMSIS/Include/cmsis_gcc.h ****  */
 954:Drivers/CMSIS/Include/cmsis_gcc.h **** __STATIC_FORCEINLINE uint32_t __ROR(uint32_t op1, uint32_t op2)
 955:Drivers/CMSIS/Include/cmsis_gcc.h **** {
 956:Drivers/CMSIS/Include/cmsis_gcc.h ****   op2 %= 32U;
 957:Drivers/CMSIS/Include/cmsis_gcc.h ****   if (op2 == 0U)
 958:Drivers/CMSIS/Include/cmsis_gcc.h ****   {
 959:Drivers/CMSIS/Include/cmsis_gcc.h ****     return op1;
 960:Drivers/CMSIS/Include/cmsis_gcc.h ****   }
 961:Drivers/CMSIS/Include/cmsis_gcc.h ****   return (op1 >> op2) | (op1 << (32U - op2));
 962:Drivers/CMSIS/Include/cmsis_gcc.h **** }
 963:Drivers/CMSIS/Include/cmsis_gcc.h **** 
 964:Drivers/CMSIS/Include/cmsis_gcc.h **** 
 965:Drivers/CMSIS/Include/cmsis_gcc.h **** /**
 966:Drivers/CMSIS/Include/cmsis_gcc.h ****   \brief   Breakpoint
 967:Drivers/CMSIS/Include/cmsis_gcc.h ****   \details Causes the processor to enter Debug state.
ARM GAS  /tmp/ccQmvCRG.s 			page 23


 968:Drivers/CMSIS/Include/cmsis_gcc.h ****            Debug tools can use this to investigate system state when the instruction at a particula
 969:Drivers/CMSIS/Include/cmsis_gcc.h ****   \param [in]    value  is ignored by the processor.
 970:Drivers/CMSIS/Include/cmsis_gcc.h ****                  If required, a debugger can use it to store additional information about the break
 971:Drivers/CMSIS/Include/cmsis_gcc.h ****  */
 972:Drivers/CMSIS/Include/cmsis_gcc.h **** #define __BKPT(value)                       __ASM volatile ("bkpt "#value)
 973:Drivers/CMSIS/Include/cmsis_gcc.h **** 
 974:Drivers/CMSIS/Include/cmsis_gcc.h **** 
 975:Drivers/CMSIS/Include/cmsis_gcc.h **** /**
 976:Drivers/CMSIS/Include/cmsis_gcc.h ****   \brief   Reverse bit order of value
 977:Drivers/CMSIS/Include/cmsis_gcc.h ****   \details Reverses the bit order of the given value.
 978:Drivers/CMSIS/Include/cmsis_gcc.h ****   \param [in]    value  Value to reverse
 979:Drivers/CMSIS/Include/cmsis_gcc.h ****   \return               Reversed value
 980:Drivers/CMSIS/Include/cmsis_gcc.h ****  */
 981:Drivers/CMSIS/Include/cmsis_gcc.h **** __STATIC_FORCEINLINE uint32_t __RBIT(uint32_t value)
 982:Drivers/CMSIS/Include/cmsis_gcc.h **** {
 983:Drivers/CMSIS/Include/cmsis_gcc.h ****   uint32_t result;
 984:Drivers/CMSIS/Include/cmsis_gcc.h **** 
 985:Drivers/CMSIS/Include/cmsis_gcc.h **** #if ((defined (__ARM_ARCH_7M__      ) && (__ARM_ARCH_7M__      == 1)) || \
 986:Drivers/CMSIS/Include/cmsis_gcc.h ****      (defined (__ARM_ARCH_7EM__     ) && (__ARM_ARCH_7EM__     == 1)) || \
 987:Drivers/CMSIS/Include/cmsis_gcc.h ****      (defined (__ARM_ARCH_8M_MAIN__ ) && (__ARM_ARCH_8M_MAIN__ == 1))    )
 988:Drivers/CMSIS/Include/cmsis_gcc.h ****    __ASM volatile ("rbit %0, %1" : "=r" (result) : "r" (value) );
 989:Drivers/CMSIS/Include/cmsis_gcc.h **** #else
 990:Drivers/CMSIS/Include/cmsis_gcc.h ****   uint32_t s = (4U /*sizeof(v)*/ * 8U) - 1U; /* extra shift needed at end */
 991:Drivers/CMSIS/Include/cmsis_gcc.h **** 
 992:Drivers/CMSIS/Include/cmsis_gcc.h ****   result = value;                      /* r will be reversed bits of v; first get LSB of v */
 993:Drivers/CMSIS/Include/cmsis_gcc.h ****   for (value >>= 1U; value != 0U; value >>= 1U)
 994:Drivers/CMSIS/Include/cmsis_gcc.h ****   {
 995:Drivers/CMSIS/Include/cmsis_gcc.h ****     result <<= 1U;
 996:Drivers/CMSIS/Include/cmsis_gcc.h ****     result |= value & 1U;
 997:Drivers/CMSIS/Include/cmsis_gcc.h ****     s--;
 998:Drivers/CMSIS/Include/cmsis_gcc.h ****   }
 999:Drivers/CMSIS/Include/cmsis_gcc.h ****   result <<= s;                        /* shift when v's highest bits are zero */
1000:Drivers/CMSIS/Include/cmsis_gcc.h **** #endif
1001:Drivers/CMSIS/Include/cmsis_gcc.h ****   return result;
1002:Drivers/CMSIS/Include/cmsis_gcc.h **** }
1003:Drivers/CMSIS/Include/cmsis_gcc.h **** 
1004:Drivers/CMSIS/Include/cmsis_gcc.h **** 
1005:Drivers/CMSIS/Include/cmsis_gcc.h **** /**
1006:Drivers/CMSIS/Include/cmsis_gcc.h ****   \brief   Count leading zeros
1007:Drivers/CMSIS/Include/cmsis_gcc.h ****   \details Counts the number of leading zeros of a data value.
1008:Drivers/CMSIS/Include/cmsis_gcc.h ****   \param [in]  value  Value to count the leading zeros
1009:Drivers/CMSIS/Include/cmsis_gcc.h ****   \return             number of leading zeros in value
1010:Drivers/CMSIS/Include/cmsis_gcc.h ****  */
1011:Drivers/CMSIS/Include/cmsis_gcc.h **** #define __CLZ             (uint8_t)__builtin_clz
1012:Drivers/CMSIS/Include/cmsis_gcc.h **** 
1013:Drivers/CMSIS/Include/cmsis_gcc.h **** 
1014:Drivers/CMSIS/Include/cmsis_gcc.h **** #if ((defined (__ARM_ARCH_7M__      ) && (__ARM_ARCH_7M__      == 1)) || \
1015:Drivers/CMSIS/Include/cmsis_gcc.h ****      (defined (__ARM_ARCH_7EM__     ) && (__ARM_ARCH_7EM__     == 1)) || \
1016:Drivers/CMSIS/Include/cmsis_gcc.h ****      (defined (__ARM_ARCH_8M_MAIN__ ) && (__ARM_ARCH_8M_MAIN__ == 1)) || \
1017:Drivers/CMSIS/Include/cmsis_gcc.h ****      (defined (__ARM_ARCH_8M_BASE__ ) && (__ARM_ARCH_8M_BASE__ == 1))    )
1018:Drivers/CMSIS/Include/cmsis_gcc.h **** /**
1019:Drivers/CMSIS/Include/cmsis_gcc.h ****   \brief   LDR Exclusive (8 bit)
1020:Drivers/CMSIS/Include/cmsis_gcc.h ****   \details Executes a exclusive LDR instruction for 8 bit value.
1021:Drivers/CMSIS/Include/cmsis_gcc.h ****   \param [in]    ptr  Pointer to data
1022:Drivers/CMSIS/Include/cmsis_gcc.h ****   \return             value of type uint8_t at (*ptr)
1023:Drivers/CMSIS/Include/cmsis_gcc.h ****  */
1024:Drivers/CMSIS/Include/cmsis_gcc.h **** __STATIC_FORCEINLINE uint8_t __LDREXB(volatile uint8_t *addr)
ARM GAS  /tmp/ccQmvCRG.s 			page 24


1025:Drivers/CMSIS/Include/cmsis_gcc.h **** {
1026:Drivers/CMSIS/Include/cmsis_gcc.h ****     uint32_t result;
1027:Drivers/CMSIS/Include/cmsis_gcc.h **** 
1028:Drivers/CMSIS/Include/cmsis_gcc.h **** #if (__GNUC__ > 4) || (__GNUC__ == 4 && __GNUC_MINOR__ >= 8)
1029:Drivers/CMSIS/Include/cmsis_gcc.h ****    __ASM volatile ("ldrexb %0, %1" : "=r" (result) : "Q" (*addr) );
1030:Drivers/CMSIS/Include/cmsis_gcc.h **** #else
1031:Drivers/CMSIS/Include/cmsis_gcc.h ****     /* Prior to GCC 4.8, "Q" will be expanded to [rx, #0] which is not
1032:Drivers/CMSIS/Include/cmsis_gcc.h ****        accepted by assembler. So has to use following less efficient pattern.
1033:Drivers/CMSIS/Include/cmsis_gcc.h ****     */
1034:Drivers/CMSIS/Include/cmsis_gcc.h ****    __ASM volatile ("ldrexb %0, [%1]" : "=r" (result) : "r" (addr) : "memory" );
1035:Drivers/CMSIS/Include/cmsis_gcc.h **** #endif
1036:Drivers/CMSIS/Include/cmsis_gcc.h ****    return ((uint8_t) result);    /* Add explicit type cast here */
1037:Drivers/CMSIS/Include/cmsis_gcc.h **** }
1038:Drivers/CMSIS/Include/cmsis_gcc.h **** 
1039:Drivers/CMSIS/Include/cmsis_gcc.h **** 
1040:Drivers/CMSIS/Include/cmsis_gcc.h **** /**
1041:Drivers/CMSIS/Include/cmsis_gcc.h ****   \brief   LDR Exclusive (16 bit)
1042:Drivers/CMSIS/Include/cmsis_gcc.h ****   \details Executes a exclusive LDR instruction for 16 bit values.
1043:Drivers/CMSIS/Include/cmsis_gcc.h ****   \param [in]    ptr  Pointer to data
1044:Drivers/CMSIS/Include/cmsis_gcc.h ****   \return        value of type uint16_t at (*ptr)
1045:Drivers/CMSIS/Include/cmsis_gcc.h ****  */
1046:Drivers/CMSIS/Include/cmsis_gcc.h **** __STATIC_FORCEINLINE uint16_t __LDREXH(volatile uint16_t *addr)
1047:Drivers/CMSIS/Include/cmsis_gcc.h **** {
1048:Drivers/CMSIS/Include/cmsis_gcc.h ****     uint32_t result;
1049:Drivers/CMSIS/Include/cmsis_gcc.h **** 
1050:Drivers/CMSIS/Include/cmsis_gcc.h **** #if (__GNUC__ > 4) || (__GNUC__ == 4 && __GNUC_MINOR__ >= 8)
1051:Drivers/CMSIS/Include/cmsis_gcc.h ****    __ASM volatile ("ldrexh %0, %1" : "=r" (result) : "Q" (*addr) );
1052:Drivers/CMSIS/Include/cmsis_gcc.h **** #else
1053:Drivers/CMSIS/Include/cmsis_gcc.h ****     /* Prior to GCC 4.8, "Q" will be expanded to [rx, #0] which is not
1054:Drivers/CMSIS/Include/cmsis_gcc.h ****        accepted by assembler. So has to use following less efficient pattern.
1055:Drivers/CMSIS/Include/cmsis_gcc.h ****     */
1056:Drivers/CMSIS/Include/cmsis_gcc.h ****    __ASM volatile ("ldrexh %0, [%1]" : "=r" (result) : "r" (addr) : "memory" );
1057:Drivers/CMSIS/Include/cmsis_gcc.h **** #endif
1058:Drivers/CMSIS/Include/cmsis_gcc.h ****    return ((uint16_t) result);    /* Add explicit type cast here */
1059:Drivers/CMSIS/Include/cmsis_gcc.h **** }
1060:Drivers/CMSIS/Include/cmsis_gcc.h **** 
1061:Drivers/CMSIS/Include/cmsis_gcc.h **** 
1062:Drivers/CMSIS/Include/cmsis_gcc.h **** /**
1063:Drivers/CMSIS/Include/cmsis_gcc.h ****   \brief   LDR Exclusive (32 bit)
1064:Drivers/CMSIS/Include/cmsis_gcc.h ****   \details Executes a exclusive LDR instruction for 32 bit values.
1065:Drivers/CMSIS/Include/cmsis_gcc.h ****   \param [in]    ptr  Pointer to data
1066:Drivers/CMSIS/Include/cmsis_gcc.h ****   \return        value of type uint32_t at (*ptr)
1067:Drivers/CMSIS/Include/cmsis_gcc.h ****  */
1068:Drivers/CMSIS/Include/cmsis_gcc.h **** __STATIC_FORCEINLINE uint32_t __LDREXW(volatile uint32_t *addr)
1069:Drivers/CMSIS/Include/cmsis_gcc.h **** {
1070:Drivers/CMSIS/Include/cmsis_gcc.h ****     uint32_t result;
1071:Drivers/CMSIS/Include/cmsis_gcc.h **** 
1072:Drivers/CMSIS/Include/cmsis_gcc.h ****    __ASM volatile ("ldrex %0, %1" : "=r" (result) : "Q" (*addr) );
1073:Drivers/CMSIS/Include/cmsis_gcc.h ****    return(result);
1074:Drivers/CMSIS/Include/cmsis_gcc.h **** }
1075:Drivers/CMSIS/Include/cmsis_gcc.h **** 
1076:Drivers/CMSIS/Include/cmsis_gcc.h **** 
1077:Drivers/CMSIS/Include/cmsis_gcc.h **** /**
1078:Drivers/CMSIS/Include/cmsis_gcc.h ****   \brief   STR Exclusive (8 bit)
1079:Drivers/CMSIS/Include/cmsis_gcc.h ****   \details Executes a exclusive STR instruction for 8 bit values.
1080:Drivers/CMSIS/Include/cmsis_gcc.h ****   \param [in]  value  Value to store
1081:Drivers/CMSIS/Include/cmsis_gcc.h ****   \param [in]    ptr  Pointer to location
ARM GAS  /tmp/ccQmvCRG.s 			page 25


1082:Drivers/CMSIS/Include/cmsis_gcc.h ****   \return          0  Function succeeded
1083:Drivers/CMSIS/Include/cmsis_gcc.h ****   \return          1  Function failed
1084:Drivers/CMSIS/Include/cmsis_gcc.h ****  */
1085:Drivers/CMSIS/Include/cmsis_gcc.h **** __STATIC_FORCEINLINE uint32_t __STREXB(uint8_t value, volatile uint8_t *addr)
1086:Drivers/CMSIS/Include/cmsis_gcc.h **** {
1087:Drivers/CMSIS/Include/cmsis_gcc.h ****    uint32_t result;
1088:Drivers/CMSIS/Include/cmsis_gcc.h **** 
1089:Drivers/CMSIS/Include/cmsis_gcc.h ****    __ASM volatile ("strexb %0, %2, %1" : "=&r" (result), "=Q" (*addr) : "r" ((uint32_t)value) );
1090:Drivers/CMSIS/Include/cmsis_gcc.h ****    return(result);
1091:Drivers/CMSIS/Include/cmsis_gcc.h **** }
1092:Drivers/CMSIS/Include/cmsis_gcc.h **** 
1093:Drivers/CMSIS/Include/cmsis_gcc.h **** 
1094:Drivers/CMSIS/Include/cmsis_gcc.h **** /**
1095:Drivers/CMSIS/Include/cmsis_gcc.h ****   \brief   STR Exclusive (16 bit)
1096:Drivers/CMSIS/Include/cmsis_gcc.h ****   \details Executes a exclusive STR instruction for 16 bit values.
1097:Drivers/CMSIS/Include/cmsis_gcc.h ****   \param [in]  value  Value to store
1098:Drivers/CMSIS/Include/cmsis_gcc.h ****   \param [in]    ptr  Pointer to location
1099:Drivers/CMSIS/Include/cmsis_gcc.h ****   \return          0  Function succeeded
1100:Drivers/CMSIS/Include/cmsis_gcc.h ****   \return          1  Function failed
1101:Drivers/CMSIS/Include/cmsis_gcc.h ****  */
1102:Drivers/CMSIS/Include/cmsis_gcc.h **** __STATIC_FORCEINLINE uint32_t __STREXH(uint16_t value, volatile uint16_t *addr)
1103:Drivers/CMSIS/Include/cmsis_gcc.h **** {
1104:Drivers/CMSIS/Include/cmsis_gcc.h ****    uint32_t result;
1105:Drivers/CMSIS/Include/cmsis_gcc.h **** 
1106:Drivers/CMSIS/Include/cmsis_gcc.h ****    __ASM volatile ("strexh %0, %2, %1" : "=&r" (result), "=Q" (*addr) : "r" ((uint32_t)value) );
1107:Drivers/CMSIS/Include/cmsis_gcc.h ****    return(result);
1108:Drivers/CMSIS/Include/cmsis_gcc.h **** }
1109:Drivers/CMSIS/Include/cmsis_gcc.h **** 
1110:Drivers/CMSIS/Include/cmsis_gcc.h **** 
1111:Drivers/CMSIS/Include/cmsis_gcc.h **** /**
1112:Drivers/CMSIS/Include/cmsis_gcc.h ****   \brief   STR Exclusive (32 bit)
1113:Drivers/CMSIS/Include/cmsis_gcc.h ****   \details Executes a exclusive STR instruction for 32 bit values.
1114:Drivers/CMSIS/Include/cmsis_gcc.h ****   \param [in]  value  Value to store
1115:Drivers/CMSIS/Include/cmsis_gcc.h ****   \param [in]    ptr  Pointer to location
1116:Drivers/CMSIS/Include/cmsis_gcc.h ****   \return          0  Function succeeded
1117:Drivers/CMSIS/Include/cmsis_gcc.h ****   \return          1  Function failed
1118:Drivers/CMSIS/Include/cmsis_gcc.h ****  */
1119:Drivers/CMSIS/Include/cmsis_gcc.h **** __STATIC_FORCEINLINE uint32_t __STREXW(uint32_t value, volatile uint32_t *addr)
1120:Drivers/CMSIS/Include/cmsis_gcc.h **** {
1121:Drivers/CMSIS/Include/cmsis_gcc.h ****    uint32_t result;
1122:Drivers/CMSIS/Include/cmsis_gcc.h **** 
1123:Drivers/CMSIS/Include/cmsis_gcc.h ****    __ASM volatile ("strex %0, %2, %1" : "=&r" (result), "=Q" (*addr) : "r" (value) );
1124:Drivers/CMSIS/Include/cmsis_gcc.h ****    return(result);
1125:Drivers/CMSIS/Include/cmsis_gcc.h **** }
1126:Drivers/CMSIS/Include/cmsis_gcc.h **** 
1127:Drivers/CMSIS/Include/cmsis_gcc.h **** 
1128:Drivers/CMSIS/Include/cmsis_gcc.h **** /**
1129:Drivers/CMSIS/Include/cmsis_gcc.h ****   \brief   Remove the exclusive lock
1130:Drivers/CMSIS/Include/cmsis_gcc.h ****   \details Removes the exclusive lock which is created by LDREX.
1131:Drivers/CMSIS/Include/cmsis_gcc.h ****  */
1132:Drivers/CMSIS/Include/cmsis_gcc.h **** __STATIC_FORCEINLINE void __CLREX(void)
1133:Drivers/CMSIS/Include/cmsis_gcc.h **** {
1134:Drivers/CMSIS/Include/cmsis_gcc.h ****   __ASM volatile ("clrex" ::: "memory");
1135:Drivers/CMSIS/Include/cmsis_gcc.h **** }
1136:Drivers/CMSIS/Include/cmsis_gcc.h **** 
1137:Drivers/CMSIS/Include/cmsis_gcc.h **** #endif /* ((defined (__ARM_ARCH_7M__      ) && (__ARM_ARCH_7M__      == 1)) || \
1138:Drivers/CMSIS/Include/cmsis_gcc.h ****            (defined (__ARM_ARCH_7EM__     ) && (__ARM_ARCH_7EM__     == 1)) || \
ARM GAS  /tmp/ccQmvCRG.s 			page 26


1139:Drivers/CMSIS/Include/cmsis_gcc.h ****            (defined (__ARM_ARCH_8M_MAIN__ ) && (__ARM_ARCH_8M_MAIN__ == 1)) || \
1140:Drivers/CMSIS/Include/cmsis_gcc.h ****            (defined (__ARM_ARCH_8M_BASE__ ) && (__ARM_ARCH_8M_BASE__ == 1))    ) */
1141:Drivers/CMSIS/Include/cmsis_gcc.h **** 
1142:Drivers/CMSIS/Include/cmsis_gcc.h **** 
1143:Drivers/CMSIS/Include/cmsis_gcc.h **** #if ((defined (__ARM_ARCH_7M__      ) && (__ARM_ARCH_7M__      == 1)) || \
1144:Drivers/CMSIS/Include/cmsis_gcc.h ****      (defined (__ARM_ARCH_7EM__     ) && (__ARM_ARCH_7EM__     == 1)) || \
1145:Drivers/CMSIS/Include/cmsis_gcc.h ****      (defined (__ARM_ARCH_8M_MAIN__ ) && (__ARM_ARCH_8M_MAIN__ == 1))    )
1146:Drivers/CMSIS/Include/cmsis_gcc.h **** /**
1147:Drivers/CMSIS/Include/cmsis_gcc.h ****   \brief   Signed Saturate
1148:Drivers/CMSIS/Include/cmsis_gcc.h ****   \details Saturates a signed value.
1149:Drivers/CMSIS/Include/cmsis_gcc.h ****   \param [in]  ARG1  Value to be saturated
1150:Drivers/CMSIS/Include/cmsis_gcc.h ****   \param [in]  ARG2  Bit position to saturate to (1..32)
1151:Drivers/CMSIS/Include/cmsis_gcc.h ****   \return             Saturated value
1152:Drivers/CMSIS/Include/cmsis_gcc.h ****  */
1153:Drivers/CMSIS/Include/cmsis_gcc.h **** #define __SSAT(ARG1,ARG2) \
1154:Drivers/CMSIS/Include/cmsis_gcc.h **** __extension__ \
1155:Drivers/CMSIS/Include/cmsis_gcc.h **** ({                          \
1156:Drivers/CMSIS/Include/cmsis_gcc.h ****   int32_t __RES, __ARG1 = (ARG1); \
1157:Drivers/CMSIS/Include/cmsis_gcc.h ****   __ASM ("ssat %0, %1, %2" : "=r" (__RES) :  "I" (ARG2), "r" (__ARG1) ); \
1158:Drivers/CMSIS/Include/cmsis_gcc.h ****   __RES; \
1159:Drivers/CMSIS/Include/cmsis_gcc.h ****  })
1160:Drivers/CMSIS/Include/cmsis_gcc.h **** 
1161:Drivers/CMSIS/Include/cmsis_gcc.h **** 
1162:Drivers/CMSIS/Include/cmsis_gcc.h **** /**
1163:Drivers/CMSIS/Include/cmsis_gcc.h ****   \brief   Unsigned Saturate
1164:Drivers/CMSIS/Include/cmsis_gcc.h ****   \details Saturates an unsigned value.
1165:Drivers/CMSIS/Include/cmsis_gcc.h ****   \param [in]  ARG1  Value to be saturated
1166:Drivers/CMSIS/Include/cmsis_gcc.h ****   \param [in]  ARG2  Bit position to saturate to (0..31)
1167:Drivers/CMSIS/Include/cmsis_gcc.h ****   \return             Saturated value
1168:Drivers/CMSIS/Include/cmsis_gcc.h ****  */
1169:Drivers/CMSIS/Include/cmsis_gcc.h **** #define __USAT(ARG1,ARG2) \
1170:Drivers/CMSIS/Include/cmsis_gcc.h ****  __extension__ \
1171:Drivers/CMSIS/Include/cmsis_gcc.h **** ({                          \
1172:Drivers/CMSIS/Include/cmsis_gcc.h ****   uint32_t __RES, __ARG1 = (ARG1); \
1173:Drivers/CMSIS/Include/cmsis_gcc.h ****   __ASM ("usat %0, %1, %2" : "=r" (__RES) :  "I" (ARG2), "r" (__ARG1) ); \
1174:Drivers/CMSIS/Include/cmsis_gcc.h ****   __RES; \
1175:Drivers/CMSIS/Include/cmsis_gcc.h ****  })
1176:Drivers/CMSIS/Include/cmsis_gcc.h **** 
1177:Drivers/CMSIS/Include/cmsis_gcc.h **** 
1178:Drivers/CMSIS/Include/cmsis_gcc.h **** /**
1179:Drivers/CMSIS/Include/cmsis_gcc.h ****   \brief   Rotate Right with Extend (32 bit)
1180:Drivers/CMSIS/Include/cmsis_gcc.h ****   \details Moves each bit of a bitstring right by one bit.
1181:Drivers/CMSIS/Include/cmsis_gcc.h ****            The carry input is shifted in at the left end of the bitstring.
1182:Drivers/CMSIS/Include/cmsis_gcc.h ****   \param [in]    value  Value to rotate
1183:Drivers/CMSIS/Include/cmsis_gcc.h ****   \return               Rotated value
1184:Drivers/CMSIS/Include/cmsis_gcc.h ****  */
1185:Drivers/CMSIS/Include/cmsis_gcc.h **** __STATIC_FORCEINLINE uint32_t __RRX(uint32_t value)
1186:Drivers/CMSIS/Include/cmsis_gcc.h **** {
1187:Drivers/CMSIS/Include/cmsis_gcc.h ****   uint32_t result;
1188:Drivers/CMSIS/Include/cmsis_gcc.h **** 
1189:Drivers/CMSIS/Include/cmsis_gcc.h ****   __ASM volatile ("rrx %0, %1" : __CMSIS_GCC_OUT_REG (result) : __CMSIS_GCC_USE_REG (value) );
1190:Drivers/CMSIS/Include/cmsis_gcc.h ****   return(result);
1191:Drivers/CMSIS/Include/cmsis_gcc.h **** }
1192:Drivers/CMSIS/Include/cmsis_gcc.h **** 
1193:Drivers/CMSIS/Include/cmsis_gcc.h **** 
1194:Drivers/CMSIS/Include/cmsis_gcc.h **** /**
1195:Drivers/CMSIS/Include/cmsis_gcc.h ****   \brief   LDRT Unprivileged (8 bit)
ARM GAS  /tmp/ccQmvCRG.s 			page 27


1196:Drivers/CMSIS/Include/cmsis_gcc.h ****   \details Executes a Unprivileged LDRT instruction for 8 bit value.
1197:Drivers/CMSIS/Include/cmsis_gcc.h ****   \param [in]    ptr  Pointer to data
1198:Drivers/CMSIS/Include/cmsis_gcc.h ****   \return             value of type uint8_t at (*ptr)
1199:Drivers/CMSIS/Include/cmsis_gcc.h ****  */
1200:Drivers/CMSIS/Include/cmsis_gcc.h **** __STATIC_FORCEINLINE uint8_t __LDRBT(volatile uint8_t *ptr)
1201:Drivers/CMSIS/Include/cmsis_gcc.h **** {
1202:Drivers/CMSIS/Include/cmsis_gcc.h ****     uint32_t result;
1203:Drivers/CMSIS/Include/cmsis_gcc.h **** 
1204:Drivers/CMSIS/Include/cmsis_gcc.h **** #if (__GNUC__ > 4) || (__GNUC__ == 4 && __GNUC_MINOR__ >= 8)
1205:Drivers/CMSIS/Include/cmsis_gcc.h ****    __ASM volatile ("ldrbt %0, %1" : "=r" (result) : "Q" (*ptr) );
1206:Drivers/CMSIS/Include/cmsis_gcc.h **** #else
1207:Drivers/CMSIS/Include/cmsis_gcc.h ****     /* Prior to GCC 4.8, "Q" will be expanded to [rx, #0] which is not
1208:Drivers/CMSIS/Include/cmsis_gcc.h ****        accepted by assembler. So has to use following less efficient pattern.
1209:Drivers/CMSIS/Include/cmsis_gcc.h ****     */
1210:Drivers/CMSIS/Include/cmsis_gcc.h ****    __ASM volatile ("ldrbt %0, [%1]" : "=r" (result) : "r" (ptr) : "memory" );
1211:Drivers/CMSIS/Include/cmsis_gcc.h **** #endif
1212:Drivers/CMSIS/Include/cmsis_gcc.h ****    return ((uint8_t) result);    /* Add explicit type cast here */
1213:Drivers/CMSIS/Include/cmsis_gcc.h **** }
1214:Drivers/CMSIS/Include/cmsis_gcc.h **** 
1215:Drivers/CMSIS/Include/cmsis_gcc.h **** 
1216:Drivers/CMSIS/Include/cmsis_gcc.h **** /**
1217:Drivers/CMSIS/Include/cmsis_gcc.h ****   \brief   LDRT Unprivileged (16 bit)
1218:Drivers/CMSIS/Include/cmsis_gcc.h ****   \details Executes a Unprivileged LDRT instruction for 16 bit values.
1219:Drivers/CMSIS/Include/cmsis_gcc.h ****   \param [in]    ptr  Pointer to data
1220:Drivers/CMSIS/Include/cmsis_gcc.h ****   \return        value of type uint16_t at (*ptr)
1221:Drivers/CMSIS/Include/cmsis_gcc.h ****  */
1222:Drivers/CMSIS/Include/cmsis_gcc.h **** __STATIC_FORCEINLINE uint16_t __LDRHT(volatile uint16_t *ptr)
1223:Drivers/CMSIS/Include/cmsis_gcc.h **** {
1224:Drivers/CMSIS/Include/cmsis_gcc.h ****     uint32_t result;
1225:Drivers/CMSIS/Include/cmsis_gcc.h **** 
1226:Drivers/CMSIS/Include/cmsis_gcc.h **** #if (__GNUC__ > 4) || (__GNUC__ == 4 && __GNUC_MINOR__ >= 8)
1227:Drivers/CMSIS/Include/cmsis_gcc.h ****    __ASM volatile ("ldrht %0, %1" : "=r" (result) : "Q" (*ptr) );
1228:Drivers/CMSIS/Include/cmsis_gcc.h **** #else
1229:Drivers/CMSIS/Include/cmsis_gcc.h ****     /* Prior to GCC 4.8, "Q" will be expanded to [rx, #0] which is not
1230:Drivers/CMSIS/Include/cmsis_gcc.h ****        accepted by assembler. So has to use following less efficient pattern.
1231:Drivers/CMSIS/Include/cmsis_gcc.h ****     */
1232:Drivers/CMSIS/Include/cmsis_gcc.h ****    __ASM volatile ("ldrht %0, [%1]" : "=r" (result) : "r" (ptr) : "memory" );
1233:Drivers/CMSIS/Include/cmsis_gcc.h **** #endif
1234:Drivers/CMSIS/Include/cmsis_gcc.h ****    return ((uint16_t) result);    /* Add explicit type cast here */
1235:Drivers/CMSIS/Include/cmsis_gcc.h **** }
1236:Drivers/CMSIS/Include/cmsis_gcc.h **** 
1237:Drivers/CMSIS/Include/cmsis_gcc.h **** 
1238:Drivers/CMSIS/Include/cmsis_gcc.h **** /**
1239:Drivers/CMSIS/Include/cmsis_gcc.h ****   \brief   LDRT Unprivileged (32 bit)
1240:Drivers/CMSIS/Include/cmsis_gcc.h ****   \details Executes a Unprivileged LDRT instruction for 32 bit values.
1241:Drivers/CMSIS/Include/cmsis_gcc.h ****   \param [in]    ptr  Pointer to data
1242:Drivers/CMSIS/Include/cmsis_gcc.h ****   \return        value of type uint32_t at (*ptr)
1243:Drivers/CMSIS/Include/cmsis_gcc.h ****  */
1244:Drivers/CMSIS/Include/cmsis_gcc.h **** __STATIC_FORCEINLINE uint32_t __LDRT(volatile uint32_t *ptr)
1245:Drivers/CMSIS/Include/cmsis_gcc.h **** {
1246:Drivers/CMSIS/Include/cmsis_gcc.h ****     uint32_t result;
1247:Drivers/CMSIS/Include/cmsis_gcc.h **** 
1248:Drivers/CMSIS/Include/cmsis_gcc.h ****    __ASM volatile ("ldrt %0, %1" : "=r" (result) : "Q" (*ptr) );
1249:Drivers/CMSIS/Include/cmsis_gcc.h ****    return(result);
1250:Drivers/CMSIS/Include/cmsis_gcc.h **** }
1251:Drivers/CMSIS/Include/cmsis_gcc.h **** 
1252:Drivers/CMSIS/Include/cmsis_gcc.h **** 
ARM GAS  /tmp/ccQmvCRG.s 			page 28


1253:Drivers/CMSIS/Include/cmsis_gcc.h **** /**
1254:Drivers/CMSIS/Include/cmsis_gcc.h ****   \brief   STRT Unprivileged (8 bit)
1255:Drivers/CMSIS/Include/cmsis_gcc.h ****   \details Executes a Unprivileged STRT instruction for 8 bit values.
1256:Drivers/CMSIS/Include/cmsis_gcc.h ****   \param [in]  value  Value to store
1257:Drivers/CMSIS/Include/cmsis_gcc.h ****   \param [in]    ptr  Pointer to location
1258:Drivers/CMSIS/Include/cmsis_gcc.h ****  */
1259:Drivers/CMSIS/Include/cmsis_gcc.h **** __STATIC_FORCEINLINE void __STRBT(uint8_t value, volatile uint8_t *ptr)
1260:Drivers/CMSIS/Include/cmsis_gcc.h **** {
1261:Drivers/CMSIS/Include/cmsis_gcc.h ****    __ASM volatile ("strbt %1, %0" : "=Q" (*ptr) : "r" ((uint32_t)value) );
1262:Drivers/CMSIS/Include/cmsis_gcc.h **** }
1263:Drivers/CMSIS/Include/cmsis_gcc.h **** 
1264:Drivers/CMSIS/Include/cmsis_gcc.h **** 
1265:Drivers/CMSIS/Include/cmsis_gcc.h **** /**
1266:Drivers/CMSIS/Include/cmsis_gcc.h ****   \brief   STRT Unprivileged (16 bit)
1267:Drivers/CMSIS/Include/cmsis_gcc.h ****   \details Executes a Unprivileged STRT instruction for 16 bit values.
1268:Drivers/CMSIS/Include/cmsis_gcc.h ****   \param [in]  value  Value to store
1269:Drivers/CMSIS/Include/cmsis_gcc.h ****   \param [in]    ptr  Pointer to location
1270:Drivers/CMSIS/Include/cmsis_gcc.h ****  */
1271:Drivers/CMSIS/Include/cmsis_gcc.h **** __STATIC_FORCEINLINE void __STRHT(uint16_t value, volatile uint16_t *ptr)
1272:Drivers/CMSIS/Include/cmsis_gcc.h **** {
1273:Drivers/CMSIS/Include/cmsis_gcc.h ****    __ASM volatile ("strht %1, %0" : "=Q" (*ptr) : "r" ((uint32_t)value) );
1274:Drivers/CMSIS/Include/cmsis_gcc.h **** }
1275:Drivers/CMSIS/Include/cmsis_gcc.h **** 
1276:Drivers/CMSIS/Include/cmsis_gcc.h **** 
1277:Drivers/CMSIS/Include/cmsis_gcc.h **** /**
1278:Drivers/CMSIS/Include/cmsis_gcc.h ****   \brief   STRT Unprivileged (32 bit)
1279:Drivers/CMSIS/Include/cmsis_gcc.h ****   \details Executes a Unprivileged STRT instruction for 32 bit values.
1280:Drivers/CMSIS/Include/cmsis_gcc.h ****   \param [in]  value  Value to store
1281:Drivers/CMSIS/Include/cmsis_gcc.h ****   \param [in]    ptr  Pointer to location
1282:Drivers/CMSIS/Include/cmsis_gcc.h ****  */
1283:Drivers/CMSIS/Include/cmsis_gcc.h **** __STATIC_FORCEINLINE void __STRT(uint32_t value, volatile uint32_t *ptr)
1284:Drivers/CMSIS/Include/cmsis_gcc.h **** {
1285:Drivers/CMSIS/Include/cmsis_gcc.h ****    __ASM volatile ("strt %1, %0" : "=Q" (*ptr) : "r" (value) );
1286:Drivers/CMSIS/Include/cmsis_gcc.h **** }
1287:Drivers/CMSIS/Include/cmsis_gcc.h **** 
1288:Drivers/CMSIS/Include/cmsis_gcc.h **** #else  /* ((defined (__ARM_ARCH_7M__      ) && (__ARM_ARCH_7M__      == 1)) || \
1289:Drivers/CMSIS/Include/cmsis_gcc.h ****            (defined (__ARM_ARCH_7EM__     ) && (__ARM_ARCH_7EM__     == 1)) || \
1290:Drivers/CMSIS/Include/cmsis_gcc.h ****            (defined (__ARM_ARCH_8M_MAIN__ ) && (__ARM_ARCH_8M_MAIN__ == 1))    ) */
1291:Drivers/CMSIS/Include/cmsis_gcc.h **** 
1292:Drivers/CMSIS/Include/cmsis_gcc.h **** /**
1293:Drivers/CMSIS/Include/cmsis_gcc.h ****   \brief   Signed Saturate
1294:Drivers/CMSIS/Include/cmsis_gcc.h ****   \details Saturates a signed value.
1295:Drivers/CMSIS/Include/cmsis_gcc.h ****   \param [in]  value  Value to be saturated
1296:Drivers/CMSIS/Include/cmsis_gcc.h ****   \param [in]    sat  Bit position to saturate to (1..32)
1297:Drivers/CMSIS/Include/cmsis_gcc.h ****   \return             Saturated value
1298:Drivers/CMSIS/Include/cmsis_gcc.h ****  */
1299:Drivers/CMSIS/Include/cmsis_gcc.h **** __STATIC_FORCEINLINE int32_t __SSAT(int32_t val, uint32_t sat)
1300:Drivers/CMSIS/Include/cmsis_gcc.h **** {
1301:Drivers/CMSIS/Include/cmsis_gcc.h ****   if ((sat >= 1U) && (sat <= 32U))
1302:Drivers/CMSIS/Include/cmsis_gcc.h ****   {
1303:Drivers/CMSIS/Include/cmsis_gcc.h ****     const int32_t max = (int32_t)((1U << (sat - 1U)) - 1U);
1304:Drivers/CMSIS/Include/cmsis_gcc.h ****     const int32_t min = -1 - max ;
1305:Drivers/CMSIS/Include/cmsis_gcc.h ****     if (val > max)
1306:Drivers/CMSIS/Include/cmsis_gcc.h ****     {
1307:Drivers/CMSIS/Include/cmsis_gcc.h ****       return max;
1308:Drivers/CMSIS/Include/cmsis_gcc.h ****     }
1309:Drivers/CMSIS/Include/cmsis_gcc.h ****     else if (val < min)
ARM GAS  /tmp/ccQmvCRG.s 			page 29


1310:Drivers/CMSIS/Include/cmsis_gcc.h ****     {
1311:Drivers/CMSIS/Include/cmsis_gcc.h ****       return min;
1312:Drivers/CMSIS/Include/cmsis_gcc.h ****     }
1313:Drivers/CMSIS/Include/cmsis_gcc.h ****   }
1314:Drivers/CMSIS/Include/cmsis_gcc.h ****   return val;
1315:Drivers/CMSIS/Include/cmsis_gcc.h **** }
1316:Drivers/CMSIS/Include/cmsis_gcc.h **** 
1317:Drivers/CMSIS/Include/cmsis_gcc.h **** /**
1318:Drivers/CMSIS/Include/cmsis_gcc.h ****   \brief   Unsigned Saturate
1319:Drivers/CMSIS/Include/cmsis_gcc.h ****   \details Saturates an unsigned value.
1320:Drivers/CMSIS/Include/cmsis_gcc.h ****   \param [in]  value  Value to be saturated
1321:Drivers/CMSIS/Include/cmsis_gcc.h ****   \param [in]    sat  Bit position to saturate to (0..31)
1322:Drivers/CMSIS/Include/cmsis_gcc.h ****   \return             Saturated value
1323:Drivers/CMSIS/Include/cmsis_gcc.h ****  */
1324:Drivers/CMSIS/Include/cmsis_gcc.h **** __STATIC_FORCEINLINE uint32_t __USAT(int32_t val, uint32_t sat)
1325:Drivers/CMSIS/Include/cmsis_gcc.h **** {
1326:Drivers/CMSIS/Include/cmsis_gcc.h ****   if (sat <= 31U)
1327:Drivers/CMSIS/Include/cmsis_gcc.h ****   {
1328:Drivers/CMSIS/Include/cmsis_gcc.h ****     const uint32_t max = ((1U << sat) - 1U);
1329:Drivers/CMSIS/Include/cmsis_gcc.h ****     if (val > (int32_t)max)
1330:Drivers/CMSIS/Include/cmsis_gcc.h ****     {
1331:Drivers/CMSIS/Include/cmsis_gcc.h ****       return max;
1332:Drivers/CMSIS/Include/cmsis_gcc.h ****     }
1333:Drivers/CMSIS/Include/cmsis_gcc.h ****     else if (val < 0)
1334:Drivers/CMSIS/Include/cmsis_gcc.h ****     {
1335:Drivers/CMSIS/Include/cmsis_gcc.h ****       return 0U;
1336:Drivers/CMSIS/Include/cmsis_gcc.h ****     }
1337:Drivers/CMSIS/Include/cmsis_gcc.h ****   }
1338:Drivers/CMSIS/Include/cmsis_gcc.h ****   return (uint32_t)val;
1339:Drivers/CMSIS/Include/cmsis_gcc.h **** }
1340:Drivers/CMSIS/Include/cmsis_gcc.h **** 
1341:Drivers/CMSIS/Include/cmsis_gcc.h **** #endif /* ((defined (__ARM_ARCH_7M__      ) && (__ARM_ARCH_7M__      == 1)) || \
1342:Drivers/CMSIS/Include/cmsis_gcc.h ****            (defined (__ARM_ARCH_7EM__     ) && (__ARM_ARCH_7EM__     == 1)) || \
1343:Drivers/CMSIS/Include/cmsis_gcc.h ****            (defined (__ARM_ARCH_8M_MAIN__ ) && (__ARM_ARCH_8M_MAIN__ == 1))    ) */
1344:Drivers/CMSIS/Include/cmsis_gcc.h **** 
1345:Drivers/CMSIS/Include/cmsis_gcc.h **** 
1346:Drivers/CMSIS/Include/cmsis_gcc.h **** #if ((defined (__ARM_ARCH_8M_MAIN__ ) && (__ARM_ARCH_8M_MAIN__ == 1)) || \
1347:Drivers/CMSIS/Include/cmsis_gcc.h ****      (defined (__ARM_ARCH_8M_BASE__ ) && (__ARM_ARCH_8M_BASE__ == 1))    )
1348:Drivers/CMSIS/Include/cmsis_gcc.h **** /**
1349:Drivers/CMSIS/Include/cmsis_gcc.h ****   \brief   Load-Acquire (8 bit)
1350:Drivers/CMSIS/Include/cmsis_gcc.h ****   \details Executes a LDAB instruction for 8 bit value.
1351:Drivers/CMSIS/Include/cmsis_gcc.h ****   \param [in]    ptr  Pointer to data
1352:Drivers/CMSIS/Include/cmsis_gcc.h ****   \return             value of type uint8_t at (*ptr)
1353:Drivers/CMSIS/Include/cmsis_gcc.h ****  */
1354:Drivers/CMSIS/Include/cmsis_gcc.h **** __STATIC_FORCEINLINE uint8_t __LDAB(volatile uint8_t *ptr)
1355:Drivers/CMSIS/Include/cmsis_gcc.h **** {
1356:Drivers/CMSIS/Include/cmsis_gcc.h ****     uint32_t result;
1357:Drivers/CMSIS/Include/cmsis_gcc.h **** 
1358:Drivers/CMSIS/Include/cmsis_gcc.h ****    __ASM volatile ("ldab %0, %1" : "=r" (result) : "Q" (*ptr) );
1359:Drivers/CMSIS/Include/cmsis_gcc.h ****    return ((uint8_t) result);
1360:Drivers/CMSIS/Include/cmsis_gcc.h **** }
1361:Drivers/CMSIS/Include/cmsis_gcc.h **** 
1362:Drivers/CMSIS/Include/cmsis_gcc.h **** 
1363:Drivers/CMSIS/Include/cmsis_gcc.h **** /**
1364:Drivers/CMSIS/Include/cmsis_gcc.h ****   \brief   Load-Acquire (16 bit)
1365:Drivers/CMSIS/Include/cmsis_gcc.h ****   \details Executes a LDAH instruction for 16 bit values.
1366:Drivers/CMSIS/Include/cmsis_gcc.h ****   \param [in]    ptr  Pointer to data
ARM GAS  /tmp/ccQmvCRG.s 			page 30


1367:Drivers/CMSIS/Include/cmsis_gcc.h ****   \return        value of type uint16_t at (*ptr)
1368:Drivers/CMSIS/Include/cmsis_gcc.h ****  */
1369:Drivers/CMSIS/Include/cmsis_gcc.h **** __STATIC_FORCEINLINE uint16_t __LDAH(volatile uint16_t *ptr)
1370:Drivers/CMSIS/Include/cmsis_gcc.h **** {
1371:Drivers/CMSIS/Include/cmsis_gcc.h ****     uint32_t result;
1372:Drivers/CMSIS/Include/cmsis_gcc.h **** 
1373:Drivers/CMSIS/Include/cmsis_gcc.h ****    __ASM volatile ("ldah %0, %1" : "=r" (result) : "Q" (*ptr) );
1374:Drivers/CMSIS/Include/cmsis_gcc.h ****    return ((uint16_t) result);
1375:Drivers/CMSIS/Include/cmsis_gcc.h **** }
1376:Drivers/CMSIS/Include/cmsis_gcc.h **** 
1377:Drivers/CMSIS/Include/cmsis_gcc.h **** 
1378:Drivers/CMSIS/Include/cmsis_gcc.h **** /**
1379:Drivers/CMSIS/Include/cmsis_gcc.h ****   \brief   Load-Acquire (32 bit)
1380:Drivers/CMSIS/Include/cmsis_gcc.h ****   \details Executes a LDA instruction for 32 bit values.
1381:Drivers/CMSIS/Include/cmsis_gcc.h ****   \param [in]    ptr  Pointer to data
1382:Drivers/CMSIS/Include/cmsis_gcc.h ****   \return        value of type uint32_t at (*ptr)
1383:Drivers/CMSIS/Include/cmsis_gcc.h ****  */
1384:Drivers/CMSIS/Include/cmsis_gcc.h **** __STATIC_FORCEINLINE uint32_t __LDA(volatile uint32_t *ptr)
1385:Drivers/CMSIS/Include/cmsis_gcc.h **** {
1386:Drivers/CMSIS/Include/cmsis_gcc.h ****     uint32_t result;
1387:Drivers/CMSIS/Include/cmsis_gcc.h **** 
1388:Drivers/CMSIS/Include/cmsis_gcc.h ****    __ASM volatile ("lda %0, %1" : "=r" (result) : "Q" (*ptr) );
1389:Drivers/CMSIS/Include/cmsis_gcc.h ****    return(result);
1390:Drivers/CMSIS/Include/cmsis_gcc.h **** }
1391:Drivers/CMSIS/Include/cmsis_gcc.h **** 
1392:Drivers/CMSIS/Include/cmsis_gcc.h **** 
1393:Drivers/CMSIS/Include/cmsis_gcc.h **** /**
1394:Drivers/CMSIS/Include/cmsis_gcc.h ****   \brief   Store-Release (8 bit)
1395:Drivers/CMSIS/Include/cmsis_gcc.h ****   \details Executes a STLB instruction for 8 bit values.
1396:Drivers/CMSIS/Include/cmsis_gcc.h ****   \param [in]  value  Value to store
1397:Drivers/CMSIS/Include/cmsis_gcc.h ****   \param [in]    ptr  Pointer to location
1398:Drivers/CMSIS/Include/cmsis_gcc.h ****  */
1399:Drivers/CMSIS/Include/cmsis_gcc.h **** __STATIC_FORCEINLINE void __STLB(uint8_t value, volatile uint8_t *ptr)
1400:Drivers/CMSIS/Include/cmsis_gcc.h **** {
1401:Drivers/CMSIS/Include/cmsis_gcc.h ****    __ASM volatile ("stlb %1, %0" : "=Q" (*ptr) : "r" ((uint32_t)value) );
1402:Drivers/CMSIS/Include/cmsis_gcc.h **** }
1403:Drivers/CMSIS/Include/cmsis_gcc.h **** 
1404:Drivers/CMSIS/Include/cmsis_gcc.h **** 
1405:Drivers/CMSIS/Include/cmsis_gcc.h **** /**
1406:Drivers/CMSIS/Include/cmsis_gcc.h ****   \brief   Store-Release (16 bit)
1407:Drivers/CMSIS/Include/cmsis_gcc.h ****   \details Executes a STLH instruction for 16 bit values.
1408:Drivers/CMSIS/Include/cmsis_gcc.h ****   \param [in]  value  Value to store
1409:Drivers/CMSIS/Include/cmsis_gcc.h ****   \param [in]    ptr  Pointer to location
1410:Drivers/CMSIS/Include/cmsis_gcc.h ****  */
1411:Drivers/CMSIS/Include/cmsis_gcc.h **** __STATIC_FORCEINLINE void __STLH(uint16_t value, volatile uint16_t *ptr)
1412:Drivers/CMSIS/Include/cmsis_gcc.h **** {
1413:Drivers/CMSIS/Include/cmsis_gcc.h ****    __ASM volatile ("stlh %1, %0" : "=Q" (*ptr) : "r" ((uint32_t)value) );
1414:Drivers/CMSIS/Include/cmsis_gcc.h **** }
1415:Drivers/CMSIS/Include/cmsis_gcc.h **** 
1416:Drivers/CMSIS/Include/cmsis_gcc.h **** 
1417:Drivers/CMSIS/Include/cmsis_gcc.h **** /**
1418:Drivers/CMSIS/Include/cmsis_gcc.h ****   \brief   Store-Release (32 bit)
1419:Drivers/CMSIS/Include/cmsis_gcc.h ****   \details Executes a STL instruction for 32 bit values.
1420:Drivers/CMSIS/Include/cmsis_gcc.h ****   \param [in]  value  Value to store
1421:Drivers/CMSIS/Include/cmsis_gcc.h ****   \param [in]    ptr  Pointer to location
1422:Drivers/CMSIS/Include/cmsis_gcc.h ****  */
1423:Drivers/CMSIS/Include/cmsis_gcc.h **** __STATIC_FORCEINLINE void __STL(uint32_t value, volatile uint32_t *ptr)
ARM GAS  /tmp/ccQmvCRG.s 			page 31


1424:Drivers/CMSIS/Include/cmsis_gcc.h **** {
1425:Drivers/CMSIS/Include/cmsis_gcc.h ****    __ASM volatile ("stl %1, %0" : "=Q" (*ptr) : "r" ((uint32_t)value) );
1426:Drivers/CMSIS/Include/cmsis_gcc.h **** }
1427:Drivers/CMSIS/Include/cmsis_gcc.h **** 
1428:Drivers/CMSIS/Include/cmsis_gcc.h **** 
1429:Drivers/CMSIS/Include/cmsis_gcc.h **** /**
1430:Drivers/CMSIS/Include/cmsis_gcc.h ****   \brief   Load-Acquire Exclusive (8 bit)
1431:Drivers/CMSIS/Include/cmsis_gcc.h ****   \details Executes a LDAB exclusive instruction for 8 bit value.
1432:Drivers/CMSIS/Include/cmsis_gcc.h ****   \param [in]    ptr  Pointer to data
1433:Drivers/CMSIS/Include/cmsis_gcc.h ****   \return             value of type uint8_t at (*ptr)
1434:Drivers/CMSIS/Include/cmsis_gcc.h ****  */
1435:Drivers/CMSIS/Include/cmsis_gcc.h **** __STATIC_FORCEINLINE uint8_t __LDAEXB(volatile uint8_t *ptr)
1436:Drivers/CMSIS/Include/cmsis_gcc.h **** {
1437:Drivers/CMSIS/Include/cmsis_gcc.h ****     uint32_t result;
1438:Drivers/CMSIS/Include/cmsis_gcc.h **** 
1439:Drivers/CMSIS/Include/cmsis_gcc.h ****    __ASM volatile ("ldaexb %0, %1" : "=r" (result) : "Q" (*ptr) );
1440:Drivers/CMSIS/Include/cmsis_gcc.h ****    return ((uint8_t) result);
1441:Drivers/CMSIS/Include/cmsis_gcc.h **** }
1442:Drivers/CMSIS/Include/cmsis_gcc.h **** 
1443:Drivers/CMSIS/Include/cmsis_gcc.h **** 
1444:Drivers/CMSIS/Include/cmsis_gcc.h **** /**
1445:Drivers/CMSIS/Include/cmsis_gcc.h ****   \brief   Load-Acquire Exclusive (16 bit)
1446:Drivers/CMSIS/Include/cmsis_gcc.h ****   \details Executes a LDAH exclusive instruction for 16 bit values.
1447:Drivers/CMSIS/Include/cmsis_gcc.h ****   \param [in]    ptr  Pointer to data
1448:Drivers/CMSIS/Include/cmsis_gcc.h ****   \return        value of type uint16_t at (*ptr)
1449:Drivers/CMSIS/Include/cmsis_gcc.h ****  */
1450:Drivers/CMSIS/Include/cmsis_gcc.h **** __STATIC_FORCEINLINE uint16_t __LDAEXH(volatile uint16_t *ptr)
1451:Drivers/CMSIS/Include/cmsis_gcc.h **** {
1452:Drivers/CMSIS/Include/cmsis_gcc.h ****     uint32_t result;
1453:Drivers/CMSIS/Include/cmsis_gcc.h **** 
1454:Drivers/CMSIS/Include/cmsis_gcc.h ****    __ASM volatile ("ldaexh %0, %1" : "=r" (result) : "Q" (*ptr) );
1455:Drivers/CMSIS/Include/cmsis_gcc.h ****    return ((uint16_t) result);
1456:Drivers/CMSIS/Include/cmsis_gcc.h **** }
1457:Drivers/CMSIS/Include/cmsis_gcc.h **** 
1458:Drivers/CMSIS/Include/cmsis_gcc.h **** 
1459:Drivers/CMSIS/Include/cmsis_gcc.h **** /**
1460:Drivers/CMSIS/Include/cmsis_gcc.h ****   \brief   Load-Acquire Exclusive (32 bit)
1461:Drivers/CMSIS/Include/cmsis_gcc.h ****   \details Executes a LDA exclusive instruction for 32 bit values.
1462:Drivers/CMSIS/Include/cmsis_gcc.h ****   \param [in]    ptr  Pointer to data
1463:Drivers/CMSIS/Include/cmsis_gcc.h ****   \return        value of type uint32_t at (*ptr)
1464:Drivers/CMSIS/Include/cmsis_gcc.h ****  */
1465:Drivers/CMSIS/Include/cmsis_gcc.h **** __STATIC_FORCEINLINE uint32_t __LDAEX(volatile uint32_t *ptr)
1466:Drivers/CMSIS/Include/cmsis_gcc.h **** {
1467:Drivers/CMSIS/Include/cmsis_gcc.h ****     uint32_t result;
1468:Drivers/CMSIS/Include/cmsis_gcc.h **** 
1469:Drivers/CMSIS/Include/cmsis_gcc.h ****    __ASM volatile ("ldaex %0, %1" : "=r" (result) : "Q" (*ptr) );
1470:Drivers/CMSIS/Include/cmsis_gcc.h ****    return(result);
1471:Drivers/CMSIS/Include/cmsis_gcc.h **** }
1472:Drivers/CMSIS/Include/cmsis_gcc.h **** 
1473:Drivers/CMSIS/Include/cmsis_gcc.h **** 
1474:Drivers/CMSIS/Include/cmsis_gcc.h **** /**
1475:Drivers/CMSIS/Include/cmsis_gcc.h ****   \brief   Store-Release Exclusive (8 bit)
1476:Drivers/CMSIS/Include/cmsis_gcc.h ****   \details Executes a STLB exclusive instruction for 8 bit values.
1477:Drivers/CMSIS/Include/cmsis_gcc.h ****   \param [in]  value  Value to store
1478:Drivers/CMSIS/Include/cmsis_gcc.h ****   \param [in]    ptr  Pointer to location
1479:Drivers/CMSIS/Include/cmsis_gcc.h ****   \return          0  Function succeeded
1480:Drivers/CMSIS/Include/cmsis_gcc.h ****   \return          1  Function failed
ARM GAS  /tmp/ccQmvCRG.s 			page 32


1481:Drivers/CMSIS/Include/cmsis_gcc.h ****  */
1482:Drivers/CMSIS/Include/cmsis_gcc.h **** __STATIC_FORCEINLINE uint32_t __STLEXB(uint8_t value, volatile uint8_t *ptr)
1483:Drivers/CMSIS/Include/cmsis_gcc.h **** {
1484:Drivers/CMSIS/Include/cmsis_gcc.h ****    uint32_t result;
1485:Drivers/CMSIS/Include/cmsis_gcc.h **** 
1486:Drivers/CMSIS/Include/cmsis_gcc.h ****    __ASM volatile ("stlexb %0, %2, %1" : "=&r" (result), "=Q" (*ptr) : "r" ((uint32_t)value) );
1487:Drivers/CMSIS/Include/cmsis_gcc.h ****    return(result);
1488:Drivers/CMSIS/Include/cmsis_gcc.h **** }
1489:Drivers/CMSIS/Include/cmsis_gcc.h **** 
1490:Drivers/CMSIS/Include/cmsis_gcc.h **** 
1491:Drivers/CMSIS/Include/cmsis_gcc.h **** /**
1492:Drivers/CMSIS/Include/cmsis_gcc.h ****   \brief   Store-Release Exclusive (16 bit)
1493:Drivers/CMSIS/Include/cmsis_gcc.h ****   \details Executes a STLH exclusive instruction for 16 bit values.
1494:Drivers/CMSIS/Include/cmsis_gcc.h ****   \param [in]  value  Value to store
1495:Drivers/CMSIS/Include/cmsis_gcc.h ****   \param [in]    ptr  Pointer to location
1496:Drivers/CMSIS/Include/cmsis_gcc.h ****   \return          0  Function succeeded
1497:Drivers/CMSIS/Include/cmsis_gcc.h ****   \return          1  Function failed
1498:Drivers/CMSIS/Include/cmsis_gcc.h ****  */
1499:Drivers/CMSIS/Include/cmsis_gcc.h **** __STATIC_FORCEINLINE uint32_t __STLEXH(uint16_t value, volatile uint16_t *ptr)
1500:Drivers/CMSIS/Include/cmsis_gcc.h **** {
1501:Drivers/CMSIS/Include/cmsis_gcc.h ****    uint32_t result;
1502:Drivers/CMSIS/Include/cmsis_gcc.h **** 
1503:Drivers/CMSIS/Include/cmsis_gcc.h ****    __ASM volatile ("stlexh %0, %2, %1" : "=&r" (result), "=Q" (*ptr) : "r" ((uint32_t)value) );
1504:Drivers/CMSIS/Include/cmsis_gcc.h ****    return(result);
1505:Drivers/CMSIS/Include/cmsis_gcc.h **** }
1506:Drivers/CMSIS/Include/cmsis_gcc.h **** 
1507:Drivers/CMSIS/Include/cmsis_gcc.h **** 
1508:Drivers/CMSIS/Include/cmsis_gcc.h **** /**
1509:Drivers/CMSIS/Include/cmsis_gcc.h ****   \brief   Store-Release Exclusive (32 bit)
1510:Drivers/CMSIS/Include/cmsis_gcc.h ****   \details Executes a STL exclusive instruction for 32 bit values.
1511:Drivers/CMSIS/Include/cmsis_gcc.h ****   \param [in]  value  Value to store
1512:Drivers/CMSIS/Include/cmsis_gcc.h ****   \param [in]    ptr  Pointer to location
1513:Drivers/CMSIS/Include/cmsis_gcc.h ****   \return          0  Function succeeded
1514:Drivers/CMSIS/Include/cmsis_gcc.h ****   \return          1  Function failed
1515:Drivers/CMSIS/Include/cmsis_gcc.h ****  */
1516:Drivers/CMSIS/Include/cmsis_gcc.h **** __STATIC_FORCEINLINE uint32_t __STLEX(uint32_t value, volatile uint32_t *ptr)
1517:Drivers/CMSIS/Include/cmsis_gcc.h **** {
1518:Drivers/CMSIS/Include/cmsis_gcc.h ****    uint32_t result;
1519:Drivers/CMSIS/Include/cmsis_gcc.h **** 
1520:Drivers/CMSIS/Include/cmsis_gcc.h ****    __ASM volatile ("stlex %0, %2, %1" : "=&r" (result), "=Q" (*ptr) : "r" ((uint32_t)value) );
1521:Drivers/CMSIS/Include/cmsis_gcc.h ****    return(result);
1522:Drivers/CMSIS/Include/cmsis_gcc.h **** }
1523:Drivers/CMSIS/Include/cmsis_gcc.h **** 
1524:Drivers/CMSIS/Include/cmsis_gcc.h **** #endif /* ((defined (__ARM_ARCH_8M_MAIN__ ) && (__ARM_ARCH_8M_MAIN__ == 1)) || \
1525:Drivers/CMSIS/Include/cmsis_gcc.h ****            (defined (__ARM_ARCH_8M_BASE__ ) && (__ARM_ARCH_8M_BASE__ == 1))    ) */
1526:Drivers/CMSIS/Include/cmsis_gcc.h **** 
1527:Drivers/CMSIS/Include/cmsis_gcc.h **** /*@}*/ /* end of group CMSIS_Core_InstructionInterface */
1528:Drivers/CMSIS/Include/cmsis_gcc.h **** 
1529:Drivers/CMSIS/Include/cmsis_gcc.h **** 
1530:Drivers/CMSIS/Include/cmsis_gcc.h **** /* ###################  Compiler specific Intrinsics  ########################### */
1531:Drivers/CMSIS/Include/cmsis_gcc.h **** /** \defgroup CMSIS_SIMD_intrinsics CMSIS SIMD Intrinsics
1532:Drivers/CMSIS/Include/cmsis_gcc.h ****   Access to dedicated SIMD instructions
1533:Drivers/CMSIS/Include/cmsis_gcc.h ****   @{
1534:Drivers/CMSIS/Include/cmsis_gcc.h **** */
1535:Drivers/CMSIS/Include/cmsis_gcc.h **** 
1536:Drivers/CMSIS/Include/cmsis_gcc.h **** #if (defined (__ARM_FEATURE_DSP) && (__ARM_FEATURE_DSP == 1))
1537:Drivers/CMSIS/Include/cmsis_gcc.h **** 
ARM GAS  /tmp/ccQmvCRG.s 			page 33


1538:Drivers/CMSIS/Include/cmsis_gcc.h **** __STATIC_FORCEINLINE uint32_t __SADD8(uint32_t op1, uint32_t op2)
1539:Drivers/CMSIS/Include/cmsis_gcc.h **** {
1540:Drivers/CMSIS/Include/cmsis_gcc.h ****   uint32_t result;
1541:Drivers/CMSIS/Include/cmsis_gcc.h **** 
1542:Drivers/CMSIS/Include/cmsis_gcc.h ****   __ASM volatile ("sadd8 %0, %1, %2" : "=r" (result) : "r" (op1), "r" (op2) );
1543:Drivers/CMSIS/Include/cmsis_gcc.h ****   return(result);
1544:Drivers/CMSIS/Include/cmsis_gcc.h **** }
1545:Drivers/CMSIS/Include/cmsis_gcc.h **** 
1546:Drivers/CMSIS/Include/cmsis_gcc.h **** __STATIC_FORCEINLINE uint32_t __QADD8(uint32_t op1, uint32_t op2)
1547:Drivers/CMSIS/Include/cmsis_gcc.h **** {
1548:Drivers/CMSIS/Include/cmsis_gcc.h ****   uint32_t result;
1549:Drivers/CMSIS/Include/cmsis_gcc.h **** 
1550:Drivers/CMSIS/Include/cmsis_gcc.h ****   __ASM volatile ("qadd8 %0, %1, %2" : "=r" (result) : "r" (op1), "r" (op2) );
1551:Drivers/CMSIS/Include/cmsis_gcc.h ****   return(result);
1552:Drivers/CMSIS/Include/cmsis_gcc.h **** }
1553:Drivers/CMSIS/Include/cmsis_gcc.h **** 
1554:Drivers/CMSIS/Include/cmsis_gcc.h **** __STATIC_FORCEINLINE uint32_t __SHADD8(uint32_t op1, uint32_t op2)
1555:Drivers/CMSIS/Include/cmsis_gcc.h **** {
1556:Drivers/CMSIS/Include/cmsis_gcc.h ****   uint32_t result;
1557:Drivers/CMSIS/Include/cmsis_gcc.h **** 
1558:Drivers/CMSIS/Include/cmsis_gcc.h ****   __ASM volatile ("shadd8 %0, %1, %2" : "=r" (result) : "r" (op1), "r" (op2) );
1559:Drivers/CMSIS/Include/cmsis_gcc.h ****   return(result);
1560:Drivers/CMSIS/Include/cmsis_gcc.h **** }
1561:Drivers/CMSIS/Include/cmsis_gcc.h **** 
1562:Drivers/CMSIS/Include/cmsis_gcc.h **** __STATIC_FORCEINLINE uint32_t __UADD8(uint32_t op1, uint32_t op2)
1563:Drivers/CMSIS/Include/cmsis_gcc.h **** {
1564:Drivers/CMSIS/Include/cmsis_gcc.h ****   uint32_t result;
1565:Drivers/CMSIS/Include/cmsis_gcc.h **** 
1566:Drivers/CMSIS/Include/cmsis_gcc.h ****   __ASM volatile ("uadd8 %0, %1, %2" : "=r" (result) : "r" (op1), "r" (op2) );
1567:Drivers/CMSIS/Include/cmsis_gcc.h ****   return(result);
1568:Drivers/CMSIS/Include/cmsis_gcc.h **** }
1569:Drivers/CMSIS/Include/cmsis_gcc.h **** 
1570:Drivers/CMSIS/Include/cmsis_gcc.h **** __STATIC_FORCEINLINE uint32_t __UQADD8(uint32_t op1, uint32_t op2)
1571:Drivers/CMSIS/Include/cmsis_gcc.h **** {
1572:Drivers/CMSIS/Include/cmsis_gcc.h ****   uint32_t result;
1573:Drivers/CMSIS/Include/cmsis_gcc.h **** 
1574:Drivers/CMSIS/Include/cmsis_gcc.h ****   __ASM volatile ("uqadd8 %0, %1, %2" : "=r" (result) : "r" (op1), "r" (op2) );
1575:Drivers/CMSIS/Include/cmsis_gcc.h ****   return(result);
1576:Drivers/CMSIS/Include/cmsis_gcc.h **** }
1577:Drivers/CMSIS/Include/cmsis_gcc.h **** 
1578:Drivers/CMSIS/Include/cmsis_gcc.h **** __STATIC_FORCEINLINE uint32_t __UHADD8(uint32_t op1, uint32_t op2)
1579:Drivers/CMSIS/Include/cmsis_gcc.h **** {
1580:Drivers/CMSIS/Include/cmsis_gcc.h ****   uint32_t result;
1581:Drivers/CMSIS/Include/cmsis_gcc.h **** 
1582:Drivers/CMSIS/Include/cmsis_gcc.h ****   __ASM volatile ("uhadd8 %0, %1, %2" : "=r" (result) : "r" (op1), "r" (op2) );
1583:Drivers/CMSIS/Include/cmsis_gcc.h ****   return(result);
1584:Drivers/CMSIS/Include/cmsis_gcc.h **** }
1585:Drivers/CMSIS/Include/cmsis_gcc.h **** 
1586:Drivers/CMSIS/Include/cmsis_gcc.h **** 
1587:Drivers/CMSIS/Include/cmsis_gcc.h **** __STATIC_FORCEINLINE uint32_t __SSUB8(uint32_t op1, uint32_t op2)
1588:Drivers/CMSIS/Include/cmsis_gcc.h **** {
1589:Drivers/CMSIS/Include/cmsis_gcc.h ****   uint32_t result;
1590:Drivers/CMSIS/Include/cmsis_gcc.h **** 
1591:Drivers/CMSIS/Include/cmsis_gcc.h ****   __ASM volatile ("ssub8 %0, %1, %2" : "=r" (result) : "r" (op1), "r" (op2) );
1592:Drivers/CMSIS/Include/cmsis_gcc.h ****   return(result);
1593:Drivers/CMSIS/Include/cmsis_gcc.h **** }
1594:Drivers/CMSIS/Include/cmsis_gcc.h **** 
ARM GAS  /tmp/ccQmvCRG.s 			page 34


1595:Drivers/CMSIS/Include/cmsis_gcc.h **** __STATIC_FORCEINLINE uint32_t __QSUB8(uint32_t op1, uint32_t op2)
1596:Drivers/CMSIS/Include/cmsis_gcc.h **** {
1597:Drivers/CMSIS/Include/cmsis_gcc.h ****   uint32_t result;
1598:Drivers/CMSIS/Include/cmsis_gcc.h **** 
1599:Drivers/CMSIS/Include/cmsis_gcc.h ****   __ASM volatile ("qsub8 %0, %1, %2" : "=r" (result) : "r" (op1), "r" (op2) );
1600:Drivers/CMSIS/Include/cmsis_gcc.h ****   return(result);
1601:Drivers/CMSIS/Include/cmsis_gcc.h **** }
1602:Drivers/CMSIS/Include/cmsis_gcc.h **** 
1603:Drivers/CMSIS/Include/cmsis_gcc.h **** __STATIC_FORCEINLINE uint32_t __SHSUB8(uint32_t op1, uint32_t op2)
1604:Drivers/CMSIS/Include/cmsis_gcc.h **** {
1605:Drivers/CMSIS/Include/cmsis_gcc.h ****   uint32_t result;
1606:Drivers/CMSIS/Include/cmsis_gcc.h **** 
1607:Drivers/CMSIS/Include/cmsis_gcc.h ****   __ASM volatile ("shsub8 %0, %1, %2" : "=r" (result) : "r" (op1), "r" (op2) );
1608:Drivers/CMSIS/Include/cmsis_gcc.h ****   return(result);
1609:Drivers/CMSIS/Include/cmsis_gcc.h **** }
1610:Drivers/CMSIS/Include/cmsis_gcc.h **** 
1611:Drivers/CMSIS/Include/cmsis_gcc.h **** __STATIC_FORCEINLINE uint32_t __USUB8(uint32_t op1, uint32_t op2)
1612:Drivers/CMSIS/Include/cmsis_gcc.h **** {
1613:Drivers/CMSIS/Include/cmsis_gcc.h ****   uint32_t result;
1614:Drivers/CMSIS/Include/cmsis_gcc.h **** 
1615:Drivers/CMSIS/Include/cmsis_gcc.h ****   __ASM volatile ("usub8 %0, %1, %2" : "=r" (result) : "r" (op1), "r" (op2) );
1616:Drivers/CMSIS/Include/cmsis_gcc.h ****   return(result);
1617:Drivers/CMSIS/Include/cmsis_gcc.h **** }
1618:Drivers/CMSIS/Include/cmsis_gcc.h **** 
1619:Drivers/CMSIS/Include/cmsis_gcc.h **** __STATIC_FORCEINLINE uint32_t __UQSUB8(uint32_t op1, uint32_t op2)
1620:Drivers/CMSIS/Include/cmsis_gcc.h **** {
1621:Drivers/CMSIS/Include/cmsis_gcc.h ****   uint32_t result;
1622:Drivers/CMSIS/Include/cmsis_gcc.h **** 
1623:Drivers/CMSIS/Include/cmsis_gcc.h ****   __ASM volatile ("uqsub8 %0, %1, %2" : "=r" (result) : "r" (op1), "r" (op2) );
1624:Drivers/CMSIS/Include/cmsis_gcc.h ****   return(result);
1625:Drivers/CMSIS/Include/cmsis_gcc.h **** }
1626:Drivers/CMSIS/Include/cmsis_gcc.h **** 
1627:Drivers/CMSIS/Include/cmsis_gcc.h **** __STATIC_FORCEINLINE uint32_t __UHSUB8(uint32_t op1, uint32_t op2)
1628:Drivers/CMSIS/Include/cmsis_gcc.h **** {
1629:Drivers/CMSIS/Include/cmsis_gcc.h ****   uint32_t result;
1630:Drivers/CMSIS/Include/cmsis_gcc.h **** 
1631:Drivers/CMSIS/Include/cmsis_gcc.h ****   __ASM volatile ("uhsub8 %0, %1, %2" : "=r" (result) : "r" (op1), "r" (op2) );
1632:Drivers/CMSIS/Include/cmsis_gcc.h ****   return(result);
1633:Drivers/CMSIS/Include/cmsis_gcc.h **** }
1634:Drivers/CMSIS/Include/cmsis_gcc.h **** 
1635:Drivers/CMSIS/Include/cmsis_gcc.h **** 
1636:Drivers/CMSIS/Include/cmsis_gcc.h **** __STATIC_FORCEINLINE uint32_t __SADD16(uint32_t op1, uint32_t op2)
1637:Drivers/CMSIS/Include/cmsis_gcc.h **** {
1638:Drivers/CMSIS/Include/cmsis_gcc.h ****   uint32_t result;
1639:Drivers/CMSIS/Include/cmsis_gcc.h **** 
1640:Drivers/CMSIS/Include/cmsis_gcc.h ****   __ASM volatile ("sadd16 %0, %1, %2" : "=r" (result) : "r" (op1), "r" (op2) );
1641:Drivers/CMSIS/Include/cmsis_gcc.h ****   return(result);
1642:Drivers/CMSIS/Include/cmsis_gcc.h **** }
1643:Drivers/CMSIS/Include/cmsis_gcc.h **** 
1644:Drivers/CMSIS/Include/cmsis_gcc.h **** __STATIC_FORCEINLINE uint32_t __QADD16(uint32_t op1, uint32_t op2)
1645:Drivers/CMSIS/Include/cmsis_gcc.h **** {
1646:Drivers/CMSIS/Include/cmsis_gcc.h ****   uint32_t result;
1647:Drivers/CMSIS/Include/cmsis_gcc.h **** 
1648:Drivers/CMSIS/Include/cmsis_gcc.h ****   __ASM volatile ("qadd16 %0, %1, %2" : "=r" (result) : "r" (op1), "r" (op2) );
1649:Drivers/CMSIS/Include/cmsis_gcc.h ****   return(result);
1650:Drivers/CMSIS/Include/cmsis_gcc.h **** }
1651:Drivers/CMSIS/Include/cmsis_gcc.h **** 
ARM GAS  /tmp/ccQmvCRG.s 			page 35


1652:Drivers/CMSIS/Include/cmsis_gcc.h **** __STATIC_FORCEINLINE uint32_t __SHADD16(uint32_t op1, uint32_t op2)
1653:Drivers/CMSIS/Include/cmsis_gcc.h **** {
1654:Drivers/CMSIS/Include/cmsis_gcc.h ****   uint32_t result;
1655:Drivers/CMSIS/Include/cmsis_gcc.h **** 
1656:Drivers/CMSIS/Include/cmsis_gcc.h ****   __ASM volatile ("shadd16 %0, %1, %2" : "=r" (result) : "r" (op1), "r" (op2) );
1657:Drivers/CMSIS/Include/cmsis_gcc.h ****   return(result);
1658:Drivers/CMSIS/Include/cmsis_gcc.h **** }
1659:Drivers/CMSIS/Include/cmsis_gcc.h **** 
1660:Drivers/CMSIS/Include/cmsis_gcc.h **** __STATIC_FORCEINLINE uint32_t __UADD16(uint32_t op1, uint32_t op2)
1661:Drivers/CMSIS/Include/cmsis_gcc.h **** {
1662:Drivers/CMSIS/Include/cmsis_gcc.h ****   uint32_t result;
1663:Drivers/CMSIS/Include/cmsis_gcc.h **** 
1664:Drivers/CMSIS/Include/cmsis_gcc.h ****   __ASM volatile ("uadd16 %0, %1, %2" : "=r" (result) : "r" (op1), "r" (op2) );
1665:Drivers/CMSIS/Include/cmsis_gcc.h ****   return(result);
1666:Drivers/CMSIS/Include/cmsis_gcc.h **** }
1667:Drivers/CMSIS/Include/cmsis_gcc.h **** 
1668:Drivers/CMSIS/Include/cmsis_gcc.h **** __STATIC_FORCEINLINE uint32_t __UQADD16(uint32_t op1, uint32_t op2)
1669:Drivers/CMSIS/Include/cmsis_gcc.h **** {
1670:Drivers/CMSIS/Include/cmsis_gcc.h ****   uint32_t result;
1671:Drivers/CMSIS/Include/cmsis_gcc.h **** 
1672:Drivers/CMSIS/Include/cmsis_gcc.h ****   __ASM volatile ("uqadd16 %0, %1, %2" : "=r" (result) : "r" (op1), "r" (op2) );
1673:Drivers/CMSIS/Include/cmsis_gcc.h ****   return(result);
1674:Drivers/CMSIS/Include/cmsis_gcc.h **** }
1675:Drivers/CMSIS/Include/cmsis_gcc.h **** 
1676:Drivers/CMSIS/Include/cmsis_gcc.h **** __STATIC_FORCEINLINE uint32_t __UHADD16(uint32_t op1, uint32_t op2)
1677:Drivers/CMSIS/Include/cmsis_gcc.h **** {
1678:Drivers/CMSIS/Include/cmsis_gcc.h ****   uint32_t result;
1679:Drivers/CMSIS/Include/cmsis_gcc.h **** 
1680:Drivers/CMSIS/Include/cmsis_gcc.h ****   __ASM volatile ("uhadd16 %0, %1, %2" : "=r" (result) : "r" (op1), "r" (op2) );
1681:Drivers/CMSIS/Include/cmsis_gcc.h ****   return(result);
1682:Drivers/CMSIS/Include/cmsis_gcc.h **** }
1683:Drivers/CMSIS/Include/cmsis_gcc.h **** 
1684:Drivers/CMSIS/Include/cmsis_gcc.h **** __STATIC_FORCEINLINE uint32_t __SSUB16(uint32_t op1, uint32_t op2)
1685:Drivers/CMSIS/Include/cmsis_gcc.h **** {
1686:Drivers/CMSIS/Include/cmsis_gcc.h ****   uint32_t result;
1687:Drivers/CMSIS/Include/cmsis_gcc.h **** 
1688:Drivers/CMSIS/Include/cmsis_gcc.h ****   __ASM volatile ("ssub16 %0, %1, %2" : "=r" (result) : "r" (op1), "r" (op2) );
1689:Drivers/CMSIS/Include/cmsis_gcc.h ****   return(result);
1690:Drivers/CMSIS/Include/cmsis_gcc.h **** }
1691:Drivers/CMSIS/Include/cmsis_gcc.h **** 
1692:Drivers/CMSIS/Include/cmsis_gcc.h **** __STATIC_FORCEINLINE uint32_t __QSUB16(uint32_t op1, uint32_t op2)
1693:Drivers/CMSIS/Include/cmsis_gcc.h **** {
1694:Drivers/CMSIS/Include/cmsis_gcc.h ****   uint32_t result;
1695:Drivers/CMSIS/Include/cmsis_gcc.h **** 
1696:Drivers/CMSIS/Include/cmsis_gcc.h ****   __ASM volatile ("qsub16 %0, %1, %2" : "=r" (result) : "r" (op1), "r" (op2) );
1697:Drivers/CMSIS/Include/cmsis_gcc.h ****   return(result);
1698:Drivers/CMSIS/Include/cmsis_gcc.h **** }
1699:Drivers/CMSIS/Include/cmsis_gcc.h **** 
1700:Drivers/CMSIS/Include/cmsis_gcc.h **** __STATIC_FORCEINLINE uint32_t __SHSUB16(uint32_t op1, uint32_t op2)
1701:Drivers/CMSIS/Include/cmsis_gcc.h **** {
1702:Drivers/CMSIS/Include/cmsis_gcc.h ****   uint32_t result;
1703:Drivers/CMSIS/Include/cmsis_gcc.h **** 
1704:Drivers/CMSIS/Include/cmsis_gcc.h ****   __ASM volatile ("shsub16 %0, %1, %2" : "=r" (result) : "r" (op1), "r" (op2) );
1705:Drivers/CMSIS/Include/cmsis_gcc.h ****   return(result);
1706:Drivers/CMSIS/Include/cmsis_gcc.h **** }
1707:Drivers/CMSIS/Include/cmsis_gcc.h **** 
1708:Drivers/CMSIS/Include/cmsis_gcc.h **** __STATIC_FORCEINLINE uint32_t __USUB16(uint32_t op1, uint32_t op2)
ARM GAS  /tmp/ccQmvCRG.s 			page 36


1709:Drivers/CMSIS/Include/cmsis_gcc.h **** {
1710:Drivers/CMSIS/Include/cmsis_gcc.h ****   uint32_t result;
1711:Drivers/CMSIS/Include/cmsis_gcc.h **** 
1712:Drivers/CMSIS/Include/cmsis_gcc.h ****   __ASM volatile ("usub16 %0, %1, %2" : "=r" (result) : "r" (op1), "r" (op2) );
1713:Drivers/CMSIS/Include/cmsis_gcc.h ****   return(result);
1714:Drivers/CMSIS/Include/cmsis_gcc.h **** }
1715:Drivers/CMSIS/Include/cmsis_gcc.h **** 
1716:Drivers/CMSIS/Include/cmsis_gcc.h **** __STATIC_FORCEINLINE uint32_t __UQSUB16(uint32_t op1, uint32_t op2)
1717:Drivers/CMSIS/Include/cmsis_gcc.h **** {
1718:Drivers/CMSIS/Include/cmsis_gcc.h ****   uint32_t result;
1719:Drivers/CMSIS/Include/cmsis_gcc.h **** 
1720:Drivers/CMSIS/Include/cmsis_gcc.h ****   __ASM volatile ("uqsub16 %0, %1, %2" : "=r" (result) : "r" (op1), "r" (op2) );
1721:Drivers/CMSIS/Include/cmsis_gcc.h ****   return(result);
1722:Drivers/CMSIS/Include/cmsis_gcc.h **** }
1723:Drivers/CMSIS/Include/cmsis_gcc.h **** 
1724:Drivers/CMSIS/Include/cmsis_gcc.h **** __STATIC_FORCEINLINE uint32_t __UHSUB16(uint32_t op1, uint32_t op2)
1725:Drivers/CMSIS/Include/cmsis_gcc.h **** {
1726:Drivers/CMSIS/Include/cmsis_gcc.h ****   uint32_t result;
1727:Drivers/CMSIS/Include/cmsis_gcc.h **** 
1728:Drivers/CMSIS/Include/cmsis_gcc.h ****   __ASM volatile ("uhsub16 %0, %1, %2" : "=r" (result) : "r" (op1), "r" (op2) );
1729:Drivers/CMSIS/Include/cmsis_gcc.h ****   return(result);
1730:Drivers/CMSIS/Include/cmsis_gcc.h **** }
1731:Drivers/CMSIS/Include/cmsis_gcc.h **** 
1732:Drivers/CMSIS/Include/cmsis_gcc.h **** __STATIC_FORCEINLINE uint32_t __SASX(uint32_t op1, uint32_t op2)
1733:Drivers/CMSIS/Include/cmsis_gcc.h **** {
1734:Drivers/CMSIS/Include/cmsis_gcc.h ****   uint32_t result;
1735:Drivers/CMSIS/Include/cmsis_gcc.h **** 
1736:Drivers/CMSIS/Include/cmsis_gcc.h ****   __ASM volatile ("sasx %0, %1, %2" : "=r" (result) : "r" (op1), "r" (op2) );
1737:Drivers/CMSIS/Include/cmsis_gcc.h ****   return(result);
1738:Drivers/CMSIS/Include/cmsis_gcc.h **** }
1739:Drivers/CMSIS/Include/cmsis_gcc.h **** 
1740:Drivers/CMSIS/Include/cmsis_gcc.h **** __STATIC_FORCEINLINE uint32_t __QASX(uint32_t op1, uint32_t op2)
1741:Drivers/CMSIS/Include/cmsis_gcc.h **** {
1742:Drivers/CMSIS/Include/cmsis_gcc.h ****   uint32_t result;
1743:Drivers/CMSIS/Include/cmsis_gcc.h **** 
1744:Drivers/CMSIS/Include/cmsis_gcc.h ****   __ASM volatile ("qasx %0, %1, %2" : "=r" (result) : "r" (op1), "r" (op2) );
1745:Drivers/CMSIS/Include/cmsis_gcc.h ****   return(result);
1746:Drivers/CMSIS/Include/cmsis_gcc.h **** }
1747:Drivers/CMSIS/Include/cmsis_gcc.h **** 
1748:Drivers/CMSIS/Include/cmsis_gcc.h **** __STATIC_FORCEINLINE uint32_t __SHASX(uint32_t op1, uint32_t op2)
1749:Drivers/CMSIS/Include/cmsis_gcc.h **** {
1750:Drivers/CMSIS/Include/cmsis_gcc.h ****   uint32_t result;
1751:Drivers/CMSIS/Include/cmsis_gcc.h **** 
1752:Drivers/CMSIS/Include/cmsis_gcc.h ****   __ASM volatile ("shasx %0, %1, %2" : "=r" (result) : "r" (op1), "r" (op2) );
1753:Drivers/CMSIS/Include/cmsis_gcc.h ****   return(result);
1754:Drivers/CMSIS/Include/cmsis_gcc.h **** }
1755:Drivers/CMSIS/Include/cmsis_gcc.h **** 
1756:Drivers/CMSIS/Include/cmsis_gcc.h **** __STATIC_FORCEINLINE uint32_t __UASX(uint32_t op1, uint32_t op2)
1757:Drivers/CMSIS/Include/cmsis_gcc.h **** {
1758:Drivers/CMSIS/Include/cmsis_gcc.h ****   uint32_t result;
1759:Drivers/CMSIS/Include/cmsis_gcc.h **** 
1760:Drivers/CMSIS/Include/cmsis_gcc.h ****   __ASM volatile ("uasx %0, %1, %2" : "=r" (result) : "r" (op1), "r" (op2) );
1761:Drivers/CMSIS/Include/cmsis_gcc.h ****   return(result);
1762:Drivers/CMSIS/Include/cmsis_gcc.h **** }
1763:Drivers/CMSIS/Include/cmsis_gcc.h **** 
1764:Drivers/CMSIS/Include/cmsis_gcc.h **** __STATIC_FORCEINLINE uint32_t __UQASX(uint32_t op1, uint32_t op2)
1765:Drivers/CMSIS/Include/cmsis_gcc.h **** {
ARM GAS  /tmp/ccQmvCRG.s 			page 37


1766:Drivers/CMSIS/Include/cmsis_gcc.h ****   uint32_t result;
1767:Drivers/CMSIS/Include/cmsis_gcc.h **** 
1768:Drivers/CMSIS/Include/cmsis_gcc.h ****   __ASM volatile ("uqasx %0, %1, %2" : "=r" (result) : "r" (op1), "r" (op2) );
1769:Drivers/CMSIS/Include/cmsis_gcc.h ****   return(result);
1770:Drivers/CMSIS/Include/cmsis_gcc.h **** }
1771:Drivers/CMSIS/Include/cmsis_gcc.h **** 
1772:Drivers/CMSIS/Include/cmsis_gcc.h **** __STATIC_FORCEINLINE uint32_t __UHASX(uint32_t op1, uint32_t op2)
1773:Drivers/CMSIS/Include/cmsis_gcc.h **** {
1774:Drivers/CMSIS/Include/cmsis_gcc.h ****   uint32_t result;
1775:Drivers/CMSIS/Include/cmsis_gcc.h **** 
1776:Drivers/CMSIS/Include/cmsis_gcc.h ****   __ASM volatile ("uhasx %0, %1, %2" : "=r" (result) : "r" (op1), "r" (op2) );
1777:Drivers/CMSIS/Include/cmsis_gcc.h ****   return(result);
1778:Drivers/CMSIS/Include/cmsis_gcc.h **** }
1779:Drivers/CMSIS/Include/cmsis_gcc.h **** 
1780:Drivers/CMSIS/Include/cmsis_gcc.h **** __STATIC_FORCEINLINE uint32_t __SSAX(uint32_t op1, uint32_t op2)
1781:Drivers/CMSIS/Include/cmsis_gcc.h **** {
1782:Drivers/CMSIS/Include/cmsis_gcc.h ****   uint32_t result;
1783:Drivers/CMSIS/Include/cmsis_gcc.h **** 
1784:Drivers/CMSIS/Include/cmsis_gcc.h ****   __ASM volatile ("ssax %0, %1, %2" : "=r" (result) : "r" (op1), "r" (op2) );
1785:Drivers/CMSIS/Include/cmsis_gcc.h ****   return(result);
1786:Drivers/CMSIS/Include/cmsis_gcc.h **** }
1787:Drivers/CMSIS/Include/cmsis_gcc.h **** 
1788:Drivers/CMSIS/Include/cmsis_gcc.h **** __STATIC_FORCEINLINE uint32_t __QSAX(uint32_t op1, uint32_t op2)
1789:Drivers/CMSIS/Include/cmsis_gcc.h **** {
1790:Drivers/CMSIS/Include/cmsis_gcc.h ****   uint32_t result;
1791:Drivers/CMSIS/Include/cmsis_gcc.h **** 
1792:Drivers/CMSIS/Include/cmsis_gcc.h ****   __ASM volatile ("qsax %0, %1, %2" : "=r" (result) : "r" (op1), "r" (op2) );
1793:Drivers/CMSIS/Include/cmsis_gcc.h ****   return(result);
1794:Drivers/CMSIS/Include/cmsis_gcc.h **** }
1795:Drivers/CMSIS/Include/cmsis_gcc.h **** 
1796:Drivers/CMSIS/Include/cmsis_gcc.h **** __STATIC_FORCEINLINE uint32_t __SHSAX(uint32_t op1, uint32_t op2)
1797:Drivers/CMSIS/Include/cmsis_gcc.h **** {
1798:Drivers/CMSIS/Include/cmsis_gcc.h ****   uint32_t result;
1799:Drivers/CMSIS/Include/cmsis_gcc.h **** 
1800:Drivers/CMSIS/Include/cmsis_gcc.h ****   __ASM volatile ("shsax %0, %1, %2" : "=r" (result) : "r" (op1), "r" (op2) );
1801:Drivers/CMSIS/Include/cmsis_gcc.h ****   return(result);
1802:Drivers/CMSIS/Include/cmsis_gcc.h **** }
1803:Drivers/CMSIS/Include/cmsis_gcc.h **** 
1804:Drivers/CMSIS/Include/cmsis_gcc.h **** __STATIC_FORCEINLINE uint32_t __USAX(uint32_t op1, uint32_t op2)
1805:Drivers/CMSIS/Include/cmsis_gcc.h **** {
1806:Drivers/CMSIS/Include/cmsis_gcc.h ****   uint32_t result;
1807:Drivers/CMSIS/Include/cmsis_gcc.h **** 
1808:Drivers/CMSIS/Include/cmsis_gcc.h ****   __ASM volatile ("usax %0, %1, %2" : "=r" (result) : "r" (op1), "r" (op2) );
1809:Drivers/CMSIS/Include/cmsis_gcc.h ****   return(result);
1810:Drivers/CMSIS/Include/cmsis_gcc.h **** }
1811:Drivers/CMSIS/Include/cmsis_gcc.h **** 
1812:Drivers/CMSIS/Include/cmsis_gcc.h **** __STATIC_FORCEINLINE uint32_t __UQSAX(uint32_t op1, uint32_t op2)
1813:Drivers/CMSIS/Include/cmsis_gcc.h **** {
1814:Drivers/CMSIS/Include/cmsis_gcc.h ****   uint32_t result;
1815:Drivers/CMSIS/Include/cmsis_gcc.h **** 
1816:Drivers/CMSIS/Include/cmsis_gcc.h ****   __ASM volatile ("uqsax %0, %1, %2" : "=r" (result) : "r" (op1), "r" (op2) );
1817:Drivers/CMSIS/Include/cmsis_gcc.h ****   return(result);
1818:Drivers/CMSIS/Include/cmsis_gcc.h **** }
1819:Drivers/CMSIS/Include/cmsis_gcc.h **** 
1820:Drivers/CMSIS/Include/cmsis_gcc.h **** __STATIC_FORCEINLINE uint32_t __UHSAX(uint32_t op1, uint32_t op2)
1821:Drivers/CMSIS/Include/cmsis_gcc.h **** {
1822:Drivers/CMSIS/Include/cmsis_gcc.h ****   uint32_t result;
ARM GAS  /tmp/ccQmvCRG.s 			page 38


1823:Drivers/CMSIS/Include/cmsis_gcc.h **** 
1824:Drivers/CMSIS/Include/cmsis_gcc.h ****   __ASM volatile ("uhsax %0, %1, %2" : "=r" (result) : "r" (op1), "r" (op2) );
1825:Drivers/CMSIS/Include/cmsis_gcc.h ****   return(result);
1826:Drivers/CMSIS/Include/cmsis_gcc.h **** }
1827:Drivers/CMSIS/Include/cmsis_gcc.h **** 
1828:Drivers/CMSIS/Include/cmsis_gcc.h **** __STATIC_FORCEINLINE uint32_t __USAD8(uint32_t op1, uint32_t op2)
1829:Drivers/CMSIS/Include/cmsis_gcc.h **** {
1830:Drivers/CMSIS/Include/cmsis_gcc.h ****   uint32_t result;
1831:Drivers/CMSIS/Include/cmsis_gcc.h **** 
1832:Drivers/CMSIS/Include/cmsis_gcc.h ****   __ASM volatile ("usad8 %0, %1, %2" : "=r" (result) : "r" (op1), "r" (op2) );
1833:Drivers/CMSIS/Include/cmsis_gcc.h ****   return(result);
1834:Drivers/CMSIS/Include/cmsis_gcc.h **** }
1835:Drivers/CMSIS/Include/cmsis_gcc.h **** 
1836:Drivers/CMSIS/Include/cmsis_gcc.h **** __STATIC_FORCEINLINE uint32_t __USADA8(uint32_t op1, uint32_t op2, uint32_t op3)
1837:Drivers/CMSIS/Include/cmsis_gcc.h **** {
1838:Drivers/CMSIS/Include/cmsis_gcc.h ****   uint32_t result;
1839:Drivers/CMSIS/Include/cmsis_gcc.h **** 
1840:Drivers/CMSIS/Include/cmsis_gcc.h ****   __ASM volatile ("usada8 %0, %1, %2, %3" : "=r" (result) : "r" (op1), "r" (op2), "r" (op3) );
1841:Drivers/CMSIS/Include/cmsis_gcc.h ****   return(result);
1842:Drivers/CMSIS/Include/cmsis_gcc.h **** }
1843:Drivers/CMSIS/Include/cmsis_gcc.h **** 
1844:Drivers/CMSIS/Include/cmsis_gcc.h **** #define __SSAT16(ARG1,ARG2) \
1845:Drivers/CMSIS/Include/cmsis_gcc.h **** ({                          \
1846:Drivers/CMSIS/Include/cmsis_gcc.h ****   int32_t __RES, __ARG1 = (ARG1); \
1847:Drivers/CMSIS/Include/cmsis_gcc.h ****   __ASM ("ssat16 %0, %1, %2" : "=r" (__RES) :  "I" (ARG2), "r" (__ARG1) ); \
1848:Drivers/CMSIS/Include/cmsis_gcc.h ****   __RES; \
1849:Drivers/CMSIS/Include/cmsis_gcc.h ****  })
1850:Drivers/CMSIS/Include/cmsis_gcc.h **** 
1851:Drivers/CMSIS/Include/cmsis_gcc.h **** #define __USAT16(ARG1,ARG2) \
1852:Drivers/CMSIS/Include/cmsis_gcc.h **** ({                          \
1853:Drivers/CMSIS/Include/cmsis_gcc.h ****   uint32_t __RES, __ARG1 = (ARG1); \
1854:Drivers/CMSIS/Include/cmsis_gcc.h ****   __ASM ("usat16 %0, %1, %2" : "=r" (__RES) :  "I" (ARG2), "r" (__ARG1) ); \
1855:Drivers/CMSIS/Include/cmsis_gcc.h ****   __RES; \
1856:Drivers/CMSIS/Include/cmsis_gcc.h ****  })
1857:Drivers/CMSIS/Include/cmsis_gcc.h **** 
1858:Drivers/CMSIS/Include/cmsis_gcc.h **** __STATIC_FORCEINLINE uint32_t __UXTB16(uint32_t op1)
1859:Drivers/CMSIS/Include/cmsis_gcc.h **** {
1860:Drivers/CMSIS/Include/cmsis_gcc.h ****   uint32_t result;
1861:Drivers/CMSIS/Include/cmsis_gcc.h **** 
1862:Drivers/CMSIS/Include/cmsis_gcc.h ****   __ASM volatile ("uxtb16 %0, %1" : "=r" (result) : "r" (op1));
1863:Drivers/CMSIS/Include/cmsis_gcc.h ****   return(result);
1864:Drivers/CMSIS/Include/cmsis_gcc.h **** }
1865:Drivers/CMSIS/Include/cmsis_gcc.h **** 
1866:Drivers/CMSIS/Include/cmsis_gcc.h **** __STATIC_FORCEINLINE uint32_t __UXTAB16(uint32_t op1, uint32_t op2)
1867:Drivers/CMSIS/Include/cmsis_gcc.h **** {
1868:Drivers/CMSIS/Include/cmsis_gcc.h ****   uint32_t result;
1869:Drivers/CMSIS/Include/cmsis_gcc.h **** 
1870:Drivers/CMSIS/Include/cmsis_gcc.h ****   __ASM volatile ("uxtab16 %0, %1, %2" : "=r" (result) : "r" (op1), "r" (op2) );
1871:Drivers/CMSIS/Include/cmsis_gcc.h ****   return(result);
1872:Drivers/CMSIS/Include/cmsis_gcc.h **** }
1873:Drivers/CMSIS/Include/cmsis_gcc.h **** 
1874:Drivers/CMSIS/Include/cmsis_gcc.h **** __STATIC_FORCEINLINE uint32_t __SXTB16(uint32_t op1)
1875:Drivers/CMSIS/Include/cmsis_gcc.h **** {
1876:Drivers/CMSIS/Include/cmsis_gcc.h ****   uint32_t result;
1877:Drivers/CMSIS/Include/cmsis_gcc.h **** 
1878:Drivers/CMSIS/Include/cmsis_gcc.h ****   __ASM volatile ("sxtb16 %0, %1" : "=r" (result) : "r" (op1));
1879:Drivers/CMSIS/Include/cmsis_gcc.h ****   return(result);
ARM GAS  /tmp/ccQmvCRG.s 			page 39


1880:Drivers/CMSIS/Include/cmsis_gcc.h **** }
1881:Drivers/CMSIS/Include/cmsis_gcc.h **** 
1882:Drivers/CMSIS/Include/cmsis_gcc.h **** __STATIC_FORCEINLINE uint32_t __SXTAB16(uint32_t op1, uint32_t op2)
1883:Drivers/CMSIS/Include/cmsis_gcc.h **** {
1884:Drivers/CMSIS/Include/cmsis_gcc.h ****   uint32_t result;
1885:Drivers/CMSIS/Include/cmsis_gcc.h **** 
1886:Drivers/CMSIS/Include/cmsis_gcc.h ****   __ASM volatile ("sxtab16 %0, %1, %2" : "=r" (result) : "r" (op1), "r" (op2) );
1887:Drivers/CMSIS/Include/cmsis_gcc.h ****   return(result);
1888:Drivers/CMSIS/Include/cmsis_gcc.h **** }
1889:Drivers/CMSIS/Include/cmsis_gcc.h **** 
1890:Drivers/CMSIS/Include/cmsis_gcc.h **** __STATIC_FORCEINLINE uint32_t __SMUAD  (uint32_t op1, uint32_t op2)
1891:Drivers/CMSIS/Include/cmsis_gcc.h **** {
1892:Drivers/CMSIS/Include/cmsis_gcc.h ****   uint32_t result;
1893:Drivers/CMSIS/Include/cmsis_gcc.h **** 
1894:Drivers/CMSIS/Include/cmsis_gcc.h ****   __ASM volatile ("smuad %0, %1, %2" : "=r" (result) : "r" (op1), "r" (op2) );
1895:Drivers/CMSIS/Include/cmsis_gcc.h ****   return(result);
1896:Drivers/CMSIS/Include/cmsis_gcc.h **** }
1897:Drivers/CMSIS/Include/cmsis_gcc.h **** 
1898:Drivers/CMSIS/Include/cmsis_gcc.h **** __STATIC_FORCEINLINE uint32_t __SMUADX (uint32_t op1, uint32_t op2)
1899:Drivers/CMSIS/Include/cmsis_gcc.h **** {
1900:Drivers/CMSIS/Include/cmsis_gcc.h ****   uint32_t result;
1901:Drivers/CMSIS/Include/cmsis_gcc.h **** 
1902:Drivers/CMSIS/Include/cmsis_gcc.h ****   __ASM volatile ("smuadx %0, %1, %2" : "=r" (result) : "r" (op1), "r" (op2) );
1903:Drivers/CMSIS/Include/cmsis_gcc.h ****   return(result);
1904:Drivers/CMSIS/Include/cmsis_gcc.h **** }
1905:Drivers/CMSIS/Include/cmsis_gcc.h **** 
1906:Drivers/CMSIS/Include/cmsis_gcc.h **** __STATIC_FORCEINLINE uint32_t __SMLAD (uint32_t op1, uint32_t op2, uint32_t op3)
 118              		.loc 2 1906 31 is_stmt 1 view .LVU35
 119              	.LBB67:
1907:Drivers/CMSIS/Include/cmsis_gcc.h **** {
1908:Drivers/CMSIS/Include/cmsis_gcc.h ****   uint32_t result;
 120              		.loc 2 1908 3 view .LVU36
1909:Drivers/CMSIS/Include/cmsis_gcc.h **** 
1910:Drivers/CMSIS/Include/cmsis_gcc.h ****   __ASM volatile ("smlad %0, %1, %2, %3" : "=r" (result) : "r" (op1), "r" (op2), "r" (op3) );
 121              		.loc 2 1910 3 view .LVU37
 122              		.syntax unified
 123              	@ 1910 "Drivers/CMSIS/Include/cmsis_gcc.h" 1
 124 0032 26FB0C11 		smlad r1, r6, ip, r1
 125              	@ 0 "" 2
 126              	.LVL12:
1911:Drivers/CMSIS/Include/cmsis_gcc.h ****   return(result);
 127              		.loc 2 1911 3 view .LVU38
 128              		.loc 2 1911 3 is_stmt 0 view .LVU39
 129              		.thumb
 130              		.syntax unified
 131              	.LBE67:
 132              	.LBE66:
 166:Drivers/CMSIS/DSP/Source/FilteringFunctions/arm_conv_fast_q15.c **** 
 167:Drivers/CMSIS/DSP/Source/FilteringFunctions/arm_conv_fast_q15.c ****       /* Decrement the loop counter */
 168:Drivers/CMSIS/DSP/Source/FilteringFunctions/arm_conv_fast_q15.c ****       k--;
 133              		.loc 1 168 7 is_stmt 1 view .LVU40
 134              		.loc 1 168 8 is_stmt 0 view .LVU41
 135 0036 013C     		subs	r4, r4, #1
 136              	.LVL13:
 137              	.L5:
 162:Drivers/CMSIS/DSP/Source/FilteringFunctions/arm_conv_fast_q15.c ****     {
 138              		.loc 1 162 14 is_stmt 1 view .LVU42
ARM GAS  /tmp/ccQmvCRG.s 			page 40


 139 0038 002C     		cmp	r4, #0
 140 003a F6D1     		bne	.L4
 169:Drivers/CMSIS/DSP/Source/FilteringFunctions/arm_conv_fast_q15.c ****     }
 170:Drivers/CMSIS/DSP/Source/FilteringFunctions/arm_conv_fast_q15.c **** 
 171:Drivers/CMSIS/DSP/Source/FilteringFunctions/arm_conv_fast_q15.c ****     /* Store the result in the accumulator in the destination buffer. */
 172:Drivers/CMSIS/DSP/Source/FilteringFunctions/arm_conv_fast_q15.c ****     *pOut++ = (q15_t) (sum >> 15);
 141              		.loc 1 172 5 view .LVU43
 142              		.loc 1 172 10 is_stmt 0 view .LVU44
 143 003c 169A     		ldr	r2, [sp, #88]
 144              	.LVL14:
 145              		.loc 1 172 15 view .LVU45
 146 003e 41F3CF31 		sbfx	r1, r1, #15, #16
 147              	.LVL15:
 148              		.loc 1 172 13 view .LVU46
 149 0042 22F8021B 		strh	r1, [r2], #2	@ movhi
 150              	.LVL16:
 173:Drivers/CMSIS/DSP/Source/FilteringFunctions/arm_conv_fast_q15.c **** 
 174:Drivers/CMSIS/DSP/Source/FilteringFunctions/arm_conv_fast_q15.c ****     /* Update the inputA and inputB pointers for next MAC calculation */
 175:Drivers/CMSIS/DSP/Source/FilteringFunctions/arm_conv_fast_q15.c ****     py = pIn2 + count;
 151              		.loc 1 175 5 is_stmt 1 view .LVU47
 152              		.loc 1 175 15 is_stmt 0 view .LVU48
 153 0046 00EB4503 		add	r3, r0, r5, lsl #1
 154              	.LVL17:
 176:Drivers/CMSIS/DSP/Source/FilteringFunctions/arm_conv_fast_q15.c ****     px = pIn1;
 155              		.loc 1 176 5 is_stmt 1 view .LVU49
 177:Drivers/CMSIS/DSP/Source/FilteringFunctions/arm_conv_fast_q15.c **** 
 178:Drivers/CMSIS/DSP/Source/FilteringFunctions/arm_conv_fast_q15.c ****     /* Increment the MAC count */
 179:Drivers/CMSIS/DSP/Source/FilteringFunctions/arm_conv_fast_q15.c ****     count++;
 156              		.loc 1 179 5 view .LVU50
 157              		.loc 1 179 10 is_stmt 0 view .LVU51
 158 004a 0135     		adds	r5, r5, #1
 159              	.LVL18:
 180:Drivers/CMSIS/DSP/Source/FilteringFunctions/arm_conv_fast_q15.c **** 
 181:Drivers/CMSIS/DSP/Source/FilteringFunctions/arm_conv_fast_q15.c ****     /* Decrement the loop counter */
 182:Drivers/CMSIS/DSP/Source/FilteringFunctions/arm_conv_fast_q15.c ****     blockSize1--;
 160              		.loc 1 182 5 is_stmt 1 view .LVU52
 161              		.loc 1 182 15 is_stmt 0 view .LVU53
 162 004c 0AF1FF3A 		add	r10, r10, #-1
 163              	.LVL19:
 172:Drivers/CMSIS/DSP/Source/FilteringFunctions/arm_conv_fast_q15.c **** 
 164              		.loc 1 172 10 view .LVU54
 165 0050 1692     		str	r2, [sp, #88]
 166              	.LVL20:
 167              	.L3:
 153:Drivers/CMSIS/DSP/Source/FilteringFunctions/arm_conv_fast_q15.c ****   {
 168              		.loc 1 153 23 is_stmt 1 view .LVU55
 153:Drivers/CMSIS/DSP/Source/FilteringFunctions/arm_conv_fast_q15.c ****   {
 169              		.loc 1 153 38 is_stmt 0 view .LVU56
 170 0052 BAF10002 		subs	r2, r10, #0
 171 0056 18BF     		it	ne
 172 0058 0122     		movne	r2, #1
 153:Drivers/CMSIS/DSP/Source/FilteringFunctions/arm_conv_fast_q15.c ****   {
 173              		.loc 1 153 23 view .LVU57
 174 005a 032D     		cmp	r5, #3
 175 005c 04D8     		bhi	.L43
 153:Drivers/CMSIS/DSP/Source/FilteringFunctions/arm_conv_fast_q15.c ****   {
 176              		.loc 1 153 23 view .LVU58
ARM GAS  /tmp/ccQmvCRG.s 			page 41


 177 005e 1AB1     		cbz	r2, .L43
 178 0060 049A     		ldr	r2, [sp, #16]
 160:Drivers/CMSIS/DSP/Source/FilteringFunctions/arm_conv_fast_q15.c **** 
 179              		.loc 1 160 7 view .LVU59
 180 0062 2C46     		mov	r4, r5
 156:Drivers/CMSIS/DSP/Source/FilteringFunctions/arm_conv_fast_q15.c **** 
 181              		.loc 1 156 9 view .LVU60
 182 0064 0021     		movs	r1, #0
 183 0066 E7E7     		b	.L5
 184              	.L43:
 183:Drivers/CMSIS/DSP/Source/FilteringFunctions/arm_conv_fast_q15.c ****   }
 184:Drivers/CMSIS/DSP/Source/FilteringFunctions/arm_conv_fast_q15.c **** 
 185:Drivers/CMSIS/DSP/Source/FilteringFunctions/arm_conv_fast_q15.c ****   /* The second part of the stage starts here */
 186:Drivers/CMSIS/DSP/Source/FilteringFunctions/arm_conv_fast_q15.c ****   /* The internal loop, over count, is unrolled by 4 */
 187:Drivers/CMSIS/DSP/Source/FilteringFunctions/arm_conv_fast_q15.c ****   /* To, read the last two inputB samples using SIMD:
 188:Drivers/CMSIS/DSP/Source/FilteringFunctions/arm_conv_fast_q15.c ****    * y[srcBLen] and y[srcBLen-1] coefficients, py is decremented by 1 */
 189:Drivers/CMSIS/DSP/Source/FilteringFunctions/arm_conv_fast_q15.c ****   py = py - 1;
 185              		.loc 1 189 3 is_stmt 1 view .LVU61
 186              		.loc 1 189 11 is_stmt 0 view .LVU62
 187 0068 023B     		subs	r3, r3, #2
 188              	.LVL21:
 190:Drivers/CMSIS/DSP/Source/FilteringFunctions/arm_conv_fast_q15.c **** 
 191:Drivers/CMSIS/DSP/Source/FilteringFunctions/arm_conv_fast_q15.c ****   while (blockSize1 > 0U)
 189              		.loc 1 191 3 is_stmt 1 view .LVU63
 190 006a 5446     		mov	r4, r10
 191 006c BC46     		mov	ip, r7
 192              		.loc 1 191 9 is_stmt 0 view .LVU64
 193 006e 2CE0     		b	.L7
 194              	.LVL22:
 195              	.L9:
 192:Drivers/CMSIS/DSP/Source/FilteringFunctions/arm_conv_fast_q15.c ****   {
 193:Drivers/CMSIS/DSP/Source/FilteringFunctions/arm_conv_fast_q15.c ****     /* Accumulator is made zero for every iteration */
 194:Drivers/CMSIS/DSP/Source/FilteringFunctions/arm_conv_fast_q15.c ****     sum = 0;
 195:Drivers/CMSIS/DSP/Source/FilteringFunctions/arm_conv_fast_q15.c **** 
 196:Drivers/CMSIS/DSP/Source/FilteringFunctions/arm_conv_fast_q15.c ****     /* Apply loop unrolling and compute 4 MACs simultaneously. */
 197:Drivers/CMSIS/DSP/Source/FilteringFunctions/arm_conv_fast_q15.c ****     k = count >> 2U;
 198:Drivers/CMSIS/DSP/Source/FilteringFunctions/arm_conv_fast_q15.c **** 
 199:Drivers/CMSIS/DSP/Source/FilteringFunctions/arm_conv_fast_q15.c ****     /* First part of the processing with loop unrolling.  Compute 4 MACs at a time.
 200:Drivers/CMSIS/DSP/Source/FilteringFunctions/arm_conv_fast_q15.c ****      ** a second loop below computes MACs for the remaining 1 to 3 samples. */
 201:Drivers/CMSIS/DSP/Source/FilteringFunctions/arm_conv_fast_q15.c ****     while (k > 0U)
 202:Drivers/CMSIS/DSP/Source/FilteringFunctions/arm_conv_fast_q15.c ****     {
 203:Drivers/CMSIS/DSP/Source/FilteringFunctions/arm_conv_fast_q15.c ****       /* Perform the multiply-accumulates */
 204:Drivers/CMSIS/DSP/Source/FilteringFunctions/arm_conv_fast_q15.c ****       /* x[0], x[1] are multiplied with y[srcBLen - 1], y[srcBLen - 2] respectively */
 205:Drivers/CMSIS/DSP/Source/FilteringFunctions/arm_conv_fast_q15.c ****       sum = __SMLADX(*__SIMD32(px)++, *__SIMD32(py)--, sum);
 196              		.loc 1 205 7 is_stmt 1 view .LVU65
 197              		.loc 1 205 22 is_stmt 0 view .LVU66
 198 0070 0E46     		mov	r6, r1
 199 0072 56F8087B 		ldr	r7, [r6], #8
 200              	.LVL23:
 201              		.loc 1 205 39 view .LVU67
 202 0076 D646     		mov	lr, r10
 203 0078 5EF80899 		ldr	r9, [lr], #-8
 204              	.LVL24:
 205              	.LBB68:
 206              	.LBI68:
1912:Drivers/CMSIS/Include/cmsis_gcc.h **** }
1913:Drivers/CMSIS/Include/cmsis_gcc.h **** 
ARM GAS  /tmp/ccQmvCRG.s 			page 42


1914:Drivers/CMSIS/Include/cmsis_gcc.h **** __STATIC_FORCEINLINE uint32_t __SMLADX (uint32_t op1, uint32_t op2, uint32_t op3)
 207              		.loc 2 1914 31 is_stmt 1 view .LVU68
 208              	.LBB69:
1915:Drivers/CMSIS/Include/cmsis_gcc.h **** {
1916:Drivers/CMSIS/Include/cmsis_gcc.h ****   uint32_t result;
 209              		.loc 2 1916 3 view .LVU69
1917:Drivers/CMSIS/Include/cmsis_gcc.h **** 
1918:Drivers/CMSIS/Include/cmsis_gcc.h ****   __ASM volatile ("smladx %0, %1, %2, %3" : "=r" (result) : "r" (op1), "r" (op2), "r" (op3) );
 210              		.loc 2 1918 3 view .LVU70
 211              		.syntax unified
 212              	@ 1918 "Drivers/CMSIS/Include/cmsis_gcc.h" 1
 213 007c 27FB1929 		smladx r9, r7, r9, r2
 214              	@ 0 "" 2
 215              	.LVL25:
1919:Drivers/CMSIS/Include/cmsis_gcc.h ****   return(result);
 216              		.loc 2 1919 3 view .LVU71
 217              		.loc 2 1919 3 is_stmt 0 view .LVU72
 218              		.thumb
 219              		.syntax unified
 220              	.LBE69:
 221              	.LBE68:
 206:Drivers/CMSIS/DSP/Source/FilteringFunctions/arm_conv_fast_q15.c ****       /* x[2], x[3] are multiplied with y[srcBLen - 3], y[srcBLen - 4] respectively */
 207:Drivers/CMSIS/DSP/Source/FilteringFunctions/arm_conv_fast_q15.c ****       sum = __SMLADX(*__SIMD32(px)++, *__SIMD32(py)--, sum);
 222              		.loc 1 207 7 is_stmt 1 view .LVU73
 223              		.loc 1 207 22 is_stmt 0 view .LVU74
 224 0080 4A68     		ldr	r2, [r1, #4]
 225              	.LVL26:
 226              		.loc 1 207 39 view .LVU75
 227 0082 5AF8041C 		ldr	r1, [r10, #-4]
 228              	.LVL27:
 229              	.LBB70:
 230              	.LBI70:
1914:Drivers/CMSIS/Include/cmsis_gcc.h **** {
 231              		.loc 2 1914 31 is_stmt 1 view .LVU76
 232              	.LBB71:
1916:Drivers/CMSIS/Include/cmsis_gcc.h **** 
 233              		.loc 2 1916 3 view .LVU77
1918:Drivers/CMSIS/Include/cmsis_gcc.h ****   return(result);
 234              		.loc 2 1918 3 view .LVU78
 235              		.syntax unified
 236              	@ 1918 "Drivers/CMSIS/Include/cmsis_gcc.h" 1
 237 0086 22FB1192 		smladx r2, r2, r1, r9
 238              	@ 0 "" 2
 239              	.LVL28:
 240              		.loc 2 1919 3 view .LVU79
 241              		.loc 2 1919 3 is_stmt 0 view .LVU80
 242              		.thumb
 243              		.syntax unified
 244              	.LBE71:
 245              	.LBE70:
 208:Drivers/CMSIS/DSP/Source/FilteringFunctions/arm_conv_fast_q15.c **** 
 209:Drivers/CMSIS/DSP/Source/FilteringFunctions/arm_conv_fast_q15.c ****       /* Decrement the loop counter */
 210:Drivers/CMSIS/DSP/Source/FilteringFunctions/arm_conv_fast_q15.c ****       k--;
 246              		.loc 1 210 7 is_stmt 1 view .LVU81
 247              		.loc 1 210 8 is_stmt 0 view .LVU82
 248 008a 013B     		subs	r3, r3, #1
 249              	.LVL29:
ARM GAS  /tmp/ccQmvCRG.s 			page 43


 207:Drivers/CMSIS/DSP/Source/FilteringFunctions/arm_conv_fast_q15.c **** 
 250              		.loc 1 207 52 view .LVU83
 251 008c F246     		mov	r10, lr
 207:Drivers/CMSIS/DSP/Source/FilteringFunctions/arm_conv_fast_q15.c **** 
 252              		.loc 1 207 35 view .LVU84
 253 008e 3146     		mov	r1, r6
 254              	.LVL30:
 255              	.L8:
 201:Drivers/CMSIS/DSP/Source/FilteringFunctions/arm_conv_fast_q15.c ****     {
 256              		.loc 1 201 14 is_stmt 1 view .LVU85
 257 0090 002B     		cmp	r3, #0
 258 0092 EDD1     		bne	.L9
 211:Drivers/CMSIS/DSP/Source/FilteringFunctions/arm_conv_fast_q15.c ****     }
 212:Drivers/CMSIS/DSP/Source/FilteringFunctions/arm_conv_fast_q15.c **** 
 213:Drivers/CMSIS/DSP/Source/FilteringFunctions/arm_conv_fast_q15.c ****     /* For the next MAC operations, the pointer py is used without SIMD
 214:Drivers/CMSIS/DSP/Source/FilteringFunctions/arm_conv_fast_q15.c ****      * So, py is incremented by 1 */
 215:Drivers/CMSIS/DSP/Source/FilteringFunctions/arm_conv_fast_q15.c ****     py = py + 1U;
 259              		.loc 1 215 13 is_stmt 0 view .LVU86
 260 0094 5346     		mov	r3, r10
 261              	.LVL31:
 262              		.loc 1 215 5 is_stmt 1 view .LVU87
 263              		.loc 1 215 13 is_stmt 0 view .LVU88
 264 0096 0233     		adds	r3, r3, #2
 265              	.LVL32:
 216:Drivers/CMSIS/DSP/Source/FilteringFunctions/arm_conv_fast_q15.c **** 
 217:Drivers/CMSIS/DSP/Source/FilteringFunctions/arm_conv_fast_q15.c ****     /* If the count is not a multiple of 4, compute any remaining MACs here.
 218:Drivers/CMSIS/DSP/Source/FilteringFunctions/arm_conv_fast_q15.c ****      ** No loop unrolling is used. */
 219:Drivers/CMSIS/DSP/Source/FilteringFunctions/arm_conv_fast_q15.c ****     k = count % 0x4U;
 266              		.loc 1 219 5 is_stmt 1 view .LVU89
 267              		.loc 1 219 7 is_stmt 0 view .LVU90
 268 0098 05F00306 		and	r6, r5, #3
 269              	.LVL33:
 220:Drivers/CMSIS/DSP/Source/FilteringFunctions/arm_conv_fast_q15.c **** 
 221:Drivers/CMSIS/DSP/Source/FilteringFunctions/arm_conv_fast_q15.c ****     while (k > 0U)
 270              		.loc 1 221 5 is_stmt 1 view .LVU91
 271              		.loc 1 221 11 is_stmt 0 view .LVU92
 272 009c 06E0     		b	.L10
 273              	.L11:
 222:Drivers/CMSIS/DSP/Source/FilteringFunctions/arm_conv_fast_q15.c ****     {
 223:Drivers/CMSIS/DSP/Source/FilteringFunctions/arm_conv_fast_q15.c ****       /* Perform the multiply-accumulates */
 224:Drivers/CMSIS/DSP/Source/FilteringFunctions/arm_conv_fast_q15.c ****       sum = __SMLAD(*px++, *py--, sum);
 274              		.loc 1 224 7 is_stmt 1 view .LVU93
 275              	.LVL34:
 276              		.loc 1 224 21 is_stmt 0 view .LVU94
 277 009e 31F9027B 		ldrsh	r7, [r1], #2
 278              	.LVL35:
 279              		.loc 1 224 28 view .LVU95
 280 00a2 33F902E9 		ldrsh	lr, [r3], #-2
 281              	.LVL36:
 282              	.LBB72:
 283              	.LBI72:
1906:Drivers/CMSIS/Include/cmsis_gcc.h **** {
 284              		.loc 2 1906 31 is_stmt 1 view .LVU96
 285              	.LBB73:
1908:Drivers/CMSIS/Include/cmsis_gcc.h **** 
 286              		.loc 2 1908 3 view .LVU97
1910:Drivers/CMSIS/Include/cmsis_gcc.h ****   return(result);
ARM GAS  /tmp/ccQmvCRG.s 			page 44


 287              		.loc 2 1910 3 view .LVU98
 288              		.syntax unified
 289              	@ 1910 "Drivers/CMSIS/Include/cmsis_gcc.h" 1
 290 00a6 27FB0E22 		smlad r2, r7, lr, r2
 291              	@ 0 "" 2
 292              	.LVL37:
1911:Drivers/CMSIS/Include/cmsis_gcc.h **** }
 293              		.loc 2 1911 3 view .LVU99
1911:Drivers/CMSIS/Include/cmsis_gcc.h **** }
 294              		.loc 2 1911 3 is_stmt 0 view .LVU100
 295              		.thumb
 296              		.syntax unified
 297              	.LBE73:
 298              	.LBE72:
 225:Drivers/CMSIS/DSP/Source/FilteringFunctions/arm_conv_fast_q15.c **** 
 226:Drivers/CMSIS/DSP/Source/FilteringFunctions/arm_conv_fast_q15.c ****       /* Decrement the loop counter */
 227:Drivers/CMSIS/DSP/Source/FilteringFunctions/arm_conv_fast_q15.c ****       k--;
 299              		.loc 1 227 7 is_stmt 1 view .LVU101
 300              		.loc 1 227 8 is_stmt 0 view .LVU102
 301 00aa 013E     		subs	r6, r6, #1
 302              	.LVL38:
 303              	.L10:
 221:Drivers/CMSIS/DSP/Source/FilteringFunctions/arm_conv_fast_q15.c ****     {
 304              		.loc 1 221 14 is_stmt 1 view .LVU103
 305 00ac 002E     		cmp	r6, #0
 306 00ae F6D1     		bne	.L11
 228:Drivers/CMSIS/DSP/Source/FilteringFunctions/arm_conv_fast_q15.c ****     }
 229:Drivers/CMSIS/DSP/Source/FilteringFunctions/arm_conv_fast_q15.c **** 
 230:Drivers/CMSIS/DSP/Source/FilteringFunctions/arm_conv_fast_q15.c ****     /* Store the result in the accumulator in the destination buffer. */
 231:Drivers/CMSIS/DSP/Source/FilteringFunctions/arm_conv_fast_q15.c ****     *pOut++ = (q15_t) (sum >> 15);
 307              		.loc 1 231 5 view .LVU104
 308              		.loc 1 231 10 is_stmt 0 view .LVU105
 309 00b0 1699     		ldr	r1, [sp, #88]
 310              	.LVL39:
 311              		.loc 1 231 15 view .LVU106
 312 00b2 42F3CF32 		sbfx	r2, r2, #15, #16
 313              	.LVL40:
 314              		.loc 1 231 13 view .LVU107
 315 00b6 21F8022B 		strh	r2, [r1], #2	@ movhi
 316              	.LVL41:
 232:Drivers/CMSIS/DSP/Source/FilteringFunctions/arm_conv_fast_q15.c **** 
 233:Drivers/CMSIS/DSP/Source/FilteringFunctions/arm_conv_fast_q15.c ****     /* Update the inputA and inputB pointers for next MAC calculation */
 234:Drivers/CMSIS/DSP/Source/FilteringFunctions/arm_conv_fast_q15.c ****     py = pIn2 + (count - 1U);
 317              		.loc 1 234 5 is_stmt 1 view .LVU108
 318              		.loc 1 234 15 is_stmt 0 view .LVU109
 319 00ba 6FF00043 		mvn	r3, #-2147483648
 320              	.LVL42:
 321              		.loc 1 234 15 view .LVU110
 322 00be 2B44     		add	r3, r3, r5
 323 00c0 00EB4303 		add	r3, r0, r3, lsl #1
 324              	.LVL43:
 235:Drivers/CMSIS/DSP/Source/FilteringFunctions/arm_conv_fast_q15.c ****     px = pIn1;
 325              		.loc 1 235 5 is_stmt 1 view .LVU111
 236:Drivers/CMSIS/DSP/Source/FilteringFunctions/arm_conv_fast_q15.c **** 
 237:Drivers/CMSIS/DSP/Source/FilteringFunctions/arm_conv_fast_q15.c ****     /* Increment the MAC count */
 238:Drivers/CMSIS/DSP/Source/FilteringFunctions/arm_conv_fast_q15.c ****     count++;
 326              		.loc 1 238 5 view .LVU112
ARM GAS  /tmp/ccQmvCRG.s 			page 45


 327              		.loc 1 238 10 is_stmt 0 view .LVU113
 328 00c4 0135     		adds	r5, r5, #1
 329              	.LVL44:
 239:Drivers/CMSIS/DSP/Source/FilteringFunctions/arm_conv_fast_q15.c **** 
 240:Drivers/CMSIS/DSP/Source/FilteringFunctions/arm_conv_fast_q15.c ****     /* Decrement the loop counter */
 241:Drivers/CMSIS/DSP/Source/FilteringFunctions/arm_conv_fast_q15.c ****     blockSize1--;
 330              		.loc 1 241 5 is_stmt 1 view .LVU114
 331              		.loc 1 241 15 is_stmt 0 view .LVU115
 332 00c6 013C     		subs	r4, r4, #1
 333              	.LVL45:
 231:Drivers/CMSIS/DSP/Source/FilteringFunctions/arm_conv_fast_q15.c **** 
 334              		.loc 1 231 10 view .LVU116
 335 00c8 1691     		str	r1, [sp, #88]
 336              	.LVL46:
 337              	.L7:
 191:Drivers/CMSIS/DSP/Source/FilteringFunctions/arm_conv_fast_q15.c ****   {
 338              		.loc 1 191 21 is_stmt 1 view .LVU117
 339 00ca 2CB1     		cbz	r4, .L47
 194:Drivers/CMSIS/DSP/Source/FilteringFunctions/arm_conv_fast_q15.c **** 
 340              		.loc 1 194 5 view .LVU118
 341              	.LVL47:
 197:Drivers/CMSIS/DSP/Source/FilteringFunctions/arm_conv_fast_q15.c **** 
 342              		.loc 1 197 5 view .LVU119
 197:Drivers/CMSIS/DSP/Source/FilteringFunctions/arm_conv_fast_q15.c **** 
 343              		.loc 1 197 7 is_stmt 0 view .LVU120
 344 00cc AF08     		lsrs	r7, r5, #2
 345              	.LVL48:
 201:Drivers/CMSIS/DSP/Source/FilteringFunctions/arm_conv_fast_q15.c ****     {
 346              		.loc 1 201 5 is_stmt 1 view .LVU121
 201:Drivers/CMSIS/DSP/Source/FilteringFunctions/arm_conv_fast_q15.c ****     {
 347              		.loc 1 201 11 is_stmt 0 view .LVU122
 348 00ce 0499     		ldr	r1, [sp, #16]
 194:Drivers/CMSIS/DSP/Source/FilteringFunctions/arm_conv_fast_q15.c **** 
 349              		.loc 1 194 9 view .LVU123
 350 00d0 0022     		movs	r2, #0
 351 00d2 9A46     		mov	r10, r3
 352 00d4 3B46     		mov	r3, r7
 353              	.LVL49:
 201:Drivers/CMSIS/DSP/Source/FilteringFunctions/arm_conv_fast_q15.c ****     {
 354              		.loc 1 201 11 view .LVU124
 355 00d6 DBE7     		b	.L8
 356              	.LVL50:
 357              	.L47:
 242:Drivers/CMSIS/DSP/Source/FilteringFunctions/arm_conv_fast_q15.c ****   }
 243:Drivers/CMSIS/DSP/Source/FilteringFunctions/arm_conv_fast_q15.c **** 
 244:Drivers/CMSIS/DSP/Source/FilteringFunctions/arm_conv_fast_q15.c ****   /* --------------------------
 245:Drivers/CMSIS/DSP/Source/FilteringFunctions/arm_conv_fast_q15.c ****    * Initializations of stage2
 246:Drivers/CMSIS/DSP/Source/FilteringFunctions/arm_conv_fast_q15.c ****    * ------------------------*/
 247:Drivers/CMSIS/DSP/Source/FilteringFunctions/arm_conv_fast_q15.c **** 
 248:Drivers/CMSIS/DSP/Source/FilteringFunctions/arm_conv_fast_q15.c ****   /* sum = x[0] * y[srcBLen-1] + x[1] * y[srcBLen-2] +...+ x[srcBLen-1] * y[0]
 249:Drivers/CMSIS/DSP/Source/FilteringFunctions/arm_conv_fast_q15.c ****    * sum = x[1] * y[srcBLen-1] + x[2] * y[srcBLen-2] +...+ x[srcBLen] * y[0]
 250:Drivers/CMSIS/DSP/Source/FilteringFunctions/arm_conv_fast_q15.c ****    * ....
 251:Drivers/CMSIS/DSP/Source/FilteringFunctions/arm_conv_fast_q15.c ****    * sum = x[srcALen-srcBLen-2] * y[srcBLen-1] + x[srcALen] * y[srcBLen-2] +...+ x[srcALen-1] * y[0
 252:Drivers/CMSIS/DSP/Source/FilteringFunctions/arm_conv_fast_q15.c ****    */
 253:Drivers/CMSIS/DSP/Source/FilteringFunctions/arm_conv_fast_q15.c **** 
 254:Drivers/CMSIS/DSP/Source/FilteringFunctions/arm_conv_fast_q15.c ****   /* Working pointer of inputA */
 255:Drivers/CMSIS/DSP/Source/FilteringFunctions/arm_conv_fast_q15.c ****   px = pIn1;
ARM GAS  /tmp/ccQmvCRG.s 			page 46


 256:Drivers/CMSIS/DSP/Source/FilteringFunctions/arm_conv_fast_q15.c **** 
 257:Drivers/CMSIS/DSP/Source/FilteringFunctions/arm_conv_fast_q15.c ****   /* Working pointer of inputB */
 258:Drivers/CMSIS/DSP/Source/FilteringFunctions/arm_conv_fast_q15.c ****   pSrc2 = pIn2 + (srcBLen - 1U);
 358              		.loc 1 258 16 view .LVU125
 359 00d8 A246     		mov	r10, r4
 360 00da 6746     		mov	r7, ip
 255:Drivers/CMSIS/DSP/Source/FilteringFunctions/arm_conv_fast_q15.c **** 
 361              		.loc 1 255 3 is_stmt 1 view .LVU126
 362              		.loc 1 258 3 view .LVU127
 363              		.loc 1 258 16 is_stmt 0 view .LVU128
 364 00dc 6FF00043 		mvn	r3, #-2147483648
 365              	.LVL51:
 366              		.loc 1 258 16 view .LVU129
 367 00e0 069A     		ldr	r2, [sp, #24]
 368 00e2 1344     		add	r3, r3, r2
 369              		.loc 1 258 9 view .LVU130
 370 00e4 00EB4303 		add	r3, r0, r3, lsl #1
 371 00e8 0593     		str	r3, [sp, #20]
 372              	.LVL52:
 259:Drivers/CMSIS/DSP/Source/FilteringFunctions/arm_conv_fast_q15.c ****   py = pSrc2;
 373              		.loc 1 259 3 is_stmt 1 view .LVU131
 260:Drivers/CMSIS/DSP/Source/FilteringFunctions/arm_conv_fast_q15.c **** 
 261:Drivers/CMSIS/DSP/Source/FilteringFunctions/arm_conv_fast_q15.c ****   /* count is the index by which the pointer pIn1 to be incremented */
 262:Drivers/CMSIS/DSP/Source/FilteringFunctions/arm_conv_fast_q15.c ****   count = 0U;
 374              		.loc 1 262 3 view .LVU132
 263:Drivers/CMSIS/DSP/Source/FilteringFunctions/arm_conv_fast_q15.c **** 
 264:Drivers/CMSIS/DSP/Source/FilteringFunctions/arm_conv_fast_q15.c **** 
 265:Drivers/CMSIS/DSP/Source/FilteringFunctions/arm_conv_fast_q15.c ****   /* --------------------
 266:Drivers/CMSIS/DSP/Source/FilteringFunctions/arm_conv_fast_q15.c ****    * Stage2 process
 267:Drivers/CMSIS/DSP/Source/FilteringFunctions/arm_conv_fast_q15.c ****    * -------------------*/
 268:Drivers/CMSIS/DSP/Source/FilteringFunctions/arm_conv_fast_q15.c **** 
 269:Drivers/CMSIS/DSP/Source/FilteringFunctions/arm_conv_fast_q15.c ****   /* Stage2 depends on srcBLen as in this stage srcBLen number of MACS are performed.
 270:Drivers/CMSIS/DSP/Source/FilteringFunctions/arm_conv_fast_q15.c ****    * So, to loop unroll over blockSize2,
 271:Drivers/CMSIS/DSP/Source/FilteringFunctions/arm_conv_fast_q15.c ****    * srcBLen should be greater than or equal to 4 */
 272:Drivers/CMSIS/DSP/Source/FilteringFunctions/arm_conv_fast_q15.c ****   if (srcBLen >= 4U)
 375              		.loc 1 272 3 view .LVU133
 376              		.loc 1 272 6 is_stmt 0 view .LVU134
 377 00ea 032A     		cmp	r2, #3
 378 00ec 40F22181 		bls	.L40
 379              	.LVL53:
 273:Drivers/CMSIS/DSP/Source/FilteringFunctions/arm_conv_fast_q15.c ****   {
 274:Drivers/CMSIS/DSP/Source/FilteringFunctions/arm_conv_fast_q15.c ****     /* Loop unroll over blockSize2, by 4 */
 275:Drivers/CMSIS/DSP/Source/FilteringFunctions/arm_conv_fast_q15.c ****     blkCnt = blockSize2 >> 2U;
 380              		.loc 1 275 5 is_stmt 1 view .LVU135
 381              		.loc 1 275 12 is_stmt 0 view .LVU136
 382 00f0 4FEA9803 		lsr	r3, r8, #2
 383              	.LVL54:
 384              		.loc 1 275 12 view .LVU137
 385 00f4 0793     		str	r3, [sp, #28]
 386              	.LVL55:
 276:Drivers/CMSIS/DSP/Source/FilteringFunctions/arm_conv_fast_q15.c **** 
 277:Drivers/CMSIS/DSP/Source/FilteringFunctions/arm_conv_fast_q15.c ****     while (blkCnt > 0U)
 387              		.loc 1 277 5 is_stmt 1 view .LVU138
 255:Drivers/CMSIS/DSP/Source/FilteringFunctions/arm_conv_fast_q15.c **** 
 388              		.loc 1 255 6 is_stmt 0 view .LVU139
 389 00f6 049B     		ldr	r3, [sp, #16]
 390              	.LVL56:
ARM GAS  /tmp/ccQmvCRG.s 			page 47


 255:Drivers/CMSIS/DSP/Source/FilteringFunctions/arm_conv_fast_q15.c **** 
 391              		.loc 1 255 6 view .LVU140
 392 00f8 0894     		str	r4, [sp, #32]
 393 00fa CDF828C0 		str	ip, [sp, #40]
 394 00fe CDF82C80 		str	r8, [sp, #44]
 395              		.loc 1 277 11 view .LVU141
 396 0102 41E0     		b	.L14
 397              	.LVL57:
 398              	.L49:
 278:Drivers/CMSIS/DSP/Source/FilteringFunctions/arm_conv_fast_q15.c ****     {
 279:Drivers/CMSIS/DSP/Source/FilteringFunctions/arm_conv_fast_q15.c ****       py = py - 1U;
 280:Drivers/CMSIS/DSP/Source/FilteringFunctions/arm_conv_fast_q15.c **** 
 281:Drivers/CMSIS/DSP/Source/FilteringFunctions/arm_conv_fast_q15.c ****       /* Set all accumulators to zero */
 282:Drivers/CMSIS/DSP/Source/FilteringFunctions/arm_conv_fast_q15.c ****       acc0 = 0;
 283:Drivers/CMSIS/DSP/Source/FilteringFunctions/arm_conv_fast_q15.c ****       acc1 = 0;
 284:Drivers/CMSIS/DSP/Source/FilteringFunctions/arm_conv_fast_q15.c ****       acc2 = 0;
 285:Drivers/CMSIS/DSP/Source/FilteringFunctions/arm_conv_fast_q15.c ****       acc3 = 0;
 286:Drivers/CMSIS/DSP/Source/FilteringFunctions/arm_conv_fast_q15.c **** 
 287:Drivers/CMSIS/DSP/Source/FilteringFunctions/arm_conv_fast_q15.c **** 
 288:Drivers/CMSIS/DSP/Source/FilteringFunctions/arm_conv_fast_q15.c ****       /* read x[0], x[1] samples */
 289:Drivers/CMSIS/DSP/Source/FilteringFunctions/arm_conv_fast_q15.c ****       x0 = *__SIMD32(px);
 290:Drivers/CMSIS/DSP/Source/FilteringFunctions/arm_conv_fast_q15.c ****       /* read x[1], x[2] samples */
 291:Drivers/CMSIS/DSP/Source/FilteringFunctions/arm_conv_fast_q15.c ****       x1 = _SIMD32_OFFSET(px+1);
 292:Drivers/CMSIS/DSP/Source/FilteringFunctions/arm_conv_fast_q15.c **** 	  px+= 2U;
 293:Drivers/CMSIS/DSP/Source/FilteringFunctions/arm_conv_fast_q15.c **** 
 294:Drivers/CMSIS/DSP/Source/FilteringFunctions/arm_conv_fast_q15.c **** 
 295:Drivers/CMSIS/DSP/Source/FilteringFunctions/arm_conv_fast_q15.c ****       /* Apply loop unrolling and compute 4 MACs simultaneously. */
 296:Drivers/CMSIS/DSP/Source/FilteringFunctions/arm_conv_fast_q15.c ****       k = srcBLen >> 2U;
 297:Drivers/CMSIS/DSP/Source/FilteringFunctions/arm_conv_fast_q15.c **** 
 298:Drivers/CMSIS/DSP/Source/FilteringFunctions/arm_conv_fast_q15.c ****       /* First part of the processing with loop unrolling.  Compute 4 MACs at a time.
 299:Drivers/CMSIS/DSP/Source/FilteringFunctions/arm_conv_fast_q15.c ****        ** a second loop below computes MACs for the remaining 1 to 3 samples. */
 300:Drivers/CMSIS/DSP/Source/FilteringFunctions/arm_conv_fast_q15.c ****       do
 301:Drivers/CMSIS/DSP/Source/FilteringFunctions/arm_conv_fast_q15.c ****       {
 302:Drivers/CMSIS/DSP/Source/FilteringFunctions/arm_conv_fast_q15.c ****         /* Read the last two inputB samples using SIMD:
 303:Drivers/CMSIS/DSP/Source/FilteringFunctions/arm_conv_fast_q15.c ****          * y[srcBLen - 1] and y[srcBLen - 2] */
 304:Drivers/CMSIS/DSP/Source/FilteringFunctions/arm_conv_fast_q15.c ****         c0 = *__SIMD32(py)--;
 305:Drivers/CMSIS/DSP/Source/FilteringFunctions/arm_conv_fast_q15.c **** 
 306:Drivers/CMSIS/DSP/Source/FilteringFunctions/arm_conv_fast_q15.c ****         /* acc0 +=  x[0] * y[srcBLen - 1] + x[1] * y[srcBLen - 2] */
 307:Drivers/CMSIS/DSP/Source/FilteringFunctions/arm_conv_fast_q15.c ****         acc0 = __SMLADX(x0, c0, acc0);
 308:Drivers/CMSIS/DSP/Source/FilteringFunctions/arm_conv_fast_q15.c **** 
 309:Drivers/CMSIS/DSP/Source/FilteringFunctions/arm_conv_fast_q15.c ****         /* acc1 +=  x[1] * y[srcBLen - 1] + x[2] * y[srcBLen - 2] */
 310:Drivers/CMSIS/DSP/Source/FilteringFunctions/arm_conv_fast_q15.c ****         acc1 = __SMLADX(x1, c0, acc1);
 311:Drivers/CMSIS/DSP/Source/FilteringFunctions/arm_conv_fast_q15.c **** 
 312:Drivers/CMSIS/DSP/Source/FilteringFunctions/arm_conv_fast_q15.c ****         /* Read x[2], x[3] */
 313:Drivers/CMSIS/DSP/Source/FilteringFunctions/arm_conv_fast_q15.c ****         x2 = *__SIMD32(px);
 314:Drivers/CMSIS/DSP/Source/FilteringFunctions/arm_conv_fast_q15.c **** 
 315:Drivers/CMSIS/DSP/Source/FilteringFunctions/arm_conv_fast_q15.c ****         /* Read x[3], x[4] */
 316:Drivers/CMSIS/DSP/Source/FilteringFunctions/arm_conv_fast_q15.c ****         x3 = _SIMD32_OFFSET(px+1);
 317:Drivers/CMSIS/DSP/Source/FilteringFunctions/arm_conv_fast_q15.c **** 
 318:Drivers/CMSIS/DSP/Source/FilteringFunctions/arm_conv_fast_q15.c ****         /* acc2 +=  x[2] * y[srcBLen - 1] + x[3] * y[srcBLen - 2] */
 319:Drivers/CMSIS/DSP/Source/FilteringFunctions/arm_conv_fast_q15.c ****         acc2 = __SMLADX(x2, c0, acc2);
 320:Drivers/CMSIS/DSP/Source/FilteringFunctions/arm_conv_fast_q15.c **** 
 321:Drivers/CMSIS/DSP/Source/FilteringFunctions/arm_conv_fast_q15.c ****         /* acc3 +=  x[3] * y[srcBLen - 1] + x[4] * y[srcBLen - 2] */
 322:Drivers/CMSIS/DSP/Source/FilteringFunctions/arm_conv_fast_q15.c ****         acc3 = __SMLADX(x3, c0, acc3);
 323:Drivers/CMSIS/DSP/Source/FilteringFunctions/arm_conv_fast_q15.c **** 
 324:Drivers/CMSIS/DSP/Source/FilteringFunctions/arm_conv_fast_q15.c ****         /* Read y[srcBLen - 3] and y[srcBLen - 4] */
 325:Drivers/CMSIS/DSP/Source/FilteringFunctions/arm_conv_fast_q15.c ****         c0 = *__SIMD32(py)--;
ARM GAS  /tmp/ccQmvCRG.s 			page 48


 326:Drivers/CMSIS/DSP/Source/FilteringFunctions/arm_conv_fast_q15.c **** 
 327:Drivers/CMSIS/DSP/Source/FilteringFunctions/arm_conv_fast_q15.c ****         /* acc0 +=  x[2] * y[srcBLen - 3] + x[3] * y[srcBLen - 4] */
 328:Drivers/CMSIS/DSP/Source/FilteringFunctions/arm_conv_fast_q15.c ****         acc0 = __SMLADX(x2, c0, acc0);
 329:Drivers/CMSIS/DSP/Source/FilteringFunctions/arm_conv_fast_q15.c **** 
 330:Drivers/CMSIS/DSP/Source/FilteringFunctions/arm_conv_fast_q15.c ****         /* acc1 +=  x[3] * y[srcBLen - 3] + x[4] * y[srcBLen - 4] */
 331:Drivers/CMSIS/DSP/Source/FilteringFunctions/arm_conv_fast_q15.c ****         acc1 = __SMLADX(x3, c0, acc1);
 332:Drivers/CMSIS/DSP/Source/FilteringFunctions/arm_conv_fast_q15.c **** 
 333:Drivers/CMSIS/DSP/Source/FilteringFunctions/arm_conv_fast_q15.c ****         /* Read x[4], x[5] */
 334:Drivers/CMSIS/DSP/Source/FilteringFunctions/arm_conv_fast_q15.c ****         x0 = _SIMD32_OFFSET(px+2);
 335:Drivers/CMSIS/DSP/Source/FilteringFunctions/arm_conv_fast_q15.c **** 
 336:Drivers/CMSIS/DSP/Source/FilteringFunctions/arm_conv_fast_q15.c ****         /* Read x[5], x[6] */
 337:Drivers/CMSIS/DSP/Source/FilteringFunctions/arm_conv_fast_q15.c ****         x1 = _SIMD32_OFFSET(px+3);
 338:Drivers/CMSIS/DSP/Source/FilteringFunctions/arm_conv_fast_q15.c **** 		px += 4U;
 339:Drivers/CMSIS/DSP/Source/FilteringFunctions/arm_conv_fast_q15.c **** 
 340:Drivers/CMSIS/DSP/Source/FilteringFunctions/arm_conv_fast_q15.c ****         /* acc2 +=  x[4] * y[srcBLen - 3] + x[5] * y[srcBLen - 4] */
 341:Drivers/CMSIS/DSP/Source/FilteringFunctions/arm_conv_fast_q15.c ****         acc2 = __SMLADX(x0, c0, acc2);
 342:Drivers/CMSIS/DSP/Source/FilteringFunctions/arm_conv_fast_q15.c **** 
 343:Drivers/CMSIS/DSP/Source/FilteringFunctions/arm_conv_fast_q15.c ****         /* acc3 +=  x[5] * y[srcBLen - 3] + x[6] * y[srcBLen - 4] */
 344:Drivers/CMSIS/DSP/Source/FilteringFunctions/arm_conv_fast_q15.c ****         acc3 = __SMLADX(x1, c0, acc3);
 345:Drivers/CMSIS/DSP/Source/FilteringFunctions/arm_conv_fast_q15.c **** 
 346:Drivers/CMSIS/DSP/Source/FilteringFunctions/arm_conv_fast_q15.c ****       } while (--k);
 347:Drivers/CMSIS/DSP/Source/FilteringFunctions/arm_conv_fast_q15.c **** 
 348:Drivers/CMSIS/DSP/Source/FilteringFunctions/arm_conv_fast_q15.c ****       /* For the next MAC operations, SIMD is not used
 349:Drivers/CMSIS/DSP/Source/FilteringFunctions/arm_conv_fast_q15.c ****        * So, the 16 bit pointer if inputB, py is updated */
 350:Drivers/CMSIS/DSP/Source/FilteringFunctions/arm_conv_fast_q15.c **** 
 351:Drivers/CMSIS/DSP/Source/FilteringFunctions/arm_conv_fast_q15.c ****       /* If the srcBLen is not a multiple of 4, compute any remaining MACs here.
 352:Drivers/CMSIS/DSP/Source/FilteringFunctions/arm_conv_fast_q15.c ****        ** No loop unrolling is used. */
 353:Drivers/CMSIS/DSP/Source/FilteringFunctions/arm_conv_fast_q15.c ****       k = srcBLen % 0x4U;
 354:Drivers/CMSIS/DSP/Source/FilteringFunctions/arm_conv_fast_q15.c **** 
 355:Drivers/CMSIS/DSP/Source/FilteringFunctions/arm_conv_fast_q15.c ****       if (k == 1U)
 356:Drivers/CMSIS/DSP/Source/FilteringFunctions/arm_conv_fast_q15.c ****       {
 357:Drivers/CMSIS/DSP/Source/FilteringFunctions/arm_conv_fast_q15.c ****         /* Read y[srcBLen - 5] */
 358:Drivers/CMSIS/DSP/Source/FilteringFunctions/arm_conv_fast_q15.c ****         c0 = *(py+1);
 399              		.loc 1 358 9 is_stmt 1 view .LVU142
 400              		.loc 1 358 14 is_stmt 0 view .LVU143
 401 0104 39F9068C 		ldrsh	r8, [r9, #-6]
 402              	.LVL58:
 359:Drivers/CMSIS/DSP/Source/FilteringFunctions/arm_conv_fast_q15.c **** 
 360:Drivers/CMSIS/DSP/Source/FilteringFunctions/arm_conv_fast_q15.c **** #ifdef  ARM_MATH_BIG_ENDIAN
 361:Drivers/CMSIS/DSP/Source/FilteringFunctions/arm_conv_fast_q15.c **** 
 362:Drivers/CMSIS/DSP/Source/FilteringFunctions/arm_conv_fast_q15.c ****         c0 = c0 << 16U;
 363:Drivers/CMSIS/DSP/Source/FilteringFunctions/arm_conv_fast_q15.c **** 
 364:Drivers/CMSIS/DSP/Source/FilteringFunctions/arm_conv_fast_q15.c **** #else
 365:Drivers/CMSIS/DSP/Source/FilteringFunctions/arm_conv_fast_q15.c **** 
 366:Drivers/CMSIS/DSP/Source/FilteringFunctions/arm_conv_fast_q15.c ****         c0 = c0 & 0x0000FFFF;
 403              		.loc 1 366 9 is_stmt 1 view .LVU144
 404              		.loc 1 366 12 is_stmt 0 view .LVU145
 405 0108 1FFA88F8 		uxth	r8, r8
 406              	.LVL59:
 367:Drivers/CMSIS/DSP/Source/FilteringFunctions/arm_conv_fast_q15.c **** 
 368:Drivers/CMSIS/DSP/Source/FilteringFunctions/arm_conv_fast_q15.c **** #endif /*      #ifdef  ARM_MATH_BIG_ENDIAN     */
 369:Drivers/CMSIS/DSP/Source/FilteringFunctions/arm_conv_fast_q15.c **** 
 370:Drivers/CMSIS/DSP/Source/FilteringFunctions/arm_conv_fast_q15.c ****         /* Read x[7] */
 371:Drivers/CMSIS/DSP/Source/FilteringFunctions/arm_conv_fast_q15.c ****         x3 = *__SIMD32(px);
 407              		.loc 1 371 9 is_stmt 1 view .LVU146
 408              		.loc 1 371 12 is_stmt 0 view .LVU147
 409 010c 039B     		ldr	r3, [sp, #12]
ARM GAS  /tmp/ccQmvCRG.s 			page 49


 410              	.LVL60:
 411              		.loc 1 371 12 view .LVU148
 412 010e D3F808B0 		ldr	fp, [r3, #8]
 413              	.LVL61:
 372:Drivers/CMSIS/DSP/Source/FilteringFunctions/arm_conv_fast_q15.c **** 		px++;
 414              		.loc 1 372 3 is_stmt 1 view .LVU149
 415              		.loc 1 372 5 is_stmt 0 view .LVU150
 416 0112 0A33     		adds	r3, r3, #10
 417              	.LVL62:
 373:Drivers/CMSIS/DSP/Source/FilteringFunctions/arm_conv_fast_q15.c **** 
 374:Drivers/CMSIS/DSP/Source/FilteringFunctions/arm_conv_fast_q15.c ****         /* Perform the multiply-accumulates */
 375:Drivers/CMSIS/DSP/Source/FilteringFunctions/arm_conv_fast_q15.c ****         acc0 = __SMLAD(x0, c0, acc0);
 418              		.loc 1 375 9 is_stmt 1 view .LVU151
 419              	.LBB74:
 420              	.LBI74:
1906:Drivers/CMSIS/Include/cmsis_gcc.h **** {
 421              		.loc 2 1906 31 view .LVU152
 422              	.LBB75:
1908:Drivers/CMSIS/Include/cmsis_gcc.h **** 
 423              		.loc 2 1908 3 view .LVU153
1910:Drivers/CMSIS/Include/cmsis_gcc.h ****   return(result);
 424              		.loc 2 1910 3 view .LVU154
 425              		.syntax unified
 426              	@ 1910 "Drivers/CMSIS/Include/cmsis_gcc.h" 1
 427 0114 2CFB080C 		smlad ip, ip, r8, r0
 428              	@ 0 "" 2
 429              	.LVL63:
1911:Drivers/CMSIS/Include/cmsis_gcc.h **** }
 430              		.loc 2 1911 3 view .LVU155
1911:Drivers/CMSIS/Include/cmsis_gcc.h **** }
 431              		.loc 2 1911 3 is_stmt 0 view .LVU156
 432              		.thumb
 433              		.syntax unified
 434              	.LBE75:
 435              	.LBE74:
 436              		.loc 1 375 14 discriminator 1 view .LVU157
 437 0118 6446     		mov	r4, ip
 438              	.LVL64:
 376:Drivers/CMSIS/DSP/Source/FilteringFunctions/arm_conv_fast_q15.c ****         acc1 = __SMLAD(x1, c0, acc1);
 439              		.loc 1 376 9 is_stmt 1 view .LVU158
 440              	.LBB76:
 441              	.LBI76:
1906:Drivers/CMSIS/Include/cmsis_gcc.h **** {
 442              		.loc 2 1906 31 view .LVU159
 443              	.LBB77:
1908:Drivers/CMSIS/Include/cmsis_gcc.h **** 
 444              		.loc 2 1908 3 view .LVU160
1910:Drivers/CMSIS/Include/cmsis_gcc.h ****   return(result);
 445              		.loc 2 1910 3 view .LVU161
 446              		.syntax unified
 447              	@ 1910 "Drivers/CMSIS/Include/cmsis_gcc.h" 1
 448 011a 27FB0811 		smlad r1, r7, r8, r1
 449              	@ 0 "" 2
 450              	.LVL65:
1911:Drivers/CMSIS/Include/cmsis_gcc.h **** }
 451              		.loc 2 1911 3 view .LVU162
1911:Drivers/CMSIS/Include/cmsis_gcc.h **** }
ARM GAS  /tmp/ccQmvCRG.s 			page 50


 452              		.loc 2 1911 3 is_stmt 0 view .LVU163
 453              		.thumb
 454              		.syntax unified
 455              	.LBE77:
 456              	.LBE76:
 457              		.loc 1 376 14 discriminator 1 view .LVU164
 458 011e 0E46     		mov	r6, r1
 459              	.LVL66:
 377:Drivers/CMSIS/DSP/Source/FilteringFunctions/arm_conv_fast_q15.c ****         acc2 = __SMLADX(x1, c0, acc2);
 460              		.loc 1 377 9 is_stmt 1 view .LVU165
 461              	.LBB78:
 462              	.LBI78:
1914:Drivers/CMSIS/Include/cmsis_gcc.h **** {
 463              		.loc 2 1914 31 view .LVU166
 464              	.LBB79:
1916:Drivers/CMSIS/Include/cmsis_gcc.h **** 
 465              		.loc 2 1916 3 view .LVU167
1918:Drivers/CMSIS/Include/cmsis_gcc.h ****   return(result);
 466              		.loc 2 1918 3 view .LVU168
 467              		.syntax unified
 468              	@ 1918 "Drivers/CMSIS/Include/cmsis_gcc.h" 1
 469 0120 27FB18A7 		smladx r7, r7, r8, r10
 470              	@ 0 "" 2
 471              	.LVL67:
 472              		.loc 2 1919 3 view .LVU169
 473              		.loc 2 1919 3 is_stmt 0 view .LVU170
 474              		.thumb
 475              		.syntax unified
 476              	.LBE79:
 477              	.LBE78:
 478              		.loc 1 377 14 discriminator 1 view .LVU171
 479 0124 3D46     		mov	r5, r7
 480              	.LVL68:
 378:Drivers/CMSIS/DSP/Source/FilteringFunctions/arm_conv_fast_q15.c ****         acc3 = __SMLADX(x3, c0, acc3);
 481              		.loc 1 378 9 is_stmt 1 view .LVU172
 482              	.LBB80:
 483              	.LBI80:
1914:Drivers/CMSIS/Include/cmsis_gcc.h **** {
 484              		.loc 2 1914 31 view .LVU173
 485              	.LBB81:
1916:Drivers/CMSIS/Include/cmsis_gcc.h **** 
 486              		.loc 2 1916 3 view .LVU174
1918:Drivers/CMSIS/Include/cmsis_gcc.h ****   return(result);
 487              		.loc 2 1918 3 view .LVU175
 488 0126 099A     		ldr	r2, [sp, #36]
 489              		.syntax unified
 490              	@ 1918 "Drivers/CMSIS/Include/cmsis_gcc.h" 1
 491 0128 2BFB182B 		smladx fp, fp, r8, r2
 492              	@ 0 "" 2
 493              	.LVL69:
 494              		.loc 2 1919 3 view .LVU176
 495              		.loc 2 1919 3 is_stmt 0 view .LVU177
 496              		.thumb
 497              		.syntax unified
 498 012c 76E0     		b	.L16
 499              	.LVL70:
 500              	.L50:
ARM GAS  /tmp/ccQmvCRG.s 			page 51


 501              		.loc 2 1919 3 view .LVU178
 502              	.LBE81:
 503              	.LBE80:
 379:Drivers/CMSIS/DSP/Source/FilteringFunctions/arm_conv_fast_q15.c ****       }
 380:Drivers/CMSIS/DSP/Source/FilteringFunctions/arm_conv_fast_q15.c **** 
 381:Drivers/CMSIS/DSP/Source/FilteringFunctions/arm_conv_fast_q15.c ****       if (k == 2U)
 382:Drivers/CMSIS/DSP/Source/FilteringFunctions/arm_conv_fast_q15.c ****       {
 383:Drivers/CMSIS/DSP/Source/FilteringFunctions/arm_conv_fast_q15.c ****         /* Read y[srcBLen - 5], y[srcBLen - 6] */
 384:Drivers/CMSIS/DSP/Source/FilteringFunctions/arm_conv_fast_q15.c ****         c0 = _SIMD32_OFFSET(py);
 504              		.loc 1 384 9 is_stmt 1 view .LVU179
 505              		.loc 1 384 12 is_stmt 0 view .LVU180
 506 012e 59F8082C 		ldr	r2, [r9, #-8]
 507              	.LVL71:
 385:Drivers/CMSIS/DSP/Source/FilteringFunctions/arm_conv_fast_q15.c **** 
 386:Drivers/CMSIS/DSP/Source/FilteringFunctions/arm_conv_fast_q15.c ****         /* Read x[7], x[8] */
 387:Drivers/CMSIS/DSP/Source/FilteringFunctions/arm_conv_fast_q15.c ****         x3 = *__SIMD32(px);
 508              		.loc 1 387 9 is_stmt 1 view .LVU181
 509              		.loc 1 387 12 is_stmt 0 view .LVU182
 510 0132 1868     		ldr	r0, [r3]
 511              	.LVL72:
 388:Drivers/CMSIS/DSP/Source/FilteringFunctions/arm_conv_fast_q15.c **** 
 389:Drivers/CMSIS/DSP/Source/FilteringFunctions/arm_conv_fast_q15.c ****         /* Read x[9] */
 390:Drivers/CMSIS/DSP/Source/FilteringFunctions/arm_conv_fast_q15.c ****         x2 = _SIMD32_OFFSET(px+1);
 512              		.loc 1 390 9 is_stmt 1 view .LVU183
 513              		.loc 1 390 12 is_stmt 0 view .LVU184
 514 0134 D3F80210 		ldr	r1, [r3, #2]
 515              	.LVL73:
 391:Drivers/CMSIS/DSP/Source/FilteringFunctions/arm_conv_fast_q15.c **** 		px += 2U;
 516              		.loc 1 391 3 is_stmt 1 view .LVU185
 517              		.loc 1 391 6 is_stmt 0 view .LVU186
 518 0138 0433     		adds	r3, r3, #4
 519              	.LVL74:
 392:Drivers/CMSIS/DSP/Source/FilteringFunctions/arm_conv_fast_q15.c **** 
 393:Drivers/CMSIS/DSP/Source/FilteringFunctions/arm_conv_fast_q15.c ****         /* Perform the multiply-accumulates */
 394:Drivers/CMSIS/DSP/Source/FilteringFunctions/arm_conv_fast_q15.c ****         acc0 = __SMLADX(x0, c0, acc0);
 520              		.loc 1 394 9 is_stmt 1 view .LVU187
 521              	.LBB82:
 522              	.LBI82:
1914:Drivers/CMSIS/Include/cmsis_gcc.h **** {
 523              		.loc 2 1914 31 view .LVU188
 524              	.LBB83:
1916:Drivers/CMSIS/Include/cmsis_gcc.h **** 
 525              		.loc 2 1916 3 view .LVU189
1918:Drivers/CMSIS/Include/cmsis_gcc.h ****   return(result);
 526              		.loc 2 1918 3 view .LVU190
 527 013a 029F     		ldr	r7, [sp, #8]
 528              		.syntax unified
 529              	@ 1918 "Drivers/CMSIS/Include/cmsis_gcc.h" 1
 530 013c 27FB1244 		smladx r4, r7, r2, r4
 531              	@ 0 "" 2
 532              	.LVL75:
 533              		.loc 2 1919 3 view .LVU191
 534              		.loc 2 1919 3 is_stmt 0 view .LVU192
 535              		.thumb
 536              		.syntax unified
 537              	.LBE83:
 538              	.LBE82:
ARM GAS  /tmp/ccQmvCRG.s 			page 52


 395:Drivers/CMSIS/DSP/Source/FilteringFunctions/arm_conv_fast_q15.c ****         acc1 = __SMLADX(x1, c0, acc1);
 539              		.loc 1 395 9 is_stmt 1 view .LVU193
 540              	.LBB84:
 541              	.LBI84:
1914:Drivers/CMSIS/Include/cmsis_gcc.h **** {
 542              		.loc 2 1914 31 view .LVU194
 543              	.LBB85:
1916:Drivers/CMSIS/Include/cmsis_gcc.h **** 
 544              		.loc 2 1916 3 view .LVU195
1918:Drivers/CMSIS/Include/cmsis_gcc.h ****   return(result);
 545              		.loc 2 1918 3 view .LVU196
 546 0140 019F     		ldr	r7, [sp, #4]
 547              		.syntax unified
 548              	@ 1918 "Drivers/CMSIS/Include/cmsis_gcc.h" 1
 549 0142 27FB1266 		smladx r6, r7, r2, r6
 550              	@ 0 "" 2
 551              	.LVL76:
 552              		.loc 2 1919 3 view .LVU197
 553              		.loc 2 1919 3 is_stmt 0 view .LVU198
 554              		.thumb
 555              		.syntax unified
 556              	.LBE85:
 557              	.LBE84:
 396:Drivers/CMSIS/DSP/Source/FilteringFunctions/arm_conv_fast_q15.c ****         acc2 = __SMLADX(x3, c0, acc2);
 558              		.loc 1 396 9 is_stmt 1 view .LVU199
 559              	.LBB86:
 560              	.LBI86:
1914:Drivers/CMSIS/Include/cmsis_gcc.h **** {
 561              		.loc 2 1914 31 view .LVU200
 562              	.LBB87:
1916:Drivers/CMSIS/Include/cmsis_gcc.h **** 
 563              		.loc 2 1916 3 view .LVU201
1918:Drivers/CMSIS/Include/cmsis_gcc.h ****   return(result);
 564              		.loc 2 1918 3 view .LVU202
 565              		.syntax unified
 566              	@ 1918 "Drivers/CMSIS/Include/cmsis_gcc.h" 1
 567 0146 20FB1250 		smladx r0, r0, r2, r5
 568              	@ 0 "" 2
 569              	.LVL77:
 570              		.loc 2 1919 3 view .LVU203
 571              		.loc 2 1919 3 is_stmt 0 view .LVU204
 572              		.thumb
 573              		.syntax unified
 574              	.LBE87:
 575              	.LBE86:
 576              		.loc 1 396 14 discriminator 1 view .LVU205
 577 014a 0546     		mov	r5, r0
 578              	.LVL78:
 397:Drivers/CMSIS/DSP/Source/FilteringFunctions/arm_conv_fast_q15.c ****         acc3 = __SMLADX(x2, c0, acc3);
 579              		.loc 1 397 9 is_stmt 1 view .LVU206
 580              	.LBB88:
 581              	.LBI88:
1914:Drivers/CMSIS/Include/cmsis_gcc.h **** {
 582              		.loc 2 1914 31 view .LVU207
 583              	.LBB89:
1916:Drivers/CMSIS/Include/cmsis_gcc.h **** 
 584              		.loc 2 1916 3 view .LVU208
ARM GAS  /tmp/ccQmvCRG.s 			page 53


1918:Drivers/CMSIS/Include/cmsis_gcc.h ****   return(result);
 585              		.loc 2 1918 3 view .LVU209
 586              		.syntax unified
 587              	@ 1918 "Drivers/CMSIS/Include/cmsis_gcc.h" 1
 588 014c 21FB12B1 		smladx r1, r1, r2, fp
 589              	@ 0 "" 2
 590              	.LVL79:
 591              		.loc 2 1919 3 view .LVU210
 592              		.loc 2 1919 3 is_stmt 0 view .LVU211
 593              		.thumb
 594              		.syntax unified
 595              	.LBE89:
 596              	.LBE88:
 597              		.loc 1 397 14 discriminator 1 view .LVU212
 598 0150 8B46     		mov	fp, r1
 599              	.LVL80:
 600              		.loc 1 397 14 discriminator 1 view .LVU213
 601 0152 66E0     		b	.L17
 602              	.LVL81:
 603              	.L18:
 398:Drivers/CMSIS/DSP/Source/FilteringFunctions/arm_conv_fast_q15.c ****       }
 399:Drivers/CMSIS/DSP/Source/FilteringFunctions/arm_conv_fast_q15.c **** 
 400:Drivers/CMSIS/DSP/Source/FilteringFunctions/arm_conv_fast_q15.c ****       if (k == 3U)
 401:Drivers/CMSIS/DSP/Source/FilteringFunctions/arm_conv_fast_q15.c ****       {
 402:Drivers/CMSIS/DSP/Source/FilteringFunctions/arm_conv_fast_q15.c ****         /* Read y[srcBLen - 5], y[srcBLen - 6] */
 403:Drivers/CMSIS/DSP/Source/FilteringFunctions/arm_conv_fast_q15.c ****         c0 = _SIMD32_OFFSET(py);
 404:Drivers/CMSIS/DSP/Source/FilteringFunctions/arm_conv_fast_q15.c **** 
 405:Drivers/CMSIS/DSP/Source/FilteringFunctions/arm_conv_fast_q15.c ****         /* Read x[7], x[8] */
 406:Drivers/CMSIS/DSP/Source/FilteringFunctions/arm_conv_fast_q15.c ****         x3 = *__SIMD32(px);
 407:Drivers/CMSIS/DSP/Source/FilteringFunctions/arm_conv_fast_q15.c **** 
 408:Drivers/CMSIS/DSP/Source/FilteringFunctions/arm_conv_fast_q15.c ****         /* Read x[9] */
 409:Drivers/CMSIS/DSP/Source/FilteringFunctions/arm_conv_fast_q15.c ****         x2 = _SIMD32_OFFSET(px+1);
 410:Drivers/CMSIS/DSP/Source/FilteringFunctions/arm_conv_fast_q15.c **** 
 411:Drivers/CMSIS/DSP/Source/FilteringFunctions/arm_conv_fast_q15.c ****         /* Perform the multiply-accumulates */
 412:Drivers/CMSIS/DSP/Source/FilteringFunctions/arm_conv_fast_q15.c ****         acc0 = __SMLADX(x0, c0, acc0);
 413:Drivers/CMSIS/DSP/Source/FilteringFunctions/arm_conv_fast_q15.c ****         acc1 = __SMLADX(x1, c0, acc1);
 414:Drivers/CMSIS/DSP/Source/FilteringFunctions/arm_conv_fast_q15.c ****         acc2 = __SMLADX(x3, c0, acc2);
 415:Drivers/CMSIS/DSP/Source/FilteringFunctions/arm_conv_fast_q15.c ****         acc3 = __SMLADX(x2, c0, acc3);
 416:Drivers/CMSIS/DSP/Source/FilteringFunctions/arm_conv_fast_q15.c **** 
 417:Drivers/CMSIS/DSP/Source/FilteringFunctions/arm_conv_fast_q15.c ****         /* Read y[srcBLen - 7] */
 418:Drivers/CMSIS/DSP/Source/FilteringFunctions/arm_conv_fast_q15.c **** 		c0 = *(py-1);
 419:Drivers/CMSIS/DSP/Source/FilteringFunctions/arm_conv_fast_q15.c **** #ifdef  ARM_MATH_BIG_ENDIAN
 420:Drivers/CMSIS/DSP/Source/FilteringFunctions/arm_conv_fast_q15.c **** 
 421:Drivers/CMSIS/DSP/Source/FilteringFunctions/arm_conv_fast_q15.c ****         c0 = c0 << 16U;
 422:Drivers/CMSIS/DSP/Source/FilteringFunctions/arm_conv_fast_q15.c **** #else
 423:Drivers/CMSIS/DSP/Source/FilteringFunctions/arm_conv_fast_q15.c **** 
 424:Drivers/CMSIS/DSP/Source/FilteringFunctions/arm_conv_fast_q15.c ****         c0 = c0 & 0x0000FFFF;
 425:Drivers/CMSIS/DSP/Source/FilteringFunctions/arm_conv_fast_q15.c **** #endif /*      #ifdef  ARM_MATH_BIG_ENDIAN     */
 426:Drivers/CMSIS/DSP/Source/FilteringFunctions/arm_conv_fast_q15.c **** 
 427:Drivers/CMSIS/DSP/Source/FilteringFunctions/arm_conv_fast_q15.c ****         /* Read x[10] */
 428:Drivers/CMSIS/DSP/Source/FilteringFunctions/arm_conv_fast_q15.c ****         x3 =  _SIMD32_OFFSET(px+2);
 429:Drivers/CMSIS/DSP/Source/FilteringFunctions/arm_conv_fast_q15.c **** 		px += 3U;
 430:Drivers/CMSIS/DSP/Source/FilteringFunctions/arm_conv_fast_q15.c **** 
 431:Drivers/CMSIS/DSP/Source/FilteringFunctions/arm_conv_fast_q15.c ****         /* Perform the multiply-accumulates */
 432:Drivers/CMSIS/DSP/Source/FilteringFunctions/arm_conv_fast_q15.c ****         acc0 = __SMLADX(x1, c0, acc0);
 433:Drivers/CMSIS/DSP/Source/FilteringFunctions/arm_conv_fast_q15.c ****         acc1 = __SMLAD(x2, c0, acc1);
 434:Drivers/CMSIS/DSP/Source/FilteringFunctions/arm_conv_fast_q15.c ****         acc2 = __SMLADX(x2, c0, acc2);
ARM GAS  /tmp/ccQmvCRG.s 			page 54


 435:Drivers/CMSIS/DSP/Source/FilteringFunctions/arm_conv_fast_q15.c ****         acc3 = __SMLADX(x3, c0, acc3);
 436:Drivers/CMSIS/DSP/Source/FilteringFunctions/arm_conv_fast_q15.c ****       }
 437:Drivers/CMSIS/DSP/Source/FilteringFunctions/arm_conv_fast_q15.c **** 
 438:Drivers/CMSIS/DSP/Source/FilteringFunctions/arm_conv_fast_q15.c ****       /* Store the results in the accumulators in the destination buffer. */
 439:Drivers/CMSIS/DSP/Source/FilteringFunctions/arm_conv_fast_q15.c **** #ifndef ARM_MATH_BIG_ENDIAN
 440:Drivers/CMSIS/DSP/Source/FilteringFunctions/arm_conv_fast_q15.c **** 
 441:Drivers/CMSIS/DSP/Source/FilteringFunctions/arm_conv_fast_q15.c ****       *__SIMD32(pOut)++ = __PKHBT((acc0 >> 15), (acc1 >> 15), 16);
 604              		.loc 1 441 7 is_stmt 1 view .LVU214
 605              		.loc 1 441 27 is_stmt 0 view .LVU215
 606 0154 F613     		asrs	r6, r6, #15
 607              	.LVL82:
 608              		.loc 1 441 27 view .LVU216
 609 0156 C4F3CF34 		ubfx	r4, r4, #15, #16
 610              	.LVL83:
 611              		.loc 1 441 27 view .LVU217
 612 015a 44EA0644 		orr	r4, r4, r6, lsl #16
 613              		.loc 1 441 25 view .LVU218
 614 015e 169A     		ldr	r2, [sp, #88]
 615 0160 42F8084B 		str	r4, [r2], #8
 442:Drivers/CMSIS/DSP/Source/FilteringFunctions/arm_conv_fast_q15.c ****       *__SIMD32(pOut)++ = __PKHBT((acc2 >> 15), (acc3 >> 15), 16);
 616              		.loc 1 442 7 is_stmt 1 view .LVU219
 617              		.loc 1 442 27 is_stmt 0 view .LVU220
 618 0164 4FEAEB3B 		asr	fp, fp, #15
 619              	.LVL84:
 620              		.loc 1 442 27 view .LVU221
 621 0168 C5F3CF35 		ubfx	r5, r5, #15, #16
 622              	.LVL85:
 623              		.loc 1 442 27 view .LVU222
 624 016c 45EA0B45 		orr	r5, r5, fp, lsl #16
 625              		.loc 1 442 25 view .LVU223
 626 0170 169B     		ldr	r3, [sp, #88]
 627 0172 5D60     		str	r5, [r3, #4]
 443:Drivers/CMSIS/DSP/Source/FilteringFunctions/arm_conv_fast_q15.c **** 
 444:Drivers/CMSIS/DSP/Source/FilteringFunctions/arm_conv_fast_q15.c **** #else
 445:Drivers/CMSIS/DSP/Source/FilteringFunctions/arm_conv_fast_q15.c **** 
 446:Drivers/CMSIS/DSP/Source/FilteringFunctions/arm_conv_fast_q15.c ****       *__SIMD32(pOut)++ = __PKHBT((acc1 >> 15), (acc0 >> 15), 16);
 447:Drivers/CMSIS/DSP/Source/FilteringFunctions/arm_conv_fast_q15.c ****       *__SIMD32(pOut)++ = __PKHBT((acc3 >> 15), (acc2 >> 15), 16);
 448:Drivers/CMSIS/DSP/Source/FilteringFunctions/arm_conv_fast_q15.c **** 
 449:Drivers/CMSIS/DSP/Source/FilteringFunctions/arm_conv_fast_q15.c **** #endif /*      #ifndef  ARM_MATH_BIG_ENDIAN    */
 450:Drivers/CMSIS/DSP/Source/FilteringFunctions/arm_conv_fast_q15.c **** 
 451:Drivers/CMSIS/DSP/Source/FilteringFunctions/arm_conv_fast_q15.c ****       /* Increment the pointer pIn1 index, count by 4 */
 452:Drivers/CMSIS/DSP/Source/FilteringFunctions/arm_conv_fast_q15.c ****       count += 4U;
 628              		.loc 1 452 7 is_stmt 1 view .LVU224
 629              		.loc 1 452 13 is_stmt 0 view .LVU225
 630 0174 089B     		ldr	r3, [sp, #32]
 631 0176 0433     		adds	r3, r3, #4
 632 0178 0893     		str	r3, [sp, #32]
 633              	.LVL86:
 453:Drivers/CMSIS/DSP/Source/FilteringFunctions/arm_conv_fast_q15.c **** 
 454:Drivers/CMSIS/DSP/Source/FilteringFunctions/arm_conv_fast_q15.c ****       /* Update the inputA and inputB pointers for next MAC calculation */
 455:Drivers/CMSIS/DSP/Source/FilteringFunctions/arm_conv_fast_q15.c ****       px = pIn1 + count;
 634              		.loc 1 455 7 is_stmt 1 view .LVU226
 635              		.loc 1 455 17 is_stmt 0 view .LVU227
 636 017a 0499     		ldr	r1, [sp, #16]
 637 017c 01EB4303 		add	r3, r1, r3, lsl #1
 638              	.LVL87:
 456:Drivers/CMSIS/DSP/Source/FilteringFunctions/arm_conv_fast_q15.c ****       py = pSrc2;
ARM GAS  /tmp/ccQmvCRG.s 			page 55


 639              		.loc 1 456 7 is_stmt 1 view .LVU228
 457:Drivers/CMSIS/DSP/Source/FilteringFunctions/arm_conv_fast_q15.c **** 
 458:Drivers/CMSIS/DSP/Source/FilteringFunctions/arm_conv_fast_q15.c ****       /* Decrement the loop counter */
 459:Drivers/CMSIS/DSP/Source/FilteringFunctions/arm_conv_fast_q15.c ****       blkCnt--;
 640              		.loc 1 459 7 view .LVU229
 641              		.loc 1 459 13 is_stmt 0 view .LVU230
 642 0180 0799     		ldr	r1, [sp, #28]
 643 0182 0139     		subs	r1, r1, #1
 644 0184 0791     		str	r1, [sp, #28]
 645              	.LVL88:
 442:Drivers/CMSIS/DSP/Source/FilteringFunctions/arm_conv_fast_q15.c **** 
 646              		.loc 1 442 22 view .LVU231
 647 0186 1692     		str	r2, [sp, #88]
 648              	.LVL89:
 649              	.L14:
 277:Drivers/CMSIS/DSP/Source/FilteringFunctions/arm_conv_fast_q15.c ****     {
 650              		.loc 1 277 19 is_stmt 1 view .LVU232
 651 0188 079A     		ldr	r2, [sp, #28]
 652 018a 002A     		cmp	r2, #0
 653 018c 6AD0     		beq	.L48
 279:Drivers/CMSIS/DSP/Source/FilteringFunctions/arm_conv_fast_q15.c **** 
 654              		.loc 1 279 7 view .LVU233
 279:Drivers/CMSIS/DSP/Source/FilteringFunctions/arm_conv_fast_q15.c **** 
 655              		.loc 1 279 15 is_stmt 0 view .LVU234
 656 018e 059A     		ldr	r2, [sp, #20]
 657 0190 A2F1020E 		sub	lr, r2, #2
 658              	.LVL90:
 282:Drivers/CMSIS/DSP/Source/FilteringFunctions/arm_conv_fast_q15.c ****       acc1 = 0;
 659              		.loc 1 282 7 is_stmt 1 view .LVU235
 283:Drivers/CMSIS/DSP/Source/FilteringFunctions/arm_conv_fast_q15.c ****       acc2 = 0;
 660              		.loc 1 283 7 view .LVU236
 284:Drivers/CMSIS/DSP/Source/FilteringFunctions/arm_conv_fast_q15.c ****       acc3 = 0;
 661              		.loc 1 284 7 view .LVU237
 285:Drivers/CMSIS/DSP/Source/FilteringFunctions/arm_conv_fast_q15.c **** 
 662              		.loc 1 285 7 view .LVU238
 289:Drivers/CMSIS/DSP/Source/FilteringFunctions/arm_conv_fast_q15.c ****       /* read x[1], x[2] samples */
 663              		.loc 1 289 7 view .LVU239
 289:Drivers/CMSIS/DSP/Source/FilteringFunctions/arm_conv_fast_q15.c ****       /* read x[1], x[2] samples */
 664              		.loc 1 289 10 is_stmt 0 view .LVU240
 665 0194 D3F800C0 		ldr	ip, [r3]
 666              	.LVL91:
 291:Drivers/CMSIS/DSP/Source/FilteringFunctions/arm_conv_fast_q15.c **** 	  px+= 2U;
 667              		.loc 1 291 7 is_stmt 1 view .LVU241
 291:Drivers/CMSIS/DSP/Source/FilteringFunctions/arm_conv_fast_q15.c **** 	  px+= 2U;
 668              		.loc 1 291 10 is_stmt 0 view .LVU242
 669 0198 D3F80270 		ldr	r7, [r3, #2]
 670              	.LVL92:
 292:Drivers/CMSIS/DSP/Source/FilteringFunctions/arm_conv_fast_q15.c **** 
 671              		.loc 1 292 4 is_stmt 1 view .LVU243
 292:Drivers/CMSIS/DSP/Source/FilteringFunctions/arm_conv_fast_q15.c **** 
 672              		.loc 1 292 6 is_stmt 0 view .LVU244
 673 019c 0433     		adds	r3, r3, #4
 674              	.LVL93:
 296:Drivers/CMSIS/DSP/Source/FilteringFunctions/arm_conv_fast_q15.c **** 
 675              		.loc 1 296 7 is_stmt 1 view .LVU245
 296:Drivers/CMSIS/DSP/Source/FilteringFunctions/arm_conv_fast_q15.c **** 
 676              		.loc 1 296 9 is_stmt 0 view .LVU246
ARM GAS  /tmp/ccQmvCRG.s 			page 56


 677 019e 069A     		ldr	r2, [sp, #24]
 678 01a0 4FEA9208 		lsr	r8, r2, #2
 679              	.LVL94:
 285:Drivers/CMSIS/DSP/Source/FilteringFunctions/arm_conv_fast_q15.c **** 
 680              		.loc 1 285 12 view .LVU247
 681 01a4 4FF0000B 		mov	fp, #0
 283:Drivers/CMSIS/DSP/Source/FilteringFunctions/arm_conv_fast_q15.c ****       acc2 = 0;
 682              		.loc 1 283 12 view .LVU248
 683 01a8 5E46     		mov	r6, fp
 282:Drivers/CMSIS/DSP/Source/FilteringFunctions/arm_conv_fast_q15.c ****       acc1 = 0;
 684              		.loc 1 282 12 view .LVU249
 685 01aa 5C46     		mov	r4, fp
 686 01ac 3A46     		mov	r2, r7
 687 01ae 6746     		mov	r7, ip
 688              	.LVL95:
 282:Drivers/CMSIS/DSP/Source/FilteringFunctions/arm_conv_fast_q15.c ****       acc1 = 0;
 689              		.loc 1 282 12 view .LVU250
 690 01b0 DC46     		mov	ip, fp
 691              	.LVL96:
 282:Drivers/CMSIS/DSP/Source/FilteringFunctions/arm_conv_fast_q15.c ****       acc1 = 0;
 692              		.loc 1 282 12 view .LVU251
 693 01b2 1546     		mov	r5, r2
 694              	.LVL97:
 695              	.L15:
 300:Drivers/CMSIS/DSP/Source/FilteringFunctions/arm_conv_fast_q15.c ****       {
 696              		.loc 1 300 7 is_stmt 1 view .LVU252
 304:Drivers/CMSIS/DSP/Source/FilteringFunctions/arm_conv_fast_q15.c **** 
 697              		.loc 1 304 9 view .LVU253
 304:Drivers/CMSIS/DSP/Source/FilteringFunctions/arm_conv_fast_q15.c **** 
 698              		.loc 1 304 12 is_stmt 0 view .LVU254
 699 01b4 DEF80020 		ldr	r2, [lr]
 700              	.LVL98:
 307:Drivers/CMSIS/DSP/Source/FilteringFunctions/arm_conv_fast_q15.c **** 
 701              		.loc 1 307 9 is_stmt 1 view .LVU255
 702              	.LBB90:
 703              	.LBI90:
1914:Drivers/CMSIS/Include/cmsis_gcc.h **** {
 704              		.loc 2 1914 31 view .LVU256
 705              	.LBB91:
1916:Drivers/CMSIS/Include/cmsis_gcc.h **** 
 706              		.loc 2 1916 3 view .LVU257
1918:Drivers/CMSIS/Include/cmsis_gcc.h ****   return(result);
 707              		.loc 2 1918 3 view .LVU258
 708              		.syntax unified
 709              	@ 1918 "Drivers/CMSIS/Include/cmsis_gcc.h" 1
 710 01b8 27FB1244 		smladx r4, r7, r2, r4
 711              	@ 0 "" 2
 712              	.LVL99:
 713              		.loc 2 1919 3 view .LVU259
 714              		.loc 2 1919 3 is_stmt 0 view .LVU260
 715              		.thumb
 716              		.syntax unified
 717              	.LBE91:
 718              	.LBE90:
 310:Drivers/CMSIS/DSP/Source/FilteringFunctions/arm_conv_fast_q15.c **** 
 719              		.loc 1 310 9 is_stmt 1 view .LVU261
 720              	.LBB92:
ARM GAS  /tmp/ccQmvCRG.s 			page 57


 721              	.LBI92:
1914:Drivers/CMSIS/Include/cmsis_gcc.h **** {
 722              		.loc 2 1914 31 view .LVU262
 723              	.LBB93:
1916:Drivers/CMSIS/Include/cmsis_gcc.h **** 
 724              		.loc 2 1916 3 view .LVU263
1918:Drivers/CMSIS/Include/cmsis_gcc.h ****   return(result);
 725              		.loc 2 1918 3 view .LVU264
 726              		.syntax unified
 727              	@ 1918 "Drivers/CMSIS/Include/cmsis_gcc.h" 1
 728 01bc 25FB1266 		smladx r6, r5, r2, r6
 729              	@ 0 "" 2
 730              	.LVL100:
 731              		.loc 2 1919 3 view .LVU265
 732              		.loc 2 1919 3 is_stmt 0 view .LVU266
 733              		.thumb
 734              		.syntax unified
 735              	.LBE93:
 736              	.LBE92:
 313:Drivers/CMSIS/DSP/Source/FilteringFunctions/arm_conv_fast_q15.c **** 
 737              		.loc 1 313 9 is_stmt 1 view .LVU267
 313:Drivers/CMSIS/DSP/Source/FilteringFunctions/arm_conv_fast_q15.c **** 
 738              		.loc 1 313 12 is_stmt 0 view .LVU268
 739 01c0 1868     		ldr	r0, [r3]
 740              	.LVL101:
 316:Drivers/CMSIS/DSP/Source/FilteringFunctions/arm_conv_fast_q15.c **** 
 741              		.loc 1 316 9 is_stmt 1 view .LVU269
 316:Drivers/CMSIS/DSP/Source/FilteringFunctions/arm_conv_fast_q15.c **** 
 742              		.loc 1 316 12 is_stmt 0 view .LVU270
 743 01c2 D3F80210 		ldr	r1, [r3, #2]
 744              	.LVL102:
 319:Drivers/CMSIS/DSP/Source/FilteringFunctions/arm_conv_fast_q15.c **** 
 745              		.loc 1 319 9 is_stmt 1 view .LVU271
 746              	.LBB94:
 747              	.LBI94:
1914:Drivers/CMSIS/Include/cmsis_gcc.h **** {
 748              		.loc 2 1914 31 view .LVU272
 749              	.LBB95:
1916:Drivers/CMSIS/Include/cmsis_gcc.h **** 
 750              		.loc 2 1916 3 view .LVU273
1918:Drivers/CMSIS/Include/cmsis_gcc.h ****   return(result);
 751              		.loc 2 1918 3 view .LVU274
 752              		.syntax unified
 753              	@ 1918 "Drivers/CMSIS/Include/cmsis_gcc.h" 1
 754 01c6 20FB12CA 		smladx r10, r0, r2, ip
 755              	@ 0 "" 2
 756              	.LVL103:
 757              		.loc 2 1919 3 view .LVU275
 758              		.loc 2 1919 3 is_stmt 0 view .LVU276
 759              		.thumb
 760              		.syntax unified
 761              	.LBE95:
 762              	.LBE94:
 322:Drivers/CMSIS/DSP/Source/FilteringFunctions/arm_conv_fast_q15.c **** 
 763              		.loc 1 322 9 is_stmt 1 view .LVU277
 764              	.LBB96:
 765              	.LBI96:
ARM GAS  /tmp/ccQmvCRG.s 			page 58


1914:Drivers/CMSIS/Include/cmsis_gcc.h **** {
 766              		.loc 2 1914 31 view .LVU278
 767              	.LBB97:
1916:Drivers/CMSIS/Include/cmsis_gcc.h **** 
 768              		.loc 2 1916 3 view .LVU279
1918:Drivers/CMSIS/Include/cmsis_gcc.h ****   return(result);
 769              		.loc 2 1918 3 view .LVU280
 770              		.syntax unified
 771              	@ 1918 "Drivers/CMSIS/Include/cmsis_gcc.h" 1
 772 01ca 21FB12BB 		smladx fp, r1, r2, fp
 773              	@ 0 "" 2
 774              	.LVL104:
 775              		.loc 2 1919 3 view .LVU281
 776              		.loc 2 1919 3 is_stmt 0 view .LVU282
 777              		.thumb
 778              		.syntax unified
 779              	.LBE97:
 780              	.LBE96:
 325:Drivers/CMSIS/DSP/Source/FilteringFunctions/arm_conv_fast_q15.c **** 
 781              		.loc 1 325 9 is_stmt 1 view .LVU283
 782 01ce F146     		mov	r9, lr
 325:Drivers/CMSIS/DSP/Source/FilteringFunctions/arm_conv_fast_q15.c **** 
 783              		.loc 1 325 27 is_stmt 0 view .LVU284
 784 01d0 AEF1080E 		sub	lr, lr, #8
 785              	.LVL105:
 325:Drivers/CMSIS/DSP/Source/FilteringFunctions/arm_conv_fast_q15.c **** 
 786              		.loc 1 325 12 view .LVU285
 787 01d4 59F8042C 		ldr	r2, [r9, #-4]
 788              	.LVL106:
 328:Drivers/CMSIS/DSP/Source/FilteringFunctions/arm_conv_fast_q15.c **** 
 789              		.loc 1 328 9 is_stmt 1 view .LVU286
 790              	.LBB98:
 791              	.LBI98:
1914:Drivers/CMSIS/Include/cmsis_gcc.h **** {
 792              		.loc 2 1914 31 view .LVU287
 793              	.LBB99:
1916:Drivers/CMSIS/Include/cmsis_gcc.h **** 
 794              		.loc 2 1916 3 view .LVU288
1918:Drivers/CMSIS/Include/cmsis_gcc.h ****   return(result);
 795              		.loc 2 1918 3 view .LVU289
 796              		.syntax unified
 797              	@ 1918 "Drivers/CMSIS/Include/cmsis_gcc.h" 1
 798 01d8 20FB1240 		smladx r0, r0, r2, r4
 799              	@ 0 "" 2
 800              	.LVL107:
 801              		.loc 2 1919 3 view .LVU290
 802              		.loc 2 1919 3 is_stmt 0 view .LVU291
 803              		.thumb
 804              		.syntax unified
 805              	.LBE99:
 806              	.LBE98:
 328:Drivers/CMSIS/DSP/Source/FilteringFunctions/arm_conv_fast_q15.c **** 
 807              		.loc 1 328 14 discriminator 1 view .LVU292
 808 01dc 0446     		mov	r4, r0
 809              	.LVL108:
 331:Drivers/CMSIS/DSP/Source/FilteringFunctions/arm_conv_fast_q15.c **** 
 810              		.loc 1 331 9 is_stmt 1 view .LVU293
ARM GAS  /tmp/ccQmvCRG.s 			page 59


 811              	.LBB100:
 812              	.LBI100:
1914:Drivers/CMSIS/Include/cmsis_gcc.h **** {
 813              		.loc 2 1914 31 view .LVU294
 814              	.LBB101:
1916:Drivers/CMSIS/Include/cmsis_gcc.h **** 
 815              		.loc 2 1916 3 view .LVU295
1918:Drivers/CMSIS/Include/cmsis_gcc.h ****   return(result);
 816              		.loc 2 1918 3 view .LVU296
 817              		.syntax unified
 818              	@ 1918 "Drivers/CMSIS/Include/cmsis_gcc.h" 1
 819 01de 21FB1261 		smladx r1, r1, r2, r6
 820              	@ 0 "" 2
 821              	.LVL109:
 822              		.loc 2 1919 3 view .LVU297
 823              		.loc 2 1919 3 is_stmt 0 view .LVU298
 824              		.thumb
 825              		.syntax unified
 826              	.LBE101:
 827              	.LBE100:
 331:Drivers/CMSIS/DSP/Source/FilteringFunctions/arm_conv_fast_q15.c **** 
 828              		.loc 1 331 14 discriminator 1 view .LVU299
 829 01e2 0E46     		mov	r6, r1
 830              	.LVL110:
 334:Drivers/CMSIS/DSP/Source/FilteringFunctions/arm_conv_fast_q15.c **** 
 831              		.loc 1 334 9 is_stmt 1 view .LVU300
 334:Drivers/CMSIS/DSP/Source/FilteringFunctions/arm_conv_fast_q15.c **** 
 832              		.loc 1 334 12 is_stmt 0 view .LVU301
 833 01e4 5F68     		ldr	r7, [r3, #4]
 834              	.LVL111:
 337:Drivers/CMSIS/DSP/Source/FilteringFunctions/arm_conv_fast_q15.c **** 		px += 4U;
 835              		.loc 1 337 9 is_stmt 1 view .LVU302
 337:Drivers/CMSIS/DSP/Source/FilteringFunctions/arm_conv_fast_q15.c **** 		px += 4U;
 836              		.loc 1 337 12 is_stmt 0 view .LVU303
 837 01e6 D3F80650 		ldr	r5, [r3, #6]
 838              	.LVL112:
 338:Drivers/CMSIS/DSP/Source/FilteringFunctions/arm_conv_fast_q15.c **** 
 839              		.loc 1 338 3 is_stmt 1 view .LVU304
 840 01ea 0393     		str	r3, [sp, #12]
 841              	.LVL113:
 338:Drivers/CMSIS/DSP/Source/FilteringFunctions/arm_conv_fast_q15.c **** 
 842              		.loc 1 338 6 is_stmt 0 view .LVU305
 843 01ec 0833     		adds	r3, r3, #8
 844              	.LVL114:
 341:Drivers/CMSIS/DSP/Source/FilteringFunctions/arm_conv_fast_q15.c **** 
 845              		.loc 1 341 9 is_stmt 1 view .LVU306
 341:Drivers/CMSIS/DSP/Source/FilteringFunctions/arm_conv_fast_q15.c **** 
 846              		.loc 1 341 16 is_stmt 0 view .LVU307
 847 01ee 0297     		str	r7, [sp, #8]
 848              	.LVL115:
 849              	.LBB102:
 850              	.LBI102:
1914:Drivers/CMSIS/Include/cmsis_gcc.h **** {
 851              		.loc 2 1914 31 is_stmt 1 view .LVU308
 852              	.LBB103:
1916:Drivers/CMSIS/Include/cmsis_gcc.h **** 
 853              		.loc 2 1916 3 view .LVU309
ARM GAS  /tmp/ccQmvCRG.s 			page 60


1918:Drivers/CMSIS/Include/cmsis_gcc.h ****   return(result);
 854              		.loc 2 1918 3 view .LVU310
 855              		.syntax unified
 856              	@ 1918 "Drivers/CMSIS/Include/cmsis_gcc.h" 1
 857 01f0 27FB12AA 		smladx r10, r7, r2, r10
 858              	@ 0 "" 2
 859              	.LVL116:
 860              		.loc 2 1919 3 view .LVU311
 861              		.loc 2 1919 3 is_stmt 0 view .LVU312
 862              		.thumb
 863              		.syntax unified
 864              	.LBE103:
 865              	.LBE102:
 341:Drivers/CMSIS/DSP/Source/FilteringFunctions/arm_conv_fast_q15.c **** 
 866              		.loc 1 341 14 discriminator 1 view .LVU313
 867 01f4 D446     		mov	ip, r10
 868              	.LVL117:
 344:Drivers/CMSIS/DSP/Source/FilteringFunctions/arm_conv_fast_q15.c **** 
 869              		.loc 1 344 9 is_stmt 1 view .LVU314
 344:Drivers/CMSIS/DSP/Source/FilteringFunctions/arm_conv_fast_q15.c **** 
 870              		.loc 1 344 16 is_stmt 0 view .LVU315
 871 01f6 0195     		str	r5, [sp, #4]
 872              	.LVL118:
 873              	.LBB104:
 874              	.LBI104:
1914:Drivers/CMSIS/Include/cmsis_gcc.h **** {
 875              		.loc 2 1914 31 is_stmt 1 view .LVU316
 876              	.LBB105:
1916:Drivers/CMSIS/Include/cmsis_gcc.h **** 
 877              		.loc 2 1916 3 view .LVU317
1918:Drivers/CMSIS/Include/cmsis_gcc.h ****   return(result);
 878              		.loc 2 1918 3 view .LVU318
 879              		.syntax unified
 880              	@ 1918 "Drivers/CMSIS/Include/cmsis_gcc.h" 1
 881 01f8 25FB12B2 		smladx r2, r5, r2, fp
 882              	@ 0 "" 2
 883              	.LVL119:
 884              		.loc 2 1919 3 view .LVU319
 885              		.loc 2 1919 3 is_stmt 0 view .LVU320
 886              		.thumb
 887              		.syntax unified
 888              	.LBE105:
 889              	.LBE104:
 344:Drivers/CMSIS/DSP/Source/FilteringFunctions/arm_conv_fast_q15.c **** 
 890              		.loc 1 344 14 discriminator 1 view .LVU321
 891 01fc 9346     		mov	fp, r2
 892              	.LVL120:
 346:Drivers/CMSIS/DSP/Source/FilteringFunctions/arm_conv_fast_q15.c **** 
 893              		.loc 1 346 16 is_stmt 1 discriminator 1 view .LVU322
 346:Drivers/CMSIS/DSP/Source/FilteringFunctions/arm_conv_fast_q15.c **** 
 894              		.loc 1 346 16 is_stmt 0 discriminator 1 view .LVU323
 895 01fe B8F10108 		subs	r8, r8, #1
 896              	.LVL121:
 346:Drivers/CMSIS/DSP/Source/FilteringFunctions/arm_conv_fast_q15.c **** 
 897              		.loc 1 346 16 discriminator 1 view .LVU324
 898 0202 D7D1     		bne	.L15
 353:Drivers/CMSIS/DSP/Source/FilteringFunctions/arm_conv_fast_q15.c **** 
ARM GAS  /tmp/ccQmvCRG.s 			page 61


 899              		.loc 1 353 9 view .LVU325
 900 0204 AE46     		mov	lr, r5
 901              	.LVL122:
 353:Drivers/CMSIS/DSP/Source/FilteringFunctions/arm_conv_fast_q15.c **** 
 902              		.loc 1 353 9 view .LVU326
 903 0206 5546     		mov	r5, r10
 904              	.LVL123:
 353:Drivers/CMSIS/DSP/Source/FilteringFunctions/arm_conv_fast_q15.c **** 
 905              		.loc 1 353 9 view .LVU327
 906 0208 BC46     		mov	ip, r7
 907 020a 0992     		str	r2, [sp, #36]
 908 020c 7746     		mov	r7, lr
 909              	.LVL124:
 353:Drivers/CMSIS/DSP/Source/FilteringFunctions/arm_conv_fast_q15.c **** 
 910              		.loc 1 353 7 is_stmt 1 view .LVU328
 353:Drivers/CMSIS/DSP/Source/FilteringFunctions/arm_conv_fast_q15.c **** 
 911              		.loc 1 353 9 is_stmt 0 view .LVU329
 912 020e 069A     		ldr	r2, [sp, #24]
 913              	.LVL125:
 353:Drivers/CMSIS/DSP/Source/FilteringFunctions/arm_conv_fast_q15.c **** 
 914              		.loc 1 353 9 view .LVU330
 915 0210 02F0030E 		and	lr, r2, #3
 916              	.LVL126:
 355:Drivers/CMSIS/DSP/Source/FilteringFunctions/arm_conv_fast_q15.c ****       {
 917              		.loc 1 355 7 is_stmt 1 view .LVU331
 355:Drivers/CMSIS/DSP/Source/FilteringFunctions/arm_conv_fast_q15.c ****       {
 918              		.loc 1 355 10 is_stmt 0 view .LVU332
 919 0214 BEF1010F 		cmp	lr, #1
 920 0218 3FF474AF 		beq	.L49
 921              	.LVL127:
 922              	.L16:
 381:Drivers/CMSIS/DSP/Source/FilteringFunctions/arm_conv_fast_q15.c ****       {
 923              		.loc 1 381 7 is_stmt 1 view .LVU333
 381:Drivers/CMSIS/DSP/Source/FilteringFunctions/arm_conv_fast_q15.c ****       {
 924              		.loc 1 381 10 is_stmt 0 view .LVU334
 925 021c BEF1020F 		cmp	lr, #2
 926 0220 85D0     		beq	.L50
 927              	.LVL128:
 928              	.L17:
 400:Drivers/CMSIS/DSP/Source/FilteringFunctions/arm_conv_fast_q15.c ****       {
 929              		.loc 1 400 7 is_stmt 1 view .LVU335
 400:Drivers/CMSIS/DSP/Source/FilteringFunctions/arm_conv_fast_q15.c ****       {
 930              		.loc 1 400 10 is_stmt 0 view .LVU336
 931 0222 BEF1030F 		cmp	lr, #3
 932 0226 95D1     		bne	.L18
 403:Drivers/CMSIS/DSP/Source/FilteringFunctions/arm_conv_fast_q15.c **** 
 933              		.loc 1 403 9 is_stmt 1 view .LVU337
 403:Drivers/CMSIS/DSP/Source/FilteringFunctions/arm_conv_fast_q15.c **** 
 934              		.loc 1 403 12 is_stmt 0 view .LVU338
 935 0228 59F8081C 		ldr	r1, [r9, #-8]
 936              	.LVL129:
 406:Drivers/CMSIS/DSP/Source/FilteringFunctions/arm_conv_fast_q15.c **** 
 937              		.loc 1 406 9 is_stmt 1 view .LVU339
 406:Drivers/CMSIS/DSP/Source/FilteringFunctions/arm_conv_fast_q15.c **** 
 938              		.loc 1 406 12 is_stmt 0 view .LVU340
 939 022c 1A68     		ldr	r2, [r3]
 940              	.LVL130:
ARM GAS  /tmp/ccQmvCRG.s 			page 62


 409:Drivers/CMSIS/DSP/Source/FilteringFunctions/arm_conv_fast_q15.c **** 
 941              		.loc 1 409 9 is_stmt 1 view .LVU341
 409:Drivers/CMSIS/DSP/Source/FilteringFunctions/arm_conv_fast_q15.c **** 
 942              		.loc 1 409 12 is_stmt 0 view .LVU342
 943 022e D3F80200 		ldr	r0, [r3, #2]
 944              	.LVL131:
 412:Drivers/CMSIS/DSP/Source/FilteringFunctions/arm_conv_fast_q15.c ****         acc1 = __SMLADX(x1, c0, acc1);
 945              		.loc 1 412 9 is_stmt 1 view .LVU343
 946              	.LBB106:
 947              	.LBI106:
1914:Drivers/CMSIS/Include/cmsis_gcc.h **** {
 948              		.loc 2 1914 31 view .LVU344
 949              	.LBB107:
1916:Drivers/CMSIS/Include/cmsis_gcc.h **** 
 950              		.loc 2 1916 3 view .LVU345
1918:Drivers/CMSIS/Include/cmsis_gcc.h ****   return(result);
 951              		.loc 2 1918 3 view .LVU346
 952 0232 029F     		ldr	r7, [sp, #8]
 953              		.syntax unified
 954              	@ 1918 "Drivers/CMSIS/Include/cmsis_gcc.h" 1
 955 0234 27FB1144 		smladx r4, r7, r1, r4
 956              	@ 0 "" 2
 957              	.LVL132:
 958              		.loc 2 1919 3 view .LVU347
 959              		.loc 2 1919 3 is_stmt 0 view .LVU348
 960              		.thumb
 961              		.syntax unified
 962              	.LBE107:
 963              	.LBE106:
 413:Drivers/CMSIS/DSP/Source/FilteringFunctions/arm_conv_fast_q15.c ****         acc2 = __SMLADX(x3, c0, acc2);
 964              		.loc 1 413 9 is_stmt 1 view .LVU349
 965              	.LBB108:
 966              	.LBI108:
1914:Drivers/CMSIS/Include/cmsis_gcc.h **** {
 967              		.loc 2 1914 31 view .LVU350
 968              	.LBB109:
1916:Drivers/CMSIS/Include/cmsis_gcc.h **** 
 969              		.loc 2 1916 3 view .LVU351
1918:Drivers/CMSIS/Include/cmsis_gcc.h ****   return(result);
 970              		.loc 2 1918 3 view .LVU352
 971 0238 019F     		ldr	r7, [sp, #4]
 972              		.syntax unified
 973              	@ 1918 "Drivers/CMSIS/Include/cmsis_gcc.h" 1
 974 023a 27FB1166 		smladx r6, r7, r1, r6
 975              	@ 0 "" 2
 976              	.LVL133:
 977              		.loc 2 1919 3 view .LVU353
 978              		.loc 2 1919 3 is_stmt 0 view .LVU354
 979              		.thumb
 980              		.syntax unified
 981              	.LBE109:
 982              	.LBE108:
 414:Drivers/CMSIS/DSP/Source/FilteringFunctions/arm_conv_fast_q15.c ****         acc3 = __SMLADX(x2, c0, acc3);
 983              		.loc 1 414 9 is_stmt 1 view .LVU355
 984              	.LBB110:
 985              	.LBI110:
1914:Drivers/CMSIS/Include/cmsis_gcc.h **** {
ARM GAS  /tmp/ccQmvCRG.s 			page 63


 986              		.loc 2 1914 31 view .LVU356
 987              	.LBB111:
1916:Drivers/CMSIS/Include/cmsis_gcc.h **** 
 988              		.loc 2 1916 3 view .LVU357
1918:Drivers/CMSIS/Include/cmsis_gcc.h ****   return(result);
 989              		.loc 2 1918 3 view .LVU358
 990              		.syntax unified
 991              	@ 1918 "Drivers/CMSIS/Include/cmsis_gcc.h" 1
 992 023e 22FB1152 		smladx r2, r2, r1, r5
 993              	@ 0 "" 2
 994              	.LVL134:
 995              		.loc 2 1919 3 view .LVU359
 996              		.loc 2 1919 3 is_stmt 0 view .LVU360
 997              		.thumb
 998              		.syntax unified
 999              	.LBE111:
 1000              	.LBE110:
 415:Drivers/CMSIS/DSP/Source/FilteringFunctions/arm_conv_fast_q15.c **** 
 1001              		.loc 1 415 9 is_stmt 1 view .LVU361
 1002              	.LBB112:
 1003              	.LBI112:
1914:Drivers/CMSIS/Include/cmsis_gcc.h **** {
 1004              		.loc 2 1914 31 view .LVU362
 1005              	.LBB113:
1916:Drivers/CMSIS/Include/cmsis_gcc.h **** 
 1006              		.loc 2 1916 3 view .LVU363
1918:Drivers/CMSIS/Include/cmsis_gcc.h ****   return(result);
 1007              		.loc 2 1918 3 view .LVU364
 1008              		.syntax unified
 1009              	@ 1918 "Drivers/CMSIS/Include/cmsis_gcc.h" 1
 1010 0242 20FB11B1 		smladx r1, r0, r1, fp
 1011              	@ 0 "" 2
 1012              	.LVL135:
 1013              		.loc 2 1919 3 view .LVU365
 1014              		.loc 2 1919 3 is_stmt 0 view .LVU366
 1015              		.thumb
 1016              		.syntax unified
 1017              	.LBE113:
 1018              	.LBE112:
 418:Drivers/CMSIS/DSP/Source/FilteringFunctions/arm_conv_fast_q15.c **** #ifdef  ARM_MATH_BIG_ENDIAN
 1019              		.loc 1 418 3 is_stmt 1 view .LVU367
 418:Drivers/CMSIS/DSP/Source/FilteringFunctions/arm_conv_fast_q15.c **** #ifdef  ARM_MATH_BIG_ENDIAN
 1020              		.loc 1 418 8 is_stmt 0 view .LVU368
 1021 0246 39F90A7C 		ldrsh	r7, [r9, #-10]
 1022              	.LVL136:
 424:Drivers/CMSIS/DSP/Source/FilteringFunctions/arm_conv_fast_q15.c **** #endif /*      #ifdef  ARM_MATH_BIG_ENDIAN     */
 1023              		.loc 1 424 9 is_stmt 1 view .LVU369
 424:Drivers/CMSIS/DSP/Source/FilteringFunctions/arm_conv_fast_q15.c **** #endif /*      #ifdef  ARM_MATH_BIG_ENDIAN     */
 1024              		.loc 1 424 12 is_stmt 0 view .LVU370
 1025 024a BFB2     		uxth	r7, r7
 1026              	.LVL137:
 428:Drivers/CMSIS/DSP/Source/FilteringFunctions/arm_conv_fast_q15.c **** 		px += 3U;
 1027              		.loc 1 428 9 is_stmt 1 view .LVU371
 428:Drivers/CMSIS/DSP/Source/FilteringFunctions/arm_conv_fast_q15.c **** 		px += 3U;
 1028              		.loc 1 428 12 is_stmt 0 view .LVU372
 1029 024c 5B68     		ldr	r3, [r3, #4]
 1030              	.LVL138:
ARM GAS  /tmp/ccQmvCRG.s 			page 64


 429:Drivers/CMSIS/DSP/Source/FilteringFunctions/arm_conv_fast_q15.c **** 
 1031              		.loc 1 429 3 is_stmt 1 view .LVU373
 432:Drivers/CMSIS/DSP/Source/FilteringFunctions/arm_conv_fast_q15.c ****         acc1 = __SMLAD(x2, c0, acc1);
 1032              		.loc 1 432 9 view .LVU374
 1033              	.LBB114:
 1034              	.LBI114:
1914:Drivers/CMSIS/Include/cmsis_gcc.h **** {
 1035              		.loc 2 1914 31 view .LVU375
 1036              	.LBB115:
1916:Drivers/CMSIS/Include/cmsis_gcc.h **** 
 1037              		.loc 2 1916 3 view .LVU376
1918:Drivers/CMSIS/Include/cmsis_gcc.h ****   return(result);
 1038              		.loc 2 1918 3 view .LVU377
 1039 024e 019D     		ldr	r5, [sp, #4]
 1040              		.syntax unified
 1041              	@ 1918 "Drivers/CMSIS/Include/cmsis_gcc.h" 1
 1042 0250 25FB1744 		smladx r4, r5, r7, r4
 1043              	@ 0 "" 2
 1044              	.LVL139:
 1045              		.loc 2 1919 3 view .LVU378
 1046              		.loc 2 1919 3 is_stmt 0 view .LVU379
 1047              		.thumb
 1048              		.syntax unified
 1049              	.LBE115:
 1050              	.LBE114:
 433:Drivers/CMSIS/DSP/Source/FilteringFunctions/arm_conv_fast_q15.c ****         acc2 = __SMLADX(x2, c0, acc2);
 1051              		.loc 1 433 9 is_stmt 1 view .LVU380
 1052              	.LBB116:
 1053              	.LBI116:
1906:Drivers/CMSIS/Include/cmsis_gcc.h **** {
 1054              		.loc 2 1906 31 view .LVU381
 1055              	.LBB117:
1908:Drivers/CMSIS/Include/cmsis_gcc.h **** 
 1056              		.loc 2 1908 3 view .LVU382
1910:Drivers/CMSIS/Include/cmsis_gcc.h ****   return(result);
 1057              		.loc 2 1910 3 view .LVU383
 1058              		.syntax unified
 1059              	@ 1910 "Drivers/CMSIS/Include/cmsis_gcc.h" 1
 1060 0254 20FB0766 		smlad r6, r0, r7, r6
 1061              	@ 0 "" 2
 1062              	.LVL140:
1911:Drivers/CMSIS/Include/cmsis_gcc.h **** }
 1063              		.loc 2 1911 3 view .LVU384
1911:Drivers/CMSIS/Include/cmsis_gcc.h **** }
 1064              		.loc 2 1911 3 is_stmt 0 view .LVU385
 1065              		.thumb
 1066              		.syntax unified
 1067              	.LBE117:
 1068              	.LBE116:
 434:Drivers/CMSIS/DSP/Source/FilteringFunctions/arm_conv_fast_q15.c ****         acc3 = __SMLADX(x3, c0, acc3);
 1069              		.loc 1 434 9 is_stmt 1 view .LVU386
 1070              	.LBB118:
 1071              	.LBI118:
1914:Drivers/CMSIS/Include/cmsis_gcc.h **** {
 1072              		.loc 2 1914 31 view .LVU387
 1073              	.LBB119:
1916:Drivers/CMSIS/Include/cmsis_gcc.h **** 
ARM GAS  /tmp/ccQmvCRG.s 			page 65


 1074              		.loc 2 1916 3 view .LVU388
1918:Drivers/CMSIS/Include/cmsis_gcc.h ****   return(result);
 1075              		.loc 2 1918 3 view .LVU389
 1076              		.syntax unified
 1077              	@ 1918 "Drivers/CMSIS/Include/cmsis_gcc.h" 1
 1078 0258 20FB1720 		smladx r0, r0, r7, r2
 1079              	@ 0 "" 2
 1080              	.LVL141:
 1081              		.loc 2 1919 3 view .LVU390
 1082              		.loc 2 1919 3 is_stmt 0 view .LVU391
 1083              		.thumb
 1084              		.syntax unified
 1085              	.LBE119:
 1086              	.LBE118:
 434:Drivers/CMSIS/DSP/Source/FilteringFunctions/arm_conv_fast_q15.c ****         acc3 = __SMLADX(x3, c0, acc3);
 1087              		.loc 1 434 14 discriminator 1 view .LVU392
 1088 025c 0546     		mov	r5, r0
 1089              	.LVL142:
 435:Drivers/CMSIS/DSP/Source/FilteringFunctions/arm_conv_fast_q15.c ****       }
 1090              		.loc 1 435 9 is_stmt 1 view .LVU393
 1091              	.LBB120:
 1092              	.LBI120:
1914:Drivers/CMSIS/Include/cmsis_gcc.h **** {
 1093              		.loc 2 1914 31 view .LVU394
 1094              	.LBB121:
1916:Drivers/CMSIS/Include/cmsis_gcc.h **** 
 1095              		.loc 2 1916 3 view .LVU395
1918:Drivers/CMSIS/Include/cmsis_gcc.h ****   return(result);
 1096              		.loc 2 1918 3 view .LVU396
 1097              		.syntax unified
 1098              	@ 1918 "Drivers/CMSIS/Include/cmsis_gcc.h" 1
 1099 025e 23FB171B 		smladx fp, r3, r7, r1
 1100              	@ 0 "" 2
 1101              	.LVL143:
 1102              		.loc 2 1919 3 view .LVU397
 1103              		.loc 2 1919 3 is_stmt 0 view .LVU398
 1104              		.thumb
 1105              		.syntax unified
 1106 0262 77E7     		b	.L18
 1107              	.LVL144:
 1108              	.L48:
 1109              		.loc 2 1919 3 view .LVU399
 1110              	.LBE121:
 1111              	.LBE120:
 460:Drivers/CMSIS/DSP/Source/FilteringFunctions/arm_conv_fast_q15.c ****     }
 461:Drivers/CMSIS/DSP/Source/FilteringFunctions/arm_conv_fast_q15.c **** 
 462:Drivers/CMSIS/DSP/Source/FilteringFunctions/arm_conv_fast_q15.c ****     /* If the blockSize2 is not a multiple of 4, compute any remaining output samples here.
 463:Drivers/CMSIS/DSP/Source/FilteringFunctions/arm_conv_fast_q15.c ****      ** No loop unrolling is used. */
 464:Drivers/CMSIS/DSP/Source/FilteringFunctions/arm_conv_fast_q15.c ****     blkCnt = blockSize2 % 0x4U;
 1112              		.loc 1 464 12 view .LVU400
 1113 0264 DDF820A0 		ldr	r10, [sp, #32]
 1114 0268 0A9F     		ldr	r7, [sp, #40]
 1115 026a DDF82C80 		ldr	r8, [sp, #44]
 1116              		.loc 1 464 5 is_stmt 1 view .LVU401
 1117              		.loc 1 464 12 is_stmt 0 view .LVU402
 1118 026e 08F00304 		and	r4, r8, #3
 1119              	.LVL145:
ARM GAS  /tmp/ccQmvCRG.s 			page 66


 465:Drivers/CMSIS/DSP/Source/FilteringFunctions/arm_conv_fast_q15.c **** 
 466:Drivers/CMSIS/DSP/Source/FilteringFunctions/arm_conv_fast_q15.c ****     while (blkCnt > 0U)
 1120              		.loc 1 466 5 is_stmt 1 view .LVU403
 1121 0272 B946     		mov	r9, r7
 1122 0274 0698     		ldr	r0, [sp, #24]
 1123 0276 049D     		ldr	r5, [sp, #16]
 1124              		.loc 1 466 11 is_stmt 0 view .LVU404
 1125 0278 33E0     		b	.L20
 1126              	.LVL146:
 1127              	.L22:
 467:Drivers/CMSIS/DSP/Source/FilteringFunctions/arm_conv_fast_q15.c ****     {
 468:Drivers/CMSIS/DSP/Source/FilteringFunctions/arm_conv_fast_q15.c ****       /* Accumulator is made zero for every iteration */
 469:Drivers/CMSIS/DSP/Source/FilteringFunctions/arm_conv_fast_q15.c ****       sum = 0;
