ARM GAS  /tmp/ccfDpIJE.s 			page 1


   1              		.cpu cortex-m7
   2              		.arch armv7e-m
   3              		.fpu fpv5-sp-d16
   4              		.eabi_attribute 27, 1
   5              		.eabi_attribute 28, 1
   6              		.eabi_attribute 20, 1
   7              		.eabi_attribute 21, 1
   8              		.eabi_attribute 23, 3
   9              		.eabi_attribute 24, 1
  10              		.eabi_attribute 25, 1
  11              		.eabi_attribute 26, 1
  12              		.eabi_attribute 30, 1
  13              		.eabi_attribute 34, 1
  14              		.eabi_attribute 18, 4
  15              		.file	"arm_mat_mult_q31.c"
  16              		.text
  17              	.Ltext0:
  18              		.cfi_sections	.debug_frame
  19              		.file 1 "Drivers/CMSIS/DSP/Source/MatrixFunctions/arm_mat_mult_q31.c"
  20              		.section	.text.arm_mat_mult_q31,"ax",%progbits
  21              		.align	1
  22              		.global	arm_mat_mult_q31
  23              		.syntax unified
  24              		.thumb
  25              		.thumb_func
  27              	arm_mat_mult_q31:
  28              	.LVL0:
  29              	.LFB135:
   1:Drivers/CMSIS/DSP/Source/MatrixFunctions/arm_mat_mult_q31.c **** /* ----------------------------------------------------------------------
   2:Drivers/CMSIS/DSP/Source/MatrixFunctions/arm_mat_mult_q31.c ****  * Project:      CMSIS DSP Library
   3:Drivers/CMSIS/DSP/Source/MatrixFunctions/arm_mat_mult_q31.c ****  * Title:        arm_mat_mult_q31.c
   4:Drivers/CMSIS/DSP/Source/MatrixFunctions/arm_mat_mult_q31.c ****  * Description:  Q31 matrix multiplication
   5:Drivers/CMSIS/DSP/Source/MatrixFunctions/arm_mat_mult_q31.c ****  *
   6:Drivers/CMSIS/DSP/Source/MatrixFunctions/arm_mat_mult_q31.c ****  * $Date:        27. January 2017
   7:Drivers/CMSIS/DSP/Source/MatrixFunctions/arm_mat_mult_q31.c ****  * $Revision:    V.1.5.1
   8:Drivers/CMSIS/DSP/Source/MatrixFunctions/arm_mat_mult_q31.c ****  *
   9:Drivers/CMSIS/DSP/Source/MatrixFunctions/arm_mat_mult_q31.c ****  * Target Processor: Cortex-M cores
  10:Drivers/CMSIS/DSP/Source/MatrixFunctions/arm_mat_mult_q31.c ****  * -------------------------------------------------------------------- */
  11:Drivers/CMSIS/DSP/Source/MatrixFunctions/arm_mat_mult_q31.c **** /*
  12:Drivers/CMSIS/DSP/Source/MatrixFunctions/arm_mat_mult_q31.c ****  * Copyright (C) 2010-2017 ARM Limited or its affiliates. All rights reserved.
  13:Drivers/CMSIS/DSP/Source/MatrixFunctions/arm_mat_mult_q31.c ****  *
  14:Drivers/CMSIS/DSP/Source/MatrixFunctions/arm_mat_mult_q31.c ****  * SPDX-License-Identifier: Apache-2.0
  15:Drivers/CMSIS/DSP/Source/MatrixFunctions/arm_mat_mult_q31.c ****  *
  16:Drivers/CMSIS/DSP/Source/MatrixFunctions/arm_mat_mult_q31.c ****  * Licensed under the Apache License, Version 2.0 (the License); you may
  17:Drivers/CMSIS/DSP/Source/MatrixFunctions/arm_mat_mult_q31.c ****  * not use this file except in compliance with the License.
  18:Drivers/CMSIS/DSP/Source/MatrixFunctions/arm_mat_mult_q31.c ****  * You may obtain a copy of the License at
  19:Drivers/CMSIS/DSP/Source/MatrixFunctions/arm_mat_mult_q31.c ****  *
  20:Drivers/CMSIS/DSP/Source/MatrixFunctions/arm_mat_mult_q31.c ****  * www.apache.org/licenses/LICENSE-2.0
  21:Drivers/CMSIS/DSP/Source/MatrixFunctions/arm_mat_mult_q31.c ****  *
  22:Drivers/CMSIS/DSP/Source/MatrixFunctions/arm_mat_mult_q31.c ****  * Unless required by applicable law or agreed to in writing, software
  23:Drivers/CMSIS/DSP/Source/MatrixFunctions/arm_mat_mult_q31.c ****  * distributed under the License is distributed on an AS IS BASIS, WITHOUT
  24:Drivers/CMSIS/DSP/Source/MatrixFunctions/arm_mat_mult_q31.c ****  * WARRANTIES OR CONDITIONS OF ANY KIND, either express or implied.
  25:Drivers/CMSIS/DSP/Source/MatrixFunctions/arm_mat_mult_q31.c ****  * See the License for the specific language governing permissions and
  26:Drivers/CMSIS/DSP/Source/MatrixFunctions/arm_mat_mult_q31.c ****  * limitations under the License.
  27:Drivers/CMSIS/DSP/Source/MatrixFunctions/arm_mat_mult_q31.c ****  */
  28:Drivers/CMSIS/DSP/Source/MatrixFunctions/arm_mat_mult_q31.c **** 
  29:Drivers/CMSIS/DSP/Source/MatrixFunctions/arm_mat_mult_q31.c **** #include "arm_math.h"
ARM GAS  /tmp/ccfDpIJE.s 			page 2


  30:Drivers/CMSIS/DSP/Source/MatrixFunctions/arm_mat_mult_q31.c **** 
  31:Drivers/CMSIS/DSP/Source/MatrixFunctions/arm_mat_mult_q31.c **** /**
  32:Drivers/CMSIS/DSP/Source/MatrixFunctions/arm_mat_mult_q31.c ****  * @ingroup groupMatrix
  33:Drivers/CMSIS/DSP/Source/MatrixFunctions/arm_mat_mult_q31.c ****  */
  34:Drivers/CMSIS/DSP/Source/MatrixFunctions/arm_mat_mult_q31.c **** 
  35:Drivers/CMSIS/DSP/Source/MatrixFunctions/arm_mat_mult_q31.c **** /**
  36:Drivers/CMSIS/DSP/Source/MatrixFunctions/arm_mat_mult_q31.c ****  * @addtogroup MatrixMult
  37:Drivers/CMSIS/DSP/Source/MatrixFunctions/arm_mat_mult_q31.c ****  * @{
  38:Drivers/CMSIS/DSP/Source/MatrixFunctions/arm_mat_mult_q31.c ****  */
  39:Drivers/CMSIS/DSP/Source/MatrixFunctions/arm_mat_mult_q31.c **** 
  40:Drivers/CMSIS/DSP/Source/MatrixFunctions/arm_mat_mult_q31.c **** /**
  41:Drivers/CMSIS/DSP/Source/MatrixFunctions/arm_mat_mult_q31.c ****  * @brief Q31 matrix multiplication
  42:Drivers/CMSIS/DSP/Source/MatrixFunctions/arm_mat_mult_q31.c ****  * @param[in]       *pSrcA points to the first input matrix structure
  43:Drivers/CMSIS/DSP/Source/MatrixFunctions/arm_mat_mult_q31.c ****  * @param[in]       *pSrcB points to the second input matrix structure
  44:Drivers/CMSIS/DSP/Source/MatrixFunctions/arm_mat_mult_q31.c ****  * @param[out]      *pDst points to output matrix structure
  45:Drivers/CMSIS/DSP/Source/MatrixFunctions/arm_mat_mult_q31.c ****  * @return     		The function returns either
  46:Drivers/CMSIS/DSP/Source/MatrixFunctions/arm_mat_mult_q31.c ****  * <code>ARM_MATH_SIZE_MISMATCH</code> or <code>ARM_MATH_SUCCESS</code> based on the outcome of siz
  47:Drivers/CMSIS/DSP/Source/MatrixFunctions/arm_mat_mult_q31.c ****  *
  48:Drivers/CMSIS/DSP/Source/MatrixFunctions/arm_mat_mult_q31.c ****  * @details
  49:Drivers/CMSIS/DSP/Source/MatrixFunctions/arm_mat_mult_q31.c ****  * <b>Scaling and Overflow Behavior:</b>
  50:Drivers/CMSIS/DSP/Source/MatrixFunctions/arm_mat_mult_q31.c ****  *
  51:Drivers/CMSIS/DSP/Source/MatrixFunctions/arm_mat_mult_q31.c ****  * \par
  52:Drivers/CMSIS/DSP/Source/MatrixFunctions/arm_mat_mult_q31.c ****  * The function is implemented using an internal 64-bit accumulator.
  53:Drivers/CMSIS/DSP/Source/MatrixFunctions/arm_mat_mult_q31.c ****  * The accumulator has a 2.62 format and maintains full precision of the intermediate
  54:Drivers/CMSIS/DSP/Source/MatrixFunctions/arm_mat_mult_q31.c ****  * multiplication results but provides only a single guard bit. There is no saturation
  55:Drivers/CMSIS/DSP/Source/MatrixFunctions/arm_mat_mult_q31.c ****  * on intermediate additions. Thus, if the accumulator overflows it wraps around and
  56:Drivers/CMSIS/DSP/Source/MatrixFunctions/arm_mat_mult_q31.c ****  * distorts the result. The input signals should be scaled down to avoid intermediate
  57:Drivers/CMSIS/DSP/Source/MatrixFunctions/arm_mat_mult_q31.c ****  * overflows. The input is thus scaled down by log2(numColsA) bits
  58:Drivers/CMSIS/DSP/Source/MatrixFunctions/arm_mat_mult_q31.c ****  * to avoid overflows, as a total of numColsA additions are performed internally.
  59:Drivers/CMSIS/DSP/Source/MatrixFunctions/arm_mat_mult_q31.c ****  * The 2.62 accumulator is right shifted by 31 bits and saturated to 1.31 format to yield the final
  60:Drivers/CMSIS/DSP/Source/MatrixFunctions/arm_mat_mult_q31.c ****  *
  61:Drivers/CMSIS/DSP/Source/MatrixFunctions/arm_mat_mult_q31.c ****  * \par
  62:Drivers/CMSIS/DSP/Source/MatrixFunctions/arm_mat_mult_q31.c ****  * See <code>arm_mat_mult_fast_q31()</code> for a faster but less precise implementation of this fu
  63:Drivers/CMSIS/DSP/Source/MatrixFunctions/arm_mat_mult_q31.c ****  *
  64:Drivers/CMSIS/DSP/Source/MatrixFunctions/arm_mat_mult_q31.c ****  */
  65:Drivers/CMSIS/DSP/Source/MatrixFunctions/arm_mat_mult_q31.c **** 
  66:Drivers/CMSIS/DSP/Source/MatrixFunctions/arm_mat_mult_q31.c **** arm_status arm_mat_mult_q31(
  67:Drivers/CMSIS/DSP/Source/MatrixFunctions/arm_mat_mult_q31.c ****   const arm_matrix_instance_q31 * pSrcA,
  68:Drivers/CMSIS/DSP/Source/MatrixFunctions/arm_mat_mult_q31.c ****   const arm_matrix_instance_q31 * pSrcB,
  69:Drivers/CMSIS/DSP/Source/MatrixFunctions/arm_mat_mult_q31.c ****   arm_matrix_instance_q31 * pDst)
  70:Drivers/CMSIS/DSP/Source/MatrixFunctions/arm_mat_mult_q31.c **** {
  30              		.loc 1 70 1 view -0
  31              		.cfi_startproc
  32              		@ args = 0, pretend = 0, frame = 32
  33              		@ frame_needed = 0, uses_anonymous_args = 0
  34              		.loc 1 70 1 is_stmt 0 view .LVU1
  35 0000 2DE9F04F 		push	{r4, r5, r6, r7, r8, r9, r10, fp, lr}
  36              	.LCFI0:
  37              		.cfi_def_cfa_offset 36
  38              		.cfi_offset 4, -36
  39              		.cfi_offset 5, -32
  40              		.cfi_offset 6, -28
  41              		.cfi_offset 7, -24
  42              		.cfi_offset 8, -20
  43              		.cfi_offset 9, -16
  44              		.cfi_offset 10, -12
  45              		.cfi_offset 11, -8
ARM GAS  /tmp/ccfDpIJE.s 			page 3


  46              		.cfi_offset 14, -4
  47 0004 89B0     		sub	sp, sp, #36
  48              	.LCFI1:
  49              		.cfi_def_cfa_offset 72
  50 0006 0346     		mov	r3, r0
  51 0008 0C46     		mov	r4, r1
  52 000a 1146     		mov	r1, r2
  53              	.LVL1:
  71:Drivers/CMSIS/DSP/Source/MatrixFunctions/arm_mat_mult_q31.c ****   q31_t *pIn1 = pSrcA->pData;                    /* input data matrix pointer A */
  54              		.loc 1 71 3 is_stmt 1 view .LVU2
  72:Drivers/CMSIS/DSP/Source/MatrixFunctions/arm_mat_mult_q31.c ****   q31_t *pIn2 = pSrcB->pData;                    /* input data matrix pointer B */
  55              		.loc 1 72 3 view .LVU3
  73:Drivers/CMSIS/DSP/Source/MatrixFunctions/arm_mat_mult_q31.c ****   q31_t *pInA = pSrcA->pData;                    /* input data matrix pointer A */
  56              		.loc 1 73 3 view .LVU4
  57              		.loc 1 73 10 is_stmt 0 view .LVU5
  58 000c 4268     		ldr	r2, [r0, #4]
  59              	.LVL2:
  74:Drivers/CMSIS/DSP/Source/MatrixFunctions/arm_mat_mult_q31.c ****   q31_t *pOut = pDst->pData;                     /* output data matrix pointer */
  60              		.loc 1 74 3 is_stmt 1 view .LVU6
  61              		.loc 1 74 10 is_stmt 0 view .LVU7
  62 000e 4F68     		ldr	r7, [r1, #4]
  63              	.LVL3:
  75:Drivers/CMSIS/DSP/Source/MatrixFunctions/arm_mat_mult_q31.c ****   q31_t *px;                                     /* Temporary output data matrix pointer */
  64              		.loc 1 75 3 is_stmt 1 view .LVU8
  76:Drivers/CMSIS/DSP/Source/MatrixFunctions/arm_mat_mult_q31.c ****   q63_t sum;                                     /* Accumulator */
  65              		.loc 1 76 3 view .LVU9
  77:Drivers/CMSIS/DSP/Source/MatrixFunctions/arm_mat_mult_q31.c ****   uint16_t numRowsA = pSrcA->numRows;            /* number of rows of input matrix A    */
  66              		.loc 1 77 3 view .LVU10
  67              		.loc 1 77 12 is_stmt 0 view .LVU11
  68 0010 0088     		ldrh	r0, [r0]
  69              	.LVL4:
  78:Drivers/CMSIS/DSP/Source/MatrixFunctions/arm_mat_mult_q31.c ****   uint16_t numColsB = pSrcB->numCols;            /* number of columns of input matrix B */
  70              		.loc 1 78 3 is_stmt 1 view .LVU12
  71              		.loc 1 78 12 is_stmt 0 view .LVU13
  72 0012 B4F802A0 		ldrh	r10, [r4, #2]
  73              	.LVL5:
  79:Drivers/CMSIS/DSP/Source/MatrixFunctions/arm_mat_mult_q31.c ****   uint16_t numColsA = pSrcA->numCols;            /* number of columns of input matrix A */
  74              		.loc 1 79 3 is_stmt 1 view .LVU14
  75              		.loc 1 79 12 is_stmt 0 view .LVU15
  76 0016 5D88     		ldrh	r5, [r3, #2]
  77              	.LVL6:
  80:Drivers/CMSIS/DSP/Source/MatrixFunctions/arm_mat_mult_q31.c **** 
  81:Drivers/CMSIS/DSP/Source/MatrixFunctions/arm_mat_mult_q31.c **** #if defined (ARM_MATH_DSP)
  82:Drivers/CMSIS/DSP/Source/MatrixFunctions/arm_mat_mult_q31.c **** 
  83:Drivers/CMSIS/DSP/Source/MatrixFunctions/arm_mat_mult_q31.c ****   /* Run the below code for Cortex-M4 and Cortex-M3 */
  84:Drivers/CMSIS/DSP/Source/MatrixFunctions/arm_mat_mult_q31.c **** 
  85:Drivers/CMSIS/DSP/Source/MatrixFunctions/arm_mat_mult_q31.c ****   uint16_t col, i = 0U, j, row = numRowsA, colCnt;      /* loop counters */
  78              		.loc 1 85 3 is_stmt 1 view .LVU16
  79              		.loc 1 85 17 is_stmt 0 view .LVU17
  80 0018 0021     		movs	r1, #0
  81              	.LVL7:
  82              		.loc 1 85 17 view .LVU18
  83 001a 3E46     		mov	r6, r7
  84 001c 2B46     		mov	r3, r5
  85              	.LVL8:
  86              		.loc 1 85 17 view .LVU19
  87 001e 1546     		mov	r5, r2
ARM GAS  /tmp/ccfDpIJE.s 			page 4


  88              	.LVL9:
  89              		.loc 1 85 17 view .LVU20
  90 0020 A346     		mov	fp, r4
  91 0022 0446     		mov	r4, r0
  92              	.LVL10:
  93              		.loc 1 85 17 view .LVU21
  94 0024 0846     		mov	r0, r1
  95              	.LVL11:
  96              		.loc 1 85 17 view .LVU22
  97 0026 1A46     		mov	r2, r3
  98              	.LVL12:
  99              		.loc 1 85 17 view .LVU23
 100 0028 93E0     		b	.L7
 101              	.LVL13:
 102              	.L3:
  86:Drivers/CMSIS/DSP/Source/MatrixFunctions/arm_mat_mult_q31.c ****   arm_status status;                             /* status of matrix multiplication */
  87:Drivers/CMSIS/DSP/Source/MatrixFunctions/arm_mat_mult_q31.c ****   q31_t a0, a1, a2, a3, b0, b1, b2, b3;
  88:Drivers/CMSIS/DSP/Source/MatrixFunctions/arm_mat_mult_q31.c **** 
  89:Drivers/CMSIS/DSP/Source/MatrixFunctions/arm_mat_mult_q31.c **** #ifdef ARM_MATH_MATRIX_CHECK
  90:Drivers/CMSIS/DSP/Source/MatrixFunctions/arm_mat_mult_q31.c **** 
  91:Drivers/CMSIS/DSP/Source/MatrixFunctions/arm_mat_mult_q31.c **** 
  92:Drivers/CMSIS/DSP/Source/MatrixFunctions/arm_mat_mult_q31.c ****   /* Check for matrix mismatch condition */
  93:Drivers/CMSIS/DSP/Source/MatrixFunctions/arm_mat_mult_q31.c ****   if ((pSrcA->numCols != pSrcB->numRows) ||
  94:Drivers/CMSIS/DSP/Source/MatrixFunctions/arm_mat_mult_q31.c ****      (pSrcA->numRows != pDst->numRows) || (pSrcB->numCols != pDst->numCols))
  95:Drivers/CMSIS/DSP/Source/MatrixFunctions/arm_mat_mult_q31.c ****   {
  96:Drivers/CMSIS/DSP/Source/MatrixFunctions/arm_mat_mult_q31.c ****     /* Set status as ARM_MATH_SIZE_MISMATCH */
  97:Drivers/CMSIS/DSP/Source/MatrixFunctions/arm_mat_mult_q31.c ****     status = ARM_MATH_SIZE_MISMATCH;
  98:Drivers/CMSIS/DSP/Source/MatrixFunctions/arm_mat_mult_q31.c ****   }
  99:Drivers/CMSIS/DSP/Source/MatrixFunctions/arm_mat_mult_q31.c ****   else
 100:Drivers/CMSIS/DSP/Source/MatrixFunctions/arm_mat_mult_q31.c **** #endif /*    #ifdef ARM_MATH_MATRIX_CHECK    */
 101:Drivers/CMSIS/DSP/Source/MatrixFunctions/arm_mat_mult_q31.c **** 
 102:Drivers/CMSIS/DSP/Source/MatrixFunctions/arm_mat_mult_q31.c ****   {
 103:Drivers/CMSIS/DSP/Source/MatrixFunctions/arm_mat_mult_q31.c ****     /* The following loop performs the dot-product of each row in pSrcA with each column in pSrcB *
 104:Drivers/CMSIS/DSP/Source/MatrixFunctions/arm_mat_mult_q31.c ****     /* row loop */
 105:Drivers/CMSIS/DSP/Source/MatrixFunctions/arm_mat_mult_q31.c ****     do
 106:Drivers/CMSIS/DSP/Source/MatrixFunctions/arm_mat_mult_q31.c ****     {
 107:Drivers/CMSIS/DSP/Source/MatrixFunctions/arm_mat_mult_q31.c ****       /* Output pointer is set to starting address of the row being processed */
 108:Drivers/CMSIS/DSP/Source/MatrixFunctions/arm_mat_mult_q31.c ****       px = pOut + i;
 109:Drivers/CMSIS/DSP/Source/MatrixFunctions/arm_mat_mult_q31.c **** 
 110:Drivers/CMSIS/DSP/Source/MatrixFunctions/arm_mat_mult_q31.c ****       /* For every row wise process, the column loop counter is to be initiated */
 111:Drivers/CMSIS/DSP/Source/MatrixFunctions/arm_mat_mult_q31.c ****       col = numColsB;
 112:Drivers/CMSIS/DSP/Source/MatrixFunctions/arm_mat_mult_q31.c **** 
 113:Drivers/CMSIS/DSP/Source/MatrixFunctions/arm_mat_mult_q31.c ****       /* For every row wise process, the pIn2 pointer is set
 114:Drivers/CMSIS/DSP/Source/MatrixFunctions/arm_mat_mult_q31.c ****        ** to the starting address of the pSrcB data */
 115:Drivers/CMSIS/DSP/Source/MatrixFunctions/arm_mat_mult_q31.c ****       pIn2 = pSrcB->pData;
 116:Drivers/CMSIS/DSP/Source/MatrixFunctions/arm_mat_mult_q31.c **** 
 117:Drivers/CMSIS/DSP/Source/MatrixFunctions/arm_mat_mult_q31.c ****       j = 0U;
 118:Drivers/CMSIS/DSP/Source/MatrixFunctions/arm_mat_mult_q31.c **** 
 119:Drivers/CMSIS/DSP/Source/MatrixFunctions/arm_mat_mult_q31.c ****       /* column loop */
 120:Drivers/CMSIS/DSP/Source/MatrixFunctions/arm_mat_mult_q31.c ****       do
 121:Drivers/CMSIS/DSP/Source/MatrixFunctions/arm_mat_mult_q31.c ****       {
 122:Drivers/CMSIS/DSP/Source/MatrixFunctions/arm_mat_mult_q31.c ****         /* Set the variable sum, that acts as accumulator, to zero */
 123:Drivers/CMSIS/DSP/Source/MatrixFunctions/arm_mat_mult_q31.c ****         sum = 0;
 124:Drivers/CMSIS/DSP/Source/MatrixFunctions/arm_mat_mult_q31.c **** 
 125:Drivers/CMSIS/DSP/Source/MatrixFunctions/arm_mat_mult_q31.c ****         /* Initiate the pointer pIn1 to point to the starting address of pInA */
 126:Drivers/CMSIS/DSP/Source/MatrixFunctions/arm_mat_mult_q31.c ****         pIn1 = pInA;
 127:Drivers/CMSIS/DSP/Source/MatrixFunctions/arm_mat_mult_q31.c **** 
ARM GAS  /tmp/ccfDpIJE.s 			page 5


 128:Drivers/CMSIS/DSP/Source/MatrixFunctions/arm_mat_mult_q31.c ****         /* Apply loop unrolling and compute 4 MACs simultaneously. */
 129:Drivers/CMSIS/DSP/Source/MatrixFunctions/arm_mat_mult_q31.c ****         colCnt = numColsA >> 2;
 130:Drivers/CMSIS/DSP/Source/MatrixFunctions/arm_mat_mult_q31.c **** 
 131:Drivers/CMSIS/DSP/Source/MatrixFunctions/arm_mat_mult_q31.c **** 
 132:Drivers/CMSIS/DSP/Source/MatrixFunctions/arm_mat_mult_q31.c ****         /* matrix multiplication */
 133:Drivers/CMSIS/DSP/Source/MatrixFunctions/arm_mat_mult_q31.c ****         while (colCnt > 0U)
 134:Drivers/CMSIS/DSP/Source/MatrixFunctions/arm_mat_mult_q31.c ****         {
 135:Drivers/CMSIS/DSP/Source/MatrixFunctions/arm_mat_mult_q31.c ****           /* c(m,n) = a(1,1)*b(1,1) + a(1,2) * b(2,1) + .... + a(m,p)*b(p,n) */
 136:Drivers/CMSIS/DSP/Source/MatrixFunctions/arm_mat_mult_q31.c ****           /* Perform the multiply-accumulates */
 137:Drivers/CMSIS/DSP/Source/MatrixFunctions/arm_mat_mult_q31.c ****           b0 = *pIn2;
 103              		.loc 1 137 11 is_stmt 1 view .LVU24
 104              		.loc 1 137 14 is_stmt 0 view .LVU25
 105 002a DCF80060 		ldr	r6, [ip]
 106              	.LVL14:
 138:Drivers/CMSIS/DSP/Source/MatrixFunctions/arm_mat_mult_q31.c ****           pIn2 += numColsB;
 107              		.loc 1 138 11 is_stmt 1 view .LVU26
 139:Drivers/CMSIS/DSP/Source/MatrixFunctions/arm_mat_mult_q31.c **** 
 140:Drivers/CMSIS/DSP/Source/MatrixFunctions/arm_mat_mult_q31.c ****           a0 = *pIn1++;
 108              		.loc 1 140 11 view .LVU27
 109              		.loc 1 140 14 is_stmt 0 view .LVU28
 110 002e 2168     		ldr	r1, [r4]
 111              	.LVL15:
 141:Drivers/CMSIS/DSP/Source/MatrixFunctions/arm_mat_mult_q31.c ****           a1 = *pIn1++;
 112              		.loc 1 141 11 is_stmt 1 view .LVU29
 113              		.loc 1 141 14 is_stmt 0 view .LVU30
 114 0030 6568     		ldr	r5, [r4, #4]
 115              	.LVL16:
 142:Drivers/CMSIS/DSP/Source/MatrixFunctions/arm_mat_mult_q31.c **** 
 143:Drivers/CMSIS/DSP/Source/MatrixFunctions/arm_mat_mult_q31.c ****           b1 = *pIn2;
 116              		.loc 1 143 11 is_stmt 1 view .LVU31
 117              		.loc 1 143 14 is_stmt 0 view .LVU32
 118 0032 5CF82A70 		ldr	r7, [ip, r10, lsl #2]
 119              	.LVL17:
 144:Drivers/CMSIS/DSP/Source/MatrixFunctions/arm_mat_mult_q31.c ****           pIn2 += numColsB;
 120              		.loc 1 144 11 is_stmt 1 view .LVU33
 121              		.loc 1 144 16 is_stmt 0 view .LVU34
 122 0036 0CEBCA08 		add	r8, ip, r10, lsl #3
 123              	.LVL18:
 145:Drivers/CMSIS/DSP/Source/MatrixFunctions/arm_mat_mult_q31.c ****           b2 = *pIn2;
 124              		.loc 1 145 11 is_stmt 1 view .LVU35
 125              		.loc 1 145 14 is_stmt 0 view .LVU36
 126 003a 5CF83A20 		ldr	r2, [ip, r10, lsl #3]
 127              	.LVL19:
 146:Drivers/CMSIS/DSP/Source/MatrixFunctions/arm_mat_mult_q31.c ****           pIn2 += numColsB;
 128              		.loc 1 146 11 is_stmt 1 view .LVU37
 147:Drivers/CMSIS/DSP/Source/MatrixFunctions/arm_mat_mult_q31.c **** 
 148:Drivers/CMSIS/DSP/Source/MatrixFunctions/arm_mat_mult_q31.c ****           sum += (q63_t) a0 *b0;
 129              		.loc 1 148 11 view .LVU38
 130              		.loc 1 148 18 is_stmt 0 view .LVU39
 131 003e 4FEAE17C 		asr	ip, r1, #31
 132              		.loc 1 148 29 view .LVU40
 133 0042 4FEAE679 		asr	r9, r6, #31
 134 0046 06FB0CFC 		mul	ip, r6, ip
 135 004a 01FB09CC 		mla	ip, r1, r9, ip
 136 004e A6FB0161 		umull	r6, r1, r6, r1
 137              	.LVL20:
 138              		.loc 1 148 29 view .LVU41
ARM GAS  /tmp/ccfDpIJE.s 			page 6


 139 0052 6144     		add	r1, r1, ip
 140              		.loc 1 148 15 view .LVU42
 141 0054 F618     		adds	r6, r6, r3
 142 0056 41EB0001 		adc	r1, r1, r0
 143              	.LVL21:
 149:Drivers/CMSIS/DSP/Source/MatrixFunctions/arm_mat_mult_q31.c ****           sum += (q63_t) a1 *b1;
 144              		.loc 1 149 11 is_stmt 1 view .LVU43
 145              		.loc 1 149 18 is_stmt 0 view .LVU44
 146 005a EB17     		asrs	r3, r5, #31
 147              		.loc 1 149 29 view .LVU45
 148 005c F817     		asrs	r0, r7, #31
 149 005e 07FB03F3 		mul	r3, r7, r3
 150 0062 05FB0033 		mla	r3, r5, r0, r3
 151 0066 A7FB0557 		umull	r5, r7, r7, r5
 152              	.LVL22:
 153              		.loc 1 149 29 view .LVU46
 154 006a 1F44     		add	r7, r7, r3
 155              		.loc 1 149 15 view .LVU47
 156 006c AD19     		adds	r5, r5, r6
 157 006e 47EB0107 		adc	r7, r7, r1
 158              	.LVL23:
 150:Drivers/CMSIS/DSP/Source/MatrixFunctions/arm_mat_mult_q31.c **** 
 151:Drivers/CMSIS/DSP/Source/MatrixFunctions/arm_mat_mult_q31.c ****           a2 = *pIn1++;
 159              		.loc 1 151 11 is_stmt 1 view .LVU48
 160              		.loc 1 151 14 is_stmt 0 view .LVU49
 161 0072 A168     		ldr	r1, [r4, #8]
 162              	.LVL24:
 152:Drivers/CMSIS/DSP/Source/MatrixFunctions/arm_mat_mult_q31.c ****           a3 = *pIn1++;
 163              		.loc 1 152 11 is_stmt 1 view .LVU50
 164              		.loc 1 152 14 is_stmt 0 view .LVU51
 165 0074 E368     		ldr	r3, [r4, #12]
 166              	.LVL25:
 153:Drivers/CMSIS/DSP/Source/MatrixFunctions/arm_mat_mult_q31.c **** 
 154:Drivers/CMSIS/DSP/Source/MatrixFunctions/arm_mat_mult_q31.c ****           b3 = *pIn2;
 167              		.loc 1 154 11 is_stmt 1 view .LVU52
 168              		.loc 1 154 14 is_stmt 0 view .LVU53
 169 0076 58F82A00 		ldr	r0, [r8, r10, lsl #2]
 170              	.LVL26:
 155:Drivers/CMSIS/DSP/Source/MatrixFunctions/arm_mat_mult_q31.c ****           pIn2 += numColsB;
 171              		.loc 1 155 11 is_stmt 1 view .LVU54
 172              		.loc 1 155 16 is_stmt 0 view .LVU55
 173 007a 08EBCA0C 		add	ip, r8, r10, lsl #3
 174              	.LVL27:
 156:Drivers/CMSIS/DSP/Source/MatrixFunctions/arm_mat_mult_q31.c **** 
 157:Drivers/CMSIS/DSP/Source/MatrixFunctions/arm_mat_mult_q31.c ****           sum += (q63_t) a2 *b2;
 175              		.loc 1 157 11 is_stmt 1 view .LVU56
 176              		.loc 1 157 18 is_stmt 0 view .LVU57
 177 007e CE17     		asrs	r6, r1, #31
 178              		.loc 1 157 29 view .LVU58
 179 0080 4FEAE278 		asr	r8, r2, #31
 180 0084 02FB06F6 		mul	r6, r2, r6
 181 0088 01FB0866 		mla	r6, r1, r8, r6
 182 008c A2FB0121 		umull	r2, r1, r2, r1
 183              	.LVL28:
 184              		.loc 1 157 29 view .LVU59
 185 0090 3144     		add	r1, r1, r6
 186              		.loc 1 157 15 view .LVU60
ARM GAS  /tmp/ccfDpIJE.s 			page 7


 187 0092 5219     		adds	r2, r2, r5
 188 0094 41EB0701 		adc	r1, r1, r7
 189              	.LVL29:
 158:Drivers/CMSIS/DSP/Source/MatrixFunctions/arm_mat_mult_q31.c ****           sum += (q63_t) a3 *b3;
 190              		.loc 1 158 11 is_stmt 1 view .LVU61
 191              		.loc 1 158 18 is_stmt 0 view .LVU62
 192 0098 DD17     		asrs	r5, r3, #31
 193              		.loc 1 158 29 view .LVU63
 194 009a C617     		asrs	r6, r0, #31
 195 009c 00FB05F5 		mul	r5, r0, r5
 196 00a0 03FB0655 		mla	r5, r3, r6, r5
 197 00a4 A0FB0330 		umull	r3, r0, r0, r3
 198              	.LVL30:
 199              		.loc 1 158 29 view .LVU64
 200 00a8 2844     		add	r0, r0, r5
 201              		.loc 1 158 15 view .LVU65
 202 00aa 9B18     		adds	r3, r3, r2
 203 00ac 40EB0100 		adc	r0, r0, r1
 204              	.LVL31:
 159:Drivers/CMSIS/DSP/Source/MatrixFunctions/arm_mat_mult_q31.c **** 
 160:Drivers/CMSIS/DSP/Source/MatrixFunctions/arm_mat_mult_q31.c ****           /* Decrement the loop counter */
 161:Drivers/CMSIS/DSP/Source/MatrixFunctions/arm_mat_mult_q31.c ****           colCnt--;
 205              		.loc 1 161 11 is_stmt 1 view .LVU66
 206              		.loc 1 161 17 is_stmt 0 view .LVU67
 207 00b0 0EF1FF3E 		add	lr, lr, #-1
 208              	.LVL32:
 209              		.loc 1 161 17 view .LVU68
 210 00b4 1FFA8EFE 		uxth	lr, lr
 211              	.LVL33:
 152:Drivers/CMSIS/DSP/Source/MatrixFunctions/arm_mat_mult_q31.c **** 
 212              		.loc 1 152 21 view .LVU69
 213 00b8 1034     		adds	r4, r4, #16
 214              	.LVL34:
 215              	.L2:
 133:Drivers/CMSIS/DSP/Source/MatrixFunctions/arm_mat_mult_q31.c ****         {
 216              		.loc 1 133 23 is_stmt 1 view .LVU70
 217 00ba BEF1000F 		cmp	lr, #0
 218 00be B4D1     		bne	.L3
 162:Drivers/CMSIS/DSP/Source/MatrixFunctions/arm_mat_mult_q31.c ****         }
 163:Drivers/CMSIS/DSP/Source/MatrixFunctions/arm_mat_mult_q31.c **** 
 164:Drivers/CMSIS/DSP/Source/MatrixFunctions/arm_mat_mult_q31.c ****         /* If the columns of pSrcA is not a multiple of 4, compute any remaining output samples her
 165:Drivers/CMSIS/DSP/Source/MatrixFunctions/arm_mat_mult_q31.c ****          ** No loop unrolling is used. */
 166:Drivers/CMSIS/DSP/Source/MatrixFunctions/arm_mat_mult_q31.c ****         colCnt = numColsA % 0x4U;
 219              		.loc 1 166 16 is_stmt 0 view .LVU71
 220 00c0 DDF80480 		ldr	r8, [sp, #4]
 221 00c4 029E     		ldr	r6, [sp, #8]
 222 00c6 039A     		ldr	r2, [sp, #12]
 223              		.loc 1 166 9 is_stmt 1 view .LVU72
 224              		.loc 1 166 16 is_stmt 0 view .LVU73
 225 00c8 02F00307 		and	r7, r2, #3
 226              	.LVL35:
 167:Drivers/CMSIS/DSP/Source/MatrixFunctions/arm_mat_mult_q31.c **** 
 168:Drivers/CMSIS/DSP/Source/MatrixFunctions/arm_mat_mult_q31.c ****         while (colCnt > 0U)
 227              		.loc 1 168 9 is_stmt 1 view .LVU74
 228              		.loc 1 168 15 is_stmt 0 view .LVU75
 229 00cc 16E0     		b	.L4
 230              	.L5:
ARM GAS  /tmp/ccfDpIJE.s 			page 8


 169:Drivers/CMSIS/DSP/Source/MatrixFunctions/arm_mat_mult_q31.c ****         {
 170:Drivers/CMSIS/DSP/Source/MatrixFunctions/arm_mat_mult_q31.c ****           /* c(m,n) = a(1,1)*b(1,1) + a(1,2) * b(2,1) + .... + a(m,p)*b(p,n) */
 171:Drivers/CMSIS/DSP/Source/MatrixFunctions/arm_mat_mult_q31.c ****           /* Perform the multiply-accumulates */
 172:Drivers/CMSIS/DSP/Source/MatrixFunctions/arm_mat_mult_q31.c ****           sum += (q63_t) * pIn1++ * *pIn2;
 231              		.loc 1 172 11 is_stmt 1 view .LVU76
 232              	.LVL36:
 233              		.loc 1 172 26 is_stmt 0 view .LVU77
 234 00ce 54F8041B 		ldr	r1, [r4], #4
 235              	.LVL37:
 236              		.loc 1 172 18 view .LVU78
 237 00d2 4FEAE179 		asr	r9, r1, #31
 238              		.loc 1 172 37 view .LVU79
 239 00d6 DCF80050 		ldr	r5, [ip]
 240 00da 4FEAE57E 		asr	lr, r5, #31
 241              		.loc 1 172 35 view .LVU80
 242 00de 01FB0EFE 		mul	lr, r1, lr
 243 00e2 05FB09EE 		mla	lr, r5, r9, lr
 244 00e6 A1FB0515 		umull	r1, r5, r1, r5
 245 00ea 7544     		add	r5, r5, lr
 246              		.loc 1 172 15 view .LVU81
 247 00ec 5918     		adds	r1, r3, r1
 248 00ee 0B46     		mov	r3, r1
 249              	.LVL38:
 250              		.loc 1 172 15 view .LVU82
 251 00f0 45EB0000 		adc	r0, r5, r0
 252              	.LVL39:
 173:Drivers/CMSIS/DSP/Source/MatrixFunctions/arm_mat_mult_q31.c ****           pIn2 += numColsB;
 253              		.loc 1 173 11 is_stmt 1 view .LVU83
 254              		.loc 1 173 16 is_stmt 0 view .LVU84
 255 00f4 0CEB8A0C 		add	ip, ip, r10, lsl #2
 256              	.LVL40:
 174:Drivers/CMSIS/DSP/Source/MatrixFunctions/arm_mat_mult_q31.c **** 
 175:Drivers/CMSIS/DSP/Source/MatrixFunctions/arm_mat_mult_q31.c ****           /* Decrement the loop counter */
 176:Drivers/CMSIS/DSP/Source/MatrixFunctions/arm_mat_mult_q31.c ****           colCnt--;
 257              		.loc 1 176 11 is_stmt 1 view .LVU85
 258              		.loc 1 176 17 is_stmt 0 view .LVU86
 259 00f8 013F     		subs	r7, r7, #1
 260              	.LVL41:
 261              		.loc 1 176 17 view .LVU87
 262 00fa BFB2     		uxth	r7, r7
 263              	.LVL42:
 264              	.L4:
 168:Drivers/CMSIS/DSP/Source/MatrixFunctions/arm_mat_mult_q31.c ****         {
 265              		.loc 1 168 23 is_stmt 1 view .LVU88
 266 00fc 002F     		cmp	r7, #0
 267 00fe E6D1     		bne	.L5
 177:Drivers/CMSIS/DSP/Source/MatrixFunctions/arm_mat_mult_q31.c ****         }
 178:Drivers/CMSIS/DSP/Source/MatrixFunctions/arm_mat_mult_q31.c **** 
 179:Drivers/CMSIS/DSP/Source/MatrixFunctions/arm_mat_mult_q31.c ****         /* Convert the result from 2.62 to 1.31 format and store in destination buffer */
 180:Drivers/CMSIS/DSP/Source/MatrixFunctions/arm_mat_mult_q31.c ****         *px++ = (q31_t) (sum >> 31);
 268              		.loc 1 180 9 view .LVU89
 269              		.loc 1 180 30 is_stmt 0 view .LVU90
 270 0100 DB0F     		lsrs	r3, r3, #31
 271              	.LVL43:
 272              		.loc 1 180 30 view .LVU91
 273 0102 43EA4003 		orr	r3, r3, r0, lsl #1
 274              		.loc 1 180 12 view .LVU92
ARM GAS  /tmp/ccfDpIJE.s 			page 9


 275 0106 0498     		ldr	r0, [sp, #16]
 276              	.LVL44:
 277              		.loc 1 180 15 view .LVU93
 278 0108 40F8043B 		str	r3, [r0], #4
 279              	.LVL45:
 181:Drivers/CMSIS/DSP/Source/MatrixFunctions/arm_mat_mult_q31.c **** 
 182:Drivers/CMSIS/DSP/Source/MatrixFunctions/arm_mat_mult_q31.c ****         /* Update the pointer pIn2 to point to the  starting address of the next column */
 183:Drivers/CMSIS/DSP/Source/MatrixFunctions/arm_mat_mult_q31.c ****         j++;
 280              		.loc 1 183 9 is_stmt 1 view .LVU94
 281              		.loc 1 183 10 is_stmt 0 view .LVU95
 282 010c 08F10108 		add	r8, r8, #1
 283 0110 1FFA88F8 		uxth	r8, r8
 284              	.LVL46:
 184:Drivers/CMSIS/DSP/Source/MatrixFunctions/arm_mat_mult_q31.c ****         pIn2 = (pSrcB->pData) + j;
 285              		.loc 1 184 9 is_stmt 1 view .LVU96
 286              		.loc 1 184 22 is_stmt 0 view .LVU97
 287 0114 DBF80430 		ldr	r3, [fp, #4]
 288              		.loc 1 184 14 view .LVU98
 289 0118 03EB880C 		add	ip, r3, r8, lsl #2
 290              	.LVL47:
 185:Drivers/CMSIS/DSP/Source/MatrixFunctions/arm_mat_mult_q31.c **** 
 186:Drivers/CMSIS/DSP/Source/MatrixFunctions/arm_mat_mult_q31.c ****         /* Decrement the column loop counter */
 187:Drivers/CMSIS/DSP/Source/MatrixFunctions/arm_mat_mult_q31.c ****         col--;
 291              		.loc 1 187 9 is_stmt 1 view .LVU99
 292              		.loc 1 187 12 is_stmt 0 view .LVU100
 293 011c 009B     		ldr	r3, [sp]
 294 011e 013B     		subs	r3, r3, #1
 295 0120 9BB2     		uxth	r3, r3
 296 0122 0093     		str	r3, [sp]
 297              	.LVL48:
 188:Drivers/CMSIS/DSP/Source/MatrixFunctions/arm_mat_mult_q31.c **** 
 189:Drivers/CMSIS/DSP/Source/MatrixFunctions/arm_mat_mult_q31.c ****       } while (col > 0U);
 298              		.loc 1 189 20 is_stmt 1 view .LVU101
 299 0124 53B1     		cbz	r3, .L10
 180:Drivers/CMSIS/DSP/Source/MatrixFunctions/arm_mat_mult_q31.c **** 
 300              		.loc 1 180 12 is_stmt 0 view .LVU102
 301 0126 0490     		str	r0, [sp, #16]
 302              	.LVL49:
 303              	.L6:
 120:Drivers/CMSIS/DSP/Source/MatrixFunctions/arm_mat_mult_q31.c ****       {
 304              		.loc 1 120 7 is_stmt 1 view .LVU103
 123:Drivers/CMSIS/DSP/Source/MatrixFunctions/arm_mat_mult_q31.c **** 
 305              		.loc 1 123 9 view .LVU104
 126:Drivers/CMSIS/DSP/Source/MatrixFunctions/arm_mat_mult_q31.c **** 
 306              		.loc 1 126 9 view .LVU105
 129:Drivers/CMSIS/DSP/Source/MatrixFunctions/arm_mat_mult_q31.c **** 
 307              		.loc 1 129 9 view .LVU106
 129:Drivers/CMSIS/DSP/Source/MatrixFunctions/arm_mat_mult_q31.c **** 
 308              		.loc 1 129 16 is_stmt 0 view .LVU107
 309 0128 9108     		lsrs	r1, r2, #2
 310              	.LVL50:
 133:Drivers/CMSIS/DSP/Source/MatrixFunctions/arm_mat_mult_q31.c ****         {
 311              		.loc 1 133 9 is_stmt 1 view .LVU108
 126:Drivers/CMSIS/DSP/Source/MatrixFunctions/arm_mat_mult_q31.c **** 
 312              		.loc 1 126 14 is_stmt 0 view .LVU109
 313 012a 059C     		ldr	r4, [sp, #20]
 123:Drivers/CMSIS/DSP/Source/MatrixFunctions/arm_mat_mult_q31.c **** 
ARM GAS  /tmp/ccfDpIJE.s 			page 10


 314              		.loc 1 123 13 view .LVU110
 315 012c 0023     		movs	r3, #0
 316 012e 1846     		mov	r0, r3
 317 0130 CDF80480 		str	r8, [sp, #4]
 318 0134 8E46     		mov	lr, r1
 319 0136 0296     		str	r6, [sp, #8]
 320 0138 0392     		str	r2, [sp, #12]
 133:Drivers/CMSIS/DSP/Source/MatrixFunctions/arm_mat_mult_q31.c ****         {
 321              		.loc 1 133 15 view .LVU111
 322 013a BEE7     		b	.L2
 323              	.LVL51:
 324              	.L10:
 190:Drivers/CMSIS/DSP/Source/MatrixFunctions/arm_mat_mult_q31.c **** 
 191:Drivers/CMSIS/DSP/Source/MatrixFunctions/arm_mat_mult_q31.c **** #else
 192:Drivers/CMSIS/DSP/Source/MatrixFunctions/arm_mat_mult_q31.c **** 
 193:Drivers/CMSIS/DSP/Source/MatrixFunctions/arm_mat_mult_q31.c ****   /* Run the below code for Cortex-M0 */
 194:Drivers/CMSIS/DSP/Source/MatrixFunctions/arm_mat_mult_q31.c **** 
 195:Drivers/CMSIS/DSP/Source/MatrixFunctions/arm_mat_mult_q31.c ****   q31_t *pInB = pSrcB->pData;                    /* input data matrix pointer B */
 196:Drivers/CMSIS/DSP/Source/MatrixFunctions/arm_mat_mult_q31.c ****   uint16_t col, i = 0U, row = numRowsA, colCnt;  /* loop counters */
 197:Drivers/CMSIS/DSP/Source/MatrixFunctions/arm_mat_mult_q31.c ****   arm_status status;                             /* status of matrix multiplication */
 198:Drivers/CMSIS/DSP/Source/MatrixFunctions/arm_mat_mult_q31.c **** 
 199:Drivers/CMSIS/DSP/Source/MatrixFunctions/arm_mat_mult_q31.c **** 
 200:Drivers/CMSIS/DSP/Source/MatrixFunctions/arm_mat_mult_q31.c **** #ifdef ARM_MATH_MATRIX_CHECK
 201:Drivers/CMSIS/DSP/Source/MatrixFunctions/arm_mat_mult_q31.c **** 
 202:Drivers/CMSIS/DSP/Source/MatrixFunctions/arm_mat_mult_q31.c ****   /* Check for matrix mismatch condition */
 203:Drivers/CMSIS/DSP/Source/MatrixFunctions/arm_mat_mult_q31.c ****   if ((pSrcA->numCols != pSrcB->numRows) ||
 204:Drivers/CMSIS/DSP/Source/MatrixFunctions/arm_mat_mult_q31.c ****      (pSrcA->numRows != pDst->numRows) || (pSrcB->numCols != pDst->numCols))
 205:Drivers/CMSIS/DSP/Source/MatrixFunctions/arm_mat_mult_q31.c ****   {
 206:Drivers/CMSIS/DSP/Source/MatrixFunctions/arm_mat_mult_q31.c ****     /* Set status as ARM_MATH_SIZE_MISMATCH */
 207:Drivers/CMSIS/DSP/Source/MatrixFunctions/arm_mat_mult_q31.c ****     status = ARM_MATH_SIZE_MISMATCH;
 208:Drivers/CMSIS/DSP/Source/MatrixFunctions/arm_mat_mult_q31.c ****   }
 209:Drivers/CMSIS/DSP/Source/MatrixFunctions/arm_mat_mult_q31.c ****   else
 210:Drivers/CMSIS/DSP/Source/MatrixFunctions/arm_mat_mult_q31.c **** #endif /*    #ifdef ARM_MATH_MATRIX_CHECK    */
 211:Drivers/CMSIS/DSP/Source/MatrixFunctions/arm_mat_mult_q31.c **** 
 212:Drivers/CMSIS/DSP/Source/MatrixFunctions/arm_mat_mult_q31.c ****   {
 213:Drivers/CMSIS/DSP/Source/MatrixFunctions/arm_mat_mult_q31.c ****     /* The following loop performs the dot-product of each row in pSrcA with each column in pSrcB *
 214:Drivers/CMSIS/DSP/Source/MatrixFunctions/arm_mat_mult_q31.c ****     /* row loop */
 215:Drivers/CMSIS/DSP/Source/MatrixFunctions/arm_mat_mult_q31.c ****     do
 216:Drivers/CMSIS/DSP/Source/MatrixFunctions/arm_mat_mult_q31.c ****     {
 217:Drivers/CMSIS/DSP/Source/MatrixFunctions/arm_mat_mult_q31.c ****       /* Output pointer is set to starting address of the row being processed */
 218:Drivers/CMSIS/DSP/Source/MatrixFunctions/arm_mat_mult_q31.c ****       px = pOut + i;
 219:Drivers/CMSIS/DSP/Source/MatrixFunctions/arm_mat_mult_q31.c **** 
 220:Drivers/CMSIS/DSP/Source/MatrixFunctions/arm_mat_mult_q31.c ****       /* For every row wise process, the column loop counter is to be initiated */
 221:Drivers/CMSIS/DSP/Source/MatrixFunctions/arm_mat_mult_q31.c ****       col = numColsB;
 222:Drivers/CMSIS/DSP/Source/MatrixFunctions/arm_mat_mult_q31.c **** 
 223:Drivers/CMSIS/DSP/Source/MatrixFunctions/arm_mat_mult_q31.c ****       /* For every row wise process, the pIn2 pointer is set
 224:Drivers/CMSIS/DSP/Source/MatrixFunctions/arm_mat_mult_q31.c ****        ** to the starting address of the pSrcB data */
 225:Drivers/CMSIS/DSP/Source/MatrixFunctions/arm_mat_mult_q31.c ****       pIn2 = pSrcB->pData;
 226:Drivers/CMSIS/DSP/Source/MatrixFunctions/arm_mat_mult_q31.c **** 
 227:Drivers/CMSIS/DSP/Source/MatrixFunctions/arm_mat_mult_q31.c ****       /* column loop */
 228:Drivers/CMSIS/DSP/Source/MatrixFunctions/arm_mat_mult_q31.c ****       do
 229:Drivers/CMSIS/DSP/Source/MatrixFunctions/arm_mat_mult_q31.c ****       {
 230:Drivers/CMSIS/DSP/Source/MatrixFunctions/arm_mat_mult_q31.c ****         /* Set the variable sum, that acts as accumulator, to zero */
 231:Drivers/CMSIS/DSP/Source/MatrixFunctions/arm_mat_mult_q31.c ****         sum = 0;
 232:Drivers/CMSIS/DSP/Source/MatrixFunctions/arm_mat_mult_q31.c **** 
 233:Drivers/CMSIS/DSP/Source/MatrixFunctions/arm_mat_mult_q31.c ****         /* Initiate the pointer pIn1 to point to the starting address of pInA */
 234:Drivers/CMSIS/DSP/Source/MatrixFunctions/arm_mat_mult_q31.c ****         pIn1 = pInA;
ARM GAS  /tmp/ccfDpIJE.s 			page 11


 235:Drivers/CMSIS/DSP/Source/MatrixFunctions/arm_mat_mult_q31.c **** 
 236:Drivers/CMSIS/DSP/Source/MatrixFunctions/arm_mat_mult_q31.c ****         /* Matrix A columns number of MAC operations are to be performed */
 237:Drivers/CMSIS/DSP/Source/MatrixFunctions/arm_mat_mult_q31.c ****         colCnt = numColsA;
 238:Drivers/CMSIS/DSP/Source/MatrixFunctions/arm_mat_mult_q31.c **** 
 239:Drivers/CMSIS/DSP/Source/MatrixFunctions/arm_mat_mult_q31.c ****         /* matrix multiplication */
 240:Drivers/CMSIS/DSP/Source/MatrixFunctions/arm_mat_mult_q31.c ****         while (colCnt > 0U)
 241:Drivers/CMSIS/DSP/Source/MatrixFunctions/arm_mat_mult_q31.c ****         {
 242:Drivers/CMSIS/DSP/Source/MatrixFunctions/arm_mat_mult_q31.c ****           /* c(m,n) = a(1,1)*b(1,1) + a(1,2) * b(2,1) + .... + a(m,p)*b(p,n) */
 243:Drivers/CMSIS/DSP/Source/MatrixFunctions/arm_mat_mult_q31.c ****           /* Perform the multiply-accumulates */
 244:Drivers/CMSIS/DSP/Source/MatrixFunctions/arm_mat_mult_q31.c ****           sum += (q63_t) * pIn1++ * *pIn2;
 245:Drivers/CMSIS/DSP/Source/MatrixFunctions/arm_mat_mult_q31.c ****           pIn2 += numColsB;
 246:Drivers/CMSIS/DSP/Source/MatrixFunctions/arm_mat_mult_q31.c **** 
 247:Drivers/CMSIS/DSP/Source/MatrixFunctions/arm_mat_mult_q31.c ****           /* Decrement the loop counter */
 248:Drivers/CMSIS/DSP/Source/MatrixFunctions/arm_mat_mult_q31.c ****           colCnt--;
 249:Drivers/CMSIS/DSP/Source/MatrixFunctions/arm_mat_mult_q31.c ****         }
 250:Drivers/CMSIS/DSP/Source/MatrixFunctions/arm_mat_mult_q31.c **** 
 251:Drivers/CMSIS/DSP/Source/MatrixFunctions/arm_mat_mult_q31.c ****         /* Convert the result from 2.62 to 1.31 format and store in destination buffer */
 252:Drivers/CMSIS/DSP/Source/MatrixFunctions/arm_mat_mult_q31.c ****         *px++ = (q31_t) clip_q63_to_q31(sum >> 31);
 253:Drivers/CMSIS/DSP/Source/MatrixFunctions/arm_mat_mult_q31.c **** 
 254:Drivers/CMSIS/DSP/Source/MatrixFunctions/arm_mat_mult_q31.c ****         /* Decrement the column loop counter */
 255:Drivers/CMSIS/DSP/Source/MatrixFunctions/arm_mat_mult_q31.c ****         col--;
 256:Drivers/CMSIS/DSP/Source/MatrixFunctions/arm_mat_mult_q31.c **** 
 257:Drivers/CMSIS/DSP/Source/MatrixFunctions/arm_mat_mult_q31.c ****         /* Update the pointer pIn2 to point to the  starting address of the next column */
 258:Drivers/CMSIS/DSP/Source/MatrixFunctions/arm_mat_mult_q31.c ****         pIn2 = pInB + (numColsB - col);
 259:Drivers/CMSIS/DSP/Source/MatrixFunctions/arm_mat_mult_q31.c **** 
 260:Drivers/CMSIS/DSP/Source/MatrixFunctions/arm_mat_mult_q31.c ****       } while (col > 0U);
 261:Drivers/CMSIS/DSP/Source/MatrixFunctions/arm_mat_mult_q31.c **** 
 262:Drivers/CMSIS/DSP/Source/MatrixFunctions/arm_mat_mult_q31.c **** #endif
 263:Drivers/CMSIS/DSP/Source/MatrixFunctions/arm_mat_mult_q31.c **** 
 264:Drivers/CMSIS/DSP/Source/MatrixFunctions/arm_mat_mult_q31.c ****       /* Update the pointer pInA to point to the  starting address of the next row */
 265:Drivers/CMSIS/DSP/Source/MatrixFunctions/arm_mat_mult_q31.c ****       i = i + numColsB;
 325              		.loc 1 265 9 view .LVU112
 326 013c 059D     		ldr	r5, [sp, #20]
 327 013e 0698     		ldr	r0, [sp, #24]
 328              	.LVL52:
 329              		.loc 1 265 9 view .LVU113
 330 0140 079C     		ldr	r4, [sp, #28]
 331              	.LVL53:
 332              		.loc 1 265 7 is_stmt 1 view .LVU114
 333              		.loc 1 265 9 is_stmt 0 view .LVU115
 334 0142 00EB0A03 		add	r3, r0, r10
 335              	.LVL54:
 336              		.loc 1 265 9 view .LVU116
 337 0146 98B2     		uxth	r0, r3
 338              	.LVL55:
 266:Drivers/CMSIS/DSP/Source/MatrixFunctions/arm_mat_mult_q31.c ****       pInA = pInA + numColsA;
 339              		.loc 1 266 7 is_stmt 1 view .LVU117
 340              		.loc 1 266 12 is_stmt 0 view .LVU118
 341 0148 05EB8205 		add	r5, r5, r2, lsl #2
 342              	.LVL56:
 267:Drivers/CMSIS/DSP/Source/MatrixFunctions/arm_mat_mult_q31.c **** 
 268:Drivers/CMSIS/DSP/Source/MatrixFunctions/arm_mat_mult_q31.c ****       /* Decrement the row loop counter */
 269:Drivers/CMSIS/DSP/Source/MatrixFunctions/arm_mat_mult_q31.c ****       row--;
 343              		.loc 1 269 7 is_stmt 1 view .LVU119
 344              		.loc 1 269 10 is_stmt 0 view .LVU120
 345 014c 631E     		subs	r3, r4, #1
 346 014e 9CB2     		uxth	r4, r3
ARM GAS  /tmp/ccfDpIJE.s 			page 12


 347              	.LVL57:
 270:Drivers/CMSIS/DSP/Source/MatrixFunctions/arm_mat_mult_q31.c **** 
 271:Drivers/CMSIS/DSP/Source/MatrixFunctions/arm_mat_mult_q31.c ****     } while (row > 0U);
 348              		.loc 1 271 18 is_stmt 1 view .LVU121
 349 0150 64B1     		cbz	r4, .L11
 350              	.LVL58:
 351              	.L7:
  86:Drivers/CMSIS/DSP/Source/MatrixFunctions/arm_mat_mult_q31.c ****   q31_t a0, a1, a2, a3, b0, b1, b2, b3;
 352              		.loc 1 86 3 view .LVU122
  87:Drivers/CMSIS/DSP/Source/MatrixFunctions/arm_mat_mult_q31.c **** 
 353              		.loc 1 87 3 view .LVU123
 105:Drivers/CMSIS/DSP/Source/MatrixFunctions/arm_mat_mult_q31.c ****     {
 354              		.loc 1 105 5 view .LVU124
 108:Drivers/CMSIS/DSP/Source/MatrixFunctions/arm_mat_mult_q31.c **** 
 355              		.loc 1 108 7 view .LVU125
 108:Drivers/CMSIS/DSP/Source/MatrixFunctions/arm_mat_mult_q31.c **** 
 356              		.loc 1 108 10 is_stmt 0 view .LVU126
 357 0152 06EB8001 		add	r1, r6, r0, lsl #2
 358              	.LVL59:
 111:Drivers/CMSIS/DSP/Source/MatrixFunctions/arm_mat_mult_q31.c **** 
 359              		.loc 1 111 7 is_stmt 1 view .LVU127
 115:Drivers/CMSIS/DSP/Source/MatrixFunctions/arm_mat_mult_q31.c **** 
 360              		.loc 1 115 7 view .LVU128
 115:Drivers/CMSIS/DSP/Source/MatrixFunctions/arm_mat_mult_q31.c **** 
 361              		.loc 1 115 12 is_stmt 0 view .LVU129
 362 0156 DBF804C0 		ldr	ip, [fp, #4]
 363              	.LVL60:
 117:Drivers/CMSIS/DSP/Source/MatrixFunctions/arm_mat_mult_q31.c **** 
 364              		.loc 1 117 7 is_stmt 1 view .LVU130
 117:Drivers/CMSIS/DSP/Source/MatrixFunctions/arm_mat_mult_q31.c **** 
 365              		.loc 1 117 9 is_stmt 0 view .LVU131
 366 015a 4FF00008 		mov	r8, #0
 367 015e 0595     		str	r5, [sp, #20]
 368 0160 0491     		str	r1, [sp, #16]
 369 0162 CDF800A0 		str	r10, [sp]
 370 0166 0690     		str	r0, [sp, #24]
 371 0168 0794     		str	r4, [sp, #28]
 372 016a DDE7     		b	.L6
 373              	.LVL61:
 374              	.L11:
 272:Drivers/CMSIS/DSP/Source/MatrixFunctions/arm_mat_mult_q31.c **** 
 273:Drivers/CMSIS/DSP/Source/MatrixFunctions/arm_mat_mult_q31.c ****     /* set status as ARM_MATH_SUCCESS */
 274:Drivers/CMSIS/DSP/Source/MatrixFunctions/arm_mat_mult_q31.c ****     status = ARM_MATH_SUCCESS;
 375              		.loc 1 274 5 is_stmt 1 view .LVU132
 275:Drivers/CMSIS/DSP/Source/MatrixFunctions/arm_mat_mult_q31.c ****   }
 276:Drivers/CMSIS/DSP/Source/MatrixFunctions/arm_mat_mult_q31.c ****   /* Return to application */
 277:Drivers/CMSIS/DSP/Source/MatrixFunctions/arm_mat_mult_q31.c ****   return (status);
 376              		.loc 1 277 3 view .LVU133
 278:Drivers/CMSIS/DSP/Source/MatrixFunctions/arm_mat_mult_q31.c **** }
 377              		.loc 1 278 1 is_stmt 0 view .LVU134
 378 016c 0020     		movs	r0, #0
 379              	.LVL62:
 380              		.loc 1 278 1 view .LVU135
 381 016e 09B0     		add	sp, sp, #36
 382              	.LCFI2:
 383              		.cfi_def_cfa_offset 36
 384              	.LVL63:
ARM GAS  /tmp/ccfDpIJE.s 			page 13


 385              		.loc 1 278 1 view .LVU136
 386              		@ sp needed
 387 0170 BDE8F08F 		pop	{r4, r5, r6, r7, r8, r9, r10, fp, pc}
 388              		.loc 1 278 1 view .LVU137
 389              		.cfi_endproc
 390              	.LFE135:
 392              		.text
 393              	.Letext0:
 394              		.file 2 "/usr/arm-none-eabi/include/machine/_default_types.h"
 395              		.file 3 "/usr/arm-none-eabi/include/sys/_stdint.h"
 396              		.file 4 "Drivers/CMSIS/DSP/Include/arm_math.h"
ARM GAS  /tmp/ccfDpIJE.s 			page 14

