ARM GAS  /tmp/ccNUMRzp.s 			page 1


   1              		.cpu cortex-m7
   2              		.arch armv7e-m
   3              		.fpu fpv5-sp-d16
   4              		.eabi_attribute 27, 1
   5              		.eabi_attribute 28, 1
   6              		.eabi_attribute 20, 1
   7              		.eabi_attribute 21, 1
   8              		.eabi_attribute 23, 3
   9              		.eabi_attribute 24, 1
  10              		.eabi_attribute 25, 1
  11              		.eabi_attribute 26, 1
  12              		.eabi_attribute 30, 1
  13              		.eabi_attribute 34, 1
  14              		.eabi_attribute 18, 4
  15              		.file	"lv_animimage.c"
  16              		.text
  17              	.Ltext0:
  18              		.cfi_sections	.debug_frame
  19              		.file 1 "Drivers/lvgl/src/widgets/animimage/lv_animimage.c"
  20              		.section	.text.lv_animimg_constructor,"ax",%progbits
  21              		.align	1
  22              		.syntax unified
  23              		.thumb
  24              		.thumb_func
  26              	lv_animimg_constructor:
  27              	.LVL0:
  28              	.LFB181:
   1:Drivers/lvgl/src/widgets/animimage/lv_animimage.c **** /**
   2:Drivers/lvgl/src/widgets/animimage/lv_animimage.c ****  * @file lv_animimg.c
   3:Drivers/lvgl/src/widgets/animimage/lv_animimage.c ****  *
   4:Drivers/lvgl/src/widgets/animimage/lv_animimage.c ****  */
   5:Drivers/lvgl/src/widgets/animimage/lv_animimage.c **** 
   6:Drivers/lvgl/src/widgets/animimage/lv_animimage.c **** /*********************
   7:Drivers/lvgl/src/widgets/animimage/lv_animimage.c ****  *      INCLUDES
   8:Drivers/lvgl/src/widgets/animimage/lv_animimage.c ****  *********************/
   9:Drivers/lvgl/src/widgets/animimage/lv_animimage.c **** #include "lv_animimage_private.h"
  10:Drivers/lvgl/src/widgets/animimage/lv_animimage.c **** #include "../../core/lv_obj_class_private.h"
  11:Drivers/lvgl/src/widgets/animimage/lv_animimage.c **** #if LV_USE_ANIMIMG != 0
  12:Drivers/lvgl/src/widgets/animimage/lv_animimage.c **** 
  13:Drivers/lvgl/src/widgets/animimage/lv_animimage.c **** /*Testing of dependencies*/
  14:Drivers/lvgl/src/widgets/animimage/lv_animimage.c **** #if LV_USE_IMAGE == 0
  15:Drivers/lvgl/src/widgets/animimage/lv_animimage.c ****     #error "lv_animimg: lv_img is required. Enable it in lv_conf.h (LV_USE_IMAGE  1) "
  16:Drivers/lvgl/src/widgets/animimage/lv_animimage.c **** #endif
  17:Drivers/lvgl/src/widgets/animimage/lv_animimage.c **** 
  18:Drivers/lvgl/src/widgets/animimage/lv_animimage.c **** #include "../../draw/lv_image_decoder.h"
  19:Drivers/lvgl/src/widgets/animimage/lv_animimage.c **** #include "../../misc/lv_assert.h"
  20:Drivers/lvgl/src/widgets/animimage/lv_animimage.c **** #include "../../misc/lv_fs.h"
  21:Drivers/lvgl/src/widgets/animimage/lv_animimage.c **** #include "../../misc/lv_text.h"
  22:Drivers/lvgl/src/widgets/animimage/lv_animimage.c **** #include "../../misc/lv_math.h"
  23:Drivers/lvgl/src/widgets/animimage/lv_animimage.c **** #include "../../misc/lv_log.h"
  24:Drivers/lvgl/src/widgets/animimage/lv_animimage.c **** #include "../../misc/lv_anim.h"
  25:Drivers/lvgl/src/widgets/animimage/lv_animimage.c **** 
  26:Drivers/lvgl/src/widgets/animimage/lv_animimage.c **** /*********************
  27:Drivers/lvgl/src/widgets/animimage/lv_animimage.c ****  *      DEFINES
  28:Drivers/lvgl/src/widgets/animimage/lv_animimage.c ****  *********************/
  29:Drivers/lvgl/src/widgets/animimage/lv_animimage.c **** #define LV_OBJX_NAME "lv_animimg"
  30:Drivers/lvgl/src/widgets/animimage/lv_animimage.c **** 
ARM GAS  /tmp/ccNUMRzp.s 			page 2


  31:Drivers/lvgl/src/widgets/animimage/lv_animimage.c **** #define MY_CLASS (&lv_animimg_class)
  32:Drivers/lvgl/src/widgets/animimage/lv_animimage.c **** 
  33:Drivers/lvgl/src/widgets/animimage/lv_animimage.c **** /**********************
  34:Drivers/lvgl/src/widgets/animimage/lv_animimage.c ****  *      TYPEDEFS
  35:Drivers/lvgl/src/widgets/animimage/lv_animimage.c ****  **********************/
  36:Drivers/lvgl/src/widgets/animimage/lv_animimage.c **** 
  37:Drivers/lvgl/src/widgets/animimage/lv_animimage.c **** /**********************
  38:Drivers/lvgl/src/widgets/animimage/lv_animimage.c ****  *  STATIC PROTOTYPES
  39:Drivers/lvgl/src/widgets/animimage/lv_animimage.c ****  **********************/
  40:Drivers/lvgl/src/widgets/animimage/lv_animimage.c **** static void index_change(lv_obj_t * obj, int32_t idx);
  41:Drivers/lvgl/src/widgets/animimage/lv_animimage.c **** static void lv_animimg_constructor(const lv_obj_class_t * class_p, lv_obj_t * obj);
  42:Drivers/lvgl/src/widgets/animimage/lv_animimage.c **** 
  43:Drivers/lvgl/src/widgets/animimage/lv_animimage.c **** /**********************
  44:Drivers/lvgl/src/widgets/animimage/lv_animimage.c ****  *  STATIC VARIABLES
  45:Drivers/lvgl/src/widgets/animimage/lv_animimage.c ****  **********************/
  46:Drivers/lvgl/src/widgets/animimage/lv_animimage.c **** 
  47:Drivers/lvgl/src/widgets/animimage/lv_animimage.c **** #if LV_USE_OBJ_PROPERTY
  48:Drivers/lvgl/src/widgets/animimage/lv_animimage.c **** static const lv_property_ops_t properties[] = {
  49:Drivers/lvgl/src/widgets/animimage/lv_animimage.c ****     {
  50:Drivers/lvgl/src/widgets/animimage/lv_animimage.c ****         .id = LV_PROPERTY_ANIMIMAGE_SRC,
  51:Drivers/lvgl/src/widgets/animimage/lv_animimage.c ****         .setter = lv_animimg_set_src,
  52:Drivers/lvgl/src/widgets/animimage/lv_animimage.c ****         .getter = lv_animimg_get_src,
  53:Drivers/lvgl/src/widgets/animimage/lv_animimage.c ****     },
  54:Drivers/lvgl/src/widgets/animimage/lv_animimage.c ****     {
  55:Drivers/lvgl/src/widgets/animimage/lv_animimage.c ****         .id = LV_PROPERTY_ANIMIMAGE_DURATION,
  56:Drivers/lvgl/src/widgets/animimage/lv_animimage.c ****         .setter = lv_animimg_set_duration,
  57:Drivers/lvgl/src/widgets/animimage/lv_animimage.c ****         .getter = lv_animimg_get_duration,
  58:Drivers/lvgl/src/widgets/animimage/lv_animimage.c ****     },
  59:Drivers/lvgl/src/widgets/animimage/lv_animimage.c ****     {
  60:Drivers/lvgl/src/widgets/animimage/lv_animimage.c ****         .id = LV_PROPERTY_ANIMIMAGE_REPEAT_COUNT,
  61:Drivers/lvgl/src/widgets/animimage/lv_animimage.c ****         .setter = lv_animimg_set_repeat_count,
  62:Drivers/lvgl/src/widgets/animimage/lv_animimage.c ****         .getter = lv_animimg_get_repeat_count,
  63:Drivers/lvgl/src/widgets/animimage/lv_animimage.c ****     },
  64:Drivers/lvgl/src/widgets/animimage/lv_animimage.c ****     {
  65:Drivers/lvgl/src/widgets/animimage/lv_animimage.c ****         .id = LV_PROPERTY_ANIMIMAGE_SRC_COUNT,
  66:Drivers/lvgl/src/widgets/animimage/lv_animimage.c ****         .setter = NULL,
  67:Drivers/lvgl/src/widgets/animimage/lv_animimage.c ****         .getter = lv_animimg_get_src_count,
  68:Drivers/lvgl/src/widgets/animimage/lv_animimage.c ****     },
  69:Drivers/lvgl/src/widgets/animimage/lv_animimage.c **** };
  70:Drivers/lvgl/src/widgets/animimage/lv_animimage.c **** #endif
  71:Drivers/lvgl/src/widgets/animimage/lv_animimage.c **** 
  72:Drivers/lvgl/src/widgets/animimage/lv_animimage.c **** const lv_obj_class_t lv_animimg_class = {
  73:Drivers/lvgl/src/widgets/animimage/lv_animimage.c ****     .constructor_cb = lv_animimg_constructor,
  74:Drivers/lvgl/src/widgets/animimage/lv_animimage.c ****     .instance_size = sizeof(lv_animimg_t),
  75:Drivers/lvgl/src/widgets/animimage/lv_animimage.c ****     .base_class = &lv_image_class,
  76:Drivers/lvgl/src/widgets/animimage/lv_animimage.c ****     .name = "lv_animimg",
  77:Drivers/lvgl/src/widgets/animimage/lv_animimage.c **** #if LV_USE_OBJ_PROPERTY
  78:Drivers/lvgl/src/widgets/animimage/lv_animimage.c ****     .prop_index_start = LV_PROPERTY_ANIMIMAGE_START,
  79:Drivers/lvgl/src/widgets/animimage/lv_animimage.c ****     .prop_index_end = LV_PROPERTY_ANIMIMAGE_END,
  80:Drivers/lvgl/src/widgets/animimage/lv_animimage.c ****     .properties = properties,
  81:Drivers/lvgl/src/widgets/animimage/lv_animimage.c ****     .properties_count = sizeof(properties) / sizeof(properties[0]),
  82:Drivers/lvgl/src/widgets/animimage/lv_animimage.c **** 
  83:Drivers/lvgl/src/widgets/animimage/lv_animimage.c **** #if LV_USE_OBJ_PROPERTY_NAME
  84:Drivers/lvgl/src/widgets/animimage/lv_animimage.c ****     .property_names = lv_animimage_property_names,
  85:Drivers/lvgl/src/widgets/animimage/lv_animimage.c ****     .names_count = sizeof(lv_animimage_property_names) / sizeof(lv_property_name_t),
  86:Drivers/lvgl/src/widgets/animimage/lv_animimage.c **** #endif
  87:Drivers/lvgl/src/widgets/animimage/lv_animimage.c **** #endif
ARM GAS  /tmp/ccNUMRzp.s 			page 3


  88:Drivers/lvgl/src/widgets/animimage/lv_animimage.c **** };
  89:Drivers/lvgl/src/widgets/animimage/lv_animimage.c **** 
  90:Drivers/lvgl/src/widgets/animimage/lv_animimage.c **** /**********************
  91:Drivers/lvgl/src/widgets/animimage/lv_animimage.c ****  *      MACROS
  92:Drivers/lvgl/src/widgets/animimage/lv_animimage.c ****  **********************/
  93:Drivers/lvgl/src/widgets/animimage/lv_animimage.c **** 
  94:Drivers/lvgl/src/widgets/animimage/lv_animimage.c **** /**********************
  95:Drivers/lvgl/src/widgets/animimage/lv_animimage.c ****  *   GLOBAL FUNCTIONS
  96:Drivers/lvgl/src/widgets/animimage/lv_animimage.c ****  **********************/
  97:Drivers/lvgl/src/widgets/animimage/lv_animimage.c **** 
  98:Drivers/lvgl/src/widgets/animimage/lv_animimage.c **** lv_obj_t * lv_animimg_create(lv_obj_t * parent)
  99:Drivers/lvgl/src/widgets/animimage/lv_animimage.c **** {
 100:Drivers/lvgl/src/widgets/animimage/lv_animimage.c ****     LV_LOG_INFO("begin");
 101:Drivers/lvgl/src/widgets/animimage/lv_animimage.c ****     lv_obj_t * obj = lv_obj_class_create_obj(&lv_animimg_class, parent);
 102:Drivers/lvgl/src/widgets/animimage/lv_animimage.c ****     lv_obj_class_init_obj(obj);
 103:Drivers/lvgl/src/widgets/animimage/lv_animimage.c ****     return obj;
 104:Drivers/lvgl/src/widgets/animimage/lv_animimage.c **** }
 105:Drivers/lvgl/src/widgets/animimage/lv_animimage.c **** 
 106:Drivers/lvgl/src/widgets/animimage/lv_animimage.c **** void lv_animimg_set_src(lv_obj_t * obj, const void * dsc[], size_t num)
 107:Drivers/lvgl/src/widgets/animimage/lv_animimage.c **** {
 108:Drivers/lvgl/src/widgets/animimage/lv_animimage.c ****     LV_ASSERT_OBJ(obj, MY_CLASS);
 109:Drivers/lvgl/src/widgets/animimage/lv_animimage.c ****     lv_animimg_t * animimg = (lv_animimg_t *)obj;
 110:Drivers/lvgl/src/widgets/animimage/lv_animimage.c ****     animimg->dsc = dsc;
 111:Drivers/lvgl/src/widgets/animimage/lv_animimage.c ****     animimg->pic_count = num;
 112:Drivers/lvgl/src/widgets/animimage/lv_animimage.c ****     lv_anim_set_values(&animimg->anim, 0, (int32_t)num);
 113:Drivers/lvgl/src/widgets/animimage/lv_animimage.c **** }
 114:Drivers/lvgl/src/widgets/animimage/lv_animimage.c **** 
 115:Drivers/lvgl/src/widgets/animimage/lv_animimage.c **** void lv_animimg_start(lv_obj_t * obj)
 116:Drivers/lvgl/src/widgets/animimage/lv_animimage.c **** {
 117:Drivers/lvgl/src/widgets/animimage/lv_animimage.c ****     LV_ASSERT_OBJ(obj, MY_CLASS);
 118:Drivers/lvgl/src/widgets/animimage/lv_animimage.c ****     lv_animimg_t * animimg = (lv_animimg_t *)obj;
 119:Drivers/lvgl/src/widgets/animimage/lv_animimage.c ****     lv_anim_start(&animimg->anim);
 120:Drivers/lvgl/src/widgets/animimage/lv_animimage.c **** }
 121:Drivers/lvgl/src/widgets/animimage/lv_animimage.c **** 
 122:Drivers/lvgl/src/widgets/animimage/lv_animimage.c **** /*=====================
 123:Drivers/lvgl/src/widgets/animimage/lv_animimage.c ****  * Setter functions
 124:Drivers/lvgl/src/widgets/animimage/lv_animimage.c ****  *====================*/
 125:Drivers/lvgl/src/widgets/animimage/lv_animimage.c **** 
 126:Drivers/lvgl/src/widgets/animimage/lv_animimage.c **** void lv_animimg_set_duration(lv_obj_t * obj, uint32_t duration)
 127:Drivers/lvgl/src/widgets/animimage/lv_animimage.c **** {
 128:Drivers/lvgl/src/widgets/animimage/lv_animimage.c ****     LV_ASSERT_OBJ(obj, MY_CLASS);
 129:Drivers/lvgl/src/widgets/animimage/lv_animimage.c ****     lv_animimg_t * animimg = (lv_animimg_t *)obj;
 130:Drivers/lvgl/src/widgets/animimage/lv_animimage.c ****     lv_anim_set_duration(&animimg->anim, duration);
 131:Drivers/lvgl/src/widgets/animimage/lv_animimage.c ****     lv_anim_set_reverse_delay(&animimg->anim, duration);
 132:Drivers/lvgl/src/widgets/animimage/lv_animimage.c **** }
 133:Drivers/lvgl/src/widgets/animimage/lv_animimage.c **** 
 134:Drivers/lvgl/src/widgets/animimage/lv_animimage.c **** void lv_animimg_set_repeat_count(lv_obj_t * obj, uint32_t count)
 135:Drivers/lvgl/src/widgets/animimage/lv_animimage.c **** {
 136:Drivers/lvgl/src/widgets/animimage/lv_animimage.c ****     LV_ASSERT_OBJ(obj, MY_CLASS);
 137:Drivers/lvgl/src/widgets/animimage/lv_animimage.c ****     lv_animimg_t * animimg = (lv_animimg_t *)obj;
 138:Drivers/lvgl/src/widgets/animimage/lv_animimage.c ****     lv_anim_set_repeat_count(&animimg->anim, count);
 139:Drivers/lvgl/src/widgets/animimage/lv_animimage.c **** }
 140:Drivers/lvgl/src/widgets/animimage/lv_animimage.c **** 
 141:Drivers/lvgl/src/widgets/animimage/lv_animimage.c **** /*=====================
 142:Drivers/lvgl/src/widgets/animimage/lv_animimage.c ****  * Getter functions
 143:Drivers/lvgl/src/widgets/animimage/lv_animimage.c ****  *====================*/
 144:Drivers/lvgl/src/widgets/animimage/lv_animimage.c **** 
ARM GAS  /tmp/ccNUMRzp.s 			page 4


 145:Drivers/lvgl/src/widgets/animimage/lv_animimage.c **** const void ** lv_animimg_get_src(lv_obj_t * obj)
 146:Drivers/lvgl/src/widgets/animimage/lv_animimage.c **** {
 147:Drivers/lvgl/src/widgets/animimage/lv_animimage.c ****     LV_ASSERT_OBJ(obj, MY_CLASS);
 148:Drivers/lvgl/src/widgets/animimage/lv_animimage.c ****     lv_animimg_t * animimg = (lv_animimg_t *)obj;
 149:Drivers/lvgl/src/widgets/animimage/lv_animimage.c ****     return animimg->dsc;
 150:Drivers/lvgl/src/widgets/animimage/lv_animimage.c **** }
 151:Drivers/lvgl/src/widgets/animimage/lv_animimage.c **** 
 152:Drivers/lvgl/src/widgets/animimage/lv_animimage.c **** uint8_t lv_animimg_get_src_count(lv_obj_t * obj)
 153:Drivers/lvgl/src/widgets/animimage/lv_animimage.c **** {
 154:Drivers/lvgl/src/widgets/animimage/lv_animimage.c ****     LV_ASSERT_OBJ(obj, MY_CLASS);
 155:Drivers/lvgl/src/widgets/animimage/lv_animimage.c ****     lv_animimg_t * animimg = (lv_animimg_t *)obj;
 156:Drivers/lvgl/src/widgets/animimage/lv_animimage.c ****     return animimg->pic_count;
 157:Drivers/lvgl/src/widgets/animimage/lv_animimage.c **** }
 158:Drivers/lvgl/src/widgets/animimage/lv_animimage.c **** 
 159:Drivers/lvgl/src/widgets/animimage/lv_animimage.c **** uint32_t lv_animimg_get_duration(lv_obj_t * obj)
 160:Drivers/lvgl/src/widgets/animimage/lv_animimage.c **** {
 161:Drivers/lvgl/src/widgets/animimage/lv_animimage.c ****     LV_ASSERT_OBJ(obj, MY_CLASS);
 162:Drivers/lvgl/src/widgets/animimage/lv_animimage.c ****     lv_animimg_t * animimg = (lv_animimg_t *)obj;
 163:Drivers/lvgl/src/widgets/animimage/lv_animimage.c ****     return lv_anim_get_time(&animimg->anim);
 164:Drivers/lvgl/src/widgets/animimage/lv_animimage.c **** }
 165:Drivers/lvgl/src/widgets/animimage/lv_animimage.c **** 
 166:Drivers/lvgl/src/widgets/animimage/lv_animimage.c **** uint32_t lv_animimg_get_repeat_count(lv_obj_t * obj)
 167:Drivers/lvgl/src/widgets/animimage/lv_animimage.c **** {
 168:Drivers/lvgl/src/widgets/animimage/lv_animimage.c ****     LV_ASSERT_OBJ(obj, MY_CLASS);
 169:Drivers/lvgl/src/widgets/animimage/lv_animimage.c ****     lv_animimg_t * animimg = (lv_animimg_t *)obj;
 170:Drivers/lvgl/src/widgets/animimage/lv_animimage.c ****     return lv_anim_get_repeat_count(&animimg->anim);
 171:Drivers/lvgl/src/widgets/animimage/lv_animimage.c **** }
 172:Drivers/lvgl/src/widgets/animimage/lv_animimage.c **** 
 173:Drivers/lvgl/src/widgets/animimage/lv_animimage.c **** lv_anim_t * lv_animimg_get_anim(lv_obj_t * obj)
 174:Drivers/lvgl/src/widgets/animimage/lv_animimage.c **** {
 175:Drivers/lvgl/src/widgets/animimage/lv_animimage.c ****     LV_ASSERT_OBJ(obj, MY_CLASS);
 176:Drivers/lvgl/src/widgets/animimage/lv_animimage.c ****     lv_animimg_t * animimg = (lv_animimg_t *)obj;
 177:Drivers/lvgl/src/widgets/animimage/lv_animimage.c ****     return &animimg->anim;
 178:Drivers/lvgl/src/widgets/animimage/lv_animimage.c **** }
 179:Drivers/lvgl/src/widgets/animimage/lv_animimage.c **** 
 180:Drivers/lvgl/src/widgets/animimage/lv_animimage.c **** /**********************
 181:Drivers/lvgl/src/widgets/animimage/lv_animimage.c ****  *   STATIC FUNCTIONS
 182:Drivers/lvgl/src/widgets/animimage/lv_animimage.c ****  **********************/
 183:Drivers/lvgl/src/widgets/animimage/lv_animimage.c **** 
 184:Drivers/lvgl/src/widgets/animimage/lv_animimage.c **** static void lv_animimg_constructor(const lv_obj_class_t * class_p, lv_obj_t * obj)
 185:Drivers/lvgl/src/widgets/animimage/lv_animimage.c **** {
  29              		.loc 1 185 1 view -0
  30              		.cfi_startproc
  31              		@ args = 0, pretend = 0, frame = 0
  32              		@ frame_needed = 0, uses_anonymous_args = 0
  33              		.loc 1 185 1 is_stmt 0 view .LVU1
  34 0000 70B5     		push	{r4, r5, r6, lr}
  35              	.LCFI0:
  36              		.cfi_def_cfa_offset 16
  37              		.cfi_offset 4, -16
  38              		.cfi_offset 5, -12
  39              		.cfi_offset 6, -8
  40              		.cfi_offset 14, -4
  41 0002 0D46     		mov	r5, r1
 186:Drivers/lvgl/src/widgets/animimage/lv_animimage.c ****     LV_TRACE_OBJ_CREATE("begin");
  42              		.loc 1 186 33 is_stmt 1 view .LVU2
 187:Drivers/lvgl/src/widgets/animimage/lv_animimage.c **** 
ARM GAS  /tmp/ccNUMRzp.s 			page 5


 188:Drivers/lvgl/src/widgets/animimage/lv_animimage.c ****     LV_UNUSED(class_p);
  43              		.loc 1 188 5 view .LVU3
 189:Drivers/lvgl/src/widgets/animimage/lv_animimage.c ****     lv_animimg_t * animimg = (lv_animimg_t *)obj;
  44              		.loc 1 189 5 view .LVU4
  45              	.LVL1:
 190:Drivers/lvgl/src/widgets/animimage/lv_animimage.c **** 
 191:Drivers/lvgl/src/widgets/animimage/lv_animimage.c ****     animimg->dsc = NULL;
  46              		.loc 1 191 5 view .LVU5
  47              		.loc 1 191 18 is_stmt 0 view .LVU6
  48 0004 0026     		movs	r6, #0
  49 0006 C1F8BC60 		str	r6, [r1, #188]
 192:Drivers/lvgl/src/widgets/animimage/lv_animimage.c ****     animimg->pic_count = -1;
  50              		.loc 1 192 5 is_stmt 1 view .LVU7
  51              		.loc 1 192 24 is_stmt 0 view .LVU8
  52 000a FF23     		movs	r3, #255
  53 000c 81F8C030 		strb	r3, [r1, #192]
 193:Drivers/lvgl/src/widgets/animimage/lv_animimage.c **** 
 194:Drivers/lvgl/src/widgets/animimage/lv_animimage.c ****     /*initial animation*/
 195:Drivers/lvgl/src/widgets/animimage/lv_animimage.c ****     lv_anim_init(&animimg->anim);
  54              		.loc 1 195 5 is_stmt 1 view .LVU9
  55 0010 01F15C04 		add	r4, r1, #92
  56 0014 2046     		mov	r0, r4
  57              	.LVL2:
  58              		.loc 1 195 5 is_stmt 0 view .LVU10
  59 0016 FFF7FEFF 		bl	lv_anim_init
  60              	.LVL3:
 196:Drivers/lvgl/src/widgets/animimage/lv_animimage.c ****     lv_anim_set_var(&animimg->anim, obj);
  61              		.loc 1 196 5 is_stmt 1 view .LVU11
  62 001a 2946     		mov	r1, r5
  63 001c 2046     		mov	r0, r4
  64 001e FFF7FEFF 		bl	lv_anim_set_var
  65              	.LVL4:
 197:Drivers/lvgl/src/widgets/animimage/lv_animimage.c ****     lv_anim_set_duration(&animimg->anim, 30);
  66              		.loc 1 197 5 view .LVU12
  67 0022 1E21     		movs	r1, #30
  68 0024 2046     		mov	r0, r4
  69 0026 FFF7FEFF 		bl	lv_anim_set_duration
  70              	.LVL5:
 198:Drivers/lvgl/src/widgets/animimage/lv_animimage.c ****     lv_anim_set_exec_cb(&animimg->anim, (lv_anim_exec_xcb_t)index_change);
  71              		.loc 1 198 5 view .LVU13
  72 002a 0749     		ldr	r1, .L3
  73 002c 2046     		mov	r0, r4
  74 002e FFF7FEFF 		bl	lv_anim_set_exec_cb
  75              	.LVL6:
 199:Drivers/lvgl/src/widgets/animimage/lv_animimage.c ****     lv_anim_set_values(&animimg->anim, 0, 1);
  76              		.loc 1 199 5 view .LVU14
  77 0032 0122     		movs	r2, #1
  78 0034 3146     		mov	r1, r6
  79 0036 2046     		mov	r0, r4
  80 0038 FFF7FEFF 		bl	lv_anim_set_values
  81              	.LVL7:
 200:Drivers/lvgl/src/widgets/animimage/lv_animimage.c ****     lv_anim_set_repeat_count(&animimg->anim, LV_ANIM_REPEAT_INFINITE);
  82              		.loc 1 200 5 view .LVU15
  83 003c 4FF0FF31 		mov	r1, #-1
  84 0040 2046     		mov	r0, r4
  85 0042 FFF7FEFF 		bl	lv_anim_set_repeat_count
  86              	.LVL8:
ARM GAS  /tmp/ccNUMRzp.s 			page 6


 201:Drivers/lvgl/src/widgets/animimage/lv_animimage.c **** }
  87              		.loc 1 201 1 is_stmt 0 view .LVU16
  88 0046 70BD     		pop	{r4, r5, r6, pc}
  89              	.LVL9:
  90              	.L4:
  91              		.loc 1 201 1 view .LVU17
  92              		.align	2
  93              	.L3:
  94 0048 00000000 		.word	index_change
  95              		.cfi_endproc
  96              	.LFE181:
  98              		.section	.text.index_change,"ax",%progbits
  99              		.align	1
 100              		.syntax unified
 101              		.thumb
 102              		.thumb_func
 104              	index_change:
 105              	.LVL10:
 106              	.LFB182:
 202:Drivers/lvgl/src/widgets/animimage/lv_animimage.c **** 
 203:Drivers/lvgl/src/widgets/animimage/lv_animimage.c **** static void index_change(lv_obj_t * obj, int32_t idx)
 204:Drivers/lvgl/src/widgets/animimage/lv_animimage.c **** {
 107              		.loc 1 204 1 is_stmt 1 view -0
 108              		.cfi_startproc
 109              		@ args = 0, pretend = 0, frame = 0
 110              		@ frame_needed = 0, uses_anonymous_args = 0
 111              		.loc 1 204 1 is_stmt 0 view .LVU19
 112 0000 08B5     		push	{r3, lr}
 113              	.LCFI1:
 114              		.cfi_def_cfa_offset 8
 115              		.cfi_offset 3, -8
 116              		.cfi_offset 14, -4
 205:Drivers/lvgl/src/widgets/animimage/lv_animimage.c ****     lv_animimg_t * animimg = (lv_animimg_t *)obj;
 117              		.loc 1 205 5 is_stmt 1 view .LVU20
 118              	.LVL11:
 206:Drivers/lvgl/src/widgets/animimage/lv_animimage.c **** 
 207:Drivers/lvgl/src/widgets/animimage/lv_animimage.c ****     if(animimg->dsc == NULL) {
 119              		.loc 1 207 5 view .LVU21
 120              		.loc 1 207 15 is_stmt 0 view .LVU22
 121 0002 D0F8BC30 		ldr	r3, [r0, #188]
 122              		.loc 1 207 7 view .LVU23
 123 0006 43B1     		cbz	r3, .L5
 208:Drivers/lvgl/src/widgets/animimage/lv_animimage.c ****         LV_LOG_WARN("dsc is null");
 209:Drivers/lvgl/src/widgets/animimage/lv_animimage.c ****         return;
 210:Drivers/lvgl/src/widgets/animimage/lv_animimage.c ****     }
 211:Drivers/lvgl/src/widgets/animimage/lv_animimage.c **** 
 212:Drivers/lvgl/src/widgets/animimage/lv_animimage.c ****     if(idx >= animimg->pic_count) idx =  animimg->pic_count - 1;
 124              		.loc 1 212 5 is_stmt 1 view .LVU24
 125              		.loc 1 212 22 is_stmt 0 view .LVU25
 126 0008 90F9C020 		ldrsb	r2, [r0, #192]
 127              		.loc 1 212 7 view .LVU26
 128 000c 8A42     		cmp	r2, r1
 129 000e 00DC     		bgt	.L7
 130              		.loc 1 212 35 is_stmt 1 discriminator 1 view .LVU27
 131              		.loc 1 212 39 is_stmt 0 discriminator 1 view .LVU28
 132 0010 511E     		subs	r1, r2, #1
 133              	.LVL12:
ARM GAS  /tmp/ccNUMRzp.s 			page 7


 134              	.L7:
 213:Drivers/lvgl/src/widgets/animimage/lv_animimage.c **** 
 214:Drivers/lvgl/src/widgets/animimage/lv_animimage.c ****     lv_image_set_src(obj, animimg->dsc[idx]);
 135              		.loc 1 214 5 is_stmt 1 view .LVU29
 136 0012 53F82110 		ldr	r1, [r3, r1, lsl #2]
 137              	.LVL13:
 138              		.loc 1 214 5 is_stmt 0 view .LVU30
 139 0016 FFF7FEFF 		bl	lv_image_set_src
 140              	.LVL14:
 141              	.L5:
 215:Drivers/lvgl/src/widgets/animimage/lv_animimage.c **** }
 142              		.loc 1 215 1 view .LVU31
 143 001a 08BD     		pop	{r3, pc}
 144              		.cfi_endproc
 145              	.LFE182:
 147              		.section	.text.lv_animimg_create,"ax",%progbits
 148              		.align	1
 149              		.global	lv_animimg_create
 150              		.syntax unified
 151              		.thumb
 152              		.thumb_func
 154              	lv_animimg_create:
 155              	.LVL15:
 156              	.LFB171:
  99:Drivers/lvgl/src/widgets/animimage/lv_animimage.c ****     LV_LOG_INFO("begin");
 157              		.loc 1 99 1 is_stmt 1 view -0
 158              		.cfi_startproc
 159              		@ args = 0, pretend = 0, frame = 0
 160              		@ frame_needed = 0, uses_anonymous_args = 0
  99:Drivers/lvgl/src/widgets/animimage/lv_animimage.c ****     LV_LOG_INFO("begin");
 161              		.loc 1 99 1 is_stmt 0 view .LVU33
 162 0000 10B5     		push	{r4, lr}
 163              	.LCFI2:
 164              		.cfi_def_cfa_offset 8
 165              		.cfi_offset 4, -8
 166              		.cfi_offset 14, -4
 167 0002 0146     		mov	r1, r0
 100:Drivers/lvgl/src/widgets/animimage/lv_animimage.c ****     lv_obj_t * obj = lv_obj_class_create_obj(&lv_animimg_class, parent);
 168              		.loc 1 100 5 is_stmt 1 view .LVU34
 100:Drivers/lvgl/src/widgets/animimage/lv_animimage.c ****     lv_obj_t * obj = lv_obj_class_create_obj(&lv_animimg_class, parent);
 169              		.loc 1 100 5 view .LVU35
 100:Drivers/lvgl/src/widgets/animimage/lv_animimage.c ****     lv_obj_t * obj = lv_obj_class_create_obj(&lv_animimg_class, parent);
 170              		.loc 1 100 5 view .LVU36
 101:Drivers/lvgl/src/widgets/animimage/lv_animimage.c ****     lv_obj_class_init_obj(obj);
 171              		.loc 1 101 5 view .LVU37
 101:Drivers/lvgl/src/widgets/animimage/lv_animimage.c ****     lv_obj_class_init_obj(obj);
 172              		.loc 1 101 22 is_stmt 0 view .LVU38
 173 0004 0348     		ldr	r0, .L11
 174              	.LVL16:
 101:Drivers/lvgl/src/widgets/animimage/lv_animimage.c ****     lv_obj_class_init_obj(obj);
 175              		.loc 1 101 22 view .LVU39
 176 0006 FFF7FEFF 		bl	lv_obj_class_create_obj
 177              	.LVL17:
 101:Drivers/lvgl/src/widgets/animimage/lv_animimage.c ****     lv_obj_class_init_obj(obj);
 178              		.loc 1 101 22 view .LVU40
 179 000a 0446     		mov	r4, r0
 180              	.LVL18:
ARM GAS  /tmp/ccNUMRzp.s 			page 8


 102:Drivers/lvgl/src/widgets/animimage/lv_animimage.c ****     return obj;
 181              		.loc 1 102 5 is_stmt 1 view .LVU41
 182 000c FFF7FEFF 		bl	lv_obj_class_init_obj
 183              	.LVL19:
 103:Drivers/lvgl/src/widgets/animimage/lv_animimage.c **** }
 184              		.loc 1 103 5 view .LVU42
 104:Drivers/lvgl/src/widgets/animimage/lv_animimage.c **** 
 185              		.loc 1 104 1 is_stmt 0 view .LVU43
 186 0010 2046     		mov	r0, r4
 187 0012 10BD     		pop	{r4, pc}
 188              	.LVL20:
 189              	.L12:
 104:Drivers/lvgl/src/widgets/animimage/lv_animimage.c **** 
 190              		.loc 1 104 1 view .LVU44
 191              		.align	2
 192              	.L11:
 193 0014 00000000 		.word	lv_animimg_class
 194              		.cfi_endproc
 195              	.LFE171:
 197              		.section	.text.lv_animimg_set_src,"ax",%progbits
 198              		.align	1
 199              		.global	lv_animimg_set_src
 200              		.syntax unified
 201              		.thumb
 202              		.thumb_func
 204              	lv_animimg_set_src:
 205              	.LVL21:
 206              	.LFB172:
 107:Drivers/lvgl/src/widgets/animimage/lv_animimage.c ****     LV_ASSERT_OBJ(obj, MY_CLASS);
 207              		.loc 1 107 1 is_stmt 1 view -0
 208              		.cfi_startproc
 209              		@ args = 0, pretend = 0, frame = 0
 210              		@ frame_needed = 0, uses_anonymous_args = 0
 108:Drivers/lvgl/src/widgets/animimage/lv_animimage.c ****     lv_animimg_t * animimg = (lv_animimg_t *)obj;
 211              		.loc 1 108 5 view .LVU46
 108:Drivers/lvgl/src/widgets/animimage/lv_animimage.c ****     lv_animimg_t * animimg = (lv_animimg_t *)obj;
 212              		.loc 1 108 5 view .LVU47
 213 0000 48B1     		cbz	r0, .L15
 107:Drivers/lvgl/src/widgets/animimage/lv_animimage.c ****     LV_ASSERT_OBJ(obj, MY_CLASS);
 214              		.loc 1 107 1 is_stmt 0 view .LVU48
 215 0002 08B5     		push	{r3, lr}
 216              	.LCFI3:
 217              		.cfi_def_cfa_offset 8
 218              		.cfi_offset 3, -8
 219              		.cfi_offset 14, -4
 108:Drivers/lvgl/src/widgets/animimage/lv_animimage.c ****     lv_animimg_t * animimg = (lv_animimg_t *)obj;
 220              		.loc 1 108 5 is_stmt 1 discriminator 2 view .LVU49
 108:Drivers/lvgl/src/widgets/animimage/lv_animimage.c ****     lv_animimg_t * animimg = (lv_animimg_t *)obj;
 221              		.loc 1 108 33 discriminator 2 view .LVU50
 109:Drivers/lvgl/src/widgets/animimage/lv_animimage.c ****     animimg->dsc = dsc;
 222              		.loc 1 109 5 view .LVU51
 223              	.LVL22:
 110:Drivers/lvgl/src/widgets/animimage/lv_animimage.c ****     animimg->pic_count = num;
 224              		.loc 1 110 5 view .LVU52
 110:Drivers/lvgl/src/widgets/animimage/lv_animimage.c ****     animimg->pic_count = num;
 225              		.loc 1 110 18 is_stmt 0 view .LVU53
 226 0004 C0F8BC10 		str	r1, [r0, #188]
ARM GAS  /tmp/ccNUMRzp.s 			page 9


 111:Drivers/lvgl/src/widgets/animimage/lv_animimage.c ****     lv_anim_set_values(&animimg->anim, 0, (int32_t)num);
 227              		.loc 1 111 5 is_stmt 1 view .LVU54
 111:Drivers/lvgl/src/widgets/animimage/lv_animimage.c ****     lv_anim_set_values(&animimg->anim, 0, (int32_t)num);
 228              		.loc 1 111 24 is_stmt 0 view .LVU55
 229 0008 80F8C020 		strb	r2, [r0, #192]
 112:Drivers/lvgl/src/widgets/animimage/lv_animimage.c **** }
 230              		.loc 1 112 5 is_stmt 1 view .LVU56
 231 000c 0021     		movs	r1, #0
 232              	.LVL23:
 112:Drivers/lvgl/src/widgets/animimage/lv_animimage.c **** }
 233              		.loc 1 112 5 is_stmt 0 view .LVU57
 234 000e 5C30     		adds	r0, r0, #92
 235              	.LVL24:
 112:Drivers/lvgl/src/widgets/animimage/lv_animimage.c **** }
 236              		.loc 1 112 5 view .LVU58
 237 0010 FFF7FEFF 		bl	lv_anim_set_values
 238              	.LVL25:
 113:Drivers/lvgl/src/widgets/animimage/lv_animimage.c **** 
 239              		.loc 1 113 1 view .LVU59
 240 0014 08BD     		pop	{r3, pc}
 241              	.LVL26:
 242              	.L15:
 243              	.LCFI4:
 244              		.cfi_def_cfa_offset 0
 245              		.cfi_restore 3
 246              		.cfi_restore 14
 108:Drivers/lvgl/src/widgets/animimage/lv_animimage.c ****     lv_animimg_t * animimg = (lv_animimg_t *)obj;
 247              		.loc 1 108 5 is_stmt 1 discriminator 1 view .LVU60
 108:Drivers/lvgl/src/widgets/animimage/lv_animimage.c ****     lv_animimg_t * animimg = (lv_animimg_t *)obj;
 248              		.loc 1 108 5 discriminator 1 view .LVU61
 108:Drivers/lvgl/src/widgets/animimage/lv_animimage.c ****     lv_animimg_t * animimg = (lv_animimg_t *)obj;
 249              		.loc 1 108 5 discriminator 1 view .LVU62
 108:Drivers/lvgl/src/widgets/animimage/lv_animimage.c ****     lv_animimg_t * animimg = (lv_animimg_t *)obj;
 250              		.loc 1 108 5 discriminator 1 view .LVU63
 108:Drivers/lvgl/src/widgets/animimage/lv_animimage.c ****     lv_animimg_t * animimg = (lv_animimg_t *)obj;
 251              		.loc 1 108 5 discriminator 1 view .LVU64
 252 0016 FEE7     		b	.L15
 253              		.cfi_endproc
 254              	.LFE172:
 256              		.section	.text.lv_animimg_start,"ax",%progbits
 257              		.align	1
 258              		.global	lv_animimg_start
 259              		.syntax unified
 260              		.thumb
 261              		.thumb_func
 263              	lv_animimg_start:
 264              	.LVL27:
 265              	.LFB173:
 116:Drivers/lvgl/src/widgets/animimage/lv_animimage.c ****     LV_ASSERT_OBJ(obj, MY_CLASS);
 266              		.loc 1 116 1 view -0
 267              		.cfi_startproc
 268              		@ args = 0, pretend = 0, frame = 0
 269              		@ frame_needed = 0, uses_anonymous_args = 0
 117:Drivers/lvgl/src/widgets/animimage/lv_animimage.c ****     lv_animimg_t * animimg = (lv_animimg_t *)obj;
 270              		.loc 1 117 5 view .LVU66
 117:Drivers/lvgl/src/widgets/animimage/lv_animimage.c ****     lv_animimg_t * animimg = (lv_animimg_t *)obj;
 271              		.loc 1 117 5 view .LVU67
ARM GAS  /tmp/ccNUMRzp.s 			page 10


 272 0000 20B1     		cbz	r0, .L20
 116:Drivers/lvgl/src/widgets/animimage/lv_animimage.c ****     LV_ASSERT_OBJ(obj, MY_CLASS);
 273              		.loc 1 116 1 is_stmt 0 view .LVU68
 274 0002 08B5     		push	{r3, lr}
 275              	.LCFI5:
 276              		.cfi_def_cfa_offset 8
 277              		.cfi_offset 3, -8
 278              		.cfi_offset 14, -4
 117:Drivers/lvgl/src/widgets/animimage/lv_animimage.c ****     lv_animimg_t * animimg = (lv_animimg_t *)obj;
 279              		.loc 1 117 5 is_stmt 1 discriminator 2 view .LVU69
 117:Drivers/lvgl/src/widgets/animimage/lv_animimage.c ****     lv_animimg_t * animimg = (lv_animimg_t *)obj;
 280              		.loc 1 117 33 discriminator 2 view .LVU70
 118:Drivers/lvgl/src/widgets/animimage/lv_animimage.c ****     lv_anim_start(&animimg->anim);
 281              		.loc 1 118 5 view .LVU71
 282              	.LVL28:
 119:Drivers/lvgl/src/widgets/animimage/lv_animimage.c **** }
 283              		.loc 1 119 5 view .LVU72
 284 0004 5C30     		adds	r0, r0, #92
 285              	.LVL29:
 119:Drivers/lvgl/src/widgets/animimage/lv_animimage.c **** }
 286              		.loc 1 119 5 is_stmt 0 view .LVU73
 287 0006 FFF7FEFF 		bl	lv_anim_start
 288              	.LVL30:
 120:Drivers/lvgl/src/widgets/animimage/lv_animimage.c **** 
 289              		.loc 1 120 1 view .LVU74
 290 000a 08BD     		pop	{r3, pc}
 291              	.LVL31:
 292              	.L20:
 293              	.LCFI6:
 294              		.cfi_def_cfa_offset 0
 295              		.cfi_restore 3
 296              		.cfi_restore 14
 117:Drivers/lvgl/src/widgets/animimage/lv_animimage.c ****     lv_animimg_t * animimg = (lv_animimg_t *)obj;
 297              		.loc 1 117 5 is_stmt 1 discriminator 1 view .LVU75
 117:Drivers/lvgl/src/widgets/animimage/lv_animimage.c ****     lv_animimg_t * animimg = (lv_animimg_t *)obj;
 298              		.loc 1 117 5 discriminator 1 view .LVU76
 117:Drivers/lvgl/src/widgets/animimage/lv_animimage.c ****     lv_animimg_t * animimg = (lv_animimg_t *)obj;
 299              		.loc 1 117 5 discriminator 1 view .LVU77
 117:Drivers/lvgl/src/widgets/animimage/lv_animimage.c ****     lv_animimg_t * animimg = (lv_animimg_t *)obj;
 300              		.loc 1 117 5 discriminator 1 view .LVU78
 117:Drivers/lvgl/src/widgets/animimage/lv_animimage.c ****     lv_animimg_t * animimg = (lv_animimg_t *)obj;
 301              		.loc 1 117 5 discriminator 1 view .LVU79
 302 000c FEE7     		b	.L20
 303              		.cfi_endproc
 304              	.LFE173:
 306              		.section	.text.lv_animimg_set_duration,"ax",%progbits
 307              		.align	1
 308              		.global	lv_animimg_set_duration
 309              		.syntax unified
 310              		.thumb
 311              		.thumb_func
 313              	lv_animimg_set_duration:
 314              	.LVL32:
 315              	.LFB174:
 127:Drivers/lvgl/src/widgets/animimage/lv_animimage.c ****     LV_ASSERT_OBJ(obj, MY_CLASS);
 316              		.loc 1 127 1 view -0
 317              		.cfi_startproc
ARM GAS  /tmp/ccNUMRzp.s 			page 11


 318              		@ args = 0, pretend = 0, frame = 0
 319              		@ frame_needed = 0, uses_anonymous_args = 0
 128:Drivers/lvgl/src/widgets/animimage/lv_animimage.c ****     lv_animimg_t * animimg = (lv_animimg_t *)obj;
 320              		.loc 1 128 5 view .LVU81
 128:Drivers/lvgl/src/widgets/animimage/lv_animimage.c ****     lv_animimg_t * animimg = (lv_animimg_t *)obj;
 321              		.loc 1 128 5 view .LVU82
 322 0000 58B1     		cbz	r0, .L25
 127:Drivers/lvgl/src/widgets/animimage/lv_animimage.c ****     LV_ASSERT_OBJ(obj, MY_CLASS);
 323              		.loc 1 127 1 is_stmt 0 view .LVU83
 324 0002 38B5     		push	{r3, r4, r5, lr}
 325              	.LCFI7:
 326              		.cfi_def_cfa_offset 16
 327              		.cfi_offset 3, -16
 328              		.cfi_offset 4, -12
 329              		.cfi_offset 5, -8
 330              		.cfi_offset 14, -4
 331 0004 0C46     		mov	r4, r1
 332 0006 0546     		mov	r5, r0
 128:Drivers/lvgl/src/widgets/animimage/lv_animimage.c ****     lv_animimg_t * animimg = (lv_animimg_t *)obj;
 333              		.loc 1 128 5 is_stmt 1 discriminator 2 view .LVU84
 128:Drivers/lvgl/src/widgets/animimage/lv_animimage.c ****     lv_animimg_t * animimg = (lv_animimg_t *)obj;
 334              		.loc 1 128 33 discriminator 2 view .LVU85
 129:Drivers/lvgl/src/widgets/animimage/lv_animimage.c ****     lv_anim_set_duration(&animimg->anim, duration);
 335              		.loc 1 129 5 view .LVU86
 336              	.LVL33:
 130:Drivers/lvgl/src/widgets/animimage/lv_animimage.c ****     lv_anim_set_reverse_delay(&animimg->anim, duration);
 337              		.loc 1 130 5 view .LVU87
 338 0008 5C35     		adds	r5, r5, #92
 339 000a 2846     		mov	r0, r5
 340              	.LVL34:
 130:Drivers/lvgl/src/widgets/animimage/lv_animimage.c ****     lv_anim_set_reverse_delay(&animimg->anim, duration);
 341              		.loc 1 130 5 is_stmt 0 view .LVU88
 342 000c FFF7FEFF 		bl	lv_anim_set_duration
 343              	.LVL35:
 131:Drivers/lvgl/src/widgets/animimage/lv_animimage.c **** }
 344              		.loc 1 131 5 is_stmt 1 view .LVU89
 345 0010 2146     		mov	r1, r4
 346 0012 2846     		mov	r0, r5
 347 0014 FFF7FEFF 		bl	lv_anim_set_reverse_delay
 348              	.LVL36:
 132:Drivers/lvgl/src/widgets/animimage/lv_animimage.c **** 
 349              		.loc 1 132 1 is_stmt 0 view .LVU90
 350 0018 38BD     		pop	{r3, r4, r5, pc}
 351              	.LVL37:
 352              	.L25:
 353              	.LCFI8:
 354              		.cfi_def_cfa_offset 0
 355              		.cfi_restore 3
 356              		.cfi_restore 4
 357              		.cfi_restore 5
 358              		.cfi_restore 14
 128:Drivers/lvgl/src/widgets/animimage/lv_animimage.c ****     lv_animimg_t * animimg = (lv_animimg_t *)obj;
 359              		.loc 1 128 5 is_stmt 1 discriminator 1 view .LVU91
 128:Drivers/lvgl/src/widgets/animimage/lv_animimage.c ****     lv_animimg_t * animimg = (lv_animimg_t *)obj;
 360              		.loc 1 128 5 discriminator 1 view .LVU92
 128:Drivers/lvgl/src/widgets/animimage/lv_animimage.c ****     lv_animimg_t * animimg = (lv_animimg_t *)obj;
 361              		.loc 1 128 5 discriminator 1 view .LVU93
ARM GAS  /tmp/ccNUMRzp.s 			page 12


 128:Drivers/lvgl/src/widgets/animimage/lv_animimage.c ****     lv_animimg_t * animimg = (lv_animimg_t *)obj;
 362              		.loc 1 128 5 discriminator 1 view .LVU94
 128:Drivers/lvgl/src/widgets/animimage/lv_animimage.c ****     lv_animimg_t * animimg = (lv_animimg_t *)obj;
 363              		.loc 1 128 5 discriminator 1 view .LVU95
 364 001a FEE7     		b	.L25
 365              		.cfi_endproc
 366              	.LFE174:
 368              		.section	.text.lv_animimg_set_repeat_count,"ax",%progbits
 369              		.align	1
 370              		.global	lv_animimg_set_repeat_count
 371              		.syntax unified
 372              		.thumb
 373              		.thumb_func
 375              	lv_animimg_set_repeat_count:
 376              	.LVL38:
 377              	.LFB175:
 135:Drivers/lvgl/src/widgets/animimage/lv_animimage.c ****     LV_ASSERT_OBJ(obj, MY_CLASS);
 378              		.loc 1 135 1 view -0
 379              		.cfi_startproc
 380              		@ args = 0, pretend = 0, frame = 0
 381              		@ frame_needed = 0, uses_anonymous_args = 0
 136:Drivers/lvgl/src/widgets/animimage/lv_animimage.c ****     lv_animimg_t * animimg = (lv_animimg_t *)obj;
 382              		.loc 1 136 5 view .LVU97
 136:Drivers/lvgl/src/widgets/animimage/lv_animimage.c ****     lv_animimg_t * animimg = (lv_animimg_t *)obj;
 383              		.loc 1 136 5 view .LVU98
 384 0000 20B1     		cbz	r0, .L30
 135:Drivers/lvgl/src/widgets/animimage/lv_animimage.c ****     LV_ASSERT_OBJ(obj, MY_CLASS);
 385              		.loc 1 135 1 is_stmt 0 view .LVU99
 386 0002 08B5     		push	{r3, lr}
 387              	.LCFI9:
 388              		.cfi_def_cfa_offset 8
 389              		.cfi_offset 3, -8
 390              		.cfi_offset 14, -4
 136:Drivers/lvgl/src/widgets/animimage/lv_animimage.c ****     lv_animimg_t * animimg = (lv_animimg_t *)obj;
 391              		.loc 1 136 5 is_stmt 1 discriminator 2 view .LVU100
 136:Drivers/lvgl/src/widgets/animimage/lv_animimage.c ****     lv_animimg_t * animimg = (lv_animimg_t *)obj;
 392              		.loc 1 136 33 discriminator 2 view .LVU101
 137:Drivers/lvgl/src/widgets/animimage/lv_animimage.c ****     lv_anim_set_repeat_count(&animimg->anim, count);
 393              		.loc 1 137 5 view .LVU102
 394              	.LVL39:
 138:Drivers/lvgl/src/widgets/animimage/lv_animimage.c **** }
 395              		.loc 1 138 5 view .LVU103
 396 0004 5C30     		adds	r0, r0, #92
 397              	.LVL40:
 138:Drivers/lvgl/src/widgets/animimage/lv_animimage.c **** }
 398              		.loc 1 138 5 is_stmt 0 view .LVU104
 399 0006 FFF7FEFF 		bl	lv_anim_set_repeat_count
 400              	.LVL41:
 139:Drivers/lvgl/src/widgets/animimage/lv_animimage.c **** 
 401              		.loc 1 139 1 view .LVU105
 402 000a 08BD     		pop	{r3, pc}
 403              	.LVL42:
 404              	.L30:
 405              	.LCFI10:
 406              		.cfi_def_cfa_offset 0
 407              		.cfi_restore 3
 408              		.cfi_restore 14
ARM GAS  /tmp/ccNUMRzp.s 			page 13


 136:Drivers/lvgl/src/widgets/animimage/lv_animimage.c ****     lv_animimg_t * animimg = (lv_animimg_t *)obj;
 409              		.loc 1 136 5 is_stmt 1 discriminator 1 view .LVU106
 136:Drivers/lvgl/src/widgets/animimage/lv_animimage.c ****     lv_animimg_t * animimg = (lv_animimg_t *)obj;
 410              		.loc 1 136 5 discriminator 1 view .LVU107
 136:Drivers/lvgl/src/widgets/animimage/lv_animimage.c ****     lv_animimg_t * animimg = (lv_animimg_t *)obj;
 411              		.loc 1 136 5 discriminator 1 view .LVU108
 136:Drivers/lvgl/src/widgets/animimage/lv_animimage.c ****     lv_animimg_t * animimg = (lv_animimg_t *)obj;
 412              		.loc 1 136 5 discriminator 1 view .LVU109
 136:Drivers/lvgl/src/widgets/animimage/lv_animimage.c ****     lv_animimg_t * animimg = (lv_animimg_t *)obj;
 413              		.loc 1 136 5 discriminator 1 view .LVU110
 414 000c FEE7     		b	.L30
 415              		.cfi_endproc
 416              	.LFE175:
 418              		.section	.text.lv_animimg_get_src,"ax",%progbits
 419              		.align	1
 420              		.global	lv_animimg_get_src
 421              		.syntax unified
 422              		.thumb
 423              		.thumb_func
 425              	lv_animimg_get_src:
 426              	.LVL43:
 427              	.LFB176:
 146:Drivers/lvgl/src/widgets/animimage/lv_animimage.c ****     LV_ASSERT_OBJ(obj, MY_CLASS);
 428              		.loc 1 146 1 view -0
 429              		.cfi_startproc
 430              		@ args = 0, pretend = 0, frame = 0
 431              		@ frame_needed = 0, uses_anonymous_args = 0
 432              		@ link register save eliminated.
 147:Drivers/lvgl/src/widgets/animimage/lv_animimage.c ****     lv_animimg_t * animimg = (lv_animimg_t *)obj;
 433              		.loc 1 147 5 view .LVU112
 147:Drivers/lvgl/src/widgets/animimage/lv_animimage.c ****     lv_animimg_t * animimg = (lv_animimg_t *)obj;
 434              		.loc 1 147 5 view .LVU113
 435 0000 10B1     		cbz	r0, .L35
 147:Drivers/lvgl/src/widgets/animimage/lv_animimage.c ****     lv_animimg_t * animimg = (lv_animimg_t *)obj;
 436              		.loc 1 147 5 discriminator 2 view .LVU114
 147:Drivers/lvgl/src/widgets/animimage/lv_animimage.c ****     lv_animimg_t * animimg = (lv_animimg_t *)obj;
 437              		.loc 1 147 33 discriminator 2 view .LVU115
 148:Drivers/lvgl/src/widgets/animimage/lv_animimage.c ****     return animimg->dsc;
 438              		.loc 1 148 5 view .LVU116
 439              	.LVL44:
 149:Drivers/lvgl/src/widgets/animimage/lv_animimage.c **** }
 440              		.loc 1 149 5 view .LVU117
 150:Drivers/lvgl/src/widgets/animimage/lv_animimage.c **** 
 441              		.loc 1 150 1 is_stmt 0 view .LVU118
 442 0002 D0F8BC00 		ldr	r0, [r0, #188]
 443              	.LVL45:
 150:Drivers/lvgl/src/widgets/animimage/lv_animimage.c **** 
 444              		.loc 1 150 1 view .LVU119
 445 0006 7047     		bx	lr
 446              	.LVL46:
 447              	.L35:
 147:Drivers/lvgl/src/widgets/animimage/lv_animimage.c ****     lv_animimg_t * animimg = (lv_animimg_t *)obj;
 448              		.loc 1 147 5 is_stmt 1 discriminator 1 view .LVU120
 147:Drivers/lvgl/src/widgets/animimage/lv_animimage.c ****     lv_animimg_t * animimg = (lv_animimg_t *)obj;
 449              		.loc 1 147 5 discriminator 1 view .LVU121
 147:Drivers/lvgl/src/widgets/animimage/lv_animimage.c ****     lv_animimg_t * animimg = (lv_animimg_t *)obj;
 450              		.loc 1 147 5 discriminator 1 view .LVU122
ARM GAS  /tmp/ccNUMRzp.s 			page 14


 147:Drivers/lvgl/src/widgets/animimage/lv_animimage.c ****     lv_animimg_t * animimg = (lv_animimg_t *)obj;
 451              		.loc 1 147 5 discriminator 1 view .LVU123
 147:Drivers/lvgl/src/widgets/animimage/lv_animimage.c ****     lv_animimg_t * animimg = (lv_animimg_t *)obj;
 452              		.loc 1 147 5 discriminator 1 view .LVU124
 453 0008 FEE7     		b	.L35
 454              		.cfi_endproc
 455              	.LFE176:
 457              		.section	.text.lv_animimg_get_src_count,"ax",%progbits
 458              		.align	1
 459              		.global	lv_animimg_get_src_count
 460              		.syntax unified
 461              		.thumb
 462              		.thumb_func
 464              	lv_animimg_get_src_count:
 465              	.LVL47:
 466              	.LFB177:
 153:Drivers/lvgl/src/widgets/animimage/lv_animimage.c ****     LV_ASSERT_OBJ(obj, MY_CLASS);
 467              		.loc 1 153 1 view -0
 468              		.cfi_startproc
 469              		@ args = 0, pretend = 0, frame = 0
 470              		@ frame_needed = 0, uses_anonymous_args = 0
 471              		@ link register save eliminated.
 154:Drivers/lvgl/src/widgets/animimage/lv_animimage.c ****     lv_animimg_t * animimg = (lv_animimg_t *)obj;
 472              		.loc 1 154 5 view .LVU126
 154:Drivers/lvgl/src/widgets/animimage/lv_animimage.c ****     lv_animimg_t * animimg = (lv_animimg_t *)obj;
 473              		.loc 1 154 5 view .LVU127
 474 0000 10B1     		cbz	r0, .L38
 154:Drivers/lvgl/src/widgets/animimage/lv_animimage.c ****     lv_animimg_t * animimg = (lv_animimg_t *)obj;
 475              		.loc 1 154 5 discriminator 2 view .LVU128
 154:Drivers/lvgl/src/widgets/animimage/lv_animimage.c ****     lv_animimg_t * animimg = (lv_animimg_t *)obj;
 476              		.loc 1 154 33 discriminator 2 view .LVU129
 155:Drivers/lvgl/src/widgets/animimage/lv_animimage.c ****     return animimg->pic_count;
 477              		.loc 1 155 5 view .LVU130
 478              	.LVL48:
 156:Drivers/lvgl/src/widgets/animimage/lv_animimage.c **** }
 479              		.loc 1 156 5 view .LVU131
 157:Drivers/lvgl/src/widgets/animimage/lv_animimage.c **** 
 480              		.loc 1 157 1 is_stmt 0 view .LVU132
 481 0002 90F8C000 		ldrb	r0, [r0, #192]	@ zero_extendqisi2
 482              	.LVL49:
 157:Drivers/lvgl/src/widgets/animimage/lv_animimage.c **** 
 483              		.loc 1 157 1 view .LVU133
 484 0006 7047     		bx	lr
 485              	.LVL50:
 486              	.L38:
 154:Drivers/lvgl/src/widgets/animimage/lv_animimage.c ****     lv_animimg_t * animimg = (lv_animimg_t *)obj;
 487              		.loc 1 154 5 is_stmt 1 discriminator 1 view .LVU134
 154:Drivers/lvgl/src/widgets/animimage/lv_animimage.c ****     lv_animimg_t * animimg = (lv_animimg_t *)obj;
 488              		.loc 1 154 5 discriminator 1 view .LVU135
 154:Drivers/lvgl/src/widgets/animimage/lv_animimage.c ****     lv_animimg_t * animimg = (lv_animimg_t *)obj;
 489              		.loc 1 154 5 discriminator 1 view .LVU136
 154:Drivers/lvgl/src/widgets/animimage/lv_animimage.c ****     lv_animimg_t * animimg = (lv_animimg_t *)obj;
 490              		.loc 1 154 5 discriminator 1 view .LVU137
 154:Drivers/lvgl/src/widgets/animimage/lv_animimage.c ****     lv_animimg_t * animimg = (lv_animimg_t *)obj;
 491              		.loc 1 154 5 discriminator 1 view .LVU138
 492 0008 FEE7     		b	.L38
 493              		.cfi_endproc
ARM GAS  /tmp/ccNUMRzp.s 			page 15


 494              	.LFE177:
 496              		.section	.text.lv_animimg_get_duration,"ax",%progbits
 497              		.align	1
 498              		.global	lv_animimg_get_duration
 499              		.syntax unified
 500              		.thumb
 501              		.thumb_func
 503              	lv_animimg_get_duration:
 504              	.LVL51:
 505              	.LFB178:
 160:Drivers/lvgl/src/widgets/animimage/lv_animimage.c ****     LV_ASSERT_OBJ(obj, MY_CLASS);
 506              		.loc 1 160 1 view -0
 507              		.cfi_startproc
 508              		@ args = 0, pretend = 0, frame = 0
 509              		@ frame_needed = 0, uses_anonymous_args = 0
 161:Drivers/lvgl/src/widgets/animimage/lv_animimage.c ****     lv_animimg_t * animimg = (lv_animimg_t *)obj;
 510              		.loc 1 161 5 view .LVU140
 161:Drivers/lvgl/src/widgets/animimage/lv_animimage.c ****     lv_animimg_t * animimg = (lv_animimg_t *)obj;
 511              		.loc 1 161 5 view .LVU141
 512 0000 20B1     		cbz	r0, .L41
 160:Drivers/lvgl/src/widgets/animimage/lv_animimage.c ****     LV_ASSERT_OBJ(obj, MY_CLASS);
 513              		.loc 1 160 1 is_stmt 0 view .LVU142
 514 0002 08B5     		push	{r3, lr}
 515              	.LCFI11:
 516              		.cfi_def_cfa_offset 8
 517              		.cfi_offset 3, -8
 518              		.cfi_offset 14, -4
 161:Drivers/lvgl/src/widgets/animimage/lv_animimage.c ****     lv_animimg_t * animimg = (lv_animimg_t *)obj;
 519              		.loc 1 161 5 is_stmt 1 discriminator 2 view .LVU143
 161:Drivers/lvgl/src/widgets/animimage/lv_animimage.c ****     lv_animimg_t * animimg = (lv_animimg_t *)obj;
 520              		.loc 1 161 33 discriminator 2 view .LVU144
 162:Drivers/lvgl/src/widgets/animimage/lv_animimage.c ****     return lv_anim_get_time(&animimg->anim);
 521              		.loc 1 162 5 view .LVU145
 522              	.LVL52:
 163:Drivers/lvgl/src/widgets/animimage/lv_animimage.c **** }
 523              		.loc 1 163 5 view .LVU146
 163:Drivers/lvgl/src/widgets/animimage/lv_animimage.c **** }
 524              		.loc 1 163 12 is_stmt 0 view .LVU147
 525 0004 5C30     		adds	r0, r0, #92
 526              	.LVL53:
 163:Drivers/lvgl/src/widgets/animimage/lv_animimage.c **** }
 527              		.loc 1 163 12 view .LVU148
 528 0006 FFF7FEFF 		bl	lv_anim_get_time
 529              	.LVL54:
 164:Drivers/lvgl/src/widgets/animimage/lv_animimage.c **** 
 530              		.loc 1 164 1 view .LVU149
 531 000a 08BD     		pop	{r3, pc}
 532              	.LVL55:
 533              	.L41:
 534              	.LCFI12:
 535              		.cfi_def_cfa_offset 0
 536              		.cfi_restore 3
 537              		.cfi_restore 14
 161:Drivers/lvgl/src/widgets/animimage/lv_animimage.c ****     lv_animimg_t * animimg = (lv_animimg_t *)obj;
 538              		.loc 1 161 5 is_stmt 1 discriminator 1 view .LVU150
 161:Drivers/lvgl/src/widgets/animimage/lv_animimage.c ****     lv_animimg_t * animimg = (lv_animimg_t *)obj;
 539              		.loc 1 161 5 discriminator 1 view .LVU151
ARM GAS  /tmp/ccNUMRzp.s 			page 16


 161:Drivers/lvgl/src/widgets/animimage/lv_animimage.c ****     lv_animimg_t * animimg = (lv_animimg_t *)obj;
 540              		.loc 1 161 5 discriminator 1 view .LVU152
 161:Drivers/lvgl/src/widgets/animimage/lv_animimage.c ****     lv_animimg_t * animimg = (lv_animimg_t *)obj;
 541              		.loc 1 161 5 discriminator 1 view .LVU153
 161:Drivers/lvgl/src/widgets/animimage/lv_animimage.c ****     lv_animimg_t * animimg = (lv_animimg_t *)obj;
 542              		.loc 1 161 5 discriminator 1 view .LVU154
 543 000c FEE7     		b	.L41
 544              		.cfi_endproc
 545              	.LFE178:
 547              		.section	.text.lv_animimg_get_repeat_count,"ax",%progbits
 548              		.align	1
 549              		.global	lv_animimg_get_repeat_count
 550              		.syntax unified
 551              		.thumb
 552              		.thumb_func
 554              	lv_animimg_get_repeat_count:
 555              	.LVL56:
 556              	.LFB179:
 167:Drivers/lvgl/src/widgets/animimage/lv_animimage.c ****     LV_ASSERT_OBJ(obj, MY_CLASS);
 557              		.loc 1 167 1 view -0
 558              		.cfi_startproc
 559              		@ args = 0, pretend = 0, frame = 0
 560              		@ frame_needed = 0, uses_anonymous_args = 0
 168:Drivers/lvgl/src/widgets/animimage/lv_animimage.c ****     lv_animimg_t * animimg = (lv_animimg_t *)obj;
 561              		.loc 1 168 5 view .LVU156
 168:Drivers/lvgl/src/widgets/animimage/lv_animimage.c ****     lv_animimg_t * animimg = (lv_animimg_t *)obj;
 562              		.loc 1 168 5 view .LVU157
 563 0000 20B1     		cbz	r0, .L46
 167:Drivers/lvgl/src/widgets/animimage/lv_animimage.c ****     LV_ASSERT_OBJ(obj, MY_CLASS);
 564              		.loc 1 167 1 is_stmt 0 view .LVU158
 565 0002 08B5     		push	{r3, lr}
 566              	.LCFI13:
 567              		.cfi_def_cfa_offset 8
 568              		.cfi_offset 3, -8
 569              		.cfi_offset 14, -4
 168:Drivers/lvgl/src/widgets/animimage/lv_animimage.c ****     lv_animimg_t * animimg = (lv_animimg_t *)obj;
 570              		.loc 1 168 5 is_stmt 1 discriminator 2 view .LVU159
 168:Drivers/lvgl/src/widgets/animimage/lv_animimage.c ****     lv_animimg_t * animimg = (lv_animimg_t *)obj;
 571              		.loc 1 168 33 discriminator 2 view .LVU160
 169:Drivers/lvgl/src/widgets/animimage/lv_animimage.c ****     return lv_anim_get_repeat_count(&animimg->anim);
 572              		.loc 1 169 5 view .LVU161
 573              	.LVL57:
 170:Drivers/lvgl/src/widgets/animimage/lv_animimage.c **** }
 574              		.loc 1 170 5 view .LVU162
 170:Drivers/lvgl/src/widgets/animimage/lv_animimage.c **** }
 575              		.loc 1 170 12 is_stmt 0 view .LVU163
 576 0004 5C30     		adds	r0, r0, #92
 577              	.LVL58:
 170:Drivers/lvgl/src/widgets/animimage/lv_animimage.c **** }
 578              		.loc 1 170 12 view .LVU164
 579 0006 FFF7FEFF 		bl	lv_anim_get_repeat_count
 580              	.LVL59:
 171:Drivers/lvgl/src/widgets/animimage/lv_animimage.c **** 
 581              		.loc 1 171 1 view .LVU165
 582 000a 08BD     		pop	{r3, pc}
 583              	.LVL60:
 584              	.L46:
ARM GAS  /tmp/ccNUMRzp.s 			page 17


 585              	.LCFI14:
 586              		.cfi_def_cfa_offset 0
 587              		.cfi_restore 3
 588              		.cfi_restore 14
 168:Drivers/lvgl/src/widgets/animimage/lv_animimage.c ****     lv_animimg_t * animimg = (lv_animimg_t *)obj;
 589              		.loc 1 168 5 is_stmt 1 discriminator 1 view .LVU166
 168:Drivers/lvgl/src/widgets/animimage/lv_animimage.c ****     lv_animimg_t * animimg = (lv_animimg_t *)obj;
 590              		.loc 1 168 5 discriminator 1 view .LVU167
 168:Drivers/lvgl/src/widgets/animimage/lv_animimage.c ****     lv_animimg_t * animimg = (lv_animimg_t *)obj;
 591              		.loc 1 168 5 discriminator 1 view .LVU168
 168:Drivers/lvgl/src/widgets/animimage/lv_animimage.c ****     lv_animimg_t * animimg = (lv_animimg_t *)obj;
 592              		.loc 1 168 5 discriminator 1 view .LVU169
 168:Drivers/lvgl/src/widgets/animimage/lv_animimage.c ****     lv_animimg_t * animimg = (lv_animimg_t *)obj;
 593              		.loc 1 168 5 discriminator 1 view .LVU170
 594 000c FEE7     		b	.L46
 595              		.cfi_endproc
 596              	.LFE179:
 598              		.section	.text.lv_animimg_get_anim,"ax",%progbits
 599              		.align	1
 600              		.global	lv_animimg_get_anim
 601              		.syntax unified
 602              		.thumb
 603              		.thumb_func
 605              	lv_animimg_get_anim:
 606              	.LVL61:
 607              	.LFB180:
 174:Drivers/lvgl/src/widgets/animimage/lv_animimage.c ****     LV_ASSERT_OBJ(obj, MY_CLASS);
 608              		.loc 1 174 1 view -0
 609              		.cfi_startproc
 610              		@ args = 0, pretend = 0, frame = 0
 611              		@ frame_needed = 0, uses_anonymous_args = 0
 612              		@ link register save eliminated.
 175:Drivers/lvgl/src/widgets/animimage/lv_animimage.c ****     lv_animimg_t * animimg = (lv_animimg_t *)obj;
 613              		.loc 1 175 5 view .LVU172
 175:Drivers/lvgl/src/widgets/animimage/lv_animimage.c ****     lv_animimg_t * animimg = (lv_animimg_t *)obj;
 614              		.loc 1 175 5 view .LVU173
 615 0000 08B1     		cbz	r0, .L51
 175:Drivers/lvgl/src/widgets/animimage/lv_animimage.c ****     lv_animimg_t * animimg = (lv_animimg_t *)obj;
 616              		.loc 1 175 5 discriminator 2 view .LVU174
 175:Drivers/lvgl/src/widgets/animimage/lv_animimage.c ****     lv_animimg_t * animimg = (lv_animimg_t *)obj;
 617              		.loc 1 175 33 discriminator 2 view .LVU175
 176:Drivers/lvgl/src/widgets/animimage/lv_animimage.c ****     return &animimg->anim;
 618              		.loc 1 176 5 view .LVU176
 619              	.LVL62:
 177:Drivers/lvgl/src/widgets/animimage/lv_animimage.c **** }
 620              		.loc 1 177 5 view .LVU177
 178:Drivers/lvgl/src/widgets/animimage/lv_animimage.c **** 
 621              		.loc 1 178 1 is_stmt 0 view .LVU178
 622 0002 5C30     		adds	r0, r0, #92
 623              	.LVL63:
 178:Drivers/lvgl/src/widgets/animimage/lv_animimage.c **** 
 624              		.loc 1 178 1 view .LVU179
 625 0004 7047     		bx	lr
 626              	.LVL64:
 627              	.L51:
 175:Drivers/lvgl/src/widgets/animimage/lv_animimage.c ****     lv_animimg_t * animimg = (lv_animimg_t *)obj;
 628              		.loc 1 175 5 is_stmt 1 discriminator 1 view .LVU180
ARM GAS  /tmp/ccNUMRzp.s 			page 18


 175:Drivers/lvgl/src/widgets/animimage/lv_animimage.c ****     lv_animimg_t * animimg = (lv_animimg_t *)obj;
 629              		.loc 1 175 5 discriminator 1 view .LVU181
 175:Drivers/lvgl/src/widgets/animimage/lv_animimage.c ****     lv_animimg_t * animimg = (lv_animimg_t *)obj;
 630              		.loc 1 175 5 discriminator 1 view .LVU182
 175:Drivers/lvgl/src/widgets/animimage/lv_animimage.c ****     lv_animimg_t * animimg = (lv_animimg_t *)obj;
 631              		.loc 1 175 5 discriminator 1 view .LVU183
 175:Drivers/lvgl/src/widgets/animimage/lv_animimage.c ****     lv_animimg_t * animimg = (lv_animimg_t *)obj;
 632              		.loc 1 175 5 discriminator 1 view .LVU184
 633 0006 FEE7     		b	.L51
 634              		.cfi_endproc
 635              	.LFE180:
 637              		.global	lv_animimg_class
 638              		.section	.rodata.str1.4,"aMS",%progbits,1
 639              		.align	2
 640              	.LC0:
 641 0000 6C765F61 		.ascii	"lv_animimg\000"
 641      6E696D69 
 641      6D6700
 642              		.section	.rodata.lv_animimg_class,"a"
 643              		.align	2
 646              	lv_animimg_class:
 647 0000 00000000 		.word	lv_image_class
 648 0004 00000000 		.word	lv_animimg_constructor
 649 0008 00000000 		.space	12
 649      00000000 
 649      00000000 
 650 0014 00000000 		.word	.LC0
 651 0018 00000000 		.space	8
 651      00000000 
 652 0020 40       		.byte	64
 653 0021 0C       		.byte	12
 654 0022 00       		.byte	0
 655 0023 00       		.space	1
 656              		.text
 657              	.Letext0:
 658              		.file 2 "/usr/arm-none-eabi/include/machine/_default_types.h"
 659              		.file 3 "/usr/arm-none-eabi/include/sys/_stdint.h"
 660              		.file 4 "/usr/lib/gcc/arm-none-eabi/14.2.0/include/stddef.h"
 661              		.file 5 "Drivers/lvgl/src/widgets/animimage/../image/../../core/../misc/lv_types.h"
 662              		.file 6 "Drivers/lvgl/src/widgets/animimage/../image/../../core/lv_obj_private.h"
 663              		.file 7 "Drivers/lvgl/src/widgets/animimage/../../core/lv_obj_class_private.h"
 664              		.file 8 "Drivers/lvgl/src/widgets/animimage/../image/../../core/../misc/lv_anim.h"
 665              		.file 9 "Drivers/lvgl/src/widgets/animimage/../image/lv_image_private.h"
 666              		.file 10 "Drivers/lvgl/src/widgets/animimage/lv_animimage_private.h"
 667              		.file 11 "Drivers/lvgl/src/widgets/animimage/../image/../../core/../display/../misc/lv_array.h"
 668              		.file 12 "Drivers/lvgl/src/widgets/animimage/../image/../../core/../misc/../font/../draw/../misc/l
 669              		.file 13 "Drivers/lvgl/src/widgets/animimage/../image/../../core/../misc/../font/../draw/lv_image_
 670              		.file 14 "Drivers/lvgl/src/widgets/animimage/../image/../../core/../display/../misc/lv_event.h"
 671              		.file 15 "Drivers/lvgl/src/widgets/animimage/../image/../../core/../indev/lv_indev.h"
 672              		.file 16 "Drivers/lvgl/src/widgets/animimage/../image/../../core/lv_obj.h"
 673              		.file 17 "Drivers/lvgl/src/widgets/animimage/../image/lv_image.h"
 674              		.file 18 "Drivers/lvgl/src/widgets/animimage/lv_animimage.h"
 675              		.file 19 "Drivers/lvgl/src/widgets/animimage/../image/../../core/lv_obj_class.h"
ARM GAS  /tmp/ccNUMRzp.s 			page 19

