ARM GAS  /tmp/ccFrlMqd.s 			page 1


   1              		.cpu cortex-m7
   2              		.arch armv7e-m
   3              		.fpu fpv5-sp-d16
   4              		.eabi_attribute 27, 1
   5              		.eabi_attribute 28, 1
   6              		.eabi_attribute 20, 1
   7              		.eabi_attribute 21, 1
   8              		.eabi_attribute 23, 3
   9              		.eabi_attribute 24, 1
  10              		.eabi_attribute 25, 1
  11              		.eabi_attribute 26, 1
  12              		.eabi_attribute 30, 1
  13              		.eabi_attribute 34, 1
  14              		.eabi_attribute 18, 4
  15              		.file	"lv_area.c"
  16              		.text
  17              	.Ltext0:
  18              		.cfi_sections	.debug_frame
  19              		.file 1 "Drivers/lvgl/src/misc/lv_area.c"
  20              		.section	.text.lv_point_within_circle,"ax",%progbits
  21              		.align	1
  22              		.syntax unified
  23              		.thumb
  24              		.thumb_func
  26              	lv_point_within_circle:
  27              	.LVL0:
  28              	.LFB214:
   1:Drivers/lvgl/src/misc/lv_area.c **** /**
   2:Drivers/lvgl/src/misc/lv_area.c ****  * @file lv_area.c
   3:Drivers/lvgl/src/misc/lv_area.c ****  *
   4:Drivers/lvgl/src/misc/lv_area.c ****  */
   5:Drivers/lvgl/src/misc/lv_area.c **** 
   6:Drivers/lvgl/src/misc/lv_area.c **** /*********************
   7:Drivers/lvgl/src/misc/lv_area.c ****  *      INCLUDES
   8:Drivers/lvgl/src/misc/lv_area.c ****  *********************/
   9:Drivers/lvgl/src/misc/lv_area.c **** #include "../lv_conf_internal.h"
  10:Drivers/lvgl/src/misc/lv_area.c **** #include "../core/lv_global.h"
  11:Drivers/lvgl/src/misc/lv_area.c **** 
  12:Drivers/lvgl/src/misc/lv_area.c **** #include "lv_area_private.h"
  13:Drivers/lvgl/src/misc/lv_area.c **** #include "lv_math.h"
  14:Drivers/lvgl/src/misc/lv_area.c **** 
  15:Drivers/lvgl/src/misc/lv_area.c **** /*********************
  16:Drivers/lvgl/src/misc/lv_area.c ****  *      DEFINES
  17:Drivers/lvgl/src/misc/lv_area.c ****  *********************/
  18:Drivers/lvgl/src/misc/lv_area.c **** 
  19:Drivers/lvgl/src/misc/lv_area.c **** /**********************
  20:Drivers/lvgl/src/misc/lv_area.c ****  *      TYPEDEFS
  21:Drivers/lvgl/src/misc/lv_area.c ****  **********************/
  22:Drivers/lvgl/src/misc/lv_area.c **** 
  23:Drivers/lvgl/src/misc/lv_area.c **** /**********************
  24:Drivers/lvgl/src/misc/lv_area.c ****  *  STATIC PROTOTYPES
  25:Drivers/lvgl/src/misc/lv_area.c ****  **********************/
  26:Drivers/lvgl/src/misc/lv_area.c **** 
  27:Drivers/lvgl/src/misc/lv_area.c **** static bool lv_point_within_circle(const lv_area_t * area, const lv_point_t * p);
  28:Drivers/lvgl/src/misc/lv_area.c **** 
  29:Drivers/lvgl/src/misc/lv_area.c **** /**********************
  30:Drivers/lvgl/src/misc/lv_area.c ****  *  STATIC VARIABLES
ARM GAS  /tmp/ccFrlMqd.s 			page 2


  31:Drivers/lvgl/src/misc/lv_area.c ****  **********************/
  32:Drivers/lvgl/src/misc/lv_area.c **** 
  33:Drivers/lvgl/src/misc/lv_area.c **** /**********************
  34:Drivers/lvgl/src/misc/lv_area.c ****  *      MACROS
  35:Drivers/lvgl/src/misc/lv_area.c ****  **********************/
  36:Drivers/lvgl/src/misc/lv_area.c **** 
  37:Drivers/lvgl/src/misc/lv_area.c **** /**********************
  38:Drivers/lvgl/src/misc/lv_area.c ****  *   GLOBAL FUNCTIONS
  39:Drivers/lvgl/src/misc/lv_area.c ****  **********************/
  40:Drivers/lvgl/src/misc/lv_area.c **** 
  41:Drivers/lvgl/src/misc/lv_area.c **** void lv_area_set(lv_area_t * area_p, int32_t x1, int32_t y1, int32_t x2, int32_t y2)
  42:Drivers/lvgl/src/misc/lv_area.c **** {
  43:Drivers/lvgl/src/misc/lv_area.c ****     area_p->x1 = x1;
  44:Drivers/lvgl/src/misc/lv_area.c ****     area_p->y1 = y1;
  45:Drivers/lvgl/src/misc/lv_area.c ****     area_p->x2 = x2;
  46:Drivers/lvgl/src/misc/lv_area.c ****     area_p->y2 = y2;
  47:Drivers/lvgl/src/misc/lv_area.c **** }
  48:Drivers/lvgl/src/misc/lv_area.c **** 
  49:Drivers/lvgl/src/misc/lv_area.c **** void lv_area_set_width(lv_area_t * area_p, int32_t w)
  50:Drivers/lvgl/src/misc/lv_area.c **** {
  51:Drivers/lvgl/src/misc/lv_area.c ****     area_p->x2 = area_p->x1 + w - 1;
  52:Drivers/lvgl/src/misc/lv_area.c **** }
  53:Drivers/lvgl/src/misc/lv_area.c **** 
  54:Drivers/lvgl/src/misc/lv_area.c **** void lv_area_set_height(lv_area_t * area_p, int32_t h)
  55:Drivers/lvgl/src/misc/lv_area.c **** {
  56:Drivers/lvgl/src/misc/lv_area.c ****     area_p->y2 = area_p->y1 + h - 1;
  57:Drivers/lvgl/src/misc/lv_area.c **** }
  58:Drivers/lvgl/src/misc/lv_area.c **** 
  59:Drivers/lvgl/src/misc/lv_area.c **** void lv_area_set_pos(lv_area_t * area_p, int32_t x, int32_t y)
  60:Drivers/lvgl/src/misc/lv_area.c **** {
  61:Drivers/lvgl/src/misc/lv_area.c ****     int32_t w = lv_area_get_width(area_p);
  62:Drivers/lvgl/src/misc/lv_area.c ****     int32_t h = lv_area_get_height(area_p);
  63:Drivers/lvgl/src/misc/lv_area.c ****     area_p->x1   = x;
  64:Drivers/lvgl/src/misc/lv_area.c ****     area_p->y1   = y;
  65:Drivers/lvgl/src/misc/lv_area.c ****     lv_area_set_width(area_p, w);
  66:Drivers/lvgl/src/misc/lv_area.c ****     lv_area_set_height(area_p, h);
  67:Drivers/lvgl/src/misc/lv_area.c **** }
  68:Drivers/lvgl/src/misc/lv_area.c **** 
  69:Drivers/lvgl/src/misc/lv_area.c **** uint32_t lv_area_get_size(const lv_area_t * area_p)
  70:Drivers/lvgl/src/misc/lv_area.c **** {
  71:Drivers/lvgl/src/misc/lv_area.c ****     uint32_t size;
  72:Drivers/lvgl/src/misc/lv_area.c **** 
  73:Drivers/lvgl/src/misc/lv_area.c ****     size = (uint32_t)(area_p->x2 - area_p->x1 + 1) * (area_p->y2 - area_p->y1 + 1);
  74:Drivers/lvgl/src/misc/lv_area.c **** 
  75:Drivers/lvgl/src/misc/lv_area.c ****     return size;
  76:Drivers/lvgl/src/misc/lv_area.c **** }
  77:Drivers/lvgl/src/misc/lv_area.c **** 
  78:Drivers/lvgl/src/misc/lv_area.c **** void lv_area_increase(lv_area_t * area, int32_t w_extra, int32_t h_extra)
  79:Drivers/lvgl/src/misc/lv_area.c **** {
  80:Drivers/lvgl/src/misc/lv_area.c ****     area->x1 -= w_extra;
  81:Drivers/lvgl/src/misc/lv_area.c ****     area->x2 += w_extra;
  82:Drivers/lvgl/src/misc/lv_area.c ****     area->y1 -= h_extra;
  83:Drivers/lvgl/src/misc/lv_area.c ****     area->y2 += h_extra;
  84:Drivers/lvgl/src/misc/lv_area.c **** }
  85:Drivers/lvgl/src/misc/lv_area.c **** 
  86:Drivers/lvgl/src/misc/lv_area.c **** void lv_area_move(lv_area_t * area, int32_t x_ofs, int32_t y_ofs)
  87:Drivers/lvgl/src/misc/lv_area.c **** {
ARM GAS  /tmp/ccFrlMqd.s 			page 3


  88:Drivers/lvgl/src/misc/lv_area.c ****     area->x1 += x_ofs;
  89:Drivers/lvgl/src/misc/lv_area.c ****     area->x2 += x_ofs;
  90:Drivers/lvgl/src/misc/lv_area.c ****     area->y1 += y_ofs;
  91:Drivers/lvgl/src/misc/lv_area.c ****     area->y2 += y_ofs;
  92:Drivers/lvgl/src/misc/lv_area.c **** }
  93:Drivers/lvgl/src/misc/lv_area.c **** 
  94:Drivers/lvgl/src/misc/lv_area.c **** bool lv_area_intersect(lv_area_t * res_p, const lv_area_t * a1_p, const lv_area_t * a2_p)
  95:Drivers/lvgl/src/misc/lv_area.c **** {
  96:Drivers/lvgl/src/misc/lv_area.c ****     /*Get the smaller area from 'a1_p' and 'a2_p'*/
  97:Drivers/lvgl/src/misc/lv_area.c ****     res_p->x1 = LV_MAX(a1_p->x1, a2_p->x1);
  98:Drivers/lvgl/src/misc/lv_area.c ****     res_p->y1 = LV_MAX(a1_p->y1, a2_p->y1);
  99:Drivers/lvgl/src/misc/lv_area.c ****     res_p->x2 = LV_MIN(a1_p->x2, a2_p->x2);
 100:Drivers/lvgl/src/misc/lv_area.c ****     res_p->y2 = LV_MIN(a1_p->y2, a2_p->y2);
 101:Drivers/lvgl/src/misc/lv_area.c **** 
 102:Drivers/lvgl/src/misc/lv_area.c ****     /*If x1 or y1 greater than x2 or y2 then the areas union is empty*/
 103:Drivers/lvgl/src/misc/lv_area.c ****     bool union_ok = true;
 104:Drivers/lvgl/src/misc/lv_area.c ****     if((res_p->x1 > res_p->x2) || (res_p->y1 > res_p->y2)) {
 105:Drivers/lvgl/src/misc/lv_area.c ****         union_ok = false;
 106:Drivers/lvgl/src/misc/lv_area.c ****     }
 107:Drivers/lvgl/src/misc/lv_area.c **** 
 108:Drivers/lvgl/src/misc/lv_area.c ****     return union_ok;
 109:Drivers/lvgl/src/misc/lv_area.c **** }
 110:Drivers/lvgl/src/misc/lv_area.c **** 
 111:Drivers/lvgl/src/misc/lv_area.c **** int8_t lv_area_diff(lv_area_t res_p[], const lv_area_t * a1_p, const lv_area_t * a2_p)
 112:Drivers/lvgl/src/misc/lv_area.c **** {
 113:Drivers/lvgl/src/misc/lv_area.c ****     /*Areas have no common parts*/
 114:Drivers/lvgl/src/misc/lv_area.c ****     if(!lv_area_is_on(a1_p, a2_p)) return -1;
 115:Drivers/lvgl/src/misc/lv_area.c **** 
 116:Drivers/lvgl/src/misc/lv_area.c ****     /*No remaining areas after removing common parts*/
 117:Drivers/lvgl/src/misc/lv_area.c ****     if(lv_area_is_in(a1_p, a2_p, 0)) return 0;
 118:Drivers/lvgl/src/misc/lv_area.c **** 
 119:Drivers/lvgl/src/misc/lv_area.c ****     /*Result counter*/
 120:Drivers/lvgl/src/misc/lv_area.c ****     int8_t res_c = 0;
 121:Drivers/lvgl/src/misc/lv_area.c **** 
 122:Drivers/lvgl/src/misc/lv_area.c ****     /*Get required information*/
 123:Drivers/lvgl/src/misc/lv_area.c ****     lv_area_t n;
 124:Drivers/lvgl/src/misc/lv_area.c ****     int32_t a1_w = lv_area_get_width(a1_p) - 1;
 125:Drivers/lvgl/src/misc/lv_area.c ****     int32_t a1_h = lv_area_get_height(a1_p) - 1;
 126:Drivers/lvgl/src/misc/lv_area.c **** 
 127:Drivers/lvgl/src/misc/lv_area.c ****     /*Compute top rectangle*/
 128:Drivers/lvgl/src/misc/lv_area.c ****     int32_t th = a2_p->y1 - a1_p->y1;
 129:Drivers/lvgl/src/misc/lv_area.c ****     if(th > 0) {
 130:Drivers/lvgl/src/misc/lv_area.c ****         n.x1 = a1_p->x1;
 131:Drivers/lvgl/src/misc/lv_area.c ****         n.y1 = a1_p->y1;
 132:Drivers/lvgl/src/misc/lv_area.c ****         n.x2 = a1_p->x2;
 133:Drivers/lvgl/src/misc/lv_area.c ****         n.y2 = a1_p->y1 + th - 1;
 134:Drivers/lvgl/src/misc/lv_area.c ****         res_p[res_c++] = n;
 135:Drivers/lvgl/src/misc/lv_area.c ****     }
 136:Drivers/lvgl/src/misc/lv_area.c **** 
 137:Drivers/lvgl/src/misc/lv_area.c ****     /*Compute the bottom rectangle*/
 138:Drivers/lvgl/src/misc/lv_area.c ****     int32_t bh = a1_h - (a2_p->y2 - a1_p->y1);
 139:Drivers/lvgl/src/misc/lv_area.c ****     if(bh > 0 && a2_p->y2 < a1_p->y2) {
 140:Drivers/lvgl/src/misc/lv_area.c ****         n.x1 = a1_p->x1;
 141:Drivers/lvgl/src/misc/lv_area.c ****         n.y1 = a2_p->y2 + 1;
 142:Drivers/lvgl/src/misc/lv_area.c ****         n.x2 = a1_p->x2;
 143:Drivers/lvgl/src/misc/lv_area.c ****         n.y2 = a2_p->y2 + bh;
 144:Drivers/lvgl/src/misc/lv_area.c ****         res_p[res_c++] = n;
ARM GAS  /tmp/ccFrlMqd.s 			page 4


 145:Drivers/lvgl/src/misc/lv_area.c ****     }
 146:Drivers/lvgl/src/misc/lv_area.c **** 
 147:Drivers/lvgl/src/misc/lv_area.c ****     /*Compute side height*/
 148:Drivers/lvgl/src/misc/lv_area.c ****     int32_t y1 = a2_p->y1 > a1_p->y1 ? a2_p->y1 : a1_p->y1;
 149:Drivers/lvgl/src/misc/lv_area.c ****     int32_t y2 = a2_p->y2 < a1_p->y2 ? a2_p->y2 : a1_p->y2;
 150:Drivers/lvgl/src/misc/lv_area.c ****     int32_t sh = y2 - y1;
 151:Drivers/lvgl/src/misc/lv_area.c **** 
 152:Drivers/lvgl/src/misc/lv_area.c ****     /*Compute the left rectangle*/
 153:Drivers/lvgl/src/misc/lv_area.c ****     int32_t lw = a2_p->x1 - a1_p->x1;
 154:Drivers/lvgl/src/misc/lv_area.c ****     if(lw > 0 && sh >= 0) {
 155:Drivers/lvgl/src/misc/lv_area.c ****         n.x1 = a1_p->x1;
 156:Drivers/lvgl/src/misc/lv_area.c ****         n.y1 = y1;
 157:Drivers/lvgl/src/misc/lv_area.c ****         n.x2 = a1_p->x1 + lw - 1;
 158:Drivers/lvgl/src/misc/lv_area.c ****         n.y2 = y1 + sh;
 159:Drivers/lvgl/src/misc/lv_area.c ****         res_p[res_c++] = n;
 160:Drivers/lvgl/src/misc/lv_area.c ****     }
 161:Drivers/lvgl/src/misc/lv_area.c **** 
 162:Drivers/lvgl/src/misc/lv_area.c ****     /*Compute the right rectangle*/
 163:Drivers/lvgl/src/misc/lv_area.c ****     int32_t rw = a1_w - (a2_p->x2 - a1_p->x1);
 164:Drivers/lvgl/src/misc/lv_area.c ****     if(rw > 0 && sh >= 0) {
 165:Drivers/lvgl/src/misc/lv_area.c ****         n.x1 = a2_p->x2 + 1;
 166:Drivers/lvgl/src/misc/lv_area.c ****         n.y1 = y1;
 167:Drivers/lvgl/src/misc/lv_area.c ****         n.x2 = a2_p->x2 + rw;
 168:Drivers/lvgl/src/misc/lv_area.c ****         n.y2 = y1 + sh;
 169:Drivers/lvgl/src/misc/lv_area.c ****         res_p[res_c++] = n;
 170:Drivers/lvgl/src/misc/lv_area.c ****     }
 171:Drivers/lvgl/src/misc/lv_area.c **** 
 172:Drivers/lvgl/src/misc/lv_area.c ****     //Return number of results
 173:Drivers/lvgl/src/misc/lv_area.c ****     return res_c;
 174:Drivers/lvgl/src/misc/lv_area.c **** }
 175:Drivers/lvgl/src/misc/lv_area.c **** 
 176:Drivers/lvgl/src/misc/lv_area.c **** void lv_area_join(lv_area_t * a_res_p, const lv_area_t * a1_p, const lv_area_t * a2_p)
 177:Drivers/lvgl/src/misc/lv_area.c **** {
 178:Drivers/lvgl/src/misc/lv_area.c ****     a_res_p->x1 = LV_MIN(a1_p->x1, a2_p->x1);
 179:Drivers/lvgl/src/misc/lv_area.c ****     a_res_p->y1 = LV_MIN(a1_p->y1, a2_p->y1);
 180:Drivers/lvgl/src/misc/lv_area.c ****     a_res_p->x2 = LV_MAX(a1_p->x2, a2_p->x2);
 181:Drivers/lvgl/src/misc/lv_area.c ****     a_res_p->y2 = LV_MAX(a1_p->y2, a2_p->y2);
 182:Drivers/lvgl/src/misc/lv_area.c **** }
 183:Drivers/lvgl/src/misc/lv_area.c **** 
 184:Drivers/lvgl/src/misc/lv_area.c **** bool lv_area_is_point_on(const lv_area_t * a_p, const lv_point_t * p_p, int32_t radius)
 185:Drivers/lvgl/src/misc/lv_area.c **** {
 186:Drivers/lvgl/src/misc/lv_area.c ****     /*First check the basic area*/
 187:Drivers/lvgl/src/misc/lv_area.c ****     bool is_on_rect = false;
 188:Drivers/lvgl/src/misc/lv_area.c ****     if((p_p->x >= a_p->x1 && p_p->x <= a_p->x2) && ((p_p->y >= a_p->y1 && p_p->y <= a_p->y2))) {
 189:Drivers/lvgl/src/misc/lv_area.c ****         is_on_rect = true;
 190:Drivers/lvgl/src/misc/lv_area.c ****     }
 191:Drivers/lvgl/src/misc/lv_area.c ****     if(!is_on_rect)
 192:Drivers/lvgl/src/misc/lv_area.c ****         return false;
 193:Drivers/lvgl/src/misc/lv_area.c ****     /*Now handle potential rounded rectangles*/
 194:Drivers/lvgl/src/misc/lv_area.c ****     if(radius <= 0) {
 195:Drivers/lvgl/src/misc/lv_area.c ****         /*No radius, it is within the rectangle*/
 196:Drivers/lvgl/src/misc/lv_area.c ****         return true;
 197:Drivers/lvgl/src/misc/lv_area.c ****     }
 198:Drivers/lvgl/src/misc/lv_area.c ****     int32_t w = lv_area_get_width(a_p) / 2;
 199:Drivers/lvgl/src/misc/lv_area.c ****     int32_t h = lv_area_get_height(a_p) / 2;
 200:Drivers/lvgl/src/misc/lv_area.c ****     int32_t max_radius = LV_MIN(w, h);
 201:Drivers/lvgl/src/misc/lv_area.c ****     if(radius > max_radius)
ARM GAS  /tmp/ccFrlMqd.s 			page 5


 202:Drivers/lvgl/src/misc/lv_area.c ****         radius = max_radius;
 203:Drivers/lvgl/src/misc/lv_area.c **** 
 204:Drivers/lvgl/src/misc/lv_area.c ****     /*Check if it's in one of the corners*/
 205:Drivers/lvgl/src/misc/lv_area.c ****     lv_area_t corner_area;
 206:Drivers/lvgl/src/misc/lv_area.c ****     /*Top left*/
 207:Drivers/lvgl/src/misc/lv_area.c ****     corner_area.x1 = a_p->x1;
 208:Drivers/lvgl/src/misc/lv_area.c ****     corner_area.x2 = a_p->x1 + radius;
 209:Drivers/lvgl/src/misc/lv_area.c ****     corner_area.y1 = a_p->y1;
 210:Drivers/lvgl/src/misc/lv_area.c ****     corner_area.y2 = a_p->y1 + radius;
 211:Drivers/lvgl/src/misc/lv_area.c ****     if(lv_area_is_point_on(&corner_area, p_p, 0)) {
 212:Drivers/lvgl/src/misc/lv_area.c ****         corner_area.x2 += radius;
 213:Drivers/lvgl/src/misc/lv_area.c ****         corner_area.y2 += radius;
 214:Drivers/lvgl/src/misc/lv_area.c ****         return lv_point_within_circle(&corner_area, p_p);
 215:Drivers/lvgl/src/misc/lv_area.c ****     }
 216:Drivers/lvgl/src/misc/lv_area.c ****     /*Bottom left*/
 217:Drivers/lvgl/src/misc/lv_area.c ****     corner_area.y1 = a_p->y2 - radius;
 218:Drivers/lvgl/src/misc/lv_area.c ****     corner_area.y2 = a_p->y2;
 219:Drivers/lvgl/src/misc/lv_area.c ****     if(lv_area_is_point_on(&corner_area, p_p, 0)) {
 220:Drivers/lvgl/src/misc/lv_area.c ****         corner_area.x2 += radius;
 221:Drivers/lvgl/src/misc/lv_area.c ****         corner_area.y1 -= radius;
 222:Drivers/lvgl/src/misc/lv_area.c ****         return lv_point_within_circle(&corner_area, p_p);
 223:Drivers/lvgl/src/misc/lv_area.c ****     }
 224:Drivers/lvgl/src/misc/lv_area.c ****     /*Bottom right*/
 225:Drivers/lvgl/src/misc/lv_area.c ****     corner_area.x1 = a_p->x2 - radius;
 226:Drivers/lvgl/src/misc/lv_area.c ****     corner_area.x2 = a_p->x2;
 227:Drivers/lvgl/src/misc/lv_area.c ****     if(lv_area_is_point_on(&corner_area, p_p, 0)) {
 228:Drivers/lvgl/src/misc/lv_area.c ****         corner_area.x1 -= radius;
 229:Drivers/lvgl/src/misc/lv_area.c ****         corner_area.y1 -= radius;
 230:Drivers/lvgl/src/misc/lv_area.c ****         return lv_point_within_circle(&corner_area, p_p);
 231:Drivers/lvgl/src/misc/lv_area.c ****     }
 232:Drivers/lvgl/src/misc/lv_area.c ****     /*Top right*/
 233:Drivers/lvgl/src/misc/lv_area.c ****     corner_area.y1 = a_p->y1;
 234:Drivers/lvgl/src/misc/lv_area.c ****     corner_area.y2 = a_p->y1 + radius;
 235:Drivers/lvgl/src/misc/lv_area.c ****     if(lv_area_is_point_on(&corner_area, p_p, 0)) {
 236:Drivers/lvgl/src/misc/lv_area.c ****         corner_area.x1 -= radius;
 237:Drivers/lvgl/src/misc/lv_area.c ****         corner_area.y2 += radius;
 238:Drivers/lvgl/src/misc/lv_area.c ****         return lv_point_within_circle(&corner_area, p_p);
 239:Drivers/lvgl/src/misc/lv_area.c ****     }
 240:Drivers/lvgl/src/misc/lv_area.c ****     /*Not within corners*/
 241:Drivers/lvgl/src/misc/lv_area.c ****     return true;
 242:Drivers/lvgl/src/misc/lv_area.c **** }
 243:Drivers/lvgl/src/misc/lv_area.c **** 
 244:Drivers/lvgl/src/misc/lv_area.c **** bool lv_area_is_on(const lv_area_t * a1_p, const lv_area_t * a2_p)
 245:Drivers/lvgl/src/misc/lv_area.c **** {
 246:Drivers/lvgl/src/misc/lv_area.c ****     if((a1_p->x1 <= a2_p->x2) && (a1_p->x2 >= a2_p->x1) && (a1_p->y1 <= a2_p->y2) && (a1_p->y2 >= a
 247:Drivers/lvgl/src/misc/lv_area.c ****         return true;
 248:Drivers/lvgl/src/misc/lv_area.c ****     }
 249:Drivers/lvgl/src/misc/lv_area.c ****     else {
 250:Drivers/lvgl/src/misc/lv_area.c ****         return false;
 251:Drivers/lvgl/src/misc/lv_area.c ****     }
 252:Drivers/lvgl/src/misc/lv_area.c **** }
 253:Drivers/lvgl/src/misc/lv_area.c **** 
 254:Drivers/lvgl/src/misc/lv_area.c **** bool lv_area_is_in(const lv_area_t * ain_p, const lv_area_t * aholder_p, int32_t radius)
 255:Drivers/lvgl/src/misc/lv_area.c **** {
 256:Drivers/lvgl/src/misc/lv_area.c ****     bool is_in = false;
 257:Drivers/lvgl/src/misc/lv_area.c **** 
 258:Drivers/lvgl/src/misc/lv_area.c ****     if(ain_p->x1 >= aholder_p->x1 && ain_p->y1 >= aholder_p->y1 && ain_p->x2 <= aholder_p->x2 &&
ARM GAS  /tmp/ccFrlMqd.s 			page 6


 259:Drivers/lvgl/src/misc/lv_area.c ****        ain_p->y2 <= aholder_p->y2) {
 260:Drivers/lvgl/src/misc/lv_area.c ****         is_in = true;
 261:Drivers/lvgl/src/misc/lv_area.c ****     }
 262:Drivers/lvgl/src/misc/lv_area.c **** 
 263:Drivers/lvgl/src/misc/lv_area.c ****     if(!is_in) return false;
 264:Drivers/lvgl/src/misc/lv_area.c ****     if(radius == 0) return true;
 265:Drivers/lvgl/src/misc/lv_area.c **** 
 266:Drivers/lvgl/src/misc/lv_area.c ****     /*Check if the corner points are inside the radius or not*/
 267:Drivers/lvgl/src/misc/lv_area.c ****     lv_point_t p;
 268:Drivers/lvgl/src/misc/lv_area.c **** 
 269:Drivers/lvgl/src/misc/lv_area.c ****     lv_point_set(&p, ain_p->x1, ain_p->y1);
 270:Drivers/lvgl/src/misc/lv_area.c ****     if(lv_area_is_point_on(aholder_p, &p, radius) == false) return false;
 271:Drivers/lvgl/src/misc/lv_area.c **** 
 272:Drivers/lvgl/src/misc/lv_area.c ****     lv_point_set(&p, ain_p->x2, ain_p->y1);
 273:Drivers/lvgl/src/misc/lv_area.c ****     if(lv_area_is_point_on(aholder_p, &p, radius) == false) return false;
 274:Drivers/lvgl/src/misc/lv_area.c **** 
 275:Drivers/lvgl/src/misc/lv_area.c ****     lv_point_set(&p, ain_p->x1, ain_p->y2);
 276:Drivers/lvgl/src/misc/lv_area.c ****     if(lv_area_is_point_on(aholder_p, &p, radius) == false) return false;
 277:Drivers/lvgl/src/misc/lv_area.c **** 
 278:Drivers/lvgl/src/misc/lv_area.c ****     lv_point_set(&p, ain_p->x2, ain_p->y2);
 279:Drivers/lvgl/src/misc/lv_area.c ****     if(lv_area_is_point_on(aholder_p, &p, radius) == false) return false;
 280:Drivers/lvgl/src/misc/lv_area.c **** 
 281:Drivers/lvgl/src/misc/lv_area.c ****     return true;
 282:Drivers/lvgl/src/misc/lv_area.c **** }
 283:Drivers/lvgl/src/misc/lv_area.c **** 
 284:Drivers/lvgl/src/misc/lv_area.c **** bool lv_area_is_out(const lv_area_t * aout_p, const lv_area_t * aholder_p, int32_t radius)
 285:Drivers/lvgl/src/misc/lv_area.c **** {
 286:Drivers/lvgl/src/misc/lv_area.c ****     if(aout_p->x2 < aholder_p->x1 || aout_p->y2 < aholder_p->y1 || aout_p->x1 > aholder_p->x2 ||
 287:Drivers/lvgl/src/misc/lv_area.c ****        aout_p->y1 > aholder_p->y2) {
 288:Drivers/lvgl/src/misc/lv_area.c ****         return true;
 289:Drivers/lvgl/src/misc/lv_area.c ****     }
 290:Drivers/lvgl/src/misc/lv_area.c **** 
 291:Drivers/lvgl/src/misc/lv_area.c ****     if(radius == 0) return false;
 292:Drivers/lvgl/src/misc/lv_area.c **** 
 293:Drivers/lvgl/src/misc/lv_area.c ****     /*Check if the corner points are outside the radius or not*/
 294:Drivers/lvgl/src/misc/lv_area.c ****     lv_point_t p;
 295:Drivers/lvgl/src/misc/lv_area.c **** 
 296:Drivers/lvgl/src/misc/lv_area.c ****     lv_point_set(&p, aout_p->x1, aout_p->y1);
 297:Drivers/lvgl/src/misc/lv_area.c ****     if(lv_area_is_point_on(aholder_p, &p, radius)) return false;
 298:Drivers/lvgl/src/misc/lv_area.c **** 
 299:Drivers/lvgl/src/misc/lv_area.c ****     lv_point_set(&p, aout_p->x2, aout_p->y1);
 300:Drivers/lvgl/src/misc/lv_area.c ****     if(lv_area_is_point_on(aholder_p, &p, radius)) return false;
 301:Drivers/lvgl/src/misc/lv_area.c **** 
 302:Drivers/lvgl/src/misc/lv_area.c ****     lv_point_set(&p, aout_p->x1, aout_p->y2);
 303:Drivers/lvgl/src/misc/lv_area.c ****     if(lv_area_is_point_on(aholder_p, &p, radius)) return false;
 304:Drivers/lvgl/src/misc/lv_area.c **** 
 305:Drivers/lvgl/src/misc/lv_area.c ****     lv_point_set(&p, aout_p->x2, aout_p->y2);
 306:Drivers/lvgl/src/misc/lv_area.c ****     if(lv_area_is_point_on(aholder_p, &p, radius)) return false;
 307:Drivers/lvgl/src/misc/lv_area.c **** 
 308:Drivers/lvgl/src/misc/lv_area.c ****     return true;
 309:Drivers/lvgl/src/misc/lv_area.c **** }
 310:Drivers/lvgl/src/misc/lv_area.c **** 
 311:Drivers/lvgl/src/misc/lv_area.c **** bool lv_area_is_equal(const lv_area_t * a, const lv_area_t * b)
 312:Drivers/lvgl/src/misc/lv_area.c **** {
 313:Drivers/lvgl/src/misc/lv_area.c ****     return a->x1 == b->x1 && a->x2 == b->x2 && a->y1 == b->y1 && a->y2 == b->y2;
 314:Drivers/lvgl/src/misc/lv_area.c **** }
 315:Drivers/lvgl/src/misc/lv_area.c **** 
ARM GAS  /tmp/ccFrlMqd.s 			page 7


 316:Drivers/lvgl/src/misc/lv_area.c **** void lv_area_align(const lv_area_t * base, lv_area_t * to_align, lv_align_t align, int32_t ofs_x, i
 317:Drivers/lvgl/src/misc/lv_area.c **** {
 318:Drivers/lvgl/src/misc/lv_area.c **** 
 319:Drivers/lvgl/src/misc/lv_area.c ****     int32_t x;
 320:Drivers/lvgl/src/misc/lv_area.c ****     int32_t y;
 321:Drivers/lvgl/src/misc/lv_area.c ****     switch(align) {
 322:Drivers/lvgl/src/misc/lv_area.c ****         case LV_ALIGN_CENTER:
 323:Drivers/lvgl/src/misc/lv_area.c ****             x = lv_area_get_width(base) / 2 - lv_area_get_width(to_align) / 2;
 324:Drivers/lvgl/src/misc/lv_area.c ****             y = lv_area_get_height(base) / 2 - lv_area_get_height(to_align) / 2;
 325:Drivers/lvgl/src/misc/lv_area.c ****             break;
 326:Drivers/lvgl/src/misc/lv_area.c **** 
 327:Drivers/lvgl/src/misc/lv_area.c ****         case LV_ALIGN_TOP_LEFT:
 328:Drivers/lvgl/src/misc/lv_area.c ****             x = 0;
 329:Drivers/lvgl/src/misc/lv_area.c ****             y = 0;
 330:Drivers/lvgl/src/misc/lv_area.c ****             break;
 331:Drivers/lvgl/src/misc/lv_area.c ****         case LV_ALIGN_TOP_MID:
 332:Drivers/lvgl/src/misc/lv_area.c ****             x = lv_area_get_width(base) / 2 - lv_area_get_width(to_align) / 2;
 333:Drivers/lvgl/src/misc/lv_area.c ****             y = 0;
 334:Drivers/lvgl/src/misc/lv_area.c ****             break;
 335:Drivers/lvgl/src/misc/lv_area.c **** 
 336:Drivers/lvgl/src/misc/lv_area.c ****         case LV_ALIGN_TOP_RIGHT:
 337:Drivers/lvgl/src/misc/lv_area.c ****             x = lv_area_get_width(base) - lv_area_get_width(to_align);
 338:Drivers/lvgl/src/misc/lv_area.c ****             y = 0;
 339:Drivers/lvgl/src/misc/lv_area.c ****             break;
 340:Drivers/lvgl/src/misc/lv_area.c **** 
 341:Drivers/lvgl/src/misc/lv_area.c ****         case LV_ALIGN_BOTTOM_LEFT:
 342:Drivers/lvgl/src/misc/lv_area.c ****             x = 0;
 343:Drivers/lvgl/src/misc/lv_area.c ****             y = lv_area_get_height(base) - lv_area_get_height(to_align);
 344:Drivers/lvgl/src/misc/lv_area.c ****             break;
 345:Drivers/lvgl/src/misc/lv_area.c ****         case LV_ALIGN_BOTTOM_MID:
 346:Drivers/lvgl/src/misc/lv_area.c ****             x = lv_area_get_width(base) / 2 - lv_area_get_width(to_align) / 2;
 347:Drivers/lvgl/src/misc/lv_area.c ****             y = lv_area_get_height(base) - lv_area_get_height(to_align);
 348:Drivers/lvgl/src/misc/lv_area.c ****             break;
 349:Drivers/lvgl/src/misc/lv_area.c **** 
 350:Drivers/lvgl/src/misc/lv_area.c ****         case LV_ALIGN_BOTTOM_RIGHT:
 351:Drivers/lvgl/src/misc/lv_area.c ****             x = lv_area_get_width(base) - lv_area_get_width(to_align);
 352:Drivers/lvgl/src/misc/lv_area.c ****             y = lv_area_get_height(base) - lv_area_get_height(to_align);
 353:Drivers/lvgl/src/misc/lv_area.c ****             break;
 354:Drivers/lvgl/src/misc/lv_area.c **** 
 355:Drivers/lvgl/src/misc/lv_area.c ****         case LV_ALIGN_LEFT_MID:
 356:Drivers/lvgl/src/misc/lv_area.c ****             x = 0;
 357:Drivers/lvgl/src/misc/lv_area.c ****             y = lv_area_get_height(base) / 2 - lv_area_get_height(to_align) / 2;
 358:Drivers/lvgl/src/misc/lv_area.c ****             break;
 359:Drivers/lvgl/src/misc/lv_area.c **** 
 360:Drivers/lvgl/src/misc/lv_area.c ****         case LV_ALIGN_RIGHT_MID:
 361:Drivers/lvgl/src/misc/lv_area.c ****             x = lv_area_get_width(base) - lv_area_get_width(to_align);
 362:Drivers/lvgl/src/misc/lv_area.c ****             y = lv_area_get_height(base) / 2 - lv_area_get_height(to_align) / 2;
 363:Drivers/lvgl/src/misc/lv_area.c ****             break;
 364:Drivers/lvgl/src/misc/lv_area.c **** 
 365:Drivers/lvgl/src/misc/lv_area.c ****         case LV_ALIGN_OUT_TOP_LEFT:
 366:Drivers/lvgl/src/misc/lv_area.c ****             x = 0;
 367:Drivers/lvgl/src/misc/lv_area.c ****             y = -lv_area_get_height(to_align);
 368:Drivers/lvgl/src/misc/lv_area.c ****             break;
 369:Drivers/lvgl/src/misc/lv_area.c **** 
 370:Drivers/lvgl/src/misc/lv_area.c ****         case LV_ALIGN_OUT_TOP_MID:
 371:Drivers/lvgl/src/misc/lv_area.c ****             x = lv_area_get_width(base) / 2 - lv_area_get_width(to_align) / 2;
 372:Drivers/lvgl/src/misc/lv_area.c ****             y = -lv_area_get_height(to_align);
ARM GAS  /tmp/ccFrlMqd.s 			page 8


 373:Drivers/lvgl/src/misc/lv_area.c ****             break;
 374:Drivers/lvgl/src/misc/lv_area.c **** 
 375:Drivers/lvgl/src/misc/lv_area.c ****         case LV_ALIGN_OUT_TOP_RIGHT:
 376:Drivers/lvgl/src/misc/lv_area.c ****             x = lv_area_get_width(base) - lv_area_get_width(to_align);
 377:Drivers/lvgl/src/misc/lv_area.c ****             y = -lv_area_get_height(to_align);
 378:Drivers/lvgl/src/misc/lv_area.c ****             break;
 379:Drivers/lvgl/src/misc/lv_area.c **** 
 380:Drivers/lvgl/src/misc/lv_area.c ****         case LV_ALIGN_OUT_BOTTOM_LEFT:
 381:Drivers/lvgl/src/misc/lv_area.c ****             x = 0;
 382:Drivers/lvgl/src/misc/lv_area.c ****             y = lv_area_get_height(base);
 383:Drivers/lvgl/src/misc/lv_area.c ****             break;
 384:Drivers/lvgl/src/misc/lv_area.c **** 
 385:Drivers/lvgl/src/misc/lv_area.c ****         case LV_ALIGN_OUT_BOTTOM_MID:
 386:Drivers/lvgl/src/misc/lv_area.c ****             x = lv_area_get_width(base) / 2 - lv_area_get_width(to_align) / 2;
 387:Drivers/lvgl/src/misc/lv_area.c ****             y = lv_area_get_height(base);
 388:Drivers/lvgl/src/misc/lv_area.c ****             break;
 389:Drivers/lvgl/src/misc/lv_area.c **** 
 390:Drivers/lvgl/src/misc/lv_area.c ****         case LV_ALIGN_OUT_BOTTOM_RIGHT:
 391:Drivers/lvgl/src/misc/lv_area.c ****             x = lv_area_get_width(base) - lv_area_get_width(to_align);
 392:Drivers/lvgl/src/misc/lv_area.c ****             y = lv_area_get_height(base);
 393:Drivers/lvgl/src/misc/lv_area.c ****             break;
 394:Drivers/lvgl/src/misc/lv_area.c **** 
 395:Drivers/lvgl/src/misc/lv_area.c ****         case LV_ALIGN_OUT_LEFT_TOP:
 396:Drivers/lvgl/src/misc/lv_area.c ****             x = -lv_area_get_width(to_align);
 397:Drivers/lvgl/src/misc/lv_area.c ****             y = 0;
 398:Drivers/lvgl/src/misc/lv_area.c ****             break;
 399:Drivers/lvgl/src/misc/lv_area.c **** 
 400:Drivers/lvgl/src/misc/lv_area.c ****         case LV_ALIGN_OUT_LEFT_MID:
 401:Drivers/lvgl/src/misc/lv_area.c ****             x = -lv_area_get_width(to_align);
 402:Drivers/lvgl/src/misc/lv_area.c ****             y = lv_area_get_height(base) / 2 - lv_area_get_height(to_align) / 2;
 403:Drivers/lvgl/src/misc/lv_area.c ****             break;
 404:Drivers/lvgl/src/misc/lv_area.c **** 
 405:Drivers/lvgl/src/misc/lv_area.c ****         case LV_ALIGN_OUT_LEFT_BOTTOM:
 406:Drivers/lvgl/src/misc/lv_area.c ****             x = -lv_area_get_width(to_align);
 407:Drivers/lvgl/src/misc/lv_area.c ****             y = lv_area_get_height(base) - lv_area_get_height(to_align);
 408:Drivers/lvgl/src/misc/lv_area.c ****             break;
 409:Drivers/lvgl/src/misc/lv_area.c **** 
 410:Drivers/lvgl/src/misc/lv_area.c ****         case LV_ALIGN_OUT_RIGHT_TOP:
 411:Drivers/lvgl/src/misc/lv_area.c ****             x = lv_area_get_width(base);
 412:Drivers/lvgl/src/misc/lv_area.c ****             y = 0;
 413:Drivers/lvgl/src/misc/lv_area.c ****             break;
 414:Drivers/lvgl/src/misc/lv_area.c **** 
 415:Drivers/lvgl/src/misc/lv_area.c ****         case LV_ALIGN_OUT_RIGHT_MID:
 416:Drivers/lvgl/src/misc/lv_area.c ****             x = lv_area_get_width(base);
 417:Drivers/lvgl/src/misc/lv_area.c ****             y = lv_area_get_height(base) / 2 - lv_area_get_height(to_align) / 2;
 418:Drivers/lvgl/src/misc/lv_area.c ****             break;
 419:Drivers/lvgl/src/misc/lv_area.c **** 
 420:Drivers/lvgl/src/misc/lv_area.c ****         case LV_ALIGN_OUT_RIGHT_BOTTOM:
 421:Drivers/lvgl/src/misc/lv_area.c ****             x = lv_area_get_width(base);
 422:Drivers/lvgl/src/misc/lv_area.c ****             y = lv_area_get_height(base) - lv_area_get_height(to_align);
 423:Drivers/lvgl/src/misc/lv_area.c ****             break;
 424:Drivers/lvgl/src/misc/lv_area.c ****         default:
 425:Drivers/lvgl/src/misc/lv_area.c ****             x = 0;
 426:Drivers/lvgl/src/misc/lv_area.c ****             y = 0;
 427:Drivers/lvgl/src/misc/lv_area.c ****             break;
 428:Drivers/lvgl/src/misc/lv_area.c ****     }
 429:Drivers/lvgl/src/misc/lv_area.c **** 
ARM GAS  /tmp/ccFrlMqd.s 			page 9


 430:Drivers/lvgl/src/misc/lv_area.c ****     x += base->x1;
 431:Drivers/lvgl/src/misc/lv_area.c ****     y += base->y1;
 432:Drivers/lvgl/src/misc/lv_area.c **** 
 433:Drivers/lvgl/src/misc/lv_area.c ****     int32_t w = lv_area_get_width(to_align);
 434:Drivers/lvgl/src/misc/lv_area.c ****     int32_t h = lv_area_get_height(to_align);
 435:Drivers/lvgl/src/misc/lv_area.c ****     to_align->x1 = x + ofs_x;
 436:Drivers/lvgl/src/misc/lv_area.c ****     to_align->y1 = y + ofs_y;
 437:Drivers/lvgl/src/misc/lv_area.c ****     to_align->x2 = to_align->x1 + w - 1;
 438:Drivers/lvgl/src/misc/lv_area.c ****     to_align->y2 = to_align->y1 + h - 1;
 439:Drivers/lvgl/src/misc/lv_area.c **** }
 440:Drivers/lvgl/src/misc/lv_area.c **** 
 441:Drivers/lvgl/src/misc/lv_area.c **** #define LV_TRANSFORM_TRIGO_SHIFT 10
 442:Drivers/lvgl/src/misc/lv_area.c **** 
 443:Drivers/lvgl/src/misc/lv_area.c **** void lv_point_transform(lv_point_t * point, int32_t angle, int32_t scale_x, int32_t scale_y, const 
 444:Drivers/lvgl/src/misc/lv_area.c ****                         bool zoom_first)
 445:Drivers/lvgl/src/misc/lv_area.c **** {
 446:Drivers/lvgl/src/misc/lv_area.c ****     lv_point_array_transform(point, 1, angle, scale_x, scale_y, pivot, zoom_first);
 447:Drivers/lvgl/src/misc/lv_area.c **** }
 448:Drivers/lvgl/src/misc/lv_area.c **** 
 449:Drivers/lvgl/src/misc/lv_area.c **** void lv_point_array_transform(lv_point_t * points, size_t count, int32_t angle, int32_t scale_x, in
 450:Drivers/lvgl/src/misc/lv_area.c ****                               const lv_point_t * pivot,
 451:Drivers/lvgl/src/misc/lv_area.c ****                               bool zoom_first)
 452:Drivers/lvgl/src/misc/lv_area.c **** {
 453:Drivers/lvgl/src/misc/lv_area.c ****     if(angle == 0 && scale_x == 256 && scale_y == 256) {
 454:Drivers/lvgl/src/misc/lv_area.c ****         return;
 455:Drivers/lvgl/src/misc/lv_area.c ****     }
 456:Drivers/lvgl/src/misc/lv_area.c ****     uint32_t i;
 457:Drivers/lvgl/src/misc/lv_area.c ****     for(i = 0; i < count; i++) {
 458:Drivers/lvgl/src/misc/lv_area.c ****         points[i].x -= pivot->x;
 459:Drivers/lvgl/src/misc/lv_area.c ****         points[i].y -= pivot->y;
 460:Drivers/lvgl/src/misc/lv_area.c **** 
 461:Drivers/lvgl/src/misc/lv_area.c ****     }
 462:Drivers/lvgl/src/misc/lv_area.c **** 
 463:Drivers/lvgl/src/misc/lv_area.c ****     if(angle == 0) {
 464:Drivers/lvgl/src/misc/lv_area.c ****         for(i = 0; i < count; i++) {
 465:Drivers/lvgl/src/misc/lv_area.c ****             points[i].x = (((int32_t)(points[i].x) * scale_x) >> 8) + pivot->x;
 466:Drivers/lvgl/src/misc/lv_area.c ****             points[i].y = (((int32_t)(points[i].y) * scale_y) >> 8) + pivot->y;
 467:Drivers/lvgl/src/misc/lv_area.c ****         }
 468:Drivers/lvgl/src/misc/lv_area.c ****         return;
 469:Drivers/lvgl/src/misc/lv_area.c ****     }
 470:Drivers/lvgl/src/misc/lv_area.c **** 
 471:Drivers/lvgl/src/misc/lv_area.c ****     int32_t angle_limited = angle;
 472:Drivers/lvgl/src/misc/lv_area.c ****     if(angle_limited > 3600) angle_limited -= 3600;
 473:Drivers/lvgl/src/misc/lv_area.c ****     if(angle_limited < 0) angle_limited += 3600;
 474:Drivers/lvgl/src/misc/lv_area.c **** 
 475:Drivers/lvgl/src/misc/lv_area.c ****     int32_t angle_low = angle_limited / 10;
 476:Drivers/lvgl/src/misc/lv_area.c ****     int32_t angle_high = angle_low + 1;
 477:Drivers/lvgl/src/misc/lv_area.c ****     int32_t angle_rem = angle_limited  - (angle_low * 10);
 478:Drivers/lvgl/src/misc/lv_area.c **** 
 479:Drivers/lvgl/src/misc/lv_area.c ****     int32_t s1 = lv_trigo_sin(angle_low);
 480:Drivers/lvgl/src/misc/lv_area.c ****     int32_t s2 = lv_trigo_sin(angle_high);
 481:Drivers/lvgl/src/misc/lv_area.c **** 
 482:Drivers/lvgl/src/misc/lv_area.c ****     int32_t c1 = lv_trigo_sin(angle_low + 90);
 483:Drivers/lvgl/src/misc/lv_area.c ****     int32_t c2 = lv_trigo_sin(angle_high + 90);
 484:Drivers/lvgl/src/misc/lv_area.c **** 
 485:Drivers/lvgl/src/misc/lv_area.c ****     int32_t sinma = (s1 * (10 - angle_rem) + s2 * angle_rem) / 10;
 486:Drivers/lvgl/src/misc/lv_area.c ****     sinma = sinma >> (LV_TRIGO_SHIFT - LV_TRANSFORM_TRIGO_SHIFT);
ARM GAS  /tmp/ccFrlMqd.s 			page 10


 487:Drivers/lvgl/src/misc/lv_area.c ****     int32_t cosma = (c1 * (10 - angle_rem) + c2 * angle_rem) / 10;
 488:Drivers/lvgl/src/misc/lv_area.c ****     cosma = cosma >> (LV_TRIGO_SHIFT - LV_TRANSFORM_TRIGO_SHIFT);
 489:Drivers/lvgl/src/misc/lv_area.c **** 
 490:Drivers/lvgl/src/misc/lv_area.c ****     for(i = 0; i < count; i++) {
 491:Drivers/lvgl/src/misc/lv_area.c ****         int32_t x = points[i].x;
 492:Drivers/lvgl/src/misc/lv_area.c ****         int32_t y = points[i].y;
 493:Drivers/lvgl/src/misc/lv_area.c ****         if(scale_x == 256 && scale_y == 256) {
 494:Drivers/lvgl/src/misc/lv_area.c ****             points[i].x = ((cosma * x - sinma * y) >> LV_TRANSFORM_TRIGO_SHIFT) + pivot->x;
 495:Drivers/lvgl/src/misc/lv_area.c ****             points[i].y = ((sinma * x + cosma * y) >> LV_TRANSFORM_TRIGO_SHIFT) + pivot->y;
 496:Drivers/lvgl/src/misc/lv_area.c ****         }
 497:Drivers/lvgl/src/misc/lv_area.c ****         else {
 498:Drivers/lvgl/src/misc/lv_area.c ****             if(zoom_first) {
 499:Drivers/lvgl/src/misc/lv_area.c ****                 x *= scale_x;
 500:Drivers/lvgl/src/misc/lv_area.c ****                 y *= scale_y;
 501:Drivers/lvgl/src/misc/lv_area.c ****                 points[i].x = (((cosma * x - sinma * y)) >> (LV_TRANSFORM_TRIGO_SHIFT + 8)) + pivot
 502:Drivers/lvgl/src/misc/lv_area.c ****                 points[i].y = (((sinma * x + cosma * y)) >> (LV_TRANSFORM_TRIGO_SHIFT + 8)) + pivot
 503:Drivers/lvgl/src/misc/lv_area.c ****             }
 504:Drivers/lvgl/src/misc/lv_area.c ****             else {
 505:Drivers/lvgl/src/misc/lv_area.c ****                 points[i].x = (((cosma * x - sinma * y) * scale_x) >> (LV_TRANSFORM_TRIGO_SHIFT + 8
 506:Drivers/lvgl/src/misc/lv_area.c ****                 points[i].y = (((sinma * x + cosma * y) * scale_y) >> (LV_TRANSFORM_TRIGO_SHIFT + 8
 507:Drivers/lvgl/src/misc/lv_area.c ****             }
 508:Drivers/lvgl/src/misc/lv_area.c ****         }
 509:Drivers/lvgl/src/misc/lv_area.c ****     }
 510:Drivers/lvgl/src/misc/lv_area.c **** }
 511:Drivers/lvgl/src/misc/lv_area.c **** 
 512:Drivers/lvgl/src/misc/lv_area.c **** int32_t lv_area_get_width(const lv_area_t * area_p)
 513:Drivers/lvgl/src/misc/lv_area.c **** {
 514:Drivers/lvgl/src/misc/lv_area.c ****     return (int32_t)(area_p->x2 - area_p->x1 + 1);
 515:Drivers/lvgl/src/misc/lv_area.c **** }
 516:Drivers/lvgl/src/misc/lv_area.c **** 
 517:Drivers/lvgl/src/misc/lv_area.c **** int32_t lv_area_get_height(const lv_area_t * area_p)
 518:Drivers/lvgl/src/misc/lv_area.c **** {
 519:Drivers/lvgl/src/misc/lv_area.c ****     return (int32_t)(area_p->y2 - area_p->y1 + 1);
 520:Drivers/lvgl/src/misc/lv_area.c **** }
 521:Drivers/lvgl/src/misc/lv_area.c **** 
 522:Drivers/lvgl/src/misc/lv_area.c **** lv_point_t lv_point_from_precise(const lv_point_precise_t * p)
 523:Drivers/lvgl/src/misc/lv_area.c **** {
 524:Drivers/lvgl/src/misc/lv_area.c ****     lv_point_t point = {
 525:Drivers/lvgl/src/misc/lv_area.c ****         (int32_t)p->x, (int32_t)p->y
 526:Drivers/lvgl/src/misc/lv_area.c ****     };
 527:Drivers/lvgl/src/misc/lv_area.c **** 
 528:Drivers/lvgl/src/misc/lv_area.c ****     return point;
 529:Drivers/lvgl/src/misc/lv_area.c **** }
 530:Drivers/lvgl/src/misc/lv_area.c **** 
 531:Drivers/lvgl/src/misc/lv_area.c **** lv_point_precise_t lv_point_to_precise(const lv_point_t * p)
 532:Drivers/lvgl/src/misc/lv_area.c **** {
 533:Drivers/lvgl/src/misc/lv_area.c ****     lv_point_precise_t point = {
 534:Drivers/lvgl/src/misc/lv_area.c ****         (lv_value_precise_t)p->x, (lv_value_precise_t)p->y
 535:Drivers/lvgl/src/misc/lv_area.c ****     };
 536:Drivers/lvgl/src/misc/lv_area.c **** 
 537:Drivers/lvgl/src/misc/lv_area.c ****     return point;
 538:Drivers/lvgl/src/misc/lv_area.c **** }
 539:Drivers/lvgl/src/misc/lv_area.c **** 
 540:Drivers/lvgl/src/misc/lv_area.c **** void lv_point_set(lv_point_t * p, int32_t x, int32_t y)
 541:Drivers/lvgl/src/misc/lv_area.c **** {
 542:Drivers/lvgl/src/misc/lv_area.c ****     p->x = x;
 543:Drivers/lvgl/src/misc/lv_area.c ****     p->y = y;
ARM GAS  /tmp/ccFrlMqd.s 			page 11


 544:Drivers/lvgl/src/misc/lv_area.c **** }
 545:Drivers/lvgl/src/misc/lv_area.c **** 
 546:Drivers/lvgl/src/misc/lv_area.c **** void lv_point_precise_set(lv_point_precise_t * p, lv_value_precise_t x, lv_value_precise_t y)
 547:Drivers/lvgl/src/misc/lv_area.c **** {
 548:Drivers/lvgl/src/misc/lv_area.c ****     p->x = x;
 549:Drivers/lvgl/src/misc/lv_area.c ****     p->y = y;
 550:Drivers/lvgl/src/misc/lv_area.c **** }
 551:Drivers/lvgl/src/misc/lv_area.c **** 
 552:Drivers/lvgl/src/misc/lv_area.c **** void lv_point_swap(lv_point_t * p1, lv_point_t * p2)
 553:Drivers/lvgl/src/misc/lv_area.c **** {
 554:Drivers/lvgl/src/misc/lv_area.c ****     lv_point_t tmp = *p1;
 555:Drivers/lvgl/src/misc/lv_area.c ****     *p1 = *p2;
 556:Drivers/lvgl/src/misc/lv_area.c ****     *p2 = tmp;
 557:Drivers/lvgl/src/misc/lv_area.c **** }
 558:Drivers/lvgl/src/misc/lv_area.c **** 
 559:Drivers/lvgl/src/misc/lv_area.c **** void lv_point_precise_swap(lv_point_precise_t * p1, lv_point_precise_t * p2)
 560:Drivers/lvgl/src/misc/lv_area.c **** {
 561:Drivers/lvgl/src/misc/lv_area.c ****     lv_point_precise_t tmp = *p1;
 562:Drivers/lvgl/src/misc/lv_area.c ****     *p1 = *p2;
 563:Drivers/lvgl/src/misc/lv_area.c ****     *p2 = tmp;
 564:Drivers/lvgl/src/misc/lv_area.c **** }
 565:Drivers/lvgl/src/misc/lv_area.c **** 
 566:Drivers/lvgl/src/misc/lv_area.c **** int32_t lv_pct(int32_t x)
 567:Drivers/lvgl/src/misc/lv_area.c **** {
 568:Drivers/lvgl/src/misc/lv_area.c ****     return LV_PCT(x);
 569:Drivers/lvgl/src/misc/lv_area.c **** }
 570:Drivers/lvgl/src/misc/lv_area.c **** 
 571:Drivers/lvgl/src/misc/lv_area.c **** int32_t lv_pct_to_px(int32_t v, int32_t base)
 572:Drivers/lvgl/src/misc/lv_area.c **** {
 573:Drivers/lvgl/src/misc/lv_area.c ****     if(LV_COORD_IS_PCT(v)) {
 574:Drivers/lvgl/src/misc/lv_area.c ****         return (LV_COORD_GET_PCT(v) * base) / 100;
 575:Drivers/lvgl/src/misc/lv_area.c ****     }
 576:Drivers/lvgl/src/misc/lv_area.c **** 
 577:Drivers/lvgl/src/misc/lv_area.c ****     return v;
 578:Drivers/lvgl/src/misc/lv_area.c **** }
 579:Drivers/lvgl/src/misc/lv_area.c **** 
 580:Drivers/lvgl/src/misc/lv_area.c **** /**********************
 581:Drivers/lvgl/src/misc/lv_area.c ****  *   STATIC FUNCTIONS
 582:Drivers/lvgl/src/misc/lv_area.c ****  **********************/
 583:Drivers/lvgl/src/misc/lv_area.c **** 
 584:Drivers/lvgl/src/misc/lv_area.c **** static bool lv_point_within_circle(const lv_area_t * area, const lv_point_t * p)
 585:Drivers/lvgl/src/misc/lv_area.c **** {
  29              		.loc 1 585 1 view -0
  30              		.cfi_startproc
  31              		@ args = 0, pretend = 0, frame = 0
  32              		@ frame_needed = 0, uses_anonymous_args = 0
  33              		@ link register save eliminated.
 586:Drivers/lvgl/src/misc/lv_area.c ****     int32_t r = (area->x2 - area->x1) / 2;
  34              		.loc 1 586 5 view .LVU1
  35              		.loc 1 586 22 is_stmt 0 view .LVU2
  36 0000 8368     		ldr	r3, [r0, #8]
  37              		.loc 1 586 33 view .LVU3
  38 0002 0268     		ldr	r2, [r0]
  39              		.loc 1 586 13 view .LVU4
  40 0004 9B1A     		subs	r3, r3, r2
  41 0006 14D4     		bmi	.L5
  42              	.L2:
ARM GAS  /tmp/ccFrlMqd.s 			page 12


  43 0008 4FEA630C 		asr	ip, r3, #1
  44              	.LVL1:
 587:Drivers/lvgl/src/misc/lv_area.c **** 
 588:Drivers/lvgl/src/misc/lv_area.c ****     /*Circle center*/
 589:Drivers/lvgl/src/misc/lv_area.c ****     int32_t cx = area->x1 + r;
  45              		.loc 1 589 5 is_stmt 1 view .LVU5
  46              		.loc 1 589 13 is_stmt 0 view .LVU6
  47 000c 02EB6302 		add	r2, r2, r3, asr #1
  48              	.LVL2:
 590:Drivers/lvgl/src/misc/lv_area.c ****     int32_t cy = area->y1 + r;
  49              		.loc 1 590 5 is_stmt 1 view .LVU7
  50              		.loc 1 590 22 is_stmt 0 view .LVU8
  51 0010 4068     		ldr	r0, [r0, #4]
  52              	.LVL3:
  53              		.loc 1 590 13 view .LVU9
  54 0012 00EB6300 		add	r0, r0, r3, asr #1
  55              	.LVL4:
 591:Drivers/lvgl/src/misc/lv_area.c **** 
 592:Drivers/lvgl/src/misc/lv_area.c ****     /*Simplify the code by moving everything to (0, 0)*/
 593:Drivers/lvgl/src/misc/lv_area.c ****     int32_t px = p->x - cx;
  56              		.loc 1 593 5 is_stmt 1 view .LVU10
  57              		.loc 1 593 19 is_stmt 0 view .LVU11
  58 0016 0B68     		ldr	r3, [r1]
  59              		.loc 1 593 13 view .LVU12
  60 0018 9B1A     		subs	r3, r3, r2
  61              	.LVL5:
 594:Drivers/lvgl/src/misc/lv_area.c ****     int32_t py = p->y - cy;
  62              		.loc 1 594 5 is_stmt 1 view .LVU13
  63              		.loc 1 594 19 is_stmt 0 view .LVU14
  64 001a 4A68     		ldr	r2, [r1, #4]
  65              	.LVL6:
  66              		.loc 1 594 13 view .LVU15
  67 001c 121A     		subs	r2, r2, r0
  68              	.LVL7:
 595:Drivers/lvgl/src/misc/lv_area.c **** 
 596:Drivers/lvgl/src/misc/lv_area.c ****     uint32_t r_sqrd = r * r;
  69              		.loc 1 596 5 is_stmt 1 view .LVU16
  70              		.loc 1 596 25 is_stmt 0 view .LVU17
  71 001e 0CFB0CFC 		mul	ip, ip, ip
  72              	.LVL8:
 597:Drivers/lvgl/src/misc/lv_area.c ****     uint32_t dist = (px * px) + (py * py);
  73              		.loc 1 597 5 is_stmt 1 view .LVU18
  74              		.loc 1 597 37 is_stmt 0 view .LVU19
  75 0022 02FB02F2 		mul	r2, r2, r2
  76              	.LVL9:
  77              		.loc 1 597 31 view .LVU20
  78 0026 03FB0323 		mla	r3, r3, r3, r2
  79              	.LVL10:
 598:Drivers/lvgl/src/misc/lv_area.c **** 
 599:Drivers/lvgl/src/misc/lv_area.c ****     if(dist <= r_sqrd)
  80              		.loc 1 599 5 is_stmt 1 view .LVU21
  81              		.loc 1 599 7 is_stmt 0 view .LVU22
  82 002a 9C45     		cmp	ip, r3
  83 002c 03D3     		bcc	.L4
 600:Drivers/lvgl/src/misc/lv_area.c ****         return true;
  84              		.loc 1 600 16 view .LVU23
  85 002e 0120     		movs	r0, #1
ARM GAS  /tmp/ccFrlMqd.s 			page 13


  86              	.LVL11:
  87              		.loc 1 600 16 view .LVU24
  88 0030 7047     		bx	lr
  89              	.LVL12:
  90              	.L5:
 586:Drivers/lvgl/src/misc/lv_area.c **** 
  91              		.loc 1 586 13 view .LVU25
  92 0032 0133     		adds	r3, r3, #1
  93 0034 E8E7     		b	.L2
  94              	.LVL13:
  95              	.L4:
 601:Drivers/lvgl/src/misc/lv_area.c ****     else
 602:Drivers/lvgl/src/misc/lv_area.c ****         return false;
  96              		.loc 1 602 16 view .LVU26
  97 0036 0020     		movs	r0, #0
  98              	.LVL14:
 603:Drivers/lvgl/src/misc/lv_area.c **** }
  99              		.loc 1 603 1 view .LVU27
 100 0038 7047     		bx	lr
 101              		.cfi_endproc
 102              	.LFE214:
 104              		.section	.text.lv_area_set,"ax",%progbits
 105              		.align	1
 106              		.global	lv_area_set
 107              		.syntax unified
 108              		.thumb
 109              		.thumb_func
 111              	lv_area_set:
 112              	.LVL15:
 113              	.LFB186:
  42:Drivers/lvgl/src/misc/lv_area.c ****     area_p->x1 = x1;
 114              		.loc 1 42 1 is_stmt 1 view -0
 115              		.cfi_startproc
 116              		@ args = 4, pretend = 0, frame = 0
 117              		@ frame_needed = 0, uses_anonymous_args = 0
 118              		@ link register save eliminated.
  43:Drivers/lvgl/src/misc/lv_area.c ****     area_p->y1 = y1;
 119              		.loc 1 43 5 view .LVU29
  43:Drivers/lvgl/src/misc/lv_area.c ****     area_p->y1 = y1;
 120              		.loc 1 43 16 is_stmt 0 view .LVU30
 121 0000 0160     		str	r1, [r0]
  44:Drivers/lvgl/src/misc/lv_area.c ****     area_p->x2 = x2;
 122              		.loc 1 44 5 is_stmt 1 view .LVU31
  44:Drivers/lvgl/src/misc/lv_area.c ****     area_p->x2 = x2;
 123              		.loc 1 44 16 is_stmt 0 view .LVU32
 124 0002 4260     		str	r2, [r0, #4]
  45:Drivers/lvgl/src/misc/lv_area.c ****     area_p->y2 = y2;
 125              		.loc 1 45 5 is_stmt 1 view .LVU33
  45:Drivers/lvgl/src/misc/lv_area.c ****     area_p->y2 = y2;
 126              		.loc 1 45 16 is_stmt 0 view .LVU34
 127 0004 8360     		str	r3, [r0, #8]
  46:Drivers/lvgl/src/misc/lv_area.c **** }
 128              		.loc 1 46 5 is_stmt 1 view .LVU35
  46:Drivers/lvgl/src/misc/lv_area.c **** }
 129              		.loc 1 46 16 is_stmt 0 view .LVU36
 130 0006 009B     		ldr	r3, [sp]
 131              	.LVL16:
ARM GAS  /tmp/ccFrlMqd.s 			page 14


  46:Drivers/lvgl/src/misc/lv_area.c **** }
 132              		.loc 1 46 16 view .LVU37
 133 0008 C360     		str	r3, [r0, #12]
  47:Drivers/lvgl/src/misc/lv_area.c **** 
 134              		.loc 1 47 1 view .LVU38
 135 000a 7047     		bx	lr
 136              		.cfi_endproc
 137              	.LFE186:
 139              		.section	.text.lv_area_set_width,"ax",%progbits
 140              		.align	1
 141              		.global	lv_area_set_width
 142              		.syntax unified
 143              		.thumb
 144              		.thumb_func
 146              	lv_area_set_width:
 147              	.LVL17:
 148              	.LFB187:
  50:Drivers/lvgl/src/misc/lv_area.c ****     area_p->x2 = area_p->x1 + w - 1;
 149              		.loc 1 50 1 is_stmt 1 view -0
 150              		.cfi_startproc
 151              		@ args = 0, pretend = 0, frame = 0
 152              		@ frame_needed = 0, uses_anonymous_args = 0
 153              		@ link register save eliminated.
  51:Drivers/lvgl/src/misc/lv_area.c **** }
 154              		.loc 1 51 5 view .LVU40
  51:Drivers/lvgl/src/misc/lv_area.c **** }
 155              		.loc 1 51 24 is_stmt 0 view .LVU41
 156 0000 0368     		ldr	r3, [r0]
  51:Drivers/lvgl/src/misc/lv_area.c **** }
 157              		.loc 1 51 29 view .LVU42
 158 0002 0B44     		add	r3, r3, r1
  51:Drivers/lvgl/src/misc/lv_area.c **** }
 159              		.loc 1 51 33 view .LVU43
 160 0004 013B     		subs	r3, r3, #1
  51:Drivers/lvgl/src/misc/lv_area.c **** }
 161              		.loc 1 51 16 view .LVU44
 162 0006 8360     		str	r3, [r0, #8]
  52:Drivers/lvgl/src/misc/lv_area.c **** 
 163              		.loc 1 52 1 view .LVU45
 164 0008 7047     		bx	lr
 165              		.cfi_endproc
 166              	.LFE187:
 168              		.section	.text.lv_area_set_height,"ax",%progbits
 169              		.align	1
 170              		.global	lv_area_set_height
 171              		.syntax unified
 172              		.thumb
 173              		.thumb_func
 175              	lv_area_set_height:
 176              	.LVL18:
 177              	.LFB188:
  55:Drivers/lvgl/src/misc/lv_area.c ****     area_p->y2 = area_p->y1 + h - 1;
 178              		.loc 1 55 1 is_stmt 1 view -0
 179              		.cfi_startproc
 180              		@ args = 0, pretend = 0, frame = 0
 181              		@ frame_needed = 0, uses_anonymous_args = 0
 182              		@ link register save eliminated.
ARM GAS  /tmp/ccFrlMqd.s 			page 15


  56:Drivers/lvgl/src/misc/lv_area.c **** }
 183              		.loc 1 56 5 view .LVU47
  56:Drivers/lvgl/src/misc/lv_area.c **** }
 184              		.loc 1 56 24 is_stmt 0 view .LVU48
 185 0000 4368     		ldr	r3, [r0, #4]
  56:Drivers/lvgl/src/misc/lv_area.c **** }
 186              		.loc 1 56 29 view .LVU49
 187 0002 0B44     		add	r3, r3, r1
  56:Drivers/lvgl/src/misc/lv_area.c **** }
 188              		.loc 1 56 33 view .LVU50
 189 0004 013B     		subs	r3, r3, #1
  56:Drivers/lvgl/src/misc/lv_area.c **** }
 190              		.loc 1 56 16 view .LVU51
 191 0006 C360     		str	r3, [r0, #12]
  57:Drivers/lvgl/src/misc/lv_area.c **** 
 192              		.loc 1 57 1 view .LVU52
 193 0008 7047     		bx	lr
 194              		.cfi_endproc
 195              	.LFE188:
 197              		.section	.text.lv_area_get_size,"ax",%progbits
 198              		.align	1
 199              		.global	lv_area_get_size
 200              		.syntax unified
 201              		.thumb
 202              		.thumb_func
 204              	lv_area_get_size:
 205              	.LVL19:
 206              	.LFB190:
  70:Drivers/lvgl/src/misc/lv_area.c ****     uint32_t size;
 207              		.loc 1 70 1 is_stmt 1 view -0
 208              		.cfi_startproc
 209              		@ args = 0, pretend = 0, frame = 0
 210              		@ frame_needed = 0, uses_anonymous_args = 0
 211              		@ link register save eliminated.
  71:Drivers/lvgl/src/misc/lv_area.c **** 
 212              		.loc 1 71 5 view .LVU54
  73:Drivers/lvgl/src/misc/lv_area.c **** 
 213              		.loc 1 73 5 view .LVU55
  73:Drivers/lvgl/src/misc/lv_area.c **** 
 214              		.loc 1 73 29 is_stmt 0 view .LVU56
 215 0000 8368     		ldr	r3, [r0, #8]
  73:Drivers/lvgl/src/misc/lv_area.c **** 
 216              		.loc 1 73 42 view .LVU57
 217 0002 0268     		ldr	r2, [r0]
  73:Drivers/lvgl/src/misc/lv_area.c **** 
 218              		.loc 1 73 34 view .LVU58
 219 0004 9A1A     		subs	r2, r3, r2
  73:Drivers/lvgl/src/misc/lv_area.c **** 
 220              		.loc 1 73 61 view .LVU59
 221 0006 C368     		ldr	r3, [r0, #12]
  73:Drivers/lvgl/src/misc/lv_area.c **** 
 222              		.loc 1 73 74 view .LVU60
 223 0008 4068     		ldr	r0, [r0, #4]
 224              	.LVL20:
  73:Drivers/lvgl/src/misc/lv_area.c **** 
 225              		.loc 1 73 66 view .LVU61
 226 000a 181A     		subs	r0, r3, r0
ARM GAS  /tmp/ccFrlMqd.s 			page 16


  73:Drivers/lvgl/src/misc/lv_area.c **** 
 227              		.loc 1 73 79 view .LVU62
 228 000c 0130     		adds	r0, r0, #1
 229              	.LVL21:
  75:Drivers/lvgl/src/misc/lv_area.c **** }
 230              		.loc 1 75 5 is_stmt 1 view .LVU63
  76:Drivers/lvgl/src/misc/lv_area.c **** 
 231              		.loc 1 76 1 is_stmt 0 view .LVU64
 232 000e 02FB0000 		mla	r0, r2, r0, r0
 233              	.LVL22:
  76:Drivers/lvgl/src/misc/lv_area.c **** 
 234              		.loc 1 76 1 view .LVU65
 235 0012 7047     		bx	lr
 236              		.cfi_endproc
 237              	.LFE190:
 239              		.section	.text.lv_area_increase,"ax",%progbits
 240              		.align	1
 241              		.global	lv_area_increase
 242              		.syntax unified
 243              		.thumb
 244              		.thumb_func
 246              	lv_area_increase:
 247              	.LVL23:
 248              	.LFB191:
  79:Drivers/lvgl/src/misc/lv_area.c ****     area->x1 -= w_extra;
 249              		.loc 1 79 1 is_stmt 1 view -0
 250              		.cfi_startproc
 251              		@ args = 0, pretend = 0, frame = 0
 252              		@ frame_needed = 0, uses_anonymous_args = 0
 253              		@ link register save eliminated.
  80:Drivers/lvgl/src/misc/lv_area.c ****     area->x2 += w_extra;
 254              		.loc 1 80 5 view .LVU67
  80:Drivers/lvgl/src/misc/lv_area.c ****     area->x2 += w_extra;
 255              		.loc 1 80 9 is_stmt 0 view .LVU68
 256 0000 0368     		ldr	r3, [r0]
  80:Drivers/lvgl/src/misc/lv_area.c ****     area->x2 += w_extra;
 257              		.loc 1 80 14 view .LVU69
 258 0002 5B1A     		subs	r3, r3, r1
 259 0004 0360     		str	r3, [r0]
  81:Drivers/lvgl/src/misc/lv_area.c ****     area->y1 -= h_extra;
 260              		.loc 1 81 5 is_stmt 1 view .LVU70
  81:Drivers/lvgl/src/misc/lv_area.c ****     area->y1 -= h_extra;
 261              		.loc 1 81 9 is_stmt 0 view .LVU71
 262 0006 8368     		ldr	r3, [r0, #8]
  81:Drivers/lvgl/src/misc/lv_area.c ****     area->y1 -= h_extra;
 263              		.loc 1 81 14 view .LVU72
 264 0008 0B44     		add	r3, r3, r1
 265 000a 8360     		str	r3, [r0, #8]
  82:Drivers/lvgl/src/misc/lv_area.c ****     area->y2 += h_extra;
 266              		.loc 1 82 5 is_stmt 1 view .LVU73
  82:Drivers/lvgl/src/misc/lv_area.c ****     area->y2 += h_extra;
 267              		.loc 1 82 9 is_stmt 0 view .LVU74
 268 000c 4368     		ldr	r3, [r0, #4]
  82:Drivers/lvgl/src/misc/lv_area.c ****     area->y2 += h_extra;
 269              		.loc 1 82 14 view .LVU75
 270 000e 9B1A     		subs	r3, r3, r2
 271 0010 4360     		str	r3, [r0, #4]
ARM GAS  /tmp/ccFrlMqd.s 			page 17


  83:Drivers/lvgl/src/misc/lv_area.c **** }
 272              		.loc 1 83 5 is_stmt 1 view .LVU76
  83:Drivers/lvgl/src/misc/lv_area.c **** }
 273              		.loc 1 83 9 is_stmt 0 view .LVU77
 274 0012 C368     		ldr	r3, [r0, #12]
  83:Drivers/lvgl/src/misc/lv_area.c **** }
 275              		.loc 1 83 14 view .LVU78
 276 0014 1344     		add	r3, r3, r2
 277 0016 C360     		str	r3, [r0, #12]
  84:Drivers/lvgl/src/misc/lv_area.c **** 
 278              		.loc 1 84 1 view .LVU79
 279 0018 7047     		bx	lr
 280              		.cfi_endproc
 281              	.LFE191:
 283              		.section	.text.lv_area_move,"ax",%progbits
 284              		.align	1
 285              		.global	lv_area_move
 286              		.syntax unified
 287              		.thumb
 288              		.thumb_func
 290              	lv_area_move:
 291              	.LVL24:
 292              	.LFB192:
  87:Drivers/lvgl/src/misc/lv_area.c ****     area->x1 += x_ofs;
 293              		.loc 1 87 1 is_stmt 1 view -0
 294              		.cfi_startproc
 295              		@ args = 0, pretend = 0, frame = 0
 296              		@ frame_needed = 0, uses_anonymous_args = 0
 297              		@ link register save eliminated.
  88:Drivers/lvgl/src/misc/lv_area.c ****     area->x2 += x_ofs;
 298              		.loc 1 88 5 view .LVU81
  88:Drivers/lvgl/src/misc/lv_area.c ****     area->x2 += x_ofs;
 299              		.loc 1 88 9 is_stmt 0 view .LVU82
 300 0000 0368     		ldr	r3, [r0]
  88:Drivers/lvgl/src/misc/lv_area.c ****     area->x2 += x_ofs;
 301              		.loc 1 88 14 view .LVU83
 302 0002 0B44     		add	r3, r3, r1
 303 0004 0360     		str	r3, [r0]
  89:Drivers/lvgl/src/misc/lv_area.c ****     area->y1 += y_ofs;
 304              		.loc 1 89 5 is_stmt 1 view .LVU84
  89:Drivers/lvgl/src/misc/lv_area.c ****     area->y1 += y_ofs;
 305              		.loc 1 89 9 is_stmt 0 view .LVU85
 306 0006 8368     		ldr	r3, [r0, #8]
  89:Drivers/lvgl/src/misc/lv_area.c ****     area->y1 += y_ofs;
 307              		.loc 1 89 14 view .LVU86
 308 0008 0B44     		add	r3, r3, r1
 309 000a 8360     		str	r3, [r0, #8]
  90:Drivers/lvgl/src/misc/lv_area.c ****     area->y2 += y_ofs;
 310              		.loc 1 90 5 is_stmt 1 view .LVU87
  90:Drivers/lvgl/src/misc/lv_area.c ****     area->y2 += y_ofs;
 311              		.loc 1 90 9 is_stmt 0 view .LVU88
 312 000c 4368     		ldr	r3, [r0, #4]
  90:Drivers/lvgl/src/misc/lv_area.c ****     area->y2 += y_ofs;
 313              		.loc 1 90 14 view .LVU89
 314 000e 1344     		add	r3, r3, r2
 315 0010 4360     		str	r3, [r0, #4]
  91:Drivers/lvgl/src/misc/lv_area.c **** }
ARM GAS  /tmp/ccFrlMqd.s 			page 18


 316              		.loc 1 91 5 is_stmt 1 view .LVU90
  91:Drivers/lvgl/src/misc/lv_area.c **** }
 317              		.loc 1 91 9 is_stmt 0 view .LVU91
 318 0012 C368     		ldr	r3, [r0, #12]
  91:Drivers/lvgl/src/misc/lv_area.c **** }
 319              		.loc 1 91 14 view .LVU92
 320 0014 1344     		add	r3, r3, r2
 321 0016 C360     		str	r3, [r0, #12]
  92:Drivers/lvgl/src/misc/lv_area.c **** 
 322              		.loc 1 92 1 view .LVU93
 323 0018 7047     		bx	lr
 324              		.cfi_endproc
 325              	.LFE192:
 327              		.section	.text.lv_area_intersect,"ax",%progbits
 328              		.align	1
 329              		.global	lv_area_intersect
 330              		.syntax unified
 331              		.thumb
 332              		.thumb_func
 334              	lv_area_intersect:
 335              	.LVL25:
 336              	.LFB193:
  95:Drivers/lvgl/src/misc/lv_area.c ****     /*Get the smaller area from 'a1_p' and 'a2_p'*/
 337              		.loc 1 95 1 is_stmt 1 view -0
 338              		.cfi_startproc
 339              		@ args = 0, pretend = 0, frame = 0
 340              		@ frame_needed = 0, uses_anonymous_args = 0
 341              		@ link register save eliminated.
  95:Drivers/lvgl/src/misc/lv_area.c ****     /*Get the smaller area from 'a1_p' and 'a2_p'*/
 342              		.loc 1 95 1 is_stmt 0 view .LVU95
 343 0000 70B4     		push	{r4, r5, r6}
 344              	.LCFI0:
 345              		.cfi_def_cfa_offset 12
 346              		.cfi_offset 4, -12
 347              		.cfi_offset 5, -8
 348              		.cfi_offset 6, -4
  97:Drivers/lvgl/src/misc/lv_area.c ****     res_p->y1 = LV_MAX(a1_p->y1, a2_p->y1);
 349              		.loc 1 97 5 is_stmt 1 view .LVU96
  97:Drivers/lvgl/src/misc/lv_area.c ****     res_p->y1 = LV_MAX(a1_p->y1, a2_p->y1);
 350              		.loc 1 97 17 is_stmt 0 view .LVU97
 351 0002 1468     		ldr	r4, [r2]
 352 0004 0B68     		ldr	r3, [r1]
 353 0006 9C42     		cmp	r4, r3
 354 0008 B8BF     		it	lt
 355 000a 1C46     		movlt	r4, r3
  97:Drivers/lvgl/src/misc/lv_area.c ****     res_p->y1 = LV_MAX(a1_p->y1, a2_p->y1);
 356              		.loc 1 97 15 view .LVU98
 357 000c 0460     		str	r4, [r0]
  98:Drivers/lvgl/src/misc/lv_area.c ****     res_p->x2 = LV_MIN(a1_p->x2, a2_p->x2);
 358              		.loc 1 98 5 is_stmt 1 view .LVU99
  98:Drivers/lvgl/src/misc/lv_area.c ****     res_p->x2 = LV_MIN(a1_p->x2, a2_p->x2);
 359              		.loc 1 98 17 is_stmt 0 view .LVU100
 360 000e 5568     		ldr	r5, [r2, #4]
 361 0010 4B68     		ldr	r3, [r1, #4]
 362 0012 9D42     		cmp	r5, r3
 363 0014 B8BF     		it	lt
 364 0016 1D46     		movlt	r5, r3
ARM GAS  /tmp/ccFrlMqd.s 			page 19


  98:Drivers/lvgl/src/misc/lv_area.c ****     res_p->x2 = LV_MIN(a1_p->x2, a2_p->x2);
 365              		.loc 1 98 15 view .LVU101
 366 0018 4560     		str	r5, [r0, #4]
  99:Drivers/lvgl/src/misc/lv_area.c ****     res_p->y2 = LV_MIN(a1_p->y2, a2_p->y2);
 367              		.loc 1 99 5 is_stmt 1 view .LVU102
  99:Drivers/lvgl/src/misc/lv_area.c ****     res_p->y2 = LV_MIN(a1_p->y2, a2_p->y2);
 368              		.loc 1 99 17 is_stmt 0 view .LVU103
 369 001a 9368     		ldr	r3, [r2, #8]
 370 001c 8E68     		ldr	r6, [r1, #8]
 371 001e B342     		cmp	r3, r6
 372 0020 A8BF     		it	ge
 373 0022 3346     		movge	r3, r6
  99:Drivers/lvgl/src/misc/lv_area.c ****     res_p->y2 = LV_MIN(a1_p->y2, a2_p->y2);
 374              		.loc 1 99 15 view .LVU104
 375 0024 8360     		str	r3, [r0, #8]
 100:Drivers/lvgl/src/misc/lv_area.c **** 
 376              		.loc 1 100 5 is_stmt 1 view .LVU105
 100:Drivers/lvgl/src/misc/lv_area.c **** 
 377              		.loc 1 100 17 is_stmt 0 view .LVU106
 378 0026 D268     		ldr	r2, [r2, #12]
 379              	.LVL26:
 100:Drivers/lvgl/src/misc/lv_area.c **** 
 380              		.loc 1 100 17 view .LVU107
 381 0028 C968     		ldr	r1, [r1, #12]
 382              	.LVL27:
 100:Drivers/lvgl/src/misc/lv_area.c **** 
 383              		.loc 1 100 17 view .LVU108
 384 002a 8A42     		cmp	r2, r1
 385 002c A8BF     		it	ge
 386 002e 0A46     		movge	r2, r1
 100:Drivers/lvgl/src/misc/lv_area.c **** 
 387              		.loc 1 100 15 view .LVU109
 388 0030 C260     		str	r2, [r0, #12]
 103:Drivers/lvgl/src/misc/lv_area.c ****     if((res_p->x1 > res_p->x2) || (res_p->y1 > res_p->y2)) {
 389              		.loc 1 103 5 is_stmt 1 view .LVU110
 390              	.LVL28:
 104:Drivers/lvgl/src/misc/lv_area.c ****         union_ok = false;
 391              		.loc 1 104 5 view .LVU111
 104:Drivers/lvgl/src/misc/lv_area.c ****         union_ok = false;
 392              		.loc 1 104 7 is_stmt 0 view .LVU112
 393 0032 9C42     		cmp	r4, r3
 394 0034 03DC     		bgt	.L14
 104:Drivers/lvgl/src/misc/lv_area.c ****         union_ok = false;
 395              		.loc 1 104 32 discriminator 1 view .LVU113
 396 0036 9542     		cmp	r5, r2
 397 0038 04DC     		bgt	.L15
 103:Drivers/lvgl/src/misc/lv_area.c ****     if((res_p->x1 > res_p->x2) || (res_p->y1 > res_p->y2)) {
 398              		.loc 1 103 10 view .LVU114
 399 003a 0120     		movs	r0, #1
 400              	.LVL29:
 103:Drivers/lvgl/src/misc/lv_area.c ****     if((res_p->x1 > res_p->x2) || (res_p->y1 > res_p->y2)) {
 401              		.loc 1 103 10 view .LVU115
 402 003c 00E0     		b	.L13
 403              	.LVL30:
 404              	.L14:
 105:Drivers/lvgl/src/misc/lv_area.c ****     }
 405              		.loc 1 105 18 view .LVU116
ARM GAS  /tmp/ccFrlMqd.s 			page 20


 406 003e 0020     		movs	r0, #0
 407              	.LVL31:
 408              	.L13:
 108:Drivers/lvgl/src/misc/lv_area.c **** }
 409              		.loc 1 108 5 is_stmt 1 view .LVU117
 109:Drivers/lvgl/src/misc/lv_area.c **** 
 410              		.loc 1 109 1 is_stmt 0 view .LVU118
 411 0040 70BC     		pop	{r4, r5, r6}
 412              	.LCFI1:
 413              		.cfi_remember_state
 414              		.cfi_restore 6
 415              		.cfi_restore 5
 416              		.cfi_restore 4
 417              		.cfi_def_cfa_offset 0
 418 0042 7047     		bx	lr
 419              	.LVL32:
 420              	.L15:
 421              	.LCFI2:
 422              		.cfi_restore_state
 105:Drivers/lvgl/src/misc/lv_area.c ****     }
 423              		.loc 1 105 18 view .LVU119
 424 0044 0020     		movs	r0, #0
 425              	.LVL33:
 105:Drivers/lvgl/src/misc/lv_area.c ****     }
 426              		.loc 1 105 18 view .LVU120
 427 0046 FBE7     		b	.L13
 428              		.cfi_endproc
 429              	.LFE193:
 431              		.section	.text.lv_area_join,"ax",%progbits
 432              		.align	1
 433              		.global	lv_area_join
 434              		.syntax unified
 435              		.thumb
 436              		.thumb_func
 438              	lv_area_join:
 439              	.LVL34:
 440              	.LFB195:
 177:Drivers/lvgl/src/misc/lv_area.c ****     a_res_p->x1 = LV_MIN(a1_p->x1, a2_p->x1);
 441              		.loc 1 177 1 is_stmt 1 view -0
 442              		.cfi_startproc
 443              		@ args = 0, pretend = 0, frame = 0
 444              		@ frame_needed = 0, uses_anonymous_args = 0
 445              		@ link register save eliminated.
 177:Drivers/lvgl/src/misc/lv_area.c ****     a_res_p->x1 = LV_MIN(a1_p->x1, a2_p->x1);
 446              		.loc 1 177 1 is_stmt 0 view .LVU122
 447 0000 10B4     		push	{r4}
 448              	.LCFI3:
 449              		.cfi_def_cfa_offset 4
 450              		.cfi_offset 4, -4
 178:Drivers/lvgl/src/misc/lv_area.c ****     a_res_p->y1 = LV_MIN(a1_p->y1, a2_p->y1);
 451              		.loc 1 178 5 is_stmt 1 view .LVU123
 178:Drivers/lvgl/src/misc/lv_area.c ****     a_res_p->y1 = LV_MIN(a1_p->y1, a2_p->y1);
 452              		.loc 1 178 19 is_stmt 0 view .LVU124
 453 0002 1368     		ldr	r3, [r2]
 454 0004 0C68     		ldr	r4, [r1]
 455 0006 A342     		cmp	r3, r4
 456 0008 A8BF     		it	ge
ARM GAS  /tmp/ccFrlMqd.s 			page 21


 457 000a 2346     		movge	r3, r4
 178:Drivers/lvgl/src/misc/lv_area.c ****     a_res_p->y1 = LV_MIN(a1_p->y1, a2_p->y1);
 458              		.loc 1 178 17 view .LVU125
 459 000c 0360     		str	r3, [r0]
 179:Drivers/lvgl/src/misc/lv_area.c ****     a_res_p->x2 = LV_MAX(a1_p->x2, a2_p->x2);
 460              		.loc 1 179 5 is_stmt 1 view .LVU126
 179:Drivers/lvgl/src/misc/lv_area.c ****     a_res_p->x2 = LV_MAX(a1_p->x2, a2_p->x2);
 461              		.loc 1 179 19 is_stmt 0 view .LVU127
 462 000e 5368     		ldr	r3, [r2, #4]
 463 0010 4C68     		ldr	r4, [r1, #4]
 464 0012 A342     		cmp	r3, r4
 465 0014 A8BF     		it	ge
 466 0016 2346     		movge	r3, r4
 179:Drivers/lvgl/src/misc/lv_area.c ****     a_res_p->x2 = LV_MAX(a1_p->x2, a2_p->x2);
 467              		.loc 1 179 17 view .LVU128
 468 0018 4360     		str	r3, [r0, #4]
 180:Drivers/lvgl/src/misc/lv_area.c ****     a_res_p->y2 = LV_MAX(a1_p->y2, a2_p->y2);
 469              		.loc 1 180 5 is_stmt 1 view .LVU129
 180:Drivers/lvgl/src/misc/lv_area.c ****     a_res_p->y2 = LV_MAX(a1_p->y2, a2_p->y2);
 470              		.loc 1 180 19 is_stmt 0 view .LVU130
 471 001a 9368     		ldr	r3, [r2, #8]
 472 001c 8C68     		ldr	r4, [r1, #8]
 473 001e A342     		cmp	r3, r4
 474 0020 B8BF     		it	lt
 475 0022 2346     		movlt	r3, r4
 180:Drivers/lvgl/src/misc/lv_area.c ****     a_res_p->y2 = LV_MAX(a1_p->y2, a2_p->y2);
 476              		.loc 1 180 17 view .LVU131
 477 0024 8360     		str	r3, [r0, #8]
 181:Drivers/lvgl/src/misc/lv_area.c **** }
 478              		.loc 1 181 5 is_stmt 1 view .LVU132
 181:Drivers/lvgl/src/misc/lv_area.c **** }
 479              		.loc 1 181 19 is_stmt 0 view .LVU133
 480 0026 D368     		ldr	r3, [r2, #12]
 481 0028 CA68     		ldr	r2, [r1, #12]
 482              	.LVL35:
 181:Drivers/lvgl/src/misc/lv_area.c **** }
 483              		.loc 1 181 19 view .LVU134
 484 002a 9342     		cmp	r3, r2
 485 002c B8BF     		it	lt
 486 002e 1346     		movlt	r3, r2
 181:Drivers/lvgl/src/misc/lv_area.c **** }
 487              		.loc 1 181 17 view .LVU135
 488 0030 C360     		str	r3, [r0, #12]
 182:Drivers/lvgl/src/misc/lv_area.c **** 
 489              		.loc 1 182 1 view .LVU136
 490 0032 5DF8044B 		ldr	r4, [sp], #4
 491              	.LCFI4:
 492              		.cfi_restore 4
 493              		.cfi_def_cfa_offset 0
 494 0036 7047     		bx	lr
 495              		.cfi_endproc
 496              	.LFE195:
 498              		.section	.text.lv_area_is_on,"ax",%progbits
 499              		.align	1
 500              		.global	lv_area_is_on
 501              		.syntax unified
 502              		.thumb
ARM GAS  /tmp/ccFrlMqd.s 			page 22


 503              		.thumb_func
 505              	lv_area_is_on:
 506              	.LVL36:
 507              	.LFB197:
 245:Drivers/lvgl/src/misc/lv_area.c ****     if((a1_p->x1 <= a2_p->x2) && (a1_p->x2 >= a2_p->x1) && (a1_p->y1 <= a2_p->y2) && (a1_p->y2 >= a
 508              		.loc 1 245 1 is_stmt 1 view -0
 509              		.cfi_startproc
 510              		@ args = 0, pretend = 0, frame = 0
 511              		@ frame_needed = 0, uses_anonymous_args = 0
 512              		@ link register save eliminated.
 246:Drivers/lvgl/src/misc/lv_area.c ****         return true;
 513              		.loc 1 246 5 view .LVU138
 246:Drivers/lvgl/src/misc/lv_area.c ****         return true;
 514              		.loc 1 246 13 is_stmt 0 view .LVU139
 515 0000 0268     		ldr	r2, [r0]
 246:Drivers/lvgl/src/misc/lv_area.c ****         return true;
 516              		.loc 1 246 25 view .LVU140
 517 0002 8B68     		ldr	r3, [r1, #8]
 246:Drivers/lvgl/src/misc/lv_area.c ****         return true;
 518              		.loc 1 246 7 view .LVU141
 519 0004 9A42     		cmp	r2, r3
 520 0006 0DDC     		bgt	.L21
 246:Drivers/lvgl/src/misc/lv_area.c ****         return true;
 521              		.loc 1 246 39 discriminator 1 view .LVU142
 522 0008 8268     		ldr	r2, [r0, #8]
 246:Drivers/lvgl/src/misc/lv_area.c ****         return true;
 523              		.loc 1 246 51 discriminator 1 view .LVU143
 524 000a 0B68     		ldr	r3, [r1]
 246:Drivers/lvgl/src/misc/lv_area.c ****         return true;
 525              		.loc 1 246 31 discriminator 1 view .LVU144
 526 000c 9A42     		cmp	r2, r3
 527 000e 0BDB     		blt	.L22
 246:Drivers/lvgl/src/misc/lv_area.c ****         return true;
 528              		.loc 1 246 65 discriminator 2 view .LVU145
 529 0010 4268     		ldr	r2, [r0, #4]
 246:Drivers/lvgl/src/misc/lv_area.c ****         return true;
 530              		.loc 1 246 77 discriminator 2 view .LVU146
 531 0012 CB68     		ldr	r3, [r1, #12]
 246:Drivers/lvgl/src/misc/lv_area.c ****         return true;
 532              		.loc 1 246 57 discriminator 2 view .LVU147
 533 0014 9A42     		cmp	r2, r3
 534 0016 09DC     		bgt	.L23
 246:Drivers/lvgl/src/misc/lv_area.c ****         return true;
 535              		.loc 1 246 91 discriminator 3 view .LVU148
 536 0018 C268     		ldr	r2, [r0, #12]
 246:Drivers/lvgl/src/misc/lv_area.c ****         return true;
 537              		.loc 1 246 103 discriminator 3 view .LVU149
 538 001a 4B68     		ldr	r3, [r1, #4]
 246:Drivers/lvgl/src/misc/lv_area.c ****         return true;
 539              		.loc 1 246 83 discriminator 3 view .LVU150
 540 001c 9A42     		cmp	r2, r3
 541 001e 07DA     		bge	.L24
 250:Drivers/lvgl/src/misc/lv_area.c ****     }
 542              		.loc 1 250 16 view .LVU151
 543 0020 0020     		movs	r0, #0
 544              	.LVL37:
 250:Drivers/lvgl/src/misc/lv_area.c ****     }
ARM GAS  /tmp/ccFrlMqd.s 			page 23


 545              		.loc 1 250 16 view .LVU152
 546 0022 7047     		bx	lr
 547              	.LVL38:
 548              	.L21:
 250:Drivers/lvgl/src/misc/lv_area.c ****     }
 549              		.loc 1 250 16 view .LVU153
 550 0024 0020     		movs	r0, #0
 551              	.LVL39:
 250:Drivers/lvgl/src/misc/lv_area.c ****     }
 552              		.loc 1 250 16 view .LVU154
 553 0026 7047     		bx	lr
 554              	.LVL40:
 555              	.L22:
 250:Drivers/lvgl/src/misc/lv_area.c ****     }
 556              		.loc 1 250 16 view .LVU155
 557 0028 0020     		movs	r0, #0
 558              	.LVL41:
 250:Drivers/lvgl/src/misc/lv_area.c ****     }
 559              		.loc 1 250 16 view .LVU156
 560 002a 7047     		bx	lr
 561              	.LVL42:
 562              	.L23:
 250:Drivers/lvgl/src/misc/lv_area.c ****     }
 563              		.loc 1 250 16 view .LVU157
 564 002c 0020     		movs	r0, #0
 565              	.LVL43:
 250:Drivers/lvgl/src/misc/lv_area.c ****     }
 566              		.loc 1 250 16 view .LVU158
 567 002e 7047     		bx	lr
 568              	.LVL44:
 569              	.L24:
 247:Drivers/lvgl/src/misc/lv_area.c ****     }
 570              		.loc 1 247 16 view .LVU159
 571 0030 0120     		movs	r0, #1
 572              	.LVL45:
 252:Drivers/lvgl/src/misc/lv_area.c **** 
 573              		.loc 1 252 1 view .LVU160
 574 0032 7047     		bx	lr
 575              		.cfi_endproc
 576              	.LFE197:
 578              		.section	.text.lv_area_is_equal,"ax",%progbits
 579              		.align	1
 580              		.global	lv_area_is_equal
 581              		.syntax unified
 582              		.thumb
 583              		.thumb_func
 585              	lv_area_is_equal:
 586              	.LVL46:
 587              	.LFB200:
 312:Drivers/lvgl/src/misc/lv_area.c ****     return a->x1 == b->x1 && a->x2 == b->x2 && a->y1 == b->y1 && a->y2 == b->y2;
 588              		.loc 1 312 1 is_stmt 1 view -0
 589              		.cfi_startproc
 590              		@ args = 0, pretend = 0, frame = 0
 591              		@ frame_needed = 0, uses_anonymous_args = 0
 592              		@ link register save eliminated.
 313:Drivers/lvgl/src/misc/lv_area.c **** }
 593              		.loc 1 313 5 view .LVU162
ARM GAS  /tmp/ccFrlMqd.s 			page 24


 313:Drivers/lvgl/src/misc/lv_area.c **** }
 594              		.loc 1 313 13 is_stmt 0 view .LVU163
 595 0000 0268     		ldr	r2, [r0]
 313:Drivers/lvgl/src/misc/lv_area.c **** }
 596              		.loc 1 313 22 view .LVU164
 597 0002 0B68     		ldr	r3, [r1]
 313:Drivers/lvgl/src/misc/lv_area.c **** }
 598              		.loc 1 313 63 view .LVU165
 599 0004 9A42     		cmp	r2, r3
 600 0006 01D0     		beq	.L31
 313:Drivers/lvgl/src/misc/lv_area.c **** }
 601              		.loc 1 313 63 discriminator 8 view .LVU166
 602 0008 0020     		movs	r0, #0
 603              	.LVL47:
 313:Drivers/lvgl/src/misc/lv_area.c **** }
 604              		.loc 1 313 63 discriminator 8 view .LVU167
 605 000a 7047     		bx	lr
 606              	.LVL48:
 607              	.L31:
 313:Drivers/lvgl/src/misc/lv_area.c **** }
 608              		.loc 1 313 31 discriminator 1 view .LVU168
 609 000c 8268     		ldr	r2, [r0, #8]
 313:Drivers/lvgl/src/misc/lv_area.c **** }
 610              		.loc 1 313 40 discriminator 1 view .LVU169
 611 000e 8B68     		ldr	r3, [r1, #8]
 313:Drivers/lvgl/src/misc/lv_area.c **** }
 612              		.loc 1 313 27 discriminator 1 view .LVU170
 613 0010 9A42     		cmp	r2, r3
 614 0012 01D0     		beq	.L32
 313:Drivers/lvgl/src/misc/lv_area.c **** }
 615              		.loc 1 313 63 discriminator 8 view .LVU171
 616 0014 0020     		movs	r0, #0
 617              	.LVL49:
 313:Drivers/lvgl/src/misc/lv_area.c **** }
 618              		.loc 1 313 63 discriminator 8 view .LVU172
 619 0016 7047     		bx	lr
 620              	.LVL50:
 621              	.L32:
 313:Drivers/lvgl/src/misc/lv_area.c **** }
 622              		.loc 1 313 49 discriminator 3 view .LVU173
 623 0018 4268     		ldr	r2, [r0, #4]
 313:Drivers/lvgl/src/misc/lv_area.c **** }
 624              		.loc 1 313 58 discriminator 3 view .LVU174
 625 001a 4B68     		ldr	r3, [r1, #4]
 313:Drivers/lvgl/src/misc/lv_area.c **** }
 626              		.loc 1 313 45 discriminator 3 view .LVU175
 627 001c 9A42     		cmp	r2, r3
 628 001e 01D0     		beq	.L33
 313:Drivers/lvgl/src/misc/lv_area.c **** }
 629              		.loc 1 313 63 discriminator 8 view .LVU176
 630 0020 0020     		movs	r0, #0
 631              	.LVL51:
 313:Drivers/lvgl/src/misc/lv_area.c **** }
 632              		.loc 1 313 63 discriminator 8 view .LVU177
 633 0022 7047     		bx	lr
 634              	.LVL52:
 635              	.L33:
ARM GAS  /tmp/ccFrlMqd.s 			page 25


 313:Drivers/lvgl/src/misc/lv_area.c **** }
 636              		.loc 1 313 67 discriminator 5 view .LVU178
 637 0024 C268     		ldr	r2, [r0, #12]
 313:Drivers/lvgl/src/misc/lv_area.c **** }
 638              		.loc 1 313 76 discriminator 5 view .LVU179
 639 0026 CB68     		ldr	r3, [r1, #12]
 313:Drivers/lvgl/src/misc/lv_area.c **** }
 640              		.loc 1 313 63 discriminator 5 view .LVU180
 641 0028 9A42     		cmp	r2, r3
 642 002a 01D0     		beq	.L30
 313:Drivers/lvgl/src/misc/lv_area.c **** }
 643              		.loc 1 313 63 discriminator 8 view .LVU181
 644 002c 0020     		movs	r0, #0
 645              	.LVL53:
 313:Drivers/lvgl/src/misc/lv_area.c **** }
 646              		.loc 1 313 63 discriminator 8 view .LVU182
 647 002e 7047     		bx	lr
 648              	.LVL54:
 649              	.L30:
 313:Drivers/lvgl/src/misc/lv_area.c **** }
 650              		.loc 1 313 63 discriminator 7 view .LVU183
 651 0030 0120     		movs	r0, #1
 652              	.LVL55:
 314:Drivers/lvgl/src/misc/lv_area.c **** 
 653              		.loc 1 314 1 view .LVU184
 654 0032 7047     		bx	lr
 655              		.cfi_endproc
 656              	.LFE200:
 658              		.section	.text.lv_point_array_transform,"ax",%progbits
 659              		.align	1
 660              		.global	lv_point_array_transform
 661              		.syntax unified
 662              		.thumb
 663              		.thumb_func
 665              	lv_point_array_transform:
 666              	.LVL56:
 667              	.LFB203:
 452:Drivers/lvgl/src/misc/lv_area.c ****     if(angle == 0 && scale_x == 256 && scale_y == 256) {
 668              		.loc 1 452 1 is_stmt 1 view -0
 669              		.cfi_startproc
 670              		@ args = 12, pretend = 0, frame = 24
 671              		@ frame_needed = 0, uses_anonymous_args = 0
 452:Drivers/lvgl/src/misc/lv_area.c ****     if(angle == 0 && scale_x == 256 && scale_y == 256) {
 672              		.loc 1 452 1 is_stmt 0 view .LVU186
 673 0000 2DE9F04F 		push	{r4, r5, r6, r7, r8, r9, r10, fp, lr}
 674              	.LCFI5:
 675              		.cfi_def_cfa_offset 36
 676              		.cfi_offset 4, -36
 677              		.cfi_offset 5, -32
 678              		.cfi_offset 6, -28
 679              		.cfi_offset 7, -24
 680              		.cfi_offset 8, -20
 681              		.cfi_offset 9, -16
 682              		.cfi_offset 10, -12
 683              		.cfi_offset 11, -8
 684              		.cfi_offset 14, -4
 685 0004 87B0     		sub	sp, sp, #28
ARM GAS  /tmp/ccFrlMqd.s 			page 26


 686              	.LCFI6:
 687              		.cfi_def_cfa_offset 64
 688 0006 0446     		mov	r4, r0
 689 0008 0F46     		mov	r7, r1
 690 000a 0193     		str	r3, [sp, #4]
 691 000c DDF84080 		ldr	r8, [sp, #64]
 692 0010 119D     		ldr	r5, [sp, #68]
 693 0012 9DF84810 		ldrb	r1, [sp, #72]	@ zero_extendqisi2
 694              	.LVL57:
 452:Drivers/lvgl/src/misc/lv_area.c ****     if(angle == 0 && scale_x == 256 && scale_y == 256) {
 695              		.loc 1 452 1 view .LVU187
 696 0016 0291     		str	r1, [sp, #8]
 453:Drivers/lvgl/src/misc/lv_area.c ****         return;
 697              		.loc 1 453 5 is_stmt 1 view .LVU188
 453:Drivers/lvgl/src/misc/lv_area.c ****         return;
 698              		.loc 1 453 30 is_stmt 0 view .LVU189
 699 0018 B3F5807F 		cmp	r3, #256
 700 001c 14BF     		ite	ne
 701 001e 4FF0000B 		movne	fp, #0
 702 0022 4FF0010B 		moveq	fp, #1
 453:Drivers/lvgl/src/misc/lv_area.c ****         return;
 703              		.loc 1 453 19 view .LVU190
 704 0026 002A     		cmp	r2, #0
 705 0028 14BF     		ite	ne
 706 002a 0023     		movne	r3, #0
 707 002c 0BF00103 		andeq	r3, fp, #1
 708              	.LVL58:
 453:Drivers/lvgl/src/misc/lv_area.c ****         return;
 709              		.loc 1 453 7 view .LVU191
 710 0030 002B     		cmp	r3, #0
 711 0032 59D0     		beq	.L49
 453:Drivers/lvgl/src/misc/lv_area.c ****         return;
 712              		.loc 1 453 37 discriminator 1 view .LVU192
 713 0034 B8F5807F 		cmp	r8, #256
 714 0038 6DD0     		beq	.L34
 715 003a 0023     		movs	r3, #0
 716 003c 0CE0     		b	.L37
 717              	.LVL59:
 718              	.L38:
 458:Drivers/lvgl/src/misc/lv_area.c ****         points[i].y -= pivot->y;
 719              		.loc 1 458 9 is_stmt 1 view .LVU193
 458:Drivers/lvgl/src/misc/lv_area.c ****         points[i].y -= pivot->y;
 720              		.loc 1 458 15 is_stmt 0 view .LVU194
 721 003e 04EBC300 		add	r0, r4, r3, lsl #3
 458:Drivers/lvgl/src/misc/lv_area.c ****         points[i].y -= pivot->y;
 722              		.loc 1 458 18 view .LVU195
 723 0042 54F83310 		ldr	r1, [r4, r3, lsl #3]
 458:Drivers/lvgl/src/misc/lv_area.c ****         points[i].y -= pivot->y;
 724              		.loc 1 458 29 view .LVU196
 725 0046 2E68     		ldr	r6, [r5]
 458:Drivers/lvgl/src/misc/lv_area.c ****         points[i].y -= pivot->y;
 726              		.loc 1 458 21 view .LVU197
 727 0048 891B     		subs	r1, r1, r6
 728 004a 44F83310 		str	r1, [r4, r3, lsl #3]
 459:Drivers/lvgl/src/misc/lv_area.c **** 
 729              		.loc 1 459 9 is_stmt 1 view .LVU198
 459:Drivers/lvgl/src/misc/lv_area.c **** 
ARM GAS  /tmp/ccFrlMqd.s 			page 27


 730              		.loc 1 459 18 is_stmt 0 view .LVU199
 731 004e 4168     		ldr	r1, [r0, #4]
 459:Drivers/lvgl/src/misc/lv_area.c **** 
 732              		.loc 1 459 29 view .LVU200
 733 0050 6E68     		ldr	r6, [r5, #4]
 459:Drivers/lvgl/src/misc/lv_area.c **** 
 734              		.loc 1 459 21 view .LVU201
 735 0052 891B     		subs	r1, r1, r6
 736 0054 4160     		str	r1, [r0, #4]
 457:Drivers/lvgl/src/misc/lv_area.c ****         points[i].x -= pivot->x;
 737              		.loc 1 457 28 is_stmt 1 discriminator 3 view .LVU202
 738 0056 0133     		adds	r3, r3, #1
 739              	.LVL60:
 740              	.L37:
 457:Drivers/lvgl/src/misc/lv_area.c ****         points[i].x -= pivot->x;
 741              		.loc 1 457 18 discriminator 1 view .LVU203
 742 0058 BB42     		cmp	r3, r7
 743 005a F0D3     		bcc	.L38
 463:Drivers/lvgl/src/misc/lv_area.c ****         for(i = 0; i < count; i++) {
 744              		.loc 1 463 5 view .LVU204
 463:Drivers/lvgl/src/misc/lv_area.c ****         for(i = 0; i < count; i++) {
 745              		.loc 1 463 7 is_stmt 0 view .LVU205
 746 005c 002A     		cmp	r2, #0
 747 005e 5DD0     		beq	.L53
 471:Drivers/lvgl/src/misc/lv_area.c ****     if(angle_limited > 3600) angle_limited -= 3600;
 748              		.loc 1 471 5 is_stmt 1 view .LVU206
 749              	.LVL61:
 472:Drivers/lvgl/src/misc/lv_area.c ****     if(angle_limited < 0) angle_limited += 3600;
 750              		.loc 1 472 5 view .LVU207
 472:Drivers/lvgl/src/misc/lv_area.c ****     if(angle_limited < 0) angle_limited += 3600;
 751              		.loc 1 472 7 is_stmt 0 view .LVU208
 752 0060 B2F5616F 		cmp	r2, #3600
 753 0064 5DDD     		ble	.L42
 472:Drivers/lvgl/src/misc/lv_area.c ****     if(angle_limited < 0) angle_limited += 3600;
 754              		.loc 1 472 30 is_stmt 1 discriminator 1 view .LVU209
 472:Drivers/lvgl/src/misc/lv_area.c ****     if(angle_limited < 0) angle_limited += 3600;
 755              		.loc 1 472 44 is_stmt 0 discriminator 1 view .LVU210
 756 0066 A2F56162 		sub	r2, r2, #3600
 757              	.LVL62:
 473:Drivers/lvgl/src/misc/lv_area.c **** 
 758              		.loc 1 473 5 is_stmt 1 view .LVU211
 759              	.L43:
 475:Drivers/lvgl/src/misc/lv_area.c ****     int32_t angle_high = angle_low + 1;
 760              		.loc 1 475 5 view .LVU212
 475:Drivers/lvgl/src/misc/lv_area.c ****     int32_t angle_high = angle_low + 1;
 761              		.loc 1 475 13 is_stmt 0 view .LVU213
 762 006a DFF86CA1 		ldr	r10, .L54
 763 006e 8AFB0213 		smull	r1, r3, r10, r2
 764              	.LVL63:
 475:Drivers/lvgl/src/misc/lv_area.c ****     int32_t angle_high = angle_low + 1;
 765              		.loc 1 475 13 view .LVU214
 766 0072 4FEAE279 		asr	r9, r2, #31
 767 0076 C9EBA309 		rsb	r9, r9, r3, asr #2
 768              	.LVL64:
 476:Drivers/lvgl/src/misc/lv_area.c ****     int32_t angle_rem = angle_limited  - (angle_low * 10);
 769              		.loc 1 476 5 is_stmt 1 view .LVU215
 476:Drivers/lvgl/src/misc/lv_area.c ****     int32_t angle_rem = angle_limited  - (angle_low * 10);
ARM GAS  /tmp/ccFrlMqd.s 			page 28


 770              		.loc 1 476 13 is_stmt 0 view .LVU216
 771 007a 09F10103 		add	r3, r9, #1
 772 007e 0393     		str	r3, [sp, #12]
 773              	.LVL65:
 477:Drivers/lvgl/src/misc/lv_area.c **** 
 774              		.loc 1 477 5 is_stmt 1 view .LVU217
 477:Drivers/lvgl/src/misc/lv_area.c **** 
 775              		.loc 1 477 13 is_stmt 0 view .LVU218
 776 0080 6FF00903 		mvn	r3, #9
 777              	.LVL66:
 477:Drivers/lvgl/src/misc/lv_area.c **** 
 778              		.loc 1 477 13 view .LVU219
 779 0084 03FB0926 		mla	r6, r3, r9, r2
 780              	.LVL67:
 479:Drivers/lvgl/src/misc/lv_area.c ****     int32_t s2 = lv_trigo_sin(angle_high);
 781              		.loc 1 479 5 is_stmt 1 view .LVU220
 479:Drivers/lvgl/src/misc/lv_area.c ****     int32_t s2 = lv_trigo_sin(angle_high);
 782              		.loc 1 479 18 is_stmt 0 view .LVU221
 783 0088 0FFA89F0 		sxth	r0, r9
 784 008c FFF7FEFF 		bl	lv_trigo_sin
 785              	.LVL68:
 479:Drivers/lvgl/src/misc/lv_area.c ****     int32_t s2 = lv_trigo_sin(angle_high);
 786              		.loc 1 479 18 view .LVU222
 787 0090 0490     		str	r0, [sp, #16]
 788              	.LVL69:
 480:Drivers/lvgl/src/misc/lv_area.c **** 
 789              		.loc 1 480 5 is_stmt 1 view .LVU223
 480:Drivers/lvgl/src/misc/lv_area.c **** 
 790              		.loc 1 480 18 is_stmt 0 view .LVU224
 791 0092 BDF90C00 		ldrsh	r0, [sp, #12]
 792              	.LVL70:
 480:Drivers/lvgl/src/misc/lv_area.c **** 
 793              		.loc 1 480 18 view .LVU225
 794 0096 FFF7FEFF 		bl	lv_trigo_sin
 795              	.LVL71:
 796 009a 0590     		str	r0, [sp, #20]
 797              	.LVL72:
 482:Drivers/lvgl/src/misc/lv_area.c ****     int32_t c2 = lv_trigo_sin(angle_high + 90);
 798              		.loc 1 482 5 is_stmt 1 view .LVU226
 482:Drivers/lvgl/src/misc/lv_area.c ****     int32_t c2 = lv_trigo_sin(angle_high + 90);
 799              		.loc 1 482 41 is_stmt 0 view .LVU227
 800 009c 09F15A00 		add	r0, r9, #90
 801              	.LVL73:
 482:Drivers/lvgl/src/misc/lv_area.c ****     int32_t c2 = lv_trigo_sin(angle_high + 90);
 802              		.loc 1 482 18 view .LVU228
 803 00a0 00B2     		sxth	r0, r0
 804 00a2 FFF7FEFF 		bl	lv_trigo_sin
 805              	.LVL74:
 806 00a6 8146     		mov	r9, r0
 807              	.LVL75:
 483:Drivers/lvgl/src/misc/lv_area.c **** 
 808              		.loc 1 483 5 is_stmt 1 view .LVU229
 483:Drivers/lvgl/src/misc/lv_area.c **** 
 809              		.loc 1 483 42 is_stmt 0 view .LVU230
 810 00a8 039B     		ldr	r3, [sp, #12]
 811 00aa 03F15A00 		add	r0, r3, #90
 812              	.LVL76:
ARM GAS  /tmp/ccFrlMqd.s 			page 29


 483:Drivers/lvgl/src/misc/lv_area.c **** 
 813              		.loc 1 483 18 view .LVU231
 814 00ae 00B2     		sxth	r0, r0
 815 00b0 FFF7FEFF 		bl	lv_trigo_sin
 816              	.LVL77:
 485:Drivers/lvgl/src/misc/lv_area.c ****     sinma = sinma >> (LV_TRIGO_SHIFT - LV_TRANSFORM_TRIGO_SHIFT);
 817              		.loc 1 485 5 is_stmt 1 view .LVU232
 485:Drivers/lvgl/src/misc/lv_area.c ****     sinma = sinma >> (LV_TRIGO_SHIFT - LV_TRANSFORM_TRIGO_SHIFT);
 818              		.loc 1 485 31 is_stmt 0 view .LVU233
 819 00b4 C6F10A03 		rsb	r3, r6, #10
 485:Drivers/lvgl/src/misc/lv_area.c ****     sinma = sinma >> (LV_TRIGO_SHIFT - LV_TRANSFORM_TRIGO_SHIFT);
 820              		.loc 1 485 49 view .LVU234
 821 00b8 0599     		ldr	r1, [sp, #20]
 822 00ba 06FB01F1 		mul	r1, r6, r1
 485:Drivers/lvgl/src/misc/lv_area.c ****     sinma = sinma >> (LV_TRIGO_SHIFT - LV_TRANSFORM_TRIGO_SHIFT);
 823              		.loc 1 485 44 view .LVU235
 824 00be 049A     		ldr	r2, [sp, #16]
 825 00c0 02FB0311 		mla	r1, r2, r3, r1
 485:Drivers/lvgl/src/misc/lv_area.c ****     sinma = sinma >> (LV_TRIGO_SHIFT - LV_TRANSFORM_TRIGO_SHIFT);
 826              		.loc 1 485 13 view .LVU236
 827 00c4 8AFB01C2 		smull	ip, r2, r10, r1
 828 00c8 C917     		asrs	r1, r1, #31
 829 00ca C1EBA201 		rsb	r1, r1, r2, asr #2
 830              	.LVL78:
 486:Drivers/lvgl/src/misc/lv_area.c ****     int32_t cosma = (c1 * (10 - angle_rem) + c2 * angle_rem) / 10;
 831              		.loc 1 486 5 is_stmt 1 view .LVU237
 486:Drivers/lvgl/src/misc/lv_area.c ****     int32_t cosma = (c1 * (10 - angle_rem) + c2 * angle_rem) / 10;
 832              		.loc 1 486 11 is_stmt 0 view .LVU238
 833 00ce 4911     		asrs	r1, r1, #5
 834              	.LVL79:
 487:Drivers/lvgl/src/misc/lv_area.c ****     cosma = cosma >> (LV_TRIGO_SHIFT - LV_TRANSFORM_TRIGO_SHIFT);
 835              		.loc 1 487 5 is_stmt 1 view .LVU239
 487:Drivers/lvgl/src/misc/lv_area.c ****     cosma = cosma >> (LV_TRIGO_SHIFT - LV_TRANSFORM_TRIGO_SHIFT);
 836              		.loc 1 487 49 is_stmt 0 view .LVU240
 837 00d0 00FB06F6 		mul	r6, r0, r6
 838              	.LVL80:
 487:Drivers/lvgl/src/misc/lv_area.c ****     cosma = cosma >> (LV_TRIGO_SHIFT - LV_TRANSFORM_TRIGO_SHIFT);
 839              		.loc 1 487 44 view .LVU241
 840 00d4 09FB0366 		mla	r6, r9, r3, r6
 487:Drivers/lvgl/src/misc/lv_area.c ****     cosma = cosma >> (LV_TRIGO_SHIFT - LV_TRANSFORM_TRIGO_SHIFT);
 841              		.loc 1 487 13 view .LVU242
 842 00d8 8AFB063A 		smull	r3, r10, r10, r6
 843 00dc F217     		asrs	r2, r6, #31
 844 00de C2EBAA02 		rsb	r2, r2, r10, asr #2
 845              	.LVL81:
 488:Drivers/lvgl/src/misc/lv_area.c **** 
 846              		.loc 1 488 5 is_stmt 1 view .LVU243
 488:Drivers/lvgl/src/misc/lv_area.c **** 
 847              		.loc 1 488 11 is_stmt 0 view .LVU244
 848 00e2 5211     		asrs	r2, r2, #5
 849              	.LVL82:
 490:Drivers/lvgl/src/misc/lv_area.c ****         int32_t x = points[i].x;
 850              		.loc 1 490 5 is_stmt 1 view .LVU245
 490:Drivers/lvgl/src/misc/lv_area.c ****         int32_t x = points[i].x;
 851              		.loc 1 490 11 is_stmt 0 view .LVU246
 852 00e4 0023     		movs	r3, #0
 490:Drivers/lvgl/src/misc/lv_area.c ****         int32_t x = points[i].x;
ARM GAS  /tmp/ccFrlMqd.s 			page 30


 853              		.loc 1 490 5 view .LVU247
 854 00e6 3BE0     		b	.L44
 855              	.LVL83:
 856              	.L49:
 490:Drivers/lvgl/src/misc/lv_area.c ****         int32_t x = points[i].x;
 857              		.loc 1 490 5 view .LVU248
 858 00e8 0023     		movs	r3, #0
 859 00ea B5E7     		b	.L37
 860              	.LVL84:
 861              	.L41:
 465:Drivers/lvgl/src/misc/lv_area.c ****             points[i].y = (((int32_t)(points[i].y) * scale_y) >> 8) + pivot->y;
 862              		.loc 1 465 13 is_stmt 1 view .LVU249
 465:Drivers/lvgl/src/misc/lv_area.c ****             points[i].y = (((int32_t)(points[i].y) * scale_y) >> 8) + pivot->y;
 863              		.loc 1 465 45 is_stmt 0 view .LVU250
 864 00ec 04EBC300 		add	r0, r4, r3, lsl #3
 465:Drivers/lvgl/src/misc/lv_area.c ****             points[i].y = (((int32_t)(points[i].y) * scale_y) >> 8) + pivot->y;
 865              		.loc 1 465 48 view .LVU251
 866 00f0 54F83320 		ldr	r2, [r4, r3, lsl #3]
 465:Drivers/lvgl/src/misc/lv_area.c ****             points[i].y = (((int32_t)(points[i].y) * scale_y) >> 8) + pivot->y;
 867              		.loc 1 465 52 view .LVU252
 868 00f4 06FB02F1 		mul	r1, r6, r2
 465:Drivers/lvgl/src/misc/lv_area.c ****             points[i].y = (((int32_t)(points[i].y) * scale_y) >> 8) + pivot->y;
 869              		.loc 1 465 76 view .LVU253
 870 00f8 2A68     		ldr	r2, [r5]
 465:Drivers/lvgl/src/misc/lv_area.c ****             points[i].y = (((int32_t)(points[i].y) * scale_y) >> 8) + pivot->y;
 871              		.loc 1 465 69 view .LVU254
 872 00fa 02EB2122 		add	r2, r2, r1, asr #8
 465:Drivers/lvgl/src/misc/lv_area.c ****             points[i].y = (((int32_t)(points[i].y) * scale_y) >> 8) + pivot->y;
 873              		.loc 1 465 25 view .LVU255
 874 00fe 44F83320 		str	r2, [r4, r3, lsl #3]
 466:Drivers/lvgl/src/misc/lv_area.c ****         }
 875              		.loc 1 466 13 is_stmt 1 view .LVU256
 466:Drivers/lvgl/src/misc/lv_area.c ****         }
 876              		.loc 1 466 48 is_stmt 0 view .LVU257
 877 0102 4268     		ldr	r2, [r0, #4]
 466:Drivers/lvgl/src/misc/lv_area.c ****         }
 878              		.loc 1 466 52 view .LVU258
 879 0104 08FB02F1 		mul	r1, r8, r2
 466:Drivers/lvgl/src/misc/lv_area.c ****         }
 880              		.loc 1 466 76 view .LVU259
 881 0108 6A68     		ldr	r2, [r5, #4]
 466:Drivers/lvgl/src/misc/lv_area.c ****         }
 882              		.loc 1 466 69 view .LVU260
 883 010a 02EB2122 		add	r2, r2, r1, asr #8
 466:Drivers/lvgl/src/misc/lv_area.c ****         }
 884              		.loc 1 466 25 view .LVU261
 885 010e 4260     		str	r2, [r0, #4]
 464:Drivers/lvgl/src/misc/lv_area.c ****             points[i].x = (((int32_t)(points[i].x) * scale_x) >> 8) + pivot->x;
 886              		.loc 1 464 32 is_stmt 1 discriminator 3 view .LVU262
 887 0110 0133     		adds	r3, r3, #1
 888              	.LVL85:
 889              	.L39:
 464:Drivers/lvgl/src/misc/lv_area.c ****             points[i].x = (((int32_t)(points[i].x) * scale_x) >> 8) + pivot->x;
 890              		.loc 1 464 22 discriminator 1 view .LVU263
 891 0112 BB42     		cmp	r3, r7
 892 0114 EAD3     		bcc	.L41
 893              	.LVL86:
ARM GAS  /tmp/ccFrlMqd.s 			page 31


 894              	.L34:
 510:Drivers/lvgl/src/misc/lv_area.c **** 
 895              		.loc 1 510 1 is_stmt 0 view .LVU264
 896 0116 07B0     		add	sp, sp, #28
 897              	.LCFI7:
 898              		.cfi_remember_state
 899              		.cfi_def_cfa_offset 36
 900              		@ sp needed
 901 0118 BDE8F08F 		pop	{r4, r5, r6, r7, r8, r9, r10, fp, pc}
 902              	.LVL87:
 903              	.L53:
 904              	.LCFI8:
 905              		.cfi_restore_state
 464:Drivers/lvgl/src/misc/lv_area.c ****             points[i].x = (((int32_t)(points[i].x) * scale_x) >> 8) + pivot->x;
 906              		.loc 1 464 15 view .LVU265
 907 011c 0023     		movs	r3, #0
 908              	.LVL88:
 464:Drivers/lvgl/src/misc/lv_area.c ****             points[i].x = (((int32_t)(points[i].x) * scale_x) >> 8) + pivot->x;
 909              		.loc 1 464 15 view .LVU266
 910 011e 019E     		ldr	r6, [sp, #4]
 911 0120 F7E7     		b	.L39
 912              	.LVL89:
 913              	.L42:
 473:Drivers/lvgl/src/misc/lv_area.c **** 
 914              		.loc 1 473 5 is_stmt 1 view .LVU267
 473:Drivers/lvgl/src/misc/lv_area.c **** 
 915              		.loc 1 473 7 is_stmt 0 view .LVU268
 916 0122 002A     		cmp	r2, #0
 917 0124 A1DA     		bge	.L43
 473:Drivers/lvgl/src/misc/lv_area.c **** 
 918              		.loc 1 473 27 is_stmt 1 discriminator 1 view .LVU269
 473:Drivers/lvgl/src/misc/lv_area.c **** 
 919              		.loc 1 473 41 is_stmt 0 discriminator 1 view .LVU270
 920 0126 02F56162 		add	r2, r2, #3600
 921              	.LVL90:
 473:Drivers/lvgl/src/misc/lv_area.c **** 
 922              		.loc 1 473 41 discriminator 1 view .LVU271
 923 012a 9EE7     		b	.L43
 924              	.LVL91:
 925              	.L45:
 926              	.LBB2:
 498:Drivers/lvgl/src/misc/lv_area.c ****                 x *= scale_x;
 927              		.loc 1 498 13 is_stmt 1 view .LVU272
 498:Drivers/lvgl/src/misc/lv_area.c ****                 x *= scale_x;
 928              		.loc 1 498 15 is_stmt 0 view .LVU273
 929 012c 029E     		ldr	r6, [sp, #8]
 930 012e 002E     		cmp	r6, #0
 931 0130 3AD0     		beq	.L47
 499:Drivers/lvgl/src/misc/lv_area.c ****                 y *= scale_y;
 932              		.loc 1 499 17 is_stmt 1 view .LVU274
 499:Drivers/lvgl/src/misc/lv_area.c ****                 y *= scale_y;
 933              		.loc 1 499 19 is_stmt 0 view .LVU275
 934 0132 019E     		ldr	r6, [sp, #4]
 935 0134 0EFB06FE 		mul	lr, lr, r6
 936              	.LVL92:
 500:Drivers/lvgl/src/misc/lv_area.c ****                 points[i].x = (((cosma * x - sinma * y)) >> (LV_TRANSFORM_TRIGO_SHIFT + 8)) + pivot
 937              		.loc 1 500 17 is_stmt 1 view .LVU276
ARM GAS  /tmp/ccFrlMqd.s 			page 32


 500:Drivers/lvgl/src/misc/lv_area.c ****                 points[i].x = (((cosma * x - sinma * y)) >> (LV_TRANSFORM_TRIGO_SHIFT + 8)) + pivot
 938              		.loc 1 500 19 is_stmt 0 view .LVU277
 939 0138 0CFB08FC 		mul	ip, ip, r8
 940              	.LVL93:
 501:Drivers/lvgl/src/misc/lv_area.c ****                 points[i].y = (((sinma * x + cosma * y)) >> (LV_TRANSFORM_TRIGO_SHIFT + 8)) + pivot
 941              		.loc 1 501 17 is_stmt 1 view .LVU278
 501:Drivers/lvgl/src/misc/lv_area.c ****                 points[i].y = (((sinma * x + cosma * y)) >> (LV_TRANSFORM_TRIGO_SHIFT + 8)) + pivot
 942              		.loc 1 501 40 is_stmt 0 view .LVU279
 943 013c 0EFB02FA 		mul	r10, lr, r2
 501:Drivers/lvgl/src/misc/lv_area.c ****                 points[i].y = (((sinma * x + cosma * y)) >> (LV_TRANSFORM_TRIGO_SHIFT + 8)) + pivot
 944              		.loc 1 501 44 view .LVU280
 945 0140 0CFB11AA 		mls	r10, ip, r1, r10
 501:Drivers/lvgl/src/misc/lv_area.c ****                 points[i].y = (((sinma * x + cosma * y)) >> (LV_TRANSFORM_TRIGO_SHIFT + 8)) + pivot
 946              		.loc 1 501 100 view .LVU281
 947 0144 2E68     		ldr	r6, [r5]
 501:Drivers/lvgl/src/misc/lv_area.c ****                 points[i].y = (((sinma * x + cosma * y)) >> (LV_TRANSFORM_TRIGO_SHIFT + 8)) + pivot
 948              		.loc 1 501 93 view .LVU282
 949 0146 06EBAA46 		add	r6, r6, r10, asr #18
 501:Drivers/lvgl/src/misc/lv_area.c ****                 points[i].y = (((sinma * x + cosma * y)) >> (LV_TRANSFORM_TRIGO_SHIFT + 8)) + pivot
 950              		.loc 1 501 29 view .LVU283
 951 014a 44F80960 		str	r6, [r4, r9]
 502:Drivers/lvgl/src/misc/lv_area.c ****             }
 952              		.loc 1 502 17 is_stmt 1 view .LVU284
 502:Drivers/lvgl/src/misc/lv_area.c ****             }
 953              		.loc 1 502 52 is_stmt 0 view .LVU285
 954 014e 0CFB02FC 		mul	ip, ip, r2
 955              	.LVL94:
 502:Drivers/lvgl/src/misc/lv_area.c ****             }
 956              		.loc 1 502 44 view .LVU286
 957 0152 0EFB01CC 		mla	ip, lr, r1, ip
 502:Drivers/lvgl/src/misc/lv_area.c ****             }
 958              		.loc 1 502 100 view .LVU287
 959 0156 6E68     		ldr	r6, [r5, #4]
 502:Drivers/lvgl/src/misc/lv_area.c ****             }
 960              		.loc 1 502 93 view .LVU288
 961 0158 06EBAC46 		add	r6, r6, ip, asr #18
 502:Drivers/lvgl/src/misc/lv_area.c ****             }
 962              		.loc 1 502 29 view .LVU289
 963 015c 4660     		str	r6, [r0, #4]
 964              	.LVL95:
 965              	.L46:
 502:Drivers/lvgl/src/misc/lv_area.c ****             }
 966              		.loc 1 502 29 view .LVU290
 967              	.LBE2:
 490:Drivers/lvgl/src/misc/lv_area.c ****         int32_t x = points[i].x;
 968              		.loc 1 490 28 is_stmt 1 discriminator 2 view .LVU291
 969 015e 0133     		adds	r3, r3, #1
 970              	.LVL96:
 971              	.L44:
 490:Drivers/lvgl/src/misc/lv_area.c ****         int32_t x = points[i].x;
 972              		.loc 1 490 18 discriminator 1 view .LVU292
 973 0160 BB42     		cmp	r3, r7
 974 0162 D8D2     		bcs	.L34
 975              	.LBB3:
 491:Drivers/lvgl/src/misc/lv_area.c ****         int32_t y = points[i].y;
 976              		.loc 1 491 9 view .LVU293
 491:Drivers/lvgl/src/misc/lv_area.c ****         int32_t y = points[i].y;
ARM GAS  /tmp/ccFrlMqd.s 			page 33


 977              		.loc 1 491 27 is_stmt 0 view .LVU294
 978 0164 4FEAC309 		lsl	r9, r3, #3
 979 0168 04EBC300 		add	r0, r4, r3, lsl #3
 491:Drivers/lvgl/src/misc/lv_area.c ****         int32_t y = points[i].y;
 980              		.loc 1 491 17 view .LVU295
 981 016c 54F833E0 		ldr	lr, [r4, r3, lsl #3]
 982              	.LVL97:
 492:Drivers/lvgl/src/misc/lv_area.c ****         if(scale_x == 256 && scale_y == 256) {
 983              		.loc 1 492 9 is_stmt 1 view .LVU296
 492:Drivers/lvgl/src/misc/lv_area.c ****         if(scale_x == 256 && scale_y == 256) {
 984              		.loc 1 492 17 is_stmt 0 view .LVU297
 985 0170 D0F804C0 		ldr	ip, [r0, #4]
 986              	.LVL98:
 493:Drivers/lvgl/src/misc/lv_area.c ****             points[i].x = ((cosma * x - sinma * y) >> LV_TRANSFORM_TRIGO_SHIFT) + pivot->x;
 987              		.loc 1 493 9 is_stmt 1 view .LVU298
 493:Drivers/lvgl/src/misc/lv_area.c ****             points[i].x = ((cosma * x - sinma * y) >> LV_TRANSFORM_TRIGO_SHIFT) + pivot->x;
 988              		.loc 1 493 27 is_stmt 0 view .LVU299
 989 0174 B8F5807F 		cmp	r8, #256
 990 0178 14BF     		ite	ne
 991 017a 0026     		movne	r6, #0
 992 017c 0BF00106 		andeq	r6, fp, #1
 493:Drivers/lvgl/src/misc/lv_area.c ****             points[i].x = ((cosma * x - sinma * y) >> LV_TRANSFORM_TRIGO_SHIFT) + pivot->x;
 993              		.loc 1 493 11 view .LVU300
 994 0180 002E     		cmp	r6, #0
 995 0182 D3D0     		beq	.L45
 494:Drivers/lvgl/src/misc/lv_area.c ****             points[i].y = ((sinma * x + cosma * y) >> LV_TRANSFORM_TRIGO_SHIFT) + pivot->y;
 996              		.loc 1 494 13 is_stmt 1 view .LVU301
 494:Drivers/lvgl/src/misc/lv_area.c ****             points[i].y = ((sinma * x + cosma * y) >> LV_TRANSFORM_TRIGO_SHIFT) + pivot->y;
 997              		.loc 1 494 35 is_stmt 0 view .LVU302
 998 0184 0EFB02F9 		mul	r9, lr, r2
 494:Drivers/lvgl/src/misc/lv_area.c ****             points[i].y = ((sinma * x + cosma * y) >> LV_TRANSFORM_TRIGO_SHIFT) + pivot->y;
 999              		.loc 1 494 39 view .LVU303
 1000 0188 0CFB1199 		mls	r9, ip, r1, r9
 494:Drivers/lvgl/src/misc/lv_area.c ****             points[i].y = ((sinma * x + cosma * y) >> LV_TRANSFORM_TRIGO_SHIFT) + pivot->y;
 1001              		.loc 1 494 88 view .LVU304
 1002 018c 2E68     		ldr	r6, [r5]
 494:Drivers/lvgl/src/misc/lv_area.c ****             points[i].y = ((sinma * x + cosma * y) >> LV_TRANSFORM_TRIGO_SHIFT) + pivot->y;
 1003              		.loc 1 494 81 view .LVU305
 1004 018e 06EBA926 		add	r6, r6, r9, asr #10
 494:Drivers/lvgl/src/misc/lv_area.c ****             points[i].y = ((sinma * x + cosma * y) >> LV_TRANSFORM_TRIGO_SHIFT) + pivot->y;
 1005              		.loc 1 494 25 view .LVU306
 1006 0192 44F83360 		str	r6, [r4, r3, lsl #3]
 495:Drivers/lvgl/src/misc/lv_area.c ****         }
 1007              		.loc 1 495 13 is_stmt 1 view .LVU307
 495:Drivers/lvgl/src/misc/lv_area.c ****         }
 1008              		.loc 1 495 47 is_stmt 0 view .LVU308
 1009 0196 0CFB02FC 		mul	ip, ip, r2
 1010              	.LVL99:
 495:Drivers/lvgl/src/misc/lv_area.c ****         }
 1011              		.loc 1 495 39 view .LVU309
 1012 019a 0EFB01CC 		mla	ip, lr, r1, ip
 495:Drivers/lvgl/src/misc/lv_area.c ****         }
 1013              		.loc 1 495 88 view .LVU310
 1014 019e 6E68     		ldr	r6, [r5, #4]
 495:Drivers/lvgl/src/misc/lv_area.c ****         }
 1015              		.loc 1 495 81 view .LVU311
 1016 01a0 06EBAC26 		add	r6, r6, ip, asr #10
ARM GAS  /tmp/ccFrlMqd.s 			page 34


 495:Drivers/lvgl/src/misc/lv_area.c ****         }
 1017              		.loc 1 495 25 view .LVU312
 1018 01a4 4660     		str	r6, [r0, #4]
 1019 01a6 DAE7     		b	.L46
 1020              	.LVL100:
 1021              	.L47:
 505:Drivers/lvgl/src/misc/lv_area.c ****                 points[i].y = (((sinma * x + cosma * y) * scale_y) >> (LV_TRANSFORM_TRIGO_SHIFT + 8
 1022              		.loc 1 505 17 is_stmt 1 view .LVU313
 505:Drivers/lvgl/src/misc/lv_area.c ****                 points[i].y = (((sinma * x + cosma * y) * scale_y) >> (LV_TRANSFORM_TRIGO_SHIFT + 8
 1023              		.loc 1 505 40 is_stmt 0 view .LVU314
 1024 01a8 0EFB02FA 		mul	r10, lr, r2
 505:Drivers/lvgl/src/misc/lv_area.c ****                 points[i].y = (((sinma * x + cosma * y) * scale_y) >> (LV_TRANSFORM_TRIGO_SHIFT + 8
 1025              		.loc 1 505 44 view .LVU315
 1026 01ac 0CFB11AA 		mls	r10, ip, r1, r10
 505:Drivers/lvgl/src/misc/lv_area.c ****                 points[i].y = (((sinma * x + cosma * y) * scale_y) >> (LV_TRANSFORM_TRIGO_SHIFT + 8
 1027              		.loc 1 505 57 view .LVU316
 1028 01b0 019E     		ldr	r6, [sp, #4]
 1029 01b2 06FB0AFA 		mul	r10, r6, r10
 505:Drivers/lvgl/src/misc/lv_area.c ****                 points[i].y = (((sinma * x + cosma * y) * scale_y) >> (LV_TRANSFORM_TRIGO_SHIFT + 8
 1030              		.loc 1 505 110 view .LVU317
 1031 01b6 2E68     		ldr	r6, [r5]
 505:Drivers/lvgl/src/misc/lv_area.c ****                 points[i].y = (((sinma * x + cosma * y) * scale_y) >> (LV_TRANSFORM_TRIGO_SHIFT + 8
 1032              		.loc 1 505 103 view .LVU318
 1033 01b8 06EBAA46 		add	r6, r6, r10, asr #18
 505:Drivers/lvgl/src/misc/lv_area.c ****                 points[i].y = (((sinma * x + cosma * y) * scale_y) >> (LV_TRANSFORM_TRIGO_SHIFT + 8
 1034              		.loc 1 505 29 view .LVU319
 1035 01bc 44F80960 		str	r6, [r4, r9]
 506:Drivers/lvgl/src/misc/lv_area.c ****             }
 1036              		.loc 1 506 17 is_stmt 1 view .LVU320
 506:Drivers/lvgl/src/misc/lv_area.c ****             }
 1037              		.loc 1 506 52 is_stmt 0 view .LVU321
 1038 01c0 0CFB02FC 		mul	ip, ip, r2
 1039              	.LVL101:
 506:Drivers/lvgl/src/misc/lv_area.c ****             }
 1040              		.loc 1 506 44 view .LVU322
 1041 01c4 0EFB01CC 		mla	ip, lr, r1, ip
 506:Drivers/lvgl/src/misc/lv_area.c ****             }
 1042              		.loc 1 506 57 view .LVU323
 1043 01c8 08FB0CFC 		mul	ip, r8, ip
 506:Drivers/lvgl/src/misc/lv_area.c ****             }
 1044              		.loc 1 506 110 view .LVU324
 1045 01cc 6E68     		ldr	r6, [r5, #4]
 506:Drivers/lvgl/src/misc/lv_area.c ****             }
 1046              		.loc 1 506 103 view .LVU325
 1047 01ce 06EBAC46 		add	r6, r6, ip, asr #18
 506:Drivers/lvgl/src/misc/lv_area.c ****             }
 1048              		.loc 1 506 29 view .LVU326
 1049 01d2 4660     		str	r6, [r0, #4]
 1050 01d4 C3E7     		b	.L46
 1051              	.L55:
 1052 01d6 00BF     		.align	2
 1053              	.L54:
 1054 01d8 67666666 		.word	1717986919
 1055              	.LBE3:
 1056              		.cfi_endproc
 1057              	.LFE203:
 1059              		.section	.text.lv_point_transform,"ax",%progbits
ARM GAS  /tmp/ccFrlMqd.s 			page 35


 1060              		.align	1
 1061              		.global	lv_point_transform
 1062              		.syntax unified
 1063              		.thumb
 1064              		.thumb_func
 1066              	lv_point_transform:
 1067              	.LVL102:
 1068              	.LFB202:
 445:Drivers/lvgl/src/misc/lv_area.c ****     lv_point_array_transform(point, 1, angle, scale_x, scale_y, pivot, zoom_first);
 1069              		.loc 1 445 1 is_stmt 1 view -0
 1070              		.cfi_startproc
 1071              		@ args = 8, pretend = 0, frame = 0
 1072              		@ frame_needed = 0, uses_anonymous_args = 0
 445:Drivers/lvgl/src/misc/lv_area.c ****     lv_point_array_transform(point, 1, angle, scale_x, scale_y, pivot, zoom_first);
 1073              		.loc 1 445 1 is_stmt 0 view .LVU328
 1074 0000 10B5     		push	{r4, lr}
 1075              	.LCFI9:
 1076              		.cfi_def_cfa_offset 8
 1077              		.cfi_offset 4, -8
 1078              		.cfi_offset 14, -4
 1079 0002 84B0     		sub	sp, sp, #16
 1080              	.LCFI10:
 1081              		.cfi_def_cfa_offset 24
 446:Drivers/lvgl/src/misc/lv_area.c **** }
 1082              		.loc 1 446 5 is_stmt 1 view .LVU329
 1083 0004 9DF81C40 		ldrb	r4, [sp, #28]	@ zero_extendqisi2
 1084 0008 0294     		str	r4, [sp, #8]
 1085 000a 069C     		ldr	r4, [sp, #24]
 1086 000c 0194     		str	r4, [sp, #4]
 1087 000e 0093     		str	r3, [sp]
 1088 0010 1346     		mov	r3, r2
 1089              	.LVL103:
 446:Drivers/lvgl/src/misc/lv_area.c **** }
 1090              		.loc 1 446 5 is_stmt 0 view .LVU330
 1091 0012 0A46     		mov	r2, r1
 1092              	.LVL104:
 446:Drivers/lvgl/src/misc/lv_area.c **** }
 1093              		.loc 1 446 5 view .LVU331
 1094 0014 0121     		movs	r1, #1
 1095              	.LVL105:
 446:Drivers/lvgl/src/misc/lv_area.c **** }
 1096              		.loc 1 446 5 view .LVU332
 1097 0016 FFF7FEFF 		bl	lv_point_array_transform
 1098              	.LVL106:
 447:Drivers/lvgl/src/misc/lv_area.c **** 
 1099              		.loc 1 447 1 view .LVU333
 1100 001a 04B0     		add	sp, sp, #16
 1101              	.LCFI11:
 1102              		.cfi_def_cfa_offset 8
 1103              		@ sp needed
 1104 001c 10BD     		pop	{r4, pc}
 447:Drivers/lvgl/src/misc/lv_area.c **** 
 1105              		.loc 1 447 1 view .LVU334
 1106              		.cfi_endproc
 1107              	.LFE202:
 1109              		.section	.text.lv_area_get_width,"ax",%progbits
 1110              		.align	1
ARM GAS  /tmp/ccFrlMqd.s 			page 36


 1111              		.global	lv_area_get_width
 1112              		.syntax unified
 1113              		.thumb
 1114              		.thumb_func
 1116              	lv_area_get_width:
 1117              	.LVL107:
 1118              	.LFB204:
 513:Drivers/lvgl/src/misc/lv_area.c ****     return (int32_t)(area_p->x2 - area_p->x1 + 1);
 1119              		.loc 1 513 1 is_stmt 1 view -0
 1120              		.cfi_startproc
 1121              		@ args = 0, pretend = 0, frame = 0
 1122              		@ frame_needed = 0, uses_anonymous_args = 0
 1123              		@ link register save eliminated.
 514:Drivers/lvgl/src/misc/lv_area.c **** }
 1124              		.loc 1 514 5 view .LVU336
 514:Drivers/lvgl/src/misc/lv_area.c **** }
 1125              		.loc 1 514 28 is_stmt 0 view .LVU337
 1126 0000 8368     		ldr	r3, [r0, #8]
 514:Drivers/lvgl/src/misc/lv_area.c **** }
 1127              		.loc 1 514 41 view .LVU338
 1128 0002 0068     		ldr	r0, [r0]
 1129              	.LVL108:
 514:Drivers/lvgl/src/misc/lv_area.c **** }
 1130              		.loc 1 514 33 view .LVU339
 1131 0004 181A     		subs	r0, r3, r0
 515:Drivers/lvgl/src/misc/lv_area.c **** 
 1132              		.loc 1 515 1 view .LVU340
 1133 0006 0130     		adds	r0, r0, #1
 1134 0008 7047     		bx	lr
 1135              		.cfi_endproc
 1136              	.LFE204:
 1138              		.section	.text.lv_area_get_height,"ax",%progbits
 1139              		.align	1
 1140              		.global	lv_area_get_height
 1141              		.syntax unified
 1142              		.thumb
 1143              		.thumb_func
 1145              	lv_area_get_height:
 1146              	.LVL109:
 1147              	.LFB205:
 518:Drivers/lvgl/src/misc/lv_area.c ****     return (int32_t)(area_p->y2 - area_p->y1 + 1);
 1148              		.loc 1 518 1 is_stmt 1 view -0
 1149              		.cfi_startproc
 1150              		@ args = 0, pretend = 0, frame = 0
 1151              		@ frame_needed = 0, uses_anonymous_args = 0
 1152              		@ link register save eliminated.
 519:Drivers/lvgl/src/misc/lv_area.c **** }
 1153              		.loc 1 519 5 view .LVU342
 519:Drivers/lvgl/src/misc/lv_area.c **** }
 1154              		.loc 1 519 28 is_stmt 0 view .LVU343
 1155 0000 C368     		ldr	r3, [r0, #12]
 519:Drivers/lvgl/src/misc/lv_area.c **** }
 1156              		.loc 1 519 41 view .LVU344
 1157 0002 4068     		ldr	r0, [r0, #4]
 1158              	.LVL110:
 519:Drivers/lvgl/src/misc/lv_area.c **** }
 1159              		.loc 1 519 33 view .LVU345
ARM GAS  /tmp/ccFrlMqd.s 			page 37


 1160 0004 181A     		subs	r0, r3, r0
 520:Drivers/lvgl/src/misc/lv_area.c **** 
 1161              		.loc 1 520 1 view .LVU346
 1162 0006 0130     		adds	r0, r0, #1
 1163 0008 7047     		bx	lr
 1164              		.cfi_endproc
 1165              	.LFE205:
 1167              		.section	.text.lv_area_set_pos,"ax",%progbits
 1168              		.align	1
 1169              		.global	lv_area_set_pos
 1170              		.syntax unified
 1171              		.thumb
 1172              		.thumb_func
 1174              	lv_area_set_pos:
 1175              	.LVL111:
 1176              	.LFB189:
  60:Drivers/lvgl/src/misc/lv_area.c ****     int32_t w = lv_area_get_width(area_p);
 1177              		.loc 1 60 1 is_stmt 1 view -0
 1178              		.cfi_startproc
 1179              		@ args = 0, pretend = 0, frame = 0
 1180              		@ frame_needed = 0, uses_anonymous_args = 0
  60:Drivers/lvgl/src/misc/lv_area.c ****     int32_t w = lv_area_get_width(area_p);
 1181              		.loc 1 60 1 is_stmt 0 view .LVU348
 1182 0000 2DE9F041 		push	{r4, r5, r6, r7, r8, lr}
 1183              	.LCFI12:
 1184              		.cfi_def_cfa_offset 24
 1185              		.cfi_offset 4, -24
 1186              		.cfi_offset 5, -20
 1187              		.cfi_offset 6, -16
 1188              		.cfi_offset 7, -12
 1189              		.cfi_offset 8, -8
 1190              		.cfi_offset 14, -4
 1191 0004 0446     		mov	r4, r0
 1192 0006 8846     		mov	r8, r1
 1193 0008 1746     		mov	r7, r2
  61:Drivers/lvgl/src/misc/lv_area.c ****     int32_t h = lv_area_get_height(area_p);
 1194              		.loc 1 61 5 is_stmt 1 view .LVU349
  61:Drivers/lvgl/src/misc/lv_area.c ****     int32_t h = lv_area_get_height(area_p);
 1195              		.loc 1 61 17 is_stmt 0 view .LVU350
 1196 000a FFF7FEFF 		bl	lv_area_get_width
 1197              	.LVL112:
  61:Drivers/lvgl/src/misc/lv_area.c ****     int32_t h = lv_area_get_height(area_p);
 1198              		.loc 1 61 17 view .LVU351
 1199 000e 0646     		mov	r6, r0
 1200              	.LVL113:
  62:Drivers/lvgl/src/misc/lv_area.c ****     area_p->x1   = x;
 1201              		.loc 1 62 5 is_stmt 1 view .LVU352
  62:Drivers/lvgl/src/misc/lv_area.c ****     area_p->x1   = x;
 1202              		.loc 1 62 17 is_stmt 0 view .LVU353
 1203 0010 2046     		mov	r0, r4
 1204              	.LVL114:
  62:Drivers/lvgl/src/misc/lv_area.c ****     area_p->x1   = x;
 1205              		.loc 1 62 17 view .LVU354
 1206 0012 FFF7FEFF 		bl	lv_area_get_height
 1207              	.LVL115:
 1208 0016 0546     		mov	r5, r0
 1209              	.LVL116:
ARM GAS  /tmp/ccFrlMqd.s 			page 38


  63:Drivers/lvgl/src/misc/lv_area.c ****     area_p->y1   = y;
 1210              		.loc 1 63 5 is_stmt 1 view .LVU355
  63:Drivers/lvgl/src/misc/lv_area.c ****     area_p->y1   = y;
 1211              		.loc 1 63 18 is_stmt 0 view .LVU356
 1212 0018 C4F80080 		str	r8, [r4]
  64:Drivers/lvgl/src/misc/lv_area.c ****     lv_area_set_width(area_p, w);
 1213              		.loc 1 64 5 is_stmt 1 view .LVU357
  64:Drivers/lvgl/src/misc/lv_area.c ****     lv_area_set_width(area_p, w);
 1214              		.loc 1 64 18 is_stmt 0 view .LVU358
 1215 001c 6760     		str	r7, [r4, #4]
  65:Drivers/lvgl/src/misc/lv_area.c ****     lv_area_set_height(area_p, h);
 1216              		.loc 1 65 5 is_stmt 1 view .LVU359
 1217 001e 3146     		mov	r1, r6
 1218 0020 2046     		mov	r0, r4
 1219              	.LVL117:
  65:Drivers/lvgl/src/misc/lv_area.c ****     lv_area_set_height(area_p, h);
 1220              		.loc 1 65 5 is_stmt 0 view .LVU360
 1221 0022 FFF7FEFF 		bl	lv_area_set_width
 1222              	.LVL118:
  66:Drivers/lvgl/src/misc/lv_area.c **** }
 1223              		.loc 1 66 5 is_stmt 1 view .LVU361
 1224 0026 2946     		mov	r1, r5
 1225 0028 2046     		mov	r0, r4
 1226 002a FFF7FEFF 		bl	lv_area_set_height
 1227              	.LVL119:
  67:Drivers/lvgl/src/misc/lv_area.c **** 
 1228              		.loc 1 67 1 is_stmt 0 view .LVU362
 1229 002e BDE8F081 		pop	{r4, r5, r6, r7, r8, pc}
  67:Drivers/lvgl/src/misc/lv_area.c **** 
 1230              		.loc 1 67 1 view .LVU363
 1231              		.cfi_endproc
 1232              	.LFE189:
 1234              		.section	.text.lv_area_is_point_on,"ax",%progbits
 1235              		.align	1
 1236              		.global	lv_area_is_point_on
 1237              		.syntax unified
 1238              		.thumb
 1239              		.thumb_func
 1241              	lv_area_is_point_on:
 1242              	.LVL120:
 1243              	.LFB196:
 185:Drivers/lvgl/src/misc/lv_area.c ****     /*First check the basic area*/
 1244              		.loc 1 185 1 is_stmt 1 view -0
 1245              		.cfi_startproc
 1246              		@ args = 0, pretend = 0, frame = 16
 1247              		@ frame_needed = 0, uses_anonymous_args = 0
 185:Drivers/lvgl/src/misc/lv_area.c ****     /*First check the basic area*/
 1248              		.loc 1 185 1 is_stmt 0 view .LVU365
 1249 0000 2DE9F041 		push	{r4, r5, r6, r7, r8, lr}
 1250              	.LCFI13:
 1251              		.cfi_def_cfa_offset 24
 1252              		.cfi_offset 4, -24
 1253              		.cfi_offset 5, -20
 1254              		.cfi_offset 6, -16
 1255              		.cfi_offset 7, -12
 1256              		.cfi_offset 8, -8
 1257              		.cfi_offset 14, -4
ARM GAS  /tmp/ccFrlMqd.s 			page 39


 1258 0004 84B0     		sub	sp, sp, #16
 1259              	.LCFI14:
 1260              		.cfi_def_cfa_offset 40
 187:Drivers/lvgl/src/misc/lv_area.c ****     if((p_p->x >= a_p->x1 && p_p->x <= a_p->x2) && ((p_p->y >= a_p->y1 && p_p->y <= a_p->y2))) {
 1261              		.loc 1 187 5 is_stmt 1 view .LVU366
 1262              	.LVL121:
 188:Drivers/lvgl/src/misc/lv_area.c ****         is_on_rect = true;
 1263              		.loc 1 188 5 view .LVU367
 188:Drivers/lvgl/src/misc/lv_area.c ****         is_on_rect = true;
 1264              		.loc 1 188 12 is_stmt 0 view .LVU368
 1265 0006 0B68     		ldr	r3, [r1]
 188:Drivers/lvgl/src/misc/lv_area.c ****         is_on_rect = true;
 1266              		.loc 1 188 22 view .LVU369
 1267 0008 0668     		ldr	r6, [r0]
 188:Drivers/lvgl/src/misc/lv_area.c ****         is_on_rect = true;
 1268              		.loc 1 188 7 view .LVU370
 1269 000a B342     		cmp	r3, r6
 1270 000c 7DDB     		blt	.L70
 1271 000e 0446     		mov	r4, r0
 1272 0010 0D46     		mov	r5, r1
 1273 0012 9046     		mov	r8, r2
 188:Drivers/lvgl/src/misc/lv_area.c ****         is_on_rect = true;
 1274              		.loc 1 188 43 discriminator 1 view .LVU371
 1275 0014 8268     		ldr	r2, [r0, #8]
 1276              	.LVL122:
 188:Drivers/lvgl/src/misc/lv_area.c ****         is_on_rect = true;
 1277              		.loc 1 188 27 discriminator 1 view .LVU372
 1278 0016 9342     		cmp	r3, r2
 1279 0018 7BDC     		bgt	.L71
 188:Drivers/lvgl/src/misc/lv_area.c ****         is_on_rect = true;
 1280              		.loc 1 188 57 discriminator 2 view .LVU373
 1281 001a 4B68     		ldr	r3, [r1, #4]
 188:Drivers/lvgl/src/misc/lv_area.c ****         is_on_rect = true;
 1282              		.loc 1 188 67 discriminator 2 view .LVU374
 1283 001c 4268     		ldr	r2, [r0, #4]
 188:Drivers/lvgl/src/misc/lv_area.c ****         is_on_rect = true;
 1284              		.loc 1 188 49 discriminator 2 view .LVU375
 1285 001e 9342     		cmp	r3, r2
 1286 0020 79DB     		blt	.L72
 188:Drivers/lvgl/src/misc/lv_area.c ****         is_on_rect = true;
 1287              		.loc 1 188 88 discriminator 3 view .LVU376
 1288 0022 C268     		ldr	r2, [r0, #12]
 188:Drivers/lvgl/src/misc/lv_area.c ****         is_on_rect = true;
 1289              		.loc 1 188 72 discriminator 3 view .LVU377
 1290 0024 9342     		cmp	r3, r2
 1291 0026 78DC     		bgt	.L73
 189:Drivers/lvgl/src/misc/lv_area.c ****     }
 1292              		.loc 1 189 9 is_stmt 1 view .LVU378
 1293              	.LVL123:
 191:Drivers/lvgl/src/misc/lv_area.c ****         return false;
 1294              		.loc 1 191 5 view .LVU379
 194:Drivers/lvgl/src/misc/lv_area.c ****         /*No radius, it is within the rectangle*/
 1295              		.loc 1 194 5 view .LVU380
 194:Drivers/lvgl/src/misc/lv_area.c ****         /*No radius, it is within the rectangle*/
 1296              		.loc 1 194 7 is_stmt 0 view .LVU381
 1297 0028 B8F1000F 		cmp	r8, #0
 1298 002c 77DD     		ble	.L74
ARM GAS  /tmp/ccFrlMqd.s 			page 40


 198:Drivers/lvgl/src/misc/lv_area.c ****     int32_t h = lv_area_get_height(a_p) / 2;
 1299              		.loc 1 198 5 is_stmt 1 view .LVU382
 198:Drivers/lvgl/src/misc/lv_area.c ****     int32_t h = lv_area_get_height(a_p) / 2;
 1300              		.loc 1 198 17 is_stmt 0 view .LVU383
 1301 002e FFF7FEFF 		bl	lv_area_get_width
 1302              	.LVL124:
 198:Drivers/lvgl/src/misc/lv_area.c ****     int32_t h = lv_area_get_height(a_p) / 2;
 1303              		.loc 1 198 13 discriminator 1 view .LVU384
 1304 0032 0028     		cmp	r0, #0
 1305 0034 24DB     		blt	.L77
 1306              	.L64:
 1307 0036 4710     		asrs	r7, r0, #1
 1308              	.LVL125:
 199:Drivers/lvgl/src/misc/lv_area.c ****     int32_t max_radius = LV_MIN(w, h);
 1309              		.loc 1 199 5 is_stmt 1 view .LVU385
 199:Drivers/lvgl/src/misc/lv_area.c ****     int32_t max_radius = LV_MIN(w, h);
 1310              		.loc 1 199 17 is_stmt 0 view .LVU386
 1311 0038 2046     		mov	r0, r4
 1312 003a FFF7FEFF 		bl	lv_area_get_height
 1313              	.LVL126:
 199:Drivers/lvgl/src/misc/lv_area.c ****     int32_t max_radius = LV_MIN(w, h);
 1314              		.loc 1 199 13 discriminator 1 view .LVU387
 1315 003e 0028     		cmp	r0, #0
 1316 0040 20DB     		blt	.L78
 1317              	.L65:
 1318 0042 4010     		asrs	r0, r0, #1
 1319              	.LVL127:
 200:Drivers/lvgl/src/misc/lv_area.c ****     if(radius > max_radius)
 1320              		.loc 1 200 5 is_stmt 1 view .LVU388
 200:Drivers/lvgl/src/misc/lv_area.c ****     if(radius > max_radius)
 1321              		.loc 1 200 13 is_stmt 0 view .LVU389
 1322 0044 8742     		cmp	r7, r0
 1323 0046 A8BF     		it	ge
 1324 0048 0746     		movge	r7, r0
 1325              	.LVL128:
 201:Drivers/lvgl/src/misc/lv_area.c ****         radius = max_radius;
 1326              		.loc 1 201 5 is_stmt 1 view .LVU390
 201:Drivers/lvgl/src/misc/lv_area.c ****         radius = max_radius;
 1327              		.loc 1 201 7 is_stmt 0 view .LVU391
 1328 004a B845     		cmp	r8, r7
 1329 004c 00DC     		bgt	.L66
 1330 004e 4746     		mov	r7, r8
 1331              	.LVL129:
 1332              	.L66:
 205:Drivers/lvgl/src/misc/lv_area.c ****     /*Top left*/
 1333              		.loc 1 205 5 is_stmt 1 view .LVU392
 207:Drivers/lvgl/src/misc/lv_area.c ****     corner_area.x2 = a_p->x1 + radius;
 1334              		.loc 1 207 5 view .LVU393
 207:Drivers/lvgl/src/misc/lv_area.c ****     corner_area.x2 = a_p->x1 + radius;
 1335              		.loc 1 207 20 is_stmt 0 view .LVU394
 1336 0050 0096     		str	r6, [sp]
 208:Drivers/lvgl/src/misc/lv_area.c ****     corner_area.y1 = a_p->y1;
 1337              		.loc 1 208 5 is_stmt 1 view .LVU395
 208:Drivers/lvgl/src/misc/lv_area.c ****     corner_area.y1 = a_p->y1;
 1338              		.loc 1 208 30 is_stmt 0 view .LVU396
 1339 0052 3E44     		add	r6, r6, r7
 208:Drivers/lvgl/src/misc/lv_area.c ****     corner_area.y1 = a_p->y1;
ARM GAS  /tmp/ccFrlMqd.s 			page 41


 1340              		.loc 1 208 20 view .LVU397
 1341 0054 0296     		str	r6, [sp, #8]
 209:Drivers/lvgl/src/misc/lv_area.c ****     corner_area.y2 = a_p->y1 + radius;
 1342              		.loc 1 209 5 is_stmt 1 view .LVU398
 209:Drivers/lvgl/src/misc/lv_area.c ****     corner_area.y2 = a_p->y1 + radius;
 1343              		.loc 1 209 25 is_stmt 0 view .LVU399
 1344 0056 6368     		ldr	r3, [r4, #4]
 209:Drivers/lvgl/src/misc/lv_area.c ****     corner_area.y2 = a_p->y1 + radius;
 1345              		.loc 1 209 20 view .LVU400
 1346 0058 0193     		str	r3, [sp, #4]
 210:Drivers/lvgl/src/misc/lv_area.c ****     if(lv_area_is_point_on(&corner_area, p_p, 0)) {
 1347              		.loc 1 210 5 is_stmt 1 view .LVU401
 210:Drivers/lvgl/src/misc/lv_area.c ****     if(lv_area_is_point_on(&corner_area, p_p, 0)) {
 1348              		.loc 1 210 30 is_stmt 0 view .LVU402
 1349 005a 3B44     		add	r3, r3, r7
 210:Drivers/lvgl/src/misc/lv_area.c ****     if(lv_area_is_point_on(&corner_area, p_p, 0)) {
 1350              		.loc 1 210 20 view .LVU403
 1351 005c 0393     		str	r3, [sp, #12]
 211:Drivers/lvgl/src/misc/lv_area.c ****         corner_area.x2 += radius;
 1352              		.loc 1 211 5 is_stmt 1 view .LVU404
 211:Drivers/lvgl/src/misc/lv_area.c ****         corner_area.x2 += radius;
 1353              		.loc 1 211 8 is_stmt 0 view .LVU405
 1354 005e 0022     		movs	r2, #0
 1355 0060 2946     		mov	r1, r5
 1356 0062 6846     		mov	r0, sp
 1357              	.LVL130:
 211:Drivers/lvgl/src/misc/lv_area.c ****         corner_area.x2 += radius;
 1358              		.loc 1 211 8 view .LVU406
 1359 0064 FFF7FEFF 		bl	lv_area_is_point_on
 1360              	.LVL131:
 211:Drivers/lvgl/src/misc/lv_area.c ****         corner_area.x2 += radius;
 1361              		.loc 1 211 7 discriminator 1 view .LVU407
 1362 0068 70B1     		cbz	r0, .L67
 212:Drivers/lvgl/src/misc/lv_area.c ****         corner_area.y2 += radius;
 1363              		.loc 1 212 9 is_stmt 1 view .LVU408
 212:Drivers/lvgl/src/misc/lv_area.c ****         corner_area.y2 += radius;
 1364              		.loc 1 212 20 is_stmt 0 view .LVU409
 1365 006a 029B     		ldr	r3, [sp, #8]
 212:Drivers/lvgl/src/misc/lv_area.c ****         corner_area.y2 += radius;
 1366              		.loc 1 212 24 view .LVU410
 1367 006c 3B44     		add	r3, r3, r7
 1368 006e 0293     		str	r3, [sp, #8]
 213:Drivers/lvgl/src/misc/lv_area.c ****         return lv_point_within_circle(&corner_area, p_p);
 1369              		.loc 1 213 9 is_stmt 1 view .LVU411
 213:Drivers/lvgl/src/misc/lv_area.c ****         return lv_point_within_circle(&corner_area, p_p);
 1370              		.loc 1 213 20 is_stmt 0 view .LVU412
 1371 0070 039B     		ldr	r3, [sp, #12]
 213:Drivers/lvgl/src/misc/lv_area.c ****         return lv_point_within_circle(&corner_area, p_p);
 1372              		.loc 1 213 24 view .LVU413
 1373 0072 3B44     		add	r3, r3, r7
 1374 0074 0393     		str	r3, [sp, #12]
 214:Drivers/lvgl/src/misc/lv_area.c ****     }
 1375              		.loc 1 214 9 is_stmt 1 view .LVU414
 214:Drivers/lvgl/src/misc/lv_area.c ****     }
 1376              		.loc 1 214 16 is_stmt 0 view .LVU415
 1377 0076 2946     		mov	r1, r5
 1378 0078 6846     		mov	r0, sp
ARM GAS  /tmp/ccFrlMqd.s 			page 42


 1379 007a FFF7FEFF 		bl	lv_point_within_circle
 1380              	.LVL132:
 1381 007e 45E0     		b	.L63
 1382              	.LVL133:
 1383              	.L77:
 198:Drivers/lvgl/src/misc/lv_area.c ****     int32_t h = lv_area_get_height(a_p) / 2;
 1384              		.loc 1 198 13 discriminator 1 view .LVU416
 1385 0080 0130     		adds	r0, r0, #1
 1386 0082 D8E7     		b	.L64
 1387              	.LVL134:
 1388              	.L78:
 199:Drivers/lvgl/src/misc/lv_area.c ****     int32_t max_radius = LV_MIN(w, h);
 1389              		.loc 1 199 13 discriminator 1 view .LVU417
 1390 0084 0130     		adds	r0, r0, #1
 1391 0086 DCE7     		b	.L65
 1392              	.LVL135:
 1393              	.L67:
 217:Drivers/lvgl/src/misc/lv_area.c ****     corner_area.y2 = a_p->y2;
 1394              		.loc 1 217 5 is_stmt 1 view .LVU418
 217:Drivers/lvgl/src/misc/lv_area.c ****     corner_area.y2 = a_p->y2;
 1395              		.loc 1 217 25 is_stmt 0 view .LVU419
 1396 0088 E368     		ldr	r3, [r4, #12]
 217:Drivers/lvgl/src/misc/lv_area.c ****     corner_area.y2 = a_p->y2;
 1397              		.loc 1 217 30 view .LVU420
 1398 008a DA1B     		subs	r2, r3, r7
 217:Drivers/lvgl/src/misc/lv_area.c ****     corner_area.y2 = a_p->y2;
 1399              		.loc 1 217 20 view .LVU421
 1400 008c 0192     		str	r2, [sp, #4]
 218:Drivers/lvgl/src/misc/lv_area.c ****     if(lv_area_is_point_on(&corner_area, p_p, 0)) {
 1401              		.loc 1 218 5 is_stmt 1 view .LVU422
 218:Drivers/lvgl/src/misc/lv_area.c ****     if(lv_area_is_point_on(&corner_area, p_p, 0)) {
 1402              		.loc 1 218 20 is_stmt 0 view .LVU423
 1403 008e 0393     		str	r3, [sp, #12]
 219:Drivers/lvgl/src/misc/lv_area.c ****         corner_area.x2 += radius;
 1404              		.loc 1 219 5 is_stmt 1 view .LVU424
 219:Drivers/lvgl/src/misc/lv_area.c ****         corner_area.x2 += radius;
 1405              		.loc 1 219 8 is_stmt 0 view .LVU425
 1406 0090 0022     		movs	r2, #0
 1407 0092 2946     		mov	r1, r5
 1408 0094 6846     		mov	r0, sp
 1409 0096 FFF7FEFF 		bl	lv_area_is_point_on
 1410              	.LVL136:
 219:Drivers/lvgl/src/misc/lv_area.c ****         corner_area.x2 += radius;
 1411              		.loc 1 219 7 discriminator 1 view .LVU426
 1412 009a 50B1     		cbz	r0, .L68
 220:Drivers/lvgl/src/misc/lv_area.c ****         corner_area.y1 -= radius;
 1413              		.loc 1 220 9 is_stmt 1 view .LVU427
 220:Drivers/lvgl/src/misc/lv_area.c ****         corner_area.y1 -= radius;
 1414              		.loc 1 220 20 is_stmt 0 view .LVU428
 1415 009c 029B     		ldr	r3, [sp, #8]
 220:Drivers/lvgl/src/misc/lv_area.c ****         corner_area.y1 -= radius;
 1416              		.loc 1 220 24 view .LVU429
 1417 009e 3B44     		add	r3, r3, r7
 1418 00a0 0293     		str	r3, [sp, #8]
 221:Drivers/lvgl/src/misc/lv_area.c ****         return lv_point_within_circle(&corner_area, p_p);
 1419              		.loc 1 221 9 is_stmt 1 view .LVU430
 221:Drivers/lvgl/src/misc/lv_area.c ****         return lv_point_within_circle(&corner_area, p_p);
ARM GAS  /tmp/ccFrlMqd.s 			page 43


 1420              		.loc 1 221 20 is_stmt 0 view .LVU431
 1421 00a2 019B     		ldr	r3, [sp, #4]
 221:Drivers/lvgl/src/misc/lv_area.c ****         return lv_point_within_circle(&corner_area, p_p);
 1422              		.loc 1 221 24 view .LVU432
 1423 00a4 DB1B     		subs	r3, r3, r7
 1424 00a6 0193     		str	r3, [sp, #4]
 222:Drivers/lvgl/src/misc/lv_area.c ****     }
 1425              		.loc 1 222 9 is_stmt 1 view .LVU433
 222:Drivers/lvgl/src/misc/lv_area.c ****     }
 1426              		.loc 1 222 16 is_stmt 0 view .LVU434
 1427 00a8 2946     		mov	r1, r5
 1428 00aa 6846     		mov	r0, sp
 1429 00ac FFF7FEFF 		bl	lv_point_within_circle
 1430              	.LVL137:
 1431 00b0 2CE0     		b	.L63
 1432              	.L68:
 225:Drivers/lvgl/src/misc/lv_area.c ****     corner_area.x2 = a_p->x2;
 1433              		.loc 1 225 5 is_stmt 1 view .LVU435
 225:Drivers/lvgl/src/misc/lv_area.c ****     corner_area.x2 = a_p->x2;
 1434              		.loc 1 225 25 is_stmt 0 view .LVU436
 1435 00b2 A368     		ldr	r3, [r4, #8]
 225:Drivers/lvgl/src/misc/lv_area.c ****     corner_area.x2 = a_p->x2;
 1436              		.loc 1 225 30 view .LVU437
 1437 00b4 DA1B     		subs	r2, r3, r7
 225:Drivers/lvgl/src/misc/lv_area.c ****     corner_area.x2 = a_p->x2;
 1438              		.loc 1 225 20 view .LVU438
 1439 00b6 0092     		str	r2, [sp]
 226:Drivers/lvgl/src/misc/lv_area.c ****     if(lv_area_is_point_on(&corner_area, p_p, 0)) {
 1440              		.loc 1 226 5 is_stmt 1 view .LVU439
 226:Drivers/lvgl/src/misc/lv_area.c ****     if(lv_area_is_point_on(&corner_area, p_p, 0)) {
 1441              		.loc 1 226 20 is_stmt 0 view .LVU440
 1442 00b8 0293     		str	r3, [sp, #8]
 227:Drivers/lvgl/src/misc/lv_area.c ****         corner_area.x1 -= radius;
 1443              		.loc 1 227 5 is_stmt 1 view .LVU441
 227:Drivers/lvgl/src/misc/lv_area.c ****         corner_area.x1 -= radius;
 1444              		.loc 1 227 8 is_stmt 0 view .LVU442
 1445 00ba 0022     		movs	r2, #0
 1446 00bc 2946     		mov	r1, r5
 1447 00be 6846     		mov	r0, sp
 1448 00c0 FFF7FEFF 		bl	lv_area_is_point_on
 1449              	.LVL138:
 227:Drivers/lvgl/src/misc/lv_area.c ****         corner_area.x1 -= radius;
 1450              		.loc 1 227 7 discriminator 1 view .LVU443
 1451 00c4 50B1     		cbz	r0, .L69
 228:Drivers/lvgl/src/misc/lv_area.c ****         corner_area.y1 -= radius;
 1452              		.loc 1 228 9 is_stmt 1 view .LVU444
 228:Drivers/lvgl/src/misc/lv_area.c ****         corner_area.y1 -= radius;
 1453              		.loc 1 228 20 is_stmt 0 view .LVU445
 1454 00c6 009B     		ldr	r3, [sp]
 228:Drivers/lvgl/src/misc/lv_area.c ****         corner_area.y1 -= radius;
 1455              		.loc 1 228 24 view .LVU446
 1456 00c8 DB1B     		subs	r3, r3, r7
 1457 00ca 0093     		str	r3, [sp]
 229:Drivers/lvgl/src/misc/lv_area.c ****         return lv_point_within_circle(&corner_area, p_p);
 1458              		.loc 1 229 9 is_stmt 1 view .LVU447
 229:Drivers/lvgl/src/misc/lv_area.c ****         return lv_point_within_circle(&corner_area, p_p);
 1459              		.loc 1 229 20 is_stmt 0 view .LVU448
ARM GAS  /tmp/ccFrlMqd.s 			page 44


 1460 00cc 019B     		ldr	r3, [sp, #4]
 229:Drivers/lvgl/src/misc/lv_area.c ****         return lv_point_within_circle(&corner_area, p_p);
 1461              		.loc 1 229 24 view .LVU449
 1462 00ce DB1B     		subs	r3, r3, r7
 1463 00d0 0193     		str	r3, [sp, #4]
 230:Drivers/lvgl/src/misc/lv_area.c ****     }
 1464              		.loc 1 230 9 is_stmt 1 view .LVU450
 230:Drivers/lvgl/src/misc/lv_area.c ****     }
 1465              		.loc 1 230 16 is_stmt 0 view .LVU451
 1466 00d2 2946     		mov	r1, r5
 1467 00d4 6846     		mov	r0, sp
 1468 00d6 FFF7FEFF 		bl	lv_point_within_circle
 1469              	.LVL139:
 1470 00da 17E0     		b	.L63
 1471              	.L69:
 233:Drivers/lvgl/src/misc/lv_area.c ****     corner_area.y2 = a_p->y1 + radius;
 1472              		.loc 1 233 5 is_stmt 1 view .LVU452
 233:Drivers/lvgl/src/misc/lv_area.c ****     corner_area.y2 = a_p->y1 + radius;
 1473              		.loc 1 233 25 is_stmt 0 view .LVU453
 1474 00dc 6368     		ldr	r3, [r4, #4]
 233:Drivers/lvgl/src/misc/lv_area.c ****     corner_area.y2 = a_p->y1 + radius;
 1475              		.loc 1 233 20 view .LVU454
 1476 00de 0193     		str	r3, [sp, #4]
 234:Drivers/lvgl/src/misc/lv_area.c ****     if(lv_area_is_point_on(&corner_area, p_p, 0)) {
 1477              		.loc 1 234 5 is_stmt 1 view .LVU455
 234:Drivers/lvgl/src/misc/lv_area.c ****     if(lv_area_is_point_on(&corner_area, p_p, 0)) {
 1478              		.loc 1 234 30 is_stmt 0 view .LVU456
 1479 00e0 3B44     		add	r3, r3, r7
 234:Drivers/lvgl/src/misc/lv_area.c ****     if(lv_area_is_point_on(&corner_area, p_p, 0)) {
 1480              		.loc 1 234 20 view .LVU457
 1481 00e2 0393     		str	r3, [sp, #12]
 235:Drivers/lvgl/src/misc/lv_area.c ****         corner_area.x1 -= radius;
 1482              		.loc 1 235 5 is_stmt 1 view .LVU458
 235:Drivers/lvgl/src/misc/lv_area.c ****         corner_area.x1 -= radius;
 1483              		.loc 1 235 8 is_stmt 0 view .LVU459
 1484 00e4 0022     		movs	r2, #0
 1485 00e6 2946     		mov	r1, r5
 1486 00e8 6846     		mov	r0, sp
 1487 00ea FFF7FEFF 		bl	lv_area_is_point_on
 1488              	.LVL140:
 235:Drivers/lvgl/src/misc/lv_area.c ****         corner_area.x1 -= radius;
 1489              		.loc 1 235 7 discriminator 1 view .LVU460
 1490 00ee 08B9     		cbnz	r0, .L79
 241:Drivers/lvgl/src/misc/lv_area.c **** }
 1491              		.loc 1 241 12 view .LVU461
 1492 00f0 0120     		movs	r0, #1
 1493 00f2 0BE0     		b	.L63
 1494              	.L79:
 236:Drivers/lvgl/src/misc/lv_area.c ****         corner_area.y2 += radius;
 1495              		.loc 1 236 9 is_stmt 1 view .LVU462
 236:Drivers/lvgl/src/misc/lv_area.c ****         corner_area.y2 += radius;
 1496              		.loc 1 236 20 is_stmt 0 view .LVU463
 1497 00f4 009B     		ldr	r3, [sp]
 236:Drivers/lvgl/src/misc/lv_area.c ****         corner_area.y2 += radius;
 1498              		.loc 1 236 24 view .LVU464
 1499 00f6 DB1B     		subs	r3, r3, r7
 1500 00f8 0093     		str	r3, [sp]
ARM GAS  /tmp/ccFrlMqd.s 			page 45


 237:Drivers/lvgl/src/misc/lv_area.c ****         return lv_point_within_circle(&corner_area, p_p);
 1501              		.loc 1 237 9 is_stmt 1 view .LVU465
 237:Drivers/lvgl/src/misc/lv_area.c ****         return lv_point_within_circle(&corner_area, p_p);
 1502              		.loc 1 237 20 is_stmt 0 view .LVU466
 1503 00fa 039B     		ldr	r3, [sp, #12]
 237:Drivers/lvgl/src/misc/lv_area.c ****         return lv_point_within_circle(&corner_area, p_p);
 1504              		.loc 1 237 24 view .LVU467
 1505 00fc 3B44     		add	r3, r3, r7
 1506 00fe 0393     		str	r3, [sp, #12]
 238:Drivers/lvgl/src/misc/lv_area.c ****     }
 1507              		.loc 1 238 9 is_stmt 1 view .LVU468
 238:Drivers/lvgl/src/misc/lv_area.c ****     }
 1508              		.loc 1 238 16 is_stmt 0 view .LVU469
 1509 0100 2946     		mov	r1, r5
 1510 0102 6846     		mov	r0, sp
 1511 0104 FFF7FEFF 		bl	lv_point_within_circle
 1512              	.LVL141:
 1513 0108 00E0     		b	.L63
 1514              	.LVL142:
 1515              	.L70:
 192:Drivers/lvgl/src/misc/lv_area.c ****     /*Now handle potential rounded rectangles*/
 1516              		.loc 1 192 16 view .LVU470
 1517 010a 0020     		movs	r0, #0
 1518              	.LVL143:
 1519              	.L63:
 242:Drivers/lvgl/src/misc/lv_area.c **** 
 1520              		.loc 1 242 1 view .LVU471
 1521 010c 04B0     		add	sp, sp, #16
 1522              	.LCFI15:
 1523              		.cfi_remember_state
 1524              		.cfi_def_cfa_offset 24
 1525              		@ sp needed
 1526 010e BDE8F081 		pop	{r4, r5, r6, r7, r8, pc}
 1527              	.LVL144:
 1528              	.L71:
 1529              	.LCFI16:
 1530              		.cfi_restore_state
 192:Drivers/lvgl/src/misc/lv_area.c ****     /*Now handle potential rounded rectangles*/
 1531              		.loc 1 192 16 view .LVU472
 1532 0112 0020     		movs	r0, #0
 1533              	.LVL145:
 192:Drivers/lvgl/src/misc/lv_area.c ****     /*Now handle potential rounded rectangles*/
 1534              		.loc 1 192 16 view .LVU473
 1535 0114 FAE7     		b	.L63
 1536              	.LVL146:
 1537              	.L72:
 192:Drivers/lvgl/src/misc/lv_area.c ****     /*Now handle potential rounded rectangles*/
 1538              		.loc 1 192 16 view .LVU474
 1539 0116 0020     		movs	r0, #0
 1540              	.LVL147:
 192:Drivers/lvgl/src/misc/lv_area.c ****     /*Now handle potential rounded rectangles*/
 1541              		.loc 1 192 16 view .LVU475
 1542 0118 F8E7     		b	.L63
 1543              	.LVL148:
 1544              	.L73:
 192:Drivers/lvgl/src/misc/lv_area.c ****     /*Now handle potential rounded rectangles*/
 1545              		.loc 1 192 16 view .LVU476
ARM GAS  /tmp/ccFrlMqd.s 			page 46


 1546 011a 0020     		movs	r0, #0
 1547              	.LVL149:
 192:Drivers/lvgl/src/misc/lv_area.c ****     /*Now handle potential rounded rectangles*/
 1548              		.loc 1 192 16 view .LVU477
 1549 011c F6E7     		b	.L63
 1550              	.LVL150:
 1551              	.L74:
 196:Drivers/lvgl/src/misc/lv_area.c ****     }
 1552              		.loc 1 196 16 view .LVU478
 1553 011e 0120     		movs	r0, #1
 1554              	.LVL151:
 196:Drivers/lvgl/src/misc/lv_area.c ****     }
 1555              		.loc 1 196 16 view .LVU479
 1556 0120 F4E7     		b	.L63
 1557              		.cfi_endproc
 1558              	.LFE196:
 1560              		.section	.text.lv_area_align,"ax",%progbits
 1561              		.align	1
 1562              		.global	lv_area_align
 1563              		.syntax unified
 1564              		.thumb
 1565              		.thumb_func
 1567              	lv_area_align:
 1568              	.LVL152:
 1569              	.LFB201:
 317:Drivers/lvgl/src/misc/lv_area.c **** 
 1570              		.loc 1 317 1 is_stmt 1 view -0
 1571              		.cfi_startproc
 1572              		@ args = 4, pretend = 0, frame = 0
 1573              		@ frame_needed = 0, uses_anonymous_args = 0
 317:Drivers/lvgl/src/misc/lv_area.c **** 
 1574              		.loc 1 317 1 is_stmt 0 view .LVU481
 1575 0000 2DE9F041 		push	{r4, r5, r6, r7, r8, lr}
 1576              	.LCFI17:
 1577              		.cfi_def_cfa_offset 24
 1578              		.cfi_offset 4, -24
 1579              		.cfi_offset 5, -20
 1580              		.cfi_offset 6, -16
 1581              		.cfi_offset 7, -12
 1582              		.cfi_offset 8, -8
 1583              		.cfi_offset 14, -4
 1584 0004 0446     		mov	r4, r0
 1585 0006 0E46     		mov	r6, r1
 1586 0008 1F46     		mov	r7, r3
 319:Drivers/lvgl/src/misc/lv_area.c ****     int32_t y;
 1587              		.loc 1 319 5 is_stmt 1 view .LVU482
 320:Drivers/lvgl/src/misc/lv_area.c ****     switch(align) {
 1588              		.loc 1 320 5 view .LVU483
 321:Drivers/lvgl/src/misc/lv_area.c ****         case LV_ALIGN_CENTER:
 1589              		.loc 1 321 5 view .LVU484
 1590 000a 023A     		subs	r2, r2, #2
 1591              	.LVL153:
 321:Drivers/lvgl/src/misc/lv_area.c ****         case LV_ALIGN_CENTER:
 1592              		.loc 1 321 5 is_stmt 0 view .LVU485
 1593 000c 132A     		cmp	r2, #19
 1594 000e 00F27281 		bhi	.L123
 1595 0012 DFE812F0 		tbh	[pc, r2, lsl #1]
ARM GAS  /tmp/ccFrlMqd.s 			page 47


 1596              	.LVL154:
 1597              	.L83:
 1598 0016 4F00     		.2byte	(.L102-.L83)/2
 1599 0018 6200     		.2byte	(.L101-.L83)/2
 1600 001a 6C00     		.2byte	(.L100-.L83)/2
 1601 001c 7600     		.2byte	(.L99-.L83)/2
 1602 001e 9000     		.2byte	(.L98-.L83)/2
 1603 0020 A100     		.2byte	(.L97-.L83)/2
 1604 0022 B400     		.2byte	(.L96-.L83)/2
 1605 0024 1400     		.2byte	(.L95-.L83)/2
 1606 0026 CE00     		.2byte	(.L94-.L83)/2
 1607 0028 D500     		.2byte	(.L93-.L83)/2
 1608 002a EB00     		.2byte	(.L92-.L83)/2
 1609 002c F800     		.2byte	(.L91-.L83)/2
 1610 002e FD00     		.2byte	(.L90-.L83)/2
 1611 0030 1201     		.2byte	(.L89-.L83)/2
 1612 0032 1E01     		.2byte	(.L88-.L83)/2
 1613 0034 2501     		.2byte	(.L87-.L83)/2
 1614 0036 3C01     		.2byte	(.L86-.L83)/2
 1615 0038 4A01     		.2byte	(.L85-.L83)/2
 1616 003a 4F01     		.2byte	(.L84-.L83)/2
 1617 003c 6401     		.2byte	(.L82-.L83)/2
 1618              		.p2align 1
 1619              	.L95:
 323:Drivers/lvgl/src/misc/lv_area.c ****             y = lv_area_get_height(base) / 2 - lv_area_get_height(to_align) / 2;
 1620              		.loc 1 323 13 is_stmt 1 view .LVU486
 323:Drivers/lvgl/src/misc/lv_area.c ****             y = lv_area_get_height(base) / 2 - lv_area_get_height(to_align) / 2;
 1621              		.loc 1 323 17 is_stmt 0 view .LVU487
 1622 003e FFF7FEFF 		bl	lv_area_get_width
 1623              	.LVL155:
 323:Drivers/lvgl/src/misc/lv_area.c ****             y = lv_area_get_height(base) / 2 - lv_area_get_height(to_align) / 2;
 1624              		.loc 1 323 41 discriminator 1 view .LVU488
 1625 0042 0028     		cmp	r0, #0
 1626 0044 2EDB     		blt	.L125
 1627              	.L103:
 1628 0046 4FEA6008 		asr	r8, r0, #1
 323:Drivers/lvgl/src/misc/lv_area.c ****             y = lv_area_get_height(base) / 2 - lv_area_get_height(to_align) / 2;
 1629              		.loc 1 323 47 discriminator 1 view .LVU489
 1630 004a 3046     		mov	r0, r6
 1631 004c FFF7FEFF 		bl	lv_area_get_width
 1632              	.LVL156:
 323:Drivers/lvgl/src/misc/lv_area.c ****             y = lv_area_get_height(base) / 2 - lv_area_get_height(to_align) / 2;
 1633              		.loc 1 323 75 discriminator 2 view .LVU490
 1634 0050 0028     		cmp	r0, #0
 1635 0052 29DB     		blt	.L126
 1636              	.L104:
 323:Drivers/lvgl/src/misc/lv_area.c ****             y = lv_area_get_height(base) / 2 - lv_area_get_height(to_align) / 2;
 1637              		.loc 1 323 15 discriminator 2 view .LVU491
 1638 0054 A8EB6008 		sub	r8, r8, r0, asr #1
 1639              	.LVL157:
 324:Drivers/lvgl/src/misc/lv_area.c ****             break;
 1640              		.loc 1 324 13 is_stmt 1 view .LVU492
 324:Drivers/lvgl/src/misc/lv_area.c ****             break;
 1641              		.loc 1 324 17 is_stmt 0 view .LVU493
 1642 0058 2046     		mov	r0, r4
 1643 005a FFF7FEFF 		bl	lv_area_get_height
 1644              	.LVL158:
ARM GAS  /tmp/ccFrlMqd.s 			page 48


 324:Drivers/lvgl/src/misc/lv_area.c ****             break;
 1645              		.loc 1 324 42 discriminator 1 view .LVU494
 1646 005e 0028     		cmp	r0, #0
 1647 0060 24DB     		blt	.L127
 1648              	.L105:
 1649 0062 4510     		asrs	r5, r0, #1
 324:Drivers/lvgl/src/misc/lv_area.c ****             break;
 1650              		.loc 1 324 48 discriminator 1 view .LVU495
 1651 0064 3046     		mov	r0, r6
 1652 0066 FFF7FEFF 		bl	lv_area_get_height
 1653              	.LVL159:
 324:Drivers/lvgl/src/misc/lv_area.c ****             break;
 1654              		.loc 1 324 77 discriminator 2 view .LVU496
 1655 006a 0028     		cmp	r0, #0
 1656 006c 20DB     		blt	.L128
 1657              	.L106:
 324:Drivers/lvgl/src/misc/lv_area.c ****             break;
 1658              		.loc 1 324 15 discriminator 2 view .LVU497
 1659 006e A5EB6000 		sub	r0, r5, r0, asr #1
 1660              	.LVL160:
 325:Drivers/lvgl/src/misc/lv_area.c **** 
 1661              		.loc 1 325 13 is_stmt 1 view .LVU498
 1662              	.L81:
 430:Drivers/lvgl/src/misc/lv_area.c ****     y += base->y1;
 1663              		.loc 1 430 5 view .LVU499
 430:Drivers/lvgl/src/misc/lv_area.c ****     y += base->y1;
 1664              		.loc 1 430 14 is_stmt 0 view .LVU500
 1665 0072 2368     		ldr	r3, [r4]
 430:Drivers/lvgl/src/misc/lv_area.c ****     y += base->y1;
 1666              		.loc 1 430 7 view .LVU501
 1667 0074 03EB0805 		add	r5, r3, r8
 1668              	.LVL161:
 431:Drivers/lvgl/src/misc/lv_area.c **** 
 1669              		.loc 1 431 5 is_stmt 1 view .LVU502
 431:Drivers/lvgl/src/misc/lv_area.c **** 
 1670              		.loc 1 431 14 is_stmt 0 view .LVU503
 1671 0078 6468     		ldr	r4, [r4, #4]
 1672              	.LVL162:
 431:Drivers/lvgl/src/misc/lv_area.c **** 
 1673              		.loc 1 431 7 view .LVU504
 1674 007a 0444     		add	r4, r4, r0
 1675              	.LVL163:
 433:Drivers/lvgl/src/misc/lv_area.c ****     int32_t h = lv_area_get_height(to_align);
 1676              		.loc 1 433 5 is_stmt 1 view .LVU505
 433:Drivers/lvgl/src/misc/lv_area.c ****     int32_t h = lv_area_get_height(to_align);
 1677              		.loc 1 433 17 is_stmt 0 view .LVU506
 1678 007c 3046     		mov	r0, r6
 1679 007e FFF7FEFF 		bl	lv_area_get_width
 1680              	.LVL164:
 1681 0082 8046     		mov	r8, r0
 1682              	.LVL165:
 434:Drivers/lvgl/src/misc/lv_area.c ****     to_align->x1 = x + ofs_x;
 1683              		.loc 1 434 5 is_stmt 1 view .LVU507
 434:Drivers/lvgl/src/misc/lv_area.c ****     to_align->x1 = x + ofs_x;
 1684              		.loc 1 434 17 is_stmt 0 view .LVU508
 1685 0084 3046     		mov	r0, r6
 1686              	.LVL166:
ARM GAS  /tmp/ccFrlMqd.s 			page 49


 434:Drivers/lvgl/src/misc/lv_area.c ****     to_align->x1 = x + ofs_x;
 1687              		.loc 1 434 17 view .LVU509
 1688 0086 FFF7FEFF 		bl	lv_area_get_height
 1689              	.LVL167:
 435:Drivers/lvgl/src/misc/lv_area.c ****     to_align->y1 = y + ofs_y;
 1690              		.loc 1 435 5 is_stmt 1 view .LVU510
 435:Drivers/lvgl/src/misc/lv_area.c ****     to_align->y1 = y + ofs_y;
 1691              		.loc 1 435 22 is_stmt 0 view .LVU511
 1692 008a EB19     		adds	r3, r5, r7
 435:Drivers/lvgl/src/misc/lv_area.c ****     to_align->y1 = y + ofs_y;
 1693              		.loc 1 435 18 view .LVU512
 1694 008c 3360     		str	r3, [r6]
 436:Drivers/lvgl/src/misc/lv_area.c ****     to_align->x2 = to_align->x1 + w - 1;
 1695              		.loc 1 436 5 is_stmt 1 view .LVU513
 436:Drivers/lvgl/src/misc/lv_area.c ****     to_align->x2 = to_align->x1 + w - 1;
 1696              		.loc 1 436 22 is_stmt 0 view .LVU514
 1697 008e 069A     		ldr	r2, [sp, #24]
 1698 0090 2244     		add	r2, r2, r4
 436:Drivers/lvgl/src/misc/lv_area.c ****     to_align->x2 = to_align->x1 + w - 1;
 1699              		.loc 1 436 18 view .LVU515
 1700 0092 7260     		str	r2, [r6, #4]
 437:Drivers/lvgl/src/misc/lv_area.c ****     to_align->y2 = to_align->y1 + h - 1;
 1701              		.loc 1 437 5 is_stmt 1 view .LVU516
 437:Drivers/lvgl/src/misc/lv_area.c ****     to_align->y2 = to_align->y1 + h - 1;
 1702              		.loc 1 437 33 is_stmt 0 view .LVU517
 1703 0094 4344     		add	r3, r3, r8
 437:Drivers/lvgl/src/misc/lv_area.c ****     to_align->y2 = to_align->y1 + h - 1;
 1704              		.loc 1 437 37 view .LVU518
 1705 0096 013B     		subs	r3, r3, #1
 437:Drivers/lvgl/src/misc/lv_area.c ****     to_align->y2 = to_align->y1 + h - 1;
 1706              		.loc 1 437 18 view .LVU519
 1707 0098 B360     		str	r3, [r6, #8]
 438:Drivers/lvgl/src/misc/lv_area.c **** }
 1708              		.loc 1 438 5 is_stmt 1 view .LVU520
 438:Drivers/lvgl/src/misc/lv_area.c **** }
 1709              		.loc 1 438 33 is_stmt 0 view .LVU521
 1710 009a 0244     		add	r2, r2, r0
 438:Drivers/lvgl/src/misc/lv_area.c **** }
 1711              		.loc 1 438 37 view .LVU522
 1712 009c 013A     		subs	r2, r2, #1
 438:Drivers/lvgl/src/misc/lv_area.c **** }
 1713              		.loc 1 438 18 view .LVU523
 1714 009e F260     		str	r2, [r6, #12]
 439:Drivers/lvgl/src/misc/lv_area.c **** 
 1715              		.loc 1 439 1 view .LVU524
 1716 00a0 BDE8F081 		pop	{r4, r5, r6, r7, r8, pc}
 1717              	.LVL168:
 1718              	.L125:
 323:Drivers/lvgl/src/misc/lv_area.c ****             y = lv_area_get_height(base) / 2 - lv_area_get_height(to_align) / 2;
 1719              		.loc 1 323 41 discriminator 1 view .LVU525
 1720 00a4 0130     		adds	r0, r0, #1
 1721 00a6 CEE7     		b	.L103
 1722              	.L126:
 323:Drivers/lvgl/src/misc/lv_area.c ****             y = lv_area_get_height(base) / 2 - lv_area_get_height(to_align) / 2;
 1723              		.loc 1 323 75 discriminator 2 view .LVU526
 1724 00a8 0130     		adds	r0, r0, #1
 1725 00aa D3E7     		b	.L104
ARM GAS  /tmp/ccFrlMqd.s 			page 50


 1726              	.LVL169:
 1727              	.L127:
 324:Drivers/lvgl/src/misc/lv_area.c ****             break;
 1728              		.loc 1 324 42 discriminator 1 view .LVU527
 1729 00ac 0130     		adds	r0, r0, #1
 1730 00ae D8E7     		b	.L105
 1731              	.L128:
 324:Drivers/lvgl/src/misc/lv_area.c ****             break;
 1732              		.loc 1 324 77 discriminator 2 view .LVU528
 1733 00b0 0130     		adds	r0, r0, #1
 1734 00b2 DCE7     		b	.L106
 1735              	.LVL170:
 1736              	.L102:
 332:Drivers/lvgl/src/misc/lv_area.c ****             y = 0;
 1737              		.loc 1 332 13 is_stmt 1 view .LVU529
 332:Drivers/lvgl/src/misc/lv_area.c ****             y = 0;
 1738              		.loc 1 332 17 is_stmt 0 view .LVU530
 1739 00b4 FFF7FEFF 		bl	lv_area_get_width
 1740              	.LVL171:
 332:Drivers/lvgl/src/misc/lv_area.c ****             y = 0;
 1741              		.loc 1 332 41 discriminator 1 view .LVU531
 1742 00b8 0028     		cmp	r0, #0
 1743 00ba 0ADB     		blt	.L129
 1744              	.L107:
 1745 00bc 4FEA6008 		asr	r8, r0, #1
 332:Drivers/lvgl/src/misc/lv_area.c ****             y = 0;
 1746              		.loc 1 332 47 discriminator 1 view .LVU532
 1747 00c0 3046     		mov	r0, r6
 1748 00c2 FFF7FEFF 		bl	lv_area_get_width
 1749              	.LVL172:
 332:Drivers/lvgl/src/misc/lv_area.c ****             y = 0;
 1750              		.loc 1 332 75 discriminator 2 view .LVU533
 1751 00c6 0028     		cmp	r0, #0
 1752 00c8 05DB     		blt	.L130
 1753              	.L108:
 332:Drivers/lvgl/src/misc/lv_area.c ****             y = 0;
 1754              		.loc 1 332 15 discriminator 2 view .LVU534
 1755 00ca A8EB6008 		sub	r8, r8, r0, asr #1
 1756              	.LVL173:
 333:Drivers/lvgl/src/misc/lv_area.c ****             break;
 1757              		.loc 1 333 13 is_stmt 1 view .LVU535
 334:Drivers/lvgl/src/misc/lv_area.c **** 
 1758              		.loc 1 334 13 view .LVU536
 333:Drivers/lvgl/src/misc/lv_area.c ****             break;
 1759              		.loc 1 333 15 is_stmt 0 view .LVU537
 1760 00ce 0020     		movs	r0, #0
 334:Drivers/lvgl/src/misc/lv_area.c **** 
 1761              		.loc 1 334 13 view .LVU538
 1762 00d0 CFE7     		b	.L81
 1763              	.LVL174:
 1764              	.L129:
 332:Drivers/lvgl/src/misc/lv_area.c ****             y = 0;
 1765              		.loc 1 332 41 discriminator 1 view .LVU539
 1766 00d2 0130     		adds	r0, r0, #1
 1767 00d4 F2E7     		b	.L107
 1768              	.L130:
 332:Drivers/lvgl/src/misc/lv_area.c ****             y = 0;
ARM GAS  /tmp/ccFrlMqd.s 			page 51


 1769              		.loc 1 332 75 discriminator 2 view .LVU540
 1770 00d6 0130     		adds	r0, r0, #1
 1771 00d8 F7E7     		b	.L108
 1772              	.LVL175:
 1773              	.L101:
 337:Drivers/lvgl/src/misc/lv_area.c ****             y = 0;
 1774              		.loc 1 337 13 is_stmt 1 view .LVU541
 337:Drivers/lvgl/src/misc/lv_area.c ****             y = 0;
 1775              		.loc 1 337 17 is_stmt 0 view .LVU542
 1776 00da FFF7FEFF 		bl	lv_area_get_width
 1777              	.LVL176:
 337:Drivers/lvgl/src/misc/lv_area.c ****             y = 0;
 1778              		.loc 1 337 17 view .LVU543
 1779 00de 8046     		mov	r8, r0
 337:Drivers/lvgl/src/misc/lv_area.c ****             y = 0;
 1780              		.loc 1 337 43 discriminator 1 view .LVU544
 1781 00e0 3046     		mov	r0, r6
 1782 00e2 FFF7FEFF 		bl	lv_area_get_width
 1783              	.LVL177:
 337:Drivers/lvgl/src/misc/lv_area.c ****             y = 0;
 1784              		.loc 1 337 15 discriminator 2 view .LVU545
 1785 00e6 A8EB0008 		sub	r8, r8, r0
 1786              	.LVL178:
 338:Drivers/lvgl/src/misc/lv_area.c ****             break;
 1787              		.loc 1 338 13 is_stmt 1 view .LVU546
 339:Drivers/lvgl/src/misc/lv_area.c **** 
 1788              		.loc 1 339 13 view .LVU547
 338:Drivers/lvgl/src/misc/lv_area.c ****             break;
 1789              		.loc 1 338 15 is_stmt 0 view .LVU548
 1790 00ea 0020     		movs	r0, #0
 339:Drivers/lvgl/src/misc/lv_area.c **** 
 1791              		.loc 1 339 13 view .LVU549
 1792 00ec C1E7     		b	.L81
 1793              	.LVL179:
 1794              	.L100:
 342:Drivers/lvgl/src/misc/lv_area.c ****             y = lv_area_get_height(base) - lv_area_get_height(to_align);
 1795              		.loc 1 342 13 is_stmt 1 view .LVU550
 343:Drivers/lvgl/src/misc/lv_area.c ****             break;
 1796              		.loc 1 343 13 view .LVU551
 343:Drivers/lvgl/src/misc/lv_area.c ****             break;
 1797              		.loc 1 343 17 is_stmt 0 view .LVU552
 1798 00ee FFF7FEFF 		bl	lv_area_get_height
 1799              	.LVL180:
 343:Drivers/lvgl/src/misc/lv_area.c ****             break;
 1800              		.loc 1 343 17 view .LVU553
 1801 00f2 0546     		mov	r5, r0
 343:Drivers/lvgl/src/misc/lv_area.c ****             break;
 1802              		.loc 1 343 44 discriminator 1 view .LVU554
 1803 00f4 3046     		mov	r0, r6
 1804 00f6 FFF7FEFF 		bl	lv_area_get_height
 1805              	.LVL181:
 343:Drivers/lvgl/src/misc/lv_area.c ****             break;
 1806              		.loc 1 343 15 discriminator 2 view .LVU555
 1807 00fa 281A     		subs	r0, r5, r0
 1808              	.LVL182:
 344:Drivers/lvgl/src/misc/lv_area.c ****         case LV_ALIGN_BOTTOM_MID:
 1809              		.loc 1 344 13 is_stmt 1 view .LVU556
ARM GAS  /tmp/ccFrlMqd.s 			page 52


 342:Drivers/lvgl/src/misc/lv_area.c ****             y = lv_area_get_height(base) - lv_area_get_height(to_align);
 1810              		.loc 1 342 15 is_stmt 0 view .LVU557
 1811 00fc 4FF00008 		mov	r8, #0
 344:Drivers/lvgl/src/misc/lv_area.c ****         case LV_ALIGN_BOTTOM_MID:
 1812              		.loc 1 344 13 view .LVU558
 1813 0100 B7E7     		b	.L81
 1814              	.LVL183:
 1815              	.L99:
 346:Drivers/lvgl/src/misc/lv_area.c ****             y = lv_area_get_height(base) - lv_area_get_height(to_align);
 1816              		.loc 1 346 13 is_stmt 1 view .LVU559
 346:Drivers/lvgl/src/misc/lv_area.c ****             y = lv_area_get_height(base) - lv_area_get_height(to_align);
 1817              		.loc 1 346 17 is_stmt 0 view .LVU560
 1818 0102 FFF7FEFF 		bl	lv_area_get_width
 1819              	.LVL184:
 346:Drivers/lvgl/src/misc/lv_area.c ****             y = lv_area_get_height(base) - lv_area_get_height(to_align);
 1820              		.loc 1 346 41 discriminator 1 view .LVU561
 1821 0106 0028     		cmp	r0, #0
 1822 0108 11DB     		blt	.L131
 1823              	.L109:
 1824 010a 4FEA6008 		asr	r8, r0, #1
 346:Drivers/lvgl/src/misc/lv_area.c ****             y = lv_area_get_height(base) - lv_area_get_height(to_align);
 1825              		.loc 1 346 47 discriminator 1 view .LVU562
 1826 010e 3046     		mov	r0, r6
 1827 0110 FFF7FEFF 		bl	lv_area_get_width
 1828              	.LVL185:
 346:Drivers/lvgl/src/misc/lv_area.c ****             y = lv_area_get_height(base) - lv_area_get_height(to_align);
 1829              		.loc 1 346 75 discriminator 2 view .LVU563
 1830 0114 0028     		cmp	r0, #0
 1831 0116 0CDB     		blt	.L132
 1832              	.L110:
 346:Drivers/lvgl/src/misc/lv_area.c ****             y = lv_area_get_height(base) - lv_area_get_height(to_align);
 1833              		.loc 1 346 15 discriminator 2 view .LVU564
 1834 0118 A8EB6008 		sub	r8, r8, r0, asr #1
 1835              	.LVL186:
 347:Drivers/lvgl/src/misc/lv_area.c ****             break;
 1836              		.loc 1 347 13 is_stmt 1 view .LVU565
 347:Drivers/lvgl/src/misc/lv_area.c ****             break;
 1837              		.loc 1 347 17 is_stmt 0 view .LVU566
 1838 011c 2046     		mov	r0, r4
 1839 011e FFF7FEFF 		bl	lv_area_get_height
 1840              	.LVL187:
 1841 0122 0546     		mov	r5, r0
 347:Drivers/lvgl/src/misc/lv_area.c ****             break;
 1842              		.loc 1 347 44 discriminator 1 view .LVU567
 1843 0124 3046     		mov	r0, r6
 1844 0126 FFF7FEFF 		bl	lv_area_get_height
 1845              	.LVL188:
 347:Drivers/lvgl/src/misc/lv_area.c ****             break;
 1846              		.loc 1 347 15 discriminator 2 view .LVU568
 1847 012a 281A     		subs	r0, r5, r0
 1848              	.LVL189:
 348:Drivers/lvgl/src/misc/lv_area.c **** 
 1849              		.loc 1 348 13 is_stmt 1 view .LVU569
 1850 012c A1E7     		b	.L81
 1851              	.LVL190:
 1852              	.L131:
 346:Drivers/lvgl/src/misc/lv_area.c ****             y = lv_area_get_height(base) - lv_area_get_height(to_align);
ARM GAS  /tmp/ccFrlMqd.s 			page 53


 1853              		.loc 1 346 41 is_stmt 0 discriminator 1 view .LVU570
 1854 012e 0130     		adds	r0, r0, #1
 1855 0130 EBE7     		b	.L109
 1856              	.L132:
 346:Drivers/lvgl/src/misc/lv_area.c ****             y = lv_area_get_height(base) - lv_area_get_height(to_align);
 1857              		.loc 1 346 75 discriminator 2 view .LVU571
 1858 0132 0130     		adds	r0, r0, #1
 1859 0134 F0E7     		b	.L110
 1860              	.LVL191:
 1861              	.L98:
 351:Drivers/lvgl/src/misc/lv_area.c ****             y = lv_area_get_height(base) - lv_area_get_height(to_align);
 1862              		.loc 1 351 13 is_stmt 1 view .LVU572
 351:Drivers/lvgl/src/misc/lv_area.c ****             y = lv_area_get_height(base) - lv_area_get_height(to_align);
 1863              		.loc 1 351 17 is_stmt 0 view .LVU573
 1864 0136 FFF7FEFF 		bl	lv_area_get_width
 1865              	.LVL192:
 351:Drivers/lvgl/src/misc/lv_area.c ****             y = lv_area_get_height(base) - lv_area_get_height(to_align);
 1866              		.loc 1 351 17 view .LVU574
 1867 013a 8046     		mov	r8, r0
 351:Drivers/lvgl/src/misc/lv_area.c ****             y = lv_area_get_height(base) - lv_area_get_height(to_align);
 1868              		.loc 1 351 43 discriminator 1 view .LVU575
 1869 013c 3046     		mov	r0, r6
 1870 013e FFF7FEFF 		bl	lv_area_get_width
 1871              	.LVL193:
 351:Drivers/lvgl/src/misc/lv_area.c ****             y = lv_area_get_height(base) - lv_area_get_height(to_align);
 1872              		.loc 1 351 15 discriminator 2 view .LVU576
 1873 0142 A8EB0008 		sub	r8, r8, r0
 1874              	.LVL194:
 352:Drivers/lvgl/src/misc/lv_area.c ****             break;
 1875              		.loc 1 352 13 is_stmt 1 view .LVU577
 352:Drivers/lvgl/src/misc/lv_area.c ****             break;
 1876              		.loc 1 352 17 is_stmt 0 view .LVU578
 1877 0146 2046     		mov	r0, r4
 1878 0148 FFF7FEFF 		bl	lv_area_get_height
 1879              	.LVL195:
 1880 014c 0546     		mov	r5, r0
 352:Drivers/lvgl/src/misc/lv_area.c ****             break;
 1881              		.loc 1 352 44 discriminator 1 view .LVU579
 1882 014e 3046     		mov	r0, r6
 1883 0150 FFF7FEFF 		bl	lv_area_get_height
 1884              	.LVL196:
 352:Drivers/lvgl/src/misc/lv_area.c ****             break;
 1885              		.loc 1 352 15 discriminator 2 view .LVU580
 1886 0154 281A     		subs	r0, r5, r0
 1887              	.LVL197:
 353:Drivers/lvgl/src/misc/lv_area.c **** 
 1888              		.loc 1 353 13 is_stmt 1 view .LVU581
 1889 0156 8CE7     		b	.L81
 1890              	.LVL198:
 1891              	.L97:
 356:Drivers/lvgl/src/misc/lv_area.c ****             y = lv_area_get_height(base) / 2 - lv_area_get_height(to_align) / 2;
 1892              		.loc 1 356 13 view .LVU582
 357:Drivers/lvgl/src/misc/lv_area.c ****             break;
 1893              		.loc 1 357 13 view .LVU583
 357:Drivers/lvgl/src/misc/lv_area.c ****             break;
 1894              		.loc 1 357 17 is_stmt 0 view .LVU584
 1895 0158 FFF7FEFF 		bl	lv_area_get_height
ARM GAS  /tmp/ccFrlMqd.s 			page 54


 1896              	.LVL199:
 357:Drivers/lvgl/src/misc/lv_area.c ****             break;
 1897              		.loc 1 357 42 discriminator 1 view .LVU585
 1898 015c 0028     		cmp	r0, #0
 1899 015e 0ADB     		blt	.L133
 1900              	.L111:
 1901 0160 4510     		asrs	r5, r0, #1
 357:Drivers/lvgl/src/misc/lv_area.c ****             break;
 1902              		.loc 1 357 48 discriminator 1 view .LVU586
 1903 0162 3046     		mov	r0, r6
 1904 0164 FFF7FEFF 		bl	lv_area_get_height
 1905              	.LVL200:
 357:Drivers/lvgl/src/misc/lv_area.c ****             break;
 1906              		.loc 1 357 77 discriminator 2 view .LVU587
 1907 0168 0028     		cmp	r0, #0
 1908 016a 06DB     		blt	.L134
 1909              	.L112:
 357:Drivers/lvgl/src/misc/lv_area.c ****             break;
 1910              		.loc 1 357 15 discriminator 2 view .LVU588
 1911 016c A5EB6000 		sub	r0, r5, r0, asr #1
 1912              	.LVL201:
 358:Drivers/lvgl/src/misc/lv_area.c **** 
 1913              		.loc 1 358 13 is_stmt 1 view .LVU589
 356:Drivers/lvgl/src/misc/lv_area.c ****             y = lv_area_get_height(base) / 2 - lv_area_get_height(to_align) / 2;
 1914              		.loc 1 356 15 is_stmt 0 view .LVU590
 1915 0170 4FF00008 		mov	r8, #0
 358:Drivers/lvgl/src/misc/lv_area.c **** 
 1916              		.loc 1 358 13 view .LVU591
 1917 0174 7DE7     		b	.L81
 1918              	.LVL202:
 1919              	.L133:
 357:Drivers/lvgl/src/misc/lv_area.c ****             break;
 1920              		.loc 1 357 42 discriminator 1 view .LVU592
 1921 0176 0130     		adds	r0, r0, #1
 1922 0178 F2E7     		b	.L111
 1923              	.L134:
 357:Drivers/lvgl/src/misc/lv_area.c ****             break;
 1924              		.loc 1 357 77 discriminator 2 view .LVU593
 1925 017a 0130     		adds	r0, r0, #1
 1926 017c F6E7     		b	.L112
 1927              	.LVL203:
 1928              	.L96:
 361:Drivers/lvgl/src/misc/lv_area.c ****             y = lv_area_get_height(base) / 2 - lv_area_get_height(to_align) / 2;
 1929              		.loc 1 361 13 is_stmt 1 view .LVU594
 361:Drivers/lvgl/src/misc/lv_area.c ****             y = lv_area_get_height(base) / 2 - lv_area_get_height(to_align) / 2;
 1930              		.loc 1 361 17 is_stmt 0 view .LVU595
 1931 017e FFF7FEFF 		bl	lv_area_get_width
 1932              	.LVL204:
 361:Drivers/lvgl/src/misc/lv_area.c ****             y = lv_area_get_height(base) / 2 - lv_area_get_height(to_align) / 2;
 1933              		.loc 1 361 17 view .LVU596
 1934 0182 8046     		mov	r8, r0
 361:Drivers/lvgl/src/misc/lv_area.c ****             y = lv_area_get_height(base) / 2 - lv_area_get_height(to_align) / 2;
 1935              		.loc 1 361 43 discriminator 1 view .LVU597
 1936 0184 3046     		mov	r0, r6
 1937 0186 FFF7FEFF 		bl	lv_area_get_width
 1938              	.LVL205:
 361:Drivers/lvgl/src/misc/lv_area.c ****             y = lv_area_get_height(base) / 2 - lv_area_get_height(to_align) / 2;
ARM GAS  /tmp/ccFrlMqd.s 			page 55


 1939              		.loc 1 361 15 discriminator 2 view .LVU598
 1940 018a A8EB0008 		sub	r8, r8, r0
 1941              	.LVL206:
 362:Drivers/lvgl/src/misc/lv_area.c ****             break;
 1942              		.loc 1 362 13 is_stmt 1 view .LVU599
 362:Drivers/lvgl/src/misc/lv_area.c ****             break;
 1943              		.loc 1 362 17 is_stmt 0 view .LVU600
 1944 018e 2046     		mov	r0, r4
 1945 0190 FFF7FEFF 		bl	lv_area_get_height
 1946              	.LVL207:
 362:Drivers/lvgl/src/misc/lv_area.c ****             break;
 1947              		.loc 1 362 42 discriminator 1 view .LVU601
 1948 0194 0028     		cmp	r0, #0
 1949 0196 08DB     		blt	.L135
 1950              	.L113:
 1951 0198 4510     		asrs	r5, r0, #1
 362:Drivers/lvgl/src/misc/lv_area.c ****             break;
 1952              		.loc 1 362 48 discriminator 1 view .LVU602
 1953 019a 3046     		mov	r0, r6
 1954 019c FFF7FEFF 		bl	lv_area_get_height
 1955              	.LVL208:
 362:Drivers/lvgl/src/misc/lv_area.c ****             break;
 1956              		.loc 1 362 77 discriminator 2 view .LVU603
 1957 01a0 0028     		cmp	r0, #0
 1958 01a2 04DB     		blt	.L136
 1959              	.L114:
 362:Drivers/lvgl/src/misc/lv_area.c ****             break;
 1960              		.loc 1 362 15 discriminator 2 view .LVU604
 1961 01a4 A5EB6000 		sub	r0, r5, r0, asr #1
 1962              	.LVL209:
 363:Drivers/lvgl/src/misc/lv_area.c **** 
 1963              		.loc 1 363 13 is_stmt 1 view .LVU605
 1964 01a8 63E7     		b	.L81
 1965              	.LVL210:
 1966              	.L135:
 362:Drivers/lvgl/src/misc/lv_area.c ****             break;
 1967              		.loc 1 362 42 is_stmt 0 discriminator 1 view .LVU606
 1968 01aa 0130     		adds	r0, r0, #1
 1969 01ac F4E7     		b	.L113
 1970              	.L136:
 362:Drivers/lvgl/src/misc/lv_area.c ****             break;
 1971              		.loc 1 362 77 discriminator 2 view .LVU607
 1972 01ae 0130     		adds	r0, r0, #1
 1973 01b0 F8E7     		b	.L114
 1974              	.LVL211:
 1975              	.L94:
 366:Drivers/lvgl/src/misc/lv_area.c ****             y = -lv_area_get_height(to_align);
 1976              		.loc 1 366 13 is_stmt 1 view .LVU608
 367:Drivers/lvgl/src/misc/lv_area.c ****             break;
 1977              		.loc 1 367 13 view .LVU609
 367:Drivers/lvgl/src/misc/lv_area.c ****             break;
 1978              		.loc 1 367 18 is_stmt 0 view .LVU610
 1979 01b2 0846     		mov	r0, r1
 1980              	.LVL212:
 367:Drivers/lvgl/src/misc/lv_area.c ****             break;
 1981              		.loc 1 367 18 view .LVU611
 1982 01b4 FFF7FEFF 		bl	lv_area_get_height
ARM GAS  /tmp/ccFrlMqd.s 			page 56


 1983              	.LVL213:
 367:Drivers/lvgl/src/misc/lv_area.c ****             break;
 1984              		.loc 1 367 15 discriminator 1 view .LVU612
 1985 01b8 4042     		rsbs	r0, r0, #0
 1986              	.LVL214:
 368:Drivers/lvgl/src/misc/lv_area.c **** 
 1987              		.loc 1 368 13 is_stmt 1 view .LVU613
 366:Drivers/lvgl/src/misc/lv_area.c ****             y = -lv_area_get_height(to_align);
 1988              		.loc 1 366 15 is_stmt 0 view .LVU614
 1989 01ba 4FF00008 		mov	r8, #0
 368:Drivers/lvgl/src/misc/lv_area.c **** 
 1990              		.loc 1 368 13 view .LVU615
 1991 01be 58E7     		b	.L81
 1992              	.LVL215:
 1993              	.L93:
 371:Drivers/lvgl/src/misc/lv_area.c ****             y = -lv_area_get_height(to_align);
 1994              		.loc 1 371 13 is_stmt 1 view .LVU616
 371:Drivers/lvgl/src/misc/lv_area.c ****             y = -lv_area_get_height(to_align);
 1995              		.loc 1 371 17 is_stmt 0 view .LVU617
 1996 01c0 FFF7FEFF 		bl	lv_area_get_width
 1997              	.LVL216:
 371:Drivers/lvgl/src/misc/lv_area.c ****             y = -lv_area_get_height(to_align);
 1998              		.loc 1 371 41 discriminator 1 view .LVU618
 1999 01c4 0028     		cmp	r0, #0
 2000 01c6 0DDB     		blt	.L137
 2001              	.L115:
 2002 01c8 4FEA6008 		asr	r8, r0, #1
 371:Drivers/lvgl/src/misc/lv_area.c ****             y = -lv_area_get_height(to_align);
 2003              		.loc 1 371 47 discriminator 1 view .LVU619
 2004 01cc 3046     		mov	r0, r6
 2005 01ce FFF7FEFF 		bl	lv_area_get_width
 2006              	.LVL217:
 371:Drivers/lvgl/src/misc/lv_area.c ****             y = -lv_area_get_height(to_align);
 2007              		.loc 1 371 75 discriminator 2 view .LVU620
 2008 01d2 0028     		cmp	r0, #0
 2009 01d4 08DB     		blt	.L138
 2010              	.L116:
 371:Drivers/lvgl/src/misc/lv_area.c ****             y = -lv_area_get_height(to_align);
 2011              		.loc 1 371 15 discriminator 2 view .LVU621
 2012 01d6 A8EB6008 		sub	r8, r8, r0, asr #1
 2013              	.LVL218:
 372:Drivers/lvgl/src/misc/lv_area.c ****             break;
 2014              		.loc 1 372 13 is_stmt 1 view .LVU622
 372:Drivers/lvgl/src/misc/lv_area.c ****             break;
 2015              		.loc 1 372 18 is_stmt 0 view .LVU623
 2016 01da 3046     		mov	r0, r6
 2017 01dc FFF7FEFF 		bl	lv_area_get_height
 2018              	.LVL219:
 372:Drivers/lvgl/src/misc/lv_area.c ****             break;
 2019              		.loc 1 372 15 discriminator 1 view .LVU624
 2020 01e0 4042     		rsbs	r0, r0, #0
 2021              	.LVL220:
 373:Drivers/lvgl/src/misc/lv_area.c **** 
 2022              		.loc 1 373 13 is_stmt 1 view .LVU625
 2023 01e2 46E7     		b	.L81
 2024              	.LVL221:
 2025              	.L137:
ARM GAS  /tmp/ccFrlMqd.s 			page 57


 371:Drivers/lvgl/src/misc/lv_area.c ****             y = -lv_area_get_height(to_align);
 2026              		.loc 1 371 41 is_stmt 0 discriminator 1 view .LVU626
 2027 01e4 0130     		adds	r0, r0, #1
 2028 01e6 EFE7     		b	.L115
 2029              	.L138:
 371:Drivers/lvgl/src/misc/lv_area.c ****             y = -lv_area_get_height(to_align);
 2030              		.loc 1 371 75 discriminator 2 view .LVU627
 2031 01e8 0130     		adds	r0, r0, #1
 2032 01ea F4E7     		b	.L116
 2033              	.LVL222:
 2034              	.L92:
 376:Drivers/lvgl/src/misc/lv_area.c ****             y = -lv_area_get_height(to_align);
 2035              		.loc 1 376 13 is_stmt 1 view .LVU628
 376:Drivers/lvgl/src/misc/lv_area.c ****             y = -lv_area_get_height(to_align);
 2036              		.loc 1 376 17 is_stmt 0 view .LVU629
 2037 01ec FFF7FEFF 		bl	lv_area_get_width
 2038              	.LVL223:
 376:Drivers/lvgl/src/misc/lv_area.c ****             y = -lv_area_get_height(to_align);
 2039              		.loc 1 376 17 view .LVU630
 2040 01f0 8046     		mov	r8, r0
 376:Drivers/lvgl/src/misc/lv_area.c ****             y = -lv_area_get_height(to_align);
 2041              		.loc 1 376 43 discriminator 1 view .LVU631
 2042 01f2 3046     		mov	r0, r6
 2043 01f4 FFF7FEFF 		bl	lv_area_get_width
 2044              	.LVL224:
 376:Drivers/lvgl/src/misc/lv_area.c ****             y = -lv_area_get_height(to_align);
 2045              		.loc 1 376 15 discriminator 2 view .LVU632
 2046 01f8 A8EB0008 		sub	r8, r8, r0
 2047              	.LVL225:
 377:Drivers/lvgl/src/misc/lv_area.c ****             break;
 2048              		.loc 1 377 13 is_stmt 1 view .LVU633
 377:Drivers/lvgl/src/misc/lv_area.c ****             break;
 2049              		.loc 1 377 18 is_stmt 0 view .LVU634
 2050 01fc 3046     		mov	r0, r6
 2051 01fe FFF7FEFF 		bl	lv_area_get_height
 2052              	.LVL226:
 377:Drivers/lvgl/src/misc/lv_area.c ****             break;
 2053              		.loc 1 377 15 discriminator 1 view .LVU635
 2054 0202 4042     		rsbs	r0, r0, #0
 2055              	.LVL227:
 378:Drivers/lvgl/src/misc/lv_area.c **** 
 2056              		.loc 1 378 13 is_stmt 1 view .LVU636
 2057 0204 35E7     		b	.L81
 2058              	.LVL228:
 2059              	.L91:
 381:Drivers/lvgl/src/misc/lv_area.c ****             y = lv_area_get_height(base);
 2060              		.loc 1 381 13 view .LVU637
 382:Drivers/lvgl/src/misc/lv_area.c ****             break;
 2061              		.loc 1 382 13 view .LVU638
 382:Drivers/lvgl/src/misc/lv_area.c ****             break;
 2062              		.loc 1 382 17 is_stmt 0 view .LVU639
 2063 0206 FFF7FEFF 		bl	lv_area_get_height
 2064              	.LVL229:
 383:Drivers/lvgl/src/misc/lv_area.c **** 
 2065              		.loc 1 383 13 is_stmt 1 view .LVU640
 381:Drivers/lvgl/src/misc/lv_area.c ****             y = lv_area_get_height(base);
 2066              		.loc 1 381 15 is_stmt 0 view .LVU641
ARM GAS  /tmp/ccFrlMqd.s 			page 58


 2067 020a 4FF00008 		mov	r8, #0
 383:Drivers/lvgl/src/misc/lv_area.c **** 
 2068              		.loc 1 383 13 view .LVU642
 2069 020e 30E7     		b	.L81
 2070              	.LVL230:
 2071              	.L90:
 386:Drivers/lvgl/src/misc/lv_area.c ****             y = lv_area_get_height(base);
 2072              		.loc 1 386 13 is_stmt 1 view .LVU643
 386:Drivers/lvgl/src/misc/lv_area.c ****             y = lv_area_get_height(base);
 2073              		.loc 1 386 17 is_stmt 0 view .LVU644
 2074 0210 FFF7FEFF 		bl	lv_area_get_width
 2075              	.LVL231:
 386:Drivers/lvgl/src/misc/lv_area.c ****             y = lv_area_get_height(base);
 2076              		.loc 1 386 41 discriminator 1 view .LVU645
 2077 0214 0028     		cmp	r0, #0
 2078 0216 0CDB     		blt	.L139
 2079              	.L117:
 2080 0218 4FEA6008 		asr	r8, r0, #1
 386:Drivers/lvgl/src/misc/lv_area.c ****             y = lv_area_get_height(base);
 2081              		.loc 1 386 47 discriminator 1 view .LVU646
 2082 021c 3046     		mov	r0, r6
 2083 021e FFF7FEFF 		bl	lv_area_get_width
 2084              	.LVL232:
 386:Drivers/lvgl/src/misc/lv_area.c ****             y = lv_area_get_height(base);
 2085              		.loc 1 386 75 discriminator 2 view .LVU647
 2086 0222 0028     		cmp	r0, #0
 2087 0224 07DB     		blt	.L140
 2088              	.L118:
 386:Drivers/lvgl/src/misc/lv_area.c ****             y = lv_area_get_height(base);
 2089              		.loc 1 386 15 discriminator 2 view .LVU648
 2090 0226 A8EB6008 		sub	r8, r8, r0, asr #1
 2091              	.LVL233:
 387:Drivers/lvgl/src/misc/lv_area.c ****             break;
 2092              		.loc 1 387 13 is_stmt 1 view .LVU649
 387:Drivers/lvgl/src/misc/lv_area.c ****             break;
 2093              		.loc 1 387 17 is_stmt 0 view .LVU650
 2094 022a 2046     		mov	r0, r4
 2095 022c FFF7FEFF 		bl	lv_area_get_height
 2096              	.LVL234:
 388:Drivers/lvgl/src/misc/lv_area.c **** 
 2097              		.loc 1 388 13 is_stmt 1 view .LVU651
 2098 0230 1FE7     		b	.L81
 2099              	.LVL235:
 2100              	.L139:
 386:Drivers/lvgl/src/misc/lv_area.c ****             y = lv_area_get_height(base);
 2101              		.loc 1 386 41 is_stmt 0 discriminator 1 view .LVU652
 2102 0232 0130     		adds	r0, r0, #1
 2103 0234 F0E7     		b	.L117
 2104              	.L140:
 386:Drivers/lvgl/src/misc/lv_area.c ****             y = lv_area_get_height(base);
 2105              		.loc 1 386 75 discriminator 2 view .LVU653
 2106 0236 0130     		adds	r0, r0, #1
 2107 0238 F5E7     		b	.L118
 2108              	.LVL236:
 2109              	.L89:
 391:Drivers/lvgl/src/misc/lv_area.c ****             y = lv_area_get_height(base);
 2110              		.loc 1 391 13 is_stmt 1 view .LVU654
ARM GAS  /tmp/ccFrlMqd.s 			page 59


 391:Drivers/lvgl/src/misc/lv_area.c ****             y = lv_area_get_height(base);
 2111              		.loc 1 391 17 is_stmt 0 view .LVU655
 2112 023a FFF7FEFF 		bl	lv_area_get_width
 2113              	.LVL237:
 391:Drivers/lvgl/src/misc/lv_area.c ****             y = lv_area_get_height(base);
 2114              		.loc 1 391 17 view .LVU656
 2115 023e 8046     		mov	r8, r0
 391:Drivers/lvgl/src/misc/lv_area.c ****             y = lv_area_get_height(base);
 2116              		.loc 1 391 43 discriminator 1 view .LVU657
 2117 0240 3046     		mov	r0, r6
 2118 0242 FFF7FEFF 		bl	lv_area_get_width
 2119              	.LVL238:
 391:Drivers/lvgl/src/misc/lv_area.c ****             y = lv_area_get_height(base);
 2120              		.loc 1 391 15 discriminator 2 view .LVU658
 2121 0246 A8EB0008 		sub	r8, r8, r0
 2122              	.LVL239:
 392:Drivers/lvgl/src/misc/lv_area.c ****             break;
 2123              		.loc 1 392 13 is_stmt 1 view .LVU659
 392:Drivers/lvgl/src/misc/lv_area.c ****             break;
 2124              		.loc 1 392 17 is_stmt 0 view .LVU660
 2125 024a 2046     		mov	r0, r4
 2126 024c FFF7FEFF 		bl	lv_area_get_height
 2127              	.LVL240:
 393:Drivers/lvgl/src/misc/lv_area.c **** 
 2128              		.loc 1 393 13 is_stmt 1 view .LVU661
 2129 0250 0FE7     		b	.L81
 2130              	.LVL241:
 2131              	.L88:
 396:Drivers/lvgl/src/misc/lv_area.c ****             y = 0;
 2132              		.loc 1 396 13 view .LVU662
 396:Drivers/lvgl/src/misc/lv_area.c ****             y = 0;
 2133              		.loc 1 396 18 is_stmt 0 view .LVU663
 2134 0252 0846     		mov	r0, r1
 2135              	.LVL242:
 396:Drivers/lvgl/src/misc/lv_area.c ****             y = 0;
 2136              		.loc 1 396 18 view .LVU664
 2137 0254 FFF7FEFF 		bl	lv_area_get_width
 2138              	.LVL243:
 396:Drivers/lvgl/src/misc/lv_area.c ****             y = 0;
 2139              		.loc 1 396 15 discriminator 1 view .LVU665
 2140 0258 C0F10008 		rsb	r8, r0, #0
 2141              	.LVL244:
 397:Drivers/lvgl/src/misc/lv_area.c ****             break;
 2142              		.loc 1 397 13 is_stmt 1 view .LVU666
 398:Drivers/lvgl/src/misc/lv_area.c **** 
 2143              		.loc 1 398 13 view .LVU667
 397:Drivers/lvgl/src/misc/lv_area.c ****             break;
 2144              		.loc 1 397 15 is_stmt 0 view .LVU668
 2145 025c 0020     		movs	r0, #0
 398:Drivers/lvgl/src/misc/lv_area.c **** 
 2146              		.loc 1 398 13 view .LVU669
 2147 025e 08E7     		b	.L81
 2148              	.LVL245:
 2149              	.L87:
 401:Drivers/lvgl/src/misc/lv_area.c ****             y = lv_area_get_height(base) / 2 - lv_area_get_height(to_align) / 2;
 2150              		.loc 1 401 13 is_stmt 1 view .LVU670
 401:Drivers/lvgl/src/misc/lv_area.c ****             y = lv_area_get_height(base) / 2 - lv_area_get_height(to_align) / 2;
ARM GAS  /tmp/ccFrlMqd.s 			page 60


 2151              		.loc 1 401 18 is_stmt 0 view .LVU671
 2152 0260 0846     		mov	r0, r1
 2153              	.LVL246:
 401:Drivers/lvgl/src/misc/lv_area.c ****             y = lv_area_get_height(base) / 2 - lv_area_get_height(to_align) / 2;
 2154              		.loc 1 401 18 view .LVU672
 2155 0262 FFF7FEFF 		bl	lv_area_get_width
 2156              	.LVL247:
 401:Drivers/lvgl/src/misc/lv_area.c ****             y = lv_area_get_height(base) / 2 - lv_area_get_height(to_align) / 2;
 2157              		.loc 1 401 15 discriminator 1 view .LVU673
 2158 0266 C0F10008 		rsb	r8, r0, #0
 2159              	.LVL248:
 402:Drivers/lvgl/src/misc/lv_area.c ****             break;
 2160              		.loc 1 402 13 is_stmt 1 view .LVU674
 402:Drivers/lvgl/src/misc/lv_area.c ****             break;
 2161              		.loc 1 402 17 is_stmt 0 view .LVU675
 2162 026a 2046     		mov	r0, r4
 2163 026c FFF7FEFF 		bl	lv_area_get_height
 2164              	.LVL249:
 402:Drivers/lvgl/src/misc/lv_area.c ****             break;
 2165              		.loc 1 402 42 discriminator 1 view .LVU676
 2166 0270 0028     		cmp	r0, #0
 2167 0272 08DB     		blt	.L141
 2168              	.L119:
 2169 0274 4510     		asrs	r5, r0, #1
 402:Drivers/lvgl/src/misc/lv_area.c ****             break;
 2170              		.loc 1 402 48 discriminator 1 view .LVU677
 2171 0276 3046     		mov	r0, r6
 2172 0278 FFF7FEFF 		bl	lv_area_get_height
 2173              	.LVL250:
 402:Drivers/lvgl/src/misc/lv_area.c ****             break;
 2174              		.loc 1 402 77 discriminator 2 view .LVU678
 2175 027c 0028     		cmp	r0, #0
 2176 027e 04DB     		blt	.L142
 2177              	.L120:
 402:Drivers/lvgl/src/misc/lv_area.c ****             break;
 2178              		.loc 1 402 15 discriminator 2 view .LVU679
 2179 0280 A5EB6000 		sub	r0, r5, r0, asr #1
 2180              	.LVL251:
 403:Drivers/lvgl/src/misc/lv_area.c **** 
 2181              		.loc 1 403 13 is_stmt 1 view .LVU680
 2182 0284 F5E6     		b	.L81
 2183              	.LVL252:
 2184              	.L141:
 402:Drivers/lvgl/src/misc/lv_area.c ****             break;
 2185              		.loc 1 402 42 is_stmt 0 discriminator 1 view .LVU681
 2186 0286 0130     		adds	r0, r0, #1
 2187 0288 F4E7     		b	.L119
 2188              	.L142:
 402:Drivers/lvgl/src/misc/lv_area.c ****             break;
 2189              		.loc 1 402 77 discriminator 2 view .LVU682
 2190 028a 0130     		adds	r0, r0, #1
 2191 028c F8E7     		b	.L120
 2192              	.LVL253:
 2193              	.L86:
 406:Drivers/lvgl/src/misc/lv_area.c ****             y = lv_area_get_height(base) - lv_area_get_height(to_align);
 2194              		.loc 1 406 13 is_stmt 1 view .LVU683
 406:Drivers/lvgl/src/misc/lv_area.c ****             y = lv_area_get_height(base) - lv_area_get_height(to_align);
ARM GAS  /tmp/ccFrlMqd.s 			page 61


 2195              		.loc 1 406 18 is_stmt 0 view .LVU684
 2196 028e 0846     		mov	r0, r1
 2197              	.LVL254:
 406:Drivers/lvgl/src/misc/lv_area.c ****             y = lv_area_get_height(base) - lv_area_get_height(to_align);
 2198              		.loc 1 406 18 view .LVU685
 2199 0290 FFF7FEFF 		bl	lv_area_get_width
 2200              	.LVL255:
 406:Drivers/lvgl/src/misc/lv_area.c ****             y = lv_area_get_height(base) - lv_area_get_height(to_align);
 2201              		.loc 1 406 15 discriminator 1 view .LVU686
 2202 0294 C0F10008 		rsb	r8, r0, #0
 2203              	.LVL256:
 407:Drivers/lvgl/src/misc/lv_area.c ****             break;
 2204              		.loc 1 407 13 is_stmt 1 view .LVU687
 407:Drivers/lvgl/src/misc/lv_area.c ****             break;
 2205              		.loc 1 407 17 is_stmt 0 view .LVU688
 2206 0298 2046     		mov	r0, r4
 2207 029a FFF7FEFF 		bl	lv_area_get_height
 2208              	.LVL257:
 2209 029e 0546     		mov	r5, r0
 407:Drivers/lvgl/src/misc/lv_area.c ****             break;
 2210              		.loc 1 407 44 discriminator 1 view .LVU689
 2211 02a0 3046     		mov	r0, r6
 2212 02a2 FFF7FEFF 		bl	lv_area_get_height
 2213              	.LVL258:
 407:Drivers/lvgl/src/misc/lv_area.c ****             break;
 2214              		.loc 1 407 15 discriminator 2 view .LVU690
 2215 02a6 281A     		subs	r0, r5, r0
 2216              	.LVL259:
 408:Drivers/lvgl/src/misc/lv_area.c **** 
 2217              		.loc 1 408 13 is_stmt 1 view .LVU691
 2218 02a8 E3E6     		b	.L81
 2219              	.LVL260:
 2220              	.L85:
 411:Drivers/lvgl/src/misc/lv_area.c ****             y = 0;
 2221              		.loc 1 411 13 view .LVU692
 411:Drivers/lvgl/src/misc/lv_area.c ****             y = 0;
 2222              		.loc 1 411 17 is_stmt 0 view .LVU693
 2223 02aa FFF7FEFF 		bl	lv_area_get_width
 2224              	.LVL261:
 411:Drivers/lvgl/src/misc/lv_area.c ****             y = 0;
 2225              		.loc 1 411 17 view .LVU694
 2226 02ae 8046     		mov	r8, r0
 2227              	.LVL262:
 412:Drivers/lvgl/src/misc/lv_area.c ****             break;
 2228              		.loc 1 412 13 is_stmt 1 view .LVU695
 413:Drivers/lvgl/src/misc/lv_area.c **** 
 2229              		.loc 1 413 13 view .LVU696
 412:Drivers/lvgl/src/misc/lv_area.c ****             break;
 2230              		.loc 1 412 15 is_stmt 0 view .LVU697
 2231 02b0 0020     		movs	r0, #0
 2232              	.LVL263:
 413:Drivers/lvgl/src/misc/lv_area.c **** 
 2233              		.loc 1 413 13 view .LVU698
 2234 02b2 DEE6     		b	.L81
 2235              	.LVL264:
 2236              	.L84:
 416:Drivers/lvgl/src/misc/lv_area.c ****             y = lv_area_get_height(base) / 2 - lv_area_get_height(to_align) / 2;
ARM GAS  /tmp/ccFrlMqd.s 			page 62


 2237              		.loc 1 416 13 is_stmt 1 view .LVU699
 416:Drivers/lvgl/src/misc/lv_area.c ****             y = lv_area_get_height(base) / 2 - lv_area_get_height(to_align) / 2;
 2238              		.loc 1 416 17 is_stmt 0 view .LVU700
 2239 02b4 FFF7FEFF 		bl	lv_area_get_width
 2240              	.LVL265:
 416:Drivers/lvgl/src/misc/lv_area.c ****             y = lv_area_get_height(base) / 2 - lv_area_get_height(to_align) / 2;
 2241              		.loc 1 416 17 view .LVU701
 2242 02b8 8046     		mov	r8, r0
 2243              	.LVL266:
 417:Drivers/lvgl/src/misc/lv_area.c ****             break;
 2244              		.loc 1 417 13 is_stmt 1 view .LVU702
 417:Drivers/lvgl/src/misc/lv_area.c ****             break;
 2245              		.loc 1 417 17 is_stmt 0 view .LVU703
 2246 02ba 2046     		mov	r0, r4
 2247              	.LVL267:
 417:Drivers/lvgl/src/misc/lv_area.c ****             break;
 2248              		.loc 1 417 17 view .LVU704
 2249 02bc FFF7FEFF 		bl	lv_area_get_height
 2250              	.LVL268:
 417:Drivers/lvgl/src/misc/lv_area.c ****             break;
 2251              		.loc 1 417 42 discriminator 1 view .LVU705
 2252 02c0 0028     		cmp	r0, #0
 2253 02c2 08DB     		blt	.L143
 2254              	.L121:
 2255 02c4 4510     		asrs	r5, r0, #1
 417:Drivers/lvgl/src/misc/lv_area.c ****             break;
 2256              		.loc 1 417 48 discriminator 1 view .LVU706
 2257 02c6 3046     		mov	r0, r6
 2258 02c8 FFF7FEFF 		bl	lv_area_get_height
 2259              	.LVL269:
 417:Drivers/lvgl/src/misc/lv_area.c ****             break;
 2260              		.loc 1 417 77 discriminator 2 view .LVU707
 2261 02cc 0028     		cmp	r0, #0
 2262 02ce 04DB     		blt	.L144
 2263              	.L122:
 417:Drivers/lvgl/src/misc/lv_area.c ****             break;
 2264              		.loc 1 417 15 discriminator 2 view .LVU708
 2265 02d0 A5EB6000 		sub	r0, r5, r0, asr #1
 2266              	.LVL270:
 418:Drivers/lvgl/src/misc/lv_area.c **** 
 2267              		.loc 1 418 13 is_stmt 1 view .LVU709
 2268 02d4 CDE6     		b	.L81
 2269              	.LVL271:
 2270              	.L143:
 417:Drivers/lvgl/src/misc/lv_area.c ****             break;
 2271              		.loc 1 417 42 is_stmt 0 discriminator 1 view .LVU710
 2272 02d6 0130     		adds	r0, r0, #1
 2273 02d8 F4E7     		b	.L121
 2274              	.L144:
 417:Drivers/lvgl/src/misc/lv_area.c ****             break;
 2275              		.loc 1 417 77 discriminator 2 view .LVU711
 2276 02da 0130     		adds	r0, r0, #1
 2277 02dc F8E7     		b	.L122
 2278              	.LVL272:
 2279              	.L82:
 421:Drivers/lvgl/src/misc/lv_area.c ****             y = lv_area_get_height(base) - lv_area_get_height(to_align);
 2280              		.loc 1 421 13 is_stmt 1 view .LVU712
ARM GAS  /tmp/ccFrlMqd.s 			page 63


 421:Drivers/lvgl/src/misc/lv_area.c ****             y = lv_area_get_height(base) - lv_area_get_height(to_align);
 2281              		.loc 1 421 17 is_stmt 0 view .LVU713
 2282 02de FFF7FEFF 		bl	lv_area_get_width
 2283              	.LVL273:
 421:Drivers/lvgl/src/misc/lv_area.c ****             y = lv_area_get_height(base) - lv_area_get_height(to_align);
 2284              		.loc 1 421 17 view .LVU714
 2285 02e2 8046     		mov	r8, r0
 2286              	.LVL274:
 422:Drivers/lvgl/src/misc/lv_area.c ****             break;
 2287              		.loc 1 422 13 is_stmt 1 view .LVU715
 422:Drivers/lvgl/src/misc/lv_area.c ****             break;
 2288              		.loc 1 422 17 is_stmt 0 view .LVU716
 2289 02e4 2046     		mov	r0, r4
 2290              	.LVL275:
 422:Drivers/lvgl/src/misc/lv_area.c ****             break;
 2291              		.loc 1 422 17 view .LVU717
 2292 02e6 FFF7FEFF 		bl	lv_area_get_height
 2293              	.LVL276:
 2294 02ea 0546     		mov	r5, r0
 422:Drivers/lvgl/src/misc/lv_area.c ****             break;
 2295              		.loc 1 422 44 discriminator 1 view .LVU718
 2296 02ec 3046     		mov	r0, r6
 2297 02ee FFF7FEFF 		bl	lv_area_get_height
 2298              	.LVL277:
 422:Drivers/lvgl/src/misc/lv_area.c ****             break;
 2299              		.loc 1 422 15 discriminator 2 view .LVU719
 2300 02f2 281A     		subs	r0, r5, r0
 2301              	.LVL278:
 423:Drivers/lvgl/src/misc/lv_area.c ****         default:
 2302              		.loc 1 423 13 is_stmt 1 view .LVU720
 2303 02f4 BDE6     		b	.L81
 2304              	.LVL279:
 2305              	.L123:
 321:Drivers/lvgl/src/misc/lv_area.c ****         case LV_ALIGN_CENTER:
 2306              		.loc 1 321 5 is_stmt 0 view .LVU721
 2307 02f6 0020     		movs	r0, #0
 2308              	.LVL280:
 321:Drivers/lvgl/src/misc/lv_area.c ****         case LV_ALIGN_CENTER:
 2309              		.loc 1 321 5 view .LVU722
 2310 02f8 8046     		mov	r8, r0
 2311 02fa BAE6     		b	.L81
 2312              		.cfi_endproc
 2313              	.LFE201:
 2315              		.section	.text.lv_point_from_precise,"ax",%progbits
 2316              		.align	1
 2317              		.global	lv_point_from_precise
 2318              		.syntax unified
 2319              		.thumb
 2320              		.thumb_func
 2322              	lv_point_from_precise:
 2323              	.LVL281:
 2324              	.LFB206:
 523:Drivers/lvgl/src/misc/lv_area.c ****     lv_point_t point = {
 2325              		.loc 1 523 1 is_stmt 1 view -0
 2326              		.cfi_startproc
 2327              		@ args = 0, pretend = 0, frame = 0
 2328              		@ frame_needed = 0, uses_anonymous_args = 0
ARM GAS  /tmp/ccFrlMqd.s 			page 64


 2329              		@ link register save eliminated.
 524:Drivers/lvgl/src/misc/lv_area.c ****         (int32_t)p->x, (int32_t)p->y
 2330              		.loc 1 524 5 view .LVU724
 525:Drivers/lvgl/src/misc/lv_area.c ****     };
 2331              		.loc 1 525 19 is_stmt 0 view .LVU725
 2332 0000 0A68     		ldr	r2, [r1]
 524:Drivers/lvgl/src/misc/lv_area.c ****         (int32_t)p->x, (int32_t)p->y
 2333              		.loc 1 524 16 view .LVU726
 2334 0002 0260     		str	r2, [r0]
 525:Drivers/lvgl/src/misc/lv_area.c ****     };
 2335              		.loc 1 525 34 view .LVU727
 2336 0004 4A68     		ldr	r2, [r1, #4]
 524:Drivers/lvgl/src/misc/lv_area.c ****         (int32_t)p->x, (int32_t)p->y
 2337              		.loc 1 524 16 view .LVU728
 2338 0006 4260     		str	r2, [r0, #4]
 528:Drivers/lvgl/src/misc/lv_area.c **** }
 2339              		.loc 1 528 5 is_stmt 1 view .LVU729
 529:Drivers/lvgl/src/misc/lv_area.c **** 
 2340              		.loc 1 529 1 is_stmt 0 view .LVU730
 2341 0008 7047     		bx	lr
 2342              		.cfi_endproc
 2343              	.LFE206:
 2345              		.section	.text.lv_point_to_precise,"ax",%progbits
 2346              		.align	1
 2347              		.global	lv_point_to_precise
 2348              		.syntax unified
 2349              		.thumb
 2350              		.thumb_func
 2352              	lv_point_to_precise:
 2353              	.LVL282:
 2354              	.LFB207:
 532:Drivers/lvgl/src/misc/lv_area.c ****     lv_point_precise_t point = {
 2355              		.loc 1 532 1 is_stmt 1 view -0
 2356              		.cfi_startproc
 2357              		@ args = 0, pretend = 0, frame = 0
 2358              		@ frame_needed = 0, uses_anonymous_args = 0
 2359              		@ link register save eliminated.
 533:Drivers/lvgl/src/misc/lv_area.c ****         (lv_value_precise_t)p->x, (lv_value_precise_t)p->y
 2360              		.loc 1 533 5 view .LVU732
 534:Drivers/lvgl/src/misc/lv_area.c ****     };
 2361              		.loc 1 534 30 is_stmt 0 view .LVU733
 2362 0000 0A68     		ldr	r2, [r1]
 533:Drivers/lvgl/src/misc/lv_area.c ****         (lv_value_precise_t)p->x, (lv_value_precise_t)p->y
 2363              		.loc 1 533 24 view .LVU734
 2364 0002 0260     		str	r2, [r0]
 534:Drivers/lvgl/src/misc/lv_area.c ****     };
 2365              		.loc 1 534 56 view .LVU735
 2366 0004 4A68     		ldr	r2, [r1, #4]
 533:Drivers/lvgl/src/misc/lv_area.c ****         (lv_value_precise_t)p->x, (lv_value_precise_t)p->y
 2367              		.loc 1 533 24 view .LVU736
 2368 0006 4260     		str	r2, [r0, #4]
 537:Drivers/lvgl/src/misc/lv_area.c **** }
 2369              		.loc 1 537 5 is_stmt 1 view .LVU737
 538:Drivers/lvgl/src/misc/lv_area.c **** 
 2370              		.loc 1 538 1 is_stmt 0 view .LVU738
 2371 0008 7047     		bx	lr
 2372              		.cfi_endproc
ARM GAS  /tmp/ccFrlMqd.s 			page 65


 2373              	.LFE207:
 2375              		.section	.text.lv_point_set,"ax",%progbits
 2376              		.align	1
 2377              		.global	lv_point_set
 2378              		.syntax unified
 2379              		.thumb
 2380              		.thumb_func
 2382              	lv_point_set:
 2383              	.LVL283:
 2384              	.LFB208:
 541:Drivers/lvgl/src/misc/lv_area.c ****     p->x = x;
 2385              		.loc 1 541 1 is_stmt 1 view -0
 2386              		.cfi_startproc
 2387              		@ args = 0, pretend = 0, frame = 0
 2388              		@ frame_needed = 0, uses_anonymous_args = 0
 2389              		@ link register save eliminated.
 542:Drivers/lvgl/src/misc/lv_area.c ****     p->y = y;
 2390              		.loc 1 542 5 view .LVU740
 542:Drivers/lvgl/src/misc/lv_area.c ****     p->y = y;
 2391              		.loc 1 542 10 is_stmt 0 view .LVU741
 2392 0000 0160     		str	r1, [r0]
 543:Drivers/lvgl/src/misc/lv_area.c **** }
 2393              		.loc 1 543 5 is_stmt 1 view .LVU742
 543:Drivers/lvgl/src/misc/lv_area.c **** }
 2394              		.loc 1 543 10 is_stmt 0 view .LVU743
 2395 0002 4260     		str	r2, [r0, #4]
 544:Drivers/lvgl/src/misc/lv_area.c **** 
 2396              		.loc 1 544 1 view .LVU744
 2397 0004 7047     		bx	lr
 2398              		.cfi_endproc
 2399              	.LFE208:
 2401              		.section	.text.lv_area_is_in,"ax",%progbits
 2402              		.align	1
 2403              		.global	lv_area_is_in
 2404              		.syntax unified
 2405              		.thumb
 2406              		.thumb_func
 2408              	lv_area_is_in:
 2409              	.LVL284:
 2410              	.LFB198:
 255:Drivers/lvgl/src/misc/lv_area.c ****     bool is_in = false;
 2411              		.loc 1 255 1 is_stmt 1 view -0
 2412              		.cfi_startproc
 2413              		@ args = 0, pretend = 0, frame = 8
 2414              		@ frame_needed = 0, uses_anonymous_args = 0
 255:Drivers/lvgl/src/misc/lv_area.c ****     bool is_in = false;
 2415              		.loc 1 255 1 is_stmt 0 view .LVU746
 2416 0000 F0B5     		push	{r4, r5, r6, r7, lr}
 2417              	.LCFI18:
 2418              		.cfi_def_cfa_offset 20
 2419              		.cfi_offset 4, -20
 2420              		.cfi_offset 5, -16
 2421              		.cfi_offset 6, -12
 2422              		.cfi_offset 7, -8
 2423              		.cfi_offset 14, -4
 2424 0002 83B0     		sub	sp, sp, #12
 2425              	.LCFI19:
ARM GAS  /tmp/ccFrlMqd.s 			page 66


 2426              		.cfi_def_cfa_offset 32
 2427 0004 0C46     		mov	r4, r1
 256:Drivers/lvgl/src/misc/lv_area.c **** 
 2428              		.loc 1 256 5 is_stmt 1 view .LVU747
 2429              	.LVL285:
 258:Drivers/lvgl/src/misc/lv_area.c ****        ain_p->y2 <= aholder_p->y2) {
 2430              		.loc 1 258 5 view .LVU748
 258:Drivers/lvgl/src/misc/lv_area.c ****        ain_p->y2 <= aholder_p->y2) {
 2431              		.loc 1 258 13 is_stmt 0 view .LVU749
 2432 0006 0168     		ldr	r1, [r0]
 2433              	.LVL286:
 258:Drivers/lvgl/src/misc/lv_area.c ****        ain_p->y2 <= aholder_p->y2) {
 2434              		.loc 1 258 30 view .LVU750
 2435 0008 2368     		ldr	r3, [r4]
 258:Drivers/lvgl/src/misc/lv_area.c ****        ain_p->y2 <= aholder_p->y2) {
 2436              		.loc 1 258 7 view .LVU751
 2437 000a 9942     		cmp	r1, r3
 2438 000c 3ADB     		blt	.L150
 2439 000e 0646     		mov	r6, r0
 2440 0010 1546     		mov	r5, r2
 258:Drivers/lvgl/src/misc/lv_area.c ****        ain_p->y2 <= aholder_p->y2) {
 2441              		.loc 1 258 43 discriminator 1 view .LVU752
 2442 0012 4268     		ldr	r2, [r0, #4]
 2443              	.LVL287:
 258:Drivers/lvgl/src/misc/lv_area.c ****        ain_p->y2 <= aholder_p->y2) {
 2444              		.loc 1 258 60 discriminator 1 view .LVU753
 2445 0014 6368     		ldr	r3, [r4, #4]
 258:Drivers/lvgl/src/misc/lv_area.c ****        ain_p->y2 <= aholder_p->y2) {
 2446              		.loc 1 258 35 discriminator 1 view .LVU754
 2447 0016 9A42     		cmp	r2, r3
 2448 0018 37DB     		blt	.L151
 258:Drivers/lvgl/src/misc/lv_area.c ****        ain_p->y2 <= aholder_p->y2) {
 2449              		.loc 1 258 73 discriminator 2 view .LVU755
 2450 001a 8068     		ldr	r0, [r0, #8]
 2451              	.LVL288:
 258:Drivers/lvgl/src/misc/lv_area.c ****        ain_p->y2 <= aholder_p->y2) {
 2452              		.loc 1 258 90 discriminator 2 view .LVU756
 2453 001c A368     		ldr	r3, [r4, #8]
 258:Drivers/lvgl/src/misc/lv_area.c ****        ain_p->y2 <= aholder_p->y2) {
 2454              		.loc 1 258 65 discriminator 2 view .LVU757
 2455 001e 9842     		cmp	r0, r3
 2456 0020 35DC     		bgt	.L152
 259:Drivers/lvgl/src/misc/lv_area.c ****         is_in = true;
 2457              		.loc 1 259 13 view .LVU758
 2458 0022 F068     		ldr	r0, [r6, #12]
 259:Drivers/lvgl/src/misc/lv_area.c ****         is_in = true;
 2459              		.loc 1 259 30 view .LVU759
 2460 0024 E368     		ldr	r3, [r4, #12]
 258:Drivers/lvgl/src/misc/lv_area.c ****        ain_p->y2 <= aholder_p->y2) {
 2461              		.loc 1 258 95 discriminator 3 view .LVU760
 2462 0026 9842     		cmp	r0, r3
 2463 0028 33DC     		bgt	.L153
 260:Drivers/lvgl/src/misc/lv_area.c ****     }
 2464              		.loc 1 260 9 is_stmt 1 view .LVU761
 2465              	.LVL289:
 263:Drivers/lvgl/src/misc/lv_area.c ****     if(radius == 0) return true;
 2466              		.loc 1 263 5 view .LVU762
ARM GAS  /tmp/ccFrlMqd.s 			page 67


 264:Drivers/lvgl/src/misc/lv_area.c **** 
 2467              		.loc 1 264 5 view .LVU763
 264:Drivers/lvgl/src/misc/lv_area.c **** 
 2468              		.loc 1 264 7 is_stmt 0 view .LVU764
 2469 002a 0DB9     		cbnz	r5, .L156
 264:Drivers/lvgl/src/misc/lv_area.c **** 
 2470              		.loc 1 264 28 discriminator 1 view .LVU765
 2471 002c 0120     		movs	r0, #1
 2472 002e 2AE0     		b	.L149
 2473              	.L156:
 267:Drivers/lvgl/src/misc/lv_area.c **** 
 2474              		.loc 1 267 5 is_stmt 1 view .LVU766
 269:Drivers/lvgl/src/misc/lv_area.c ****     if(lv_area_is_point_on(aholder_p, &p, radius) == false) return false;
 2475              		.loc 1 269 5 view .LVU767
 2476 0030 6846     		mov	r0, sp
 2477 0032 FFF7FEFF 		bl	lv_point_set
 2478              	.LVL290:
 270:Drivers/lvgl/src/misc/lv_area.c **** 
 2479              		.loc 1 270 5 view .LVU768
 270:Drivers/lvgl/src/misc/lv_area.c **** 
 2480              		.loc 1 270 8 is_stmt 0 view .LVU769
 2481 0036 2A46     		mov	r2, r5
 2482 0038 6946     		mov	r1, sp
 2483 003a 2046     		mov	r0, r4
 2484 003c FFF7FEFF 		bl	lv_area_is_point_on
 2485              	.LVL291:
 270:Drivers/lvgl/src/misc/lv_area.c **** 
 2486              		.loc 1 270 7 discriminator 1 view .LVU770
 2487 0040 08B3     		cbz	r0, .L149
 272:Drivers/lvgl/src/misc/lv_area.c ****     if(lv_area_is_point_on(aholder_p, &p, radius) == false) return false;
 2488              		.loc 1 272 5 is_stmt 1 view .LVU771
 2489 0042 7268     		ldr	r2, [r6, #4]
 2490 0044 B168     		ldr	r1, [r6, #8]
 2491 0046 6846     		mov	r0, sp
 2492 0048 FFF7FEFF 		bl	lv_point_set
 2493              	.LVL292:
 273:Drivers/lvgl/src/misc/lv_area.c **** 
 2494              		.loc 1 273 5 view .LVU772
 273:Drivers/lvgl/src/misc/lv_area.c **** 
 2495              		.loc 1 273 8 is_stmt 0 view .LVU773
 2496 004c 2A46     		mov	r2, r5
 2497 004e 6946     		mov	r1, sp
 2498 0050 2046     		mov	r0, r4
 2499 0052 FFF7FEFF 		bl	lv_area_is_point_on
 2500              	.LVL293:
 273:Drivers/lvgl/src/misc/lv_area.c **** 
 2501              		.loc 1 273 7 discriminator 1 view .LVU774
 2502 0056 B0B1     		cbz	r0, .L149
 275:Drivers/lvgl/src/misc/lv_area.c ****     if(lv_area_is_point_on(aholder_p, &p, radius) == false) return false;
 2503              		.loc 1 275 5 is_stmt 1 view .LVU775
 2504 0058 F268     		ldr	r2, [r6, #12]
 2505 005a 3168     		ldr	r1, [r6]
 2506 005c 6846     		mov	r0, sp
 2507 005e FFF7FEFF 		bl	lv_point_set
 2508              	.LVL294:
 276:Drivers/lvgl/src/misc/lv_area.c **** 
 2509              		.loc 1 276 5 view .LVU776
ARM GAS  /tmp/ccFrlMqd.s 			page 68


 276:Drivers/lvgl/src/misc/lv_area.c **** 
 2510              		.loc 1 276 8 is_stmt 0 view .LVU777
 2511 0062 2A46     		mov	r2, r5
 2512 0064 6946     		mov	r1, sp
 2513 0066 2046     		mov	r0, r4
 2514 0068 FFF7FEFF 		bl	lv_area_is_point_on
 2515              	.LVL295:
 276:Drivers/lvgl/src/misc/lv_area.c **** 
 2516              		.loc 1 276 7 discriminator 1 view .LVU778
 2517 006c 58B1     		cbz	r0, .L149
 278:Drivers/lvgl/src/misc/lv_area.c ****     if(lv_area_is_point_on(aholder_p, &p, radius) == false) return false;
 2518              		.loc 1 278 5 is_stmt 1 view .LVU779
 2519 006e F268     		ldr	r2, [r6, #12]
 2520 0070 B168     		ldr	r1, [r6, #8]
 2521 0072 6846     		mov	r0, sp
 2522 0074 FFF7FEFF 		bl	lv_point_set
 2523              	.LVL296:
 279:Drivers/lvgl/src/misc/lv_area.c **** 
 2524              		.loc 1 279 5 view .LVU780
 279:Drivers/lvgl/src/misc/lv_area.c **** 
 2525              		.loc 1 279 8 is_stmt 0 view .LVU781
 2526 0078 2A46     		mov	r2, r5
 2527 007a 6946     		mov	r1, sp
 2528 007c 2046     		mov	r0, r4
 2529 007e FFF7FEFF 		bl	lv_area_is_point_on
 2530              	.LVL297:
 2531 0082 00E0     		b	.L149
 2532              	.LVL298:
 2533              	.L150:
 263:Drivers/lvgl/src/misc/lv_area.c ****     if(radius == 0) return true;
 2534              		.loc 1 263 23 discriminator 1 view .LVU782
 2535 0084 0020     		movs	r0, #0
 2536              	.LVL299:
 2537              	.L149:
 282:Drivers/lvgl/src/misc/lv_area.c **** 
 2538              		.loc 1 282 1 view .LVU783
 2539 0086 03B0     		add	sp, sp, #12
 2540              	.LCFI20:
 2541              		.cfi_remember_state
 2542              		.cfi_def_cfa_offset 20
 2543              		@ sp needed
 2544 0088 F0BD     		pop	{r4, r5, r6, r7, pc}
 2545              	.LVL300:
 2546              	.L151:
 2547              	.LCFI21:
 2548              		.cfi_restore_state
 263:Drivers/lvgl/src/misc/lv_area.c ****     if(radius == 0) return true;
 2549              		.loc 1 263 23 discriminator 1 view .LVU784
 2550 008a 0020     		movs	r0, #0
 2551              	.LVL301:
 263:Drivers/lvgl/src/misc/lv_area.c ****     if(radius == 0) return true;
 2552              		.loc 1 263 23 discriminator 1 view .LVU785
 2553 008c FBE7     		b	.L149
 2554              	.L152:
 2555 008e 0020     		movs	r0, #0
 2556 0090 F9E7     		b	.L149
 2557              	.L153:
ARM GAS  /tmp/ccFrlMqd.s 			page 69


 2558 0092 0020     		movs	r0, #0
 2559 0094 F7E7     		b	.L149
 2560              		.cfi_endproc
 2561              	.LFE198:
 2563              		.section	.text.lv_area_diff,"ax",%progbits
 2564              		.align	1
 2565              		.global	lv_area_diff
 2566              		.syntax unified
 2567              		.thumb
 2568              		.thumb_func
 2570              	lv_area_diff:
 2571              	.LVL302:
 2572              	.LFB194:
 112:Drivers/lvgl/src/misc/lv_area.c ****     /*Areas have no common parts*/
 2573              		.loc 1 112 1 is_stmt 1 view -0
 2574              		.cfi_startproc
 2575              		@ args = 0, pretend = 0, frame = 16
 2576              		@ frame_needed = 0, uses_anonymous_args = 0
 112:Drivers/lvgl/src/misc/lv_area.c ****     /*Areas have no common parts*/
 2577              		.loc 1 112 1 is_stmt 0 view .LVU787
 2578 0000 2DE9F047 		push	{r4, r5, r6, r7, r8, r9, r10, lr}
 2579              	.LCFI22:
 2580              		.cfi_def_cfa_offset 32
 2581              		.cfi_offset 4, -32
 2582              		.cfi_offset 5, -28
 2583              		.cfi_offset 6, -24
 2584              		.cfi_offset 7, -20
 2585              		.cfi_offset 8, -16
 2586              		.cfi_offset 9, -12
 2587              		.cfi_offset 10, -8
 2588              		.cfi_offset 14, -4
 2589 0004 84B0     		sub	sp, sp, #16
 2590              	.LCFI23:
 2591              		.cfi_def_cfa_offset 48
 2592 0006 0646     		mov	r6, r0
 2593 0008 0C46     		mov	r4, r1
 2594 000a 1546     		mov	r5, r2
 114:Drivers/lvgl/src/misc/lv_area.c **** 
 2595              		.loc 1 114 5 is_stmt 1 view .LVU788
 114:Drivers/lvgl/src/misc/lv_area.c **** 
 2596              		.loc 1 114 9 is_stmt 0 view .LVU789
 2597 000c 1146     		mov	r1, r2
 2598              	.LVL303:
 114:Drivers/lvgl/src/misc/lv_area.c **** 
 2599              		.loc 1 114 9 view .LVU790
 2600 000e 2046     		mov	r0, r4
 2601              	.LVL304:
 114:Drivers/lvgl/src/misc/lv_area.c **** 
 2602              		.loc 1 114 9 view .LVU791
 2603 0010 FFF7FEFF 		bl	lv_area_is_on
 2604              	.LVL305:
 114:Drivers/lvgl/src/misc/lv_area.c **** 
 2605              		.loc 1 114 7 discriminator 1 view .LVU792
 2606 0014 0028     		cmp	r0, #0
 2607 0016 00F08D80 		beq	.L162
 117:Drivers/lvgl/src/misc/lv_area.c **** 
 2608              		.loc 1 117 5 is_stmt 1 view .LVU793
ARM GAS  /tmp/ccFrlMqd.s 			page 70


 117:Drivers/lvgl/src/misc/lv_area.c **** 
 2609              		.loc 1 117 8 is_stmt 0 view .LVU794
 2610 001a 0022     		movs	r2, #0
 2611 001c 2946     		mov	r1, r5
 2612 001e 2046     		mov	r0, r4
 2613 0020 FFF7FEFF 		bl	lv_area_is_in
 2614              	.LVL306:
 117:Drivers/lvgl/src/misc/lv_area.c **** 
 2615              		.loc 1 117 7 discriminator 1 view .LVU795
 2616 0024 0028     		cmp	r0, #0
 2617 0026 40F08880 		bne	.L163
 120:Drivers/lvgl/src/misc/lv_area.c **** 
 2618              		.loc 1 120 5 is_stmt 1 view .LVU796
 2619              	.LVL307:
 123:Drivers/lvgl/src/misc/lv_area.c ****     int32_t a1_w = lv_area_get_width(a1_p) - 1;
 2620              		.loc 1 123 5 view .LVU797
 124:Drivers/lvgl/src/misc/lv_area.c ****     int32_t a1_h = lv_area_get_height(a1_p) - 1;
 2621              		.loc 1 124 5 view .LVU798
 124:Drivers/lvgl/src/misc/lv_area.c ****     int32_t a1_h = lv_area_get_height(a1_p) - 1;
 2622              		.loc 1 124 20 is_stmt 0 view .LVU799
 2623 002a 2046     		mov	r0, r4
 2624 002c FFF7FEFF 		bl	lv_area_get_width
 2625              	.LVL308:
 124:Drivers/lvgl/src/misc/lv_area.c ****     int32_t a1_h = lv_area_get_height(a1_p) - 1;
 2626              		.loc 1 124 13 discriminator 1 view .LVU800
 2627 0030 471E     		subs	r7, r0, #1
 2628              	.LVL309:
 125:Drivers/lvgl/src/misc/lv_area.c **** 
 2629              		.loc 1 125 5 is_stmt 1 view .LVU801
 125:Drivers/lvgl/src/misc/lv_area.c **** 
 2630              		.loc 1 125 20 is_stmt 0 view .LVU802
 2631 0032 2046     		mov	r0, r4
 2632 0034 FFF7FEFF 		bl	lv_area_get_height
 2633              	.LVL310:
 125:Drivers/lvgl/src/misc/lv_area.c **** 
 2634              		.loc 1 125 13 discriminator 1 view .LVU803
 2635 0038 00F1FF3C 		add	ip, r0, #-1
 2636              	.LVL311:
 128:Drivers/lvgl/src/misc/lv_area.c ****     if(th > 0) {
 2637              		.loc 1 128 5 is_stmt 1 view .LVU804
 128:Drivers/lvgl/src/misc/lv_area.c ****     if(th > 0) {
 2638              		.loc 1 128 22 is_stmt 0 view .LVU805
 2639 003c 6B68     		ldr	r3, [r5, #4]
 128:Drivers/lvgl/src/misc/lv_area.c ****     if(th > 0) {
 2640              		.loc 1 128 33 view .LVU806
 2641 003e 6268     		ldr	r2, [r4, #4]
 128:Drivers/lvgl/src/misc/lv_area.c ****     if(th > 0) {
 2642              		.loc 1 128 13 view .LVU807
 2643 0040 991A     		subs	r1, r3, r2
 2644              	.LVL312:
 129:Drivers/lvgl/src/misc/lv_area.c ****         n.x1 = a1_p->x1;
 2645              		.loc 1 129 5 is_stmt 1 view .LVU808
 129:Drivers/lvgl/src/misc/lv_area.c ****         n.x1 = a1_p->x1;
 2646              		.loc 1 129 7 is_stmt 0 view .LVU809
 2647 0042 0029     		cmp	r1, #0
 2648 0044 74DD     		ble	.L164
 130:Drivers/lvgl/src/misc/lv_area.c ****         n.y1 = a1_p->y1;
ARM GAS  /tmp/ccFrlMqd.s 			page 71


 2649              		.loc 1 130 9 is_stmt 1 view .LVU810
 130:Drivers/lvgl/src/misc/lv_area.c ****         n.y1 = a1_p->y1;
 2650              		.loc 1 130 20 is_stmt 0 view .LVU811
 2651 0046 2168     		ldr	r1, [r4]
 2652              	.LVL313:
 130:Drivers/lvgl/src/misc/lv_area.c ****         n.y1 = a1_p->y1;
 2653              		.loc 1 130 14 view .LVU812
 2654 0048 0091     		str	r1, [sp]
 131:Drivers/lvgl/src/misc/lv_area.c ****         n.x2 = a1_p->x2;
 2655              		.loc 1 131 9 is_stmt 1 view .LVU813
 131:Drivers/lvgl/src/misc/lv_area.c ****         n.x2 = a1_p->x2;
 2656              		.loc 1 131 14 is_stmt 0 view .LVU814
 2657 004a 0192     		str	r2, [sp, #4]
 132:Drivers/lvgl/src/misc/lv_area.c ****         n.y2 = a1_p->y1 + th - 1;
 2658              		.loc 1 132 9 is_stmt 1 view .LVU815
 132:Drivers/lvgl/src/misc/lv_area.c ****         n.y2 = a1_p->y1 + th - 1;
 2659              		.loc 1 132 20 is_stmt 0 view .LVU816
 2660 004c A268     		ldr	r2, [r4, #8]
 2661              	.LVL314:
 132:Drivers/lvgl/src/misc/lv_area.c ****         n.y2 = a1_p->y1 + th - 1;
 2662              		.loc 1 132 14 view .LVU817
 2663 004e 0292     		str	r2, [sp, #8]
 133:Drivers/lvgl/src/misc/lv_area.c ****         res_p[res_c++] = n;
 2664              		.loc 1 133 9 is_stmt 1 view .LVU818
 133:Drivers/lvgl/src/misc/lv_area.c ****         res_p[res_c++] = n;
 2665              		.loc 1 133 30 is_stmt 0 view .LVU819
 2666 0050 013B     		subs	r3, r3, #1
 2667              	.LVL315:
 133:Drivers/lvgl/src/misc/lv_area.c ****         res_p[res_c++] = n;
 2668              		.loc 1 133 14 view .LVU820
 2669 0052 0393     		str	r3, [sp, #12]
 134:Drivers/lvgl/src/misc/lv_area.c ****     }
 2670              		.loc 1 134 9 is_stmt 1 view .LVU821
 2671              	.LVL316:
 134:Drivers/lvgl/src/misc/lv_area.c ****     }
 2672              		.loc 1 134 24 is_stmt 0 view .LVU822
 2673 0054 04AB     		add	r3, sp, #16
 2674 0056 13E90F00 		ldmdb	r3, {r0, r1, r2, r3}
 2675 005a 86E80F00 		stm	r6, {r0, r1, r2, r3}
 2676              	.LVL317:
 134:Drivers/lvgl/src/misc/lv_area.c ****     }
 2677              		.loc 1 134 20 view .LVU823
 2678 005e 0120     		movs	r0, #1
 2679              	.LVL318:
 2680              	.L159:
 138:Drivers/lvgl/src/misc/lv_area.c ****     if(bh > 0 && a2_p->y2 < a1_p->y2) {
 2681              		.loc 1 138 5 is_stmt 1 view .LVU824
 138:Drivers/lvgl/src/misc/lv_area.c ****     if(bh > 0 && a2_p->y2 < a1_p->y2) {
 2682              		.loc 1 138 30 is_stmt 0 view .LVU825
 2683 0060 EA68     		ldr	r2, [r5, #12]
 138:Drivers/lvgl/src/misc/lv_area.c ****     if(bh > 0 && a2_p->y2 < a1_p->y2) {
 2684              		.loc 1 138 41 view .LVU826
 2685 0062 6368     		ldr	r3, [r4, #4]
 138:Drivers/lvgl/src/misc/lv_area.c ****     if(bh > 0 && a2_p->y2 < a1_p->y2) {
 2686              		.loc 1 138 35 view .LVU827
 2687 0064 D31A     		subs	r3, r2, r3
 138:Drivers/lvgl/src/misc/lv_area.c ****     if(bh > 0 && a2_p->y2 < a1_p->y2) {
ARM GAS  /tmp/ccFrlMqd.s 			page 72


 2688              		.loc 1 138 13 view .LVU828
 2689 0066 ACEB0303 		sub	r3, ip, r3
 2690              	.LVL319:
 139:Drivers/lvgl/src/misc/lv_area.c ****         n.x1 = a1_p->x1;
 2691              		.loc 1 139 5 is_stmt 1 view .LVU829
 139:Drivers/lvgl/src/misc/lv_area.c ****         n.x1 = a1_p->x1;
 2692              		.loc 1 139 7 is_stmt 0 view .LVU830
 2693 006a 002B     		cmp	r3, #0
 2694 006c 15DD     		ble	.L160
 139:Drivers/lvgl/src/misc/lv_area.c ****         n.x1 = a1_p->x1;
 2695              		.loc 1 139 33 discriminator 1 view .LVU831
 2696 006e E168     		ldr	r1, [r4, #12]
 139:Drivers/lvgl/src/misc/lv_area.c ****         n.x1 = a1_p->x1;
 2697              		.loc 1 139 15 discriminator 1 view .LVU832
 2698 0070 8A42     		cmp	r2, r1
 2699 0072 12DA     		bge	.L160
 140:Drivers/lvgl/src/misc/lv_area.c ****         n.y1 = a2_p->y2 + 1;
 2700              		.loc 1 140 9 is_stmt 1 view .LVU833
 140:Drivers/lvgl/src/misc/lv_area.c ****         n.y1 = a2_p->y2 + 1;
 2701              		.loc 1 140 20 is_stmt 0 view .LVU834
 2702 0074 2168     		ldr	r1, [r4]
 140:Drivers/lvgl/src/misc/lv_area.c ****         n.y1 = a2_p->y2 + 1;
 2703              		.loc 1 140 14 view .LVU835
 2704 0076 0091     		str	r1, [sp]
 141:Drivers/lvgl/src/misc/lv_area.c ****         n.x2 = a1_p->x2;
 2705              		.loc 1 141 9 is_stmt 1 view .LVU836
 141:Drivers/lvgl/src/misc/lv_area.c ****         n.x2 = a1_p->x2;
 2706              		.loc 1 141 25 is_stmt 0 view .LVU837
 2707 0078 511C     		adds	r1, r2, #1
 141:Drivers/lvgl/src/misc/lv_area.c ****         n.x2 = a1_p->x2;
 2708              		.loc 1 141 14 view .LVU838
 2709 007a 0191     		str	r1, [sp, #4]
 142:Drivers/lvgl/src/misc/lv_area.c ****         n.y2 = a2_p->y2 + bh;
 2710              		.loc 1 142 9 is_stmt 1 view .LVU839
 142:Drivers/lvgl/src/misc/lv_area.c ****         n.y2 = a2_p->y2 + bh;
 2711              		.loc 1 142 20 is_stmt 0 view .LVU840
 2712 007c A168     		ldr	r1, [r4, #8]
 142:Drivers/lvgl/src/misc/lv_area.c ****         n.y2 = a2_p->y2 + bh;
 2713              		.loc 1 142 14 view .LVU841
 2714 007e 0291     		str	r1, [sp, #8]
 143:Drivers/lvgl/src/misc/lv_area.c ****         res_p[res_c++] = n;
 2715              		.loc 1 143 9 is_stmt 1 view .LVU842
 143:Drivers/lvgl/src/misc/lv_area.c ****         res_p[res_c++] = n;
 2716              		.loc 1 143 25 is_stmt 0 view .LVU843
 2717 0080 1A44     		add	r2, r2, r3
 143:Drivers/lvgl/src/misc/lv_area.c ****         res_p[res_c++] = n;
 2718              		.loc 1 143 14 view .LVU844
 2719 0082 0392     		str	r2, [sp, #12]
 144:Drivers/lvgl/src/misc/lv_area.c ****     }
 2720              		.loc 1 144 9 is_stmt 1 view .LVU845
 144:Drivers/lvgl/src/misc/lv_area.c ****     }
 2721              		.loc 1 144 20 is_stmt 0 view .LVU846
 2722 0084 00F1010E 		add	lr, r0, #1
 2723              	.LVL320:
 144:Drivers/lvgl/src/misc/lv_area.c ****     }
 2724              		.loc 1 144 14 view .LVU847
 2725 0088 06EB001C 		add	ip, r6, r0, lsl #4
ARM GAS  /tmp/ccFrlMqd.s 			page 73


 2726              	.LVL321:
 144:Drivers/lvgl/src/misc/lv_area.c ****     }
 2727              		.loc 1 144 24 view .LVU848
 2728 008c 04AB     		add	r3, sp, #16
 2729              	.LVL322:
 144:Drivers/lvgl/src/misc/lv_area.c ****     }
 2730              		.loc 1 144 24 view .LVU849
 2731 008e 13E90F00 		ldmdb	r3, {r0, r1, r2, r3}
 2732 0092 8CE80F00 		stm	ip, {r0, r1, r2, r3}
 144:Drivers/lvgl/src/misc/lv_area.c ****     }
 2733              		.loc 1 144 20 view .LVU850
 2734 0096 4FFA8EF0 		sxtb	r0, lr
 2735              	.LVL323:
 2736              	.L160:
 148:Drivers/lvgl/src/misc/lv_area.c ****     int32_t y2 = a2_p->y2 < a1_p->y2 ? a2_p->y2 : a1_p->y2;
 2737              		.loc 1 148 5 is_stmt 1 view .LVU851
 148:Drivers/lvgl/src/misc/lv_area.c ****     int32_t y2 = a2_p->y2 < a1_p->y2 ? a2_p->y2 : a1_p->y2;
 2738              		.loc 1 148 33 is_stmt 0 view .LVU852
 2739 009a 6268     		ldr	r2, [r4, #4]
 148:Drivers/lvgl/src/misc/lv_area.c ****     int32_t y2 = a2_p->y2 < a1_p->y2 ? a2_p->y2 : a1_p->y2;
 2740              		.loc 1 148 22 view .LVU853
 2741 009c 6B68     		ldr	r3, [r5, #4]
 148:Drivers/lvgl/src/misc/lv_area.c ****     int32_t y2 = a2_p->y2 < a1_p->y2 ? a2_p->y2 : a1_p->y2;
 2742              		.loc 1 148 13 view .LVU854
 2743 009e 9A42     		cmp	r2, r3
 2744 00a0 B8BF     		it	lt
 2745 00a2 1A46     		movlt	r2, r3
 2746 00a4 9046     		mov	r8, r2
 2747              	.LVL324:
 149:Drivers/lvgl/src/misc/lv_area.c ****     int32_t sh = y2 - y1;
 2748              		.loc 1 149 5 is_stmt 1 view .LVU855
 149:Drivers/lvgl/src/misc/lv_area.c ****     int32_t sh = y2 - y1;
 2749              		.loc 1 149 33 is_stmt 0 view .LVU856
 2750 00a6 E268     		ldr	r2, [r4, #12]
 2751              	.LVL325:
 149:Drivers/lvgl/src/misc/lv_area.c ****     int32_t sh = y2 - y1;
 2752              		.loc 1 149 22 view .LVU857
 2753 00a8 EB68     		ldr	r3, [r5, #12]
 149:Drivers/lvgl/src/misc/lv_area.c ****     int32_t sh = y2 - y1;
 2754              		.loc 1 149 13 view .LVU858
 2755 00aa 9A42     		cmp	r2, r3
 2756 00ac A8BF     		it	ge
 2757 00ae 1A46     		movge	r2, r3
 2758 00b0 9646     		mov	lr, r2
 2759              	.LVL326:
 150:Drivers/lvgl/src/misc/lv_area.c **** 
 2760              		.loc 1 150 5 is_stmt 1 view .LVU859
 150:Drivers/lvgl/src/misc/lv_area.c **** 
 2761              		.loc 1 150 13 is_stmt 0 view .LVU860
 2762 00b2 A2EB080C 		sub	ip, r2, r8
 2763              	.LVL327:
 153:Drivers/lvgl/src/misc/lv_area.c ****     if(lw > 0 && sh >= 0) {
 2764              		.loc 1 153 5 is_stmt 1 view .LVU861
 153:Drivers/lvgl/src/misc/lv_area.c ****     if(lw > 0 && sh >= 0) {
 2765              		.loc 1 153 22 is_stmt 0 view .LVU862
 2766 00b6 2B68     		ldr	r3, [r5]
 153:Drivers/lvgl/src/misc/lv_area.c ****     if(lw > 0 && sh >= 0) {
ARM GAS  /tmp/ccFrlMqd.s 			page 74


 2767              		.loc 1 153 33 view .LVU863
 2768 00b8 2268     		ldr	r2, [r4]
 2769              	.LVL328:
 153:Drivers/lvgl/src/misc/lv_area.c ****     if(lw > 0 && sh >= 0) {
 2770              		.loc 1 153 13 view .LVU864
 2771 00ba A3EB0209 		sub	r9, r3, r2
 2772              	.LVL329:
 154:Drivers/lvgl/src/misc/lv_area.c ****         n.x1 = a1_p->x1;
 2773              		.loc 1 154 5 is_stmt 1 view .LVU865
 154:Drivers/lvgl/src/misc/lv_area.c ****         n.x1 = a1_p->x1;
 2774              		.loc 1 154 21 is_stmt 0 view .LVU866
 2775 00be 6FEA0C0C 		mvn	ip, ip
 2776              	.LVL330:
 154:Drivers/lvgl/src/misc/lv_area.c ****         n.x1 = a1_p->x1;
 2777              		.loc 1 154 21 view .LVU867
 2778 00c2 4FEADC7C 		lsr	ip, ip, #31
 2779              	.LVL331:
 154:Drivers/lvgl/src/misc/lv_area.c ****         n.x1 = a1_p->x1;
 2780              		.loc 1 154 15 view .LVU868
 2781 00c6 B9F1000F 		cmp	r9, #0
 2782 00ca D4BF     		ite	le
 2783 00cc 0021     		movle	r1, #0
 2784 00ce 0CF00101 		andgt	r1, ip, #1
 154:Drivers/lvgl/src/misc/lv_area.c ****         n.x1 = a1_p->x1;
 2785              		.loc 1 154 7 view .LVU869
 2786 00d2 89B1     		cbz	r1, .L161
 155:Drivers/lvgl/src/misc/lv_area.c ****         n.y1 = y1;
 2787              		.loc 1 155 9 is_stmt 1 view .LVU870
 155:Drivers/lvgl/src/misc/lv_area.c ****         n.y1 = y1;
 2788              		.loc 1 155 14 is_stmt 0 view .LVU871
 2789 00d4 0092     		str	r2, [sp]
 156:Drivers/lvgl/src/misc/lv_area.c ****         n.x2 = a1_p->x1 + lw - 1;
 2790              		.loc 1 156 9 is_stmt 1 view .LVU872
 156:Drivers/lvgl/src/misc/lv_area.c ****         n.x2 = a1_p->x1 + lw - 1;
 2791              		.loc 1 156 14 is_stmt 0 view .LVU873
 2792 00d6 CDF80480 		str	r8, [sp, #4]
 157:Drivers/lvgl/src/misc/lv_area.c ****         n.y2 = y1 + sh;
 2793              		.loc 1 157 9 is_stmt 1 view .LVU874
 157:Drivers/lvgl/src/misc/lv_area.c ****         n.y2 = y1 + sh;
 2794              		.loc 1 157 30 is_stmt 0 view .LVU875
 2795 00da 013B     		subs	r3, r3, #1
 157:Drivers/lvgl/src/misc/lv_area.c ****         n.y2 = y1 + sh;
 2796              		.loc 1 157 14 view .LVU876
 2797 00dc 0293     		str	r3, [sp, #8]
 158:Drivers/lvgl/src/misc/lv_area.c ****         res_p[res_c++] = n;
 2798              		.loc 1 158 9 is_stmt 1 view .LVU877
 158:Drivers/lvgl/src/misc/lv_area.c ****         res_p[res_c++] = n;
 2799              		.loc 1 158 14 is_stmt 0 view .LVU878
 2800 00de CDF80CE0 		str	lr, [sp, #12]
 159:Drivers/lvgl/src/misc/lv_area.c ****     }
 2801              		.loc 1 159 9 is_stmt 1 view .LVU879
 159:Drivers/lvgl/src/misc/lv_area.c ****     }
 2802              		.loc 1 159 20 is_stmt 0 view .LVU880
 2803 00e2 00F1010A 		add	r10, r0, #1
 2804              	.LVL332:
 159:Drivers/lvgl/src/misc/lv_area.c ****     }
 2805              		.loc 1 159 14 view .LVU881
ARM GAS  /tmp/ccFrlMqd.s 			page 75


 2806 00e6 06EB0019 		add	r9, r6, r0, lsl #4
 2807              	.LVL333:
 159:Drivers/lvgl/src/misc/lv_area.c ****     }
 2808              		.loc 1 159 24 view .LVU882
 2809 00ea 04AB     		add	r3, sp, #16
 2810 00ec 13E90F00 		ldmdb	r3, {r0, r1, r2, r3}
 2811              	.LVL334:
 159:Drivers/lvgl/src/misc/lv_area.c ****     }
 2812              		.loc 1 159 24 view .LVU883
 2813 00f0 89E80F00 		stm	r9, {r0, r1, r2, r3}
 2814              	.LVL335:
 159:Drivers/lvgl/src/misc/lv_area.c ****     }
 2815              		.loc 1 159 20 view .LVU884
 2816 00f4 4FFA8AF0 		sxtb	r0, r10
 2817              	.LVL336:
 2818              	.L161:
 163:Drivers/lvgl/src/misc/lv_area.c ****     if(rw > 0 && sh >= 0) {
 2819              		.loc 1 163 5 is_stmt 1 view .LVU885
 163:Drivers/lvgl/src/misc/lv_area.c ****     if(rw > 0 && sh >= 0) {
 2820              		.loc 1 163 30 is_stmt 0 view .LVU886
 2821 00f8 A968     		ldr	r1, [r5, #8]
 163:Drivers/lvgl/src/misc/lv_area.c ****     if(rw > 0 && sh >= 0) {
 2822              		.loc 1 163 41 view .LVU887
 2823 00fa 2368     		ldr	r3, [r4]
 163:Drivers/lvgl/src/misc/lv_area.c ****     if(rw > 0 && sh >= 0) {
 2824              		.loc 1 163 35 view .LVU888
 2825 00fc CB1A     		subs	r3, r1, r3
 163:Drivers/lvgl/src/misc/lv_area.c ****     if(rw > 0 && sh >= 0) {
 2826              		.loc 1 163 13 view .LVU889
 2827 00fe FA1A     		subs	r2, r7, r3
 2828              	.LVL337:
 164:Drivers/lvgl/src/misc/lv_area.c ****         n.x1 = a2_p->x2 + 1;
 2829              		.loc 1 164 5 is_stmt 1 view .LVU890
 164:Drivers/lvgl/src/misc/lv_area.c ****         n.x1 = a2_p->x2 + 1;
 2830              		.loc 1 164 15 is_stmt 0 view .LVU891
 2831 0100 002A     		cmp	r2, #0
 2832 0102 D4BF     		ite	le
 2833 0104 0023     		movle	r3, #0
 2834 0106 0CF00103 		andgt	r3, ip, #1
 164:Drivers/lvgl/src/misc/lv_area.c ****         n.x1 = a2_p->x2 + 1;
 2835              		.loc 1 164 7 view .LVU892
 2836 010a BBB1     		cbz	r3, .L158
 165:Drivers/lvgl/src/misc/lv_area.c ****         n.y1 = y1;
 2837              		.loc 1 165 9 is_stmt 1 view .LVU893
 165:Drivers/lvgl/src/misc/lv_area.c ****         n.y1 = y1;
 2838              		.loc 1 165 25 is_stmt 0 view .LVU894
 2839 010c 4B1C     		adds	r3, r1, #1
 165:Drivers/lvgl/src/misc/lv_area.c ****         n.y1 = y1;
 2840              		.loc 1 165 14 view .LVU895
 2841 010e 0093     		str	r3, [sp]
 166:Drivers/lvgl/src/misc/lv_area.c ****         n.x2 = a2_p->x2 + rw;
 2842              		.loc 1 166 9 is_stmt 1 view .LVU896
 166:Drivers/lvgl/src/misc/lv_area.c ****         n.x2 = a2_p->x2 + rw;
 2843              		.loc 1 166 14 is_stmt 0 view .LVU897
 2844 0110 CDF80480 		str	r8, [sp, #4]
 167:Drivers/lvgl/src/misc/lv_area.c ****         n.y2 = y1 + sh;
 2845              		.loc 1 167 9 is_stmt 1 view .LVU898
ARM GAS  /tmp/ccFrlMqd.s 			page 76


 167:Drivers/lvgl/src/misc/lv_area.c ****         n.y2 = y1 + sh;
 2846              		.loc 1 167 25 is_stmt 0 view .LVU899
 2847 0114 1144     		add	r1, r1, r2
 167:Drivers/lvgl/src/misc/lv_area.c ****         n.y2 = y1 + sh;
 2848              		.loc 1 167 14 view .LVU900
 2849 0116 0291     		str	r1, [sp, #8]
 168:Drivers/lvgl/src/misc/lv_area.c ****         res_p[res_c++] = n;
 2850              		.loc 1 168 9 is_stmt 1 view .LVU901
 168:Drivers/lvgl/src/misc/lv_area.c ****         res_p[res_c++] = n;
 2851              		.loc 1 168 14 is_stmt 0 view .LVU902
 2852 0118 CDF80CE0 		str	lr, [sp, #12]
 169:Drivers/lvgl/src/misc/lv_area.c ****     }
 2853              		.loc 1 169 9 is_stmt 1 view .LVU903
 169:Drivers/lvgl/src/misc/lv_area.c ****     }
 2854              		.loc 1 169 20 is_stmt 0 view .LVU904
 2855 011c 441C     		adds	r4, r0, #1
 2856              	.LVL338:
 169:Drivers/lvgl/src/misc/lv_area.c ****     }
 2857              		.loc 1 169 14 view .LVU905
 2858 011e 06EB0016 		add	r6, r6, r0, lsl #4
 2859              	.LVL339:
 169:Drivers/lvgl/src/misc/lv_area.c ****     }
 2860              		.loc 1 169 24 view .LVU906
 2861 0122 04AB     		add	r3, sp, #16
 2862 0124 13E90F00 		ldmdb	r3, {r0, r1, r2, r3}
 2863              	.LVL340:
 169:Drivers/lvgl/src/misc/lv_area.c ****     }
 2864              		.loc 1 169 24 view .LVU907
 2865 0128 86E80F00 		stm	r6, {r0, r1, r2, r3}
 2866              	.LVL341:
 169:Drivers/lvgl/src/misc/lv_area.c ****     }
 2867              		.loc 1 169 20 view .LVU908
 2868 012c 60B2     		sxtb	r0, r4
 2869 012e 05E0     		b	.L158
 2870              	.LVL342:
 2871              	.L164:
 120:Drivers/lvgl/src/misc/lv_area.c **** 
 2872              		.loc 1 120 12 view .LVU909
 2873 0130 0020     		movs	r0, #0
 2874 0132 95E7     		b	.L159
 2875              	.LVL343:
 2876              	.L162:
 114:Drivers/lvgl/src/misc/lv_area.c **** 
 2877              		.loc 1 114 43 discriminator 1 view .LVU910
 2878 0134 4FF0FF30 		mov	r0, #-1
 2879 0138 00E0     		b	.L158
 2880              	.L163:
 117:Drivers/lvgl/src/misc/lv_area.c **** 
 2881              		.loc 1 117 45 discriminator 1 view .LVU911
 2882 013a 0020     		movs	r0, #0
 2883              	.LVL344:
 2884              	.L158:
 174:Drivers/lvgl/src/misc/lv_area.c **** 
 2885              		.loc 1 174 1 view .LVU912
 2886 013c 04B0     		add	sp, sp, #16
 2887              	.LCFI24:
 2888              		.cfi_def_cfa_offset 32
ARM GAS  /tmp/ccFrlMqd.s 			page 77


 2889              		@ sp needed
 2890 013e BDE8F087 		pop	{r4, r5, r6, r7, r8, r9, r10, pc}
 174:Drivers/lvgl/src/misc/lv_area.c **** 
 2891              		.loc 1 174 1 view .LVU913
 2892              		.cfi_endproc
 2893              	.LFE194:
 2895              		.section	.text.lv_area_is_out,"ax",%progbits
 2896              		.align	1
 2897              		.global	lv_area_is_out
 2898              		.syntax unified
 2899              		.thumb
 2900              		.thumb_func
 2902              	lv_area_is_out:
 2903              	.LVL345:
 2904              	.LFB199:
 285:Drivers/lvgl/src/misc/lv_area.c ****     if(aout_p->x2 < aholder_p->x1 || aout_p->y2 < aholder_p->y1 || aout_p->x1 > aholder_p->x2 ||
 2905              		.loc 1 285 1 is_stmt 1 view -0
 2906              		.cfi_startproc
 2907              		@ args = 0, pretend = 0, frame = 8
 2908              		@ frame_needed = 0, uses_anonymous_args = 0
 285:Drivers/lvgl/src/misc/lv_area.c ****     if(aout_p->x2 < aholder_p->x1 || aout_p->y2 < aholder_p->y1 || aout_p->x1 > aholder_p->x2 ||
 2909              		.loc 1 285 1 is_stmt 0 view .LVU915
 2910 0000 2DE9F041 		push	{r4, r5, r6, r7, r8, lr}
 2911              	.LCFI25:
 2912              		.cfi_def_cfa_offset 24
 2913              		.cfi_offset 4, -24
 2914              		.cfi_offset 5, -20
 2915              		.cfi_offset 6, -16
 2916              		.cfi_offset 7, -12
 2917              		.cfi_offset 8, -8
 2918              		.cfi_offset 14, -4
 2919 0004 82B0     		sub	sp, sp, #8
 2920              	.LCFI26:
 2921              		.cfi_def_cfa_offset 32
 2922 0006 0C46     		mov	r4, r1
 286:Drivers/lvgl/src/misc/lv_area.c ****        aout_p->y1 > aholder_p->y2) {
 2923              		.loc 1 286 5 is_stmt 1 view .LVU916
 286:Drivers/lvgl/src/misc/lv_area.c ****        aout_p->y1 > aholder_p->y2) {
 2924              		.loc 1 286 14 is_stmt 0 view .LVU917
 2925 0008 8168     		ldr	r1, [r0, #8]
 2926              	.LVL346:
 286:Drivers/lvgl/src/misc/lv_area.c ****        aout_p->y1 > aholder_p->y2) {
 2927              		.loc 1 286 30 view .LVU918
 2928 000a 2368     		ldr	r3, [r4]
 286:Drivers/lvgl/src/misc/lv_area.c ****        aout_p->y1 > aholder_p->y2) {
 2929              		.loc 1 286 7 view .LVU919
 2930 000c 9942     		cmp	r1, r3
 2931 000e 43DB     		blt	.L168
 2932 0010 0746     		mov	r7, r0
 2933 0012 1646     		mov	r6, r2
 286:Drivers/lvgl/src/misc/lv_area.c ****        aout_p->y1 > aholder_p->y2) {
 2934              		.loc 1 286 44 discriminator 1 view .LVU920
 2935 0014 C268     		ldr	r2, [r0, #12]
 2936              	.LVL347:
 286:Drivers/lvgl/src/misc/lv_area.c ****        aout_p->y1 > aholder_p->y2) {
 2937              		.loc 1 286 60 discriminator 1 view .LVU921
 2938 0016 6368     		ldr	r3, [r4, #4]
ARM GAS  /tmp/ccFrlMqd.s 			page 78


 286:Drivers/lvgl/src/misc/lv_area.c ****        aout_p->y1 > aholder_p->y2) {
 2939              		.loc 1 286 35 discriminator 1 view .LVU922
 2940 0018 9A42     		cmp	r2, r3
 2941 001a 42DB     		blt	.L169
 286:Drivers/lvgl/src/misc/lv_area.c ****        aout_p->y1 > aholder_p->y2) {
 2942              		.loc 1 286 74 discriminator 2 view .LVU923
 2943 001c 0168     		ldr	r1, [r0]
 286:Drivers/lvgl/src/misc/lv_area.c ****        aout_p->y1 > aholder_p->y2) {
 2944              		.loc 1 286 90 discriminator 2 view .LVU924
 2945 001e A368     		ldr	r3, [r4, #8]
 286:Drivers/lvgl/src/misc/lv_area.c ****        aout_p->y1 > aholder_p->y2) {
 2946              		.loc 1 286 65 discriminator 2 view .LVU925
 2947 0020 9942     		cmp	r1, r3
 2948 0022 40DC     		bgt	.L170
 287:Drivers/lvgl/src/misc/lv_area.c ****         return true;
 2949              		.loc 1 287 14 view .LVU926
 2950 0024 4268     		ldr	r2, [r0, #4]
 287:Drivers/lvgl/src/misc/lv_area.c ****         return true;
 2951              		.loc 1 287 30 view .LVU927
 2952 0026 E368     		ldr	r3, [r4, #12]
 286:Drivers/lvgl/src/misc/lv_area.c ****        aout_p->y1 > aholder_p->y2) {
 2953              		.loc 1 286 95 discriminator 3 view .LVU928
 2954 0028 9A42     		cmp	r2, r3
 2955 002a 3EDC     		bgt	.L171
 291:Drivers/lvgl/src/misc/lv_area.c **** 
 2956              		.loc 1 291 5 is_stmt 1 view .LVU929
 291:Drivers/lvgl/src/misc/lv_area.c **** 
 2957              		.loc 1 291 7 is_stmt 0 view .LVU930
 2958 002c 0EB9     		cbnz	r6, .L176
 291:Drivers/lvgl/src/misc/lv_area.c **** 
 2959              		.loc 1 291 28 discriminator 1 view .LVU931
 2960 002e 0025     		movs	r5, #0
 2961 0030 33E0     		b	.L167
 2962              	.L176:
 294:Drivers/lvgl/src/misc/lv_area.c **** 
 2963              		.loc 1 294 5 is_stmt 1 view .LVU932
 296:Drivers/lvgl/src/misc/lv_area.c ****     if(lv_area_is_point_on(aholder_p, &p, radius)) return false;
 2964              		.loc 1 296 5 view .LVU933
 2965 0032 6846     		mov	r0, sp
 2966              	.LVL348:
 296:Drivers/lvgl/src/misc/lv_area.c ****     if(lv_area_is_point_on(aholder_p, &p, radius)) return false;
 2967              		.loc 1 296 5 is_stmt 0 view .LVU934
 2968 0034 FFF7FEFF 		bl	lv_point_set
 2969              	.LVL349:
 297:Drivers/lvgl/src/misc/lv_area.c **** 
 2970              		.loc 1 297 5 is_stmt 1 view .LVU935
 297:Drivers/lvgl/src/misc/lv_area.c **** 
 2971              		.loc 1 297 8 is_stmt 0 view .LVU936
 2972 0038 3246     		mov	r2, r6
 2973 003a 6946     		mov	r1, sp
 2974 003c 2046     		mov	r0, r4
 2975 003e FFF7FEFF 		bl	lv_area_is_point_on
 2976              	.LVL350:
 297:Drivers/lvgl/src/misc/lv_area.c **** 
 2977              		.loc 1 297 7 discriminator 1 view .LVU937
 2978 0042 0546     		mov	r5, r0
 2979 0044 08B1     		cbz	r0, .L177
ARM GAS  /tmp/ccFrlMqd.s 			page 79


 297:Drivers/lvgl/src/misc/lv_area.c **** 
 2980              		.loc 1 297 59 discriminator 1 view .LVU938
 2981 0046 0025     		movs	r5, #0
 2982 0048 27E0     		b	.L167
 2983              	.L177:
 299:Drivers/lvgl/src/misc/lv_area.c ****     if(lv_area_is_point_on(aholder_p, &p, radius)) return false;
 2984              		.loc 1 299 5 is_stmt 1 view .LVU939
 2985 004a 7A68     		ldr	r2, [r7, #4]
 2986 004c B968     		ldr	r1, [r7, #8]
 2987 004e 6846     		mov	r0, sp
 2988 0050 FFF7FEFF 		bl	lv_point_set
 2989              	.LVL351:
 300:Drivers/lvgl/src/misc/lv_area.c **** 
 2990              		.loc 1 300 5 view .LVU940
 300:Drivers/lvgl/src/misc/lv_area.c **** 
 2991              		.loc 1 300 8 is_stmt 0 view .LVU941
 2992 0054 3246     		mov	r2, r6
 2993 0056 6946     		mov	r1, sp
 2994 0058 2046     		mov	r0, r4
 2995 005a FFF7FEFF 		bl	lv_area_is_point_on
 2996              	.LVL352:
 300:Drivers/lvgl/src/misc/lv_area.c **** 
 2997              		.loc 1 300 7 discriminator 1 view .LVU942
 2998 005e 8046     		mov	r8, r0
 2999 0060 D8B9     		cbnz	r0, .L167
 302:Drivers/lvgl/src/misc/lv_area.c ****     if(lv_area_is_point_on(aholder_p, &p, radius)) return false;
 3000              		.loc 1 302 5 is_stmt 1 view .LVU943
 3001 0062 FA68     		ldr	r2, [r7, #12]
 3002 0064 3968     		ldr	r1, [r7]
 3003 0066 6846     		mov	r0, sp
 3004 0068 FFF7FEFF 		bl	lv_point_set
 3005              	.LVL353:
 303:Drivers/lvgl/src/misc/lv_area.c **** 
 3006              		.loc 1 303 5 view .LVU944
 303:Drivers/lvgl/src/misc/lv_area.c **** 
 3007              		.loc 1 303 8 is_stmt 0 view .LVU945
 3008 006c 3246     		mov	r2, r6
 3009 006e 6946     		mov	r1, sp
 3010 0070 2046     		mov	r0, r4
 3011 0072 FFF7FEFF 		bl	lv_area_is_point_on
 3012              	.LVL354:
 303:Drivers/lvgl/src/misc/lv_area.c **** 
 3013              		.loc 1 303 7 discriminator 1 view .LVU946
 3014 0076 0546     		mov	r5, r0
 3015 0078 08B1     		cbz	r0, .L178
 303:Drivers/lvgl/src/misc/lv_area.c **** 
 3016              		.loc 1 303 59 discriminator 1 view .LVU947
 3017 007a 4546     		mov	r5, r8
 3018 007c 0DE0     		b	.L167
 3019              	.L178:
 305:Drivers/lvgl/src/misc/lv_area.c ****     if(lv_area_is_point_on(aholder_p, &p, radius)) return false;
 3020              		.loc 1 305 5 is_stmt 1 view .LVU948
 3021 007e FA68     		ldr	r2, [r7, #12]
 3022 0080 B968     		ldr	r1, [r7, #8]
 3023 0082 6846     		mov	r0, sp
 3024 0084 FFF7FEFF 		bl	lv_point_set
 3025              	.LVL355:
ARM GAS  /tmp/ccFrlMqd.s 			page 80


 306:Drivers/lvgl/src/misc/lv_area.c **** 
 3026              		.loc 1 306 5 view .LVU949
 306:Drivers/lvgl/src/misc/lv_area.c **** 
 3027              		.loc 1 306 8 is_stmt 0 view .LVU950
 3028 0088 3246     		mov	r2, r6
 3029 008a 6946     		mov	r1, sp
 3030 008c 2046     		mov	r0, r4
 3031 008e FFF7FEFF 		bl	lv_area_is_point_on
 3032              	.LVL356:
 306:Drivers/lvgl/src/misc/lv_area.c **** 
 3033              		.loc 1 306 7 discriminator 1 view .LVU951
 3034 0092 10B9     		cbnz	r0, .L167
 308:Drivers/lvgl/src/misc/lv_area.c **** }
 3035              		.loc 1 308 12 view .LVU952
 3036 0094 0125     		movs	r5, #1
 3037 0096 00E0     		b	.L167
 3038              	.LVL357:
 3039              	.L168:
 288:Drivers/lvgl/src/misc/lv_area.c ****     }
 3040              		.loc 1 288 16 view .LVU953
 3041 0098 0125     		movs	r5, #1
 3042              	.LVL358:
 3043              	.L167:
 309:Drivers/lvgl/src/misc/lv_area.c **** 
 3044              		.loc 1 309 1 view .LVU954
 3045 009a 2846     		mov	r0, r5
 3046 009c 02B0     		add	sp, sp, #8
 3047              	.LCFI27:
 3048              		.cfi_remember_state
 3049              		.cfi_def_cfa_offset 24
 3050              		@ sp needed
 3051 009e BDE8F081 		pop	{r4, r5, r6, r7, r8, pc}
 3052              	.LVL359:
 3053              	.L169:
 3054              	.LCFI28:
 3055              		.cfi_restore_state
 288:Drivers/lvgl/src/misc/lv_area.c ****     }
 3056              		.loc 1 288 16 view .LVU955
 3057 00a2 0125     		movs	r5, #1
 3058 00a4 F9E7     		b	.L167
 3059              	.L170:
 3060 00a6 0125     		movs	r5, #1
 3061 00a8 F7E7     		b	.L167
 3062              	.L171:
 3063 00aa 0125     		movs	r5, #1
 3064 00ac F5E7     		b	.L167
 3065              		.cfi_endproc
 3066              	.LFE199:
 3068              		.section	.text.lv_point_precise_set,"ax",%progbits
 3069              		.align	1
 3070              		.global	lv_point_precise_set
 3071              		.syntax unified
 3072              		.thumb
 3073              		.thumb_func
 3075              	lv_point_precise_set:
 3076              	.LVL360:
 3077              	.LFB209:
ARM GAS  /tmp/ccFrlMqd.s 			page 81


 547:Drivers/lvgl/src/misc/lv_area.c ****     p->x = x;
 3078              		.loc 1 547 1 is_stmt 1 view -0
 3079              		.cfi_startproc
 3080              		@ args = 0, pretend = 0, frame = 0
 3081              		@ frame_needed = 0, uses_anonymous_args = 0
 3082              		@ link register save eliminated.
 548:Drivers/lvgl/src/misc/lv_area.c ****     p->y = y;
 3083              		.loc 1 548 5 view .LVU957
 548:Drivers/lvgl/src/misc/lv_area.c ****     p->y = y;
 3084              		.loc 1 548 10 is_stmt 0 view .LVU958
 3085 0000 0160     		str	r1, [r0]
 549:Drivers/lvgl/src/misc/lv_area.c **** }
 3086              		.loc 1 549 5 is_stmt 1 view .LVU959
 549:Drivers/lvgl/src/misc/lv_area.c **** }
 3087              		.loc 1 549 10 is_stmt 0 view .LVU960
 3088 0002 4260     		str	r2, [r0, #4]
 550:Drivers/lvgl/src/misc/lv_area.c **** 
 3089              		.loc 1 550 1 view .LVU961
 3090 0004 7047     		bx	lr
 3091              		.cfi_endproc
 3092              	.LFE209:
 3094              		.section	.text.lv_point_swap,"ax",%progbits
 3095              		.align	1
 3096              		.global	lv_point_swap
 3097              		.syntax unified
 3098              		.thumb
 3099              		.thumb_func
 3101              	lv_point_swap:
 3102              	.LVL361:
 3103              	.LFB210:
 553:Drivers/lvgl/src/misc/lv_area.c ****     lv_point_t tmp = *p1;
 3104              		.loc 1 553 1 is_stmt 1 view -0
 3105              		.cfi_startproc
 3106              		@ args = 0, pretend = 0, frame = 8
 3107              		@ frame_needed = 0, uses_anonymous_args = 0
 3108              		@ link register save eliminated.
 553:Drivers/lvgl/src/misc/lv_area.c ****     lv_point_t tmp = *p1;
 3109              		.loc 1 553 1 is_stmt 0 view .LVU963
 3110 0000 82B0     		sub	sp, sp, #8
 3111              	.LCFI29:
 3112              		.cfi_def_cfa_offset 8
 3113 0002 0246     		mov	r2, r0
 3114 0004 0B46     		mov	r3, r1
 554:Drivers/lvgl/src/misc/lv_area.c ****     *p1 = *p2;
 3115              		.loc 1 554 5 is_stmt 1 view .LVU964
 554:Drivers/lvgl/src/misc/lv_area.c ****     *p1 = *p2;
 3116              		.loc 1 554 16 is_stmt 0 view .LVU965
 3117 0006 D0E90001 		ldrd	r0, r1, [r0]
 3118              	.LVL362:
 554:Drivers/lvgl/src/misc/lv_area.c ****     *p1 = *p2;
 3119              		.loc 1 554 16 view .LVU966
 3120 000a CDE90001 		strd	r0, r1, [sp]
 555:Drivers/lvgl/src/misc/lv_area.c ****     *p2 = tmp;
 3121              		.loc 1 555 5 is_stmt 1 view .LVU967
 555:Drivers/lvgl/src/misc/lv_area.c ****     *p2 = tmp;
 3122              		.loc 1 555 9 is_stmt 0 view .LVU968
 3123 000e 93E80300 		ldm	r3, {r0, r1}
ARM GAS  /tmp/ccFrlMqd.s 			page 82


 3124 0012 82E80300 		stm	r2, {r0, r1}
 556:Drivers/lvgl/src/misc/lv_area.c **** }
 3125              		.loc 1 556 5 is_stmt 1 view .LVU969
 556:Drivers/lvgl/src/misc/lv_area.c **** }
 3126              		.loc 1 556 9 is_stmt 0 view .LVU970
 3127 0016 DDE90001 		ldrd	r0, r1, [sp]
 3128 001a 83E80300 		stm	r3, {r0, r1}
 557:Drivers/lvgl/src/misc/lv_area.c **** 
 3129              		.loc 1 557 1 view .LVU971
 3130 001e 02B0     		add	sp, sp, #8
 3131              	.LCFI30:
 3132              		.cfi_def_cfa_offset 0
 3133              		@ sp needed
 3134 0020 7047     		bx	lr
 3135              		.cfi_endproc
 3136              	.LFE210:
 3138              		.section	.text.lv_point_precise_swap,"ax",%progbits
 3139              		.align	1
 3140              		.global	lv_point_precise_swap
 3141              		.syntax unified
 3142              		.thumb
 3143              		.thumb_func
 3145              	lv_point_precise_swap:
 3146              	.LVL363:
 3147              	.LFB211:
 560:Drivers/lvgl/src/misc/lv_area.c ****     lv_point_precise_t tmp = *p1;
 3148              		.loc 1 560 1 is_stmt 1 view -0
 3149              		.cfi_startproc
 3150              		@ args = 0, pretend = 0, frame = 8
 3151              		@ frame_needed = 0, uses_anonymous_args = 0
 3152              		@ link register save eliminated.
 560:Drivers/lvgl/src/misc/lv_area.c ****     lv_point_precise_t tmp = *p1;
 3153              		.loc 1 560 1 is_stmt 0 view .LVU973
 3154 0000 82B0     		sub	sp, sp, #8
 3155              	.LCFI31:
 3156              		.cfi_def_cfa_offset 8
 3157 0002 0246     		mov	r2, r0
 3158 0004 0B46     		mov	r3, r1
 561:Drivers/lvgl/src/misc/lv_area.c ****     *p1 = *p2;
 3159              		.loc 1 561 5 is_stmt 1 view .LVU974
 561:Drivers/lvgl/src/misc/lv_area.c ****     *p1 = *p2;
 3160              		.loc 1 561 24 is_stmt 0 view .LVU975
 3161 0006 D0E90001 		ldrd	r0, r1, [r0]
 3162              	.LVL364:
 561:Drivers/lvgl/src/misc/lv_area.c ****     *p1 = *p2;
 3163              		.loc 1 561 24 view .LVU976
 3164 000a CDE90001 		strd	r0, r1, [sp]
 562:Drivers/lvgl/src/misc/lv_area.c ****     *p2 = tmp;
 3165              		.loc 1 562 5 is_stmt 1 view .LVU977
 562:Drivers/lvgl/src/misc/lv_area.c ****     *p2 = tmp;
 3166              		.loc 1 562 9 is_stmt 0 view .LVU978
 3167 000e 93E80300 		ldm	r3, {r0, r1}
 3168 0012 82E80300 		stm	r2, {r0, r1}
 563:Drivers/lvgl/src/misc/lv_area.c **** }
 3169              		.loc 1 563 5 is_stmt 1 view .LVU979
 563:Drivers/lvgl/src/misc/lv_area.c **** }
 3170              		.loc 1 563 9 is_stmt 0 view .LVU980
ARM GAS  /tmp/ccFrlMqd.s 			page 83


 3171 0016 DDE90001 		ldrd	r0, r1, [sp]
 3172 001a 83E80300 		stm	r3, {r0, r1}
 564:Drivers/lvgl/src/misc/lv_area.c **** 
 3173              		.loc 1 564 1 view .LVU981
 3174 001e 02B0     		add	sp, sp, #8
 3175              	.LCFI32:
 3176              		.cfi_def_cfa_offset 0
 3177              		@ sp needed
 3178 0020 7047     		bx	lr
 3179              		.cfi_endproc
 3180              	.LFE211:
 3182              		.section	.text.lv_pct,"ax",%progbits
 3183              		.align	1
 3184              		.global	lv_pct
 3185              		.syntax unified
 3186              		.thumb
 3187              		.thumb_func
 3189              	lv_pct:
 3190              	.LVL365:
 3191              	.LFB212:
 567:Drivers/lvgl/src/misc/lv_area.c ****     return LV_PCT(x);
 3192              		.loc 1 567 1 is_stmt 1 view -0
 3193              		.cfi_startproc
 3194              		@ args = 0, pretend = 0, frame = 0
 3195              		@ frame_needed = 0, uses_anonymous_args = 0
 3196              		@ link register save eliminated.
 568:Drivers/lvgl/src/misc/lv_area.c **** }
 3197              		.loc 1 568 5 view .LVU983
 568:Drivers/lvgl/src/misc/lv_area.c **** }
 3198              		.loc 1 568 12 is_stmt 0 view .LVU984
 3199 0000 0028     		cmp	r0, #0
 568:Drivers/lvgl/src/misc/lv_area.c **** }
 3200              		.loc 1 568 12 view .LVU985
 3201 0002 07DB     		blt	.L187
 568:Drivers/lvgl/src/misc/lv_area.c **** }
 3202              		.loc 1 568 12 discriminator 2 view .LVU986
 3203 0004 6FF07043 		mvn	r3, #-268435456
 3204 0008 9842     		cmp	r0, r3
 3205 000a A8BF     		it	ge
 3206 000c 1846     		movge	r0, r3
 3207              	.LVL366:
 568:Drivers/lvgl/src/misc/lv_area.c **** }
 3208              		.loc 1 568 12 discriminator 2 view .LVU987
 3209 000e 40F00050 		orr	r0, r0, #536870912
 569:Drivers/lvgl/src/misc/lv_area.c **** 
 3210              		.loc 1 569 1 view .LVU988
 3211 0012 7047     		bx	lr
 3212              	.LVL367:
 3213              	.L187:
 568:Drivers/lvgl/src/misc/lv_area.c **** }
 3214              		.loc 1 568 12 discriminator 1 view .LVU989
 3215 0014 044A     		ldr	r2, .L188
 3216 0016 6FF07043 		mvn	r3, #-268435456
 3217 001a 9042     		cmp	r0, r2
 3218 001c ACBF     		ite	ge
 3219 001e 1B1A     		subge	r3, r3, r0
 3220 0020 9B1A     		sublt	r3, r3, r2
ARM GAS  /tmp/ccFrlMqd.s 			page 84


 3221 0022 43F00050 		orr	r0, r3, #536870912
 3222              	.LVL368:
 568:Drivers/lvgl/src/misc/lv_area.c **** }
 3223              		.loc 1 568 12 discriminator 1 view .LVU990
 3224 0026 7047     		bx	lr
 3225              	.L189:
 3226              		.align	2
 3227              	.L188:
 3228 0028 010000F0 		.word	-268435455
 3229              		.cfi_endproc
 3230              	.LFE212:
 3232              		.section	.text.lv_pct_to_px,"ax",%progbits
 3233              		.align	1
 3234              		.global	lv_pct_to_px
 3235              		.syntax unified
 3236              		.thumb
 3237              		.thumb_func
 3239              	lv_pct_to_px:
 3240              	.LVL369:
 3241              	.LFB213:
 572:Drivers/lvgl/src/misc/lv_area.c ****     if(LV_COORD_IS_PCT(v)) {
 3242              		.loc 1 572 1 is_stmt 1 view -0
 3243              		.cfi_startproc
 3244              		@ args = 0, pretend = 0, frame = 0
 3245              		@ frame_needed = 0, uses_anonymous_args = 0
 3246              		@ link register save eliminated.
 573:Drivers/lvgl/src/misc/lv_area.c ****         return (LV_COORD_GET_PCT(v) * base) / 100;
 3247              		.loc 1 573 5 view .LVU992
 573:Drivers/lvgl/src/misc/lv_area.c ****         return (LV_COORD_GET_PCT(v) * base) / 100;
 3248              		.loc 1 573 8 is_stmt 0 view .LVU993
 3249 0000 00F0C043 		and	r3, r0, #1610612736
 573:Drivers/lvgl/src/misc/lv_area.c ****         return (LV_COORD_GET_PCT(v) * base) / 100;
 3250              		.loc 1 573 7 view .LVU994
 3251 0004 B3F1005F 		cmp	r3, #536870912
 3252 0008 00D0     		beq	.L193
 3253              	.LVL370:
 3254              	.L191:
 578:Drivers/lvgl/src/misc/lv_area.c **** 
 3255              		.loc 1 578 1 view .LVU995
 3256 000a 7047     		bx	lr
 3257              	.LVL371:
 3258              	.L193:
 573:Drivers/lvgl/src/misc/lv_area.c ****         return (LV_COORD_GET_PCT(v) * base) / 100;
 3259              		.loc 1 573 8 discriminator 1 view .LVU996
 3260 000c 20F0C043 		bic	r3, r0, #1610612736
 3261 0010 6FF06042 		mvn	r2, #-536870912
 3262 0014 9342     		cmp	r3, r2
 3263 0016 F8DA     		bge	.L191
 574:Drivers/lvgl/src/misc/lv_area.c ****     }
 3264              		.loc 1 574 9 is_stmt 1 view .LVU997
 574:Drivers/lvgl/src/misc/lv_area.c ****     }
 3265              		.loc 1 574 17 is_stmt 0 view .LVU998
 3266 0018 B3F1805F 		cmp	r3, #268435456
 3267 001c 05DB     		blt	.L192
 574:Drivers/lvgl/src/misc/lv_area.c ****     }
 3268              		.loc 1 574 17 discriminator 1 view .LVU999
 3269 001e C3F17F63 		rsb	r3, r3, #267386880
ARM GAS  /tmp/ccFrlMqd.s 			page 85


 3270 0022 03F57F23 		add	r3, r3, #1044480
 3271 0026 03F6FF73 		addw	r3, r3, #4095
 3272              	.L192:
 574:Drivers/lvgl/src/misc/lv_area.c ****     }
 3273              		.loc 1 574 37 discriminator 4 view .LVU1000
 3274 002a 01FB03F3 		mul	r3, r1, r3
 574:Drivers/lvgl/src/misc/lv_area.c ****     }
 3275              		.loc 1 574 45 discriminator 4 view .LVU1001
 3276 002e 0348     		ldr	r0, .L194
 3277              	.LVL372:
 574:Drivers/lvgl/src/misc/lv_area.c ****     }
 3278              		.loc 1 574 45 discriminator 4 view .LVU1002
 3279 0030 80FB0320 		smull	r2, r0, r0, r3
 3280 0034 DB17     		asrs	r3, r3, #31
 3281 0036 C3EB6010 		rsb	r0, r3, r0, asr #5
 574:Drivers/lvgl/src/misc/lv_area.c ****     }
 3282              		.loc 1 574 45 view .LVU1003
 3283 003a E6E7     		b	.L191
 3284              	.L195:
 3285              		.align	2
 3286              	.L194:
 3287 003c 1F85EB51 		.word	1374389535
 3288              		.cfi_endproc
 3289              	.LFE213:
 3291              		.text
 3292              	.Letext0:
 3293              		.file 2 "/usr/arm-none-eabi/include/machine/_default_types.h"
 3294              		.file 3 "/usr/arm-none-eabi/include/sys/_stdint.h"
 3295              		.file 4 "/usr/lib/gcc/arm-none-eabi/14.2.0/include/stddef.h"
 3296              		.file 5 "Drivers/lvgl/src/misc/../core/../misc/lv_types.h"
 3297              		.file 6 "Drivers/lvgl/src/misc/../core/../draw/../misc/../font/../draw/../misc/lv_area.h"
 3298              		.file 7 "Drivers/lvgl/src/misc/../core/../draw/../misc/../font/../draw/../misc/lv_math.h"
ARM GAS  /tmp/ccFrlMqd.s 			page 86

