ARM GAS  /tmp/ccoBJvOw.s 			page 1


   1              		.cpu cortex-m7
   2              		.arch armv7e-m
   3              		.fpu fpv5-sp-d16
   4              		.eabi_attribute 27, 1
   5              		.eabi_attribute 28, 1
   6              		.eabi_attribute 20, 1
   7              		.eabi_attribute 21, 1
   8              		.eabi_attribute 23, 3
   9              		.eabi_attribute 24, 1
  10              		.eabi_attribute 25, 1
  11              		.eabi_attribute 26, 1
  12              		.eabi_attribute 30, 1
  13              		.eabi_attribute 34, 1
  14              		.eabi_attribute 18, 4
  15              		.file	"lv_anim.c"
  16              		.text
  17              	.Ltext0:
  18              		.cfi_sections	.debug_frame
  19              		.file 1 "Drivers/lvgl/src/misc/lv_anim.c"
  20              		.section	.text.lv_anim_pause_for_internal,"ax",%progbits
  21              		.align	1
  22              		.syntax unified
  23              		.thumb
  24              		.thumb_func
  26              	lv_anim_pause_for_internal:
  27              	.LVL0:
  28              	.LFB242:
   1:Drivers/lvgl/src/misc/lv_anim.c **** /**
   2:Drivers/lvgl/src/misc/lv_anim.c ****  * @file lv_anim.c
   3:Drivers/lvgl/src/misc/lv_anim.c ****  *
   4:Drivers/lvgl/src/misc/lv_anim.c ****  */
   5:Drivers/lvgl/src/misc/lv_anim.c **** 
   6:Drivers/lvgl/src/misc/lv_anim.c **** /*********************
   7:Drivers/lvgl/src/misc/lv_anim.c ****  *      INCLUDES
   8:Drivers/lvgl/src/misc/lv_anim.c ****  *********************/
   9:Drivers/lvgl/src/misc/lv_anim.c **** #include "lv_anim_private.h"
  10:Drivers/lvgl/src/misc/lv_anim.c **** 
  11:Drivers/lvgl/src/misc/lv_anim.c **** #include "../core/lv_global.h"
  12:Drivers/lvgl/src/misc/lv_anim.c **** #include "../tick/lv_tick.h"
  13:Drivers/lvgl/src/misc/lv_anim.c **** #include "lv_assert.h"
  14:Drivers/lvgl/src/misc/lv_anim.c **** #include "lv_timer.h"
  15:Drivers/lvgl/src/misc/lv_anim.c **** #include "lv_math.h"
  16:Drivers/lvgl/src/misc/lv_anim.c **** #include "../stdlib/lv_mem.h"
  17:Drivers/lvgl/src/misc/lv_anim.c **** #include "../stdlib/lv_string.h"
  18:Drivers/lvgl/src/misc/lv_anim.c **** 
  19:Drivers/lvgl/src/misc/lv_anim.c **** /*********************
  20:Drivers/lvgl/src/misc/lv_anim.c ****  *      DEFINES
  21:Drivers/lvgl/src/misc/lv_anim.c ****  *********************/
  22:Drivers/lvgl/src/misc/lv_anim.c **** 
  23:Drivers/lvgl/src/misc/lv_anim.c **** /**Perform linear animations in max 1024 steps. Used in `path_cb`s*/
  24:Drivers/lvgl/src/misc/lv_anim.c **** #define LV_ANIM_RESOLUTION 1024
  25:Drivers/lvgl/src/misc/lv_anim.c **** 
  26:Drivers/lvgl/src/misc/lv_anim.c **** /**log2(LV_ANIM_RESOLUTION)*/
  27:Drivers/lvgl/src/misc/lv_anim.c **** #define LV_ANIM_RES_SHIFT 10
  28:Drivers/lvgl/src/misc/lv_anim.c **** 
  29:Drivers/lvgl/src/misc/lv_anim.c **** /**In an anim. time this bit indicates that the value is speed, and not time*/
  30:Drivers/lvgl/src/misc/lv_anim.c **** #define LV_ANIM_SPEED_MASK 0x80000000
ARM GAS  /tmp/ccoBJvOw.s 			page 2


  31:Drivers/lvgl/src/misc/lv_anim.c **** 
  32:Drivers/lvgl/src/misc/lv_anim.c **** #define state LV_GLOBAL_DEFAULT()->anim_state
  33:Drivers/lvgl/src/misc/lv_anim.c **** #define anim_ll_p &(state.anim_ll)
  34:Drivers/lvgl/src/misc/lv_anim.c **** 
  35:Drivers/lvgl/src/misc/lv_anim.c **** /**********************
  36:Drivers/lvgl/src/misc/lv_anim.c ****  *      TYPEDEFS
  37:Drivers/lvgl/src/misc/lv_anim.c ****  **********************/
  38:Drivers/lvgl/src/misc/lv_anim.c **** 
  39:Drivers/lvgl/src/misc/lv_anim.c **** /**********************
  40:Drivers/lvgl/src/misc/lv_anim.c ****  *  STATIC PROTOTYPES
  41:Drivers/lvgl/src/misc/lv_anim.c ****  **********************/
  42:Drivers/lvgl/src/misc/lv_anim.c **** static void anim_timer(lv_timer_t * param);
  43:Drivers/lvgl/src/misc/lv_anim.c **** static void anim_mark_list_change(void);
  44:Drivers/lvgl/src/misc/lv_anim.c **** static void anim_completed_handler(lv_anim_t * a);
  45:Drivers/lvgl/src/misc/lv_anim.c **** static int32_t lv_anim_path_cubic_bezier(const lv_anim_t * a, int32_t x1,
  46:Drivers/lvgl/src/misc/lv_anim.c ****                                          int32_t y1, int32_t x2, int32_t y2);
  47:Drivers/lvgl/src/misc/lv_anim.c **** static void lv_anim_pause_for_internal(lv_anim_t * a, uint32_t ms);
  48:Drivers/lvgl/src/misc/lv_anim.c **** static void resolve_time(lv_anim_t * a);
  49:Drivers/lvgl/src/misc/lv_anim.c **** static bool remove_concurrent_anims(const lv_anim_t * a_current);
  50:Drivers/lvgl/src/misc/lv_anim.c **** static void remove_anim(void * a);
  51:Drivers/lvgl/src/misc/lv_anim.c **** 
  52:Drivers/lvgl/src/misc/lv_anim.c **** /**********************
  53:Drivers/lvgl/src/misc/lv_anim.c ****  *  STATIC VARIABLES
  54:Drivers/lvgl/src/misc/lv_anim.c ****  **********************/
  55:Drivers/lvgl/src/misc/lv_anim.c **** 
  56:Drivers/lvgl/src/misc/lv_anim.c **** /**********************
  57:Drivers/lvgl/src/misc/lv_anim.c ****  *      MACROS
  58:Drivers/lvgl/src/misc/lv_anim.c ****  **********************/
  59:Drivers/lvgl/src/misc/lv_anim.c **** #if LV_USE_LOG && LV_LOG_TRACE_ANIM
  60:Drivers/lvgl/src/misc/lv_anim.c ****     #define LV_TRACE_ANIM(...) LV_LOG_TRACE(__VA_ARGS__)
  61:Drivers/lvgl/src/misc/lv_anim.c **** #else
  62:Drivers/lvgl/src/misc/lv_anim.c ****     #define LV_TRACE_ANIM(...)
  63:Drivers/lvgl/src/misc/lv_anim.c **** #endif
  64:Drivers/lvgl/src/misc/lv_anim.c **** 
  65:Drivers/lvgl/src/misc/lv_anim.c **** /**********************
  66:Drivers/lvgl/src/misc/lv_anim.c ****  *   GLOBAL FUNCTIONS
  67:Drivers/lvgl/src/misc/lv_anim.c ****  **********************/
  68:Drivers/lvgl/src/misc/lv_anim.c **** 
  69:Drivers/lvgl/src/misc/lv_anim.c **** void lv_anim_core_init(void)
  70:Drivers/lvgl/src/misc/lv_anim.c **** {
  71:Drivers/lvgl/src/misc/lv_anim.c ****     lv_ll_init(anim_ll_p, sizeof(lv_anim_t));
  72:Drivers/lvgl/src/misc/lv_anim.c ****     state.timer = lv_timer_create(anim_timer, LV_DEF_REFR_PERIOD, NULL);
  73:Drivers/lvgl/src/misc/lv_anim.c ****     anim_mark_list_change(); /*Turn off the animation timer*/
  74:Drivers/lvgl/src/misc/lv_anim.c ****     state.anim_list_changed = false;
  75:Drivers/lvgl/src/misc/lv_anim.c ****     state.anim_run_round = false;
  76:Drivers/lvgl/src/misc/lv_anim.c **** }
  77:Drivers/lvgl/src/misc/lv_anim.c **** 
  78:Drivers/lvgl/src/misc/lv_anim.c **** void lv_anim_core_deinit(void)
  79:Drivers/lvgl/src/misc/lv_anim.c **** {
  80:Drivers/lvgl/src/misc/lv_anim.c ****     lv_anim_delete_all();
  81:Drivers/lvgl/src/misc/lv_anim.c **** }
  82:Drivers/lvgl/src/misc/lv_anim.c **** 
  83:Drivers/lvgl/src/misc/lv_anim.c **** void lv_anim_init(lv_anim_t * a)
  84:Drivers/lvgl/src/misc/lv_anim.c **** {
  85:Drivers/lvgl/src/misc/lv_anim.c ****     lv_memzero(a, sizeof(lv_anim_t));
  86:Drivers/lvgl/src/misc/lv_anim.c ****     a->duration = 500;
  87:Drivers/lvgl/src/misc/lv_anim.c ****     a->start_value = 0;
ARM GAS  /tmp/ccoBJvOw.s 			page 3


  88:Drivers/lvgl/src/misc/lv_anim.c ****     a->end_value = 100;
  89:Drivers/lvgl/src/misc/lv_anim.c ****     a->repeat_cnt = 1;
  90:Drivers/lvgl/src/misc/lv_anim.c ****     a->path_cb = lv_anim_path_linear;
  91:Drivers/lvgl/src/misc/lv_anim.c ****     a->early_apply = 1;
  92:Drivers/lvgl/src/misc/lv_anim.c **** }
  93:Drivers/lvgl/src/misc/lv_anim.c **** 
  94:Drivers/lvgl/src/misc/lv_anim.c **** lv_anim_t * lv_anim_start(const lv_anim_t * a)
  95:Drivers/lvgl/src/misc/lv_anim.c **** {
  96:Drivers/lvgl/src/misc/lv_anim.c ****     LV_TRACE_ANIM("begin");
  97:Drivers/lvgl/src/misc/lv_anim.c **** 
  98:Drivers/lvgl/src/misc/lv_anim.c ****     /*Do not let two animations for the same 'var' with the same 'exec_cb'*/
  99:Drivers/lvgl/src/misc/lv_anim.c ****     if(a->early_apply && (a->exec_cb || a->custom_exec_cb)) {
 100:Drivers/lvgl/src/misc/lv_anim.c ****         remove_concurrent_anims(a);
 101:Drivers/lvgl/src/misc/lv_anim.c ****     }
 102:Drivers/lvgl/src/misc/lv_anim.c **** 
 103:Drivers/lvgl/src/misc/lv_anim.c ****     /*Add the new animation to the animation linked list*/
 104:Drivers/lvgl/src/misc/lv_anim.c ****     lv_anim_t * new_anim = lv_ll_ins_head(anim_ll_p);
 105:Drivers/lvgl/src/misc/lv_anim.c ****     LV_ASSERT_MALLOC(new_anim);
 106:Drivers/lvgl/src/misc/lv_anim.c ****     if(new_anim == NULL) return NULL;
 107:Drivers/lvgl/src/misc/lv_anim.c **** 
 108:Drivers/lvgl/src/misc/lv_anim.c ****     /*Initialize the animation descriptor*/
 109:Drivers/lvgl/src/misc/lv_anim.c ****     lv_memcpy(new_anim, a, sizeof(lv_anim_t));
 110:Drivers/lvgl/src/misc/lv_anim.c ****     if(a->var == a) new_anim->var = new_anim;
 111:Drivers/lvgl/src/misc/lv_anim.c ****     new_anim->run_round = state.anim_run_round;
 112:Drivers/lvgl/src/misc/lv_anim.c ****     new_anim->last_timer_run = lv_tick_get();
 113:Drivers/lvgl/src/misc/lv_anim.c ****     new_anim->is_paused = false;
 114:Drivers/lvgl/src/misc/lv_anim.c **** 
 115:Drivers/lvgl/src/misc/lv_anim.c ****     /*Set the start value*/
 116:Drivers/lvgl/src/misc/lv_anim.c ****     if(new_anim->early_apply) {
 117:Drivers/lvgl/src/misc/lv_anim.c ****         if(new_anim->get_value_cb) {
 118:Drivers/lvgl/src/misc/lv_anim.c ****             int32_t v_ofs = new_anim->get_value_cb(new_anim);
 119:Drivers/lvgl/src/misc/lv_anim.c ****             new_anim->start_value += v_ofs;
 120:Drivers/lvgl/src/misc/lv_anim.c ****             new_anim->end_value += v_ofs;
 121:Drivers/lvgl/src/misc/lv_anim.c **** 
 122:Drivers/lvgl/src/misc/lv_anim.c ****         }
 123:Drivers/lvgl/src/misc/lv_anim.c **** 
 124:Drivers/lvgl/src/misc/lv_anim.c ****         resolve_time(new_anim);
 125:Drivers/lvgl/src/misc/lv_anim.c **** 
 126:Drivers/lvgl/src/misc/lv_anim.c ****         new_anim->current_value = new_anim->path_cb(new_anim);
 127:Drivers/lvgl/src/misc/lv_anim.c ****         if(new_anim->exec_cb) {
 128:Drivers/lvgl/src/misc/lv_anim.c ****             new_anim->exec_cb(new_anim->var, new_anim->current_value);
 129:Drivers/lvgl/src/misc/lv_anim.c ****         }
 130:Drivers/lvgl/src/misc/lv_anim.c ****         if(new_anim->custom_exec_cb) {
 131:Drivers/lvgl/src/misc/lv_anim.c ****             new_anim->custom_exec_cb(new_anim, new_anim->current_value);
 132:Drivers/lvgl/src/misc/lv_anim.c ****         }
 133:Drivers/lvgl/src/misc/lv_anim.c ****     }
 134:Drivers/lvgl/src/misc/lv_anim.c **** 
 135:Drivers/lvgl/src/misc/lv_anim.c ****     /*Creating an animation changed the linked list.
 136:Drivers/lvgl/src/misc/lv_anim.c ****      *It's important if it happens in a ready callback. (see `anim_timer`)*/
 137:Drivers/lvgl/src/misc/lv_anim.c ****     anim_mark_list_change();
 138:Drivers/lvgl/src/misc/lv_anim.c **** 
 139:Drivers/lvgl/src/misc/lv_anim.c ****     LV_TRACE_ANIM("finished");
 140:Drivers/lvgl/src/misc/lv_anim.c ****     return new_anim;
 141:Drivers/lvgl/src/misc/lv_anim.c **** }
 142:Drivers/lvgl/src/misc/lv_anim.c **** 
 143:Drivers/lvgl/src/misc/lv_anim.c **** uint32_t lv_anim_get_playtime(const lv_anim_t * a)
 144:Drivers/lvgl/src/misc/lv_anim.c **** {
ARM GAS  /tmp/ccoBJvOw.s 			page 4


 145:Drivers/lvgl/src/misc/lv_anim.c ****     if(a->repeat_cnt == LV_ANIM_REPEAT_INFINITE) {
 146:Drivers/lvgl/src/misc/lv_anim.c ****         return LV_ANIM_PLAYTIME_INFINITE;
 147:Drivers/lvgl/src/misc/lv_anim.c ****     }
 148:Drivers/lvgl/src/misc/lv_anim.c **** 
 149:Drivers/lvgl/src/misc/lv_anim.c ****     uint32_t repeat_cnt = a->repeat_cnt;
 150:Drivers/lvgl/src/misc/lv_anim.c ****     if(repeat_cnt < 1) repeat_cnt = 1;
 151:Drivers/lvgl/src/misc/lv_anim.c **** 
 152:Drivers/lvgl/src/misc/lv_anim.c ****     uint32_t playtime = a->repeat_delay + a->duration + a->reverse_delay + a->reverse_duration;
 153:Drivers/lvgl/src/misc/lv_anim.c ****     playtime = playtime * repeat_cnt;
 154:Drivers/lvgl/src/misc/lv_anim.c ****     return playtime;
 155:Drivers/lvgl/src/misc/lv_anim.c **** }
 156:Drivers/lvgl/src/misc/lv_anim.c **** 
 157:Drivers/lvgl/src/misc/lv_anim.c **** bool lv_anim_delete(void * var, lv_anim_exec_xcb_t exec_cb)
 158:Drivers/lvgl/src/misc/lv_anim.c **** {
 159:Drivers/lvgl/src/misc/lv_anim.c ****     lv_anim_t * a;
 160:Drivers/lvgl/src/misc/lv_anim.c ****     bool del_any = false;
 161:Drivers/lvgl/src/misc/lv_anim.c ****     a        = lv_ll_get_head(anim_ll_p);
 162:Drivers/lvgl/src/misc/lv_anim.c ****     while(a != NULL) {
 163:Drivers/lvgl/src/misc/lv_anim.c ****         bool del = false;
 164:Drivers/lvgl/src/misc/lv_anim.c ****         if((a->var == var || var == NULL) && (a->exec_cb == exec_cb || exec_cb == NULL)) {
 165:Drivers/lvgl/src/misc/lv_anim.c ****             remove_anim(a);
 166:Drivers/lvgl/src/misc/lv_anim.c ****             anim_mark_list_change(); /*Read by `anim_timer`. It need to know if a delete occurred i
 167:Drivers/lvgl/src/misc/lv_anim.c ****                                        the linked list*/
 168:Drivers/lvgl/src/misc/lv_anim.c ****             del_any = true;
 169:Drivers/lvgl/src/misc/lv_anim.c ****             del = true;
 170:Drivers/lvgl/src/misc/lv_anim.c ****         }
 171:Drivers/lvgl/src/misc/lv_anim.c **** 
 172:Drivers/lvgl/src/misc/lv_anim.c ****         /*Always start from the head on delete, because we don't know
 173:Drivers/lvgl/src/misc/lv_anim.c ****          *how `anim_ll_p` was changes in `a->deleted_cb` */
 174:Drivers/lvgl/src/misc/lv_anim.c ****         a = del ? lv_ll_get_head(anim_ll_p) : lv_ll_get_next(anim_ll_p, a);
 175:Drivers/lvgl/src/misc/lv_anim.c ****     }
 176:Drivers/lvgl/src/misc/lv_anim.c **** 
 177:Drivers/lvgl/src/misc/lv_anim.c ****     return del_any;
 178:Drivers/lvgl/src/misc/lv_anim.c **** }
 179:Drivers/lvgl/src/misc/lv_anim.c **** 
 180:Drivers/lvgl/src/misc/lv_anim.c **** void lv_anim_delete_all(void)
 181:Drivers/lvgl/src/misc/lv_anim.c **** {
 182:Drivers/lvgl/src/misc/lv_anim.c ****     lv_ll_clear_custom(anim_ll_p, remove_anim);
 183:Drivers/lvgl/src/misc/lv_anim.c ****     anim_mark_list_change();
 184:Drivers/lvgl/src/misc/lv_anim.c **** }
 185:Drivers/lvgl/src/misc/lv_anim.c **** 
 186:Drivers/lvgl/src/misc/lv_anim.c **** lv_anim_t * lv_anim_get(void * var, lv_anim_exec_xcb_t exec_cb)
 187:Drivers/lvgl/src/misc/lv_anim.c **** {
 188:Drivers/lvgl/src/misc/lv_anim.c ****     lv_anim_t * a;
 189:Drivers/lvgl/src/misc/lv_anim.c ****     LV_LL_READ(anim_ll_p, a) {
 190:Drivers/lvgl/src/misc/lv_anim.c ****         if(a->var == var && (a->exec_cb == exec_cb || exec_cb == NULL)) {
 191:Drivers/lvgl/src/misc/lv_anim.c ****             return a;
 192:Drivers/lvgl/src/misc/lv_anim.c ****         }
 193:Drivers/lvgl/src/misc/lv_anim.c ****     }
 194:Drivers/lvgl/src/misc/lv_anim.c **** 
 195:Drivers/lvgl/src/misc/lv_anim.c ****     return NULL;
 196:Drivers/lvgl/src/misc/lv_anim.c **** }
 197:Drivers/lvgl/src/misc/lv_anim.c **** 
 198:Drivers/lvgl/src/misc/lv_anim.c **** lv_timer_t * lv_anim_get_timer(void)
 199:Drivers/lvgl/src/misc/lv_anim.c **** {
 200:Drivers/lvgl/src/misc/lv_anim.c ****     return state.timer;
 201:Drivers/lvgl/src/misc/lv_anim.c **** }
ARM GAS  /tmp/ccoBJvOw.s 			page 5


 202:Drivers/lvgl/src/misc/lv_anim.c **** 
 203:Drivers/lvgl/src/misc/lv_anim.c **** uint16_t lv_anim_count_running(void)
 204:Drivers/lvgl/src/misc/lv_anim.c **** {
 205:Drivers/lvgl/src/misc/lv_anim.c ****     uint16_t cnt = 0;
 206:Drivers/lvgl/src/misc/lv_anim.c ****     lv_anim_t * a;
 207:Drivers/lvgl/src/misc/lv_anim.c ****     LV_LL_READ(anim_ll_p, a) cnt++;
 208:Drivers/lvgl/src/misc/lv_anim.c **** 
 209:Drivers/lvgl/src/misc/lv_anim.c ****     return cnt;
 210:Drivers/lvgl/src/misc/lv_anim.c **** }
 211:Drivers/lvgl/src/misc/lv_anim.c **** 
 212:Drivers/lvgl/src/misc/lv_anim.c **** uint32_t lv_anim_speed_clamped(uint32_t speed, uint32_t min_time, uint32_t max_time)
 213:Drivers/lvgl/src/misc/lv_anim.c **** {
 214:Drivers/lvgl/src/misc/lv_anim.c **** 
 215:Drivers/lvgl/src/misc/lv_anim.c ****     if(speed > 10000) {
 216:Drivers/lvgl/src/misc/lv_anim.c ****         LV_LOG_WARN("speed is truncated to 10000 (was %"LV_PRIu32")", speed);
 217:Drivers/lvgl/src/misc/lv_anim.c ****         speed = 10230;
 218:Drivers/lvgl/src/misc/lv_anim.c ****     }
 219:Drivers/lvgl/src/misc/lv_anim.c ****     if(min_time > 10000) {
 220:Drivers/lvgl/src/misc/lv_anim.c ****         LV_LOG_WARN("min_time is truncated to 10000 (was %"LV_PRIu32")", min_time);
 221:Drivers/lvgl/src/misc/lv_anim.c ****         min_time = 10230;
 222:Drivers/lvgl/src/misc/lv_anim.c ****     }
 223:Drivers/lvgl/src/misc/lv_anim.c ****     if(max_time > 10000) {
 224:Drivers/lvgl/src/misc/lv_anim.c ****         LV_LOG_WARN("max_time is truncated to 10000 (was %"LV_PRIu32")", max_time);
 225:Drivers/lvgl/src/misc/lv_anim.c ****         max_time = 10230;
 226:Drivers/lvgl/src/misc/lv_anim.c ****     }
 227:Drivers/lvgl/src/misc/lv_anim.c **** 
 228:Drivers/lvgl/src/misc/lv_anim.c ****     /*Lower the resolution to fit the 0.1023 range*/
 229:Drivers/lvgl/src/misc/lv_anim.c ****     speed = (speed + 5) / 10;
 230:Drivers/lvgl/src/misc/lv_anim.c ****     min_time = (min_time + 5) / 10;
 231:Drivers/lvgl/src/misc/lv_anim.c ****     max_time = (max_time + 5) / 10;
 232:Drivers/lvgl/src/misc/lv_anim.c **** 
 233:Drivers/lvgl/src/misc/lv_anim.c ****     return LV_ANIM_SPEED_MASK + (max_time << 20) + (min_time << 10) + speed;
 234:Drivers/lvgl/src/misc/lv_anim.c **** 
 235:Drivers/lvgl/src/misc/lv_anim.c **** }
 236:Drivers/lvgl/src/misc/lv_anim.c **** 
 237:Drivers/lvgl/src/misc/lv_anim.c **** uint32_t lv_anim_speed(uint32_t speed)
 238:Drivers/lvgl/src/misc/lv_anim.c **** {
 239:Drivers/lvgl/src/misc/lv_anim.c ****     return lv_anim_speed_clamped(speed, 0, 10000);
 240:Drivers/lvgl/src/misc/lv_anim.c **** }
 241:Drivers/lvgl/src/misc/lv_anim.c **** 
 242:Drivers/lvgl/src/misc/lv_anim.c **** uint32_t lv_anim_speed_to_time(uint32_t speed, int32_t start, int32_t end)
 243:Drivers/lvgl/src/misc/lv_anim.c **** {
 244:Drivers/lvgl/src/misc/lv_anim.c ****     uint32_t d = LV_ABS(start - end);
 245:Drivers/lvgl/src/misc/lv_anim.c ****     uint32_t time = (d * 1000) / speed;
 246:Drivers/lvgl/src/misc/lv_anim.c **** 
 247:Drivers/lvgl/src/misc/lv_anim.c ****     time = time == 0 ? 1 : time;
 248:Drivers/lvgl/src/misc/lv_anim.c **** 
 249:Drivers/lvgl/src/misc/lv_anim.c ****     return time;
 250:Drivers/lvgl/src/misc/lv_anim.c **** }
 251:Drivers/lvgl/src/misc/lv_anim.c **** 
 252:Drivers/lvgl/src/misc/lv_anim.c **** void lv_anim_refr_now(void)
 253:Drivers/lvgl/src/misc/lv_anim.c **** {
 254:Drivers/lvgl/src/misc/lv_anim.c ****     anim_timer(NULL);
 255:Drivers/lvgl/src/misc/lv_anim.c **** }
 256:Drivers/lvgl/src/misc/lv_anim.c **** 
 257:Drivers/lvgl/src/misc/lv_anim.c **** int32_t lv_anim_path_linear(const lv_anim_t * a)
 258:Drivers/lvgl/src/misc/lv_anim.c **** {
ARM GAS  /tmp/ccoBJvOw.s 			page 6


 259:Drivers/lvgl/src/misc/lv_anim.c ****     /*Calculate the current step*/
 260:Drivers/lvgl/src/misc/lv_anim.c ****     int32_t step = lv_map(a->act_time, 0, a->duration, 0, LV_ANIM_RESOLUTION);
 261:Drivers/lvgl/src/misc/lv_anim.c **** 
 262:Drivers/lvgl/src/misc/lv_anim.c ****     /*Get the new value which will be proportional to `step`
 263:Drivers/lvgl/src/misc/lv_anim.c ****      *and the `start` and `end` values*/
 264:Drivers/lvgl/src/misc/lv_anim.c ****     int32_t new_value;
 265:Drivers/lvgl/src/misc/lv_anim.c ****     new_value = step * (a->end_value - a->start_value);
 266:Drivers/lvgl/src/misc/lv_anim.c ****     new_value = new_value >> LV_ANIM_RES_SHIFT;
 267:Drivers/lvgl/src/misc/lv_anim.c ****     new_value += a->start_value;
 268:Drivers/lvgl/src/misc/lv_anim.c **** 
 269:Drivers/lvgl/src/misc/lv_anim.c ****     return new_value;
 270:Drivers/lvgl/src/misc/lv_anim.c **** }
 271:Drivers/lvgl/src/misc/lv_anim.c **** 
 272:Drivers/lvgl/src/misc/lv_anim.c **** int32_t lv_anim_path_ease_in(const lv_anim_t * a)
 273:Drivers/lvgl/src/misc/lv_anim.c **** {
 274:Drivers/lvgl/src/misc/lv_anim.c ****     return lv_anim_path_cubic_bezier(a, LV_BEZIER_VAL_FLOAT(0.42), LV_BEZIER_VAL_FLOAT(0),
 275:Drivers/lvgl/src/misc/lv_anim.c ****                                      LV_BEZIER_VAL_FLOAT(1), LV_BEZIER_VAL_FLOAT(1));
 276:Drivers/lvgl/src/misc/lv_anim.c **** }
 277:Drivers/lvgl/src/misc/lv_anim.c **** 
 278:Drivers/lvgl/src/misc/lv_anim.c **** int32_t lv_anim_path_ease_out(const lv_anim_t * a)
 279:Drivers/lvgl/src/misc/lv_anim.c **** {
 280:Drivers/lvgl/src/misc/lv_anim.c ****     return lv_anim_path_cubic_bezier(a, LV_BEZIER_VAL_FLOAT(0), LV_BEZIER_VAL_FLOAT(0),
 281:Drivers/lvgl/src/misc/lv_anim.c ****                                      LV_BEZIER_VAL_FLOAT(0.58), LV_BEZIER_VAL_FLOAT(1));
 282:Drivers/lvgl/src/misc/lv_anim.c **** }
 283:Drivers/lvgl/src/misc/lv_anim.c **** 
 284:Drivers/lvgl/src/misc/lv_anim.c **** int32_t lv_anim_path_ease_in_out(const lv_anim_t * a)
 285:Drivers/lvgl/src/misc/lv_anim.c **** {
 286:Drivers/lvgl/src/misc/lv_anim.c ****     return lv_anim_path_cubic_bezier(a, LV_BEZIER_VAL_FLOAT(0.42), LV_BEZIER_VAL_FLOAT(0),
 287:Drivers/lvgl/src/misc/lv_anim.c ****                                      LV_BEZIER_VAL_FLOAT(0.58), LV_BEZIER_VAL_FLOAT(1));
 288:Drivers/lvgl/src/misc/lv_anim.c **** }
 289:Drivers/lvgl/src/misc/lv_anim.c **** 
 290:Drivers/lvgl/src/misc/lv_anim.c **** int32_t lv_anim_path_overshoot(const lv_anim_t * a)
 291:Drivers/lvgl/src/misc/lv_anim.c **** {
 292:Drivers/lvgl/src/misc/lv_anim.c ****     return lv_anim_path_cubic_bezier(a, 341, 0, 683, 1300);
 293:Drivers/lvgl/src/misc/lv_anim.c **** }
 294:Drivers/lvgl/src/misc/lv_anim.c **** 
 295:Drivers/lvgl/src/misc/lv_anim.c **** int32_t lv_anim_path_bounce(const lv_anim_t * a)
 296:Drivers/lvgl/src/misc/lv_anim.c **** {
 297:Drivers/lvgl/src/misc/lv_anim.c ****     /*Calculate the current step*/
 298:Drivers/lvgl/src/misc/lv_anim.c ****     int32_t t = lv_map(a->act_time, 0, a->duration, 0, LV_BEZIER_VAL_MAX);
 299:Drivers/lvgl/src/misc/lv_anim.c ****     int32_t diff = (a->end_value - a->start_value);
 300:Drivers/lvgl/src/misc/lv_anim.c **** 
 301:Drivers/lvgl/src/misc/lv_anim.c ****     /*3 bounces has 5 parts: 3 down and 2 up. One part is t / 5 long*/
 302:Drivers/lvgl/src/misc/lv_anim.c **** 
 303:Drivers/lvgl/src/misc/lv_anim.c ****     if(t < 408) {
 304:Drivers/lvgl/src/misc/lv_anim.c ****         /*Go down*/
 305:Drivers/lvgl/src/misc/lv_anim.c ****         t = (t * 2500) >> LV_BEZIER_VAL_SHIFT; /*[0..1024] range*/
 306:Drivers/lvgl/src/misc/lv_anim.c ****         t = LV_BEZIER_VAL_MAX - t;
 307:Drivers/lvgl/src/misc/lv_anim.c ****     }
 308:Drivers/lvgl/src/misc/lv_anim.c ****     else if(t >= 408 && t < 614) {
 309:Drivers/lvgl/src/misc/lv_anim.c ****         /*First bounce back*/
 310:Drivers/lvgl/src/misc/lv_anim.c ****         t -= 408;
 311:Drivers/lvgl/src/misc/lv_anim.c ****         t    = t * 5; /*to [0..1024] range*/
 312:Drivers/lvgl/src/misc/lv_anim.c ****         diff = diff / 20;
 313:Drivers/lvgl/src/misc/lv_anim.c ****     }
 314:Drivers/lvgl/src/misc/lv_anim.c ****     else if(t >= 614 && t < 819) {
 315:Drivers/lvgl/src/misc/lv_anim.c ****         /*Fall back*/
ARM GAS  /tmp/ccoBJvOw.s 			page 7


 316:Drivers/lvgl/src/misc/lv_anim.c ****         t -= 614;
 317:Drivers/lvgl/src/misc/lv_anim.c ****         t    = t * 5; /*to [0..1024] range*/
 318:Drivers/lvgl/src/misc/lv_anim.c ****         t    = LV_BEZIER_VAL_MAX - t;
 319:Drivers/lvgl/src/misc/lv_anim.c ****         diff = diff / 20;
 320:Drivers/lvgl/src/misc/lv_anim.c ****     }
 321:Drivers/lvgl/src/misc/lv_anim.c ****     else if(t >= 819 && t < 921) {
 322:Drivers/lvgl/src/misc/lv_anim.c ****         /*Second bounce back*/
 323:Drivers/lvgl/src/misc/lv_anim.c ****         t -= 819;
 324:Drivers/lvgl/src/misc/lv_anim.c ****         t    = t * 10; /*to [0..1024] range*/
 325:Drivers/lvgl/src/misc/lv_anim.c ****         diff = diff / 40;
 326:Drivers/lvgl/src/misc/lv_anim.c ****     }
 327:Drivers/lvgl/src/misc/lv_anim.c ****     else if(t >= 921 && t <= LV_BEZIER_VAL_MAX) {
 328:Drivers/lvgl/src/misc/lv_anim.c ****         /*Fall back*/
 329:Drivers/lvgl/src/misc/lv_anim.c ****         t -= 921;
 330:Drivers/lvgl/src/misc/lv_anim.c ****         t    = t * 10; /*to [0..1024] range*/
 331:Drivers/lvgl/src/misc/lv_anim.c ****         t    = LV_BEZIER_VAL_MAX - t;
 332:Drivers/lvgl/src/misc/lv_anim.c ****         diff = diff / 40;
 333:Drivers/lvgl/src/misc/lv_anim.c ****     }
 334:Drivers/lvgl/src/misc/lv_anim.c **** 
 335:Drivers/lvgl/src/misc/lv_anim.c ****     if(t > LV_BEZIER_VAL_MAX) t = LV_BEZIER_VAL_MAX;
 336:Drivers/lvgl/src/misc/lv_anim.c ****     if(t < 0) t = 0;
 337:Drivers/lvgl/src/misc/lv_anim.c ****     int32_t step = lv_bezier3(t, 0, 500, 800, LV_BEZIER_VAL_MAX);
 338:Drivers/lvgl/src/misc/lv_anim.c **** 
 339:Drivers/lvgl/src/misc/lv_anim.c ****     int32_t new_value;
 340:Drivers/lvgl/src/misc/lv_anim.c ****     new_value = step * diff;
 341:Drivers/lvgl/src/misc/lv_anim.c ****     new_value = new_value >> LV_BEZIER_VAL_SHIFT;
 342:Drivers/lvgl/src/misc/lv_anim.c ****     new_value = a->end_value - new_value;
 343:Drivers/lvgl/src/misc/lv_anim.c **** 
 344:Drivers/lvgl/src/misc/lv_anim.c ****     return new_value;
 345:Drivers/lvgl/src/misc/lv_anim.c **** }
 346:Drivers/lvgl/src/misc/lv_anim.c **** 
 347:Drivers/lvgl/src/misc/lv_anim.c **** int32_t lv_anim_path_step(const lv_anim_t * a)
 348:Drivers/lvgl/src/misc/lv_anim.c **** {
 349:Drivers/lvgl/src/misc/lv_anim.c ****     if(a->act_time >= a->duration)
 350:Drivers/lvgl/src/misc/lv_anim.c ****         return a->end_value;
 351:Drivers/lvgl/src/misc/lv_anim.c ****     else
 352:Drivers/lvgl/src/misc/lv_anim.c ****         return a->start_value;
 353:Drivers/lvgl/src/misc/lv_anim.c **** }
 354:Drivers/lvgl/src/misc/lv_anim.c **** 
 355:Drivers/lvgl/src/misc/lv_anim.c **** int32_t lv_anim_path_custom_bezier3(const lv_anim_t * a)
 356:Drivers/lvgl/src/misc/lv_anim.c **** {
 357:Drivers/lvgl/src/misc/lv_anim.c ****     const lv_anim_bezier3_para_t * para = &a->parameter.bezier3;
 358:Drivers/lvgl/src/misc/lv_anim.c ****     return lv_anim_path_cubic_bezier(a, para->x1, para->y1, para->x2, para->y2);
 359:Drivers/lvgl/src/misc/lv_anim.c **** }
 360:Drivers/lvgl/src/misc/lv_anim.c **** 
 361:Drivers/lvgl/src/misc/lv_anim.c **** void lv_anim_set_var(lv_anim_t * a, void * var)
 362:Drivers/lvgl/src/misc/lv_anim.c **** {
 363:Drivers/lvgl/src/misc/lv_anim.c ****     a->var = var;
 364:Drivers/lvgl/src/misc/lv_anim.c **** }
 365:Drivers/lvgl/src/misc/lv_anim.c **** 
 366:Drivers/lvgl/src/misc/lv_anim.c **** void lv_anim_set_exec_cb(lv_anim_t * a, lv_anim_exec_xcb_t exec_cb)
 367:Drivers/lvgl/src/misc/lv_anim.c **** {
 368:Drivers/lvgl/src/misc/lv_anim.c ****     a->exec_cb = exec_cb;
 369:Drivers/lvgl/src/misc/lv_anim.c **** }
 370:Drivers/lvgl/src/misc/lv_anim.c **** 
 371:Drivers/lvgl/src/misc/lv_anim.c **** void lv_anim_set_duration(lv_anim_t * a, uint32_t duration)
 372:Drivers/lvgl/src/misc/lv_anim.c **** {
ARM GAS  /tmp/ccoBJvOw.s 			page 8


 373:Drivers/lvgl/src/misc/lv_anim.c ****     a->duration = duration;
 374:Drivers/lvgl/src/misc/lv_anim.c **** }
 375:Drivers/lvgl/src/misc/lv_anim.c **** 
 376:Drivers/lvgl/src/misc/lv_anim.c **** void lv_anim_set_delay(lv_anim_t * a, uint32_t delay)
 377:Drivers/lvgl/src/misc/lv_anim.c **** {
 378:Drivers/lvgl/src/misc/lv_anim.c ****     a->act_time = -(int32_t)(delay);
 379:Drivers/lvgl/src/misc/lv_anim.c **** }
 380:Drivers/lvgl/src/misc/lv_anim.c **** 
 381:Drivers/lvgl/src/misc/lv_anim.c **** void lv_anim_set_values(lv_anim_t * a, int32_t start, int32_t end)
 382:Drivers/lvgl/src/misc/lv_anim.c **** {
 383:Drivers/lvgl/src/misc/lv_anim.c ****     a->start_value = start;
 384:Drivers/lvgl/src/misc/lv_anim.c ****     a->current_value = INT32_MIN;
 385:Drivers/lvgl/src/misc/lv_anim.c ****     a->end_value = end;
 386:Drivers/lvgl/src/misc/lv_anim.c **** }
 387:Drivers/lvgl/src/misc/lv_anim.c **** 
 388:Drivers/lvgl/src/misc/lv_anim.c **** void lv_anim_set_custom_exec_cb(lv_anim_t * a, lv_anim_custom_exec_cb_t exec_cb)
 389:Drivers/lvgl/src/misc/lv_anim.c **** {
 390:Drivers/lvgl/src/misc/lv_anim.c ****     a->custom_exec_cb = exec_cb;
 391:Drivers/lvgl/src/misc/lv_anim.c **** }
 392:Drivers/lvgl/src/misc/lv_anim.c **** 
 393:Drivers/lvgl/src/misc/lv_anim.c **** void lv_anim_set_path_cb(lv_anim_t * a, lv_anim_path_cb_t path_cb)
 394:Drivers/lvgl/src/misc/lv_anim.c **** {
 395:Drivers/lvgl/src/misc/lv_anim.c ****     a->path_cb = path_cb;
 396:Drivers/lvgl/src/misc/lv_anim.c **** }
 397:Drivers/lvgl/src/misc/lv_anim.c **** 
 398:Drivers/lvgl/src/misc/lv_anim.c **** void lv_anim_set_start_cb(lv_anim_t * a, lv_anim_start_cb_t start_cb)
 399:Drivers/lvgl/src/misc/lv_anim.c **** {
 400:Drivers/lvgl/src/misc/lv_anim.c ****     a->start_cb = start_cb;
 401:Drivers/lvgl/src/misc/lv_anim.c **** }
 402:Drivers/lvgl/src/misc/lv_anim.c **** 
 403:Drivers/lvgl/src/misc/lv_anim.c **** void lv_anim_set_get_value_cb(lv_anim_t * a, lv_anim_get_value_cb_t get_value_cb)
 404:Drivers/lvgl/src/misc/lv_anim.c **** {
 405:Drivers/lvgl/src/misc/lv_anim.c ****     a->get_value_cb = get_value_cb;
 406:Drivers/lvgl/src/misc/lv_anim.c **** }
 407:Drivers/lvgl/src/misc/lv_anim.c **** 
 408:Drivers/lvgl/src/misc/lv_anim.c **** void lv_anim_set_completed_cb(lv_anim_t * a, lv_anim_completed_cb_t completed_cb)
 409:Drivers/lvgl/src/misc/lv_anim.c **** {
 410:Drivers/lvgl/src/misc/lv_anim.c ****     a->completed_cb = completed_cb;
 411:Drivers/lvgl/src/misc/lv_anim.c **** }
 412:Drivers/lvgl/src/misc/lv_anim.c **** 
 413:Drivers/lvgl/src/misc/lv_anim.c **** void lv_anim_set_deleted_cb(lv_anim_t * a, lv_anim_deleted_cb_t deleted_cb)
 414:Drivers/lvgl/src/misc/lv_anim.c **** {
 415:Drivers/lvgl/src/misc/lv_anim.c ****     a->deleted_cb = deleted_cb;
 416:Drivers/lvgl/src/misc/lv_anim.c **** }
 417:Drivers/lvgl/src/misc/lv_anim.c **** 
 418:Drivers/lvgl/src/misc/lv_anim.c **** void lv_anim_set_reverse_duration(lv_anim_t * a, uint32_t duration)
 419:Drivers/lvgl/src/misc/lv_anim.c **** {
 420:Drivers/lvgl/src/misc/lv_anim.c ****     a->reverse_duration = duration;
 421:Drivers/lvgl/src/misc/lv_anim.c **** }
 422:Drivers/lvgl/src/misc/lv_anim.c **** 
 423:Drivers/lvgl/src/misc/lv_anim.c **** void lv_anim_set_reverse_time(lv_anim_t * a, uint32_t duration)
 424:Drivers/lvgl/src/misc/lv_anim.c **** {
 425:Drivers/lvgl/src/misc/lv_anim.c ****     lv_anim_set_reverse_duration(a, duration);
 426:Drivers/lvgl/src/misc/lv_anim.c **** }
 427:Drivers/lvgl/src/misc/lv_anim.c **** 
 428:Drivers/lvgl/src/misc/lv_anim.c **** void lv_anim_set_reverse_delay(lv_anim_t * a, uint32_t delay)
 429:Drivers/lvgl/src/misc/lv_anim.c **** {
ARM GAS  /tmp/ccoBJvOw.s 			page 9


 430:Drivers/lvgl/src/misc/lv_anim.c ****     a->reverse_delay = delay;
 431:Drivers/lvgl/src/misc/lv_anim.c **** }
 432:Drivers/lvgl/src/misc/lv_anim.c **** 
 433:Drivers/lvgl/src/misc/lv_anim.c **** void lv_anim_set_repeat_count(lv_anim_t * a, uint32_t cnt)
 434:Drivers/lvgl/src/misc/lv_anim.c **** {
 435:Drivers/lvgl/src/misc/lv_anim.c ****     a->repeat_cnt = cnt;
 436:Drivers/lvgl/src/misc/lv_anim.c **** }
 437:Drivers/lvgl/src/misc/lv_anim.c **** 
 438:Drivers/lvgl/src/misc/lv_anim.c **** void lv_anim_set_repeat_delay(lv_anim_t * a, uint32_t delay)
 439:Drivers/lvgl/src/misc/lv_anim.c **** {
 440:Drivers/lvgl/src/misc/lv_anim.c ****     a->repeat_delay = delay;
 441:Drivers/lvgl/src/misc/lv_anim.c **** }
 442:Drivers/lvgl/src/misc/lv_anim.c **** 
 443:Drivers/lvgl/src/misc/lv_anim.c **** void lv_anim_set_early_apply(lv_anim_t * a, bool en)
 444:Drivers/lvgl/src/misc/lv_anim.c **** {
 445:Drivers/lvgl/src/misc/lv_anim.c ****     a->early_apply = en;
 446:Drivers/lvgl/src/misc/lv_anim.c **** }
 447:Drivers/lvgl/src/misc/lv_anim.c **** 
 448:Drivers/lvgl/src/misc/lv_anim.c **** void lv_anim_set_user_data(lv_anim_t * a, void * user_data)
 449:Drivers/lvgl/src/misc/lv_anim.c **** {
 450:Drivers/lvgl/src/misc/lv_anim.c ****     a->user_data = user_data;
 451:Drivers/lvgl/src/misc/lv_anim.c **** }
 452:Drivers/lvgl/src/misc/lv_anim.c **** 
 453:Drivers/lvgl/src/misc/lv_anim.c **** void lv_anim_set_bezier3_param(lv_anim_t * a, int16_t x1, int16_t y1, int16_t x2, int16_t y2)
 454:Drivers/lvgl/src/misc/lv_anim.c **** {
 455:Drivers/lvgl/src/misc/lv_anim.c ****     lv_anim_bezier3_para_t * para = &a->parameter.bezier3;
 456:Drivers/lvgl/src/misc/lv_anim.c **** 
 457:Drivers/lvgl/src/misc/lv_anim.c ****     para->x1 = x1;
 458:Drivers/lvgl/src/misc/lv_anim.c ****     para->x2 = x2;
 459:Drivers/lvgl/src/misc/lv_anim.c ****     para->y1 = y1;
 460:Drivers/lvgl/src/misc/lv_anim.c ****     para->y2 = y2;
 461:Drivers/lvgl/src/misc/lv_anim.c **** }
 462:Drivers/lvgl/src/misc/lv_anim.c **** 
 463:Drivers/lvgl/src/misc/lv_anim.c **** uint32_t lv_anim_get_delay(const lv_anim_t * a)
 464:Drivers/lvgl/src/misc/lv_anim.c **** {
 465:Drivers/lvgl/src/misc/lv_anim.c ****     return -a->act_time;
 466:Drivers/lvgl/src/misc/lv_anim.c **** }
 467:Drivers/lvgl/src/misc/lv_anim.c **** 
 468:Drivers/lvgl/src/misc/lv_anim.c **** uint32_t lv_anim_get_time(const lv_anim_t * a)
 469:Drivers/lvgl/src/misc/lv_anim.c **** {
 470:Drivers/lvgl/src/misc/lv_anim.c ****     return a->duration;
 471:Drivers/lvgl/src/misc/lv_anim.c **** }
 472:Drivers/lvgl/src/misc/lv_anim.c **** 
 473:Drivers/lvgl/src/misc/lv_anim.c **** uint32_t lv_anim_get_repeat_count(const lv_anim_t * a)
 474:Drivers/lvgl/src/misc/lv_anim.c **** {
 475:Drivers/lvgl/src/misc/lv_anim.c ****     return a->repeat_cnt;
 476:Drivers/lvgl/src/misc/lv_anim.c **** }
 477:Drivers/lvgl/src/misc/lv_anim.c **** 
 478:Drivers/lvgl/src/misc/lv_anim.c **** void * lv_anim_get_user_data(const lv_anim_t * a)
 479:Drivers/lvgl/src/misc/lv_anim.c **** {
 480:Drivers/lvgl/src/misc/lv_anim.c ****     return a->user_data;
 481:Drivers/lvgl/src/misc/lv_anim.c **** }
 482:Drivers/lvgl/src/misc/lv_anim.c **** 
 483:Drivers/lvgl/src/misc/lv_anim.c **** bool lv_anim_custom_delete(lv_anim_t * a, lv_anim_custom_exec_cb_t exec_cb)
 484:Drivers/lvgl/src/misc/lv_anim.c **** {
 485:Drivers/lvgl/src/misc/lv_anim.c ****     return lv_anim_delete(a ? a->var : NULL, (lv_anim_exec_xcb_t)exec_cb);
 486:Drivers/lvgl/src/misc/lv_anim.c **** }
ARM GAS  /tmp/ccoBJvOw.s 			page 10


 487:Drivers/lvgl/src/misc/lv_anim.c **** 
 488:Drivers/lvgl/src/misc/lv_anim.c **** lv_anim_t * lv_anim_custom_get(lv_anim_t * a, lv_anim_custom_exec_cb_t exec_cb)
 489:Drivers/lvgl/src/misc/lv_anim.c **** {
 490:Drivers/lvgl/src/misc/lv_anim.c ****     return lv_anim_get(a ? a->var : NULL, (lv_anim_exec_xcb_t)exec_cb);
 491:Drivers/lvgl/src/misc/lv_anim.c **** }
 492:Drivers/lvgl/src/misc/lv_anim.c **** 
 493:Drivers/lvgl/src/misc/lv_anim.c **** uint32_t lv_anim_resolve_speed(uint32_t speed_or_time, int32_t start, int32_t end)
 494:Drivers/lvgl/src/misc/lv_anim.c **** {
 495:Drivers/lvgl/src/misc/lv_anim.c ****     /*It was a simple time*/
 496:Drivers/lvgl/src/misc/lv_anim.c ****     if((speed_or_time & LV_ANIM_SPEED_MASK) == 0) return speed_or_time;
 497:Drivers/lvgl/src/misc/lv_anim.c **** 
 498:Drivers/lvgl/src/misc/lv_anim.c ****     uint32_t d    = LV_ABS(start - end);
 499:Drivers/lvgl/src/misc/lv_anim.c ****     uint32_t speed = speed_or_time & 0x3FF;
 500:Drivers/lvgl/src/misc/lv_anim.c ****     uint32_t time = (d * 100) / speed; /*Speed is in 10 units per sec*/
 501:Drivers/lvgl/src/misc/lv_anim.c ****     uint32_t max_time = (speed_or_time >> 20) & 0x3FF;
 502:Drivers/lvgl/src/misc/lv_anim.c ****     uint32_t min_time = (speed_or_time >> 10) & 0x3FF;
 503:Drivers/lvgl/src/misc/lv_anim.c **** 
 504:Drivers/lvgl/src/misc/lv_anim.c ****     return LV_CLAMP(min_time * 10, time, max_time * 10);
 505:Drivers/lvgl/src/misc/lv_anim.c **** }
 506:Drivers/lvgl/src/misc/lv_anim.c **** 
 507:Drivers/lvgl/src/misc/lv_anim.c **** bool lv_anim_is_paused(lv_anim_t * a)
 508:Drivers/lvgl/src/misc/lv_anim.c **** {
 509:Drivers/lvgl/src/misc/lv_anim.c ****     LV_ASSERT_NULL(a);
 510:Drivers/lvgl/src/misc/lv_anim.c ****     return a->is_paused;
 511:Drivers/lvgl/src/misc/lv_anim.c **** }
 512:Drivers/lvgl/src/misc/lv_anim.c **** 
 513:Drivers/lvgl/src/misc/lv_anim.c **** void lv_anim_pause(lv_anim_t * a)
 514:Drivers/lvgl/src/misc/lv_anim.c **** {
 515:Drivers/lvgl/src/misc/lv_anim.c ****     LV_ASSERT_NULL(a);
 516:Drivers/lvgl/src/misc/lv_anim.c ****     lv_anim_pause_for_internal(a, LV_ANIM_PAUSE_FOREVER);
 517:Drivers/lvgl/src/misc/lv_anim.c **** }
 518:Drivers/lvgl/src/misc/lv_anim.c **** 
 519:Drivers/lvgl/src/misc/lv_anim.c **** void lv_anim_pause_for(lv_anim_t * a, uint32_t ms)
 520:Drivers/lvgl/src/misc/lv_anim.c **** {
 521:Drivers/lvgl/src/misc/lv_anim.c ****     LV_ASSERT_NULL(a);
 522:Drivers/lvgl/src/misc/lv_anim.c ****     lv_anim_pause_for_internal(a, ms);
 523:Drivers/lvgl/src/misc/lv_anim.c **** }
 524:Drivers/lvgl/src/misc/lv_anim.c **** 
 525:Drivers/lvgl/src/misc/lv_anim.c **** void lv_anim_resume(lv_anim_t * a)
 526:Drivers/lvgl/src/misc/lv_anim.c **** {
 527:Drivers/lvgl/src/misc/lv_anim.c ****     LV_ASSERT_NULL(a);
 528:Drivers/lvgl/src/misc/lv_anim.c ****     a->is_paused = false;
 529:Drivers/lvgl/src/misc/lv_anim.c ****     a->pause_duration = 0;
 530:Drivers/lvgl/src/misc/lv_anim.c ****     a->run_round = state.anim_run_round;
 531:Drivers/lvgl/src/misc/lv_anim.c **** }
 532:Drivers/lvgl/src/misc/lv_anim.c **** 
 533:Drivers/lvgl/src/misc/lv_anim.c **** /**********************
 534:Drivers/lvgl/src/misc/lv_anim.c ****  *   STATIC FUNCTIONS
 535:Drivers/lvgl/src/misc/lv_anim.c ****  **********************/
 536:Drivers/lvgl/src/misc/lv_anim.c **** 
 537:Drivers/lvgl/src/misc/lv_anim.c **** /**
 538:Drivers/lvgl/src/misc/lv_anim.c ****  * Periodically handle the animations.
 539:Drivers/lvgl/src/misc/lv_anim.c ****  * @param param unused
 540:Drivers/lvgl/src/misc/lv_anim.c ****  */
 541:Drivers/lvgl/src/misc/lv_anim.c **** static void anim_timer(lv_timer_t * param)
 542:Drivers/lvgl/src/misc/lv_anim.c **** {
 543:Drivers/lvgl/src/misc/lv_anim.c ****     LV_UNUSED(param);
ARM GAS  /tmp/ccoBJvOw.s 			page 11


 544:Drivers/lvgl/src/misc/lv_anim.c **** 
 545:Drivers/lvgl/src/misc/lv_anim.c ****     /*Flip the run round*/
 546:Drivers/lvgl/src/misc/lv_anim.c ****     state.anim_run_round = state.anim_run_round ? false : true;
 547:Drivers/lvgl/src/misc/lv_anim.c **** 
 548:Drivers/lvgl/src/misc/lv_anim.c ****     lv_anim_t * a = lv_ll_get_head(anim_ll_p);
 549:Drivers/lvgl/src/misc/lv_anim.c ****     while(a != NULL) {
 550:Drivers/lvgl/src/misc/lv_anim.c ****         uint32_t elaps = lv_tick_elaps(a->last_timer_run);
 551:Drivers/lvgl/src/misc/lv_anim.c **** 
 552:Drivers/lvgl/src/misc/lv_anim.c ****         if(a->is_paused) {
 553:Drivers/lvgl/src/misc/lv_anim.c ****             const uint32_t time_paused = lv_tick_elaps(a->pause_time);
 554:Drivers/lvgl/src/misc/lv_anim.c ****             const bool is_pause_over = a->pause_duration != LV_ANIM_PAUSE_FOREVER && time_paused >=
 555:Drivers/lvgl/src/misc/lv_anim.c **** 
 556:Drivers/lvgl/src/misc/lv_anim.c ****             if(is_pause_over) {
 557:Drivers/lvgl/src/misc/lv_anim.c ****                 const uint32_t pause_overrun = time_paused - a->pause_duration;
 558:Drivers/lvgl/src/misc/lv_anim.c ****                 a->is_paused = false;
 559:Drivers/lvgl/src/misc/lv_anim.c ****                 a->act_time += pause_overrun;
 560:Drivers/lvgl/src/misc/lv_anim.c ****                 a->run_round = !state.anim_run_round;
 561:Drivers/lvgl/src/misc/lv_anim.c ****             }
 562:Drivers/lvgl/src/misc/lv_anim.c ****         }
 563:Drivers/lvgl/src/misc/lv_anim.c ****         else {
 564:Drivers/lvgl/src/misc/lv_anim.c ****             a->act_time += elaps;
 565:Drivers/lvgl/src/misc/lv_anim.c ****         }
 566:Drivers/lvgl/src/misc/lv_anim.c ****         a->last_timer_run = lv_tick_get();
 567:Drivers/lvgl/src/misc/lv_anim.c **** 
 568:Drivers/lvgl/src/misc/lv_anim.c ****         /*It can be set by `lv_anim_delete()` typically in `end_cb`. If set then an animation delet
 569:Drivers/lvgl/src/misc/lv_anim.c ****          * happened in `anim_completed_handler` which could make this linked list reading corrupt
 570:Drivers/lvgl/src/misc/lv_anim.c ****          * because the list is changed meanwhile
 571:Drivers/lvgl/src/misc/lv_anim.c ****          */
 572:Drivers/lvgl/src/misc/lv_anim.c ****         state.anim_list_changed = false;
 573:Drivers/lvgl/src/misc/lv_anim.c **** 
 574:Drivers/lvgl/src/misc/lv_anim.c ****         if(!a->is_paused && a->run_round != state.anim_run_round) {
 575:Drivers/lvgl/src/misc/lv_anim.c ****             a->run_round = state.anim_run_round; /*The list readying might be reset so need to know
 576:Drivers/lvgl/src/misc/lv_anim.c ****             /*The animation will run now for the first time. Call `start_cb`*/
 577:Drivers/lvgl/src/misc/lv_anim.c ****             if(!a->start_cb_called && a->act_time >= 0) {
 578:Drivers/lvgl/src/misc/lv_anim.c **** 
 579:Drivers/lvgl/src/misc/lv_anim.c ****                 if(a->early_apply == 0 && a->get_value_cb) {
 580:Drivers/lvgl/src/misc/lv_anim.c ****                     int32_t v_ofs = a->get_value_cb(a);
 581:Drivers/lvgl/src/misc/lv_anim.c ****                     a->start_value += v_ofs;
 582:Drivers/lvgl/src/misc/lv_anim.c ****                     a->end_value += v_ofs;
 583:Drivers/lvgl/src/misc/lv_anim.c ****                 }
 584:Drivers/lvgl/src/misc/lv_anim.c **** 
 585:Drivers/lvgl/src/misc/lv_anim.c ****                 resolve_time(a);
 586:Drivers/lvgl/src/misc/lv_anim.c **** 
 587:Drivers/lvgl/src/misc/lv_anim.c ****                 if(a->start_cb) a->start_cb(a);
 588:Drivers/lvgl/src/misc/lv_anim.c ****                 a->start_cb_called = 1;
 589:Drivers/lvgl/src/misc/lv_anim.c **** 
 590:Drivers/lvgl/src/misc/lv_anim.c ****                 /*Do not let two animations for the same 'var' with the same 'exec_cb'*/
 591:Drivers/lvgl/src/misc/lv_anim.c ****                 remove_concurrent_anims(a);
 592:Drivers/lvgl/src/misc/lv_anim.c ****             }
 593:Drivers/lvgl/src/misc/lv_anim.c **** 
 594:Drivers/lvgl/src/misc/lv_anim.c ****             if(a->act_time >= 0) {
 595:Drivers/lvgl/src/misc/lv_anim.c ****                 int32_t act_time_original = a->act_time; /*The unclipped version is used later to c
 596:Drivers/lvgl/src/misc/lv_anim.c ****                 if(a->act_time > a->duration) a->act_time = a->duration;
 597:Drivers/lvgl/src/misc/lv_anim.c **** 
 598:Drivers/lvgl/src/misc/lv_anim.c ****                 int32_t act_time_before_exec = a->act_time;
 599:Drivers/lvgl/src/misc/lv_anim.c ****                 int32_t new_value;
 600:Drivers/lvgl/src/misc/lv_anim.c ****                 new_value = a->path_cb(a);
ARM GAS  /tmp/ccoBJvOw.s 			page 12


 601:Drivers/lvgl/src/misc/lv_anim.c **** 
 602:Drivers/lvgl/src/misc/lv_anim.c ****                 if(new_value != a->current_value) {
 603:Drivers/lvgl/src/misc/lv_anim.c ****                     a->current_value = new_value;
 604:Drivers/lvgl/src/misc/lv_anim.c ****                     /*Apply the calculated value*/
 605:Drivers/lvgl/src/misc/lv_anim.c ****                     if(a->exec_cb) a->exec_cb(a->var, new_value);
 606:Drivers/lvgl/src/misc/lv_anim.c ****                     if(!state.anim_list_changed && a->custom_exec_cb) a->custom_exec_cb(a, new_valu
 607:Drivers/lvgl/src/misc/lv_anim.c ****                 }
 608:Drivers/lvgl/src/misc/lv_anim.c **** 
 609:Drivers/lvgl/src/misc/lv_anim.c ****                 if(!state.anim_list_changed) {
 610:Drivers/lvgl/src/misc/lv_anim.c ****                     /*Restore the original time to see is there is over time.
 611:Drivers/lvgl/src/misc/lv_anim.c ****                      *Restore only if it wasn't changed in the `exec_cb` for some special reasons.*
 612:Drivers/lvgl/src/misc/lv_anim.c ****                     if(a->act_time == act_time_before_exec) a->act_time = act_time_original;
 613:Drivers/lvgl/src/misc/lv_anim.c **** 
 614:Drivers/lvgl/src/misc/lv_anim.c ****                     /*If the time is elapsed the animation is ready*/
 615:Drivers/lvgl/src/misc/lv_anim.c ****                     if(a->act_time >= a->duration) {
 616:Drivers/lvgl/src/misc/lv_anim.c ****                         anim_completed_handler(a);
 617:Drivers/lvgl/src/misc/lv_anim.c ****                     }
 618:Drivers/lvgl/src/misc/lv_anim.c ****                 }
 619:Drivers/lvgl/src/misc/lv_anim.c ****             }
 620:Drivers/lvgl/src/misc/lv_anim.c ****         }
 621:Drivers/lvgl/src/misc/lv_anim.c **** 
 622:Drivers/lvgl/src/misc/lv_anim.c ****         /*If the linked list changed due to anim. delete then it's not safe to continue
 623:Drivers/lvgl/src/misc/lv_anim.c ****          *the reading of the list from here -> start from the head*/
 624:Drivers/lvgl/src/misc/lv_anim.c ****         if(state.anim_list_changed)
 625:Drivers/lvgl/src/misc/lv_anim.c ****             a = lv_ll_get_head(anim_ll_p);
 626:Drivers/lvgl/src/misc/lv_anim.c ****         else
 627:Drivers/lvgl/src/misc/lv_anim.c ****             a = lv_ll_get_next(anim_ll_p, a);
 628:Drivers/lvgl/src/misc/lv_anim.c ****     }
 629:Drivers/lvgl/src/misc/lv_anim.c **** 
 630:Drivers/lvgl/src/misc/lv_anim.c **** }
 631:Drivers/lvgl/src/misc/lv_anim.c **** 
 632:Drivers/lvgl/src/misc/lv_anim.c **** /**
 633:Drivers/lvgl/src/misc/lv_anim.c ****  * Called when an animation is completed to do the necessary things
 634:Drivers/lvgl/src/misc/lv_anim.c ****  * e.g. repeat, play in reverse, delete etc.
 635:Drivers/lvgl/src/misc/lv_anim.c ****  * @param a pointer to an animation descriptor
 636:Drivers/lvgl/src/misc/lv_anim.c ****  */
 637:Drivers/lvgl/src/misc/lv_anim.c **** static void anim_completed_handler(lv_anim_t * a)
 638:Drivers/lvgl/src/misc/lv_anim.c **** {
 639:Drivers/lvgl/src/misc/lv_anim.c ****     /*In the end of a forward anim decrement repeat cnt.*/
 640:Drivers/lvgl/src/misc/lv_anim.c ****     if(a->reverse_play_in_progress == 0 && a->repeat_cnt > 0 && a->repeat_cnt != LV_ANIM_REPEAT_INF
 641:Drivers/lvgl/src/misc/lv_anim.c ****         a->repeat_cnt--;
 642:Drivers/lvgl/src/misc/lv_anim.c ****     }
 643:Drivers/lvgl/src/misc/lv_anim.c **** 
 644:Drivers/lvgl/src/misc/lv_anim.c ****     /*Delete animation if
 645:Drivers/lvgl/src/misc/lv_anim.c ****      * - no repeat left and no reverse play scheduled (simple one shot animation); or
 646:Drivers/lvgl/src/misc/lv_anim.c ****      * - no repeat, reverse play enabled (reverse_duration != 0) and reverse play is completed. */
 647:Drivers/lvgl/src/misc/lv_anim.c ****     if(a->repeat_cnt == 0 && (a->reverse_duration == 0 || a->reverse_play_in_progress == 1)) {
 648:Drivers/lvgl/src/misc/lv_anim.c **** 
 649:Drivers/lvgl/src/misc/lv_anim.c ****         /*Delete the animation from the list.
 650:Drivers/lvgl/src/misc/lv_anim.c ****          * This way the `completed_cb` will see the animations like it's animation is already delet
 651:Drivers/lvgl/src/misc/lv_anim.c ****         lv_ll_remove(anim_ll_p, a);
 652:Drivers/lvgl/src/misc/lv_anim.c ****         /*Flag that the list has changed*/
 653:Drivers/lvgl/src/misc/lv_anim.c ****         anim_mark_list_change();
 654:Drivers/lvgl/src/misc/lv_anim.c **** 
 655:Drivers/lvgl/src/misc/lv_anim.c ****         /*Call the callback function at the end*/
 656:Drivers/lvgl/src/misc/lv_anim.c ****         if(a->completed_cb != NULL) a->completed_cb(a);
 657:Drivers/lvgl/src/misc/lv_anim.c ****         if(a->deleted_cb != NULL) a->deleted_cb(a);
ARM GAS  /tmp/ccoBJvOw.s 			page 13


 658:Drivers/lvgl/src/misc/lv_anim.c ****         lv_free(a);
 659:Drivers/lvgl/src/misc/lv_anim.c ****     }
 660:Drivers/lvgl/src/misc/lv_anim.c ****     /*If the animation is not deleted then restart it*/
 661:Drivers/lvgl/src/misc/lv_anim.c ****     else {
 662:Drivers/lvgl/src/misc/lv_anim.c ****         /*Restart the animation. If the time is over a little compensate it.*/
 663:Drivers/lvgl/src/misc/lv_anim.c ****         int32_t over_time = 0;
 664:Drivers/lvgl/src/misc/lv_anim.c ****         if(a->act_time > a->duration) over_time = a->act_time - a->duration;
 665:Drivers/lvgl/src/misc/lv_anim.c ****         a->act_time = over_time - (int32_t)(a->repeat_delay);
 666:Drivers/lvgl/src/misc/lv_anim.c ****         /*Swap start and end values in reverse-play mode*/
 667:Drivers/lvgl/src/misc/lv_anim.c ****         if(a->reverse_duration != 0) {
 668:Drivers/lvgl/src/misc/lv_anim.c ****             /*If now now playing in reverse, use the 'reverse_delay'.*/
 669:Drivers/lvgl/src/misc/lv_anim.c ****             if(a->reverse_play_in_progress == 0) a->act_time = -(int32_t)(a->reverse_delay);
 670:Drivers/lvgl/src/misc/lv_anim.c **** 
 671:Drivers/lvgl/src/misc/lv_anim.c ****             /*Toggle reverse-play state*/
 672:Drivers/lvgl/src/misc/lv_anim.c ****             a->reverse_play_in_progress = a->reverse_play_in_progress == 0 ? 1 : 0;
 673:Drivers/lvgl/src/misc/lv_anim.c ****             /*Swap the start and end values*/
 674:Drivers/lvgl/src/misc/lv_anim.c ****             int32_t tmp    = a->start_value;
 675:Drivers/lvgl/src/misc/lv_anim.c ****             a->start_value = a->end_value;
 676:Drivers/lvgl/src/misc/lv_anim.c ****             a->end_value   = tmp;
 677:Drivers/lvgl/src/misc/lv_anim.c ****             /*Swap the time and reverse_duration*/
 678:Drivers/lvgl/src/misc/lv_anim.c ****             tmp = a->duration;
 679:Drivers/lvgl/src/misc/lv_anim.c ****             a->duration = a->reverse_duration;
 680:Drivers/lvgl/src/misc/lv_anim.c ****             a->reverse_duration = tmp;
 681:Drivers/lvgl/src/misc/lv_anim.c ****         }
 682:Drivers/lvgl/src/misc/lv_anim.c ****     }
 683:Drivers/lvgl/src/misc/lv_anim.c **** }
 684:Drivers/lvgl/src/misc/lv_anim.c **** 
 685:Drivers/lvgl/src/misc/lv_anim.c **** static void anim_mark_list_change(void)
 686:Drivers/lvgl/src/misc/lv_anim.c **** {
 687:Drivers/lvgl/src/misc/lv_anim.c ****     state.anim_list_changed = true;
 688:Drivers/lvgl/src/misc/lv_anim.c ****     if(lv_ll_get_head(anim_ll_p) == NULL)
 689:Drivers/lvgl/src/misc/lv_anim.c ****         lv_timer_pause(state.timer);
 690:Drivers/lvgl/src/misc/lv_anim.c ****     else
 691:Drivers/lvgl/src/misc/lv_anim.c ****         lv_timer_resume(state.timer);
 692:Drivers/lvgl/src/misc/lv_anim.c **** }
 693:Drivers/lvgl/src/misc/lv_anim.c **** 
 694:Drivers/lvgl/src/misc/lv_anim.c **** static int32_t lv_anim_path_cubic_bezier(const lv_anim_t * a, int32_t x1, int32_t y1, int32_t x2, i
 695:Drivers/lvgl/src/misc/lv_anim.c **** {
 696:Drivers/lvgl/src/misc/lv_anim.c ****     /*Calculate the current step*/
 697:Drivers/lvgl/src/misc/lv_anim.c ****     uint32_t t = lv_map(a->act_time, 0, a->duration, 0, LV_BEZIER_VAL_MAX);
 698:Drivers/lvgl/src/misc/lv_anim.c ****     int32_t step = lv_cubic_bezier(t, x1, y1, x2, y2);
 699:Drivers/lvgl/src/misc/lv_anim.c **** 
 700:Drivers/lvgl/src/misc/lv_anim.c ****     int32_t new_value;
 701:Drivers/lvgl/src/misc/lv_anim.c ****     new_value = step * (a->end_value - a->start_value);
 702:Drivers/lvgl/src/misc/lv_anim.c ****     new_value = new_value >> LV_BEZIER_VAL_SHIFT;
 703:Drivers/lvgl/src/misc/lv_anim.c ****     new_value += a->start_value;
 704:Drivers/lvgl/src/misc/lv_anim.c **** 
 705:Drivers/lvgl/src/misc/lv_anim.c ****     return new_value;
 706:Drivers/lvgl/src/misc/lv_anim.c **** }
 707:Drivers/lvgl/src/misc/lv_anim.c **** 
 708:Drivers/lvgl/src/misc/lv_anim.c **** static void lv_anim_pause_for_internal(lv_anim_t * a, uint32_t ms)
 709:Drivers/lvgl/src/misc/lv_anim.c **** {
  29              		.loc 1 709 1 view -0
  30              		.cfi_startproc
  31              		@ args = 0, pretend = 0, frame = 0
  32              		@ frame_needed = 0, uses_anonymous_args = 0
  33              		.loc 1 709 1 is_stmt 0 view .LVU1
ARM GAS  /tmp/ccoBJvOw.s 			page 14


  34 0000 38B5     		push	{r3, r4, r5, lr}
  35              	.LCFI0:
  36              		.cfi_def_cfa_offset 16
  37              		.cfi_offset 3, -16
  38              		.cfi_offset 4, -12
  39              		.cfi_offset 5, -8
  40              		.cfi_offset 14, -4
  41 0002 0446     		mov	r4, r0
  42 0004 0D46     		mov	r5, r1
 710:Drivers/lvgl/src/misc/lv_anim.c **** 
 711:Drivers/lvgl/src/misc/lv_anim.c ****     a->is_paused = true;
  43              		.loc 1 711 5 is_stmt 1 view .LVU2
  44              		.loc 1 711 18 is_stmt 0 view .LVU3
  45 0006 90F85C30 		ldrb	r3, [r0, #92]	@ zero_extendqisi2
  46 000a 43F00103 		orr	r3, r3, #1
  47 000e 80F85C30 		strb	r3, [r0, #92]
 712:Drivers/lvgl/src/misc/lv_anim.c ****     a->pause_time = lv_tick_get();
  48              		.loc 1 712 5 is_stmt 1 view .LVU4
  49              		.loc 1 712 21 is_stmt 0 view .LVU5
  50 0012 FFF7FEFF 		bl	lv_tick_get
  51              	.LVL1:
  52              		.loc 1 712 19 discriminator 1 view .LVU6
  53 0016 6065     		str	r0, [r4, #84]
 713:Drivers/lvgl/src/misc/lv_anim.c ****     a->pause_duration = ms;
  54              		.loc 1 713 5 is_stmt 1 view .LVU7
  55              		.loc 1 713 23 is_stmt 0 view .LVU8
  56 0018 A565     		str	r5, [r4, #88]
 714:Drivers/lvgl/src/misc/lv_anim.c **** }
  57              		.loc 1 714 1 view .LVU9
  58 001a 38BD     		pop	{r3, r4, r5, pc}
  59              		.loc 1 714 1 view .LVU10
  60              		.cfi_endproc
  61              	.LFE242:
  63              		.section	.text.remove_anim,"ax",%progbits
  64              		.align	1
  65              		.syntax unified
  66              		.thumb
  67              		.thumb_func
  69              	remove_anim:
  70              	.LVL2:
  71              	.LFB245:
 715:Drivers/lvgl/src/misc/lv_anim.c **** 
 716:Drivers/lvgl/src/misc/lv_anim.c **** static void resolve_time(lv_anim_t * a)
 717:Drivers/lvgl/src/misc/lv_anim.c **** {
 718:Drivers/lvgl/src/misc/lv_anim.c ****     a->duration = lv_anim_resolve_speed(a->duration, a->start_value, a->end_value);
 719:Drivers/lvgl/src/misc/lv_anim.c ****     a->reverse_duration = lv_anim_resolve_speed(a->reverse_duration, a->start_value, a->end_value);
 720:Drivers/lvgl/src/misc/lv_anim.c ****     a->reverse_delay = lv_anim_resolve_speed(a->reverse_delay, a->start_value, a->end_value);
 721:Drivers/lvgl/src/misc/lv_anim.c ****     a->repeat_delay = lv_anim_resolve_speed(a->repeat_delay, a->start_value, a->end_value);
 722:Drivers/lvgl/src/misc/lv_anim.c **** }
 723:Drivers/lvgl/src/misc/lv_anim.c **** 
 724:Drivers/lvgl/src/misc/lv_anim.c **** /**
 725:Drivers/lvgl/src/misc/lv_anim.c ****  * Remove animations which are animating the same var with the same exec_cb
 726:Drivers/lvgl/src/misc/lv_anim.c ****  * and they are already running or they have early_apply
 727:Drivers/lvgl/src/misc/lv_anim.c ****  * @param a_current     the current animation, use its var and exec_cb as reference to know what to
 728:Drivers/lvgl/src/misc/lv_anim.c ****  * @return              true: at least one animation was delete
 729:Drivers/lvgl/src/misc/lv_anim.c ****  */
 730:Drivers/lvgl/src/misc/lv_anim.c **** static bool remove_concurrent_anims(const lv_anim_t * a_current)
ARM GAS  /tmp/ccoBJvOw.s 			page 15


 731:Drivers/lvgl/src/misc/lv_anim.c **** {
 732:Drivers/lvgl/src/misc/lv_anim.c ****     if(a_current->exec_cb == NULL && a_current->custom_exec_cb == NULL) return false;
 733:Drivers/lvgl/src/misc/lv_anim.c **** 
 734:Drivers/lvgl/src/misc/lv_anim.c ****     lv_anim_t * a;
 735:Drivers/lvgl/src/misc/lv_anim.c ****     bool del_any = false;
 736:Drivers/lvgl/src/misc/lv_anim.c ****     a = lv_ll_get_head(anim_ll_p);
 737:Drivers/lvgl/src/misc/lv_anim.c ****     while(a != NULL) {
 738:Drivers/lvgl/src/misc/lv_anim.c ****         bool del = false;
 739:Drivers/lvgl/src/misc/lv_anim.c ****         /*We can't test for custom_exec_cb equality because in the MicroPython binding
 740:Drivers/lvgl/src/misc/lv_anim.c ****          *a wrapper callback is used here an the real callback data is stored in the `user_data`.
 741:Drivers/lvgl/src/misc/lv_anim.c ****          *Therefore equality check would remove all animations.*/
 742:Drivers/lvgl/src/misc/lv_anim.c ****         if(a != a_current &&
 743:Drivers/lvgl/src/misc/lv_anim.c ****            (a->act_time >= 0 || a->early_apply) &&
 744:Drivers/lvgl/src/misc/lv_anim.c ****            (a->var == a_current->var) &&
 745:Drivers/lvgl/src/misc/lv_anim.c ****            ((a->exec_cb && a->exec_cb == a_current->exec_cb)
 746:Drivers/lvgl/src/misc/lv_anim.c ****             /*|| (a->custom_exec_cb && a->custom_exec_cb == a_current->custom_exec_cb)*/)) {
 747:Drivers/lvgl/src/misc/lv_anim.c ****             lv_ll_remove(anim_ll_p, a);
 748:Drivers/lvgl/src/misc/lv_anim.c ****             if(a->deleted_cb != NULL) a->deleted_cb(a);
 749:Drivers/lvgl/src/misc/lv_anim.c ****             lv_free(a);
 750:Drivers/lvgl/src/misc/lv_anim.c ****             /*Read by `anim_timer`. It need to know if a delete occurred in the linked list*/
 751:Drivers/lvgl/src/misc/lv_anim.c ****             anim_mark_list_change();
 752:Drivers/lvgl/src/misc/lv_anim.c **** 
 753:Drivers/lvgl/src/misc/lv_anim.c ****             del_any = true;
 754:Drivers/lvgl/src/misc/lv_anim.c ****             del = true;
 755:Drivers/lvgl/src/misc/lv_anim.c ****         }
 756:Drivers/lvgl/src/misc/lv_anim.c **** 
 757:Drivers/lvgl/src/misc/lv_anim.c ****         /*Always start from the head on delete, because we don't know
 758:Drivers/lvgl/src/misc/lv_anim.c ****          *how `anim_ll_p` was changes in `a->deleted_cb` */
 759:Drivers/lvgl/src/misc/lv_anim.c ****         a = del ? lv_ll_get_head(anim_ll_p) : lv_ll_get_next(anim_ll_p, a);
 760:Drivers/lvgl/src/misc/lv_anim.c ****     }
 761:Drivers/lvgl/src/misc/lv_anim.c **** 
 762:Drivers/lvgl/src/misc/lv_anim.c ****     return del_any;
 763:Drivers/lvgl/src/misc/lv_anim.c **** }
 764:Drivers/lvgl/src/misc/lv_anim.c **** 
 765:Drivers/lvgl/src/misc/lv_anim.c **** static void remove_anim(void * a)
 766:Drivers/lvgl/src/misc/lv_anim.c **** {
  72              		.loc 1 766 1 is_stmt 1 view -0
  73              		.cfi_startproc
  74              		@ args = 0, pretend = 0, frame = 0
  75              		@ frame_needed = 0, uses_anonymous_args = 0
  76              		.loc 1 766 1 is_stmt 0 view .LVU12
  77 0000 10B5     		push	{r4, lr}
  78              	.LCFI1:
  79              		.cfi_def_cfa_offset 8
  80              		.cfi_offset 4, -8
  81              		.cfi_offset 14, -4
  82 0002 0446     		mov	r4, r0
 767:Drivers/lvgl/src/misc/lv_anim.c ****     lv_anim_t * anim = a;
  83              		.loc 1 767 5 is_stmt 1 view .LVU13
  84              	.LVL3:
 768:Drivers/lvgl/src/misc/lv_anim.c ****     lv_ll_remove(anim_ll_p, a);
  85              		.loc 1 768 5 view .LVU14
  86 0004 0146     		mov	r1, r0
  87 0006 0548     		ldr	r0, .L6
  88              	.LVL4:
  89              		.loc 1 768 5 is_stmt 0 view .LVU15
  90 0008 FFF7FEFF 		bl	lv_ll_remove
ARM GAS  /tmp/ccoBJvOw.s 			page 16


  91              	.LVL5:
 769:Drivers/lvgl/src/misc/lv_anim.c ****     if(anim->deleted_cb != NULL) anim->deleted_cb(anim);
  92              		.loc 1 769 5 is_stmt 1 view .LVU16
  93              		.loc 1 769 12 is_stmt 0 view .LVU17
  94 000c 6369     		ldr	r3, [r4, #20]
  95              		.loc 1 769 7 view .LVU18
  96 000e 0BB1     		cbz	r3, .L4
  97              		.loc 1 769 34 is_stmt 1 discriminator 1 view .LVU19
  98 0010 2046     		mov	r0, r4
  99 0012 9847     		blx	r3
 100              	.LVL6:
 101              	.L4:
 770:Drivers/lvgl/src/misc/lv_anim.c ****     lv_free(a);
 102              		.loc 1 770 5 view .LVU20
 103 0014 2046     		mov	r0, r4
 104 0016 FFF7FEFF 		bl	lv_free
 105              	.LVL7:
 771:Drivers/lvgl/src/misc/lv_anim.c **** }
 106              		.loc 1 771 1 is_stmt 0 view .LVU21
 107 001a 10BD     		pop	{r4, pc}
 108              	.LVL8:
 109              	.L7:
 110              		.loc 1 771 1 view .LVU22
 111              		.align	2
 112              	.L6:
 113 001c AC000000 		.word	lv_global+172
 114              		.cfi_endproc
 115              	.LFE245:
 117              		.section	.text.anim_mark_list_change,"ax",%progbits
 118              		.align	1
 119              		.syntax unified
 120              		.thumb
 121              		.thumb_func
 123              	anim_mark_list_change:
 124              	.LFB240:
 686:Drivers/lvgl/src/misc/lv_anim.c ****     state.anim_list_changed = true;
 125              		.loc 1 686 1 is_stmt 1 view -0
 126              		.cfi_startproc
 127              		@ args = 0, pretend = 0, frame = 0
 128              		@ frame_needed = 0, uses_anonymous_args = 0
 129 0000 08B5     		push	{r3, lr}
 130              	.LCFI2:
 131              		.cfi_def_cfa_offset 8
 132              		.cfi_offset 3, -8
 133              		.cfi_offset 14, -4
 687:Drivers/lvgl/src/misc/lv_anim.c ****     if(lv_ll_get_head(anim_ll_p) == NULL)
 134              		.loc 1 687 5 view .LVU24
 687:Drivers/lvgl/src/misc/lv_anim.c ****     if(lv_ll_get_head(anim_ll_p) == NULL)
 135              		.loc 1 687 29 is_stmt 0 view .LVU25
 136 0002 0A48     		ldr	r0, .L13
 137 0004 0123     		movs	r3, #1
 138 0006 80F8A430 		strb	r3, [r0, #164]
 688:Drivers/lvgl/src/misc/lv_anim.c ****         lv_timer_pause(state.timer);
 139              		.loc 1 688 5 is_stmt 1 view .LVU26
 688:Drivers/lvgl/src/misc/lv_anim.c ****         lv_timer_pause(state.timer);
 140              		.loc 1 688 8 is_stmt 0 view .LVU27
 141 000a AC30     		adds	r0, r0, #172
ARM GAS  /tmp/ccoBJvOw.s 			page 17


 142 000c FFF7FEFF 		bl	lv_ll_get_head
 143              	.LVL9:
 688:Drivers/lvgl/src/misc/lv_anim.c ****         lv_timer_pause(state.timer);
 144              		.loc 1 688 7 discriminator 1 view .LVU28
 145 0010 28B1     		cbz	r0, .L12
 691:Drivers/lvgl/src/misc/lv_anim.c **** }
 146              		.loc 1 691 9 is_stmt 1 view .LVU29
 147 0012 064B     		ldr	r3, .L13
 148 0014 D3F8A800 		ldr	r0, [r3, #168]
 149 0018 FFF7FEFF 		bl	lv_timer_resume
 150              	.LVL10:
 151              	.L8:
 692:Drivers/lvgl/src/misc/lv_anim.c **** 
 152              		.loc 1 692 1 is_stmt 0 view .LVU30
 153 001c 08BD     		pop	{r3, pc}
 154              	.L12:
 689:Drivers/lvgl/src/misc/lv_anim.c ****     else
 155              		.loc 1 689 9 is_stmt 1 view .LVU31
 156 001e 034B     		ldr	r3, .L13
 157 0020 D3F8A800 		ldr	r0, [r3, #168]
 158 0024 FFF7FEFF 		bl	lv_timer_pause
 159              	.LVL11:
 160 0028 F8E7     		b	.L8
 161              	.L14:
 162 002a 00BF     		.align	2
 163              	.L13:
 164 002c 00000000 		.word	lv_global
 165              		.cfi_endproc
 166              	.LFE240:
 168              		.section	.text.remove_concurrent_anims,"ax",%progbits
 169              		.align	1
 170              		.syntax unified
 171              		.thumb
 172              		.thumb_func
 174              	remove_concurrent_anims:
 175              	.LVL12:
 176              	.LFB244:
 731:Drivers/lvgl/src/misc/lv_anim.c ****     if(a_current->exec_cb == NULL && a_current->custom_exec_cb == NULL) return false;
 177              		.loc 1 731 1 view -0
 178              		.cfi_startproc
 179              		@ args = 0, pretend = 0, frame = 0
 180              		@ frame_needed = 0, uses_anonymous_args = 0
 731:Drivers/lvgl/src/misc/lv_anim.c ****     if(a_current->exec_cb == NULL && a_current->custom_exec_cb == NULL) return false;
 181              		.loc 1 731 1 is_stmt 0 view .LVU33
 182 0000 70B5     		push	{r4, r5, r6, lr}
 183              	.LCFI3:
 184              		.cfi_def_cfa_offset 16
 185              		.cfi_offset 4, -16
 186              		.cfi_offset 5, -12
 187              		.cfi_offset 6, -8
 188              		.cfi_offset 14, -4
 189 0002 0546     		mov	r5, r0
 732:Drivers/lvgl/src/misc/lv_anim.c **** 
 190              		.loc 1 732 5 is_stmt 1 view .LVU34
 732:Drivers/lvgl/src/misc/lv_anim.c **** 
 191              		.loc 1 732 17 is_stmt 0 view .LVU35
 192 0004 4368     		ldr	r3, [r0, #4]
ARM GAS  /tmp/ccoBJvOw.s 			page 18


 732:Drivers/lvgl/src/misc/lv_anim.c **** 
 193              		.loc 1 732 7 view .LVU36
 194 0006 2BB1     		cbz	r3, .L26
 195              	.L16:
 734:Drivers/lvgl/src/misc/lv_anim.c ****     bool del_any = false;
 196              		.loc 1 734 5 is_stmt 1 view .LVU37
 735:Drivers/lvgl/src/misc/lv_anim.c ****     a = lv_ll_get_head(anim_ll_p);
 197              		.loc 1 735 5 view .LVU38
 198              	.LVL13:
 736:Drivers/lvgl/src/misc/lv_anim.c ****     while(a != NULL) {
 199              		.loc 1 736 5 view .LVU39
 736:Drivers/lvgl/src/misc/lv_anim.c ****     while(a != NULL) {
 200              		.loc 1 736 9 is_stmt 0 view .LVU40
 201 0008 1C48     		ldr	r0, .L28
 202              	.LVL14:
 736:Drivers/lvgl/src/misc/lv_anim.c ****     while(a != NULL) {
 203              		.loc 1 736 9 view .LVU41
 204 000a FFF7FEFF 		bl	lv_ll_get_head
 205              	.LVL15:
 206 000e 0446     		mov	r4, r0
 207              	.LVL16:
 737:Drivers/lvgl/src/misc/lv_anim.c ****         bool del = false;
 208              		.loc 1 737 5 is_stmt 1 view .LVU42
 735:Drivers/lvgl/src/misc/lv_anim.c ****     a = lv_ll_get_head(anim_ll_p);
 209              		.loc 1 735 10 is_stmt 0 view .LVU43
 210 0010 0026     		movs	r6, #0
 737:Drivers/lvgl/src/misc/lv_anim.c ****         bool del = false;
 211              		.loc 1 737 10 view .LVU44
 212 0012 0FE0     		b	.L18
 213              	.LVL17:
 214              	.L26:
 732:Drivers/lvgl/src/misc/lv_anim.c **** 
 215              		.loc 1 732 47 discriminator 1 view .LVU45
 216 0014 8368     		ldr	r3, [r0, #8]
 732:Drivers/lvgl/src/misc/lv_anim.c **** 
 217              		.loc 1 732 35 discriminator 1 view .LVU46
 218 0016 002B     		cmp	r3, #0
 219 0018 F6D1     		bne	.L16
 732:Drivers/lvgl/src/misc/lv_anim.c **** 
 220              		.loc 1 732 80 discriminator 2 view .LVU47
 221 001a 0026     		movs	r6, #0
 222              	.LVL18:
 223              	.L17:
 763:Drivers/lvgl/src/misc/lv_anim.c **** 
 224              		.loc 1 763 1 view .LVU48
 225 001c 3046     		mov	r0, r6
 226 001e 70BD     		pop	{r4, r5, r6, pc}
 227              	.LVL19:
 228              	.L27:
 229              	.LBB4:
 743:Drivers/lvgl/src/misc/lv_anim.c ****            (a->var == a_current->var) &&
 230              		.loc 1 743 30 view .LVU49
 231 0020 94F85C30 		ldrb	r3, [r4, #92]	@ zero_extendqisi2
 232 0024 13F0100F 		tst	r3, #16
 233 0028 0BD1     		bne	.L20
 234              	.L19:
 235              	.LVL20:
ARM GAS  /tmp/ccoBJvOw.s 			page 19


 759:Drivers/lvgl/src/misc/lv_anim.c ****     }
 236              		.loc 1 759 47 discriminator 2 view .LVU50
 237 002a 2146     		mov	r1, r4
 238 002c 1348     		ldr	r0, .L28
 239 002e FFF7FEFF 		bl	lv_ll_get_next
 240              	.LVL21:
 241 0032 0446     		mov	r4, r0
 242              	.LVL22:
 243              	.L18:
 759:Drivers/lvgl/src/misc/lv_anim.c ****     }
 244              		.loc 1 759 47 discriminator 2 view .LVU51
 245              	.LBE4:
 737:Drivers/lvgl/src/misc/lv_anim.c ****         bool del = false;
 246              		.loc 1 737 13 is_stmt 1 view .LVU52
 247 0034 002C     		cmp	r4, #0
 248 0036 F1D0     		beq	.L17
 249              	.LBB5:
 738:Drivers/lvgl/src/misc/lv_anim.c ****         /*We can't test for custom_exec_cb equality because in the MicroPython binding
 250              		.loc 1 738 9 view .LVU53
 251              	.LVL23:
 742:Drivers/lvgl/src/misc/lv_anim.c ****            (a->act_time >= 0 || a->early_apply) &&
 252              		.loc 1 742 9 view .LVU54
 742:Drivers/lvgl/src/misc/lv_anim.c ****            (a->act_time >= 0 || a->early_apply) &&
 253              		.loc 1 742 11 is_stmt 0 view .LVU55
 254 0038 AC42     		cmp	r4, r5
 255 003a F6D0     		beq	.L19
 743:Drivers/lvgl/src/misc/lv_anim.c ****            (a->var == a_current->var) &&
 256              		.loc 1 743 14 view .LVU56
 257 003c 636B     		ldr	r3, [r4, #52]
 742:Drivers/lvgl/src/misc/lv_anim.c ****            (a->act_time >= 0 || a->early_apply) &&
 258              		.loc 1 742 27 discriminator 1 view .LVU57
 259 003e 002B     		cmp	r3, #0
 260 0040 EEDB     		blt	.L27
 261              	.L20:
 744:Drivers/lvgl/src/misc/lv_anim.c ****            ((a->exec_cb && a->exec_cb == a_current->exec_cb)
 262              		.loc 1 744 14 view .LVU58
 263 0042 2268     		ldr	r2, [r4]
 744:Drivers/lvgl/src/misc/lv_anim.c ****            ((a->exec_cb && a->exec_cb == a_current->exec_cb)
 264              		.loc 1 744 32 view .LVU59
 265 0044 2B68     		ldr	r3, [r5]
 743:Drivers/lvgl/src/misc/lv_anim.c ****            (a->var == a_current->var) &&
 266              		.loc 1 743 49 discriminator 1 view .LVU60
 267 0046 9A42     		cmp	r2, r3
 268 0048 EFD1     		bne	.L19
 745:Drivers/lvgl/src/misc/lv_anim.c ****             /*|| (a->custom_exec_cb && a->custom_exec_cb == a_current->custom_exec_cb)*/)) {
 269              		.loc 1 745 15 view .LVU61
 270 004a 6368     		ldr	r3, [r4, #4]
 744:Drivers/lvgl/src/misc/lv_anim.c ****            ((a->exec_cb && a->exec_cb == a_current->exec_cb)
 271              		.loc 1 744 39 view .LVU62
 272 004c 002B     		cmp	r3, #0
 273 004e ECD0     		beq	.L19
 745:Drivers/lvgl/src/misc/lv_anim.c ****             /*|| (a->custom_exec_cb && a->custom_exec_cb == a_current->custom_exec_cb)*/)) {
 274              		.loc 1 745 51 view .LVU63
 275 0050 6A68     		ldr	r2, [r5, #4]
 745:Drivers/lvgl/src/misc/lv_anim.c ****             /*|| (a->custom_exec_cb && a->custom_exec_cb == a_current->custom_exec_cb)*/)) {
 276              		.loc 1 745 25 view .LVU64
 277 0052 9342     		cmp	r3, r2
ARM GAS  /tmp/ccoBJvOw.s 			page 20


 278 0054 E9D1     		bne	.L19
 747:Drivers/lvgl/src/misc/lv_anim.c ****             if(a->deleted_cb != NULL) a->deleted_cb(a);
 279              		.loc 1 747 13 is_stmt 1 view .LVU65
 280 0056 2146     		mov	r1, r4
 281 0058 0848     		ldr	r0, .L28
 282 005a FFF7FEFF 		bl	lv_ll_remove
 283              	.LVL24:
 748:Drivers/lvgl/src/misc/lv_anim.c ****             lv_free(a);
 284              		.loc 1 748 13 view .LVU66
 748:Drivers/lvgl/src/misc/lv_anim.c ****             lv_free(a);
 285              		.loc 1 748 17 is_stmt 0 view .LVU67
 286 005e 6369     		ldr	r3, [r4, #20]
 748:Drivers/lvgl/src/misc/lv_anim.c ****             lv_free(a);
 287              		.loc 1 748 15 view .LVU68
 288 0060 0BB1     		cbz	r3, .L21
 748:Drivers/lvgl/src/misc/lv_anim.c ****             lv_free(a);
 289              		.loc 1 748 39 is_stmt 1 discriminator 1 view .LVU69
 290 0062 2046     		mov	r0, r4
 291 0064 9847     		blx	r3
 292              	.LVL25:
 293              	.L21:
 749:Drivers/lvgl/src/misc/lv_anim.c ****             /*Read by `anim_timer`. It need to know if a delete occurred in the linked list*/
 294              		.loc 1 749 13 view .LVU70
 295 0066 2046     		mov	r0, r4
 296 0068 FFF7FEFF 		bl	lv_free
 297              	.LVL26:
 751:Drivers/lvgl/src/misc/lv_anim.c **** 
 298              		.loc 1 751 13 view .LVU71
 299 006c FFF7FEFF 		bl	anim_mark_list_change
 300              	.LVL27:
 753:Drivers/lvgl/src/misc/lv_anim.c ****             del = true;
 301              		.loc 1 753 13 view .LVU72
 754:Drivers/lvgl/src/misc/lv_anim.c ****         }
 302              		.loc 1 754 13 view .LVU73
 759:Drivers/lvgl/src/misc/lv_anim.c ****     }
 303              		.loc 1 759 9 view .LVU74
 759:Drivers/lvgl/src/misc/lv_anim.c ****     }
 304              		.loc 1 759 19 is_stmt 0 discriminator 1 view .LVU75
 305 0070 0248     		ldr	r0, .L28
 306 0072 FFF7FEFF 		bl	lv_ll_get_head
 307              	.LVL28:
 308 0076 0446     		mov	r4, r0
 309              	.LVL29:
 753:Drivers/lvgl/src/misc/lv_anim.c ****             del = true;
 310              		.loc 1 753 21 view .LVU76
 311 0078 0126     		movs	r6, #1
 312 007a DBE7     		b	.L18
 313              	.L29:
 314              		.align	2
 315              	.L28:
 316 007c AC000000 		.word	lv_global+172
 317              	.LBE5:
 318              		.cfi_endproc
 319              	.LFE244:
 321              		.section	.text.anim_completed_handler,"ax",%progbits
 322              		.align	1
 323              		.syntax unified
ARM GAS  /tmp/ccoBJvOw.s 			page 21


 324              		.thumb
 325              		.thumb_func
 327              	anim_completed_handler:
 328              	.LVL30:
 329              	.LFB239:
 638:Drivers/lvgl/src/misc/lv_anim.c ****     /*In the end of a forward anim decrement repeat cnt.*/
 330              		.loc 1 638 1 is_stmt 1 view -0
 331              		.cfi_startproc
 332              		@ args = 0, pretend = 0, frame = 0
 333              		@ frame_needed = 0, uses_anonymous_args = 0
 638:Drivers/lvgl/src/misc/lv_anim.c ****     /*In the end of a forward anim decrement repeat cnt.*/
 334              		.loc 1 638 1 is_stmt 0 view .LVU78
 335 0000 10B5     		push	{r4, lr}
 336              	.LCFI4:
 337              		.cfi_def_cfa_offset 8
 338              		.cfi_offset 4, -8
 339              		.cfi_offset 14, -4
 340 0002 0446     		mov	r4, r0
 640:Drivers/lvgl/src/misc/lv_anim.c ****         a->repeat_cnt--;
 341              		.loc 1 640 5 is_stmt 1 view .LVU79
 640:Drivers/lvgl/src/misc/lv_anim.c ****         a->repeat_cnt--;
 342              		.loc 1 640 36 is_stmt 0 view .LVU80
 343 0004 90F85C30 		ldrb	r3, [r0, #92]	@ zero_extendqisi2
 640:Drivers/lvgl/src/misc/lv_anim.c ****         a->repeat_cnt--;
 344              		.loc 1 640 7 view .LVU81
 345 0008 13F00203 		ands	r3, r3, #2
 346 000c 06D1     		bne	.L31
 640:Drivers/lvgl/src/misc/lv_anim.c ****         a->repeat_cnt--;
 347              		.loc 1 640 45 discriminator 1 view .LVU82
 348 000e 426C     		ldr	r2, [r0, #68]
 640:Drivers/lvgl/src/misc/lv_anim.c ****         a->repeat_cnt--;
 349              		.loc 1 640 41 discriminator 1 view .LVU83
 350 0010 22B1     		cbz	r2, .L31
 640:Drivers/lvgl/src/misc/lv_anim.c ****         a->repeat_cnt--;
 351              		.loc 1 640 62 discriminator 2 view .LVU84
 352 0012 B2F1FF3F 		cmp	r2, #-1
 353 0016 01D0     		beq	.L31
 641:Drivers/lvgl/src/misc/lv_anim.c ****     }
 354              		.loc 1 641 9 is_stmt 1 view .LVU85
 641:Drivers/lvgl/src/misc/lv_anim.c ****     }
 355              		.loc 1 641 22 is_stmt 0 view .LVU86
 356 0018 013A     		subs	r2, r2, #1
 357 001a 4264     		str	r2, [r0, #68]
 358              	.L31:
 647:Drivers/lvgl/src/misc/lv_anim.c **** 
 359              		.loc 1 647 5 is_stmt 1 view .LVU87
 647:Drivers/lvgl/src/misc/lv_anim.c **** 
 360              		.loc 1 647 9 is_stmt 0 view .LVU88
 361 001c 626C     		ldr	r2, [r4, #68]
 647:Drivers/lvgl/src/misc/lv_anim.c **** 
 362              		.loc 1 647 7 view .LVU89
 363 001e A2B9     		cbnz	r2, .L32
 647:Drivers/lvgl/src/misc/lv_anim.c **** 
 364              		.loc 1 647 32 discriminator 1 view .LVU90
 365 0020 E26B     		ldr	r2, [r4, #60]
 647:Drivers/lvgl/src/misc/lv_anim.c **** 
 366              		.loc 1 647 27 discriminator 1 view .LVU91
ARM GAS  /tmp/ccoBJvOw.s 			page 22


 367 0022 02B1     		cbz	r2, .L33
 647:Drivers/lvgl/src/misc/lv_anim.c **** 
 368              		.loc 1 647 56 discriminator 2 view .LVU92
 369 0024 8BB1     		cbz	r3, .L32
 370              	.L33:
 651:Drivers/lvgl/src/misc/lv_anim.c ****         /*Flag that the list has changed*/
 371              		.loc 1 651 9 is_stmt 1 view .LVU93
 372 0026 2146     		mov	r1, r4
 373 0028 1848     		ldr	r0, .L41
 374              	.LVL31:
 651:Drivers/lvgl/src/misc/lv_anim.c ****         /*Flag that the list has changed*/
 375              		.loc 1 651 9 is_stmt 0 view .LVU94
 376 002a FFF7FEFF 		bl	lv_ll_remove
 377              	.LVL32:
 653:Drivers/lvgl/src/misc/lv_anim.c **** 
 378              		.loc 1 653 9 is_stmt 1 view .LVU95
 379 002e FFF7FEFF 		bl	anim_mark_list_change
 380              	.LVL33:
 656:Drivers/lvgl/src/misc/lv_anim.c ****         if(a->deleted_cb != NULL) a->deleted_cb(a);
 381              		.loc 1 656 9 view .LVU96
 656:Drivers/lvgl/src/misc/lv_anim.c ****         if(a->deleted_cb != NULL) a->deleted_cb(a);
 382              		.loc 1 656 13 is_stmt 0 view .LVU97
 383 0032 2369     		ldr	r3, [r4, #16]
 656:Drivers/lvgl/src/misc/lv_anim.c ****         if(a->deleted_cb != NULL) a->deleted_cb(a);
 384              		.loc 1 656 11 view .LVU98
 385 0034 0BB1     		cbz	r3, .L34
 656:Drivers/lvgl/src/misc/lv_anim.c ****         if(a->deleted_cb != NULL) a->deleted_cb(a);
 386              		.loc 1 656 37 is_stmt 1 discriminator 1 view .LVU99
 387 0036 2046     		mov	r0, r4
 388 0038 9847     		blx	r3
 389              	.LVL34:
 390              	.L34:
 657:Drivers/lvgl/src/misc/lv_anim.c ****         lv_free(a);
 391              		.loc 1 657 9 view .LVU100
 657:Drivers/lvgl/src/misc/lv_anim.c ****         lv_free(a);
 392              		.loc 1 657 13 is_stmt 0 view .LVU101
 393 003a 6369     		ldr	r3, [r4, #20]
 657:Drivers/lvgl/src/misc/lv_anim.c ****         lv_free(a);
 394              		.loc 1 657 11 view .LVU102
 395 003c 0BB1     		cbz	r3, .L35
 657:Drivers/lvgl/src/misc/lv_anim.c ****         lv_free(a);
 396              		.loc 1 657 35 is_stmt 1 discriminator 1 view .LVU103
 397 003e 2046     		mov	r0, r4
 398 0040 9847     		blx	r3
 399              	.LVL35:
 400              	.L35:
 658:Drivers/lvgl/src/misc/lv_anim.c ****     }
 401              		.loc 1 658 9 view .LVU104
 402 0042 2046     		mov	r0, r4
 403 0044 FFF7FEFF 		bl	lv_free
 404              	.LVL36:
 405 0048 1CE0     		b	.L30
 406              	.LVL37:
 407              	.L32:
 408              	.LBB6:
 663:Drivers/lvgl/src/misc/lv_anim.c ****         if(a->act_time > a->duration) over_time = a->act_time - a->duration;
 409              		.loc 1 663 9 view .LVU105
ARM GAS  /tmp/ccoBJvOw.s 			page 23


 664:Drivers/lvgl/src/misc/lv_anim.c ****         a->act_time = over_time - (int32_t)(a->repeat_delay);
 410              		.loc 1 664 9 view .LVU106
 664:Drivers/lvgl/src/misc/lv_anim.c ****         a->act_time = over_time - (int32_t)(a->repeat_delay);
 411              		.loc 1 664 13 is_stmt 0 view .LVU107
 412 004a 626B     		ldr	r2, [r4, #52]
 664:Drivers/lvgl/src/misc/lv_anim.c ****         a->act_time = over_time - (int32_t)(a->repeat_delay);
 413              		.loc 1 664 27 view .LVU108
 414 004c 216B     		ldr	r1, [r4, #48]
 664:Drivers/lvgl/src/misc/lv_anim.c ****         a->act_time = over_time - (int32_t)(a->repeat_delay);
 415              		.loc 1 664 11 view .LVU109
 416 004e 8A42     		cmp	r2, r1
 417 0050 19DD     		ble	.L39
 664:Drivers/lvgl/src/misc/lv_anim.c ****         a->act_time = over_time - (int32_t)(a->repeat_delay);
 418              		.loc 1 664 39 is_stmt 1 discriminator 1 view .LVU110
 664:Drivers/lvgl/src/misc/lv_anim.c ****         a->act_time = over_time - (int32_t)(a->repeat_delay);
 419              		.loc 1 664 49 is_stmt 0 discriminator 1 view .LVU111
 420 0052 521A     		subs	r2, r2, r1
 421              	.LVL38:
 422              	.L37:
 665:Drivers/lvgl/src/misc/lv_anim.c ****         /*Swap start and end values in reverse-play mode*/
 423              		.loc 1 665 9 is_stmt 1 view .LVU112
 665:Drivers/lvgl/src/misc/lv_anim.c ****         /*Swap start and end values in reverse-play mode*/
 424              		.loc 1 665 46 is_stmt 0 view .LVU113
 425 0054 206C     		ldr	r0, [r4, #64]
 426              	.LVL39:
 665:Drivers/lvgl/src/misc/lv_anim.c ****         /*Swap start and end values in reverse-play mode*/
 427              		.loc 1 665 33 view .LVU114
 428 0056 121A     		subs	r2, r2, r0
 429              	.LVL40:
 665:Drivers/lvgl/src/misc/lv_anim.c ****         /*Swap start and end values in reverse-play mode*/
 430              		.loc 1 665 21 view .LVU115
 431 0058 6263     		str	r2, [r4, #52]
 667:Drivers/lvgl/src/misc/lv_anim.c ****             /*If now now playing in reverse, use the 'reverse_delay'.*/
 432              		.loc 1 667 9 is_stmt 1 view .LVU116
 667:Drivers/lvgl/src/misc/lv_anim.c ****             /*If now now playing in reverse, use the 'reverse_delay'.*/
 433              		.loc 1 667 13 is_stmt 0 view .LVU117
 434 005a E26B     		ldr	r2, [r4, #60]
 667:Drivers/lvgl/src/misc/lv_anim.c ****             /*If now now playing in reverse, use the 'reverse_delay'.*/
 435              		.loc 1 667 11 view .LVU118
 436 005c 92B1     		cbz	r2, .L30
 437              	.LBB7:
 669:Drivers/lvgl/src/misc/lv_anim.c **** 
 438              		.loc 1 669 13 is_stmt 1 view .LVU119
 669:Drivers/lvgl/src/misc/lv_anim.c **** 
 439              		.loc 1 669 15 is_stmt 0 view .LVU120
 440 005e 13B9     		cbnz	r3, .L38
 669:Drivers/lvgl/src/misc/lv_anim.c **** 
 441              		.loc 1 669 50 is_stmt 1 discriminator 1 view .LVU121
 669:Drivers/lvgl/src/misc/lv_anim.c **** 
 442              		.loc 1 669 76 is_stmt 0 discriminator 1 view .LVU122
 443 0060 A06B     		ldr	r0, [r4, #56]
 669:Drivers/lvgl/src/misc/lv_anim.c **** 
 444              		.loc 1 669 64 discriminator 1 view .LVU123
 445 0062 4042     		rsbs	r0, r0, #0
 669:Drivers/lvgl/src/misc/lv_anim.c **** 
 446              		.loc 1 669 62 discriminator 1 view .LVU124
 447 0064 6063     		str	r0, [r4, #52]
ARM GAS  /tmp/ccoBJvOw.s 			page 24


 448              	.L38:
 672:Drivers/lvgl/src/misc/lv_anim.c ****             /*Swap the start and end values*/
 449              		.loc 1 672 13 is_stmt 1 view .LVU125
 672:Drivers/lvgl/src/misc/lv_anim.c ****             /*Swap the start and end values*/
 450              		.loc 1 672 80 is_stmt 0 view .LVU126
 451 0066 B3FA83F3 		clz	r3, r3
 452 006a 5B09     		lsrs	r3, r3, #5
 672:Drivers/lvgl/src/misc/lv_anim.c ****             /*Swap the start and end values*/
 453              		.loc 1 672 41 view .LVU127
 454 006c 94F85C00 		ldrb	r0, [r4, #92]	@ zero_extendqisi2
 455 0070 63F34100 		bfi	r0, r3, #1, #1
 456 0074 84F85C00 		strb	r0, [r4, #92]
 674:Drivers/lvgl/src/misc/lv_anim.c ****             a->start_value = a->end_value;
 457              		.loc 1 674 13 is_stmt 1 view .LVU128
 674:Drivers/lvgl/src/misc/lv_anim.c ****             a->start_value = a->end_value;
 458              		.loc 1 674 21 is_stmt 0 view .LVU129
 459 0078 636A     		ldr	r3, [r4, #36]
 460              	.LVL41:
 675:Drivers/lvgl/src/misc/lv_anim.c ****             a->end_value   = tmp;
 461              		.loc 1 675 13 is_stmt 1 view .LVU130
 675:Drivers/lvgl/src/misc/lv_anim.c ****             a->end_value   = tmp;
 462              		.loc 1 675 31 is_stmt 0 view .LVU131
 463 007a E06A     		ldr	r0, [r4, #44]
 675:Drivers/lvgl/src/misc/lv_anim.c ****             a->end_value   = tmp;
 464              		.loc 1 675 28 view .LVU132
 465 007c 6062     		str	r0, [r4, #36]
 676:Drivers/lvgl/src/misc/lv_anim.c ****             /*Swap the time and reverse_duration*/
 466              		.loc 1 676 13 is_stmt 1 view .LVU133
 676:Drivers/lvgl/src/misc/lv_anim.c ****             /*Swap the time and reverse_duration*/
 467              		.loc 1 676 28 is_stmt 0 view .LVU134
 468 007e E362     		str	r3, [r4, #44]
 678:Drivers/lvgl/src/misc/lv_anim.c ****             a->duration = a->reverse_duration;
 469              		.loc 1 678 13 is_stmt 1 view .LVU135
 470              	.LVL42:
 679:Drivers/lvgl/src/misc/lv_anim.c ****             a->reverse_duration = tmp;
 471              		.loc 1 679 13 view .LVU136
 679:Drivers/lvgl/src/misc/lv_anim.c ****             a->reverse_duration = tmp;
 472              		.loc 1 679 25 is_stmt 0 view .LVU137
 473 0080 2263     		str	r2, [r4, #48]
 680:Drivers/lvgl/src/misc/lv_anim.c ****         }
 474              		.loc 1 680 13 is_stmt 1 view .LVU138
 680:Drivers/lvgl/src/misc/lv_anim.c ****         }
 475              		.loc 1 680 33 is_stmt 0 view .LVU139
 476 0082 E163     		str	r1, [r4, #60]
 477              	.LVL43:
 478              	.L30:
 680:Drivers/lvgl/src/misc/lv_anim.c ****         }
 479              		.loc 1 680 33 view .LVU140
 480              	.LBE7:
 481              	.LBE6:
 683:Drivers/lvgl/src/misc/lv_anim.c **** 
 482              		.loc 1 683 1 view .LVU141
 483 0084 10BD     		pop	{r4, pc}
 484              	.LVL44:
 485              	.L39:
 486              	.LBB8:
 663:Drivers/lvgl/src/misc/lv_anim.c ****         if(a->act_time > a->duration) over_time = a->act_time - a->duration;
ARM GAS  /tmp/ccoBJvOw.s 			page 25


 487              		.loc 1 663 17 view .LVU142
 488 0086 0022     		movs	r2, #0
 489 0088 E4E7     		b	.L37
 490              	.L42:
 491 008a 00BF     		.align	2
 492              	.L41:
 493 008c AC000000 		.word	lv_global+172
 494              	.LBE8:
 495              		.cfi_endproc
 496              	.LFE239:
 498              		.section	.text.lv_anim_path_linear,"ax",%progbits
 499              		.align	1
 500              		.global	lv_anim_path_linear
 501              		.syntax unified
 502              		.thumb
 503              		.thumb_func
 505              	lv_anim_path_linear:
 506              	.LVL45:
 507              	.LFB200:
 258:Drivers/lvgl/src/misc/lv_anim.c ****     /*Calculate the current step*/
 508              		.loc 1 258 1 is_stmt 1 view -0
 509              		.cfi_startproc
 510              		@ args = 0, pretend = 0, frame = 0
 511              		@ frame_needed = 0, uses_anonymous_args = 0
 258:Drivers/lvgl/src/misc/lv_anim.c ****     /*Calculate the current step*/
 512              		.loc 1 258 1 is_stmt 0 view .LVU144
 513 0000 10B5     		push	{r4, lr}
 514              	.LCFI5:
 515              		.cfi_def_cfa_offset 8
 516              		.cfi_offset 4, -8
 517              		.cfi_offset 14, -4
 518 0002 82B0     		sub	sp, sp, #8
 519              	.LCFI6:
 520              		.cfi_def_cfa_offset 16
 521 0004 0446     		mov	r4, r0
 260:Drivers/lvgl/src/misc/lv_anim.c **** 
 522              		.loc 1 260 5 is_stmt 1 view .LVU145
 260:Drivers/lvgl/src/misc/lv_anim.c **** 
 523              		.loc 1 260 20 is_stmt 0 view .LVU146
 524 0006 4FF48063 		mov	r3, #1024
 525 000a 0093     		str	r3, [sp]
 526 000c 0023     		movs	r3, #0
 527 000e 026B     		ldr	r2, [r0, #48]
 528 0010 1946     		mov	r1, r3
 529 0012 406B     		ldr	r0, [r0, #52]
 530              	.LVL46:
 260:Drivers/lvgl/src/misc/lv_anim.c **** 
 531              		.loc 1 260 20 view .LVU147
 532 0014 FFF7FEFF 		bl	lv_map
 533              	.LVL47:
 264:Drivers/lvgl/src/misc/lv_anim.c ****     new_value = step * (a->end_value - a->start_value);
 534              		.loc 1 264 5 is_stmt 1 view .LVU148
 265:Drivers/lvgl/src/misc/lv_anim.c ****     new_value = new_value >> LV_ANIM_RES_SHIFT;
 535              		.loc 1 265 5 view .LVU149
 265:Drivers/lvgl/src/misc/lv_anim.c ****     new_value = new_value >> LV_ANIM_RES_SHIFT;
 536              		.loc 1 265 26 is_stmt 0 view .LVU150
 537 0018 E36A     		ldr	r3, [r4, #44]
ARM GAS  /tmp/ccoBJvOw.s 			page 26


 265:Drivers/lvgl/src/misc/lv_anim.c ****     new_value = new_value >> LV_ANIM_RES_SHIFT;
 538              		.loc 1 265 41 view .LVU151
 539 001a 626A     		ldr	r2, [r4, #36]
 265:Drivers/lvgl/src/misc/lv_anim.c ****     new_value = new_value >> LV_ANIM_RES_SHIFT;
 540              		.loc 1 265 38 view .LVU152
 541 001c 9B1A     		subs	r3, r3, r2
 265:Drivers/lvgl/src/misc/lv_anim.c ****     new_value = new_value >> LV_ANIM_RES_SHIFT;
 542              		.loc 1 265 15 view .LVU153
 543 001e 03FB00F0 		mul	r0, r3, r0
 544              	.LVL48:
 266:Drivers/lvgl/src/misc/lv_anim.c ****     new_value += a->start_value;
 545              		.loc 1 266 5 is_stmt 1 view .LVU154
 267:Drivers/lvgl/src/misc/lv_anim.c **** 
 546              		.loc 1 267 5 view .LVU155
 269:Drivers/lvgl/src/misc/lv_anim.c **** }
 547              		.loc 1 269 5 view .LVU156
 270:Drivers/lvgl/src/misc/lv_anim.c **** 
 548              		.loc 1 270 1 is_stmt 0 view .LVU157
 549 0022 02EBA020 		add	r0, r2, r0, asr #10
 550              	.LVL49:
 270:Drivers/lvgl/src/misc/lv_anim.c **** 
 551              		.loc 1 270 1 view .LVU158
 552 0026 02B0     		add	sp, sp, #8
 553              	.LCFI7:
 554              		.cfi_def_cfa_offset 8
 555              		@ sp needed
 556 0028 10BD     		pop	{r4, pc}
 270:Drivers/lvgl/src/misc/lv_anim.c **** 
 557              		.loc 1 270 1 view .LVU159
 558              		.cfi_endproc
 559              	.LFE200:
 561              		.section	.text.lv_anim_path_cubic_bezier,"ax",%progbits
 562              		.align	1
 563              		.syntax unified
 564              		.thumb
 565              		.thumb_func
 567              	lv_anim_path_cubic_bezier:
 568              	.LVL50:
 569              	.LFB241:
 695:Drivers/lvgl/src/misc/lv_anim.c ****     /*Calculate the current step*/
 570              		.loc 1 695 1 is_stmt 1 view -0
 571              		.cfi_startproc
 572              		@ args = 4, pretend = 0, frame = 0
 573              		@ frame_needed = 0, uses_anonymous_args = 0
 695:Drivers/lvgl/src/misc/lv_anim.c ****     /*Calculate the current step*/
 574              		.loc 1 695 1 is_stmt 0 view .LVU161
 575 0000 F0B5     		push	{r4, r5, r6, r7, lr}
 576              	.LCFI8:
 577              		.cfi_def_cfa_offset 20
 578              		.cfi_offset 4, -20
 579              		.cfi_offset 5, -16
 580              		.cfi_offset 6, -12
 581              		.cfi_offset 7, -8
 582              		.cfi_offset 14, -4
 583 0002 83B0     		sub	sp, sp, #12
 584              	.LCFI9:
 585              		.cfi_def_cfa_offset 32
ARM GAS  /tmp/ccoBJvOw.s 			page 27


 586 0004 0446     		mov	r4, r0
 587 0006 0D46     		mov	r5, r1
 588 0008 1646     		mov	r6, r2
 589 000a 1F46     		mov	r7, r3
 697:Drivers/lvgl/src/misc/lv_anim.c ****     int32_t step = lv_cubic_bezier(t, x1, y1, x2, y2);
 590              		.loc 1 697 5 is_stmt 1 view .LVU162
 697:Drivers/lvgl/src/misc/lv_anim.c ****     int32_t step = lv_cubic_bezier(t, x1, y1, x2, y2);
 591              		.loc 1 697 18 is_stmt 0 view .LVU163
 592 000c 4FF48063 		mov	r3, #1024
 593              	.LVL51:
 697:Drivers/lvgl/src/misc/lv_anim.c ****     int32_t step = lv_cubic_bezier(t, x1, y1, x2, y2);
 594              		.loc 1 697 18 view .LVU164
 595 0010 0093     		str	r3, [sp]
 596 0012 0023     		movs	r3, #0
 597 0014 026B     		ldr	r2, [r0, #48]
 598              	.LVL52:
 697:Drivers/lvgl/src/misc/lv_anim.c ****     int32_t step = lv_cubic_bezier(t, x1, y1, x2, y2);
 599              		.loc 1 697 18 view .LVU165
 600 0016 1946     		mov	r1, r3
 601              	.LVL53:
 697:Drivers/lvgl/src/misc/lv_anim.c ****     int32_t step = lv_cubic_bezier(t, x1, y1, x2, y2);
 602              		.loc 1 697 18 view .LVU166
 603 0018 406B     		ldr	r0, [r0, #52]
 604              	.LVL54:
 697:Drivers/lvgl/src/misc/lv_anim.c ****     int32_t step = lv_cubic_bezier(t, x1, y1, x2, y2);
 605              		.loc 1 697 18 view .LVU167
 606 001a FFF7FEFF 		bl	lv_map
 607              	.LVL55:
 698:Drivers/lvgl/src/misc/lv_anim.c **** 
 608              		.loc 1 698 5 is_stmt 1 view .LVU168
 698:Drivers/lvgl/src/misc/lv_anim.c **** 
 609              		.loc 1 698 20 is_stmt 0 view .LVU169
 610 001e 089B     		ldr	r3, [sp, #32]
 611 0020 0093     		str	r3, [sp]
 612 0022 3B46     		mov	r3, r7
 613 0024 3246     		mov	r2, r6
 614 0026 2946     		mov	r1, r5
 615 0028 FFF7FEFF 		bl	lv_cubic_bezier
 616              	.LVL56:
 700:Drivers/lvgl/src/misc/lv_anim.c ****     new_value = step * (a->end_value - a->start_value);
 617              		.loc 1 700 5 is_stmt 1 view .LVU170
 701:Drivers/lvgl/src/misc/lv_anim.c ****     new_value = new_value >> LV_BEZIER_VAL_SHIFT;
 618              		.loc 1 701 5 view .LVU171
 701:Drivers/lvgl/src/misc/lv_anim.c ****     new_value = new_value >> LV_BEZIER_VAL_SHIFT;
 619              		.loc 1 701 26 is_stmt 0 view .LVU172
 620 002c E36A     		ldr	r3, [r4, #44]
 701:Drivers/lvgl/src/misc/lv_anim.c ****     new_value = new_value >> LV_BEZIER_VAL_SHIFT;
 621              		.loc 1 701 41 view .LVU173
 622 002e 626A     		ldr	r2, [r4, #36]
 701:Drivers/lvgl/src/misc/lv_anim.c ****     new_value = new_value >> LV_BEZIER_VAL_SHIFT;
 623              		.loc 1 701 38 view .LVU174
 624 0030 9B1A     		subs	r3, r3, r2
 701:Drivers/lvgl/src/misc/lv_anim.c ****     new_value = new_value >> LV_BEZIER_VAL_SHIFT;
 625              		.loc 1 701 15 view .LVU175
 626 0032 03FB00F0 		mul	r0, r3, r0
 627              	.LVL57:
 702:Drivers/lvgl/src/misc/lv_anim.c ****     new_value += a->start_value;
ARM GAS  /tmp/ccoBJvOw.s 			page 28


 628              		.loc 1 702 5 is_stmt 1 view .LVU176
 703:Drivers/lvgl/src/misc/lv_anim.c **** 
 629              		.loc 1 703 5 view .LVU177
 705:Drivers/lvgl/src/misc/lv_anim.c **** }
 630              		.loc 1 705 5 view .LVU178
 706:Drivers/lvgl/src/misc/lv_anim.c **** 
 631              		.loc 1 706 1 is_stmt 0 view .LVU179
 632 0036 02EBA020 		add	r0, r2, r0, asr #10
 633              	.LVL58:
 706:Drivers/lvgl/src/misc/lv_anim.c **** 
 634              		.loc 1 706 1 view .LVU180
 635 003a 03B0     		add	sp, sp, #12
 636              	.LCFI10:
 637              		.cfi_def_cfa_offset 20
 638              		@ sp needed
 639 003c F0BD     		pop	{r4, r5, r6, r7, pc}
 706:Drivers/lvgl/src/misc/lv_anim.c **** 
 640              		.loc 1 706 1 view .LVU181
 641              		.cfi_endproc
 642              	.LFE241:
 644              		.section	.text.lv_anim_core_init,"ax",%progbits
 645              		.align	1
 646              		.global	lv_anim_core_init
 647              		.syntax unified
 648              		.thumb
 649              		.thumb_func
 651              	lv_anim_core_init:
 652              	.LFB186:
  70:Drivers/lvgl/src/misc/lv_anim.c ****     lv_ll_init(anim_ll_p, sizeof(lv_anim_t));
 653              		.loc 1 70 1 is_stmt 1 view -0
 654              		.cfi_startproc
 655              		@ args = 0, pretend = 0, frame = 0
 656              		@ frame_needed = 0, uses_anonymous_args = 0
 657 0000 10B5     		push	{r4, lr}
 658              	.LCFI11:
 659              		.cfi_def_cfa_offset 8
 660              		.cfi_offset 4, -8
 661              		.cfi_offset 14, -4
  71:Drivers/lvgl/src/misc/lv_anim.c ****     state.timer = lv_timer_create(anim_timer, LV_DEF_REFR_PERIOD, NULL);
 662              		.loc 1 71 5 view .LVU183
 663 0002 0A4C     		ldr	r4, .L49
 664 0004 6021     		movs	r1, #96
 665 0006 2046     		mov	r0, r4
 666 0008 FFF7FEFF 		bl	lv_ll_init
 667              	.LVL59:
  72:Drivers/lvgl/src/misc/lv_anim.c ****     anim_mark_list_change(); /*Turn off the animation timer*/
 668              		.loc 1 72 5 view .LVU184
  72:Drivers/lvgl/src/misc/lv_anim.c ****     anim_mark_list_change(); /*Turn off the animation timer*/
 669              		.loc 1 72 19 is_stmt 0 view .LVU185
 670 000c 0022     		movs	r2, #0
 671 000e 2121     		movs	r1, #33
 672 0010 0748     		ldr	r0, .L49+4
 673 0012 FFF7FEFF 		bl	lv_timer_create
 674              	.LVL60:
  72:Drivers/lvgl/src/misc/lv_anim.c ****     anim_mark_list_change(); /*Turn off the animation timer*/
 675              		.loc 1 72 17 discriminator 1 view .LVU186
 676 0016 44F8040C 		str	r0, [r4, #-4]
ARM GAS  /tmp/ccoBJvOw.s 			page 29


  73:Drivers/lvgl/src/misc/lv_anim.c ****     state.anim_list_changed = false;
 677              		.loc 1 73 5 is_stmt 1 view .LVU187
 678 001a FFF7FEFF 		bl	anim_mark_list_change
 679              	.LVL61:
  74:Drivers/lvgl/src/misc/lv_anim.c ****     state.anim_run_round = false;
 680              		.loc 1 74 5 view .LVU188
  74:Drivers/lvgl/src/misc/lv_anim.c ****     state.anim_run_round = false;
 681              		.loc 1 74 29 is_stmt 0 view .LVU189
 682 001e 0023     		movs	r3, #0
 683 0020 04F8083C 		strb	r3, [r4, #-8]
  75:Drivers/lvgl/src/misc/lv_anim.c **** }
 684              		.loc 1 75 5 is_stmt 1 view .LVU190
  75:Drivers/lvgl/src/misc/lv_anim.c **** }
 685              		.loc 1 75 26 is_stmt 0 view .LVU191
 686 0024 04F8073C 		strb	r3, [r4, #-7]
  76:Drivers/lvgl/src/misc/lv_anim.c **** 
 687              		.loc 1 76 1 view .LVU192
 688 0028 10BD     		pop	{r4, pc}
 689              	.L50:
 690 002a 00BF     		.align	2
 691              	.L49:
 692 002c AC000000 		.word	lv_global+172
 693 0030 00000000 		.word	anim_timer
 694              		.cfi_endproc
 695              	.LFE186:
 697              		.section	.text.lv_anim_init,"ax",%progbits
 698              		.align	1
 699              		.global	lv_anim_init
 700              		.syntax unified
 701              		.thumb
 702              		.thumb_func
 704              	lv_anim_init:
 705              	.LVL62:
 706              	.LFB188:
  84:Drivers/lvgl/src/misc/lv_anim.c ****     lv_memzero(a, sizeof(lv_anim_t));
 707              		.loc 1 84 1 is_stmt 1 view -0
 708              		.cfi_startproc
 709              		@ args = 0, pretend = 0, frame = 0
 710              		@ frame_needed = 0, uses_anonymous_args = 0
  84:Drivers/lvgl/src/misc/lv_anim.c ****     lv_memzero(a, sizeof(lv_anim_t));
 711              		.loc 1 84 1 is_stmt 0 view .LVU194
 712 0000 10B5     		push	{r4, lr}
 713              	.LCFI12:
 714              		.cfi_def_cfa_offset 8
 715              		.cfi_offset 4, -8
 716              		.cfi_offset 14, -4
 717 0002 0446     		mov	r4, r0
  85:Drivers/lvgl/src/misc/lv_anim.c ****     a->duration = 500;
 718              		.loc 1 85 5 is_stmt 1 view .LVU195
 719              	.LVL63:
 720              	.LBB9:
 721              	.LBI9:
 722              		.file 2 "Drivers/lvgl/src/misc/../core/../draw/../misc/../font/../draw/../misc/../stdlib/lv_string
   1:Drivers/lvgl/src/misc/../core/../draw/../misc/../font/../draw/../misc/../stdlib/lv_string.h **** /**
   2:Drivers/lvgl/src/misc/../core/../draw/../misc/../font/../draw/../misc/../stdlib/lv_string.h ****  * @file lv_string.h
   3:Drivers/lvgl/src/misc/../core/../draw/../misc/../font/../draw/../misc/../stdlib/lv_string.h ****  *
   4:Drivers/lvgl/src/misc/../core/../draw/../misc/../font/../draw/../misc/../stdlib/lv_string.h ****  */
ARM GAS  /tmp/ccoBJvOw.s 			page 30


   5:Drivers/lvgl/src/misc/../core/../draw/../misc/../font/../draw/../misc/../stdlib/lv_string.h **** 
   6:Drivers/lvgl/src/misc/../core/../draw/../misc/../font/../draw/../misc/../stdlib/lv_string.h **** #ifndef LV_STRING_H
   7:Drivers/lvgl/src/misc/../core/../draw/../misc/../font/../draw/../misc/../stdlib/lv_string.h **** #define LV_STRING_H
   8:Drivers/lvgl/src/misc/../core/../draw/../misc/../font/../draw/../misc/../stdlib/lv_string.h **** 
   9:Drivers/lvgl/src/misc/../core/../draw/../misc/../font/../draw/../misc/../stdlib/lv_string.h **** #ifdef __cplusplus
  10:Drivers/lvgl/src/misc/../core/../draw/../misc/../font/../draw/../misc/../stdlib/lv_string.h **** extern "C" {
  11:Drivers/lvgl/src/misc/../core/../draw/../misc/../font/../draw/../misc/../stdlib/lv_string.h **** #endif
  12:Drivers/lvgl/src/misc/../core/../draw/../misc/../font/../draw/../misc/../stdlib/lv_string.h **** 
  13:Drivers/lvgl/src/misc/../core/../draw/../misc/../font/../draw/../misc/../stdlib/lv_string.h **** /*********************
  14:Drivers/lvgl/src/misc/../core/../draw/../misc/../font/../draw/../misc/../stdlib/lv_string.h ****  *      INCLUDES
  15:Drivers/lvgl/src/misc/../core/../draw/../misc/../font/../draw/../misc/../stdlib/lv_string.h ****  *********************/
  16:Drivers/lvgl/src/misc/../core/../draw/../misc/../font/../draw/../misc/../stdlib/lv_string.h **** #include "../lv_conf_internal.h"
  17:Drivers/lvgl/src/misc/../core/../draw/../misc/../font/../draw/../misc/../stdlib/lv_string.h **** #include "../misc/lv_types.h"
  18:Drivers/lvgl/src/misc/../core/../draw/../misc/../font/../draw/../misc/../stdlib/lv_string.h **** 
  19:Drivers/lvgl/src/misc/../core/../draw/../misc/../font/../draw/../misc/../stdlib/lv_string.h **** /*********************
  20:Drivers/lvgl/src/misc/../core/../draw/../misc/../font/../draw/../misc/../stdlib/lv_string.h ****  *      DEFINES
  21:Drivers/lvgl/src/misc/../core/../draw/../misc/../font/../draw/../misc/../stdlib/lv_string.h ****  *********************/
  22:Drivers/lvgl/src/misc/../core/../draw/../misc/../font/../draw/../misc/../stdlib/lv_string.h **** 
  23:Drivers/lvgl/src/misc/../core/../draw/../misc/../font/../draw/../misc/../stdlib/lv_string.h **** /**********************
  24:Drivers/lvgl/src/misc/../core/../draw/../misc/../font/../draw/../misc/../stdlib/lv_string.h ****  *      TYPEDEFS
  25:Drivers/lvgl/src/misc/../core/../draw/../misc/../font/../draw/../misc/../stdlib/lv_string.h ****  **********************/
  26:Drivers/lvgl/src/misc/../core/../draw/../misc/../font/../draw/../misc/../stdlib/lv_string.h **** 
  27:Drivers/lvgl/src/misc/../core/../draw/../misc/../font/../draw/../misc/../stdlib/lv_string.h **** /**********************
  28:Drivers/lvgl/src/misc/../core/../draw/../misc/../font/../draw/../misc/../stdlib/lv_string.h ****  * GLOBAL PROTOTYPES
  29:Drivers/lvgl/src/misc/../core/../draw/../misc/../font/../draw/../misc/../stdlib/lv_string.h ****  **********************/
  30:Drivers/lvgl/src/misc/../core/../draw/../misc/../font/../draw/../misc/../stdlib/lv_string.h **** 
  31:Drivers/lvgl/src/misc/../core/../draw/../misc/../font/../draw/../misc/../stdlib/lv_string.h **** /**
  32:Drivers/lvgl/src/misc/../core/../draw/../misc/../font/../draw/../misc/../stdlib/lv_string.h ****  * @brief Copies a block of memory from a source address to a destination address.
  33:Drivers/lvgl/src/misc/../core/../draw/../misc/../font/../draw/../misc/../stdlib/lv_string.h ****  * @param dst Pointer to the destination array where the content is to be copied.
  34:Drivers/lvgl/src/misc/../core/../draw/../misc/../font/../draw/../misc/../stdlib/lv_string.h ****  * @param src Pointer to the source of data to be copied.
  35:Drivers/lvgl/src/misc/../core/../draw/../misc/../font/../draw/../misc/../stdlib/lv_string.h ****  * @param len Number of bytes to copy.
  36:Drivers/lvgl/src/misc/../core/../draw/../misc/../font/../draw/../misc/../stdlib/lv_string.h ****  * @return Pointer to the destination array.
  37:Drivers/lvgl/src/misc/../core/../draw/../misc/../font/../draw/../misc/../stdlib/lv_string.h ****  * @note The function does not check for any overlapping of the source and destination memory block
  38:Drivers/lvgl/src/misc/../core/../draw/../misc/../font/../draw/../misc/../stdlib/lv_string.h ****  */
  39:Drivers/lvgl/src/misc/../core/../draw/../misc/../font/../draw/../misc/../stdlib/lv_string.h **** void * lv_memcpy(void * dst, const void * src, size_t len);
  40:Drivers/lvgl/src/misc/../core/../draw/../misc/../font/../draw/../misc/../stdlib/lv_string.h **** 
  41:Drivers/lvgl/src/misc/../core/../draw/../misc/../font/../draw/../misc/../stdlib/lv_string.h **** /**
  42:Drivers/lvgl/src/misc/../core/../draw/../misc/../font/../draw/../misc/../stdlib/lv_string.h ****  * @brief Fills a block of memory with a specified value.
  43:Drivers/lvgl/src/misc/../core/../draw/../misc/../font/../draw/../misc/../stdlib/lv_string.h ****  * @param dst Pointer to the destination array to fill with the specified value.
  44:Drivers/lvgl/src/misc/../core/../draw/../misc/../font/../draw/../misc/../stdlib/lv_string.h ****  * @param v Value to be set. The value is passed as an int, but the function fills
  45:Drivers/lvgl/src/misc/../core/../draw/../misc/../font/../draw/../misc/../stdlib/lv_string.h ****  *          the block of memory using the unsigned char conversion of this value.
  46:Drivers/lvgl/src/misc/../core/../draw/../misc/../font/../draw/../misc/../stdlib/lv_string.h ****  * @param len Number of bytes to be set to the value.
  47:Drivers/lvgl/src/misc/../core/../draw/../misc/../font/../draw/../misc/../stdlib/lv_string.h ****  */
  48:Drivers/lvgl/src/misc/../core/../draw/../misc/../font/../draw/../misc/../stdlib/lv_string.h **** void lv_memset(void * dst, uint8_t v, size_t len);
  49:Drivers/lvgl/src/misc/../core/../draw/../misc/../font/../draw/../misc/../stdlib/lv_string.h **** 
  50:Drivers/lvgl/src/misc/../core/../draw/../misc/../font/../draw/../misc/../stdlib/lv_string.h **** /**
  51:Drivers/lvgl/src/misc/../core/../draw/../misc/../font/../draw/../misc/../stdlib/lv_string.h ****  * @brief Move a block of memory from source to destination
  52:Drivers/lvgl/src/misc/../core/../draw/../misc/../font/../draw/../misc/../stdlib/lv_string.h ****  * @param dst Pointer to the destination array where the content is to be copied.
  53:Drivers/lvgl/src/misc/../core/../draw/../misc/../font/../draw/../misc/../stdlib/lv_string.h ****  * @param src Pointer to the source of data to be copied.
  54:Drivers/lvgl/src/misc/../core/../draw/../misc/../font/../draw/../misc/../stdlib/lv_string.h ****  * @param len Number of bytes to copy
  55:Drivers/lvgl/src/misc/../core/../draw/../misc/../font/../draw/../misc/../stdlib/lv_string.h ****  * @return Pointer to the destination array.
  56:Drivers/lvgl/src/misc/../core/../draw/../misc/../font/../draw/../misc/../stdlib/lv_string.h ****  */
  57:Drivers/lvgl/src/misc/../core/../draw/../misc/../font/../draw/../misc/../stdlib/lv_string.h **** void * lv_memmove(void * dst, const void * src, size_t len);
  58:Drivers/lvgl/src/misc/../core/../draw/../misc/../font/../draw/../misc/../stdlib/lv_string.h **** 
  59:Drivers/lvgl/src/misc/../core/../draw/../misc/../font/../draw/../misc/../stdlib/lv_string.h **** /**
  60:Drivers/lvgl/src/misc/../core/../draw/../misc/../font/../draw/../misc/../stdlib/lv_string.h ****  * @brief This function will compare two memory blocks
  61:Drivers/lvgl/src/misc/../core/../draw/../misc/../font/../draw/../misc/../stdlib/lv_string.h ****  * @param p1 Pointer to the first memory block
ARM GAS  /tmp/ccoBJvOw.s 			page 31


  62:Drivers/lvgl/src/misc/../core/../draw/../misc/../font/../draw/../misc/../stdlib/lv_string.h ****  * @param p2 Pointer to the second memory block
  63:Drivers/lvgl/src/misc/../core/../draw/../misc/../font/../draw/../misc/../stdlib/lv_string.h ****  * @param len Number of bytes to compare
  64:Drivers/lvgl/src/misc/../core/../draw/../misc/../font/../draw/../misc/../stdlib/lv_string.h ****  * @return The difference between the value of the first unmatching byte.
  65:Drivers/lvgl/src/misc/../core/../draw/../misc/../font/../draw/../misc/../stdlib/lv_string.h ****  */
  66:Drivers/lvgl/src/misc/../core/../draw/../misc/../font/../draw/../misc/../stdlib/lv_string.h **** int lv_memcmp(const void * p1, const void * p2, size_t len);
  67:Drivers/lvgl/src/misc/../core/../draw/../misc/../font/../draw/../misc/../stdlib/lv_string.h **** 
  68:Drivers/lvgl/src/misc/../core/../draw/../misc/../font/../draw/../misc/../stdlib/lv_string.h **** /**
  69:Drivers/lvgl/src/misc/../core/../draw/../misc/../font/../draw/../misc/../stdlib/lv_string.h ****  * Same as `memset(dst, 0x00, len)`.
  70:Drivers/lvgl/src/misc/../core/../draw/../misc/../font/../draw/../misc/../stdlib/lv_string.h ****  * @param dst pointer to the destination buffer
  71:Drivers/lvgl/src/misc/../core/../draw/../misc/../font/../draw/../misc/../stdlib/lv_string.h ****  * @param len number of byte to set
  72:Drivers/lvgl/src/misc/../core/../draw/../misc/../font/../draw/../misc/../stdlib/lv_string.h ****  */
  73:Drivers/lvgl/src/misc/../core/../draw/../misc/../font/../draw/../misc/../stdlib/lv_string.h **** static inline void lv_memzero(void * dst, size_t len)
 723              		.loc 2 73 20 view .LVU196
 724              	.LBB10:
  74:Drivers/lvgl/src/misc/../core/../draw/../misc/../font/../draw/../misc/../stdlib/lv_string.h **** {
  75:Drivers/lvgl/src/misc/../core/../draw/../misc/../font/../draw/../misc/../stdlib/lv_string.h ****     lv_memset(dst, 0x00, len);
 725              		.loc 2 75 5 view .LVU197
 726 0004 6022     		movs	r2, #96
 727 0006 0021     		movs	r1, #0
 728 0008 FFF7FEFF 		bl	lv_memset
 729              	.LVL64:
 730              		.loc 2 75 5 is_stmt 0 view .LVU198
 731              	.LBE10:
 732              	.LBE9:
  86:Drivers/lvgl/src/misc/lv_anim.c ****     a->start_value = 0;
 733              		.loc 1 86 5 is_stmt 1 view .LVU199
  86:Drivers/lvgl/src/misc/lv_anim.c ****     a->start_value = 0;
 734              		.loc 1 86 17 is_stmt 0 view .LVU200
 735 000c 4FF4FA73 		mov	r3, #500
 736 0010 2363     		str	r3, [r4, #48]
  87:Drivers/lvgl/src/misc/lv_anim.c ****     a->end_value = 100;
 737              		.loc 1 87 5 is_stmt 1 view .LVU201
  87:Drivers/lvgl/src/misc/lv_anim.c ****     a->end_value = 100;
 738              		.loc 1 87 20 is_stmt 0 view .LVU202
 739 0012 0023     		movs	r3, #0
 740 0014 6362     		str	r3, [r4, #36]
  88:Drivers/lvgl/src/misc/lv_anim.c ****     a->repeat_cnt = 1;
 741              		.loc 1 88 5 is_stmt 1 view .LVU203
  88:Drivers/lvgl/src/misc/lv_anim.c ****     a->repeat_cnt = 1;
 742              		.loc 1 88 18 is_stmt 0 view .LVU204
 743 0016 6423     		movs	r3, #100
 744 0018 E362     		str	r3, [r4, #44]
  89:Drivers/lvgl/src/misc/lv_anim.c ****     a->path_cb = lv_anim_path_linear;
 745              		.loc 1 89 5 is_stmt 1 view .LVU205
  89:Drivers/lvgl/src/misc/lv_anim.c ****     a->path_cb = lv_anim_path_linear;
 746              		.loc 1 89 19 is_stmt 0 view .LVU206
 747 001a 0123     		movs	r3, #1
 748 001c 6364     		str	r3, [r4, #68]
  90:Drivers/lvgl/src/misc/lv_anim.c ****     a->early_apply = 1;
 749              		.loc 1 90 5 is_stmt 1 view .LVU207
  90:Drivers/lvgl/src/misc/lv_anim.c ****     a->early_apply = 1;
 750              		.loc 1 90 16 is_stmt 0 view .LVU208
 751 001e 044B     		ldr	r3, .L53
 752 0020 2362     		str	r3, [r4, #32]
  91:Drivers/lvgl/src/misc/lv_anim.c **** }
 753              		.loc 1 91 5 is_stmt 1 view .LVU209
  91:Drivers/lvgl/src/misc/lv_anim.c **** }
ARM GAS  /tmp/ccoBJvOw.s 			page 32


 754              		.loc 1 91 20 is_stmt 0 view .LVU210
 755 0022 94F85C30 		ldrb	r3, [r4, #92]	@ zero_extendqisi2
 756 0026 43F01003 		orr	r3, r3, #16
 757 002a 84F85C30 		strb	r3, [r4, #92]
  92:Drivers/lvgl/src/misc/lv_anim.c **** 
 758              		.loc 1 92 1 view .LVU211
 759 002e 10BD     		pop	{r4, pc}
 760              	.LVL65:
 761              	.L54:
  92:Drivers/lvgl/src/misc/lv_anim.c **** 
 762              		.loc 1 92 1 view .LVU212
 763              		.align	2
 764              	.L53:
 765 0030 00000000 		.word	lv_anim_path_linear
 766              		.cfi_endproc
 767              	.LFE188:
 769              		.section	.text.lv_anim_get_playtime,"ax",%progbits
 770              		.align	1
 771              		.global	lv_anim_get_playtime
 772              		.syntax unified
 773              		.thumb
 774              		.thumb_func
 776              	lv_anim_get_playtime:
 777              	.LVL66:
 778              	.LFB190:
 144:Drivers/lvgl/src/misc/lv_anim.c ****     if(a->repeat_cnt == LV_ANIM_REPEAT_INFINITE) {
 779              		.loc 1 144 1 is_stmt 1 view -0
 780              		.cfi_startproc
 781              		@ args = 0, pretend = 0, frame = 0
 782              		@ frame_needed = 0, uses_anonymous_args = 0
 783              		@ link register save eliminated.
 144:Drivers/lvgl/src/misc/lv_anim.c ****     if(a->repeat_cnt == LV_ANIM_REPEAT_INFINITE) {
 784              		.loc 1 144 1 is_stmt 0 view .LVU214
 785 0000 0346     		mov	r3, r0
 145:Drivers/lvgl/src/misc/lv_anim.c ****         return LV_ANIM_PLAYTIME_INFINITE;
 786              		.loc 1 145 5 is_stmt 1 view .LVU215
 145:Drivers/lvgl/src/misc/lv_anim.c ****         return LV_ANIM_PLAYTIME_INFINITE;
 787              		.loc 1 145 9 is_stmt 0 view .LVU216
 788 0002 406C     		ldr	r0, [r0, #68]
 789              	.LVL67:
 145:Drivers/lvgl/src/misc/lv_anim.c ****         return LV_ANIM_PLAYTIME_INFINITE;
 790              		.loc 1 145 7 view .LVU217
 791 0004 B0F1FF3F 		cmp	r0, #-1
 792 0008 0AD0     		beq	.L55
 149:Drivers/lvgl/src/misc/lv_anim.c ****     if(repeat_cnt < 1) repeat_cnt = 1;
 793              		.loc 1 149 5 is_stmt 1 view .LVU218
 794              	.LVL68:
 150:Drivers/lvgl/src/misc/lv_anim.c **** 
 795              		.loc 1 150 5 view .LVU219
 150:Drivers/lvgl/src/misc/lv_anim.c **** 
 796              		.loc 1 150 7 is_stmt 0 view .LVU220
 797 000a 00B9     		cbnz	r0, .L57
 150:Drivers/lvgl/src/misc/lv_anim.c **** 
 798              		.loc 1 150 35 discriminator 1 view .LVU221
 799 000c 0120     		movs	r0, #1
 800              	.LVL69:
 801              	.L57:
ARM GAS  /tmp/ccoBJvOw.s 			page 33


 152:Drivers/lvgl/src/misc/lv_anim.c ****     playtime = playtime * repeat_cnt;
 802              		.loc 1 152 5 is_stmt 1 view .LVU222
 152:Drivers/lvgl/src/misc/lv_anim.c ****     playtime = playtime * repeat_cnt;
 803              		.loc 1 152 26 is_stmt 0 view .LVU223
 804 000e 1A6C     		ldr	r2, [r3, #64]
 152:Drivers/lvgl/src/misc/lv_anim.c ****     playtime = playtime * repeat_cnt;
 805              		.loc 1 152 44 view .LVU224
 806 0010 196B     		ldr	r1, [r3, #48]
 152:Drivers/lvgl/src/misc/lv_anim.c ****     playtime = playtime * repeat_cnt;
 807              		.loc 1 152 41 view .LVU225
 808 0012 0A44     		add	r2, r2, r1
 152:Drivers/lvgl/src/misc/lv_anim.c ****     playtime = playtime * repeat_cnt;
 809              		.loc 1 152 58 view .LVU226
 810 0014 996B     		ldr	r1, [r3, #56]
 152:Drivers/lvgl/src/misc/lv_anim.c ****     playtime = playtime * repeat_cnt;
 811              		.loc 1 152 55 view .LVU227
 812 0016 0A44     		add	r2, r2, r1
 152:Drivers/lvgl/src/misc/lv_anim.c ****     playtime = playtime * repeat_cnt;
 813              		.loc 1 152 77 view .LVU228
 814 0018 DB6B     		ldr	r3, [r3, #60]
 815              	.LVL70:
 152:Drivers/lvgl/src/misc/lv_anim.c ****     playtime = playtime * repeat_cnt;
 816              		.loc 1 152 14 view .LVU229
 817 001a 1A44     		add	r2, r2, r3
 818              	.LVL71:
 153:Drivers/lvgl/src/misc/lv_anim.c ****     return playtime;
 819              		.loc 1 153 5 is_stmt 1 view .LVU230
 153:Drivers/lvgl/src/misc/lv_anim.c ****     return playtime;
 820              		.loc 1 153 14 is_stmt 0 view .LVU231
 821 001c 02FB00F0 		mul	r0, r2, r0
 822              	.LVL72:
 154:Drivers/lvgl/src/misc/lv_anim.c **** }
 823              		.loc 1 154 5 is_stmt 1 view .LVU232
 824              	.L55:
 155:Drivers/lvgl/src/misc/lv_anim.c **** 
 825              		.loc 1 155 1 is_stmt 0 view .LVU233
 826 0020 7047     		bx	lr
 827              		.cfi_endproc
 828              	.LFE190:
 830              		.section	.text.lv_anim_delete,"ax",%progbits
 831              		.align	1
 832              		.global	lv_anim_delete
 833              		.syntax unified
 834              		.thumb
 835              		.thumb_func
 837              	lv_anim_delete:
 838              	.LVL73:
 839              	.LFB191:
 158:Drivers/lvgl/src/misc/lv_anim.c ****     lv_anim_t * a;
 840              		.loc 1 158 1 is_stmt 1 view -0
 841              		.cfi_startproc
 842              		@ args = 0, pretend = 0, frame = 0
 843              		@ frame_needed = 0, uses_anonymous_args = 0
 158:Drivers/lvgl/src/misc/lv_anim.c ****     lv_anim_t * a;
 844              		.loc 1 158 1 is_stmt 0 view .LVU235
 845 0000 70B5     		push	{r4, r5, r6, lr}
 846              	.LCFI13:
ARM GAS  /tmp/ccoBJvOw.s 			page 34


 847              		.cfi_def_cfa_offset 16
 848              		.cfi_offset 4, -16
 849              		.cfi_offset 5, -12
 850              		.cfi_offset 6, -8
 851              		.cfi_offset 14, -4
 852 0002 0446     		mov	r4, r0
 853 0004 0D46     		mov	r5, r1
 159:Drivers/lvgl/src/misc/lv_anim.c ****     bool del_any = false;
 854              		.loc 1 159 5 is_stmt 1 view .LVU236
 160:Drivers/lvgl/src/misc/lv_anim.c ****     a        = lv_ll_get_head(anim_ll_p);
 855              		.loc 1 160 5 view .LVU237
 856              	.LVL74:
 161:Drivers/lvgl/src/misc/lv_anim.c ****     while(a != NULL) {
 857              		.loc 1 161 5 view .LVU238
 161:Drivers/lvgl/src/misc/lv_anim.c ****     while(a != NULL) {
 858              		.loc 1 161 16 is_stmt 0 view .LVU239
 859 0006 1148     		ldr	r0, .L68
 860              	.LVL75:
 161:Drivers/lvgl/src/misc/lv_anim.c ****     while(a != NULL) {
 861              		.loc 1 161 16 view .LVU240
 862 0008 FFF7FEFF 		bl	lv_ll_get_head
 863              	.LVL76:
 161:Drivers/lvgl/src/misc/lv_anim.c ****     while(a != NULL) {
 864              		.loc 1 161 16 view .LVU241
 865 000c 0146     		mov	r1, r0
 866              	.LVL77:
 162:Drivers/lvgl/src/misc/lv_anim.c ****         bool del = false;
 867              		.loc 1 162 5 is_stmt 1 view .LVU242
 160:Drivers/lvgl/src/misc/lv_anim.c ****     a        = lv_ll_get_head(anim_ll_p);
 868              		.loc 1 160 10 is_stmt 0 view .LVU243
 869 000e 0026     		movs	r6, #0
 162:Drivers/lvgl/src/misc/lv_anim.c ****         bool del = false;
 870              		.loc 1 162 10 view .LVU244
 871 0010 07E0     		b	.L60
 872              	.LVL78:
 873              	.L61:
 874              	.LBB11:
 164:Drivers/lvgl/src/misc/lv_anim.c ****             remove_anim(a);
 875              		.loc 1 164 48 discriminator 3 view .LVU245
 876 0012 4B68     		ldr	r3, [r1, #4]
 164:Drivers/lvgl/src/misc/lv_anim.c ****             remove_anim(a);
 877              		.loc 1 164 43 discriminator 3 view .LVU246
 878 0014 AB42     		cmp	r3, r5
 879 0016 0BD0     		beq	.L63
 164:Drivers/lvgl/src/misc/lv_anim.c ****             remove_anim(a);
 880              		.loc 1 164 69 discriminator 4 view .LVU247
 881 0018 55B1     		cbz	r5, .L63
 882              	.L62:
 883              	.LVL79:
 174:Drivers/lvgl/src/misc/lv_anim.c ****     }
 884              		.loc 1 174 47 discriminator 2 view .LVU248
 885 001a 0C48     		ldr	r0, .L68
 886 001c FFF7FEFF 		bl	lv_ll_get_next
 887              	.LVL80:
 174:Drivers/lvgl/src/misc/lv_anim.c ****     }
 888              		.loc 1 174 47 discriminator 2 view .LVU249
 889 0020 0146     		mov	r1, r0
ARM GAS  /tmp/ccoBJvOw.s 			page 35


 890              	.LVL81:
 891              	.L60:
 174:Drivers/lvgl/src/misc/lv_anim.c ****     }
 892              		.loc 1 174 47 discriminator 2 view .LVU250
 893              	.LBE11:
 162:Drivers/lvgl/src/misc/lv_anim.c ****         bool del = false;
 894              		.loc 1 162 13 is_stmt 1 view .LVU251
 895 0022 81B1     		cbz	r1, .L67
 896              	.LBB12:
 163:Drivers/lvgl/src/misc/lv_anim.c ****         if((a->var == var || var == NULL) && (a->exec_cb == exec_cb || exec_cb == NULL)) {
 897              		.loc 1 163 9 view .LVU252
 898              	.LVL82:
 164:Drivers/lvgl/src/misc/lv_anim.c ****             remove_anim(a);
 899              		.loc 1 164 9 view .LVU253
 164:Drivers/lvgl/src/misc/lv_anim.c ****             remove_anim(a);
 900              		.loc 1 164 14 is_stmt 0 view .LVU254
 901 0024 0B68     		ldr	r3, [r1]
 164:Drivers/lvgl/src/misc/lv_anim.c ****             remove_anim(a);
 902              		.loc 1 164 11 view .LVU255
 903 0026 A342     		cmp	r3, r4
 904 0028 F3D0     		beq	.L61
 164:Drivers/lvgl/src/misc/lv_anim.c ****             remove_anim(a);
 905              		.loc 1 164 27 discriminator 2 view .LVU256
 906 002a 002C     		cmp	r4, #0
 907 002c F5D1     		bne	.L62
 908 002e F0E7     		b	.L61
 909              	.L63:
 165:Drivers/lvgl/src/misc/lv_anim.c ****             anim_mark_list_change(); /*Read by `anim_timer`. It need to know if a delete occurred i
 910              		.loc 1 165 13 is_stmt 1 view .LVU257
 911 0030 0846     		mov	r0, r1
 912 0032 FFF7FEFF 		bl	remove_anim
 913              	.LVL83:
 166:Drivers/lvgl/src/misc/lv_anim.c ****                                        the linked list*/
 914              		.loc 1 166 13 view .LVU258
 915 0036 FFF7FEFF 		bl	anim_mark_list_change
 916              	.LVL84:
 168:Drivers/lvgl/src/misc/lv_anim.c ****             del = true;
 917              		.loc 1 168 13 view .LVU259
 169:Drivers/lvgl/src/misc/lv_anim.c ****         }
 918              		.loc 1 169 13 view .LVU260
 174:Drivers/lvgl/src/misc/lv_anim.c ****     }
 919              		.loc 1 174 9 view .LVU261
 174:Drivers/lvgl/src/misc/lv_anim.c ****     }
 920              		.loc 1 174 19 is_stmt 0 discriminator 1 view .LVU262
 921 003a 0448     		ldr	r0, .L68
 922 003c FFF7FEFF 		bl	lv_ll_get_head
 923              	.LVL85:
 924 0040 0146     		mov	r1, r0
 168:Drivers/lvgl/src/misc/lv_anim.c ****             del = true;
 925              		.loc 1 168 21 view .LVU263
 926 0042 0126     		movs	r6, #1
 927 0044 EDE7     		b	.L60
 928              	.LVL86:
 929              	.L67:
 168:Drivers/lvgl/src/misc/lv_anim.c ****             del = true;
 930              		.loc 1 168 21 view .LVU264
 931              	.LBE12:
ARM GAS  /tmp/ccoBJvOw.s 			page 36


 177:Drivers/lvgl/src/misc/lv_anim.c **** }
 932              		.loc 1 177 5 is_stmt 1 view .LVU265
 178:Drivers/lvgl/src/misc/lv_anim.c **** 
 933              		.loc 1 178 1 is_stmt 0 view .LVU266
 934 0046 3046     		mov	r0, r6
 935 0048 70BD     		pop	{r4, r5, r6, pc}
 936              	.LVL87:
 937              	.L69:
 178:Drivers/lvgl/src/misc/lv_anim.c **** 
 938              		.loc 1 178 1 view .LVU267
 939 004a 00BF     		.align	2
 940              	.L68:
 941 004c AC000000 		.word	lv_global+172
 942              		.cfi_endproc
 943              	.LFE191:
 945              		.section	.text.lv_anim_delete_all,"ax",%progbits
 946              		.align	1
 947              		.global	lv_anim_delete_all
 948              		.syntax unified
 949              		.thumb
 950              		.thumb_func
 952              	lv_anim_delete_all:
 953              	.LFB192:
 181:Drivers/lvgl/src/misc/lv_anim.c ****     lv_ll_clear_custom(anim_ll_p, remove_anim);
 954              		.loc 1 181 1 is_stmt 1 view -0
 955              		.cfi_startproc
 956              		@ args = 0, pretend = 0, frame = 0
 957              		@ frame_needed = 0, uses_anonymous_args = 0
 958 0000 08B5     		push	{r3, lr}
 959              	.LCFI14:
 960              		.cfi_def_cfa_offset 8
 961              		.cfi_offset 3, -8
 962              		.cfi_offset 14, -4
 182:Drivers/lvgl/src/misc/lv_anim.c ****     anim_mark_list_change();
 963              		.loc 1 182 5 view .LVU269
 964 0002 0349     		ldr	r1, .L72
 965 0004 0348     		ldr	r0, .L72+4
 966 0006 FFF7FEFF 		bl	lv_ll_clear_custom
 967              	.LVL88:
 183:Drivers/lvgl/src/misc/lv_anim.c **** }
 968              		.loc 1 183 5 view .LVU270
 969 000a FFF7FEFF 		bl	anim_mark_list_change
 970              	.LVL89:
 184:Drivers/lvgl/src/misc/lv_anim.c **** 
 971              		.loc 1 184 1 is_stmt 0 view .LVU271
 972 000e 08BD     		pop	{r3, pc}
 973              	.L73:
 974              		.align	2
 975              	.L72:
 976 0010 00000000 		.word	remove_anim
 977 0014 AC000000 		.word	lv_global+172
 978              		.cfi_endproc
 979              	.LFE192:
 981              		.section	.text.lv_anim_core_deinit,"ax",%progbits
 982              		.align	1
 983              		.global	lv_anim_core_deinit
 984              		.syntax unified
ARM GAS  /tmp/ccoBJvOw.s 			page 37


 985              		.thumb
 986              		.thumb_func
 988              	lv_anim_core_deinit:
 989              	.LFB187:
  79:Drivers/lvgl/src/misc/lv_anim.c ****     lv_anim_delete_all();
 990              		.loc 1 79 1 is_stmt 1 view -0
 991              		.cfi_startproc
 992              		@ args = 0, pretend = 0, frame = 0
 993              		@ frame_needed = 0, uses_anonymous_args = 0
 994 0000 08B5     		push	{r3, lr}
 995              	.LCFI15:
 996              		.cfi_def_cfa_offset 8
 997              		.cfi_offset 3, -8
 998              		.cfi_offset 14, -4
  80:Drivers/lvgl/src/misc/lv_anim.c **** }
 999              		.loc 1 80 5 view .LVU273
 1000 0002 FFF7FEFF 		bl	lv_anim_delete_all
 1001              	.LVL90:
  81:Drivers/lvgl/src/misc/lv_anim.c **** 
 1002              		.loc 1 81 1 is_stmt 0 view .LVU274
 1003 0006 08BD     		pop	{r3, pc}
 1004              		.cfi_endproc
 1005              	.LFE187:
 1007              		.section	.text.lv_anim_get,"ax",%progbits
 1008              		.align	1
 1009              		.global	lv_anim_get
 1010              		.syntax unified
 1011              		.thumb
 1012              		.thumb_func
 1014              	lv_anim_get:
 1015              	.LVL91:
 1016              	.LFB193:
 187:Drivers/lvgl/src/misc/lv_anim.c ****     lv_anim_t * a;
 1017              		.loc 1 187 1 is_stmt 1 view -0
 1018              		.cfi_startproc
 1019              		@ args = 0, pretend = 0, frame = 0
 1020              		@ frame_needed = 0, uses_anonymous_args = 0
 187:Drivers/lvgl/src/misc/lv_anim.c ****     lv_anim_t * a;
 1021              		.loc 1 187 1 is_stmt 0 view .LVU276
 1022 0000 38B5     		push	{r3, r4, r5, lr}
 1023              	.LCFI16:
 1024              		.cfi_def_cfa_offset 16
 1025              		.cfi_offset 3, -16
 1026              		.cfi_offset 4, -12
 1027              		.cfi_offset 5, -8
 1028              		.cfi_offset 14, -4
 1029 0002 0446     		mov	r4, r0
 1030 0004 0D46     		mov	r5, r1
 188:Drivers/lvgl/src/misc/lv_anim.c ****     LV_LL_READ(anim_ll_p, a) {
 1031              		.loc 1 188 5 is_stmt 1 view .LVU277
 189:Drivers/lvgl/src/misc/lv_anim.c ****         if(a->var == var && (a->exec_cb == exec_cb || exec_cb == NULL)) {
 1032              		.loc 1 189 5 view .LVU278
 1033 0006 0A48     		ldr	r0, .L82
 1034              	.LVL92:
 189:Drivers/lvgl/src/misc/lv_anim.c ****         if(a->var == var && (a->exec_cb == exec_cb || exec_cb == NULL)) {
 1035              		.loc 1 189 5 is_stmt 0 view .LVU279
 1036 0008 FFF7FEFF 		bl	lv_ll_get_head
ARM GAS  /tmp/ccoBJvOw.s 			page 38


 1037              	.LVL93:
 189:Drivers/lvgl/src/misc/lv_anim.c ****         if(a->var == var && (a->exec_cb == exec_cb || exec_cb == NULL)) {
 1038              		.loc 1 189 5 view .LVU280
 1039 000c 0146     		mov	r1, r0
 1040              	.LVL94:
 189:Drivers/lvgl/src/misc/lv_anim.c ****         if(a->var == var && (a->exec_cb == exec_cb || exec_cb == NULL)) {
 1041              		.loc 1 189 5 view .LVU281
 1042 000e 03E0     		b	.L77
 1043              	.LVL95:
 1044              	.L78:
 189:Drivers/lvgl/src/misc/lv_anim.c ****         if(a->var == var && (a->exec_cb == exec_cb || exec_cb == NULL)) {
 1045              		.loc 1 189 5 is_stmt 1 discriminator 2 view .LVU282
 1046 0010 0748     		ldr	r0, .L82
 1047 0012 FFF7FEFF 		bl	lv_ll_get_next
 1048              	.LVL96:
 189:Drivers/lvgl/src/misc/lv_anim.c ****         if(a->var == var && (a->exec_cb == exec_cb || exec_cb == NULL)) {
 1049              		.loc 1 189 5 is_stmt 0 discriminator 2 view .LVU283
 1050 0016 0146     		mov	r1, r0
 1051              	.LVL97:
 1052              	.L77:
 189:Drivers/lvgl/src/misc/lv_anim.c ****         if(a->var == var && (a->exec_cb == exec_cb || exec_cb == NULL)) {
 1053              		.loc 1 189 5 is_stmt 1 discriminator 1 view .LVU284
 1054 0018 39B1     		cbz	r1, .L76
 190:Drivers/lvgl/src/misc/lv_anim.c ****             return a;
 1055              		.loc 1 190 9 view .LVU285
 190:Drivers/lvgl/src/misc/lv_anim.c ****             return a;
 1056              		.loc 1 190 13 is_stmt 0 view .LVU286
 1057 001a 0B68     		ldr	r3, [r1]
 190:Drivers/lvgl/src/misc/lv_anim.c ****             return a;
 1058              		.loc 1 190 11 view .LVU287
 1059 001c A342     		cmp	r3, r4
 1060 001e F7D1     		bne	.L78
 190:Drivers/lvgl/src/misc/lv_anim.c ****             return a;
 1061              		.loc 1 190 31 discriminator 1 view .LVU288
 1062 0020 4B68     		ldr	r3, [r1, #4]
 190:Drivers/lvgl/src/misc/lv_anim.c ****             return a;
 1063              		.loc 1 190 26 discriminator 1 view .LVU289
 1064 0022 AB42     		cmp	r3, r5
 1065 0024 01D0     		beq	.L76
 190:Drivers/lvgl/src/misc/lv_anim.c ****             return a;
 1066              		.loc 1 190 52 discriminator 2 view .LVU290
 1067 0026 002D     		cmp	r5, #0
 1068 0028 F2D1     		bne	.L78
 1069              	.L76:
 196:Drivers/lvgl/src/misc/lv_anim.c **** 
 1070              		.loc 1 196 1 view .LVU291
 1071 002a 0846     		mov	r0, r1
 1072 002c 38BD     		pop	{r3, r4, r5, pc}
 1073              	.LVL98:
 1074              	.L83:
 196:Drivers/lvgl/src/misc/lv_anim.c **** 
 1075              		.loc 1 196 1 view .LVU292
 1076 002e 00BF     		.align	2
 1077              	.L82:
 1078 0030 AC000000 		.word	lv_global+172
 1079              		.cfi_endproc
 1080              	.LFE193:
ARM GAS  /tmp/ccoBJvOw.s 			page 39


 1082              		.section	.text.lv_anim_get_timer,"ax",%progbits
 1083              		.align	1
 1084              		.global	lv_anim_get_timer
 1085              		.syntax unified
 1086              		.thumb
 1087              		.thumb_func
 1089              	lv_anim_get_timer:
 1090              	.LFB194:
 199:Drivers/lvgl/src/misc/lv_anim.c ****     return state.timer;
 1091              		.loc 1 199 1 is_stmt 1 view -0
 1092              		.cfi_startproc
 1093              		@ args = 0, pretend = 0, frame = 0
 1094              		@ frame_needed = 0, uses_anonymous_args = 0
 1095              		@ link register save eliminated.
 200:Drivers/lvgl/src/misc/lv_anim.c **** }
 1096              		.loc 1 200 5 view .LVU294
 201:Drivers/lvgl/src/misc/lv_anim.c **** 
 1097              		.loc 1 201 1 is_stmt 0 view .LVU295
 1098 0000 014B     		ldr	r3, .L85
 1099 0002 D3F8A800 		ldr	r0, [r3, #168]
 1100 0006 7047     		bx	lr
 1101              	.L86:
 1102              		.align	2
 1103              	.L85:
 1104 0008 00000000 		.word	lv_global
 1105              		.cfi_endproc
 1106              	.LFE194:
 1108              		.section	.text.lv_anim_count_running,"ax",%progbits
 1109              		.align	1
 1110              		.global	lv_anim_count_running
 1111              		.syntax unified
 1112              		.thumb
 1113              		.thumb_func
 1115              	lv_anim_count_running:
 1116              	.LFB195:
 204:Drivers/lvgl/src/misc/lv_anim.c ****     uint16_t cnt = 0;
 1117              		.loc 1 204 1 is_stmt 1 view -0
 1118              		.cfi_startproc
 1119              		@ args = 0, pretend = 0, frame = 0
 1120              		@ frame_needed = 0, uses_anonymous_args = 0
 1121 0000 10B5     		push	{r4, lr}
 1122              	.LCFI17:
 1123              		.cfi_def_cfa_offset 8
 1124              		.cfi_offset 4, -8
 1125              		.cfi_offset 14, -4
 205:Drivers/lvgl/src/misc/lv_anim.c ****     lv_anim_t * a;
 1126              		.loc 1 205 5 view .LVU297
 1127              	.LVL99:
 206:Drivers/lvgl/src/misc/lv_anim.c ****     LV_LL_READ(anim_ll_p, a) cnt++;
 1128              		.loc 1 206 5 view .LVU298
 207:Drivers/lvgl/src/misc/lv_anim.c **** 
 1129              		.loc 1 207 5 view .LVU299
 1130 0002 0848     		ldr	r0, .L91
 1131 0004 FFF7FEFF 		bl	lv_ll_get_head
 1132              	.LVL100:
 1133 0008 0146     		mov	r1, r0
 1134              	.LVL101:
ARM GAS  /tmp/ccoBJvOw.s 			page 40


 205:Drivers/lvgl/src/misc/lv_anim.c ****     lv_anim_t * a;
 1135              		.loc 1 205 14 is_stmt 0 view .LVU300
 1136 000a 0024     		movs	r4, #0
 207:Drivers/lvgl/src/misc/lv_anim.c **** 
 1137              		.loc 1 207 5 view .LVU301
 1138 000c 05E0     		b	.L88
 1139              	.LVL102:
 1140              	.L89:
 207:Drivers/lvgl/src/misc/lv_anim.c **** 
 1141              		.loc 1 207 30 is_stmt 1 discriminator 3 view .LVU302
 207:Drivers/lvgl/src/misc/lv_anim.c **** 
 1142              		.loc 1 207 33 is_stmt 0 discriminator 3 view .LVU303
 1143 000e 0134     		adds	r4, r4, #1
 1144              	.LVL103:
 207:Drivers/lvgl/src/misc/lv_anim.c **** 
 1145              		.loc 1 207 33 discriminator 3 view .LVU304
 1146 0010 A4B2     		uxth	r4, r4
 1147              	.LVL104:
 207:Drivers/lvgl/src/misc/lv_anim.c **** 
 1148              		.loc 1 207 5 is_stmt 1 discriminator 3 view .LVU305
 1149 0012 0448     		ldr	r0, .L91
 1150 0014 FFF7FEFF 		bl	lv_ll_get_next
 1151              	.LVL105:
 207:Drivers/lvgl/src/misc/lv_anim.c **** 
 1152              		.loc 1 207 5 is_stmt 0 discriminator 3 view .LVU306
 1153 0018 0146     		mov	r1, r0
 1154              	.LVL106:
 1155              	.L88:
 207:Drivers/lvgl/src/misc/lv_anim.c **** 
 1156              		.loc 1 207 5 is_stmt 1 discriminator 1 view .LVU307
 1157 001a 0029     		cmp	r1, #0
 1158 001c F7D1     		bne	.L89
 209:Drivers/lvgl/src/misc/lv_anim.c **** }
 1159              		.loc 1 209 5 view .LVU308
 210:Drivers/lvgl/src/misc/lv_anim.c **** 
 1160              		.loc 1 210 1 is_stmt 0 view .LVU309
 1161 001e 2046     		mov	r0, r4
 1162 0020 10BD     		pop	{r4, pc}
 1163              	.LVL107:
 1164              	.L92:
 210:Drivers/lvgl/src/misc/lv_anim.c **** 
 1165              		.loc 1 210 1 view .LVU310
 1166 0022 00BF     		.align	2
 1167              	.L91:
 1168 0024 AC000000 		.word	lv_global+172
 1169              		.cfi_endproc
 1170              	.LFE195:
 1172              		.section	.text.lv_anim_speed_clamped,"ax",%progbits
 1173              		.align	1
 1174              		.global	lv_anim_speed_clamped
 1175              		.syntax unified
 1176              		.thumb
 1177              		.thumb_func
 1179              	lv_anim_speed_clamped:
 1180              	.LVL108:
 1181              	.LFB196:
 213:Drivers/lvgl/src/misc/lv_anim.c **** 
ARM GAS  /tmp/ccoBJvOw.s 			page 41


 1182              		.loc 1 213 1 is_stmt 1 view -0
 1183              		.cfi_startproc
 1184              		@ args = 0, pretend = 0, frame = 0
 1185              		@ frame_needed = 0, uses_anonymous_args = 0
 1186              		@ link register save eliminated.
 215:Drivers/lvgl/src/misc/lv_anim.c ****         LV_LOG_WARN("speed is truncated to 10000 (was %"LV_PRIu32")", speed);
 1187              		.loc 1 215 5 view .LVU312
 215:Drivers/lvgl/src/misc/lv_anim.c ****         LV_LOG_WARN("speed is truncated to 10000 (was %"LV_PRIu32")", speed);
 1188              		.loc 1 215 7 is_stmt 0 view .LVU313
 1189 0000 42F21073 		movw	r3, #10000
 1190 0004 9842     		cmp	r0, r3
 1191 0006 01D9     		bls	.L94
 217:Drivers/lvgl/src/misc/lv_anim.c ****     }
 1192              		.loc 1 217 15 view .LVU314
 1193 0008 42F2F670 		movw	r0, #10230
 1194              	.LVL109:
 1195              	.L94:
 219:Drivers/lvgl/src/misc/lv_anim.c ****         LV_LOG_WARN("min_time is truncated to 10000 (was %"LV_PRIu32")", min_time);
 1196              		.loc 1 219 5 is_stmt 1 view .LVU315
 219:Drivers/lvgl/src/misc/lv_anim.c ****         LV_LOG_WARN("min_time is truncated to 10000 (was %"LV_PRIu32")", min_time);
 1197              		.loc 1 219 7 is_stmt 0 view .LVU316
 1198 000c 42F21073 		movw	r3, #10000
 1199 0010 9942     		cmp	r1, r3
 1200 0012 01D9     		bls	.L95
 221:Drivers/lvgl/src/misc/lv_anim.c ****     }
 1201              		.loc 1 221 18 view .LVU317
 1202 0014 42F2F671 		movw	r1, #10230
 1203              	.LVL110:
 1204              	.L95:
 223:Drivers/lvgl/src/misc/lv_anim.c ****         LV_LOG_WARN("max_time is truncated to 10000 (was %"LV_PRIu32")", max_time);
 1205              		.loc 1 223 5 is_stmt 1 view .LVU318
 223:Drivers/lvgl/src/misc/lv_anim.c ****         LV_LOG_WARN("max_time is truncated to 10000 (was %"LV_PRIu32")", max_time);
 1206              		.loc 1 223 7 is_stmt 0 view .LVU319
 1207 0018 42F21073 		movw	r3, #10000
 1208 001c 9A42     		cmp	r2, r3
 1209 001e 01D9     		bls	.L96
 225:Drivers/lvgl/src/misc/lv_anim.c ****     }
 1210              		.loc 1 225 18 view .LVU320
 1211 0020 42F2F672 		movw	r2, #10230
 1212              	.LVL111:
 1213              	.L96:
 229:Drivers/lvgl/src/misc/lv_anim.c ****     min_time = (min_time + 5) / 10;
 1214              		.loc 1 229 5 is_stmt 1 view .LVU321
 229:Drivers/lvgl/src/misc/lv_anim.c ****     min_time = (min_time + 5) / 10;
 1215              		.loc 1 229 20 is_stmt 0 view .LVU322
 1216 0024 0530     		adds	r0, r0, #5
 1217              	.LVL112:
 229:Drivers/lvgl/src/misc/lv_anim.c ****     min_time = (min_time + 5) / 10;
 1218              		.loc 1 229 11 view .LVU323
 1219 0026 094B     		ldr	r3, .L100
 1220 0028 A3FB000C 		umull	r0, ip, r3, r0
 1221              	.LVL113:
 230:Drivers/lvgl/src/misc/lv_anim.c ****     max_time = (max_time + 5) / 10;
 1222              		.loc 1 230 5 is_stmt 1 view .LVU324
 230:Drivers/lvgl/src/misc/lv_anim.c ****     max_time = (max_time + 5) / 10;
 1223              		.loc 1 230 26 is_stmt 0 view .LVU325
 1224 002c 481D     		adds	r0, r1, #5
ARM GAS  /tmp/ccoBJvOw.s 			page 42


 230:Drivers/lvgl/src/misc/lv_anim.c ****     max_time = (max_time + 5) / 10;
 1225              		.loc 1 230 14 view .LVU326
 1226 002e A3FB0010 		umull	r1, r0, r3, r0
 1227              	.LVL114:
 230:Drivers/lvgl/src/misc/lv_anim.c ****     max_time = (max_time + 5) / 10;
 1228              		.loc 1 230 14 view .LVU327
 1229 0032 C008     		lsrs	r0, r0, #3
 1230              	.LVL115:
 231:Drivers/lvgl/src/misc/lv_anim.c **** 
 1231              		.loc 1 231 5 is_stmt 1 view .LVU328
 231:Drivers/lvgl/src/misc/lv_anim.c **** 
 1232              		.loc 1 231 26 is_stmt 0 view .LVU329
 1233 0034 0532     		adds	r2, r2, #5
 1234              	.LVL116:
 231:Drivers/lvgl/src/misc/lv_anim.c **** 
 1235              		.loc 1 231 14 view .LVU330
 1236 0036 A3FB0232 		umull	r3, r2, r3, r2
 1237              	.LVL117:
 231:Drivers/lvgl/src/misc/lv_anim.c **** 
 1238              		.loc 1 231 14 view .LVU331
 1239 003a D208     		lsrs	r2, r2, #3
 1240              	.LVL118:
 233:Drivers/lvgl/src/misc/lv_anim.c **** 
 1241              		.loc 1 233 5 is_stmt 1 view .LVU332
 233:Drivers/lvgl/src/misc/lv_anim.c **** 
 1242              		.loc 1 233 62 is_stmt 0 view .LVU333
 1243 003c 8002     		lsls	r0, r0, #10
 1244              	.LVL119:
 233:Drivers/lvgl/src/misc/lv_anim.c **** 
 1245              		.loc 1 233 50 view .LVU334
 1246 003e 00EB0250 		add	r0, r0, r2, lsl #20
 233:Drivers/lvgl/src/misc/lv_anim.c **** 
 1247              		.loc 1 233 69 view .LVU335
 1248 0042 00EBDC00 		add	r0, r0, ip, lsr #3
 235:Drivers/lvgl/src/misc/lv_anim.c **** 
 1249              		.loc 1 235 1 view .LVU336
 1250 0046 00F10040 		add	r0, r0, #-2147483648
 1251 004a 7047     		bx	lr
 1252              	.L101:
 1253              		.align	2
 1254              	.L100:
 1255 004c CDCCCCCC 		.word	-858993459
 1256              		.cfi_endproc
 1257              	.LFE196:
 1259              		.section	.text.lv_anim_speed,"ax",%progbits
 1260              		.align	1
 1261              		.global	lv_anim_speed
 1262              		.syntax unified
 1263              		.thumb
 1264              		.thumb_func
 1266              	lv_anim_speed:
 1267              	.LVL120:
 1268              	.LFB197:
 238:Drivers/lvgl/src/misc/lv_anim.c ****     return lv_anim_speed_clamped(speed, 0, 10000);
 1269              		.loc 1 238 1 is_stmt 1 view -0
 1270              		.cfi_startproc
 1271              		@ args = 0, pretend = 0, frame = 0
ARM GAS  /tmp/ccoBJvOw.s 			page 43


 1272              		@ frame_needed = 0, uses_anonymous_args = 0
 238:Drivers/lvgl/src/misc/lv_anim.c ****     return lv_anim_speed_clamped(speed, 0, 10000);
 1273              		.loc 1 238 1 is_stmt 0 view .LVU338
 1274 0000 08B5     		push	{r3, lr}
 1275              	.LCFI18:
 1276              		.cfi_def_cfa_offset 8
 1277              		.cfi_offset 3, -8
 1278              		.cfi_offset 14, -4
 239:Drivers/lvgl/src/misc/lv_anim.c **** }
 1279              		.loc 1 239 5 is_stmt 1 view .LVU339
 239:Drivers/lvgl/src/misc/lv_anim.c **** }
 1280              		.loc 1 239 12 is_stmt 0 view .LVU340
 1281 0002 42F21072 		movw	r2, #10000
 1282 0006 0021     		movs	r1, #0
 1283 0008 FFF7FEFF 		bl	lv_anim_speed_clamped
 1284              	.LVL121:
 240:Drivers/lvgl/src/misc/lv_anim.c **** 
 1285              		.loc 1 240 1 view .LVU341
 1286 000c 08BD     		pop	{r3, pc}
 1287              		.cfi_endproc
 1288              	.LFE197:
 1290              		.section	.text.lv_anim_speed_to_time,"ax",%progbits
 1291              		.align	1
 1292              		.global	lv_anim_speed_to_time
 1293              		.syntax unified
 1294              		.thumb
 1295              		.thumb_func
 1297              	lv_anim_speed_to_time:
 1298              	.LVL122:
 1299              	.LFB198:
 243:Drivers/lvgl/src/misc/lv_anim.c ****     uint32_t d = LV_ABS(start - end);
 1300              		.loc 1 243 1 is_stmt 1 view -0
 1301              		.cfi_startproc
 1302              		@ args = 0, pretend = 0, frame = 0
 1303              		@ frame_needed = 0, uses_anonymous_args = 0
 1304              		@ link register save eliminated.
 243:Drivers/lvgl/src/misc/lv_anim.c ****     uint32_t d = LV_ABS(start - end);
 1305              		.loc 1 243 1 is_stmt 0 view .LVU343
 1306 0000 0346     		mov	r3, r0
 244:Drivers/lvgl/src/misc/lv_anim.c ****     uint32_t time = (d * 1000) / speed;
 1307              		.loc 1 244 5 is_stmt 1 view .LVU344
 244:Drivers/lvgl/src/misc/lv_anim.c ****     uint32_t time = (d * 1000) / speed;
 1308              		.loc 1 244 18 is_stmt 0 view .LVU345
 1309 0002 891A     		subs	r1, r1, r2
 1310              	.LVL123:
 244:Drivers/lvgl/src/misc/lv_anim.c ****     uint32_t time = (d * 1000) / speed;
 1311              		.loc 1 244 18 view .LVU346
 1312 0004 0029     		cmp	r1, #0
 1313 0006 B8BF     		it	lt
 1314 0008 4942     		rsblt	r1, r1, #0
 1315              	.LVL124:
 245:Drivers/lvgl/src/misc/lv_anim.c **** 
 1316              		.loc 1 245 5 is_stmt 1 view .LVU347
 245:Drivers/lvgl/src/misc/lv_anim.c **** 
 1317              		.loc 1 245 24 is_stmt 0 view .LVU348
 1318 000a 4FF47A72 		mov	r2, #1000
 1319              	.LVL125:
ARM GAS  /tmp/ccoBJvOw.s 			page 44


 245:Drivers/lvgl/src/misc/lv_anim.c **** 
 1320              		.loc 1 245 24 view .LVU349
 1321 000e 02FB01F1 		mul	r1, r2, r1
 1322              	.LVL126:
 245:Drivers/lvgl/src/misc/lv_anim.c **** 
 1323              		.loc 1 245 14 view .LVU350
 1324 0012 B1FBF0F0 		udiv	r0, r1, r0
 1325              	.LVL127:
 247:Drivers/lvgl/src/misc/lv_anim.c **** 
 1326              		.loc 1 247 5 is_stmt 1 view .LVU351
 247:Drivers/lvgl/src/misc/lv_anim.c **** 
 1327              		.loc 1 247 26 is_stmt 0 view .LVU352
 1328 0016 9942     		cmp	r1, r3
 1329              	.LVL128:
 247:Drivers/lvgl/src/misc/lv_anim.c **** 
 1330              		.loc 1 247 26 view .LVU353
 1331 0018 00D2     		bcs	.L104
 247:Drivers/lvgl/src/misc/lv_anim.c **** 
 1332              		.loc 1 247 26 discriminator 2 view .LVU354
 1333 001a 0120     		movs	r0, #1
 1334              	.LVL129:
 249:Drivers/lvgl/src/misc/lv_anim.c **** }
 1335              		.loc 1 249 5 is_stmt 1 view .LVU355
 1336              	.L104:
 250:Drivers/lvgl/src/misc/lv_anim.c **** 
 1337              		.loc 1 250 1 is_stmt 0 view .LVU356
 1338 001c 7047     		bx	lr
 1339              		.cfi_endproc
 1340              	.LFE198:
 1342              		.section	.text.lv_anim_path_ease_in,"ax",%progbits
 1343              		.align	1
 1344              		.global	lv_anim_path_ease_in
 1345              		.syntax unified
 1346              		.thumb
 1347              		.thumb_func
 1349              	lv_anim_path_ease_in:
 1350              	.LVL130:
 1351              	.LFB201:
 273:Drivers/lvgl/src/misc/lv_anim.c ****     return lv_anim_path_cubic_bezier(a, LV_BEZIER_VAL_FLOAT(0.42), LV_BEZIER_VAL_FLOAT(0),
 1352              		.loc 1 273 1 is_stmt 1 view -0
 1353              		.cfi_startproc
 1354              		@ args = 0, pretend = 0, frame = 0
 1355              		@ frame_needed = 0, uses_anonymous_args = 0
 273:Drivers/lvgl/src/misc/lv_anim.c ****     return lv_anim_path_cubic_bezier(a, LV_BEZIER_VAL_FLOAT(0.42), LV_BEZIER_VAL_FLOAT(0),
 1356              		.loc 1 273 1 is_stmt 0 view .LVU358
 1357 0000 00B5     		push	{lr}
 1358              	.LCFI19:
 1359              		.cfi_def_cfa_offset 4
 1360              		.cfi_offset 14, -4
 1361 0002 83B0     		sub	sp, sp, #12
 1362              	.LCFI20:
 1363              		.cfi_def_cfa_offset 16
 274:Drivers/lvgl/src/misc/lv_anim.c ****                                      LV_BEZIER_VAL_FLOAT(1), LV_BEZIER_VAL_FLOAT(1));
 1364              		.loc 1 274 5 is_stmt 1 view .LVU359
 274:Drivers/lvgl/src/misc/lv_anim.c ****                                      LV_BEZIER_VAL_FLOAT(1), LV_BEZIER_VAL_FLOAT(1));
 1365              		.loc 1 274 12 is_stmt 0 view .LVU360
 1366 0004 4FF48063 		mov	r3, #1024
ARM GAS  /tmp/ccoBJvOw.s 			page 45


 1367 0008 0093     		str	r3, [sp]
 1368 000a 0022     		movs	r2, #0
 1369 000c 4FF4D771 		mov	r1, #430
 1370 0010 FFF7FEFF 		bl	lv_anim_path_cubic_bezier
 1371              	.LVL131:
 276:Drivers/lvgl/src/misc/lv_anim.c **** 
 1372              		.loc 1 276 1 view .LVU361
 1373 0014 03B0     		add	sp, sp, #12
 1374              	.LCFI21:
 1375              		.cfi_def_cfa_offset 4
 1376              		@ sp needed
 1377 0016 5DF804FB 		ldr	pc, [sp], #4
 1378              		.cfi_endproc
 1379              	.LFE201:
 1381              		.section	.text.lv_anim_path_ease_out,"ax",%progbits
 1382              		.align	1
 1383              		.global	lv_anim_path_ease_out
 1384              		.syntax unified
 1385              		.thumb
 1386              		.thumb_func
 1388              	lv_anim_path_ease_out:
 1389              	.LVL132:
 1390              	.LFB202:
 279:Drivers/lvgl/src/misc/lv_anim.c ****     return lv_anim_path_cubic_bezier(a, LV_BEZIER_VAL_FLOAT(0), LV_BEZIER_VAL_FLOAT(0),
 1391              		.loc 1 279 1 is_stmt 1 view -0
 1392              		.cfi_startproc
 1393              		@ args = 0, pretend = 0, frame = 0
 1394              		@ frame_needed = 0, uses_anonymous_args = 0
 279:Drivers/lvgl/src/misc/lv_anim.c ****     return lv_anim_path_cubic_bezier(a, LV_BEZIER_VAL_FLOAT(0), LV_BEZIER_VAL_FLOAT(0),
 1395              		.loc 1 279 1 is_stmt 0 view .LVU363
 1396 0000 00B5     		push	{lr}
 1397              	.LCFI22:
 1398              		.cfi_def_cfa_offset 4
 1399              		.cfi_offset 14, -4
 1400 0002 83B0     		sub	sp, sp, #12
 1401              	.LCFI23:
 1402              		.cfi_def_cfa_offset 16
 280:Drivers/lvgl/src/misc/lv_anim.c ****                                      LV_BEZIER_VAL_FLOAT(0.58), LV_BEZIER_VAL_FLOAT(1));
 1403              		.loc 1 280 5 is_stmt 1 view .LVU364
 280:Drivers/lvgl/src/misc/lv_anim.c ****                                      LV_BEZIER_VAL_FLOAT(0.58), LV_BEZIER_VAL_FLOAT(1));
 1404              		.loc 1 280 12 is_stmt 0 view .LVU365
 1405 0004 4FF48063 		mov	r3, #1024
 1406 0008 0093     		str	r3, [sp]
 1407 000a 40F25123 		movw	r3, #593
 1408 000e 0022     		movs	r2, #0
 1409 0010 1146     		mov	r1, r2
 1410 0012 FFF7FEFF 		bl	lv_anim_path_cubic_bezier
 1411              	.LVL133:
 282:Drivers/lvgl/src/misc/lv_anim.c **** 
 1412              		.loc 1 282 1 view .LVU366
 1413 0016 03B0     		add	sp, sp, #12
 1414              	.LCFI24:
 1415              		.cfi_def_cfa_offset 4
 1416              		@ sp needed
 1417 0018 5DF804FB 		ldr	pc, [sp], #4
 1418              		.cfi_endproc
 1419              	.LFE202:
ARM GAS  /tmp/ccoBJvOw.s 			page 46


 1421              		.section	.text.lv_anim_path_ease_in_out,"ax",%progbits
 1422              		.align	1
 1423              		.global	lv_anim_path_ease_in_out
 1424              		.syntax unified
 1425              		.thumb
 1426              		.thumb_func
 1428              	lv_anim_path_ease_in_out:
 1429              	.LVL134:
 1430              	.LFB203:
 285:Drivers/lvgl/src/misc/lv_anim.c ****     return lv_anim_path_cubic_bezier(a, LV_BEZIER_VAL_FLOAT(0.42), LV_BEZIER_VAL_FLOAT(0),
 1431              		.loc 1 285 1 is_stmt 1 view -0
 1432              		.cfi_startproc
 1433              		@ args = 0, pretend = 0, frame = 0
 1434              		@ frame_needed = 0, uses_anonymous_args = 0
 285:Drivers/lvgl/src/misc/lv_anim.c ****     return lv_anim_path_cubic_bezier(a, LV_BEZIER_VAL_FLOAT(0.42), LV_BEZIER_VAL_FLOAT(0),
 1435              		.loc 1 285 1 is_stmt 0 view .LVU368
 1436 0000 00B5     		push	{lr}
 1437              	.LCFI25:
 1438              		.cfi_def_cfa_offset 4
 1439              		.cfi_offset 14, -4
 1440 0002 83B0     		sub	sp, sp, #12
 1441              	.LCFI26:
 1442              		.cfi_def_cfa_offset 16
 286:Drivers/lvgl/src/misc/lv_anim.c ****                                      LV_BEZIER_VAL_FLOAT(0.58), LV_BEZIER_VAL_FLOAT(1));
 1443              		.loc 1 286 5 is_stmt 1 view .LVU369
 286:Drivers/lvgl/src/misc/lv_anim.c ****                                      LV_BEZIER_VAL_FLOAT(0.58), LV_BEZIER_VAL_FLOAT(1));
 1444              		.loc 1 286 12 is_stmt 0 view .LVU370
 1445 0004 4FF48063 		mov	r3, #1024
 1446 0008 0093     		str	r3, [sp]
 1447 000a 40F25123 		movw	r3, #593
 1448 000e 0022     		movs	r2, #0
 1449 0010 4FF4D771 		mov	r1, #430
 1450 0014 FFF7FEFF 		bl	lv_anim_path_cubic_bezier
 1451              	.LVL135:
 288:Drivers/lvgl/src/misc/lv_anim.c **** 
 1452              		.loc 1 288 1 view .LVU371
 1453 0018 03B0     		add	sp, sp, #12
 1454              	.LCFI27:
 1455              		.cfi_def_cfa_offset 4
 1456              		@ sp needed
 1457 001a 5DF804FB 		ldr	pc, [sp], #4
 1458              		.cfi_endproc
 1459              	.LFE203:
 1461              		.section	.text.lv_anim_path_overshoot,"ax",%progbits
 1462              		.align	1
 1463              		.global	lv_anim_path_overshoot
 1464              		.syntax unified
 1465              		.thumb
 1466              		.thumb_func
 1468              	lv_anim_path_overshoot:
 1469              	.LVL136:
 1470              	.LFB204:
 291:Drivers/lvgl/src/misc/lv_anim.c ****     return lv_anim_path_cubic_bezier(a, 341, 0, 683, 1300);
 1471              		.loc 1 291 1 is_stmt 1 view -0
 1472              		.cfi_startproc
 1473              		@ args = 0, pretend = 0, frame = 0
 1474              		@ frame_needed = 0, uses_anonymous_args = 0
ARM GAS  /tmp/ccoBJvOw.s 			page 47


 291:Drivers/lvgl/src/misc/lv_anim.c ****     return lv_anim_path_cubic_bezier(a, 341, 0, 683, 1300);
 1475              		.loc 1 291 1 is_stmt 0 view .LVU373
 1476 0000 00B5     		push	{lr}
 1477              	.LCFI28:
 1478              		.cfi_def_cfa_offset 4
 1479              		.cfi_offset 14, -4
 1480 0002 83B0     		sub	sp, sp, #12
 1481              	.LCFI29:
 1482              		.cfi_def_cfa_offset 16
 292:Drivers/lvgl/src/misc/lv_anim.c **** }
 1483              		.loc 1 292 5 is_stmt 1 view .LVU374
 292:Drivers/lvgl/src/misc/lv_anim.c **** }
 1484              		.loc 1 292 12 is_stmt 0 view .LVU375
 1485 0004 40F21453 		movw	r3, #1300
 1486 0008 0093     		str	r3, [sp]
 1487 000a 40F2AB23 		movw	r3, #683
 1488 000e 0022     		movs	r2, #0
 1489 0010 40F25511 		movw	r1, #341
 1490 0014 FFF7FEFF 		bl	lv_anim_path_cubic_bezier
 1491              	.LVL137:
 293:Drivers/lvgl/src/misc/lv_anim.c **** 
 1492              		.loc 1 293 1 view .LVU376
 1493 0018 03B0     		add	sp, sp, #12
 1494              	.LCFI30:
 1495              		.cfi_def_cfa_offset 4
 1496              		@ sp needed
 1497 001a 5DF804FB 		ldr	pc, [sp], #4
 1498              		.cfi_endproc
 1499              	.LFE204:
 1501              		.section	.text.lv_anim_path_bounce,"ax",%progbits
 1502              		.align	1
 1503              		.global	lv_anim_path_bounce
 1504              		.syntax unified
 1505              		.thumb
 1506              		.thumb_func
 1508              	lv_anim_path_bounce:
 1509              	.LVL138:
 1510              	.LFB205:
 296:Drivers/lvgl/src/misc/lv_anim.c ****     /*Calculate the current step*/
 1511              		.loc 1 296 1 is_stmt 1 view -0
 1512              		.cfi_startproc
 1513              		@ args = 0, pretend = 0, frame = 0
 1514              		@ frame_needed = 0, uses_anonymous_args = 0
 296:Drivers/lvgl/src/misc/lv_anim.c ****     /*Calculate the current step*/
 1515              		.loc 1 296 1 is_stmt 0 view .LVU378
 1516 0000 30B5     		push	{r4, r5, lr}
 1517              	.LCFI31:
 1518              		.cfi_def_cfa_offset 12
 1519              		.cfi_offset 4, -12
 1520              		.cfi_offset 5, -8
 1521              		.cfi_offset 14, -4
 1522 0002 83B0     		sub	sp, sp, #12
 1523              	.LCFI32:
 1524              		.cfi_def_cfa_offset 24
 1525 0004 0446     		mov	r4, r0
 298:Drivers/lvgl/src/misc/lv_anim.c ****     int32_t diff = (a->end_value - a->start_value);
 1526              		.loc 1 298 5 is_stmt 1 view .LVU379
ARM GAS  /tmp/ccoBJvOw.s 			page 48


 298:Drivers/lvgl/src/misc/lv_anim.c ****     int32_t diff = (a->end_value - a->start_value);
 1527              		.loc 1 298 17 is_stmt 0 view .LVU380
 1528 0006 4FF48063 		mov	r3, #1024
 1529 000a 0093     		str	r3, [sp]
 1530 000c 0023     		movs	r3, #0
 1531 000e 026B     		ldr	r2, [r0, #48]
 1532 0010 1946     		mov	r1, r3
 1533 0012 406B     		ldr	r0, [r0, #52]
 1534              	.LVL139:
 298:Drivers/lvgl/src/misc/lv_anim.c ****     int32_t diff = (a->end_value - a->start_value);
 1535              		.loc 1 298 17 view .LVU381
 1536 0014 FFF7FEFF 		bl	lv_map
 1537              	.LVL140:
 299:Drivers/lvgl/src/misc/lv_anim.c **** 
 1538              		.loc 1 299 5 is_stmt 1 view .LVU382
 299:Drivers/lvgl/src/misc/lv_anim.c **** 
 1539              		.loc 1 299 22 is_stmt 0 view .LVU383
 1540 0018 E36A     		ldr	r3, [r4, #44]
 299:Drivers/lvgl/src/misc/lv_anim.c **** 
 1541              		.loc 1 299 37 view .LVU384
 1542 001a 626A     		ldr	r2, [r4, #36]
 299:Drivers/lvgl/src/misc/lv_anim.c **** 
 1543              		.loc 1 299 13 view .LVU385
 1544 001c 9D1A     		subs	r5, r3, r2
 1545              	.LVL141:
 303:Drivers/lvgl/src/misc/lv_anim.c ****         /*Go down*/
 1546              		.loc 1 303 5 is_stmt 1 view .LVU386
 303:Drivers/lvgl/src/misc/lv_anim.c ****         /*Go down*/
 1547              		.loc 1 303 7 is_stmt 0 view .LVU387
 1548 001e B0F5CC7F 		cmp	r0, #408
 1549 0022 0DDA     		bge	.L116
 305:Drivers/lvgl/src/misc/lv_anim.c ****         t = LV_BEZIER_VAL_MAX - t;
 1550              		.loc 1 305 9 is_stmt 1 view .LVU388
 305:Drivers/lvgl/src/misc/lv_anim.c ****         t = LV_BEZIER_VAL_MAX - t;
 1551              		.loc 1 305 16 is_stmt 0 view .LVU389
 1552 0024 40F6C413 		movw	r3, #2500
 1553 0028 00FB03F3 		mul	r3, r0, r3
 305:Drivers/lvgl/src/misc/lv_anim.c ****         t = LV_BEZIER_VAL_MAX - t;
 1554              		.loc 1 305 11 view .LVU390
 1555 002c 9B12     		asrs	r3, r3, #10
 1556              	.LVL142:
 306:Drivers/lvgl/src/misc/lv_anim.c ****     }
 1557              		.loc 1 306 9 is_stmt 1 view .LVU391
 306:Drivers/lvgl/src/misc/lv_anim.c ****     }
 1558              		.loc 1 306 11 is_stmt 0 view .LVU392
 1559 002e C3F58060 		rsb	r0, r3, #1024
 1560              	.LVL143:
 1561              	.L117:
 335:Drivers/lvgl/src/misc/lv_anim.c ****     if(t < 0) t = 0;
 1562              		.loc 1 335 5 is_stmt 1 view .LVU393
 335:Drivers/lvgl/src/misc/lv_anim.c ****     if(t < 0) t = 0;
 1563              		.loc 1 335 7 is_stmt 0 view .LVU394
 1564 0032 B0F5806F 		cmp	r0, #1024
 1565 0036 41DC     		bgt	.L122
 336:Drivers/lvgl/src/misc/lv_anim.c ****     int32_t step = lv_bezier3(t, 0, 500, 800, LV_BEZIER_VAL_MAX);
 1566              		.loc 1 336 5 is_stmt 1 view .LVU395
 336:Drivers/lvgl/src/misc/lv_anim.c ****     int32_t step = lv_bezier3(t, 0, 500, 800, LV_BEZIER_VAL_MAX);
ARM GAS  /tmp/ccoBJvOw.s 			page 49


 1567              		.loc 1 336 7 is_stmt 0 view .LVU396
 1568 0038 0028     		cmp	r0, #0
 1569 003a 41DA     		bge	.L121
 336:Drivers/lvgl/src/misc/lv_anim.c ****     int32_t step = lv_bezier3(t, 0, 500, 800, LV_BEZIER_VAL_MAX);
 1570              		.loc 1 336 17 discriminator 1 view .LVU397
 1571 003c 0020     		movs	r0, #0
 1572              	.LVL144:
 336:Drivers/lvgl/src/misc/lv_anim.c ****     int32_t step = lv_bezier3(t, 0, 500, 800, LV_BEZIER_VAL_MAX);
 1573              		.loc 1 336 17 discriminator 1 view .LVU398
 1574 003e 3FE0     		b	.L121
 1575              	.LVL145:
 1576              	.L116:
 308:Drivers/lvgl/src/misc/lv_anim.c ****         /*First bounce back*/
 1577              		.loc 1 308 10 is_stmt 1 view .LVU399
 308:Drivers/lvgl/src/misc/lv_anim.c ****         /*First bounce back*/
 1578              		.loc 1 308 22 is_stmt 0 view .LVU400
 1579 0040 A0F5CC73 		sub	r3, r0, #408
 308:Drivers/lvgl/src/misc/lv_anim.c ****         /*First bounce back*/
 1580              		.loc 1 308 12 view .LVU401
 1581 0044 CD2B     		cmp	r3, #205
 1582 0046 08D8     		bhi	.L118
 310:Drivers/lvgl/src/misc/lv_anim.c ****         t    = t * 5; /*to [0..1024] range*/
 1583              		.loc 1 310 9 is_stmt 1 view .LVU402
 1584              	.LVL146:
 311:Drivers/lvgl/src/misc/lv_anim.c ****         diff = diff / 20;
 1585              		.loc 1 311 9 view .LVU403
 311:Drivers/lvgl/src/misc/lv_anim.c ****         diff = diff / 20;
 1586              		.loc 1 311 14 is_stmt 0 view .LVU404
 1587 0048 03EB8300 		add	r0, r3, r3, lsl #2
 1588              	.LVL147:
 312:Drivers/lvgl/src/misc/lv_anim.c ****     }
 1589              		.loc 1 312 9 is_stmt 1 view .LVU405
 312:Drivers/lvgl/src/misc/lv_anim.c ****     }
 1590              		.loc 1 312 14 is_stmt 0 view .LVU406
 1591 004c 254A     		ldr	r2, .L125
 1592 004e 82FB0532 		smull	r3, r2, r2, r5
 1593 0052 EB17     		asrs	r3, r5, #31
 1594 0054 C3EBE205 		rsb	r5, r3, r2, asr #3
 1595              	.LVL148:
 312:Drivers/lvgl/src/misc/lv_anim.c ****     }
 1596              		.loc 1 312 14 view .LVU407
 1597 0058 EBE7     		b	.L117
 1598              	.L118:
 314:Drivers/lvgl/src/misc/lv_anim.c ****         /*Fall back*/
 1599              		.loc 1 314 10 is_stmt 1 view .LVU408
 314:Drivers/lvgl/src/misc/lv_anim.c ****         /*Fall back*/
 1600              		.loc 1 314 22 is_stmt 0 view .LVU409
 1601 005a A0F26623 		subw	r3, r0, #614
 314:Drivers/lvgl/src/misc/lv_anim.c ****         /*Fall back*/
 1602              		.loc 1 314 12 view .LVU410
 1603 005e CC2B     		cmp	r3, #204
 1604 0060 0AD8     		bhi	.L119
 316:Drivers/lvgl/src/misc/lv_anim.c ****         t    = t * 5; /*to [0..1024] range*/
 1605              		.loc 1 316 9 is_stmt 1 view .LVU411
 1606              	.LVL149:
 317:Drivers/lvgl/src/misc/lv_anim.c ****         t    = LV_BEZIER_VAL_MAX - t;
 1607              		.loc 1 317 9 view .LVU412
ARM GAS  /tmp/ccoBJvOw.s 			page 50


 317:Drivers/lvgl/src/misc/lv_anim.c ****         t    = LV_BEZIER_VAL_MAX - t;
 1608              		.loc 1 317 14 is_stmt 0 view .LVU413
 1609 0062 03EB8300 		add	r0, r3, r3, lsl #2
 1610              	.LVL150:
 318:Drivers/lvgl/src/misc/lv_anim.c ****         diff = diff / 20;
 1611              		.loc 1 318 9 is_stmt 1 view .LVU414
 318:Drivers/lvgl/src/misc/lv_anim.c ****         diff = diff / 20;
 1612              		.loc 1 318 14 is_stmt 0 view .LVU415
 1613 0066 C0F58060 		rsb	r0, r0, #1024
 1614              	.LVL151:
 319:Drivers/lvgl/src/misc/lv_anim.c ****     }
 1615              		.loc 1 319 9 is_stmt 1 view .LVU416
 319:Drivers/lvgl/src/misc/lv_anim.c ****     }
 1616              		.loc 1 319 14 is_stmt 0 view .LVU417
 1617 006a 1E4A     		ldr	r2, .L125
 1618 006c 82FB0532 		smull	r3, r2, r2, r5
 1619 0070 EB17     		asrs	r3, r5, #31
 1620 0072 C3EBE205 		rsb	r5, r3, r2, asr #3
 1621              	.LVL152:
 319:Drivers/lvgl/src/misc/lv_anim.c ****     }
 1622              		.loc 1 319 14 view .LVU418
 1623 0076 DCE7     		b	.L117
 1624              	.L119:
 321:Drivers/lvgl/src/misc/lv_anim.c ****         /*Second bounce back*/
 1625              		.loc 1 321 10 is_stmt 1 view .LVU419
 321:Drivers/lvgl/src/misc/lv_anim.c ****         /*Second bounce back*/
 1626              		.loc 1 321 22 is_stmt 0 view .LVU420
 1627 0078 A0F23333 		subw	r3, r0, #819
 321:Drivers/lvgl/src/misc/lv_anim.c ****         /*Second bounce back*/
 1628              		.loc 1 321 12 view .LVU421
 1629 007c 652B     		cmp	r3, #101
 1630 007e 0BD8     		bhi	.L120
 323:Drivers/lvgl/src/misc/lv_anim.c ****         t    = t * 10; /*to [0..1024] range*/
 1631              		.loc 1 323 9 is_stmt 1 view .LVU422
 323:Drivers/lvgl/src/misc/lv_anim.c ****         t    = t * 10; /*to [0..1024] range*/
 1632              		.loc 1 323 11 is_stmt 0 view .LVU423
 1633 0080 A0F23330 		subw	r0, r0, #819
 1634              	.LVL153:
 324:Drivers/lvgl/src/misc/lv_anim.c ****         diff = diff / 40;
 1635              		.loc 1 324 9 is_stmt 1 view .LVU424
 324:Drivers/lvgl/src/misc/lv_anim.c ****         diff = diff / 40;
 1636              		.loc 1 324 14 is_stmt 0 view .LVU425
 1637 0084 00EB8000 		add	r0, r0, r0, lsl #2
 1638              	.LVL154:
 324:Drivers/lvgl/src/misc/lv_anim.c ****         diff = diff / 40;
 1639              		.loc 1 324 14 view .LVU426
 1640 0088 4000     		lsls	r0, r0, #1
 1641              	.LVL155:
 325:Drivers/lvgl/src/misc/lv_anim.c ****     }
 1642              		.loc 1 325 9 is_stmt 1 view .LVU427
 325:Drivers/lvgl/src/misc/lv_anim.c ****     }
 1643              		.loc 1 325 14 is_stmt 0 view .LVU428
 1644 008a 164A     		ldr	r2, .L125
 1645 008c 82FB0532 		smull	r3, r2, r2, r5
 1646 0090 EB17     		asrs	r3, r5, #31
 1647 0092 C3EB2215 		rsb	r5, r3, r2, asr #4
 1648              	.LVL156:
ARM GAS  /tmp/ccoBJvOw.s 			page 51


 325:Drivers/lvgl/src/misc/lv_anim.c ****     }
 1649              		.loc 1 325 14 view .LVU429
 1650 0096 CCE7     		b	.L117
 1651              	.L120:
 327:Drivers/lvgl/src/misc/lv_anim.c ****         /*Fall back*/
 1652              		.loc 1 327 10 is_stmt 1 view .LVU430
 327:Drivers/lvgl/src/misc/lv_anim.c ****         /*Fall back*/
 1653              		.loc 1 327 22 is_stmt 0 view .LVU431
 1654 0098 A0F29932 		subw	r2, r0, #921
 327:Drivers/lvgl/src/misc/lv_anim.c ****         /*Fall back*/
 1655              		.loc 1 327 12 view .LVU432
 1656 009c 672A     		cmp	r2, #103
 1657 009e C8D8     		bhi	.L117
 329:Drivers/lvgl/src/misc/lv_anim.c ****         t    = t * 10; /*to [0..1024] range*/
 1658              		.loc 1 329 9 is_stmt 1 view .LVU433
 329:Drivers/lvgl/src/misc/lv_anim.c ****         t    = t * 10; /*to [0..1024] range*/
 1659              		.loc 1 329 11 is_stmt 0 view .LVU434
 1660 00a0 A0F29930 		subw	r0, r0, #921
 1661              	.LVL157:
 330:Drivers/lvgl/src/misc/lv_anim.c ****         t    = LV_BEZIER_VAL_MAX - t;
 1662              		.loc 1 330 9 is_stmt 1 view .LVU435
 330:Drivers/lvgl/src/misc/lv_anim.c ****         t    = LV_BEZIER_VAL_MAX - t;
 1663              		.loc 1 330 14 is_stmt 0 view .LVU436
 1664 00a4 00EB8000 		add	r0, r0, r0, lsl #2
 1665              	.LVL158:
 330:Drivers/lvgl/src/misc/lv_anim.c ****         t    = LV_BEZIER_VAL_MAX - t;
 1666              		.loc 1 330 14 view .LVU437
 1667 00a8 4000     		lsls	r0, r0, #1
 1668              	.LVL159:
 331:Drivers/lvgl/src/misc/lv_anim.c ****         diff = diff / 40;
 1669              		.loc 1 331 9 is_stmt 1 view .LVU438
 331:Drivers/lvgl/src/misc/lv_anim.c ****         diff = diff / 40;
 1670              		.loc 1 331 14 is_stmt 0 view .LVU439
 1671 00aa C0F58060 		rsb	r0, r0, #1024
 1672              	.LVL160:
 332:Drivers/lvgl/src/misc/lv_anim.c ****     }
 1673              		.loc 1 332 9 is_stmt 1 view .LVU440
 332:Drivers/lvgl/src/misc/lv_anim.c ****     }
 1674              		.loc 1 332 14 is_stmt 0 view .LVU441
 1675 00ae 0D4A     		ldr	r2, .L125
 1676 00b0 82FB0532 		smull	r3, r2, r2, r5
 1677 00b4 EB17     		asrs	r3, r5, #31
 1678 00b6 C3EB2215 		rsb	r5, r3, r2, asr #4
 1679              	.LVL161:
 332:Drivers/lvgl/src/misc/lv_anim.c ****     }
 1680              		.loc 1 332 14 view .LVU442
 1681 00ba BAE7     		b	.L117
 1682              	.LVL162:
 1683              	.L122:
 335:Drivers/lvgl/src/misc/lv_anim.c ****     if(t < 0) t = 0;
 1684              		.loc 1 335 33 discriminator 1 view .LVU443
 1685 00bc 4FF48060 		mov	r0, #1024
 1686              	.LVL163:
 1687              	.L121:
 337:Drivers/lvgl/src/misc/lv_anim.c **** 
 1688              		.loc 1 337 5 is_stmt 1 view .LVU444
 337:Drivers/lvgl/src/misc/lv_anim.c **** 
ARM GAS  /tmp/ccoBJvOw.s 			page 52


 1689              		.loc 1 337 20 is_stmt 0 view .LVU445
 1690 00c0 4FF48063 		mov	r3, #1024
 1691 00c4 0093     		str	r3, [sp]
 1692 00c6 4FF44873 		mov	r3, #800
 1693 00ca 4FF4FA72 		mov	r2, #500
 1694 00ce 0021     		movs	r1, #0
 1695 00d0 FFF7FEFF 		bl	lv_bezier3
 1696              	.LVL164:
 339:Drivers/lvgl/src/misc/lv_anim.c ****     new_value = step * diff;
 1697              		.loc 1 339 5 is_stmt 1 view .LVU446
 340:Drivers/lvgl/src/misc/lv_anim.c ****     new_value = new_value >> LV_BEZIER_VAL_SHIFT;
 1698              		.loc 1 340 5 view .LVU447
 340:Drivers/lvgl/src/misc/lv_anim.c ****     new_value = new_value >> LV_BEZIER_VAL_SHIFT;
 1699              		.loc 1 340 15 is_stmt 0 view .LVU448
 1700 00d4 00FB05F5 		mul	r5, r0, r5
 1701              	.LVL165:
 341:Drivers/lvgl/src/misc/lv_anim.c ****     new_value = a->end_value - new_value;
 1702              		.loc 1 341 5 is_stmt 1 view .LVU449
 342:Drivers/lvgl/src/misc/lv_anim.c **** 
 1703              		.loc 1 342 5 view .LVU450
 342:Drivers/lvgl/src/misc/lv_anim.c **** 
 1704              		.loc 1 342 18 is_stmt 0 view .LVU451
 1705 00d8 E06A     		ldr	r0, [r4, #44]
 1706              	.LVL166:
 344:Drivers/lvgl/src/misc/lv_anim.c **** }
 1707              		.loc 1 344 5 is_stmt 1 view .LVU452
 345:Drivers/lvgl/src/misc/lv_anim.c **** 
 1708              		.loc 1 345 1 is_stmt 0 view .LVU453
 1709 00da A0EBA520 		sub	r0, r0, r5, asr #10
 1710              	.LVL167:
 345:Drivers/lvgl/src/misc/lv_anim.c **** 
 1711              		.loc 1 345 1 view .LVU454
 1712 00de 03B0     		add	sp, sp, #12
 1713              	.LCFI33:
 1714              		.cfi_def_cfa_offset 12
 1715              		@ sp needed
 1716 00e0 30BD     		pop	{r4, r5, pc}
 1717              	.LVL168:
 1718              	.L126:
 345:Drivers/lvgl/src/misc/lv_anim.c **** 
 1719              		.loc 1 345 1 view .LVU455
 1720 00e2 00BF     		.align	2
 1721              	.L125:
 1722 00e4 67666666 		.word	1717986919
 1723              		.cfi_endproc
 1724              	.LFE205:
 1726              		.section	.text.lv_anim_path_step,"ax",%progbits
 1727              		.align	1
 1728              		.global	lv_anim_path_step
 1729              		.syntax unified
 1730              		.thumb
 1731              		.thumb_func
 1733              	lv_anim_path_step:
 1734              	.LVL169:
 1735              	.LFB206:
 348:Drivers/lvgl/src/misc/lv_anim.c ****     if(a->act_time >= a->duration)
 1736              		.loc 1 348 1 is_stmt 1 view -0
ARM GAS  /tmp/ccoBJvOw.s 			page 53


 1737              		.cfi_startproc
 1738              		@ args = 0, pretend = 0, frame = 0
 1739              		@ frame_needed = 0, uses_anonymous_args = 0
 1740              		@ link register save eliminated.
 349:Drivers/lvgl/src/misc/lv_anim.c ****         return a->end_value;
 1741              		.loc 1 349 5 view .LVU457
 349:Drivers/lvgl/src/misc/lv_anim.c ****         return a->end_value;
 1742              		.loc 1 349 9 is_stmt 0 view .LVU458
 1743 0000 426B     		ldr	r2, [r0, #52]
 349:Drivers/lvgl/src/misc/lv_anim.c ****         return a->end_value;
 1744              		.loc 1 349 24 view .LVU459
 1745 0002 036B     		ldr	r3, [r0, #48]
 349:Drivers/lvgl/src/misc/lv_anim.c ****         return a->end_value;
 1746              		.loc 1 349 7 view .LVU460
 1747 0004 9A42     		cmp	r2, r3
 1748 0006 01DB     		blt	.L128
 350:Drivers/lvgl/src/misc/lv_anim.c ****     else
 1749              		.loc 1 350 9 is_stmt 1 view .LVU461
 350:Drivers/lvgl/src/misc/lv_anim.c ****     else
 1750              		.loc 1 350 17 is_stmt 0 view .LVU462
 1751 0008 C06A     		ldr	r0, [r0, #44]
 1752              	.LVL170:
 350:Drivers/lvgl/src/misc/lv_anim.c ****     else
 1753              		.loc 1 350 17 view .LVU463
 1754 000a 7047     		bx	lr
 1755              	.LVL171:
 1756              	.L128:
 352:Drivers/lvgl/src/misc/lv_anim.c **** }
 1757              		.loc 1 352 9 is_stmt 1 view .LVU464
 352:Drivers/lvgl/src/misc/lv_anim.c **** }
 1758              		.loc 1 352 17 is_stmt 0 view .LVU465
 1759 000c 406A     		ldr	r0, [r0, #36]
 1760              	.LVL172:
 353:Drivers/lvgl/src/misc/lv_anim.c **** 
 1761              		.loc 1 353 1 view .LVU466
 1762 000e 7047     		bx	lr
 1763              		.cfi_endproc
 1764              	.LFE206:
 1766              		.section	.text.lv_anim_path_custom_bezier3,"ax",%progbits
 1767              		.align	1
 1768              		.global	lv_anim_path_custom_bezier3
 1769              		.syntax unified
 1770              		.thumb
 1771              		.thumb_func
 1773              	lv_anim_path_custom_bezier3:
 1774              	.LVL173:
 1775              	.LFB207:
 356:Drivers/lvgl/src/misc/lv_anim.c ****     const lv_anim_bezier3_para_t * para = &a->parameter.bezier3;
 1776              		.loc 1 356 1 is_stmt 1 view -0
 1777              		.cfi_startproc
 1778              		@ args = 0, pretend = 0, frame = 0
 1779              		@ frame_needed = 0, uses_anonymous_args = 0
 356:Drivers/lvgl/src/misc/lv_anim.c ****     const lv_anim_bezier3_para_t * para = &a->parameter.bezier3;
 1780              		.loc 1 356 1 is_stmt 0 view .LVU468
 1781 0000 00B5     		push	{lr}
 1782              	.LCFI34:
 1783              		.cfi_def_cfa_offset 4
ARM GAS  /tmp/ccoBJvOw.s 			page 54


 1784              		.cfi_offset 14, -4
 1785 0002 83B0     		sub	sp, sp, #12
 1786              	.LCFI35:
 1787              		.cfi_def_cfa_offset 16
 357:Drivers/lvgl/src/misc/lv_anim.c ****     return lv_anim_path_cubic_bezier(a, para->x1, para->y1, para->x2, para->y2);
 1788              		.loc 1 357 5 is_stmt 1 view .LVU469
 1789              	.LVL174:
 358:Drivers/lvgl/src/misc/lv_anim.c **** }
 1790              		.loc 1 358 5 view .LVU470
 358:Drivers/lvgl/src/misc/lv_anim.c **** }
 1791              		.loc 1 358 75 is_stmt 0 view .LVU471
 1792 0004 B0F94E30 		ldrsh	r3, [r0, #78]
 358:Drivers/lvgl/src/misc/lv_anim.c **** }
 1793              		.loc 1 358 12 view .LVU472
 1794 0008 0093     		str	r3, [sp]
 1795 000a B0F94C30 		ldrsh	r3, [r0, #76]
 1796 000e B0F94A20 		ldrsh	r2, [r0, #74]
 1797 0012 B0F94810 		ldrsh	r1, [r0, #72]
 1798 0016 FFF7FEFF 		bl	lv_anim_path_cubic_bezier
 1799              	.LVL175:
 359:Drivers/lvgl/src/misc/lv_anim.c **** 
 1800              		.loc 1 359 1 view .LVU473
 1801 001a 03B0     		add	sp, sp, #12
 1802              	.LCFI36:
 1803              		.cfi_def_cfa_offset 4
 1804              		@ sp needed
 1805 001c 5DF804FB 		ldr	pc, [sp], #4
 1806              		.cfi_endproc
 1807              	.LFE207:
 1809              		.section	.text.lv_anim_set_var,"ax",%progbits
 1810              		.align	1
 1811              		.global	lv_anim_set_var
 1812              		.syntax unified
 1813              		.thumb
 1814              		.thumb_func
 1816              	lv_anim_set_var:
 1817              	.LVL176:
 1818              	.LFB208:
 362:Drivers/lvgl/src/misc/lv_anim.c ****     a->var = var;
 1819              		.loc 1 362 1 is_stmt 1 view -0
 1820              		.cfi_startproc
 1821              		@ args = 0, pretend = 0, frame = 0
 1822              		@ frame_needed = 0, uses_anonymous_args = 0
 1823              		@ link register save eliminated.
 363:Drivers/lvgl/src/misc/lv_anim.c **** }
 1824              		.loc 1 363 5 view .LVU475
 363:Drivers/lvgl/src/misc/lv_anim.c **** }
 1825              		.loc 1 363 12 is_stmt 0 view .LVU476
 1826 0000 0160     		str	r1, [r0]
 364:Drivers/lvgl/src/misc/lv_anim.c **** 
 1827              		.loc 1 364 1 view .LVU477
 1828 0002 7047     		bx	lr
 1829              		.cfi_endproc
 1830              	.LFE208:
 1832              		.section	.text.lv_anim_set_exec_cb,"ax",%progbits
 1833              		.align	1
 1834              		.global	lv_anim_set_exec_cb
ARM GAS  /tmp/ccoBJvOw.s 			page 55


 1835              		.syntax unified
 1836              		.thumb
 1837              		.thumb_func
 1839              	lv_anim_set_exec_cb:
 1840              	.LVL177:
 1841              	.LFB209:
 367:Drivers/lvgl/src/misc/lv_anim.c ****     a->exec_cb = exec_cb;
 1842              		.loc 1 367 1 is_stmt 1 view -0
 1843              		.cfi_startproc
 1844              		@ args = 0, pretend = 0, frame = 0
 1845              		@ frame_needed = 0, uses_anonymous_args = 0
 1846              		@ link register save eliminated.
 368:Drivers/lvgl/src/misc/lv_anim.c **** }
 1847              		.loc 1 368 5 view .LVU479
 368:Drivers/lvgl/src/misc/lv_anim.c **** }
 1848              		.loc 1 368 16 is_stmt 0 view .LVU480
 1849 0000 4160     		str	r1, [r0, #4]
 369:Drivers/lvgl/src/misc/lv_anim.c **** 
 1850              		.loc 1 369 1 view .LVU481
 1851 0002 7047     		bx	lr
 1852              		.cfi_endproc
 1853              	.LFE209:
 1855              		.section	.text.lv_anim_set_duration,"ax",%progbits
 1856              		.align	1
 1857              		.global	lv_anim_set_duration
 1858              		.syntax unified
 1859              		.thumb
 1860              		.thumb_func
 1862              	lv_anim_set_duration:
 1863              	.LVL178:
 1864              	.LFB210:
 372:Drivers/lvgl/src/misc/lv_anim.c ****     a->duration = duration;
 1865              		.loc 1 372 1 is_stmt 1 view -0
 1866              		.cfi_startproc
 1867              		@ args = 0, pretend = 0, frame = 0
 1868              		@ frame_needed = 0, uses_anonymous_args = 0
 1869              		@ link register save eliminated.
 373:Drivers/lvgl/src/misc/lv_anim.c **** }
 1870              		.loc 1 373 5 view .LVU483
 373:Drivers/lvgl/src/misc/lv_anim.c **** }
 1871              		.loc 1 373 17 is_stmt 0 view .LVU484
 1872 0000 0163     		str	r1, [r0, #48]
 374:Drivers/lvgl/src/misc/lv_anim.c **** 
 1873              		.loc 1 374 1 view .LVU485
 1874 0002 7047     		bx	lr
 1875              		.cfi_endproc
 1876              	.LFE210:
 1878              		.section	.text.lv_anim_set_delay,"ax",%progbits
 1879              		.align	1
 1880              		.global	lv_anim_set_delay
 1881              		.syntax unified
 1882              		.thumb
 1883              		.thumb_func
 1885              	lv_anim_set_delay:
 1886              	.LVL179:
 1887              	.LFB211:
 377:Drivers/lvgl/src/misc/lv_anim.c ****     a->act_time = -(int32_t)(delay);
ARM GAS  /tmp/ccoBJvOw.s 			page 56


 1888              		.loc 1 377 1 is_stmt 1 view -0
 1889              		.cfi_startproc
 1890              		@ args = 0, pretend = 0, frame = 0
 1891              		@ frame_needed = 0, uses_anonymous_args = 0
 1892              		@ link register save eliminated.
 378:Drivers/lvgl/src/misc/lv_anim.c **** }
 1893              		.loc 1 378 5 view .LVU487
 378:Drivers/lvgl/src/misc/lv_anim.c **** }
 1894              		.loc 1 378 19 is_stmt 0 view .LVU488
 1895 0000 4942     		rsbs	r1, r1, #0
 1896              	.LVL180:
 378:Drivers/lvgl/src/misc/lv_anim.c **** }
 1897              		.loc 1 378 17 view .LVU489
 1898 0002 4163     		str	r1, [r0, #52]
 379:Drivers/lvgl/src/misc/lv_anim.c **** 
 1899              		.loc 1 379 1 view .LVU490
 1900 0004 7047     		bx	lr
 1901              		.cfi_endproc
 1902              	.LFE211:
 1904              		.section	.text.lv_anim_set_values,"ax",%progbits
 1905              		.align	1
 1906              		.global	lv_anim_set_values
 1907              		.syntax unified
 1908              		.thumb
 1909              		.thumb_func
 1911              	lv_anim_set_values:
 1912              	.LVL181:
 1913              	.LFB212:
 382:Drivers/lvgl/src/misc/lv_anim.c ****     a->start_value = start;
 1914              		.loc 1 382 1 is_stmt 1 view -0
 1915              		.cfi_startproc
 1916              		@ args = 0, pretend = 0, frame = 0
 1917              		@ frame_needed = 0, uses_anonymous_args = 0
 1918              		@ link register save eliminated.
 383:Drivers/lvgl/src/misc/lv_anim.c ****     a->current_value = INT32_MIN;
 1919              		.loc 1 383 5 view .LVU492
 383:Drivers/lvgl/src/misc/lv_anim.c ****     a->current_value = INT32_MIN;
 1920              		.loc 1 383 20 is_stmt 0 view .LVU493
 1921 0000 4162     		str	r1, [r0, #36]
 384:Drivers/lvgl/src/misc/lv_anim.c ****     a->end_value = end;
 1922              		.loc 1 384 5 is_stmt 1 view .LVU494
 384:Drivers/lvgl/src/misc/lv_anim.c ****     a->end_value = end;
 1923              		.loc 1 384 22 is_stmt 0 view .LVU495
 1924 0002 4FF00043 		mov	r3, #-2147483648
 1925 0006 8362     		str	r3, [r0, #40]
 385:Drivers/lvgl/src/misc/lv_anim.c **** }
 1926              		.loc 1 385 5 is_stmt 1 view .LVU496
 385:Drivers/lvgl/src/misc/lv_anim.c **** }
 1927              		.loc 1 385 18 is_stmt 0 view .LVU497
 1928 0008 C262     		str	r2, [r0, #44]
 386:Drivers/lvgl/src/misc/lv_anim.c **** 
 1929              		.loc 1 386 1 view .LVU498
 1930 000a 7047     		bx	lr
 1931              		.cfi_endproc
 1932              	.LFE212:
 1934              		.section	.text.lv_anim_set_custom_exec_cb,"ax",%progbits
 1935              		.align	1
ARM GAS  /tmp/ccoBJvOw.s 			page 57


 1936              		.global	lv_anim_set_custom_exec_cb
 1937              		.syntax unified
 1938              		.thumb
 1939              		.thumb_func
 1941              	lv_anim_set_custom_exec_cb:
 1942              	.LVL182:
 1943              	.LFB213:
 389:Drivers/lvgl/src/misc/lv_anim.c ****     a->custom_exec_cb = exec_cb;
 1944              		.loc 1 389 1 is_stmt 1 view -0
 1945              		.cfi_startproc
 1946              		@ args = 0, pretend = 0, frame = 0
 1947              		@ frame_needed = 0, uses_anonymous_args = 0
 1948              		@ link register save eliminated.
 390:Drivers/lvgl/src/misc/lv_anim.c **** }
 1949              		.loc 1 390 5 view .LVU500
 390:Drivers/lvgl/src/misc/lv_anim.c **** }
 1950              		.loc 1 390 23 is_stmt 0 view .LVU501
 1951 0000 8160     		str	r1, [r0, #8]
 391:Drivers/lvgl/src/misc/lv_anim.c **** 
 1952              		.loc 1 391 1 view .LVU502
 1953 0002 7047     		bx	lr
 1954              		.cfi_endproc
 1955              	.LFE213:
 1957              		.section	.text.lv_anim_set_path_cb,"ax",%progbits
 1958              		.align	1
 1959              		.global	lv_anim_set_path_cb
 1960              		.syntax unified
 1961              		.thumb
 1962              		.thumb_func
 1964              	lv_anim_set_path_cb:
 1965              	.LVL183:
 1966              	.LFB214:
 394:Drivers/lvgl/src/misc/lv_anim.c ****     a->path_cb = path_cb;
 1967              		.loc 1 394 1 is_stmt 1 view -0
 1968              		.cfi_startproc
 1969              		@ args = 0, pretend = 0, frame = 0
 1970              		@ frame_needed = 0, uses_anonymous_args = 0
 1971              		@ link register save eliminated.
 395:Drivers/lvgl/src/misc/lv_anim.c **** }
 1972              		.loc 1 395 5 view .LVU504
 395:Drivers/lvgl/src/misc/lv_anim.c **** }
 1973              		.loc 1 395 16 is_stmt 0 view .LVU505
 1974 0000 0162     		str	r1, [r0, #32]
 396:Drivers/lvgl/src/misc/lv_anim.c **** 
 1975              		.loc 1 396 1 view .LVU506
 1976 0002 7047     		bx	lr
 1977              		.cfi_endproc
 1978              	.LFE214:
 1980              		.section	.text.lv_anim_set_start_cb,"ax",%progbits
 1981              		.align	1
 1982              		.global	lv_anim_set_start_cb
 1983              		.syntax unified
 1984              		.thumb
 1985              		.thumb_func
 1987              	lv_anim_set_start_cb:
 1988              	.LVL184:
 1989              	.LFB215:
ARM GAS  /tmp/ccoBJvOw.s 			page 58


 399:Drivers/lvgl/src/misc/lv_anim.c ****     a->start_cb = start_cb;
 1990              		.loc 1 399 1 is_stmt 1 view -0
 1991              		.cfi_startproc
 1992              		@ args = 0, pretend = 0, frame = 0
 1993              		@ frame_needed = 0, uses_anonymous_args = 0
 1994              		@ link register save eliminated.
 400:Drivers/lvgl/src/misc/lv_anim.c **** }
 1995              		.loc 1 400 5 view .LVU508
 400:Drivers/lvgl/src/misc/lv_anim.c **** }
 1996              		.loc 1 400 17 is_stmt 0 view .LVU509
 1997 0000 C160     		str	r1, [r0, #12]
 401:Drivers/lvgl/src/misc/lv_anim.c **** 
 1998              		.loc 1 401 1 view .LVU510
 1999 0002 7047     		bx	lr
 2000              		.cfi_endproc
 2001              	.LFE215:
 2003              		.section	.text.lv_anim_set_get_value_cb,"ax",%progbits
 2004              		.align	1
 2005              		.global	lv_anim_set_get_value_cb
 2006              		.syntax unified
 2007              		.thumb
 2008              		.thumb_func
 2010              	lv_anim_set_get_value_cb:
 2011              	.LVL185:
 2012              	.LFB216:
 404:Drivers/lvgl/src/misc/lv_anim.c ****     a->get_value_cb = get_value_cb;
 2013              		.loc 1 404 1 is_stmt 1 view -0
 2014              		.cfi_startproc
 2015              		@ args = 0, pretend = 0, frame = 0
 2016              		@ frame_needed = 0, uses_anonymous_args = 0
 2017              		@ link register save eliminated.
 405:Drivers/lvgl/src/misc/lv_anim.c **** }
 2018              		.loc 1 405 5 view .LVU512
 405:Drivers/lvgl/src/misc/lv_anim.c **** }
 2019              		.loc 1 405 21 is_stmt 0 view .LVU513
 2020 0000 8161     		str	r1, [r0, #24]
 406:Drivers/lvgl/src/misc/lv_anim.c **** 
 2021              		.loc 1 406 1 view .LVU514
 2022 0002 7047     		bx	lr
 2023              		.cfi_endproc
 2024              	.LFE216:
 2026              		.section	.text.lv_anim_set_completed_cb,"ax",%progbits
 2027              		.align	1
 2028              		.global	lv_anim_set_completed_cb
 2029              		.syntax unified
 2030              		.thumb
 2031              		.thumb_func
 2033              	lv_anim_set_completed_cb:
 2034              	.LVL186:
 2035              	.LFB217:
 409:Drivers/lvgl/src/misc/lv_anim.c ****     a->completed_cb = completed_cb;
 2036              		.loc 1 409 1 is_stmt 1 view -0
 2037              		.cfi_startproc
 2038              		@ args = 0, pretend = 0, frame = 0
 2039              		@ frame_needed = 0, uses_anonymous_args = 0
 2040              		@ link register save eliminated.
 410:Drivers/lvgl/src/misc/lv_anim.c **** }
ARM GAS  /tmp/ccoBJvOw.s 			page 59


 2041              		.loc 1 410 5 view .LVU516
 410:Drivers/lvgl/src/misc/lv_anim.c **** }
 2042              		.loc 1 410 21 is_stmt 0 view .LVU517
 2043 0000 0161     		str	r1, [r0, #16]
 411:Drivers/lvgl/src/misc/lv_anim.c **** 
 2044              		.loc 1 411 1 view .LVU518
 2045 0002 7047     		bx	lr
 2046              		.cfi_endproc
 2047              	.LFE217:
 2049              		.section	.text.lv_anim_set_deleted_cb,"ax",%progbits
 2050              		.align	1
 2051              		.global	lv_anim_set_deleted_cb
 2052              		.syntax unified
 2053              		.thumb
 2054              		.thumb_func
 2056              	lv_anim_set_deleted_cb:
 2057              	.LVL187:
 2058              	.LFB218:
 414:Drivers/lvgl/src/misc/lv_anim.c ****     a->deleted_cb = deleted_cb;
 2059              		.loc 1 414 1 is_stmt 1 view -0
 2060              		.cfi_startproc
 2061              		@ args = 0, pretend = 0, frame = 0
 2062              		@ frame_needed = 0, uses_anonymous_args = 0
 2063              		@ link register save eliminated.
 415:Drivers/lvgl/src/misc/lv_anim.c **** }
 2064              		.loc 1 415 5 view .LVU520
 415:Drivers/lvgl/src/misc/lv_anim.c **** }
 2065              		.loc 1 415 19 is_stmt 0 view .LVU521
 2066 0000 4161     		str	r1, [r0, #20]
 416:Drivers/lvgl/src/misc/lv_anim.c **** 
 2067              		.loc 1 416 1 view .LVU522
 2068 0002 7047     		bx	lr
 2069              		.cfi_endproc
 2070              	.LFE218:
 2072              		.section	.text.lv_anim_set_reverse_duration,"ax",%progbits
 2073              		.align	1
 2074              		.global	lv_anim_set_reverse_duration
 2075              		.syntax unified
 2076              		.thumb
 2077              		.thumb_func
 2079              	lv_anim_set_reverse_duration:
 2080              	.LVL188:
 2081              	.LFB219:
 419:Drivers/lvgl/src/misc/lv_anim.c ****     a->reverse_duration = duration;
 2082              		.loc 1 419 1 is_stmt 1 view -0
 2083              		.cfi_startproc
 2084              		@ args = 0, pretend = 0, frame = 0
 2085              		@ frame_needed = 0, uses_anonymous_args = 0
 2086              		@ link register save eliminated.
 420:Drivers/lvgl/src/misc/lv_anim.c **** }
 2087              		.loc 1 420 5 view .LVU524
 420:Drivers/lvgl/src/misc/lv_anim.c **** }
 2088              		.loc 1 420 25 is_stmt 0 view .LVU525
 2089 0000 C163     		str	r1, [r0, #60]
 421:Drivers/lvgl/src/misc/lv_anim.c **** 
 2090              		.loc 1 421 1 view .LVU526
 2091 0002 7047     		bx	lr
ARM GAS  /tmp/ccoBJvOw.s 			page 60


 2092              		.cfi_endproc
 2093              	.LFE219:
 2095              		.section	.text.lv_anim_set_reverse_time,"ax",%progbits
 2096              		.align	1
 2097              		.global	lv_anim_set_reverse_time
 2098              		.syntax unified
 2099              		.thumb
 2100              		.thumb_func
 2102              	lv_anim_set_reverse_time:
 2103              	.LVL189:
 2104              	.LFB220:
 424:Drivers/lvgl/src/misc/lv_anim.c ****     lv_anim_set_reverse_duration(a, duration);
 2105              		.loc 1 424 1 is_stmt 1 view -0
 2106              		.cfi_startproc
 2107              		@ args = 0, pretend = 0, frame = 0
 2108              		@ frame_needed = 0, uses_anonymous_args = 0
 424:Drivers/lvgl/src/misc/lv_anim.c ****     lv_anim_set_reverse_duration(a, duration);
 2109              		.loc 1 424 1 is_stmt 0 view .LVU528
 2110 0000 08B5     		push	{r3, lr}
 2111              	.LCFI37:
 2112              		.cfi_def_cfa_offset 8
 2113              		.cfi_offset 3, -8
 2114              		.cfi_offset 14, -4
 425:Drivers/lvgl/src/misc/lv_anim.c **** }
 2115              		.loc 1 425 5 is_stmt 1 view .LVU529
 2116 0002 FFF7FEFF 		bl	lv_anim_set_reverse_duration
 2117              	.LVL190:
 426:Drivers/lvgl/src/misc/lv_anim.c **** 
 2118              		.loc 1 426 1 is_stmt 0 view .LVU530
 2119 0006 08BD     		pop	{r3, pc}
 2120              		.cfi_endproc
 2121              	.LFE220:
 2123              		.section	.text.lv_anim_set_reverse_delay,"ax",%progbits
 2124              		.align	1
 2125              		.global	lv_anim_set_reverse_delay
 2126              		.syntax unified
 2127              		.thumb
 2128              		.thumb_func
 2130              	lv_anim_set_reverse_delay:
 2131              	.LVL191:
 2132              	.LFB221:
 429:Drivers/lvgl/src/misc/lv_anim.c ****     a->reverse_delay = delay;
 2133              		.loc 1 429 1 is_stmt 1 view -0
 2134              		.cfi_startproc
 2135              		@ args = 0, pretend = 0, frame = 0
 2136              		@ frame_needed = 0, uses_anonymous_args = 0
 2137              		@ link register save eliminated.
 430:Drivers/lvgl/src/misc/lv_anim.c **** }
 2138              		.loc 1 430 5 view .LVU532
 430:Drivers/lvgl/src/misc/lv_anim.c **** }
 2139              		.loc 1 430 22 is_stmt 0 view .LVU533
 2140 0000 8163     		str	r1, [r0, #56]
 431:Drivers/lvgl/src/misc/lv_anim.c **** 
 2141              		.loc 1 431 1 view .LVU534
 2142 0002 7047     		bx	lr
 2143              		.cfi_endproc
 2144              	.LFE221:
ARM GAS  /tmp/ccoBJvOw.s 			page 61


 2146              		.section	.text.lv_anim_set_repeat_count,"ax",%progbits
 2147              		.align	1
 2148              		.global	lv_anim_set_repeat_count
 2149              		.syntax unified
 2150              		.thumb
 2151              		.thumb_func
 2153              	lv_anim_set_repeat_count:
 2154              	.LVL192:
 2155              	.LFB222:
 434:Drivers/lvgl/src/misc/lv_anim.c ****     a->repeat_cnt = cnt;
 2156              		.loc 1 434 1 is_stmt 1 view -0
 2157              		.cfi_startproc
 2158              		@ args = 0, pretend = 0, frame = 0
 2159              		@ frame_needed = 0, uses_anonymous_args = 0
 2160              		@ link register save eliminated.
 435:Drivers/lvgl/src/misc/lv_anim.c **** }
 2161              		.loc 1 435 5 view .LVU536
 435:Drivers/lvgl/src/misc/lv_anim.c **** }
 2162              		.loc 1 435 19 is_stmt 0 view .LVU537
 2163 0000 4164     		str	r1, [r0, #68]
 436:Drivers/lvgl/src/misc/lv_anim.c **** 
 2164              		.loc 1 436 1 view .LVU538
 2165 0002 7047     		bx	lr
 2166              		.cfi_endproc
 2167              	.LFE222:
 2169              		.section	.text.lv_anim_set_repeat_delay,"ax",%progbits
 2170              		.align	1
 2171              		.global	lv_anim_set_repeat_delay
 2172              		.syntax unified
 2173              		.thumb
 2174              		.thumb_func
 2176              	lv_anim_set_repeat_delay:
 2177              	.LVL193:
 2178              	.LFB223:
 439:Drivers/lvgl/src/misc/lv_anim.c ****     a->repeat_delay = delay;
 2179              		.loc 1 439 1 is_stmt 1 view -0
 2180              		.cfi_startproc
 2181              		@ args = 0, pretend = 0, frame = 0
 2182              		@ frame_needed = 0, uses_anonymous_args = 0
 2183              		@ link register save eliminated.
 440:Drivers/lvgl/src/misc/lv_anim.c **** }
 2184              		.loc 1 440 5 view .LVU540
 440:Drivers/lvgl/src/misc/lv_anim.c **** }
 2185              		.loc 1 440 21 is_stmt 0 view .LVU541
 2186 0000 0164     		str	r1, [r0, #64]
 441:Drivers/lvgl/src/misc/lv_anim.c **** 
 2187              		.loc 1 441 1 view .LVU542
 2188 0002 7047     		bx	lr
 2189              		.cfi_endproc
 2190              	.LFE223:
 2192              		.section	.text.lv_anim_set_early_apply,"ax",%progbits
 2193              		.align	1
 2194              		.global	lv_anim_set_early_apply
 2195              		.syntax unified
 2196              		.thumb
 2197              		.thumb_func
 2199              	lv_anim_set_early_apply:
ARM GAS  /tmp/ccoBJvOw.s 			page 62


 2200              	.LVL194:
 2201              	.LFB224:
 444:Drivers/lvgl/src/misc/lv_anim.c ****     a->early_apply = en;
 2202              		.loc 1 444 1 is_stmt 1 view -0
 2203              		.cfi_startproc
 2204              		@ args = 0, pretend = 0, frame = 0
 2205              		@ frame_needed = 0, uses_anonymous_args = 0
 2206              		@ link register save eliminated.
 445:Drivers/lvgl/src/misc/lv_anim.c **** }
 2207              		.loc 1 445 5 view .LVU544
 445:Drivers/lvgl/src/misc/lv_anim.c **** }
 2208              		.loc 1 445 20 is_stmt 0 view .LVU545
 2209 0000 90F85C30 		ldrb	r3, [r0, #92]	@ zero_extendqisi2
 2210 0004 61F30413 		bfi	r3, r1, #4, #1
 2211 0008 80F85C30 		strb	r3, [r0, #92]
 446:Drivers/lvgl/src/misc/lv_anim.c **** 
 2212              		.loc 1 446 1 view .LVU546
 2213 000c 7047     		bx	lr
 2214              		.cfi_endproc
 2215              	.LFE224:
 2217              		.section	.text.lv_anim_set_user_data,"ax",%progbits
 2218              		.align	1
 2219              		.global	lv_anim_set_user_data
 2220              		.syntax unified
 2221              		.thumb
 2222              		.thumb_func
 2224              	lv_anim_set_user_data:
 2225              	.LVL195:
 2226              	.LFB225:
 449:Drivers/lvgl/src/misc/lv_anim.c ****     a->user_data = user_data;
 2227              		.loc 1 449 1 is_stmt 1 view -0
 2228              		.cfi_startproc
 2229              		@ args = 0, pretend = 0, frame = 0
 2230              		@ frame_needed = 0, uses_anonymous_args = 0
 2231              		@ link register save eliminated.
 450:Drivers/lvgl/src/misc/lv_anim.c **** }
 2232              		.loc 1 450 5 view .LVU548
 450:Drivers/lvgl/src/misc/lv_anim.c **** }
 2233              		.loc 1 450 18 is_stmt 0 view .LVU549
 2234 0000 C161     		str	r1, [r0, #28]
 451:Drivers/lvgl/src/misc/lv_anim.c **** 
 2235              		.loc 1 451 1 view .LVU550
 2236 0002 7047     		bx	lr
 2237              		.cfi_endproc
 2238              	.LFE225:
 2240              		.section	.text.lv_anim_set_bezier3_param,"ax",%progbits
 2241              		.align	1
 2242              		.global	lv_anim_set_bezier3_param
 2243              		.syntax unified
 2244              		.thumb
 2245              		.thumb_func
 2247              	lv_anim_set_bezier3_param:
 2248              	.LVL196:
 2249              	.LFB226:
 454:Drivers/lvgl/src/misc/lv_anim.c ****     lv_anim_bezier3_para_t * para = &a->parameter.bezier3;
 2250              		.loc 1 454 1 is_stmt 1 view -0
 2251              		.cfi_startproc
ARM GAS  /tmp/ccoBJvOw.s 			page 63


 2252              		@ args = 4, pretend = 0, frame = 0
 2253              		@ frame_needed = 0, uses_anonymous_args = 0
 2254              		@ link register save eliminated.
 455:Drivers/lvgl/src/misc/lv_anim.c **** 
 2255              		.loc 1 455 5 view .LVU552
 457:Drivers/lvgl/src/misc/lv_anim.c ****     para->x2 = x2;
 2256              		.loc 1 457 5 view .LVU553
 457:Drivers/lvgl/src/misc/lv_anim.c ****     para->x2 = x2;
 2257              		.loc 1 457 14 is_stmt 0 view .LVU554
 2258 0000 A0F84810 		strh	r1, [r0, #72]	@ movhi
 458:Drivers/lvgl/src/misc/lv_anim.c ****     para->y1 = y1;
 2259              		.loc 1 458 5 is_stmt 1 view .LVU555
 458:Drivers/lvgl/src/misc/lv_anim.c ****     para->y1 = y1;
 2260              		.loc 1 458 14 is_stmt 0 view .LVU556
 2261 0004 A0F84C30 		strh	r3, [r0, #76]	@ movhi
 459:Drivers/lvgl/src/misc/lv_anim.c ****     para->y2 = y2;
 2262              		.loc 1 459 5 is_stmt 1 view .LVU557
 459:Drivers/lvgl/src/misc/lv_anim.c ****     para->y2 = y2;
 2263              		.loc 1 459 14 is_stmt 0 view .LVU558
 2264 0008 A0F84A20 		strh	r2, [r0, #74]	@ movhi
 460:Drivers/lvgl/src/misc/lv_anim.c **** }
 2265              		.loc 1 460 5 is_stmt 1 view .LVU559
 460:Drivers/lvgl/src/misc/lv_anim.c **** }
 2266              		.loc 1 460 14 is_stmt 0 view .LVU560
 2267 000c BDF90030 		ldrsh	r3, [sp]
 2268              	.LVL197:
 460:Drivers/lvgl/src/misc/lv_anim.c **** }
 2269              		.loc 1 460 14 view .LVU561
 2270 0010 A0F84E30 		strh	r3, [r0, #78]	@ movhi
 461:Drivers/lvgl/src/misc/lv_anim.c **** 
 2271              		.loc 1 461 1 view .LVU562
 2272 0014 7047     		bx	lr
 2273              		.cfi_endproc
 2274              	.LFE226:
 2276              		.section	.text.lv_anim_get_delay,"ax",%progbits
 2277              		.align	1
 2278              		.global	lv_anim_get_delay
 2279              		.syntax unified
 2280              		.thumb
 2281              		.thumb_func
 2283              	lv_anim_get_delay:
 2284              	.LVL198:
 2285              	.LFB227:
 464:Drivers/lvgl/src/misc/lv_anim.c ****     return -a->act_time;
 2286              		.loc 1 464 1 is_stmt 1 view -0
 2287              		.cfi_startproc
 2288              		@ args = 0, pretend = 0, frame = 0
 2289              		@ frame_needed = 0, uses_anonymous_args = 0
 2290              		@ link register save eliminated.
 465:Drivers/lvgl/src/misc/lv_anim.c **** }
 2291              		.loc 1 465 5 view .LVU564
 465:Drivers/lvgl/src/misc/lv_anim.c **** }
 2292              		.loc 1 465 14 is_stmt 0 view .LVU565
 2293 0000 406B     		ldr	r0, [r0, #52]
 2294              	.LVL199:
 466:Drivers/lvgl/src/misc/lv_anim.c **** 
 2295              		.loc 1 466 1 view .LVU566
ARM GAS  /tmp/ccoBJvOw.s 			page 64


 2296 0002 4042     		rsbs	r0, r0, #0
 2297 0004 7047     		bx	lr
 2298              		.cfi_endproc
 2299              	.LFE227:
 2301              		.section	.text.lv_anim_get_time,"ax",%progbits
 2302              		.align	1
 2303              		.global	lv_anim_get_time
 2304              		.syntax unified
 2305              		.thumb
 2306              		.thumb_func
 2308              	lv_anim_get_time:
 2309              	.LVL200:
 2310              	.LFB228:
 469:Drivers/lvgl/src/misc/lv_anim.c ****     return a->duration;
 2311              		.loc 1 469 1 is_stmt 1 view -0
 2312              		.cfi_startproc
 2313              		@ args = 0, pretend = 0, frame = 0
 2314              		@ frame_needed = 0, uses_anonymous_args = 0
 2315              		@ link register save eliminated.
 470:Drivers/lvgl/src/misc/lv_anim.c **** }
 2316              		.loc 1 470 5 view .LVU568
 471:Drivers/lvgl/src/misc/lv_anim.c **** 
 2317              		.loc 1 471 1 is_stmt 0 view .LVU569
 2318 0000 006B     		ldr	r0, [r0, #48]
 2319              	.LVL201:
 471:Drivers/lvgl/src/misc/lv_anim.c **** 
 2320              		.loc 1 471 1 view .LVU570
 2321 0002 7047     		bx	lr
 2322              		.cfi_endproc
 2323              	.LFE228:
 2325              		.section	.text.lv_anim_get_repeat_count,"ax",%progbits
 2326              		.align	1
 2327              		.global	lv_anim_get_repeat_count
 2328              		.syntax unified
 2329              		.thumb
 2330              		.thumb_func
 2332              	lv_anim_get_repeat_count:
 2333              	.LVL202:
 2334              	.LFB229:
 474:Drivers/lvgl/src/misc/lv_anim.c ****     return a->repeat_cnt;
 2335              		.loc 1 474 1 is_stmt 1 view -0
 2336              		.cfi_startproc
 2337              		@ args = 0, pretend = 0, frame = 0
 2338              		@ frame_needed = 0, uses_anonymous_args = 0
 2339              		@ link register save eliminated.
 475:Drivers/lvgl/src/misc/lv_anim.c **** }
 2340              		.loc 1 475 5 view .LVU572
 476:Drivers/lvgl/src/misc/lv_anim.c **** 
 2341              		.loc 1 476 1 is_stmt 0 view .LVU573
 2342 0000 406C     		ldr	r0, [r0, #68]
 2343              	.LVL203:
 476:Drivers/lvgl/src/misc/lv_anim.c **** 
 2344              		.loc 1 476 1 view .LVU574
 2345 0002 7047     		bx	lr
 2346              		.cfi_endproc
 2347              	.LFE229:
 2349              		.section	.text.lv_anim_get_user_data,"ax",%progbits
ARM GAS  /tmp/ccoBJvOw.s 			page 65


 2350              		.align	1
 2351              		.global	lv_anim_get_user_data
 2352              		.syntax unified
 2353              		.thumb
 2354              		.thumb_func
 2356              	lv_anim_get_user_data:
 2357              	.LVL204:
 2358              	.LFB230:
 479:Drivers/lvgl/src/misc/lv_anim.c ****     return a->user_data;
 2359              		.loc 1 479 1 is_stmt 1 view -0
 2360              		.cfi_startproc
 2361              		@ args = 0, pretend = 0, frame = 0
 2362              		@ frame_needed = 0, uses_anonymous_args = 0
 2363              		@ link register save eliminated.
 480:Drivers/lvgl/src/misc/lv_anim.c **** }
 2364              		.loc 1 480 5 view .LVU576
 481:Drivers/lvgl/src/misc/lv_anim.c **** 
 2365              		.loc 1 481 1 is_stmt 0 view .LVU577
 2366 0000 C069     		ldr	r0, [r0, #28]
 2367              	.LVL205:
 481:Drivers/lvgl/src/misc/lv_anim.c **** 
 2368              		.loc 1 481 1 view .LVU578
 2369 0002 7047     		bx	lr
 2370              		.cfi_endproc
 2371              	.LFE230:
 2373              		.section	.text.lv_anim_custom_delete,"ax",%progbits
 2374              		.align	1
 2375              		.global	lv_anim_custom_delete
 2376              		.syntax unified
 2377              		.thumb
 2378              		.thumb_func
 2380              	lv_anim_custom_delete:
 2381              	.LVL206:
 2382              	.LFB231:
 484:Drivers/lvgl/src/misc/lv_anim.c ****     return lv_anim_delete(a ? a->var : NULL, (lv_anim_exec_xcb_t)exec_cb);
 2383              		.loc 1 484 1 is_stmt 1 view -0
 2384              		.cfi_startproc
 2385              		@ args = 0, pretend = 0, frame = 0
 2386              		@ frame_needed = 0, uses_anonymous_args = 0
 484:Drivers/lvgl/src/misc/lv_anim.c ****     return lv_anim_delete(a ? a->var : NULL, (lv_anim_exec_xcb_t)exec_cb);
 2387              		.loc 1 484 1 is_stmt 0 view .LVU580
 2388 0000 08B5     		push	{r3, lr}
 2389              	.LCFI38:
 2390              		.cfi_def_cfa_offset 8
 2391              		.cfi_offset 3, -8
 2392              		.cfi_offset 14, -4
 485:Drivers/lvgl/src/misc/lv_anim.c **** }
 2393              		.loc 1 485 5 is_stmt 1 view .LVU581
 485:Drivers/lvgl/src/misc/lv_anim.c **** }
 2394              		.loc 1 485 12 is_stmt 0 view .LVU582
 2395 0002 0346     		mov	r3, r0
 2396 0004 00B1     		cbz	r0, .L157
 485:Drivers/lvgl/src/misc/lv_anim.c **** }
 2397              		.loc 1 485 12 discriminator 1 view .LVU583
 2398 0006 0368     		ldr	r3, [r0]
 2399              	.L157:
 485:Drivers/lvgl/src/misc/lv_anim.c **** }
ARM GAS  /tmp/ccoBJvOw.s 			page 66


 2400              		.loc 1 485 12 discriminator 4 view .LVU584
 2401 0008 1846     		mov	r0, r3
 2402              	.LVL207:
 485:Drivers/lvgl/src/misc/lv_anim.c **** }
 2403              		.loc 1 485 12 discriminator 4 view .LVU585
 2404 000a FFF7FEFF 		bl	lv_anim_delete
 2405              	.LVL208:
 486:Drivers/lvgl/src/misc/lv_anim.c **** 
 2406              		.loc 1 486 1 view .LVU586
 2407 000e 08BD     		pop	{r3, pc}
 2408              		.cfi_endproc
 2409              	.LFE231:
 2411              		.section	.text.lv_anim_custom_get,"ax",%progbits
 2412              		.align	1
 2413              		.global	lv_anim_custom_get
 2414              		.syntax unified
 2415              		.thumb
 2416              		.thumb_func
 2418              	lv_anim_custom_get:
 2419              	.LVL209:
 2420              	.LFB232:
 489:Drivers/lvgl/src/misc/lv_anim.c ****     return lv_anim_get(a ? a->var : NULL, (lv_anim_exec_xcb_t)exec_cb);
 2421              		.loc 1 489 1 is_stmt 1 view -0
 2422              		.cfi_startproc
 2423              		@ args = 0, pretend = 0, frame = 0
 2424              		@ frame_needed = 0, uses_anonymous_args = 0
 489:Drivers/lvgl/src/misc/lv_anim.c ****     return lv_anim_get(a ? a->var : NULL, (lv_anim_exec_xcb_t)exec_cb);
 2425              		.loc 1 489 1 is_stmt 0 view .LVU588
 2426 0000 08B5     		push	{r3, lr}
 2427              	.LCFI39:
 2428              		.cfi_def_cfa_offset 8
 2429              		.cfi_offset 3, -8
 2430              		.cfi_offset 14, -4
 490:Drivers/lvgl/src/misc/lv_anim.c **** }
 2431              		.loc 1 490 5 is_stmt 1 view .LVU589
 490:Drivers/lvgl/src/misc/lv_anim.c **** }
 2432              		.loc 1 490 12 is_stmt 0 view .LVU590
 2433 0002 0346     		mov	r3, r0
 2434 0004 00B1     		cbz	r0, .L160
 490:Drivers/lvgl/src/misc/lv_anim.c **** }
 2435              		.loc 1 490 12 discriminator 1 view .LVU591
 2436 0006 0368     		ldr	r3, [r0]
 2437              	.L160:
 490:Drivers/lvgl/src/misc/lv_anim.c **** }
 2438              		.loc 1 490 12 discriminator 4 view .LVU592
 2439 0008 1846     		mov	r0, r3
 2440              	.LVL210:
 490:Drivers/lvgl/src/misc/lv_anim.c **** }
 2441              		.loc 1 490 12 discriminator 4 view .LVU593
 2442 000a FFF7FEFF 		bl	lv_anim_get
 2443              	.LVL211:
 491:Drivers/lvgl/src/misc/lv_anim.c **** 
 2444              		.loc 1 491 1 view .LVU594
 2445 000e 08BD     		pop	{r3, pc}
 2446              		.cfi_endproc
 2447              	.LFE232:
 2449              		.section	.text.lv_anim_resolve_speed,"ax",%progbits
ARM GAS  /tmp/ccoBJvOw.s 			page 67


 2450              		.align	1
 2451              		.global	lv_anim_resolve_speed
 2452              		.syntax unified
 2453              		.thumb
 2454              		.thumb_func
 2456              	lv_anim_resolve_speed:
 2457              	.LVL212:
 2458              	.LFB233:
 494:Drivers/lvgl/src/misc/lv_anim.c ****     /*It was a simple time*/
 2459              		.loc 1 494 1 is_stmt 1 view -0
 2460              		.cfi_startproc
 2461              		@ args = 0, pretend = 0, frame = 0
 2462              		@ frame_needed = 0, uses_anonymous_args = 0
 2463              		@ link register save eliminated.
 496:Drivers/lvgl/src/misc/lv_anim.c **** 
 2464              		.loc 1 496 5 view .LVU596
 496:Drivers/lvgl/src/misc/lv_anim.c **** 
 2465              		.loc 1 496 7 is_stmt 0 view .LVU597
 2466 0000 0028     		cmp	r0, #0
 496:Drivers/lvgl/src/misc/lv_anim.c **** 
 2467              		.loc 1 496 7 view .LVU598
 2468 0002 1ADA     		bge	.L162
 498:Drivers/lvgl/src/misc/lv_anim.c ****     uint32_t speed = speed_or_time & 0x3FF;
 2469              		.loc 1 498 5 is_stmt 1 view .LVU599
 498:Drivers/lvgl/src/misc/lv_anim.c ****     uint32_t speed = speed_or_time & 0x3FF;
 2470              		.loc 1 498 21 is_stmt 0 view .LVU600
 2471 0004 891A     		subs	r1, r1, r2
 2472              	.LVL213:
 498:Drivers/lvgl/src/misc/lv_anim.c ****     uint32_t speed = speed_or_time & 0x3FF;
 2473              		.loc 1 498 21 view .LVU601
 2474 0006 0029     		cmp	r1, #0
 2475 0008 B8BF     		it	lt
 2476 000a 4942     		rsblt	r1, r1, #0
 2477              	.LVL214:
 499:Drivers/lvgl/src/misc/lv_anim.c ****     uint32_t time = (d * 100) / speed; /*Speed is in 10 units per sec*/
 2478              		.loc 1 499 5 is_stmt 1 view .LVU602
 499:Drivers/lvgl/src/misc/lv_anim.c ****     uint32_t time = (d * 100) / speed; /*Speed is in 10 units per sec*/
 2479              		.loc 1 499 14 is_stmt 0 view .LVU603
 2480 000c C0F30903 		ubfx	r3, r0, #0, #10
 2481              	.LVL215:
 500:Drivers/lvgl/src/misc/lv_anim.c ****     uint32_t max_time = (speed_or_time >> 20) & 0x3FF;
 2482              		.loc 1 500 5 is_stmt 1 view .LVU604
 500:Drivers/lvgl/src/misc/lv_anim.c ****     uint32_t max_time = (speed_or_time >> 20) & 0x3FF;
 2483              		.loc 1 500 24 is_stmt 0 view .LVU605
 2484 0010 6422     		movs	r2, #100
 2485              	.LVL216:
 500:Drivers/lvgl/src/misc/lv_anim.c ****     uint32_t max_time = (speed_or_time >> 20) & 0x3FF;
 2486              		.loc 1 500 24 view .LVU606
 2487 0012 02FB01F1 		mul	r1, r2, r1
 2488              	.LVL217:
 500:Drivers/lvgl/src/misc/lv_anim.c ****     uint32_t max_time = (speed_or_time >> 20) & 0x3FF;
 2489              		.loc 1 500 14 view .LVU607
 2490 0016 B1FBF3F1 		udiv	r1, r1, r3
 2491              	.LVL218:
 501:Drivers/lvgl/src/misc/lv_anim.c ****     uint32_t min_time = (speed_or_time >> 10) & 0x3FF;
 2492              		.loc 1 501 5 is_stmt 1 view .LVU608
 501:Drivers/lvgl/src/misc/lv_anim.c ****     uint32_t min_time = (speed_or_time >> 10) & 0x3FF;
ARM GAS  /tmp/ccoBJvOw.s 			page 68


 2493              		.loc 1 501 14 is_stmt 0 view .LVU609
 2494 001a C0F30952 		ubfx	r2, r0, #20, #10
 2495              	.LVL219:
 502:Drivers/lvgl/src/misc/lv_anim.c **** 
 2496              		.loc 1 502 5 is_stmt 1 view .LVU610
 502:Drivers/lvgl/src/misc/lv_anim.c **** 
 2497              		.loc 1 502 14 is_stmt 0 view .LVU611
 2498 001e C0F38923 		ubfx	r3, r0, #10, #10
 2499              	.LVL220:
 504:Drivers/lvgl/src/misc/lv_anim.c **** }
 2500              		.loc 1 504 5 is_stmt 1 view .LVU612
 504:Drivers/lvgl/src/misc/lv_anim.c **** }
 2501              		.loc 1 504 12 is_stmt 0 view .LVU613
 2502 0022 02EB8202 		add	r2, r2, r2, lsl #2
 2503              	.LVL221:
 504:Drivers/lvgl/src/misc/lv_anim.c **** }
 2504              		.loc 1 504 12 view .LVU614
 2505 0026 5000     		lsls	r0, r2, #1
 2506              	.LVL222:
 504:Drivers/lvgl/src/misc/lv_anim.c **** }
 2507              		.loc 1 504 12 view .LVU615
 2508 0028 8842     		cmp	r0, r1
 2509              	.LVL223:
 504:Drivers/lvgl/src/misc/lv_anim.c **** }
 2510              		.loc 1 504 12 view .LVU616
 2511 002a 28BF     		it	cs
 2512 002c 0846     		movcs	r0, r1
 2513 002e 03EB8303 		add	r3, r3, r3, lsl #2
 2514              	.LVL224:
 504:Drivers/lvgl/src/misc/lv_anim.c **** }
 2515              		.loc 1 504 12 view .LVU617
 2516 0032 5B00     		lsls	r3, r3, #1
 2517 0034 9842     		cmp	r0, r3
 2518 0036 38BF     		it	cc
 2519 0038 1846     		movcc	r0, r3
 2520              	.LVL225:
 2521              	.L162:
 505:Drivers/lvgl/src/misc/lv_anim.c **** 
 2522              		.loc 1 505 1 view .LVU618
 2523 003a 7047     		bx	lr
 2524              		.cfi_endproc
 2525              	.LFE233:
 2527              		.section	.text.resolve_time,"ax",%progbits
 2528              		.align	1
 2529              		.syntax unified
 2530              		.thumb
 2531              		.thumb_func
 2533              	resolve_time:
 2534              	.LVL226:
 2535              	.LFB243:
 717:Drivers/lvgl/src/misc/lv_anim.c ****     a->duration = lv_anim_resolve_speed(a->duration, a->start_value, a->end_value);
 2536              		.loc 1 717 1 is_stmt 1 view -0
 2537              		.cfi_startproc
 2538              		@ args = 0, pretend = 0, frame = 0
 2539              		@ frame_needed = 0, uses_anonymous_args = 0
 717:Drivers/lvgl/src/misc/lv_anim.c ****     a->duration = lv_anim_resolve_speed(a->duration, a->start_value, a->end_value);
 2540              		.loc 1 717 1 is_stmt 0 view .LVU620
ARM GAS  /tmp/ccoBJvOw.s 			page 69


 2541 0000 70B5     		push	{r4, r5, r6, lr}
 2542              	.LCFI40:
 2543              		.cfi_def_cfa_offset 16
 2544              		.cfi_offset 4, -16
 2545              		.cfi_offset 5, -12
 2546              		.cfi_offset 6, -8
 2547              		.cfi_offset 14, -4
 2548 0002 0446     		mov	r4, r0
 718:Drivers/lvgl/src/misc/lv_anim.c ****     a->reverse_duration = lv_anim_resolve_speed(a->reverse_duration, a->start_value, a->end_value);
 2549              		.loc 1 718 5 is_stmt 1 view .LVU621
 718:Drivers/lvgl/src/misc/lv_anim.c ****     a->reverse_duration = lv_anim_resolve_speed(a->reverse_duration, a->start_value, a->end_value);
 2550              		.loc 1 718 19 is_stmt 0 view .LVU622
 2551 0004 456A     		ldr	r5, [r0, #36]
 2552 0006 C66A     		ldr	r6, [r0, #44]
 2553 0008 3246     		mov	r2, r6
 2554 000a 2946     		mov	r1, r5
 2555 000c 006B     		ldr	r0, [r0, #48]
 2556              	.LVL227:
 718:Drivers/lvgl/src/misc/lv_anim.c ****     a->reverse_duration = lv_anim_resolve_speed(a->reverse_duration, a->start_value, a->end_value);
 2557              		.loc 1 718 19 view .LVU623
 2558 000e FFF7FEFF 		bl	lv_anim_resolve_speed
 2559              	.LVL228:
 718:Drivers/lvgl/src/misc/lv_anim.c ****     a->reverse_duration = lv_anim_resolve_speed(a->reverse_duration, a->start_value, a->end_value);
 2560              		.loc 1 718 17 discriminator 1 view .LVU624
 2561 0012 2063     		str	r0, [r4, #48]
 719:Drivers/lvgl/src/misc/lv_anim.c ****     a->reverse_delay = lv_anim_resolve_speed(a->reverse_delay, a->start_value, a->end_value);
 2562              		.loc 1 719 5 is_stmt 1 view .LVU625
 719:Drivers/lvgl/src/misc/lv_anim.c ****     a->reverse_delay = lv_anim_resolve_speed(a->reverse_delay, a->start_value, a->end_value);
 2563              		.loc 1 719 27 is_stmt 0 view .LVU626
 2564 0014 3246     		mov	r2, r6
 2565 0016 2946     		mov	r1, r5
 2566 0018 E06B     		ldr	r0, [r4, #60]
 2567 001a FFF7FEFF 		bl	lv_anim_resolve_speed
 2568              	.LVL229:
 719:Drivers/lvgl/src/misc/lv_anim.c ****     a->reverse_delay = lv_anim_resolve_speed(a->reverse_delay, a->start_value, a->end_value);
 2569              		.loc 1 719 25 discriminator 1 view .LVU627
 2570 001e E063     		str	r0, [r4, #60]
 720:Drivers/lvgl/src/misc/lv_anim.c ****     a->repeat_delay = lv_anim_resolve_speed(a->repeat_delay, a->start_value, a->end_value);
 2571              		.loc 1 720 5 is_stmt 1 view .LVU628
 720:Drivers/lvgl/src/misc/lv_anim.c ****     a->repeat_delay = lv_anim_resolve_speed(a->repeat_delay, a->start_value, a->end_value);
 2572              		.loc 1 720 24 is_stmt 0 view .LVU629
 2573 0020 3246     		mov	r2, r6
 2574 0022 2946     		mov	r1, r5
 2575 0024 A06B     		ldr	r0, [r4, #56]
 2576 0026 FFF7FEFF 		bl	lv_anim_resolve_speed
 2577              	.LVL230:
 720:Drivers/lvgl/src/misc/lv_anim.c ****     a->repeat_delay = lv_anim_resolve_speed(a->repeat_delay, a->start_value, a->end_value);
 2578              		.loc 1 720 22 discriminator 1 view .LVU630
 2579 002a A063     		str	r0, [r4, #56]
 721:Drivers/lvgl/src/misc/lv_anim.c **** }
 2580              		.loc 1 721 5 is_stmt 1 view .LVU631
 721:Drivers/lvgl/src/misc/lv_anim.c **** }
 2581              		.loc 1 721 23 is_stmt 0 view .LVU632
 2582 002c 3246     		mov	r2, r6
 2583 002e 2946     		mov	r1, r5
 2584 0030 206C     		ldr	r0, [r4, #64]
 2585 0032 FFF7FEFF 		bl	lv_anim_resolve_speed
ARM GAS  /tmp/ccoBJvOw.s 			page 70


 2586              	.LVL231:
 721:Drivers/lvgl/src/misc/lv_anim.c **** }
 2587              		.loc 1 721 21 discriminator 1 view .LVU633
 2588 0036 2064     		str	r0, [r4, #64]
 722:Drivers/lvgl/src/misc/lv_anim.c **** 
 2589              		.loc 1 722 1 view .LVU634
 2590 0038 70BD     		pop	{r4, r5, r6, pc}
 722:Drivers/lvgl/src/misc/lv_anim.c **** 
 2591              		.loc 1 722 1 view .LVU635
 2592              		.cfi_endproc
 2593              	.LFE243:
 2595              		.section	.text.anim_timer,"ax",%progbits
 2596              		.align	1
 2597              		.syntax unified
 2598              		.thumb
 2599              		.thumb_func
 2601              	anim_timer:
 2602              	.LVL232:
 2603              	.LFB238:
 542:Drivers/lvgl/src/misc/lv_anim.c ****     LV_UNUSED(param);
 2604              		.loc 1 542 1 is_stmt 1 view -0
 2605              		.cfi_startproc
 2606              		@ args = 0, pretend = 0, frame = 0
 2607              		@ frame_needed = 0, uses_anonymous_args = 0
 542:Drivers/lvgl/src/misc/lv_anim.c ****     LV_UNUSED(param);
 2608              		.loc 1 542 1 is_stmt 0 view .LVU637
 2609 0000 F8B5     		push	{r3, r4, r5, r6, r7, lr}
 2610              	.LCFI41:
 2611              		.cfi_def_cfa_offset 24
 2612              		.cfi_offset 3, -24
 2613              		.cfi_offset 4, -20
 2614              		.cfi_offset 5, -16
 2615              		.cfi_offset 6, -12
 2616              		.cfi_offset 7, -8
 2617              		.cfi_offset 14, -4
 543:Drivers/lvgl/src/misc/lv_anim.c **** 
 2618              		.loc 1 543 5 is_stmt 1 view .LVU638
 546:Drivers/lvgl/src/misc/lv_anim.c **** 
 2619              		.loc 1 546 5 view .LVU639
 546:Drivers/lvgl/src/misc/lv_anim.c **** 
 2620              		.loc 1 546 33 is_stmt 0 view .LVU640
 2621 0002 5B48     		ldr	r0, .L187
 2622              	.LVL233:
 546:Drivers/lvgl/src/misc/lv_anim.c **** 
 2623              		.loc 1 546 33 view .LVU641
 2624 0004 90F8A530 		ldrb	r3, [r0, #165]	@ zero_extendqisi2
 546:Drivers/lvgl/src/misc/lv_anim.c **** 
 2625              		.loc 1 546 5 view .LVU642
 2626 0008 83F00103 		eor	r3, r3, #1
 546:Drivers/lvgl/src/misc/lv_anim.c **** 
 2627              		.loc 1 546 26 view .LVU643
 2628 000c 80F8A530 		strb	r3, [r0, #165]
 548:Drivers/lvgl/src/misc/lv_anim.c ****     while(a != NULL) {
 2629              		.loc 1 548 5 is_stmt 1 view .LVU644
 548:Drivers/lvgl/src/misc/lv_anim.c ****     while(a != NULL) {
 2630              		.loc 1 548 21 is_stmt 0 view .LVU645
 2631 0010 AC30     		adds	r0, r0, #172
ARM GAS  /tmp/ccoBJvOw.s 			page 71


 2632 0012 FFF7FEFF 		bl	lv_ll_get_head
 2633              	.LVL234:
 2634 0016 0446     		mov	r4, r0
 2635              	.LVL235:
 549:Drivers/lvgl/src/misc/lv_anim.c ****         uint32_t elaps = lv_tick_elaps(a->last_timer_run);
 2636              		.loc 1 549 5 is_stmt 1 view .LVU646
 549:Drivers/lvgl/src/misc/lv_anim.c ****         uint32_t elaps = lv_tick_elaps(a->last_timer_run);
 2637              		.loc 1 549 10 is_stmt 0 view .LVU647
 2638 0018 60E0     		b	.L168
 2639              	.LVL236:
 2640              	.L186:
 2641              	.LBB13:
 2642              	.LBB14:
 553:Drivers/lvgl/src/misc/lv_anim.c ****             const bool is_pause_over = a->pause_duration != LV_ANIM_PAUSE_FOREVER && time_paused >=
 2643              		.loc 1 553 13 is_stmt 1 view .LVU648
 553:Drivers/lvgl/src/misc/lv_anim.c ****             const bool is_pause_over = a->pause_duration != LV_ANIM_PAUSE_FOREVER && time_paused >=
 2644              		.loc 1 553 42 is_stmt 0 view .LVU649
 2645 001a 606D     		ldr	r0, [r4, #84]
 2646              	.LVL237:
 553:Drivers/lvgl/src/misc/lv_anim.c ****             const bool is_pause_over = a->pause_duration != LV_ANIM_PAUSE_FOREVER && time_paused >=
 2647              		.loc 1 553 42 view .LVU650
 2648 001c FFF7FEFF 		bl	lv_tick_elaps
 2649              	.LVL238:
 554:Drivers/lvgl/src/misc/lv_anim.c **** 
 2650              		.loc 1 554 13 is_stmt 1 view .LVU651
 554:Drivers/lvgl/src/misc/lv_anim.c **** 
 2651              		.loc 1 554 41 is_stmt 0 view .LVU652
 2652 0020 A36D     		ldr	r3, [r4, #88]
 554:Drivers/lvgl/src/misc/lv_anim.c **** 
 2653              		.loc 1 554 83 view .LVU653
 2654 0022 B3F1FF3F 		cmp	r3, #-1
 2655 0026 66D0     		beq	.L170
 554:Drivers/lvgl/src/misc/lv_anim.c **** 
 2656              		.loc 1 554 83 discriminator 1 view .LVU654
 2657 0028 8342     		cmp	r3, r0
 2658 002a 64D8     		bhi	.L170
 2659              	.LVL239:
 556:Drivers/lvgl/src/misc/lv_anim.c ****                 const uint32_t pause_overrun = time_paused - a->pause_duration;
 2660              		.loc 1 556 13 is_stmt 1 view .LVU655
 2661              	.LBB15:
 557:Drivers/lvgl/src/misc/lv_anim.c ****                 a->is_paused = false;
 2662              		.loc 1 557 17 view .LVU656
 557:Drivers/lvgl/src/misc/lv_anim.c ****                 a->is_paused = false;
 2663              		.loc 1 557 32 is_stmt 0 view .LVU657
 2664 002c C01A     		subs	r0, r0, r3
 2665              	.LVL240:
 558:Drivers/lvgl/src/misc/lv_anim.c ****                 a->act_time += pause_overrun;
 2666              		.loc 1 558 17 is_stmt 1 view .LVU658
 558:Drivers/lvgl/src/misc/lv_anim.c ****                 a->act_time += pause_overrun;
 2667              		.loc 1 558 30 is_stmt 0 view .LVU659
 2668 002e 94F85C30 		ldrb	r3, [r4, #92]	@ zero_extendqisi2
 2669 0032 23F00103 		bic	r3, r3, #1
 2670 0036 84F85C30 		strb	r3, [r4, #92]
 559:Drivers/lvgl/src/misc/lv_anim.c ****                 a->run_round = !state.anim_run_round;
 2671              		.loc 1 559 17 is_stmt 1 view .LVU660
 559:Drivers/lvgl/src/misc/lv_anim.c ****                 a->run_round = !state.anim_run_round;
 2672              		.loc 1 559 18 is_stmt 0 view .LVU661
ARM GAS  /tmp/ccoBJvOw.s 			page 72


 2673 003a 636B     		ldr	r3, [r4, #52]
 559:Drivers/lvgl/src/misc/lv_anim.c ****                 a->run_round = !state.anim_run_round;
 2674              		.loc 1 559 29 view .LVU662
 2675 003c 0344     		add	r3, r3, r0
 2676 003e 6363     		str	r3, [r4, #52]
 560:Drivers/lvgl/src/misc/lv_anim.c ****             }
 2677              		.loc 1 560 17 is_stmt 1 view .LVU663
 560:Drivers/lvgl/src/misc/lv_anim.c ****             }
 2678              		.loc 1 560 38 is_stmt 0 view .LVU664
 2679 0040 4B4B     		ldr	r3, .L187
 2680 0042 93F8A530 		ldrb	r3, [r3, #165]	@ zero_extendqisi2
 560:Drivers/lvgl/src/misc/lv_anim.c ****             }
 2681              		.loc 1 560 32 view .LVU665
 2682 0046 83F00103 		eor	r3, r3, #1
 560:Drivers/lvgl/src/misc/lv_anim.c ****             }
 2683              		.loc 1 560 30 view .LVU666
 2684 004a 94F85C20 		ldrb	r2, [r4, #92]	@ zero_extendqisi2
 2685 004e 63F38202 		bfi	r2, r3, #2, #1
 2686 0052 84F85C20 		strb	r2, [r4, #92]
 2687 0056 4EE0     		b	.L170
 2688              	.LVL241:
 2689              	.L173:
 560:Drivers/lvgl/src/misc/lv_anim.c ****             }
 2690              		.loc 1 560 30 view .LVU667
 2691              	.LBE15:
 2692              	.LBE14:
 585:Drivers/lvgl/src/misc/lv_anim.c **** 
 2693              		.loc 1 585 17 is_stmt 1 view .LVU668
 2694 0058 2046     		mov	r0, r4
 2695 005a FFF7FEFF 		bl	resolve_time
 2696              	.LVL242:
 587:Drivers/lvgl/src/misc/lv_anim.c ****                 a->start_cb_called = 1;
 2697              		.loc 1 587 17 view .LVU669
 587:Drivers/lvgl/src/misc/lv_anim.c ****                 a->start_cb_called = 1;
 2698              		.loc 1 587 21 is_stmt 0 view .LVU670
 2699 005e E368     		ldr	r3, [r4, #12]
 587:Drivers/lvgl/src/misc/lv_anim.c ****                 a->start_cb_called = 1;
 2700              		.loc 1 587 19 view .LVU671
 2701 0060 0BB1     		cbz	r3, .L174
 587:Drivers/lvgl/src/misc/lv_anim.c ****                 a->start_cb_called = 1;
 2702              		.loc 1 587 33 is_stmt 1 discriminator 1 view .LVU672
 2703 0062 2046     		mov	r0, r4
 2704 0064 9847     		blx	r3
 2705              	.LVL243:
 2706              	.L174:
 588:Drivers/lvgl/src/misc/lv_anim.c **** 
 2707              		.loc 1 588 17 view .LVU673
 588:Drivers/lvgl/src/misc/lv_anim.c **** 
 2708              		.loc 1 588 36 is_stmt 0 view .LVU674
 2709 0066 94F85C30 		ldrb	r3, [r4, #92]	@ zero_extendqisi2
 2710 006a 43F00803 		orr	r3, r3, #8
 2711 006e 84F85C30 		strb	r3, [r4, #92]
 591:Drivers/lvgl/src/misc/lv_anim.c ****             }
 2712              		.loc 1 591 17 is_stmt 1 view .LVU675
 2713 0072 2046     		mov	r0, r4
 2714 0074 FFF7FEFF 		bl	remove_concurrent_anims
 2715              	.LVL244:
ARM GAS  /tmp/ccoBJvOw.s 			page 73


 2716              	.L172:
 594:Drivers/lvgl/src/misc/lv_anim.c ****                 int32_t act_time_original = a->act_time; /*The unclipped version is used later to c
 2717              		.loc 1 594 13 view .LVU676
 594:Drivers/lvgl/src/misc/lv_anim.c ****                 int32_t act_time_original = a->act_time; /*The unclipped version is used later to c
 2718              		.loc 1 594 17 is_stmt 0 view .LVU677
 2719 0078 666B     		ldr	r6, [r4, #52]
 594:Drivers/lvgl/src/misc/lv_anim.c ****                 int32_t act_time_original = a->act_time; /*The unclipped version is used later to c
 2720              		.loc 1 594 15 view .LVU678
 2721 007a 002E     		cmp	r6, #0
 2722 007c 25DB     		blt	.L171
 2723              	.LBB16:
 595:Drivers/lvgl/src/misc/lv_anim.c ****                 if(a->act_time > a->duration) a->act_time = a->duration;
 2724              		.loc 1 595 17 is_stmt 1 view .LVU679
 2725              	.LVL245:
 596:Drivers/lvgl/src/misc/lv_anim.c **** 
 2726              		.loc 1 596 17 view .LVU680
 596:Drivers/lvgl/src/misc/lv_anim.c **** 
 2727              		.loc 1 596 35 is_stmt 0 view .LVU681
 2728 007e 236B     		ldr	r3, [r4, #48]
 596:Drivers/lvgl/src/misc/lv_anim.c **** 
 2729              		.loc 1 596 19 view .LVU682
 2730 0080 9E42     		cmp	r6, r3
 2731 0082 00DD     		ble	.L175
 596:Drivers/lvgl/src/misc/lv_anim.c **** 
 2732              		.loc 1 596 47 is_stmt 1 discriminator 1 view .LVU683
 596:Drivers/lvgl/src/misc/lv_anim.c **** 
 2733              		.loc 1 596 59 is_stmt 0 discriminator 1 view .LVU684
 2734 0084 6363     		str	r3, [r4, #52]
 2735              	.L175:
 598:Drivers/lvgl/src/misc/lv_anim.c ****                 int32_t new_value;
 2736              		.loc 1 598 17 is_stmt 1 view .LVU685
 598:Drivers/lvgl/src/misc/lv_anim.c ****                 int32_t new_value;
 2737              		.loc 1 598 25 is_stmt 0 view .LVU686
 2738 0086 676B     		ldr	r7, [r4, #52]
 2739              	.LVL246:
 599:Drivers/lvgl/src/misc/lv_anim.c ****                 new_value = a->path_cb(a);
 2740              		.loc 1 599 17 is_stmt 1 view .LVU687
 600:Drivers/lvgl/src/misc/lv_anim.c **** 
 2741              		.loc 1 600 17 view .LVU688
 600:Drivers/lvgl/src/misc/lv_anim.c **** 
 2742              		.loc 1 600 30 is_stmt 0 view .LVU689
 2743 0088 236A     		ldr	r3, [r4, #32]
 600:Drivers/lvgl/src/misc/lv_anim.c **** 
 2744              		.loc 1 600 29 view .LVU690
 2745 008a 2046     		mov	r0, r4
 2746 008c 9847     		blx	r3
 2747              	.LVL247:
 2748 008e 0546     		mov	r5, r0
 2749              	.LVL248:
 602:Drivers/lvgl/src/misc/lv_anim.c ****                     a->current_value = new_value;
 2750              		.loc 1 602 17 is_stmt 1 view .LVU691
 602:Drivers/lvgl/src/misc/lv_anim.c ****                     a->current_value = new_value;
 2751              		.loc 1 602 34 is_stmt 0 view .LVU692
 2752 0090 A36A     		ldr	r3, [r4, #40]
 602:Drivers/lvgl/src/misc/lv_anim.c ****                     a->current_value = new_value;
 2753              		.loc 1 602 19 view .LVU693
 2754 0092 8342     		cmp	r3, r0
ARM GAS  /tmp/ccoBJvOw.s 			page 74


 2755 0094 0ED0     		beq	.L176
 603:Drivers/lvgl/src/misc/lv_anim.c ****                     /*Apply the calculated value*/
 2756              		.loc 1 603 21 is_stmt 1 view .LVU694
 603:Drivers/lvgl/src/misc/lv_anim.c ****                     /*Apply the calculated value*/
 2757              		.loc 1 603 38 is_stmt 0 view .LVU695
 2758 0096 A062     		str	r0, [r4, #40]
 605:Drivers/lvgl/src/misc/lv_anim.c ****                     if(!state.anim_list_changed && a->custom_exec_cb) a->custom_exec_cb(a, new_valu
 2759              		.loc 1 605 21 is_stmt 1 view .LVU696
 605:Drivers/lvgl/src/misc/lv_anim.c ****                     if(!state.anim_list_changed && a->custom_exec_cb) a->custom_exec_cb(a, new_valu
 2760              		.loc 1 605 25 is_stmt 0 view .LVU697
 2761 0098 6368     		ldr	r3, [r4, #4]
 605:Drivers/lvgl/src/misc/lv_anim.c ****                     if(!state.anim_list_changed && a->custom_exec_cb) a->custom_exec_cb(a, new_valu
 2762              		.loc 1 605 23 view .LVU698
 2763 009a 13B1     		cbz	r3, .L177
 605:Drivers/lvgl/src/misc/lv_anim.c ****                     if(!state.anim_list_changed && a->custom_exec_cb) a->custom_exec_cb(a, new_valu
 2764              		.loc 1 605 36 is_stmt 1 discriminator 1 view .LVU699
 2765 009c 0146     		mov	r1, r0
 2766 009e 2068     		ldr	r0, [r4]
 2767              	.LVL249:
 605:Drivers/lvgl/src/misc/lv_anim.c ****                     if(!state.anim_list_changed && a->custom_exec_cb) a->custom_exec_cb(a, new_valu
 2768              		.loc 1 605 36 is_stmt 0 discriminator 1 view .LVU700
 2769 00a0 9847     		blx	r3
 2770              	.LVL250:
 2771              	.L177:
 606:Drivers/lvgl/src/misc/lv_anim.c ****                 }
 2772              		.loc 1 606 21 is_stmt 1 view .LVU701
 606:Drivers/lvgl/src/misc/lv_anim.c ****                 }
 2773              		.loc 1 606 30 is_stmt 0 view .LVU702
 2774 00a2 334B     		ldr	r3, .L187
 2775 00a4 93F8A430 		ldrb	r3, [r3, #164]	@ zero_extendqisi2
 606:Drivers/lvgl/src/misc/lv_anim.c ****                 }
 2776              		.loc 1 606 23 view .LVU703
 2777 00a8 23B9     		cbnz	r3, .L176
 606:Drivers/lvgl/src/misc/lv_anim.c ****                 }
 2778              		.loc 1 606 53 discriminator 1 view .LVU704
 2779 00aa A368     		ldr	r3, [r4, #8]
 606:Drivers/lvgl/src/misc/lv_anim.c ****                 }
 2780              		.loc 1 606 49 discriminator 1 view .LVU705
 2781 00ac 13B1     		cbz	r3, .L176
 606:Drivers/lvgl/src/misc/lv_anim.c ****                 }
 2782              		.loc 1 606 71 is_stmt 1 discriminator 2 view .LVU706
 2783 00ae 2946     		mov	r1, r5
 2784 00b0 2046     		mov	r0, r4
 2785 00b2 9847     		blx	r3
 2786              	.LVL251:
 2787              	.L176:
 609:Drivers/lvgl/src/misc/lv_anim.c ****                     /*Restore the original time to see is there is over time.
 2788              		.loc 1 609 17 view .LVU707
 609:Drivers/lvgl/src/misc/lv_anim.c ****                     /*Restore the original time to see is there is over time.
 2789              		.loc 1 609 26 is_stmt 0 view .LVU708
 2790 00b4 2E4B     		ldr	r3, .L187
 2791 00b6 93F8A430 		ldrb	r3, [r3, #164]	@ zero_extendqisi2
 609:Drivers/lvgl/src/misc/lv_anim.c ****                     /*Restore the original time to see is there is over time.
 2792              		.loc 1 609 19 view .LVU709
 2793 00ba 33B9     		cbnz	r3, .L171
 612:Drivers/lvgl/src/misc/lv_anim.c **** 
 2794              		.loc 1 612 21 is_stmt 1 view .LVU710
ARM GAS  /tmp/ccoBJvOw.s 			page 75


 612:Drivers/lvgl/src/misc/lv_anim.c **** 
 2795              		.loc 1 612 25 is_stmt 0 view .LVU711
 2796 00bc 636B     		ldr	r3, [r4, #52]
 612:Drivers/lvgl/src/misc/lv_anim.c **** 
 2797              		.loc 1 612 23 view .LVU712
 2798 00be BB42     		cmp	r3, r7
 2799 00c0 48D0     		beq	.L183
 2800              	.L178:
 615:Drivers/lvgl/src/misc/lv_anim.c ****                         anim_completed_handler(a);
 2801              		.loc 1 615 21 is_stmt 1 view .LVU713
 615:Drivers/lvgl/src/misc/lv_anim.c ****                         anim_completed_handler(a);
 2802              		.loc 1 615 25 is_stmt 0 view .LVU714
 2803 00c2 626B     		ldr	r2, [r4, #52]
 615:Drivers/lvgl/src/misc/lv_anim.c ****                         anim_completed_handler(a);
 2804              		.loc 1 615 40 view .LVU715
 2805 00c4 236B     		ldr	r3, [r4, #48]
 615:Drivers/lvgl/src/misc/lv_anim.c ****                         anim_completed_handler(a);
 2806              		.loc 1 615 23 view .LVU716
 2807 00c6 9A42     		cmp	r2, r3
 2808 00c8 46DA     		bge	.L184
 2809              	.LVL252:
 2810              	.L171:
 615:Drivers/lvgl/src/misc/lv_anim.c ****                         anim_completed_handler(a);
 2811              		.loc 1 615 23 view .LVU717
 2812              	.LBE16:
 624:Drivers/lvgl/src/misc/lv_anim.c ****             a = lv_ll_get_head(anim_ll_p);
 2813              		.loc 1 624 9 is_stmt 1 view .LVU718
 624:Drivers/lvgl/src/misc/lv_anim.c ****             a = lv_ll_get_head(anim_ll_p);
 2814              		.loc 1 624 17 is_stmt 0 view .LVU719
 2815 00ca 294B     		ldr	r3, .L187
 2816 00cc 93F8A430 		ldrb	r3, [r3, #164]	@ zero_extendqisi2
 624:Drivers/lvgl/src/misc/lv_anim.c ****             a = lv_ll_get_head(anim_ll_p);
 2817              		.loc 1 624 11 view .LVU720
 2818 00d0 002B     		cmp	r3, #0
 2819 00d2 45D0     		beq	.L179
 625:Drivers/lvgl/src/misc/lv_anim.c ****         else
 2820              		.loc 1 625 13 is_stmt 1 view .LVU721
 625:Drivers/lvgl/src/misc/lv_anim.c ****         else
 2821              		.loc 1 625 17 is_stmt 0 view .LVU722
 2822 00d4 2748     		ldr	r0, .L187+4
 2823 00d6 FFF7FEFF 		bl	lv_ll_get_head
 2824              	.LVL253:
 2825 00da 0446     		mov	r4, r0
 2826              	.LVL254:
 2827              	.L168:
 625:Drivers/lvgl/src/misc/lv_anim.c ****         else
 2828              		.loc 1 625 17 view .LVU723
 2829              	.LBE13:
 549:Drivers/lvgl/src/misc/lv_anim.c ****         uint32_t elaps = lv_tick_elaps(a->last_timer_run);
 2830              		.loc 1 549 13 is_stmt 1 view .LVU724
 2831 00dc 002C     		cmp	r4, #0
 2832 00de 45D0     		beq	.L185
 2833              	.LBB19:
 550:Drivers/lvgl/src/misc/lv_anim.c **** 
 2834              		.loc 1 550 9 view .LVU725
 550:Drivers/lvgl/src/misc/lv_anim.c **** 
 2835              		.loc 1 550 26 is_stmt 0 view .LVU726
ARM GAS  /tmp/ccoBJvOw.s 			page 76


 2836 00e0 206D     		ldr	r0, [r4, #80]
 2837 00e2 FFF7FEFF 		bl	lv_tick_elaps
 2838              	.LVL255:
 552:Drivers/lvgl/src/misc/lv_anim.c ****             const uint32_t time_paused = lv_tick_elaps(a->pause_time);
 2839              		.loc 1 552 9 is_stmt 1 view .LVU727
 552:Drivers/lvgl/src/misc/lv_anim.c ****             const uint32_t time_paused = lv_tick_elaps(a->pause_time);
 2840              		.loc 1 552 12 is_stmt 0 view .LVU728
 2841 00e6 94F85C30 		ldrb	r3, [r4, #92]	@ zero_extendqisi2
 552:Drivers/lvgl/src/misc/lv_anim.c ****             const uint32_t time_paused = lv_tick_elaps(a->pause_time);
 2842              		.loc 1 552 11 view .LVU729
 2843 00ea 13F0010F 		tst	r3, #1
 2844 00ee 94D1     		bne	.L186
 564:Drivers/lvgl/src/misc/lv_anim.c ****         }
 2845              		.loc 1 564 13 is_stmt 1 view .LVU730
 564:Drivers/lvgl/src/misc/lv_anim.c ****         }
 2846              		.loc 1 564 14 is_stmt 0 view .LVU731
 2847 00f0 636B     		ldr	r3, [r4, #52]
 564:Drivers/lvgl/src/misc/lv_anim.c ****         }
 2848              		.loc 1 564 25 view .LVU732
 2849 00f2 0344     		add	r3, r3, r0
 2850 00f4 6363     		str	r3, [r4, #52]
 2851              	.LVL256:
 2852              	.L170:
 566:Drivers/lvgl/src/misc/lv_anim.c **** 
 2853              		.loc 1 566 9 is_stmt 1 view .LVU733
 566:Drivers/lvgl/src/misc/lv_anim.c **** 
 2854              		.loc 1 566 29 is_stmt 0 view .LVU734
 2855 00f6 FFF7FEFF 		bl	lv_tick_get
 2856              	.LVL257:
 566:Drivers/lvgl/src/misc/lv_anim.c **** 
 2857              		.loc 1 566 27 discriminator 1 view .LVU735
 2858 00fa 2065     		str	r0, [r4, #80]
 572:Drivers/lvgl/src/misc/lv_anim.c **** 
 2859              		.loc 1 572 9 is_stmt 1 view .LVU736
 572:Drivers/lvgl/src/misc/lv_anim.c **** 
 2860              		.loc 1 572 33 is_stmt 0 view .LVU737
 2861 00fc 1C4B     		ldr	r3, .L187
 2862 00fe 0022     		movs	r2, #0
 2863 0100 83F8A420 		strb	r2, [r3, #164]
 574:Drivers/lvgl/src/misc/lv_anim.c ****             a->run_round = state.anim_run_round; /*The list readying might be reset so need to know
 2864              		.loc 1 574 9 is_stmt 1 view .LVU738
 574:Drivers/lvgl/src/misc/lv_anim.c ****             a->run_round = state.anim_run_round; /*The list readying might be reset so need to know
 2865              		.loc 1 574 12 is_stmt 0 view .LVU739
 2866 0104 94F85C30 		ldrb	r3, [r4, #92]	@ zero_extendqisi2
 574:Drivers/lvgl/src/misc/lv_anim.c ****             a->run_round = state.anim_run_round; /*The list readying might be reset so need to know
 2867              		.loc 1 574 11 view .LVU740
 2868 0108 13F0010F 		tst	r3, #1
 2869 010c DDD1     		bne	.L171
 574:Drivers/lvgl/src/misc/lv_anim.c ****             a->run_round = state.anim_run_round; /*The list readying might be reset so need to know
 2870              		.loc 1 574 30 discriminator 1 view .LVU741
 2871 010e C3F38003 		ubfx	r3, r3, #2, #1
 574:Drivers/lvgl/src/misc/lv_anim.c ****             a->run_round = state.anim_run_round; /*The list readying might be reset so need to know
 2872              		.loc 1 574 50 discriminator 1 view .LVU742
 2873 0112 174A     		ldr	r2, .L187
 2874 0114 92F8A520 		ldrb	r2, [r2, #165]	@ zero_extendqisi2
 574:Drivers/lvgl/src/misc/lv_anim.c ****             a->run_round = state.anim_run_round; /*The list readying might be reset so need to know
 2875              		.loc 1 574 26 discriminator 1 view .LVU743
ARM GAS  /tmp/ccoBJvOw.s 			page 77


 2876 0118 9342     		cmp	r3, r2
 2877 011a D6D0     		beq	.L171
 575:Drivers/lvgl/src/misc/lv_anim.c ****             /*The animation will run now for the first time. Call `start_cb`*/
 2878              		.loc 1 575 13 is_stmt 1 view .LVU744
 575:Drivers/lvgl/src/misc/lv_anim.c ****             /*The animation will run now for the first time. Call `start_cb`*/
 2879              		.loc 1 575 26 is_stmt 0 view .LVU745
 2880 011c 94F85C30 		ldrb	r3, [r4, #92]	@ zero_extendqisi2
 2881 0120 62F38203 		bfi	r3, r2, #2, #1
 2882 0124 84F85C30 		strb	r3, [r4, #92]
 577:Drivers/lvgl/src/misc/lv_anim.c **** 
 2883              		.loc 1 577 13 is_stmt 1 view .LVU746
 577:Drivers/lvgl/src/misc/lv_anim.c **** 
 2884              		.loc 1 577 16 is_stmt 0 view .LVU747
 2885 0128 DBB2     		uxtb	r3, r3
 577:Drivers/lvgl/src/misc/lv_anim.c **** 
 2886              		.loc 1 577 15 view .LVU748
 2887 012a 13F0080F 		tst	r3, #8
 2888 012e A3D1     		bne	.L172
 577:Drivers/lvgl/src/misc/lv_anim.c **** 
 2889              		.loc 1 577 40 discriminator 1 view .LVU749
 2890 0130 626B     		ldr	r2, [r4, #52]
 577:Drivers/lvgl/src/misc/lv_anim.c **** 
 2891              		.loc 1 577 36 discriminator 1 view .LVU750
 2892 0132 002A     		cmp	r2, #0
 2893 0134 A0DB     		blt	.L172
 579:Drivers/lvgl/src/misc/lv_anim.c ****                     int32_t v_ofs = a->get_value_cb(a);
 2894              		.loc 1 579 17 is_stmt 1 view .LVU751
 579:Drivers/lvgl/src/misc/lv_anim.c ****                     int32_t v_ofs = a->get_value_cb(a);
 2895              		.loc 1 579 19 is_stmt 0 view .LVU752
 2896 0136 13F0100F 		tst	r3, #16
 2897 013a 8DD1     		bne	.L173
 579:Drivers/lvgl/src/misc/lv_anim.c ****                     int32_t v_ofs = a->get_value_cb(a);
 2898              		.loc 1 579 44 discriminator 1 view .LVU753
 2899 013c A369     		ldr	r3, [r4, #24]
 579:Drivers/lvgl/src/misc/lv_anim.c ****                     int32_t v_ofs = a->get_value_cb(a);
 2900              		.loc 1 579 40 discriminator 1 view .LVU754
 2901 013e 002B     		cmp	r3, #0
 2902 0140 8AD0     		beq	.L173
 2903              	.LBB17:
 580:Drivers/lvgl/src/misc/lv_anim.c ****                     a->start_value += v_ofs;
 2904              		.loc 1 580 21 is_stmt 1 view .LVU755
 580:Drivers/lvgl/src/misc/lv_anim.c ****                     a->start_value += v_ofs;
 2905              		.loc 1 580 37 is_stmt 0 view .LVU756
 2906 0142 2046     		mov	r0, r4
 2907 0144 9847     		blx	r3
 2908              	.LVL258:
 581:Drivers/lvgl/src/misc/lv_anim.c ****                     a->end_value += v_ofs;
 2909              		.loc 1 581 21 is_stmt 1 view .LVU757
 581:Drivers/lvgl/src/misc/lv_anim.c ****                     a->end_value += v_ofs;
 2910              		.loc 1 581 22 is_stmt 0 view .LVU758
 2911 0146 636A     		ldr	r3, [r4, #36]
 581:Drivers/lvgl/src/misc/lv_anim.c ****                     a->end_value += v_ofs;
 2912              		.loc 1 581 36 view .LVU759
 2913 0148 0344     		add	r3, r3, r0
 2914 014a 6362     		str	r3, [r4, #36]
 582:Drivers/lvgl/src/misc/lv_anim.c ****                 }
 2915              		.loc 1 582 21 is_stmt 1 view .LVU760
ARM GAS  /tmp/ccoBJvOw.s 			page 78


 582:Drivers/lvgl/src/misc/lv_anim.c ****                 }
 2916              		.loc 1 582 22 is_stmt 0 view .LVU761
 2917 014c E36A     		ldr	r3, [r4, #44]
 582:Drivers/lvgl/src/misc/lv_anim.c ****                 }
 2918              		.loc 1 582 34 view .LVU762
 2919 014e 0344     		add	r3, r3, r0
 2920 0150 E362     		str	r3, [r4, #44]
 2921 0152 81E7     		b	.L173
 2922              	.LVL259:
 2923              	.L183:
 582:Drivers/lvgl/src/misc/lv_anim.c ****                 }
 2924              		.loc 1 582 34 view .LVU763
 2925              	.LBE17:
 2926              	.LBB18:
 612:Drivers/lvgl/src/misc/lv_anim.c **** 
 2927              		.loc 1 612 61 is_stmt 1 discriminator 1 view .LVU764
 612:Drivers/lvgl/src/misc/lv_anim.c **** 
 2928              		.loc 1 612 73 is_stmt 0 discriminator 1 view .LVU765
 2929 0154 6663     		str	r6, [r4, #52]
 2930 0156 B4E7     		b	.L178
 2931              	.L184:
 616:Drivers/lvgl/src/misc/lv_anim.c ****                     }
 2932              		.loc 1 616 25 is_stmt 1 view .LVU766
 2933 0158 2046     		mov	r0, r4
 2934 015a FFF7FEFF 		bl	anim_completed_handler
 2935              	.LVL260:
 2936 015e B4E7     		b	.L171
 2937              	.LVL261:
 2938              	.L179:
 616:Drivers/lvgl/src/misc/lv_anim.c ****                     }
 2939              		.loc 1 616 25 is_stmt 0 view .LVU767
 2940              	.LBE18:
 627:Drivers/lvgl/src/misc/lv_anim.c ****     }
 2941              		.loc 1 627 13 is_stmt 1 view .LVU768
 627:Drivers/lvgl/src/misc/lv_anim.c ****     }
 2942              		.loc 1 627 17 is_stmt 0 view .LVU769
 2943 0160 2146     		mov	r1, r4
 2944 0162 0448     		ldr	r0, .L187+4
 2945 0164 FFF7FEFF 		bl	lv_ll_get_next
 2946              	.LVL262:
 2947 0168 0446     		mov	r4, r0
 2948              	.LVL263:
 627:Drivers/lvgl/src/misc/lv_anim.c ****     }
 2949              		.loc 1 627 17 view .LVU770
 2950 016a B7E7     		b	.L168
 2951              	.LVL264:
 2952              	.L185:
 627:Drivers/lvgl/src/misc/lv_anim.c ****     }
 2953              		.loc 1 627 17 view .LVU771
 2954              	.LBE19:
 630:Drivers/lvgl/src/misc/lv_anim.c **** 
 2955              		.loc 1 630 1 view .LVU772
 2956 016c F8BD     		pop	{r3, r4, r5, r6, r7, pc}
 2957              	.LVL265:
 2958              	.L188:
 630:Drivers/lvgl/src/misc/lv_anim.c **** 
 2959              		.loc 1 630 1 view .LVU773
ARM GAS  /tmp/ccoBJvOw.s 			page 79


 2960 016e 00BF     		.align	2
 2961              	.L187:
 2962 0170 00000000 		.word	lv_global
 2963 0174 AC000000 		.word	lv_global+172
 2964              		.cfi_endproc
 2965              	.LFE238:
 2967              		.section	.text.lv_anim_refr_now,"ax",%progbits
 2968              		.align	1
 2969              		.global	lv_anim_refr_now
 2970              		.syntax unified
 2971              		.thumb
 2972              		.thumb_func
 2974              	lv_anim_refr_now:
 2975              	.LFB199:
 253:Drivers/lvgl/src/misc/lv_anim.c ****     anim_timer(NULL);
 2976              		.loc 1 253 1 is_stmt 1 view -0
 2977              		.cfi_startproc
 2978              		@ args = 0, pretend = 0, frame = 0
 2979              		@ frame_needed = 0, uses_anonymous_args = 0
 2980 0000 08B5     		push	{r3, lr}
 2981              	.LCFI42:
 2982              		.cfi_def_cfa_offset 8
 2983              		.cfi_offset 3, -8
 2984              		.cfi_offset 14, -4
 254:Drivers/lvgl/src/misc/lv_anim.c **** }
 2985              		.loc 1 254 5 view .LVU775
 2986 0002 0020     		movs	r0, #0
 2987 0004 FFF7FEFF 		bl	anim_timer
 2988              	.LVL266:
 255:Drivers/lvgl/src/misc/lv_anim.c **** 
 2989              		.loc 1 255 1 is_stmt 0 view .LVU776
 2990 0008 08BD     		pop	{r3, pc}
 2991              		.cfi_endproc
 2992              	.LFE199:
 2994              		.section	.text.lv_anim_start,"ax",%progbits
 2995              		.align	1
 2996              		.global	lv_anim_start
 2997              		.syntax unified
 2998              		.thumb
 2999              		.thumb_func
 3001              	lv_anim_start:
 3002              	.LVL267:
 3003              	.LFB189:
  95:Drivers/lvgl/src/misc/lv_anim.c ****     LV_TRACE_ANIM("begin");
 3004              		.loc 1 95 1 is_stmt 1 view -0
 3005              		.cfi_startproc
 3006              		@ args = 0, pretend = 0, frame = 0
 3007              		@ frame_needed = 0, uses_anonymous_args = 0
  95:Drivers/lvgl/src/misc/lv_anim.c ****     LV_TRACE_ANIM("begin");
 3008              		.loc 1 95 1 is_stmt 0 view .LVU778
 3009 0000 38B5     		push	{r3, r4, r5, lr}
 3010              	.LCFI43:
 3011              		.cfi_def_cfa_offset 16
 3012              		.cfi_offset 3, -16
 3013              		.cfi_offset 4, -12
 3014              		.cfi_offset 5, -8
 3015              		.cfi_offset 14, -4
ARM GAS  /tmp/ccoBJvOw.s 			page 80


 3016 0002 0546     		mov	r5, r0
  96:Drivers/lvgl/src/misc/lv_anim.c **** 
 3017              		.loc 1 96 27 is_stmt 1 view .LVU779
  99:Drivers/lvgl/src/misc/lv_anim.c ****         remove_concurrent_anims(a);
 3018              		.loc 1 99 5 view .LVU780
  99:Drivers/lvgl/src/misc/lv_anim.c ****         remove_concurrent_anims(a);
 3019              		.loc 1 99 8 is_stmt 0 view .LVU781
 3020 0004 90F85C30 		ldrb	r3, [r0, #92]	@ zero_extendqisi2
  99:Drivers/lvgl/src/misc/lv_anim.c ****         remove_concurrent_anims(a);
 3021              		.loc 1 99 7 view .LVU782
 3022 0008 13F0100F 		tst	r3, #16
 3023 000c 05D0     		beq	.L192
  99:Drivers/lvgl/src/misc/lv_anim.c ****         remove_concurrent_anims(a);
 3024              		.loc 1 99 28 discriminator 1 view .LVU783
 3025 000e 4368     		ldr	r3, [r0, #4]
  99:Drivers/lvgl/src/misc/lv_anim.c ****         remove_concurrent_anims(a);
 3026              		.loc 1 99 23 discriminator 1 view .LVU784
 3027 0010 002B     		cmp	r3, #0
 3028 0012 44D0     		beq	.L201
 3029              	.L193:
 100:Drivers/lvgl/src/misc/lv_anim.c ****     }
 3030              		.loc 1 100 9 is_stmt 1 view .LVU785
 3031 0014 2846     		mov	r0, r5
 3032              	.LVL268:
 100:Drivers/lvgl/src/misc/lv_anim.c ****     }
 3033              		.loc 1 100 9 is_stmt 0 view .LVU786
 3034 0016 FFF7FEFF 		bl	remove_concurrent_anims
 3035              	.LVL269:
 3036              	.L192:
 104:Drivers/lvgl/src/misc/lv_anim.c ****     LV_ASSERT_MALLOC(new_anim);
 3037              		.loc 1 104 5 is_stmt 1 view .LVU787
 104:Drivers/lvgl/src/misc/lv_anim.c ****     LV_ASSERT_MALLOC(new_anim);
 3038              		.loc 1 104 28 is_stmt 0 view .LVU788
 3039 001a 2448     		ldr	r0, .L203
 3040 001c FFF7FEFF 		bl	lv_ll_ins_head
 3041              	.LVL270:
 105:Drivers/lvgl/src/misc/lv_anim.c ****     if(new_anim == NULL) return NULL;
 3042              		.loc 1 105 5 is_stmt 1 view .LVU789
 105:Drivers/lvgl/src/misc/lv_anim.c ****     if(new_anim == NULL) return NULL;
 3043              		.loc 1 105 5 view .LVU790
 3044 0020 0446     		mov	r4, r0
 3045 0022 0028     		cmp	r0, #0
 3046 0024 3FD0     		beq	.L195
 105:Drivers/lvgl/src/misc/lv_anim.c ****     if(new_anim == NULL) return NULL;
 3047              		.loc 1 105 5 discriminator 2 view .LVU791
 105:Drivers/lvgl/src/misc/lv_anim.c ****     if(new_anim == NULL) return NULL;
 3048              		.loc 1 105 31 discriminator 2 view .LVU792
 106:Drivers/lvgl/src/misc/lv_anim.c **** 
 3049              		.loc 1 106 5 view .LVU793
 109:Drivers/lvgl/src/misc/lv_anim.c ****     if(a->var == a) new_anim->var = new_anim;
 3050              		.loc 1 109 5 view .LVU794
 3051 0026 6022     		movs	r2, #96
 3052 0028 2946     		mov	r1, r5
 3053 002a FFF7FEFF 		bl	lv_memcpy
 3054              	.LVL271:
 110:Drivers/lvgl/src/misc/lv_anim.c ****     new_anim->run_round = state.anim_run_round;
 3055              		.loc 1 110 5 view .LVU795
ARM GAS  /tmp/ccoBJvOw.s 			page 81


 110:Drivers/lvgl/src/misc/lv_anim.c ****     new_anim->run_round = state.anim_run_round;
 3056              		.loc 1 110 9 is_stmt 0 view .LVU796
 3057 002e 2B68     		ldr	r3, [r5]
 110:Drivers/lvgl/src/misc/lv_anim.c ****     new_anim->run_round = state.anim_run_round;
 3058              		.loc 1 110 7 view .LVU797
 3059 0030 AB42     		cmp	r3, r5
 3060 0032 39D0     		beq	.L202
 3061              	.L196:
 111:Drivers/lvgl/src/misc/lv_anim.c ****     new_anim->last_timer_run = lv_tick_get();
 3062              		.loc 1 111 5 is_stmt 1 view .LVU798
 111:Drivers/lvgl/src/misc/lv_anim.c ****     new_anim->last_timer_run = lv_tick_get();
 3063              		.loc 1 111 32 is_stmt 0 view .LVU799
 3064 0034 1E4B     		ldr	r3, .L203+4
 3065 0036 93F8A520 		ldrb	r2, [r3, #165]	@ zero_extendqisi2
 111:Drivers/lvgl/src/misc/lv_anim.c ****     new_anim->last_timer_run = lv_tick_get();
 3066              		.loc 1 111 25 view .LVU800
 3067 003a 94F85C30 		ldrb	r3, [r4, #92]	@ zero_extendqisi2
 3068 003e 62F38203 		bfi	r3, r2, #2, #1
 3069 0042 84F85C30 		strb	r3, [r4, #92]
 112:Drivers/lvgl/src/misc/lv_anim.c ****     new_anim->is_paused = false;
 3070              		.loc 1 112 5 is_stmt 1 view .LVU801
 112:Drivers/lvgl/src/misc/lv_anim.c ****     new_anim->is_paused = false;
 3071              		.loc 1 112 32 is_stmt 0 view .LVU802
 3072 0046 FFF7FEFF 		bl	lv_tick_get
 3073              	.LVL272:
 112:Drivers/lvgl/src/misc/lv_anim.c ****     new_anim->is_paused = false;
 3074              		.loc 1 112 30 discriminator 1 view .LVU803
 3075 004a 2065     		str	r0, [r4, #80]
 113:Drivers/lvgl/src/misc/lv_anim.c **** 
 3076              		.loc 1 113 5 is_stmt 1 view .LVU804
 113:Drivers/lvgl/src/misc/lv_anim.c **** 
 3077              		.loc 1 113 25 is_stmt 0 view .LVU805
 3078 004c 94F85C30 		ldrb	r3, [r4, #92]	@ zero_extendqisi2
 3079 0050 23F00103 		bic	r3, r3, #1
 3080 0054 84F85C30 		strb	r3, [r4, #92]
 116:Drivers/lvgl/src/misc/lv_anim.c ****         if(new_anim->get_value_cb) {
 3081              		.loc 1 116 5 is_stmt 1 view .LVU806
 116:Drivers/lvgl/src/misc/lv_anim.c ****         if(new_anim->get_value_cb) {
 3082              		.loc 1 116 8 is_stmt 0 view .LVU807
 3083 0058 DBB2     		uxtb	r3, r3
 116:Drivers/lvgl/src/misc/lv_anim.c ****         if(new_anim->get_value_cb) {
 3084              		.loc 1 116 7 view .LVU808
 3085 005a 13F0100F 		tst	r3, #16
 3086 005e 1AD0     		beq	.L197
 117:Drivers/lvgl/src/misc/lv_anim.c ****             int32_t v_ofs = new_anim->get_value_cb(new_anim);
 3087              		.loc 1 117 9 is_stmt 1 view .LVU809
 117:Drivers/lvgl/src/misc/lv_anim.c ****             int32_t v_ofs = new_anim->get_value_cb(new_anim);
 3088              		.loc 1 117 20 is_stmt 0 view .LVU810
 3089 0060 A369     		ldr	r3, [r4, #24]
 117:Drivers/lvgl/src/misc/lv_anim.c ****             int32_t v_ofs = new_anim->get_value_cb(new_anim);
 3090              		.loc 1 117 11 view .LVU811
 3091 0062 3BB1     		cbz	r3, .L198
 3092              	.LBB20:
 118:Drivers/lvgl/src/misc/lv_anim.c ****             new_anim->start_value += v_ofs;
 3093              		.loc 1 118 13 is_stmt 1 view .LVU812
 118:Drivers/lvgl/src/misc/lv_anim.c ****             new_anim->start_value += v_ofs;
 3094              		.loc 1 118 29 is_stmt 0 view .LVU813
ARM GAS  /tmp/ccoBJvOw.s 			page 82


 3095 0064 2046     		mov	r0, r4
 3096 0066 9847     		blx	r3
 3097              	.LVL273:
 119:Drivers/lvgl/src/misc/lv_anim.c ****             new_anim->end_value += v_ofs;
 3098              		.loc 1 119 13 is_stmt 1 view .LVU814
 119:Drivers/lvgl/src/misc/lv_anim.c ****             new_anim->end_value += v_ofs;
 3099              		.loc 1 119 21 is_stmt 0 view .LVU815
 3100 0068 636A     		ldr	r3, [r4, #36]
 119:Drivers/lvgl/src/misc/lv_anim.c ****             new_anim->end_value += v_ofs;
 3101              		.loc 1 119 35 view .LVU816
 3102 006a 0344     		add	r3, r3, r0
 3103 006c 6362     		str	r3, [r4, #36]
 120:Drivers/lvgl/src/misc/lv_anim.c **** 
 3104              		.loc 1 120 13 is_stmt 1 view .LVU817
 120:Drivers/lvgl/src/misc/lv_anim.c **** 
 3105              		.loc 1 120 21 is_stmt 0 view .LVU818
 3106 006e E36A     		ldr	r3, [r4, #44]
 120:Drivers/lvgl/src/misc/lv_anim.c **** 
 3107              		.loc 1 120 33 view .LVU819
 3108 0070 0344     		add	r3, r3, r0
 3109 0072 E362     		str	r3, [r4, #44]
 3110              	.LVL274:
 3111              	.L198:
 120:Drivers/lvgl/src/misc/lv_anim.c **** 
 3112              		.loc 1 120 33 view .LVU820
 3113              	.LBE20:
 124:Drivers/lvgl/src/misc/lv_anim.c **** 
 3114              		.loc 1 124 9 is_stmt 1 view .LVU821
 3115 0074 2046     		mov	r0, r4
 3116 0076 FFF7FEFF 		bl	resolve_time
 3117              	.LVL275:
 126:Drivers/lvgl/src/misc/lv_anim.c ****         if(new_anim->exec_cb) {
 3118              		.loc 1 126 9 view .LVU822
 126:Drivers/lvgl/src/misc/lv_anim.c ****         if(new_anim->exec_cb) {
 3119              		.loc 1 126 43 is_stmt 0 view .LVU823
 3120 007a 236A     		ldr	r3, [r4, #32]
 126:Drivers/lvgl/src/misc/lv_anim.c ****         if(new_anim->exec_cb) {
 3121              		.loc 1 126 35 view .LVU824
 3122 007c 2046     		mov	r0, r4
 3123 007e 9847     		blx	r3
 3124              	.LVL276:
 3125 0080 0146     		mov	r1, r0
 126:Drivers/lvgl/src/misc/lv_anim.c ****         if(new_anim->exec_cb) {
 3126              		.loc 1 126 33 discriminator 1 view .LVU825
 3127 0082 A062     		str	r0, [r4, #40]
 127:Drivers/lvgl/src/misc/lv_anim.c ****             new_anim->exec_cb(new_anim->var, new_anim->current_value);
 3128              		.loc 1 127 9 is_stmt 1 view .LVU826
 127:Drivers/lvgl/src/misc/lv_anim.c ****             new_anim->exec_cb(new_anim->var, new_anim->current_value);
 3129              		.loc 1 127 20 is_stmt 0 view .LVU827
 3130 0084 6368     		ldr	r3, [r4, #4]
