ARM GAS  /tmp/cc9C7swH.s 			page 1


   1              		.cpu cortex-m7
   2              		.arch armv7e-m
   3              		.fpu fpv5-sp-d16
   4              		.eabi_attribute 27, 1
   5              		.eabi_attribute 28, 1
   6              		.eabi_attribute 20, 1
   7              		.eabi_attribute 21, 1
   8              		.eabi_attribute 23, 3
   9              		.eabi_attribute 24, 1
  10              		.eabi_attribute 25, 1
  11              		.eabi_attribute 26, 1
  12              		.eabi_attribute 30, 1
  13              		.eabi_attribute 34, 1
  14              		.eabi_attribute 18, 4
  15              		.file	"lv_buttonmatrix.c"
  16              		.text
  17              	.Ltext0:
  18              		.cfi_sections	.debug_frame
  19              		.file 1 "Drivers/lvgl/src/widgets/buttonmatrix/lv_buttonmatrix.c"
  20              		.section	.text.get_button_width,"ax",%progbits
  21              		.align	1
  22              		.syntax unified
  23              		.thumb
  24              		.thumb_func
  26              	get_button_width:
  27              	.LVL0:
  28              	.LFB191:
   1:Drivers/lvgl/src/widgets/buttonmatrix/lv_buttonmatrix.c **** /**
   2:Drivers/lvgl/src/widgets/buttonmatrix/lv_buttonmatrix.c ****  * @file lv_btnmatrix.c
   3:Drivers/lvgl/src/widgets/buttonmatrix/lv_buttonmatrix.c ****  *
   4:Drivers/lvgl/src/widgets/buttonmatrix/lv_buttonmatrix.c ****  */
   5:Drivers/lvgl/src/widgets/buttonmatrix/lv_buttonmatrix.c **** 
   6:Drivers/lvgl/src/widgets/buttonmatrix/lv_buttonmatrix.c **** /*********************
   7:Drivers/lvgl/src/widgets/buttonmatrix/lv_buttonmatrix.c ****  *      INCLUDES
   8:Drivers/lvgl/src/widgets/buttonmatrix/lv_buttonmatrix.c ****  *********************/
   9:Drivers/lvgl/src/widgets/buttonmatrix/lv_buttonmatrix.c **** #include "lv_buttonmatrix_private.h"
  10:Drivers/lvgl/src/widgets/buttonmatrix/lv_buttonmatrix.c **** #include "../../misc/lv_area_private.h"
  11:Drivers/lvgl/src/widgets/buttonmatrix/lv_buttonmatrix.c **** #include "../../core/lv_obj_private.h"
  12:Drivers/lvgl/src/widgets/buttonmatrix/lv_buttonmatrix.c **** #include "../../core/lv_obj_class_private.h"
  13:Drivers/lvgl/src/widgets/buttonmatrix/lv_buttonmatrix.c **** #if LV_USE_BUTTONMATRIX != 0
  14:Drivers/lvgl/src/widgets/buttonmatrix/lv_buttonmatrix.c **** 
  15:Drivers/lvgl/src/widgets/buttonmatrix/lv_buttonmatrix.c **** #include "../../misc/lv_assert.h"
  16:Drivers/lvgl/src/widgets/buttonmatrix/lv_buttonmatrix.c **** #include "../../indev/lv_indev.h"
  17:Drivers/lvgl/src/widgets/buttonmatrix/lv_buttonmatrix.c **** #include "../../core/lv_group.h"
  18:Drivers/lvgl/src/widgets/buttonmatrix/lv_buttonmatrix.c **** #include "../../draw/lv_draw.h"
  19:Drivers/lvgl/src/widgets/buttonmatrix/lv_buttonmatrix.c **** #include "../../core/lv_refr.h"
  20:Drivers/lvgl/src/widgets/buttonmatrix/lv_buttonmatrix.c **** #include "../../misc/lv_text.h"
  21:Drivers/lvgl/src/widgets/buttonmatrix/lv_buttonmatrix.c **** #include "../../misc/lv_text_ap.h"
  22:Drivers/lvgl/src/widgets/buttonmatrix/lv_buttonmatrix.c **** #include "../../stdlib/lv_string.h"
  23:Drivers/lvgl/src/widgets/buttonmatrix/lv_buttonmatrix.c **** 
  24:Drivers/lvgl/src/widgets/buttonmatrix/lv_buttonmatrix.c **** /*********************
  25:Drivers/lvgl/src/widgets/buttonmatrix/lv_buttonmatrix.c ****  *      DEFINES
  26:Drivers/lvgl/src/widgets/buttonmatrix/lv_buttonmatrix.c ****  *********************/
  27:Drivers/lvgl/src/widgets/buttonmatrix/lv_buttonmatrix.c **** #define MY_CLASS (&lv_buttonmatrix_class)
  28:Drivers/lvgl/src/widgets/buttonmatrix/lv_buttonmatrix.c **** 
  29:Drivers/lvgl/src/widgets/buttonmatrix/lv_buttonmatrix.c **** #define BTN_EXTRA_CLICK_AREA_MAX (LV_DPI_DEF / 10)
  30:Drivers/lvgl/src/widgets/buttonmatrix/lv_buttonmatrix.c **** #define LV_BUTTONMATRIX_WIDTH_MASK 0x000F
ARM GAS  /tmp/cc9C7swH.s 			page 2


  31:Drivers/lvgl/src/widgets/buttonmatrix/lv_buttonmatrix.c **** 
  32:Drivers/lvgl/src/widgets/buttonmatrix/lv_buttonmatrix.c **** /**********************
  33:Drivers/lvgl/src/widgets/buttonmatrix/lv_buttonmatrix.c ****  *      TYPEDEFS
  34:Drivers/lvgl/src/widgets/buttonmatrix/lv_buttonmatrix.c ****  **********************/
  35:Drivers/lvgl/src/widgets/buttonmatrix/lv_buttonmatrix.c **** 
  36:Drivers/lvgl/src/widgets/buttonmatrix/lv_buttonmatrix.c **** /**********************
  37:Drivers/lvgl/src/widgets/buttonmatrix/lv_buttonmatrix.c ****  *  STATIC PROTOTYPES
  38:Drivers/lvgl/src/widgets/buttonmatrix/lv_buttonmatrix.c ****  **********************/
  39:Drivers/lvgl/src/widgets/buttonmatrix/lv_buttonmatrix.c **** static void lv_buttonmatrix_constructor(const lv_obj_class_t * class_p, lv_obj_t * obj);
  40:Drivers/lvgl/src/widgets/buttonmatrix/lv_buttonmatrix.c **** static void lv_buttonmatrix_destructor(const lv_obj_class_t * class_p, lv_obj_t * obj);
  41:Drivers/lvgl/src/widgets/buttonmatrix/lv_buttonmatrix.c **** static void lv_buttonmatrix_event(const lv_obj_class_t * class_p, lv_event_t * e);
  42:Drivers/lvgl/src/widgets/buttonmatrix/lv_buttonmatrix.c **** static void draw_main(lv_event_t * e);
  43:Drivers/lvgl/src/widgets/buttonmatrix/lv_buttonmatrix.c **** 
  44:Drivers/lvgl/src/widgets/buttonmatrix/lv_buttonmatrix.c **** static uint32_t get_button_width(lv_buttonmatrix_ctrl_t ctrl_bits);
  45:Drivers/lvgl/src/widgets/buttonmatrix/lv_buttonmatrix.c **** static bool button_is_hidden(lv_buttonmatrix_ctrl_t ctrl_bits);
  46:Drivers/lvgl/src/widgets/buttonmatrix/lv_buttonmatrix.c **** static bool button_is_checked(lv_buttonmatrix_ctrl_t ctrl_bits);
  47:Drivers/lvgl/src/widgets/buttonmatrix/lv_buttonmatrix.c **** static bool button_is_repeat_disabled(lv_buttonmatrix_ctrl_t ctrl_bits);
  48:Drivers/lvgl/src/widgets/buttonmatrix/lv_buttonmatrix.c **** static bool button_is_inactive(lv_buttonmatrix_ctrl_t ctrl_bits);
  49:Drivers/lvgl/src/widgets/buttonmatrix/lv_buttonmatrix.c **** static bool button_is_click_trig(lv_buttonmatrix_ctrl_t ctrl_bits);
  50:Drivers/lvgl/src/widgets/buttonmatrix/lv_buttonmatrix.c **** static bool button_is_popover(lv_buttonmatrix_ctrl_t ctrl_bits);
  51:Drivers/lvgl/src/widgets/buttonmatrix/lv_buttonmatrix.c **** static bool button_is_checkable(lv_buttonmatrix_ctrl_t ctrl_bits);
  52:Drivers/lvgl/src/widgets/buttonmatrix/lv_buttonmatrix.c **** static bool button_get_checked(lv_buttonmatrix_ctrl_t ctrl_bits);
  53:Drivers/lvgl/src/widgets/buttonmatrix/lv_buttonmatrix.c **** static uint32_t get_button_from_point(lv_obj_t * obj, lv_point_t * p);
  54:Drivers/lvgl/src/widgets/buttonmatrix/lv_buttonmatrix.c **** static void allocate_button_areas_and_controls(const lv_obj_t * obj, const char * const * map);
  55:Drivers/lvgl/src/widgets/buttonmatrix/lv_buttonmatrix.c **** static void invalidate_button_area(const lv_obj_t * obj, uint32_t btn_idx);
  56:Drivers/lvgl/src/widgets/buttonmatrix/lv_buttonmatrix.c **** static void make_one_button_checked(lv_obj_t * obj, uint32_t btn_idx);
  57:Drivers/lvgl/src/widgets/buttonmatrix/lv_buttonmatrix.c **** static bool has_popovers_in_top_row(lv_obj_t * obj);
  58:Drivers/lvgl/src/widgets/buttonmatrix/lv_buttonmatrix.c **** static bool button_is_recolor(lv_buttonmatrix_ctrl_t ctrl_bits);
  59:Drivers/lvgl/src/widgets/buttonmatrix/lv_buttonmatrix.c **** static void update_map(lv_obj_t * obj);
  60:Drivers/lvgl/src/widgets/buttonmatrix/lv_buttonmatrix.c **** static void free_map(lv_buttonmatrix_t * btnm);
  61:Drivers/lvgl/src/widgets/buttonmatrix/lv_buttonmatrix.c **** 
  62:Drivers/lvgl/src/widgets/buttonmatrix/lv_buttonmatrix.c **** /**********************
  63:Drivers/lvgl/src/widgets/buttonmatrix/lv_buttonmatrix.c ****  *  STATIC VARIABLES
  64:Drivers/lvgl/src/widgets/buttonmatrix/lv_buttonmatrix.c ****  **********************/
  65:Drivers/lvgl/src/widgets/buttonmatrix/lv_buttonmatrix.c **** #if LV_WIDGETS_HAS_DEFAULT_VALUE
  66:Drivers/lvgl/src/widgets/buttonmatrix/lv_buttonmatrix.c **** static const char * const lv_buttonmatrix_def_map[] = {"Btn1", "Btn2", "Btn3", "\n", "Btn4", "Btn5"
  67:Drivers/lvgl/src/widgets/buttonmatrix/lv_buttonmatrix.c **** #endif
  68:Drivers/lvgl/src/widgets/buttonmatrix/lv_buttonmatrix.c **** 
  69:Drivers/lvgl/src/widgets/buttonmatrix/lv_buttonmatrix.c **** const lv_obj_class_t lv_buttonmatrix_class = {
  70:Drivers/lvgl/src/widgets/buttonmatrix/lv_buttonmatrix.c ****     .constructor_cb = lv_buttonmatrix_constructor,
  71:Drivers/lvgl/src/widgets/buttonmatrix/lv_buttonmatrix.c ****     .destructor_cb = lv_buttonmatrix_destructor,
  72:Drivers/lvgl/src/widgets/buttonmatrix/lv_buttonmatrix.c ****     .event_cb = lv_buttonmatrix_event,
  73:Drivers/lvgl/src/widgets/buttonmatrix/lv_buttonmatrix.c ****     .width_def = LV_DPI_DEF * 2,
  74:Drivers/lvgl/src/widgets/buttonmatrix/lv_buttonmatrix.c ****     .height_def = LV_DPI_DEF,
  75:Drivers/lvgl/src/widgets/buttonmatrix/lv_buttonmatrix.c ****     .instance_size = sizeof(lv_buttonmatrix_t),
  76:Drivers/lvgl/src/widgets/buttonmatrix/lv_buttonmatrix.c ****     .editable = LV_OBJ_CLASS_EDITABLE_TRUE,
  77:Drivers/lvgl/src/widgets/buttonmatrix/lv_buttonmatrix.c ****     .group_def = LV_OBJ_CLASS_GROUP_DEF_TRUE,
  78:Drivers/lvgl/src/widgets/buttonmatrix/lv_buttonmatrix.c ****     .base_class = &lv_obj_class,
  79:Drivers/lvgl/src/widgets/buttonmatrix/lv_buttonmatrix.c ****     .name = "lv_buttonmatrix",
  80:Drivers/lvgl/src/widgets/buttonmatrix/lv_buttonmatrix.c **** };
  81:Drivers/lvgl/src/widgets/buttonmatrix/lv_buttonmatrix.c **** 
  82:Drivers/lvgl/src/widgets/buttonmatrix/lv_buttonmatrix.c **** /**********************
  83:Drivers/lvgl/src/widgets/buttonmatrix/lv_buttonmatrix.c ****  *      MACROS
  84:Drivers/lvgl/src/widgets/buttonmatrix/lv_buttonmatrix.c ****  **********************/
  85:Drivers/lvgl/src/widgets/buttonmatrix/lv_buttonmatrix.c **** 
  86:Drivers/lvgl/src/widgets/buttonmatrix/lv_buttonmatrix.c **** /**********************
  87:Drivers/lvgl/src/widgets/buttonmatrix/lv_buttonmatrix.c ****  *   GLOBAL FUNCTIONS
ARM GAS  /tmp/cc9C7swH.s 			page 3


  88:Drivers/lvgl/src/widgets/buttonmatrix/lv_buttonmatrix.c ****  **********************/
  89:Drivers/lvgl/src/widgets/buttonmatrix/lv_buttonmatrix.c **** 
  90:Drivers/lvgl/src/widgets/buttonmatrix/lv_buttonmatrix.c **** lv_obj_t * lv_buttonmatrix_create(lv_obj_t * parent)
  91:Drivers/lvgl/src/widgets/buttonmatrix/lv_buttonmatrix.c **** {
  92:Drivers/lvgl/src/widgets/buttonmatrix/lv_buttonmatrix.c ****     LV_LOG_INFO("begin");
  93:Drivers/lvgl/src/widgets/buttonmatrix/lv_buttonmatrix.c ****     lv_obj_t * obj = lv_obj_class_create_obj(MY_CLASS, parent);
  94:Drivers/lvgl/src/widgets/buttonmatrix/lv_buttonmatrix.c ****     lv_obj_class_init_obj(obj);
  95:Drivers/lvgl/src/widgets/buttonmatrix/lv_buttonmatrix.c ****     return obj;
  96:Drivers/lvgl/src/widgets/buttonmatrix/lv_buttonmatrix.c **** }
  97:Drivers/lvgl/src/widgets/buttonmatrix/lv_buttonmatrix.c **** 
  98:Drivers/lvgl/src/widgets/buttonmatrix/lv_buttonmatrix.c **** /*=====================
  99:Drivers/lvgl/src/widgets/buttonmatrix/lv_buttonmatrix.c ****  * Setter functions
 100:Drivers/lvgl/src/widgets/buttonmatrix/lv_buttonmatrix.c ****  *====================*/
 101:Drivers/lvgl/src/widgets/buttonmatrix/lv_buttonmatrix.c **** 
 102:Drivers/lvgl/src/widgets/buttonmatrix/lv_buttonmatrix.c **** void lv_buttonmatrix_set_map(lv_obj_t * obj, const char * const map[])
 103:Drivers/lvgl/src/widgets/buttonmatrix/lv_buttonmatrix.c **** {
 104:Drivers/lvgl/src/widgets/buttonmatrix/lv_buttonmatrix.c ****     LV_ASSERT_OBJ(obj, MY_CLASS);
 105:Drivers/lvgl/src/widgets/buttonmatrix/lv_buttonmatrix.c ****     if(map == NULL) return;
 106:Drivers/lvgl/src/widgets/buttonmatrix/lv_buttonmatrix.c **** 
 107:Drivers/lvgl/src/widgets/buttonmatrix/lv_buttonmatrix.c ****     lv_buttonmatrix_t * btnm = (lv_buttonmatrix_t *)obj;
 108:Drivers/lvgl/src/widgets/buttonmatrix/lv_buttonmatrix.c ****     if(btnm->auto_free_map) free_map(btnm);
 109:Drivers/lvgl/src/widgets/buttonmatrix/lv_buttonmatrix.c ****     btnm->auto_free_map = 0;
 110:Drivers/lvgl/src/widgets/buttonmatrix/lv_buttonmatrix.c **** 
 111:Drivers/lvgl/src/widgets/buttonmatrix/lv_buttonmatrix.c ****     /*Analyze the map and create the required number of buttons*/
 112:Drivers/lvgl/src/widgets/buttonmatrix/lv_buttonmatrix.c ****     allocate_button_areas_and_controls(obj, map);
 113:Drivers/lvgl/src/widgets/buttonmatrix/lv_buttonmatrix.c ****     btnm->map_p = map;
 114:Drivers/lvgl/src/widgets/buttonmatrix/lv_buttonmatrix.c **** 
 115:Drivers/lvgl/src/widgets/buttonmatrix/lv_buttonmatrix.c ****     update_map(obj);
 116:Drivers/lvgl/src/widgets/buttonmatrix/lv_buttonmatrix.c **** }
 117:Drivers/lvgl/src/widgets/buttonmatrix/lv_buttonmatrix.c **** 
 118:Drivers/lvgl/src/widgets/buttonmatrix/lv_buttonmatrix.c **** void lv_buttonmatrix_set_ctrl_map(lv_obj_t * obj, const lv_buttonmatrix_ctrl_t ctrl_map[])
 119:Drivers/lvgl/src/widgets/buttonmatrix/lv_buttonmatrix.c **** {
 120:Drivers/lvgl/src/widgets/buttonmatrix/lv_buttonmatrix.c ****     LV_ASSERT_OBJ(obj, MY_CLASS);
 121:Drivers/lvgl/src/widgets/buttonmatrix/lv_buttonmatrix.c **** 
 122:Drivers/lvgl/src/widgets/buttonmatrix/lv_buttonmatrix.c ****     lv_buttonmatrix_t * btnm = (lv_buttonmatrix_t *)obj;
 123:Drivers/lvgl/src/widgets/buttonmatrix/lv_buttonmatrix.c ****     lv_memcpy(btnm->ctrl_bits, ctrl_map, sizeof(lv_buttonmatrix_ctrl_t) * btnm->btn_cnt);
 124:Drivers/lvgl/src/widgets/buttonmatrix/lv_buttonmatrix.c **** 
 125:Drivers/lvgl/src/widgets/buttonmatrix/lv_buttonmatrix.c ****     update_map(obj);
 126:Drivers/lvgl/src/widgets/buttonmatrix/lv_buttonmatrix.c **** }
 127:Drivers/lvgl/src/widgets/buttonmatrix/lv_buttonmatrix.c **** 
 128:Drivers/lvgl/src/widgets/buttonmatrix/lv_buttonmatrix.c **** void lv_buttonmatrix_set_selected_button(lv_obj_t * obj, uint32_t btn_id)
 129:Drivers/lvgl/src/widgets/buttonmatrix/lv_buttonmatrix.c **** {
 130:Drivers/lvgl/src/widgets/buttonmatrix/lv_buttonmatrix.c ****     LV_ASSERT_OBJ(obj, MY_CLASS);
 131:Drivers/lvgl/src/widgets/buttonmatrix/lv_buttonmatrix.c **** 
 132:Drivers/lvgl/src/widgets/buttonmatrix/lv_buttonmatrix.c ****     lv_buttonmatrix_t * btnm = (lv_buttonmatrix_t *)obj;
 133:Drivers/lvgl/src/widgets/buttonmatrix/lv_buttonmatrix.c **** 
 134:Drivers/lvgl/src/widgets/buttonmatrix/lv_buttonmatrix.c ****     if(btn_id >= btnm->btn_cnt && btn_id != LV_BUTTONMATRIX_BUTTON_NONE) return;
 135:Drivers/lvgl/src/widgets/buttonmatrix/lv_buttonmatrix.c **** 
 136:Drivers/lvgl/src/widgets/buttonmatrix/lv_buttonmatrix.c ****     invalidate_button_area(obj, btnm->btn_id_sel);
 137:Drivers/lvgl/src/widgets/buttonmatrix/lv_buttonmatrix.c ****     btnm->btn_id_sel = btn_id;
 138:Drivers/lvgl/src/widgets/buttonmatrix/lv_buttonmatrix.c ****     invalidate_button_area(obj, btn_id);
 139:Drivers/lvgl/src/widgets/buttonmatrix/lv_buttonmatrix.c **** }
 140:Drivers/lvgl/src/widgets/buttonmatrix/lv_buttonmatrix.c **** 
 141:Drivers/lvgl/src/widgets/buttonmatrix/lv_buttonmatrix.c **** void lv_buttonmatrix_set_button_ctrl(lv_obj_t * obj, uint32_t btn_id, lv_buttonmatrix_ctrl_t ctrl)
 142:Drivers/lvgl/src/widgets/buttonmatrix/lv_buttonmatrix.c **** {
 143:Drivers/lvgl/src/widgets/buttonmatrix/lv_buttonmatrix.c ****     LV_ASSERT_OBJ(obj, MY_CLASS);
 144:Drivers/lvgl/src/widgets/buttonmatrix/lv_buttonmatrix.c **** 
ARM GAS  /tmp/cc9C7swH.s 			page 4


 145:Drivers/lvgl/src/widgets/buttonmatrix/lv_buttonmatrix.c ****     lv_buttonmatrix_t * btnm = (lv_buttonmatrix_t *)obj;
 146:Drivers/lvgl/src/widgets/buttonmatrix/lv_buttonmatrix.c **** 
 147:Drivers/lvgl/src/widgets/buttonmatrix/lv_buttonmatrix.c ****     if(btn_id >= btnm->btn_cnt) return;
 148:Drivers/lvgl/src/widgets/buttonmatrix/lv_buttonmatrix.c **** 
 149:Drivers/lvgl/src/widgets/buttonmatrix/lv_buttonmatrix.c ****     if(btnm->one_check && (ctrl & LV_BUTTONMATRIX_CTRL_CHECKED)) {
 150:Drivers/lvgl/src/widgets/buttonmatrix/lv_buttonmatrix.c ****         lv_buttonmatrix_clear_button_ctrl_all(obj, LV_BUTTONMATRIX_CTRL_CHECKED);
 151:Drivers/lvgl/src/widgets/buttonmatrix/lv_buttonmatrix.c ****     }
 152:Drivers/lvgl/src/widgets/buttonmatrix/lv_buttonmatrix.c **** 
 153:Drivers/lvgl/src/widgets/buttonmatrix/lv_buttonmatrix.c ****     btnm->ctrl_bits[btn_id] |= ctrl;
 154:Drivers/lvgl/src/widgets/buttonmatrix/lv_buttonmatrix.c ****     invalidate_button_area(obj, btn_id);
 155:Drivers/lvgl/src/widgets/buttonmatrix/lv_buttonmatrix.c **** 
 156:Drivers/lvgl/src/widgets/buttonmatrix/lv_buttonmatrix.c ****     if(ctrl & LV_BUTTONMATRIX_CTRL_POPOVER) {
 157:Drivers/lvgl/src/widgets/buttonmatrix/lv_buttonmatrix.c ****         lv_obj_refresh_ext_draw_size(obj);
 158:Drivers/lvgl/src/widgets/buttonmatrix/lv_buttonmatrix.c ****     }
 159:Drivers/lvgl/src/widgets/buttonmatrix/lv_buttonmatrix.c **** }
 160:Drivers/lvgl/src/widgets/buttonmatrix/lv_buttonmatrix.c **** 
 161:Drivers/lvgl/src/widgets/buttonmatrix/lv_buttonmatrix.c **** void lv_buttonmatrix_clear_button_ctrl(lv_obj_t * obj, uint32_t btn_id, lv_buttonmatrix_ctrl_t ctrl
 162:Drivers/lvgl/src/widgets/buttonmatrix/lv_buttonmatrix.c **** {
 163:Drivers/lvgl/src/widgets/buttonmatrix/lv_buttonmatrix.c ****     LV_ASSERT_OBJ(obj, MY_CLASS);
 164:Drivers/lvgl/src/widgets/buttonmatrix/lv_buttonmatrix.c **** 
 165:Drivers/lvgl/src/widgets/buttonmatrix/lv_buttonmatrix.c ****     lv_buttonmatrix_t * btnm = (lv_buttonmatrix_t *)obj;
 166:Drivers/lvgl/src/widgets/buttonmatrix/lv_buttonmatrix.c **** 
 167:Drivers/lvgl/src/widgets/buttonmatrix/lv_buttonmatrix.c ****     if(btn_id >= btnm->btn_cnt) return;
 168:Drivers/lvgl/src/widgets/buttonmatrix/lv_buttonmatrix.c **** 
 169:Drivers/lvgl/src/widgets/buttonmatrix/lv_buttonmatrix.c ****     btnm->ctrl_bits[btn_id] &= (~ctrl);
 170:Drivers/lvgl/src/widgets/buttonmatrix/lv_buttonmatrix.c ****     invalidate_button_area(obj, btn_id);
 171:Drivers/lvgl/src/widgets/buttonmatrix/lv_buttonmatrix.c **** 
 172:Drivers/lvgl/src/widgets/buttonmatrix/lv_buttonmatrix.c ****     if(ctrl & LV_BUTTONMATRIX_CTRL_POPOVER) {
 173:Drivers/lvgl/src/widgets/buttonmatrix/lv_buttonmatrix.c ****         lv_obj_refresh_ext_draw_size(obj);
 174:Drivers/lvgl/src/widgets/buttonmatrix/lv_buttonmatrix.c ****     }
 175:Drivers/lvgl/src/widgets/buttonmatrix/lv_buttonmatrix.c **** }
 176:Drivers/lvgl/src/widgets/buttonmatrix/lv_buttonmatrix.c **** 
 177:Drivers/lvgl/src/widgets/buttonmatrix/lv_buttonmatrix.c **** void lv_buttonmatrix_set_button_ctrl_all(lv_obj_t * obj, lv_buttonmatrix_ctrl_t ctrl)
 178:Drivers/lvgl/src/widgets/buttonmatrix/lv_buttonmatrix.c **** {
 179:Drivers/lvgl/src/widgets/buttonmatrix/lv_buttonmatrix.c ****     LV_ASSERT_OBJ(obj, MY_CLASS);
 180:Drivers/lvgl/src/widgets/buttonmatrix/lv_buttonmatrix.c **** 
 181:Drivers/lvgl/src/widgets/buttonmatrix/lv_buttonmatrix.c ****     lv_buttonmatrix_t * btnm = (lv_buttonmatrix_t *)obj;
 182:Drivers/lvgl/src/widgets/buttonmatrix/lv_buttonmatrix.c ****     uint32_t i;
 183:Drivers/lvgl/src/widgets/buttonmatrix/lv_buttonmatrix.c ****     for(i = 0; i < btnm->btn_cnt; i++) {
 184:Drivers/lvgl/src/widgets/buttonmatrix/lv_buttonmatrix.c ****         lv_buttonmatrix_set_button_ctrl(obj, i, ctrl);
 185:Drivers/lvgl/src/widgets/buttonmatrix/lv_buttonmatrix.c ****     }
 186:Drivers/lvgl/src/widgets/buttonmatrix/lv_buttonmatrix.c **** }
 187:Drivers/lvgl/src/widgets/buttonmatrix/lv_buttonmatrix.c **** 
 188:Drivers/lvgl/src/widgets/buttonmatrix/lv_buttonmatrix.c **** void lv_buttonmatrix_clear_button_ctrl_all(lv_obj_t * obj, lv_buttonmatrix_ctrl_t ctrl)
 189:Drivers/lvgl/src/widgets/buttonmatrix/lv_buttonmatrix.c **** {
 190:Drivers/lvgl/src/widgets/buttonmatrix/lv_buttonmatrix.c ****     LV_ASSERT_OBJ(obj, MY_CLASS);
 191:Drivers/lvgl/src/widgets/buttonmatrix/lv_buttonmatrix.c **** 
 192:Drivers/lvgl/src/widgets/buttonmatrix/lv_buttonmatrix.c ****     lv_buttonmatrix_t * btnm = (lv_buttonmatrix_t *)obj;
 193:Drivers/lvgl/src/widgets/buttonmatrix/lv_buttonmatrix.c ****     uint32_t i;
 194:Drivers/lvgl/src/widgets/buttonmatrix/lv_buttonmatrix.c ****     for(i = 0; i < btnm->btn_cnt; i++) {
 195:Drivers/lvgl/src/widgets/buttonmatrix/lv_buttonmatrix.c ****         lv_buttonmatrix_clear_button_ctrl(obj, i, ctrl);
 196:Drivers/lvgl/src/widgets/buttonmatrix/lv_buttonmatrix.c ****     }
 197:Drivers/lvgl/src/widgets/buttonmatrix/lv_buttonmatrix.c **** }
 198:Drivers/lvgl/src/widgets/buttonmatrix/lv_buttonmatrix.c **** 
 199:Drivers/lvgl/src/widgets/buttonmatrix/lv_buttonmatrix.c **** void lv_buttonmatrix_set_button_width(lv_obj_t * obj, uint32_t btn_id, uint32_t width)
 200:Drivers/lvgl/src/widgets/buttonmatrix/lv_buttonmatrix.c **** {
 201:Drivers/lvgl/src/widgets/buttonmatrix/lv_buttonmatrix.c ****     LV_ASSERT_OBJ(obj, MY_CLASS);
ARM GAS  /tmp/cc9C7swH.s 			page 5


 202:Drivers/lvgl/src/widgets/buttonmatrix/lv_buttonmatrix.c **** 
 203:Drivers/lvgl/src/widgets/buttonmatrix/lv_buttonmatrix.c ****     lv_buttonmatrix_t * btnm = (lv_buttonmatrix_t *)obj;
 204:Drivers/lvgl/src/widgets/buttonmatrix/lv_buttonmatrix.c ****     if(btn_id >= btnm->btn_cnt) return;
 205:Drivers/lvgl/src/widgets/buttonmatrix/lv_buttonmatrix.c ****     btnm->ctrl_bits[btn_id] &= (~LV_BUTTONMATRIX_WIDTH_MASK);
 206:Drivers/lvgl/src/widgets/buttonmatrix/lv_buttonmatrix.c ****     btnm->ctrl_bits[btn_id] |= (LV_BUTTONMATRIX_WIDTH_MASK & width);
 207:Drivers/lvgl/src/widgets/buttonmatrix/lv_buttonmatrix.c **** 
 208:Drivers/lvgl/src/widgets/buttonmatrix/lv_buttonmatrix.c ****     update_map(obj);
 209:Drivers/lvgl/src/widgets/buttonmatrix/lv_buttonmatrix.c **** }
 210:Drivers/lvgl/src/widgets/buttonmatrix/lv_buttonmatrix.c **** 
 211:Drivers/lvgl/src/widgets/buttonmatrix/lv_buttonmatrix.c **** void lv_buttonmatrix_set_one_checked(lv_obj_t * obj, bool en)
 212:Drivers/lvgl/src/widgets/buttonmatrix/lv_buttonmatrix.c **** {
 213:Drivers/lvgl/src/widgets/buttonmatrix/lv_buttonmatrix.c ****     LV_ASSERT_OBJ(obj, MY_CLASS);
 214:Drivers/lvgl/src/widgets/buttonmatrix/lv_buttonmatrix.c **** 
 215:Drivers/lvgl/src/widgets/buttonmatrix/lv_buttonmatrix.c ****     lv_buttonmatrix_t * btnm = (lv_buttonmatrix_t *)obj;
 216:Drivers/lvgl/src/widgets/buttonmatrix/lv_buttonmatrix.c ****     btnm->one_check     = en;
 217:Drivers/lvgl/src/widgets/buttonmatrix/lv_buttonmatrix.c **** 
 218:Drivers/lvgl/src/widgets/buttonmatrix/lv_buttonmatrix.c ****     /*If more than one button is toggled only the first one should be*/
 219:Drivers/lvgl/src/widgets/buttonmatrix/lv_buttonmatrix.c ****     make_one_button_checked(obj, 0);
 220:Drivers/lvgl/src/widgets/buttonmatrix/lv_buttonmatrix.c **** }
 221:Drivers/lvgl/src/widgets/buttonmatrix/lv_buttonmatrix.c **** 
 222:Drivers/lvgl/src/widgets/buttonmatrix/lv_buttonmatrix.c **** /*=====================
 223:Drivers/lvgl/src/widgets/buttonmatrix/lv_buttonmatrix.c ****  * Getter functions
 224:Drivers/lvgl/src/widgets/buttonmatrix/lv_buttonmatrix.c ****  *====================*/
 225:Drivers/lvgl/src/widgets/buttonmatrix/lv_buttonmatrix.c **** 
 226:Drivers/lvgl/src/widgets/buttonmatrix/lv_buttonmatrix.c **** const char * const * lv_buttonmatrix_get_map(const lv_obj_t * obj)
 227:Drivers/lvgl/src/widgets/buttonmatrix/lv_buttonmatrix.c **** {
 228:Drivers/lvgl/src/widgets/buttonmatrix/lv_buttonmatrix.c ****     LV_ASSERT_OBJ(obj, MY_CLASS);
 229:Drivers/lvgl/src/widgets/buttonmatrix/lv_buttonmatrix.c **** 
 230:Drivers/lvgl/src/widgets/buttonmatrix/lv_buttonmatrix.c ****     lv_buttonmatrix_t * btnm = (lv_buttonmatrix_t *)obj;
 231:Drivers/lvgl/src/widgets/buttonmatrix/lv_buttonmatrix.c ****     return btnm->map_p;
 232:Drivers/lvgl/src/widgets/buttonmatrix/lv_buttonmatrix.c **** }
 233:Drivers/lvgl/src/widgets/buttonmatrix/lv_buttonmatrix.c **** 
 234:Drivers/lvgl/src/widgets/buttonmatrix/lv_buttonmatrix.c **** uint32_t lv_buttonmatrix_get_selected_button(const lv_obj_t * obj)
 235:Drivers/lvgl/src/widgets/buttonmatrix/lv_buttonmatrix.c **** {
 236:Drivers/lvgl/src/widgets/buttonmatrix/lv_buttonmatrix.c ****     LV_ASSERT_OBJ(obj, MY_CLASS);
 237:Drivers/lvgl/src/widgets/buttonmatrix/lv_buttonmatrix.c **** 
 238:Drivers/lvgl/src/widgets/buttonmatrix/lv_buttonmatrix.c ****     lv_buttonmatrix_t * btnm = (lv_buttonmatrix_t *)obj;
 239:Drivers/lvgl/src/widgets/buttonmatrix/lv_buttonmatrix.c ****     return btnm->btn_id_sel;
 240:Drivers/lvgl/src/widgets/buttonmatrix/lv_buttonmatrix.c **** }
 241:Drivers/lvgl/src/widgets/buttonmatrix/lv_buttonmatrix.c **** 
 242:Drivers/lvgl/src/widgets/buttonmatrix/lv_buttonmatrix.c **** const char * lv_buttonmatrix_get_button_text(const lv_obj_t * obj, uint32_t btn_id)
 243:Drivers/lvgl/src/widgets/buttonmatrix/lv_buttonmatrix.c **** {
 244:Drivers/lvgl/src/widgets/buttonmatrix/lv_buttonmatrix.c ****     LV_ASSERT_OBJ(obj, MY_CLASS);
 245:Drivers/lvgl/src/widgets/buttonmatrix/lv_buttonmatrix.c **** 
 246:Drivers/lvgl/src/widgets/buttonmatrix/lv_buttonmatrix.c ****     if(btn_id == LV_BUTTONMATRIX_BUTTON_NONE) return NULL;
 247:Drivers/lvgl/src/widgets/buttonmatrix/lv_buttonmatrix.c **** 
 248:Drivers/lvgl/src/widgets/buttonmatrix/lv_buttonmatrix.c ****     lv_buttonmatrix_t * btnm = (lv_buttonmatrix_t *)obj;
 249:Drivers/lvgl/src/widgets/buttonmatrix/lv_buttonmatrix.c ****     if(btn_id >= btnm->btn_cnt) return NULL;
 250:Drivers/lvgl/src/widgets/buttonmatrix/lv_buttonmatrix.c **** 
 251:Drivers/lvgl/src/widgets/buttonmatrix/lv_buttonmatrix.c ****     uint32_t txt_i = 0;
 252:Drivers/lvgl/src/widgets/buttonmatrix/lv_buttonmatrix.c ****     uint32_t btn_i = 0;
 253:Drivers/lvgl/src/widgets/buttonmatrix/lv_buttonmatrix.c **** 
 254:Drivers/lvgl/src/widgets/buttonmatrix/lv_buttonmatrix.c ****     /*Search the text of btnm->btn_pr the buttons text in the map
 255:Drivers/lvgl/src/widgets/buttonmatrix/lv_buttonmatrix.c ****      *Skip "\n"-s*/
 256:Drivers/lvgl/src/widgets/buttonmatrix/lv_buttonmatrix.c ****     while(btn_i != btn_id) {
 257:Drivers/lvgl/src/widgets/buttonmatrix/lv_buttonmatrix.c ****         btn_i++;
 258:Drivers/lvgl/src/widgets/buttonmatrix/lv_buttonmatrix.c ****         txt_i++;
ARM GAS  /tmp/cc9C7swH.s 			page 6


 259:Drivers/lvgl/src/widgets/buttonmatrix/lv_buttonmatrix.c ****         if(lv_strcmp(btnm->map_p[txt_i], "\n") == 0) txt_i++;
 260:Drivers/lvgl/src/widgets/buttonmatrix/lv_buttonmatrix.c ****     }
 261:Drivers/lvgl/src/widgets/buttonmatrix/lv_buttonmatrix.c **** 
 262:Drivers/lvgl/src/widgets/buttonmatrix/lv_buttonmatrix.c ****     if(btn_i == btnm->btn_cnt) return NULL;
 263:Drivers/lvgl/src/widgets/buttonmatrix/lv_buttonmatrix.c **** 
 264:Drivers/lvgl/src/widgets/buttonmatrix/lv_buttonmatrix.c ****     return btnm->map_p[txt_i];
 265:Drivers/lvgl/src/widgets/buttonmatrix/lv_buttonmatrix.c **** }
 266:Drivers/lvgl/src/widgets/buttonmatrix/lv_buttonmatrix.c **** 
 267:Drivers/lvgl/src/widgets/buttonmatrix/lv_buttonmatrix.c **** bool lv_buttonmatrix_has_button_ctrl(lv_obj_t * obj, uint32_t btn_id, lv_buttonmatrix_ctrl_t ctrl)
 268:Drivers/lvgl/src/widgets/buttonmatrix/lv_buttonmatrix.c **** {
 269:Drivers/lvgl/src/widgets/buttonmatrix/lv_buttonmatrix.c ****     LV_ASSERT_OBJ(obj, MY_CLASS);
 270:Drivers/lvgl/src/widgets/buttonmatrix/lv_buttonmatrix.c **** 
 271:Drivers/lvgl/src/widgets/buttonmatrix/lv_buttonmatrix.c ****     lv_buttonmatrix_t * btnm = (lv_buttonmatrix_t *)obj;
 272:Drivers/lvgl/src/widgets/buttonmatrix/lv_buttonmatrix.c ****     if(btn_id >= btnm->btn_cnt) return false;
 273:Drivers/lvgl/src/widgets/buttonmatrix/lv_buttonmatrix.c **** 
 274:Drivers/lvgl/src/widgets/buttonmatrix/lv_buttonmatrix.c ****     return (btnm->ctrl_bits[btn_id] & ctrl) == ctrl;
 275:Drivers/lvgl/src/widgets/buttonmatrix/lv_buttonmatrix.c **** }
 276:Drivers/lvgl/src/widgets/buttonmatrix/lv_buttonmatrix.c **** 
 277:Drivers/lvgl/src/widgets/buttonmatrix/lv_buttonmatrix.c **** bool lv_buttonmatrix_get_one_checked(const lv_obj_t * obj)
 278:Drivers/lvgl/src/widgets/buttonmatrix/lv_buttonmatrix.c **** {
 279:Drivers/lvgl/src/widgets/buttonmatrix/lv_buttonmatrix.c ****     LV_ASSERT_OBJ(obj, MY_CLASS);
 280:Drivers/lvgl/src/widgets/buttonmatrix/lv_buttonmatrix.c **** 
 281:Drivers/lvgl/src/widgets/buttonmatrix/lv_buttonmatrix.c ****     lv_buttonmatrix_t * btnm = (lv_buttonmatrix_t *)obj;
 282:Drivers/lvgl/src/widgets/buttonmatrix/lv_buttonmatrix.c **** 
 283:Drivers/lvgl/src/widgets/buttonmatrix/lv_buttonmatrix.c ****     return btnm->one_check;
 284:Drivers/lvgl/src/widgets/buttonmatrix/lv_buttonmatrix.c **** }
 285:Drivers/lvgl/src/widgets/buttonmatrix/lv_buttonmatrix.c **** 
 286:Drivers/lvgl/src/widgets/buttonmatrix/lv_buttonmatrix.c **** /**********************
 287:Drivers/lvgl/src/widgets/buttonmatrix/lv_buttonmatrix.c ****  *   STATIC FUNCTIONS
 288:Drivers/lvgl/src/widgets/buttonmatrix/lv_buttonmatrix.c ****  **********************/
 289:Drivers/lvgl/src/widgets/buttonmatrix/lv_buttonmatrix.c **** 
 290:Drivers/lvgl/src/widgets/buttonmatrix/lv_buttonmatrix.c **** static void lv_buttonmatrix_constructor(const lv_obj_class_t * class_p, lv_obj_t * obj)
 291:Drivers/lvgl/src/widgets/buttonmatrix/lv_buttonmatrix.c **** {
 292:Drivers/lvgl/src/widgets/buttonmatrix/lv_buttonmatrix.c ****     LV_UNUSED(class_p);
 293:Drivers/lvgl/src/widgets/buttonmatrix/lv_buttonmatrix.c ****     LV_TRACE_OBJ_CREATE("begin");
 294:Drivers/lvgl/src/widgets/buttonmatrix/lv_buttonmatrix.c ****     lv_buttonmatrix_t * btnm = (lv_buttonmatrix_t *)obj;
 295:Drivers/lvgl/src/widgets/buttonmatrix/lv_buttonmatrix.c ****     btnm->btn_cnt        = 0;
 296:Drivers/lvgl/src/widgets/buttonmatrix/lv_buttonmatrix.c ****     btnm->row_cnt        = 0;
 297:Drivers/lvgl/src/widgets/buttonmatrix/lv_buttonmatrix.c ****     btnm->btn_id_sel     = LV_BUTTONMATRIX_BUTTON_NONE;
 298:Drivers/lvgl/src/widgets/buttonmatrix/lv_buttonmatrix.c ****     btnm->button_areas   = NULL;
 299:Drivers/lvgl/src/widgets/buttonmatrix/lv_buttonmatrix.c ****     btnm->ctrl_bits      = NULL;
 300:Drivers/lvgl/src/widgets/buttonmatrix/lv_buttonmatrix.c ****     btnm->map_p          = NULL;
 301:Drivers/lvgl/src/widgets/buttonmatrix/lv_buttonmatrix.c ****     btnm->one_check      = 0;
 302:Drivers/lvgl/src/widgets/buttonmatrix/lv_buttonmatrix.c ****     btnm->auto_free_map  = 0;
 303:Drivers/lvgl/src/widgets/buttonmatrix/lv_buttonmatrix.c **** 
 304:Drivers/lvgl/src/widgets/buttonmatrix/lv_buttonmatrix.c **** #if LV_WIDGETS_HAS_DEFAULT_VALUE
 305:Drivers/lvgl/src/widgets/buttonmatrix/lv_buttonmatrix.c ****     lv_buttonmatrix_set_map(obj, lv_buttonmatrix_def_map);
 306:Drivers/lvgl/src/widgets/buttonmatrix/lv_buttonmatrix.c **** #endif
 307:Drivers/lvgl/src/widgets/buttonmatrix/lv_buttonmatrix.c **** 
 308:Drivers/lvgl/src/widgets/buttonmatrix/lv_buttonmatrix.c ****     LV_TRACE_OBJ_CREATE("finished");
 309:Drivers/lvgl/src/widgets/buttonmatrix/lv_buttonmatrix.c **** }
 310:Drivers/lvgl/src/widgets/buttonmatrix/lv_buttonmatrix.c **** 
 311:Drivers/lvgl/src/widgets/buttonmatrix/lv_buttonmatrix.c **** static void lv_buttonmatrix_destructor(const lv_obj_class_t * class_p, lv_obj_t * obj)
 312:Drivers/lvgl/src/widgets/buttonmatrix/lv_buttonmatrix.c **** {
 313:Drivers/lvgl/src/widgets/buttonmatrix/lv_buttonmatrix.c ****     LV_TRACE_OBJ_CREATE("begin");
 314:Drivers/lvgl/src/widgets/buttonmatrix/lv_buttonmatrix.c ****     LV_UNUSED(class_p);
 315:Drivers/lvgl/src/widgets/buttonmatrix/lv_buttonmatrix.c ****     lv_buttonmatrix_t * btnm = (lv_buttonmatrix_t *)obj;
ARM GAS  /tmp/cc9C7swH.s 			page 7


 316:Drivers/lvgl/src/widgets/buttonmatrix/lv_buttonmatrix.c ****     lv_free(btnm->button_areas);
 317:Drivers/lvgl/src/widgets/buttonmatrix/lv_buttonmatrix.c ****     lv_free(btnm->ctrl_bits);
 318:Drivers/lvgl/src/widgets/buttonmatrix/lv_buttonmatrix.c ****     btnm->button_areas = NULL;
 319:Drivers/lvgl/src/widgets/buttonmatrix/lv_buttonmatrix.c ****     btnm->ctrl_bits = NULL;
 320:Drivers/lvgl/src/widgets/buttonmatrix/lv_buttonmatrix.c ****     LV_TRACE_OBJ_CREATE("finished");
 321:Drivers/lvgl/src/widgets/buttonmatrix/lv_buttonmatrix.c **** }
 322:Drivers/lvgl/src/widgets/buttonmatrix/lv_buttonmatrix.c **** 
 323:Drivers/lvgl/src/widgets/buttonmatrix/lv_buttonmatrix.c **** static void lv_buttonmatrix_event(const lv_obj_class_t * class_p, lv_event_t * e)
 324:Drivers/lvgl/src/widgets/buttonmatrix/lv_buttonmatrix.c **** {
 325:Drivers/lvgl/src/widgets/buttonmatrix/lv_buttonmatrix.c ****     LV_UNUSED(class_p);
 326:Drivers/lvgl/src/widgets/buttonmatrix/lv_buttonmatrix.c **** 
 327:Drivers/lvgl/src/widgets/buttonmatrix/lv_buttonmatrix.c ****     lv_result_t res;
 328:Drivers/lvgl/src/widgets/buttonmatrix/lv_buttonmatrix.c **** 
 329:Drivers/lvgl/src/widgets/buttonmatrix/lv_buttonmatrix.c ****     /*Call the ancestor's event handler*/
 330:Drivers/lvgl/src/widgets/buttonmatrix/lv_buttonmatrix.c ****     res = lv_obj_event_base(MY_CLASS, e);
 331:Drivers/lvgl/src/widgets/buttonmatrix/lv_buttonmatrix.c ****     if(res != LV_RESULT_OK) return;
 332:Drivers/lvgl/src/widgets/buttonmatrix/lv_buttonmatrix.c **** 
 333:Drivers/lvgl/src/widgets/buttonmatrix/lv_buttonmatrix.c ****     lv_event_code_t code = lv_event_get_code(e);
 334:Drivers/lvgl/src/widgets/buttonmatrix/lv_buttonmatrix.c ****     lv_obj_t * obj = lv_event_get_current_target(e);
 335:Drivers/lvgl/src/widgets/buttonmatrix/lv_buttonmatrix.c ****     lv_buttonmatrix_t * btnm = (lv_buttonmatrix_t *)obj;
 336:Drivers/lvgl/src/widgets/buttonmatrix/lv_buttonmatrix.c ****     lv_point_t p;
 337:Drivers/lvgl/src/widgets/buttonmatrix/lv_buttonmatrix.c **** 
 338:Drivers/lvgl/src/widgets/buttonmatrix/lv_buttonmatrix.c ****     if(code == LV_EVENT_REFR_EXT_DRAW_SIZE) {
 339:Drivers/lvgl/src/widgets/buttonmatrix/lv_buttonmatrix.c ****         if(has_popovers_in_top_row(obj)) {
 340:Drivers/lvgl/src/widgets/buttonmatrix/lv_buttonmatrix.c ****             /*reserve one row worth of extra space to account for popovers in the top row*/
 341:Drivers/lvgl/src/widgets/buttonmatrix/lv_buttonmatrix.c ****             int32_t s = btnm->row_cnt > 0 ? lv_obj_get_content_height(obj) / btnm->row_cnt : 0;
 342:Drivers/lvgl/src/widgets/buttonmatrix/lv_buttonmatrix.c ****             lv_event_set_ext_draw_size(e, s);
 343:Drivers/lvgl/src/widgets/buttonmatrix/lv_buttonmatrix.c ****         }
 344:Drivers/lvgl/src/widgets/buttonmatrix/lv_buttonmatrix.c ****     }
 345:Drivers/lvgl/src/widgets/buttonmatrix/lv_buttonmatrix.c ****     if(code == LV_EVENT_STYLE_CHANGED) {
 346:Drivers/lvgl/src/widgets/buttonmatrix/lv_buttonmatrix.c ****         update_map(obj);
 347:Drivers/lvgl/src/widgets/buttonmatrix/lv_buttonmatrix.c ****     }
 348:Drivers/lvgl/src/widgets/buttonmatrix/lv_buttonmatrix.c ****     else if(code == LV_EVENT_SIZE_CHANGED) {
 349:Drivers/lvgl/src/widgets/buttonmatrix/lv_buttonmatrix.c ****         update_map(obj);
 350:Drivers/lvgl/src/widgets/buttonmatrix/lv_buttonmatrix.c ****     }
 351:Drivers/lvgl/src/widgets/buttonmatrix/lv_buttonmatrix.c ****     else if(code == LV_EVENT_PRESSED) {
 352:Drivers/lvgl/src/widgets/buttonmatrix/lv_buttonmatrix.c ****         lv_indev_t * indev = lv_event_get_indev(e);
 353:Drivers/lvgl/src/widgets/buttonmatrix/lv_buttonmatrix.c ****         invalidate_button_area(obj, btnm->btn_id_sel);
 354:Drivers/lvgl/src/widgets/buttonmatrix/lv_buttonmatrix.c **** 
 355:Drivers/lvgl/src/widgets/buttonmatrix/lv_buttonmatrix.c ****         lv_indev_type_t indev_type = lv_indev_get_type(lv_indev_active());
 356:Drivers/lvgl/src/widgets/buttonmatrix/lv_buttonmatrix.c ****         if(indev_type == LV_INDEV_TYPE_POINTER || indev_type == LV_INDEV_TYPE_BUTTON) {
 357:Drivers/lvgl/src/widgets/buttonmatrix/lv_buttonmatrix.c ****             uint32_t btn_pr;
 358:Drivers/lvgl/src/widgets/buttonmatrix/lv_buttonmatrix.c ****             /*Search the pressed area*/
 359:Drivers/lvgl/src/widgets/buttonmatrix/lv_buttonmatrix.c ****             lv_indev_get_point(indev, &p);
 360:Drivers/lvgl/src/widgets/buttonmatrix/lv_buttonmatrix.c ****             btn_pr = get_button_from_point(obj, &p);
 361:Drivers/lvgl/src/widgets/buttonmatrix/lv_buttonmatrix.c ****             /*Handle the case where there is no button there*/
 362:Drivers/lvgl/src/widgets/buttonmatrix/lv_buttonmatrix.c ****             btnm->btn_id_sel = LV_BUTTONMATRIX_BUTTON_NONE;
 363:Drivers/lvgl/src/widgets/buttonmatrix/lv_buttonmatrix.c ****             if(btn_pr != LV_BUTTONMATRIX_BUTTON_NONE) {
 364:Drivers/lvgl/src/widgets/buttonmatrix/lv_buttonmatrix.c ****                 if(button_is_inactive(btnm->ctrl_bits[btn_pr]) == false &&
 365:Drivers/lvgl/src/widgets/buttonmatrix/lv_buttonmatrix.c ****                    button_is_hidden(btnm->ctrl_bits[btn_pr]) == false) {
 366:Drivers/lvgl/src/widgets/buttonmatrix/lv_buttonmatrix.c ****                     btnm->btn_id_sel = btn_pr;
 367:Drivers/lvgl/src/widgets/buttonmatrix/lv_buttonmatrix.c ****                     invalidate_button_area(obj, btnm->btn_id_sel); /*Invalidate the new area*/
 368:Drivers/lvgl/src/widgets/buttonmatrix/lv_buttonmatrix.c ****                 }
 369:Drivers/lvgl/src/widgets/buttonmatrix/lv_buttonmatrix.c ****             }
 370:Drivers/lvgl/src/widgets/buttonmatrix/lv_buttonmatrix.c ****             else {
 371:Drivers/lvgl/src/widgets/buttonmatrix/lv_buttonmatrix.c ****                 btnm->btn_id_sel = LV_BUTTONMATRIX_BUTTON_NONE;
 372:Drivers/lvgl/src/widgets/buttonmatrix/lv_buttonmatrix.c ****             }
ARM GAS  /tmp/cc9C7swH.s 			page 8


 373:Drivers/lvgl/src/widgets/buttonmatrix/lv_buttonmatrix.c ****         }
 374:Drivers/lvgl/src/widgets/buttonmatrix/lv_buttonmatrix.c **** 
 375:Drivers/lvgl/src/widgets/buttonmatrix/lv_buttonmatrix.c ****         if(btnm->btn_id_sel != LV_BUTTONMATRIX_BUTTON_NONE) {
 376:Drivers/lvgl/src/widgets/buttonmatrix/lv_buttonmatrix.c ****             if(button_is_click_trig(btnm->ctrl_bits[btnm->btn_id_sel]) == false &&
 377:Drivers/lvgl/src/widgets/buttonmatrix/lv_buttonmatrix.c ****                button_is_popover(btnm->ctrl_bits[btnm->btn_id_sel]) == false &&
 378:Drivers/lvgl/src/widgets/buttonmatrix/lv_buttonmatrix.c ****                button_is_inactive(btnm->ctrl_bits[btnm->btn_id_sel]) == false &&
 379:Drivers/lvgl/src/widgets/buttonmatrix/lv_buttonmatrix.c ****                button_is_hidden(btnm->ctrl_bits[btnm->btn_id_sel]) == false) {
 380:Drivers/lvgl/src/widgets/buttonmatrix/lv_buttonmatrix.c ****                 uint32_t b = btnm->btn_id_sel;
 381:Drivers/lvgl/src/widgets/buttonmatrix/lv_buttonmatrix.c ****                 res        = lv_obj_send_event(obj, LV_EVENT_VALUE_CHANGED, &b);
 382:Drivers/lvgl/src/widgets/buttonmatrix/lv_buttonmatrix.c ****                 if(res != LV_RESULT_OK) return;
 383:Drivers/lvgl/src/widgets/buttonmatrix/lv_buttonmatrix.c ****             }
 384:Drivers/lvgl/src/widgets/buttonmatrix/lv_buttonmatrix.c ****         }
 385:Drivers/lvgl/src/widgets/buttonmatrix/lv_buttonmatrix.c ****     }
 386:Drivers/lvgl/src/widgets/buttonmatrix/lv_buttonmatrix.c ****     else if(code == LV_EVENT_PRESSING) {
 387:Drivers/lvgl/src/widgets/buttonmatrix/lv_buttonmatrix.c ****         if(btnm->btn_id_sel != LV_BUTTONMATRIX_BUTTON_NONE) {
 388:Drivers/lvgl/src/widgets/buttonmatrix/lv_buttonmatrix.c ****             lv_indev_t * indev = lv_event_get_indev(e);
 389:Drivers/lvgl/src/widgets/buttonmatrix/lv_buttonmatrix.c ****             lv_indev_type_t indev_type = lv_indev_get_type(indev);
 390:Drivers/lvgl/src/widgets/buttonmatrix/lv_buttonmatrix.c ****             if(indev_type == LV_INDEV_TYPE_POINTER || indev_type == LV_INDEV_TYPE_BUTTON) {
 391:Drivers/lvgl/src/widgets/buttonmatrix/lv_buttonmatrix.c ****                 /*If pointer device slid to a new button, discard the current button and don't pres
 392:Drivers/lvgl/src/widgets/buttonmatrix/lv_buttonmatrix.c ****                 lv_indev_get_point(indev, &p);
 393:Drivers/lvgl/src/widgets/buttonmatrix/lv_buttonmatrix.c ****                 uint32_t btn_pr = get_button_from_point(obj, &p);
 394:Drivers/lvgl/src/widgets/buttonmatrix/lv_buttonmatrix.c ****                 if(btn_pr != btnm->btn_id_sel) {
 395:Drivers/lvgl/src/widgets/buttonmatrix/lv_buttonmatrix.c ****                     invalidate_button_area(obj, btnm->btn_id_sel); /*Invalidate the old area*/
 396:Drivers/lvgl/src/widgets/buttonmatrix/lv_buttonmatrix.c ****                     btnm->btn_id_sel = LV_BUTTONMATRIX_BUTTON_NONE;
 397:Drivers/lvgl/src/widgets/buttonmatrix/lv_buttonmatrix.c ****                 }
 398:Drivers/lvgl/src/widgets/buttonmatrix/lv_buttonmatrix.c ****             }
 399:Drivers/lvgl/src/widgets/buttonmatrix/lv_buttonmatrix.c ****         }
 400:Drivers/lvgl/src/widgets/buttonmatrix/lv_buttonmatrix.c ****     }
 401:Drivers/lvgl/src/widgets/buttonmatrix/lv_buttonmatrix.c ****     else if(code == LV_EVENT_RELEASED) {
 402:Drivers/lvgl/src/widgets/buttonmatrix/lv_buttonmatrix.c ****         if(btnm->btn_id_sel != LV_BUTTONMATRIX_BUTTON_NONE) {
 403:Drivers/lvgl/src/widgets/buttonmatrix/lv_buttonmatrix.c ****             /*Toggle the button if enabled*/
 404:Drivers/lvgl/src/widgets/buttonmatrix/lv_buttonmatrix.c ****             if(button_is_checkable(btnm->ctrl_bits[btnm->btn_id_sel]) &&
 405:Drivers/lvgl/src/widgets/buttonmatrix/lv_buttonmatrix.c ****                !button_is_inactive(btnm->ctrl_bits[btnm->btn_id_sel])) {
 406:Drivers/lvgl/src/widgets/buttonmatrix/lv_buttonmatrix.c ****                 if(button_get_checked(btnm->ctrl_bits[btnm->btn_id_sel]) && !btnm->one_check) {
 407:Drivers/lvgl/src/widgets/buttonmatrix/lv_buttonmatrix.c ****                     btnm->ctrl_bits[btnm->btn_id_sel] &= (~LV_BUTTONMATRIX_CTRL_CHECKED);
 408:Drivers/lvgl/src/widgets/buttonmatrix/lv_buttonmatrix.c ****                 }
 409:Drivers/lvgl/src/widgets/buttonmatrix/lv_buttonmatrix.c ****                 else {
 410:Drivers/lvgl/src/widgets/buttonmatrix/lv_buttonmatrix.c ****                     btnm->ctrl_bits[btnm->btn_id_sel] |= LV_BUTTONMATRIX_CTRL_CHECKED;
 411:Drivers/lvgl/src/widgets/buttonmatrix/lv_buttonmatrix.c ****                 }
 412:Drivers/lvgl/src/widgets/buttonmatrix/lv_buttonmatrix.c ****                 if(btnm->one_check) make_one_button_checked(obj, btnm->btn_id_sel);
 413:Drivers/lvgl/src/widgets/buttonmatrix/lv_buttonmatrix.c ****             }
 414:Drivers/lvgl/src/widgets/buttonmatrix/lv_buttonmatrix.c **** 
 415:Drivers/lvgl/src/widgets/buttonmatrix/lv_buttonmatrix.c ****             if((button_is_click_trig(btnm->ctrl_bits[btnm->btn_id_sel]) == true ||
 416:Drivers/lvgl/src/widgets/buttonmatrix/lv_buttonmatrix.c ****                 button_is_popover(btnm->ctrl_bits[btnm->btn_id_sel]) == true) &&
 417:Drivers/lvgl/src/widgets/buttonmatrix/lv_buttonmatrix.c ****                button_is_inactive(btnm->ctrl_bits[btnm->btn_id_sel]) == false &&
 418:Drivers/lvgl/src/widgets/buttonmatrix/lv_buttonmatrix.c ****                button_is_hidden(btnm->ctrl_bits[btnm->btn_id_sel]) == false) {
 419:Drivers/lvgl/src/widgets/buttonmatrix/lv_buttonmatrix.c ****                 uint32_t b = btnm->btn_id_sel;
 420:Drivers/lvgl/src/widgets/buttonmatrix/lv_buttonmatrix.c ****                 res        = lv_obj_send_event(obj, LV_EVENT_VALUE_CHANGED, &b);
 421:Drivers/lvgl/src/widgets/buttonmatrix/lv_buttonmatrix.c ****                 if(res != LV_RESULT_OK) return;
 422:Drivers/lvgl/src/widgets/buttonmatrix/lv_buttonmatrix.c ****             }
 423:Drivers/lvgl/src/widgets/buttonmatrix/lv_buttonmatrix.c ****         }
 424:Drivers/lvgl/src/widgets/buttonmatrix/lv_buttonmatrix.c **** 
 425:Drivers/lvgl/src/widgets/buttonmatrix/lv_buttonmatrix.c ****         /*Invalidate to old pressed area*/;
 426:Drivers/lvgl/src/widgets/buttonmatrix/lv_buttonmatrix.c ****         invalidate_button_area(obj, btnm->btn_id_sel);
 427:Drivers/lvgl/src/widgets/buttonmatrix/lv_buttonmatrix.c **** 
 428:Drivers/lvgl/src/widgets/buttonmatrix/lv_buttonmatrix.c ****     }
 429:Drivers/lvgl/src/widgets/buttonmatrix/lv_buttonmatrix.c ****     else if(code == LV_EVENT_LONG_PRESSED_REPEAT) {
ARM GAS  /tmp/cc9C7swH.s 			page 9


 430:Drivers/lvgl/src/widgets/buttonmatrix/lv_buttonmatrix.c ****         if(btnm->btn_id_sel != LV_BUTTONMATRIX_BUTTON_NONE) {
 431:Drivers/lvgl/src/widgets/buttonmatrix/lv_buttonmatrix.c ****             if(button_is_repeat_disabled(btnm->ctrl_bits[btnm->btn_id_sel]) == false &&
 432:Drivers/lvgl/src/widgets/buttonmatrix/lv_buttonmatrix.c ****                button_is_inactive(btnm->ctrl_bits[btnm->btn_id_sel]) == false &&
 433:Drivers/lvgl/src/widgets/buttonmatrix/lv_buttonmatrix.c ****                button_is_hidden(btnm->ctrl_bits[btnm->btn_id_sel]) == false) {
 434:Drivers/lvgl/src/widgets/buttonmatrix/lv_buttonmatrix.c ****                 uint32_t b = btnm->btn_id_sel;
 435:Drivers/lvgl/src/widgets/buttonmatrix/lv_buttonmatrix.c ****                 res        = lv_obj_send_event(obj, LV_EVENT_VALUE_CHANGED, &b);
 436:Drivers/lvgl/src/widgets/buttonmatrix/lv_buttonmatrix.c ****                 if(res != LV_RESULT_OK) return;
 437:Drivers/lvgl/src/widgets/buttonmatrix/lv_buttonmatrix.c ****             }
 438:Drivers/lvgl/src/widgets/buttonmatrix/lv_buttonmatrix.c ****         }
 439:Drivers/lvgl/src/widgets/buttonmatrix/lv_buttonmatrix.c ****     }
 440:Drivers/lvgl/src/widgets/buttonmatrix/lv_buttonmatrix.c ****     else if(code == LV_EVENT_PRESS_LOST) {
 441:Drivers/lvgl/src/widgets/buttonmatrix/lv_buttonmatrix.c ****         invalidate_button_area(obj, btnm->btn_id_sel);
 442:Drivers/lvgl/src/widgets/buttonmatrix/lv_buttonmatrix.c ****         btnm->btn_id_sel = LV_BUTTONMATRIX_BUTTON_NONE;
 443:Drivers/lvgl/src/widgets/buttonmatrix/lv_buttonmatrix.c ****     }
 444:Drivers/lvgl/src/widgets/buttonmatrix/lv_buttonmatrix.c ****     else if(code == LV_EVENT_FOCUSED) {
 445:Drivers/lvgl/src/widgets/buttonmatrix/lv_buttonmatrix.c ****         if(btnm->btn_cnt == 0) return;
 446:Drivers/lvgl/src/widgets/buttonmatrix/lv_buttonmatrix.c **** 
 447:Drivers/lvgl/src/widgets/buttonmatrix/lv_buttonmatrix.c ****         lv_indev_t * indev = lv_event_get_indev(e);
 448:Drivers/lvgl/src/widgets/buttonmatrix/lv_buttonmatrix.c ****         lv_indev_type_t indev_type = lv_indev_get_type(indev);
 449:Drivers/lvgl/src/widgets/buttonmatrix/lv_buttonmatrix.c **** 
 450:Drivers/lvgl/src/widgets/buttonmatrix/lv_buttonmatrix.c ****         /*If not focused by an input device assume the last input device*/
 451:Drivers/lvgl/src/widgets/buttonmatrix/lv_buttonmatrix.c ****         if(indev == NULL) {
 452:Drivers/lvgl/src/widgets/buttonmatrix/lv_buttonmatrix.c ****             indev = lv_indev_get_next(NULL);
 453:Drivers/lvgl/src/widgets/buttonmatrix/lv_buttonmatrix.c ****             indev_type = lv_indev_get_type(indev);
 454:Drivers/lvgl/src/widgets/buttonmatrix/lv_buttonmatrix.c ****         }
 455:Drivers/lvgl/src/widgets/buttonmatrix/lv_buttonmatrix.c **** 
 456:Drivers/lvgl/src/widgets/buttonmatrix/lv_buttonmatrix.c ****         bool editing = lv_group_get_editing(lv_obj_get_group(obj));
 457:Drivers/lvgl/src/widgets/buttonmatrix/lv_buttonmatrix.c ****         /*Focus the first button if there is not selected button*/
 458:Drivers/lvgl/src/widgets/buttonmatrix/lv_buttonmatrix.c ****         if(btnm->btn_id_sel == LV_BUTTONMATRIX_BUTTON_NONE) {
 459:Drivers/lvgl/src/widgets/buttonmatrix/lv_buttonmatrix.c ****             if(indev_type == LV_INDEV_TYPE_KEYPAD || (indev_type == LV_INDEV_TYPE_ENCODER && editin
 460:Drivers/lvgl/src/widgets/buttonmatrix/lv_buttonmatrix.c ****                 uint32_t b = 0;
 461:Drivers/lvgl/src/widgets/buttonmatrix/lv_buttonmatrix.c ****                 if(btnm->one_check) {
 462:Drivers/lvgl/src/widgets/buttonmatrix/lv_buttonmatrix.c ****                     while(b < btnm->btn_cnt &&
 463:Drivers/lvgl/src/widgets/buttonmatrix/lv_buttonmatrix.c ****                           (button_is_hidden(btnm->ctrl_bits[b]) ||
 464:Drivers/lvgl/src/widgets/buttonmatrix/lv_buttonmatrix.c ****                            button_is_inactive(btnm->ctrl_bits[b]) ||
 465:Drivers/lvgl/src/widgets/buttonmatrix/lv_buttonmatrix.c ****                            button_is_checked(btnm->ctrl_bits[b]) == false)) {
 466:Drivers/lvgl/src/widgets/buttonmatrix/lv_buttonmatrix.c ****                         b++;
 467:Drivers/lvgl/src/widgets/buttonmatrix/lv_buttonmatrix.c ****                     }
 468:Drivers/lvgl/src/widgets/buttonmatrix/lv_buttonmatrix.c ****                 }
 469:Drivers/lvgl/src/widgets/buttonmatrix/lv_buttonmatrix.c ****                 else {
 470:Drivers/lvgl/src/widgets/buttonmatrix/lv_buttonmatrix.c ****                     while(b < btnm->btn_cnt &&
 471:Drivers/lvgl/src/widgets/buttonmatrix/lv_buttonmatrix.c ****                           (button_is_hidden(btnm->ctrl_bits[b]) ||
 472:Drivers/lvgl/src/widgets/buttonmatrix/lv_buttonmatrix.c ****                            button_is_inactive(btnm->ctrl_bits[b]))) {
 473:Drivers/lvgl/src/widgets/buttonmatrix/lv_buttonmatrix.c ****                         b++;
 474:Drivers/lvgl/src/widgets/buttonmatrix/lv_buttonmatrix.c ****                     }
 475:Drivers/lvgl/src/widgets/buttonmatrix/lv_buttonmatrix.c ****                 }
 476:Drivers/lvgl/src/widgets/buttonmatrix/lv_buttonmatrix.c **** 
 477:Drivers/lvgl/src/widgets/buttonmatrix/lv_buttonmatrix.c ****                 btnm->btn_id_sel = b;
 478:Drivers/lvgl/src/widgets/buttonmatrix/lv_buttonmatrix.c ****             }
 479:Drivers/lvgl/src/widgets/buttonmatrix/lv_buttonmatrix.c ****             else {
 480:Drivers/lvgl/src/widgets/buttonmatrix/lv_buttonmatrix.c ****                 btnm->btn_id_sel = LV_BUTTONMATRIX_BUTTON_NONE;
 481:Drivers/lvgl/src/widgets/buttonmatrix/lv_buttonmatrix.c ****             }
 482:Drivers/lvgl/src/widgets/buttonmatrix/lv_buttonmatrix.c ****         }
 483:Drivers/lvgl/src/widgets/buttonmatrix/lv_buttonmatrix.c ****     }
 484:Drivers/lvgl/src/widgets/buttonmatrix/lv_buttonmatrix.c ****     else if(code == LV_EVENT_DEFOCUSED || code == LV_EVENT_LEAVE) {
 485:Drivers/lvgl/src/widgets/buttonmatrix/lv_buttonmatrix.c ****         //        TODO
 486:Drivers/lvgl/src/widgets/buttonmatrix/lv_buttonmatrix.c ****         //        if(btnm->btn_id_sel != LV_BUTTONMATRIX_BUTTON_NONE) invalidate_button_area(obj, b
ARM GAS  /tmp/cc9C7swH.s 			page 10


 487:Drivers/lvgl/src/widgets/buttonmatrix/lv_buttonmatrix.c ****         //        btnm->btn_id_sel = LV_BUTTONMATRIX_BUTTON_NONE;
 488:Drivers/lvgl/src/widgets/buttonmatrix/lv_buttonmatrix.c ****     }
 489:Drivers/lvgl/src/widgets/buttonmatrix/lv_buttonmatrix.c ****     else if(code == LV_EVENT_KEY) {
 490:Drivers/lvgl/src/widgets/buttonmatrix/lv_buttonmatrix.c **** 
 491:Drivers/lvgl/src/widgets/buttonmatrix/lv_buttonmatrix.c ****         invalidate_button_area(obj, btnm->btn_id_sel);
 492:Drivers/lvgl/src/widgets/buttonmatrix/lv_buttonmatrix.c **** 
 493:Drivers/lvgl/src/widgets/buttonmatrix/lv_buttonmatrix.c ****         uint32_t c = lv_event_get_key(e);
 494:Drivers/lvgl/src/widgets/buttonmatrix/lv_buttonmatrix.c ****         if(c == LV_KEY_RIGHT) {
 495:Drivers/lvgl/src/widgets/buttonmatrix/lv_buttonmatrix.c ****             if(btnm->btn_id_sel == LV_BUTTONMATRIX_BUTTON_NONE)  btnm->btn_id_sel = 0;
 496:Drivers/lvgl/src/widgets/buttonmatrix/lv_buttonmatrix.c ****             else btnm->btn_id_sel++;
 497:Drivers/lvgl/src/widgets/buttonmatrix/lv_buttonmatrix.c ****             if(btnm->btn_id_sel >= btnm->btn_cnt) btnm->btn_id_sel = 0;
 498:Drivers/lvgl/src/widgets/buttonmatrix/lv_buttonmatrix.c **** 
 499:Drivers/lvgl/src/widgets/buttonmatrix/lv_buttonmatrix.c ****             uint32_t btn_id_start = btnm->btn_id_sel;
 500:Drivers/lvgl/src/widgets/buttonmatrix/lv_buttonmatrix.c ****             while(button_is_hidden(btnm->ctrl_bits[btnm->btn_id_sel]) || button_is_inactive(btnm->c
 501:Drivers/lvgl/src/widgets/buttonmatrix/lv_buttonmatrix.c ****                 btnm->btn_id_sel++;
 502:Drivers/lvgl/src/widgets/buttonmatrix/lv_buttonmatrix.c ****                 if(btnm->btn_id_sel >= btnm->btn_cnt) btnm->btn_id_sel = 0;
 503:Drivers/lvgl/src/widgets/buttonmatrix/lv_buttonmatrix.c **** 
 504:Drivers/lvgl/src/widgets/buttonmatrix/lv_buttonmatrix.c ****                 if(btnm->btn_id_sel == btn_id_start) {
 505:Drivers/lvgl/src/widgets/buttonmatrix/lv_buttonmatrix.c ****                     btnm->btn_id_sel = LV_BUTTONMATRIX_BUTTON_NONE;
 506:Drivers/lvgl/src/widgets/buttonmatrix/lv_buttonmatrix.c ****                     break;
 507:Drivers/lvgl/src/widgets/buttonmatrix/lv_buttonmatrix.c ****                 }
 508:Drivers/lvgl/src/widgets/buttonmatrix/lv_buttonmatrix.c ****             }
 509:Drivers/lvgl/src/widgets/buttonmatrix/lv_buttonmatrix.c ****         }
 510:Drivers/lvgl/src/widgets/buttonmatrix/lv_buttonmatrix.c ****         else if(c == LV_KEY_LEFT) {
 511:Drivers/lvgl/src/widgets/buttonmatrix/lv_buttonmatrix.c ****             if(btnm->btn_id_sel == LV_BUTTONMATRIX_BUTTON_NONE) btnm->btn_id_sel = 0;
 512:Drivers/lvgl/src/widgets/buttonmatrix/lv_buttonmatrix.c **** 
 513:Drivers/lvgl/src/widgets/buttonmatrix/lv_buttonmatrix.c ****             if(btnm->btn_id_sel == 0) btnm->btn_id_sel = btnm->btn_cnt - 1;
 514:Drivers/lvgl/src/widgets/buttonmatrix/lv_buttonmatrix.c ****             else if(btnm->btn_id_sel > 0) btnm->btn_id_sel--;
 515:Drivers/lvgl/src/widgets/buttonmatrix/lv_buttonmatrix.c **** 
 516:Drivers/lvgl/src/widgets/buttonmatrix/lv_buttonmatrix.c ****             uint32_t btn_id_start = btnm->btn_id_sel;
 517:Drivers/lvgl/src/widgets/buttonmatrix/lv_buttonmatrix.c ****             while(button_is_hidden(btnm->ctrl_bits[btnm->btn_id_sel]) || button_is_inactive(btnm->c
 518:Drivers/lvgl/src/widgets/buttonmatrix/lv_buttonmatrix.c ****                 if(btnm->btn_id_sel > 0) btnm->btn_id_sel--;
 519:Drivers/lvgl/src/widgets/buttonmatrix/lv_buttonmatrix.c ****                 else btnm->btn_id_sel = btnm->btn_cnt - 1;
 520:Drivers/lvgl/src/widgets/buttonmatrix/lv_buttonmatrix.c **** 
 521:Drivers/lvgl/src/widgets/buttonmatrix/lv_buttonmatrix.c ****                 if(btnm->btn_id_sel == btn_id_start) {
 522:Drivers/lvgl/src/widgets/buttonmatrix/lv_buttonmatrix.c ****                     btnm->btn_id_sel = LV_BUTTONMATRIX_BUTTON_NONE;
 523:Drivers/lvgl/src/widgets/buttonmatrix/lv_buttonmatrix.c ****                     break;
 524:Drivers/lvgl/src/widgets/buttonmatrix/lv_buttonmatrix.c ****                 }
 525:Drivers/lvgl/src/widgets/buttonmatrix/lv_buttonmatrix.c ****             }
 526:Drivers/lvgl/src/widgets/buttonmatrix/lv_buttonmatrix.c ****         }
 527:Drivers/lvgl/src/widgets/buttonmatrix/lv_buttonmatrix.c ****         else if(c == LV_KEY_DOWN) {
 528:Drivers/lvgl/src/widgets/buttonmatrix/lv_buttonmatrix.c ****             int32_t col_gap = lv_obj_get_style_pad_column(obj, LV_PART_MAIN);
 529:Drivers/lvgl/src/widgets/buttonmatrix/lv_buttonmatrix.c ****             /*Find the area below the current*/
 530:Drivers/lvgl/src/widgets/buttonmatrix/lv_buttonmatrix.c ****             if(btnm->btn_id_sel == LV_BUTTONMATRIX_BUTTON_NONE) {
 531:Drivers/lvgl/src/widgets/buttonmatrix/lv_buttonmatrix.c ****                 btnm->btn_id_sel = 0;
 532:Drivers/lvgl/src/widgets/buttonmatrix/lv_buttonmatrix.c ****                 while(button_is_hidden(btnm->ctrl_bits[btnm->btn_id_sel]) || button_is_inactive(btn
 533:Drivers/lvgl/src/widgets/buttonmatrix/lv_buttonmatrix.c ****                     btnm->btn_id_sel++;
 534:Drivers/lvgl/src/widgets/buttonmatrix/lv_buttonmatrix.c ****                     if(btnm->btn_id_sel >= btnm->btn_cnt) {
 535:Drivers/lvgl/src/widgets/buttonmatrix/lv_buttonmatrix.c ****                         btnm->btn_id_sel = LV_BUTTONMATRIX_BUTTON_NONE;
 536:Drivers/lvgl/src/widgets/buttonmatrix/lv_buttonmatrix.c ****                         break;
 537:Drivers/lvgl/src/widgets/buttonmatrix/lv_buttonmatrix.c ****                     }
 538:Drivers/lvgl/src/widgets/buttonmatrix/lv_buttonmatrix.c ****                 }
 539:Drivers/lvgl/src/widgets/buttonmatrix/lv_buttonmatrix.c ****             }
 540:Drivers/lvgl/src/widgets/buttonmatrix/lv_buttonmatrix.c ****             else {
 541:Drivers/lvgl/src/widgets/buttonmatrix/lv_buttonmatrix.c ****                 uint32_t area_below;
 542:Drivers/lvgl/src/widgets/buttonmatrix/lv_buttonmatrix.c ****                 int32_t pr_center =
 543:Drivers/lvgl/src/widgets/buttonmatrix/lv_buttonmatrix.c ****                     btnm->button_areas[btnm->btn_id_sel].x1 + (lv_area_get_width(&btnm->button_area
ARM GAS  /tmp/cc9C7swH.s 			page 11


 544:Drivers/lvgl/src/widgets/buttonmatrix/lv_buttonmatrix.c **** 
 545:Drivers/lvgl/src/widgets/buttonmatrix/lv_buttonmatrix.c ****                 for(area_below = btnm->btn_id_sel; area_below < btnm->btn_cnt; area_below++) {
 546:Drivers/lvgl/src/widgets/buttonmatrix/lv_buttonmatrix.c ****                     if(btnm->button_areas[area_below].y1 > btnm->button_areas[btnm->btn_id_sel].y1 
 547:Drivers/lvgl/src/widgets/buttonmatrix/lv_buttonmatrix.c ****                        pr_center >= btnm->button_areas[area_below].x1 &&
 548:Drivers/lvgl/src/widgets/buttonmatrix/lv_buttonmatrix.c ****                        pr_center <= btnm->button_areas[area_below].x2 + col_gap &&
 549:Drivers/lvgl/src/widgets/buttonmatrix/lv_buttonmatrix.c ****                        button_is_inactive(btnm->ctrl_bits[area_below]) == false &&
 550:Drivers/lvgl/src/widgets/buttonmatrix/lv_buttonmatrix.c ****                        button_is_hidden(btnm->ctrl_bits[area_below]) == false) {
 551:Drivers/lvgl/src/widgets/buttonmatrix/lv_buttonmatrix.c ****                         break;
 552:Drivers/lvgl/src/widgets/buttonmatrix/lv_buttonmatrix.c ****                     }
 553:Drivers/lvgl/src/widgets/buttonmatrix/lv_buttonmatrix.c ****                 }
 554:Drivers/lvgl/src/widgets/buttonmatrix/lv_buttonmatrix.c **** 
 555:Drivers/lvgl/src/widgets/buttonmatrix/lv_buttonmatrix.c ****                 if(area_below < btnm->btn_cnt) btnm->btn_id_sel = area_below;
 556:Drivers/lvgl/src/widgets/buttonmatrix/lv_buttonmatrix.c ****             }
 557:Drivers/lvgl/src/widgets/buttonmatrix/lv_buttonmatrix.c ****         }
 558:Drivers/lvgl/src/widgets/buttonmatrix/lv_buttonmatrix.c ****         else if(c == LV_KEY_UP) {
 559:Drivers/lvgl/src/widgets/buttonmatrix/lv_buttonmatrix.c ****             int32_t col_gap = lv_obj_get_style_pad_column(obj, LV_PART_MAIN);
 560:Drivers/lvgl/src/widgets/buttonmatrix/lv_buttonmatrix.c ****             /*Find the area below the current*/
 561:Drivers/lvgl/src/widgets/buttonmatrix/lv_buttonmatrix.c ****             if(btnm->btn_id_sel == LV_BUTTONMATRIX_BUTTON_NONE) {
 562:Drivers/lvgl/src/widgets/buttonmatrix/lv_buttonmatrix.c ****                 btnm->btn_id_sel = 0;
 563:Drivers/lvgl/src/widgets/buttonmatrix/lv_buttonmatrix.c ****                 while(button_is_hidden(btnm->ctrl_bits[btnm->btn_id_sel]) || button_is_inactive(btn
 564:Drivers/lvgl/src/widgets/buttonmatrix/lv_buttonmatrix.c ****                     btnm->btn_id_sel++;
 565:Drivers/lvgl/src/widgets/buttonmatrix/lv_buttonmatrix.c ****                     if(btnm->btn_id_sel >= btnm->btn_cnt) {
 566:Drivers/lvgl/src/widgets/buttonmatrix/lv_buttonmatrix.c ****                         btnm->btn_id_sel = LV_BUTTONMATRIX_BUTTON_NONE;
 567:Drivers/lvgl/src/widgets/buttonmatrix/lv_buttonmatrix.c ****                         break;
 568:Drivers/lvgl/src/widgets/buttonmatrix/lv_buttonmatrix.c ****                     }
 569:Drivers/lvgl/src/widgets/buttonmatrix/lv_buttonmatrix.c ****                 }
 570:Drivers/lvgl/src/widgets/buttonmatrix/lv_buttonmatrix.c ****             }
 571:Drivers/lvgl/src/widgets/buttonmatrix/lv_buttonmatrix.c ****             else {
 572:Drivers/lvgl/src/widgets/buttonmatrix/lv_buttonmatrix.c ****                 int16_t area_above;
 573:Drivers/lvgl/src/widgets/buttonmatrix/lv_buttonmatrix.c ****                 int32_t pr_center =
 574:Drivers/lvgl/src/widgets/buttonmatrix/lv_buttonmatrix.c ****                     btnm->button_areas[btnm->btn_id_sel].x1 + (lv_area_get_width(&btnm->button_area
 575:Drivers/lvgl/src/widgets/buttonmatrix/lv_buttonmatrix.c **** 
 576:Drivers/lvgl/src/widgets/buttonmatrix/lv_buttonmatrix.c ****                 for(area_above = btnm->btn_id_sel; area_above >= 0; area_above--) {
 577:Drivers/lvgl/src/widgets/buttonmatrix/lv_buttonmatrix.c ****                     if(btnm->button_areas[area_above].y1 < btnm->button_areas[btnm->btn_id_sel].y1 
 578:Drivers/lvgl/src/widgets/buttonmatrix/lv_buttonmatrix.c ****                        pr_center >= btnm->button_areas[area_above].x1 - col_gap &&
 579:Drivers/lvgl/src/widgets/buttonmatrix/lv_buttonmatrix.c ****                        pr_center <= btnm->button_areas[area_above].x2 &&
 580:Drivers/lvgl/src/widgets/buttonmatrix/lv_buttonmatrix.c ****                        button_is_inactive(btnm->ctrl_bits[area_above]) == false &&
 581:Drivers/lvgl/src/widgets/buttonmatrix/lv_buttonmatrix.c ****                        button_is_hidden(btnm->ctrl_bits[area_above]) == false) {
 582:Drivers/lvgl/src/widgets/buttonmatrix/lv_buttonmatrix.c ****                         break;
 583:Drivers/lvgl/src/widgets/buttonmatrix/lv_buttonmatrix.c ****                     }
 584:Drivers/lvgl/src/widgets/buttonmatrix/lv_buttonmatrix.c ****                 }
 585:Drivers/lvgl/src/widgets/buttonmatrix/lv_buttonmatrix.c ****                 if(area_above >= 0) btnm->btn_id_sel = area_above;
 586:Drivers/lvgl/src/widgets/buttonmatrix/lv_buttonmatrix.c ****             }
 587:Drivers/lvgl/src/widgets/buttonmatrix/lv_buttonmatrix.c ****         }
 588:Drivers/lvgl/src/widgets/buttonmatrix/lv_buttonmatrix.c **** 
 589:Drivers/lvgl/src/widgets/buttonmatrix/lv_buttonmatrix.c ****         invalidate_button_area(obj, btnm->btn_id_sel);
 590:Drivers/lvgl/src/widgets/buttonmatrix/lv_buttonmatrix.c ****     }
 591:Drivers/lvgl/src/widgets/buttonmatrix/lv_buttonmatrix.c ****     else if(code == LV_EVENT_DRAW_MAIN) {
 592:Drivers/lvgl/src/widgets/buttonmatrix/lv_buttonmatrix.c ****         draw_main(e);
 593:Drivers/lvgl/src/widgets/buttonmatrix/lv_buttonmatrix.c ****     }
 594:Drivers/lvgl/src/widgets/buttonmatrix/lv_buttonmatrix.c ****     else if(code == LV_EVENT_DELETE) {
 595:Drivers/lvgl/src/widgets/buttonmatrix/lv_buttonmatrix.c ****         if(btnm->auto_free_map) free_map(btnm);
 596:Drivers/lvgl/src/widgets/buttonmatrix/lv_buttonmatrix.c ****     }
 597:Drivers/lvgl/src/widgets/buttonmatrix/lv_buttonmatrix.c **** 
 598:Drivers/lvgl/src/widgets/buttonmatrix/lv_buttonmatrix.c **** }
 599:Drivers/lvgl/src/widgets/buttonmatrix/lv_buttonmatrix.c **** 
 600:Drivers/lvgl/src/widgets/buttonmatrix/lv_buttonmatrix.c **** static void draw_main(lv_event_t * e)
ARM GAS  /tmp/cc9C7swH.s 			page 12


 601:Drivers/lvgl/src/widgets/buttonmatrix/lv_buttonmatrix.c **** {
 602:Drivers/lvgl/src/widgets/buttonmatrix/lv_buttonmatrix.c ****     lv_obj_t * obj = lv_event_get_current_target(e);
 603:Drivers/lvgl/src/widgets/buttonmatrix/lv_buttonmatrix.c ****     lv_buttonmatrix_t * btnm = (lv_buttonmatrix_t *)obj;
 604:Drivers/lvgl/src/widgets/buttonmatrix/lv_buttonmatrix.c ****     if(btnm->btn_cnt == 0) return;
 605:Drivers/lvgl/src/widgets/buttonmatrix/lv_buttonmatrix.c **** 
 606:Drivers/lvgl/src/widgets/buttonmatrix/lv_buttonmatrix.c ****     lv_layer_t * layer = lv_event_get_layer(e);
 607:Drivers/lvgl/src/widgets/buttonmatrix/lv_buttonmatrix.c ****     obj->skip_trans = 1;
 608:Drivers/lvgl/src/widgets/buttonmatrix/lv_buttonmatrix.c **** 
 609:Drivers/lvgl/src/widgets/buttonmatrix/lv_buttonmatrix.c ****     lv_area_t area_obj;
 610:Drivers/lvgl/src/widgets/buttonmatrix/lv_buttonmatrix.c ****     lv_obj_get_coords(obj, &area_obj);
 611:Drivers/lvgl/src/widgets/buttonmatrix/lv_buttonmatrix.c **** 
 612:Drivers/lvgl/src/widgets/buttonmatrix/lv_buttonmatrix.c ****     lv_area_t btn_area;
 613:Drivers/lvgl/src/widgets/buttonmatrix/lv_buttonmatrix.c **** 
 614:Drivers/lvgl/src/widgets/buttonmatrix/lv_buttonmatrix.c ****     uint32_t btn_i = 0;
 615:Drivers/lvgl/src/widgets/buttonmatrix/lv_buttonmatrix.c ****     uint32_t txt_i = 0;
 616:Drivers/lvgl/src/widgets/buttonmatrix/lv_buttonmatrix.c **** 
 617:Drivers/lvgl/src/widgets/buttonmatrix/lv_buttonmatrix.c ****     lv_draw_rect_dsc_t draw_rect_dsc_act;
 618:Drivers/lvgl/src/widgets/buttonmatrix/lv_buttonmatrix.c ****     lv_draw_label_dsc_t draw_label_dsc_act;
 619:Drivers/lvgl/src/widgets/buttonmatrix/lv_buttonmatrix.c **** 
 620:Drivers/lvgl/src/widgets/buttonmatrix/lv_buttonmatrix.c ****     lv_draw_rect_dsc_t draw_rect_dsc_def;
 621:Drivers/lvgl/src/widgets/buttonmatrix/lv_buttonmatrix.c ****     lv_draw_label_dsc_t draw_label_dsc_def;
 622:Drivers/lvgl/src/widgets/buttonmatrix/lv_buttonmatrix.c **** 
 623:Drivers/lvgl/src/widgets/buttonmatrix/lv_buttonmatrix.c ****     lv_state_t state_ori = obj->state;
 624:Drivers/lvgl/src/widgets/buttonmatrix/lv_buttonmatrix.c ****     obj->state = LV_STATE_DEFAULT;
 625:Drivers/lvgl/src/widgets/buttonmatrix/lv_buttonmatrix.c ****     obj->skip_trans = 1;
 626:Drivers/lvgl/src/widgets/buttonmatrix/lv_buttonmatrix.c ****     lv_draw_rect_dsc_init(&draw_rect_dsc_def);
 627:Drivers/lvgl/src/widgets/buttonmatrix/lv_buttonmatrix.c ****     draw_rect_dsc_def.base.layer = layer;
 628:Drivers/lvgl/src/widgets/buttonmatrix/lv_buttonmatrix.c ****     lv_draw_label_dsc_init(&draw_label_dsc_def);
 629:Drivers/lvgl/src/widgets/buttonmatrix/lv_buttonmatrix.c ****     draw_label_dsc_def.base.layer = layer;
 630:Drivers/lvgl/src/widgets/buttonmatrix/lv_buttonmatrix.c ****     lv_obj_init_draw_rect_dsc(obj, LV_PART_ITEMS, &draw_rect_dsc_def);
 631:Drivers/lvgl/src/widgets/buttonmatrix/lv_buttonmatrix.c ****     lv_obj_init_draw_label_dsc(obj, LV_PART_ITEMS, &draw_label_dsc_def);
 632:Drivers/lvgl/src/widgets/buttonmatrix/lv_buttonmatrix.c ****     obj->skip_trans = 0;
 633:Drivers/lvgl/src/widgets/buttonmatrix/lv_buttonmatrix.c ****     obj->state = state_ori;
 634:Drivers/lvgl/src/widgets/buttonmatrix/lv_buttonmatrix.c **** 
 635:Drivers/lvgl/src/widgets/buttonmatrix/lv_buttonmatrix.c ****     int32_t ptop = lv_obj_get_style_pad_top(obj, LV_PART_MAIN);
 636:Drivers/lvgl/src/widgets/buttonmatrix/lv_buttonmatrix.c ****     int32_t pbottom = lv_obj_get_style_pad_bottom(obj, LV_PART_MAIN);
 637:Drivers/lvgl/src/widgets/buttonmatrix/lv_buttonmatrix.c ****     int32_t pleft = lv_obj_get_style_pad_left(obj, LV_PART_MAIN);
 638:Drivers/lvgl/src/widgets/buttonmatrix/lv_buttonmatrix.c ****     int32_t pright = lv_obj_get_style_pad_right(obj, LV_PART_MAIN);
 639:Drivers/lvgl/src/widgets/buttonmatrix/lv_buttonmatrix.c **** 
 640:Drivers/lvgl/src/widgets/buttonmatrix/lv_buttonmatrix.c **** #if LV_USE_ARABIC_PERSIAN_CHARS
 641:Drivers/lvgl/src/widgets/buttonmatrix/lv_buttonmatrix.c ****     char txt_ap[256];
 642:Drivers/lvgl/src/widgets/buttonmatrix/lv_buttonmatrix.c **** #endif
 643:Drivers/lvgl/src/widgets/buttonmatrix/lv_buttonmatrix.c **** 
 644:Drivers/lvgl/src/widgets/buttonmatrix/lv_buttonmatrix.c ****     for(btn_i = 0; btn_i < btnm->btn_cnt; btn_i++, txt_i++) {
 645:Drivers/lvgl/src/widgets/buttonmatrix/lv_buttonmatrix.c ****         /*Search the next valid text in the map*/
 646:Drivers/lvgl/src/widgets/buttonmatrix/lv_buttonmatrix.c ****         while(lv_strcmp(btnm->map_p[txt_i], "\n") == 0) {
 647:Drivers/lvgl/src/widgets/buttonmatrix/lv_buttonmatrix.c ****             txt_i++;
 648:Drivers/lvgl/src/widgets/buttonmatrix/lv_buttonmatrix.c ****         }
 649:Drivers/lvgl/src/widgets/buttonmatrix/lv_buttonmatrix.c **** 
 650:Drivers/lvgl/src/widgets/buttonmatrix/lv_buttonmatrix.c ****         /*Skip hidden buttons*/
 651:Drivers/lvgl/src/widgets/buttonmatrix/lv_buttonmatrix.c ****         if(button_is_hidden(btnm->ctrl_bits[btn_i])) continue;
 652:Drivers/lvgl/src/widgets/buttonmatrix/lv_buttonmatrix.c **** 
 653:Drivers/lvgl/src/widgets/buttonmatrix/lv_buttonmatrix.c ****         /*Get the state of the button*/
 654:Drivers/lvgl/src/widgets/buttonmatrix/lv_buttonmatrix.c ****         lv_state_t btn_state = LV_STATE_DEFAULT;
 655:Drivers/lvgl/src/widgets/buttonmatrix/lv_buttonmatrix.c ****         if(button_get_checked(btnm->ctrl_bits[btn_i])) btn_state |= LV_STATE_CHECKED;
 656:Drivers/lvgl/src/widgets/buttonmatrix/lv_buttonmatrix.c **** 
 657:Drivers/lvgl/src/widgets/buttonmatrix/lv_buttonmatrix.c ****         if(button_is_inactive(btnm->ctrl_bits[btn_i])) btn_state |= LV_STATE_DISABLED;
ARM GAS  /tmp/cc9C7swH.s 			page 13


 658:Drivers/lvgl/src/widgets/buttonmatrix/lv_buttonmatrix.c ****         else if(btn_i == btnm->btn_id_sel) {
 659:Drivers/lvgl/src/widgets/buttonmatrix/lv_buttonmatrix.c ****             if(state_ori & LV_STATE_PRESSED) btn_state |= LV_STATE_PRESSED;
 660:Drivers/lvgl/src/widgets/buttonmatrix/lv_buttonmatrix.c ****             if(state_ori & LV_STATE_FOCUSED) btn_state |= LV_STATE_FOCUSED;
 661:Drivers/lvgl/src/widgets/buttonmatrix/lv_buttonmatrix.c ****             if(state_ori & LV_STATE_FOCUS_KEY) btn_state |= LV_STATE_FOCUS_KEY;
 662:Drivers/lvgl/src/widgets/buttonmatrix/lv_buttonmatrix.c ****             if(state_ori & LV_STATE_EDITED) btn_state |= LV_STATE_EDITED;
 663:Drivers/lvgl/src/widgets/buttonmatrix/lv_buttonmatrix.c ****         }
 664:Drivers/lvgl/src/widgets/buttonmatrix/lv_buttonmatrix.c **** 
 665:Drivers/lvgl/src/widgets/buttonmatrix/lv_buttonmatrix.c ****         /*Get the button's area*/
 666:Drivers/lvgl/src/widgets/buttonmatrix/lv_buttonmatrix.c ****         lv_area_copy(&btn_area, &btnm->button_areas[btn_i]);
 667:Drivers/lvgl/src/widgets/buttonmatrix/lv_buttonmatrix.c ****         btn_area.x1 += area_obj.x1;
 668:Drivers/lvgl/src/widgets/buttonmatrix/lv_buttonmatrix.c ****         btn_area.y1 += area_obj.y1;
 669:Drivers/lvgl/src/widgets/buttonmatrix/lv_buttonmatrix.c ****         btn_area.x2 += area_obj.x1;
 670:Drivers/lvgl/src/widgets/buttonmatrix/lv_buttonmatrix.c ****         btn_area.y2 += area_obj.y1;
 671:Drivers/lvgl/src/widgets/buttonmatrix/lv_buttonmatrix.c **** 
 672:Drivers/lvgl/src/widgets/buttonmatrix/lv_buttonmatrix.c ****         /*Set up the draw descriptors*/
 673:Drivers/lvgl/src/widgets/buttonmatrix/lv_buttonmatrix.c ****         if(btn_state == LV_STATE_DEFAULT) {
 674:Drivers/lvgl/src/widgets/buttonmatrix/lv_buttonmatrix.c ****             lv_memcpy(&draw_rect_dsc_act, &draw_rect_dsc_def, sizeof(lv_draw_rect_dsc_t));
 675:Drivers/lvgl/src/widgets/buttonmatrix/lv_buttonmatrix.c ****             lv_memcpy(&draw_label_dsc_act, &draw_label_dsc_def, sizeof(lv_draw_label_dsc_t));
 676:Drivers/lvgl/src/widgets/buttonmatrix/lv_buttonmatrix.c ****         }
 677:Drivers/lvgl/src/widgets/buttonmatrix/lv_buttonmatrix.c ****         /*In other cases get the styles directly without caching them*/
 678:Drivers/lvgl/src/widgets/buttonmatrix/lv_buttonmatrix.c ****         else {
 679:Drivers/lvgl/src/widgets/buttonmatrix/lv_buttonmatrix.c ****             obj->state = btn_state;
 680:Drivers/lvgl/src/widgets/buttonmatrix/lv_buttonmatrix.c ****             obj->skip_trans = 1;
 681:Drivers/lvgl/src/widgets/buttonmatrix/lv_buttonmatrix.c ****             lv_draw_rect_dsc_init(&draw_rect_dsc_act);
 682:Drivers/lvgl/src/widgets/buttonmatrix/lv_buttonmatrix.c ****             draw_rect_dsc_act.base.layer = layer;
 683:Drivers/lvgl/src/widgets/buttonmatrix/lv_buttonmatrix.c ****             lv_draw_label_dsc_init(&draw_label_dsc_act);
 684:Drivers/lvgl/src/widgets/buttonmatrix/lv_buttonmatrix.c ****             draw_label_dsc_act.base.layer = layer;
 685:Drivers/lvgl/src/widgets/buttonmatrix/lv_buttonmatrix.c ****             lv_obj_init_draw_rect_dsc(obj, LV_PART_ITEMS, &draw_rect_dsc_act);
 686:Drivers/lvgl/src/widgets/buttonmatrix/lv_buttonmatrix.c ****             lv_obj_init_draw_label_dsc(obj, LV_PART_ITEMS, &draw_label_dsc_act);
 687:Drivers/lvgl/src/widgets/buttonmatrix/lv_buttonmatrix.c ****             obj->state = state_ori;
 688:Drivers/lvgl/src/widgets/buttonmatrix/lv_buttonmatrix.c ****             obj->skip_trans = 0;
 689:Drivers/lvgl/src/widgets/buttonmatrix/lv_buttonmatrix.c ****         }
 690:Drivers/lvgl/src/widgets/buttonmatrix/lv_buttonmatrix.c **** 
 691:Drivers/lvgl/src/widgets/buttonmatrix/lv_buttonmatrix.c ****         bool recolor = button_is_recolor(btnm->ctrl_bits[btn_i]);
 692:Drivers/lvgl/src/widgets/buttonmatrix/lv_buttonmatrix.c ****         if(recolor) draw_label_dsc_act.flag |= LV_TEXT_FLAG_RECOLOR;
 693:Drivers/lvgl/src/widgets/buttonmatrix/lv_buttonmatrix.c ****         else draw_label_dsc_act.flag &= ~LV_TEXT_FLAG_RECOLOR;
 694:Drivers/lvgl/src/widgets/buttonmatrix/lv_buttonmatrix.c **** 
 695:Drivers/lvgl/src/widgets/buttonmatrix/lv_buttonmatrix.c ****         draw_rect_dsc_act.base.id1 = btn_i;
 696:Drivers/lvgl/src/widgets/buttonmatrix/lv_buttonmatrix.c **** 
 697:Drivers/lvgl/src/widgets/buttonmatrix/lv_buttonmatrix.c ****         /*Remove borders on the edges if `LV_BORDER_SIDE_INTERNAL`*/
 698:Drivers/lvgl/src/widgets/buttonmatrix/lv_buttonmatrix.c ****         if(draw_rect_dsc_act.border_side & LV_BORDER_SIDE_INTERNAL) {
 699:Drivers/lvgl/src/widgets/buttonmatrix/lv_buttonmatrix.c ****             draw_rect_dsc_act.border_side = LV_BORDER_SIDE_FULL;
 700:Drivers/lvgl/src/widgets/buttonmatrix/lv_buttonmatrix.c ****             if(btn_area.x1 == obj->coords.x1 + pleft) draw_rect_dsc_act.border_side &= ~LV_BORDER_S
 701:Drivers/lvgl/src/widgets/buttonmatrix/lv_buttonmatrix.c ****             if(btn_area.x2 == obj->coords.x2 - pright) draw_rect_dsc_act.border_side &= ~LV_BORDER_
 702:Drivers/lvgl/src/widgets/buttonmatrix/lv_buttonmatrix.c ****             if(btn_area.y1 == obj->coords.y1 + ptop) draw_rect_dsc_act.border_side &= ~LV_BORDER_SI
 703:Drivers/lvgl/src/widgets/buttonmatrix/lv_buttonmatrix.c ****             if(btn_area.y2 == obj->coords.y2 - pbottom) draw_rect_dsc_act.border_side &= ~LV_BORDER
 704:Drivers/lvgl/src/widgets/buttonmatrix/lv_buttonmatrix.c ****         }
 705:Drivers/lvgl/src/widgets/buttonmatrix/lv_buttonmatrix.c **** 
 706:Drivers/lvgl/src/widgets/buttonmatrix/lv_buttonmatrix.c ****         int32_t btn_height = lv_area_get_height(&btn_area);
 707:Drivers/lvgl/src/widgets/buttonmatrix/lv_buttonmatrix.c **** 
 708:Drivers/lvgl/src/widgets/buttonmatrix/lv_buttonmatrix.c ****         if((btn_state & LV_STATE_PRESSED) && (btnm->ctrl_bits[btn_i] & LV_BUTTONMATRIX_CTRL_POPOVER
 709:Drivers/lvgl/src/widgets/buttonmatrix/lv_buttonmatrix.c ****             /*Push up the upper boundary of the btn area to create the popover*/
 710:Drivers/lvgl/src/widgets/buttonmatrix/lv_buttonmatrix.c ****             btn_area.y1 -= btn_height;
 711:Drivers/lvgl/src/widgets/buttonmatrix/lv_buttonmatrix.c ****         }
 712:Drivers/lvgl/src/widgets/buttonmatrix/lv_buttonmatrix.c **** 
 713:Drivers/lvgl/src/widgets/buttonmatrix/lv_buttonmatrix.c ****         /*Draw the background*/
 714:Drivers/lvgl/src/widgets/buttonmatrix/lv_buttonmatrix.c ****         lv_draw_rect(layer, &draw_rect_dsc_act, &btn_area);
ARM GAS  /tmp/cc9C7swH.s 			page 14


 715:Drivers/lvgl/src/widgets/buttonmatrix/lv_buttonmatrix.c **** 
 716:Drivers/lvgl/src/widgets/buttonmatrix/lv_buttonmatrix.c ****         /*Calculate the size of the text*/
 717:Drivers/lvgl/src/widgets/buttonmatrix/lv_buttonmatrix.c ****         const lv_font_t * font = draw_label_dsc_act.font;
 718:Drivers/lvgl/src/widgets/buttonmatrix/lv_buttonmatrix.c ****         int32_t letter_space = draw_label_dsc_act.letter_space;
 719:Drivers/lvgl/src/widgets/buttonmatrix/lv_buttonmatrix.c ****         int32_t line_space = draw_label_dsc_act.line_space;
 720:Drivers/lvgl/src/widgets/buttonmatrix/lv_buttonmatrix.c ****         const char * txt = btnm->map_p[txt_i];
 721:Drivers/lvgl/src/widgets/buttonmatrix/lv_buttonmatrix.c **** 
 722:Drivers/lvgl/src/widgets/buttonmatrix/lv_buttonmatrix.c **** #if LV_USE_ARABIC_PERSIAN_CHARS
 723:Drivers/lvgl/src/widgets/buttonmatrix/lv_buttonmatrix.c ****         /*Get the size of the Arabic text and process it*/
 724:Drivers/lvgl/src/widgets/buttonmatrix/lv_buttonmatrix.c ****         size_t len_ap = lv_text_ap_calc_bytes_count(txt);
 725:Drivers/lvgl/src/widgets/buttonmatrix/lv_buttonmatrix.c ****         if(len_ap < sizeof(txt_ap)) {
 726:Drivers/lvgl/src/widgets/buttonmatrix/lv_buttonmatrix.c ****             lv_text_ap_proc(txt, txt_ap);
 727:Drivers/lvgl/src/widgets/buttonmatrix/lv_buttonmatrix.c ****             txt = txt_ap;
 728:Drivers/lvgl/src/widgets/buttonmatrix/lv_buttonmatrix.c ****         }
 729:Drivers/lvgl/src/widgets/buttonmatrix/lv_buttonmatrix.c **** #endif
 730:Drivers/lvgl/src/widgets/buttonmatrix/lv_buttonmatrix.c ****         lv_point_t txt_size;
 731:Drivers/lvgl/src/widgets/buttonmatrix/lv_buttonmatrix.c ****         lv_text_get_size(&txt_size, txt, font, letter_space,
 732:Drivers/lvgl/src/widgets/buttonmatrix/lv_buttonmatrix.c ****                          line_space, lv_area_get_width(&area_obj), draw_label_dsc_act.flag);
 733:Drivers/lvgl/src/widgets/buttonmatrix/lv_buttonmatrix.c **** 
 734:Drivers/lvgl/src/widgets/buttonmatrix/lv_buttonmatrix.c ****         btn_area.x1 += (lv_area_get_width(&btn_area) - txt_size.x) / 2;
 735:Drivers/lvgl/src/widgets/buttonmatrix/lv_buttonmatrix.c ****         btn_area.y1 += (lv_area_get_height(&btn_area) - txt_size.y) / 2;
 736:Drivers/lvgl/src/widgets/buttonmatrix/lv_buttonmatrix.c ****         btn_area.x2 = btn_area.x1 + txt_size.x;
 737:Drivers/lvgl/src/widgets/buttonmatrix/lv_buttonmatrix.c ****         btn_area.y2 = btn_area.y1 + txt_size.y;
 738:Drivers/lvgl/src/widgets/buttonmatrix/lv_buttonmatrix.c **** 
 739:Drivers/lvgl/src/widgets/buttonmatrix/lv_buttonmatrix.c ****         if((btn_state & LV_STATE_PRESSED) && (btnm->ctrl_bits[btn_i] & LV_BUTTONMATRIX_CTRL_POPOVER
 740:Drivers/lvgl/src/widgets/buttonmatrix/lv_buttonmatrix.c ****             /*Push up the button text into the popover*/
 741:Drivers/lvgl/src/widgets/buttonmatrix/lv_buttonmatrix.c ****             btn_area.y1 -= btn_height / 2;
 742:Drivers/lvgl/src/widgets/buttonmatrix/lv_buttonmatrix.c ****             btn_area.y2 -= btn_height / 2;
 743:Drivers/lvgl/src/widgets/buttonmatrix/lv_buttonmatrix.c ****         }
 744:Drivers/lvgl/src/widgets/buttonmatrix/lv_buttonmatrix.c **** 
 745:Drivers/lvgl/src/widgets/buttonmatrix/lv_buttonmatrix.c ****         /*Draw the text*/
 746:Drivers/lvgl/src/widgets/buttonmatrix/lv_buttonmatrix.c ****         draw_label_dsc_act.text = txt;
 747:Drivers/lvgl/src/widgets/buttonmatrix/lv_buttonmatrix.c ****         draw_label_dsc_act.text_local = true;
 748:Drivers/lvgl/src/widgets/buttonmatrix/lv_buttonmatrix.c ****         draw_label_dsc_act.base.id1 = btn_i;
 749:Drivers/lvgl/src/widgets/buttonmatrix/lv_buttonmatrix.c ****         lv_draw_label(layer, &draw_label_dsc_act, &btn_area);
 750:Drivers/lvgl/src/widgets/buttonmatrix/lv_buttonmatrix.c ****     }
 751:Drivers/lvgl/src/widgets/buttonmatrix/lv_buttonmatrix.c **** 
 752:Drivers/lvgl/src/widgets/buttonmatrix/lv_buttonmatrix.c ****     obj->skip_trans = 0;
 753:Drivers/lvgl/src/widgets/buttonmatrix/lv_buttonmatrix.c **** }
 754:Drivers/lvgl/src/widgets/buttonmatrix/lv_buttonmatrix.c **** /**
 755:Drivers/lvgl/src/widgets/buttonmatrix/lv_buttonmatrix.c ****  * Create the required number of buttons and control bytes according to a map
 756:Drivers/lvgl/src/widgets/buttonmatrix/lv_buttonmatrix.c ****  * @param obj pointer to button matrix object
 757:Drivers/lvgl/src/widgets/buttonmatrix/lv_buttonmatrix.c ****  * @param map_p pointer to a string array
 758:Drivers/lvgl/src/widgets/buttonmatrix/lv_buttonmatrix.c ****  */
 759:Drivers/lvgl/src/widgets/buttonmatrix/lv_buttonmatrix.c **** static void allocate_button_areas_and_controls(const lv_obj_t * obj, const char * const * map)
 760:Drivers/lvgl/src/widgets/buttonmatrix/lv_buttonmatrix.c **** {
 761:Drivers/lvgl/src/widgets/buttonmatrix/lv_buttonmatrix.c ****     lv_buttonmatrix_t * btnm = (lv_buttonmatrix_t *)obj;
 762:Drivers/lvgl/src/widgets/buttonmatrix/lv_buttonmatrix.c ****     btnm->row_cnt = 1;
 763:Drivers/lvgl/src/widgets/buttonmatrix/lv_buttonmatrix.c ****     /*Count the buttons in the map*/
 764:Drivers/lvgl/src/widgets/buttonmatrix/lv_buttonmatrix.c ****     uint32_t btn_cnt = 0;
 765:Drivers/lvgl/src/widgets/buttonmatrix/lv_buttonmatrix.c ****     uint32_t i       = 0;
 766:Drivers/lvgl/src/widgets/buttonmatrix/lv_buttonmatrix.c ****     while(map[i] && map[i][0] != '\0') {
 767:Drivers/lvgl/src/widgets/buttonmatrix/lv_buttonmatrix.c ****         if(lv_strcmp(map[i], "\n") != 0) { /*Do not count line breaks*/
 768:Drivers/lvgl/src/widgets/buttonmatrix/lv_buttonmatrix.c ****             btn_cnt++;
 769:Drivers/lvgl/src/widgets/buttonmatrix/lv_buttonmatrix.c ****         }
 770:Drivers/lvgl/src/widgets/buttonmatrix/lv_buttonmatrix.c ****         else {
 771:Drivers/lvgl/src/widgets/buttonmatrix/lv_buttonmatrix.c ****             btnm->row_cnt++;
ARM GAS  /tmp/cc9C7swH.s 			page 15


 772:Drivers/lvgl/src/widgets/buttonmatrix/lv_buttonmatrix.c ****         }
 773:Drivers/lvgl/src/widgets/buttonmatrix/lv_buttonmatrix.c ****         i++;
 774:Drivers/lvgl/src/widgets/buttonmatrix/lv_buttonmatrix.c ****     }
 775:Drivers/lvgl/src/widgets/buttonmatrix/lv_buttonmatrix.c **** 
 776:Drivers/lvgl/src/widgets/buttonmatrix/lv_buttonmatrix.c ****     /*Do not allocate memory for the same amount of buttons*/
 777:Drivers/lvgl/src/widgets/buttonmatrix/lv_buttonmatrix.c ****     if(btn_cnt == btnm->btn_cnt) return;
 778:Drivers/lvgl/src/widgets/buttonmatrix/lv_buttonmatrix.c **** 
 779:Drivers/lvgl/src/widgets/buttonmatrix/lv_buttonmatrix.c ****     if(btnm->button_areas != NULL) {
 780:Drivers/lvgl/src/widgets/buttonmatrix/lv_buttonmatrix.c ****         lv_free(btnm->button_areas);
 781:Drivers/lvgl/src/widgets/buttonmatrix/lv_buttonmatrix.c ****         btnm->button_areas = NULL;
 782:Drivers/lvgl/src/widgets/buttonmatrix/lv_buttonmatrix.c ****     }
 783:Drivers/lvgl/src/widgets/buttonmatrix/lv_buttonmatrix.c ****     if(btnm->ctrl_bits != NULL) {
 784:Drivers/lvgl/src/widgets/buttonmatrix/lv_buttonmatrix.c ****         lv_free(btnm->ctrl_bits);
 785:Drivers/lvgl/src/widgets/buttonmatrix/lv_buttonmatrix.c ****         btnm->ctrl_bits = NULL;
 786:Drivers/lvgl/src/widgets/buttonmatrix/lv_buttonmatrix.c ****     }
 787:Drivers/lvgl/src/widgets/buttonmatrix/lv_buttonmatrix.c **** 
 788:Drivers/lvgl/src/widgets/buttonmatrix/lv_buttonmatrix.c ****     btnm->button_areas = lv_malloc(sizeof(lv_area_t) * btn_cnt);
 789:Drivers/lvgl/src/widgets/buttonmatrix/lv_buttonmatrix.c ****     LV_ASSERT_MALLOC(btnm->button_areas);
 790:Drivers/lvgl/src/widgets/buttonmatrix/lv_buttonmatrix.c ****     btnm->ctrl_bits = lv_malloc(sizeof(lv_buttonmatrix_ctrl_t) * btn_cnt);
 791:Drivers/lvgl/src/widgets/buttonmatrix/lv_buttonmatrix.c ****     LV_ASSERT_MALLOC(btnm->ctrl_bits);
 792:Drivers/lvgl/src/widgets/buttonmatrix/lv_buttonmatrix.c ****     if(btnm->button_areas == NULL || btnm->ctrl_bits == NULL) btn_cnt = 0;
 793:Drivers/lvgl/src/widgets/buttonmatrix/lv_buttonmatrix.c **** 
 794:Drivers/lvgl/src/widgets/buttonmatrix/lv_buttonmatrix.c ****     lv_memzero(btnm->ctrl_bits, sizeof(lv_buttonmatrix_ctrl_t) * btn_cnt);
 795:Drivers/lvgl/src/widgets/buttonmatrix/lv_buttonmatrix.c **** 
 796:Drivers/lvgl/src/widgets/buttonmatrix/lv_buttonmatrix.c ****     btnm->btn_cnt = btn_cnt;
 797:Drivers/lvgl/src/widgets/buttonmatrix/lv_buttonmatrix.c **** }
 798:Drivers/lvgl/src/widgets/buttonmatrix/lv_buttonmatrix.c **** 
 799:Drivers/lvgl/src/widgets/buttonmatrix/lv_buttonmatrix.c **** /**
 800:Drivers/lvgl/src/widgets/buttonmatrix/lv_buttonmatrix.c ****  * Get the width of a button in units (default is 1).
 801:Drivers/lvgl/src/widgets/buttonmatrix/lv_buttonmatrix.c ****  * @param ctrl_bits least significant 3 bits used (1..7 valid values)
 802:Drivers/lvgl/src/widgets/buttonmatrix/lv_buttonmatrix.c ****  * @return the width of the button in units
 803:Drivers/lvgl/src/widgets/buttonmatrix/lv_buttonmatrix.c ****  */
 804:Drivers/lvgl/src/widgets/buttonmatrix/lv_buttonmatrix.c **** static uint32_t get_button_width(lv_buttonmatrix_ctrl_t ctrl_bits)
 805:Drivers/lvgl/src/widgets/buttonmatrix/lv_buttonmatrix.c **** {
  29              		.loc 1 805 1 view -0
  30              		.cfi_startproc
  31              		@ args = 0, pretend = 0, frame = 0
  32              		@ frame_needed = 0, uses_anonymous_args = 0
  33              		@ link register save eliminated.
 806:Drivers/lvgl/src/widgets/buttonmatrix/lv_buttonmatrix.c ****     uint32_t w = ctrl_bits & LV_BUTTONMATRIX_WIDTH_MASK;
  34              		.loc 1 806 5 view .LVU1
 807:Drivers/lvgl/src/widgets/buttonmatrix/lv_buttonmatrix.c ****     return w != 0 ? w : 1;
  35              		.loc 1 807 5 view .LVU2
  36              		.loc 1 807 23 is_stmt 0 view .LVU3
  37 0000 10F00F00 		ands	r0, r0, #15
  38              	.LVL1:
  39              		.loc 1 807 23 view .LVU4
  40 0004 00D1     		bne	.L1
  41              		.loc 1 807 23 discriminator 2 view .LVU5
  42 0006 0120     		movs	r0, #1
  43              	.LVL2:
  44              	.L1:
 808:Drivers/lvgl/src/widgets/buttonmatrix/lv_buttonmatrix.c **** }
  45              		.loc 1 808 1 view .LVU6
  46 0008 7047     		bx	lr
  47              		.cfi_endproc
  48              	.LFE191:
ARM GAS  /tmp/cc9C7swH.s 			page 16


  50              		.section	.text.button_is_hidden,"ax",%progbits
  51              		.align	1
  52              		.syntax unified
  53              		.thumb
  54              		.thumb_func
  56              	button_is_hidden:
  57              	.LVL3:
  58              	.LFB192:
 809:Drivers/lvgl/src/widgets/buttonmatrix/lv_buttonmatrix.c **** 
 810:Drivers/lvgl/src/widgets/buttonmatrix/lv_buttonmatrix.c **** static bool button_is_hidden(lv_buttonmatrix_ctrl_t ctrl_bits)
 811:Drivers/lvgl/src/widgets/buttonmatrix/lv_buttonmatrix.c **** {
  59              		.loc 1 811 1 is_stmt 1 view -0
  60              		.cfi_startproc
  61              		@ args = 0, pretend = 0, frame = 0
  62              		@ frame_needed = 0, uses_anonymous_args = 0
  63              		@ link register save eliminated.
 812:Drivers/lvgl/src/widgets/buttonmatrix/lv_buttonmatrix.c ****     return ctrl_bits & LV_BUTTONMATRIX_CTRL_HIDDEN;
  64              		.loc 1 812 5 view .LVU8
 813:Drivers/lvgl/src/widgets/buttonmatrix/lv_buttonmatrix.c **** }
  65              		.loc 1 813 1 is_stmt 0 view .LVU9
  66 0000 C0F30010 		ubfx	r0, r0, #4, #1
  67              	.LVL4:
  68              		.loc 1 813 1 view .LVU10
  69 0004 7047     		bx	lr
  70              		.cfi_endproc
  71              	.LFE192:
  73              		.section	.text.button_is_checked,"ax",%progbits
  74              		.align	1
  75              		.syntax unified
  76              		.thumb
  77              		.thumb_func
  79              	button_is_checked:
  80              	.LVL5:
  81              	.LFB193:
 814:Drivers/lvgl/src/widgets/buttonmatrix/lv_buttonmatrix.c **** 
 815:Drivers/lvgl/src/widgets/buttonmatrix/lv_buttonmatrix.c **** static bool button_is_checked(lv_buttonmatrix_ctrl_t ctrl_bits)
 816:Drivers/lvgl/src/widgets/buttonmatrix/lv_buttonmatrix.c **** {
  82              		.loc 1 816 1 is_stmt 1 view -0
  83              		.cfi_startproc
  84              		@ args = 0, pretend = 0, frame = 0
  85              		@ frame_needed = 0, uses_anonymous_args = 0
  86              		@ link register save eliminated.
 817:Drivers/lvgl/src/widgets/buttonmatrix/lv_buttonmatrix.c ****     return ctrl_bits & LV_BUTTONMATRIX_CTRL_CHECKED;
  87              		.loc 1 817 5 view .LVU12
 818:Drivers/lvgl/src/widgets/buttonmatrix/lv_buttonmatrix.c **** }
  88              		.loc 1 818 1 is_stmt 0 view .LVU13
  89 0000 C0F30020 		ubfx	r0, r0, #8, #1
  90              	.LVL6:
  91              		.loc 1 818 1 view .LVU14
  92 0004 7047     		bx	lr
  93              		.cfi_endproc
  94              	.LFE193:
  96              		.section	.text.button_is_repeat_disabled,"ax",%progbits
  97              		.align	1
  98              		.syntax unified
  99              		.thumb
 100              		.thumb_func
ARM GAS  /tmp/cc9C7swH.s 			page 17


 102              	button_is_repeat_disabled:
 103              	.LVL7:
 104              	.LFB194:
 819:Drivers/lvgl/src/widgets/buttonmatrix/lv_buttonmatrix.c **** 
 820:Drivers/lvgl/src/widgets/buttonmatrix/lv_buttonmatrix.c **** static bool button_is_repeat_disabled(lv_buttonmatrix_ctrl_t ctrl_bits)
 821:Drivers/lvgl/src/widgets/buttonmatrix/lv_buttonmatrix.c **** {
 105              		.loc 1 821 1 is_stmt 1 view -0
 106              		.cfi_startproc
 107              		@ args = 0, pretend = 0, frame = 0
 108              		@ frame_needed = 0, uses_anonymous_args = 0
 109              		@ link register save eliminated.
 822:Drivers/lvgl/src/widgets/buttonmatrix/lv_buttonmatrix.c ****     return ctrl_bits & LV_BUTTONMATRIX_CTRL_NO_REPEAT;
 110              		.loc 1 822 5 view .LVU16
 823:Drivers/lvgl/src/widgets/buttonmatrix/lv_buttonmatrix.c **** }
 111              		.loc 1 823 1 is_stmt 0 view .LVU17
 112 0000 C0F34010 		ubfx	r0, r0, #5, #1
 113              	.LVL8:
 114              		.loc 1 823 1 view .LVU18
 115 0004 7047     		bx	lr
 116              		.cfi_endproc
 117              	.LFE194:
 119              		.section	.text.button_is_inactive,"ax",%progbits
 120              		.align	1
 121              		.syntax unified
 122              		.thumb
 123              		.thumb_func
 125              	button_is_inactive:
 126              	.LVL9:
 127              	.LFB195:
 824:Drivers/lvgl/src/widgets/buttonmatrix/lv_buttonmatrix.c **** 
 825:Drivers/lvgl/src/widgets/buttonmatrix/lv_buttonmatrix.c **** static bool button_is_inactive(lv_buttonmatrix_ctrl_t ctrl_bits)
 826:Drivers/lvgl/src/widgets/buttonmatrix/lv_buttonmatrix.c **** {
 128              		.loc 1 826 1 is_stmt 1 view -0
 129              		.cfi_startproc
 130              		@ args = 0, pretend = 0, frame = 0
 131              		@ frame_needed = 0, uses_anonymous_args = 0
 132              		@ link register save eliminated.
 827:Drivers/lvgl/src/widgets/buttonmatrix/lv_buttonmatrix.c ****     return ctrl_bits & LV_BUTTONMATRIX_CTRL_DISABLED;
 133              		.loc 1 827 5 view .LVU20
 828:Drivers/lvgl/src/widgets/buttonmatrix/lv_buttonmatrix.c **** }
 134              		.loc 1 828 1 is_stmt 0 view .LVU21
 135 0000 C0F38010 		ubfx	r0, r0, #6, #1
 136              	.LVL10:
 137              		.loc 1 828 1 view .LVU22
 138 0004 7047     		bx	lr
 139              		.cfi_endproc
 140              	.LFE195:
 142              		.section	.text.button_is_click_trig,"ax",%progbits
 143              		.align	1
 144              		.syntax unified
 145              		.thumb
 146              		.thumb_func
 148              	button_is_click_trig:
 149              	.LVL11:
 150              	.LFB196:
 829:Drivers/lvgl/src/widgets/buttonmatrix/lv_buttonmatrix.c **** 
 830:Drivers/lvgl/src/widgets/buttonmatrix/lv_buttonmatrix.c **** static bool button_is_click_trig(lv_buttonmatrix_ctrl_t ctrl_bits)
ARM GAS  /tmp/cc9C7swH.s 			page 18


 831:Drivers/lvgl/src/widgets/buttonmatrix/lv_buttonmatrix.c **** {
 151              		.loc 1 831 1 is_stmt 1 view -0
 152              		.cfi_startproc
 153              		@ args = 0, pretend = 0, frame = 0
 154              		@ frame_needed = 0, uses_anonymous_args = 0
 155              		@ link register save eliminated.
 832:Drivers/lvgl/src/widgets/buttonmatrix/lv_buttonmatrix.c ****     return ctrl_bits & LV_BUTTONMATRIX_CTRL_CLICK_TRIG;
 156              		.loc 1 832 5 view .LVU24
 833:Drivers/lvgl/src/widgets/buttonmatrix/lv_buttonmatrix.c **** }
 157              		.loc 1 833 1 is_stmt 0 view .LVU25
 158 0000 C0F34020 		ubfx	r0, r0, #9, #1
 159              	.LVL12:
 160              		.loc 1 833 1 view .LVU26
 161 0004 7047     		bx	lr
 162              		.cfi_endproc
 163              	.LFE196:
 165              		.section	.text.button_is_popover,"ax",%progbits
 166              		.align	1
 167              		.syntax unified
 168              		.thumb
 169              		.thumb_func
 171              	button_is_popover:
 172              	.LVL13:
 173              	.LFB197:
 834:Drivers/lvgl/src/widgets/buttonmatrix/lv_buttonmatrix.c **** 
 835:Drivers/lvgl/src/widgets/buttonmatrix/lv_buttonmatrix.c **** static bool button_is_popover(lv_buttonmatrix_ctrl_t ctrl_bits)
 836:Drivers/lvgl/src/widgets/buttonmatrix/lv_buttonmatrix.c **** {
 174              		.loc 1 836 1 is_stmt 1 view -0
 175              		.cfi_startproc
 176              		@ args = 0, pretend = 0, frame = 0
 177              		@ frame_needed = 0, uses_anonymous_args = 0
 178              		@ link register save eliminated.
 837:Drivers/lvgl/src/widgets/buttonmatrix/lv_buttonmatrix.c ****     return ctrl_bits & LV_BUTTONMATRIX_CTRL_POPOVER;
 179              		.loc 1 837 5 view .LVU28
 838:Drivers/lvgl/src/widgets/buttonmatrix/lv_buttonmatrix.c **** }
 180              		.loc 1 838 1 is_stmt 0 view .LVU29
 181 0000 C0F38020 		ubfx	r0, r0, #10, #1
 182              	.LVL14:
 183              		.loc 1 838 1 view .LVU30
 184 0004 7047     		bx	lr
 185              		.cfi_endproc
 186              	.LFE197:
 188              		.section	.text.button_is_checkable,"ax",%progbits
 189              		.align	1
 190              		.syntax unified
 191              		.thumb
 192              		.thumb_func
 194              	button_is_checkable:
 195              	.LVL15:
 196              	.LFB198:
 839:Drivers/lvgl/src/widgets/buttonmatrix/lv_buttonmatrix.c **** 
 840:Drivers/lvgl/src/widgets/buttonmatrix/lv_buttonmatrix.c **** static bool button_is_checkable(lv_buttonmatrix_ctrl_t ctrl_bits)
 841:Drivers/lvgl/src/widgets/buttonmatrix/lv_buttonmatrix.c **** {
 197              		.loc 1 841 1 is_stmt 1 view -0
 198              		.cfi_startproc
 199              		@ args = 0, pretend = 0, frame = 0
 200              		@ frame_needed = 0, uses_anonymous_args = 0
ARM GAS  /tmp/cc9C7swH.s 			page 19


 201              		@ link register save eliminated.
 842:Drivers/lvgl/src/widgets/buttonmatrix/lv_buttonmatrix.c ****     return ctrl_bits & LV_BUTTONMATRIX_CTRL_CHECKABLE;
 202              		.loc 1 842 5 view .LVU32
 843:Drivers/lvgl/src/widgets/buttonmatrix/lv_buttonmatrix.c **** }
 203              		.loc 1 843 1 is_stmt 0 view .LVU33
 204 0000 C0F3C010 		ubfx	r0, r0, #7, #1
 205              	.LVL16:
 206              		.loc 1 843 1 view .LVU34
 207 0004 7047     		bx	lr
 208              		.cfi_endproc
 209              	.LFE198:
 211              		.section	.text.button_get_checked,"ax",%progbits
 212              		.align	1
 213              		.syntax unified
 214              		.thumb
 215              		.thumb_func
 217              	button_get_checked:
 218              	.LVL17:
 219              	.LFB199:
 844:Drivers/lvgl/src/widgets/buttonmatrix/lv_buttonmatrix.c **** 
 845:Drivers/lvgl/src/widgets/buttonmatrix/lv_buttonmatrix.c **** static bool button_get_checked(lv_buttonmatrix_ctrl_t ctrl_bits)
 846:Drivers/lvgl/src/widgets/buttonmatrix/lv_buttonmatrix.c **** {
 220              		.loc 1 846 1 is_stmt 1 view -0
 221              		.cfi_startproc
 222              		@ args = 0, pretend = 0, frame = 0
 223              		@ frame_needed = 0, uses_anonymous_args = 0
 224              		@ link register save eliminated.
 847:Drivers/lvgl/src/widgets/buttonmatrix/lv_buttonmatrix.c ****     return ctrl_bits & LV_BUTTONMATRIX_CTRL_CHECKED;
 225              		.loc 1 847 5 view .LVU36
 848:Drivers/lvgl/src/widgets/buttonmatrix/lv_buttonmatrix.c **** }
 226              		.loc 1 848 1 is_stmt 0 view .LVU37
 227 0000 C0F30020 		ubfx	r0, r0, #8, #1
 228              	.LVL18:
 229              		.loc 1 848 1 view .LVU38
 230 0004 7047     		bx	lr
 231              		.cfi_endproc
 232              	.LFE199:
 234              		.section	.text.button_is_recolor,"ax",%progbits
 235              		.align	1
 236              		.syntax unified
 237              		.thumb
 238              		.thumb_func
 240              	button_is_recolor:
 241              	.LVL19:
 242              	.LFB204:
 849:Drivers/lvgl/src/widgets/buttonmatrix/lv_buttonmatrix.c **** 
 850:Drivers/lvgl/src/widgets/buttonmatrix/lv_buttonmatrix.c **** /**
 851:Drivers/lvgl/src/widgets/buttonmatrix/lv_buttonmatrix.c ****  * Gives the button id of a button under a given point
 852:Drivers/lvgl/src/widgets/buttonmatrix/lv_buttonmatrix.c ****  * @param obj pointer to a button matrix object
 853:Drivers/lvgl/src/widgets/buttonmatrix/lv_buttonmatrix.c ****  * @param p a point with absolute coordinates
 854:Drivers/lvgl/src/widgets/buttonmatrix/lv_buttonmatrix.c ****  * @return the id of the button or LV_BUTTONMATRIX_BUTTON_NONE.
 855:Drivers/lvgl/src/widgets/buttonmatrix/lv_buttonmatrix.c ****  */
 856:Drivers/lvgl/src/widgets/buttonmatrix/lv_buttonmatrix.c **** static uint32_t get_button_from_point(lv_obj_t * obj, lv_point_t * p)
 857:Drivers/lvgl/src/widgets/buttonmatrix/lv_buttonmatrix.c **** {
 858:Drivers/lvgl/src/widgets/buttonmatrix/lv_buttonmatrix.c ****     lv_area_t obj_cords;
 859:Drivers/lvgl/src/widgets/buttonmatrix/lv_buttonmatrix.c ****     lv_area_t btn_area;
 860:Drivers/lvgl/src/widgets/buttonmatrix/lv_buttonmatrix.c ****     lv_buttonmatrix_t * btnm = (lv_buttonmatrix_t *)obj;
ARM GAS  /tmp/cc9C7swH.s 			page 20


 861:Drivers/lvgl/src/widgets/buttonmatrix/lv_buttonmatrix.c ****     uint32_t i;
 862:Drivers/lvgl/src/widgets/buttonmatrix/lv_buttonmatrix.c ****     lv_obj_get_coords(obj, &obj_cords);
 863:Drivers/lvgl/src/widgets/buttonmatrix/lv_buttonmatrix.c **** 
 864:Drivers/lvgl/src/widgets/buttonmatrix/lv_buttonmatrix.c ****     int32_t w = lv_obj_get_width(obj);
 865:Drivers/lvgl/src/widgets/buttonmatrix/lv_buttonmatrix.c ****     int32_t h = lv_obj_get_height(obj);
 866:Drivers/lvgl/src/widgets/buttonmatrix/lv_buttonmatrix.c ****     int32_t pleft = lv_obj_get_style_pad_left(obj, LV_PART_MAIN);
 867:Drivers/lvgl/src/widgets/buttonmatrix/lv_buttonmatrix.c ****     int32_t pright = lv_obj_get_style_pad_right(obj, LV_PART_MAIN);
 868:Drivers/lvgl/src/widgets/buttonmatrix/lv_buttonmatrix.c ****     int32_t ptop = lv_obj_get_style_pad_top(obj, LV_PART_MAIN);
 869:Drivers/lvgl/src/widgets/buttonmatrix/lv_buttonmatrix.c ****     int32_t pbottom = lv_obj_get_style_pad_bottom(obj, LV_PART_MAIN);
 870:Drivers/lvgl/src/widgets/buttonmatrix/lv_buttonmatrix.c ****     int32_t prow = lv_obj_get_style_pad_row(obj, LV_PART_MAIN);
 871:Drivers/lvgl/src/widgets/buttonmatrix/lv_buttonmatrix.c ****     int32_t pcol = lv_obj_get_style_pad_column(obj, LV_PART_MAIN);
 872:Drivers/lvgl/src/widgets/buttonmatrix/lv_buttonmatrix.c **** 
 873:Drivers/lvgl/src/widgets/buttonmatrix/lv_buttonmatrix.c ****     /*Get the half gap. Button look larger with this value. (+1 for rounding error)*/
 874:Drivers/lvgl/src/widgets/buttonmatrix/lv_buttonmatrix.c ****     prow = (prow / 2) + 1 + (prow & 1);
 875:Drivers/lvgl/src/widgets/buttonmatrix/lv_buttonmatrix.c ****     pcol = (pcol / 2) + 1 + (pcol & 1);
 876:Drivers/lvgl/src/widgets/buttonmatrix/lv_buttonmatrix.c **** 
 877:Drivers/lvgl/src/widgets/buttonmatrix/lv_buttonmatrix.c ****     prow = LV_MIN(prow, BTN_EXTRA_CLICK_AREA_MAX);
 878:Drivers/lvgl/src/widgets/buttonmatrix/lv_buttonmatrix.c ****     pcol = LV_MIN(pcol, BTN_EXTRA_CLICK_AREA_MAX);
 879:Drivers/lvgl/src/widgets/buttonmatrix/lv_buttonmatrix.c ****     pright = LV_MIN(pright, BTN_EXTRA_CLICK_AREA_MAX);
 880:Drivers/lvgl/src/widgets/buttonmatrix/lv_buttonmatrix.c ****     ptop = LV_MIN(ptop, BTN_EXTRA_CLICK_AREA_MAX);
 881:Drivers/lvgl/src/widgets/buttonmatrix/lv_buttonmatrix.c ****     pbottom = LV_MIN(pbottom, BTN_EXTRA_CLICK_AREA_MAX);
 882:Drivers/lvgl/src/widgets/buttonmatrix/lv_buttonmatrix.c **** 
 883:Drivers/lvgl/src/widgets/buttonmatrix/lv_buttonmatrix.c ****     for(i = 0; i < btnm->btn_cnt; i++) {
 884:Drivers/lvgl/src/widgets/buttonmatrix/lv_buttonmatrix.c ****         lv_area_copy(&btn_area, &btnm->button_areas[i]);
 885:Drivers/lvgl/src/widgets/buttonmatrix/lv_buttonmatrix.c ****         if(btn_area.x1 <= pleft) btn_area.x1 += obj_cords.x1 - LV_MIN(pleft, BTN_EXTRA_CLICK_AREA_M
 886:Drivers/lvgl/src/widgets/buttonmatrix/lv_buttonmatrix.c ****         else btn_area.x1 += obj_cords.x1 - pcol;
 887:Drivers/lvgl/src/widgets/buttonmatrix/lv_buttonmatrix.c **** 
 888:Drivers/lvgl/src/widgets/buttonmatrix/lv_buttonmatrix.c ****         if(btn_area.y1 <= ptop) btn_area.y1 += obj_cords.y1 - LV_MIN(ptop, BTN_EXTRA_CLICK_AREA_MAX
 889:Drivers/lvgl/src/widgets/buttonmatrix/lv_buttonmatrix.c ****         else btn_area.y1 += obj_cords.y1 - prow;
 890:Drivers/lvgl/src/widgets/buttonmatrix/lv_buttonmatrix.c **** 
 891:Drivers/lvgl/src/widgets/buttonmatrix/lv_buttonmatrix.c ****         if(btn_area.x2 >= w - pright - 2) btn_area.x2 += obj_cords.x1 + LV_MIN(pright,
 892:Drivers/lvgl/src/widgets/buttonmatrix/lv_buttonmatrix.c ****                                                                                    BTN_EXTRA_CLICK_
 893:Drivers/lvgl/src/widgets/buttonmatrix/lv_buttonmatrix.c ****         else btn_area.x2 += obj_cords.x1 + pcol;
 894:Drivers/lvgl/src/widgets/buttonmatrix/lv_buttonmatrix.c **** 
 895:Drivers/lvgl/src/widgets/buttonmatrix/lv_buttonmatrix.c ****         if(btn_area.y2 >= h - pbottom - 2) btn_area.y2 += obj_cords.y1 + LV_MIN(pbottom,
 896:Drivers/lvgl/src/widgets/buttonmatrix/lv_buttonmatrix.c ****                                                                                     BTN_EXTRA_CLICK
 897:Drivers/lvgl/src/widgets/buttonmatrix/lv_buttonmatrix.c ****         else btn_area.y2 += obj_cords.y1 + prow;
 898:Drivers/lvgl/src/widgets/buttonmatrix/lv_buttonmatrix.c **** 
 899:Drivers/lvgl/src/widgets/buttonmatrix/lv_buttonmatrix.c ****         if(lv_area_is_point_on(&btn_area, p, 0) != false) {
 900:Drivers/lvgl/src/widgets/buttonmatrix/lv_buttonmatrix.c ****             break;
 901:Drivers/lvgl/src/widgets/buttonmatrix/lv_buttonmatrix.c ****         }
 902:Drivers/lvgl/src/widgets/buttonmatrix/lv_buttonmatrix.c ****     }
 903:Drivers/lvgl/src/widgets/buttonmatrix/lv_buttonmatrix.c **** 
 904:Drivers/lvgl/src/widgets/buttonmatrix/lv_buttonmatrix.c ****     if(i == btnm->btn_cnt) i = LV_BUTTONMATRIX_BUTTON_NONE;
 905:Drivers/lvgl/src/widgets/buttonmatrix/lv_buttonmatrix.c **** 
 906:Drivers/lvgl/src/widgets/buttonmatrix/lv_buttonmatrix.c ****     return i;
 907:Drivers/lvgl/src/widgets/buttonmatrix/lv_buttonmatrix.c **** }
 908:Drivers/lvgl/src/widgets/buttonmatrix/lv_buttonmatrix.c **** 
 909:Drivers/lvgl/src/widgets/buttonmatrix/lv_buttonmatrix.c **** static void invalidate_button_area(const lv_obj_t * obj, uint32_t btn_idx)
 910:Drivers/lvgl/src/widgets/buttonmatrix/lv_buttonmatrix.c **** {
 911:Drivers/lvgl/src/widgets/buttonmatrix/lv_buttonmatrix.c ****     if(btn_idx == LV_BUTTONMATRIX_BUTTON_NONE) return;
 912:Drivers/lvgl/src/widgets/buttonmatrix/lv_buttonmatrix.c **** 
 913:Drivers/lvgl/src/widgets/buttonmatrix/lv_buttonmatrix.c ****     lv_area_t btn_area;
 914:Drivers/lvgl/src/widgets/buttonmatrix/lv_buttonmatrix.c ****     lv_area_t obj_area;
 915:Drivers/lvgl/src/widgets/buttonmatrix/lv_buttonmatrix.c **** 
 916:Drivers/lvgl/src/widgets/buttonmatrix/lv_buttonmatrix.c ****     lv_buttonmatrix_t * btnm = (lv_buttonmatrix_t *)obj;
 917:Drivers/lvgl/src/widgets/buttonmatrix/lv_buttonmatrix.c ****     if(btn_idx >= btnm->btn_cnt) return;
ARM GAS  /tmp/cc9C7swH.s 			page 21


 918:Drivers/lvgl/src/widgets/buttonmatrix/lv_buttonmatrix.c **** 
 919:Drivers/lvgl/src/widgets/buttonmatrix/lv_buttonmatrix.c ****     lv_area_copy(&btn_area, &btnm->button_areas[btn_idx]);
 920:Drivers/lvgl/src/widgets/buttonmatrix/lv_buttonmatrix.c ****     lv_obj_get_coords(obj, &obj_area);
 921:Drivers/lvgl/src/widgets/buttonmatrix/lv_buttonmatrix.c **** 
 922:Drivers/lvgl/src/widgets/buttonmatrix/lv_buttonmatrix.c ****     /*The buttons might have outline and shadow so make the invalidation larger with the gaps betwe
 923:Drivers/lvgl/src/widgets/buttonmatrix/lv_buttonmatrix.c ****      *It assumes that the outline or shadow is smaller than the gaps*/
 924:Drivers/lvgl/src/widgets/buttonmatrix/lv_buttonmatrix.c ****     int32_t row_gap = lv_obj_get_style_pad_row(obj, LV_PART_MAIN);
 925:Drivers/lvgl/src/widgets/buttonmatrix/lv_buttonmatrix.c ****     int32_t col_gap = lv_obj_get_style_pad_column(obj, LV_PART_MAIN);
 926:Drivers/lvgl/src/widgets/buttonmatrix/lv_buttonmatrix.c **** 
 927:Drivers/lvgl/src/widgets/buttonmatrix/lv_buttonmatrix.c ****     /*Be sure to have a minimal extra space if row/col_gap is small*/
 928:Drivers/lvgl/src/widgets/buttonmatrix/lv_buttonmatrix.c ****     int32_t dpi = lv_display_get_dpi(lv_obj_get_display(obj));
 929:Drivers/lvgl/src/widgets/buttonmatrix/lv_buttonmatrix.c ****     row_gap = LV_MAX(row_gap, dpi / 10);
 930:Drivers/lvgl/src/widgets/buttonmatrix/lv_buttonmatrix.c ****     col_gap = LV_MAX(col_gap, dpi / 10);
 931:Drivers/lvgl/src/widgets/buttonmatrix/lv_buttonmatrix.c **** 
 932:Drivers/lvgl/src/widgets/buttonmatrix/lv_buttonmatrix.c ****     /*Convert relative coordinates to absolute*/
 933:Drivers/lvgl/src/widgets/buttonmatrix/lv_buttonmatrix.c ****     btn_area.x1 += obj_area.x1 - row_gap;
 934:Drivers/lvgl/src/widgets/buttonmatrix/lv_buttonmatrix.c ****     btn_area.y1 += obj_area.y1 - col_gap;
 935:Drivers/lvgl/src/widgets/buttonmatrix/lv_buttonmatrix.c ****     btn_area.x2 += obj_area.x1 + row_gap;
 936:Drivers/lvgl/src/widgets/buttonmatrix/lv_buttonmatrix.c ****     btn_area.y2 += obj_area.y1 + col_gap;
 937:Drivers/lvgl/src/widgets/buttonmatrix/lv_buttonmatrix.c **** 
 938:Drivers/lvgl/src/widgets/buttonmatrix/lv_buttonmatrix.c ****     if((btn_idx == btnm->btn_id_sel) && (btnm->ctrl_bits[btn_idx] & LV_BUTTONMATRIX_CTRL_POPOVER)) 
 939:Drivers/lvgl/src/widgets/buttonmatrix/lv_buttonmatrix.c ****         /*Push up the upper boundary of the btn area to also invalidate the popover*/
 940:Drivers/lvgl/src/widgets/buttonmatrix/lv_buttonmatrix.c ****         btn_area.y1 -= lv_area_get_height(&btn_area);
 941:Drivers/lvgl/src/widgets/buttonmatrix/lv_buttonmatrix.c ****     }
 942:Drivers/lvgl/src/widgets/buttonmatrix/lv_buttonmatrix.c **** 
 943:Drivers/lvgl/src/widgets/buttonmatrix/lv_buttonmatrix.c ****     lv_obj_invalidate_area(obj, &btn_area);
 944:Drivers/lvgl/src/widgets/buttonmatrix/lv_buttonmatrix.c **** }
 945:Drivers/lvgl/src/widgets/buttonmatrix/lv_buttonmatrix.c **** 
 946:Drivers/lvgl/src/widgets/buttonmatrix/lv_buttonmatrix.c **** /**
 947:Drivers/lvgl/src/widgets/buttonmatrix/lv_buttonmatrix.c ****  * Enforces a single button being toggled on the button matrix.
 948:Drivers/lvgl/src/widgets/buttonmatrix/lv_buttonmatrix.c ****  * It simply clears the toggle flag on other buttons.
 949:Drivers/lvgl/src/widgets/buttonmatrix/lv_buttonmatrix.c ****  * @param obj Button matrix object
 950:Drivers/lvgl/src/widgets/buttonmatrix/lv_buttonmatrix.c ****  * @param btn_idx Button that should remain toggled
 951:Drivers/lvgl/src/widgets/buttonmatrix/lv_buttonmatrix.c ****  */
 952:Drivers/lvgl/src/widgets/buttonmatrix/lv_buttonmatrix.c **** static void make_one_button_checked(lv_obj_t * obj, uint32_t btn_idx)
 953:Drivers/lvgl/src/widgets/buttonmatrix/lv_buttonmatrix.c **** {
 954:Drivers/lvgl/src/widgets/buttonmatrix/lv_buttonmatrix.c ****     /*Save whether the button was toggled*/
 955:Drivers/lvgl/src/widgets/buttonmatrix/lv_buttonmatrix.c ****     bool was_toggled = lv_buttonmatrix_has_button_ctrl(obj, btn_idx, LV_BUTTONMATRIX_CTRL_CHECKED);
 956:Drivers/lvgl/src/widgets/buttonmatrix/lv_buttonmatrix.c **** 
 957:Drivers/lvgl/src/widgets/buttonmatrix/lv_buttonmatrix.c ****     lv_buttonmatrix_clear_button_ctrl_all(obj, LV_BUTTONMATRIX_CTRL_CHECKED);
 958:Drivers/lvgl/src/widgets/buttonmatrix/lv_buttonmatrix.c **** 
 959:Drivers/lvgl/src/widgets/buttonmatrix/lv_buttonmatrix.c ****     if(was_toggled) lv_buttonmatrix_set_button_ctrl(obj, btn_idx, LV_BUTTONMATRIX_CTRL_CHECKED);
 960:Drivers/lvgl/src/widgets/buttonmatrix/lv_buttonmatrix.c **** }
 961:Drivers/lvgl/src/widgets/buttonmatrix/lv_buttonmatrix.c **** 
 962:Drivers/lvgl/src/widgets/buttonmatrix/lv_buttonmatrix.c **** /**
 963:Drivers/lvgl/src/widgets/buttonmatrix/lv_buttonmatrix.c ****  * Check if any of the buttons in the first row has the LV_BUTTONMATRIX_CTRL_POPOVER control flag s
 964:Drivers/lvgl/src/widgets/buttonmatrix/lv_buttonmatrix.c ****  * @param obj Button matrix object
 965:Drivers/lvgl/src/widgets/buttonmatrix/lv_buttonmatrix.c ****  * @return true if at least one button has the flag, false otherwise
 966:Drivers/lvgl/src/widgets/buttonmatrix/lv_buttonmatrix.c ****  */
 967:Drivers/lvgl/src/widgets/buttonmatrix/lv_buttonmatrix.c **** static bool has_popovers_in_top_row(lv_obj_t * obj)
 968:Drivers/lvgl/src/widgets/buttonmatrix/lv_buttonmatrix.c **** {
 969:Drivers/lvgl/src/widgets/buttonmatrix/lv_buttonmatrix.c ****     lv_buttonmatrix_t * btnm = (lv_buttonmatrix_t *)obj;
 970:Drivers/lvgl/src/widgets/buttonmatrix/lv_buttonmatrix.c **** 
 971:Drivers/lvgl/src/widgets/buttonmatrix/lv_buttonmatrix.c ****     if(btnm->row_cnt <= 0) {
 972:Drivers/lvgl/src/widgets/buttonmatrix/lv_buttonmatrix.c ****         return false;
 973:Drivers/lvgl/src/widgets/buttonmatrix/lv_buttonmatrix.c ****     }
 974:Drivers/lvgl/src/widgets/buttonmatrix/lv_buttonmatrix.c **** 
ARM GAS  /tmp/cc9C7swH.s 			page 22


 975:Drivers/lvgl/src/widgets/buttonmatrix/lv_buttonmatrix.c ****     const char * const * map_row = btnm->map_p;
 976:Drivers/lvgl/src/widgets/buttonmatrix/lv_buttonmatrix.c ****     uint32_t btn_cnt = 0;
 977:Drivers/lvgl/src/widgets/buttonmatrix/lv_buttonmatrix.c **** 
 978:Drivers/lvgl/src/widgets/buttonmatrix/lv_buttonmatrix.c ****     while(map_row[btn_cnt] && lv_strcmp(map_row[btn_cnt], "\n") != 0 && map_row[btn_cnt][0] != '\0'
 979:Drivers/lvgl/src/widgets/buttonmatrix/lv_buttonmatrix.c ****         if(button_is_popover(btnm->ctrl_bits[btn_cnt])) {
 980:Drivers/lvgl/src/widgets/buttonmatrix/lv_buttonmatrix.c ****             return true;
 981:Drivers/lvgl/src/widgets/buttonmatrix/lv_buttonmatrix.c ****         }
 982:Drivers/lvgl/src/widgets/buttonmatrix/lv_buttonmatrix.c ****         btn_cnt++;
 983:Drivers/lvgl/src/widgets/buttonmatrix/lv_buttonmatrix.c ****     }
 984:Drivers/lvgl/src/widgets/buttonmatrix/lv_buttonmatrix.c **** 
 985:Drivers/lvgl/src/widgets/buttonmatrix/lv_buttonmatrix.c ****     return false;
 986:Drivers/lvgl/src/widgets/buttonmatrix/lv_buttonmatrix.c **** }
 987:Drivers/lvgl/src/widgets/buttonmatrix/lv_buttonmatrix.c **** 
 988:Drivers/lvgl/src/widgets/buttonmatrix/lv_buttonmatrix.c **** static bool button_is_recolor(lv_buttonmatrix_ctrl_t ctrl_bits)
 989:Drivers/lvgl/src/widgets/buttonmatrix/lv_buttonmatrix.c **** {
 243              		.loc 1 989 1 is_stmt 1 view -0
 244              		.cfi_startproc
 245              		@ args = 0, pretend = 0, frame = 0
 246              		@ frame_needed = 0, uses_anonymous_args = 0
 247              		@ link register save eliminated.
 990:Drivers/lvgl/src/widgets/buttonmatrix/lv_buttonmatrix.c ****     return (ctrl_bits & LV_BUTTONMATRIX_CTRL_RECOLOR) ? true : false;
 248              		.loc 1 990 5 view .LVU40
 991:Drivers/lvgl/src/widgets/buttonmatrix/lv_buttonmatrix.c **** }
 249              		.loc 1 991 1 is_stmt 0 view .LVU41
 250 0000 C0F3C020 		ubfx	r0, r0, #11, #1
 251              	.LVL20:
 252              		.loc 1 991 1 view .LVU42
 253 0004 7047     		bx	lr
 254              		.cfi_endproc
 255              	.LFE204:
 257              		.section	.rodata.has_popovers_in_top_row.str1.4,"aMS",%progbits,1
 258              		.align	2
 259              	.LC0:
 260 0000 0A00     		.ascii	"\012\000"
 261              		.section	.text.has_popovers_in_top_row,"ax",%progbits
 262              		.align	1
 263              		.syntax unified
 264              		.thumb
 265              		.thumb_func
 267              	has_popovers_in_top_row:
 268              	.LVL21:
 269              	.LFB203:
 968:Drivers/lvgl/src/widgets/buttonmatrix/lv_buttonmatrix.c ****     lv_buttonmatrix_t * btnm = (lv_buttonmatrix_t *)obj;
 270              		.loc 1 968 1 is_stmt 1 view -0
 271              		.cfi_startproc
 272              		@ args = 0, pretend = 0, frame = 0
 273              		@ frame_needed = 0, uses_anonymous_args = 0
 969:Drivers/lvgl/src/widgets/buttonmatrix/lv_buttonmatrix.c **** 
 274              		.loc 1 969 5 view .LVU44
 971:Drivers/lvgl/src/widgets/buttonmatrix/lv_buttonmatrix.c ****         return false;
 275              		.loc 1 971 5 view .LVU45
 971:Drivers/lvgl/src/widgets/buttonmatrix/lv_buttonmatrix.c ****         return false;
 276              		.loc 1 971 12 is_stmt 0 view .LVU46
 277 0000 C36B     		ldr	r3, [r0, #60]
 971:Drivers/lvgl/src/widgets/buttonmatrix/lv_buttonmatrix.c ****         return false;
 278              		.loc 1 971 7 view .LVU47
 279 0002 BBB1     		cbz	r3, .L17
ARM GAS  /tmp/cc9C7swH.s 			page 23


 968:Drivers/lvgl/src/widgets/buttonmatrix/lv_buttonmatrix.c ****     lv_buttonmatrix_t * btnm = (lv_buttonmatrix_t *)obj;
 280              		.loc 1 968 1 view .LVU48
 281 0004 70B5     		push	{r4, r5, r6, lr}
 282              	.LCFI0:
 283              		.cfi_def_cfa_offset 16
 284              		.cfi_offset 4, -16
 285              		.cfi_offset 5, -12
 286              		.cfi_offset 6, -8
 287              		.cfi_offset 14, -4
 288 0006 0646     		mov	r6, r0
 975:Drivers/lvgl/src/widgets/buttonmatrix/lv_buttonmatrix.c ****     uint32_t btn_cnt = 0;
 289              		.loc 1 975 5 is_stmt 1 view .LVU49
 975:Drivers/lvgl/src/widgets/buttonmatrix/lv_buttonmatrix.c ****     uint32_t btn_cnt = 0;
 290              		.loc 1 975 26 is_stmt 0 view .LVU50
 291 0008 C56A     		ldr	r5, [r0, #44]
 292              	.LVL22:
 976:Drivers/lvgl/src/widgets/buttonmatrix/lv_buttonmatrix.c **** 
 293              		.loc 1 976 5 is_stmt 1 view .LVU51
 978:Drivers/lvgl/src/widgets/buttonmatrix/lv_buttonmatrix.c ****         if(button_is_popover(btnm->ctrl_bits[btn_cnt])) {
 294              		.loc 1 978 5 view .LVU52
 976:Drivers/lvgl/src/widgets/buttonmatrix/lv_buttonmatrix.c **** 
 295              		.loc 1 976 14 is_stmt 0 view .LVU53
 296 000a 0024     		movs	r4, #0
 297              	.LVL23:
 298              	.L15:
 978:Drivers/lvgl/src/widgets/buttonmatrix/lv_buttonmatrix.c ****         if(button_is_popover(btnm->ctrl_bits[btn_cnt])) {
 299              		.loc 1 978 70 is_stmt 1 view .LVU54
 978:Drivers/lvgl/src/widgets/buttonmatrix/lv_buttonmatrix.c ****         if(button_is_popover(btnm->ctrl_bits[btn_cnt])) {
 300              		.loc 1 978 18 is_stmt 0 view .LVU55
 301 000c 55F82400 		ldr	r0, [r5, r4, lsl #2]
 978:Drivers/lvgl/src/widgets/buttonmatrix/lv_buttonmatrix.c ****         if(button_is_popover(btnm->ctrl_bits[btn_cnt])) {
 302              		.loc 1 978 70 view .LVU56
 303 0010 98B1     		cbz	r0, .L18
 978:Drivers/lvgl/src/widgets/buttonmatrix/lv_buttonmatrix.c ****         if(button_is_popover(btnm->ctrl_bits[btn_cnt])) {
 304              		.loc 1 978 31 discriminator 1 view .LVU57
 305 0012 0C49     		ldr	r1, .L24
 306 0014 FFF7FEFF 		bl	lv_strcmp
 307              	.LVL24:
 978:Drivers/lvgl/src/widgets/buttonmatrix/lv_buttonmatrix.c ****         if(button_is_popover(btnm->ctrl_bits[btn_cnt])) {
 308              		.loc 1 978 28 discriminator 1 view .LVU58
 309 0018 90B1     		cbz	r0, .L19
 978:Drivers/lvgl/src/widgets/buttonmatrix/lv_buttonmatrix.c ****         if(button_is_popover(btnm->ctrl_bits[btn_cnt])) {
 310              		.loc 1 978 80 discriminator 2 view .LVU59
 311 001a 55F82430 		ldr	r3, [r5, r4, lsl #2]
 978:Drivers/lvgl/src/widgets/buttonmatrix/lv_buttonmatrix.c ****         if(button_is_popover(btnm->ctrl_bits[btn_cnt])) {
 312              		.loc 1 978 89 discriminator 2 view .LVU60
 313 001e 1B78     		ldrb	r3, [r3]	@ zero_extendqisi2
 978:Drivers/lvgl/src/widgets/buttonmatrix/lv_buttonmatrix.c ****         if(button_is_popover(btnm->ctrl_bits[btn_cnt])) {
 314              		.loc 1 978 70 discriminator 2 view .LVU61
 315 0020 63B1     		cbz	r3, .L14
 979:Drivers/lvgl/src/widgets/buttonmatrix/lv_buttonmatrix.c ****             return true;
 316              		.loc 1 979 9 is_stmt 1 view .LVU62
 979:Drivers/lvgl/src/widgets/buttonmatrix/lv_buttonmatrix.c ****             return true;
 317              		.loc 1 979 34 is_stmt 0 view .LVU63
 318 0022 736B     		ldr	r3, [r6, #52]
 979:Drivers/lvgl/src/widgets/buttonmatrix/lv_buttonmatrix.c ****             return true;
 319              		.loc 1 979 12 view .LVU64
ARM GAS  /tmp/cc9C7swH.s 			page 24


 320 0024 33F81400 		ldrh	r0, [r3, r4, lsl #1]
 321 0028 FFF7FEFF 		bl	button_is_popover
 322              	.LVL25:
 979:Drivers/lvgl/src/widgets/buttonmatrix/lv_buttonmatrix.c ****             return true;
 323              		.loc 1 979 11 discriminator 1 view .LVU65
 324 002c 0346     		mov	r3, r0
 325 002e 28B9     		cbnz	r0, .L14
 982:Drivers/lvgl/src/widgets/buttonmatrix/lv_buttonmatrix.c ****     }
 326              		.loc 1 982 9 is_stmt 1 view .LVU66
 982:Drivers/lvgl/src/widgets/buttonmatrix/lv_buttonmatrix.c ****     }
 327              		.loc 1 982 16 is_stmt 0 view .LVU67
 328 0030 0134     		adds	r4, r4, #1
 329              	.LVL26:
 982:Drivers/lvgl/src/widgets/buttonmatrix/lv_buttonmatrix.c ****     }
 330              		.loc 1 982 16 view .LVU68
 331 0032 EBE7     		b	.L15
 332              	.LVL27:
 333              	.L17:
 334              	.LCFI1:
 335              		.cfi_def_cfa_offset 0
 336              		.cfi_restore 4
 337              		.cfi_restore 5
 338              		.cfi_restore 6
 339              		.cfi_restore 14
 972:Drivers/lvgl/src/widgets/buttonmatrix/lv_buttonmatrix.c ****     }
 340              		.loc 1 972 16 view .LVU69
 341 0034 0023     		movs	r3, #0
 986:Drivers/lvgl/src/widgets/buttonmatrix/lv_buttonmatrix.c **** 
 342              		.loc 1 986 1 view .LVU70
 343 0036 1846     		mov	r0, r3
 344              	.LVL28:
 986:Drivers/lvgl/src/widgets/buttonmatrix/lv_buttonmatrix.c **** 
 345              		.loc 1 986 1 view .LVU71
 346 0038 7047     		bx	lr
 347              	.LVL29:
 348              	.L18:
 349              	.LCFI2:
 350              		.cfi_def_cfa_offset 16
 351              		.cfi_offset 4, -16
 352              		.cfi_offset 5, -12
 353              		.cfi_offset 6, -8
 354              		.cfi_offset 14, -4
 985:Drivers/lvgl/src/widgets/buttonmatrix/lv_buttonmatrix.c **** }
 355              		.loc 1 985 12 view .LVU72
 356 003a 0023     		movs	r3, #0
 357              	.L14:
 986:Drivers/lvgl/src/widgets/buttonmatrix/lv_buttonmatrix.c **** 
 358              		.loc 1 986 1 view .LVU73
 359 003c 1846     		mov	r0, r3
 360 003e 70BD     		pop	{r4, r5, r6, pc}
 361              	.LVL30:
 362              	.L19:
 985:Drivers/lvgl/src/widgets/buttonmatrix/lv_buttonmatrix.c **** }
 363              		.loc 1 985 12 view .LVU74
 364 0040 0023     		movs	r3, #0
 365 0042 FBE7     		b	.L14
 366              	.L25:
ARM GAS  /tmp/cc9C7swH.s 			page 25


 367              		.align	2
 368              	.L24:
 369 0044 00000000 		.word	.LC0
 370              		.cfi_endproc
 371              	.LFE203:
 373              		.section	.text.lv_obj_get_style_space_left,"ax",%progbits
 374              		.align	1
 375              		.syntax unified
 376              		.thumb
 377              		.thumb_func
 379              	lv_obj_get_style_space_left:
 380              	.LVL31:
 381              	.LFB165:
 382              		.file 2 "Drivers/lvgl/src/widgets/buttonmatrix/../../core/lv_obj_style.h"
   1:Drivers/lvgl/src/widgets/buttonmatrix/../../core/lv_obj_style.h **** /**
   2:Drivers/lvgl/src/widgets/buttonmatrix/../../core/lv_obj_style.h ****  * @file lv_obj_style.h
   3:Drivers/lvgl/src/widgets/buttonmatrix/../../core/lv_obj_style.h ****  *
   4:Drivers/lvgl/src/widgets/buttonmatrix/../../core/lv_obj_style.h ****  */
   5:Drivers/lvgl/src/widgets/buttonmatrix/../../core/lv_obj_style.h **** 
   6:Drivers/lvgl/src/widgets/buttonmatrix/../../core/lv_obj_style.h **** #ifndef LV_OBJ_STYLE_H
   7:Drivers/lvgl/src/widgets/buttonmatrix/../../core/lv_obj_style.h **** #define LV_OBJ_STYLE_H
   8:Drivers/lvgl/src/widgets/buttonmatrix/../../core/lv_obj_style.h **** 
   9:Drivers/lvgl/src/widgets/buttonmatrix/../../core/lv_obj_style.h **** #ifdef __cplusplus
  10:Drivers/lvgl/src/widgets/buttonmatrix/../../core/lv_obj_style.h **** extern "C" {
  11:Drivers/lvgl/src/widgets/buttonmatrix/../../core/lv_obj_style.h **** #endif
  12:Drivers/lvgl/src/widgets/buttonmatrix/../../core/lv_obj_style.h **** 
  13:Drivers/lvgl/src/widgets/buttonmatrix/../../core/lv_obj_style.h **** /*********************
  14:Drivers/lvgl/src/widgets/buttonmatrix/../../core/lv_obj_style.h ****  *      INCLUDES
  15:Drivers/lvgl/src/widgets/buttonmatrix/../../core/lv_obj_style.h ****  *********************/
  16:Drivers/lvgl/src/widgets/buttonmatrix/../../core/lv_obj_style.h **** #include "../misc/lv_bidi.h"
  17:Drivers/lvgl/src/widgets/buttonmatrix/../../core/lv_obj_style.h **** #include "../misc/lv_style.h"
  18:Drivers/lvgl/src/widgets/buttonmatrix/../../core/lv_obj_style.h **** #include "../misc/lv_types.h"
  19:Drivers/lvgl/src/widgets/buttonmatrix/../../core/lv_obj_style.h **** 
  20:Drivers/lvgl/src/widgets/buttonmatrix/../../core/lv_obj_style.h **** /*********************
  21:Drivers/lvgl/src/widgets/buttonmatrix/../../core/lv_obj_style.h ****  *      DEFINES
  22:Drivers/lvgl/src/widgets/buttonmatrix/../../core/lv_obj_style.h ****  *********************/
  23:Drivers/lvgl/src/widgets/buttonmatrix/../../core/lv_obj_style.h **** 
  24:Drivers/lvgl/src/widgets/buttonmatrix/../../core/lv_obj_style.h **** /**********************
  25:Drivers/lvgl/src/widgets/buttonmatrix/../../core/lv_obj_style.h ****  *      TYPEDEFS
  26:Drivers/lvgl/src/widgets/buttonmatrix/../../core/lv_obj_style.h ****  **********************/
  27:Drivers/lvgl/src/widgets/buttonmatrix/../../core/lv_obj_style.h **** 
  28:Drivers/lvgl/src/widgets/buttonmatrix/../../core/lv_obj_style.h **** typedef enum {
  29:Drivers/lvgl/src/widgets/buttonmatrix/../../core/lv_obj_style.h ****     LV_STYLE_STATE_CMP_SAME,           /**< The style properties in the 2 states are identical */
  30:Drivers/lvgl/src/widgets/buttonmatrix/../../core/lv_obj_style.h ****     LV_STYLE_STATE_CMP_DIFF_REDRAW,    /**< The differences can be shown with a simple redraw */
  31:Drivers/lvgl/src/widgets/buttonmatrix/../../core/lv_obj_style.h ****     LV_STYLE_STATE_CMP_DIFF_DRAW_PAD,  /**< The differences can be shown with a simple redraw */
  32:Drivers/lvgl/src/widgets/buttonmatrix/../../core/lv_obj_style.h ****     LV_STYLE_STATE_CMP_DIFF_LAYOUT,    /**< The differences can be shown with a simple redraw */
  33:Drivers/lvgl/src/widgets/buttonmatrix/../../core/lv_obj_style.h **** } lv_style_state_cmp_t;
  34:Drivers/lvgl/src/widgets/buttonmatrix/../../core/lv_obj_style.h **** 
  35:Drivers/lvgl/src/widgets/buttonmatrix/../../core/lv_obj_style.h **** typedef uint32_t lv_style_selector_t;
  36:Drivers/lvgl/src/widgets/buttonmatrix/../../core/lv_obj_style.h **** 
  37:Drivers/lvgl/src/widgets/buttonmatrix/../../core/lv_obj_style.h **** /**********************
  38:Drivers/lvgl/src/widgets/buttonmatrix/../../core/lv_obj_style.h ****  * GLOBAL PROTOTYPES
  39:Drivers/lvgl/src/widgets/buttonmatrix/../../core/lv_obj_style.h ****  **********************/
  40:Drivers/lvgl/src/widgets/buttonmatrix/../../core/lv_obj_style.h **** 
  41:Drivers/lvgl/src/widgets/buttonmatrix/../../core/lv_obj_style.h **** /**
  42:Drivers/lvgl/src/widgets/buttonmatrix/../../core/lv_obj_style.h ****  * Add a style to an object.
  43:Drivers/lvgl/src/widgets/buttonmatrix/../../core/lv_obj_style.h ****  * @param obj       pointer to an object
ARM GAS  /tmp/cc9C7swH.s 			page 26


  44:Drivers/lvgl/src/widgets/buttonmatrix/../../core/lv_obj_style.h ****  * @param style     pointer to a style to add
  45:Drivers/lvgl/src/widgets/buttonmatrix/../../core/lv_obj_style.h ****  * @param selector  OR-ed value of parts and state to which the style should be added
  46:Drivers/lvgl/src/widgets/buttonmatrix/../../core/lv_obj_style.h ****  *
  47:Drivers/lvgl/src/widgets/buttonmatrix/../../core/lv_obj_style.h ****  * Examples:
  48:Drivers/lvgl/src/widgets/buttonmatrix/../../core/lv_obj_style.h ****  * @code
  49:Drivers/lvgl/src/widgets/buttonmatrix/../../core/lv_obj_style.h ****  * lv_obj_add_style(btn, &style_btn, 0); //Default button style
  50:Drivers/lvgl/src/widgets/buttonmatrix/../../core/lv_obj_style.h ****  *
  51:Drivers/lvgl/src/widgets/buttonmatrix/../../core/lv_obj_style.h ****  * lv_obj_add_style(btn, &btn_red, LV_STATE_PRESSED); //Overwrite only some colors to red when pres
  52:Drivers/lvgl/src/widgets/buttonmatrix/../../core/lv_obj_style.h ****  * @endcode
  53:Drivers/lvgl/src/widgets/buttonmatrix/../../core/lv_obj_style.h ****  */
  54:Drivers/lvgl/src/widgets/buttonmatrix/../../core/lv_obj_style.h **** void lv_obj_add_style(lv_obj_t * obj, const lv_style_t * style, lv_style_selector_t selector);
  55:Drivers/lvgl/src/widgets/buttonmatrix/../../core/lv_obj_style.h **** 
  56:Drivers/lvgl/src/widgets/buttonmatrix/../../core/lv_obj_style.h **** /**
  57:Drivers/lvgl/src/widgets/buttonmatrix/../../core/lv_obj_style.h ****  * Replaces a style of an object, preserving the order of the style stack (local styles and transit
  58:Drivers/lvgl/src/widgets/buttonmatrix/../../core/lv_obj_style.h ****  * @param obj           pointer to an object
  59:Drivers/lvgl/src/widgets/buttonmatrix/../../core/lv_obj_style.h ****  * @param old_style     pointer to a style to replace.
  60:Drivers/lvgl/src/widgets/buttonmatrix/../../core/lv_obj_style.h ****  * @param new_style     pointer to a style to replace the old style with.
  61:Drivers/lvgl/src/widgets/buttonmatrix/../../core/lv_obj_style.h ****  * @param selector      OR-ed values of states and a part to replace only styles with matching sele
  62:Drivers/lvgl/src/widgets/buttonmatrix/../../core/lv_obj_style.h ****  *
  63:Drivers/lvgl/src/widgets/buttonmatrix/../../core/lv_obj_style.h ****  * Examples:
  64:Drivers/lvgl/src/widgets/buttonmatrix/../../core/lv_obj_style.h ****  * @code
  65:Drivers/lvgl/src/widgets/buttonmatrix/../../core/lv_obj_style.h ****  * lv_obj_replace_style(obj, &yellow_style, &blue_style, LV_PART_ANY | LV_STATE_ANY); //Replace a s
  66:Drivers/lvgl/src/widgets/buttonmatrix/../../core/lv_obj_style.h ****  *
  67:Drivers/lvgl/src/widgets/buttonmatrix/../../core/lv_obj_style.h ****  * lv_obj_replace_style(obj, &yellow_style, &blue_style, LV_PART_MAIN | LV_STATE_PRESSED); //Replac
  68:Drivers/lvgl/src/widgets/buttonmatrix/../../core/lv_obj_style.h ****  * @endcode
  69:Drivers/lvgl/src/widgets/buttonmatrix/../../core/lv_obj_style.h ****  */
  70:Drivers/lvgl/src/widgets/buttonmatrix/../../core/lv_obj_style.h **** bool lv_obj_replace_style(lv_obj_t * obj, const lv_style_t * old_style, const lv_style_t * new_styl
  71:Drivers/lvgl/src/widgets/buttonmatrix/../../core/lv_obj_style.h ****                           lv_style_selector_t selector);
  72:Drivers/lvgl/src/widgets/buttonmatrix/../../core/lv_obj_style.h **** 
  73:Drivers/lvgl/src/widgets/buttonmatrix/../../core/lv_obj_style.h **** /**
  74:Drivers/lvgl/src/widgets/buttonmatrix/../../core/lv_obj_style.h ****  * Remove a style from an object.
  75:Drivers/lvgl/src/widgets/buttonmatrix/../../core/lv_obj_style.h ****  * @param obj       pointer to an object
  76:Drivers/lvgl/src/widgets/buttonmatrix/../../core/lv_obj_style.h ****  * @param style     pointer to a style to remove. Can be NULL to check only the selector
  77:Drivers/lvgl/src/widgets/buttonmatrix/../../core/lv_obj_style.h ****  * @param selector  OR-ed values of states and a part to remove only styles with matching selectors
  78:Drivers/lvgl/src/widgets/buttonmatrix/../../core/lv_obj_style.h ****  *
  79:Drivers/lvgl/src/widgets/buttonmatrix/../../core/lv_obj_style.h ****  * Examples:
  80:Drivers/lvgl/src/widgets/buttonmatrix/../../core/lv_obj_style.h ****  * @code
  81:Drivers/lvgl/src/widgets/buttonmatrix/../../core/lv_obj_style.h ****  * lv_obj_remove_style(obj, &style, LV_PART_ANY | LV_STATE_ANY); //Remove a specific style
  82:Drivers/lvgl/src/widgets/buttonmatrix/../../core/lv_obj_style.h ****  *
  83:Drivers/lvgl/src/widgets/buttonmatrix/../../core/lv_obj_style.h ****  * lv_obj_remove_style(obj, NULL, LV_PART_MAIN | LV_STATE_ANY); //Remove all styles from the main p
  84:Drivers/lvgl/src/widgets/buttonmatrix/../../core/lv_obj_style.h ****  *
  85:Drivers/lvgl/src/widgets/buttonmatrix/../../core/lv_obj_style.h ****  * lv_obj_remove_style(obj, NULL, LV_PART_ANY | LV_STATE_ANY); //Remove all styles
  86:Drivers/lvgl/src/widgets/buttonmatrix/../../core/lv_obj_style.h ****  * @endcode
  87:Drivers/lvgl/src/widgets/buttonmatrix/../../core/lv_obj_style.h ****  */
  88:Drivers/lvgl/src/widgets/buttonmatrix/../../core/lv_obj_style.h **** void lv_obj_remove_style(lv_obj_t * obj, const lv_style_t * style, lv_style_selector_t selector);
  89:Drivers/lvgl/src/widgets/buttonmatrix/../../core/lv_obj_style.h **** 
  90:Drivers/lvgl/src/widgets/buttonmatrix/../../core/lv_obj_style.h **** /**
  91:Drivers/lvgl/src/widgets/buttonmatrix/../../core/lv_obj_style.h ****  * Remove all styles from an object
  92:Drivers/lvgl/src/widgets/buttonmatrix/../../core/lv_obj_style.h ****  * @param obj       pointer to an object
  93:Drivers/lvgl/src/widgets/buttonmatrix/../../core/lv_obj_style.h ****  */
  94:Drivers/lvgl/src/widgets/buttonmatrix/../../core/lv_obj_style.h **** void lv_obj_remove_style_all(lv_obj_t * obj);
  95:Drivers/lvgl/src/widgets/buttonmatrix/../../core/lv_obj_style.h **** 
  96:Drivers/lvgl/src/widgets/buttonmatrix/../../core/lv_obj_style.h **** /**
  97:Drivers/lvgl/src/widgets/buttonmatrix/../../core/lv_obj_style.h ****  * Notify all object if a style is modified
  98:Drivers/lvgl/src/widgets/buttonmatrix/../../core/lv_obj_style.h ****  * @param style     pointer to a style. Only the objects with this style will be notified
  99:Drivers/lvgl/src/widgets/buttonmatrix/../../core/lv_obj_style.h ****  *                  (NULL to notify all objects)
 100:Drivers/lvgl/src/widgets/buttonmatrix/../../core/lv_obj_style.h ****  */
ARM GAS  /tmp/cc9C7swH.s 			page 27


 101:Drivers/lvgl/src/widgets/buttonmatrix/../../core/lv_obj_style.h **** void lv_obj_report_style_change(lv_style_t * style);
 102:Drivers/lvgl/src/widgets/buttonmatrix/../../core/lv_obj_style.h **** 
 103:Drivers/lvgl/src/widgets/buttonmatrix/../../core/lv_obj_style.h **** /**
 104:Drivers/lvgl/src/widgets/buttonmatrix/../../core/lv_obj_style.h ****  * Notify an object and its children about its style is modified.
 105:Drivers/lvgl/src/widgets/buttonmatrix/../../core/lv_obj_style.h ****  * @param obj       pointer to an object
 106:Drivers/lvgl/src/widgets/buttonmatrix/../../core/lv_obj_style.h ****  * @param part      the part whose style was changed. E.g. `LV_PART_ANY`, `LV_PART_MAIN`
 107:Drivers/lvgl/src/widgets/buttonmatrix/../../core/lv_obj_style.h ****  * @param prop      `LV_STYLE_PROP_ANY` or an `LV_STYLE_...` property.
 108:Drivers/lvgl/src/widgets/buttonmatrix/../../core/lv_obj_style.h ****  *                  It is used to optimize what needs to be refreshed.
 109:Drivers/lvgl/src/widgets/buttonmatrix/../../core/lv_obj_style.h ****  *                  `LV_STYLE_PROP_INV` to perform only a style cache update
 110:Drivers/lvgl/src/widgets/buttonmatrix/../../core/lv_obj_style.h ****  */
 111:Drivers/lvgl/src/widgets/buttonmatrix/../../core/lv_obj_style.h **** void lv_obj_refresh_style(lv_obj_t * obj, lv_part_t part, lv_style_prop_t prop);
 112:Drivers/lvgl/src/widgets/buttonmatrix/../../core/lv_obj_style.h **** 
 113:Drivers/lvgl/src/widgets/buttonmatrix/../../core/lv_obj_style.h **** /**
 114:Drivers/lvgl/src/widgets/buttonmatrix/../../core/lv_obj_style.h ****  * Enable or disable automatic style refreshing when a new style is added/removed to/from an object
 115:Drivers/lvgl/src/widgets/buttonmatrix/../../core/lv_obj_style.h ****  * or any other style change happens.
 116:Drivers/lvgl/src/widgets/buttonmatrix/../../core/lv_obj_style.h ****  * @param en        true: enable refreshing; false: disable refreshing
 117:Drivers/lvgl/src/widgets/buttonmatrix/../../core/lv_obj_style.h ****  */
 118:Drivers/lvgl/src/widgets/buttonmatrix/../../core/lv_obj_style.h **** void lv_obj_enable_style_refresh(bool en);
 119:Drivers/lvgl/src/widgets/buttonmatrix/../../core/lv_obj_style.h **** 
 120:Drivers/lvgl/src/widgets/buttonmatrix/../../core/lv_obj_style.h **** /**
 121:Drivers/lvgl/src/widgets/buttonmatrix/../../core/lv_obj_style.h ****  * Get the value of a style property. The current state of the object will be considered.
 122:Drivers/lvgl/src/widgets/buttonmatrix/../../core/lv_obj_style.h ****  * Inherited properties will be inherited.
 123:Drivers/lvgl/src/widgets/buttonmatrix/../../core/lv_obj_style.h ****  * If a property is not set a default value will be returned.
 124:Drivers/lvgl/src/widgets/buttonmatrix/../../core/lv_obj_style.h ****  * @param obj       pointer to an object
 125:Drivers/lvgl/src/widgets/buttonmatrix/../../core/lv_obj_style.h ****  * @param part      a part from which the property should be get
 126:Drivers/lvgl/src/widgets/buttonmatrix/../../core/lv_obj_style.h ****  * @param prop      the property to get
 127:Drivers/lvgl/src/widgets/buttonmatrix/../../core/lv_obj_style.h ****  * @return          the value of the property.
 128:Drivers/lvgl/src/widgets/buttonmatrix/../../core/lv_obj_style.h ****  *                  Should be read from the correct field of the `lv_style_value_t` according to th
 129:Drivers/lvgl/src/widgets/buttonmatrix/../../core/lv_obj_style.h ****  */
 130:Drivers/lvgl/src/widgets/buttonmatrix/../../core/lv_obj_style.h **** lv_style_value_t lv_obj_get_style_prop(const lv_obj_t * obj, lv_part_t part, lv_style_prop_t prop);
 131:Drivers/lvgl/src/widgets/buttonmatrix/../../core/lv_obj_style.h **** 
 132:Drivers/lvgl/src/widgets/buttonmatrix/../../core/lv_obj_style.h **** /**
 133:Drivers/lvgl/src/widgets/buttonmatrix/../../core/lv_obj_style.h ****  * Check if an object has a specified style property for a given style selector.
 134:Drivers/lvgl/src/widgets/buttonmatrix/../../core/lv_obj_style.h ****  * @param obj       pointer to an object
 135:Drivers/lvgl/src/widgets/buttonmatrix/../../core/lv_obj_style.h ****  * @param selector  the style selector to be checked, defining the scope of the style to be examine
 136:Drivers/lvgl/src/widgets/buttonmatrix/../../core/lv_obj_style.h ****  * @param prop      the property to be checked.
 137:Drivers/lvgl/src/widgets/buttonmatrix/../../core/lv_obj_style.h ****  * @return          true if the object has the specified selector and property, false otherwise.
 138:Drivers/lvgl/src/widgets/buttonmatrix/../../core/lv_obj_style.h ****  */
 139:Drivers/lvgl/src/widgets/buttonmatrix/../../core/lv_obj_style.h **** bool lv_obj_has_style_prop(const lv_obj_t * obj, lv_style_selector_t selector, lv_style_prop_t prop
 140:Drivers/lvgl/src/widgets/buttonmatrix/../../core/lv_obj_style.h **** 
 141:Drivers/lvgl/src/widgets/buttonmatrix/../../core/lv_obj_style.h **** /**
 142:Drivers/lvgl/src/widgets/buttonmatrix/../../core/lv_obj_style.h ****  * Set local style property on an object's part and state.
 143:Drivers/lvgl/src/widgets/buttonmatrix/../../core/lv_obj_style.h ****  * @param obj       pointer to an object
 144:Drivers/lvgl/src/widgets/buttonmatrix/../../core/lv_obj_style.h ****  * @param prop      the property
 145:Drivers/lvgl/src/widgets/buttonmatrix/../../core/lv_obj_style.h ****  * @param value     value of the property. The correct element should be set according to the type 
 146:Drivers/lvgl/src/widgets/buttonmatrix/../../core/lv_obj_style.h ****  * @param selector  OR-ed value of parts and state for which the style should be set
 147:Drivers/lvgl/src/widgets/buttonmatrix/../../core/lv_obj_style.h ****  */
 148:Drivers/lvgl/src/widgets/buttonmatrix/../../core/lv_obj_style.h **** void lv_obj_set_local_style_prop(lv_obj_t * obj, lv_style_prop_t prop, lv_style_value_t value,
 149:Drivers/lvgl/src/widgets/buttonmatrix/../../core/lv_obj_style.h ****                                  lv_style_selector_t selector);
 150:Drivers/lvgl/src/widgets/buttonmatrix/../../core/lv_obj_style.h **** 
 151:Drivers/lvgl/src/widgets/buttonmatrix/../../core/lv_obj_style.h **** lv_style_res_t lv_obj_get_local_style_prop(lv_obj_t * obj, lv_style_prop_t prop, lv_style_value_t *
 152:Drivers/lvgl/src/widgets/buttonmatrix/../../core/lv_obj_style.h ****                                            lv_style_selector_t selector);
 153:Drivers/lvgl/src/widgets/buttonmatrix/../../core/lv_obj_style.h **** 
 154:Drivers/lvgl/src/widgets/buttonmatrix/../../core/lv_obj_style.h **** /**
 155:Drivers/lvgl/src/widgets/buttonmatrix/../../core/lv_obj_style.h ****  * Remove a local style property from a part of an object with a given state.
 156:Drivers/lvgl/src/widgets/buttonmatrix/../../core/lv_obj_style.h ****  * @param obj       pointer to an object
 157:Drivers/lvgl/src/widgets/buttonmatrix/../../core/lv_obj_style.h ****  * @param prop      a style property to remove.
ARM GAS  /tmp/cc9C7swH.s 			page 28


 158:Drivers/lvgl/src/widgets/buttonmatrix/../../core/lv_obj_style.h ****  * @param selector  OR-ed value of parts and state for which the style should be removed
 159:Drivers/lvgl/src/widgets/buttonmatrix/../../core/lv_obj_style.h ****  * @return true     the property was found and removed; false: the property was not found
 160:Drivers/lvgl/src/widgets/buttonmatrix/../../core/lv_obj_style.h ****  */
 161:Drivers/lvgl/src/widgets/buttonmatrix/../../core/lv_obj_style.h **** bool lv_obj_remove_local_style_prop(lv_obj_t * obj, lv_style_prop_t prop, lv_style_selector_t selec
 162:Drivers/lvgl/src/widgets/buttonmatrix/../../core/lv_obj_style.h **** 
 163:Drivers/lvgl/src/widgets/buttonmatrix/../../core/lv_obj_style.h **** /**
 164:Drivers/lvgl/src/widgets/buttonmatrix/../../core/lv_obj_style.h ****  * Used internally for color filtering
 165:Drivers/lvgl/src/widgets/buttonmatrix/../../core/lv_obj_style.h ****  */
 166:Drivers/lvgl/src/widgets/buttonmatrix/../../core/lv_obj_style.h **** lv_style_value_t lv_obj_style_apply_color_filter(const lv_obj_t * obj, lv_part_t part, lv_style_val
 167:Drivers/lvgl/src/widgets/buttonmatrix/../../core/lv_obj_style.h **** 
 168:Drivers/lvgl/src/widgets/buttonmatrix/../../core/lv_obj_style.h **** /**
 169:Drivers/lvgl/src/widgets/buttonmatrix/../../core/lv_obj_style.h ****  * Fade in an an object and all its children.
 170:Drivers/lvgl/src/widgets/buttonmatrix/../../core/lv_obj_style.h ****  * @param obj       the object to fade in
 171:Drivers/lvgl/src/widgets/buttonmatrix/../../core/lv_obj_style.h ****  * @param time      time of fade
 172:Drivers/lvgl/src/widgets/buttonmatrix/../../core/lv_obj_style.h ****  * @param delay     delay to start the animation
 173:Drivers/lvgl/src/widgets/buttonmatrix/../../core/lv_obj_style.h ****  */
 174:Drivers/lvgl/src/widgets/buttonmatrix/../../core/lv_obj_style.h **** void lv_obj_fade_in(lv_obj_t * obj, uint32_t time, uint32_t delay);
 175:Drivers/lvgl/src/widgets/buttonmatrix/../../core/lv_obj_style.h **** 
 176:Drivers/lvgl/src/widgets/buttonmatrix/../../core/lv_obj_style.h **** /**
 177:Drivers/lvgl/src/widgets/buttonmatrix/../../core/lv_obj_style.h ****  * Fade out an an object and all its children.
 178:Drivers/lvgl/src/widgets/buttonmatrix/../../core/lv_obj_style.h ****  * @param obj       the object to fade out
 179:Drivers/lvgl/src/widgets/buttonmatrix/../../core/lv_obj_style.h ****  * @param time      time of fade
 180:Drivers/lvgl/src/widgets/buttonmatrix/../../core/lv_obj_style.h ****  * @param delay     delay to start the animation
 181:Drivers/lvgl/src/widgets/buttonmatrix/../../core/lv_obj_style.h ****  */
 182:Drivers/lvgl/src/widgets/buttonmatrix/../../core/lv_obj_style.h **** void lv_obj_fade_out(lv_obj_t * obj, uint32_t time, uint32_t delay);
 183:Drivers/lvgl/src/widgets/buttonmatrix/../../core/lv_obj_style.h **** 
 184:Drivers/lvgl/src/widgets/buttonmatrix/../../core/lv_obj_style.h **** static inline lv_state_t lv_obj_style_get_selector_state(lv_style_selector_t selector)
 185:Drivers/lvgl/src/widgets/buttonmatrix/../../core/lv_obj_style.h **** {
 186:Drivers/lvgl/src/widgets/buttonmatrix/../../core/lv_obj_style.h ****     return selector & 0xFFFF;
 187:Drivers/lvgl/src/widgets/buttonmatrix/../../core/lv_obj_style.h **** }
 188:Drivers/lvgl/src/widgets/buttonmatrix/../../core/lv_obj_style.h **** 
 189:Drivers/lvgl/src/widgets/buttonmatrix/../../core/lv_obj_style.h **** static inline lv_part_t lv_obj_style_get_selector_part(lv_style_selector_t selector)
 190:Drivers/lvgl/src/widgets/buttonmatrix/../../core/lv_obj_style.h **** {
 191:Drivers/lvgl/src/widgets/buttonmatrix/../../core/lv_obj_style.h ****     return selector & 0xFF0000;
 192:Drivers/lvgl/src/widgets/buttonmatrix/../../core/lv_obj_style.h **** }
 193:Drivers/lvgl/src/widgets/buttonmatrix/../../core/lv_obj_style.h **** 
 194:Drivers/lvgl/src/widgets/buttonmatrix/../../core/lv_obj_style.h **** #include "lv_obj_style_gen.h"
 195:Drivers/lvgl/src/widgets/buttonmatrix/../../core/lv_obj_style.h **** 
 196:Drivers/lvgl/src/widgets/buttonmatrix/../../core/lv_obj_style.h **** static inline void lv_obj_set_style_pad_all(lv_obj_t * obj, int32_t value, lv_style_selector_t sele
 197:Drivers/lvgl/src/widgets/buttonmatrix/../../core/lv_obj_style.h **** {
 198:Drivers/lvgl/src/widgets/buttonmatrix/../../core/lv_obj_style.h ****     lv_obj_set_style_pad_left(obj, value, selector);
 199:Drivers/lvgl/src/widgets/buttonmatrix/../../core/lv_obj_style.h ****     lv_obj_set_style_pad_right(obj, value, selector);
 200:Drivers/lvgl/src/widgets/buttonmatrix/../../core/lv_obj_style.h ****     lv_obj_set_style_pad_top(obj, value, selector);
 201:Drivers/lvgl/src/widgets/buttonmatrix/../../core/lv_obj_style.h ****     lv_obj_set_style_pad_bottom(obj, value, selector);
 202:Drivers/lvgl/src/widgets/buttonmatrix/../../core/lv_obj_style.h **** }
 203:Drivers/lvgl/src/widgets/buttonmatrix/../../core/lv_obj_style.h **** 
 204:Drivers/lvgl/src/widgets/buttonmatrix/../../core/lv_obj_style.h **** static inline void lv_obj_set_style_pad_hor(lv_obj_t * obj, int32_t value, lv_style_selector_t sele
 205:Drivers/lvgl/src/widgets/buttonmatrix/../../core/lv_obj_style.h **** {
 206:Drivers/lvgl/src/widgets/buttonmatrix/../../core/lv_obj_style.h ****     lv_obj_set_style_pad_left(obj, value, selector);
 207:Drivers/lvgl/src/widgets/buttonmatrix/../../core/lv_obj_style.h ****     lv_obj_set_style_pad_right(obj, value, selector);
 208:Drivers/lvgl/src/widgets/buttonmatrix/../../core/lv_obj_style.h **** }
 209:Drivers/lvgl/src/widgets/buttonmatrix/../../core/lv_obj_style.h **** 
 210:Drivers/lvgl/src/widgets/buttonmatrix/../../core/lv_obj_style.h **** static inline void lv_obj_set_style_pad_ver(lv_obj_t * obj, int32_t value, lv_style_selector_t sele
 211:Drivers/lvgl/src/widgets/buttonmatrix/../../core/lv_obj_style.h **** {
 212:Drivers/lvgl/src/widgets/buttonmatrix/../../core/lv_obj_style.h ****     lv_obj_set_style_pad_top(obj, value, selector);
 213:Drivers/lvgl/src/widgets/buttonmatrix/../../core/lv_obj_style.h ****     lv_obj_set_style_pad_bottom(obj, value, selector);
 214:Drivers/lvgl/src/widgets/buttonmatrix/../../core/lv_obj_style.h **** }
ARM GAS  /tmp/cc9C7swH.s 			page 29


 215:Drivers/lvgl/src/widgets/buttonmatrix/../../core/lv_obj_style.h **** 
 216:Drivers/lvgl/src/widgets/buttonmatrix/../../core/lv_obj_style.h **** static inline void lv_obj_set_style_margin_all(lv_obj_t * obj, int32_t value, lv_style_selector_t s
 217:Drivers/lvgl/src/widgets/buttonmatrix/../../core/lv_obj_style.h **** {
 218:Drivers/lvgl/src/widgets/buttonmatrix/../../core/lv_obj_style.h ****     lv_obj_set_style_margin_left(obj, value, selector);
 219:Drivers/lvgl/src/widgets/buttonmatrix/../../core/lv_obj_style.h ****     lv_obj_set_style_margin_right(obj, value, selector);
 220:Drivers/lvgl/src/widgets/buttonmatrix/../../core/lv_obj_style.h ****     lv_obj_set_style_margin_top(obj, value, selector);
 221:Drivers/lvgl/src/widgets/buttonmatrix/../../core/lv_obj_style.h ****     lv_obj_set_style_margin_bottom(obj, value, selector);
 222:Drivers/lvgl/src/widgets/buttonmatrix/../../core/lv_obj_style.h **** }
 223:Drivers/lvgl/src/widgets/buttonmatrix/../../core/lv_obj_style.h **** 
 224:Drivers/lvgl/src/widgets/buttonmatrix/../../core/lv_obj_style.h **** static inline void lv_obj_set_style_margin_hor(lv_obj_t * obj, int32_t value, lv_style_selector_t s
 225:Drivers/lvgl/src/widgets/buttonmatrix/../../core/lv_obj_style.h **** {
 226:Drivers/lvgl/src/widgets/buttonmatrix/../../core/lv_obj_style.h ****     lv_obj_set_style_margin_left(obj, value, selector);
 227:Drivers/lvgl/src/widgets/buttonmatrix/../../core/lv_obj_style.h ****     lv_obj_set_style_margin_right(obj, value, selector);
 228:Drivers/lvgl/src/widgets/buttonmatrix/../../core/lv_obj_style.h **** }
 229:Drivers/lvgl/src/widgets/buttonmatrix/../../core/lv_obj_style.h **** 
 230:Drivers/lvgl/src/widgets/buttonmatrix/../../core/lv_obj_style.h **** static inline void lv_obj_set_style_margin_ver(lv_obj_t * obj, int32_t value, lv_style_selector_t s
 231:Drivers/lvgl/src/widgets/buttonmatrix/../../core/lv_obj_style.h **** {
 232:Drivers/lvgl/src/widgets/buttonmatrix/../../core/lv_obj_style.h ****     lv_obj_set_style_margin_top(obj, value, selector);
 233:Drivers/lvgl/src/widgets/buttonmatrix/../../core/lv_obj_style.h ****     lv_obj_set_style_margin_bottom(obj, value, selector);
 234:Drivers/lvgl/src/widgets/buttonmatrix/../../core/lv_obj_style.h **** }
 235:Drivers/lvgl/src/widgets/buttonmatrix/../../core/lv_obj_style.h **** 
 236:Drivers/lvgl/src/widgets/buttonmatrix/../../core/lv_obj_style.h **** static inline void lv_obj_set_style_pad_gap(lv_obj_t * obj, int32_t value, lv_style_selector_t sele
 237:Drivers/lvgl/src/widgets/buttonmatrix/../../core/lv_obj_style.h **** {
 238:Drivers/lvgl/src/widgets/buttonmatrix/../../core/lv_obj_style.h ****     lv_obj_set_style_pad_row(obj, value, selector);
 239:Drivers/lvgl/src/widgets/buttonmatrix/../../core/lv_obj_style.h ****     lv_obj_set_style_pad_column(obj, value, selector);
 240:Drivers/lvgl/src/widgets/buttonmatrix/../../core/lv_obj_style.h **** }
 241:Drivers/lvgl/src/widgets/buttonmatrix/../../core/lv_obj_style.h **** 
 242:Drivers/lvgl/src/widgets/buttonmatrix/../../core/lv_obj_style.h **** static inline void lv_obj_set_style_size(lv_obj_t * obj, int32_t width, int32_t height,
 243:Drivers/lvgl/src/widgets/buttonmatrix/../../core/lv_obj_style.h ****                                          lv_style_selector_t selector)
 244:Drivers/lvgl/src/widgets/buttonmatrix/../../core/lv_obj_style.h **** {
 245:Drivers/lvgl/src/widgets/buttonmatrix/../../core/lv_obj_style.h ****     lv_obj_set_style_width(obj, width, selector);
 246:Drivers/lvgl/src/widgets/buttonmatrix/../../core/lv_obj_style.h ****     lv_obj_set_style_height(obj, height, selector);
 247:Drivers/lvgl/src/widgets/buttonmatrix/../../core/lv_obj_style.h **** }
 248:Drivers/lvgl/src/widgets/buttonmatrix/../../core/lv_obj_style.h **** 
 249:Drivers/lvgl/src/widgets/buttonmatrix/../../core/lv_obj_style.h **** static inline void lv_obj_set_style_transform_scale(lv_obj_t * obj, int32_t value,
 250:Drivers/lvgl/src/widgets/buttonmatrix/../../core/lv_obj_style.h ****                                                     lv_style_selector_t selector)
 251:Drivers/lvgl/src/widgets/buttonmatrix/../../core/lv_obj_style.h **** {
 252:Drivers/lvgl/src/widgets/buttonmatrix/../../core/lv_obj_style.h ****     lv_obj_set_style_transform_scale_x(obj, value, selector);
 253:Drivers/lvgl/src/widgets/buttonmatrix/../../core/lv_obj_style.h ****     lv_obj_set_style_transform_scale_y(obj, value, selector);
 254:Drivers/lvgl/src/widgets/buttonmatrix/../../core/lv_obj_style.h **** }
 255:Drivers/lvgl/src/widgets/buttonmatrix/../../core/lv_obj_style.h **** 
 256:Drivers/lvgl/src/widgets/buttonmatrix/../../core/lv_obj_style.h **** static inline int32_t lv_obj_get_style_space_left(const lv_obj_t * obj, lv_part_t part)
 257:Drivers/lvgl/src/widgets/buttonmatrix/../../core/lv_obj_style.h **** {
 383              		.loc 2 257 1 is_stmt 1 view -0
 384              		.cfi_startproc
 385              		@ args = 0, pretend = 0, frame = 8
 386              		@ frame_needed = 0, uses_anonymous_args = 0
 387              		.loc 2 257 1 is_stmt 0 view .LVU76
 388 0000 2DE9F041 		push	{r4, r5, r6, r7, r8, lr}
 389              	.LCFI3:
 390              		.cfi_def_cfa_offset 24
 391              		.cfi_offset 4, -24
 392              		.cfi_offset 5, -20
 393              		.cfi_offset 6, -16
 394              		.cfi_offset 7, -12
 395              		.cfi_offset 8, -8
 396              		.cfi_offset 14, -4
ARM GAS  /tmp/cc9C7swH.s 			page 30


 397 0004 82B0     		sub	sp, sp, #8
 398              	.LCFI4:
 399              		.cfi_def_cfa_offset 32
 400 0006 0546     		mov	r5, r0
 401 0008 0E46     		mov	r6, r1
 258:Drivers/lvgl/src/widgets/buttonmatrix/../../core/lv_obj_style.h ****     int32_t padding = lv_obj_get_style_pad_left(obj, part);
 402              		.loc 2 258 5 is_stmt 1 view .LVU77
 403              	.LVL32:
 404              	.LBB77:
 405              	.LBI77:
 406              		.file 3 "Drivers/lvgl/src/widgets/buttonmatrix/../../core/lv_obj_style_gen.h"
   1:Drivers/lvgl/src/widgets/buttonmatrix/../../core/lv_obj_style_gen.h **** 
   2:Drivers/lvgl/src/widgets/buttonmatrix/../../core/lv_obj_style_gen.h **** /*
   3:Drivers/lvgl/src/widgets/buttonmatrix/../../core/lv_obj_style_gen.h ****  **********************************************************************
   4:Drivers/lvgl/src/widgets/buttonmatrix/../../core/lv_obj_style_gen.h ****  *                            DO NOT EDIT
   5:Drivers/lvgl/src/widgets/buttonmatrix/../../core/lv_obj_style_gen.h ****  * This file is automatically generated by "style_api_gen.py"
   6:Drivers/lvgl/src/widgets/buttonmatrix/../../core/lv_obj_style_gen.h ****  **********************************************************************
   7:Drivers/lvgl/src/widgets/buttonmatrix/../../core/lv_obj_style_gen.h ****  */
   8:Drivers/lvgl/src/widgets/buttonmatrix/../../core/lv_obj_style_gen.h **** 
   9:Drivers/lvgl/src/widgets/buttonmatrix/../../core/lv_obj_style_gen.h **** 
  10:Drivers/lvgl/src/widgets/buttonmatrix/../../core/lv_obj_style_gen.h **** #ifndef LV_OBJ_STYLE_GEN_H
  11:Drivers/lvgl/src/widgets/buttonmatrix/../../core/lv_obj_style_gen.h **** #define LV_OBJ_STYLE_GEN_H
  12:Drivers/lvgl/src/widgets/buttonmatrix/../../core/lv_obj_style_gen.h **** 
  13:Drivers/lvgl/src/widgets/buttonmatrix/../../core/lv_obj_style_gen.h **** #ifdef __cplusplus
  14:Drivers/lvgl/src/widgets/buttonmatrix/../../core/lv_obj_style_gen.h **** extern "C" {
  15:Drivers/lvgl/src/widgets/buttonmatrix/../../core/lv_obj_style_gen.h **** #endif
  16:Drivers/lvgl/src/widgets/buttonmatrix/../../core/lv_obj_style_gen.h **** 
  17:Drivers/lvgl/src/widgets/buttonmatrix/../../core/lv_obj_style_gen.h **** #include "../misc/lv_area.h"
  18:Drivers/lvgl/src/widgets/buttonmatrix/../../core/lv_obj_style_gen.h **** #include "../misc/lv_style.h"
  19:Drivers/lvgl/src/widgets/buttonmatrix/../../core/lv_obj_style_gen.h **** #include "../core/lv_obj_style.h"
  20:Drivers/lvgl/src/widgets/buttonmatrix/../../core/lv_obj_style_gen.h **** #include "../misc/lv_types.h"
  21:Drivers/lvgl/src/widgets/buttonmatrix/../../core/lv_obj_style_gen.h **** 
  22:Drivers/lvgl/src/widgets/buttonmatrix/../../core/lv_obj_style_gen.h **** static inline int32_t lv_obj_get_style_width(const lv_obj_t * obj, lv_part_t part)
  23:Drivers/lvgl/src/widgets/buttonmatrix/../../core/lv_obj_style_gen.h **** {
  24:Drivers/lvgl/src/widgets/buttonmatrix/../../core/lv_obj_style_gen.h ****     lv_style_value_t v = lv_obj_get_style_prop(obj, part, LV_STYLE_WIDTH);
  25:Drivers/lvgl/src/widgets/buttonmatrix/../../core/lv_obj_style_gen.h ****     return (int32_t)v.num;
  26:Drivers/lvgl/src/widgets/buttonmatrix/../../core/lv_obj_style_gen.h **** }
  27:Drivers/lvgl/src/widgets/buttonmatrix/../../core/lv_obj_style_gen.h **** 
  28:Drivers/lvgl/src/widgets/buttonmatrix/../../core/lv_obj_style_gen.h **** static inline int32_t lv_obj_get_style_min_width(const lv_obj_t * obj, lv_part_t part)
  29:Drivers/lvgl/src/widgets/buttonmatrix/../../core/lv_obj_style_gen.h **** {
  30:Drivers/lvgl/src/widgets/buttonmatrix/../../core/lv_obj_style_gen.h ****     lv_style_value_t v = lv_obj_get_style_prop(obj, part, LV_STYLE_MIN_WIDTH);
  31:Drivers/lvgl/src/widgets/buttonmatrix/../../core/lv_obj_style_gen.h ****     return (int32_t)v.num;
  32:Drivers/lvgl/src/widgets/buttonmatrix/../../core/lv_obj_style_gen.h **** }
  33:Drivers/lvgl/src/widgets/buttonmatrix/../../core/lv_obj_style_gen.h **** 
  34:Drivers/lvgl/src/widgets/buttonmatrix/../../core/lv_obj_style_gen.h **** static inline int32_t lv_obj_get_style_max_width(const lv_obj_t * obj, lv_part_t part)
  35:Drivers/lvgl/src/widgets/buttonmatrix/../../core/lv_obj_style_gen.h **** {
  36:Drivers/lvgl/src/widgets/buttonmatrix/../../core/lv_obj_style_gen.h ****     lv_style_value_t v = lv_obj_get_style_prop(obj, part, LV_STYLE_MAX_WIDTH);
  37:Drivers/lvgl/src/widgets/buttonmatrix/../../core/lv_obj_style_gen.h ****     return (int32_t)v.num;
  38:Drivers/lvgl/src/widgets/buttonmatrix/../../core/lv_obj_style_gen.h **** }
  39:Drivers/lvgl/src/widgets/buttonmatrix/../../core/lv_obj_style_gen.h **** 
  40:Drivers/lvgl/src/widgets/buttonmatrix/../../core/lv_obj_style_gen.h **** static inline int32_t lv_obj_get_style_height(const lv_obj_t * obj, lv_part_t part)
  41:Drivers/lvgl/src/widgets/buttonmatrix/../../core/lv_obj_style_gen.h **** {
  42:Drivers/lvgl/src/widgets/buttonmatrix/../../core/lv_obj_style_gen.h ****     lv_style_value_t v = lv_obj_get_style_prop(obj, part, LV_STYLE_HEIGHT);
  43:Drivers/lvgl/src/widgets/buttonmatrix/../../core/lv_obj_style_gen.h ****     return (int32_t)v.num;
  44:Drivers/lvgl/src/widgets/buttonmatrix/../../core/lv_obj_style_gen.h **** }
  45:Drivers/lvgl/src/widgets/buttonmatrix/../../core/lv_obj_style_gen.h **** 
  46:Drivers/lvgl/src/widgets/buttonmatrix/../../core/lv_obj_style_gen.h **** static inline int32_t lv_obj_get_style_min_height(const lv_obj_t * obj, lv_part_t part)
ARM GAS  /tmp/cc9C7swH.s 			page 31


  47:Drivers/lvgl/src/widgets/buttonmatrix/../../core/lv_obj_style_gen.h **** {
  48:Drivers/lvgl/src/widgets/buttonmatrix/../../core/lv_obj_style_gen.h ****     lv_style_value_t v = lv_obj_get_style_prop(obj, part, LV_STYLE_MIN_HEIGHT);
  49:Drivers/lvgl/src/widgets/buttonmatrix/../../core/lv_obj_style_gen.h ****     return (int32_t)v.num;
  50:Drivers/lvgl/src/widgets/buttonmatrix/../../core/lv_obj_style_gen.h **** }
  51:Drivers/lvgl/src/widgets/buttonmatrix/../../core/lv_obj_style_gen.h **** 
  52:Drivers/lvgl/src/widgets/buttonmatrix/../../core/lv_obj_style_gen.h **** static inline int32_t lv_obj_get_style_max_height(const lv_obj_t * obj, lv_part_t part)
  53:Drivers/lvgl/src/widgets/buttonmatrix/../../core/lv_obj_style_gen.h **** {
  54:Drivers/lvgl/src/widgets/buttonmatrix/../../core/lv_obj_style_gen.h ****     lv_style_value_t v = lv_obj_get_style_prop(obj, part, LV_STYLE_MAX_HEIGHT);
  55:Drivers/lvgl/src/widgets/buttonmatrix/../../core/lv_obj_style_gen.h ****     return (int32_t)v.num;
  56:Drivers/lvgl/src/widgets/buttonmatrix/../../core/lv_obj_style_gen.h **** }
  57:Drivers/lvgl/src/widgets/buttonmatrix/../../core/lv_obj_style_gen.h **** 
  58:Drivers/lvgl/src/widgets/buttonmatrix/../../core/lv_obj_style_gen.h **** static inline int32_t lv_obj_get_style_length(const lv_obj_t * obj, lv_part_t part)
  59:Drivers/lvgl/src/widgets/buttonmatrix/../../core/lv_obj_style_gen.h **** {
  60:Drivers/lvgl/src/widgets/buttonmatrix/../../core/lv_obj_style_gen.h ****     lv_style_value_t v = lv_obj_get_style_prop(obj, part, LV_STYLE_LENGTH);
  61:Drivers/lvgl/src/widgets/buttonmatrix/../../core/lv_obj_style_gen.h ****     return (int32_t)v.num;
  62:Drivers/lvgl/src/widgets/buttonmatrix/../../core/lv_obj_style_gen.h **** }
  63:Drivers/lvgl/src/widgets/buttonmatrix/../../core/lv_obj_style_gen.h **** 
  64:Drivers/lvgl/src/widgets/buttonmatrix/../../core/lv_obj_style_gen.h **** static inline int32_t lv_obj_get_style_x(const lv_obj_t * obj, lv_part_t part)
  65:Drivers/lvgl/src/widgets/buttonmatrix/../../core/lv_obj_style_gen.h **** {
  66:Drivers/lvgl/src/widgets/buttonmatrix/../../core/lv_obj_style_gen.h ****     lv_style_value_t v = lv_obj_get_style_prop(obj, part, LV_STYLE_X);
  67:Drivers/lvgl/src/widgets/buttonmatrix/../../core/lv_obj_style_gen.h ****     return (int32_t)v.num;
  68:Drivers/lvgl/src/widgets/buttonmatrix/../../core/lv_obj_style_gen.h **** }
  69:Drivers/lvgl/src/widgets/buttonmatrix/../../core/lv_obj_style_gen.h **** 
  70:Drivers/lvgl/src/widgets/buttonmatrix/../../core/lv_obj_style_gen.h **** static inline int32_t lv_obj_get_style_y(const lv_obj_t * obj, lv_part_t part)
  71:Drivers/lvgl/src/widgets/buttonmatrix/../../core/lv_obj_style_gen.h **** {
  72:Drivers/lvgl/src/widgets/buttonmatrix/../../core/lv_obj_style_gen.h ****     lv_style_value_t v = lv_obj_get_style_prop(obj, part, LV_STYLE_Y);
  73:Drivers/lvgl/src/widgets/buttonmatrix/../../core/lv_obj_style_gen.h ****     return (int32_t)v.num;
  74:Drivers/lvgl/src/widgets/buttonmatrix/../../core/lv_obj_style_gen.h **** }
  75:Drivers/lvgl/src/widgets/buttonmatrix/../../core/lv_obj_style_gen.h **** 
  76:Drivers/lvgl/src/widgets/buttonmatrix/../../core/lv_obj_style_gen.h **** static inline lv_align_t lv_obj_get_style_align(const lv_obj_t * obj, lv_part_t part)
  77:Drivers/lvgl/src/widgets/buttonmatrix/../../core/lv_obj_style_gen.h **** {
  78:Drivers/lvgl/src/widgets/buttonmatrix/../../core/lv_obj_style_gen.h ****     lv_style_value_t v = lv_obj_get_style_prop(obj, part, LV_STYLE_ALIGN);
  79:Drivers/lvgl/src/widgets/buttonmatrix/../../core/lv_obj_style_gen.h ****     return (lv_align_t)v.num;
  80:Drivers/lvgl/src/widgets/buttonmatrix/../../core/lv_obj_style_gen.h **** }
  81:Drivers/lvgl/src/widgets/buttonmatrix/../../core/lv_obj_style_gen.h **** 
  82:Drivers/lvgl/src/widgets/buttonmatrix/../../core/lv_obj_style_gen.h **** static inline int32_t lv_obj_get_style_transform_width(const lv_obj_t * obj, lv_part_t part)
  83:Drivers/lvgl/src/widgets/buttonmatrix/../../core/lv_obj_style_gen.h **** {
  84:Drivers/lvgl/src/widgets/buttonmatrix/../../core/lv_obj_style_gen.h ****     lv_style_value_t v = lv_obj_get_style_prop(obj, part, LV_STYLE_TRANSFORM_WIDTH);
  85:Drivers/lvgl/src/widgets/buttonmatrix/../../core/lv_obj_style_gen.h ****     return (int32_t)v.num;
  86:Drivers/lvgl/src/widgets/buttonmatrix/../../core/lv_obj_style_gen.h **** }
  87:Drivers/lvgl/src/widgets/buttonmatrix/../../core/lv_obj_style_gen.h **** 
  88:Drivers/lvgl/src/widgets/buttonmatrix/../../core/lv_obj_style_gen.h **** static inline int32_t lv_obj_get_style_transform_height(const lv_obj_t * obj, lv_part_t part)
  89:Drivers/lvgl/src/widgets/buttonmatrix/../../core/lv_obj_style_gen.h **** {
  90:Drivers/lvgl/src/widgets/buttonmatrix/../../core/lv_obj_style_gen.h ****     lv_style_value_t v = lv_obj_get_style_prop(obj, part, LV_STYLE_TRANSFORM_HEIGHT);
  91:Drivers/lvgl/src/widgets/buttonmatrix/../../core/lv_obj_style_gen.h ****     return (int32_t)v.num;
  92:Drivers/lvgl/src/widgets/buttonmatrix/../../core/lv_obj_style_gen.h **** }
  93:Drivers/lvgl/src/widgets/buttonmatrix/../../core/lv_obj_style_gen.h **** 
  94:Drivers/lvgl/src/widgets/buttonmatrix/../../core/lv_obj_style_gen.h **** static inline int32_t lv_obj_get_style_translate_x(const lv_obj_t * obj, lv_part_t part)
  95:Drivers/lvgl/src/widgets/buttonmatrix/../../core/lv_obj_style_gen.h **** {
  96:Drivers/lvgl/src/widgets/buttonmatrix/../../core/lv_obj_style_gen.h ****     lv_style_value_t v = lv_obj_get_style_prop(obj, part, LV_STYLE_TRANSLATE_X);
  97:Drivers/lvgl/src/widgets/buttonmatrix/../../core/lv_obj_style_gen.h ****     return (int32_t)v.num;
  98:Drivers/lvgl/src/widgets/buttonmatrix/../../core/lv_obj_style_gen.h **** }
  99:Drivers/lvgl/src/widgets/buttonmatrix/../../core/lv_obj_style_gen.h **** 
 100:Drivers/lvgl/src/widgets/buttonmatrix/../../core/lv_obj_style_gen.h **** static inline int32_t lv_obj_get_style_translate_y(const lv_obj_t * obj, lv_part_t part)
 101:Drivers/lvgl/src/widgets/buttonmatrix/../../core/lv_obj_style_gen.h **** {
 102:Drivers/lvgl/src/widgets/buttonmatrix/../../core/lv_obj_style_gen.h ****     lv_style_value_t v = lv_obj_get_style_prop(obj, part, LV_STYLE_TRANSLATE_Y);
 103:Drivers/lvgl/src/widgets/buttonmatrix/../../core/lv_obj_style_gen.h ****     return (int32_t)v.num;
ARM GAS  /tmp/cc9C7swH.s 			page 32


 104:Drivers/lvgl/src/widgets/buttonmatrix/../../core/lv_obj_style_gen.h **** }
 105:Drivers/lvgl/src/widgets/buttonmatrix/../../core/lv_obj_style_gen.h **** 
 106:Drivers/lvgl/src/widgets/buttonmatrix/../../core/lv_obj_style_gen.h **** static inline int32_t lv_obj_get_style_translate_radial(const lv_obj_t * obj, lv_part_t part)
 107:Drivers/lvgl/src/widgets/buttonmatrix/../../core/lv_obj_style_gen.h **** {
 108:Drivers/lvgl/src/widgets/buttonmatrix/../../core/lv_obj_style_gen.h ****     lv_style_value_t v = lv_obj_get_style_prop(obj, part, LV_STYLE_TRANSLATE_RADIAL);
 109:Drivers/lvgl/src/widgets/buttonmatrix/../../core/lv_obj_style_gen.h ****     return (int32_t)v.num;
 110:Drivers/lvgl/src/widgets/buttonmatrix/../../core/lv_obj_style_gen.h **** }
 111:Drivers/lvgl/src/widgets/buttonmatrix/../../core/lv_obj_style_gen.h **** 
 112:Drivers/lvgl/src/widgets/buttonmatrix/../../core/lv_obj_style_gen.h **** static inline int32_t lv_obj_get_style_transform_scale_x(const lv_obj_t * obj, lv_part_t part)
 113:Drivers/lvgl/src/widgets/buttonmatrix/../../core/lv_obj_style_gen.h **** {
 114:Drivers/lvgl/src/widgets/buttonmatrix/../../core/lv_obj_style_gen.h ****     lv_style_value_t v = lv_obj_get_style_prop(obj, part, LV_STYLE_TRANSFORM_SCALE_X);
 115:Drivers/lvgl/src/widgets/buttonmatrix/../../core/lv_obj_style_gen.h ****     return (int32_t)v.num;
 116:Drivers/lvgl/src/widgets/buttonmatrix/../../core/lv_obj_style_gen.h **** }
 117:Drivers/lvgl/src/widgets/buttonmatrix/../../core/lv_obj_style_gen.h **** 
 118:Drivers/lvgl/src/widgets/buttonmatrix/../../core/lv_obj_style_gen.h **** static inline int32_t lv_obj_get_style_transform_scale_y(const lv_obj_t * obj, lv_part_t part)
 119:Drivers/lvgl/src/widgets/buttonmatrix/../../core/lv_obj_style_gen.h **** {
 120:Drivers/lvgl/src/widgets/buttonmatrix/../../core/lv_obj_style_gen.h ****     lv_style_value_t v = lv_obj_get_style_prop(obj, part, LV_STYLE_TRANSFORM_SCALE_Y);
 121:Drivers/lvgl/src/widgets/buttonmatrix/../../core/lv_obj_style_gen.h ****     return (int32_t)v.num;
 122:Drivers/lvgl/src/widgets/buttonmatrix/../../core/lv_obj_style_gen.h **** }
 123:Drivers/lvgl/src/widgets/buttonmatrix/../../core/lv_obj_style_gen.h **** 
 124:Drivers/lvgl/src/widgets/buttonmatrix/../../core/lv_obj_style_gen.h **** static inline int32_t lv_obj_get_style_transform_rotation(const lv_obj_t * obj, lv_part_t part)
 125:Drivers/lvgl/src/widgets/buttonmatrix/../../core/lv_obj_style_gen.h **** {
 126:Drivers/lvgl/src/widgets/buttonmatrix/../../core/lv_obj_style_gen.h ****     lv_style_value_t v = lv_obj_get_style_prop(obj, part, LV_STYLE_TRANSFORM_ROTATION);
 127:Drivers/lvgl/src/widgets/buttonmatrix/../../core/lv_obj_style_gen.h ****     return (int32_t)v.num;
 128:Drivers/lvgl/src/widgets/buttonmatrix/../../core/lv_obj_style_gen.h **** }
 129:Drivers/lvgl/src/widgets/buttonmatrix/../../core/lv_obj_style_gen.h **** 
 130:Drivers/lvgl/src/widgets/buttonmatrix/../../core/lv_obj_style_gen.h **** static inline int32_t lv_obj_get_style_transform_pivot_x(const lv_obj_t * obj, lv_part_t part)
 131:Drivers/lvgl/src/widgets/buttonmatrix/../../core/lv_obj_style_gen.h **** {
 132:Drivers/lvgl/src/widgets/buttonmatrix/../../core/lv_obj_style_gen.h ****     lv_style_value_t v = lv_obj_get_style_prop(obj, part, LV_STYLE_TRANSFORM_PIVOT_X);
 133:Drivers/lvgl/src/widgets/buttonmatrix/../../core/lv_obj_style_gen.h ****     return (int32_t)v.num;
 134:Drivers/lvgl/src/widgets/buttonmatrix/../../core/lv_obj_style_gen.h **** }
 135:Drivers/lvgl/src/widgets/buttonmatrix/../../core/lv_obj_style_gen.h **** 
 136:Drivers/lvgl/src/widgets/buttonmatrix/../../core/lv_obj_style_gen.h **** static inline int32_t lv_obj_get_style_transform_pivot_y(const lv_obj_t * obj, lv_part_t part)
 137:Drivers/lvgl/src/widgets/buttonmatrix/../../core/lv_obj_style_gen.h **** {
 138:Drivers/lvgl/src/widgets/buttonmatrix/../../core/lv_obj_style_gen.h ****     lv_style_value_t v = lv_obj_get_style_prop(obj, part, LV_STYLE_TRANSFORM_PIVOT_Y);
 139:Drivers/lvgl/src/widgets/buttonmatrix/../../core/lv_obj_style_gen.h ****     return (int32_t)v.num;
 140:Drivers/lvgl/src/widgets/buttonmatrix/../../core/lv_obj_style_gen.h **** }
 141:Drivers/lvgl/src/widgets/buttonmatrix/../../core/lv_obj_style_gen.h **** 
 142:Drivers/lvgl/src/widgets/buttonmatrix/../../core/lv_obj_style_gen.h **** static inline int32_t lv_obj_get_style_transform_skew_x(const lv_obj_t * obj, lv_part_t part)
 143:Drivers/lvgl/src/widgets/buttonmatrix/../../core/lv_obj_style_gen.h **** {
 144:Drivers/lvgl/src/widgets/buttonmatrix/../../core/lv_obj_style_gen.h ****     lv_style_value_t v = lv_obj_get_style_prop(obj, part, LV_STYLE_TRANSFORM_SKEW_X);
 145:Drivers/lvgl/src/widgets/buttonmatrix/../../core/lv_obj_style_gen.h ****     return (int32_t)v.num;
 146:Drivers/lvgl/src/widgets/buttonmatrix/../../core/lv_obj_style_gen.h **** }
 147:Drivers/lvgl/src/widgets/buttonmatrix/../../core/lv_obj_style_gen.h **** 
 148:Drivers/lvgl/src/widgets/buttonmatrix/../../core/lv_obj_style_gen.h **** static inline int32_t lv_obj_get_style_transform_skew_y(const lv_obj_t * obj, lv_part_t part)
 149:Drivers/lvgl/src/widgets/buttonmatrix/../../core/lv_obj_style_gen.h **** {
 150:Drivers/lvgl/src/widgets/buttonmatrix/../../core/lv_obj_style_gen.h ****     lv_style_value_t v = lv_obj_get_style_prop(obj, part, LV_STYLE_TRANSFORM_SKEW_Y);
 151:Drivers/lvgl/src/widgets/buttonmatrix/../../core/lv_obj_style_gen.h ****     return (int32_t)v.num;
 152:Drivers/lvgl/src/widgets/buttonmatrix/../../core/lv_obj_style_gen.h **** }
 153:Drivers/lvgl/src/widgets/buttonmatrix/../../core/lv_obj_style_gen.h **** 
 154:Drivers/lvgl/src/widgets/buttonmatrix/../../core/lv_obj_style_gen.h **** static inline int32_t lv_obj_get_style_pad_top(const lv_obj_t * obj, lv_part_t part)
 155:Drivers/lvgl/src/widgets/buttonmatrix/../../core/lv_obj_style_gen.h **** {
 156:Drivers/lvgl/src/widgets/buttonmatrix/../../core/lv_obj_style_gen.h ****     lv_style_value_t v = lv_obj_get_style_prop(obj, part, LV_STYLE_PAD_TOP);
 157:Drivers/lvgl/src/widgets/buttonmatrix/../../core/lv_obj_style_gen.h ****     return (int32_t)v.num;
 158:Drivers/lvgl/src/widgets/buttonmatrix/../../core/lv_obj_style_gen.h **** }
 159:Drivers/lvgl/src/widgets/buttonmatrix/../../core/lv_obj_style_gen.h **** 
 160:Drivers/lvgl/src/widgets/buttonmatrix/../../core/lv_obj_style_gen.h **** static inline int32_t lv_obj_get_style_pad_bottom(const lv_obj_t * obj, lv_part_t part)
ARM GAS  /tmp/cc9C7swH.s 			page 33


 161:Drivers/lvgl/src/widgets/buttonmatrix/../../core/lv_obj_style_gen.h **** {
 162:Drivers/lvgl/src/widgets/buttonmatrix/../../core/lv_obj_style_gen.h ****     lv_style_value_t v = lv_obj_get_style_prop(obj, part, LV_STYLE_PAD_BOTTOM);
 163:Drivers/lvgl/src/widgets/buttonmatrix/../../core/lv_obj_style_gen.h ****     return (int32_t)v.num;
 164:Drivers/lvgl/src/widgets/buttonmatrix/../../core/lv_obj_style_gen.h **** }
 165:Drivers/lvgl/src/widgets/buttonmatrix/../../core/lv_obj_style_gen.h **** 
 166:Drivers/lvgl/src/widgets/buttonmatrix/../../core/lv_obj_style_gen.h **** static inline int32_t lv_obj_get_style_pad_left(const lv_obj_t * obj, lv_part_t part)
 407              		.loc 3 166 23 view .LVU78
 408              	.LBB78:
 167:Drivers/lvgl/src/widgets/buttonmatrix/../../core/lv_obj_style_gen.h **** {
 168:Drivers/lvgl/src/widgets/buttonmatrix/../../core/lv_obj_style_gen.h ****     lv_style_value_t v = lv_obj_get_style_prop(obj, part, LV_STYLE_PAD_LEFT);
 409              		.loc 3 168 5 view .LVU79
 410              		.loc 3 168 26 is_stmt 0 view .LVU80
 411 000a 1222     		movs	r2, #18
 412 000c FFF7FEFF 		bl	lv_obj_get_style_prop
 413              	.LVL33:
 414              		.loc 3 168 26 view .LVU81
 415 0010 0446     		mov	r4, r0
 416 0012 0190     		str	r0, [sp, #4]
 169:Drivers/lvgl/src/widgets/buttonmatrix/../../core/lv_obj_style_gen.h ****     return (int32_t)v.num;
 417              		.loc 3 169 5 is_stmt 1 view .LVU82
 418              		.loc 3 169 12 is_stmt 0 view .LVU83
 419 0014 8046     		mov	r8, r0
 420              	.LVL34:
 421              		.loc 3 169 12 view .LVU84
 422              	.LBE78:
 423              	.LBE77:
 259:Drivers/lvgl/src/widgets/buttonmatrix/../../core/lv_obj_style.h ****     int32_t border_width = lv_obj_get_style_border_width(obj, part);
 424              		.loc 2 259 5 is_stmt 1 view .LVU85
 425              	.LBB79:
 426              	.LBI79:
 170:Drivers/lvgl/src/widgets/buttonmatrix/../../core/lv_obj_style_gen.h **** }
 171:Drivers/lvgl/src/widgets/buttonmatrix/../../core/lv_obj_style_gen.h **** 
 172:Drivers/lvgl/src/widgets/buttonmatrix/../../core/lv_obj_style_gen.h **** static inline int32_t lv_obj_get_style_pad_right(const lv_obj_t * obj, lv_part_t part)
 173:Drivers/lvgl/src/widgets/buttonmatrix/../../core/lv_obj_style_gen.h **** {
 174:Drivers/lvgl/src/widgets/buttonmatrix/../../core/lv_obj_style_gen.h ****     lv_style_value_t v = lv_obj_get_style_prop(obj, part, LV_STYLE_PAD_RIGHT);
 175:Drivers/lvgl/src/widgets/buttonmatrix/../../core/lv_obj_style_gen.h ****     return (int32_t)v.num;
 176:Drivers/lvgl/src/widgets/buttonmatrix/../../core/lv_obj_style_gen.h **** }
 177:Drivers/lvgl/src/widgets/buttonmatrix/../../core/lv_obj_style_gen.h **** 
 178:Drivers/lvgl/src/widgets/buttonmatrix/../../core/lv_obj_style_gen.h **** static inline int32_t lv_obj_get_style_pad_row(const lv_obj_t * obj, lv_part_t part)
 179:Drivers/lvgl/src/widgets/buttonmatrix/../../core/lv_obj_style_gen.h **** {
 180:Drivers/lvgl/src/widgets/buttonmatrix/../../core/lv_obj_style_gen.h ****     lv_style_value_t v = lv_obj_get_style_prop(obj, part, LV_STYLE_PAD_ROW);
 181:Drivers/lvgl/src/widgets/buttonmatrix/../../core/lv_obj_style_gen.h ****     return (int32_t)v.num;
 182:Drivers/lvgl/src/widgets/buttonmatrix/../../core/lv_obj_style_gen.h **** }
 183:Drivers/lvgl/src/widgets/buttonmatrix/../../core/lv_obj_style_gen.h **** 
 184:Drivers/lvgl/src/widgets/buttonmatrix/../../core/lv_obj_style_gen.h **** static inline int32_t lv_obj_get_style_pad_column(const lv_obj_t * obj, lv_part_t part)
 185:Drivers/lvgl/src/widgets/buttonmatrix/../../core/lv_obj_style_gen.h **** {
 186:Drivers/lvgl/src/widgets/buttonmatrix/../../core/lv_obj_style_gen.h ****     lv_style_value_t v = lv_obj_get_style_prop(obj, part, LV_STYLE_PAD_COLUMN);
 187:Drivers/lvgl/src/widgets/buttonmatrix/../../core/lv_obj_style_gen.h ****     return (int32_t)v.num;
 188:Drivers/lvgl/src/widgets/buttonmatrix/../../core/lv_obj_style_gen.h **** }
 189:Drivers/lvgl/src/widgets/buttonmatrix/../../core/lv_obj_style_gen.h **** 
 190:Drivers/lvgl/src/widgets/buttonmatrix/../../core/lv_obj_style_gen.h **** static inline int32_t lv_obj_get_style_pad_radial(const lv_obj_t * obj, lv_part_t part)
 191:Drivers/lvgl/src/widgets/buttonmatrix/../../core/lv_obj_style_gen.h **** {
 192:Drivers/lvgl/src/widgets/buttonmatrix/../../core/lv_obj_style_gen.h ****     lv_style_value_t v = lv_obj_get_style_prop(obj, part, LV_STYLE_PAD_RADIAL);
 193:Drivers/lvgl/src/widgets/buttonmatrix/../../core/lv_obj_style_gen.h ****     return (int32_t)v.num;
 194:Drivers/lvgl/src/widgets/buttonmatrix/../../core/lv_obj_style_gen.h **** }
 195:Drivers/lvgl/src/widgets/buttonmatrix/../../core/lv_obj_style_gen.h **** 
 196:Drivers/lvgl/src/widgets/buttonmatrix/../../core/lv_obj_style_gen.h **** static inline int32_t lv_obj_get_style_margin_top(const lv_obj_t * obj, lv_part_t part)
ARM GAS  /tmp/cc9C7swH.s 			page 34


 197:Drivers/lvgl/src/widgets/buttonmatrix/../../core/lv_obj_style_gen.h **** {
 198:Drivers/lvgl/src/widgets/buttonmatrix/../../core/lv_obj_style_gen.h ****     lv_style_value_t v = lv_obj_get_style_prop(obj, part, LV_STYLE_MARGIN_TOP);
 199:Drivers/lvgl/src/widgets/buttonmatrix/../../core/lv_obj_style_gen.h ****     return (int32_t)v.num;
 200:Drivers/lvgl/src/widgets/buttonmatrix/../../core/lv_obj_style_gen.h **** }
 201:Drivers/lvgl/src/widgets/buttonmatrix/../../core/lv_obj_style_gen.h **** 
 202:Drivers/lvgl/src/widgets/buttonmatrix/../../core/lv_obj_style_gen.h **** static inline int32_t lv_obj_get_style_margin_bottom(const lv_obj_t * obj, lv_part_t part)
 203:Drivers/lvgl/src/widgets/buttonmatrix/../../core/lv_obj_style_gen.h **** {
 204:Drivers/lvgl/src/widgets/buttonmatrix/../../core/lv_obj_style_gen.h ****     lv_style_value_t v = lv_obj_get_style_prop(obj, part, LV_STYLE_MARGIN_BOTTOM);
 205:Drivers/lvgl/src/widgets/buttonmatrix/../../core/lv_obj_style_gen.h ****     return (int32_t)v.num;
 206:Drivers/lvgl/src/widgets/buttonmatrix/../../core/lv_obj_style_gen.h **** }
 207:Drivers/lvgl/src/widgets/buttonmatrix/../../core/lv_obj_style_gen.h **** 
 208:Drivers/lvgl/src/widgets/buttonmatrix/../../core/lv_obj_style_gen.h **** static inline int32_t lv_obj_get_style_margin_left(const lv_obj_t * obj, lv_part_t part)
 209:Drivers/lvgl/src/widgets/buttonmatrix/../../core/lv_obj_style_gen.h **** {
 210:Drivers/lvgl/src/widgets/buttonmatrix/../../core/lv_obj_style_gen.h ****     lv_style_value_t v = lv_obj_get_style_prop(obj, part, LV_STYLE_MARGIN_LEFT);
 211:Drivers/lvgl/src/widgets/buttonmatrix/../../core/lv_obj_style_gen.h ****     return (int32_t)v.num;
 212:Drivers/lvgl/src/widgets/buttonmatrix/../../core/lv_obj_style_gen.h **** }
 213:Drivers/lvgl/src/widgets/buttonmatrix/../../core/lv_obj_style_gen.h **** 
 214:Drivers/lvgl/src/widgets/buttonmatrix/../../core/lv_obj_style_gen.h **** static inline int32_t lv_obj_get_style_margin_right(const lv_obj_t * obj, lv_part_t part)
 215:Drivers/lvgl/src/widgets/buttonmatrix/../../core/lv_obj_style_gen.h **** {
 216:Drivers/lvgl/src/widgets/buttonmatrix/../../core/lv_obj_style_gen.h ****     lv_style_value_t v = lv_obj_get_style_prop(obj, part, LV_STYLE_MARGIN_RIGHT);
 217:Drivers/lvgl/src/widgets/buttonmatrix/../../core/lv_obj_style_gen.h ****     return (int32_t)v.num;
 218:Drivers/lvgl/src/widgets/buttonmatrix/../../core/lv_obj_style_gen.h **** }
 219:Drivers/lvgl/src/widgets/buttonmatrix/../../core/lv_obj_style_gen.h **** 
 220:Drivers/lvgl/src/widgets/buttonmatrix/../../core/lv_obj_style_gen.h **** static inline lv_color_t lv_obj_get_style_bg_color(const lv_obj_t * obj, lv_part_t part)
 221:Drivers/lvgl/src/widgets/buttonmatrix/../../core/lv_obj_style_gen.h **** {
 222:Drivers/lvgl/src/widgets/buttonmatrix/../../core/lv_obj_style_gen.h ****     lv_style_value_t v = lv_obj_get_style_prop(obj, part, LV_STYLE_BG_COLOR);
 223:Drivers/lvgl/src/widgets/buttonmatrix/../../core/lv_obj_style_gen.h ****     return v.color;
 224:Drivers/lvgl/src/widgets/buttonmatrix/../../core/lv_obj_style_gen.h **** }
 225:Drivers/lvgl/src/widgets/buttonmatrix/../../core/lv_obj_style_gen.h **** 
 226:Drivers/lvgl/src/widgets/buttonmatrix/../../core/lv_obj_style_gen.h **** static inline lv_color_t lv_obj_get_style_bg_color_filtered(const lv_obj_t * obj, lv_part_t part)
 227:Drivers/lvgl/src/widgets/buttonmatrix/../../core/lv_obj_style_gen.h **** {
 228:Drivers/lvgl/src/widgets/buttonmatrix/../../core/lv_obj_style_gen.h ****     lv_style_value_t v = lv_obj_style_apply_color_filter(obj, part, lv_obj_get_style_prop(obj, part
 229:Drivers/lvgl/src/widgets/buttonmatrix/../../core/lv_obj_style_gen.h ****     return v.color;
 230:Drivers/lvgl/src/widgets/buttonmatrix/../../core/lv_obj_style_gen.h **** }
 231:Drivers/lvgl/src/widgets/buttonmatrix/../../core/lv_obj_style_gen.h **** 
 232:Drivers/lvgl/src/widgets/buttonmatrix/../../core/lv_obj_style_gen.h **** static inline lv_opa_t lv_obj_get_style_bg_opa(const lv_obj_t * obj, lv_part_t part)
 233:Drivers/lvgl/src/widgets/buttonmatrix/../../core/lv_obj_style_gen.h **** {
 234:Drivers/lvgl/src/widgets/buttonmatrix/../../core/lv_obj_style_gen.h ****     lv_style_value_t v = lv_obj_get_style_prop(obj, part, LV_STYLE_BG_OPA);
 235:Drivers/lvgl/src/widgets/buttonmatrix/../../core/lv_obj_style_gen.h ****     return (lv_opa_t)v.num;
 236:Drivers/lvgl/src/widgets/buttonmatrix/../../core/lv_obj_style_gen.h **** }
 237:Drivers/lvgl/src/widgets/buttonmatrix/../../core/lv_obj_style_gen.h **** 
 238:Drivers/lvgl/src/widgets/buttonmatrix/../../core/lv_obj_style_gen.h **** static inline lv_color_t lv_obj_get_style_bg_grad_color(const lv_obj_t * obj, lv_part_t part)
 239:Drivers/lvgl/src/widgets/buttonmatrix/../../core/lv_obj_style_gen.h **** {
 240:Drivers/lvgl/src/widgets/buttonmatrix/../../core/lv_obj_style_gen.h ****     lv_style_value_t v = lv_obj_get_style_prop(obj, part, LV_STYLE_BG_GRAD_COLOR);
 241:Drivers/lvgl/src/widgets/buttonmatrix/../../core/lv_obj_style_gen.h ****     return v.color;
 242:Drivers/lvgl/src/widgets/buttonmatrix/../../core/lv_obj_style_gen.h **** }
 243:Drivers/lvgl/src/widgets/buttonmatrix/../../core/lv_obj_style_gen.h **** 
 244:Drivers/lvgl/src/widgets/buttonmatrix/../../core/lv_obj_style_gen.h **** static inline lv_color_t lv_obj_get_style_bg_grad_color_filtered(const lv_obj_t * obj, lv_part_t pa
 245:Drivers/lvgl/src/widgets/buttonmatrix/../../core/lv_obj_style_gen.h **** {
 246:Drivers/lvgl/src/widgets/buttonmatrix/../../core/lv_obj_style_gen.h ****     lv_style_value_t v = lv_obj_style_apply_color_filter(obj, part, lv_obj_get_style_prop(obj, part
 247:Drivers/lvgl/src/widgets/buttonmatrix/../../core/lv_obj_style_gen.h ****     return v.color;
 248:Drivers/lvgl/src/widgets/buttonmatrix/../../core/lv_obj_style_gen.h **** }
 249:Drivers/lvgl/src/widgets/buttonmatrix/../../core/lv_obj_style_gen.h **** 
 250:Drivers/lvgl/src/widgets/buttonmatrix/../../core/lv_obj_style_gen.h **** static inline lv_grad_dir_t lv_obj_get_style_bg_grad_dir(const lv_obj_t * obj, lv_part_t part)
 251:Drivers/lvgl/src/widgets/buttonmatrix/../../core/lv_obj_style_gen.h **** {
 252:Drivers/lvgl/src/widgets/buttonmatrix/../../core/lv_obj_style_gen.h ****     lv_style_value_t v = lv_obj_get_style_prop(obj, part, LV_STYLE_BG_GRAD_DIR);
 253:Drivers/lvgl/src/widgets/buttonmatrix/../../core/lv_obj_style_gen.h ****     return (lv_grad_dir_t)v.num;
ARM GAS  /tmp/cc9C7swH.s 			page 35


 254:Drivers/lvgl/src/widgets/buttonmatrix/../../core/lv_obj_style_gen.h **** }
 255:Drivers/lvgl/src/widgets/buttonmatrix/../../core/lv_obj_style_gen.h **** 
 256:Drivers/lvgl/src/widgets/buttonmatrix/../../core/lv_obj_style_gen.h **** static inline int32_t lv_obj_get_style_bg_main_stop(const lv_obj_t * obj, lv_part_t part)
 257:Drivers/lvgl/src/widgets/buttonmatrix/../../core/lv_obj_style_gen.h **** {
 258:Drivers/lvgl/src/widgets/buttonmatrix/../../core/lv_obj_style_gen.h ****     lv_style_value_t v = lv_obj_get_style_prop(obj, part, LV_STYLE_BG_MAIN_STOP);
 259:Drivers/lvgl/src/widgets/buttonmatrix/../../core/lv_obj_style_gen.h ****     return (int32_t)v.num;
 260:Drivers/lvgl/src/widgets/buttonmatrix/../../core/lv_obj_style_gen.h **** }
 261:Drivers/lvgl/src/widgets/buttonmatrix/../../core/lv_obj_style_gen.h **** 
 262:Drivers/lvgl/src/widgets/buttonmatrix/../../core/lv_obj_style_gen.h **** static inline int32_t lv_obj_get_style_bg_grad_stop(const lv_obj_t * obj, lv_part_t part)
 263:Drivers/lvgl/src/widgets/buttonmatrix/../../core/lv_obj_style_gen.h **** {
 264:Drivers/lvgl/src/widgets/buttonmatrix/../../core/lv_obj_style_gen.h ****     lv_style_value_t v = lv_obj_get_style_prop(obj, part, LV_STYLE_BG_GRAD_STOP);
 265:Drivers/lvgl/src/widgets/buttonmatrix/../../core/lv_obj_style_gen.h ****     return (int32_t)v.num;
 266:Drivers/lvgl/src/widgets/buttonmatrix/../../core/lv_obj_style_gen.h **** }
 267:Drivers/lvgl/src/widgets/buttonmatrix/../../core/lv_obj_style_gen.h **** 
 268:Drivers/lvgl/src/widgets/buttonmatrix/../../core/lv_obj_style_gen.h **** static inline lv_opa_t lv_obj_get_style_bg_main_opa(const lv_obj_t * obj, lv_part_t part)
 269:Drivers/lvgl/src/widgets/buttonmatrix/../../core/lv_obj_style_gen.h **** {
 270:Drivers/lvgl/src/widgets/buttonmatrix/../../core/lv_obj_style_gen.h ****     lv_style_value_t v = lv_obj_get_style_prop(obj, part, LV_STYLE_BG_MAIN_OPA);
 271:Drivers/lvgl/src/widgets/buttonmatrix/../../core/lv_obj_style_gen.h ****     return (lv_opa_t)v.num;
 272:Drivers/lvgl/src/widgets/buttonmatrix/../../core/lv_obj_style_gen.h **** }
 273:Drivers/lvgl/src/widgets/buttonmatrix/../../core/lv_obj_style_gen.h **** 
 274:Drivers/lvgl/src/widgets/buttonmatrix/../../core/lv_obj_style_gen.h **** static inline lv_opa_t lv_obj_get_style_bg_grad_opa(const lv_obj_t * obj, lv_part_t part)
 275:Drivers/lvgl/src/widgets/buttonmatrix/../../core/lv_obj_style_gen.h **** {
 276:Drivers/lvgl/src/widgets/buttonmatrix/../../core/lv_obj_style_gen.h ****     lv_style_value_t v = lv_obj_get_style_prop(obj, part, LV_STYLE_BG_GRAD_OPA);
 277:Drivers/lvgl/src/widgets/buttonmatrix/../../core/lv_obj_style_gen.h ****     return (lv_opa_t)v.num;
 278:Drivers/lvgl/src/widgets/buttonmatrix/../../core/lv_obj_style_gen.h **** }
 279:Drivers/lvgl/src/widgets/buttonmatrix/../../core/lv_obj_style_gen.h **** 
 280:Drivers/lvgl/src/widgets/buttonmatrix/../../core/lv_obj_style_gen.h **** static inline const lv_grad_dsc_t * lv_obj_get_style_bg_grad(const lv_obj_t * obj, lv_part_t part)
 281:Drivers/lvgl/src/widgets/buttonmatrix/../../core/lv_obj_style_gen.h **** {
 282:Drivers/lvgl/src/widgets/buttonmatrix/../../core/lv_obj_style_gen.h ****     lv_style_value_t v = lv_obj_get_style_prop(obj, part, LV_STYLE_BG_GRAD);
 283:Drivers/lvgl/src/widgets/buttonmatrix/../../core/lv_obj_style_gen.h ****     return (const lv_grad_dsc_t *)v.ptr;
 284:Drivers/lvgl/src/widgets/buttonmatrix/../../core/lv_obj_style_gen.h **** }
 285:Drivers/lvgl/src/widgets/buttonmatrix/../../core/lv_obj_style_gen.h **** 
 286:Drivers/lvgl/src/widgets/buttonmatrix/../../core/lv_obj_style_gen.h **** static inline const void * lv_obj_get_style_bg_image_src(const lv_obj_t * obj, lv_part_t part)
 287:Drivers/lvgl/src/widgets/buttonmatrix/../../core/lv_obj_style_gen.h **** {
 288:Drivers/lvgl/src/widgets/buttonmatrix/../../core/lv_obj_style_gen.h ****     lv_style_value_t v = lv_obj_get_style_prop(obj, part, LV_STYLE_BG_IMAGE_SRC);
 289:Drivers/lvgl/src/widgets/buttonmatrix/../../core/lv_obj_style_gen.h ****     return (const void *)v.ptr;
 290:Drivers/lvgl/src/widgets/buttonmatrix/../../core/lv_obj_style_gen.h **** }
 291:Drivers/lvgl/src/widgets/buttonmatrix/../../core/lv_obj_style_gen.h **** 
 292:Drivers/lvgl/src/widgets/buttonmatrix/../../core/lv_obj_style_gen.h **** static inline lv_opa_t lv_obj_get_style_bg_image_opa(const lv_obj_t * obj, lv_part_t part)
 293:Drivers/lvgl/src/widgets/buttonmatrix/../../core/lv_obj_style_gen.h **** {
 294:Drivers/lvgl/src/widgets/buttonmatrix/../../core/lv_obj_style_gen.h ****     lv_style_value_t v = lv_obj_get_style_prop(obj, part, LV_STYLE_BG_IMAGE_OPA);
 295:Drivers/lvgl/src/widgets/buttonmatrix/../../core/lv_obj_style_gen.h ****     return (lv_opa_t)v.num;
 296:Drivers/lvgl/src/widgets/buttonmatrix/../../core/lv_obj_style_gen.h **** }
 297:Drivers/lvgl/src/widgets/buttonmatrix/../../core/lv_obj_style_gen.h **** 
 298:Drivers/lvgl/src/widgets/buttonmatrix/../../core/lv_obj_style_gen.h **** static inline lv_color_t lv_obj_get_style_bg_image_recolor(const lv_obj_t * obj, lv_part_t part)
 299:Drivers/lvgl/src/widgets/buttonmatrix/../../core/lv_obj_style_gen.h **** {
 300:Drivers/lvgl/src/widgets/buttonmatrix/../../core/lv_obj_style_gen.h ****     lv_style_value_t v = lv_obj_get_style_prop(obj, part, LV_STYLE_BG_IMAGE_RECOLOR);
 301:Drivers/lvgl/src/widgets/buttonmatrix/../../core/lv_obj_style_gen.h ****     return v.color;
 302:Drivers/lvgl/src/widgets/buttonmatrix/../../core/lv_obj_style_gen.h **** }
 303:Drivers/lvgl/src/widgets/buttonmatrix/../../core/lv_obj_style_gen.h **** 
 304:Drivers/lvgl/src/widgets/buttonmatrix/../../core/lv_obj_style_gen.h **** static inline lv_color_t lv_obj_get_style_bg_image_recolor_filtered(const lv_obj_t * obj, lv_part_t
 305:Drivers/lvgl/src/widgets/buttonmatrix/../../core/lv_obj_style_gen.h **** {
 306:Drivers/lvgl/src/widgets/buttonmatrix/../../core/lv_obj_style_gen.h ****     lv_style_value_t v = lv_obj_style_apply_color_filter(obj, part, lv_obj_get_style_prop(obj, part
 307:Drivers/lvgl/src/widgets/buttonmatrix/../../core/lv_obj_style_gen.h ****     return v.color;
 308:Drivers/lvgl/src/widgets/buttonmatrix/../../core/lv_obj_style_gen.h **** }
 309:Drivers/lvgl/src/widgets/buttonmatrix/../../core/lv_obj_style_gen.h **** 
 310:Drivers/lvgl/src/widgets/buttonmatrix/../../core/lv_obj_style_gen.h **** static inline lv_opa_t lv_obj_get_style_bg_image_recolor_opa(const lv_obj_t * obj, lv_part_t part)
ARM GAS  /tmp/cc9C7swH.s 			page 36


 311:Drivers/lvgl/src/widgets/buttonmatrix/../../core/lv_obj_style_gen.h **** {
 312:Drivers/lvgl/src/widgets/buttonmatrix/../../core/lv_obj_style_gen.h ****     lv_style_value_t v = lv_obj_get_style_prop(obj, part, LV_STYLE_BG_IMAGE_RECOLOR_OPA);
 313:Drivers/lvgl/src/widgets/buttonmatrix/../../core/lv_obj_style_gen.h ****     return (lv_opa_t)v.num;
 314:Drivers/lvgl/src/widgets/buttonmatrix/../../core/lv_obj_style_gen.h **** }
 315:Drivers/lvgl/src/widgets/buttonmatrix/../../core/lv_obj_style_gen.h **** 
 316:Drivers/lvgl/src/widgets/buttonmatrix/../../core/lv_obj_style_gen.h **** static inline bool lv_obj_get_style_bg_image_tiled(const lv_obj_t * obj, lv_part_t part)
 317:Drivers/lvgl/src/widgets/buttonmatrix/../../core/lv_obj_style_gen.h **** {
 318:Drivers/lvgl/src/widgets/buttonmatrix/../../core/lv_obj_style_gen.h ****     lv_style_value_t v = lv_obj_get_style_prop(obj, part, LV_STYLE_BG_IMAGE_TILED);
 319:Drivers/lvgl/src/widgets/buttonmatrix/../../core/lv_obj_style_gen.h ****     return (bool)v.num;
 320:Drivers/lvgl/src/widgets/buttonmatrix/../../core/lv_obj_style_gen.h **** }
 321:Drivers/lvgl/src/widgets/buttonmatrix/../../core/lv_obj_style_gen.h **** 
 322:Drivers/lvgl/src/widgets/buttonmatrix/../../core/lv_obj_style_gen.h **** static inline lv_color_t lv_obj_get_style_border_color(const lv_obj_t * obj, lv_part_t part)
 323:Drivers/lvgl/src/widgets/buttonmatrix/../../core/lv_obj_style_gen.h **** {
 324:Drivers/lvgl/src/widgets/buttonmatrix/../../core/lv_obj_style_gen.h ****     lv_style_value_t v = lv_obj_get_style_prop(obj, part, LV_STYLE_BORDER_COLOR);
 325:Drivers/lvgl/src/widgets/buttonmatrix/../../core/lv_obj_style_gen.h ****     return v.color;
 326:Drivers/lvgl/src/widgets/buttonmatrix/../../core/lv_obj_style_gen.h **** }
 327:Drivers/lvgl/src/widgets/buttonmatrix/../../core/lv_obj_style_gen.h **** 
 328:Drivers/lvgl/src/widgets/buttonmatrix/../../core/lv_obj_style_gen.h **** static inline lv_color_t lv_obj_get_style_border_color_filtered(const lv_obj_t * obj, lv_part_t par
 329:Drivers/lvgl/src/widgets/buttonmatrix/../../core/lv_obj_style_gen.h **** {
 330:Drivers/lvgl/src/widgets/buttonmatrix/../../core/lv_obj_style_gen.h ****     lv_style_value_t v = lv_obj_style_apply_color_filter(obj, part, lv_obj_get_style_prop(obj, part
 331:Drivers/lvgl/src/widgets/buttonmatrix/../../core/lv_obj_style_gen.h ****     return v.color;
 332:Drivers/lvgl/src/widgets/buttonmatrix/../../core/lv_obj_style_gen.h **** }
 333:Drivers/lvgl/src/widgets/buttonmatrix/../../core/lv_obj_style_gen.h **** 
 334:Drivers/lvgl/src/widgets/buttonmatrix/../../core/lv_obj_style_gen.h **** static inline lv_opa_t lv_obj_get_style_border_opa(const lv_obj_t * obj, lv_part_t part)
 335:Drivers/lvgl/src/widgets/buttonmatrix/../../core/lv_obj_style_gen.h **** {
 336:Drivers/lvgl/src/widgets/buttonmatrix/../../core/lv_obj_style_gen.h ****     lv_style_value_t v = lv_obj_get_style_prop(obj, part, LV_STYLE_BORDER_OPA);
 337:Drivers/lvgl/src/widgets/buttonmatrix/../../core/lv_obj_style_gen.h ****     return (lv_opa_t)v.num;
 338:Drivers/lvgl/src/widgets/buttonmatrix/../../core/lv_obj_style_gen.h **** }
 339:Drivers/lvgl/src/widgets/buttonmatrix/../../core/lv_obj_style_gen.h **** 
 340:Drivers/lvgl/src/widgets/buttonmatrix/../../core/lv_obj_style_gen.h **** static inline int32_t lv_obj_get_style_border_width(const lv_obj_t * obj, lv_part_t part)
 427              		.loc 3 340 23 view .LVU86
 428              	.LBB80:
 341:Drivers/lvgl/src/widgets/buttonmatrix/../../core/lv_obj_style_gen.h **** {
 342:Drivers/lvgl/src/widgets/buttonmatrix/../../core/lv_obj_style_gen.h ****     lv_style_value_t v = lv_obj_get_style_prop(obj, part, LV_STYLE_BORDER_WIDTH);
 429              		.loc 3 342 5 view .LVU87
 430              		.loc 3 342 26 is_stmt 0 view .LVU88
 431 0016 3022     		movs	r2, #48
 432 0018 3146     		mov	r1, r6
 433 001a 2846     		mov	r0, r5
 434              	.LVL35:
 435              		.loc 3 342 26 view .LVU89
 436 001c FFF7FEFF 		bl	lv_obj_get_style_prop
 437              	.LVL36:
 438 0020 0746     		mov	r7, r0
 439 0022 0190     		str	r0, [sp, #4]
 343:Drivers/lvgl/src/widgets/buttonmatrix/../../core/lv_obj_style_gen.h ****     return (int32_t)v.num;
 440              		.loc 3 343 5 is_stmt 1 view .LVU90
 441              	.LVL37:
 442              		.loc 3 343 5 is_stmt 0 view .LVU91
 443              	.LBE80:
 444              	.LBE79:
 260:Drivers/lvgl/src/widgets/buttonmatrix/../../core/lv_obj_style.h ****     lv_border_side_t border_side = lv_obj_get_style_border_side(obj, part);
 445              		.loc 2 260 5 is_stmt 1 view .LVU92
 446              	.LBB81:
 447              	.LBI81:
 344:Drivers/lvgl/src/widgets/buttonmatrix/../../core/lv_obj_style_gen.h **** }
 345:Drivers/lvgl/src/widgets/buttonmatrix/../../core/lv_obj_style_gen.h **** 
ARM GAS  /tmp/cc9C7swH.s 			page 37


 346:Drivers/lvgl/src/widgets/buttonmatrix/../../core/lv_obj_style_gen.h **** static inline lv_border_side_t lv_obj_get_style_border_side(const lv_obj_t * obj, lv_part_t part)
 448              		.loc 3 346 32 view .LVU93
 449              	.LBB82:
 347:Drivers/lvgl/src/widgets/buttonmatrix/../../core/lv_obj_style_gen.h **** {
 348:Drivers/lvgl/src/widgets/buttonmatrix/../../core/lv_obj_style_gen.h ****     lv_style_value_t v = lv_obj_get_style_prop(obj, part, LV_STYLE_BORDER_SIDE);
 450              		.loc 3 348 5 view .LVU94
 451              		.loc 3 348 26 is_stmt 0 view .LVU95
 452 0024 3422     		movs	r2, #52
 453 0026 3146     		mov	r1, r6
 454 0028 2846     		mov	r0, r5
 455              	.LVL38:
 456              		.loc 3 348 26 view .LVU96
 457 002a FFF7FEFF 		bl	lv_obj_get_style_prop
 458              	.LVL39:
 459 002e 0190     		str	r0, [sp, #4]
 349:Drivers/lvgl/src/widgets/buttonmatrix/../../core/lv_obj_style_gen.h ****     return (lv_border_side_t)v.num;
 460              		.loc 3 349 5 is_stmt 1 view .LVU97
 461              	.LVL40:
 462              		.loc 3 349 5 is_stmt 0 view .LVU98
 463              	.LBE82:
 464              	.LBE81:
 261:Drivers/lvgl/src/widgets/buttonmatrix/../../core/lv_obj_style.h ****     return (border_side & LV_BORDER_SIDE_LEFT) ? padding + border_width : padding;
 465              		.loc 2 261 5 is_stmt 1 view .LVU99
 466              		.loc 2 261 73 is_stmt 0 view .LVU100
 467 0030 10F0040F 		tst	r0, #4
 468 0034 01D0     		beq	.L26
 469              		.loc 2 261 73 discriminator 1 view .LVU101
 470 0036 04EB0708 		add	r8, r4, r7
 471              	.L26:
 262:Drivers/lvgl/src/widgets/buttonmatrix/../../core/lv_obj_style.h **** }
 472              		.loc 2 262 1 view .LVU102
 473 003a 4046     		mov	r0, r8
 474              	.LVL41:
 475              		.loc 2 262 1 view .LVU103
 476 003c 02B0     		add	sp, sp, #8
 477              	.LCFI5:
 478              		.cfi_def_cfa_offset 24
 479              		@ sp needed
 480 003e BDE8F081 		pop	{r4, r5, r6, r7, r8, pc}
 481              		.loc 2 262 1 view .LVU104
 482              		.cfi_endproc
 483              	.LFE165:
 485              		.section	.text.lv_obj_get_style_space_top,"ax",%progbits
 486              		.align	1
 487              		.syntax unified
 488              		.thumb
 489              		.thumb_func
 491              	lv_obj_get_style_space_top:
 492              	.LVL42:
 493              	.LFB167:
 263:Drivers/lvgl/src/widgets/buttonmatrix/../../core/lv_obj_style.h **** 
 264:Drivers/lvgl/src/widgets/buttonmatrix/../../core/lv_obj_style.h **** static inline int32_t lv_obj_get_style_space_right(const lv_obj_t * obj, lv_part_t part)
 265:Drivers/lvgl/src/widgets/buttonmatrix/../../core/lv_obj_style.h **** {
 266:Drivers/lvgl/src/widgets/buttonmatrix/../../core/lv_obj_style.h ****     int32_t padding = lv_obj_get_style_pad_right(obj, part);
 267:Drivers/lvgl/src/widgets/buttonmatrix/../../core/lv_obj_style.h ****     int32_t border_width = lv_obj_get_style_border_width(obj, part);
 268:Drivers/lvgl/src/widgets/buttonmatrix/../../core/lv_obj_style.h ****     lv_border_side_t border_side = lv_obj_get_style_border_side(obj, part);
 269:Drivers/lvgl/src/widgets/buttonmatrix/../../core/lv_obj_style.h ****     return (border_side & LV_BORDER_SIDE_RIGHT) ? padding + border_width : padding;
ARM GAS  /tmp/cc9C7swH.s 			page 38


 270:Drivers/lvgl/src/widgets/buttonmatrix/../../core/lv_obj_style.h **** }
 271:Drivers/lvgl/src/widgets/buttonmatrix/../../core/lv_obj_style.h **** 
 272:Drivers/lvgl/src/widgets/buttonmatrix/../../core/lv_obj_style.h **** static inline int32_t lv_obj_get_style_space_top(const lv_obj_t * obj, lv_part_t part)
 273:Drivers/lvgl/src/widgets/buttonmatrix/../../core/lv_obj_style.h **** {
 494              		.loc 2 273 1 is_stmt 1 view -0
 495              		.cfi_startproc
 496              		@ args = 0, pretend = 0, frame = 8
 497              		@ frame_needed = 0, uses_anonymous_args = 0
 498              		.loc 2 273 1 is_stmt 0 view .LVU106
 499 0000 2DE9F041 		push	{r4, r5, r6, r7, r8, lr}
 500              	.LCFI6:
 501              		.cfi_def_cfa_offset 24
 502              		.cfi_offset 4, -24
 503              		.cfi_offset 5, -20
 504              		.cfi_offset 6, -16
 505              		.cfi_offset 7, -12
 506              		.cfi_offset 8, -8
 507              		.cfi_offset 14, -4
 508 0004 82B0     		sub	sp, sp, #8
 509              	.LCFI7:
 510              		.cfi_def_cfa_offset 32
 511 0006 0546     		mov	r5, r0
 512 0008 0E46     		mov	r6, r1
 274:Drivers/lvgl/src/widgets/buttonmatrix/../../core/lv_obj_style.h ****     int32_t padding = lv_obj_get_style_pad_top(obj, part);
 513              		.loc 2 274 5 is_stmt 1 view .LVU107
 514              	.LVL43:
 515              	.LBB83:
 516              	.LBI83:
 154:Drivers/lvgl/src/widgets/buttonmatrix/../../core/lv_obj_style_gen.h **** {
 517              		.loc 3 154 23 view .LVU108
 518              	.LBB84:
 156:Drivers/lvgl/src/widgets/buttonmatrix/../../core/lv_obj_style_gen.h ****     return (int32_t)v.num;
 519              		.loc 3 156 5 view .LVU109
 156:Drivers/lvgl/src/widgets/buttonmatrix/../../core/lv_obj_style_gen.h ****     return (int32_t)v.num;
 520              		.loc 3 156 26 is_stmt 0 view .LVU110
 521 000a 1022     		movs	r2, #16
 522 000c FFF7FEFF 		bl	lv_obj_get_style_prop
 523              	.LVL44:
 156:Drivers/lvgl/src/widgets/buttonmatrix/../../core/lv_obj_style_gen.h ****     return (int32_t)v.num;
 524              		.loc 3 156 26 view .LVU111
 525 0010 0446     		mov	r4, r0
 526 0012 0190     		str	r0, [sp, #4]
 157:Drivers/lvgl/src/widgets/buttonmatrix/../../core/lv_obj_style_gen.h **** }
 527              		.loc 3 157 5 is_stmt 1 view .LVU112
 157:Drivers/lvgl/src/widgets/buttonmatrix/../../core/lv_obj_style_gen.h **** }
 528              		.loc 3 157 12 is_stmt 0 view .LVU113
 529 0014 8046     		mov	r8, r0
 530              	.LVL45:
 157:Drivers/lvgl/src/widgets/buttonmatrix/../../core/lv_obj_style_gen.h **** }
 531              		.loc 3 157 12 view .LVU114
 532              	.LBE84:
 533              	.LBE83:
 275:Drivers/lvgl/src/widgets/buttonmatrix/../../core/lv_obj_style.h ****     int32_t border_width = lv_obj_get_style_border_width(obj, part);
 534              		.loc 2 275 5 is_stmt 1 view .LVU115
 535              	.LBB85:
 536              	.LBI85:
 340:Drivers/lvgl/src/widgets/buttonmatrix/../../core/lv_obj_style_gen.h **** {
ARM GAS  /tmp/cc9C7swH.s 			page 39


 537              		.loc 3 340 23 view .LVU116
 538              	.LBB86:
 342:Drivers/lvgl/src/widgets/buttonmatrix/../../core/lv_obj_style_gen.h ****     return (int32_t)v.num;
 539              		.loc 3 342 5 view .LVU117
 342:Drivers/lvgl/src/widgets/buttonmatrix/../../core/lv_obj_style_gen.h ****     return (int32_t)v.num;
 540              		.loc 3 342 26 is_stmt 0 view .LVU118
 541 0016 3022     		movs	r2, #48
 542 0018 3146     		mov	r1, r6
 543 001a 2846     		mov	r0, r5
 544              	.LVL46:
 342:Drivers/lvgl/src/widgets/buttonmatrix/../../core/lv_obj_style_gen.h ****     return (int32_t)v.num;
 545              		.loc 3 342 26 view .LVU119
 546 001c FFF7FEFF 		bl	lv_obj_get_style_prop
 547              	.LVL47:
 548 0020 0746     		mov	r7, r0
 549 0022 0190     		str	r0, [sp, #4]
 343:Drivers/lvgl/src/widgets/buttonmatrix/../../core/lv_obj_style_gen.h **** }
 550              		.loc 3 343 5 is_stmt 1 view .LVU120
 551              	.LVL48:
 343:Drivers/lvgl/src/widgets/buttonmatrix/../../core/lv_obj_style_gen.h **** }
 552              		.loc 3 343 5 is_stmt 0 view .LVU121
 553              	.LBE86:
 554              	.LBE85:
 276:Drivers/lvgl/src/widgets/buttonmatrix/../../core/lv_obj_style.h ****     lv_border_side_t border_side = lv_obj_get_style_border_side(obj, part);
 555              		.loc 2 276 5 is_stmt 1 view .LVU122
 556              	.LBB87:
 557              	.LBI87:
 346:Drivers/lvgl/src/widgets/buttonmatrix/../../core/lv_obj_style_gen.h **** {
 558              		.loc 3 346 32 view .LVU123
 559              	.LBB88:
 348:Drivers/lvgl/src/widgets/buttonmatrix/../../core/lv_obj_style_gen.h ****     return (lv_border_side_t)v.num;
 560              		.loc 3 348 5 view .LVU124
 348:Drivers/lvgl/src/widgets/buttonmatrix/../../core/lv_obj_style_gen.h ****     return (lv_border_side_t)v.num;
 561              		.loc 3 348 26 is_stmt 0 view .LVU125
 562 0024 3422     		movs	r2, #52
 563 0026 3146     		mov	r1, r6
 564 0028 2846     		mov	r0, r5
 565              	.LVL49:
 348:Drivers/lvgl/src/widgets/buttonmatrix/../../core/lv_obj_style_gen.h ****     return (lv_border_side_t)v.num;
 566              		.loc 3 348 26 view .LVU126
 567 002a FFF7FEFF 		bl	lv_obj_get_style_prop
 568              	.LVL50:
 569 002e 0190     		str	r0, [sp, #4]
 570              		.loc 3 349 5 is_stmt 1 view .LVU127
 571              	.LVL51:
 572              		.loc 3 349 5 is_stmt 0 view .LVU128
 573              	.LBE88:
 574              	.LBE87:
 277:Drivers/lvgl/src/widgets/buttonmatrix/../../core/lv_obj_style.h ****     return (border_side & LV_BORDER_SIDE_TOP) ? padding + border_width : padding;
 575              		.loc 2 277 5 is_stmt 1 view .LVU129
 576              		.loc 2 277 72 is_stmt 0 view .LVU130
 577 0030 10F0020F 		tst	r0, #2
 578 0034 01D0     		beq	.L29
 579              		.loc 2 277 72 discriminator 1 view .LVU131
 580 0036 04EB0708 		add	r8, r4, r7
 581              	.L29:
 278:Drivers/lvgl/src/widgets/buttonmatrix/../../core/lv_obj_style.h **** }
ARM GAS  /tmp/cc9C7swH.s 			page 40


 582              		.loc 2 278 1 view .LVU132
 583 003a 4046     		mov	r0, r8
 584              	.LVL52:
 585              		.loc 2 278 1 view .LVU133
 586 003c 02B0     		add	sp, sp, #8
 587              	.LCFI8:
 588              		.cfi_def_cfa_offset 24
 589              		@ sp needed
 590 003e BDE8F081 		pop	{r4, r5, r6, r7, r8, pc}
 591              		.loc 2 278 1 view .LVU134
 592              		.cfi_endproc
 593              	.LFE167:
 595              		.section	.text.update_map,"ax",%progbits
 596              		.align	1
 597              		.syntax unified
 598              		.thumb
 599              		.thumb_func
 601              	update_map:
 602              	.LVL53:
 603              	.LFB205:
 992:Drivers/lvgl/src/widgets/buttonmatrix/lv_buttonmatrix.c **** 
 993:Drivers/lvgl/src/widgets/buttonmatrix/lv_buttonmatrix.c **** static void update_map(lv_obj_t * obj)
 994:Drivers/lvgl/src/widgets/buttonmatrix/lv_buttonmatrix.c **** {
 604              		.loc 1 994 1 is_stmt 1 view -0
 605              		.cfi_startproc
 606              		@ args = 0, pretend = 0, frame = 56
 607              		@ frame_needed = 0, uses_anonymous_args = 0
 608              		.loc 1 994 1 is_stmt 0 view .LVU136
 609 0000 2DE9F04F 		push	{r4, r5, r6, r7, r8, r9, r10, fp, lr}
 610              	.LCFI9:
 611              		.cfi_def_cfa_offset 36
 612              		.cfi_offset 4, -36
 613              		.cfi_offset 5, -32
 614              		.cfi_offset 6, -28
 615              		.cfi_offset 7, -24
 616              		.cfi_offset 8, -20
 617              		.cfi_offset 9, -16
 618              		.cfi_offset 10, -12
 619              		.cfi_offset 11, -8
 620              		.cfi_offset 14, -4
 621 0004 91B0     		sub	sp, sp, #68
 622              	.LCFI10:
 623              		.cfi_def_cfa_offset 104
 624 0006 0746     		mov	r7, r0
 995:Drivers/lvgl/src/widgets/buttonmatrix/lv_buttonmatrix.c ****     lv_buttonmatrix_t * btnm = (lv_buttonmatrix_t *)obj;
 625              		.loc 1 995 5 is_stmt 1 view .LVU137
 626              	.LVL54:
 996:Drivers/lvgl/src/widgets/buttonmatrix/lv_buttonmatrix.c **** 
 997:Drivers/lvgl/src/widgets/buttonmatrix/lv_buttonmatrix.c ****     lv_base_dir_t base_dir = lv_obj_get_style_base_dir(obj, LV_PART_MAIN);
 627              		.loc 1 997 5 view .LVU138
 628              	.LBB89:
 629              	.LBI89:
 350:Drivers/lvgl/src/widgets/buttonmatrix/../../core/lv_obj_style_gen.h **** }
 351:Drivers/lvgl/src/widgets/buttonmatrix/../../core/lv_obj_style_gen.h **** 
 352:Drivers/lvgl/src/widgets/buttonmatrix/../../core/lv_obj_style_gen.h **** static inline bool lv_obj_get_style_border_post(const lv_obj_t * obj, lv_part_t part)
 353:Drivers/lvgl/src/widgets/buttonmatrix/../../core/lv_obj_style_gen.h **** {
 354:Drivers/lvgl/src/widgets/buttonmatrix/../../core/lv_obj_style_gen.h ****     lv_style_value_t v = lv_obj_get_style_prop(obj, part, LV_STYLE_BORDER_POST);
ARM GAS  /tmp/cc9C7swH.s 			page 41


 355:Drivers/lvgl/src/widgets/buttonmatrix/../../core/lv_obj_style_gen.h ****     return (bool)v.num;
 356:Drivers/lvgl/src/widgets/buttonmatrix/../../core/lv_obj_style_gen.h **** }
 357:Drivers/lvgl/src/widgets/buttonmatrix/../../core/lv_obj_style_gen.h **** 
 358:Drivers/lvgl/src/widgets/buttonmatrix/../../core/lv_obj_style_gen.h **** static inline int32_t lv_obj_get_style_outline_width(const lv_obj_t * obj, lv_part_t part)
 359:Drivers/lvgl/src/widgets/buttonmatrix/../../core/lv_obj_style_gen.h **** {
 360:Drivers/lvgl/src/widgets/buttonmatrix/../../core/lv_obj_style_gen.h ****     lv_style_value_t v = lv_obj_get_style_prop(obj, part, LV_STYLE_OUTLINE_WIDTH);
 361:Drivers/lvgl/src/widgets/buttonmatrix/../../core/lv_obj_style_gen.h ****     return (int32_t)v.num;
 362:Drivers/lvgl/src/widgets/buttonmatrix/../../core/lv_obj_style_gen.h **** }
 363:Drivers/lvgl/src/widgets/buttonmatrix/../../core/lv_obj_style_gen.h **** 
 364:Drivers/lvgl/src/widgets/buttonmatrix/../../core/lv_obj_style_gen.h **** static inline lv_color_t lv_obj_get_style_outline_color(const lv_obj_t * obj, lv_part_t part)
 365:Drivers/lvgl/src/widgets/buttonmatrix/../../core/lv_obj_style_gen.h **** {
 366:Drivers/lvgl/src/widgets/buttonmatrix/../../core/lv_obj_style_gen.h ****     lv_style_value_t v = lv_obj_get_style_prop(obj, part, LV_STYLE_OUTLINE_COLOR);
 367:Drivers/lvgl/src/widgets/buttonmatrix/../../core/lv_obj_style_gen.h ****     return v.color;
 368:Drivers/lvgl/src/widgets/buttonmatrix/../../core/lv_obj_style_gen.h **** }
 369:Drivers/lvgl/src/widgets/buttonmatrix/../../core/lv_obj_style_gen.h **** 
 370:Drivers/lvgl/src/widgets/buttonmatrix/../../core/lv_obj_style_gen.h **** static inline lv_color_t lv_obj_get_style_outline_color_filtered(const lv_obj_t * obj, lv_part_t pa
 371:Drivers/lvgl/src/widgets/buttonmatrix/../../core/lv_obj_style_gen.h **** {
 372:Drivers/lvgl/src/widgets/buttonmatrix/../../core/lv_obj_style_gen.h ****     lv_style_value_t v = lv_obj_style_apply_color_filter(obj, part, lv_obj_get_style_prop(obj, part
 373:Drivers/lvgl/src/widgets/buttonmatrix/../../core/lv_obj_style_gen.h ****     return v.color;
 374:Drivers/lvgl/src/widgets/buttonmatrix/../../core/lv_obj_style_gen.h **** }
 375:Drivers/lvgl/src/widgets/buttonmatrix/../../core/lv_obj_style_gen.h **** 
 376:Drivers/lvgl/src/widgets/buttonmatrix/../../core/lv_obj_style_gen.h **** static inline lv_opa_t lv_obj_get_style_outline_opa(const lv_obj_t * obj, lv_part_t part)
 377:Drivers/lvgl/src/widgets/buttonmatrix/../../core/lv_obj_style_gen.h **** {
 378:Drivers/lvgl/src/widgets/buttonmatrix/../../core/lv_obj_style_gen.h ****     lv_style_value_t v = lv_obj_get_style_prop(obj, part, LV_STYLE_OUTLINE_OPA);
 379:Drivers/lvgl/src/widgets/buttonmatrix/../../core/lv_obj_style_gen.h ****     return (lv_opa_t)v.num;
 380:Drivers/lvgl/src/widgets/buttonmatrix/../../core/lv_obj_style_gen.h **** }
 381:Drivers/lvgl/src/widgets/buttonmatrix/../../core/lv_obj_style_gen.h **** 
 382:Drivers/lvgl/src/widgets/buttonmatrix/../../core/lv_obj_style_gen.h **** static inline int32_t lv_obj_get_style_outline_pad(const lv_obj_t * obj, lv_part_t part)
 383:Drivers/lvgl/src/widgets/buttonmatrix/../../core/lv_obj_style_gen.h **** {
 384:Drivers/lvgl/src/widgets/buttonmatrix/../../core/lv_obj_style_gen.h ****     lv_style_value_t v = lv_obj_get_style_prop(obj, part, LV_STYLE_OUTLINE_PAD);
 385:Drivers/lvgl/src/widgets/buttonmatrix/../../core/lv_obj_style_gen.h ****     return (int32_t)v.num;
 386:Drivers/lvgl/src/widgets/buttonmatrix/../../core/lv_obj_style_gen.h **** }
 387:Drivers/lvgl/src/widgets/buttonmatrix/../../core/lv_obj_style_gen.h **** 
 388:Drivers/lvgl/src/widgets/buttonmatrix/../../core/lv_obj_style_gen.h **** static inline int32_t lv_obj_get_style_shadow_width(const lv_obj_t * obj, lv_part_t part)
 389:Drivers/lvgl/src/widgets/buttonmatrix/../../core/lv_obj_style_gen.h **** {
 390:Drivers/lvgl/src/widgets/buttonmatrix/../../core/lv_obj_style_gen.h ****     lv_style_value_t v = lv_obj_get_style_prop(obj, part, LV_STYLE_SHADOW_WIDTH);
 391:Drivers/lvgl/src/widgets/buttonmatrix/../../core/lv_obj_style_gen.h ****     return (int32_t)v.num;
 392:Drivers/lvgl/src/widgets/buttonmatrix/../../core/lv_obj_style_gen.h **** }
 393:Drivers/lvgl/src/widgets/buttonmatrix/../../core/lv_obj_style_gen.h **** 
 394:Drivers/lvgl/src/widgets/buttonmatrix/../../core/lv_obj_style_gen.h **** static inline int32_t lv_obj_get_style_shadow_offset_x(const lv_obj_t * obj, lv_part_t part)
 395:Drivers/lvgl/src/widgets/buttonmatrix/../../core/lv_obj_style_gen.h **** {
 396:Drivers/lvgl/src/widgets/buttonmatrix/../../core/lv_obj_style_gen.h ****     lv_style_value_t v = lv_obj_get_style_prop(obj, part, LV_STYLE_SHADOW_OFFSET_X);
 397:Drivers/lvgl/src/widgets/buttonmatrix/../../core/lv_obj_style_gen.h ****     return (int32_t)v.num;
 398:Drivers/lvgl/src/widgets/buttonmatrix/../../core/lv_obj_style_gen.h **** }
 399:Drivers/lvgl/src/widgets/buttonmatrix/../../core/lv_obj_style_gen.h **** 
 400:Drivers/lvgl/src/widgets/buttonmatrix/../../core/lv_obj_style_gen.h **** static inline int32_t lv_obj_get_style_shadow_offset_y(const lv_obj_t * obj, lv_part_t part)
 401:Drivers/lvgl/src/widgets/buttonmatrix/../../core/lv_obj_style_gen.h **** {
 402:Drivers/lvgl/src/widgets/buttonmatrix/../../core/lv_obj_style_gen.h ****     lv_style_value_t v = lv_obj_get_style_prop(obj, part, LV_STYLE_SHADOW_OFFSET_Y);
 403:Drivers/lvgl/src/widgets/buttonmatrix/../../core/lv_obj_style_gen.h ****     return (int32_t)v.num;
 404:Drivers/lvgl/src/widgets/buttonmatrix/../../core/lv_obj_style_gen.h **** }
 405:Drivers/lvgl/src/widgets/buttonmatrix/../../core/lv_obj_style_gen.h **** 
 406:Drivers/lvgl/src/widgets/buttonmatrix/../../core/lv_obj_style_gen.h **** static inline int32_t lv_obj_get_style_shadow_spread(const lv_obj_t * obj, lv_part_t part)
 407:Drivers/lvgl/src/widgets/buttonmatrix/../../core/lv_obj_style_gen.h **** {
 408:Drivers/lvgl/src/widgets/buttonmatrix/../../core/lv_obj_style_gen.h ****     lv_style_value_t v = lv_obj_get_style_prop(obj, part, LV_STYLE_SHADOW_SPREAD);
 409:Drivers/lvgl/src/widgets/buttonmatrix/../../core/lv_obj_style_gen.h ****     return (int32_t)v.num;
 410:Drivers/lvgl/src/widgets/buttonmatrix/../../core/lv_obj_style_gen.h **** }
 411:Drivers/lvgl/src/widgets/buttonmatrix/../../core/lv_obj_style_gen.h **** 
ARM GAS  /tmp/cc9C7swH.s 			page 42


 412:Drivers/lvgl/src/widgets/buttonmatrix/../../core/lv_obj_style_gen.h **** static inline lv_color_t lv_obj_get_style_shadow_color(const lv_obj_t * obj, lv_part_t part)
 413:Drivers/lvgl/src/widgets/buttonmatrix/../../core/lv_obj_style_gen.h **** {
 414:Drivers/lvgl/src/widgets/buttonmatrix/../../core/lv_obj_style_gen.h ****     lv_style_value_t v = lv_obj_get_style_prop(obj, part, LV_STYLE_SHADOW_COLOR);
 415:Drivers/lvgl/src/widgets/buttonmatrix/../../core/lv_obj_style_gen.h ****     return v.color;
 416:Drivers/lvgl/src/widgets/buttonmatrix/../../core/lv_obj_style_gen.h **** }
 417:Drivers/lvgl/src/widgets/buttonmatrix/../../core/lv_obj_style_gen.h **** 
 418:Drivers/lvgl/src/widgets/buttonmatrix/../../core/lv_obj_style_gen.h **** static inline lv_color_t lv_obj_get_style_shadow_color_filtered(const lv_obj_t * obj, lv_part_t par
 419:Drivers/lvgl/src/widgets/buttonmatrix/../../core/lv_obj_style_gen.h **** {
 420:Drivers/lvgl/src/widgets/buttonmatrix/../../core/lv_obj_style_gen.h ****     lv_style_value_t v = lv_obj_style_apply_color_filter(obj, part, lv_obj_get_style_prop(obj, part
 421:Drivers/lvgl/src/widgets/buttonmatrix/../../core/lv_obj_style_gen.h ****     return v.color;
 422:Drivers/lvgl/src/widgets/buttonmatrix/../../core/lv_obj_style_gen.h **** }
 423:Drivers/lvgl/src/widgets/buttonmatrix/../../core/lv_obj_style_gen.h **** 
 424:Drivers/lvgl/src/widgets/buttonmatrix/../../core/lv_obj_style_gen.h **** static inline lv_opa_t lv_obj_get_style_shadow_opa(const lv_obj_t * obj, lv_part_t part)
 425:Drivers/lvgl/src/widgets/buttonmatrix/../../core/lv_obj_style_gen.h **** {
 426:Drivers/lvgl/src/widgets/buttonmatrix/../../core/lv_obj_style_gen.h ****     lv_style_value_t v = lv_obj_get_style_prop(obj, part, LV_STYLE_SHADOW_OPA);
 427:Drivers/lvgl/src/widgets/buttonmatrix/../../core/lv_obj_style_gen.h ****     return (lv_opa_t)v.num;
 428:Drivers/lvgl/src/widgets/buttonmatrix/../../core/lv_obj_style_gen.h **** }
 429:Drivers/lvgl/src/widgets/buttonmatrix/../../core/lv_obj_style_gen.h **** 
 430:Drivers/lvgl/src/widgets/buttonmatrix/../../core/lv_obj_style_gen.h **** static inline lv_opa_t lv_obj_get_style_image_opa(const lv_obj_t * obj, lv_part_t part)
 431:Drivers/lvgl/src/widgets/buttonmatrix/../../core/lv_obj_style_gen.h **** {
 432:Drivers/lvgl/src/widgets/buttonmatrix/../../core/lv_obj_style_gen.h ****     lv_style_value_t v = lv_obj_get_style_prop(obj, part, LV_STYLE_IMAGE_OPA);
 433:Drivers/lvgl/src/widgets/buttonmatrix/../../core/lv_obj_style_gen.h ****     return (lv_opa_t)v.num;
 434:Drivers/lvgl/src/widgets/buttonmatrix/../../core/lv_obj_style_gen.h **** }
 435:Drivers/lvgl/src/widgets/buttonmatrix/../../core/lv_obj_style_gen.h **** 
 436:Drivers/lvgl/src/widgets/buttonmatrix/../../core/lv_obj_style_gen.h **** static inline lv_color_t lv_obj_get_style_image_recolor(const lv_obj_t * obj, lv_part_t part)
 437:Drivers/lvgl/src/widgets/buttonmatrix/../../core/lv_obj_style_gen.h **** {
 438:Drivers/lvgl/src/widgets/buttonmatrix/../../core/lv_obj_style_gen.h ****     lv_style_value_t v = lv_obj_get_style_prop(obj, part, LV_STYLE_IMAGE_RECOLOR);
 439:Drivers/lvgl/src/widgets/buttonmatrix/../../core/lv_obj_style_gen.h ****     return v.color;
 440:Drivers/lvgl/src/widgets/buttonmatrix/../../core/lv_obj_style_gen.h **** }
 441:Drivers/lvgl/src/widgets/buttonmatrix/../../core/lv_obj_style_gen.h **** 
 442:Drivers/lvgl/src/widgets/buttonmatrix/../../core/lv_obj_style_gen.h **** static inline lv_color_t lv_obj_get_style_image_recolor_filtered(const lv_obj_t * obj, lv_part_t pa
 443:Drivers/lvgl/src/widgets/buttonmatrix/../../core/lv_obj_style_gen.h **** {
 444:Drivers/lvgl/src/widgets/buttonmatrix/../../core/lv_obj_style_gen.h ****     lv_style_value_t v = lv_obj_style_apply_color_filter(obj, part, lv_obj_get_style_prop(obj, part
 445:Drivers/lvgl/src/widgets/buttonmatrix/../../core/lv_obj_style_gen.h ****     return v.color;
 446:Drivers/lvgl/src/widgets/buttonmatrix/../../core/lv_obj_style_gen.h **** }
 447:Drivers/lvgl/src/widgets/buttonmatrix/../../core/lv_obj_style_gen.h **** 
 448:Drivers/lvgl/src/widgets/buttonmatrix/../../core/lv_obj_style_gen.h **** static inline lv_opa_t lv_obj_get_style_image_recolor_opa(const lv_obj_t * obj, lv_part_t part)
 449:Drivers/lvgl/src/widgets/buttonmatrix/../../core/lv_obj_style_gen.h **** {
 450:Drivers/lvgl/src/widgets/buttonmatrix/../../core/lv_obj_style_gen.h ****     lv_style_value_t v = lv_obj_get_style_prop(obj, part, LV_STYLE_IMAGE_RECOLOR_OPA);
 451:Drivers/lvgl/src/widgets/buttonmatrix/../../core/lv_obj_style_gen.h ****     return (lv_opa_t)v.num;
 452:Drivers/lvgl/src/widgets/buttonmatrix/../../core/lv_obj_style_gen.h **** }
 453:Drivers/lvgl/src/widgets/buttonmatrix/../../core/lv_obj_style_gen.h **** 
 454:Drivers/lvgl/src/widgets/buttonmatrix/../../core/lv_obj_style_gen.h **** static inline int32_t lv_obj_get_style_line_width(const lv_obj_t * obj, lv_part_t part)
 455:Drivers/lvgl/src/widgets/buttonmatrix/../../core/lv_obj_style_gen.h **** {
 456:Drivers/lvgl/src/widgets/buttonmatrix/../../core/lv_obj_style_gen.h ****     lv_style_value_t v = lv_obj_get_style_prop(obj, part, LV_STYLE_LINE_WIDTH);
 457:Drivers/lvgl/src/widgets/buttonmatrix/../../core/lv_obj_style_gen.h ****     return (int32_t)v.num;
 458:Drivers/lvgl/src/widgets/buttonmatrix/../../core/lv_obj_style_gen.h **** }
 459:Drivers/lvgl/src/widgets/buttonmatrix/../../core/lv_obj_style_gen.h **** 
 460:Drivers/lvgl/src/widgets/buttonmatrix/../../core/lv_obj_style_gen.h **** static inline int32_t lv_obj_get_style_line_dash_width(const lv_obj_t * obj, lv_part_t part)
 461:Drivers/lvgl/src/widgets/buttonmatrix/../../core/lv_obj_style_gen.h **** {
 462:Drivers/lvgl/src/widgets/buttonmatrix/../../core/lv_obj_style_gen.h ****     lv_style_value_t v = lv_obj_get_style_prop(obj, part, LV_STYLE_LINE_DASH_WIDTH);
 463:Drivers/lvgl/src/widgets/buttonmatrix/../../core/lv_obj_style_gen.h ****     return (int32_t)v.num;
 464:Drivers/lvgl/src/widgets/buttonmatrix/../../core/lv_obj_style_gen.h **** }
 465:Drivers/lvgl/src/widgets/buttonmatrix/../../core/lv_obj_style_gen.h **** 
 466:Drivers/lvgl/src/widgets/buttonmatrix/../../core/lv_obj_style_gen.h **** static inline int32_t lv_obj_get_style_line_dash_gap(const lv_obj_t * obj, lv_part_t part)
 467:Drivers/lvgl/src/widgets/buttonmatrix/../../core/lv_obj_style_gen.h **** {
 468:Drivers/lvgl/src/widgets/buttonmatrix/../../core/lv_obj_style_gen.h ****     lv_style_value_t v = lv_obj_get_style_prop(obj, part, LV_STYLE_LINE_DASH_GAP);
ARM GAS  /tmp/cc9C7swH.s 			page 43


 469:Drivers/lvgl/src/widgets/buttonmatrix/../../core/lv_obj_style_gen.h ****     return (int32_t)v.num;
 470:Drivers/lvgl/src/widgets/buttonmatrix/../../core/lv_obj_style_gen.h **** }
 471:Drivers/lvgl/src/widgets/buttonmatrix/../../core/lv_obj_style_gen.h **** 
 472:Drivers/lvgl/src/widgets/buttonmatrix/../../core/lv_obj_style_gen.h **** static inline bool lv_obj_get_style_line_rounded(const lv_obj_t * obj, lv_part_t part)
 473:Drivers/lvgl/src/widgets/buttonmatrix/../../core/lv_obj_style_gen.h **** {
 474:Drivers/lvgl/src/widgets/buttonmatrix/../../core/lv_obj_style_gen.h ****     lv_style_value_t v = lv_obj_get_style_prop(obj, part, LV_STYLE_LINE_ROUNDED);
 475:Drivers/lvgl/src/widgets/buttonmatrix/../../core/lv_obj_style_gen.h ****     return (bool)v.num;
 476:Drivers/lvgl/src/widgets/buttonmatrix/../../core/lv_obj_style_gen.h **** }
 477:Drivers/lvgl/src/widgets/buttonmatrix/../../core/lv_obj_style_gen.h **** 
 478:Drivers/lvgl/src/widgets/buttonmatrix/../../core/lv_obj_style_gen.h **** static inline lv_color_t lv_obj_get_style_line_color(const lv_obj_t * obj, lv_part_t part)
 479:Drivers/lvgl/src/widgets/buttonmatrix/../../core/lv_obj_style_gen.h **** {
 480:Drivers/lvgl/src/widgets/buttonmatrix/../../core/lv_obj_style_gen.h ****     lv_style_value_t v = lv_obj_get_style_prop(obj, part, LV_STYLE_LINE_COLOR);
 481:Drivers/lvgl/src/widgets/buttonmatrix/../../core/lv_obj_style_gen.h ****     return v.color;
 482:Drivers/lvgl/src/widgets/buttonmatrix/../../core/lv_obj_style_gen.h **** }
 483:Drivers/lvgl/src/widgets/buttonmatrix/../../core/lv_obj_style_gen.h **** 
 484:Drivers/lvgl/src/widgets/buttonmatrix/../../core/lv_obj_style_gen.h **** static inline lv_color_t lv_obj_get_style_line_color_filtered(const lv_obj_t * obj, lv_part_t part)
 485:Drivers/lvgl/src/widgets/buttonmatrix/../../core/lv_obj_style_gen.h **** {
 486:Drivers/lvgl/src/widgets/buttonmatrix/../../core/lv_obj_style_gen.h ****     lv_style_value_t v = lv_obj_style_apply_color_filter(obj, part, lv_obj_get_style_prop(obj, part
 487:Drivers/lvgl/src/widgets/buttonmatrix/../../core/lv_obj_style_gen.h ****     return v.color;
 488:Drivers/lvgl/src/widgets/buttonmatrix/../../core/lv_obj_style_gen.h **** }
 489:Drivers/lvgl/src/widgets/buttonmatrix/../../core/lv_obj_style_gen.h **** 
 490:Drivers/lvgl/src/widgets/buttonmatrix/../../core/lv_obj_style_gen.h **** static inline lv_opa_t lv_obj_get_style_line_opa(const lv_obj_t * obj, lv_part_t part)
 491:Drivers/lvgl/src/widgets/buttonmatrix/../../core/lv_obj_style_gen.h **** {
 492:Drivers/lvgl/src/widgets/buttonmatrix/../../core/lv_obj_style_gen.h ****     lv_style_value_t v = lv_obj_get_style_prop(obj, part, LV_STYLE_LINE_OPA);
 493:Drivers/lvgl/src/widgets/buttonmatrix/../../core/lv_obj_style_gen.h ****     return (lv_opa_t)v.num;
 494:Drivers/lvgl/src/widgets/buttonmatrix/../../core/lv_obj_style_gen.h **** }
 495:Drivers/lvgl/src/widgets/buttonmatrix/../../core/lv_obj_style_gen.h **** 
 496:Drivers/lvgl/src/widgets/buttonmatrix/../../core/lv_obj_style_gen.h **** static inline int32_t lv_obj_get_style_arc_width(const lv_obj_t * obj, lv_part_t part)
 497:Drivers/lvgl/src/widgets/buttonmatrix/../../core/lv_obj_style_gen.h **** {
 498:Drivers/lvgl/src/widgets/buttonmatrix/../../core/lv_obj_style_gen.h ****     lv_style_value_t v = lv_obj_get_style_prop(obj, part, LV_STYLE_ARC_WIDTH);
 499:Drivers/lvgl/src/widgets/buttonmatrix/../../core/lv_obj_style_gen.h ****     return (int32_t)v.num;
 500:Drivers/lvgl/src/widgets/buttonmatrix/../../core/lv_obj_style_gen.h **** }
 501:Drivers/lvgl/src/widgets/buttonmatrix/../../core/lv_obj_style_gen.h **** 
 502:Drivers/lvgl/src/widgets/buttonmatrix/../../core/lv_obj_style_gen.h **** static inline bool lv_obj_get_style_arc_rounded(const lv_obj_t * obj, lv_part_t part)
 503:Drivers/lvgl/src/widgets/buttonmatrix/../../core/lv_obj_style_gen.h **** {
 504:Drivers/lvgl/src/widgets/buttonmatrix/../../core/lv_obj_style_gen.h ****     lv_style_value_t v = lv_obj_get_style_prop(obj, part, LV_STYLE_ARC_ROUNDED);
 505:Drivers/lvgl/src/widgets/buttonmatrix/../../core/lv_obj_style_gen.h ****     return (bool)v.num;
 506:Drivers/lvgl/src/widgets/buttonmatrix/../../core/lv_obj_style_gen.h **** }
 507:Drivers/lvgl/src/widgets/buttonmatrix/../../core/lv_obj_style_gen.h **** 
 508:Drivers/lvgl/src/widgets/buttonmatrix/../../core/lv_obj_style_gen.h **** static inline lv_color_t lv_obj_get_style_arc_color(const lv_obj_t * obj, lv_part_t part)
 509:Drivers/lvgl/src/widgets/buttonmatrix/../../core/lv_obj_style_gen.h **** {
 510:Drivers/lvgl/src/widgets/buttonmatrix/../../core/lv_obj_style_gen.h ****     lv_style_value_t v = lv_obj_get_style_prop(obj, part, LV_STYLE_ARC_COLOR);
 511:Drivers/lvgl/src/widgets/buttonmatrix/../../core/lv_obj_style_gen.h ****     return v.color;
 512:Drivers/lvgl/src/widgets/buttonmatrix/../../core/lv_obj_style_gen.h **** }
 513:Drivers/lvgl/src/widgets/buttonmatrix/../../core/lv_obj_style_gen.h **** 
 514:Drivers/lvgl/src/widgets/buttonmatrix/../../core/lv_obj_style_gen.h **** static inline lv_color_t lv_obj_get_style_arc_color_filtered(const lv_obj_t * obj, lv_part_t part)
 515:Drivers/lvgl/src/widgets/buttonmatrix/../../core/lv_obj_style_gen.h **** {
 516:Drivers/lvgl/src/widgets/buttonmatrix/../../core/lv_obj_style_gen.h ****     lv_style_value_t v = lv_obj_style_apply_color_filter(obj, part, lv_obj_get_style_prop(obj, part
 517:Drivers/lvgl/src/widgets/buttonmatrix/../../core/lv_obj_style_gen.h ****     return v.color;
 518:Drivers/lvgl/src/widgets/buttonmatrix/../../core/lv_obj_style_gen.h **** }
 519:Drivers/lvgl/src/widgets/buttonmatrix/../../core/lv_obj_style_gen.h **** 
 520:Drivers/lvgl/src/widgets/buttonmatrix/../../core/lv_obj_style_gen.h **** static inline lv_opa_t lv_obj_get_style_arc_opa(const lv_obj_t * obj, lv_part_t part)
 521:Drivers/lvgl/src/widgets/buttonmatrix/../../core/lv_obj_style_gen.h **** {
 522:Drivers/lvgl/src/widgets/buttonmatrix/../../core/lv_obj_style_gen.h ****     lv_style_value_t v = lv_obj_get_style_prop(obj, part, LV_STYLE_ARC_OPA);
 523:Drivers/lvgl/src/widgets/buttonmatrix/../../core/lv_obj_style_gen.h ****     return (lv_opa_t)v.num;
 524:Drivers/lvgl/src/widgets/buttonmatrix/../../core/lv_obj_style_gen.h **** }
 525:Drivers/lvgl/src/widgets/buttonmatrix/../../core/lv_obj_style_gen.h **** 
ARM GAS  /tmp/cc9C7swH.s 			page 44


 526:Drivers/lvgl/src/widgets/buttonmatrix/../../core/lv_obj_style_gen.h **** static inline const void * lv_obj_get_style_arc_image_src(const lv_obj_t * obj, lv_part_t part)
 527:Drivers/lvgl/src/widgets/buttonmatrix/../../core/lv_obj_style_gen.h **** {
 528:Drivers/lvgl/src/widgets/buttonmatrix/../../core/lv_obj_style_gen.h ****     lv_style_value_t v = lv_obj_get_style_prop(obj, part, LV_STYLE_ARC_IMAGE_SRC);
 529:Drivers/lvgl/src/widgets/buttonmatrix/../../core/lv_obj_style_gen.h ****     return (const void *)v.ptr;
 530:Drivers/lvgl/src/widgets/buttonmatrix/../../core/lv_obj_style_gen.h **** }
 531:Drivers/lvgl/src/widgets/buttonmatrix/../../core/lv_obj_style_gen.h **** 
 532:Drivers/lvgl/src/widgets/buttonmatrix/../../core/lv_obj_style_gen.h **** static inline lv_color_t lv_obj_get_style_text_color(const lv_obj_t * obj, lv_part_t part)
 533:Drivers/lvgl/src/widgets/buttonmatrix/../../core/lv_obj_style_gen.h **** {
 534:Drivers/lvgl/src/widgets/buttonmatrix/../../core/lv_obj_style_gen.h ****     lv_style_value_t v = lv_obj_get_style_prop(obj, part, LV_STYLE_TEXT_COLOR);
 535:Drivers/lvgl/src/widgets/buttonmatrix/../../core/lv_obj_style_gen.h ****     return v.color;
 536:Drivers/lvgl/src/widgets/buttonmatrix/../../core/lv_obj_style_gen.h **** }
 537:Drivers/lvgl/src/widgets/buttonmatrix/../../core/lv_obj_style_gen.h **** 
 538:Drivers/lvgl/src/widgets/buttonmatrix/../../core/lv_obj_style_gen.h **** static inline lv_color_t lv_obj_get_style_text_color_filtered(const lv_obj_t * obj, lv_part_t part)
 539:Drivers/lvgl/src/widgets/buttonmatrix/../../core/lv_obj_style_gen.h **** {
 540:Drivers/lvgl/src/widgets/buttonmatrix/../../core/lv_obj_style_gen.h ****     lv_style_value_t v = lv_obj_style_apply_color_filter(obj, part, lv_obj_get_style_prop(obj, part
 541:Drivers/lvgl/src/widgets/buttonmatrix/../../core/lv_obj_style_gen.h ****     return v.color;
 542:Drivers/lvgl/src/widgets/buttonmatrix/../../core/lv_obj_style_gen.h **** }
 543:Drivers/lvgl/src/widgets/buttonmatrix/../../core/lv_obj_style_gen.h **** 
 544:Drivers/lvgl/src/widgets/buttonmatrix/../../core/lv_obj_style_gen.h **** static inline lv_opa_t lv_obj_get_style_text_opa(const lv_obj_t * obj, lv_part_t part)
 545:Drivers/lvgl/src/widgets/buttonmatrix/../../core/lv_obj_style_gen.h **** {
 546:Drivers/lvgl/src/widgets/buttonmatrix/../../core/lv_obj_style_gen.h ****     lv_style_value_t v = lv_obj_get_style_prop(obj, part, LV_STYLE_TEXT_OPA);
 547:Drivers/lvgl/src/widgets/buttonmatrix/../../core/lv_obj_style_gen.h ****     return (lv_opa_t)v.num;
 548:Drivers/lvgl/src/widgets/buttonmatrix/../../core/lv_obj_style_gen.h **** }
 549:Drivers/lvgl/src/widgets/buttonmatrix/../../core/lv_obj_style_gen.h **** 
 550:Drivers/lvgl/src/widgets/buttonmatrix/../../core/lv_obj_style_gen.h **** static inline const lv_font_t * lv_obj_get_style_text_font(const lv_obj_t * obj, lv_part_t part)
 551:Drivers/lvgl/src/widgets/buttonmatrix/../../core/lv_obj_style_gen.h **** {
 552:Drivers/lvgl/src/widgets/buttonmatrix/../../core/lv_obj_style_gen.h ****     lv_style_value_t v = lv_obj_get_style_prop(obj, part, LV_STYLE_TEXT_FONT);
 553:Drivers/lvgl/src/widgets/buttonmatrix/../../core/lv_obj_style_gen.h ****     return (const lv_font_t *)v.ptr;
 554:Drivers/lvgl/src/widgets/buttonmatrix/../../core/lv_obj_style_gen.h **** }
 555:Drivers/lvgl/src/widgets/buttonmatrix/../../core/lv_obj_style_gen.h **** 
 556:Drivers/lvgl/src/widgets/buttonmatrix/../../core/lv_obj_style_gen.h **** static inline int32_t lv_obj_get_style_text_letter_space(const lv_obj_t * obj, lv_part_t part)
 557:Drivers/lvgl/src/widgets/buttonmatrix/../../core/lv_obj_style_gen.h **** {
 558:Drivers/lvgl/src/widgets/buttonmatrix/../../core/lv_obj_style_gen.h ****     lv_style_value_t v = lv_obj_get_style_prop(obj, part, LV_STYLE_TEXT_LETTER_SPACE);
 559:Drivers/lvgl/src/widgets/buttonmatrix/../../core/lv_obj_style_gen.h ****     return (int32_t)v.num;
 560:Drivers/lvgl/src/widgets/buttonmatrix/../../core/lv_obj_style_gen.h **** }
 561:Drivers/lvgl/src/widgets/buttonmatrix/../../core/lv_obj_style_gen.h **** 
 562:Drivers/lvgl/src/widgets/buttonmatrix/../../core/lv_obj_style_gen.h **** static inline int32_t lv_obj_get_style_text_line_space(const lv_obj_t * obj, lv_part_t part)
 563:Drivers/lvgl/src/widgets/buttonmatrix/../../core/lv_obj_style_gen.h **** {
 564:Drivers/lvgl/src/widgets/buttonmatrix/../../core/lv_obj_style_gen.h ****     lv_style_value_t v = lv_obj_get_style_prop(obj, part, LV_STYLE_TEXT_LINE_SPACE);
 565:Drivers/lvgl/src/widgets/buttonmatrix/../../core/lv_obj_style_gen.h ****     return (int32_t)v.num;
 566:Drivers/lvgl/src/widgets/buttonmatrix/../../core/lv_obj_style_gen.h **** }
 567:Drivers/lvgl/src/widgets/buttonmatrix/../../core/lv_obj_style_gen.h **** 
 568:Drivers/lvgl/src/widgets/buttonmatrix/../../core/lv_obj_style_gen.h **** static inline lv_text_decor_t lv_obj_get_style_text_decor(const lv_obj_t * obj, lv_part_t part)
 569:Drivers/lvgl/src/widgets/buttonmatrix/../../core/lv_obj_style_gen.h **** {
 570:Drivers/lvgl/src/widgets/buttonmatrix/../../core/lv_obj_style_gen.h ****     lv_style_value_t v = lv_obj_get_style_prop(obj, part, LV_STYLE_TEXT_DECOR);
 571:Drivers/lvgl/src/widgets/buttonmatrix/../../core/lv_obj_style_gen.h ****     return (lv_text_decor_t)v.num;
 572:Drivers/lvgl/src/widgets/buttonmatrix/../../core/lv_obj_style_gen.h **** }
 573:Drivers/lvgl/src/widgets/buttonmatrix/../../core/lv_obj_style_gen.h **** 
 574:Drivers/lvgl/src/widgets/buttonmatrix/../../core/lv_obj_style_gen.h **** static inline lv_text_align_t lv_obj_get_style_text_align(const lv_obj_t * obj, lv_part_t part)
 575:Drivers/lvgl/src/widgets/buttonmatrix/../../core/lv_obj_style_gen.h **** {
 576:Drivers/lvgl/src/widgets/buttonmatrix/../../core/lv_obj_style_gen.h ****     lv_style_value_t v = lv_obj_get_style_prop(obj, part, LV_STYLE_TEXT_ALIGN);
 577:Drivers/lvgl/src/widgets/buttonmatrix/../../core/lv_obj_style_gen.h ****     return (lv_text_align_t)v.num;
 578:Drivers/lvgl/src/widgets/buttonmatrix/../../core/lv_obj_style_gen.h **** }
 579:Drivers/lvgl/src/widgets/buttonmatrix/../../core/lv_obj_style_gen.h **** 
 580:Drivers/lvgl/src/widgets/buttonmatrix/../../core/lv_obj_style_gen.h **** static inline lv_color_t lv_obj_get_style_text_outline_stroke_color(const lv_obj_t * obj, lv_part_t
 581:Drivers/lvgl/src/widgets/buttonmatrix/../../core/lv_obj_style_gen.h **** {
 582:Drivers/lvgl/src/widgets/buttonmatrix/../../core/lv_obj_style_gen.h ****     lv_style_value_t v = lv_obj_get_style_prop(obj, part, LV_STYLE_TEXT_OUTLINE_STROKE_COLOR);
ARM GAS  /tmp/cc9C7swH.s 			page 45


 583:Drivers/lvgl/src/widgets/buttonmatrix/../../core/lv_obj_style_gen.h ****     return v.color;
 584:Drivers/lvgl/src/widgets/buttonmatrix/../../core/lv_obj_style_gen.h **** }
 585:Drivers/lvgl/src/widgets/buttonmatrix/../../core/lv_obj_style_gen.h **** 
 586:Drivers/lvgl/src/widgets/buttonmatrix/../../core/lv_obj_style_gen.h **** static inline lv_color_t lv_obj_get_style_text_outline_stroke_color_filtered(const lv_obj_t * obj, 
 587:Drivers/lvgl/src/widgets/buttonmatrix/../../core/lv_obj_style_gen.h **** {
 588:Drivers/lvgl/src/widgets/buttonmatrix/../../core/lv_obj_style_gen.h ****     lv_style_value_t v = lv_obj_style_apply_color_filter(obj, part, lv_obj_get_style_prop(obj, part
 589:Drivers/lvgl/src/widgets/buttonmatrix/../../core/lv_obj_style_gen.h ****     return v.color;
 590:Drivers/lvgl/src/widgets/buttonmatrix/../../core/lv_obj_style_gen.h **** }
 591:Drivers/lvgl/src/widgets/buttonmatrix/../../core/lv_obj_style_gen.h **** 
 592:Drivers/lvgl/src/widgets/buttonmatrix/../../core/lv_obj_style_gen.h **** static inline int32_t lv_obj_get_style_text_outline_stroke_width(const lv_obj_t * obj, lv_part_t pa
 593:Drivers/lvgl/src/widgets/buttonmatrix/../../core/lv_obj_style_gen.h **** {
 594:Drivers/lvgl/src/widgets/buttonmatrix/../../core/lv_obj_style_gen.h ****     lv_style_value_t v = lv_obj_get_style_prop(obj, part, LV_STYLE_TEXT_OUTLINE_STROKE_WIDTH);
 595:Drivers/lvgl/src/widgets/buttonmatrix/../../core/lv_obj_style_gen.h ****     return (int32_t)v.num;
 596:Drivers/lvgl/src/widgets/buttonmatrix/../../core/lv_obj_style_gen.h **** }
 597:Drivers/lvgl/src/widgets/buttonmatrix/../../core/lv_obj_style_gen.h **** 
 598:Drivers/lvgl/src/widgets/buttonmatrix/../../core/lv_obj_style_gen.h **** static inline lv_opa_t lv_obj_get_style_text_outline_stroke_opa(const lv_obj_t * obj, lv_part_t par
 599:Drivers/lvgl/src/widgets/buttonmatrix/../../core/lv_obj_style_gen.h **** {
 600:Drivers/lvgl/src/widgets/buttonmatrix/../../core/lv_obj_style_gen.h ****     lv_style_value_t v = lv_obj_get_style_prop(obj, part, LV_STYLE_TEXT_OUTLINE_STROKE_OPA);
 601:Drivers/lvgl/src/widgets/buttonmatrix/../../core/lv_obj_style_gen.h ****     return (lv_opa_t)v.num;
 602:Drivers/lvgl/src/widgets/buttonmatrix/../../core/lv_obj_style_gen.h **** }
 603:Drivers/lvgl/src/widgets/buttonmatrix/../../core/lv_obj_style_gen.h **** 
 604:Drivers/lvgl/src/widgets/buttonmatrix/../../core/lv_obj_style_gen.h **** static inline int32_t lv_obj_get_style_radius(const lv_obj_t * obj, lv_part_t part)
 605:Drivers/lvgl/src/widgets/buttonmatrix/../../core/lv_obj_style_gen.h **** {
 606:Drivers/lvgl/src/widgets/buttonmatrix/../../core/lv_obj_style_gen.h ****     lv_style_value_t v = lv_obj_get_style_prop(obj, part, LV_STYLE_RADIUS);
 607:Drivers/lvgl/src/widgets/buttonmatrix/../../core/lv_obj_style_gen.h ****     return (int32_t)v.num;
 608:Drivers/lvgl/src/widgets/buttonmatrix/../../core/lv_obj_style_gen.h **** }
 609:Drivers/lvgl/src/widgets/buttonmatrix/../../core/lv_obj_style_gen.h **** 
 610:Drivers/lvgl/src/widgets/buttonmatrix/../../core/lv_obj_style_gen.h **** static inline int32_t lv_obj_get_style_radial_offset(const lv_obj_t * obj, lv_part_t part)
 611:Drivers/lvgl/src/widgets/buttonmatrix/../../core/lv_obj_style_gen.h **** {
 612:Drivers/lvgl/src/widgets/buttonmatrix/../../core/lv_obj_style_gen.h ****     lv_style_value_t v = lv_obj_get_style_prop(obj, part, LV_STYLE_RADIAL_OFFSET);
 613:Drivers/lvgl/src/widgets/buttonmatrix/../../core/lv_obj_style_gen.h ****     return (int32_t)v.num;
 614:Drivers/lvgl/src/widgets/buttonmatrix/../../core/lv_obj_style_gen.h **** }
 615:Drivers/lvgl/src/widgets/buttonmatrix/../../core/lv_obj_style_gen.h **** 
 616:Drivers/lvgl/src/widgets/buttonmatrix/../../core/lv_obj_style_gen.h **** static inline bool lv_obj_get_style_clip_corner(const lv_obj_t * obj, lv_part_t part)
 617:Drivers/lvgl/src/widgets/buttonmatrix/../../core/lv_obj_style_gen.h **** {
 618:Drivers/lvgl/src/widgets/buttonmatrix/../../core/lv_obj_style_gen.h ****     lv_style_value_t v = lv_obj_get_style_prop(obj, part, LV_STYLE_CLIP_CORNER);
 619:Drivers/lvgl/src/widgets/buttonmatrix/../../core/lv_obj_style_gen.h ****     return (bool)v.num;
 620:Drivers/lvgl/src/widgets/buttonmatrix/../../core/lv_obj_style_gen.h **** }
 621:Drivers/lvgl/src/widgets/buttonmatrix/../../core/lv_obj_style_gen.h **** 
 622:Drivers/lvgl/src/widgets/buttonmatrix/../../core/lv_obj_style_gen.h **** static inline lv_opa_t lv_obj_get_style_opa(const lv_obj_t * obj, lv_part_t part)
 623:Drivers/lvgl/src/widgets/buttonmatrix/../../core/lv_obj_style_gen.h **** {
 624:Drivers/lvgl/src/widgets/buttonmatrix/../../core/lv_obj_style_gen.h ****     lv_style_value_t v = lv_obj_get_style_prop(obj, part, LV_STYLE_OPA);
 625:Drivers/lvgl/src/widgets/buttonmatrix/../../core/lv_obj_style_gen.h ****     return (lv_opa_t)v.num;
 626:Drivers/lvgl/src/widgets/buttonmatrix/../../core/lv_obj_style_gen.h **** }
 627:Drivers/lvgl/src/widgets/buttonmatrix/../../core/lv_obj_style_gen.h **** 
 628:Drivers/lvgl/src/widgets/buttonmatrix/../../core/lv_obj_style_gen.h **** static inline lv_opa_t lv_obj_get_style_opa_layered(const lv_obj_t * obj, lv_part_t part)
 629:Drivers/lvgl/src/widgets/buttonmatrix/../../core/lv_obj_style_gen.h **** {
 630:Drivers/lvgl/src/widgets/buttonmatrix/../../core/lv_obj_style_gen.h ****     lv_style_value_t v = lv_obj_get_style_prop(obj, part, LV_STYLE_OPA_LAYERED);
 631:Drivers/lvgl/src/widgets/buttonmatrix/../../core/lv_obj_style_gen.h ****     return (lv_opa_t)v.num;
 632:Drivers/lvgl/src/widgets/buttonmatrix/../../core/lv_obj_style_gen.h **** }
 633:Drivers/lvgl/src/widgets/buttonmatrix/../../core/lv_obj_style_gen.h **** 
 634:Drivers/lvgl/src/widgets/buttonmatrix/../../core/lv_obj_style_gen.h **** static inline const lv_color_filter_dsc_t * lv_obj_get_style_color_filter_dsc(const lv_obj_t * obj,
 635:Drivers/lvgl/src/widgets/buttonmatrix/../../core/lv_obj_style_gen.h **** {
 636:Drivers/lvgl/src/widgets/buttonmatrix/../../core/lv_obj_style_gen.h ****     lv_style_value_t v = lv_obj_get_style_prop(obj, part, LV_STYLE_COLOR_FILTER_DSC);
 637:Drivers/lvgl/src/widgets/buttonmatrix/../../core/lv_obj_style_gen.h ****     return (const lv_color_filter_dsc_t *)v.ptr;
 638:Drivers/lvgl/src/widgets/buttonmatrix/../../core/lv_obj_style_gen.h **** }
 639:Drivers/lvgl/src/widgets/buttonmatrix/../../core/lv_obj_style_gen.h **** 
ARM GAS  /tmp/cc9C7swH.s 			page 46


 640:Drivers/lvgl/src/widgets/buttonmatrix/../../core/lv_obj_style_gen.h **** static inline lv_opa_t lv_obj_get_style_color_filter_opa(const lv_obj_t * obj, lv_part_t part)
 641:Drivers/lvgl/src/widgets/buttonmatrix/../../core/lv_obj_style_gen.h **** {
 642:Drivers/lvgl/src/widgets/buttonmatrix/../../core/lv_obj_style_gen.h ****     lv_style_value_t v = lv_obj_get_style_prop(obj, part, LV_STYLE_COLOR_FILTER_OPA);
 643:Drivers/lvgl/src/widgets/buttonmatrix/../../core/lv_obj_style_gen.h ****     return (lv_opa_t)v.num;
 644:Drivers/lvgl/src/widgets/buttonmatrix/../../core/lv_obj_style_gen.h **** }
 645:Drivers/lvgl/src/widgets/buttonmatrix/../../core/lv_obj_style_gen.h **** 
 646:Drivers/lvgl/src/widgets/buttonmatrix/../../core/lv_obj_style_gen.h **** static inline lv_color_t lv_obj_get_style_recolor(const lv_obj_t * obj, lv_part_t part)
 647:Drivers/lvgl/src/widgets/buttonmatrix/../../core/lv_obj_style_gen.h **** {
 648:Drivers/lvgl/src/widgets/buttonmatrix/../../core/lv_obj_style_gen.h ****     lv_style_value_t v = lv_obj_get_style_prop(obj, part, LV_STYLE_RECOLOR);
 649:Drivers/lvgl/src/widgets/buttonmatrix/../../core/lv_obj_style_gen.h ****     return v.color;
 650:Drivers/lvgl/src/widgets/buttonmatrix/../../core/lv_obj_style_gen.h **** }
 651:Drivers/lvgl/src/widgets/buttonmatrix/../../core/lv_obj_style_gen.h **** 
 652:Drivers/lvgl/src/widgets/buttonmatrix/../../core/lv_obj_style_gen.h **** static inline lv_opa_t lv_obj_get_style_recolor_opa(const lv_obj_t * obj, lv_part_t part)
 653:Drivers/lvgl/src/widgets/buttonmatrix/../../core/lv_obj_style_gen.h **** {
 654:Drivers/lvgl/src/widgets/buttonmatrix/../../core/lv_obj_style_gen.h ****     lv_style_value_t v = lv_obj_get_style_prop(obj, part, LV_STYLE_RECOLOR_OPA);
 655:Drivers/lvgl/src/widgets/buttonmatrix/../../core/lv_obj_style_gen.h ****     return (lv_opa_t)v.num;
 656:Drivers/lvgl/src/widgets/buttonmatrix/../../core/lv_obj_style_gen.h **** }
 657:Drivers/lvgl/src/widgets/buttonmatrix/../../core/lv_obj_style_gen.h **** 
 658:Drivers/lvgl/src/widgets/buttonmatrix/../../core/lv_obj_style_gen.h **** static inline const lv_anim_t * lv_obj_get_style_anim(const lv_obj_t * obj, lv_part_t part)
 659:Drivers/lvgl/src/widgets/buttonmatrix/../../core/lv_obj_style_gen.h **** {
 660:Drivers/lvgl/src/widgets/buttonmatrix/../../core/lv_obj_style_gen.h ****     lv_style_value_t v = lv_obj_get_style_prop(obj, part, LV_STYLE_ANIM);
 661:Drivers/lvgl/src/widgets/buttonmatrix/../../core/lv_obj_style_gen.h ****     return (const lv_anim_t *)v.ptr;
 662:Drivers/lvgl/src/widgets/buttonmatrix/../../core/lv_obj_style_gen.h **** }
 663:Drivers/lvgl/src/widgets/buttonmatrix/../../core/lv_obj_style_gen.h **** 
 664:Drivers/lvgl/src/widgets/buttonmatrix/../../core/lv_obj_style_gen.h **** static inline uint32_t lv_obj_get_style_anim_duration(const lv_obj_t * obj, lv_part_t part)
 665:Drivers/lvgl/src/widgets/buttonmatrix/../../core/lv_obj_style_gen.h **** {
 666:Drivers/lvgl/src/widgets/buttonmatrix/../../core/lv_obj_style_gen.h ****     lv_style_value_t v = lv_obj_get_style_prop(obj, part, LV_STYLE_ANIM_DURATION);
 667:Drivers/lvgl/src/widgets/buttonmatrix/../../core/lv_obj_style_gen.h ****     return (uint32_t)v.num;
 668:Drivers/lvgl/src/widgets/buttonmatrix/../../core/lv_obj_style_gen.h **** }
 669:Drivers/lvgl/src/widgets/buttonmatrix/../../core/lv_obj_style_gen.h **** 
 670:Drivers/lvgl/src/widgets/buttonmatrix/../../core/lv_obj_style_gen.h **** static inline const lv_style_transition_dsc_t * lv_obj_get_style_transition(const lv_obj_t * obj, l
 671:Drivers/lvgl/src/widgets/buttonmatrix/../../core/lv_obj_style_gen.h **** {
 672:Drivers/lvgl/src/widgets/buttonmatrix/../../core/lv_obj_style_gen.h ****     lv_style_value_t v = lv_obj_get_style_prop(obj, part, LV_STYLE_TRANSITION);
 673:Drivers/lvgl/src/widgets/buttonmatrix/../../core/lv_obj_style_gen.h ****     return (const lv_style_transition_dsc_t *)v.ptr;
 674:Drivers/lvgl/src/widgets/buttonmatrix/../../core/lv_obj_style_gen.h **** }
 675:Drivers/lvgl/src/widgets/buttonmatrix/../../core/lv_obj_style_gen.h **** 
 676:Drivers/lvgl/src/widgets/buttonmatrix/../../core/lv_obj_style_gen.h **** static inline lv_blend_mode_t lv_obj_get_style_blend_mode(const lv_obj_t * obj, lv_part_t part)
 677:Drivers/lvgl/src/widgets/buttonmatrix/../../core/lv_obj_style_gen.h **** {
 678:Drivers/lvgl/src/widgets/buttonmatrix/../../core/lv_obj_style_gen.h ****     lv_style_value_t v = lv_obj_get_style_prop(obj, part, LV_STYLE_BLEND_MODE);
 679:Drivers/lvgl/src/widgets/buttonmatrix/../../core/lv_obj_style_gen.h ****     return (lv_blend_mode_t)v.num;
 680:Drivers/lvgl/src/widgets/buttonmatrix/../../core/lv_obj_style_gen.h **** }
 681:Drivers/lvgl/src/widgets/buttonmatrix/../../core/lv_obj_style_gen.h **** 
 682:Drivers/lvgl/src/widgets/buttonmatrix/../../core/lv_obj_style_gen.h **** static inline uint16_t lv_obj_get_style_layout(const lv_obj_t * obj, lv_part_t part)
 683:Drivers/lvgl/src/widgets/buttonmatrix/../../core/lv_obj_style_gen.h **** {
 684:Drivers/lvgl/src/widgets/buttonmatrix/../../core/lv_obj_style_gen.h ****     lv_style_value_t v = lv_obj_get_style_prop(obj, part, LV_STYLE_LAYOUT);
 685:Drivers/lvgl/src/widgets/buttonmatrix/../../core/lv_obj_style_gen.h ****     return (uint16_t)v.num;
 686:Drivers/lvgl/src/widgets/buttonmatrix/../../core/lv_obj_style_gen.h **** }
 687:Drivers/lvgl/src/widgets/buttonmatrix/../../core/lv_obj_style_gen.h **** 
 688:Drivers/lvgl/src/widgets/buttonmatrix/../../core/lv_obj_style_gen.h **** static inline lv_base_dir_t lv_obj_get_style_base_dir(const lv_obj_t * obj, lv_part_t part)
 630              		.loc 3 688 29 view .LVU139
 631              	.LBB90:
 689:Drivers/lvgl/src/widgets/buttonmatrix/../../core/lv_obj_style_gen.h **** {
 690:Drivers/lvgl/src/widgets/buttonmatrix/../../core/lv_obj_style_gen.h ****     lv_style_value_t v = lv_obj_get_style_prop(obj, part, LV_STYLE_BASE_DIR);
 632              		.loc 3 690 5 view .LVU140
 633              		.loc 3 690 26 is_stmt 0 view .LVU141
 634 0008 2722     		movs	r2, #39
 635 000a 0021     		movs	r1, #0
ARM GAS  /tmp/cc9C7swH.s 			page 47


 636 000c FFF7FEFF 		bl	lv_obj_get_style_prop
 637              	.LVL55:
 638              		.loc 3 690 26 view .LVU142
 639 0010 0F90     		str	r0, [sp, #60]
 691:Drivers/lvgl/src/widgets/buttonmatrix/../../core/lv_obj_style_gen.h ****     return (lv_base_dir_t)v.num;
 640              		.loc 3 691 5 is_stmt 1 view .LVU143
 641              		.loc 3 691 12 is_stmt 0 view .LVU144
 642 0012 C3B2     		uxtb	r3, r0
 643 0014 0693     		str	r3, [sp, #24]
 644              	.LVL56:
 645              		.loc 3 691 12 view .LVU145
 646              	.LBE90:
 647              	.LBE89:
 998:Drivers/lvgl/src/widgets/buttonmatrix/lv_buttonmatrix.c **** 
 999:Drivers/lvgl/src/widgets/buttonmatrix/lv_buttonmatrix.c ****     /*Set size and positions of the buttons*/
1000:Drivers/lvgl/src/widgets/buttonmatrix/lv_buttonmatrix.c ****     int32_t sleft = lv_obj_get_style_space_left(obj, LV_PART_MAIN);
 648              		.loc 1 1000 5 is_stmt 1 view .LVU146
 649              		.loc 1 1000 21 is_stmt 0 view .LVU147
 650 0016 0021     		movs	r1, #0
 651 0018 3846     		mov	r0, r7
 652 001a FFF7FEFF 		bl	lv_obj_get_style_space_left
 653              	.LVL57:
 654 001e 0C90     		str	r0, [sp, #48]
 655              	.LVL58:
1001:Drivers/lvgl/src/widgets/buttonmatrix/lv_buttonmatrix.c ****     int32_t stop = lv_obj_get_style_space_top(obj, LV_PART_MAIN);
 656              		.loc 1 1001 5 is_stmt 1 view .LVU148
 657              		.loc 1 1001 20 is_stmt 0 view .LVU149
 658 0020 0021     		movs	r1, #0
 659 0022 3846     		mov	r0, r7
 660              	.LVL59:
 661              		.loc 1 1001 20 view .LVU150
 662 0024 FFF7FEFF 		bl	lv_obj_get_style_space_top
 663              	.LVL60:
 664 0028 0990     		str	r0, [sp, #36]
 665              	.LVL61:
1002:Drivers/lvgl/src/widgets/buttonmatrix/lv_buttonmatrix.c ****     int32_t prow = lv_obj_get_style_pad_row(obj, LV_PART_MAIN);
 666              		.loc 1 1002 5 is_stmt 1 view .LVU151
 667              	.LBB91:
 668              	.LBI91:
 178:Drivers/lvgl/src/widgets/buttonmatrix/../../core/lv_obj_style_gen.h **** {
 669              		.loc 3 178 23 view .LVU152
 670              	.LBB92:
 180:Drivers/lvgl/src/widgets/buttonmatrix/../../core/lv_obj_style_gen.h ****     return (int32_t)v.num;
 671              		.loc 3 180 5 view .LVU153
 180:Drivers/lvgl/src/widgets/buttonmatrix/../../core/lv_obj_style_gen.h ****     return (int32_t)v.num;
 672              		.loc 3 180 26 is_stmt 0 view .LVU154
 673 002a 1422     		movs	r2, #20
 674 002c 0021     		movs	r1, #0
 675 002e 3846     		mov	r0, r7
 676              	.LVL62:
 180:Drivers/lvgl/src/widgets/buttonmatrix/../../core/lv_obj_style_gen.h ****     return (int32_t)v.num;
 677              		.loc 3 180 26 view .LVU155
 678 0030 FFF7FEFF 		bl	lv_obj_get_style_prop
 679              	.LVL63:
 680 0034 0446     		mov	r4, r0
 681 0036 0D90     		str	r0, [sp, #52]
 682 0038 0F90     		str	r0, [sp, #60]
ARM GAS  /tmp/cc9C7swH.s 			page 48


 181:Drivers/lvgl/src/widgets/buttonmatrix/../../core/lv_obj_style_gen.h **** }
 683              		.loc 3 181 5 is_stmt 1 view .LVU156
 684              	.LVL64:
 181:Drivers/lvgl/src/widgets/buttonmatrix/../../core/lv_obj_style_gen.h **** }
 685              		.loc 3 181 5 is_stmt 0 view .LVU157
 686              	.LBE92:
 687              	.LBE91:
1003:Drivers/lvgl/src/widgets/buttonmatrix/lv_buttonmatrix.c ****     int32_t pcol = lv_obj_get_style_pad_column(obj, LV_PART_MAIN);
 688              		.loc 1 1003 5 is_stmt 1 view .LVU158
 689              	.LBB93:
 690              	.LBI93:
 184:Drivers/lvgl/src/widgets/buttonmatrix/../../core/lv_obj_style_gen.h **** {
 691              		.loc 3 184 23 view .LVU159
 692              	.LBB94:
 186:Drivers/lvgl/src/widgets/buttonmatrix/../../core/lv_obj_style_gen.h ****     return (int32_t)v.num;
 693              		.loc 3 186 5 view .LVU160
 186:Drivers/lvgl/src/widgets/buttonmatrix/../../core/lv_obj_style_gen.h ****     return (int32_t)v.num;
 694              		.loc 3 186 26 is_stmt 0 view .LVU161
 695 003a 1522     		movs	r2, #21
 696 003c 0021     		movs	r1, #0
 697 003e 3846     		mov	r0, r7
 698              	.LVL65:
 186:Drivers/lvgl/src/widgets/buttonmatrix/../../core/lv_obj_style_gen.h ****     return (int32_t)v.num;
 699              		.loc 3 186 26 view .LVU162
 700 0040 FFF7FEFF 		bl	lv_obj_get_style_prop
 701              	.LVL66:
 702 0044 0390     		str	r0, [sp, #12]
 703 0046 0F90     		str	r0, [sp, #60]
 187:Drivers/lvgl/src/widgets/buttonmatrix/../../core/lv_obj_style_gen.h **** }
 704              		.loc 3 187 5 is_stmt 1 view .LVU163
 705              	.LVL67:
 187:Drivers/lvgl/src/widgets/buttonmatrix/../../core/lv_obj_style_gen.h **** }
 706              		.loc 3 187 5 is_stmt 0 view .LVU164
 707              	.LBE94:
 708              	.LBE93:
1004:Drivers/lvgl/src/widgets/buttonmatrix/lv_buttonmatrix.c **** 
1005:Drivers/lvgl/src/widgets/buttonmatrix/lv_buttonmatrix.c ****     int32_t max_w            = lv_obj_get_content_width(obj);
 709              		.loc 1 1005 5 is_stmt 1 view .LVU165
 710              		.loc 1 1005 32 is_stmt 0 view .LVU166
 711 0048 3846     		mov	r0, r7
 712              	.LVL68:
 713              		.loc 1 1005 32 view .LVU167
 714 004a FFF7FEFF 		bl	lv_obj_get_content_width
 715              	.LVL69:
 716              		.loc 1 1005 32 view .LVU168
 717 004e 0790     		str	r0, [sp, #28]
 718              	.LVL70:
1006:Drivers/lvgl/src/widgets/buttonmatrix/lv_buttonmatrix.c ****     int32_t max_h            = lv_obj_get_content_height(obj);
 719              		.loc 1 1006 5 is_stmt 1 view .LVU169
 720              		.loc 1 1006 32 is_stmt 0 view .LVU170
 721 0050 3846     		mov	r0, r7
 722              	.LVL71:
 723              		.loc 1 1006 32 view .LVU171
 724 0052 FFF7FEFF 		bl	lv_obj_get_content_height
 725              	.LVL72:
1007:Drivers/lvgl/src/widgets/buttonmatrix/lv_buttonmatrix.c **** 
1008:Drivers/lvgl/src/widgets/buttonmatrix/lv_buttonmatrix.c ****     /*Calculate the position of each row*/
ARM GAS  /tmp/cc9C7swH.s 			page 49


1009:Drivers/lvgl/src/widgets/buttonmatrix/lv_buttonmatrix.c ****     int32_t max_h_no_gap = max_h - (prow * (btnm->row_cnt - 1));
 726              		.loc 1 1009 5 is_stmt 1 view .LVU172
 727              		.loc 1 1009 49 is_stmt 0 view .LVU173
 728 0056 FB6B     		ldr	r3, [r7, #60]
 729              		.loc 1 1009 59 view .LVU174
 730 0058 013B     		subs	r3, r3, #1
 731              		.loc 1 1009 34 view .LVU175
 732 005a 04FB1303 		mls	r3, r4, r3, r0
 733 005e 0893     		str	r3, [sp, #32]
 734              	.LVL73:
1010:Drivers/lvgl/src/widgets/buttonmatrix/lv_buttonmatrix.c **** 
1011:Drivers/lvgl/src/widgets/buttonmatrix/lv_buttonmatrix.c ****     /*Count the units and the buttons in a line
1012:Drivers/lvgl/src/widgets/buttonmatrix/lv_buttonmatrix.c ****      *(A button can be 1,2,3... unit wide)*/
1013:Drivers/lvgl/src/widgets/buttonmatrix/lv_buttonmatrix.c ****     uint32_t txt_tot_i = 0; /*Act. index in the str map*/
 735              		.loc 1 1013 5 is_stmt 1 view .LVU176
1014:Drivers/lvgl/src/widgets/buttonmatrix/lv_buttonmatrix.c ****     uint32_t btn_tot_i = 0; /*Act. index of button areas*/
 736              		.loc 1 1014 5 view .LVU177
1015:Drivers/lvgl/src/widgets/buttonmatrix/lv_buttonmatrix.c ****     const char * const * map_row = btnm->map_p;
 737              		.loc 1 1015 5 view .LVU178
 738              		.loc 1 1015 26 is_stmt 0 view .LVU179
 739 0060 FE6A     		ldr	r6, [r7, #44]
 740              	.LVL74:
1016:Drivers/lvgl/src/widgets/buttonmatrix/lv_buttonmatrix.c **** 
1017:Drivers/lvgl/src/widgets/buttonmatrix/lv_buttonmatrix.c ****     /*Count the units and the buttons in a line*/
1018:Drivers/lvgl/src/widgets/buttonmatrix/lv_buttonmatrix.c ****     uint32_t row;
 741              		.loc 1 1018 5 is_stmt 1 view .LVU180
1019:Drivers/lvgl/src/widgets/buttonmatrix/lv_buttonmatrix.c ****     for(row = 0; row < btnm->row_cnt; row++) {
 742              		.loc 1 1019 5 view .LVU181
 743              		.loc 1 1019 13 is_stmt 0 view .LVU182
 744 0062 0022     		movs	r2, #0
1014:Drivers/lvgl/src/widgets/buttonmatrix/lv_buttonmatrix.c ****     const char * const * map_row = btnm->map_p;
 745              		.loc 1 1014 14 view .LVU183
 746 0064 9346     		mov	fp, r2
 747              		.loc 1 1019 5 view .LVU184
 748 0066 1AE0     		b	.L33
 749              	.LVL75:
 750              	.L35:
 751              	.LBB95:
1020:Drivers/lvgl/src/widgets/buttonmatrix/lv_buttonmatrix.c ****         uint32_t unit_cnt = 0;           /*Number of units in a row*/
1021:Drivers/lvgl/src/widgets/buttonmatrix/lv_buttonmatrix.c ****         uint32_t btn_cnt = 0;            /*Number of buttons in a row*/
1022:Drivers/lvgl/src/widgets/buttonmatrix/lv_buttonmatrix.c ****         /*Count the buttons and units in this row*/
1023:Drivers/lvgl/src/widgets/buttonmatrix/lv_buttonmatrix.c ****         while(map_row[btn_cnt] && lv_strcmp(map_row[btn_cnt], "\n") != 0 && map_row[btn_cnt][0] != 
1024:Drivers/lvgl/src/widgets/buttonmatrix/lv_buttonmatrix.c ****             unit_cnt += get_button_width(btnm->ctrl_bits[btn_tot_i + btn_cnt]);
