ARM GAS  /tmp/cc1kxWTq.s 			page 1


   1              		.cpu cortex-m7
   2              		.arch armv7e-m
   3              		.fpu fpv5-sp-d16
   4              		.eabi_attribute 27, 1
   5              		.eabi_attribute 28, 1
   6              		.eabi_attribute 20, 1
   7              		.eabi_attribute 21, 1
   8              		.eabi_attribute 23, 3
   9              		.eabi_attribute 24, 1
  10              		.eabi_attribute 25, 1
  11              		.eabi_attribute 26, 1
  12              		.eabi_attribute 30, 1
  13              		.eabi_attribute 34, 1
  14              		.eabi_attribute 18, 4
  15              		.file	"lv_bar.c"
  16              		.text
  17              	.Ltext0:
  18              		.cfi_sections	.debug_frame
  19              		.file 1 "Drivers/lvgl/src/widgets/bar/lv_bar.c"
  20              		.section	.text.lv_bar_init_anim,"ax",%progbits
  21              		.align	1
  22              		.syntax unified
  23              		.thumb
  24              		.thumb_func
  26              	lv_bar_init_anim:
  27              	.LVL0:
  28              	.LFB191:
   1:Drivers/lvgl/src/widgets/bar/lv_bar.c **** /**
   2:Drivers/lvgl/src/widgets/bar/lv_bar.c ****  * @file lv_bar.c
   3:Drivers/lvgl/src/widgets/bar/lv_bar.c ****  *
   4:Drivers/lvgl/src/widgets/bar/lv_bar.c ****  */
   5:Drivers/lvgl/src/widgets/bar/lv_bar.c **** 
   6:Drivers/lvgl/src/widgets/bar/lv_bar.c **** /*********************
   7:Drivers/lvgl/src/widgets/bar/lv_bar.c ****  *      INCLUDES
   8:Drivers/lvgl/src/widgets/bar/lv_bar.c ****  *********************/
   9:Drivers/lvgl/src/widgets/bar/lv_bar.c **** #include "lv_bar_private.h"
  10:Drivers/lvgl/src/widgets/bar/lv_bar.c **** #include "../../misc/lv_area_private.h"
  11:Drivers/lvgl/src/widgets/bar/lv_bar.c **** #include "../../draw/lv_draw_mask_private.h"
  12:Drivers/lvgl/src/widgets/bar/lv_bar.c **** #include "../../core/lv_obj_private.h"
  13:Drivers/lvgl/src/widgets/bar/lv_bar.c **** #include "../../core/lv_obj_class_private.h"
  14:Drivers/lvgl/src/widgets/bar/lv_bar.c **** #if LV_USE_BAR != 0
  15:Drivers/lvgl/src/widgets/bar/lv_bar.c **** 
  16:Drivers/lvgl/src/widgets/bar/lv_bar.c **** #include "../../draw/lv_draw.h"
  17:Drivers/lvgl/src/widgets/bar/lv_bar.c **** #include "../../misc/lv_assert.h"
  18:Drivers/lvgl/src/widgets/bar/lv_bar.c **** #include "../../misc/lv_anim_private.h"
  19:Drivers/lvgl/src/widgets/bar/lv_bar.c **** #include "../../misc/lv_math.h"
  20:Drivers/lvgl/src/widgets/bar/lv_bar.c **** 
  21:Drivers/lvgl/src/widgets/bar/lv_bar.c **** /*********************
  22:Drivers/lvgl/src/widgets/bar/lv_bar.c ****  *      DEFINES
  23:Drivers/lvgl/src/widgets/bar/lv_bar.c ****  *********************/
  24:Drivers/lvgl/src/widgets/bar/lv_bar.c **** #define MY_CLASS (&lv_bar_class)
  25:Drivers/lvgl/src/widgets/bar/lv_bar.c **** 
  26:Drivers/lvgl/src/widgets/bar/lv_bar.c **** /** hor. pad and ver. pad cannot make the indicator smaller than this [px]*/
  27:Drivers/lvgl/src/widgets/bar/lv_bar.c **** #define LV_BAR_SIZE_MIN  4
  28:Drivers/lvgl/src/widgets/bar/lv_bar.c **** 
  29:Drivers/lvgl/src/widgets/bar/lv_bar.c **** #define LV_BAR_IS_ANIMATING(anim_struct) (((anim_struct).anim_state) != LV_BAR_ANIM_STATE_INV)
  30:Drivers/lvgl/src/widgets/bar/lv_bar.c **** #define LV_BAR_GET_ANIM_VALUE(orig_value, anim_struct) (LV_BAR_IS_ANIMATING(anim_struct) ? ((anim_s
ARM GAS  /tmp/cc1kxWTq.s 			page 2


  31:Drivers/lvgl/src/widgets/bar/lv_bar.c **** 
  32:Drivers/lvgl/src/widgets/bar/lv_bar.c **** /** Bar animation start value. (Not the real value of the Bar just indicates process animation)*/
  33:Drivers/lvgl/src/widgets/bar/lv_bar.c **** #define LV_BAR_ANIM_STATE_START 0
  34:Drivers/lvgl/src/widgets/bar/lv_bar.c **** 
  35:Drivers/lvgl/src/widgets/bar/lv_bar.c **** /** Bar animation end value.  (Not the real value of the Bar just indicates process animation)*/
  36:Drivers/lvgl/src/widgets/bar/lv_bar.c **** #define LV_BAR_ANIM_STATE_END   256
  37:Drivers/lvgl/src/widgets/bar/lv_bar.c **** 
  38:Drivers/lvgl/src/widgets/bar/lv_bar.c **** /** Mark no animation is in progress*/
  39:Drivers/lvgl/src/widgets/bar/lv_bar.c **** #define LV_BAR_ANIM_STATE_INV   -1
  40:Drivers/lvgl/src/widgets/bar/lv_bar.c **** 
  41:Drivers/lvgl/src/widgets/bar/lv_bar.c **** /** log2(LV_BAR_ANIM_STATE_END) used to normalize data*/
  42:Drivers/lvgl/src/widgets/bar/lv_bar.c **** #define LV_BAR_ANIM_STATE_NORM  8
  43:Drivers/lvgl/src/widgets/bar/lv_bar.c **** 
  44:Drivers/lvgl/src/widgets/bar/lv_bar.c **** /**********************
  45:Drivers/lvgl/src/widgets/bar/lv_bar.c ****  *      TYPEDEFS
  46:Drivers/lvgl/src/widgets/bar/lv_bar.c ****  **********************/
  47:Drivers/lvgl/src/widgets/bar/lv_bar.c **** 
  48:Drivers/lvgl/src/widgets/bar/lv_bar.c **** /**********************
  49:Drivers/lvgl/src/widgets/bar/lv_bar.c ****  *  STATIC PROTOTYPES
  50:Drivers/lvgl/src/widgets/bar/lv_bar.c ****  **********************/
  51:Drivers/lvgl/src/widgets/bar/lv_bar.c **** static void lv_bar_constructor(const lv_obj_class_t * class_p, lv_obj_t * obj);
  52:Drivers/lvgl/src/widgets/bar/lv_bar.c **** static void lv_bar_destructor(const lv_obj_class_t * class_p, lv_obj_t * obj);
  53:Drivers/lvgl/src/widgets/bar/lv_bar.c **** static void lv_bar_event(const lv_obj_class_t * class_p, lv_event_t * e);
  54:Drivers/lvgl/src/widgets/bar/lv_bar.c **** static void draw_indic(lv_event_t * e);
  55:Drivers/lvgl/src/widgets/bar/lv_bar.c **** static void lv_bar_set_value_with_anim(lv_obj_t * obj, int32_t new_value, int32_t * value_ptr,
  56:Drivers/lvgl/src/widgets/bar/lv_bar.c ****                                        lv_bar_anim_t * anim_info, lv_anim_enable_t en);
  57:Drivers/lvgl/src/widgets/bar/lv_bar.c **** static void lv_bar_init_anim(lv_obj_t * bar, lv_bar_anim_t * bar_anim);
  58:Drivers/lvgl/src/widgets/bar/lv_bar.c **** static void lv_bar_anim(void * bar, int32_t value);
  59:Drivers/lvgl/src/widgets/bar/lv_bar.c **** static void lv_bar_anim_completed(lv_anim_t * a);
  60:Drivers/lvgl/src/widgets/bar/lv_bar.c **** 
  61:Drivers/lvgl/src/widgets/bar/lv_bar.c **** /**********************
  62:Drivers/lvgl/src/widgets/bar/lv_bar.c ****  *  STATIC VARIABLES
  63:Drivers/lvgl/src/widgets/bar/lv_bar.c ****  **********************/
  64:Drivers/lvgl/src/widgets/bar/lv_bar.c **** const lv_obj_class_t lv_bar_class = {
  65:Drivers/lvgl/src/widgets/bar/lv_bar.c ****     .constructor_cb = lv_bar_constructor,
  66:Drivers/lvgl/src/widgets/bar/lv_bar.c ****     .destructor_cb = lv_bar_destructor,
  67:Drivers/lvgl/src/widgets/bar/lv_bar.c ****     .event_cb = lv_bar_event,
  68:Drivers/lvgl/src/widgets/bar/lv_bar.c ****     .width_def = LV_DPI_DEF * 2,
  69:Drivers/lvgl/src/widgets/bar/lv_bar.c ****     .height_def = LV_DPI_DEF / 10,
  70:Drivers/lvgl/src/widgets/bar/lv_bar.c ****     .instance_size = sizeof(lv_bar_t),
  71:Drivers/lvgl/src/widgets/bar/lv_bar.c ****     .base_class = &lv_obj_class,
  72:Drivers/lvgl/src/widgets/bar/lv_bar.c ****     .name = "lv_bar",
  73:Drivers/lvgl/src/widgets/bar/lv_bar.c **** };
  74:Drivers/lvgl/src/widgets/bar/lv_bar.c **** 
  75:Drivers/lvgl/src/widgets/bar/lv_bar.c **** /**********************
  76:Drivers/lvgl/src/widgets/bar/lv_bar.c ****  *      MACROS
  77:Drivers/lvgl/src/widgets/bar/lv_bar.c ****  **********************/
  78:Drivers/lvgl/src/widgets/bar/lv_bar.c **** 
  79:Drivers/lvgl/src/widgets/bar/lv_bar.c **** /**********************
  80:Drivers/lvgl/src/widgets/bar/lv_bar.c ****  *   GLOBAL FUNCTIONS
  81:Drivers/lvgl/src/widgets/bar/lv_bar.c ****  **********************/
  82:Drivers/lvgl/src/widgets/bar/lv_bar.c **** 
  83:Drivers/lvgl/src/widgets/bar/lv_bar.c **** lv_obj_t * lv_bar_create(lv_obj_t * parent)
  84:Drivers/lvgl/src/widgets/bar/lv_bar.c **** {
  85:Drivers/lvgl/src/widgets/bar/lv_bar.c ****     LV_LOG_INFO("begin");
  86:Drivers/lvgl/src/widgets/bar/lv_bar.c ****     lv_obj_t * obj = lv_obj_class_create_obj(MY_CLASS, parent);
  87:Drivers/lvgl/src/widgets/bar/lv_bar.c ****     lv_obj_class_init_obj(obj);
ARM GAS  /tmp/cc1kxWTq.s 			page 3


  88:Drivers/lvgl/src/widgets/bar/lv_bar.c ****     return obj;
  89:Drivers/lvgl/src/widgets/bar/lv_bar.c **** }
  90:Drivers/lvgl/src/widgets/bar/lv_bar.c **** 
  91:Drivers/lvgl/src/widgets/bar/lv_bar.c **** /*=====================
  92:Drivers/lvgl/src/widgets/bar/lv_bar.c ****  * Setter functions
  93:Drivers/lvgl/src/widgets/bar/lv_bar.c ****  *====================*/
  94:Drivers/lvgl/src/widgets/bar/lv_bar.c **** 
  95:Drivers/lvgl/src/widgets/bar/lv_bar.c **** void lv_bar_set_value(lv_obj_t * obj, int32_t value, lv_anim_enable_t anim)
  96:Drivers/lvgl/src/widgets/bar/lv_bar.c **** {
  97:Drivers/lvgl/src/widgets/bar/lv_bar.c ****     LV_ASSERT_OBJ(obj, MY_CLASS);
  98:Drivers/lvgl/src/widgets/bar/lv_bar.c ****     lv_bar_t * bar = (lv_bar_t *)obj;
  99:Drivers/lvgl/src/widgets/bar/lv_bar.c **** 
 100:Drivers/lvgl/src/widgets/bar/lv_bar.c ****     if(bar->cur_value == value) return;
 101:Drivers/lvgl/src/widgets/bar/lv_bar.c **** 
 102:Drivers/lvgl/src/widgets/bar/lv_bar.c ****     value = LV_CLAMP(bar->min_value, value, bar->max_value);
 103:Drivers/lvgl/src/widgets/bar/lv_bar.c ****     value = value < bar->start_value ? bar->start_value : value; /*Can't be smaller than the left v
 104:Drivers/lvgl/src/widgets/bar/lv_bar.c **** 
 105:Drivers/lvgl/src/widgets/bar/lv_bar.c ****     if(bar->cur_value == value) return;
 106:Drivers/lvgl/src/widgets/bar/lv_bar.c **** 
 107:Drivers/lvgl/src/widgets/bar/lv_bar.c ****     lv_bar_set_value_with_anim(obj, value, &bar->cur_value, &bar->cur_value_anim, anim);
 108:Drivers/lvgl/src/widgets/bar/lv_bar.c **** }
 109:Drivers/lvgl/src/widgets/bar/lv_bar.c **** 
 110:Drivers/lvgl/src/widgets/bar/lv_bar.c **** void lv_bar_set_start_value(lv_obj_t * obj, int32_t value, lv_anim_enable_t anim)
 111:Drivers/lvgl/src/widgets/bar/lv_bar.c **** {
 112:Drivers/lvgl/src/widgets/bar/lv_bar.c ****     LV_ASSERT_OBJ(obj, MY_CLASS);
 113:Drivers/lvgl/src/widgets/bar/lv_bar.c **** 
 114:Drivers/lvgl/src/widgets/bar/lv_bar.c ****     lv_bar_t * bar = (lv_bar_t *)obj;
 115:Drivers/lvgl/src/widgets/bar/lv_bar.c **** 
 116:Drivers/lvgl/src/widgets/bar/lv_bar.c ****     if(bar->mode != LV_BAR_MODE_RANGE) {
 117:Drivers/lvgl/src/widgets/bar/lv_bar.c ****         return;
 118:Drivers/lvgl/src/widgets/bar/lv_bar.c ****     }
 119:Drivers/lvgl/src/widgets/bar/lv_bar.c **** 
 120:Drivers/lvgl/src/widgets/bar/lv_bar.c ****     value = LV_CLAMP(bar->min_value, value, bar->max_value);
 121:Drivers/lvgl/src/widgets/bar/lv_bar.c ****     value = value > bar->cur_value ? bar->cur_value : value; /*Can't be greater than the right valu
 122:Drivers/lvgl/src/widgets/bar/lv_bar.c **** 
 123:Drivers/lvgl/src/widgets/bar/lv_bar.c ****     if(bar->start_value == value) return;
 124:Drivers/lvgl/src/widgets/bar/lv_bar.c **** 
 125:Drivers/lvgl/src/widgets/bar/lv_bar.c ****     lv_bar_set_value_with_anim(obj, value, &bar->start_value, &bar->start_value_anim, anim);
 126:Drivers/lvgl/src/widgets/bar/lv_bar.c **** }
 127:Drivers/lvgl/src/widgets/bar/lv_bar.c **** 
 128:Drivers/lvgl/src/widgets/bar/lv_bar.c **** void lv_bar_set_range(lv_obj_t * obj, int32_t min, int32_t max)
 129:Drivers/lvgl/src/widgets/bar/lv_bar.c **** {
 130:Drivers/lvgl/src/widgets/bar/lv_bar.c ****     LV_ASSERT_OBJ(obj, MY_CLASS);
 131:Drivers/lvgl/src/widgets/bar/lv_bar.c **** 
 132:Drivers/lvgl/src/widgets/bar/lv_bar.c ****     lv_bar_t * bar = (lv_bar_t *)obj;
 133:Drivers/lvgl/src/widgets/bar/lv_bar.c **** 
 134:Drivers/lvgl/src/widgets/bar/lv_bar.c ****     bar->val_reversed = min > max;
 135:Drivers/lvgl/src/widgets/bar/lv_bar.c **** 
 136:Drivers/lvgl/src/widgets/bar/lv_bar.c ****     int32_t real_min = bar->val_reversed ? max : min;
 137:Drivers/lvgl/src/widgets/bar/lv_bar.c ****     int32_t real_max = bar->val_reversed ? min : max;
 138:Drivers/lvgl/src/widgets/bar/lv_bar.c ****     if(bar->min_value == real_min && bar->max_value == real_max) return;
 139:Drivers/lvgl/src/widgets/bar/lv_bar.c **** 
 140:Drivers/lvgl/src/widgets/bar/lv_bar.c ****     bar->max_value = real_max;
 141:Drivers/lvgl/src/widgets/bar/lv_bar.c ****     bar->min_value = real_min;
 142:Drivers/lvgl/src/widgets/bar/lv_bar.c **** 
 143:Drivers/lvgl/src/widgets/bar/lv_bar.c ****     if(lv_bar_get_mode(obj) != LV_BAR_MODE_RANGE)
 144:Drivers/lvgl/src/widgets/bar/lv_bar.c ****         bar->start_value = real_min;
ARM GAS  /tmp/cc1kxWTq.s 			page 4


 145:Drivers/lvgl/src/widgets/bar/lv_bar.c **** 
 146:Drivers/lvgl/src/widgets/bar/lv_bar.c ****     if(bar->cur_value > real_max) {
 147:Drivers/lvgl/src/widgets/bar/lv_bar.c ****         bar->cur_value = real_max;
 148:Drivers/lvgl/src/widgets/bar/lv_bar.c ****         lv_bar_set_value(obj, bar->cur_value, LV_ANIM_OFF);
 149:Drivers/lvgl/src/widgets/bar/lv_bar.c ****     }
 150:Drivers/lvgl/src/widgets/bar/lv_bar.c ****     if(bar->cur_value < real_min) {
 151:Drivers/lvgl/src/widgets/bar/lv_bar.c ****         bar->cur_value = real_min;
 152:Drivers/lvgl/src/widgets/bar/lv_bar.c ****         lv_bar_set_value(obj, bar->cur_value, LV_ANIM_OFF);
 153:Drivers/lvgl/src/widgets/bar/lv_bar.c ****     }
 154:Drivers/lvgl/src/widgets/bar/lv_bar.c **** 
 155:Drivers/lvgl/src/widgets/bar/lv_bar.c ****     lv_obj_invalidate(obj);
 156:Drivers/lvgl/src/widgets/bar/lv_bar.c **** }
 157:Drivers/lvgl/src/widgets/bar/lv_bar.c **** 
 158:Drivers/lvgl/src/widgets/bar/lv_bar.c **** void lv_bar_set_mode(lv_obj_t * obj, lv_bar_mode_t mode)
 159:Drivers/lvgl/src/widgets/bar/lv_bar.c **** {
 160:Drivers/lvgl/src/widgets/bar/lv_bar.c ****     LV_ASSERT_OBJ(obj, MY_CLASS);
 161:Drivers/lvgl/src/widgets/bar/lv_bar.c ****     lv_bar_t * bar = (lv_bar_t *)obj;
 162:Drivers/lvgl/src/widgets/bar/lv_bar.c **** 
 163:Drivers/lvgl/src/widgets/bar/lv_bar.c ****     bar->mode = mode;
 164:Drivers/lvgl/src/widgets/bar/lv_bar.c ****     if(bar->mode != LV_BAR_MODE_RANGE) {
 165:Drivers/lvgl/src/widgets/bar/lv_bar.c ****         bar->start_value = bar->min_value;
 166:Drivers/lvgl/src/widgets/bar/lv_bar.c ****     }
 167:Drivers/lvgl/src/widgets/bar/lv_bar.c **** 
 168:Drivers/lvgl/src/widgets/bar/lv_bar.c ****     lv_obj_invalidate(obj);
 169:Drivers/lvgl/src/widgets/bar/lv_bar.c **** }
 170:Drivers/lvgl/src/widgets/bar/lv_bar.c **** 
 171:Drivers/lvgl/src/widgets/bar/lv_bar.c **** void lv_bar_set_orientation(lv_obj_t * obj, lv_bar_orientation_t orientation)
 172:Drivers/lvgl/src/widgets/bar/lv_bar.c **** {
 173:Drivers/lvgl/src/widgets/bar/lv_bar.c ****     LV_ASSERT_OBJ(obj, MY_CLASS);
 174:Drivers/lvgl/src/widgets/bar/lv_bar.c ****     lv_bar_t * bar = (lv_bar_t *)obj;
 175:Drivers/lvgl/src/widgets/bar/lv_bar.c **** 
 176:Drivers/lvgl/src/widgets/bar/lv_bar.c ****     bar->orientation = orientation;
 177:Drivers/lvgl/src/widgets/bar/lv_bar.c ****     lv_obj_invalidate(obj);
 178:Drivers/lvgl/src/widgets/bar/lv_bar.c **** }
 179:Drivers/lvgl/src/widgets/bar/lv_bar.c **** 
 180:Drivers/lvgl/src/widgets/bar/lv_bar.c **** /*=====================
 181:Drivers/lvgl/src/widgets/bar/lv_bar.c ****  * Getter functions
 182:Drivers/lvgl/src/widgets/bar/lv_bar.c ****  *====================*/
 183:Drivers/lvgl/src/widgets/bar/lv_bar.c **** 
 184:Drivers/lvgl/src/widgets/bar/lv_bar.c **** int32_t lv_bar_get_value(const lv_obj_t * obj)
 185:Drivers/lvgl/src/widgets/bar/lv_bar.c **** {
 186:Drivers/lvgl/src/widgets/bar/lv_bar.c ****     LV_ASSERT_OBJ(obj, MY_CLASS);
 187:Drivers/lvgl/src/widgets/bar/lv_bar.c ****     lv_bar_t * bar = (lv_bar_t *)obj;
 188:Drivers/lvgl/src/widgets/bar/lv_bar.c **** 
 189:Drivers/lvgl/src/widgets/bar/lv_bar.c ****     return LV_BAR_GET_ANIM_VALUE(bar->cur_value, bar->cur_value_anim);
 190:Drivers/lvgl/src/widgets/bar/lv_bar.c **** }
 191:Drivers/lvgl/src/widgets/bar/lv_bar.c **** 
 192:Drivers/lvgl/src/widgets/bar/lv_bar.c **** int32_t lv_bar_get_start_value(const lv_obj_t * obj)
 193:Drivers/lvgl/src/widgets/bar/lv_bar.c **** {
 194:Drivers/lvgl/src/widgets/bar/lv_bar.c ****     LV_ASSERT_OBJ(obj, MY_CLASS);
 195:Drivers/lvgl/src/widgets/bar/lv_bar.c ****     lv_bar_t * bar = (lv_bar_t *)obj;
 196:Drivers/lvgl/src/widgets/bar/lv_bar.c **** 
 197:Drivers/lvgl/src/widgets/bar/lv_bar.c ****     if(bar->mode != LV_BAR_MODE_RANGE) return bar->min_value;
 198:Drivers/lvgl/src/widgets/bar/lv_bar.c **** 
 199:Drivers/lvgl/src/widgets/bar/lv_bar.c ****     return LV_BAR_GET_ANIM_VALUE(bar->start_value, bar->start_value_anim);
 200:Drivers/lvgl/src/widgets/bar/lv_bar.c **** }
 201:Drivers/lvgl/src/widgets/bar/lv_bar.c **** 
ARM GAS  /tmp/cc1kxWTq.s 			page 5


 202:Drivers/lvgl/src/widgets/bar/lv_bar.c **** int32_t lv_bar_get_min_value(const lv_obj_t * obj)
 203:Drivers/lvgl/src/widgets/bar/lv_bar.c **** {
 204:Drivers/lvgl/src/widgets/bar/lv_bar.c ****     LV_ASSERT_OBJ(obj, MY_CLASS);
 205:Drivers/lvgl/src/widgets/bar/lv_bar.c ****     lv_bar_t * bar = (lv_bar_t *)obj;
 206:Drivers/lvgl/src/widgets/bar/lv_bar.c ****     return bar->val_reversed ? bar->max_value : bar->min_value;
 207:Drivers/lvgl/src/widgets/bar/lv_bar.c **** }
 208:Drivers/lvgl/src/widgets/bar/lv_bar.c **** 
 209:Drivers/lvgl/src/widgets/bar/lv_bar.c **** int32_t lv_bar_get_max_value(const lv_obj_t * obj)
 210:Drivers/lvgl/src/widgets/bar/lv_bar.c **** {
 211:Drivers/lvgl/src/widgets/bar/lv_bar.c ****     LV_ASSERT_OBJ(obj, MY_CLASS);
 212:Drivers/lvgl/src/widgets/bar/lv_bar.c ****     lv_bar_t * bar = (lv_bar_t *)obj;
 213:Drivers/lvgl/src/widgets/bar/lv_bar.c **** 
 214:Drivers/lvgl/src/widgets/bar/lv_bar.c ****     return bar->val_reversed ? bar->min_value : bar->max_value;
 215:Drivers/lvgl/src/widgets/bar/lv_bar.c **** }
 216:Drivers/lvgl/src/widgets/bar/lv_bar.c **** 
 217:Drivers/lvgl/src/widgets/bar/lv_bar.c **** lv_bar_mode_t lv_bar_get_mode(lv_obj_t * obj)
 218:Drivers/lvgl/src/widgets/bar/lv_bar.c **** {
 219:Drivers/lvgl/src/widgets/bar/lv_bar.c ****     LV_ASSERT_OBJ(obj, MY_CLASS);
 220:Drivers/lvgl/src/widgets/bar/lv_bar.c ****     lv_bar_t * bar = (lv_bar_t *)obj;
 221:Drivers/lvgl/src/widgets/bar/lv_bar.c **** 
 222:Drivers/lvgl/src/widgets/bar/lv_bar.c ****     return bar->mode;
 223:Drivers/lvgl/src/widgets/bar/lv_bar.c **** }
 224:Drivers/lvgl/src/widgets/bar/lv_bar.c **** 
 225:Drivers/lvgl/src/widgets/bar/lv_bar.c **** lv_bar_orientation_t lv_bar_get_orientation(lv_obj_t * obj)
 226:Drivers/lvgl/src/widgets/bar/lv_bar.c **** {
 227:Drivers/lvgl/src/widgets/bar/lv_bar.c ****     LV_ASSERT_OBJ(obj, MY_CLASS);
 228:Drivers/lvgl/src/widgets/bar/lv_bar.c ****     lv_bar_t * bar = (lv_bar_t *)obj;
 229:Drivers/lvgl/src/widgets/bar/lv_bar.c **** 
 230:Drivers/lvgl/src/widgets/bar/lv_bar.c ****     return bar->orientation;
 231:Drivers/lvgl/src/widgets/bar/lv_bar.c **** }
 232:Drivers/lvgl/src/widgets/bar/lv_bar.c **** 
 233:Drivers/lvgl/src/widgets/bar/lv_bar.c **** bool lv_bar_is_symmetrical(lv_obj_t * obj)
 234:Drivers/lvgl/src/widgets/bar/lv_bar.c **** {
 235:Drivers/lvgl/src/widgets/bar/lv_bar.c ****     LV_ASSERT_OBJ(obj, MY_CLASS);
 236:Drivers/lvgl/src/widgets/bar/lv_bar.c ****     lv_bar_t * bar = (lv_bar_t *)obj;
 237:Drivers/lvgl/src/widgets/bar/lv_bar.c **** 
 238:Drivers/lvgl/src/widgets/bar/lv_bar.c ****     return  bar->mode == LV_BAR_MODE_SYMMETRICAL && bar->min_value < 0 && bar->max_value > 0 &&
 239:Drivers/lvgl/src/widgets/bar/lv_bar.c ****             bar->start_value == bar->min_value;
 240:Drivers/lvgl/src/widgets/bar/lv_bar.c **** }
 241:Drivers/lvgl/src/widgets/bar/lv_bar.c **** 
 242:Drivers/lvgl/src/widgets/bar/lv_bar.c **** /**********************
 243:Drivers/lvgl/src/widgets/bar/lv_bar.c ****  *   STATIC FUNCTIONS
 244:Drivers/lvgl/src/widgets/bar/lv_bar.c ****  **********************/
 245:Drivers/lvgl/src/widgets/bar/lv_bar.c **** 
 246:Drivers/lvgl/src/widgets/bar/lv_bar.c **** static void lv_bar_constructor(const lv_obj_class_t * class_p, lv_obj_t * obj)
 247:Drivers/lvgl/src/widgets/bar/lv_bar.c **** {
 248:Drivers/lvgl/src/widgets/bar/lv_bar.c ****     LV_UNUSED(class_p);
 249:Drivers/lvgl/src/widgets/bar/lv_bar.c ****     LV_TRACE_OBJ_CREATE("begin");
 250:Drivers/lvgl/src/widgets/bar/lv_bar.c **** 
 251:Drivers/lvgl/src/widgets/bar/lv_bar.c ****     lv_bar_t * bar = (lv_bar_t *)obj;
 252:Drivers/lvgl/src/widgets/bar/lv_bar.c ****     bar->min_value = 0;
 253:Drivers/lvgl/src/widgets/bar/lv_bar.c ****     bar->max_value = 100;
 254:Drivers/lvgl/src/widgets/bar/lv_bar.c ****     bar->start_value = 0;
 255:Drivers/lvgl/src/widgets/bar/lv_bar.c ****     bar->cur_value = 0;
 256:Drivers/lvgl/src/widgets/bar/lv_bar.c ****     bar->indic_area.x1 = 0;
 257:Drivers/lvgl/src/widgets/bar/lv_bar.c ****     bar->indic_area.x2 = 0;
 258:Drivers/lvgl/src/widgets/bar/lv_bar.c ****     bar->indic_area.y1 = 0;
ARM GAS  /tmp/cc1kxWTq.s 			page 6


 259:Drivers/lvgl/src/widgets/bar/lv_bar.c ****     bar->indic_area.y2 = 0;
 260:Drivers/lvgl/src/widgets/bar/lv_bar.c ****     bar->mode = LV_BAR_MODE_NORMAL;
 261:Drivers/lvgl/src/widgets/bar/lv_bar.c ****     bar->orientation = LV_BAR_ORIENTATION_AUTO;
 262:Drivers/lvgl/src/widgets/bar/lv_bar.c ****     bar->val_reversed = false;
 263:Drivers/lvgl/src/widgets/bar/lv_bar.c **** 
 264:Drivers/lvgl/src/widgets/bar/lv_bar.c ****     lv_bar_init_anim(obj, &bar->cur_value_anim);
 265:Drivers/lvgl/src/widgets/bar/lv_bar.c ****     lv_bar_init_anim(obj, &bar->start_value_anim);
 266:Drivers/lvgl/src/widgets/bar/lv_bar.c **** 
 267:Drivers/lvgl/src/widgets/bar/lv_bar.c ****     lv_obj_remove_flag(obj, LV_OBJ_FLAG_CHECKABLE);
 268:Drivers/lvgl/src/widgets/bar/lv_bar.c ****     lv_obj_remove_flag(obj, LV_OBJ_FLAG_SCROLLABLE);
 269:Drivers/lvgl/src/widgets/bar/lv_bar.c ****     lv_bar_set_value(obj, 0, LV_ANIM_OFF);
 270:Drivers/lvgl/src/widgets/bar/lv_bar.c **** 
 271:Drivers/lvgl/src/widgets/bar/lv_bar.c ****     LV_TRACE_OBJ_CREATE("finished");
 272:Drivers/lvgl/src/widgets/bar/lv_bar.c **** }
 273:Drivers/lvgl/src/widgets/bar/lv_bar.c **** 
 274:Drivers/lvgl/src/widgets/bar/lv_bar.c **** static void lv_bar_destructor(const lv_obj_class_t * class_p, lv_obj_t * obj)
 275:Drivers/lvgl/src/widgets/bar/lv_bar.c **** {
 276:Drivers/lvgl/src/widgets/bar/lv_bar.c ****     LV_UNUSED(class_p);
 277:Drivers/lvgl/src/widgets/bar/lv_bar.c ****     lv_bar_t * bar = (lv_bar_t *)obj;
 278:Drivers/lvgl/src/widgets/bar/lv_bar.c **** 
 279:Drivers/lvgl/src/widgets/bar/lv_bar.c ****     lv_anim_delete(&bar->cur_value_anim, NULL);
 280:Drivers/lvgl/src/widgets/bar/lv_bar.c ****     lv_anim_delete(&bar->start_value_anim, NULL);
 281:Drivers/lvgl/src/widgets/bar/lv_bar.c **** }
 282:Drivers/lvgl/src/widgets/bar/lv_bar.c **** 
 283:Drivers/lvgl/src/widgets/bar/lv_bar.c **** static void draw_indic(lv_event_t * e)
 284:Drivers/lvgl/src/widgets/bar/lv_bar.c **** {
 285:Drivers/lvgl/src/widgets/bar/lv_bar.c ****     lv_obj_t * obj = lv_event_get_current_target(e);
 286:Drivers/lvgl/src/widgets/bar/lv_bar.c ****     lv_bar_t * bar = (lv_bar_t *)obj;
 287:Drivers/lvgl/src/widgets/bar/lv_bar.c **** 
 288:Drivers/lvgl/src/widgets/bar/lv_bar.c ****     lv_layer_t * layer = lv_event_get_layer(e);
 289:Drivers/lvgl/src/widgets/bar/lv_bar.c **** 
 290:Drivers/lvgl/src/widgets/bar/lv_bar.c ****     lv_area_t bar_coords;
 291:Drivers/lvgl/src/widgets/bar/lv_bar.c ****     lv_obj_get_coords(obj, &bar_coords);
 292:Drivers/lvgl/src/widgets/bar/lv_bar.c **** 
 293:Drivers/lvgl/src/widgets/bar/lv_bar.c ****     int32_t transf_w = lv_obj_get_style_transform_width(obj, LV_PART_MAIN);
 294:Drivers/lvgl/src/widgets/bar/lv_bar.c ****     int32_t transf_h = lv_obj_get_style_transform_height(obj, LV_PART_MAIN);
 295:Drivers/lvgl/src/widgets/bar/lv_bar.c ****     lv_area_increase(&bar_coords, transf_w, transf_h);
 296:Drivers/lvgl/src/widgets/bar/lv_bar.c ****     int32_t barw = lv_area_get_width(&bar_coords);
 297:Drivers/lvgl/src/widgets/bar/lv_bar.c ****     int32_t barh = lv_area_get_height(&bar_coords);
 298:Drivers/lvgl/src/widgets/bar/lv_bar.c ****     int32_t range = bar->max_value - bar->min_value;
 299:Drivers/lvgl/src/widgets/bar/lv_bar.c **** 
 300:Drivers/lvgl/src/widgets/bar/lv_bar.c ****     /*Prevent division by 0*/
 301:Drivers/lvgl/src/widgets/bar/lv_bar.c ****     if(range == 0) {
 302:Drivers/lvgl/src/widgets/bar/lv_bar.c ****         range = 1;
 303:Drivers/lvgl/src/widgets/bar/lv_bar.c ****     }
 304:Drivers/lvgl/src/widgets/bar/lv_bar.c **** 
 305:Drivers/lvgl/src/widgets/bar/lv_bar.c ****     bool hor = false;
 306:Drivers/lvgl/src/widgets/bar/lv_bar.c ****     switch(bar->orientation) {
 307:Drivers/lvgl/src/widgets/bar/lv_bar.c ****         case LV_BAR_ORIENTATION_HORIZONTAL:
 308:Drivers/lvgl/src/widgets/bar/lv_bar.c ****             hor = true;
 309:Drivers/lvgl/src/widgets/bar/lv_bar.c ****             break;
 310:Drivers/lvgl/src/widgets/bar/lv_bar.c ****         case LV_BAR_ORIENTATION_VERTICAL:
 311:Drivers/lvgl/src/widgets/bar/lv_bar.c ****             hor = false;
 312:Drivers/lvgl/src/widgets/bar/lv_bar.c ****             break;
 313:Drivers/lvgl/src/widgets/bar/lv_bar.c ****         case LV_BAR_ORIENTATION_AUTO:
 314:Drivers/lvgl/src/widgets/bar/lv_bar.c ****         default:
 315:Drivers/lvgl/src/widgets/bar/lv_bar.c ****             hor = (barw >= barh);
ARM GAS  /tmp/cc1kxWTq.s 			page 7


 316:Drivers/lvgl/src/widgets/bar/lv_bar.c ****             break;
 317:Drivers/lvgl/src/widgets/bar/lv_bar.c ****     }
 318:Drivers/lvgl/src/widgets/bar/lv_bar.c **** 
 319:Drivers/lvgl/src/widgets/bar/lv_bar.c ****     bool sym = lv_bar_is_symmetrical(obj);
 320:Drivers/lvgl/src/widgets/bar/lv_bar.c **** 
 321:Drivers/lvgl/src/widgets/bar/lv_bar.c ****     /*Calculate the indicator area*/
 322:Drivers/lvgl/src/widgets/bar/lv_bar.c ****     int32_t bg_left = lv_obj_get_style_pad_left(obj,     LV_PART_MAIN);
 323:Drivers/lvgl/src/widgets/bar/lv_bar.c ****     int32_t bg_right = lv_obj_get_style_pad_right(obj,   LV_PART_MAIN);
 324:Drivers/lvgl/src/widgets/bar/lv_bar.c ****     int32_t bg_top = lv_obj_get_style_pad_top(obj,       LV_PART_MAIN);
 325:Drivers/lvgl/src/widgets/bar/lv_bar.c ****     int32_t bg_bottom = lv_obj_get_style_pad_bottom(obj, LV_PART_MAIN);
 326:Drivers/lvgl/src/widgets/bar/lv_bar.c **** 
 327:Drivers/lvgl/src/widgets/bar/lv_bar.c ****     /*Respect padding and minimum width/height too*/
 328:Drivers/lvgl/src/widgets/bar/lv_bar.c ****     lv_area_copy(&bar->indic_area, &bar_coords);
 329:Drivers/lvgl/src/widgets/bar/lv_bar.c ****     bar->indic_area.x1 += bg_left;
 330:Drivers/lvgl/src/widgets/bar/lv_bar.c ****     bar->indic_area.x2 -= bg_right;
 331:Drivers/lvgl/src/widgets/bar/lv_bar.c ****     bar->indic_area.y1 += bg_top;
 332:Drivers/lvgl/src/widgets/bar/lv_bar.c ****     bar->indic_area.y2 -= bg_bottom;
 333:Drivers/lvgl/src/widgets/bar/lv_bar.c **** 
 334:Drivers/lvgl/src/widgets/bar/lv_bar.c ****     if(hor && lv_area_get_height(&bar->indic_area) < LV_BAR_SIZE_MIN) {
 335:Drivers/lvgl/src/widgets/bar/lv_bar.c ****         bar->indic_area.y1 = obj->coords.y1 + (barh / 2) - (LV_BAR_SIZE_MIN / 2);
 336:Drivers/lvgl/src/widgets/bar/lv_bar.c ****         bar->indic_area.y2 = bar->indic_area.y1 + LV_BAR_SIZE_MIN;
 337:Drivers/lvgl/src/widgets/bar/lv_bar.c ****     }
 338:Drivers/lvgl/src/widgets/bar/lv_bar.c ****     else if(!hor && lv_area_get_width(&bar->indic_area) < LV_BAR_SIZE_MIN) {
 339:Drivers/lvgl/src/widgets/bar/lv_bar.c ****         bar->indic_area.x1 = obj->coords.x1 + (barw / 2) - (LV_BAR_SIZE_MIN / 2);
 340:Drivers/lvgl/src/widgets/bar/lv_bar.c ****         bar->indic_area.x2 = bar->indic_area.x1 + LV_BAR_SIZE_MIN;
 341:Drivers/lvgl/src/widgets/bar/lv_bar.c ****     }
 342:Drivers/lvgl/src/widgets/bar/lv_bar.c ****     int32_t indic_max_w = lv_area_get_width(&bar->indic_area);
 343:Drivers/lvgl/src/widgets/bar/lv_bar.c ****     int32_t indic_max_h = lv_area_get_height(&bar->indic_area);
 344:Drivers/lvgl/src/widgets/bar/lv_bar.c **** 
 345:Drivers/lvgl/src/widgets/bar/lv_bar.c ****     /*Calculate the indicator length*/
 346:Drivers/lvgl/src/widgets/bar/lv_bar.c ****     int32_t anim_length = hor ? indic_max_w : indic_max_h;
 347:Drivers/lvgl/src/widgets/bar/lv_bar.c **** 
 348:Drivers/lvgl/src/widgets/bar/lv_bar.c ****     int32_t anim_cur_value_x, anim_start_value_x;
 349:Drivers/lvgl/src/widgets/bar/lv_bar.c **** 
 350:Drivers/lvgl/src/widgets/bar/lv_bar.c ****     int32_t * axis1, * axis2;
 351:Drivers/lvgl/src/widgets/bar/lv_bar.c ****     int32_t (*indic_length_calc)(const lv_area_t * area);
 352:Drivers/lvgl/src/widgets/bar/lv_bar.c **** 
 353:Drivers/lvgl/src/widgets/bar/lv_bar.c ****     if(hor) {
 354:Drivers/lvgl/src/widgets/bar/lv_bar.c ****         axis1 = &bar->indic_area.x1;
 355:Drivers/lvgl/src/widgets/bar/lv_bar.c ****         axis2 = &bar->indic_area.x2;
 356:Drivers/lvgl/src/widgets/bar/lv_bar.c ****         indic_length_calc = lv_area_get_width;
 357:Drivers/lvgl/src/widgets/bar/lv_bar.c ****     }
 358:Drivers/lvgl/src/widgets/bar/lv_bar.c ****     else {
 359:Drivers/lvgl/src/widgets/bar/lv_bar.c ****         axis1 = &bar->indic_area.y1;
 360:Drivers/lvgl/src/widgets/bar/lv_bar.c ****         axis2 = &bar->indic_area.y2;
 361:Drivers/lvgl/src/widgets/bar/lv_bar.c ****         indic_length_calc = lv_area_get_height;
 362:Drivers/lvgl/src/widgets/bar/lv_bar.c ****     }
 363:Drivers/lvgl/src/widgets/bar/lv_bar.c **** 
 364:Drivers/lvgl/src/widgets/bar/lv_bar.c ****     if(LV_BAR_IS_ANIMATING(bar->start_value_anim)) {
 365:Drivers/lvgl/src/widgets/bar/lv_bar.c ****         int32_t anim_start_value_start_x =
 366:Drivers/lvgl/src/widgets/bar/lv_bar.c ****             (int32_t)((int32_t)anim_length * (bar->start_value_anim.anim_start - bar->min_value)) /
 367:Drivers/lvgl/src/widgets/bar/lv_bar.c ****         int32_t anim_start_value_end_x =
 368:Drivers/lvgl/src/widgets/bar/lv_bar.c ****             (int32_t)((int32_t)anim_length * (bar->start_value_anim.anim_end - bar->min_value)) / r
 369:Drivers/lvgl/src/widgets/bar/lv_bar.c **** 
 370:Drivers/lvgl/src/widgets/bar/lv_bar.c ****         anim_start_value_x = (((anim_start_value_end_x - anim_start_value_start_x) * bar->start_val
 371:Drivers/lvgl/src/widgets/bar/lv_bar.c ****                               LV_BAR_ANIM_STATE_END);
 372:Drivers/lvgl/src/widgets/bar/lv_bar.c **** 
ARM GAS  /tmp/cc1kxWTq.s 			page 8


 373:Drivers/lvgl/src/widgets/bar/lv_bar.c ****         anim_start_value_x += anim_start_value_start_x;
 374:Drivers/lvgl/src/widgets/bar/lv_bar.c ****     }
 375:Drivers/lvgl/src/widgets/bar/lv_bar.c ****     else {
 376:Drivers/lvgl/src/widgets/bar/lv_bar.c ****         anim_start_value_x = (int32_t)((int32_t)anim_length * (bar->start_value - bar->min_value)) 
 377:Drivers/lvgl/src/widgets/bar/lv_bar.c ****     }
 378:Drivers/lvgl/src/widgets/bar/lv_bar.c **** 
 379:Drivers/lvgl/src/widgets/bar/lv_bar.c ****     if(LV_BAR_IS_ANIMATING(bar->cur_value_anim)) {
 380:Drivers/lvgl/src/widgets/bar/lv_bar.c ****         int32_t anim_cur_value_start_x =
 381:Drivers/lvgl/src/widgets/bar/lv_bar.c ****             (int32_t)((int32_t)anim_length * (bar->cur_value_anim.anim_start - bar->min_value)) / r
 382:Drivers/lvgl/src/widgets/bar/lv_bar.c ****         int32_t anim_cur_value_end_x =
 383:Drivers/lvgl/src/widgets/bar/lv_bar.c ****             (int32_t)((int32_t)anim_length * (bar->cur_value_anim.anim_end - bar->min_value)) / ran
 384:Drivers/lvgl/src/widgets/bar/lv_bar.c **** 
 385:Drivers/lvgl/src/widgets/bar/lv_bar.c ****         anim_cur_value_x = anim_cur_value_start_x + (((anim_cur_value_end_x - anim_cur_value_start_
 386:Drivers/lvgl/src/widgets/bar/lv_bar.c ****                                                       bar->cur_value_anim.anim_state) /
 387:Drivers/lvgl/src/widgets/bar/lv_bar.c ****                                                      LV_BAR_ANIM_STATE_END);
 388:Drivers/lvgl/src/widgets/bar/lv_bar.c ****     }
 389:Drivers/lvgl/src/widgets/bar/lv_bar.c ****     else {
 390:Drivers/lvgl/src/widgets/bar/lv_bar.c ****         anim_cur_value_x = (int32_t)((int32_t)anim_length * (bar->cur_value - bar->min_value)) / ra
 391:Drivers/lvgl/src/widgets/bar/lv_bar.c ****     }
 392:Drivers/lvgl/src/widgets/bar/lv_bar.c **** 
 393:Drivers/lvgl/src/widgets/bar/lv_bar.c ****     /**
 394:Drivers/lvgl/src/widgets/bar/lv_bar.c ****      * The drawing direction of the bar can be reversed only when one of the two conditions(value i
 395:Drivers/lvgl/src/widgets/bar/lv_bar.c ****      * or horizontal direction base dir is LV_BASE_DIR_RTL) is met.
 396:Drivers/lvgl/src/widgets/bar/lv_bar.c ****     */
 397:Drivers/lvgl/src/widgets/bar/lv_bar.c ****     lv_base_dir_t base_dir = lv_obj_get_style_base_dir(obj, LV_PART_MAIN);
 398:Drivers/lvgl/src/widgets/bar/lv_bar.c ****     bool hor_need_reversed = hor && base_dir == LV_BASE_DIR_RTL;
 399:Drivers/lvgl/src/widgets/bar/lv_bar.c ****     bool reversed = bar->val_reversed ^ hor_need_reversed;
 400:Drivers/lvgl/src/widgets/bar/lv_bar.c **** 
 401:Drivers/lvgl/src/widgets/bar/lv_bar.c ****     if(reversed) {
 402:Drivers/lvgl/src/widgets/bar/lv_bar.c ****         /*Swap axes*/
 403:Drivers/lvgl/src/widgets/bar/lv_bar.c ****         int32_t * tmp;
 404:Drivers/lvgl/src/widgets/bar/lv_bar.c ****         tmp = axis1;
 405:Drivers/lvgl/src/widgets/bar/lv_bar.c ****         axis1 = axis2;
 406:Drivers/lvgl/src/widgets/bar/lv_bar.c ****         axis2 = tmp;
 407:Drivers/lvgl/src/widgets/bar/lv_bar.c ****         anim_cur_value_x = -anim_cur_value_x;
 408:Drivers/lvgl/src/widgets/bar/lv_bar.c ****         anim_start_value_x = -anim_start_value_x;
 409:Drivers/lvgl/src/widgets/bar/lv_bar.c ****     }
 410:Drivers/lvgl/src/widgets/bar/lv_bar.c **** 
 411:Drivers/lvgl/src/widgets/bar/lv_bar.c ****     /*Set the indicator length*/
 412:Drivers/lvgl/src/widgets/bar/lv_bar.c ****     if(hor) {
 413:Drivers/lvgl/src/widgets/bar/lv_bar.c ****         *axis2 = *axis1 + anim_cur_value_x;
 414:Drivers/lvgl/src/widgets/bar/lv_bar.c ****         *axis1 += anim_start_value_x;
 415:Drivers/lvgl/src/widgets/bar/lv_bar.c ****     }
 416:Drivers/lvgl/src/widgets/bar/lv_bar.c ****     else {
 417:Drivers/lvgl/src/widgets/bar/lv_bar.c ****         *axis1 = *axis2 - anim_cur_value_x + 1;
 418:Drivers/lvgl/src/widgets/bar/lv_bar.c ****         *axis2 -= anim_start_value_x;
 419:Drivers/lvgl/src/widgets/bar/lv_bar.c ****     }
 420:Drivers/lvgl/src/widgets/bar/lv_bar.c **** 
 421:Drivers/lvgl/src/widgets/bar/lv_bar.c ****     if(sym) {
 422:Drivers/lvgl/src/widgets/bar/lv_bar.c ****         int32_t zero, shift;
 423:Drivers/lvgl/src/widgets/bar/lv_bar.c ****         shift = (-bar->min_value * anim_length) / range;
 424:Drivers/lvgl/src/widgets/bar/lv_bar.c **** 
 425:Drivers/lvgl/src/widgets/bar/lv_bar.c ****         if(hor) {
 426:Drivers/lvgl/src/widgets/bar/lv_bar.c ****             int32_t * left = reversed ? axis2 : axis1;
 427:Drivers/lvgl/src/widgets/bar/lv_bar.c ****             int32_t * right = reversed ? axis1 : axis2;
 428:Drivers/lvgl/src/widgets/bar/lv_bar.c ****             if(reversed)
 429:Drivers/lvgl/src/widgets/bar/lv_bar.c ****                 zero = *axis1 - shift + 1;
ARM GAS  /tmp/cc1kxWTq.s 			page 9


 430:Drivers/lvgl/src/widgets/bar/lv_bar.c ****             else
 431:Drivers/lvgl/src/widgets/bar/lv_bar.c ****                 zero = *axis1 + shift;
 432:Drivers/lvgl/src/widgets/bar/lv_bar.c **** 
 433:Drivers/lvgl/src/widgets/bar/lv_bar.c ****             if(*axis2 > zero) {
 434:Drivers/lvgl/src/widgets/bar/lv_bar.c ****                 *right = *axis2;
 435:Drivers/lvgl/src/widgets/bar/lv_bar.c ****                 *left = zero;
 436:Drivers/lvgl/src/widgets/bar/lv_bar.c ****             }
 437:Drivers/lvgl/src/widgets/bar/lv_bar.c ****             else {
 438:Drivers/lvgl/src/widgets/bar/lv_bar.c ****                 *left = *axis2;
 439:Drivers/lvgl/src/widgets/bar/lv_bar.c ****                 *right = zero;
 440:Drivers/lvgl/src/widgets/bar/lv_bar.c ****             }
 441:Drivers/lvgl/src/widgets/bar/lv_bar.c ****         }
 442:Drivers/lvgl/src/widgets/bar/lv_bar.c ****         else {
 443:Drivers/lvgl/src/widgets/bar/lv_bar.c ****             int32_t * top = reversed ? axis2 : axis1;
 444:Drivers/lvgl/src/widgets/bar/lv_bar.c ****             int32_t * bottom = reversed ? axis1 : axis2;
 445:Drivers/lvgl/src/widgets/bar/lv_bar.c ****             if(reversed)
 446:Drivers/lvgl/src/widgets/bar/lv_bar.c ****                 zero = *axis2 + shift;
 447:Drivers/lvgl/src/widgets/bar/lv_bar.c ****             else
 448:Drivers/lvgl/src/widgets/bar/lv_bar.c ****                 zero = *axis2 - shift + 1;
 449:Drivers/lvgl/src/widgets/bar/lv_bar.c **** 
 450:Drivers/lvgl/src/widgets/bar/lv_bar.c ****             if(*axis1 > zero) {
 451:Drivers/lvgl/src/widgets/bar/lv_bar.c ****                 *bottom = *axis1;
 452:Drivers/lvgl/src/widgets/bar/lv_bar.c ****                 *top = zero;
 453:Drivers/lvgl/src/widgets/bar/lv_bar.c ****             }
 454:Drivers/lvgl/src/widgets/bar/lv_bar.c ****             else {
 455:Drivers/lvgl/src/widgets/bar/lv_bar.c ****                 *top = *axis1;
 456:Drivers/lvgl/src/widgets/bar/lv_bar.c ****                 *bottom = zero;
 457:Drivers/lvgl/src/widgets/bar/lv_bar.c ****             }
 458:Drivers/lvgl/src/widgets/bar/lv_bar.c ****         }
 459:Drivers/lvgl/src/widgets/bar/lv_bar.c ****     }
 460:Drivers/lvgl/src/widgets/bar/lv_bar.c **** 
 461:Drivers/lvgl/src/widgets/bar/lv_bar.c ****     /*Do not draw a zero length indicator but at least call the draw task event*/
 462:Drivers/lvgl/src/widgets/bar/lv_bar.c ****     if(!sym && indic_length_calc(&bar->indic_area) <= 1) {
 463:Drivers/lvgl/src/widgets/bar/lv_bar.c ****         lv_obj_send_event(obj, LV_EVENT_DRAW_TASK_ADDED, NULL);
 464:Drivers/lvgl/src/widgets/bar/lv_bar.c ****         return;
 465:Drivers/lvgl/src/widgets/bar/lv_bar.c ****     }
 466:Drivers/lvgl/src/widgets/bar/lv_bar.c **** 
 467:Drivers/lvgl/src/widgets/bar/lv_bar.c ****     lv_area_t indic_area;
 468:Drivers/lvgl/src/widgets/bar/lv_bar.c ****     lv_area_copy(&indic_area, &bar->indic_area);
 469:Drivers/lvgl/src/widgets/bar/lv_bar.c **** 
 470:Drivers/lvgl/src/widgets/bar/lv_bar.c ****     lv_draw_rect_dsc_t draw_rect_dsc;
 471:Drivers/lvgl/src/widgets/bar/lv_bar.c ****     lv_draw_rect_dsc_init(&draw_rect_dsc);
 472:Drivers/lvgl/src/widgets/bar/lv_bar.c ****     draw_rect_dsc.base.layer = layer;
 473:Drivers/lvgl/src/widgets/bar/lv_bar.c ****     lv_obj_init_draw_rect_dsc(obj, LV_PART_INDICATOR, &draw_rect_dsc);
 474:Drivers/lvgl/src/widgets/bar/lv_bar.c **** 
 475:Drivers/lvgl/src/widgets/bar/lv_bar.c ****     int32_t bg_radius = lv_obj_get_style_radius(obj, LV_PART_MAIN);
 476:Drivers/lvgl/src/widgets/bar/lv_bar.c ****     int32_t short_side = LV_MIN(barw, barh);
 477:Drivers/lvgl/src/widgets/bar/lv_bar.c ****     if(bg_radius > short_side >> 1) bg_radius = short_side >> 1;
 478:Drivers/lvgl/src/widgets/bar/lv_bar.c **** 
 479:Drivers/lvgl/src/widgets/bar/lv_bar.c ****     int32_t indic_radius = draw_rect_dsc.radius;
 480:Drivers/lvgl/src/widgets/bar/lv_bar.c ****     short_side = LV_MIN(lv_area_get_width(&bar->indic_area), lv_area_get_height(&bar->indic_area));
 481:Drivers/lvgl/src/widgets/bar/lv_bar.c ****     if(indic_radius > short_side >> 1) indic_radius = short_side >> 1;
 482:Drivers/lvgl/src/widgets/bar/lv_bar.c **** 
 483:Drivers/lvgl/src/widgets/bar/lv_bar.c ****     /*Cases:
 484:Drivers/lvgl/src/widgets/bar/lv_bar.c ****      * Simple:
 485:Drivers/lvgl/src/widgets/bar/lv_bar.c ****      *   - indicator area is the same or smaller then the bg
 486:Drivers/lvgl/src/widgets/bar/lv_bar.c ****      *   - indicator has the same or larger radius than the bg
ARM GAS  /tmp/cc1kxWTq.s 			page 10


 487:Drivers/lvgl/src/widgets/bar/lv_bar.c ****      *   - what to do? just draw the indicator
 488:Drivers/lvgl/src/widgets/bar/lv_bar.c ****      * Radius issue:
 489:Drivers/lvgl/src/widgets/bar/lv_bar.c ****      *   - indicator area is the same or smaller then bg
 490:Drivers/lvgl/src/widgets/bar/lv_bar.c ****      *   - indicator has smaller radius than the bg and the indicator overflows on the corners
 491:Drivers/lvgl/src/widgets/bar/lv_bar.c ****      *   - what to do? draw the indicator on a layer and clip to bg radius
 492:Drivers/lvgl/src/widgets/bar/lv_bar.c ****      * Larger indicator:
 493:Drivers/lvgl/src/widgets/bar/lv_bar.c ****      *   - indicator area is the larger then the bg
 494:Drivers/lvgl/src/widgets/bar/lv_bar.c ****      *   - radius doesn't matter
 495:Drivers/lvgl/src/widgets/bar/lv_bar.c ****      *   - shadow doesn't matter
 496:Drivers/lvgl/src/widgets/bar/lv_bar.c ****      *   - what to do? just draw the indicator
 497:Drivers/lvgl/src/widgets/bar/lv_bar.c ****      * Shadow:
 498:Drivers/lvgl/src/widgets/bar/lv_bar.c ****      *   - indicator area is the same or smaller then the bg
 499:Drivers/lvgl/src/widgets/bar/lv_bar.c ****      *   - indicator has the same or larger radius than the bg (shadow needs to be drawn on strange
 500:Drivers/lvgl/src/widgets/bar/lv_bar.c ****      *   - what to do? don't draw the shadow if the indicator is too small has strange shape
 501:Drivers/lvgl/src/widgets/bar/lv_bar.c ****      * Gradient:
 502:Drivers/lvgl/src/widgets/bar/lv_bar.c ****      *   - the indicator has a gradient
 503:Drivers/lvgl/src/widgets/bar/lv_bar.c ****      *   - what to do? draw it on a bg sized layer clip the indicator are from the gradient
 504:Drivers/lvgl/src/widgets/bar/lv_bar.c ****      *
 505:Drivers/lvgl/src/widgets/bar/lv_bar.c ****      */
 506:Drivers/lvgl/src/widgets/bar/lv_bar.c **** 
 507:Drivers/lvgl/src/widgets/bar/lv_bar.c ****     bool mask_needed = false;
 508:Drivers/lvgl/src/widgets/bar/lv_bar.c ****     if(hor && draw_rect_dsc.bg_grad.dir == LV_GRAD_DIR_HOR) mask_needed = true;
 509:Drivers/lvgl/src/widgets/bar/lv_bar.c ****     else if(!hor && draw_rect_dsc.bg_grad.dir == LV_GRAD_DIR_VER) mask_needed = true;
 510:Drivers/lvgl/src/widgets/bar/lv_bar.c **** 
 511:Drivers/lvgl/src/widgets/bar/lv_bar.c ****     if(draw_rect_dsc.bg_image_src) mask_needed = true;
 512:Drivers/lvgl/src/widgets/bar/lv_bar.c **** 
 513:Drivers/lvgl/src/widgets/bar/lv_bar.c ****     bool radius_issue = true;
 514:Drivers/lvgl/src/widgets/bar/lv_bar.c ****     /*The indicator is fully drawn if it's larger than the bg*/
 515:Drivers/lvgl/src/widgets/bar/lv_bar.c ****     if((bg_left < 0 || bg_right < 0 || bg_top < 0 || bg_bottom < 0)) radius_issue = false;
 516:Drivers/lvgl/src/widgets/bar/lv_bar.c ****     else if(indic_radius >= bg_radius) radius_issue = false;
 517:Drivers/lvgl/src/widgets/bar/lv_bar.c ****     else if(lv_area_is_in(&indic_area, &bar_coords, bg_radius)) radius_issue = false;
 518:Drivers/lvgl/src/widgets/bar/lv_bar.c **** 
 519:Drivers/lvgl/src/widgets/bar/lv_bar.c ****     if(radius_issue || mask_needed) {
 520:Drivers/lvgl/src/widgets/bar/lv_bar.c ****         if(!radius_issue) {
 521:Drivers/lvgl/src/widgets/bar/lv_bar.c ****             /*Draw only the shadow*/
 522:Drivers/lvgl/src/widgets/bar/lv_bar.c ****             lv_draw_rect_dsc_t draw_tmp_dsc = draw_rect_dsc;
 523:Drivers/lvgl/src/widgets/bar/lv_bar.c ****             draw_tmp_dsc.border_opa = 0;
 524:Drivers/lvgl/src/widgets/bar/lv_bar.c ****             draw_tmp_dsc.outline_opa = 0;
 525:Drivers/lvgl/src/widgets/bar/lv_bar.c ****             draw_tmp_dsc.bg_opa = 0;
 526:Drivers/lvgl/src/widgets/bar/lv_bar.c ****             draw_tmp_dsc.bg_image_opa = 0;
 527:Drivers/lvgl/src/widgets/bar/lv_bar.c ****             lv_draw_rect(layer, &draw_tmp_dsc, &indic_area);
 528:Drivers/lvgl/src/widgets/bar/lv_bar.c ****         }
 529:Drivers/lvgl/src/widgets/bar/lv_bar.c ****         else {
 530:Drivers/lvgl/src/widgets/bar/lv_bar.c ****             draw_rect_dsc.border_opa = 0;
 531:Drivers/lvgl/src/widgets/bar/lv_bar.c ****             draw_rect_dsc.outline_opa = 0;
 532:Drivers/lvgl/src/widgets/bar/lv_bar.c ****         }
 533:Drivers/lvgl/src/widgets/bar/lv_bar.c ****         draw_rect_dsc.shadow_opa = 0;
 534:Drivers/lvgl/src/widgets/bar/lv_bar.c **** 
 535:Drivers/lvgl/src/widgets/bar/lv_bar.c ****         /*If clipped for any reason cannot the border, outline, and shadow
 536:Drivers/lvgl/src/widgets/bar/lv_bar.c ****          *as they would be clipped and looked ugly*/
 537:Drivers/lvgl/src/widgets/bar/lv_bar.c ****         lv_draw_rect_dsc_t draw_tmp_dsc = draw_rect_dsc;
 538:Drivers/lvgl/src/widgets/bar/lv_bar.c ****         draw_tmp_dsc.border_opa = 0;
 539:Drivers/lvgl/src/widgets/bar/lv_bar.c ****         draw_tmp_dsc.outline_opa = 0;
 540:Drivers/lvgl/src/widgets/bar/lv_bar.c ****         draw_tmp_dsc.shadow_opa = 0;
 541:Drivers/lvgl/src/widgets/bar/lv_bar.c ****         lv_area_t indic_draw_area = indic_area;
 542:Drivers/lvgl/src/widgets/bar/lv_bar.c ****         if(mask_needed) {
 543:Drivers/lvgl/src/widgets/bar/lv_bar.c ****             if(hor) {
ARM GAS  /tmp/cc1kxWTq.s 			page 11


 544:Drivers/lvgl/src/widgets/bar/lv_bar.c ****                 indic_draw_area.x1 = bar_coords.x1 + bg_left;
 545:Drivers/lvgl/src/widgets/bar/lv_bar.c ****                 indic_draw_area.x2 = bar_coords.x2 - bg_right;
 546:Drivers/lvgl/src/widgets/bar/lv_bar.c ****             }
 547:Drivers/lvgl/src/widgets/bar/lv_bar.c ****             else {
 548:Drivers/lvgl/src/widgets/bar/lv_bar.c ****                 indic_draw_area.y1 = bar_coords.y1 + bg_top;
 549:Drivers/lvgl/src/widgets/bar/lv_bar.c ****                 indic_draw_area.y2 = bar_coords.y2 - bg_bottom;
 550:Drivers/lvgl/src/widgets/bar/lv_bar.c ****             }
 551:Drivers/lvgl/src/widgets/bar/lv_bar.c ****             draw_tmp_dsc.radius = 0;
 552:Drivers/lvgl/src/widgets/bar/lv_bar.c ****         }
 553:Drivers/lvgl/src/widgets/bar/lv_bar.c **** 
 554:Drivers/lvgl/src/widgets/bar/lv_bar.c ****         lv_layer_t * layer_indic = lv_draw_layer_create(layer, LV_COLOR_FORMAT_ARGB8888, &indic_dra
 555:Drivers/lvgl/src/widgets/bar/lv_bar.c **** 
 556:Drivers/lvgl/src/widgets/bar/lv_bar.c ****         lv_draw_rect(layer_indic, &draw_tmp_dsc, &indic_draw_area);
 557:Drivers/lvgl/src/widgets/bar/lv_bar.c **** 
 558:Drivers/lvgl/src/widgets/bar/lv_bar.c ****         lv_draw_mask_rect_dsc_t mask_dsc;
 559:Drivers/lvgl/src/widgets/bar/lv_bar.c ****         lv_draw_mask_rect_dsc_init(&mask_dsc);
 560:Drivers/lvgl/src/widgets/bar/lv_bar.c ****         if(radius_issue) {
 561:Drivers/lvgl/src/widgets/bar/lv_bar.c ****             mask_dsc.area = bar_coords;
 562:Drivers/lvgl/src/widgets/bar/lv_bar.c ****             mask_dsc.radius = bg_radius;
 563:Drivers/lvgl/src/widgets/bar/lv_bar.c ****             lv_draw_mask_rect(layer_indic, &mask_dsc);
 564:Drivers/lvgl/src/widgets/bar/lv_bar.c ****         }
 565:Drivers/lvgl/src/widgets/bar/lv_bar.c **** 
 566:Drivers/lvgl/src/widgets/bar/lv_bar.c ****         if(mask_needed) {
 567:Drivers/lvgl/src/widgets/bar/lv_bar.c ****             mask_dsc.area = indic_area;
 568:Drivers/lvgl/src/widgets/bar/lv_bar.c ****             mask_dsc.radius = indic_radius;
 569:Drivers/lvgl/src/widgets/bar/lv_bar.c ****             lv_draw_mask_rect(layer_indic, &mask_dsc);
 570:Drivers/lvgl/src/widgets/bar/lv_bar.c ****         }
 571:Drivers/lvgl/src/widgets/bar/lv_bar.c **** 
 572:Drivers/lvgl/src/widgets/bar/lv_bar.c ****         lv_draw_image_dsc_t layer_draw_dsc;
 573:Drivers/lvgl/src/widgets/bar/lv_bar.c ****         lv_draw_image_dsc_init(&layer_draw_dsc);
 574:Drivers/lvgl/src/widgets/bar/lv_bar.c ****         layer_draw_dsc.src = layer_indic;
 575:Drivers/lvgl/src/widgets/bar/lv_bar.c ****         lv_draw_layer(layer, &layer_draw_dsc, &indic_draw_area);
 576:Drivers/lvgl/src/widgets/bar/lv_bar.c **** 
 577:Drivers/lvgl/src/widgets/bar/lv_bar.c ****         /*Add the border, outline, and shadow only to the indicator area.
 578:Drivers/lvgl/src/widgets/bar/lv_bar.c ****          *They might have disabled if there is a radius_issue*/
 579:Drivers/lvgl/src/widgets/bar/lv_bar.c ****         draw_tmp_dsc = draw_rect_dsc;
 580:Drivers/lvgl/src/widgets/bar/lv_bar.c ****         draw_tmp_dsc.bg_opa = 0;
 581:Drivers/lvgl/src/widgets/bar/lv_bar.c ****         draw_tmp_dsc.bg_image_opa = 0;
 582:Drivers/lvgl/src/widgets/bar/lv_bar.c ****         lv_draw_rect(layer, &draw_tmp_dsc, &indic_area);
 583:Drivers/lvgl/src/widgets/bar/lv_bar.c ****     }
 584:Drivers/lvgl/src/widgets/bar/lv_bar.c ****     else {
 585:Drivers/lvgl/src/widgets/bar/lv_bar.c ****         lv_draw_rect(layer, &draw_rect_dsc, &indic_area);
 586:Drivers/lvgl/src/widgets/bar/lv_bar.c ****     }
 587:Drivers/lvgl/src/widgets/bar/lv_bar.c **** }
 588:Drivers/lvgl/src/widgets/bar/lv_bar.c **** 
 589:Drivers/lvgl/src/widgets/bar/lv_bar.c **** static void lv_bar_event(const lv_obj_class_t * class_p, lv_event_t * e)
 590:Drivers/lvgl/src/widgets/bar/lv_bar.c **** {
 591:Drivers/lvgl/src/widgets/bar/lv_bar.c ****     LV_UNUSED(class_p);
 592:Drivers/lvgl/src/widgets/bar/lv_bar.c **** 
 593:Drivers/lvgl/src/widgets/bar/lv_bar.c ****     lv_result_t res;
 594:Drivers/lvgl/src/widgets/bar/lv_bar.c **** 
 595:Drivers/lvgl/src/widgets/bar/lv_bar.c ****     /*Call the ancestor's event handler*/
 596:Drivers/lvgl/src/widgets/bar/lv_bar.c ****     res = lv_obj_event_base(MY_CLASS, e);
 597:Drivers/lvgl/src/widgets/bar/lv_bar.c ****     if(res != LV_RESULT_OK) return;
 598:Drivers/lvgl/src/widgets/bar/lv_bar.c **** 
 599:Drivers/lvgl/src/widgets/bar/lv_bar.c ****     lv_event_code_t code = lv_event_get_code(e);
 600:Drivers/lvgl/src/widgets/bar/lv_bar.c ****     lv_obj_t * obj = lv_event_get_current_target(e);
ARM GAS  /tmp/cc1kxWTq.s 			page 12


 601:Drivers/lvgl/src/widgets/bar/lv_bar.c **** 
 602:Drivers/lvgl/src/widgets/bar/lv_bar.c ****     if(code == LV_EVENT_REFR_EXT_DRAW_SIZE) {
 603:Drivers/lvgl/src/widgets/bar/lv_bar.c ****         int32_t indic_size;
 604:Drivers/lvgl/src/widgets/bar/lv_bar.c ****         indic_size = lv_obj_calculate_ext_draw_size(obj, LV_PART_INDICATOR);
 605:Drivers/lvgl/src/widgets/bar/lv_bar.c **** 
 606:Drivers/lvgl/src/widgets/bar/lv_bar.c ****         /*Bg size is handled by lv_obj*/
 607:Drivers/lvgl/src/widgets/bar/lv_bar.c ****         int32_t * s = lv_event_get_param(e);
 608:Drivers/lvgl/src/widgets/bar/lv_bar.c ****         *s = LV_MAX(*s, indic_size);
 609:Drivers/lvgl/src/widgets/bar/lv_bar.c **** 
 610:Drivers/lvgl/src/widgets/bar/lv_bar.c ****         /*Calculate the indicator area*/
 611:Drivers/lvgl/src/widgets/bar/lv_bar.c ****         int32_t bg_left = lv_obj_get_style_pad_left(obj, LV_PART_MAIN);
 612:Drivers/lvgl/src/widgets/bar/lv_bar.c ****         int32_t bg_right = lv_obj_get_style_pad_right(obj, LV_PART_MAIN);
 613:Drivers/lvgl/src/widgets/bar/lv_bar.c ****         int32_t bg_top = lv_obj_get_style_pad_top(obj, LV_PART_MAIN);
 614:Drivers/lvgl/src/widgets/bar/lv_bar.c ****         int32_t bg_bottom = lv_obj_get_style_pad_bottom(obj, LV_PART_MAIN);
 615:Drivers/lvgl/src/widgets/bar/lv_bar.c **** 
 616:Drivers/lvgl/src/widgets/bar/lv_bar.c ****         int32_t pad = LV_MIN4(bg_left, bg_right, bg_top, bg_bottom);
 617:Drivers/lvgl/src/widgets/bar/lv_bar.c ****         if(pad < 0) {
 618:Drivers/lvgl/src/widgets/bar/lv_bar.c ****             *s = *s - pad;
 619:Drivers/lvgl/src/widgets/bar/lv_bar.c ****         }
 620:Drivers/lvgl/src/widgets/bar/lv_bar.c ****     }
 621:Drivers/lvgl/src/widgets/bar/lv_bar.c ****     else if(code == LV_EVENT_PRESSED || code == LV_EVENT_RELEASED) {
 622:Drivers/lvgl/src/widgets/bar/lv_bar.c ****         lv_bar_t * bar = (lv_bar_t *)obj;
 623:Drivers/lvgl/src/widgets/bar/lv_bar.c ****         lv_obj_invalidate_area(obj, &bar->indic_area);
 624:Drivers/lvgl/src/widgets/bar/lv_bar.c ****     }
 625:Drivers/lvgl/src/widgets/bar/lv_bar.c ****     else if(code == LV_EVENT_DRAW_MAIN) {
 626:Drivers/lvgl/src/widgets/bar/lv_bar.c ****         draw_indic(e);
 627:Drivers/lvgl/src/widgets/bar/lv_bar.c ****     }
 628:Drivers/lvgl/src/widgets/bar/lv_bar.c **** }
 629:Drivers/lvgl/src/widgets/bar/lv_bar.c **** 
 630:Drivers/lvgl/src/widgets/bar/lv_bar.c **** static void lv_bar_anim(void * var, int32_t value)
 631:Drivers/lvgl/src/widgets/bar/lv_bar.c **** {
 632:Drivers/lvgl/src/widgets/bar/lv_bar.c ****     lv_bar_anim_t * bar_anim = var;
 633:Drivers/lvgl/src/widgets/bar/lv_bar.c ****     bar_anim->anim_state    = value;
 634:Drivers/lvgl/src/widgets/bar/lv_bar.c ****     lv_obj_invalidate(bar_anim->bar);
 635:Drivers/lvgl/src/widgets/bar/lv_bar.c **** }
 636:Drivers/lvgl/src/widgets/bar/lv_bar.c **** 
 637:Drivers/lvgl/src/widgets/bar/lv_bar.c **** static void lv_bar_anim_completed(lv_anim_t * a)
 638:Drivers/lvgl/src/widgets/bar/lv_bar.c **** {
 639:Drivers/lvgl/src/widgets/bar/lv_bar.c ****     lv_bar_anim_t * var = a->var;
 640:Drivers/lvgl/src/widgets/bar/lv_bar.c ****     lv_obj_t * obj = (lv_obj_t *)var->bar;
 641:Drivers/lvgl/src/widgets/bar/lv_bar.c ****     lv_bar_t * bar = (lv_bar_t *)obj;
 642:Drivers/lvgl/src/widgets/bar/lv_bar.c **** 
 643:Drivers/lvgl/src/widgets/bar/lv_bar.c ****     var->anim_state = LV_BAR_ANIM_STATE_INV;
 644:Drivers/lvgl/src/widgets/bar/lv_bar.c ****     if(var == &bar->cur_value_anim)
 645:Drivers/lvgl/src/widgets/bar/lv_bar.c ****         bar->cur_value = var->anim_end;
 646:Drivers/lvgl/src/widgets/bar/lv_bar.c ****     else if(var == &bar->start_value_anim)
 647:Drivers/lvgl/src/widgets/bar/lv_bar.c ****         bar->start_value = var->anim_end;
 648:Drivers/lvgl/src/widgets/bar/lv_bar.c ****     lv_obj_invalidate(var->bar);
 649:Drivers/lvgl/src/widgets/bar/lv_bar.c **** }
 650:Drivers/lvgl/src/widgets/bar/lv_bar.c **** 
 651:Drivers/lvgl/src/widgets/bar/lv_bar.c **** static void lv_bar_set_value_with_anim(lv_obj_t * obj, int32_t new_value, int32_t * value_ptr,
 652:Drivers/lvgl/src/widgets/bar/lv_bar.c ****                                        lv_bar_anim_t * anim_info, lv_anim_enable_t en)
 653:Drivers/lvgl/src/widgets/bar/lv_bar.c **** {
 654:Drivers/lvgl/src/widgets/bar/lv_bar.c ****     if(en == LV_ANIM_OFF) {
 655:Drivers/lvgl/src/widgets/bar/lv_bar.c ****         lv_anim_delete(anim_info, NULL);
 656:Drivers/lvgl/src/widgets/bar/lv_bar.c ****         anim_info->anim_state = LV_BAR_ANIM_STATE_INV;
 657:Drivers/lvgl/src/widgets/bar/lv_bar.c ****         *value_ptr = new_value;
ARM GAS  /tmp/cc1kxWTq.s 			page 13


 658:Drivers/lvgl/src/widgets/bar/lv_bar.c ****         lv_obj_invalidate((lv_obj_t *)obj);
 659:Drivers/lvgl/src/widgets/bar/lv_bar.c **** 
 660:Drivers/lvgl/src/widgets/bar/lv_bar.c ****         /*Stop the previous animation if it exists*/
 661:Drivers/lvgl/src/widgets/bar/lv_bar.c ****         lv_anim_delete(anim_info, NULL);
 662:Drivers/lvgl/src/widgets/bar/lv_bar.c ****         /*Reset animation state*/
 663:Drivers/lvgl/src/widgets/bar/lv_bar.c ****         lv_bar_init_anim(obj, anim_info);
 664:Drivers/lvgl/src/widgets/bar/lv_bar.c ****     }
 665:Drivers/lvgl/src/widgets/bar/lv_bar.c ****     else {
 666:Drivers/lvgl/src/widgets/bar/lv_bar.c ****         /*No animation in progress -> simply set the values*/
 667:Drivers/lvgl/src/widgets/bar/lv_bar.c ****         if(anim_info->anim_state == LV_BAR_ANIM_STATE_INV) {
 668:Drivers/lvgl/src/widgets/bar/lv_bar.c ****             anim_info->anim_start = *value_ptr;
 669:Drivers/lvgl/src/widgets/bar/lv_bar.c ****             anim_info->anim_end   = new_value;
 670:Drivers/lvgl/src/widgets/bar/lv_bar.c ****         }
 671:Drivers/lvgl/src/widgets/bar/lv_bar.c ****         /*Animation in progress. Start from the animation end value*/
 672:Drivers/lvgl/src/widgets/bar/lv_bar.c ****         else {
 673:Drivers/lvgl/src/widgets/bar/lv_bar.c ****             anim_info->anim_start = anim_info->anim_end;
 674:Drivers/lvgl/src/widgets/bar/lv_bar.c ****             anim_info->anim_end   = new_value;
 675:Drivers/lvgl/src/widgets/bar/lv_bar.c ****         }
 676:Drivers/lvgl/src/widgets/bar/lv_bar.c ****         *value_ptr = new_value;
 677:Drivers/lvgl/src/widgets/bar/lv_bar.c ****         /*Stop the previous animation if it exists*/
 678:Drivers/lvgl/src/widgets/bar/lv_bar.c ****         lv_anim_delete(anim_info, NULL);
 679:Drivers/lvgl/src/widgets/bar/lv_bar.c **** 
 680:Drivers/lvgl/src/widgets/bar/lv_bar.c ****         lv_anim_t a;
 681:Drivers/lvgl/src/widgets/bar/lv_bar.c ****         lv_anim_init(&a);
 682:Drivers/lvgl/src/widgets/bar/lv_bar.c ****         lv_anim_set_var(&a, anim_info);
 683:Drivers/lvgl/src/widgets/bar/lv_bar.c ****         lv_anim_set_exec_cb(&a, lv_bar_anim);
 684:Drivers/lvgl/src/widgets/bar/lv_bar.c ****         lv_anim_set_values(&a, LV_BAR_ANIM_STATE_START, LV_BAR_ANIM_STATE_END);
 685:Drivers/lvgl/src/widgets/bar/lv_bar.c ****         lv_anim_set_completed_cb(&a, lv_bar_anim_completed);
 686:Drivers/lvgl/src/widgets/bar/lv_bar.c ****         lv_anim_set_duration(&a, lv_obj_get_style_anim_duration(obj, LV_PART_MAIN));
 687:Drivers/lvgl/src/widgets/bar/lv_bar.c ****         lv_anim_start(&a);
 688:Drivers/lvgl/src/widgets/bar/lv_bar.c ****     }
 689:Drivers/lvgl/src/widgets/bar/lv_bar.c **** }
 690:Drivers/lvgl/src/widgets/bar/lv_bar.c **** 
 691:Drivers/lvgl/src/widgets/bar/lv_bar.c **** static void lv_bar_init_anim(lv_obj_t * obj, lv_bar_anim_t * bar_anim)
 692:Drivers/lvgl/src/widgets/bar/lv_bar.c **** {
  29              		.loc 1 692 1 view -0
  30              		.cfi_startproc
  31              		@ args = 0, pretend = 0, frame = 0
  32              		@ frame_needed = 0, uses_anonymous_args = 0
  33              		@ link register save eliminated.
 693:Drivers/lvgl/src/widgets/bar/lv_bar.c ****     bar_anim->bar = obj;
  34              		.loc 1 693 5 view .LVU1
  35              		.loc 1 693 19 is_stmt 0 view .LVU2
  36 0000 0860     		str	r0, [r1]
 694:Drivers/lvgl/src/widgets/bar/lv_bar.c ****     bar_anim->anim_start = 0;
  37              		.loc 1 694 5 is_stmt 1 view .LVU3
  38              		.loc 1 694 26 is_stmt 0 view .LVU4
  39 0002 0023     		movs	r3, #0
  40 0004 4B60     		str	r3, [r1, #4]
 695:Drivers/lvgl/src/widgets/bar/lv_bar.c ****     bar_anim->anim_end = 0;
  41              		.loc 1 695 5 is_stmt 1 view .LVU5
  42              		.loc 1 695 24 is_stmt 0 view .LVU6
  43 0006 8B60     		str	r3, [r1, #8]
 696:Drivers/lvgl/src/widgets/bar/lv_bar.c ****     bar_anim->anim_state = LV_BAR_ANIM_STATE_INV;
  44              		.loc 1 696 5 is_stmt 1 view .LVU7
  45              		.loc 1 696 26 is_stmt 0 view .LVU8
  46 0008 4FF0FF33 		mov	r3, #-1
ARM GAS  /tmp/cc1kxWTq.s 			page 14


  47 000c CB60     		str	r3, [r1, #12]
 697:Drivers/lvgl/src/widgets/bar/lv_bar.c **** }
  48              		.loc 1 697 1 view .LVU9
  49 000e 7047     		bx	lr
  50              		.cfi_endproc
  51              	.LFE191:
  53              		.section	.text.lv_bar_destructor,"ax",%progbits
  54              		.align	1
  55              		.syntax unified
  56              		.thumb
  57              		.thumb_func
  59              	lv_bar_destructor:
  60              	.LVL1:
  61              	.LFB185:
 275:Drivers/lvgl/src/widgets/bar/lv_bar.c ****     LV_UNUSED(class_p);
  62              		.loc 1 275 1 is_stmt 1 view -0
  63              		.cfi_startproc
  64              		@ args = 0, pretend = 0, frame = 0
  65              		@ frame_needed = 0, uses_anonymous_args = 0
 275:Drivers/lvgl/src/widgets/bar/lv_bar.c ****     LV_UNUSED(class_p);
  66              		.loc 1 275 1 is_stmt 0 view .LVU11
  67 0000 10B5     		push	{r4, lr}
  68              	.LCFI0:
  69              		.cfi_def_cfa_offset 8
  70              		.cfi_offset 4, -8
  71              		.cfi_offset 14, -4
  72 0002 0C46     		mov	r4, r1
 276:Drivers/lvgl/src/widgets/bar/lv_bar.c ****     lv_bar_t * bar = (lv_bar_t *)obj;
  73              		.loc 1 276 5 is_stmt 1 view .LVU12
 277:Drivers/lvgl/src/widgets/bar/lv_bar.c **** 
  74              		.loc 1 277 5 view .LVU13
  75              	.LVL2:
 279:Drivers/lvgl/src/widgets/bar/lv_bar.c ****     lv_anim_delete(&bar->start_value_anim, NULL);
  76              		.loc 1 279 5 view .LVU14
  77 0004 0021     		movs	r1, #0
  78              	.LVL3:
 279:Drivers/lvgl/src/widgets/bar/lv_bar.c ****     lv_anim_delete(&bar->start_value_anim, NULL);
  79              		.loc 1 279 5 is_stmt 0 view .LVU15
  80 0006 04F15000 		add	r0, r4, #80
  81              	.LVL4:
 279:Drivers/lvgl/src/widgets/bar/lv_bar.c ****     lv_anim_delete(&bar->start_value_anim, NULL);
  82              		.loc 1 279 5 view .LVU16
  83 000a FFF7FEFF 		bl	lv_anim_delete
  84              	.LVL5:
 280:Drivers/lvgl/src/widgets/bar/lv_bar.c **** }
  85              		.loc 1 280 5 is_stmt 1 view .LVU17
  86 000e 0021     		movs	r1, #0
  87 0010 04F16000 		add	r0, r4, #96
  88 0014 FFF7FEFF 		bl	lv_anim_delete
  89              	.LVL6:
 281:Drivers/lvgl/src/widgets/bar/lv_bar.c **** 
  90              		.loc 1 281 1 is_stmt 0 view .LVU18
  91 0018 10BD     		pop	{r4, pc}
 281:Drivers/lvgl/src/widgets/bar/lv_bar.c **** 
  92              		.loc 1 281 1 view .LVU19
  93              		.cfi_endproc
  94              	.LFE185:
ARM GAS  /tmp/cc1kxWTq.s 			page 15


  96              		.section	.text.lv_bar_anim_completed,"ax",%progbits
  97              		.align	1
  98              		.syntax unified
  99              		.thumb
 100              		.thumb_func
 102              	lv_bar_anim_completed:
 103              	.LVL7:
 104              	.LFB189:
 638:Drivers/lvgl/src/widgets/bar/lv_bar.c ****     lv_bar_anim_t * var = a->var;
 105              		.loc 1 638 1 is_stmt 1 view -0
 106              		.cfi_startproc
 107              		@ args = 0, pretend = 0, frame = 0
 108              		@ frame_needed = 0, uses_anonymous_args = 0
 638:Drivers/lvgl/src/widgets/bar/lv_bar.c ****     lv_bar_anim_t * var = a->var;
 109              		.loc 1 638 1 is_stmt 0 view .LVU21
 110 0000 08B5     		push	{r3, lr}
 111              	.LCFI1:
 112              		.cfi_def_cfa_offset 8
 113              		.cfi_offset 3, -8
 114              		.cfi_offset 14, -4
 639:Drivers/lvgl/src/widgets/bar/lv_bar.c ****     lv_obj_t * obj = (lv_obj_t *)var->bar;
 115              		.loc 1 639 5 is_stmt 1 view .LVU22
 639:Drivers/lvgl/src/widgets/bar/lv_bar.c ****     lv_obj_t * obj = (lv_obj_t *)var->bar;
 116              		.loc 1 639 21 is_stmt 0 view .LVU23
 117 0002 0368     		ldr	r3, [r0]
 118              	.LVL8:
 640:Drivers/lvgl/src/widgets/bar/lv_bar.c ****     lv_bar_t * bar = (lv_bar_t *)obj;
 119              		.loc 1 640 5 is_stmt 1 view .LVU24
 640:Drivers/lvgl/src/widgets/bar/lv_bar.c ****     lv_bar_t * bar = (lv_bar_t *)obj;
 120              		.loc 1 640 16 is_stmt 0 view .LVU25
 121 0004 1A68     		ldr	r2, [r3]
 122              	.LVL9:
 641:Drivers/lvgl/src/widgets/bar/lv_bar.c **** 
 123              		.loc 1 641 5 is_stmt 1 view .LVU26
 643:Drivers/lvgl/src/widgets/bar/lv_bar.c ****     if(var == &bar->cur_value_anim)
 124              		.loc 1 643 5 view .LVU27
 643:Drivers/lvgl/src/widgets/bar/lv_bar.c ****     if(var == &bar->cur_value_anim)
 125              		.loc 1 643 21 is_stmt 0 view .LVU28
 126 0006 4FF0FF31 		mov	r1, #-1
 127 000a D960     		str	r1, [r3, #12]
 644:Drivers/lvgl/src/widgets/bar/lv_bar.c ****         bar->cur_value = var->anim_end;
 128              		.loc 1 644 5 is_stmt 1 view .LVU29
 644:Drivers/lvgl/src/widgets/bar/lv_bar.c ****         bar->cur_value = var->anim_end;
 129              		.loc 1 644 15 is_stmt 0 view .LVU30
 130 000c 02F15001 		add	r1, r2, #80
 644:Drivers/lvgl/src/widgets/bar/lv_bar.c ****         bar->cur_value = var->anim_end;
 131              		.loc 1 644 7 view .LVU31
 132 0010 9942     		cmp	r1, r3
 133 0012 07D0     		beq	.L8
 646:Drivers/lvgl/src/widgets/bar/lv_bar.c ****         bar->start_value = var->anim_end;
 134              		.loc 1 646 10 is_stmt 1 view .LVU32
 646:Drivers/lvgl/src/widgets/bar/lv_bar.c ****         bar->start_value = var->anim_end;
 135              		.loc 1 646 20 is_stmt 0 view .LVU33
 136 0014 02F16001 		add	r1, r2, #96
 646:Drivers/lvgl/src/widgets/bar/lv_bar.c ****         bar->start_value = var->anim_end;
 137              		.loc 1 646 12 view .LVU34
 138 0018 9942     		cmp	r1, r3
ARM GAS  /tmp/cc1kxWTq.s 			page 16


 139 001a 06D0     		beq	.L9
 140              	.L6:
 648:Drivers/lvgl/src/widgets/bar/lv_bar.c **** }
 141              		.loc 1 648 5 is_stmt 1 view .LVU35
 142 001c 1868     		ldr	r0, [r3]
 143              	.LVL10:
 648:Drivers/lvgl/src/widgets/bar/lv_bar.c **** }
 144              		.loc 1 648 5 is_stmt 0 view .LVU36
 145 001e FFF7FEFF 		bl	lv_obj_invalidate
 146              	.LVL11:
 649:Drivers/lvgl/src/widgets/bar/lv_bar.c **** 
 147              		.loc 1 649 1 view .LVU37
 148 0022 08BD     		pop	{r3, pc}
 149              	.LVL12:
 150              	.L8:
 645:Drivers/lvgl/src/widgets/bar/lv_bar.c ****     else if(var == &bar->start_value_anim)
 151              		.loc 1 645 9 is_stmt 1 view .LVU38
 645:Drivers/lvgl/src/widgets/bar/lv_bar.c ****     else if(var == &bar->start_value_anim)
 152              		.loc 1 645 29 is_stmt 0 view .LVU39
 153 0024 9968     		ldr	r1, [r3, #8]
 645:Drivers/lvgl/src/widgets/bar/lv_bar.c ****     else if(var == &bar->start_value_anim)
 154              		.loc 1 645 24 view .LVU40
 155 0026 D162     		str	r1, [r2, #44]
 156 0028 F8E7     		b	.L6
 157              	.L9:
 647:Drivers/lvgl/src/widgets/bar/lv_bar.c ****     lv_obj_invalidate(var->bar);
 158              		.loc 1 647 9 is_stmt 1 view .LVU41
 647:Drivers/lvgl/src/widgets/bar/lv_bar.c ****     lv_obj_invalidate(var->bar);
 159              		.loc 1 647 31 is_stmt 0 view .LVU42
 160 002a 9968     		ldr	r1, [r3, #8]
 647:Drivers/lvgl/src/widgets/bar/lv_bar.c ****     lv_obj_invalidate(var->bar);
 161              		.loc 1 647 26 view .LVU43
 162 002c 9163     		str	r1, [r2, #56]
 163 002e F5E7     		b	.L6
 164              		.cfi_endproc
 165              	.LFE189:
 167              		.section	.text.lv_bar_anim,"ax",%progbits
 168              		.align	1
 169              		.syntax unified
 170              		.thumb
 171              		.thumb_func
 173              	lv_bar_anim:
 174              	.LVL13:
 175              	.LFB188:
 631:Drivers/lvgl/src/widgets/bar/lv_bar.c ****     lv_bar_anim_t * bar_anim = var;
 176              		.loc 1 631 1 is_stmt 1 view -0
 177              		.cfi_startproc
 178              		@ args = 0, pretend = 0, frame = 0
 179              		@ frame_needed = 0, uses_anonymous_args = 0
 631:Drivers/lvgl/src/widgets/bar/lv_bar.c ****     lv_bar_anim_t * bar_anim = var;
 180              		.loc 1 631 1 is_stmt 0 view .LVU45
 181 0000 08B5     		push	{r3, lr}
 182              	.LCFI2:
 183              		.cfi_def_cfa_offset 8
 184              		.cfi_offset 3, -8
 185              		.cfi_offset 14, -4
 632:Drivers/lvgl/src/widgets/bar/lv_bar.c ****     bar_anim->anim_state    = value;
ARM GAS  /tmp/cc1kxWTq.s 			page 17


 186              		.loc 1 632 5 is_stmt 1 view .LVU46
 187              	.LVL14:
 633:Drivers/lvgl/src/widgets/bar/lv_bar.c ****     lv_obj_invalidate(bar_anim->bar);
 188              		.loc 1 633 5 view .LVU47
 633:Drivers/lvgl/src/widgets/bar/lv_bar.c ****     lv_obj_invalidate(bar_anim->bar);
 189              		.loc 1 633 29 is_stmt 0 view .LVU48
 190 0002 C160     		str	r1, [r0, #12]
 634:Drivers/lvgl/src/widgets/bar/lv_bar.c **** }
 191              		.loc 1 634 5 is_stmt 1 view .LVU49
 192 0004 0068     		ldr	r0, [r0]
 193              	.LVL15:
 634:Drivers/lvgl/src/widgets/bar/lv_bar.c **** }
 194              		.loc 1 634 5 is_stmt 0 view .LVU50
 195 0006 FFF7FEFF 		bl	lv_obj_invalidate
 196              	.LVL16:
 635:Drivers/lvgl/src/widgets/bar/lv_bar.c **** 
 197              		.loc 1 635 1 view .LVU51
 198 000a 08BD     		pop	{r3, pc}
 199              		.cfi_endproc
 200              	.LFE188:
 202              		.section	.text.lv_bar_set_value_with_anim,"ax",%progbits
 203              		.align	1
 204              		.syntax unified
 205              		.thumb
 206              		.thumb_func
 208              	lv_bar_set_value_with_anim:
 209              	.LVL17:
 210              	.LFB190:
 653:Drivers/lvgl/src/widgets/bar/lv_bar.c ****     if(en == LV_ANIM_OFF) {
 211              		.loc 1 653 1 is_stmt 1 view -0
 212              		.cfi_startproc
 213              		@ args = 4, pretend = 0, frame = 104
 214              		@ frame_needed = 0, uses_anonymous_args = 0
 653:Drivers/lvgl/src/widgets/bar/lv_bar.c ****     if(en == LV_ANIM_OFF) {
 215              		.loc 1 653 1 is_stmt 0 view .LVU53
 216 0000 F0B5     		push	{r4, r5, r6, r7, lr}
 217              	.LCFI3:
 218              		.cfi_def_cfa_offset 20
 219              		.cfi_offset 4, -20
 220              		.cfi_offset 5, -16
 221              		.cfi_offset 6, -12
 222              		.cfi_offset 7, -8
 223              		.cfi_offset 14, -4
 224 0002 9BB0     		sub	sp, sp, #108
 225              	.LCFI4:
 226              		.cfi_def_cfa_offset 128
 227 0004 0646     		mov	r6, r0
 228 0006 0D46     		mov	r5, r1
 229 0008 1746     		mov	r7, r2
 230 000a 1C46     		mov	r4, r3
 231 000c 9DF88030 		ldrb	r3, [sp, #128]	@ zero_extendqisi2
 232              	.LVL18:
 654:Drivers/lvgl/src/widgets/bar/lv_bar.c ****         lv_anim_delete(anim_info, NULL);
 233              		.loc 1 654 5 is_stmt 1 view .LVU54
 654:Drivers/lvgl/src/widgets/bar/lv_bar.c ****         lv_anim_delete(anim_info, NULL);
 234              		.loc 1 654 7 is_stmt 0 view .LVU55
 235 0010 83B3     		cbz	r3, .L18
ARM GAS  /tmp/cc1kxWTq.s 			page 18


 236              	.LBB43:
 667:Drivers/lvgl/src/widgets/bar/lv_bar.c ****             anim_info->anim_start = *value_ptr;
 237              		.loc 1 667 9 is_stmt 1 view .LVU56
 667:Drivers/lvgl/src/widgets/bar/lv_bar.c ****             anim_info->anim_start = *value_ptr;
 238              		.loc 1 667 21 is_stmt 0 view .LVU57
 239 0012 E368     		ldr	r3, [r4, #12]
 667:Drivers/lvgl/src/widgets/bar/lv_bar.c ****             anim_info->anim_start = *value_ptr;
 240              		.loc 1 667 11 view .LVU58
 241 0014 B3F1FF3F 		cmp	r3, #-1
 242 0018 40D0     		beq	.L19
 673:Drivers/lvgl/src/widgets/bar/lv_bar.c ****             anim_info->anim_end   = new_value;
 243              		.loc 1 673 13 is_stmt 1 view .LVU59
 673:Drivers/lvgl/src/widgets/bar/lv_bar.c ****             anim_info->anim_end   = new_value;
 244              		.loc 1 673 46 is_stmt 0 view .LVU60
 245 001a A368     		ldr	r3, [r4, #8]
 673:Drivers/lvgl/src/widgets/bar/lv_bar.c ****             anim_info->anim_end   = new_value;
 246              		.loc 1 673 35 view .LVU61
 247 001c 6360     		str	r3, [r4, #4]
 674:Drivers/lvgl/src/widgets/bar/lv_bar.c ****         }
 248              		.loc 1 674 13 is_stmt 1 view .LVU62
 674:Drivers/lvgl/src/widgets/bar/lv_bar.c ****         }
 249              		.loc 1 674 35 is_stmt 0 view .LVU63
 250 001e A160     		str	r1, [r4, #8]
 251              	.L16:
 676:Drivers/lvgl/src/widgets/bar/lv_bar.c ****         /*Stop the previous animation if it exists*/
 252              		.loc 1 676 9 is_stmt 1 view .LVU64
 676:Drivers/lvgl/src/widgets/bar/lv_bar.c ****         /*Stop the previous animation if it exists*/
 253              		.loc 1 676 20 is_stmt 0 view .LVU65
 254 0020 3D60     		str	r5, [r7]
 678:Drivers/lvgl/src/widgets/bar/lv_bar.c **** 
 255              		.loc 1 678 9 is_stmt 1 view .LVU66
 256 0022 0021     		movs	r1, #0
 257              	.LVL19:
 678:Drivers/lvgl/src/widgets/bar/lv_bar.c **** 
 258              		.loc 1 678 9 is_stmt 0 view .LVU67
 259 0024 2046     		mov	r0, r4
 260              	.LVL20:
 678:Drivers/lvgl/src/widgets/bar/lv_bar.c **** 
 261              		.loc 1 678 9 view .LVU68
 262 0026 FFF7FEFF 		bl	lv_anim_delete
 263              	.LVL21:
 680:Drivers/lvgl/src/widgets/bar/lv_bar.c ****         lv_anim_init(&a);
 264              		.loc 1 680 9 is_stmt 1 view .LVU69
 681:Drivers/lvgl/src/widgets/bar/lv_bar.c ****         lv_anim_set_var(&a, anim_info);
 265              		.loc 1 681 9 view .LVU70
 266 002a 02AD     		add	r5, sp, #8
 267              	.LVL22:
 681:Drivers/lvgl/src/widgets/bar/lv_bar.c ****         lv_anim_set_var(&a, anim_info);
 268              		.loc 1 681 9 is_stmt 0 view .LVU71
 269 002c 2846     		mov	r0, r5
 270 002e FFF7FEFF 		bl	lv_anim_init
 271              	.LVL23:
 682:Drivers/lvgl/src/widgets/bar/lv_bar.c ****         lv_anim_set_exec_cb(&a, lv_bar_anim);
 272              		.loc 1 682 9 is_stmt 1 view .LVU72
 273 0032 2146     		mov	r1, r4
 274 0034 2846     		mov	r0, r5
 275 0036 FFF7FEFF 		bl	lv_anim_set_var
ARM GAS  /tmp/cc1kxWTq.s 			page 19


 276              	.LVL24:
 683:Drivers/lvgl/src/widgets/bar/lv_bar.c ****         lv_anim_set_values(&a, LV_BAR_ANIM_STATE_START, LV_BAR_ANIM_STATE_END);
 277              		.loc 1 683 9 view .LVU73
 278 003a 1A49     		ldr	r1, .L20
 279 003c 2846     		mov	r0, r5
 280 003e FFF7FEFF 		bl	lv_anim_set_exec_cb
 281              	.LVL25:
 684:Drivers/lvgl/src/widgets/bar/lv_bar.c ****         lv_anim_set_completed_cb(&a, lv_bar_anim_completed);
 282              		.loc 1 684 9 view .LVU74
 283 0042 4FF48072 		mov	r2, #256
 284 0046 0021     		movs	r1, #0
 285 0048 2846     		mov	r0, r5
 286 004a FFF7FEFF 		bl	lv_anim_set_values
 287              	.LVL26:
 685:Drivers/lvgl/src/widgets/bar/lv_bar.c ****         lv_anim_set_duration(&a, lv_obj_get_style_anim_duration(obj, LV_PART_MAIN));
 288              		.loc 1 685 9 view .LVU75
 289 004e 1649     		ldr	r1, .L20+4
 290 0050 2846     		mov	r0, r5
 291 0052 FFF7FEFF 		bl	lv_anim_set_completed_cb
 292              	.LVL27:
 686:Drivers/lvgl/src/widgets/bar/lv_bar.c ****         lv_anim_start(&a);
 293              		.loc 1 686 9 view .LVU76
 294              	.LBB44:
 295              	.LBI44:
 296              		.file 2 "Drivers/lvgl/src/widgets/bar/../../core/lv_obj_style_gen.h"
   1:Drivers/lvgl/src/widgets/bar/../../core/lv_obj_style_gen.h **** 
   2:Drivers/lvgl/src/widgets/bar/../../core/lv_obj_style_gen.h **** /*
   3:Drivers/lvgl/src/widgets/bar/../../core/lv_obj_style_gen.h ****  **********************************************************************
   4:Drivers/lvgl/src/widgets/bar/../../core/lv_obj_style_gen.h ****  *                            DO NOT EDIT
   5:Drivers/lvgl/src/widgets/bar/../../core/lv_obj_style_gen.h ****  * This file is automatically generated by "style_api_gen.py"
   6:Drivers/lvgl/src/widgets/bar/../../core/lv_obj_style_gen.h ****  **********************************************************************
   7:Drivers/lvgl/src/widgets/bar/../../core/lv_obj_style_gen.h ****  */
   8:Drivers/lvgl/src/widgets/bar/../../core/lv_obj_style_gen.h **** 
   9:Drivers/lvgl/src/widgets/bar/../../core/lv_obj_style_gen.h **** 
  10:Drivers/lvgl/src/widgets/bar/../../core/lv_obj_style_gen.h **** #ifndef LV_OBJ_STYLE_GEN_H
  11:Drivers/lvgl/src/widgets/bar/../../core/lv_obj_style_gen.h **** #define LV_OBJ_STYLE_GEN_H
  12:Drivers/lvgl/src/widgets/bar/../../core/lv_obj_style_gen.h **** 
  13:Drivers/lvgl/src/widgets/bar/../../core/lv_obj_style_gen.h **** #ifdef __cplusplus
  14:Drivers/lvgl/src/widgets/bar/../../core/lv_obj_style_gen.h **** extern "C" {
  15:Drivers/lvgl/src/widgets/bar/../../core/lv_obj_style_gen.h **** #endif
  16:Drivers/lvgl/src/widgets/bar/../../core/lv_obj_style_gen.h **** 
  17:Drivers/lvgl/src/widgets/bar/../../core/lv_obj_style_gen.h **** #include "../misc/lv_area.h"
  18:Drivers/lvgl/src/widgets/bar/../../core/lv_obj_style_gen.h **** #include "../misc/lv_style.h"
  19:Drivers/lvgl/src/widgets/bar/../../core/lv_obj_style_gen.h **** #include "../core/lv_obj_style.h"
  20:Drivers/lvgl/src/widgets/bar/../../core/lv_obj_style_gen.h **** #include "../misc/lv_types.h"
  21:Drivers/lvgl/src/widgets/bar/../../core/lv_obj_style_gen.h **** 
  22:Drivers/lvgl/src/widgets/bar/../../core/lv_obj_style_gen.h **** static inline int32_t lv_obj_get_style_width(const lv_obj_t * obj, lv_part_t part)
  23:Drivers/lvgl/src/widgets/bar/../../core/lv_obj_style_gen.h **** {
  24:Drivers/lvgl/src/widgets/bar/../../core/lv_obj_style_gen.h ****     lv_style_value_t v = lv_obj_get_style_prop(obj, part, LV_STYLE_WIDTH);
  25:Drivers/lvgl/src/widgets/bar/../../core/lv_obj_style_gen.h ****     return (int32_t)v.num;
  26:Drivers/lvgl/src/widgets/bar/../../core/lv_obj_style_gen.h **** }
  27:Drivers/lvgl/src/widgets/bar/../../core/lv_obj_style_gen.h **** 
  28:Drivers/lvgl/src/widgets/bar/../../core/lv_obj_style_gen.h **** static inline int32_t lv_obj_get_style_min_width(const lv_obj_t * obj, lv_part_t part)
  29:Drivers/lvgl/src/widgets/bar/../../core/lv_obj_style_gen.h **** {
  30:Drivers/lvgl/src/widgets/bar/../../core/lv_obj_style_gen.h ****     lv_style_value_t v = lv_obj_get_style_prop(obj, part, LV_STYLE_MIN_WIDTH);
  31:Drivers/lvgl/src/widgets/bar/../../core/lv_obj_style_gen.h ****     return (int32_t)v.num;
  32:Drivers/lvgl/src/widgets/bar/../../core/lv_obj_style_gen.h **** }
ARM GAS  /tmp/cc1kxWTq.s 			page 20


  33:Drivers/lvgl/src/widgets/bar/../../core/lv_obj_style_gen.h **** 
  34:Drivers/lvgl/src/widgets/bar/../../core/lv_obj_style_gen.h **** static inline int32_t lv_obj_get_style_max_width(const lv_obj_t * obj, lv_part_t part)
  35:Drivers/lvgl/src/widgets/bar/../../core/lv_obj_style_gen.h **** {
  36:Drivers/lvgl/src/widgets/bar/../../core/lv_obj_style_gen.h ****     lv_style_value_t v = lv_obj_get_style_prop(obj, part, LV_STYLE_MAX_WIDTH);
  37:Drivers/lvgl/src/widgets/bar/../../core/lv_obj_style_gen.h ****     return (int32_t)v.num;
  38:Drivers/lvgl/src/widgets/bar/../../core/lv_obj_style_gen.h **** }
  39:Drivers/lvgl/src/widgets/bar/../../core/lv_obj_style_gen.h **** 
  40:Drivers/lvgl/src/widgets/bar/../../core/lv_obj_style_gen.h **** static inline int32_t lv_obj_get_style_height(const lv_obj_t * obj, lv_part_t part)
  41:Drivers/lvgl/src/widgets/bar/../../core/lv_obj_style_gen.h **** {
  42:Drivers/lvgl/src/widgets/bar/../../core/lv_obj_style_gen.h ****     lv_style_value_t v = lv_obj_get_style_prop(obj, part, LV_STYLE_HEIGHT);
  43:Drivers/lvgl/src/widgets/bar/../../core/lv_obj_style_gen.h ****     return (int32_t)v.num;
  44:Drivers/lvgl/src/widgets/bar/../../core/lv_obj_style_gen.h **** }
  45:Drivers/lvgl/src/widgets/bar/../../core/lv_obj_style_gen.h **** 
  46:Drivers/lvgl/src/widgets/bar/../../core/lv_obj_style_gen.h **** static inline int32_t lv_obj_get_style_min_height(const lv_obj_t * obj, lv_part_t part)
  47:Drivers/lvgl/src/widgets/bar/../../core/lv_obj_style_gen.h **** {
  48:Drivers/lvgl/src/widgets/bar/../../core/lv_obj_style_gen.h ****     lv_style_value_t v = lv_obj_get_style_prop(obj, part, LV_STYLE_MIN_HEIGHT);
  49:Drivers/lvgl/src/widgets/bar/../../core/lv_obj_style_gen.h ****     return (int32_t)v.num;
  50:Drivers/lvgl/src/widgets/bar/../../core/lv_obj_style_gen.h **** }
  51:Drivers/lvgl/src/widgets/bar/../../core/lv_obj_style_gen.h **** 
  52:Drivers/lvgl/src/widgets/bar/../../core/lv_obj_style_gen.h **** static inline int32_t lv_obj_get_style_max_height(const lv_obj_t * obj, lv_part_t part)
  53:Drivers/lvgl/src/widgets/bar/../../core/lv_obj_style_gen.h **** {
  54:Drivers/lvgl/src/widgets/bar/../../core/lv_obj_style_gen.h ****     lv_style_value_t v = lv_obj_get_style_prop(obj, part, LV_STYLE_MAX_HEIGHT);
  55:Drivers/lvgl/src/widgets/bar/../../core/lv_obj_style_gen.h ****     return (int32_t)v.num;
  56:Drivers/lvgl/src/widgets/bar/../../core/lv_obj_style_gen.h **** }
  57:Drivers/lvgl/src/widgets/bar/../../core/lv_obj_style_gen.h **** 
  58:Drivers/lvgl/src/widgets/bar/../../core/lv_obj_style_gen.h **** static inline int32_t lv_obj_get_style_length(const lv_obj_t * obj, lv_part_t part)
  59:Drivers/lvgl/src/widgets/bar/../../core/lv_obj_style_gen.h **** {
  60:Drivers/lvgl/src/widgets/bar/../../core/lv_obj_style_gen.h ****     lv_style_value_t v = lv_obj_get_style_prop(obj, part, LV_STYLE_LENGTH);
  61:Drivers/lvgl/src/widgets/bar/../../core/lv_obj_style_gen.h ****     return (int32_t)v.num;
  62:Drivers/lvgl/src/widgets/bar/../../core/lv_obj_style_gen.h **** }
  63:Drivers/lvgl/src/widgets/bar/../../core/lv_obj_style_gen.h **** 
  64:Drivers/lvgl/src/widgets/bar/../../core/lv_obj_style_gen.h **** static inline int32_t lv_obj_get_style_x(const lv_obj_t * obj, lv_part_t part)
  65:Drivers/lvgl/src/widgets/bar/../../core/lv_obj_style_gen.h **** {
  66:Drivers/lvgl/src/widgets/bar/../../core/lv_obj_style_gen.h ****     lv_style_value_t v = lv_obj_get_style_prop(obj, part, LV_STYLE_X);
  67:Drivers/lvgl/src/widgets/bar/../../core/lv_obj_style_gen.h ****     return (int32_t)v.num;
  68:Drivers/lvgl/src/widgets/bar/../../core/lv_obj_style_gen.h **** }
  69:Drivers/lvgl/src/widgets/bar/../../core/lv_obj_style_gen.h **** 
  70:Drivers/lvgl/src/widgets/bar/../../core/lv_obj_style_gen.h **** static inline int32_t lv_obj_get_style_y(const lv_obj_t * obj, lv_part_t part)
  71:Drivers/lvgl/src/widgets/bar/../../core/lv_obj_style_gen.h **** {
  72:Drivers/lvgl/src/widgets/bar/../../core/lv_obj_style_gen.h ****     lv_style_value_t v = lv_obj_get_style_prop(obj, part, LV_STYLE_Y);
  73:Drivers/lvgl/src/widgets/bar/../../core/lv_obj_style_gen.h ****     return (int32_t)v.num;
  74:Drivers/lvgl/src/widgets/bar/../../core/lv_obj_style_gen.h **** }
  75:Drivers/lvgl/src/widgets/bar/../../core/lv_obj_style_gen.h **** 
  76:Drivers/lvgl/src/widgets/bar/../../core/lv_obj_style_gen.h **** static inline lv_align_t lv_obj_get_style_align(const lv_obj_t * obj, lv_part_t part)
  77:Drivers/lvgl/src/widgets/bar/../../core/lv_obj_style_gen.h **** {
  78:Drivers/lvgl/src/widgets/bar/../../core/lv_obj_style_gen.h ****     lv_style_value_t v = lv_obj_get_style_prop(obj, part, LV_STYLE_ALIGN);
  79:Drivers/lvgl/src/widgets/bar/../../core/lv_obj_style_gen.h ****     return (lv_align_t)v.num;
  80:Drivers/lvgl/src/widgets/bar/../../core/lv_obj_style_gen.h **** }
  81:Drivers/lvgl/src/widgets/bar/../../core/lv_obj_style_gen.h **** 
  82:Drivers/lvgl/src/widgets/bar/../../core/lv_obj_style_gen.h **** static inline int32_t lv_obj_get_style_transform_width(const lv_obj_t * obj, lv_part_t part)
  83:Drivers/lvgl/src/widgets/bar/../../core/lv_obj_style_gen.h **** {
  84:Drivers/lvgl/src/widgets/bar/../../core/lv_obj_style_gen.h ****     lv_style_value_t v = lv_obj_get_style_prop(obj, part, LV_STYLE_TRANSFORM_WIDTH);
  85:Drivers/lvgl/src/widgets/bar/../../core/lv_obj_style_gen.h ****     return (int32_t)v.num;
  86:Drivers/lvgl/src/widgets/bar/../../core/lv_obj_style_gen.h **** }
  87:Drivers/lvgl/src/widgets/bar/../../core/lv_obj_style_gen.h **** 
  88:Drivers/lvgl/src/widgets/bar/../../core/lv_obj_style_gen.h **** static inline int32_t lv_obj_get_style_transform_height(const lv_obj_t * obj, lv_part_t part)
  89:Drivers/lvgl/src/widgets/bar/../../core/lv_obj_style_gen.h **** {
ARM GAS  /tmp/cc1kxWTq.s 			page 21


  90:Drivers/lvgl/src/widgets/bar/../../core/lv_obj_style_gen.h ****     lv_style_value_t v = lv_obj_get_style_prop(obj, part, LV_STYLE_TRANSFORM_HEIGHT);
  91:Drivers/lvgl/src/widgets/bar/../../core/lv_obj_style_gen.h ****     return (int32_t)v.num;
  92:Drivers/lvgl/src/widgets/bar/../../core/lv_obj_style_gen.h **** }
  93:Drivers/lvgl/src/widgets/bar/../../core/lv_obj_style_gen.h **** 
  94:Drivers/lvgl/src/widgets/bar/../../core/lv_obj_style_gen.h **** static inline int32_t lv_obj_get_style_translate_x(const lv_obj_t * obj, lv_part_t part)
  95:Drivers/lvgl/src/widgets/bar/../../core/lv_obj_style_gen.h **** {
  96:Drivers/lvgl/src/widgets/bar/../../core/lv_obj_style_gen.h ****     lv_style_value_t v = lv_obj_get_style_prop(obj, part, LV_STYLE_TRANSLATE_X);
  97:Drivers/lvgl/src/widgets/bar/../../core/lv_obj_style_gen.h ****     return (int32_t)v.num;
  98:Drivers/lvgl/src/widgets/bar/../../core/lv_obj_style_gen.h **** }
  99:Drivers/lvgl/src/widgets/bar/../../core/lv_obj_style_gen.h **** 
 100:Drivers/lvgl/src/widgets/bar/../../core/lv_obj_style_gen.h **** static inline int32_t lv_obj_get_style_translate_y(const lv_obj_t * obj, lv_part_t part)
 101:Drivers/lvgl/src/widgets/bar/../../core/lv_obj_style_gen.h **** {
 102:Drivers/lvgl/src/widgets/bar/../../core/lv_obj_style_gen.h ****     lv_style_value_t v = lv_obj_get_style_prop(obj, part, LV_STYLE_TRANSLATE_Y);
 103:Drivers/lvgl/src/widgets/bar/../../core/lv_obj_style_gen.h ****     return (int32_t)v.num;
 104:Drivers/lvgl/src/widgets/bar/../../core/lv_obj_style_gen.h **** }
 105:Drivers/lvgl/src/widgets/bar/../../core/lv_obj_style_gen.h **** 
 106:Drivers/lvgl/src/widgets/bar/../../core/lv_obj_style_gen.h **** static inline int32_t lv_obj_get_style_translate_radial(const lv_obj_t * obj, lv_part_t part)
 107:Drivers/lvgl/src/widgets/bar/../../core/lv_obj_style_gen.h **** {
 108:Drivers/lvgl/src/widgets/bar/../../core/lv_obj_style_gen.h ****     lv_style_value_t v = lv_obj_get_style_prop(obj, part, LV_STYLE_TRANSLATE_RADIAL);
 109:Drivers/lvgl/src/widgets/bar/../../core/lv_obj_style_gen.h ****     return (int32_t)v.num;
 110:Drivers/lvgl/src/widgets/bar/../../core/lv_obj_style_gen.h **** }
 111:Drivers/lvgl/src/widgets/bar/../../core/lv_obj_style_gen.h **** 
 112:Drivers/lvgl/src/widgets/bar/../../core/lv_obj_style_gen.h **** static inline int32_t lv_obj_get_style_transform_scale_x(const lv_obj_t * obj, lv_part_t part)
 113:Drivers/lvgl/src/widgets/bar/../../core/lv_obj_style_gen.h **** {
 114:Drivers/lvgl/src/widgets/bar/../../core/lv_obj_style_gen.h ****     lv_style_value_t v = lv_obj_get_style_prop(obj, part, LV_STYLE_TRANSFORM_SCALE_X);
 115:Drivers/lvgl/src/widgets/bar/../../core/lv_obj_style_gen.h ****     return (int32_t)v.num;
 116:Drivers/lvgl/src/widgets/bar/../../core/lv_obj_style_gen.h **** }
 117:Drivers/lvgl/src/widgets/bar/../../core/lv_obj_style_gen.h **** 
 118:Drivers/lvgl/src/widgets/bar/../../core/lv_obj_style_gen.h **** static inline int32_t lv_obj_get_style_transform_scale_y(const lv_obj_t * obj, lv_part_t part)
 119:Drivers/lvgl/src/widgets/bar/../../core/lv_obj_style_gen.h **** {
 120:Drivers/lvgl/src/widgets/bar/../../core/lv_obj_style_gen.h ****     lv_style_value_t v = lv_obj_get_style_prop(obj, part, LV_STYLE_TRANSFORM_SCALE_Y);
 121:Drivers/lvgl/src/widgets/bar/../../core/lv_obj_style_gen.h ****     return (int32_t)v.num;
 122:Drivers/lvgl/src/widgets/bar/../../core/lv_obj_style_gen.h **** }
 123:Drivers/lvgl/src/widgets/bar/../../core/lv_obj_style_gen.h **** 
 124:Drivers/lvgl/src/widgets/bar/../../core/lv_obj_style_gen.h **** static inline int32_t lv_obj_get_style_transform_rotation(const lv_obj_t * obj, lv_part_t part)
 125:Drivers/lvgl/src/widgets/bar/../../core/lv_obj_style_gen.h **** {
 126:Drivers/lvgl/src/widgets/bar/../../core/lv_obj_style_gen.h ****     lv_style_value_t v = lv_obj_get_style_prop(obj, part, LV_STYLE_TRANSFORM_ROTATION);
 127:Drivers/lvgl/src/widgets/bar/../../core/lv_obj_style_gen.h ****     return (int32_t)v.num;
 128:Drivers/lvgl/src/widgets/bar/../../core/lv_obj_style_gen.h **** }
 129:Drivers/lvgl/src/widgets/bar/../../core/lv_obj_style_gen.h **** 
 130:Drivers/lvgl/src/widgets/bar/../../core/lv_obj_style_gen.h **** static inline int32_t lv_obj_get_style_transform_pivot_x(const lv_obj_t * obj, lv_part_t part)
 131:Drivers/lvgl/src/widgets/bar/../../core/lv_obj_style_gen.h **** {
 132:Drivers/lvgl/src/widgets/bar/../../core/lv_obj_style_gen.h ****     lv_style_value_t v = lv_obj_get_style_prop(obj, part, LV_STYLE_TRANSFORM_PIVOT_X);
 133:Drivers/lvgl/src/widgets/bar/../../core/lv_obj_style_gen.h ****     return (int32_t)v.num;
 134:Drivers/lvgl/src/widgets/bar/../../core/lv_obj_style_gen.h **** }
 135:Drivers/lvgl/src/widgets/bar/../../core/lv_obj_style_gen.h **** 
 136:Drivers/lvgl/src/widgets/bar/../../core/lv_obj_style_gen.h **** static inline int32_t lv_obj_get_style_transform_pivot_y(const lv_obj_t * obj, lv_part_t part)
 137:Drivers/lvgl/src/widgets/bar/../../core/lv_obj_style_gen.h **** {
 138:Drivers/lvgl/src/widgets/bar/../../core/lv_obj_style_gen.h ****     lv_style_value_t v = lv_obj_get_style_prop(obj, part, LV_STYLE_TRANSFORM_PIVOT_Y);
 139:Drivers/lvgl/src/widgets/bar/../../core/lv_obj_style_gen.h ****     return (int32_t)v.num;
 140:Drivers/lvgl/src/widgets/bar/../../core/lv_obj_style_gen.h **** }
 141:Drivers/lvgl/src/widgets/bar/../../core/lv_obj_style_gen.h **** 
 142:Drivers/lvgl/src/widgets/bar/../../core/lv_obj_style_gen.h **** static inline int32_t lv_obj_get_style_transform_skew_x(const lv_obj_t * obj, lv_part_t part)
 143:Drivers/lvgl/src/widgets/bar/../../core/lv_obj_style_gen.h **** {
 144:Drivers/lvgl/src/widgets/bar/../../core/lv_obj_style_gen.h ****     lv_style_value_t v = lv_obj_get_style_prop(obj, part, LV_STYLE_TRANSFORM_SKEW_X);
 145:Drivers/lvgl/src/widgets/bar/../../core/lv_obj_style_gen.h ****     return (int32_t)v.num;
 146:Drivers/lvgl/src/widgets/bar/../../core/lv_obj_style_gen.h **** }
ARM GAS  /tmp/cc1kxWTq.s 			page 22


 147:Drivers/lvgl/src/widgets/bar/../../core/lv_obj_style_gen.h **** 
 148:Drivers/lvgl/src/widgets/bar/../../core/lv_obj_style_gen.h **** static inline int32_t lv_obj_get_style_transform_skew_y(const lv_obj_t * obj, lv_part_t part)
 149:Drivers/lvgl/src/widgets/bar/../../core/lv_obj_style_gen.h **** {
 150:Drivers/lvgl/src/widgets/bar/../../core/lv_obj_style_gen.h ****     lv_style_value_t v = lv_obj_get_style_prop(obj, part, LV_STYLE_TRANSFORM_SKEW_Y);
 151:Drivers/lvgl/src/widgets/bar/../../core/lv_obj_style_gen.h ****     return (int32_t)v.num;
 152:Drivers/lvgl/src/widgets/bar/../../core/lv_obj_style_gen.h **** }
 153:Drivers/lvgl/src/widgets/bar/../../core/lv_obj_style_gen.h **** 
 154:Drivers/lvgl/src/widgets/bar/../../core/lv_obj_style_gen.h **** static inline int32_t lv_obj_get_style_pad_top(const lv_obj_t * obj, lv_part_t part)
 155:Drivers/lvgl/src/widgets/bar/../../core/lv_obj_style_gen.h **** {
 156:Drivers/lvgl/src/widgets/bar/../../core/lv_obj_style_gen.h ****     lv_style_value_t v = lv_obj_get_style_prop(obj, part, LV_STYLE_PAD_TOP);
 157:Drivers/lvgl/src/widgets/bar/../../core/lv_obj_style_gen.h ****     return (int32_t)v.num;
 158:Drivers/lvgl/src/widgets/bar/../../core/lv_obj_style_gen.h **** }
 159:Drivers/lvgl/src/widgets/bar/../../core/lv_obj_style_gen.h **** 
 160:Drivers/lvgl/src/widgets/bar/../../core/lv_obj_style_gen.h **** static inline int32_t lv_obj_get_style_pad_bottom(const lv_obj_t * obj, lv_part_t part)
 161:Drivers/lvgl/src/widgets/bar/../../core/lv_obj_style_gen.h **** {
 162:Drivers/lvgl/src/widgets/bar/../../core/lv_obj_style_gen.h ****     lv_style_value_t v = lv_obj_get_style_prop(obj, part, LV_STYLE_PAD_BOTTOM);
 163:Drivers/lvgl/src/widgets/bar/../../core/lv_obj_style_gen.h ****     return (int32_t)v.num;
 164:Drivers/lvgl/src/widgets/bar/../../core/lv_obj_style_gen.h **** }
 165:Drivers/lvgl/src/widgets/bar/../../core/lv_obj_style_gen.h **** 
 166:Drivers/lvgl/src/widgets/bar/../../core/lv_obj_style_gen.h **** static inline int32_t lv_obj_get_style_pad_left(const lv_obj_t * obj, lv_part_t part)
 167:Drivers/lvgl/src/widgets/bar/../../core/lv_obj_style_gen.h **** {
 168:Drivers/lvgl/src/widgets/bar/../../core/lv_obj_style_gen.h ****     lv_style_value_t v = lv_obj_get_style_prop(obj, part, LV_STYLE_PAD_LEFT);
 169:Drivers/lvgl/src/widgets/bar/../../core/lv_obj_style_gen.h ****     return (int32_t)v.num;
 170:Drivers/lvgl/src/widgets/bar/../../core/lv_obj_style_gen.h **** }
 171:Drivers/lvgl/src/widgets/bar/../../core/lv_obj_style_gen.h **** 
 172:Drivers/lvgl/src/widgets/bar/../../core/lv_obj_style_gen.h **** static inline int32_t lv_obj_get_style_pad_right(const lv_obj_t * obj, lv_part_t part)
 173:Drivers/lvgl/src/widgets/bar/../../core/lv_obj_style_gen.h **** {
 174:Drivers/lvgl/src/widgets/bar/../../core/lv_obj_style_gen.h ****     lv_style_value_t v = lv_obj_get_style_prop(obj, part, LV_STYLE_PAD_RIGHT);
 175:Drivers/lvgl/src/widgets/bar/../../core/lv_obj_style_gen.h ****     return (int32_t)v.num;
 176:Drivers/lvgl/src/widgets/bar/../../core/lv_obj_style_gen.h **** }
 177:Drivers/lvgl/src/widgets/bar/../../core/lv_obj_style_gen.h **** 
 178:Drivers/lvgl/src/widgets/bar/../../core/lv_obj_style_gen.h **** static inline int32_t lv_obj_get_style_pad_row(const lv_obj_t * obj, lv_part_t part)
 179:Drivers/lvgl/src/widgets/bar/../../core/lv_obj_style_gen.h **** {
 180:Drivers/lvgl/src/widgets/bar/../../core/lv_obj_style_gen.h ****     lv_style_value_t v = lv_obj_get_style_prop(obj, part, LV_STYLE_PAD_ROW);
 181:Drivers/lvgl/src/widgets/bar/../../core/lv_obj_style_gen.h ****     return (int32_t)v.num;
 182:Drivers/lvgl/src/widgets/bar/../../core/lv_obj_style_gen.h **** }
 183:Drivers/lvgl/src/widgets/bar/../../core/lv_obj_style_gen.h **** 
 184:Drivers/lvgl/src/widgets/bar/../../core/lv_obj_style_gen.h **** static inline int32_t lv_obj_get_style_pad_column(const lv_obj_t * obj, lv_part_t part)
 185:Drivers/lvgl/src/widgets/bar/../../core/lv_obj_style_gen.h **** {
 186:Drivers/lvgl/src/widgets/bar/../../core/lv_obj_style_gen.h ****     lv_style_value_t v = lv_obj_get_style_prop(obj, part, LV_STYLE_PAD_COLUMN);
 187:Drivers/lvgl/src/widgets/bar/../../core/lv_obj_style_gen.h ****     return (int32_t)v.num;
 188:Drivers/lvgl/src/widgets/bar/../../core/lv_obj_style_gen.h **** }
 189:Drivers/lvgl/src/widgets/bar/../../core/lv_obj_style_gen.h **** 
 190:Drivers/lvgl/src/widgets/bar/../../core/lv_obj_style_gen.h **** static inline int32_t lv_obj_get_style_pad_radial(const lv_obj_t * obj, lv_part_t part)
 191:Drivers/lvgl/src/widgets/bar/../../core/lv_obj_style_gen.h **** {
 192:Drivers/lvgl/src/widgets/bar/../../core/lv_obj_style_gen.h ****     lv_style_value_t v = lv_obj_get_style_prop(obj, part, LV_STYLE_PAD_RADIAL);
 193:Drivers/lvgl/src/widgets/bar/../../core/lv_obj_style_gen.h ****     return (int32_t)v.num;
 194:Drivers/lvgl/src/widgets/bar/../../core/lv_obj_style_gen.h **** }
 195:Drivers/lvgl/src/widgets/bar/../../core/lv_obj_style_gen.h **** 
 196:Drivers/lvgl/src/widgets/bar/../../core/lv_obj_style_gen.h **** static inline int32_t lv_obj_get_style_margin_top(const lv_obj_t * obj, lv_part_t part)
 197:Drivers/lvgl/src/widgets/bar/../../core/lv_obj_style_gen.h **** {
 198:Drivers/lvgl/src/widgets/bar/../../core/lv_obj_style_gen.h ****     lv_style_value_t v = lv_obj_get_style_prop(obj, part, LV_STYLE_MARGIN_TOP);
 199:Drivers/lvgl/src/widgets/bar/../../core/lv_obj_style_gen.h ****     return (int32_t)v.num;
 200:Drivers/lvgl/src/widgets/bar/../../core/lv_obj_style_gen.h **** }
 201:Drivers/lvgl/src/widgets/bar/../../core/lv_obj_style_gen.h **** 
 202:Drivers/lvgl/src/widgets/bar/../../core/lv_obj_style_gen.h **** static inline int32_t lv_obj_get_style_margin_bottom(const lv_obj_t * obj, lv_part_t part)
 203:Drivers/lvgl/src/widgets/bar/../../core/lv_obj_style_gen.h **** {
ARM GAS  /tmp/cc1kxWTq.s 			page 23


 204:Drivers/lvgl/src/widgets/bar/../../core/lv_obj_style_gen.h ****     lv_style_value_t v = lv_obj_get_style_prop(obj, part, LV_STYLE_MARGIN_BOTTOM);
 205:Drivers/lvgl/src/widgets/bar/../../core/lv_obj_style_gen.h ****     return (int32_t)v.num;
 206:Drivers/lvgl/src/widgets/bar/../../core/lv_obj_style_gen.h **** }
 207:Drivers/lvgl/src/widgets/bar/../../core/lv_obj_style_gen.h **** 
 208:Drivers/lvgl/src/widgets/bar/../../core/lv_obj_style_gen.h **** static inline int32_t lv_obj_get_style_margin_left(const lv_obj_t * obj, lv_part_t part)
 209:Drivers/lvgl/src/widgets/bar/../../core/lv_obj_style_gen.h **** {
 210:Drivers/lvgl/src/widgets/bar/../../core/lv_obj_style_gen.h ****     lv_style_value_t v = lv_obj_get_style_prop(obj, part, LV_STYLE_MARGIN_LEFT);
 211:Drivers/lvgl/src/widgets/bar/../../core/lv_obj_style_gen.h ****     return (int32_t)v.num;
 212:Drivers/lvgl/src/widgets/bar/../../core/lv_obj_style_gen.h **** }
 213:Drivers/lvgl/src/widgets/bar/../../core/lv_obj_style_gen.h **** 
 214:Drivers/lvgl/src/widgets/bar/../../core/lv_obj_style_gen.h **** static inline int32_t lv_obj_get_style_margin_right(const lv_obj_t * obj, lv_part_t part)
 215:Drivers/lvgl/src/widgets/bar/../../core/lv_obj_style_gen.h **** {
 216:Drivers/lvgl/src/widgets/bar/../../core/lv_obj_style_gen.h ****     lv_style_value_t v = lv_obj_get_style_prop(obj, part, LV_STYLE_MARGIN_RIGHT);
 217:Drivers/lvgl/src/widgets/bar/../../core/lv_obj_style_gen.h ****     return (int32_t)v.num;
 218:Drivers/lvgl/src/widgets/bar/../../core/lv_obj_style_gen.h **** }
 219:Drivers/lvgl/src/widgets/bar/../../core/lv_obj_style_gen.h **** 
 220:Drivers/lvgl/src/widgets/bar/../../core/lv_obj_style_gen.h **** static inline lv_color_t lv_obj_get_style_bg_color(const lv_obj_t * obj, lv_part_t part)
 221:Drivers/lvgl/src/widgets/bar/../../core/lv_obj_style_gen.h **** {
 222:Drivers/lvgl/src/widgets/bar/../../core/lv_obj_style_gen.h ****     lv_style_value_t v = lv_obj_get_style_prop(obj, part, LV_STYLE_BG_COLOR);
 223:Drivers/lvgl/src/widgets/bar/../../core/lv_obj_style_gen.h ****     return v.color;
 224:Drivers/lvgl/src/widgets/bar/../../core/lv_obj_style_gen.h **** }
 225:Drivers/lvgl/src/widgets/bar/../../core/lv_obj_style_gen.h **** 
 226:Drivers/lvgl/src/widgets/bar/../../core/lv_obj_style_gen.h **** static inline lv_color_t lv_obj_get_style_bg_color_filtered(const lv_obj_t * obj, lv_part_t part)
 227:Drivers/lvgl/src/widgets/bar/../../core/lv_obj_style_gen.h **** {
 228:Drivers/lvgl/src/widgets/bar/../../core/lv_obj_style_gen.h ****     lv_style_value_t v = lv_obj_style_apply_color_filter(obj, part, lv_obj_get_style_prop(obj, part
 229:Drivers/lvgl/src/widgets/bar/../../core/lv_obj_style_gen.h ****     return v.color;
 230:Drivers/lvgl/src/widgets/bar/../../core/lv_obj_style_gen.h **** }
 231:Drivers/lvgl/src/widgets/bar/../../core/lv_obj_style_gen.h **** 
 232:Drivers/lvgl/src/widgets/bar/../../core/lv_obj_style_gen.h **** static inline lv_opa_t lv_obj_get_style_bg_opa(const lv_obj_t * obj, lv_part_t part)
 233:Drivers/lvgl/src/widgets/bar/../../core/lv_obj_style_gen.h **** {
 234:Drivers/lvgl/src/widgets/bar/../../core/lv_obj_style_gen.h ****     lv_style_value_t v = lv_obj_get_style_prop(obj, part, LV_STYLE_BG_OPA);
 235:Drivers/lvgl/src/widgets/bar/../../core/lv_obj_style_gen.h ****     return (lv_opa_t)v.num;
 236:Drivers/lvgl/src/widgets/bar/../../core/lv_obj_style_gen.h **** }
 237:Drivers/lvgl/src/widgets/bar/../../core/lv_obj_style_gen.h **** 
 238:Drivers/lvgl/src/widgets/bar/../../core/lv_obj_style_gen.h **** static inline lv_color_t lv_obj_get_style_bg_grad_color(const lv_obj_t * obj, lv_part_t part)
 239:Drivers/lvgl/src/widgets/bar/../../core/lv_obj_style_gen.h **** {
 240:Drivers/lvgl/src/widgets/bar/../../core/lv_obj_style_gen.h ****     lv_style_value_t v = lv_obj_get_style_prop(obj, part, LV_STYLE_BG_GRAD_COLOR);
 241:Drivers/lvgl/src/widgets/bar/../../core/lv_obj_style_gen.h ****     return v.color;
 242:Drivers/lvgl/src/widgets/bar/../../core/lv_obj_style_gen.h **** }
 243:Drivers/lvgl/src/widgets/bar/../../core/lv_obj_style_gen.h **** 
 244:Drivers/lvgl/src/widgets/bar/../../core/lv_obj_style_gen.h **** static inline lv_color_t lv_obj_get_style_bg_grad_color_filtered(const lv_obj_t * obj, lv_part_t pa
 245:Drivers/lvgl/src/widgets/bar/../../core/lv_obj_style_gen.h **** {
 246:Drivers/lvgl/src/widgets/bar/../../core/lv_obj_style_gen.h ****     lv_style_value_t v = lv_obj_style_apply_color_filter(obj, part, lv_obj_get_style_prop(obj, part
 247:Drivers/lvgl/src/widgets/bar/../../core/lv_obj_style_gen.h ****     return v.color;
 248:Drivers/lvgl/src/widgets/bar/../../core/lv_obj_style_gen.h **** }
 249:Drivers/lvgl/src/widgets/bar/../../core/lv_obj_style_gen.h **** 
 250:Drivers/lvgl/src/widgets/bar/../../core/lv_obj_style_gen.h **** static inline lv_grad_dir_t lv_obj_get_style_bg_grad_dir(const lv_obj_t * obj, lv_part_t part)
 251:Drivers/lvgl/src/widgets/bar/../../core/lv_obj_style_gen.h **** {
 252:Drivers/lvgl/src/widgets/bar/../../core/lv_obj_style_gen.h ****     lv_style_value_t v = lv_obj_get_style_prop(obj, part, LV_STYLE_BG_GRAD_DIR);
 253:Drivers/lvgl/src/widgets/bar/../../core/lv_obj_style_gen.h ****     return (lv_grad_dir_t)v.num;
 254:Drivers/lvgl/src/widgets/bar/../../core/lv_obj_style_gen.h **** }
 255:Drivers/lvgl/src/widgets/bar/../../core/lv_obj_style_gen.h **** 
 256:Drivers/lvgl/src/widgets/bar/../../core/lv_obj_style_gen.h **** static inline int32_t lv_obj_get_style_bg_main_stop(const lv_obj_t * obj, lv_part_t part)
 257:Drivers/lvgl/src/widgets/bar/../../core/lv_obj_style_gen.h **** {
 258:Drivers/lvgl/src/widgets/bar/../../core/lv_obj_style_gen.h ****     lv_style_value_t v = lv_obj_get_style_prop(obj, part, LV_STYLE_BG_MAIN_STOP);
 259:Drivers/lvgl/src/widgets/bar/../../core/lv_obj_style_gen.h ****     return (int32_t)v.num;
 260:Drivers/lvgl/src/widgets/bar/../../core/lv_obj_style_gen.h **** }
ARM GAS  /tmp/cc1kxWTq.s 			page 24


 261:Drivers/lvgl/src/widgets/bar/../../core/lv_obj_style_gen.h **** 
 262:Drivers/lvgl/src/widgets/bar/../../core/lv_obj_style_gen.h **** static inline int32_t lv_obj_get_style_bg_grad_stop(const lv_obj_t * obj, lv_part_t part)
 263:Drivers/lvgl/src/widgets/bar/../../core/lv_obj_style_gen.h **** {
 264:Drivers/lvgl/src/widgets/bar/../../core/lv_obj_style_gen.h ****     lv_style_value_t v = lv_obj_get_style_prop(obj, part, LV_STYLE_BG_GRAD_STOP);
 265:Drivers/lvgl/src/widgets/bar/../../core/lv_obj_style_gen.h ****     return (int32_t)v.num;
 266:Drivers/lvgl/src/widgets/bar/../../core/lv_obj_style_gen.h **** }
 267:Drivers/lvgl/src/widgets/bar/../../core/lv_obj_style_gen.h **** 
 268:Drivers/lvgl/src/widgets/bar/../../core/lv_obj_style_gen.h **** static inline lv_opa_t lv_obj_get_style_bg_main_opa(const lv_obj_t * obj, lv_part_t part)
 269:Drivers/lvgl/src/widgets/bar/../../core/lv_obj_style_gen.h **** {
 270:Drivers/lvgl/src/widgets/bar/../../core/lv_obj_style_gen.h ****     lv_style_value_t v = lv_obj_get_style_prop(obj, part, LV_STYLE_BG_MAIN_OPA);
 271:Drivers/lvgl/src/widgets/bar/../../core/lv_obj_style_gen.h ****     return (lv_opa_t)v.num;
 272:Drivers/lvgl/src/widgets/bar/../../core/lv_obj_style_gen.h **** }
 273:Drivers/lvgl/src/widgets/bar/../../core/lv_obj_style_gen.h **** 
 274:Drivers/lvgl/src/widgets/bar/../../core/lv_obj_style_gen.h **** static inline lv_opa_t lv_obj_get_style_bg_grad_opa(const lv_obj_t * obj, lv_part_t part)
 275:Drivers/lvgl/src/widgets/bar/../../core/lv_obj_style_gen.h **** {
 276:Drivers/lvgl/src/widgets/bar/../../core/lv_obj_style_gen.h ****     lv_style_value_t v = lv_obj_get_style_prop(obj, part, LV_STYLE_BG_GRAD_OPA);
 277:Drivers/lvgl/src/widgets/bar/../../core/lv_obj_style_gen.h ****     return (lv_opa_t)v.num;
 278:Drivers/lvgl/src/widgets/bar/../../core/lv_obj_style_gen.h **** }
 279:Drivers/lvgl/src/widgets/bar/../../core/lv_obj_style_gen.h **** 
 280:Drivers/lvgl/src/widgets/bar/../../core/lv_obj_style_gen.h **** static inline const lv_grad_dsc_t * lv_obj_get_style_bg_grad(const lv_obj_t * obj, lv_part_t part)
 281:Drivers/lvgl/src/widgets/bar/../../core/lv_obj_style_gen.h **** {
 282:Drivers/lvgl/src/widgets/bar/../../core/lv_obj_style_gen.h ****     lv_style_value_t v = lv_obj_get_style_prop(obj, part, LV_STYLE_BG_GRAD);
 283:Drivers/lvgl/src/widgets/bar/../../core/lv_obj_style_gen.h ****     return (const lv_grad_dsc_t *)v.ptr;
 284:Drivers/lvgl/src/widgets/bar/../../core/lv_obj_style_gen.h **** }
 285:Drivers/lvgl/src/widgets/bar/../../core/lv_obj_style_gen.h **** 
 286:Drivers/lvgl/src/widgets/bar/../../core/lv_obj_style_gen.h **** static inline const void * lv_obj_get_style_bg_image_src(const lv_obj_t * obj, lv_part_t part)
 287:Drivers/lvgl/src/widgets/bar/../../core/lv_obj_style_gen.h **** {
 288:Drivers/lvgl/src/widgets/bar/../../core/lv_obj_style_gen.h ****     lv_style_value_t v = lv_obj_get_style_prop(obj, part, LV_STYLE_BG_IMAGE_SRC);
 289:Drivers/lvgl/src/widgets/bar/../../core/lv_obj_style_gen.h ****     return (const void *)v.ptr;
 290:Drivers/lvgl/src/widgets/bar/../../core/lv_obj_style_gen.h **** }
 291:Drivers/lvgl/src/widgets/bar/../../core/lv_obj_style_gen.h **** 
 292:Drivers/lvgl/src/widgets/bar/../../core/lv_obj_style_gen.h **** static inline lv_opa_t lv_obj_get_style_bg_image_opa(const lv_obj_t * obj, lv_part_t part)
 293:Drivers/lvgl/src/widgets/bar/../../core/lv_obj_style_gen.h **** {
 294:Drivers/lvgl/src/widgets/bar/../../core/lv_obj_style_gen.h ****     lv_style_value_t v = lv_obj_get_style_prop(obj, part, LV_STYLE_BG_IMAGE_OPA);
 295:Drivers/lvgl/src/widgets/bar/../../core/lv_obj_style_gen.h ****     return (lv_opa_t)v.num;
 296:Drivers/lvgl/src/widgets/bar/../../core/lv_obj_style_gen.h **** }
 297:Drivers/lvgl/src/widgets/bar/../../core/lv_obj_style_gen.h **** 
 298:Drivers/lvgl/src/widgets/bar/../../core/lv_obj_style_gen.h **** static inline lv_color_t lv_obj_get_style_bg_image_recolor(const lv_obj_t * obj, lv_part_t part)
 299:Drivers/lvgl/src/widgets/bar/../../core/lv_obj_style_gen.h **** {
 300:Drivers/lvgl/src/widgets/bar/../../core/lv_obj_style_gen.h ****     lv_style_value_t v = lv_obj_get_style_prop(obj, part, LV_STYLE_BG_IMAGE_RECOLOR);
 301:Drivers/lvgl/src/widgets/bar/../../core/lv_obj_style_gen.h ****     return v.color;
 302:Drivers/lvgl/src/widgets/bar/../../core/lv_obj_style_gen.h **** }
 303:Drivers/lvgl/src/widgets/bar/../../core/lv_obj_style_gen.h **** 
 304:Drivers/lvgl/src/widgets/bar/../../core/lv_obj_style_gen.h **** static inline lv_color_t lv_obj_get_style_bg_image_recolor_filtered(const lv_obj_t * obj, lv_part_t
 305:Drivers/lvgl/src/widgets/bar/../../core/lv_obj_style_gen.h **** {
 306:Drivers/lvgl/src/widgets/bar/../../core/lv_obj_style_gen.h ****     lv_style_value_t v = lv_obj_style_apply_color_filter(obj, part, lv_obj_get_style_prop(obj, part
 307:Drivers/lvgl/src/widgets/bar/../../core/lv_obj_style_gen.h ****     return v.color;
 308:Drivers/lvgl/src/widgets/bar/../../core/lv_obj_style_gen.h **** }
 309:Drivers/lvgl/src/widgets/bar/../../core/lv_obj_style_gen.h **** 
 310:Drivers/lvgl/src/widgets/bar/../../core/lv_obj_style_gen.h **** static inline lv_opa_t lv_obj_get_style_bg_image_recolor_opa(const lv_obj_t * obj, lv_part_t part)
 311:Drivers/lvgl/src/widgets/bar/../../core/lv_obj_style_gen.h **** {
 312:Drivers/lvgl/src/widgets/bar/../../core/lv_obj_style_gen.h ****     lv_style_value_t v = lv_obj_get_style_prop(obj, part, LV_STYLE_BG_IMAGE_RECOLOR_OPA);
 313:Drivers/lvgl/src/widgets/bar/../../core/lv_obj_style_gen.h ****     return (lv_opa_t)v.num;
 314:Drivers/lvgl/src/widgets/bar/../../core/lv_obj_style_gen.h **** }
 315:Drivers/lvgl/src/widgets/bar/../../core/lv_obj_style_gen.h **** 
 316:Drivers/lvgl/src/widgets/bar/../../core/lv_obj_style_gen.h **** static inline bool lv_obj_get_style_bg_image_tiled(const lv_obj_t * obj, lv_part_t part)
 317:Drivers/lvgl/src/widgets/bar/../../core/lv_obj_style_gen.h **** {
ARM GAS  /tmp/cc1kxWTq.s 			page 25


 318:Drivers/lvgl/src/widgets/bar/../../core/lv_obj_style_gen.h ****     lv_style_value_t v = lv_obj_get_style_prop(obj, part, LV_STYLE_BG_IMAGE_TILED);
 319:Drivers/lvgl/src/widgets/bar/../../core/lv_obj_style_gen.h ****     return (bool)v.num;
 320:Drivers/lvgl/src/widgets/bar/../../core/lv_obj_style_gen.h **** }
 321:Drivers/lvgl/src/widgets/bar/../../core/lv_obj_style_gen.h **** 
 322:Drivers/lvgl/src/widgets/bar/../../core/lv_obj_style_gen.h **** static inline lv_color_t lv_obj_get_style_border_color(const lv_obj_t * obj, lv_part_t part)
 323:Drivers/lvgl/src/widgets/bar/../../core/lv_obj_style_gen.h **** {
 324:Drivers/lvgl/src/widgets/bar/../../core/lv_obj_style_gen.h ****     lv_style_value_t v = lv_obj_get_style_prop(obj, part, LV_STYLE_BORDER_COLOR);
 325:Drivers/lvgl/src/widgets/bar/../../core/lv_obj_style_gen.h ****     return v.color;
 326:Drivers/lvgl/src/widgets/bar/../../core/lv_obj_style_gen.h **** }
 327:Drivers/lvgl/src/widgets/bar/../../core/lv_obj_style_gen.h **** 
 328:Drivers/lvgl/src/widgets/bar/../../core/lv_obj_style_gen.h **** static inline lv_color_t lv_obj_get_style_border_color_filtered(const lv_obj_t * obj, lv_part_t par
 329:Drivers/lvgl/src/widgets/bar/../../core/lv_obj_style_gen.h **** {
 330:Drivers/lvgl/src/widgets/bar/../../core/lv_obj_style_gen.h ****     lv_style_value_t v = lv_obj_style_apply_color_filter(obj, part, lv_obj_get_style_prop(obj, part
 331:Drivers/lvgl/src/widgets/bar/../../core/lv_obj_style_gen.h ****     return v.color;
 332:Drivers/lvgl/src/widgets/bar/../../core/lv_obj_style_gen.h **** }
 333:Drivers/lvgl/src/widgets/bar/../../core/lv_obj_style_gen.h **** 
 334:Drivers/lvgl/src/widgets/bar/../../core/lv_obj_style_gen.h **** static inline lv_opa_t lv_obj_get_style_border_opa(const lv_obj_t * obj, lv_part_t part)
 335:Drivers/lvgl/src/widgets/bar/../../core/lv_obj_style_gen.h **** {
 336:Drivers/lvgl/src/widgets/bar/../../core/lv_obj_style_gen.h ****     lv_style_value_t v = lv_obj_get_style_prop(obj, part, LV_STYLE_BORDER_OPA);
 337:Drivers/lvgl/src/widgets/bar/../../core/lv_obj_style_gen.h ****     return (lv_opa_t)v.num;
 338:Drivers/lvgl/src/widgets/bar/../../core/lv_obj_style_gen.h **** }
 339:Drivers/lvgl/src/widgets/bar/../../core/lv_obj_style_gen.h **** 
 340:Drivers/lvgl/src/widgets/bar/../../core/lv_obj_style_gen.h **** static inline int32_t lv_obj_get_style_border_width(const lv_obj_t * obj, lv_part_t part)
 341:Drivers/lvgl/src/widgets/bar/../../core/lv_obj_style_gen.h **** {
 342:Drivers/lvgl/src/widgets/bar/../../core/lv_obj_style_gen.h ****     lv_style_value_t v = lv_obj_get_style_prop(obj, part, LV_STYLE_BORDER_WIDTH);
 343:Drivers/lvgl/src/widgets/bar/../../core/lv_obj_style_gen.h ****     return (int32_t)v.num;
 344:Drivers/lvgl/src/widgets/bar/../../core/lv_obj_style_gen.h **** }
 345:Drivers/lvgl/src/widgets/bar/../../core/lv_obj_style_gen.h **** 
 346:Drivers/lvgl/src/widgets/bar/../../core/lv_obj_style_gen.h **** static inline lv_border_side_t lv_obj_get_style_border_side(const lv_obj_t * obj, lv_part_t part)
 347:Drivers/lvgl/src/widgets/bar/../../core/lv_obj_style_gen.h **** {
 348:Drivers/lvgl/src/widgets/bar/../../core/lv_obj_style_gen.h ****     lv_style_value_t v = lv_obj_get_style_prop(obj, part, LV_STYLE_BORDER_SIDE);
 349:Drivers/lvgl/src/widgets/bar/../../core/lv_obj_style_gen.h ****     return (lv_border_side_t)v.num;
 350:Drivers/lvgl/src/widgets/bar/../../core/lv_obj_style_gen.h **** }
 351:Drivers/lvgl/src/widgets/bar/../../core/lv_obj_style_gen.h **** 
 352:Drivers/lvgl/src/widgets/bar/../../core/lv_obj_style_gen.h **** static inline bool lv_obj_get_style_border_post(const lv_obj_t * obj, lv_part_t part)
 353:Drivers/lvgl/src/widgets/bar/../../core/lv_obj_style_gen.h **** {
 354:Drivers/lvgl/src/widgets/bar/../../core/lv_obj_style_gen.h ****     lv_style_value_t v = lv_obj_get_style_prop(obj, part, LV_STYLE_BORDER_POST);
 355:Drivers/lvgl/src/widgets/bar/../../core/lv_obj_style_gen.h ****     return (bool)v.num;
 356:Drivers/lvgl/src/widgets/bar/../../core/lv_obj_style_gen.h **** }
 357:Drivers/lvgl/src/widgets/bar/../../core/lv_obj_style_gen.h **** 
 358:Drivers/lvgl/src/widgets/bar/../../core/lv_obj_style_gen.h **** static inline int32_t lv_obj_get_style_outline_width(const lv_obj_t * obj, lv_part_t part)
 359:Drivers/lvgl/src/widgets/bar/../../core/lv_obj_style_gen.h **** {
 360:Drivers/lvgl/src/widgets/bar/../../core/lv_obj_style_gen.h ****     lv_style_value_t v = lv_obj_get_style_prop(obj, part, LV_STYLE_OUTLINE_WIDTH);
 361:Drivers/lvgl/src/widgets/bar/../../core/lv_obj_style_gen.h ****     return (int32_t)v.num;
 362:Drivers/lvgl/src/widgets/bar/../../core/lv_obj_style_gen.h **** }
 363:Drivers/lvgl/src/widgets/bar/../../core/lv_obj_style_gen.h **** 
 364:Drivers/lvgl/src/widgets/bar/../../core/lv_obj_style_gen.h **** static inline lv_color_t lv_obj_get_style_outline_color(const lv_obj_t * obj, lv_part_t part)
 365:Drivers/lvgl/src/widgets/bar/../../core/lv_obj_style_gen.h **** {
 366:Drivers/lvgl/src/widgets/bar/../../core/lv_obj_style_gen.h ****     lv_style_value_t v = lv_obj_get_style_prop(obj, part, LV_STYLE_OUTLINE_COLOR);
 367:Drivers/lvgl/src/widgets/bar/../../core/lv_obj_style_gen.h ****     return v.color;
 368:Drivers/lvgl/src/widgets/bar/../../core/lv_obj_style_gen.h **** }
 369:Drivers/lvgl/src/widgets/bar/../../core/lv_obj_style_gen.h **** 
 370:Drivers/lvgl/src/widgets/bar/../../core/lv_obj_style_gen.h **** static inline lv_color_t lv_obj_get_style_outline_color_filtered(const lv_obj_t * obj, lv_part_t pa
 371:Drivers/lvgl/src/widgets/bar/../../core/lv_obj_style_gen.h **** {
 372:Drivers/lvgl/src/widgets/bar/../../core/lv_obj_style_gen.h ****     lv_style_value_t v = lv_obj_style_apply_color_filter(obj, part, lv_obj_get_style_prop(obj, part
 373:Drivers/lvgl/src/widgets/bar/../../core/lv_obj_style_gen.h ****     return v.color;
 374:Drivers/lvgl/src/widgets/bar/../../core/lv_obj_style_gen.h **** }
ARM GAS  /tmp/cc1kxWTq.s 			page 26


 375:Drivers/lvgl/src/widgets/bar/../../core/lv_obj_style_gen.h **** 
 376:Drivers/lvgl/src/widgets/bar/../../core/lv_obj_style_gen.h **** static inline lv_opa_t lv_obj_get_style_outline_opa(const lv_obj_t * obj, lv_part_t part)
 377:Drivers/lvgl/src/widgets/bar/../../core/lv_obj_style_gen.h **** {
 378:Drivers/lvgl/src/widgets/bar/../../core/lv_obj_style_gen.h ****     lv_style_value_t v = lv_obj_get_style_prop(obj, part, LV_STYLE_OUTLINE_OPA);
 379:Drivers/lvgl/src/widgets/bar/../../core/lv_obj_style_gen.h ****     return (lv_opa_t)v.num;
 380:Drivers/lvgl/src/widgets/bar/../../core/lv_obj_style_gen.h **** }
 381:Drivers/lvgl/src/widgets/bar/../../core/lv_obj_style_gen.h **** 
 382:Drivers/lvgl/src/widgets/bar/../../core/lv_obj_style_gen.h **** static inline int32_t lv_obj_get_style_outline_pad(const lv_obj_t * obj, lv_part_t part)
 383:Drivers/lvgl/src/widgets/bar/../../core/lv_obj_style_gen.h **** {
 384:Drivers/lvgl/src/widgets/bar/../../core/lv_obj_style_gen.h ****     lv_style_value_t v = lv_obj_get_style_prop(obj, part, LV_STYLE_OUTLINE_PAD);
 385:Drivers/lvgl/src/widgets/bar/../../core/lv_obj_style_gen.h ****     return (int32_t)v.num;
 386:Drivers/lvgl/src/widgets/bar/../../core/lv_obj_style_gen.h **** }
 387:Drivers/lvgl/src/widgets/bar/../../core/lv_obj_style_gen.h **** 
 388:Drivers/lvgl/src/widgets/bar/../../core/lv_obj_style_gen.h **** static inline int32_t lv_obj_get_style_shadow_width(const lv_obj_t * obj, lv_part_t part)
 389:Drivers/lvgl/src/widgets/bar/../../core/lv_obj_style_gen.h **** {
 390:Drivers/lvgl/src/widgets/bar/../../core/lv_obj_style_gen.h ****     lv_style_value_t v = lv_obj_get_style_prop(obj, part, LV_STYLE_SHADOW_WIDTH);
 391:Drivers/lvgl/src/widgets/bar/../../core/lv_obj_style_gen.h ****     return (int32_t)v.num;
 392:Drivers/lvgl/src/widgets/bar/../../core/lv_obj_style_gen.h **** }
 393:Drivers/lvgl/src/widgets/bar/../../core/lv_obj_style_gen.h **** 
 394:Drivers/lvgl/src/widgets/bar/../../core/lv_obj_style_gen.h **** static inline int32_t lv_obj_get_style_shadow_offset_x(const lv_obj_t * obj, lv_part_t part)
 395:Drivers/lvgl/src/widgets/bar/../../core/lv_obj_style_gen.h **** {
 396:Drivers/lvgl/src/widgets/bar/../../core/lv_obj_style_gen.h ****     lv_style_value_t v = lv_obj_get_style_prop(obj, part, LV_STYLE_SHADOW_OFFSET_X);
 397:Drivers/lvgl/src/widgets/bar/../../core/lv_obj_style_gen.h ****     return (int32_t)v.num;
 398:Drivers/lvgl/src/widgets/bar/../../core/lv_obj_style_gen.h **** }
 399:Drivers/lvgl/src/widgets/bar/../../core/lv_obj_style_gen.h **** 
 400:Drivers/lvgl/src/widgets/bar/../../core/lv_obj_style_gen.h **** static inline int32_t lv_obj_get_style_shadow_offset_y(const lv_obj_t * obj, lv_part_t part)
 401:Drivers/lvgl/src/widgets/bar/../../core/lv_obj_style_gen.h **** {
 402:Drivers/lvgl/src/widgets/bar/../../core/lv_obj_style_gen.h ****     lv_style_value_t v = lv_obj_get_style_prop(obj, part, LV_STYLE_SHADOW_OFFSET_Y);
 403:Drivers/lvgl/src/widgets/bar/../../core/lv_obj_style_gen.h ****     return (int32_t)v.num;
 404:Drivers/lvgl/src/widgets/bar/../../core/lv_obj_style_gen.h **** }
 405:Drivers/lvgl/src/widgets/bar/../../core/lv_obj_style_gen.h **** 
 406:Drivers/lvgl/src/widgets/bar/../../core/lv_obj_style_gen.h **** static inline int32_t lv_obj_get_style_shadow_spread(const lv_obj_t * obj, lv_part_t part)
 407:Drivers/lvgl/src/widgets/bar/../../core/lv_obj_style_gen.h **** {
 408:Drivers/lvgl/src/widgets/bar/../../core/lv_obj_style_gen.h ****     lv_style_value_t v = lv_obj_get_style_prop(obj, part, LV_STYLE_SHADOW_SPREAD);
 409:Drivers/lvgl/src/widgets/bar/../../core/lv_obj_style_gen.h ****     return (int32_t)v.num;
 410:Drivers/lvgl/src/widgets/bar/../../core/lv_obj_style_gen.h **** }
 411:Drivers/lvgl/src/widgets/bar/../../core/lv_obj_style_gen.h **** 
 412:Drivers/lvgl/src/widgets/bar/../../core/lv_obj_style_gen.h **** static inline lv_color_t lv_obj_get_style_shadow_color(const lv_obj_t * obj, lv_part_t part)
 413:Drivers/lvgl/src/widgets/bar/../../core/lv_obj_style_gen.h **** {
 414:Drivers/lvgl/src/widgets/bar/../../core/lv_obj_style_gen.h ****     lv_style_value_t v = lv_obj_get_style_prop(obj, part, LV_STYLE_SHADOW_COLOR);
 415:Drivers/lvgl/src/widgets/bar/../../core/lv_obj_style_gen.h ****     return v.color;
 416:Drivers/lvgl/src/widgets/bar/../../core/lv_obj_style_gen.h **** }
 417:Drivers/lvgl/src/widgets/bar/../../core/lv_obj_style_gen.h **** 
 418:Drivers/lvgl/src/widgets/bar/../../core/lv_obj_style_gen.h **** static inline lv_color_t lv_obj_get_style_shadow_color_filtered(const lv_obj_t * obj, lv_part_t par
 419:Drivers/lvgl/src/widgets/bar/../../core/lv_obj_style_gen.h **** {
 420:Drivers/lvgl/src/widgets/bar/../../core/lv_obj_style_gen.h ****     lv_style_value_t v = lv_obj_style_apply_color_filter(obj, part, lv_obj_get_style_prop(obj, part
 421:Drivers/lvgl/src/widgets/bar/../../core/lv_obj_style_gen.h ****     return v.color;
 422:Drivers/lvgl/src/widgets/bar/../../core/lv_obj_style_gen.h **** }
 423:Drivers/lvgl/src/widgets/bar/../../core/lv_obj_style_gen.h **** 
 424:Drivers/lvgl/src/widgets/bar/../../core/lv_obj_style_gen.h **** static inline lv_opa_t lv_obj_get_style_shadow_opa(const lv_obj_t * obj, lv_part_t part)
 425:Drivers/lvgl/src/widgets/bar/../../core/lv_obj_style_gen.h **** {
 426:Drivers/lvgl/src/widgets/bar/../../core/lv_obj_style_gen.h ****     lv_style_value_t v = lv_obj_get_style_prop(obj, part, LV_STYLE_SHADOW_OPA);
 427:Drivers/lvgl/src/widgets/bar/../../core/lv_obj_style_gen.h ****     return (lv_opa_t)v.num;
 428:Drivers/lvgl/src/widgets/bar/../../core/lv_obj_style_gen.h **** }
 429:Drivers/lvgl/src/widgets/bar/../../core/lv_obj_style_gen.h **** 
 430:Drivers/lvgl/src/widgets/bar/../../core/lv_obj_style_gen.h **** static inline lv_opa_t lv_obj_get_style_image_opa(const lv_obj_t * obj, lv_part_t part)
 431:Drivers/lvgl/src/widgets/bar/../../core/lv_obj_style_gen.h **** {
ARM GAS  /tmp/cc1kxWTq.s 			page 27


 432:Drivers/lvgl/src/widgets/bar/../../core/lv_obj_style_gen.h ****     lv_style_value_t v = lv_obj_get_style_prop(obj, part, LV_STYLE_IMAGE_OPA);
 433:Drivers/lvgl/src/widgets/bar/../../core/lv_obj_style_gen.h ****     return (lv_opa_t)v.num;
 434:Drivers/lvgl/src/widgets/bar/../../core/lv_obj_style_gen.h **** }
 435:Drivers/lvgl/src/widgets/bar/../../core/lv_obj_style_gen.h **** 
 436:Drivers/lvgl/src/widgets/bar/../../core/lv_obj_style_gen.h **** static inline lv_color_t lv_obj_get_style_image_recolor(const lv_obj_t * obj, lv_part_t part)
 437:Drivers/lvgl/src/widgets/bar/../../core/lv_obj_style_gen.h **** {
 438:Drivers/lvgl/src/widgets/bar/../../core/lv_obj_style_gen.h ****     lv_style_value_t v = lv_obj_get_style_prop(obj, part, LV_STYLE_IMAGE_RECOLOR);
 439:Drivers/lvgl/src/widgets/bar/../../core/lv_obj_style_gen.h ****     return v.color;
 440:Drivers/lvgl/src/widgets/bar/../../core/lv_obj_style_gen.h **** }
 441:Drivers/lvgl/src/widgets/bar/../../core/lv_obj_style_gen.h **** 
 442:Drivers/lvgl/src/widgets/bar/../../core/lv_obj_style_gen.h **** static inline lv_color_t lv_obj_get_style_image_recolor_filtered(const lv_obj_t * obj, lv_part_t pa
 443:Drivers/lvgl/src/widgets/bar/../../core/lv_obj_style_gen.h **** {
 444:Drivers/lvgl/src/widgets/bar/../../core/lv_obj_style_gen.h ****     lv_style_value_t v = lv_obj_style_apply_color_filter(obj, part, lv_obj_get_style_prop(obj, part
 445:Drivers/lvgl/src/widgets/bar/../../core/lv_obj_style_gen.h ****     return v.color;
 446:Drivers/lvgl/src/widgets/bar/../../core/lv_obj_style_gen.h **** }
 447:Drivers/lvgl/src/widgets/bar/../../core/lv_obj_style_gen.h **** 
 448:Drivers/lvgl/src/widgets/bar/../../core/lv_obj_style_gen.h **** static inline lv_opa_t lv_obj_get_style_image_recolor_opa(const lv_obj_t * obj, lv_part_t part)
 449:Drivers/lvgl/src/widgets/bar/../../core/lv_obj_style_gen.h **** {
 450:Drivers/lvgl/src/widgets/bar/../../core/lv_obj_style_gen.h ****     lv_style_value_t v = lv_obj_get_style_prop(obj, part, LV_STYLE_IMAGE_RECOLOR_OPA);
 451:Drivers/lvgl/src/widgets/bar/../../core/lv_obj_style_gen.h ****     return (lv_opa_t)v.num;
 452:Drivers/lvgl/src/widgets/bar/../../core/lv_obj_style_gen.h **** }
 453:Drivers/lvgl/src/widgets/bar/../../core/lv_obj_style_gen.h **** 
 454:Drivers/lvgl/src/widgets/bar/../../core/lv_obj_style_gen.h **** static inline int32_t lv_obj_get_style_line_width(const lv_obj_t * obj, lv_part_t part)
 455:Drivers/lvgl/src/widgets/bar/../../core/lv_obj_style_gen.h **** {
 456:Drivers/lvgl/src/widgets/bar/../../core/lv_obj_style_gen.h ****     lv_style_value_t v = lv_obj_get_style_prop(obj, part, LV_STYLE_LINE_WIDTH);
 457:Drivers/lvgl/src/widgets/bar/../../core/lv_obj_style_gen.h ****     return (int32_t)v.num;
 458:Drivers/lvgl/src/widgets/bar/../../core/lv_obj_style_gen.h **** }
 459:Drivers/lvgl/src/widgets/bar/../../core/lv_obj_style_gen.h **** 
 460:Drivers/lvgl/src/widgets/bar/../../core/lv_obj_style_gen.h **** static inline int32_t lv_obj_get_style_line_dash_width(const lv_obj_t * obj, lv_part_t part)
 461:Drivers/lvgl/src/widgets/bar/../../core/lv_obj_style_gen.h **** {
 462:Drivers/lvgl/src/widgets/bar/../../core/lv_obj_style_gen.h ****     lv_style_value_t v = lv_obj_get_style_prop(obj, part, LV_STYLE_LINE_DASH_WIDTH);
 463:Drivers/lvgl/src/widgets/bar/../../core/lv_obj_style_gen.h ****     return (int32_t)v.num;
 464:Drivers/lvgl/src/widgets/bar/../../core/lv_obj_style_gen.h **** }
 465:Drivers/lvgl/src/widgets/bar/../../core/lv_obj_style_gen.h **** 
 466:Drivers/lvgl/src/widgets/bar/../../core/lv_obj_style_gen.h **** static inline int32_t lv_obj_get_style_line_dash_gap(const lv_obj_t * obj, lv_part_t part)
 467:Drivers/lvgl/src/widgets/bar/../../core/lv_obj_style_gen.h **** {
 468:Drivers/lvgl/src/widgets/bar/../../core/lv_obj_style_gen.h ****     lv_style_value_t v = lv_obj_get_style_prop(obj, part, LV_STYLE_LINE_DASH_GAP);
 469:Drivers/lvgl/src/widgets/bar/../../core/lv_obj_style_gen.h ****     return (int32_t)v.num;
 470:Drivers/lvgl/src/widgets/bar/../../core/lv_obj_style_gen.h **** }
 471:Drivers/lvgl/src/widgets/bar/../../core/lv_obj_style_gen.h **** 
 472:Drivers/lvgl/src/widgets/bar/../../core/lv_obj_style_gen.h **** static inline bool lv_obj_get_style_line_rounded(const lv_obj_t * obj, lv_part_t part)
 473:Drivers/lvgl/src/widgets/bar/../../core/lv_obj_style_gen.h **** {
 474:Drivers/lvgl/src/widgets/bar/../../core/lv_obj_style_gen.h ****     lv_style_value_t v = lv_obj_get_style_prop(obj, part, LV_STYLE_LINE_ROUNDED);
 475:Drivers/lvgl/src/widgets/bar/../../core/lv_obj_style_gen.h ****     return (bool)v.num;
 476:Drivers/lvgl/src/widgets/bar/../../core/lv_obj_style_gen.h **** }
 477:Drivers/lvgl/src/widgets/bar/../../core/lv_obj_style_gen.h **** 
 478:Drivers/lvgl/src/widgets/bar/../../core/lv_obj_style_gen.h **** static inline lv_color_t lv_obj_get_style_line_color(const lv_obj_t * obj, lv_part_t part)
 479:Drivers/lvgl/src/widgets/bar/../../core/lv_obj_style_gen.h **** {
 480:Drivers/lvgl/src/widgets/bar/../../core/lv_obj_style_gen.h ****     lv_style_value_t v = lv_obj_get_style_prop(obj, part, LV_STYLE_LINE_COLOR);
 481:Drivers/lvgl/src/widgets/bar/../../core/lv_obj_style_gen.h ****     return v.color;
 482:Drivers/lvgl/src/widgets/bar/../../core/lv_obj_style_gen.h **** }
 483:Drivers/lvgl/src/widgets/bar/../../core/lv_obj_style_gen.h **** 
 484:Drivers/lvgl/src/widgets/bar/../../core/lv_obj_style_gen.h **** static inline lv_color_t lv_obj_get_style_line_color_filtered(const lv_obj_t * obj, lv_part_t part)
 485:Drivers/lvgl/src/widgets/bar/../../core/lv_obj_style_gen.h **** {
 486:Drivers/lvgl/src/widgets/bar/../../core/lv_obj_style_gen.h ****     lv_style_value_t v = lv_obj_style_apply_color_filter(obj, part, lv_obj_get_style_prop(obj, part
 487:Drivers/lvgl/src/widgets/bar/../../core/lv_obj_style_gen.h ****     return v.color;
 488:Drivers/lvgl/src/widgets/bar/../../core/lv_obj_style_gen.h **** }
ARM GAS  /tmp/cc1kxWTq.s 			page 28


 489:Drivers/lvgl/src/widgets/bar/../../core/lv_obj_style_gen.h **** 
 490:Drivers/lvgl/src/widgets/bar/../../core/lv_obj_style_gen.h **** static inline lv_opa_t lv_obj_get_style_line_opa(const lv_obj_t * obj, lv_part_t part)
 491:Drivers/lvgl/src/widgets/bar/../../core/lv_obj_style_gen.h **** {
 492:Drivers/lvgl/src/widgets/bar/../../core/lv_obj_style_gen.h ****     lv_style_value_t v = lv_obj_get_style_prop(obj, part, LV_STYLE_LINE_OPA);
 493:Drivers/lvgl/src/widgets/bar/../../core/lv_obj_style_gen.h ****     return (lv_opa_t)v.num;
 494:Drivers/lvgl/src/widgets/bar/../../core/lv_obj_style_gen.h **** }
 495:Drivers/lvgl/src/widgets/bar/../../core/lv_obj_style_gen.h **** 
 496:Drivers/lvgl/src/widgets/bar/../../core/lv_obj_style_gen.h **** static inline int32_t lv_obj_get_style_arc_width(const lv_obj_t * obj, lv_part_t part)
 497:Drivers/lvgl/src/widgets/bar/../../core/lv_obj_style_gen.h **** {
 498:Drivers/lvgl/src/widgets/bar/../../core/lv_obj_style_gen.h ****     lv_style_value_t v = lv_obj_get_style_prop(obj, part, LV_STYLE_ARC_WIDTH);
 499:Drivers/lvgl/src/widgets/bar/../../core/lv_obj_style_gen.h ****     return (int32_t)v.num;
 500:Drivers/lvgl/src/widgets/bar/../../core/lv_obj_style_gen.h **** }
 501:Drivers/lvgl/src/widgets/bar/../../core/lv_obj_style_gen.h **** 
 502:Drivers/lvgl/src/widgets/bar/../../core/lv_obj_style_gen.h **** static inline bool lv_obj_get_style_arc_rounded(const lv_obj_t * obj, lv_part_t part)
 503:Drivers/lvgl/src/widgets/bar/../../core/lv_obj_style_gen.h **** {
 504:Drivers/lvgl/src/widgets/bar/../../core/lv_obj_style_gen.h ****     lv_style_value_t v = lv_obj_get_style_prop(obj, part, LV_STYLE_ARC_ROUNDED);
 505:Drivers/lvgl/src/widgets/bar/../../core/lv_obj_style_gen.h ****     return (bool)v.num;
 506:Drivers/lvgl/src/widgets/bar/../../core/lv_obj_style_gen.h **** }
 507:Drivers/lvgl/src/widgets/bar/../../core/lv_obj_style_gen.h **** 
 508:Drivers/lvgl/src/widgets/bar/../../core/lv_obj_style_gen.h **** static inline lv_color_t lv_obj_get_style_arc_color(const lv_obj_t * obj, lv_part_t part)
 509:Drivers/lvgl/src/widgets/bar/../../core/lv_obj_style_gen.h **** {
 510:Drivers/lvgl/src/widgets/bar/../../core/lv_obj_style_gen.h ****     lv_style_value_t v = lv_obj_get_style_prop(obj, part, LV_STYLE_ARC_COLOR);
 511:Drivers/lvgl/src/widgets/bar/../../core/lv_obj_style_gen.h ****     return v.color;
 512:Drivers/lvgl/src/widgets/bar/../../core/lv_obj_style_gen.h **** }
 513:Drivers/lvgl/src/widgets/bar/../../core/lv_obj_style_gen.h **** 
 514:Drivers/lvgl/src/widgets/bar/../../core/lv_obj_style_gen.h **** static inline lv_color_t lv_obj_get_style_arc_color_filtered(const lv_obj_t * obj, lv_part_t part)
 515:Drivers/lvgl/src/widgets/bar/../../core/lv_obj_style_gen.h **** {
 516:Drivers/lvgl/src/widgets/bar/../../core/lv_obj_style_gen.h ****     lv_style_value_t v = lv_obj_style_apply_color_filter(obj, part, lv_obj_get_style_prop(obj, part
 517:Drivers/lvgl/src/widgets/bar/../../core/lv_obj_style_gen.h ****     return v.color;
 518:Drivers/lvgl/src/widgets/bar/../../core/lv_obj_style_gen.h **** }
 519:Drivers/lvgl/src/widgets/bar/../../core/lv_obj_style_gen.h **** 
 520:Drivers/lvgl/src/widgets/bar/../../core/lv_obj_style_gen.h **** static inline lv_opa_t lv_obj_get_style_arc_opa(const lv_obj_t * obj, lv_part_t part)
 521:Drivers/lvgl/src/widgets/bar/../../core/lv_obj_style_gen.h **** {
 522:Drivers/lvgl/src/widgets/bar/../../core/lv_obj_style_gen.h ****     lv_style_value_t v = lv_obj_get_style_prop(obj, part, LV_STYLE_ARC_OPA);
 523:Drivers/lvgl/src/widgets/bar/../../core/lv_obj_style_gen.h ****     return (lv_opa_t)v.num;
 524:Drivers/lvgl/src/widgets/bar/../../core/lv_obj_style_gen.h **** }
 525:Drivers/lvgl/src/widgets/bar/../../core/lv_obj_style_gen.h **** 
 526:Drivers/lvgl/src/widgets/bar/../../core/lv_obj_style_gen.h **** static inline const void * lv_obj_get_style_arc_image_src(const lv_obj_t * obj, lv_part_t part)
 527:Drivers/lvgl/src/widgets/bar/../../core/lv_obj_style_gen.h **** {
 528:Drivers/lvgl/src/widgets/bar/../../core/lv_obj_style_gen.h ****     lv_style_value_t v = lv_obj_get_style_prop(obj, part, LV_STYLE_ARC_IMAGE_SRC);
 529:Drivers/lvgl/src/widgets/bar/../../core/lv_obj_style_gen.h ****     return (const void *)v.ptr;
 530:Drivers/lvgl/src/widgets/bar/../../core/lv_obj_style_gen.h **** }
 531:Drivers/lvgl/src/widgets/bar/../../core/lv_obj_style_gen.h **** 
 532:Drivers/lvgl/src/widgets/bar/../../core/lv_obj_style_gen.h **** static inline lv_color_t lv_obj_get_style_text_color(const lv_obj_t * obj, lv_part_t part)
 533:Drivers/lvgl/src/widgets/bar/../../core/lv_obj_style_gen.h **** {
 534:Drivers/lvgl/src/widgets/bar/../../core/lv_obj_style_gen.h ****     lv_style_value_t v = lv_obj_get_style_prop(obj, part, LV_STYLE_TEXT_COLOR);
 535:Drivers/lvgl/src/widgets/bar/../../core/lv_obj_style_gen.h ****     return v.color;
 536:Drivers/lvgl/src/widgets/bar/../../core/lv_obj_style_gen.h **** }
 537:Drivers/lvgl/src/widgets/bar/../../core/lv_obj_style_gen.h **** 
 538:Drivers/lvgl/src/widgets/bar/../../core/lv_obj_style_gen.h **** static inline lv_color_t lv_obj_get_style_text_color_filtered(const lv_obj_t * obj, lv_part_t part)
 539:Drivers/lvgl/src/widgets/bar/../../core/lv_obj_style_gen.h **** {
 540:Drivers/lvgl/src/widgets/bar/../../core/lv_obj_style_gen.h ****     lv_style_value_t v = lv_obj_style_apply_color_filter(obj, part, lv_obj_get_style_prop(obj, part
 541:Drivers/lvgl/src/widgets/bar/../../core/lv_obj_style_gen.h ****     return v.color;
 542:Drivers/lvgl/src/widgets/bar/../../core/lv_obj_style_gen.h **** }
 543:Drivers/lvgl/src/widgets/bar/../../core/lv_obj_style_gen.h **** 
 544:Drivers/lvgl/src/widgets/bar/../../core/lv_obj_style_gen.h **** static inline lv_opa_t lv_obj_get_style_text_opa(const lv_obj_t * obj, lv_part_t part)
 545:Drivers/lvgl/src/widgets/bar/../../core/lv_obj_style_gen.h **** {
ARM GAS  /tmp/cc1kxWTq.s 			page 29


 546:Drivers/lvgl/src/widgets/bar/../../core/lv_obj_style_gen.h ****     lv_style_value_t v = lv_obj_get_style_prop(obj, part, LV_STYLE_TEXT_OPA);
 547:Drivers/lvgl/src/widgets/bar/../../core/lv_obj_style_gen.h ****     return (lv_opa_t)v.num;
 548:Drivers/lvgl/src/widgets/bar/../../core/lv_obj_style_gen.h **** }
 549:Drivers/lvgl/src/widgets/bar/../../core/lv_obj_style_gen.h **** 
 550:Drivers/lvgl/src/widgets/bar/../../core/lv_obj_style_gen.h **** static inline const lv_font_t * lv_obj_get_style_text_font(const lv_obj_t * obj, lv_part_t part)
 551:Drivers/lvgl/src/widgets/bar/../../core/lv_obj_style_gen.h **** {
 552:Drivers/lvgl/src/widgets/bar/../../core/lv_obj_style_gen.h ****     lv_style_value_t v = lv_obj_get_style_prop(obj, part, LV_STYLE_TEXT_FONT);
 553:Drivers/lvgl/src/widgets/bar/../../core/lv_obj_style_gen.h ****     return (const lv_font_t *)v.ptr;
 554:Drivers/lvgl/src/widgets/bar/../../core/lv_obj_style_gen.h **** }
 555:Drivers/lvgl/src/widgets/bar/../../core/lv_obj_style_gen.h **** 
 556:Drivers/lvgl/src/widgets/bar/../../core/lv_obj_style_gen.h **** static inline int32_t lv_obj_get_style_text_letter_space(const lv_obj_t * obj, lv_part_t part)
 557:Drivers/lvgl/src/widgets/bar/../../core/lv_obj_style_gen.h **** {
 558:Drivers/lvgl/src/widgets/bar/../../core/lv_obj_style_gen.h ****     lv_style_value_t v = lv_obj_get_style_prop(obj, part, LV_STYLE_TEXT_LETTER_SPACE);
 559:Drivers/lvgl/src/widgets/bar/../../core/lv_obj_style_gen.h ****     return (int32_t)v.num;
 560:Drivers/lvgl/src/widgets/bar/../../core/lv_obj_style_gen.h **** }
 561:Drivers/lvgl/src/widgets/bar/../../core/lv_obj_style_gen.h **** 
 562:Drivers/lvgl/src/widgets/bar/../../core/lv_obj_style_gen.h **** static inline int32_t lv_obj_get_style_text_line_space(const lv_obj_t * obj, lv_part_t part)
 563:Drivers/lvgl/src/widgets/bar/../../core/lv_obj_style_gen.h **** {
 564:Drivers/lvgl/src/widgets/bar/../../core/lv_obj_style_gen.h ****     lv_style_value_t v = lv_obj_get_style_prop(obj, part, LV_STYLE_TEXT_LINE_SPACE);
 565:Drivers/lvgl/src/widgets/bar/../../core/lv_obj_style_gen.h ****     return (int32_t)v.num;
 566:Drivers/lvgl/src/widgets/bar/../../core/lv_obj_style_gen.h **** }
 567:Drivers/lvgl/src/widgets/bar/../../core/lv_obj_style_gen.h **** 
 568:Drivers/lvgl/src/widgets/bar/../../core/lv_obj_style_gen.h **** static inline lv_text_decor_t lv_obj_get_style_text_decor(const lv_obj_t * obj, lv_part_t part)
 569:Drivers/lvgl/src/widgets/bar/../../core/lv_obj_style_gen.h **** {
 570:Drivers/lvgl/src/widgets/bar/../../core/lv_obj_style_gen.h ****     lv_style_value_t v = lv_obj_get_style_prop(obj, part, LV_STYLE_TEXT_DECOR);
 571:Drivers/lvgl/src/widgets/bar/../../core/lv_obj_style_gen.h ****     return (lv_text_decor_t)v.num;
 572:Drivers/lvgl/src/widgets/bar/../../core/lv_obj_style_gen.h **** }
 573:Drivers/lvgl/src/widgets/bar/../../core/lv_obj_style_gen.h **** 
 574:Drivers/lvgl/src/widgets/bar/../../core/lv_obj_style_gen.h **** static inline lv_text_align_t lv_obj_get_style_text_align(const lv_obj_t * obj, lv_part_t part)
 575:Drivers/lvgl/src/widgets/bar/../../core/lv_obj_style_gen.h **** {
 576:Drivers/lvgl/src/widgets/bar/../../core/lv_obj_style_gen.h ****     lv_style_value_t v = lv_obj_get_style_prop(obj, part, LV_STYLE_TEXT_ALIGN);
 577:Drivers/lvgl/src/widgets/bar/../../core/lv_obj_style_gen.h ****     return (lv_text_align_t)v.num;
 578:Drivers/lvgl/src/widgets/bar/../../core/lv_obj_style_gen.h **** }
 579:Drivers/lvgl/src/widgets/bar/../../core/lv_obj_style_gen.h **** 
 580:Drivers/lvgl/src/widgets/bar/../../core/lv_obj_style_gen.h **** static inline lv_color_t lv_obj_get_style_text_outline_stroke_color(const lv_obj_t * obj, lv_part_t
 581:Drivers/lvgl/src/widgets/bar/../../core/lv_obj_style_gen.h **** {
 582:Drivers/lvgl/src/widgets/bar/../../core/lv_obj_style_gen.h ****     lv_style_value_t v = lv_obj_get_style_prop(obj, part, LV_STYLE_TEXT_OUTLINE_STROKE_COLOR);
 583:Drivers/lvgl/src/widgets/bar/../../core/lv_obj_style_gen.h ****     return v.color;
 584:Drivers/lvgl/src/widgets/bar/../../core/lv_obj_style_gen.h **** }
 585:Drivers/lvgl/src/widgets/bar/../../core/lv_obj_style_gen.h **** 
 586:Drivers/lvgl/src/widgets/bar/../../core/lv_obj_style_gen.h **** static inline lv_color_t lv_obj_get_style_text_outline_stroke_color_filtered(const lv_obj_t * obj, 
 587:Drivers/lvgl/src/widgets/bar/../../core/lv_obj_style_gen.h **** {
 588:Drivers/lvgl/src/widgets/bar/../../core/lv_obj_style_gen.h ****     lv_style_value_t v = lv_obj_style_apply_color_filter(obj, part, lv_obj_get_style_prop(obj, part
 589:Drivers/lvgl/src/widgets/bar/../../core/lv_obj_style_gen.h ****     return v.color;
 590:Drivers/lvgl/src/widgets/bar/../../core/lv_obj_style_gen.h **** }
 591:Drivers/lvgl/src/widgets/bar/../../core/lv_obj_style_gen.h **** 
 592:Drivers/lvgl/src/widgets/bar/../../core/lv_obj_style_gen.h **** static inline int32_t lv_obj_get_style_text_outline_stroke_width(const lv_obj_t * obj, lv_part_t pa
 593:Drivers/lvgl/src/widgets/bar/../../core/lv_obj_style_gen.h **** {
 594:Drivers/lvgl/src/widgets/bar/../../core/lv_obj_style_gen.h ****     lv_style_value_t v = lv_obj_get_style_prop(obj, part, LV_STYLE_TEXT_OUTLINE_STROKE_WIDTH);
 595:Drivers/lvgl/src/widgets/bar/../../core/lv_obj_style_gen.h ****     return (int32_t)v.num;
 596:Drivers/lvgl/src/widgets/bar/../../core/lv_obj_style_gen.h **** }
 597:Drivers/lvgl/src/widgets/bar/../../core/lv_obj_style_gen.h **** 
 598:Drivers/lvgl/src/widgets/bar/../../core/lv_obj_style_gen.h **** static inline lv_opa_t lv_obj_get_style_text_outline_stroke_opa(const lv_obj_t * obj, lv_part_t par
 599:Drivers/lvgl/src/widgets/bar/../../core/lv_obj_style_gen.h **** {
 600:Drivers/lvgl/src/widgets/bar/../../core/lv_obj_style_gen.h ****     lv_style_value_t v = lv_obj_get_style_prop(obj, part, LV_STYLE_TEXT_OUTLINE_STROKE_OPA);
 601:Drivers/lvgl/src/widgets/bar/../../core/lv_obj_style_gen.h ****     return (lv_opa_t)v.num;
 602:Drivers/lvgl/src/widgets/bar/../../core/lv_obj_style_gen.h **** }
ARM GAS  /tmp/cc1kxWTq.s 			page 30


 603:Drivers/lvgl/src/widgets/bar/../../core/lv_obj_style_gen.h **** 
 604:Drivers/lvgl/src/widgets/bar/../../core/lv_obj_style_gen.h **** static inline int32_t lv_obj_get_style_radius(const lv_obj_t * obj, lv_part_t part)
 605:Drivers/lvgl/src/widgets/bar/../../core/lv_obj_style_gen.h **** {
 606:Drivers/lvgl/src/widgets/bar/../../core/lv_obj_style_gen.h ****     lv_style_value_t v = lv_obj_get_style_prop(obj, part, LV_STYLE_RADIUS);
 607:Drivers/lvgl/src/widgets/bar/../../core/lv_obj_style_gen.h ****     return (int32_t)v.num;
 608:Drivers/lvgl/src/widgets/bar/../../core/lv_obj_style_gen.h **** }
 609:Drivers/lvgl/src/widgets/bar/../../core/lv_obj_style_gen.h **** 
 610:Drivers/lvgl/src/widgets/bar/../../core/lv_obj_style_gen.h **** static inline int32_t lv_obj_get_style_radial_offset(const lv_obj_t * obj, lv_part_t part)
 611:Drivers/lvgl/src/widgets/bar/../../core/lv_obj_style_gen.h **** {
 612:Drivers/lvgl/src/widgets/bar/../../core/lv_obj_style_gen.h ****     lv_style_value_t v = lv_obj_get_style_prop(obj, part, LV_STYLE_RADIAL_OFFSET);
 613:Drivers/lvgl/src/widgets/bar/../../core/lv_obj_style_gen.h ****     return (int32_t)v.num;
 614:Drivers/lvgl/src/widgets/bar/../../core/lv_obj_style_gen.h **** }
 615:Drivers/lvgl/src/widgets/bar/../../core/lv_obj_style_gen.h **** 
 616:Drivers/lvgl/src/widgets/bar/../../core/lv_obj_style_gen.h **** static inline bool lv_obj_get_style_clip_corner(const lv_obj_t * obj, lv_part_t part)
 617:Drivers/lvgl/src/widgets/bar/../../core/lv_obj_style_gen.h **** {
 618:Drivers/lvgl/src/widgets/bar/../../core/lv_obj_style_gen.h ****     lv_style_value_t v = lv_obj_get_style_prop(obj, part, LV_STYLE_CLIP_CORNER);
 619:Drivers/lvgl/src/widgets/bar/../../core/lv_obj_style_gen.h ****     return (bool)v.num;
 620:Drivers/lvgl/src/widgets/bar/../../core/lv_obj_style_gen.h **** }
 621:Drivers/lvgl/src/widgets/bar/../../core/lv_obj_style_gen.h **** 
 622:Drivers/lvgl/src/widgets/bar/../../core/lv_obj_style_gen.h **** static inline lv_opa_t lv_obj_get_style_opa(const lv_obj_t * obj, lv_part_t part)
 623:Drivers/lvgl/src/widgets/bar/../../core/lv_obj_style_gen.h **** {
 624:Drivers/lvgl/src/widgets/bar/../../core/lv_obj_style_gen.h ****     lv_style_value_t v = lv_obj_get_style_prop(obj, part, LV_STYLE_OPA);
 625:Drivers/lvgl/src/widgets/bar/../../core/lv_obj_style_gen.h ****     return (lv_opa_t)v.num;
 626:Drivers/lvgl/src/widgets/bar/../../core/lv_obj_style_gen.h **** }
 627:Drivers/lvgl/src/widgets/bar/../../core/lv_obj_style_gen.h **** 
 628:Drivers/lvgl/src/widgets/bar/../../core/lv_obj_style_gen.h **** static inline lv_opa_t lv_obj_get_style_opa_layered(const lv_obj_t * obj, lv_part_t part)
 629:Drivers/lvgl/src/widgets/bar/../../core/lv_obj_style_gen.h **** {
 630:Drivers/lvgl/src/widgets/bar/../../core/lv_obj_style_gen.h ****     lv_style_value_t v = lv_obj_get_style_prop(obj, part, LV_STYLE_OPA_LAYERED);
 631:Drivers/lvgl/src/widgets/bar/../../core/lv_obj_style_gen.h ****     return (lv_opa_t)v.num;
 632:Drivers/lvgl/src/widgets/bar/../../core/lv_obj_style_gen.h **** }
 633:Drivers/lvgl/src/widgets/bar/../../core/lv_obj_style_gen.h **** 
 634:Drivers/lvgl/src/widgets/bar/../../core/lv_obj_style_gen.h **** static inline const lv_color_filter_dsc_t * lv_obj_get_style_color_filter_dsc(const lv_obj_t * obj,
 635:Drivers/lvgl/src/widgets/bar/../../core/lv_obj_style_gen.h **** {
 636:Drivers/lvgl/src/widgets/bar/../../core/lv_obj_style_gen.h ****     lv_style_value_t v = lv_obj_get_style_prop(obj, part, LV_STYLE_COLOR_FILTER_DSC);
 637:Drivers/lvgl/src/widgets/bar/../../core/lv_obj_style_gen.h ****     return (const lv_color_filter_dsc_t *)v.ptr;
 638:Drivers/lvgl/src/widgets/bar/../../core/lv_obj_style_gen.h **** }
 639:Drivers/lvgl/src/widgets/bar/../../core/lv_obj_style_gen.h **** 
 640:Drivers/lvgl/src/widgets/bar/../../core/lv_obj_style_gen.h **** static inline lv_opa_t lv_obj_get_style_color_filter_opa(const lv_obj_t * obj, lv_part_t part)
 641:Drivers/lvgl/src/widgets/bar/../../core/lv_obj_style_gen.h **** {
 642:Drivers/lvgl/src/widgets/bar/../../core/lv_obj_style_gen.h ****     lv_style_value_t v = lv_obj_get_style_prop(obj, part, LV_STYLE_COLOR_FILTER_OPA);
 643:Drivers/lvgl/src/widgets/bar/../../core/lv_obj_style_gen.h ****     return (lv_opa_t)v.num;
 644:Drivers/lvgl/src/widgets/bar/../../core/lv_obj_style_gen.h **** }
 645:Drivers/lvgl/src/widgets/bar/../../core/lv_obj_style_gen.h **** 
 646:Drivers/lvgl/src/widgets/bar/../../core/lv_obj_style_gen.h **** static inline lv_color_t lv_obj_get_style_recolor(const lv_obj_t * obj, lv_part_t part)
 647:Drivers/lvgl/src/widgets/bar/../../core/lv_obj_style_gen.h **** {
 648:Drivers/lvgl/src/widgets/bar/../../core/lv_obj_style_gen.h ****     lv_style_value_t v = lv_obj_get_style_prop(obj, part, LV_STYLE_RECOLOR);
 649:Drivers/lvgl/src/widgets/bar/../../core/lv_obj_style_gen.h ****     return v.color;
 650:Drivers/lvgl/src/widgets/bar/../../core/lv_obj_style_gen.h **** }
 651:Drivers/lvgl/src/widgets/bar/../../core/lv_obj_style_gen.h **** 
 652:Drivers/lvgl/src/widgets/bar/../../core/lv_obj_style_gen.h **** static inline lv_opa_t lv_obj_get_style_recolor_opa(const lv_obj_t * obj, lv_part_t part)
 653:Drivers/lvgl/src/widgets/bar/../../core/lv_obj_style_gen.h **** {
 654:Drivers/lvgl/src/widgets/bar/../../core/lv_obj_style_gen.h ****     lv_style_value_t v = lv_obj_get_style_prop(obj, part, LV_STYLE_RECOLOR_OPA);
 655:Drivers/lvgl/src/widgets/bar/../../core/lv_obj_style_gen.h ****     return (lv_opa_t)v.num;
 656:Drivers/lvgl/src/widgets/bar/../../core/lv_obj_style_gen.h **** }
 657:Drivers/lvgl/src/widgets/bar/../../core/lv_obj_style_gen.h **** 
 658:Drivers/lvgl/src/widgets/bar/../../core/lv_obj_style_gen.h **** static inline const lv_anim_t * lv_obj_get_style_anim(const lv_obj_t * obj, lv_part_t part)
 659:Drivers/lvgl/src/widgets/bar/../../core/lv_obj_style_gen.h **** {
ARM GAS  /tmp/cc1kxWTq.s 			page 31


 660:Drivers/lvgl/src/widgets/bar/../../core/lv_obj_style_gen.h ****     lv_style_value_t v = lv_obj_get_style_prop(obj, part, LV_STYLE_ANIM);
 661:Drivers/lvgl/src/widgets/bar/../../core/lv_obj_style_gen.h ****     return (const lv_anim_t *)v.ptr;
 662:Drivers/lvgl/src/widgets/bar/../../core/lv_obj_style_gen.h **** }
 663:Drivers/lvgl/src/widgets/bar/../../core/lv_obj_style_gen.h **** 
 664:Drivers/lvgl/src/widgets/bar/../../core/lv_obj_style_gen.h **** static inline uint32_t lv_obj_get_style_anim_duration(const lv_obj_t * obj, lv_part_t part)
 297              		.loc 2 664 24 view .LVU77
 298              	.LBB45:
 665:Drivers/lvgl/src/widgets/bar/../../core/lv_obj_style_gen.h **** {
 666:Drivers/lvgl/src/widgets/bar/../../core/lv_obj_style_gen.h ****     lv_style_value_t v = lv_obj_get_style_prop(obj, part, LV_STYLE_ANIM_DURATION);
 299              		.loc 2 666 5 view .LVU78
 300              		.loc 2 666 26 is_stmt 0 view .LVU79
 301 0056 6722     		movs	r2, #103
 302 0058 0021     		movs	r1, #0
 303 005a 3046     		mov	r0, r6
 304 005c FFF7FEFF 		bl	lv_obj_get_style_prop
 305              	.LVL28:
 306 0060 0146     		mov	r1, r0
 307 0062 0190     		str	r0, [sp, #4]
 667:Drivers/lvgl/src/widgets/bar/../../core/lv_obj_style_gen.h ****     return (uint32_t)v.num;
 308              		.loc 2 667 5 is_stmt 1 view .LVU80
 309              	.LVL29:
 310              		.loc 2 667 5 is_stmt 0 view .LVU81
 311              	.LBE45:
 312              	.LBE44:
 686:Drivers/lvgl/src/widgets/bar/lv_bar.c ****         lv_anim_start(&a);
 313              		.loc 1 686 9 discriminator 1 view .LVU82
 314 0064 2846     		mov	r0, r5
 315 0066 FFF7FEFF 		bl	lv_anim_set_duration
 316              	.LVL30:
 687:Drivers/lvgl/src/widgets/bar/lv_bar.c ****     }
 317              		.loc 1 687 9 is_stmt 1 view .LVU83
 318 006a 2846     		mov	r0, r5
 319 006c FFF7FEFF 		bl	lv_anim_start
 320              	.LVL31:
 321              	.L12:
 687:Drivers/lvgl/src/widgets/bar/lv_bar.c ****     }
 322              		.loc 1 687 9 is_stmt 0 view .LVU84
 323              	.LBE43:
 689:Drivers/lvgl/src/widgets/bar/lv_bar.c **** 
 324              		.loc 1 689 1 view .LVU85
 325 0070 1BB0     		add	sp, sp, #108
 326              	.LCFI5:
 327              		.cfi_remember_state
 328              		.cfi_def_cfa_offset 20
 329              		@ sp needed
 330 0072 F0BD     		pop	{r4, r5, r6, r7, pc}
 331              	.LVL32:
 332              	.L18:
 333              	.LCFI6:
 334              		.cfi_restore_state
 655:Drivers/lvgl/src/widgets/bar/lv_bar.c ****         anim_info->anim_state = LV_BAR_ANIM_STATE_INV;
 335              		.loc 1 655 9 is_stmt 1 view .LVU86
 336 0074 0021     		movs	r1, #0
 337              	.LVL33:
 655:Drivers/lvgl/src/widgets/bar/lv_bar.c ****         anim_info->anim_state = LV_BAR_ANIM_STATE_INV;
 338              		.loc 1 655 9 is_stmt 0 view .LVU87
 339 0076 2046     		mov	r0, r4
ARM GAS  /tmp/cc1kxWTq.s 			page 32


 340              	.LVL34:
 655:Drivers/lvgl/src/widgets/bar/lv_bar.c ****         anim_info->anim_state = LV_BAR_ANIM_STATE_INV;
 341              		.loc 1 655 9 view .LVU88
 342 0078 FFF7FEFF 		bl	lv_anim_delete
 343              	.LVL35:
 656:Drivers/lvgl/src/widgets/bar/lv_bar.c ****         *value_ptr = new_value;
 344              		.loc 1 656 9 is_stmt 1 view .LVU89
 656:Drivers/lvgl/src/widgets/bar/lv_bar.c ****         *value_ptr = new_value;
 345              		.loc 1 656 31 is_stmt 0 view .LVU90
 346 007c 4FF0FF33 		mov	r3, #-1
 347 0080 E360     		str	r3, [r4, #12]
 657:Drivers/lvgl/src/widgets/bar/lv_bar.c ****         lv_obj_invalidate((lv_obj_t *)obj);
 348              		.loc 1 657 9 is_stmt 1 view .LVU91
 657:Drivers/lvgl/src/widgets/bar/lv_bar.c ****         lv_obj_invalidate((lv_obj_t *)obj);
 349              		.loc 1 657 20 is_stmt 0 view .LVU92
 350 0082 3D60     		str	r5, [r7]
 658:Drivers/lvgl/src/widgets/bar/lv_bar.c **** 
 351              		.loc 1 658 9 is_stmt 1 view .LVU93
 352 0084 3046     		mov	r0, r6
 353 0086 FFF7FEFF 		bl	lv_obj_invalidate
 354              	.LVL36:
 661:Drivers/lvgl/src/widgets/bar/lv_bar.c ****         /*Reset animation state*/
 355              		.loc 1 661 9 view .LVU94
 356 008a 0021     		movs	r1, #0
 357 008c 2046     		mov	r0, r4
 358 008e FFF7FEFF 		bl	lv_anim_delete
 359              	.LVL37:
 663:Drivers/lvgl/src/widgets/bar/lv_bar.c ****     }
 360              		.loc 1 663 9 view .LVU95
 361 0092 2146     		mov	r1, r4
 362 0094 3046     		mov	r0, r6
 363 0096 FFF7FEFF 		bl	lv_bar_init_anim
 364              	.LVL38:
 365 009a E9E7     		b	.L12
 366              	.LVL39:
 367              	.L19:
 368              	.LBB46:
 668:Drivers/lvgl/src/widgets/bar/lv_bar.c ****             anim_info->anim_end   = new_value;
 369              		.loc 1 668 13 view .LVU96
 668:Drivers/lvgl/src/widgets/bar/lv_bar.c ****             anim_info->anim_end   = new_value;
 370              		.loc 1 668 37 is_stmt 0 view .LVU97
 371 009c 1368     		ldr	r3, [r2]
 668:Drivers/lvgl/src/widgets/bar/lv_bar.c ****             anim_info->anim_end   = new_value;
 372              		.loc 1 668 35 view .LVU98
 373 009e 6360     		str	r3, [r4, #4]
 669:Drivers/lvgl/src/widgets/bar/lv_bar.c ****         }
 374              		.loc 1 669 13 is_stmt 1 view .LVU99
 669:Drivers/lvgl/src/widgets/bar/lv_bar.c ****         }
 375              		.loc 1 669 35 is_stmt 0 view .LVU100
 376 00a0 A160     		str	r1, [r4, #8]
 377 00a2 BDE7     		b	.L16
 378              	.L21:
 379              		.align	2
 380              	.L20:
 381 00a4 00000000 		.word	lv_bar_anim
 382 00a8 00000000 		.word	lv_bar_anim_completed
 383              	.LBE46:
ARM GAS  /tmp/cc1kxWTq.s 			page 33


 384              		.cfi_endproc
 385              	.LFE190:
 387              		.section	.text.lv_bar_create,"ax",%progbits
 388              		.align	1
 389              		.global	lv_bar_create
 390              		.syntax unified
 391              		.thumb
 392              		.thumb_func
 394              	lv_bar_create:
 395              	.LVL40:
 396              	.LFB171:
  84:Drivers/lvgl/src/widgets/bar/lv_bar.c ****     LV_LOG_INFO("begin");
 397              		.loc 1 84 1 is_stmt 1 view -0
 398              		.cfi_startproc
 399              		@ args = 0, pretend = 0, frame = 0
 400              		@ frame_needed = 0, uses_anonymous_args = 0
  84:Drivers/lvgl/src/widgets/bar/lv_bar.c ****     LV_LOG_INFO("begin");
 401              		.loc 1 84 1 is_stmt 0 view .LVU102
 402 0000 10B5     		push	{r4, lr}
 403              	.LCFI7:
 404              		.cfi_def_cfa_offset 8
 405              		.cfi_offset 4, -8
 406              		.cfi_offset 14, -4
 407 0002 0146     		mov	r1, r0
  85:Drivers/lvgl/src/widgets/bar/lv_bar.c ****     lv_obj_t * obj = lv_obj_class_create_obj(MY_CLASS, parent);
 408              		.loc 1 85 5 is_stmt 1 view .LVU103
  85:Drivers/lvgl/src/widgets/bar/lv_bar.c ****     lv_obj_t * obj = lv_obj_class_create_obj(MY_CLASS, parent);
 409              		.loc 1 85 5 view .LVU104
  85:Drivers/lvgl/src/widgets/bar/lv_bar.c ****     lv_obj_t * obj = lv_obj_class_create_obj(MY_CLASS, parent);
 410              		.loc 1 85 5 view .LVU105
  86:Drivers/lvgl/src/widgets/bar/lv_bar.c ****     lv_obj_class_init_obj(obj);
 411              		.loc 1 86 5 view .LVU106
  86:Drivers/lvgl/src/widgets/bar/lv_bar.c ****     lv_obj_class_init_obj(obj);
 412              		.loc 1 86 22 is_stmt 0 view .LVU107
 413 0004 0348     		ldr	r0, .L24
 414              	.LVL41:
  86:Drivers/lvgl/src/widgets/bar/lv_bar.c ****     lv_obj_class_init_obj(obj);
 415              		.loc 1 86 22 view .LVU108
 416 0006 FFF7FEFF 		bl	lv_obj_class_create_obj
 417              	.LVL42:
  86:Drivers/lvgl/src/widgets/bar/lv_bar.c ****     lv_obj_class_init_obj(obj);
 418              		.loc 1 86 22 view .LVU109
 419 000a 0446     		mov	r4, r0
 420              	.LVL43:
  87:Drivers/lvgl/src/widgets/bar/lv_bar.c ****     return obj;
 421              		.loc 1 87 5 is_stmt 1 view .LVU110
 422 000c FFF7FEFF 		bl	lv_obj_class_init_obj
 423              	.LVL44:
  88:Drivers/lvgl/src/widgets/bar/lv_bar.c **** }
 424              		.loc 1 88 5 view .LVU111
  89:Drivers/lvgl/src/widgets/bar/lv_bar.c **** 
 425              		.loc 1 89 1 is_stmt 0 view .LVU112
 426 0010 2046     		mov	r0, r4
 427 0012 10BD     		pop	{r4, pc}
 428              	.LVL45:
 429              	.L25:
  89:Drivers/lvgl/src/widgets/bar/lv_bar.c **** 
ARM GAS  /tmp/cc1kxWTq.s 			page 34


 430              		.loc 1 89 1 view .LVU113
 431              		.align	2
 432              	.L24:
 433 0014 00000000 		.word	lv_bar_class
 434              		.cfi_endproc
 435              	.LFE171:
 437              		.section	.text.lv_bar_set_value,"ax",%progbits
 438              		.align	1
 439              		.global	lv_bar_set_value
 440              		.syntax unified
 441              		.thumb
 442              		.thumb_func
 444              	lv_bar_set_value:
 445              	.LVL46:
 446              	.LFB172:
  96:Drivers/lvgl/src/widgets/bar/lv_bar.c ****     LV_ASSERT_OBJ(obj, MY_CLASS);
 447              		.loc 1 96 1 is_stmt 1 view -0
 448              		.cfi_startproc
 449              		@ args = 0, pretend = 0, frame = 0
 450              		@ frame_needed = 0, uses_anonymous_args = 0
  97:Drivers/lvgl/src/widgets/bar/lv_bar.c ****     lv_bar_t * bar = (lv_bar_t *)obj;
 451              		.loc 1 97 5 view .LVU115
  97:Drivers/lvgl/src/widgets/bar/lv_bar.c ****     lv_bar_t * bar = (lv_bar_t *)obj;
 452              		.loc 1 97 5 view .LVU116
 453 0000 00B3     		cbz	r0, .L28
 454 0002 8446     		mov	ip, r0
  97:Drivers/lvgl/src/widgets/bar/lv_bar.c ****     lv_bar_t * bar = (lv_bar_t *)obj;
 455              		.loc 1 97 5 discriminator 2 view .LVU117
  97:Drivers/lvgl/src/widgets/bar/lv_bar.c ****     lv_bar_t * bar = (lv_bar_t *)obj;
 456              		.loc 1 97 33 discriminator 2 view .LVU118
  98:Drivers/lvgl/src/widgets/bar/lv_bar.c **** 
 457              		.loc 1 98 5 view .LVU119
 458              	.LVL47:
 100:Drivers/lvgl/src/widgets/bar/lv_bar.c **** 
 459              		.loc 1 100 5 view .LVU120
 100:Drivers/lvgl/src/widgets/bar/lv_bar.c **** 
 460              		.loc 1 100 11 is_stmt 0 view .LVU121
 461 0004 C36A     		ldr	r3, [r0, #44]
 100:Drivers/lvgl/src/widgets/bar/lv_bar.c **** 
 462              		.loc 1 100 7 view .LVU122
 463 0006 8B42     		cmp	r3, r1
 464 0008 1DD0     		beq	.L31
 102:Drivers/lvgl/src/widgets/bar/lv_bar.c ****     value = value < bar->start_value ? bar->start_value : value; /*Can't be smaller than the left v
 465              		.loc 1 102 5 is_stmt 1 view .LVU123
 102:Drivers/lvgl/src/widgets/bar/lv_bar.c ****     value = value < bar->start_value ? bar->start_value : value; /*Can't be smaller than the left v
 466              		.loc 1 102 13 is_stmt 0 view .LVU124
 467 000a 406B     		ldr	r0, [r0, #52]
 468              	.LVL48:
 102:Drivers/lvgl/src/widgets/bar/lv_bar.c ****     value = value < bar->start_value ? bar->start_value : value; /*Can't be smaller than the left v
 469              		.loc 1 102 13 view .LVU125
 470 000c 8142     		cmp	r1, r0
 471 000e A8BF     		it	ge
 472 0010 0146     		movge	r1, r0
 473              	.LVL49:
 102:Drivers/lvgl/src/widgets/bar/lv_bar.c ****     value = value < bar->start_value ? bar->start_value : value; /*Can't be smaller than the left v
 474              		.loc 1 102 13 view .LVU126
 475 0012 DCF83000 		ldr	r0, [ip, #48]
ARM GAS  /tmp/cc1kxWTq.s 			page 35


 102:Drivers/lvgl/src/widgets/bar/lv_bar.c ****     value = value < bar->start_value ? bar->start_value : value; /*Can't be smaller than the left v
 476              		.loc 1 102 11 view .LVU127
 477 0016 8142     		cmp	r1, r0
 478 0018 B8BF     		it	lt
 479 001a 0146     		movlt	r1, r0
 480              	.LVL50:
 103:Drivers/lvgl/src/widgets/bar/lv_bar.c **** 
 481              		.loc 1 103 5 is_stmt 1 view .LVU128
 103:Drivers/lvgl/src/widgets/bar/lv_bar.c **** 
 482              		.loc 1 103 24 is_stmt 0 view .LVU129
 483 001c DCF83800 		ldr	r0, [ip, #56]
 103:Drivers/lvgl/src/widgets/bar/lv_bar.c **** 
 484              		.loc 1 103 11 view .LVU130
 485 0020 8142     		cmp	r1, r0
 486 0022 B8BF     		it	lt
 487 0024 0146     		movlt	r1, r0
 488              	.LVL51:
 105:Drivers/lvgl/src/widgets/bar/lv_bar.c **** 
 489              		.loc 1 105 5 is_stmt 1 view .LVU131
 105:Drivers/lvgl/src/widgets/bar/lv_bar.c **** 
 490              		.loc 1 105 7 is_stmt 0 view .LVU132
 491 0026 8B42     		cmp	r3, r1
 492 0028 0DD0     		beq	.L31
  96:Drivers/lvgl/src/widgets/bar/lv_bar.c ****     LV_ASSERT_OBJ(obj, MY_CLASS);
 493              		.loc 1 96 1 view .LVU133
 494 002a 00B5     		push	{lr}
 495              	.LCFI8:
 496              		.cfi_def_cfa_offset 4
 497              		.cfi_offset 14, -4
 498 002c 83B0     		sub	sp, sp, #12
 499              	.LCFI9:
 500              		.cfi_def_cfa_offset 16
 107:Drivers/lvgl/src/widgets/bar/lv_bar.c **** }
 501              		.loc 1 107 5 is_stmt 1 view .LVU134
 502 002e 0092     		str	r2, [sp]
 503 0030 0CF15003 		add	r3, ip, #80
 504 0034 0CF12C02 		add	r2, ip, #44
 505              	.LVL52:
 107:Drivers/lvgl/src/widgets/bar/lv_bar.c **** }
 506              		.loc 1 107 5 is_stmt 0 view .LVU135
 507 0038 6046     		mov	r0, ip
 508 003a FFF7FEFF 		bl	lv_bar_set_value_with_anim
 509              	.LVL53:
 108:Drivers/lvgl/src/widgets/bar/lv_bar.c **** 
 510              		.loc 1 108 1 view .LVU136
 511 003e 03B0     		add	sp, sp, #12
 512              	.LCFI10:
 513              		.cfi_def_cfa_offset 4
 514              		@ sp needed
 515 0040 5DF804FB 		ldr	pc, [sp], #4
 516              	.LVL54:
 517              	.L28:
 518              	.LCFI11:
 519              		.cfi_def_cfa_offset 0
 520              		.cfi_restore 14
  97:Drivers/lvgl/src/widgets/bar/lv_bar.c ****     lv_bar_t * bar = (lv_bar_t *)obj;
 521              		.loc 1 97 5 is_stmt 1 discriminator 1 view .LVU137
ARM GAS  /tmp/cc1kxWTq.s 			page 36


  97:Drivers/lvgl/src/widgets/bar/lv_bar.c ****     lv_bar_t * bar = (lv_bar_t *)obj;
 522              		.loc 1 97 5 discriminator 1 view .LVU138
  97:Drivers/lvgl/src/widgets/bar/lv_bar.c ****     lv_bar_t * bar = (lv_bar_t *)obj;
 523              		.loc 1 97 5 discriminator 1 view .LVU139
  97:Drivers/lvgl/src/widgets/bar/lv_bar.c ****     lv_bar_t * bar = (lv_bar_t *)obj;
 524              		.loc 1 97 5 discriminator 1 view .LVU140
  97:Drivers/lvgl/src/widgets/bar/lv_bar.c ****     lv_bar_t * bar = (lv_bar_t *)obj;
 525              		.loc 1 97 5 discriminator 1 view .LVU141
 526 0044 FEE7     		b	.L28
 527              	.LVL55:
 528              	.L31:
  97:Drivers/lvgl/src/widgets/bar/lv_bar.c ****     lv_bar_t * bar = (lv_bar_t *)obj;
 529              		.loc 1 97 5 is_stmt 0 discriminator 1 view .LVU142
 530 0046 7047     		bx	lr
 531              		.cfi_endproc
 532              	.LFE172:
 534              		.section	.text.lv_bar_constructor,"ax",%progbits
 535              		.align	1
 536              		.syntax unified
 537              		.thumb
 538              		.thumb_func
 540              	lv_bar_constructor:
 541              	.LVL56:
 542              	.LFB184:
 247:Drivers/lvgl/src/widgets/bar/lv_bar.c ****     LV_UNUSED(class_p);
 543              		.loc 1 247 1 is_stmt 1 view -0
 544              		.cfi_startproc
 545              		@ args = 0, pretend = 0, frame = 0
 546              		@ frame_needed = 0, uses_anonymous_args = 0
 247:Drivers/lvgl/src/widgets/bar/lv_bar.c ****     LV_UNUSED(class_p);
 547              		.loc 1 247 1 is_stmt 0 view .LVU144
 548 0000 38B5     		push	{r3, r4, r5, lr}
 549              	.LCFI12:
 550              		.cfi_def_cfa_offset 16
 551              		.cfi_offset 3, -16
 552              		.cfi_offset 4, -12
 553              		.cfi_offset 5, -8
 554              		.cfi_offset 14, -4
 555 0002 0C46     		mov	r4, r1
 248:Drivers/lvgl/src/widgets/bar/lv_bar.c ****     LV_TRACE_OBJ_CREATE("begin");
 556              		.loc 1 248 5 is_stmt 1 view .LVU145
 249:Drivers/lvgl/src/widgets/bar/lv_bar.c **** 
 557              		.loc 1 249 33 view .LVU146
 251:Drivers/lvgl/src/widgets/bar/lv_bar.c ****     bar->min_value = 0;
 558              		.loc 1 251 5 view .LVU147
 559              	.LVL57:
 252:Drivers/lvgl/src/widgets/bar/lv_bar.c ****     bar->max_value = 100;
 560              		.loc 1 252 5 view .LVU148
 252:Drivers/lvgl/src/widgets/bar/lv_bar.c ****     bar->max_value = 100;
 561              		.loc 1 252 20 is_stmt 0 view .LVU149
 562 0004 0025     		movs	r5, #0
 563 0006 0D63     		str	r5, [r1, #48]
 253:Drivers/lvgl/src/widgets/bar/lv_bar.c ****     bar->start_value = 0;
 564              		.loc 1 253 5 is_stmt 1 view .LVU150
 253:Drivers/lvgl/src/widgets/bar/lv_bar.c ****     bar->start_value = 0;
 565              		.loc 1 253 20 is_stmt 0 view .LVU151
 566 0008 6423     		movs	r3, #100
ARM GAS  /tmp/cc1kxWTq.s 			page 37


 567 000a 4B63     		str	r3, [r1, #52]
 254:Drivers/lvgl/src/widgets/bar/lv_bar.c ****     bar->cur_value = 0;
 568              		.loc 1 254 5 is_stmt 1 view .LVU152
 254:Drivers/lvgl/src/widgets/bar/lv_bar.c ****     bar->cur_value = 0;
 569              		.loc 1 254 22 is_stmt 0 view .LVU153
 570 000c 8D63     		str	r5, [r1, #56]
 255:Drivers/lvgl/src/widgets/bar/lv_bar.c ****     bar->indic_area.x1 = 0;
 571              		.loc 1 255 5 is_stmt 1 view .LVU154
 255:Drivers/lvgl/src/widgets/bar/lv_bar.c ****     bar->indic_area.x1 = 0;
 572              		.loc 1 255 20 is_stmt 0 view .LVU155
 573 000e CD62     		str	r5, [r1, #44]
 256:Drivers/lvgl/src/widgets/bar/lv_bar.c ****     bar->indic_area.x2 = 0;
 574              		.loc 1 256 5 is_stmt 1 view .LVU156
 256:Drivers/lvgl/src/widgets/bar/lv_bar.c ****     bar->indic_area.x2 = 0;
 575              		.loc 1 256 24 is_stmt 0 view .LVU157
 576 0010 CD63     		str	r5, [r1, #60]
 257:Drivers/lvgl/src/widgets/bar/lv_bar.c ****     bar->indic_area.y1 = 0;
 577              		.loc 1 257 5 is_stmt 1 view .LVU158
 257:Drivers/lvgl/src/widgets/bar/lv_bar.c ****     bar->indic_area.y1 = 0;
 578              		.loc 1 257 24 is_stmt 0 view .LVU159
 579 0012 4D64     		str	r5, [r1, #68]
 258:Drivers/lvgl/src/widgets/bar/lv_bar.c ****     bar->indic_area.y2 = 0;
 580              		.loc 1 258 5 is_stmt 1 view .LVU160
 258:Drivers/lvgl/src/widgets/bar/lv_bar.c ****     bar->indic_area.y2 = 0;
 581              		.loc 1 258 24 is_stmt 0 view .LVU161
 582 0014 0D64     		str	r5, [r1, #64]
 259:Drivers/lvgl/src/widgets/bar/lv_bar.c ****     bar->mode = LV_BAR_MODE_NORMAL;
 583              		.loc 1 259 5 is_stmt 1 view .LVU162
 259:Drivers/lvgl/src/widgets/bar/lv_bar.c ****     bar->mode = LV_BAR_MODE_NORMAL;
 584              		.loc 1 259 24 is_stmt 0 view .LVU163
 585 0016 8D64     		str	r5, [r1, #72]
 260:Drivers/lvgl/src/widgets/bar/lv_bar.c ****     bar->orientation = LV_BAR_ORIENTATION_AUTO;
 586              		.loc 1 260 5 is_stmt 1 view .LVU164
 260:Drivers/lvgl/src/widgets/bar/lv_bar.c ****     bar->orientation = LV_BAR_ORIENTATION_AUTO;
 587              		.loc 1 260 15 is_stmt 0 view .LVU165
 588 0018 91F87030 		ldrb	r3, [r1, #112]	@ zero_extendqisi2
 589 001c 65F30203 		bfi	r3, r5, #0, #3
 590 0020 81F87030 		strb	r3, [r1, #112]
 261:Drivers/lvgl/src/widgets/bar/lv_bar.c ****     bar->val_reversed = false;
 591              		.loc 1 261 5 is_stmt 1 view .LVU166
 261:Drivers/lvgl/src/widgets/bar/lv_bar.c ****     bar->val_reversed = false;
 592              		.loc 1 261 22 is_stmt 0 view .LVU167
 593 0024 DBB2     		uxtb	r3, r3
 594 0026 65F3C503 		bfi	r3, r5, #3, #3
 595 002a 81F87030 		strb	r3, [r1, #112]
 262:Drivers/lvgl/src/widgets/bar/lv_bar.c **** 
 596              		.loc 1 262 5 is_stmt 1 view .LVU168
 262:Drivers/lvgl/src/widgets/bar/lv_bar.c **** 
 597              		.loc 1 262 23 is_stmt 0 view .LVU169
 598 002e 81F84C50 		strb	r5, [r1, #76]
 264:Drivers/lvgl/src/widgets/bar/lv_bar.c ****     lv_bar_init_anim(obj, &bar->start_value_anim);
 599              		.loc 1 264 5 is_stmt 1 view .LVU170
 600 0032 5031     		adds	r1, r1, #80
 601              	.LVL58:
 264:Drivers/lvgl/src/widgets/bar/lv_bar.c ****     lv_bar_init_anim(obj, &bar->start_value_anim);
 602              		.loc 1 264 5 is_stmt 0 view .LVU171
 603 0034 2046     		mov	r0, r4
ARM GAS  /tmp/cc1kxWTq.s 			page 38


 604              	.LVL59:
 264:Drivers/lvgl/src/widgets/bar/lv_bar.c ****     lv_bar_init_anim(obj, &bar->start_value_anim);
 605              		.loc 1 264 5 view .LVU172
 606 0036 FFF7FEFF 		bl	lv_bar_init_anim
 607              	.LVL60:
 265:Drivers/lvgl/src/widgets/bar/lv_bar.c **** 
 608              		.loc 1 265 5 is_stmt 1 view .LVU173
 609 003a 04F16001 		add	r1, r4, #96
 610 003e 2046     		mov	r0, r4
 611 0040 FFF7FEFF 		bl	lv_bar_init_anim
 612              	.LVL61:
 267:Drivers/lvgl/src/widgets/bar/lv_bar.c ****     lv_obj_remove_flag(obj, LV_OBJ_FLAG_SCROLLABLE);
 613              		.loc 1 267 5 view .LVU174
 614 0044 0821     		movs	r1, #8
 615 0046 2046     		mov	r0, r4
 616 0048 FFF7FEFF 		bl	lv_obj_remove_flag
 617              	.LVL62:
 268:Drivers/lvgl/src/widgets/bar/lv_bar.c ****     lv_bar_set_value(obj, 0, LV_ANIM_OFF);
 618              		.loc 1 268 5 view .LVU175
 619 004c 1021     		movs	r1, #16
 620 004e 2046     		mov	r0, r4
 621 0050 FFF7FEFF 		bl	lv_obj_remove_flag
 622              	.LVL63:
 269:Drivers/lvgl/src/widgets/bar/lv_bar.c **** 
 623              		.loc 1 269 5 view .LVU176
 624 0054 2A46     		mov	r2, r5
 625 0056 2946     		mov	r1, r5
 626 0058 2046     		mov	r0, r4
 627 005a FFF7FEFF 		bl	lv_bar_set_value
 628              	.LVL64:
 271:Drivers/lvgl/src/widgets/bar/lv_bar.c **** }
 629              		.loc 1 271 36 view .LVU177
 272:Drivers/lvgl/src/widgets/bar/lv_bar.c **** 
 630              		.loc 1 272 1 is_stmt 0 view .LVU178
 631 005e 38BD     		pop	{r3, r4, r5, pc}
 272:Drivers/lvgl/src/widgets/bar/lv_bar.c **** 
 632              		.loc 1 272 1 view .LVU179
 633              		.cfi_endproc
 634              	.LFE184:
 636              		.section	.text.lv_bar_set_start_value,"ax",%progbits
 637              		.align	1
 638              		.global	lv_bar_set_start_value
 639              		.syntax unified
 640              		.thumb
 641              		.thumb_func
 643              	lv_bar_set_start_value:
 644              	.LVL65:
 645              	.LFB173:
 111:Drivers/lvgl/src/widgets/bar/lv_bar.c ****     LV_ASSERT_OBJ(obj, MY_CLASS);
 646              		.loc 1 111 1 is_stmt 1 view -0
 647              		.cfi_startproc
 648              		@ args = 0, pretend = 0, frame = 0
 649              		@ frame_needed = 0, uses_anonymous_args = 0
 112:Drivers/lvgl/src/widgets/bar/lv_bar.c **** 
 650              		.loc 1 112 5 view .LVU181
 112:Drivers/lvgl/src/widgets/bar/lv_bar.c **** 
 651              		.loc 1 112 5 view .LVU182
ARM GAS  /tmp/cc1kxWTq.s 			page 39


 652 0000 00B3     		cbz	r0, .L38
 112:Drivers/lvgl/src/widgets/bar/lv_bar.c **** 
 653              		.loc 1 112 5 discriminator 2 view .LVU183
 112:Drivers/lvgl/src/widgets/bar/lv_bar.c **** 
 654              		.loc 1 112 33 discriminator 2 view .LVU184
 114:Drivers/lvgl/src/widgets/bar/lv_bar.c **** 
 655              		.loc 1 114 5 view .LVU185
 656              	.LVL66:
 116:Drivers/lvgl/src/widgets/bar/lv_bar.c ****         return;
 657              		.loc 1 116 5 view .LVU186
 116:Drivers/lvgl/src/widgets/bar/lv_bar.c ****         return;
 658              		.loc 1 116 18 is_stmt 0 view .LVU187
 659 0002 90F87030 		ldrb	r3, [r0, #112]	@ zero_extendqisi2
 660 0006 03F00703 		and	r3, r3, #7
 116:Drivers/lvgl/src/widgets/bar/lv_bar.c ****         return;
 661              		.loc 1 116 7 view .LVU188
 662 000a 022B     		cmp	r3, #2
 663 000c 1BD1     		bne	.L41
 120:Drivers/lvgl/src/widgets/bar/lv_bar.c ****     value = value > bar->cur_value ? bar->cur_value : value; /*Can't be greater than the right valu
 664              		.loc 1 120 5 is_stmt 1 view .LVU189
 120:Drivers/lvgl/src/widgets/bar/lv_bar.c ****     value = value > bar->cur_value ? bar->cur_value : value; /*Can't be greater than the right valu
 665              		.loc 1 120 13 is_stmt 0 view .LVU190
 666 000e 436B     		ldr	r3, [r0, #52]
 667 0010 9942     		cmp	r1, r3
 668 0012 A8BF     		it	ge
 669 0014 1946     		movge	r1, r3
 670              	.LVL67:
 120:Drivers/lvgl/src/widgets/bar/lv_bar.c ****     value = value > bar->cur_value ? bar->cur_value : value; /*Can't be greater than the right valu
 671              		.loc 1 120 13 view .LVU191
 672 0016 036B     		ldr	r3, [r0, #48]
 120:Drivers/lvgl/src/widgets/bar/lv_bar.c ****     value = value > bar->cur_value ? bar->cur_value : value; /*Can't be greater than the right valu
 673              		.loc 1 120 11 view .LVU192
 674 0018 9942     		cmp	r1, r3
 675 001a B8BF     		it	lt
 676 001c 1946     		movlt	r1, r3
 677              	.LVL68:
 121:Drivers/lvgl/src/widgets/bar/lv_bar.c **** 
 678              		.loc 1 121 5 is_stmt 1 view .LVU193
 121:Drivers/lvgl/src/widgets/bar/lv_bar.c **** 
 679              		.loc 1 121 24 is_stmt 0 view .LVU194
 680 001e C36A     		ldr	r3, [r0, #44]
 121:Drivers/lvgl/src/widgets/bar/lv_bar.c **** 
 681              		.loc 1 121 11 view .LVU195
 682 0020 9942     		cmp	r1, r3
 683 0022 A8BF     		it	ge
 684 0024 1946     		movge	r1, r3
 685              	.LVL69:
 123:Drivers/lvgl/src/widgets/bar/lv_bar.c **** 
 686              		.loc 1 123 5 is_stmt 1 view .LVU196
 123:Drivers/lvgl/src/widgets/bar/lv_bar.c **** 
 687              		.loc 1 123 11 is_stmt 0 view .LVU197
 688 0026 836B     		ldr	r3, [r0, #56]
 123:Drivers/lvgl/src/widgets/bar/lv_bar.c **** 
 689              		.loc 1 123 7 view .LVU198
 690 0028 8B42     		cmp	r3, r1
 691 002a 0CD0     		beq	.L41
 111:Drivers/lvgl/src/widgets/bar/lv_bar.c ****     LV_ASSERT_OBJ(obj, MY_CLASS);
ARM GAS  /tmp/cc1kxWTq.s 			page 40


 692              		.loc 1 111 1 view .LVU199
 693 002c 00B5     		push	{lr}
 694              	.LCFI13:
 695              		.cfi_def_cfa_offset 4
 696              		.cfi_offset 14, -4
 697 002e 83B0     		sub	sp, sp, #12
 698              	.LCFI14:
 699              		.cfi_def_cfa_offset 16
 125:Drivers/lvgl/src/widgets/bar/lv_bar.c **** }
 700              		.loc 1 125 5 is_stmt 1 view .LVU200
 701 0030 0092     		str	r2, [sp]
 702 0032 00F16003 		add	r3, r0, #96
 703 0036 00F13802 		add	r2, r0, #56
 704              	.LVL70:
 125:Drivers/lvgl/src/widgets/bar/lv_bar.c **** }
 705              		.loc 1 125 5 is_stmt 0 view .LVU201
 706 003a FFF7FEFF 		bl	lv_bar_set_value_with_anim
 707              	.LVL71:
 126:Drivers/lvgl/src/widgets/bar/lv_bar.c **** 
 708              		.loc 1 126 1 view .LVU202
 709 003e 03B0     		add	sp, sp, #12
 710              	.LCFI15:
 711              		.cfi_def_cfa_offset 4
 712              		@ sp needed
 713 0040 5DF804FB 		ldr	pc, [sp], #4
 714              	.LVL72:
 715              	.L38:
 716              	.LCFI16:
 717              		.cfi_def_cfa_offset 0
 718              		.cfi_restore 14
 112:Drivers/lvgl/src/widgets/bar/lv_bar.c **** 
 719              		.loc 1 112 5 is_stmt 1 discriminator 1 view .LVU203
 112:Drivers/lvgl/src/widgets/bar/lv_bar.c **** 
 720              		.loc 1 112 5 discriminator 1 view .LVU204
 112:Drivers/lvgl/src/widgets/bar/lv_bar.c **** 
 721              		.loc 1 112 5 discriminator 1 view .LVU205
 112:Drivers/lvgl/src/widgets/bar/lv_bar.c **** 
 722              		.loc 1 112 5 discriminator 1 view .LVU206
 112:Drivers/lvgl/src/widgets/bar/lv_bar.c **** 
 723              		.loc 1 112 5 discriminator 1 view .LVU207
 724 0044 FEE7     		b	.L38
 725              	.LVL73:
 726              	.L41:
 112:Drivers/lvgl/src/widgets/bar/lv_bar.c **** 
 727              		.loc 1 112 5 is_stmt 0 discriminator 1 view .LVU208
 728 0046 7047     		bx	lr
 729              		.cfi_endproc
 730              	.LFE173:
 732              		.section	.text.lv_bar_set_mode,"ax",%progbits
 733              		.align	1
 734              		.global	lv_bar_set_mode
 735              		.syntax unified
 736              		.thumb
 737              		.thumb_func
 739              	lv_bar_set_mode:
 740              	.LVL74:
 741              	.LFB175:
ARM GAS  /tmp/cc1kxWTq.s 			page 41


 159:Drivers/lvgl/src/widgets/bar/lv_bar.c ****     LV_ASSERT_OBJ(obj, MY_CLASS);
 742              		.loc 1 159 1 is_stmt 1 view -0
 743              		.cfi_startproc
 744              		@ args = 0, pretend = 0, frame = 0
 745              		@ frame_needed = 0, uses_anonymous_args = 0
 160:Drivers/lvgl/src/widgets/bar/lv_bar.c ****     lv_bar_t * bar = (lv_bar_t *)obj;
 746              		.loc 1 160 5 view .LVU210
 160:Drivers/lvgl/src/widgets/bar/lv_bar.c ****     lv_bar_t * bar = (lv_bar_t *)obj;
 747              		.loc 1 160 5 view .LVU211
 748 0000 90B1     		cbz	r0, .L46
 159:Drivers/lvgl/src/widgets/bar/lv_bar.c ****     LV_ASSERT_OBJ(obj, MY_CLASS);
 749              		.loc 1 159 1 is_stmt 0 view .LVU212
 750 0002 08B5     		push	{r3, lr}
 751              	.LCFI17:
 752              		.cfi_def_cfa_offset 8
 753              		.cfi_offset 3, -8
 754              		.cfi_offset 14, -4
 755 0004 0346     		mov	r3, r0
 160:Drivers/lvgl/src/widgets/bar/lv_bar.c ****     lv_bar_t * bar = (lv_bar_t *)obj;
 756              		.loc 1 160 5 is_stmt 1 discriminator 2 view .LVU213
 160:Drivers/lvgl/src/widgets/bar/lv_bar.c ****     lv_bar_t * bar = (lv_bar_t *)obj;
 757              		.loc 1 160 33 discriminator 2 view .LVU214
 161:Drivers/lvgl/src/widgets/bar/lv_bar.c **** 
 758              		.loc 1 161 5 view .LVU215
 759              	.LVL75:
 163:Drivers/lvgl/src/widgets/bar/lv_bar.c ****     if(bar->mode != LV_BAR_MODE_RANGE) {
 760              		.loc 1 163 5 view .LVU216
 163:Drivers/lvgl/src/widgets/bar/lv_bar.c ****     if(bar->mode != LV_BAR_MODE_RANGE) {
 761              		.loc 1 163 15 is_stmt 0 view .LVU217
 762 0006 90F87020 		ldrb	r2, [r0, #112]	@ zero_extendqisi2
 763 000a 61F30202 		bfi	r2, r1, #0, #3
 764 000e 80F87020 		strb	r2, [r0, #112]
 164:Drivers/lvgl/src/widgets/bar/lv_bar.c ****         bar->start_value = bar->min_value;
 765              		.loc 1 164 5 is_stmt 1 view .LVU218
 164:Drivers/lvgl/src/widgets/bar/lv_bar.c ****         bar->start_value = bar->min_value;
 766              		.loc 1 164 18 is_stmt 0 view .LVU219
 767 0012 D2B2     		uxtb	r2, r2
 768 0014 02F00702 		and	r2, r2, #7
 164:Drivers/lvgl/src/widgets/bar/lv_bar.c ****         bar->start_value = bar->min_value;
 769              		.loc 1 164 7 view .LVU220
 770 0018 022A     		cmp	r2, #2
 771 001a 01D0     		beq	.L47
 165:Drivers/lvgl/src/widgets/bar/lv_bar.c ****     }
 772              		.loc 1 165 9 is_stmt 1 view .LVU221
 165:Drivers/lvgl/src/widgets/bar/lv_bar.c ****     }
 773              		.loc 1 165 31 is_stmt 0 view .LVU222
 774 001c 026B     		ldr	r2, [r0, #48]
 165:Drivers/lvgl/src/widgets/bar/lv_bar.c ****     }
 775              		.loc 1 165 26 view .LVU223
 776 001e 8263     		str	r2, [r0, #56]
 777              	.L47:
 168:Drivers/lvgl/src/widgets/bar/lv_bar.c **** }
 778              		.loc 1 168 5 is_stmt 1 view .LVU224
 779 0020 1846     		mov	r0, r3
 780              	.LVL76:
 168:Drivers/lvgl/src/widgets/bar/lv_bar.c **** }
 781              		.loc 1 168 5 is_stmt 0 view .LVU225
ARM GAS  /tmp/cc1kxWTq.s 			page 42


 782 0022 FFF7FEFF 		bl	lv_obj_invalidate
 783              	.LVL77:
 169:Drivers/lvgl/src/widgets/bar/lv_bar.c **** 
 784              		.loc 1 169 1 view .LVU226
 785 0026 08BD     		pop	{r3, pc}
 786              	.LVL78:
 787              	.L46:
 788              	.LCFI18:
 789              		.cfi_def_cfa_offset 0
 790              		.cfi_restore 3
 791              		.cfi_restore 14
 160:Drivers/lvgl/src/widgets/bar/lv_bar.c ****     lv_bar_t * bar = (lv_bar_t *)obj;
 792              		.loc 1 160 5 is_stmt 1 discriminator 1 view .LVU227
 160:Drivers/lvgl/src/widgets/bar/lv_bar.c ****     lv_bar_t * bar = (lv_bar_t *)obj;
 793              		.loc 1 160 5 discriminator 1 view .LVU228
 160:Drivers/lvgl/src/widgets/bar/lv_bar.c ****     lv_bar_t * bar = (lv_bar_t *)obj;
 794              		.loc 1 160 5 discriminator 1 view .LVU229
 160:Drivers/lvgl/src/widgets/bar/lv_bar.c ****     lv_bar_t * bar = (lv_bar_t *)obj;
 795              		.loc 1 160 5 discriminator 1 view .LVU230
 160:Drivers/lvgl/src/widgets/bar/lv_bar.c ****     lv_bar_t * bar = (lv_bar_t *)obj;
 796              		.loc 1 160 5 discriminator 1 view .LVU231
 797 0028 FEE7     		b	.L46
 798              		.cfi_endproc
 799              	.LFE175:
 801              		.section	.text.lv_bar_set_orientation,"ax",%progbits
 802              		.align	1
 803              		.global	lv_bar_set_orientation
 804              		.syntax unified
 805              		.thumb
 806              		.thumb_func
 808              	lv_bar_set_orientation:
 809              	.LVL79:
 810              	.LFB176:
 172:Drivers/lvgl/src/widgets/bar/lv_bar.c ****     LV_ASSERT_OBJ(obj, MY_CLASS);
 811              		.loc 1 172 1 view -0
 812              		.cfi_startproc
 813              		@ args = 0, pretend = 0, frame = 0
 814              		@ frame_needed = 0, uses_anonymous_args = 0
 173:Drivers/lvgl/src/widgets/bar/lv_bar.c ****     lv_bar_t * bar = (lv_bar_t *)obj;
 815              		.loc 1 173 5 view .LVU233
 173:Drivers/lvgl/src/widgets/bar/lv_bar.c ****     lv_bar_t * bar = (lv_bar_t *)obj;
 816              		.loc 1 173 5 view .LVU234
 817 0000 48B1     		cbz	r0, .L52
 172:Drivers/lvgl/src/widgets/bar/lv_bar.c ****     LV_ASSERT_OBJ(obj, MY_CLASS);
 818              		.loc 1 172 1 is_stmt 0 view .LVU235
 819 0002 08B5     		push	{r3, lr}
 820              	.LCFI19:
 821              		.cfi_def_cfa_offset 8
 822              		.cfi_offset 3, -8
 823              		.cfi_offset 14, -4
 173:Drivers/lvgl/src/widgets/bar/lv_bar.c ****     lv_bar_t * bar = (lv_bar_t *)obj;
 824              		.loc 1 173 5 is_stmt 1 discriminator 2 view .LVU236
 173:Drivers/lvgl/src/widgets/bar/lv_bar.c ****     lv_bar_t * bar = (lv_bar_t *)obj;
 825              		.loc 1 173 33 discriminator 2 view .LVU237
 174:Drivers/lvgl/src/widgets/bar/lv_bar.c **** 
 826              		.loc 1 174 5 view .LVU238
 827              	.LVL80:
ARM GAS  /tmp/cc1kxWTq.s 			page 43


 176:Drivers/lvgl/src/widgets/bar/lv_bar.c ****     lv_obj_invalidate(obj);
 828              		.loc 1 176 5 view .LVU239
 176:Drivers/lvgl/src/widgets/bar/lv_bar.c ****     lv_obj_invalidate(obj);
 829              		.loc 1 176 22 is_stmt 0 view .LVU240
 830 0004 90F87020 		ldrb	r2, [r0, #112]	@ zero_extendqisi2
 831 0008 61F3C502 		bfi	r2, r1, #3, #3
 832 000c 80F87020 		strb	r2, [r0, #112]
 177:Drivers/lvgl/src/widgets/bar/lv_bar.c **** }
 833              		.loc 1 177 5 is_stmt 1 view .LVU241
 834 0010 FFF7FEFF 		bl	lv_obj_invalidate
 835              	.LVL81:
 178:Drivers/lvgl/src/widgets/bar/lv_bar.c **** 
 836              		.loc 1 178 1 is_stmt 0 view .LVU242
 837 0014 08BD     		pop	{r3, pc}
 838              	.LVL82:
 839              	.L52:
 840              	.LCFI20:
 841              		.cfi_def_cfa_offset 0
 842              		.cfi_restore 3
 843              		.cfi_restore 14
 173:Drivers/lvgl/src/widgets/bar/lv_bar.c ****     lv_bar_t * bar = (lv_bar_t *)obj;
 844              		.loc 1 173 5 is_stmt 1 discriminator 1 view .LVU243
 173:Drivers/lvgl/src/widgets/bar/lv_bar.c ****     lv_bar_t * bar = (lv_bar_t *)obj;
 845              		.loc 1 173 5 discriminator 1 view .LVU244
 173:Drivers/lvgl/src/widgets/bar/lv_bar.c ****     lv_bar_t * bar = (lv_bar_t *)obj;
 846              		.loc 1 173 5 discriminator 1 view .LVU245
 173:Drivers/lvgl/src/widgets/bar/lv_bar.c ****     lv_bar_t * bar = (lv_bar_t *)obj;
 847              		.loc 1 173 5 discriminator 1 view .LVU246
 173:Drivers/lvgl/src/widgets/bar/lv_bar.c ****     lv_bar_t * bar = (lv_bar_t *)obj;
 848              		.loc 1 173 5 discriminator 1 view .LVU247
 849 0016 FEE7     		b	.L52
 850              		.cfi_endproc
 851              	.LFE176:
 853              		.section	.text.lv_bar_get_value,"ax",%progbits
 854              		.align	1
 855              		.global	lv_bar_get_value
 856              		.syntax unified
 857              		.thumb
 858              		.thumb_func
 860              	lv_bar_get_value:
 861              	.LVL83:
 862              	.LFB177:
 185:Drivers/lvgl/src/widgets/bar/lv_bar.c ****     LV_ASSERT_OBJ(obj, MY_CLASS);
 863              		.loc 1 185 1 view -0
 864              		.cfi_startproc
 865              		@ args = 0, pretend = 0, frame = 0
 866              		@ frame_needed = 0, uses_anonymous_args = 0
 867              		@ link register save eliminated.
 186:Drivers/lvgl/src/widgets/bar/lv_bar.c ****     lv_bar_t * bar = (lv_bar_t *)obj;
 868              		.loc 1 186 5 view .LVU249
 186:Drivers/lvgl/src/widgets/bar/lv_bar.c ****     lv_bar_t * bar = (lv_bar_t *)obj;
 869              		.loc 1 186 5 view .LVU250
 870 0000 28B1     		cbz	r0, .L57
 186:Drivers/lvgl/src/widgets/bar/lv_bar.c ****     lv_bar_t * bar = (lv_bar_t *)obj;
 871              		.loc 1 186 5 discriminator 2 view .LVU251
 186:Drivers/lvgl/src/widgets/bar/lv_bar.c ****     lv_bar_t * bar = (lv_bar_t *)obj;
 872              		.loc 1 186 33 discriminator 2 view .LVU252
ARM GAS  /tmp/cc1kxWTq.s 			page 44


 187:Drivers/lvgl/src/widgets/bar/lv_bar.c **** 
 873              		.loc 1 187 5 view .LVU253
 874              	.LVL84:
 189:Drivers/lvgl/src/widgets/bar/lv_bar.c **** }
 875              		.loc 1 189 5 view .LVU254
 189:Drivers/lvgl/src/widgets/bar/lv_bar.c **** }
 876              		.loc 1 189 12 is_stmt 0 view .LVU255
 877 0002 C26D     		ldr	r2, [r0, #92]
 878 0004 B2F1FF3F 		cmp	r2, #-1
 879 0008 02D0     		beq	.L58
 189:Drivers/lvgl/src/widgets/bar/lv_bar.c **** }
 880              		.loc 1 189 12 discriminator 1 view .LVU256
 881 000a 806D     		ldr	r0, [r0, #88]
 882              	.LVL85:
 189:Drivers/lvgl/src/widgets/bar/lv_bar.c **** }
 883              		.loc 1 189 12 discriminator 1 view .LVU257
 884 000c 7047     		bx	lr
 885              	.LVL86:
 886              	.L57:
 186:Drivers/lvgl/src/widgets/bar/lv_bar.c ****     lv_bar_t * bar = (lv_bar_t *)obj;
 887              		.loc 1 186 5 is_stmt 1 discriminator 1 view .LVU258
 186:Drivers/lvgl/src/widgets/bar/lv_bar.c ****     lv_bar_t * bar = (lv_bar_t *)obj;
 888              		.loc 1 186 5 discriminator 1 view .LVU259
 186:Drivers/lvgl/src/widgets/bar/lv_bar.c ****     lv_bar_t * bar = (lv_bar_t *)obj;
 889              		.loc 1 186 5 discriminator 1 view .LVU260
 186:Drivers/lvgl/src/widgets/bar/lv_bar.c ****     lv_bar_t * bar = (lv_bar_t *)obj;
 890              		.loc 1 186 5 discriminator 1 view .LVU261
 186:Drivers/lvgl/src/widgets/bar/lv_bar.c ****     lv_bar_t * bar = (lv_bar_t *)obj;
 891              		.loc 1 186 5 discriminator 1 view .LVU262
 892 000e FEE7     		b	.L57
 893              	.LVL87:
 894              	.L58:
 189:Drivers/lvgl/src/widgets/bar/lv_bar.c **** }
 895              		.loc 1 189 12 is_stmt 0 discriminator 2 view .LVU263
 896 0010 C06A     		ldr	r0, [r0, #44]
 897              	.LVL88:
 190:Drivers/lvgl/src/widgets/bar/lv_bar.c **** 
 898              		.loc 1 190 1 view .LVU264
 899 0012 7047     		bx	lr
 900              		.cfi_endproc
 901              	.LFE177:
 903              		.section	.text.lv_bar_get_start_value,"ax",%progbits
 904              		.align	1
 905              		.global	lv_bar_get_start_value
 906              		.syntax unified
 907              		.thumb
 908              		.thumb_func
 910              	lv_bar_get_start_value:
 911              	.LVL89:
 912              	.LFB178:
 193:Drivers/lvgl/src/widgets/bar/lv_bar.c ****     LV_ASSERT_OBJ(obj, MY_CLASS);
 913              		.loc 1 193 1 is_stmt 1 view -0
 914              		.cfi_startproc
 915              		@ args = 0, pretend = 0, frame = 0
 916              		@ frame_needed = 0, uses_anonymous_args = 0
 917              		@ link register save eliminated.
 194:Drivers/lvgl/src/widgets/bar/lv_bar.c ****     lv_bar_t * bar = (lv_bar_t *)obj;
ARM GAS  /tmp/cc1kxWTq.s 			page 45


 918              		.loc 1 194 5 view .LVU266
 194:Drivers/lvgl/src/widgets/bar/lv_bar.c ****     lv_bar_t * bar = (lv_bar_t *)obj;
 919              		.loc 1 194 5 view .LVU267
 920 0000 38B1     		cbz	r0, .L62
 194:Drivers/lvgl/src/widgets/bar/lv_bar.c ****     lv_bar_t * bar = (lv_bar_t *)obj;
 921              		.loc 1 194 5 discriminator 2 view .LVU268
 194:Drivers/lvgl/src/widgets/bar/lv_bar.c ****     lv_bar_t * bar = (lv_bar_t *)obj;
 922              		.loc 1 194 33 discriminator 2 view .LVU269
 195:Drivers/lvgl/src/widgets/bar/lv_bar.c **** 
 923              		.loc 1 195 5 view .LVU270
 924              	.LVL90:
 197:Drivers/lvgl/src/widgets/bar/lv_bar.c **** 
 925              		.loc 1 197 5 view .LVU271
 197:Drivers/lvgl/src/widgets/bar/lv_bar.c **** 
 926              		.loc 1 197 18 is_stmt 0 view .LVU272
 927 0002 90F87030 		ldrb	r3, [r0, #112]	@ zero_extendqisi2
 928 0006 03F00703 		and	r3, r3, #7
 197:Drivers/lvgl/src/widgets/bar/lv_bar.c **** 
 929              		.loc 1 197 7 view .LVU273
 930 000a 022B     		cmp	r3, #2
 931 000c 02D0     		beq	.L63
 197:Drivers/lvgl/src/widgets/bar/lv_bar.c **** 
 932              		.loc 1 197 40 is_stmt 1 discriminator 1 view .LVU274
 197:Drivers/lvgl/src/widgets/bar/lv_bar.c **** 
 933              		.loc 1 197 50 is_stmt 0 discriminator 1 view .LVU275
 934 000e 006B     		ldr	r0, [r0, #48]
 935              	.LVL91:
 197:Drivers/lvgl/src/widgets/bar/lv_bar.c **** 
 936              		.loc 1 197 50 view .LVU276
 937 0010 7047     		bx	lr
 938              	.LVL92:
 939              	.L62:
 194:Drivers/lvgl/src/widgets/bar/lv_bar.c ****     lv_bar_t * bar = (lv_bar_t *)obj;
 940              		.loc 1 194 5 is_stmt 1 discriminator 1 view .LVU277
 194:Drivers/lvgl/src/widgets/bar/lv_bar.c ****     lv_bar_t * bar = (lv_bar_t *)obj;
 941              		.loc 1 194 5 discriminator 1 view .LVU278
 194:Drivers/lvgl/src/widgets/bar/lv_bar.c ****     lv_bar_t * bar = (lv_bar_t *)obj;
 942              		.loc 1 194 5 discriminator 1 view .LVU279
 194:Drivers/lvgl/src/widgets/bar/lv_bar.c ****     lv_bar_t * bar = (lv_bar_t *)obj;
 943              		.loc 1 194 5 discriminator 1 view .LVU280
 194:Drivers/lvgl/src/widgets/bar/lv_bar.c ****     lv_bar_t * bar = (lv_bar_t *)obj;
 944              		.loc 1 194 5 discriminator 1 view .LVU281
 945 0012 FEE7     		b	.L62
 946              	.LVL93:
 947              	.L63:
 199:Drivers/lvgl/src/widgets/bar/lv_bar.c **** }
 948              		.loc 1 199 5 view .LVU282
 199:Drivers/lvgl/src/widgets/bar/lv_bar.c **** }
 949              		.loc 1 199 12 is_stmt 0 view .LVU283
 950 0014 C36E     		ldr	r3, [r0, #108]
 951 0016 B3F1FF3F 		cmp	r3, #-1
 952 001a 01D0     		beq	.L65
 199:Drivers/lvgl/src/widgets/bar/lv_bar.c **** }
 953              		.loc 1 199 12 discriminator 1 view .LVU284
 954 001c 806E     		ldr	r0, [r0, #104]
 955              	.LVL94:
 199:Drivers/lvgl/src/widgets/bar/lv_bar.c **** }
ARM GAS  /tmp/cc1kxWTq.s 			page 46


 956              		.loc 1 199 12 discriminator 1 view .LVU285
 957 001e 7047     		bx	lr
 958              	.LVL95:
 959              	.L65:
 199:Drivers/lvgl/src/widgets/bar/lv_bar.c **** }
 960              		.loc 1 199 12 discriminator 2 view .LVU286
 961 0020 806B     		ldr	r0, [r0, #56]
 962              	.LVL96:
 200:Drivers/lvgl/src/widgets/bar/lv_bar.c **** 
 963              		.loc 1 200 1 view .LVU287
 964 0022 7047     		bx	lr
 965              		.cfi_endproc
 966              	.LFE178:
 968              		.section	.text.lv_bar_get_min_value,"ax",%progbits
 969              		.align	1
 970              		.global	lv_bar_get_min_value
 971              		.syntax unified
 972              		.thumb
 973              		.thumb_func
 975              	lv_bar_get_min_value:
 976              	.LVL97:
 977              	.LFB179:
 203:Drivers/lvgl/src/widgets/bar/lv_bar.c ****     LV_ASSERT_OBJ(obj, MY_CLASS);
 978              		.loc 1 203 1 is_stmt 1 view -0
 979              		.cfi_startproc
 980              		@ args = 0, pretend = 0, frame = 0
 981              		@ frame_needed = 0, uses_anonymous_args = 0
 982              		@ link register save eliminated.
 204:Drivers/lvgl/src/widgets/bar/lv_bar.c ****     lv_bar_t * bar = (lv_bar_t *)obj;
 983              		.loc 1 204 5 view .LVU289
 204:Drivers/lvgl/src/widgets/bar/lv_bar.c ****     lv_bar_t * bar = (lv_bar_t *)obj;
 984              		.loc 1 204 5 view .LVU290
 985 0000 20B1     		cbz	r0, .L68
 204:Drivers/lvgl/src/widgets/bar/lv_bar.c ****     lv_bar_t * bar = (lv_bar_t *)obj;
 986              		.loc 1 204 5 discriminator 2 view .LVU291
 204:Drivers/lvgl/src/widgets/bar/lv_bar.c ****     lv_bar_t * bar = (lv_bar_t *)obj;
 987              		.loc 1 204 33 discriminator 2 view .LVU292
 205:Drivers/lvgl/src/widgets/bar/lv_bar.c ****     return bar->val_reversed ? bar->max_value : bar->min_value;
 988              		.loc 1 205 5 view .LVU293
 989              	.LVL98:
 206:Drivers/lvgl/src/widgets/bar/lv_bar.c **** }
 990              		.loc 1 206 5 view .LVU294
 206:Drivers/lvgl/src/widgets/bar/lv_bar.c **** }
 991              		.loc 1 206 15 is_stmt 0 view .LVU295
 992 0002 90F84C20 		ldrb	r2, [r0, #76]	@ zero_extendqisi2
 206:Drivers/lvgl/src/widgets/bar/lv_bar.c **** }
 993              		.loc 1 206 47 view .LVU296
 994 0006 12B1     		cbz	r2, .L69
 206:Drivers/lvgl/src/widgets/bar/lv_bar.c **** }
 995              		.loc 1 206 47 discriminator 1 view .LVU297
 996 0008 406B     		ldr	r0, [r0, #52]
 997              	.LVL99:
 206:Drivers/lvgl/src/widgets/bar/lv_bar.c **** }
 998              		.loc 1 206 47 discriminator 1 view .LVU298
 999 000a 7047     		bx	lr
 1000              	.LVL100:
 1001              	.L68:
ARM GAS  /tmp/cc1kxWTq.s 			page 47


 204:Drivers/lvgl/src/widgets/bar/lv_bar.c ****     lv_bar_t * bar = (lv_bar_t *)obj;
 1002              		.loc 1 204 5 is_stmt 1 discriminator 1 view .LVU299
 204:Drivers/lvgl/src/widgets/bar/lv_bar.c ****     lv_bar_t * bar = (lv_bar_t *)obj;
 1003              		.loc 1 204 5 discriminator 1 view .LVU300
 204:Drivers/lvgl/src/widgets/bar/lv_bar.c ****     lv_bar_t * bar = (lv_bar_t *)obj;
 1004              		.loc 1 204 5 discriminator 1 view .LVU301
 204:Drivers/lvgl/src/widgets/bar/lv_bar.c ****     lv_bar_t * bar = (lv_bar_t *)obj;
 1005              		.loc 1 204 5 discriminator 1 view .LVU302
 204:Drivers/lvgl/src/widgets/bar/lv_bar.c ****     lv_bar_t * bar = (lv_bar_t *)obj;
 1006              		.loc 1 204 5 discriminator 1 view .LVU303
 1007 000c FEE7     		b	.L68
 1008              	.LVL101:
 1009              	.L69:
 206:Drivers/lvgl/src/widgets/bar/lv_bar.c **** }
 1010              		.loc 1 206 47 is_stmt 0 discriminator 2 view .LVU304
 1011 000e 006B     		ldr	r0, [r0, #48]
 1012              	.LVL102:
 207:Drivers/lvgl/src/widgets/bar/lv_bar.c **** 
 1013              		.loc 1 207 1 view .LVU305
 1014 0010 7047     		bx	lr
 1015              		.cfi_endproc
 1016              	.LFE179:
 1018              		.section	.text.lv_bar_get_max_value,"ax",%progbits
 1019              		.align	1
 1020              		.global	lv_bar_get_max_value
 1021              		.syntax unified
 1022              		.thumb
 1023              		.thumb_func
 1025              	lv_bar_get_max_value:
 1026              	.LVL103:
 1027              	.LFB180:
 210:Drivers/lvgl/src/widgets/bar/lv_bar.c ****     LV_ASSERT_OBJ(obj, MY_CLASS);
 1028              		.loc 1 210 1 is_stmt 1 view -0
 1029              		.cfi_startproc
 1030              		@ args = 0, pretend = 0, frame = 0
 1031              		@ frame_needed = 0, uses_anonymous_args = 0
 1032              		@ link register save eliminated.
 211:Drivers/lvgl/src/widgets/bar/lv_bar.c ****     lv_bar_t * bar = (lv_bar_t *)obj;
 1033              		.loc 1 211 5 view .LVU307
 211:Drivers/lvgl/src/widgets/bar/lv_bar.c ****     lv_bar_t * bar = (lv_bar_t *)obj;
 1034              		.loc 1 211 5 view .LVU308
 1035 0000 20B1     		cbz	r0, .L73
 211:Drivers/lvgl/src/widgets/bar/lv_bar.c ****     lv_bar_t * bar = (lv_bar_t *)obj;
 1036              		.loc 1 211 5 discriminator 2 view .LVU309
 211:Drivers/lvgl/src/widgets/bar/lv_bar.c ****     lv_bar_t * bar = (lv_bar_t *)obj;
 1037              		.loc 1 211 33 discriminator 2 view .LVU310
 212:Drivers/lvgl/src/widgets/bar/lv_bar.c **** 
 1038              		.loc 1 212 5 view .LVU311
 1039              	.LVL104:
 214:Drivers/lvgl/src/widgets/bar/lv_bar.c **** }
 1040              		.loc 1 214 5 view .LVU312
 214:Drivers/lvgl/src/widgets/bar/lv_bar.c **** }
 1041              		.loc 1 214 15 is_stmt 0 view .LVU313
 1042 0002 90F84C20 		ldrb	r2, [r0, #76]	@ zero_extendqisi2
 214:Drivers/lvgl/src/widgets/bar/lv_bar.c **** }
 1043              		.loc 1 214 47 view .LVU314
 1044 0006 12B1     		cbz	r2, .L74
ARM GAS  /tmp/cc1kxWTq.s 			page 48


 214:Drivers/lvgl/src/widgets/bar/lv_bar.c **** }
 1045              		.loc 1 214 47 discriminator 1 view .LVU315
 1046 0008 006B     		ldr	r0, [r0, #48]
 1047              	.LVL105:
 214:Drivers/lvgl/src/widgets/bar/lv_bar.c **** }
 1048              		.loc 1 214 47 discriminator 1 view .LVU316
 1049 000a 7047     		bx	lr
 1050              	.LVL106:
 1051              	.L73:
 211:Drivers/lvgl/src/widgets/bar/lv_bar.c ****     lv_bar_t * bar = (lv_bar_t *)obj;
 1052              		.loc 1 211 5 is_stmt 1 discriminator 1 view .LVU317
 211:Drivers/lvgl/src/widgets/bar/lv_bar.c ****     lv_bar_t * bar = (lv_bar_t *)obj;
 1053              		.loc 1 211 5 discriminator 1 view .LVU318
 211:Drivers/lvgl/src/widgets/bar/lv_bar.c ****     lv_bar_t * bar = (lv_bar_t *)obj;
 1054              		.loc 1 211 5 discriminator 1 view .LVU319
 211:Drivers/lvgl/src/widgets/bar/lv_bar.c ****     lv_bar_t * bar = (lv_bar_t *)obj;
 1055              		.loc 1 211 5 discriminator 1 view .LVU320
 211:Drivers/lvgl/src/widgets/bar/lv_bar.c ****     lv_bar_t * bar = (lv_bar_t *)obj;
 1056              		.loc 1 211 5 discriminator 1 view .LVU321
 1057 000c FEE7     		b	.L73
 1058              	.LVL107:
 1059              	.L74:
 214:Drivers/lvgl/src/widgets/bar/lv_bar.c **** }
 1060              		.loc 1 214 47 is_stmt 0 discriminator 2 view .LVU322
 1061 000e 406B     		ldr	r0, [r0, #52]
 1062              	.LVL108:
 215:Drivers/lvgl/src/widgets/bar/lv_bar.c **** 
 1063              		.loc 1 215 1 view .LVU323
 1064 0010 7047     		bx	lr
 1065              		.cfi_endproc
 1066              	.LFE180:
 1068              		.section	.text.lv_bar_get_mode,"ax",%progbits
 1069              		.align	1
 1070              		.global	lv_bar_get_mode
 1071              		.syntax unified
 1072              		.thumb
 1073              		.thumb_func
 1075              	lv_bar_get_mode:
 1076              	.LVL109:
 1077              	.LFB181:
 218:Drivers/lvgl/src/widgets/bar/lv_bar.c ****     LV_ASSERT_OBJ(obj, MY_CLASS);
 1078              		.loc 1 218 1 is_stmt 1 view -0
 1079              		.cfi_startproc
 1080              		@ args = 0, pretend = 0, frame = 0
 1081              		@ frame_needed = 0, uses_anonymous_args = 0
 1082              		@ link register save eliminated.
 219:Drivers/lvgl/src/widgets/bar/lv_bar.c ****     lv_bar_t * bar = (lv_bar_t *)obj;
 1083              		.loc 1 219 5 view .LVU325
 219:Drivers/lvgl/src/widgets/bar/lv_bar.c ****     lv_bar_t * bar = (lv_bar_t *)obj;
 1084              		.loc 1 219 5 view .LVU326
 1085 0000 20B1     		cbz	r0, .L78
 219:Drivers/lvgl/src/widgets/bar/lv_bar.c ****     lv_bar_t * bar = (lv_bar_t *)obj;
 1086              		.loc 1 219 5 discriminator 2 view .LVU327
 219:Drivers/lvgl/src/widgets/bar/lv_bar.c ****     lv_bar_t * bar = (lv_bar_t *)obj;
 1087              		.loc 1 219 33 discriminator 2 view .LVU328
 220:Drivers/lvgl/src/widgets/bar/lv_bar.c **** 
 1088              		.loc 1 220 5 view .LVU329
ARM GAS  /tmp/cc1kxWTq.s 			page 49


 1089              	.LVL110:
 222:Drivers/lvgl/src/widgets/bar/lv_bar.c **** }
 1090              		.loc 1 222 5 view .LVU330
 222:Drivers/lvgl/src/widgets/bar/lv_bar.c **** }
 1091              		.loc 1 222 15 is_stmt 0 view .LVU331
 1092 0002 90F87000 		ldrb	r0, [r0, #112]	@ zero_extendqisi2
 1093              	.LVL111:
 223:Drivers/lvgl/src/widgets/bar/lv_bar.c **** 
 1094              		.loc 1 223 1 view .LVU332
 1095 0006 00F00700 		and	r0, r0, #7
 1096 000a 7047     		bx	lr
 1097              	.LVL112:
 1098              	.L78:
 219:Drivers/lvgl/src/widgets/bar/lv_bar.c ****     lv_bar_t * bar = (lv_bar_t *)obj;
 1099              		.loc 1 219 5 is_stmt 1 discriminator 1 view .LVU333
 219:Drivers/lvgl/src/widgets/bar/lv_bar.c ****     lv_bar_t * bar = (lv_bar_t *)obj;
 1100              		.loc 1 219 5 discriminator 1 view .LVU334
 219:Drivers/lvgl/src/widgets/bar/lv_bar.c ****     lv_bar_t * bar = (lv_bar_t *)obj;
 1101              		.loc 1 219 5 discriminator 1 view .LVU335
 219:Drivers/lvgl/src/widgets/bar/lv_bar.c ****     lv_bar_t * bar = (lv_bar_t *)obj;
 1102              		.loc 1 219 5 discriminator 1 view .LVU336
 219:Drivers/lvgl/src/widgets/bar/lv_bar.c ****     lv_bar_t * bar = (lv_bar_t *)obj;
 1103              		.loc 1 219 5 discriminator 1 view .LVU337
 1104 000c FEE7     		b	.L78
 1105              		.cfi_endproc
 1106              	.LFE181:
 1108              		.section	.text.lv_bar_set_range,"ax",%progbits
 1109              		.align	1
 1110              		.global	lv_bar_set_range
 1111              		.syntax unified
 1112              		.thumb
 1113              		.thumb_func
 1115              	lv_bar_set_range:
 1116              	.LVL113:
 1117              	.LFB174:
 129:Drivers/lvgl/src/widgets/bar/lv_bar.c ****     LV_ASSERT_OBJ(obj, MY_CLASS);
 1118              		.loc 1 129 1 view -0
 1119              		.cfi_startproc
 1120              		@ args = 0, pretend = 0, frame = 0
 1121              		@ frame_needed = 0, uses_anonymous_args = 0
 130:Drivers/lvgl/src/widgets/bar/lv_bar.c **** 
 1122              		.loc 1 130 5 view .LVU339
 130:Drivers/lvgl/src/widgets/bar/lv_bar.c **** 
 1123              		.loc 1 130 5 view .LVU340
 1124 0000 28B3     		cbz	r0, .L81
 129:Drivers/lvgl/src/widgets/bar/lv_bar.c ****     LV_ASSERT_OBJ(obj, MY_CLASS);
 1125              		.loc 1 129 1 is_stmt 0 view .LVU341
 1126 0002 70B5     		push	{r4, r5, r6, lr}
 1127              	.LCFI21:
 1128              		.cfi_def_cfa_offset 16
 1129              		.cfi_offset 4, -16
 1130              		.cfi_offset 5, -12
 1131              		.cfi_offset 6, -8
 1132              		.cfi_offset 14, -4
 1133 0004 1546     		mov	r5, r2
 1134 0006 0446     		mov	r4, r0
 130:Drivers/lvgl/src/widgets/bar/lv_bar.c **** 
ARM GAS  /tmp/cc1kxWTq.s 			page 50


 1135              		.loc 1 130 5 is_stmt 1 discriminator 2 view .LVU342
 130:Drivers/lvgl/src/widgets/bar/lv_bar.c **** 
 1136              		.loc 1 130 33 discriminator 2 view .LVU343
 132:Drivers/lvgl/src/widgets/bar/lv_bar.c **** 
 1137              		.loc 1 132 5 view .LVU344
 1138              	.LVL114:
 134:Drivers/lvgl/src/widgets/bar/lv_bar.c **** 
 1139              		.loc 1 134 5 view .LVU345
 1140 0008 9142     		cmp	r1, r2
 1141 000a CCBF     		ite	gt
 1142 000c 0123     		movgt	r3, #1
 1143 000e 0023     		movle	r3, #0
 134:Drivers/lvgl/src/widgets/bar/lv_bar.c **** 
 1144              		.loc 1 134 23 is_stmt 0 view .LVU346
 1145 0010 80F84C30 		strb	r3, [r0, #76]
 136:Drivers/lvgl/src/widgets/bar/lv_bar.c ****     int32_t real_max = bar->val_reversed ? min : max;
 1146              		.loc 1 136 5 is_stmt 1 view .LVU347
 136:Drivers/lvgl/src/widgets/bar/lv_bar.c ****     int32_t real_max = bar->val_reversed ? min : max;
 1147              		.loc 1 136 48 is_stmt 0 view .LVU348
 1148 0014 1CDD     		ble	.L89
 136:Drivers/lvgl/src/widgets/bar/lv_bar.c ****     int32_t real_max = bar->val_reversed ? min : max;
 1149              		.loc 1 136 48 discriminator 1 view .LVU349
 1150 0016 1646     		mov	r6, r2
 1151              	.L82:
 1152              	.LVL115:
 137:Drivers/lvgl/src/widgets/bar/lv_bar.c ****     if(bar->min_value == real_min && bar->max_value == real_max) return;
 1153              		.loc 1 137 5 is_stmt 1 view .LVU350
 137:Drivers/lvgl/src/widgets/bar/lv_bar.c ****     if(bar->min_value == real_min && bar->max_value == real_max) return;
 1154              		.loc 1 137 48 is_stmt 0 view .LVU351
 1155 0018 A942     		cmp	r1, r5
 1156 001a 00DD     		ble	.L83
 137:Drivers/lvgl/src/widgets/bar/lv_bar.c ****     if(bar->min_value == real_min && bar->max_value == real_max) return;
 1157              		.loc 1 137 48 discriminator 1 view .LVU352
 1158 001c 0D46     		mov	r5, r1
 1159              	.L83:
 1160              	.LVL116:
 138:Drivers/lvgl/src/widgets/bar/lv_bar.c **** 
 1161              		.loc 1 138 5 is_stmt 1 view .LVU353
 138:Drivers/lvgl/src/widgets/bar/lv_bar.c **** 
 1162              		.loc 1 138 11 is_stmt 0 view .LVU354
 1163 001e 236B     		ldr	r3, [r4, #48]
 138:Drivers/lvgl/src/widgets/bar/lv_bar.c **** 
 1164              		.loc 1 138 7 view .LVU355
 1165 0020 B342     		cmp	r3, r6
 1166 0022 02D1     		bne	.L84
 138:Drivers/lvgl/src/widgets/bar/lv_bar.c **** 
 1167              		.loc 1 138 41 discriminator 1 view .LVU356
 1168 0024 636B     		ldr	r3, [r4, #52]
 138:Drivers/lvgl/src/widgets/bar/lv_bar.c **** 
 1169              		.loc 1 138 35 discriminator 1 view .LVU357
 1170 0026 AB42     		cmp	r3, r5
 1171 0028 10D0     		beq	.L79
 1172              	.L84:
 140:Drivers/lvgl/src/widgets/bar/lv_bar.c ****     bar->min_value = real_min;
 1173              		.loc 1 140 5 is_stmt 1 view .LVU358
 140:Drivers/lvgl/src/widgets/bar/lv_bar.c ****     bar->min_value = real_min;
 1174              		.loc 1 140 20 is_stmt 0 view .LVU359
ARM GAS  /tmp/cc1kxWTq.s 			page 51


 1175 002a 6563     		str	r5, [r4, #52]
 141:Drivers/lvgl/src/widgets/bar/lv_bar.c **** 
 1176              		.loc 1 141 5 is_stmt 1 view .LVU360
 141:Drivers/lvgl/src/widgets/bar/lv_bar.c **** 
 1177              		.loc 1 141 20 is_stmt 0 view .LVU361
 1178 002c 2663     		str	r6, [r4, #48]
 143:Drivers/lvgl/src/widgets/bar/lv_bar.c ****         bar->start_value = real_min;
 1179              		.loc 1 143 5 is_stmt 1 view .LVU362
 143:Drivers/lvgl/src/widgets/bar/lv_bar.c ****         bar->start_value = real_min;
 1180              		.loc 1 143 8 is_stmt 0 view .LVU363
 1181 002e 2046     		mov	r0, r4
 1182              	.LVL117:
 143:Drivers/lvgl/src/widgets/bar/lv_bar.c ****         bar->start_value = real_min;
 1183              		.loc 1 143 8 view .LVU364
 1184 0030 FFF7FEFF 		bl	lv_bar_get_mode
 1185              	.LVL118:
 143:Drivers/lvgl/src/widgets/bar/lv_bar.c ****         bar->start_value = real_min;
 1186              		.loc 1 143 7 discriminator 1 view .LVU365
 1187 0034 0228     		cmp	r0, #2
 1188 0036 00D0     		beq	.L86
 144:Drivers/lvgl/src/widgets/bar/lv_bar.c **** 
 1189              		.loc 1 144 9 is_stmt 1 view .LVU366
 144:Drivers/lvgl/src/widgets/bar/lv_bar.c **** 
 1190              		.loc 1 144 26 is_stmt 0 view .LVU367
 1191 0038 A663     		str	r6, [r4, #56]
 1192              	.L86:
 146:Drivers/lvgl/src/widgets/bar/lv_bar.c ****         bar->cur_value = real_max;
 1193              		.loc 1 146 5 is_stmt 1 view .LVU368
 146:Drivers/lvgl/src/widgets/bar/lv_bar.c ****         bar->cur_value = real_max;
 1194              		.loc 1 146 11 is_stmt 0 view .LVU369
 1195 003a E36A     		ldr	r3, [r4, #44]
 146:Drivers/lvgl/src/widgets/bar/lv_bar.c ****         bar->cur_value = real_max;
 1196              		.loc 1 146 7 view .LVU370
 1197 003c AB42     		cmp	r3, r5
 1198 003e 09DC     		bgt	.L92
 1199              	.L87:
 150:Drivers/lvgl/src/widgets/bar/lv_bar.c ****         bar->cur_value = real_min;
 1200              		.loc 1 150 5 is_stmt 1 view .LVU371
 150:Drivers/lvgl/src/widgets/bar/lv_bar.c ****         bar->cur_value = real_min;
 1201              		.loc 1 150 11 is_stmt 0 view .LVU372
 1202 0040 E36A     		ldr	r3, [r4, #44]
 150:Drivers/lvgl/src/widgets/bar/lv_bar.c ****         bar->cur_value = real_min;
 1203              		.loc 1 150 7 view .LVU373
 1204 0042 B342     		cmp	r3, r6
 1205 0044 0DDB     		blt	.L93
 1206              	.L88:
 155:Drivers/lvgl/src/widgets/bar/lv_bar.c **** }
 1207              		.loc 1 155 5 is_stmt 1 view .LVU374
 1208 0046 2046     		mov	r0, r4
 1209 0048 FFF7FEFF 		bl	lv_obj_invalidate
 1210              	.LVL119:
 1211              	.L79:
 156:Drivers/lvgl/src/widgets/bar/lv_bar.c **** 
 1212              		.loc 1 156 1 is_stmt 0 view .LVU375
 1213 004c 70BD     		pop	{r4, r5, r6, pc}
 1214              	.LVL120:
 1215              	.L81:
ARM GAS  /tmp/cc1kxWTq.s 			page 52


 1216              	.LCFI22:
 1217              		.cfi_def_cfa_offset 0
 1218              		.cfi_restore 4
 1219              		.cfi_restore 5
 1220              		.cfi_restore 6
 1221              		.cfi_restore 14
 130:Drivers/lvgl/src/widgets/bar/lv_bar.c **** 
 1222              		.loc 1 130 5 is_stmt 1 discriminator 1 view .LVU376
 130:Drivers/lvgl/src/widgets/bar/lv_bar.c **** 
 1223              		.loc 1 130 5 discriminator 1 view .LVU377
 130:Drivers/lvgl/src/widgets/bar/lv_bar.c **** 
 1224              		.loc 1 130 5 discriminator 1 view .LVU378
 130:Drivers/lvgl/src/widgets/bar/lv_bar.c **** 
 1225              		.loc 1 130 5 discriminator 1 view .LVU379
 130:Drivers/lvgl/src/widgets/bar/lv_bar.c **** 
 1226              		.loc 1 130 5 discriminator 1 view .LVU380
 1227 004e FEE7     		b	.L81
 1228              	.LVL121:
 1229              	.L89:
 1230              	.LCFI23:
 1231              		.cfi_def_cfa_offset 16
 1232              		.cfi_offset 4, -16
 1233              		.cfi_offset 5, -12
 1234              		.cfi_offset 6, -8
 1235              		.cfi_offset 14, -4
 136:Drivers/lvgl/src/widgets/bar/lv_bar.c ****     int32_t real_max = bar->val_reversed ? min : max;
 1236              		.loc 1 136 48 is_stmt 0 discriminator 2 view .LVU381
 1237 0050 0E46     		mov	r6, r1
 1238 0052 E1E7     		b	.L82
 1239              	.LVL122:
 1240              	.L92:
 147:Drivers/lvgl/src/widgets/bar/lv_bar.c ****         lv_bar_set_value(obj, bar->cur_value, LV_ANIM_OFF);
 1241              		.loc 1 147 9 is_stmt 1 view .LVU382
 147:Drivers/lvgl/src/widgets/bar/lv_bar.c ****         lv_bar_set_value(obj, bar->cur_value, LV_ANIM_OFF);
 1242              		.loc 1 147 24 is_stmt 0 view .LVU383
 1243 0054 E562     		str	r5, [r4, #44]
 148:Drivers/lvgl/src/widgets/bar/lv_bar.c ****     }
 1244              		.loc 1 148 9 is_stmt 1 view .LVU384
 1245 0056 0022     		movs	r2, #0
 1246 0058 2946     		mov	r1, r5
 1247 005a 2046     		mov	r0, r4
 1248 005c FFF7FEFF 		bl	lv_bar_set_value
 1249              	.LVL123:
 1250 0060 EEE7     		b	.L87
 1251              	.L93:
 151:Drivers/lvgl/src/widgets/bar/lv_bar.c ****         lv_bar_set_value(obj, bar->cur_value, LV_ANIM_OFF);
 1252              		.loc 1 151 9 view .LVU385
 151:Drivers/lvgl/src/widgets/bar/lv_bar.c ****         lv_bar_set_value(obj, bar->cur_value, LV_ANIM_OFF);
 1253              		.loc 1 151 24 is_stmt 0 view .LVU386
 1254 0062 E662     		str	r6, [r4, #44]
 152:Drivers/lvgl/src/widgets/bar/lv_bar.c ****     }
 1255              		.loc 1 152 9 is_stmt 1 view .LVU387
 1256 0064 0022     		movs	r2, #0
 1257 0066 3146     		mov	r1, r6
 1258 0068 2046     		mov	r0, r4
 1259 006a FFF7FEFF 		bl	lv_bar_set_value
 1260              	.LVL124:
ARM GAS  /tmp/cc1kxWTq.s 			page 53


 1261 006e EAE7     		b	.L88
 1262              		.cfi_endproc
 1263              	.LFE174:
 1265              		.section	.text.lv_bar_get_orientation,"ax",%progbits
 1266              		.align	1
 1267              		.global	lv_bar_get_orientation
 1268              		.syntax unified
 1269              		.thumb
 1270              		.thumb_func
 1272              	lv_bar_get_orientation:
 1273              	.LVL125:
 1274              	.LFB182:
 226:Drivers/lvgl/src/widgets/bar/lv_bar.c ****     LV_ASSERT_OBJ(obj, MY_CLASS);
 1275              		.loc 1 226 1 view -0
 1276              		.cfi_startproc
 1277              		@ args = 0, pretend = 0, frame = 0
 1278              		@ frame_needed = 0, uses_anonymous_args = 0
 1279              		@ link register save eliminated.
 227:Drivers/lvgl/src/widgets/bar/lv_bar.c ****     lv_bar_t * bar = (lv_bar_t *)obj;
 1280              		.loc 1 227 5 view .LVU389
 227:Drivers/lvgl/src/widgets/bar/lv_bar.c ****     lv_bar_t * bar = (lv_bar_t *)obj;
 1281              		.loc 1 227 5 view .LVU390
 1282 0000 20B1     		cbz	r0, .L96
 227:Drivers/lvgl/src/widgets/bar/lv_bar.c ****     lv_bar_t * bar = (lv_bar_t *)obj;
 1283              		.loc 1 227 5 discriminator 2 view .LVU391
 227:Drivers/lvgl/src/widgets/bar/lv_bar.c ****     lv_bar_t * bar = (lv_bar_t *)obj;
 1284              		.loc 1 227 33 discriminator 2 view .LVU392
 228:Drivers/lvgl/src/widgets/bar/lv_bar.c **** 
 1285              		.loc 1 228 5 view .LVU393
 1286              	.LVL126:
 230:Drivers/lvgl/src/widgets/bar/lv_bar.c **** }
 1287              		.loc 1 230 5 view .LVU394
 230:Drivers/lvgl/src/widgets/bar/lv_bar.c **** }
 1288              		.loc 1 230 15 is_stmt 0 view .LVU395
 1289 0002 90F87000 		ldrb	r0, [r0, #112]	@ zero_extendqisi2
 1290              	.LVL127:
 231:Drivers/lvgl/src/widgets/bar/lv_bar.c **** 
 1291              		.loc 1 231 1 view .LVU396
 1292 0006 C0F3C200 		ubfx	r0, r0, #3, #3
 1293 000a 7047     		bx	lr
 1294              	.LVL128:
 1295              	.L96:
 227:Drivers/lvgl/src/widgets/bar/lv_bar.c ****     lv_bar_t * bar = (lv_bar_t *)obj;
 1296              		.loc 1 227 5 is_stmt 1 discriminator 1 view .LVU397
 227:Drivers/lvgl/src/widgets/bar/lv_bar.c ****     lv_bar_t * bar = (lv_bar_t *)obj;
 1297              		.loc 1 227 5 discriminator 1 view .LVU398
 227:Drivers/lvgl/src/widgets/bar/lv_bar.c ****     lv_bar_t * bar = (lv_bar_t *)obj;
 1298              		.loc 1 227 5 discriminator 1 view .LVU399
 227:Drivers/lvgl/src/widgets/bar/lv_bar.c ****     lv_bar_t * bar = (lv_bar_t *)obj;
 1299              		.loc 1 227 5 discriminator 1 view .LVU400
 227:Drivers/lvgl/src/widgets/bar/lv_bar.c ****     lv_bar_t * bar = (lv_bar_t *)obj;
 1300              		.loc 1 227 5 discriminator 1 view .LVU401
 1301 000c FEE7     		b	.L96
 1302              		.cfi_endproc
 1303              	.LFE182:
 1305              		.section	.text.lv_bar_is_symmetrical,"ax",%progbits
 1306              		.align	1
ARM GAS  /tmp/cc1kxWTq.s 			page 54


 1307              		.global	lv_bar_is_symmetrical
 1308              		.syntax unified
 1309              		.thumb
 1310              		.thumb_func
 1312              	lv_bar_is_symmetrical:
 1313              	.LVL129:
 1314              	.LFB183:
 234:Drivers/lvgl/src/widgets/bar/lv_bar.c ****     LV_ASSERT_OBJ(obj, MY_CLASS);
 1315              		.loc 1 234 1 view -0
 1316              		.cfi_startproc
 1317              		@ args = 0, pretend = 0, frame = 0
 1318              		@ frame_needed = 0, uses_anonymous_args = 0
 1319              		@ link register save eliminated.
 235:Drivers/lvgl/src/widgets/bar/lv_bar.c ****     lv_bar_t * bar = (lv_bar_t *)obj;
 1320              		.loc 1 235 5 view .LVU403
 235:Drivers/lvgl/src/widgets/bar/lv_bar.c ****     lv_bar_t * bar = (lv_bar_t *)obj;
 1321              		.loc 1 235 5 view .LVU404
 1322 0000 38B1     		cbz	r0, .L99
 235:Drivers/lvgl/src/widgets/bar/lv_bar.c ****     lv_bar_t * bar = (lv_bar_t *)obj;
 1323              		.loc 1 235 5 discriminator 2 view .LVU405
 235:Drivers/lvgl/src/widgets/bar/lv_bar.c ****     lv_bar_t * bar = (lv_bar_t *)obj;
 1324              		.loc 1 235 33 discriminator 2 view .LVU406
 236:Drivers/lvgl/src/widgets/bar/lv_bar.c **** 
 1325              		.loc 1 236 5 view .LVU407
 1326              	.LVL130:
 238:Drivers/lvgl/src/widgets/bar/lv_bar.c ****             bar->start_value == bar->min_value;
 1327              		.loc 1 238 5 view .LVU408
 238:Drivers/lvgl/src/widgets/bar/lv_bar.c ****             bar->start_value == bar->min_value;
 1328              		.loc 1 238 23 is_stmt 0 view .LVU409
 1329 0002 90F87030 		ldrb	r3, [r0, #112]	@ zero_extendqisi2
 1330 0006 03F00703 		and	r3, r3, #7
 238:Drivers/lvgl/src/widgets/bar/lv_bar.c ****             bar->start_value == bar->min_value;
 1331              		.loc 1 238 94 view .LVU410
 1332 000a 012B     		cmp	r3, #1
 1333 000c 02D0     		beq	.L105
 238:Drivers/lvgl/src/widgets/bar/lv_bar.c ****             bar->start_value == bar->min_value;
 1334              		.loc 1 238 94 discriminator 8 view .LVU411
 1335 000e 0020     		movs	r0, #0
 1336              	.LVL131:
 238:Drivers/lvgl/src/widgets/bar/lv_bar.c ****             bar->start_value == bar->min_value;
 1337              		.loc 1 238 94 discriminator 8 view .LVU412
 1338 0010 7047     		bx	lr
 1339              	.LVL132:
 1340              	.L99:
 235:Drivers/lvgl/src/widgets/bar/lv_bar.c ****     lv_bar_t * bar = (lv_bar_t *)obj;
 1341              		.loc 1 235 5 is_stmt 1 discriminator 1 view .LVU413
 235:Drivers/lvgl/src/widgets/bar/lv_bar.c ****     lv_bar_t * bar = (lv_bar_t *)obj;
 1342              		.loc 1 235 5 discriminator 1 view .LVU414
 235:Drivers/lvgl/src/widgets/bar/lv_bar.c ****     lv_bar_t * bar = (lv_bar_t *)obj;
 1343              		.loc 1 235 5 discriminator 1 view .LVU415
 235:Drivers/lvgl/src/widgets/bar/lv_bar.c ****     lv_bar_t * bar = (lv_bar_t *)obj;
 1344              		.loc 1 235 5 discriminator 1 view .LVU416
 235:Drivers/lvgl/src/widgets/bar/lv_bar.c ****     lv_bar_t * bar = (lv_bar_t *)obj;
 1345              		.loc 1 235 5 discriminator 1 view .LVU417
 1346 0012 FEE7     		b	.L99
 1347              	.LVL133:
 1348              	.L105:
ARM GAS  /tmp/cc1kxWTq.s 			page 55


 238:Drivers/lvgl/src/widgets/bar/lv_bar.c ****             bar->start_value == bar->min_value;
 1349              		.loc 1 238 56 is_stmt 0 discriminator 1 view .LVU418
 1350 0014 036B     		ldr	r3, [r0, #48]
 238:Drivers/lvgl/src/widgets/bar/lv_bar.c ****             bar->start_value == bar->min_value;
 1351              		.loc 1 238 50 discriminator 1 view .LVU419
 1352 0016 002B     		cmp	r3, #0
 1353 0018 01DB     		blt	.L106
 238:Drivers/lvgl/src/widgets/bar/lv_bar.c ****             bar->start_value == bar->min_value;
 1354              		.loc 1 238 94 discriminator 8 view .LVU420
 1355 001a 0020     		movs	r0, #0
 1356              	.LVL134:
 238:Drivers/lvgl/src/widgets/bar/lv_bar.c ****             bar->start_value == bar->min_value;
 1357              		.loc 1 238 94 discriminator 8 view .LVU421
 1358 001c 7047     		bx	lr
 1359              	.LVL135:
 1360              	.L106:
 238:Drivers/lvgl/src/widgets/bar/lv_bar.c ****             bar->start_value == bar->min_value;
 1361              		.loc 1 238 78 discriminator 3 view .LVU422
 1362 001e 416B     		ldr	r1, [r0, #52]
 238:Drivers/lvgl/src/widgets/bar/lv_bar.c ****             bar->start_value == bar->min_value;
 1363              		.loc 1 238 72 discriminator 3 view .LVU423
 1364 0020 0029     		cmp	r1, #0
 1365 0022 04DD     		ble	.L103
 239:Drivers/lvgl/src/widgets/bar/lv_bar.c **** }
 1366              		.loc 1 239 16 view .LVU424
 1367 0024 826B     		ldr	r2, [r0, #56]
 238:Drivers/lvgl/src/widgets/bar/lv_bar.c ****             bar->start_value == bar->min_value;
 1368              		.loc 1 238 94 discriminator 5 view .LVU425
 1369 0026 9342     		cmp	r3, r2
 1370 0028 03D0     		beq	.L104
 238:Drivers/lvgl/src/widgets/bar/lv_bar.c ****             bar->start_value == bar->min_value;
 1371              		.loc 1 238 94 discriminator 8 view .LVU426
 1372 002a 0020     		movs	r0, #0
 1373              	.LVL136:
 238:Drivers/lvgl/src/widgets/bar/lv_bar.c ****             bar->start_value == bar->min_value;
 1374              		.loc 1 238 94 discriminator 8 view .LVU427
 1375 002c 7047     		bx	lr
 1376              	.LVL137:
 1377              	.L103:
 238:Drivers/lvgl/src/widgets/bar/lv_bar.c ****             bar->start_value == bar->min_value;
 1378              		.loc 1 238 94 discriminator 8 view .LVU428
 1379 002e 0020     		movs	r0, #0
 1380              	.LVL138:
 238:Drivers/lvgl/src/widgets/bar/lv_bar.c ****             bar->start_value == bar->min_value;
 1381              		.loc 1 238 94 discriminator 8 view .LVU429
 1382 0030 7047     		bx	lr
 1383              	.LVL139:
 1384              	.L104:
 238:Drivers/lvgl/src/widgets/bar/lv_bar.c ****             bar->start_value == bar->min_value;
 1385              		.loc 1 238 94 discriminator 7 view .LVU430
 1386 0032 0120     		movs	r0, #1
 1387              	.LVL140:
 240:Drivers/lvgl/src/widgets/bar/lv_bar.c **** 
 1388              		.loc 1 240 1 view .LVU431
 1389 0034 7047     		bx	lr
 1390              		.cfi_endproc
 1391              	.LFE183:
ARM GAS  /tmp/cc1kxWTq.s 			page 56


 1393              		.section	.text.draw_indic,"ax",%progbits
 1394              		.align	1
 1395              		.syntax unified
 1396              		.thumb
 1397              		.thumb_func
 1399              	draw_indic:
 1400              	.LVL141:
 1401              	.LFB186:
 284:Drivers/lvgl/src/widgets/bar/lv_bar.c ****     lv_obj_t * obj = lv_event_get_current_target(e);
 1402              		.loc 1 284 1 is_stmt 1 view -0
 1403              		.cfi_startproc
 1404              		@ args = 0, pretend = 0, frame = 472
 1405              		@ frame_needed = 0, uses_anonymous_args = 0
 284:Drivers/lvgl/src/widgets/bar/lv_bar.c ****     lv_obj_t * obj = lv_event_get_current_target(e);
 1406              		.loc 1 284 1 is_stmt 0 view .LVU433
 1407 0000 2DE9F04F 		push	{r4, r5, r6, r7, r8, r9, r10, fp, lr}
 1408              	.LCFI24:
 1409              		.cfi_def_cfa_offset 36
 1410              		.cfi_offset 4, -36
 1411              		.cfi_offset 5, -32
 1412              		.cfi_offset 6, -28
 1413              		.cfi_offset 7, -24
 1414              		.cfi_offset 8, -20
 1415              		.cfi_offset 9, -16
 1416              		.cfi_offset 10, -12
 1417              		.cfi_offset 11, -8
 1418              		.cfi_offset 14, -4
 1419 0004 F7B0     		sub	sp, sp, #476
 1420              	.LCFI25:
 1421              		.cfi_def_cfa_offset 512
 1422 0006 0546     		mov	r5, r0
 285:Drivers/lvgl/src/widgets/bar/lv_bar.c ****     lv_bar_t * bar = (lv_bar_t *)obj;
 1423              		.loc 1 285 5 is_stmt 1 view .LVU434
 285:Drivers/lvgl/src/widgets/bar/lv_bar.c ****     lv_bar_t * bar = (lv_bar_t *)obj;
 1424              		.loc 1 285 22 is_stmt 0 view .LVU435
 1425 0008 FFF7FEFF 		bl	lv_event_get_current_target
 1426              	.LVL142:
 285:Drivers/lvgl/src/widgets/bar/lv_bar.c ****     lv_bar_t * bar = (lv_bar_t *)obj;
 1427              		.loc 1 285 22 view .LVU436
 1428 000c 0446     		mov	r4, r0
 1429              	.LVL143:
 286:Drivers/lvgl/src/widgets/bar/lv_bar.c **** 
 1430              		.loc 1 286 5 is_stmt 1 view .LVU437
 288:Drivers/lvgl/src/widgets/bar/lv_bar.c **** 
 1431              		.loc 1 288 5 view .LVU438
 288:Drivers/lvgl/src/widgets/bar/lv_bar.c **** 
 1432              		.loc 1 288 26 is_stmt 0 view .LVU439
 1433 000e 2846     		mov	r0, r5
 1434              	.LVL144:
 288:Drivers/lvgl/src/widgets/bar/lv_bar.c **** 
 1435              		.loc 1 288 26 view .LVU440
 1436 0010 FFF7FEFF 		bl	lv_event_get_layer
 1437              	.LVL145:
 1438 0014 0290     		str	r0, [sp, #8]
 1439              	.LVL146:
 290:Drivers/lvgl/src/widgets/bar/lv_bar.c ****     lv_obj_get_coords(obj, &bar_coords);
 1440              		.loc 1 290 5 is_stmt 1 view .LVU441
ARM GAS  /tmp/cc1kxWTq.s 			page 57


 291:Drivers/lvgl/src/widgets/bar/lv_bar.c **** 
 1441              		.loc 1 291 5 view .LVU442
 1442 0016 72AD     		add	r5, sp, #456
 1443              	.LVL147:
 291:Drivers/lvgl/src/widgets/bar/lv_bar.c **** 
 1444              		.loc 1 291 5 is_stmt 0 view .LVU443
 1445 0018 2946     		mov	r1, r5
 1446 001a 2046     		mov	r0, r4
 1447              	.LVL148:
 291:Drivers/lvgl/src/widgets/bar/lv_bar.c **** 
 1448              		.loc 1 291 5 view .LVU444
 1449 001c FFF7FEFF 		bl	lv_obj_get_coords
 1450              	.LVL149:
 293:Drivers/lvgl/src/widgets/bar/lv_bar.c ****     int32_t transf_h = lv_obj_get_style_transform_height(obj, LV_PART_MAIN);
 1451              		.loc 1 293 5 is_stmt 1 view .LVU445
 1452              	.LBB47:
 1453              	.LBI47:
  82:Drivers/lvgl/src/widgets/bar/../../core/lv_obj_style_gen.h **** {
 1454              		.loc 2 82 23 view .LVU446
 1455              	.LBB48:
  84:Drivers/lvgl/src/widgets/bar/../../core/lv_obj_style_gen.h ****     return (int32_t)v.num;
 1456              		.loc 2 84 5 view .LVU447
  84:Drivers/lvgl/src/widgets/bar/../../core/lv_obj_style_gen.h ****     return (int32_t)v.num;
 1457              		.loc 2 84 26 is_stmt 0 view .LVU448
 1458 0020 6A22     		movs	r2, #106
 1459 0022 0021     		movs	r1, #0
 1460 0024 2046     		mov	r0, r4
 1461 0026 FFF7FEFF 		bl	lv_obj_get_style_prop
 1462              	.LVL150:
 1463 002a 0646     		mov	r6, r0
 1464 002c 3690     		str	r0, [sp, #216]
  85:Drivers/lvgl/src/widgets/bar/../../core/lv_obj_style_gen.h **** }
 1465              		.loc 2 85 5 is_stmt 1 view .LVU449
 1466              	.LVL151:
  85:Drivers/lvgl/src/widgets/bar/../../core/lv_obj_style_gen.h **** }
 1467              		.loc 2 85 5 is_stmt 0 view .LVU450
 1468              	.LBE48:
 1469              	.LBE47:
 294:Drivers/lvgl/src/widgets/bar/lv_bar.c ****     lv_area_increase(&bar_coords, transf_w, transf_h);
 1470              		.loc 1 294 5 is_stmt 1 view .LVU451
 1471              	.LBB49:
 1472              	.LBI49:
  88:Drivers/lvgl/src/widgets/bar/../../core/lv_obj_style_gen.h **** {
 1473              		.loc 2 88 23 view .LVU452
 1474              	.LBB50:
  90:Drivers/lvgl/src/widgets/bar/../../core/lv_obj_style_gen.h ****     return (int32_t)v.num;
 1475              		.loc 2 90 5 view .LVU453
  90:Drivers/lvgl/src/widgets/bar/../../core/lv_obj_style_gen.h ****     return (int32_t)v.num;
 1476              		.loc 2 90 26 is_stmt 0 view .LVU454
 1477 002e 6B22     		movs	r2, #107
 1478 0030 0021     		movs	r1, #0
 1479 0032 2046     		mov	r0, r4
 1480              	.LVL152:
  90:Drivers/lvgl/src/widgets/bar/../../core/lv_obj_style_gen.h ****     return (int32_t)v.num;
 1481              		.loc 2 90 26 view .LVU455
 1482 0034 FFF7FEFF 		bl	lv_obj_get_style_prop
 1483              	.LVL153:
ARM GAS  /tmp/cc1kxWTq.s 			page 58


 1484 0038 0246     		mov	r2, r0
 1485 003a 3690     		str	r0, [sp, #216]
  91:Drivers/lvgl/src/widgets/bar/../../core/lv_obj_style_gen.h **** }
 1486              		.loc 2 91 5 is_stmt 1 view .LVU456
 1487              	.LVL154:
  91:Drivers/lvgl/src/widgets/bar/../../core/lv_obj_style_gen.h **** }
 1488              		.loc 2 91 5 is_stmt 0 view .LVU457
 1489              	.LBE50:
 1490              	.LBE49:
 295:Drivers/lvgl/src/widgets/bar/lv_bar.c ****     int32_t barw = lv_area_get_width(&bar_coords);
 1491              		.loc 1 295 5 is_stmt 1 view .LVU458
 1492 003c 3146     		mov	r1, r6
 1493 003e 2846     		mov	r0, r5
 1494              	.LVL155:
 295:Drivers/lvgl/src/widgets/bar/lv_bar.c ****     int32_t barw = lv_area_get_width(&bar_coords);
 1495              		.loc 1 295 5 is_stmt 0 view .LVU459
 1496 0040 FFF7FEFF 		bl	lv_area_increase
 1497              	.LVL156:
 296:Drivers/lvgl/src/widgets/bar/lv_bar.c ****     int32_t barh = lv_area_get_height(&bar_coords);
 1498              		.loc 1 296 5 is_stmt 1 view .LVU460
 296:Drivers/lvgl/src/widgets/bar/lv_bar.c ****     int32_t barh = lv_area_get_height(&bar_coords);
 1499              		.loc 1 296 20 is_stmt 0 view .LVU461
 1500 0044 2846     		mov	r0, r5
 1501 0046 FFF7FEFF 		bl	lv_area_get_width
 1502              	.LVL157:
 1503 004a 0590     		str	r0, [sp, #20]
 1504              	.LVL158:
 297:Drivers/lvgl/src/widgets/bar/lv_bar.c ****     int32_t range = bar->max_value - bar->min_value;
 1505              		.loc 1 297 5 is_stmt 1 view .LVU462
 297:Drivers/lvgl/src/widgets/bar/lv_bar.c ****     int32_t range = bar->max_value - bar->min_value;
 1506              		.loc 1 297 20 is_stmt 0 view .LVU463
 1507 004c 2846     		mov	r0, r5
 1508              	.LVL159:
 297:Drivers/lvgl/src/widgets/bar/lv_bar.c ****     int32_t range = bar->max_value - bar->min_value;
 1509              		.loc 1 297 20 view .LVU464
 1510 004e FFF7FEFF 		bl	lv_area_get_height
 1511              	.LVL160:
 1512 0052 0690     		str	r0, [sp, #24]
 1513              	.LVL161:
 298:Drivers/lvgl/src/widgets/bar/lv_bar.c **** 
 1514              		.loc 1 298 5 is_stmt 1 view .LVU465
 298:Drivers/lvgl/src/widgets/bar/lv_bar.c **** 
 1515              		.loc 1 298 24 is_stmt 0 view .LVU466
 1516 0054 676B     		ldr	r7, [r4, #52]
 298:Drivers/lvgl/src/widgets/bar/lv_bar.c **** 
 1517              		.loc 1 298 41 view .LVU467
 1518 0056 236B     		ldr	r3, [r4, #48]
 1519              	.LVL162:
 301:Drivers/lvgl/src/widgets/bar/lv_bar.c ****         range = 1;
 1520              		.loc 1 301 5 is_stmt 1 view .LVU468
 301:Drivers/lvgl/src/widgets/bar/lv_bar.c ****         range = 1;
 1521              		.loc 1 301 7 is_stmt 0 view .LVU469
 1522 0058 FF1A     		subs	r7, r7, r3
 1523              	.LVL163:
 301:Drivers/lvgl/src/widgets/bar/lv_bar.c ****         range = 1;
 1524              		.loc 1 301 7 view .LVU470
 1525 005a 00D1     		bne	.L108
ARM GAS  /tmp/cc1kxWTq.s 			page 59


 302:Drivers/lvgl/src/widgets/bar/lv_bar.c ****     }
 1526              		.loc 1 302 15 view .LVU471
 1527 005c 0127     		movs	r7, #1
 1528              	.LVL164:
 1529              	.L108:
 305:Drivers/lvgl/src/widgets/bar/lv_bar.c ****     switch(bar->orientation) {
 1530              		.loc 1 305 5 is_stmt 1 view .LVU472
 306:Drivers/lvgl/src/widgets/bar/lv_bar.c ****         case LV_BAR_ORIENTATION_HORIZONTAL:
 1531              		.loc 1 306 5 view .LVU473
 306:Drivers/lvgl/src/widgets/bar/lv_bar.c ****         case LV_BAR_ORIENTATION_HORIZONTAL:
 1532              		.loc 1 306 15 is_stmt 0 view .LVU474
 1533 005e 94F87030 		ldrb	r3, [r4, #112]	@ zero_extendqisi2
 1534 0062 C3F3C203 		ubfx	r3, r3, #3, #3
 306:Drivers/lvgl/src/widgets/bar/lv_bar.c ****         case LV_BAR_ORIENTATION_HORIZONTAL:
 1535              		.loc 1 306 5 view .LVU475
 1536 0066 012B     		cmp	r3, #1
 1537 0068 00F00F81 		beq	.L159
 1538 006c 022B     		cmp	r3, #2
 1539 006e 00F00F81 		beq	.L160
 315:Drivers/lvgl/src/widgets/bar/lv_bar.c ****             break;
 1540              		.loc 1 315 13 is_stmt 1 view .LVU476
 315:Drivers/lvgl/src/widgets/bar/lv_bar.c ****             break;
 1541              		.loc 1 315 17 is_stmt 0 view .LVU477
 1542 0072 059B     		ldr	r3, [sp, #20]
 1543 0074 069A     		ldr	r2, [sp, #24]
 1544 0076 9342     		cmp	r3, r2
 1545 0078 B4BF     		ite	lt
 1546 007a 4FF00009 		movlt	r9, #0
 1547 007e 4FF00109 		movge	r9, #1
 1548              	.LVL165:
 316:Drivers/lvgl/src/widgets/bar/lv_bar.c ****     }
 1549              		.loc 1 316 13 is_stmt 1 view .LVU478
 1550              	.L109:
 319:Drivers/lvgl/src/widgets/bar/lv_bar.c **** 
 1551              		.loc 1 319 5 view .LVU479
 319:Drivers/lvgl/src/widgets/bar/lv_bar.c **** 
 1552              		.loc 1 319 16 is_stmt 0 view .LVU480
 1553 0082 2046     		mov	r0, r4
 1554              	.LVL166:
 319:Drivers/lvgl/src/widgets/bar/lv_bar.c **** 
 1555              		.loc 1 319 16 view .LVU481
 1556 0084 FFF7FEFF 		bl	lv_bar_is_symmetrical
 1557              	.LVL167:
 1558 0088 0890     		str	r0, [sp, #32]
 1559              	.LVL168:
 322:Drivers/lvgl/src/widgets/bar/lv_bar.c ****     int32_t bg_right = lv_obj_get_style_pad_right(obj,   LV_PART_MAIN);
 1560              		.loc 1 322 5 is_stmt 1 view .LVU482
 1561              	.LBB51:
 1562              	.LBI51:
 166:Drivers/lvgl/src/widgets/bar/../../core/lv_obj_style_gen.h **** {
 1563              		.loc 2 166 23 view .LVU483
 1564              	.LBB52:
 168:Drivers/lvgl/src/widgets/bar/../../core/lv_obj_style_gen.h ****     return (int32_t)v.num;
 1565              		.loc 2 168 5 view .LVU484
 168:Drivers/lvgl/src/widgets/bar/../../core/lv_obj_style_gen.h ****     return (int32_t)v.num;
 1566              		.loc 2 168 26 is_stmt 0 view .LVU485
 1567 008a 1222     		movs	r2, #18
ARM GAS  /tmp/cc1kxWTq.s 			page 60


 1568 008c 0021     		movs	r1, #0
 1569 008e 2046     		mov	r0, r4
 1570 0090 FFF7FEFF 		bl	lv_obj_get_style_prop
 1571              	.LVL169:
 1572 0094 0646     		mov	r6, r0
 1573              	.LVL170:
 168:Drivers/lvgl/src/widgets/bar/../../core/lv_obj_style_gen.h ****     return (int32_t)v.num;
 1574              		.loc 2 168 26 view .LVU486
 1575 0096 0790     		str	r0, [sp, #28]
 1576 0098 3690     		str	r0, [sp, #216]
 169:Drivers/lvgl/src/widgets/bar/../../core/lv_obj_style_gen.h **** }
 1577              		.loc 2 169 5 is_stmt 1 view .LVU487
 1578              	.LVL171:
 169:Drivers/lvgl/src/widgets/bar/../../core/lv_obj_style_gen.h **** }
 1579              		.loc 2 169 5 is_stmt 0 view .LVU488
 1580              	.LBE52:
 1581              	.LBE51:
 323:Drivers/lvgl/src/widgets/bar/lv_bar.c ****     int32_t bg_top = lv_obj_get_style_pad_top(obj,       LV_PART_MAIN);
 1582              		.loc 1 323 5 is_stmt 1 view .LVU489
 1583              	.LBB53:
 1584              	.LBI53:
 172:Drivers/lvgl/src/widgets/bar/../../core/lv_obj_style_gen.h **** {
 1585              		.loc 2 172 23 view .LVU490
 1586              	.LBB54:
 174:Drivers/lvgl/src/widgets/bar/../../core/lv_obj_style_gen.h ****     return (int32_t)v.num;
 1587              		.loc 2 174 5 view .LVU491
 174:Drivers/lvgl/src/widgets/bar/../../core/lv_obj_style_gen.h ****     return (int32_t)v.num;
 1588              		.loc 2 174 26 is_stmt 0 view .LVU492
 1589 009a 1322     		movs	r2, #19
 1590 009c 0021     		movs	r1, #0
 1591 009e 2046     		mov	r0, r4
 1592              	.LVL172:
 174:Drivers/lvgl/src/widgets/bar/../../core/lv_obj_style_gen.h ****     return (int32_t)v.num;
 1593              		.loc 2 174 26 view .LVU493
 1594 00a0 FFF7FEFF 		bl	lv_obj_get_style_prop
 1595              	.LVL173:
 1596 00a4 0090     		str	r0, [sp]
 1597 00a6 3690     		str	r0, [sp, #216]
 175:Drivers/lvgl/src/widgets/bar/../../core/lv_obj_style_gen.h **** }
 1598              		.loc 2 175 5 is_stmt 1 view .LVU494
 1599              	.LVL174:
 175:Drivers/lvgl/src/widgets/bar/../../core/lv_obj_style_gen.h **** }
 1600              		.loc 2 175 5 is_stmt 0 view .LVU495
 1601              	.LBE54:
 1602              	.LBE53:
 324:Drivers/lvgl/src/widgets/bar/lv_bar.c ****     int32_t bg_bottom = lv_obj_get_style_pad_bottom(obj, LV_PART_MAIN);
 1603              		.loc 1 324 5 is_stmt 1 view .LVU496
 1604              	.LBB55:
 1605              	.LBI55:
 154:Drivers/lvgl/src/widgets/bar/../../core/lv_obj_style_gen.h **** {
 1606              		.loc 2 154 23 view .LVU497
 1607              	.LBB56:
 156:Drivers/lvgl/src/widgets/bar/../../core/lv_obj_style_gen.h ****     return (int32_t)v.num;
 1608              		.loc 2 156 5 view .LVU498
 156:Drivers/lvgl/src/widgets/bar/../../core/lv_obj_style_gen.h ****     return (int32_t)v.num;
 1609              		.loc 2 156 26 is_stmt 0 view .LVU499
 1610 00a8 1022     		movs	r2, #16
ARM GAS  /tmp/cc1kxWTq.s 			page 61


 1611 00aa 0021     		movs	r1, #0
 1612 00ac 2046     		mov	r0, r4
 1613              	.LVL175:
 156:Drivers/lvgl/src/widgets/bar/../../core/lv_obj_style_gen.h ****     return (int32_t)v.num;
 1614              		.loc 2 156 26 view .LVU500
 1615 00ae FFF7FEFF 		bl	lv_obj_get_style_prop
 1616              	.LVL176:
 1617 00b2 0390     		str	r0, [sp, #12]
 1618 00b4 3690     		str	r0, [sp, #216]
 157:Drivers/lvgl/src/widgets/bar/../../core/lv_obj_style_gen.h **** }
 1619              		.loc 2 157 5 is_stmt 1 view .LVU501
 1620              	.LVL177:
 157:Drivers/lvgl/src/widgets/bar/../../core/lv_obj_style_gen.h **** }
 1621              		.loc 2 157 5 is_stmt 0 view .LVU502
 1622              	.LBE56:
 1623              	.LBE55:
 325:Drivers/lvgl/src/widgets/bar/lv_bar.c **** 
 1624              		.loc 1 325 5 is_stmt 1 view .LVU503
 1625              	.LBB57:
 1626              	.LBI57:
 160:Drivers/lvgl/src/widgets/bar/../../core/lv_obj_style_gen.h **** {
 1627              		.loc 2 160 23 view .LVU504
 1628              	.LBB58:
 162:Drivers/lvgl/src/widgets/bar/../../core/lv_obj_style_gen.h ****     return (int32_t)v.num;
 1629              		.loc 2 162 5 view .LVU505
 162:Drivers/lvgl/src/widgets/bar/../../core/lv_obj_style_gen.h ****     return (int32_t)v.num;
 1630              		.loc 2 162 26 is_stmt 0 view .LVU506
 1631 00b6 1122     		movs	r2, #17
 1632 00b8 0021     		movs	r1, #0
 1633 00ba 2046     		mov	r0, r4
 1634              	.LVL178:
 162:Drivers/lvgl/src/widgets/bar/../../core/lv_obj_style_gen.h ****     return (int32_t)v.num;
 1635              		.loc 2 162 26 view .LVU507
 1636 00bc FFF7FEFF 		bl	lv_obj_get_style_prop
 1637              	.LVL179:
 162:Drivers/lvgl/src/widgets/bar/../../core/lv_obj_style_gen.h ****     return (int32_t)v.num;
 1638              		.loc 2 162 26 view .LVU508
 1639 00c0 0490     		str	r0, [sp, #16]
 1640 00c2 3690     		str	r0, [sp, #216]
 163:Drivers/lvgl/src/widgets/bar/../../core/lv_obj_style_gen.h **** }
 1641              		.loc 2 163 5 is_stmt 1 view .LVU509
 1642              	.LVL180:
 163:Drivers/lvgl/src/widgets/bar/../../core/lv_obj_style_gen.h **** }
 1643              		.loc 2 163 5 is_stmt 0 view .LVU510
 1644              	.LBE58:
 1645              	.LBE57:
 328:Drivers/lvgl/src/widgets/bar/lv_bar.c ****     bar->indic_area.x1 += bg_left;
 1646              		.loc 1 328 5 is_stmt 1 view .LVU511
 1647              	.LBB59:
 1648              	.LBI59:
 1649              		.file 3 "Drivers/lvgl/src/widgets/bar/../../core/../misc/../font/../draw/../misc/lv_area.h"
   1:Drivers/lvgl/src/widgets/bar/../../core/../misc/../font/../draw/../misc/lv_area.h **** /**
   2:Drivers/lvgl/src/widgets/bar/../../core/../misc/../font/../draw/../misc/lv_area.h ****  * @file lv_area.h
   3:Drivers/lvgl/src/widgets/bar/../../core/../misc/../font/../draw/../misc/lv_area.h ****  *
   4:Drivers/lvgl/src/widgets/bar/../../core/../misc/../font/../draw/../misc/lv_area.h ****  */
   5:Drivers/lvgl/src/widgets/bar/../../core/../misc/../font/../draw/../misc/lv_area.h **** 
   6:Drivers/lvgl/src/widgets/bar/../../core/../misc/../font/../draw/../misc/lv_area.h **** #ifndef LV_AREA_H
ARM GAS  /tmp/cc1kxWTq.s 			page 62


   7:Drivers/lvgl/src/widgets/bar/../../core/../misc/../font/../draw/../misc/lv_area.h **** #define LV_AREA_H
   8:Drivers/lvgl/src/widgets/bar/../../core/../misc/../font/../draw/../misc/lv_area.h **** 
   9:Drivers/lvgl/src/widgets/bar/../../core/../misc/../font/../draw/../misc/lv_area.h **** #ifdef __cplusplus
  10:Drivers/lvgl/src/widgets/bar/../../core/../misc/../font/../draw/../misc/lv_area.h **** extern "C" {
  11:Drivers/lvgl/src/widgets/bar/../../core/../misc/../font/../draw/../misc/lv_area.h **** #endif
  12:Drivers/lvgl/src/widgets/bar/../../core/../misc/../font/../draw/../misc/lv_area.h **** 
  13:Drivers/lvgl/src/widgets/bar/../../core/../misc/../font/../draw/../misc/lv_area.h **** /*********************
  14:Drivers/lvgl/src/widgets/bar/../../core/../misc/../font/../draw/../misc/lv_area.h ****  *      INCLUDES
  15:Drivers/lvgl/src/widgets/bar/../../core/../misc/../font/../draw/../misc/lv_area.h ****  *********************/
  16:Drivers/lvgl/src/widgets/bar/../../core/../misc/../font/../draw/../misc/lv_area.h **** #include "../lv_conf_internal.h"
  17:Drivers/lvgl/src/widgets/bar/../../core/../misc/../font/../draw/../misc/lv_area.h **** #include "lv_types.h"
  18:Drivers/lvgl/src/widgets/bar/../../core/../misc/../font/../draw/../misc/lv_area.h **** #include "lv_math.h"
  19:Drivers/lvgl/src/widgets/bar/../../core/../misc/../font/../draw/../misc/lv_area.h **** 
  20:Drivers/lvgl/src/widgets/bar/../../core/../misc/../font/../draw/../misc/lv_area.h **** /*********************
  21:Drivers/lvgl/src/widgets/bar/../../core/../misc/../font/../draw/../misc/lv_area.h ****  *      DEFINES
  22:Drivers/lvgl/src/widgets/bar/../../core/../misc/../font/../draw/../misc/lv_area.h ****  *********************/
  23:Drivers/lvgl/src/widgets/bar/../../core/../misc/../font/../draw/../misc/lv_area.h **** 
  24:Drivers/lvgl/src/widgets/bar/../../core/../misc/../font/../draw/../misc/lv_area.h **** /**********************
  25:Drivers/lvgl/src/widgets/bar/../../core/../misc/../font/../draw/../misc/lv_area.h ****  *      TYPEDEFS
  26:Drivers/lvgl/src/widgets/bar/../../core/../misc/../font/../draw/../misc/lv_area.h ****  **********************/
  27:Drivers/lvgl/src/widgets/bar/../../core/../misc/../font/../draw/../misc/lv_area.h **** 
  28:Drivers/lvgl/src/widgets/bar/../../core/../misc/../font/../draw/../misc/lv_area.h **** /**
  29:Drivers/lvgl/src/widgets/bar/../../core/../misc/../font/../draw/../misc/lv_area.h ****  * Represents a point on the screen.
  30:Drivers/lvgl/src/widgets/bar/../../core/../misc/../font/../draw/../misc/lv_area.h ****  */
  31:Drivers/lvgl/src/widgets/bar/../../core/../misc/../font/../draw/../misc/lv_area.h **** typedef struct {
  32:Drivers/lvgl/src/widgets/bar/../../core/../misc/../font/../draw/../misc/lv_area.h ****     int32_t x;
  33:Drivers/lvgl/src/widgets/bar/../../core/../misc/../font/../draw/../misc/lv_area.h ****     int32_t y;
  34:Drivers/lvgl/src/widgets/bar/../../core/../misc/../font/../draw/../misc/lv_area.h **** } lv_point_t;
  35:Drivers/lvgl/src/widgets/bar/../../core/../misc/../font/../draw/../misc/lv_area.h **** 
  36:Drivers/lvgl/src/widgets/bar/../../core/../misc/../font/../draw/../misc/lv_area.h **** typedef struct {
  37:Drivers/lvgl/src/widgets/bar/../../core/../misc/../font/../draw/../misc/lv_area.h ****     lv_value_precise_t x;
  38:Drivers/lvgl/src/widgets/bar/../../core/../misc/../font/../draw/../misc/lv_area.h ****     lv_value_precise_t y;
  39:Drivers/lvgl/src/widgets/bar/../../core/../misc/../font/../draw/../misc/lv_area.h **** } lv_point_precise_t;
  40:Drivers/lvgl/src/widgets/bar/../../core/../misc/../font/../draw/../misc/lv_area.h **** 
  41:Drivers/lvgl/src/widgets/bar/../../core/../misc/../font/../draw/../misc/lv_area.h **** /** Represents an area of the screen.*/
  42:Drivers/lvgl/src/widgets/bar/../../core/../misc/../font/../draw/../misc/lv_area.h **** typedef struct {
  43:Drivers/lvgl/src/widgets/bar/../../core/../misc/../font/../draw/../misc/lv_area.h ****     int32_t x1;
  44:Drivers/lvgl/src/widgets/bar/../../core/../misc/../font/../draw/../misc/lv_area.h ****     int32_t y1;
  45:Drivers/lvgl/src/widgets/bar/../../core/../misc/../font/../draw/../misc/lv_area.h ****     int32_t x2;
  46:Drivers/lvgl/src/widgets/bar/../../core/../misc/../font/../draw/../misc/lv_area.h ****     int32_t y2;
  47:Drivers/lvgl/src/widgets/bar/../../core/../misc/../font/../draw/../misc/lv_area.h **** } lv_area_t;
  48:Drivers/lvgl/src/widgets/bar/../../core/../misc/../font/../draw/../misc/lv_area.h **** 
  49:Drivers/lvgl/src/widgets/bar/../../core/../misc/../font/../draw/../misc/lv_area.h **** /** Alignments*/
  50:Drivers/lvgl/src/widgets/bar/../../core/../misc/../font/../draw/../misc/lv_area.h **** 
  51:Drivers/lvgl/src/widgets/bar/../../core/../misc/../font/../draw/../misc/lv_area.h **** typedef enum {
  52:Drivers/lvgl/src/widgets/bar/../../core/../misc/../font/../draw/../misc/lv_area.h ****     LV_ALIGN_DEFAULT = 0,
  53:Drivers/lvgl/src/widgets/bar/../../core/../misc/../font/../draw/../misc/lv_area.h ****     LV_ALIGN_TOP_LEFT,
  54:Drivers/lvgl/src/widgets/bar/../../core/../misc/../font/../draw/../misc/lv_area.h ****     LV_ALIGN_TOP_MID,
  55:Drivers/lvgl/src/widgets/bar/../../core/../misc/../font/../draw/../misc/lv_area.h ****     LV_ALIGN_TOP_RIGHT,
  56:Drivers/lvgl/src/widgets/bar/../../core/../misc/../font/../draw/../misc/lv_area.h ****     LV_ALIGN_BOTTOM_LEFT,
  57:Drivers/lvgl/src/widgets/bar/../../core/../misc/../font/../draw/../misc/lv_area.h ****     LV_ALIGN_BOTTOM_MID,
  58:Drivers/lvgl/src/widgets/bar/../../core/../misc/../font/../draw/../misc/lv_area.h ****     LV_ALIGN_BOTTOM_RIGHT,
  59:Drivers/lvgl/src/widgets/bar/../../core/../misc/../font/../draw/../misc/lv_area.h ****     LV_ALIGN_LEFT_MID,
  60:Drivers/lvgl/src/widgets/bar/../../core/../misc/../font/../draw/../misc/lv_area.h ****     LV_ALIGN_RIGHT_MID,
  61:Drivers/lvgl/src/widgets/bar/../../core/../misc/../font/../draw/../misc/lv_area.h ****     LV_ALIGN_CENTER,
  62:Drivers/lvgl/src/widgets/bar/../../core/../misc/../font/../draw/../misc/lv_area.h **** 
  63:Drivers/lvgl/src/widgets/bar/../../core/../misc/../font/../draw/../misc/lv_area.h ****     LV_ALIGN_OUT_TOP_LEFT,
ARM GAS  /tmp/cc1kxWTq.s 			page 63


  64:Drivers/lvgl/src/widgets/bar/../../core/../misc/../font/../draw/../misc/lv_area.h ****     LV_ALIGN_OUT_TOP_MID,
  65:Drivers/lvgl/src/widgets/bar/../../core/../misc/../font/../draw/../misc/lv_area.h ****     LV_ALIGN_OUT_TOP_RIGHT,
  66:Drivers/lvgl/src/widgets/bar/../../core/../misc/../font/../draw/../misc/lv_area.h ****     LV_ALIGN_OUT_BOTTOM_LEFT,
  67:Drivers/lvgl/src/widgets/bar/../../core/../misc/../font/../draw/../misc/lv_area.h ****     LV_ALIGN_OUT_BOTTOM_MID,
  68:Drivers/lvgl/src/widgets/bar/../../core/../misc/../font/../draw/../misc/lv_area.h ****     LV_ALIGN_OUT_BOTTOM_RIGHT,
  69:Drivers/lvgl/src/widgets/bar/../../core/../misc/../font/../draw/../misc/lv_area.h ****     LV_ALIGN_OUT_LEFT_TOP,
  70:Drivers/lvgl/src/widgets/bar/../../core/../misc/../font/../draw/../misc/lv_area.h ****     LV_ALIGN_OUT_LEFT_MID,
  71:Drivers/lvgl/src/widgets/bar/../../core/../misc/../font/../draw/../misc/lv_area.h ****     LV_ALIGN_OUT_LEFT_BOTTOM,
  72:Drivers/lvgl/src/widgets/bar/../../core/../misc/../font/../draw/../misc/lv_area.h ****     LV_ALIGN_OUT_RIGHT_TOP,
  73:Drivers/lvgl/src/widgets/bar/../../core/../misc/../font/../draw/../misc/lv_area.h ****     LV_ALIGN_OUT_RIGHT_MID,
  74:Drivers/lvgl/src/widgets/bar/../../core/../misc/../font/../draw/../misc/lv_area.h ****     LV_ALIGN_OUT_RIGHT_BOTTOM,
  75:Drivers/lvgl/src/widgets/bar/../../core/../misc/../font/../draw/../misc/lv_area.h **** } lv_align_t;
  76:Drivers/lvgl/src/widgets/bar/../../core/../misc/../font/../draw/../misc/lv_area.h **** 
  77:Drivers/lvgl/src/widgets/bar/../../core/../misc/../font/../draw/../misc/lv_area.h **** typedef enum {
  78:Drivers/lvgl/src/widgets/bar/../../core/../misc/../font/../draw/../misc/lv_area.h ****     LV_DIR_NONE     = 0x00,
  79:Drivers/lvgl/src/widgets/bar/../../core/../misc/../font/../draw/../misc/lv_area.h ****     LV_DIR_LEFT     = (1 << 0),
  80:Drivers/lvgl/src/widgets/bar/../../core/../misc/../font/../draw/../misc/lv_area.h ****     LV_DIR_RIGHT    = (1 << 1),
  81:Drivers/lvgl/src/widgets/bar/../../core/../misc/../font/../draw/../misc/lv_area.h ****     LV_DIR_TOP      = (1 << 2),
  82:Drivers/lvgl/src/widgets/bar/../../core/../misc/../font/../draw/../misc/lv_area.h ****     LV_DIR_BOTTOM   = (1 << 3),
  83:Drivers/lvgl/src/widgets/bar/../../core/../misc/../font/../draw/../misc/lv_area.h ****     LV_DIR_HOR      = LV_DIR_LEFT | LV_DIR_RIGHT,
  84:Drivers/lvgl/src/widgets/bar/../../core/../misc/../font/../draw/../misc/lv_area.h ****     LV_DIR_VER      = LV_DIR_TOP | LV_DIR_BOTTOM,
  85:Drivers/lvgl/src/widgets/bar/../../core/../misc/../font/../draw/../misc/lv_area.h ****     LV_DIR_ALL      = LV_DIR_HOR | LV_DIR_VER,
  86:Drivers/lvgl/src/widgets/bar/../../core/../misc/../font/../draw/../misc/lv_area.h **** } lv_dir_t;
  87:Drivers/lvgl/src/widgets/bar/../../core/../misc/../font/../draw/../misc/lv_area.h **** 
  88:Drivers/lvgl/src/widgets/bar/../../core/../misc/../font/../draw/../misc/lv_area.h **** /**********************
  89:Drivers/lvgl/src/widgets/bar/../../core/../misc/../font/../draw/../misc/lv_area.h ****  * GLOBAL PROTOTYPES
  90:Drivers/lvgl/src/widgets/bar/../../core/../misc/../font/../draw/../misc/lv_area.h ****  **********************/
  91:Drivers/lvgl/src/widgets/bar/../../core/../misc/../font/../draw/../misc/lv_area.h **** 
  92:Drivers/lvgl/src/widgets/bar/../../core/../misc/../font/../draw/../misc/lv_area.h **** /**
  93:Drivers/lvgl/src/widgets/bar/../../core/../misc/../font/../draw/../misc/lv_area.h ****  * Initialize an area
  94:Drivers/lvgl/src/widgets/bar/../../core/../misc/../font/../draw/../misc/lv_area.h ****  * @param area_p pointer to an area
  95:Drivers/lvgl/src/widgets/bar/../../core/../misc/../font/../draw/../misc/lv_area.h ****  * @param x1 left coordinate of the area
  96:Drivers/lvgl/src/widgets/bar/../../core/../misc/../font/../draw/../misc/lv_area.h ****  * @param y1 top coordinate of the area
  97:Drivers/lvgl/src/widgets/bar/../../core/../misc/../font/../draw/../misc/lv_area.h ****  * @param x2 right coordinate of the area
  98:Drivers/lvgl/src/widgets/bar/../../core/../misc/../font/../draw/../misc/lv_area.h ****  * @param y2 bottom coordinate of the area
  99:Drivers/lvgl/src/widgets/bar/../../core/../misc/../font/../draw/../misc/lv_area.h ****  */
 100:Drivers/lvgl/src/widgets/bar/../../core/../misc/../font/../draw/../misc/lv_area.h **** void lv_area_set(lv_area_t * area_p, int32_t x1, int32_t y1, int32_t x2, int32_t y2);
 101:Drivers/lvgl/src/widgets/bar/../../core/../misc/../font/../draw/../misc/lv_area.h **** 
 102:Drivers/lvgl/src/widgets/bar/../../core/../misc/../font/../draw/../misc/lv_area.h **** /**
 103:Drivers/lvgl/src/widgets/bar/../../core/../misc/../font/../draw/../misc/lv_area.h ****  * Copy an area
 104:Drivers/lvgl/src/widgets/bar/../../core/../misc/../font/../draw/../misc/lv_area.h ****  * @param dest pointer to the destination area
 105:Drivers/lvgl/src/widgets/bar/../../core/../misc/../font/../draw/../misc/lv_area.h ****  * @param src pointer to the source area
 106:Drivers/lvgl/src/widgets/bar/../../core/../misc/../font/../draw/../misc/lv_area.h ****  */
 107:Drivers/lvgl/src/widgets/bar/../../core/../misc/../font/../draw/../misc/lv_area.h **** inline static void lv_area_copy(lv_area_t * dest, const lv_area_t * src)
 1650              		.loc 3 107 20 view .LVU512
 1651              	.LBB60:
 108:Drivers/lvgl/src/widgets/bar/../../core/../misc/../font/../draw/../misc/lv_area.h **** {
 109:Drivers/lvgl/src/widgets/bar/../../core/../misc/../font/../draw/../misc/lv_area.h ****     dest->x1 = src->x1;
 1652              		.loc 3 109 5 view .LVU513
 1653              		.loc 3 109 19 is_stmt 0 view .LVU514
 1654 00c4 7298     		ldr	r0, [sp, #456]
 1655              	.LVL181:
 1656              		.loc 3 109 14 view .LVU515
 1657 00c6 E063     		str	r0, [r4, #60]
 1658              	.LVL182:
 110:Drivers/lvgl/src/widgets/bar/../../core/../misc/../font/../draw/../misc/lv_area.h ****     dest->y1 = src->y1;
 1659              		.loc 3 110 5 is_stmt 1 view .LVU516
ARM GAS  /tmp/cc1kxWTq.s 			page 64


 1660              		.loc 3 110 19 is_stmt 0 view .LVU517
 1661 00c8 739A     		ldr	r2, [sp, #460]
 1662              		.loc 3 110 14 view .LVU518
 1663 00ca 2264     		str	r2, [r4, #64]
 111:Drivers/lvgl/src/widgets/bar/../../core/../misc/../font/../draw/../misc/lv_area.h ****     dest->x2 = src->x2;
 1664              		.loc 3 111 5 is_stmt 1 view .LVU519
 1665              		.loc 3 111 19 is_stmt 0 view .LVU520
 1666 00cc 7499     		ldr	r1, [sp, #464]
 1667              		.loc 3 111 14 view .LVU521
 1668 00ce 6164     		str	r1, [r4, #68]
 112:Drivers/lvgl/src/widgets/bar/../../core/../misc/../font/../draw/../misc/lv_area.h ****     dest->y2 = src->y2;
 1669              		.loc 3 112 5 is_stmt 1 view .LVU522
 1670              		.loc 3 112 19 is_stmt 0 view .LVU523
 1671 00d0 759B     		ldr	r3, [sp, #468]
 1672              		.loc 3 112 14 view .LVU524
 1673 00d2 A364     		str	r3, [r4, #72]
 1674              	.LVL183:
 1675              		.loc 3 112 14 view .LVU525
 1676              	.LBE60:
 1677              	.LBE59:
 329:Drivers/lvgl/src/widgets/bar/lv_bar.c ****     bar->indic_area.x2 -= bg_right;
 1678              		.loc 1 329 5 is_stmt 1 view .LVU526
 329:Drivers/lvgl/src/widgets/bar/lv_bar.c ****     bar->indic_area.x2 -= bg_right;
 1679              		.loc 1 329 24 is_stmt 0 view .LVU527
 1680 00d4 3044     		add	r0, r0, r6
 1681 00d6 E063     		str	r0, [r4, #60]
 330:Drivers/lvgl/src/widgets/bar/lv_bar.c ****     bar->indic_area.y1 += bg_top;
 1682              		.loc 1 330 5 is_stmt 1 view .LVU528
 330:Drivers/lvgl/src/widgets/bar/lv_bar.c ****     bar->indic_area.y1 += bg_top;
 1683              		.loc 1 330 24 is_stmt 0 view .LVU529
 1684 00d8 0098     		ldr	r0, [sp]
 1685 00da 091A     		subs	r1, r1, r0
 1686 00dc 6164     		str	r1, [r4, #68]
 331:Drivers/lvgl/src/widgets/bar/lv_bar.c ****     bar->indic_area.y2 -= bg_bottom;
 1687              		.loc 1 331 5 is_stmt 1 view .LVU530
 331:Drivers/lvgl/src/widgets/bar/lv_bar.c ****     bar->indic_area.y2 -= bg_bottom;
 1688              		.loc 1 331 24 is_stmt 0 view .LVU531
 1689 00de 0399     		ldr	r1, [sp, #12]
 1690 00e0 0A44     		add	r2, r2, r1
 1691 00e2 2264     		str	r2, [r4, #64]
 332:Drivers/lvgl/src/widgets/bar/lv_bar.c **** 
 1692              		.loc 1 332 5 is_stmt 1 view .LVU532
 332:Drivers/lvgl/src/widgets/bar/lv_bar.c **** 
 1693              		.loc 1 332 24 is_stmt 0 view .LVU533
 1694 00e4 049A     		ldr	r2, [sp, #16]
 1695 00e6 9B1A     		subs	r3, r3, r2
 1696 00e8 A364     		str	r3, [r4, #72]
 334:Drivers/lvgl/src/widgets/bar/lv_bar.c ****         bar->indic_area.y1 = obj->coords.y1 + (barh / 2) - (LV_BAR_SIZE_MIN / 2);
 1697              		.loc 1 334 5 is_stmt 1 view .LVU534
 334:Drivers/lvgl/src/widgets/bar/lv_bar.c ****         bar->indic_area.y1 = obj->coords.y1 + (barh / 2) - (LV_BAR_SIZE_MIN / 2);
 1698              		.loc 1 334 7 is_stmt 0 view .LVU535
 1699 00ea B9F1000F 		cmp	r9, #0
 1700 00ee 00F0D480 		beq	.L110
 334:Drivers/lvgl/src/widgets/bar/lv_bar.c ****         bar->indic_area.y1 = obj->coords.y1 + (barh / 2) - (LV_BAR_SIZE_MIN / 2);
 1701              		.loc 1 334 15 discriminator 1 view .LVU536
 1702 00f2 04F13C00 		add	r0, r4, #60
 1703 00f6 FFF7FEFF 		bl	lv_area_get_height
ARM GAS  /tmp/cc1kxWTq.s 			page 65


 1704              	.LVL184:
 334:Drivers/lvgl/src/widgets/bar/lv_bar.c ****         bar->indic_area.y1 = obj->coords.y1 + (barh / 2) - (LV_BAR_SIZE_MIN / 2);
 1705              		.loc 1 334 12 discriminator 1 view .LVU537
 1706 00fa 0328     		cmp	r0, #3
 1707 00fc 0BDC     		bgt	.L111
 335:Drivers/lvgl/src/widgets/bar/lv_bar.c ****         bar->indic_area.y2 = bar->indic_area.y1 + LV_BAR_SIZE_MIN;
 1708              		.loc 1 335 9 is_stmt 1 view .LVU538
 335:Drivers/lvgl/src/widgets/bar/lv_bar.c ****         bar->indic_area.y2 = bar->indic_area.y1 + LV_BAR_SIZE_MIN;
 1709              		.loc 1 335 41 is_stmt 0 view .LVU539
 1710 00fe A369     		ldr	r3, [r4, #24]
 335:Drivers/lvgl/src/widgets/bar/lv_bar.c ****         bar->indic_area.y2 = bar->indic_area.y1 + LV_BAR_SIZE_MIN;
 1711              		.loc 1 335 53 view .LVU540
 1712 0100 0699     		ldr	r1, [sp, #24]
 1713 0102 0A46     		mov	r2, r1
 1714 0104 0029     		cmp	r1, #0
 1715 0106 C0F2C680 		blt	.L170
 1716              	.L112:
 335:Drivers/lvgl/src/widgets/bar/lv_bar.c ****         bar->indic_area.y2 = bar->indic_area.y1 + LV_BAR_SIZE_MIN;
 1717              		.loc 1 335 45 view .LVU541
 1718 010a 03EB6203 		add	r3, r3, r2, asr #1
 335:Drivers/lvgl/src/widgets/bar/lv_bar.c ****         bar->indic_area.y2 = bar->indic_area.y1 + LV_BAR_SIZE_MIN;
 1719              		.loc 1 335 58 view .LVU542
 1720 010e 9A1E     		subs	r2, r3, #2
 335:Drivers/lvgl/src/widgets/bar/lv_bar.c ****         bar->indic_area.y2 = bar->indic_area.y1 + LV_BAR_SIZE_MIN;
 1721              		.loc 1 335 28 view .LVU543
 1722 0110 2264     		str	r2, [r4, #64]
 336:Drivers/lvgl/src/widgets/bar/lv_bar.c ****     }
 1723              		.loc 1 336 9 is_stmt 1 view .LVU544
 336:Drivers/lvgl/src/widgets/bar/lv_bar.c ****     }
 1724              		.loc 1 336 49 is_stmt 0 view .LVU545
 1725 0112 0233     		adds	r3, r3, #2
 336:Drivers/lvgl/src/widgets/bar/lv_bar.c ****     }
 1726              		.loc 1 336 28 view .LVU546
 1727 0114 A364     		str	r3, [r4, #72]
 1728              	.L111:
 342:Drivers/lvgl/src/widgets/bar/lv_bar.c ****     int32_t indic_max_h = lv_area_get_height(&bar->indic_area);
 1729              		.loc 1 342 5 is_stmt 1 view .LVU547
 342:Drivers/lvgl/src/widgets/bar/lv_bar.c ****     int32_t indic_max_h = lv_area_get_height(&bar->indic_area);
 1730              		.loc 1 342 45 is_stmt 0 view .LVU548
 1731 0116 04F13C0A 		add	r10, r4, #60
 342:Drivers/lvgl/src/widgets/bar/lv_bar.c ****     int32_t indic_max_h = lv_area_get_height(&bar->indic_area);
 1732              		.loc 1 342 27 view .LVU549
 1733 011a 5046     		mov	r0, r10
 1734 011c FFF7FEFF 		bl	lv_area_get_width
 1735              	.LVL185:
 1736 0120 0190     		str	r0, [sp, #4]
 1737              	.LVL186:
 343:Drivers/lvgl/src/widgets/bar/lv_bar.c **** 
 1738              		.loc 1 343 5 is_stmt 1 view .LVU550
 343:Drivers/lvgl/src/widgets/bar/lv_bar.c **** 
 1739              		.loc 1 343 27 is_stmt 0 view .LVU551
 1740 0122 5046     		mov	r0, r10
 1741              	.LVL187:
 343:Drivers/lvgl/src/widgets/bar/lv_bar.c **** 
 1742              		.loc 1 343 27 view .LVU552
 1743 0124 FFF7FEFF 		bl	lv_area_get_height
 1744              	.LVL188:
ARM GAS  /tmp/cc1kxWTq.s 			page 66


 346:Drivers/lvgl/src/widgets/bar/lv_bar.c **** 
 1745              		.loc 1 346 5 is_stmt 1 view .LVU553
 346:Drivers/lvgl/src/widgets/bar/lv_bar.c **** 
 1746              		.loc 1 346 45 is_stmt 0 view .LVU554
 1747 0128 B9F1000F 		cmp	r9, #0
 1748 012c 00F0CA80 		beq	.L114
 1749              	.LVL189:
 348:Drivers/lvgl/src/widgets/bar/lv_bar.c **** 
 1750              		.loc 1 348 5 is_stmt 1 view .LVU555
 350:Drivers/lvgl/src/widgets/bar/lv_bar.c ****     int32_t (*indic_length_calc)(const lv_area_t * area);
 1751              		.loc 1 350 5 view .LVU556
 351:Drivers/lvgl/src/widgets/bar/lv_bar.c **** 
 1752              		.loc 1 351 5 view .LVU557
 353:Drivers/lvgl/src/widgets/bar/lv_bar.c ****         axis1 = &bar->indic_area.x1;
 1753              		.loc 1 353 5 view .LVU558
 354:Drivers/lvgl/src/widgets/bar/lv_bar.c ****         axis2 = &bar->indic_area.x2;
 1754              		.loc 1 354 9 view .LVU559
 354:Drivers/lvgl/src/widgets/bar/lv_bar.c ****         axis2 = &bar->indic_area.x2;
 1755              		.loc 1 354 15 is_stmt 0 view .LVU560
 1756 0130 D046     		mov	r8, r10
 1757              	.LVL190:
 355:Drivers/lvgl/src/widgets/bar/lv_bar.c ****         indic_length_calc = lv_area_get_width;
 1758              		.loc 1 355 9 is_stmt 1 view .LVU561
 355:Drivers/lvgl/src/widgets/bar/lv_bar.c ****         indic_length_calc = lv_area_get_width;
 1759              		.loc 1 355 15 is_stmt 0 view .LVU562
 1760 0132 04F1440B 		add	fp, r4, #68
 1761              	.LVL191:
 356:Drivers/lvgl/src/widgets/bar/lv_bar.c ****     }
 1762              		.loc 1 356 9 is_stmt 1 view .LVU563
 356:Drivers/lvgl/src/widgets/bar/lv_bar.c ****     }
 1763              		.loc 1 356 27 is_stmt 0 view .LVU564
 1764 0136 A14B     		ldr	r3, .L180
 1765 0138 0993     		str	r3, [sp, #36]
 1766              	.LVL192:
 1767              	.L115:
 364:Drivers/lvgl/src/widgets/bar/lv_bar.c ****         int32_t anim_start_value_start_x =
 1768              		.loc 1 364 5 is_stmt 1 view .LVU565
 364:Drivers/lvgl/src/widgets/bar/lv_bar.c ****         int32_t anim_start_value_start_x =
 1769              		.loc 1 364 8 is_stmt 0 view .LVU566
 1770 013a E26E     		ldr	r2, [r4, #108]
 364:Drivers/lvgl/src/widgets/bar/lv_bar.c ****         int32_t anim_start_value_start_x =
 1771              		.loc 1 364 7 view .LVU567
 1772 013c B2F1FF3F 		cmp	r2, #-1
 1773 0140 00F0CA80 		beq	.L116
 1774              	.LBB61:
 365:Drivers/lvgl/src/widgets/bar/lv_bar.c ****             (int32_t)((int32_t)anim_length * (bar->start_value_anim.anim_start - bar->min_value)) /
 1775              		.loc 1 365 9 is_stmt 1 view .LVU568
 366:Drivers/lvgl/src/widgets/bar/lv_bar.c ****         int32_t anim_start_value_end_x =
 1776              		.loc 1 366 68 is_stmt 0 view .LVU569
 1777 0144 656E     		ldr	r5, [r4, #100]
 366:Drivers/lvgl/src/widgets/bar/lv_bar.c ****         int32_t anim_start_value_end_x =
 1778              		.loc 1 366 85 view .LVU570
 1779 0146 216B     		ldr	r1, [r4, #48]
 366:Drivers/lvgl/src/widgets/bar/lv_bar.c ****         int32_t anim_start_value_end_x =
 1780              		.loc 1 366 80 view .LVU571
 1781 0148 6D1A     		subs	r5, r5, r1
 366:Drivers/lvgl/src/widgets/bar/lv_bar.c ****         int32_t anim_start_value_end_x =
ARM GAS  /tmp/cc1kxWTq.s 			page 67


 1782              		.loc 1 366 13 view .LVU572
 1783 014a 0198     		ldr	r0, [sp, #4]
 1784              	.LVL193:
 366:Drivers/lvgl/src/widgets/bar/lv_bar.c ****         int32_t anim_start_value_end_x =
 1785              		.loc 1 366 13 view .LVU573
 1786 014c 00FB05F5 		mul	r5, r0, r5
 365:Drivers/lvgl/src/widgets/bar/lv_bar.c ****             (int32_t)((int32_t)anim_length * (bar->start_value_anim.anim_start - bar->min_value)) /
 1787              		.loc 1 365 17 view .LVU574
 1788 0150 95FBF7F5 		sdiv	r5, r5, r7
 1789              	.LVL194:
 367:Drivers/lvgl/src/widgets/bar/lv_bar.c ****             (int32_t)((int32_t)anim_length * (bar->start_value_anim.anim_end - bar->min_value)) / r
 1790              		.loc 1 367 9 is_stmt 1 view .LVU575
 368:Drivers/lvgl/src/widgets/bar/lv_bar.c **** 
 1791              		.loc 1 368 68 is_stmt 0 view .LVU576
 1792 0154 A36E     		ldr	r3, [r4, #104]
 368:Drivers/lvgl/src/widgets/bar/lv_bar.c **** 
 1793              		.loc 1 368 78 view .LVU577
 1794 0156 5B1A     		subs	r3, r3, r1
 368:Drivers/lvgl/src/widgets/bar/lv_bar.c **** 
 1795              		.loc 1 368 13 view .LVU578
 1796 0158 00FB03F3 		mul	r3, r0, r3
 367:Drivers/lvgl/src/widgets/bar/lv_bar.c ****             (int32_t)((int32_t)anim_length * (bar->start_value_anim.anim_end - bar->min_value)) / r
 1797              		.loc 1 367 17 view .LVU579
 1798 015c 93FBF7F3 		sdiv	r3, r3, r7
 1799              	.LVL195:
 370:Drivers/lvgl/src/widgets/bar/lv_bar.c ****                               LV_BAR_ANIM_STATE_END);
 1800              		.loc 1 370 9 is_stmt 1 view .LVU580
 370:Drivers/lvgl/src/widgets/bar/lv_bar.c ****                               LV_BAR_ANIM_STATE_END);
 1801              		.loc 1 370 56 is_stmt 0 view .LVU581
 1802 0160 5B1B     		subs	r3, r3, r5
 1803              	.LVL196:
 370:Drivers/lvgl/src/widgets/bar/lv_bar.c ****                               LV_BAR_ANIM_STATE_END);
 1804              		.loc 1 370 84 view .LVU582
 1805 0162 03FB02F2 		mul	r2, r3, r2
 370:Drivers/lvgl/src/widgets/bar/lv_bar.c ****                               LV_BAR_ANIM_STATE_END);
 1806              		.loc 1 370 28 view .LVU583
 1807 0166 002A     		cmp	r2, #0
 1808 0168 C0F2B480 		blt	.L171
 1809              	.L117:
 1810              	.LVL197:
 373:Drivers/lvgl/src/widgets/bar/lv_bar.c ****     }
 1811              		.loc 1 373 9 is_stmt 1 view .LVU584
 373:Drivers/lvgl/src/widgets/bar/lv_bar.c ****     }
 1812              		.loc 1 373 28 is_stmt 0 view .LVU585
 1813 016c 05EB2225 		add	r5, r5, r2, asr #8
 1814              	.LVL198:
 1815              	.L118:
 373:Drivers/lvgl/src/widgets/bar/lv_bar.c ****     }
 1816              		.loc 1 373 28 view .LVU586
 1817              	.LBE61:
 379:Drivers/lvgl/src/widgets/bar/lv_bar.c ****         int32_t anim_cur_value_start_x =
 1818              		.loc 1 379 5 is_stmt 1 view .LVU587
 379:Drivers/lvgl/src/widgets/bar/lv_bar.c ****         int32_t anim_cur_value_start_x =
 1819              		.loc 1 379 8 is_stmt 0 view .LVU588
 1820 0170 E26D     		ldr	r2, [r4, #92]
 379:Drivers/lvgl/src/widgets/bar/lv_bar.c ****         int32_t anim_cur_value_start_x =
 1821              		.loc 1 379 7 view .LVU589
ARM GAS  /tmp/cc1kxWTq.s 			page 68


 1822 0172 B2F1FF3F 		cmp	r2, #-1
 1823 0176 00F0BA80 		beq	.L119
 1824              	.LBB62:
 380:Drivers/lvgl/src/widgets/bar/lv_bar.c ****             (int32_t)((int32_t)anim_length * (bar->cur_value_anim.anim_start - bar->min_value)) / r
 1825              		.loc 1 380 9 is_stmt 1 view .LVU590
 381:Drivers/lvgl/src/widgets/bar/lv_bar.c ****         int32_t anim_cur_value_end_x =
 1826              		.loc 1 381 66 is_stmt 0 view .LVU591
 1827 017a 666D     		ldr	r6, [r4, #84]
 1828              	.LVL199:
 381:Drivers/lvgl/src/widgets/bar/lv_bar.c ****         int32_t anim_cur_value_end_x =
 1829              		.loc 1 381 83 view .LVU592
 1830 017c 216B     		ldr	r1, [r4, #48]
 381:Drivers/lvgl/src/widgets/bar/lv_bar.c ****         int32_t anim_cur_value_end_x =
 1831              		.loc 1 381 78 view .LVU593
 1832 017e 761A     		subs	r6, r6, r1
 381:Drivers/lvgl/src/widgets/bar/lv_bar.c ****         int32_t anim_cur_value_end_x =
 1833              		.loc 1 381 13 view .LVU594
 1834 0180 0198     		ldr	r0, [sp, #4]
 1835 0182 00FB06F6 		mul	r6, r0, r6
 380:Drivers/lvgl/src/widgets/bar/lv_bar.c ****             (int32_t)((int32_t)anim_length * (bar->cur_value_anim.anim_start - bar->min_value)) / r
 1836              		.loc 1 380 17 view .LVU595
 1837 0186 96FBF7F6 		sdiv	r6, r6, r7
 1838              	.LVL200:
 382:Drivers/lvgl/src/widgets/bar/lv_bar.c ****             (int32_t)((int32_t)anim_length * (bar->cur_value_anim.anim_end - bar->min_value)) / ran
 1839              		.loc 1 382 9 is_stmt 1 view .LVU596
 383:Drivers/lvgl/src/widgets/bar/lv_bar.c **** 
 1840              		.loc 1 383 66 is_stmt 0 view .LVU597
 1841 018a A36D     		ldr	r3, [r4, #88]
 383:Drivers/lvgl/src/widgets/bar/lv_bar.c **** 
 1842              		.loc 1 383 76 view .LVU598
 1843 018c 5B1A     		subs	r3, r3, r1
 383:Drivers/lvgl/src/widgets/bar/lv_bar.c **** 
 1844              		.loc 1 383 13 view .LVU599
 1845 018e 00FB03F3 		mul	r3, r0, r3
 382:Drivers/lvgl/src/widgets/bar/lv_bar.c ****             (int32_t)((int32_t)anim_length * (bar->cur_value_anim.anim_end - bar->min_value)) / ran
 1846              		.loc 1 382 17 view .LVU600
 1847 0192 93FBF7F3 		sdiv	r3, r3, r7
 1848              	.LVL201:
 385:Drivers/lvgl/src/widgets/bar/lv_bar.c ****                                                       bar->cur_value_anim.anim_state) /
 1849              		.loc 1 385 9 is_stmt 1 view .LVU601
 385:Drivers/lvgl/src/widgets/bar/lv_bar.c ****                                                       bar->cur_value_anim.anim_state) /
 1850              		.loc 1 385 77 is_stmt 0 view .LVU602
 1851 0196 9B1B     		subs	r3, r3, r6
 1852              	.LVL202:
 385:Drivers/lvgl/src/widgets/bar/lv_bar.c ****                                                       bar->cur_value_anim.anim_state) /
 1853              		.loc 1 385 103 view .LVU603
 1854 0198 03FB02F2 		mul	r2, r3, r2
 386:Drivers/lvgl/src/widgets/bar/lv_bar.c ****                                                      LV_BAR_ANIM_STATE_END);
 1855              		.loc 1 386 87 view .LVU604
 1856 019c 002A     		cmp	r2, #0
 1857 019e C0F2A480 		blt	.L172
 1858              	.L120:
 385:Drivers/lvgl/src/widgets/bar/lv_bar.c ****                                                       bar->cur_value_anim.anim_state) /
 1859              		.loc 1 385 26 view .LVU605
 1860 01a2 06EB2226 		add	r6, r6, r2, asr #8
 1861              	.LVL203:
 1862              	.L121:
ARM GAS  /tmp/cc1kxWTq.s 			page 69


 385:Drivers/lvgl/src/widgets/bar/lv_bar.c ****                                                       bar->cur_value_anim.anim_state) /
 1863              		.loc 1 385 26 view .LVU606
 1864              	.LBE62:
 397:Drivers/lvgl/src/widgets/bar/lv_bar.c ****     bool hor_need_reversed = hor && base_dir == LV_BASE_DIR_RTL;
 1865              		.loc 1 397 5 is_stmt 1 view .LVU607
 1866              	.LBB63:
 1867              	.LBI63:
 668:Drivers/lvgl/src/widgets/bar/../../core/lv_obj_style_gen.h **** }
 669:Drivers/lvgl/src/widgets/bar/../../core/lv_obj_style_gen.h **** 
 670:Drivers/lvgl/src/widgets/bar/../../core/lv_obj_style_gen.h **** static inline const lv_style_transition_dsc_t * lv_obj_get_style_transition(const lv_obj_t * obj, l
 671:Drivers/lvgl/src/widgets/bar/../../core/lv_obj_style_gen.h **** {
 672:Drivers/lvgl/src/widgets/bar/../../core/lv_obj_style_gen.h ****     lv_style_value_t v = lv_obj_get_style_prop(obj, part, LV_STYLE_TRANSITION);
 673:Drivers/lvgl/src/widgets/bar/../../core/lv_obj_style_gen.h ****     return (const lv_style_transition_dsc_t *)v.ptr;
 674:Drivers/lvgl/src/widgets/bar/../../core/lv_obj_style_gen.h **** }
 675:Drivers/lvgl/src/widgets/bar/../../core/lv_obj_style_gen.h **** 
 676:Drivers/lvgl/src/widgets/bar/../../core/lv_obj_style_gen.h **** static inline lv_blend_mode_t lv_obj_get_style_blend_mode(const lv_obj_t * obj, lv_part_t part)
 677:Drivers/lvgl/src/widgets/bar/../../core/lv_obj_style_gen.h **** {
 678:Drivers/lvgl/src/widgets/bar/../../core/lv_obj_style_gen.h ****     lv_style_value_t v = lv_obj_get_style_prop(obj, part, LV_STYLE_BLEND_MODE);
 679:Drivers/lvgl/src/widgets/bar/../../core/lv_obj_style_gen.h ****     return (lv_blend_mode_t)v.num;
 680:Drivers/lvgl/src/widgets/bar/../../core/lv_obj_style_gen.h **** }
 681:Drivers/lvgl/src/widgets/bar/../../core/lv_obj_style_gen.h **** 
 682:Drivers/lvgl/src/widgets/bar/../../core/lv_obj_style_gen.h **** static inline uint16_t lv_obj_get_style_layout(const lv_obj_t * obj, lv_part_t part)
 683:Drivers/lvgl/src/widgets/bar/../../core/lv_obj_style_gen.h **** {
 684:Drivers/lvgl/src/widgets/bar/../../core/lv_obj_style_gen.h ****     lv_style_value_t v = lv_obj_get_style_prop(obj, part, LV_STYLE_LAYOUT);
 685:Drivers/lvgl/src/widgets/bar/../../core/lv_obj_style_gen.h ****     return (uint16_t)v.num;
 686:Drivers/lvgl/src/widgets/bar/../../core/lv_obj_style_gen.h **** }
 687:Drivers/lvgl/src/widgets/bar/../../core/lv_obj_style_gen.h **** 
 688:Drivers/lvgl/src/widgets/bar/../../core/lv_obj_style_gen.h **** static inline lv_base_dir_t lv_obj_get_style_base_dir(const lv_obj_t * obj, lv_part_t part)
 1868              		.loc 2 688 29 view .LVU608
 1869              	.LBB64:
 689:Drivers/lvgl/src/widgets/bar/../../core/lv_obj_style_gen.h **** {
 690:Drivers/lvgl/src/widgets/bar/../../core/lv_obj_style_gen.h ****     lv_style_value_t v = lv_obj_get_style_prop(obj, part, LV_STYLE_BASE_DIR);
 1870              		.loc 2 690 5 view .LVU609
 1871              		.loc 2 690 26 is_stmt 0 view .LVU610
 1872 01a6 2722     		movs	r2, #39
 1873 01a8 0021     		movs	r1, #0
 1874 01aa 2046     		mov	r0, r4
 1875 01ac FFF7FEFF 		bl	lv_obj_get_style_prop
 1876              	.LVL204:
 1877 01b0 3690     		str	r0, [sp, #216]
 691:Drivers/lvgl/src/widgets/bar/../../core/lv_obj_style_gen.h ****     return (lv_base_dir_t)v.num;
 1878              		.loc 2 691 5 is_stmt 1 view .LVU611
 1879              		.loc 2 691 12 is_stmt 0 view .LVU612
 1880 01b2 C0B2     		uxtb	r0, r0
 1881              	.LVL205:
 1882              		.loc 2 691 12 view .LVU613
 1883              	.LBE64:
 1884              	.LBE63:
 398:Drivers/lvgl/src/widgets/bar/lv_bar.c ****     bool reversed = bar->val_reversed ^ hor_need_reversed;
 1885              		.loc 1 398 5 is_stmt 1 view .LVU614
 398:Drivers/lvgl/src/widgets/bar/lv_bar.c ****     bool reversed = bar->val_reversed ^ hor_need_reversed;
 1886              		.loc 1 398 34 is_stmt 0 view .LVU615
 1887 01b4 0128     		cmp	r0, #1
 1888 01b6 14BF     		ite	ne
 1889 01b8 0022     		movne	r2, #0
 1890 01ba 09F00102 		andeq	r2, r9, #1
 1891              	.LVL206:
ARM GAS  /tmp/cc1kxWTq.s 			page 70


 399:Drivers/lvgl/src/widgets/bar/lv_bar.c **** 
 1892              		.loc 1 399 5 is_stmt 1 view .LVU616
 399:Drivers/lvgl/src/widgets/bar/lv_bar.c **** 
 1893              		.loc 1 399 24 is_stmt 0 view .LVU617
 1894 01be 94F84C10 		ldrb	r1, [r4, #76]	@ zero_extendqisi2
 1895              	.LVL207:
 401:Drivers/lvgl/src/widgets/bar/lv_bar.c ****         /*Swap axes*/
 1896              		.loc 1 401 5 is_stmt 1 view .LVU618
 401:Drivers/lvgl/src/widgets/bar/lv_bar.c ****         /*Swap axes*/
 1897              		.loc 1 401 7 is_stmt 0 view .LVU619
 1898 01c2 8A42     		cmp	r2, r1
 1899 01c4 04D0     		beq	.L122
 1900              	.LBB65:
 403:Drivers/lvgl/src/widgets/bar/lv_bar.c ****         tmp = axis1;
 1901              		.loc 1 403 9 is_stmt 1 view .LVU620
 404:Drivers/lvgl/src/widgets/bar/lv_bar.c ****         axis1 = axis2;
 1902              		.loc 1 404 9 view .LVU621
 1903              	.LVL208:
 405:Drivers/lvgl/src/widgets/bar/lv_bar.c ****         axis2 = tmp;
 1904              		.loc 1 405 9 view .LVU622
 406:Drivers/lvgl/src/widgets/bar/lv_bar.c ****         anim_cur_value_x = -anim_cur_value_x;
 1905              		.loc 1 406 9 view .LVU623
 407:Drivers/lvgl/src/widgets/bar/lv_bar.c ****         anim_start_value_x = -anim_start_value_x;
 1906              		.loc 1 407 9 view .LVU624
 407:Drivers/lvgl/src/widgets/bar/lv_bar.c ****         anim_start_value_x = -anim_start_value_x;
 1907              		.loc 1 407 26 is_stmt 0 view .LVU625
 1908 01c6 7642     		rsbs	r6, r6, #0
 1909              	.LVL209:
 408:Drivers/lvgl/src/widgets/bar/lv_bar.c ****     }
 1910              		.loc 1 408 9 is_stmt 1 view .LVU626
 408:Drivers/lvgl/src/widgets/bar/lv_bar.c ****     }
 1911              		.loc 1 408 28 is_stmt 0 view .LVU627
 1912 01c8 6D42     		rsbs	r5, r5, #0
 1913              	.LVL210:
 408:Drivers/lvgl/src/widgets/bar/lv_bar.c ****     }
 1914              		.loc 1 408 28 view .LVU628
 1915 01ca 4346     		mov	r3, r8
 405:Drivers/lvgl/src/widgets/bar/lv_bar.c ****         axis2 = tmp;
 1916              		.loc 1 405 15 view .LVU629
 1917 01cc D846     		mov	r8, fp
 1918              	.LVL211:
 406:Drivers/lvgl/src/widgets/bar/lv_bar.c ****         anim_cur_value_x = -anim_cur_value_x;
 1919              		.loc 1 406 15 view .LVU630
 1920 01ce 9B46     		mov	fp, r3
 1921              	.LVL212:
 1922              	.L122:
 406:Drivers/lvgl/src/widgets/bar/lv_bar.c ****         anim_cur_value_x = -anim_cur_value_x;
 1923              		.loc 1 406 15 view .LVU631
 1924              	.LBE65:
 412:Drivers/lvgl/src/widgets/bar/lv_bar.c ****         *axis2 = *axis1 + anim_cur_value_x;
 1925              		.loc 1 412 5 is_stmt 1 view .LVU632
 412:Drivers/lvgl/src/widgets/bar/lv_bar.c ****         *axis2 = *axis1 + anim_cur_value_x;
 1926              		.loc 1 412 7 is_stmt 0 view .LVU633
 1927 01d0 B9F1000F 		cmp	r9, #0
 1928 01d4 00F09480 		beq	.L123
 413:Drivers/lvgl/src/widgets/bar/lv_bar.c ****         *axis1 += anim_start_value_x;
 1929              		.loc 1 413 9 is_stmt 1 view .LVU634
ARM GAS  /tmp/cc1kxWTq.s 			page 71


 413:Drivers/lvgl/src/widgets/bar/lv_bar.c ****         *axis1 += anim_start_value_x;
 1930              		.loc 1 413 18 is_stmt 0 view .LVU635
 1931 01d8 D8F80030 		ldr	r3, [r8]
 413:Drivers/lvgl/src/widgets/bar/lv_bar.c ****         *axis1 += anim_start_value_x;
 1932              		.loc 1 413 25 view .LVU636
 1933 01dc 3344     		add	r3, r3, r6
 413:Drivers/lvgl/src/widgets/bar/lv_bar.c ****         *axis1 += anim_start_value_x;
 1934              		.loc 1 413 16 view .LVU637
 1935 01de CBF80030 		str	r3, [fp]
 414:Drivers/lvgl/src/widgets/bar/lv_bar.c ****     }
 1936              		.loc 1 414 9 is_stmt 1 view .LVU638
 1937 01e2 D8F80030 		ldr	r3, [r8]
 414:Drivers/lvgl/src/widgets/bar/lv_bar.c ****     }
 1938              		.loc 1 414 16 is_stmt 0 view .LVU639
 1939 01e6 2B44     		add	r3, r3, r5
 1940 01e8 C8F80030 		str	r3, [r8]
 1941              	.L124:
 421:Drivers/lvgl/src/widgets/bar/lv_bar.c ****         int32_t zero, shift;
 1942              		.loc 1 421 5 is_stmt 1 view .LVU640
 421:Drivers/lvgl/src/widgets/bar/lv_bar.c ****         int32_t zero, shift;
 1943              		.loc 1 421 7 is_stmt 0 view .LVU641
 1944 01ec 089B     		ldr	r3, [sp, #32]
 1945 01ee 002B     		cmp	r3, #0
 1946 01f0 40F09280 		bne	.L125
 462:Drivers/lvgl/src/widgets/bar/lv_bar.c ****         lv_obj_send_event(obj, LV_EVENT_DRAW_TASK_ADDED, NULL);
 1947              		.loc 1 462 5 is_stmt 1 view .LVU642
 462:Drivers/lvgl/src/widgets/bar/lv_bar.c ****         lv_obj_send_event(obj, LV_EVENT_DRAW_TASK_ADDED, NULL);
 1948              		.loc 1 462 16 is_stmt 0 discriminator 1 view .LVU643
 1949 01f4 5046     		mov	r0, r10
 1950              	.LVL213:
 462:Drivers/lvgl/src/widgets/bar/lv_bar.c ****         lv_obj_send_event(obj, LV_EVENT_DRAW_TASK_ADDED, NULL);
 1951              		.loc 1 462 16 discriminator 1 view .LVU644
 1952 01f6 099B     		ldr	r3, [sp, #36]
 1953 01f8 9847     		blx	r3
 1954              	.LVL214:
 462:Drivers/lvgl/src/widgets/bar/lv_bar.c ****         lv_obj_send_event(obj, LV_EVENT_DRAW_TASK_ADDED, NULL);
 1955              		.loc 1 462 13 discriminator 1 view .LVU645
 1956 01fa 0128     		cmp	r0, #1
 1957 01fc 40F3D280 		ble	.L173
 1958              	.LVL215:
 1959              	.L127:
 467:Drivers/lvgl/src/widgets/bar/lv_bar.c ****     lv_area_copy(&indic_area, &bar->indic_area);
 1960              		.loc 1 467 5 is_stmt 1 view .LVU646
 468:Drivers/lvgl/src/widgets/bar/lv_bar.c **** 
 1961              		.loc 1 468 5 view .LVU647
 1962              	.LBB66:
 1963              	.LBI66:
 107:Drivers/lvgl/src/widgets/bar/../../core/../misc/../font/../draw/../misc/lv_area.h **** {
 1964              		.loc 3 107 20 view .LVU648
 1965              	.LBB67:
 109:Drivers/lvgl/src/widgets/bar/../../core/../misc/../font/../draw/../misc/lv_area.h ****     dest->y1 = src->y1;
 1966              		.loc 3 109 5 view .LVU649
 109:Drivers/lvgl/src/widgets/bar/../../core/../misc/../font/../draw/../misc/lv_area.h ****     dest->y1 = src->y1;
 1967              		.loc 3 109 19 is_stmt 0 view .LVU650
 1968 0200 E36B     		ldr	r3, [r4, #60]
 109:Drivers/lvgl/src/widgets/bar/../../core/../misc/../font/../draw/../misc/lv_area.h ****     dest->y1 = src->y1;
 1969              		.loc 3 109 14 view .LVU651
ARM GAS  /tmp/cc1kxWTq.s 			page 72


 1970 0202 6E93     		str	r3, [sp, #440]
 110:Drivers/lvgl/src/widgets/bar/../../core/../misc/../font/../draw/../misc/lv_area.h ****     dest->x2 = src->x2;
 1971              		.loc 3 110 5 is_stmt 1 view .LVU652
 110:Drivers/lvgl/src/widgets/bar/../../core/../misc/../font/../draw/../misc/lv_area.h ****     dest->x2 = src->x2;
 1972              		.loc 3 110 19 is_stmt 0 view .LVU653
 1973 0204 236C     		ldr	r3, [r4, #64]
 110:Drivers/lvgl/src/widgets/bar/../../core/../misc/../font/../draw/../misc/lv_area.h ****     dest->x2 = src->x2;
 1974              		.loc 3 110 14 view .LVU654
 1975 0206 6F93     		str	r3, [sp, #444]
 111:Drivers/lvgl/src/widgets/bar/../../core/../misc/../font/../draw/../misc/lv_area.h ****     dest->y2 = src->y2;
 1976              		.loc 3 111 5 is_stmt 1 view .LVU655
 111:Drivers/lvgl/src/widgets/bar/../../core/../misc/../font/../draw/../misc/lv_area.h ****     dest->y2 = src->y2;
 1977              		.loc 3 111 19 is_stmt 0 view .LVU656
 1978 0208 636C     		ldr	r3, [r4, #68]
 111:Drivers/lvgl/src/widgets/bar/../../core/../misc/../font/../draw/../misc/lv_area.h ****     dest->y2 = src->y2;
 1979              		.loc 3 111 14 view .LVU657
 1980 020a 7093     		str	r3, [sp, #448]
 1981              		.loc 3 112 5 is_stmt 1 view .LVU658
 1982              		.loc 3 112 19 is_stmt 0 view .LVU659
 1983 020c A36C     		ldr	r3, [r4, #72]
 1984              		.loc 3 112 14 view .LVU660
 1985 020e 7193     		str	r3, [sp, #452]
 1986              	.LVL216:
 1987              		.loc 3 112 14 view .LVU661
 1988              	.LBE67:
 1989              	.LBE66:
 470:Drivers/lvgl/src/widgets/bar/lv_bar.c ****     lv_draw_rect_dsc_init(&draw_rect_dsc);
 1990              		.loc 1 470 5 is_stmt 1 view .LVU662
 471:Drivers/lvgl/src/widgets/bar/lv_bar.c ****     draw_rect_dsc.base.layer = layer;
 1991              		.loc 1 471 5 view .LVU663
 1992 0210 52AD     		add	r5, sp, #328
 1993 0212 2846     		mov	r0, r5
 1994 0214 FFF7FEFF 		bl	lv_draw_rect_dsc_init
 1995              	.LVL217:
 472:Drivers/lvgl/src/widgets/bar/lv_bar.c ****     lv_obj_init_draw_rect_dsc(obj, LV_PART_INDICATOR, &draw_rect_dsc);
 1996              		.loc 1 472 5 view .LVU664
 472:Drivers/lvgl/src/widgets/bar/lv_bar.c ****     lv_obj_init_draw_rect_dsc(obj, LV_PART_INDICATOR, &draw_rect_dsc);
 1997              		.loc 1 472 30 is_stmt 0 view .LVU665
 1998 0218 029B     		ldr	r3, [sp, #8]
 1999 021a 5693     		str	r3, [sp, #344]
 473:Drivers/lvgl/src/widgets/bar/lv_bar.c **** 
 2000              		.loc 1 473 5 is_stmt 1 view .LVU666
 2001 021c 2A46     		mov	r2, r5
 2002 021e 4FF40031 		mov	r1, #131072
 2003 0222 2046     		mov	r0, r4
 2004 0224 FFF7FEFF 		bl	lv_obj_init_draw_rect_dsc
 2005              	.LVL218:
 475:Drivers/lvgl/src/widgets/bar/lv_bar.c ****     int32_t short_side = LV_MIN(barw, barh);
 2006              		.loc 1 475 5 view .LVU667
 2007              	.LBB68:
 2008              	.LBI68:
 604:Drivers/lvgl/src/widgets/bar/../../core/lv_obj_style_gen.h **** {
 2009              		.loc 2 604 23 view .LVU668
 2010              	.LBB69:
 606:Drivers/lvgl/src/widgets/bar/../../core/lv_obj_style_gen.h ****     return (int32_t)v.num;
 2011              		.loc 2 606 5 view .LVU669
 606:Drivers/lvgl/src/widgets/bar/../../core/lv_obj_style_gen.h ****     return (int32_t)v.num;
ARM GAS  /tmp/cc1kxWTq.s 			page 73


 2012              		.loc 2 606 26 is_stmt 0 view .LVU670
 2013 0228 0C22     		movs	r2, #12
 2014 022a 0021     		movs	r1, #0
 2015 022c 2046     		mov	r0, r4
 2016 022e FFF7FEFF 		bl	lv_obj_get_style_prop
 2017              	.LVL219:
 2018 0232 3690     		str	r0, [sp, #216]
 607:Drivers/lvgl/src/widgets/bar/../../core/lv_obj_style_gen.h **** }
 2019              		.loc 2 607 5 is_stmt 1 view .LVU671
 2020              	.LVL220:
 607:Drivers/lvgl/src/widgets/bar/../../core/lv_obj_style_gen.h **** }
 2021              		.loc 2 607 5 is_stmt 0 view .LVU672
 2022              	.LBE69:
 2023              	.LBE68:
 476:Drivers/lvgl/src/widgets/bar/lv_bar.c ****     if(bg_radius > short_side >> 1) bg_radius = short_side >> 1;
 2024              		.loc 1 476 5 is_stmt 1 view .LVU673
 476:Drivers/lvgl/src/widgets/bar/lv_bar.c ****     if(bg_radius > short_side >> 1) bg_radius = short_side >> 1;
 2025              		.loc 1 476 13 is_stmt 0 view .LVU674
 2026 0234 059B     		ldr	r3, [sp, #20]
 2027 0236 069A     		ldr	r2, [sp, #24]
 2028 0238 9342     		cmp	r3, r2
 2029 023a A8BF     		it	ge
 2030 023c 1346     		movge	r3, r2
 2031              	.LVL221:
 477:Drivers/lvgl/src/widgets/bar/lv_bar.c **** 
 2032              		.loc 1 477 5 is_stmt 1 view .LVU675
 477:Drivers/lvgl/src/widgets/bar/lv_bar.c **** 
 2033              		.loc 1 477 31 is_stmt 0 view .LVU676
 2034 023e 5F10     		asrs	r7, r3, #1
 2035              	.LVL222:
 477:Drivers/lvgl/src/widgets/bar/lv_bar.c **** 
 2036              		.loc 1 477 7 view .LVU677
 2037 0240 B0EB630F 		cmp	r0, r3, asr #1
 2038 0244 00DC     		bgt	.L140
 475:Drivers/lvgl/src/widgets/bar/lv_bar.c ****     int32_t short_side = LV_MIN(barw, barh);
 2039              		.loc 1 475 25 view .LVU678
 2040 0246 0746     		mov	r7, r0
 2041              	.L140:
 2042              	.LVL223:
 479:Drivers/lvgl/src/widgets/bar/lv_bar.c ****     short_side = LV_MIN(lv_area_get_width(&bar->indic_area), lv_area_get_height(&bar->indic_area));
 2043              		.loc 1 479 5 is_stmt 1 view .LVU679
 479:Drivers/lvgl/src/widgets/bar/lv_bar.c ****     short_side = LV_MIN(lv_area_get_width(&bar->indic_area), lv_area_get_height(&bar->indic_area));
 2044              		.loc 1 479 13 is_stmt 0 view .LVU680
 2045 0248 599C     		ldr	r4, [sp, #356]
 2046              	.LVL224:
 480:Drivers/lvgl/src/widgets/bar/lv_bar.c ****     if(indic_radius > short_side >> 1) indic_radius = short_side >> 1;
 2047              		.loc 1 480 5 is_stmt 1 view .LVU681
 480:Drivers/lvgl/src/widgets/bar/lv_bar.c ****     if(indic_radius > short_side >> 1) indic_radius = short_side >> 1;
 2048              		.loc 1 480 18 is_stmt 0 view .LVU682
 2049 024a 5046     		mov	r0, r10
 2050 024c FFF7FEFF 		bl	lv_area_get_width
 2051              	.LVL225:
 480:Drivers/lvgl/src/widgets/bar/lv_bar.c ****     if(indic_radius > short_side >> 1) indic_radius = short_side >> 1;
 2052              		.loc 1 480 18 view .LVU683
 2053 0250 0546     		mov	r5, r0
 480:Drivers/lvgl/src/widgets/bar/lv_bar.c ****     if(indic_radius > short_side >> 1) indic_radius = short_side >> 1;
 2054              		.loc 1 480 18 discriminator 1 view .LVU684
ARM GAS  /tmp/cc1kxWTq.s 			page 74


 2055 0252 5046     		mov	r0, r10
 2056 0254 FFF7FEFF 		bl	lv_area_get_height
 2057              	.LVL226:
 480:Drivers/lvgl/src/widgets/bar/lv_bar.c ****     if(indic_radius > short_side >> 1) indic_radius = short_side >> 1;
 2058              		.loc 1 480 18 discriminator 2 view .LVU685
 2059 0258 8542     		cmp	r5, r0
 2060 025a 80F2A980 		bge	.L141
 480:Drivers/lvgl/src/widgets/bar/lv_bar.c ****     if(indic_radius > short_side >> 1) indic_radius = short_side >> 1;
 2061              		.loc 1 480 18 discriminator 1 view .LVU686
 2062 025e 5046     		mov	r0, r10
 2063 0260 FFF7FEFF 		bl	lv_area_get_width
 2064              	.LVL227:
 2065              	.L142:
 481:Drivers/lvgl/src/widgets/bar/lv_bar.c **** 
 2066              		.loc 1 481 5 is_stmt 1 view .LVU687
 481:Drivers/lvgl/src/widgets/bar/lv_bar.c **** 
 2067              		.loc 1 481 34 is_stmt 0 view .LVU688
 2068 0264 4FEA600A 		asr	r10, r0, #1
 2069              	.LVL228:
 481:Drivers/lvgl/src/widgets/bar/lv_bar.c **** 
 2070              		.loc 1 481 7 view .LVU689
 2071 0268 B4EB600F 		cmp	r4, r0, asr #1
 2072 026c 00DC     		bgt	.L143
 479:Drivers/lvgl/src/widgets/bar/lv_bar.c ****     short_side = LV_MIN(lv_area_get_width(&bar->indic_area), lv_area_get_height(&bar->indic_area));
 2073              		.loc 1 479 13 view .LVU690
 2074 026e A246     		mov	r10, r4
 2075              	.L143:
 2076              	.LVL229:
 507:Drivers/lvgl/src/widgets/bar/lv_bar.c ****     if(hor && draw_rect_dsc.bg_grad.dir == LV_GRAD_DIR_HOR) mask_needed = true;
 2077              		.loc 1 507 5 is_stmt 1 view .LVU691
 508:Drivers/lvgl/src/widgets/bar/lv_bar.c ****     else if(!hor && draw_rect_dsc.bg_grad.dir == LV_GRAD_DIR_VER) mask_needed = true;
 2078              		.loc 1 508 5 view .LVU692
 508:Drivers/lvgl/src/widgets/bar/lv_bar.c ****     else if(!hor && draw_rect_dsc.bg_grad.dir == LV_GRAD_DIR_VER) mask_needed = true;
 2079              		.loc 1 508 7 is_stmt 0 view .LVU693
 2080 0270 B9F1000F 		cmp	r9, #0
 2081 0274 00F0A680 		beq	.L144
 508:Drivers/lvgl/src/widgets/bar/lv_bar.c ****     else if(!hor && draw_rect_dsc.bg_grad.dir == LV_GRAD_DIR_VER) mask_needed = true;
 2082              		.loc 1 508 41 discriminator 1 view .LVU694
 2083 0278 9DF87731 		ldrb	r3, [sp, #375]	@ zero_extendqisi2
 2084 027c 03F00F03 		and	r3, r3, #15
 508:Drivers/lvgl/src/widgets/bar/lv_bar.c ****     else if(!hor && draw_rect_dsc.bg_grad.dir == LV_GRAD_DIR_VER) mask_needed = true;
 2085              		.loc 1 508 12 discriminator 1 view .LVU695
 2086 0280 022B     		cmp	r3, #2
 2087 0282 00F09980 		beq	.L174
 507:Drivers/lvgl/src/widgets/bar/lv_bar.c ****     if(hor && draw_rect_dsc.bg_grad.dir == LV_GRAD_DIR_HOR) mask_needed = true;
 2088              		.loc 1 507 10 view .LVU696
 2089 0286 0024     		movs	r4, #0
 2090 0288 A3E0     		b	.L145
 2091              	.LVL230:
 2092              	.L159:
 306:Drivers/lvgl/src/widgets/bar/lv_bar.c ****         case LV_BAR_ORIENTATION_HORIZONTAL:
 2093              		.loc 1 306 5 view .LVU697
 2094 028a 4FF00109 		mov	r9, #1
 2095 028e F8E6     		b	.L109
 2096              	.L160:
 311:Drivers/lvgl/src/widgets/bar/lv_bar.c ****             break;
 2097              		.loc 1 311 17 view .LVU698
ARM GAS  /tmp/cc1kxWTq.s 			page 75


 2098 0290 4FF00009 		mov	r9, #0
 2099 0294 F5E6     		b	.L109
 2100              	.LVL231:
 2101              	.L170:
 335:Drivers/lvgl/src/widgets/bar/lv_bar.c ****         bar->indic_area.y2 = bar->indic_area.y1 + LV_BAR_SIZE_MIN;
 2102              		.loc 1 335 53 view .LVU699
 2103 0296 4A1C     		adds	r2, r1, #1
 2104 0298 37E7     		b	.L112
 2105              	.LVL232:
 2106              	.L110:
 338:Drivers/lvgl/src/widgets/bar/lv_bar.c ****         bar->indic_area.x1 = obj->coords.x1 + (barw / 2) - (LV_BAR_SIZE_MIN / 2);
 2107              		.loc 1 338 10 is_stmt 1 view .LVU700
 338:Drivers/lvgl/src/widgets/bar/lv_bar.c ****         bar->indic_area.x1 = obj->coords.x1 + (barw / 2) - (LV_BAR_SIZE_MIN / 2);
 2108              		.loc 1 338 21 is_stmt 0 discriminator 1 view .LVU701
 2109 029a 04F13C00 		add	r0, r4, #60
 2110 029e FFF7FEFF 		bl	lv_area_get_width
 2111              	.LVL233:
 338:Drivers/lvgl/src/widgets/bar/lv_bar.c ****         bar->indic_area.x1 = obj->coords.x1 + (barw / 2) - (LV_BAR_SIZE_MIN / 2);
 2112              		.loc 1 338 18 discriminator 1 view .LVU702
 2113 02a2 0328     		cmp	r0, #3
 2114 02a4 3FF737AF 		bgt	.L111
 339:Drivers/lvgl/src/widgets/bar/lv_bar.c ****         bar->indic_area.x2 = bar->indic_area.x1 + LV_BAR_SIZE_MIN;
 2115              		.loc 1 339 9 is_stmt 1 view .LVU703
 339:Drivers/lvgl/src/widgets/bar/lv_bar.c ****         bar->indic_area.x2 = bar->indic_area.x1 + LV_BAR_SIZE_MIN;
 2116              		.loc 1 339 41 is_stmt 0 view .LVU704
 2117 02a8 6369     		ldr	r3, [r4, #20]
 339:Drivers/lvgl/src/widgets/bar/lv_bar.c ****         bar->indic_area.x2 = bar->indic_area.x1 + LV_BAR_SIZE_MIN;
 2118              		.loc 1 339 53 view .LVU705
 2119 02aa 0599     		ldr	r1, [sp, #20]
 2120 02ac 0A46     		mov	r2, r1
 2121 02ae 0029     		cmp	r1, #0
 2122 02b0 06DB     		blt	.L175
 2123              	.L113:
 339:Drivers/lvgl/src/widgets/bar/lv_bar.c ****         bar->indic_area.x2 = bar->indic_area.x1 + LV_BAR_SIZE_MIN;
 2124              		.loc 1 339 45 view .LVU706
 2125 02b2 03EB6203 		add	r3, r3, r2, asr #1
 339:Drivers/lvgl/src/widgets/bar/lv_bar.c ****         bar->indic_area.x2 = bar->indic_area.x1 + LV_BAR_SIZE_MIN;
 2126              		.loc 1 339 58 view .LVU707
 2127 02b6 9A1E     		subs	r2, r3, #2
 339:Drivers/lvgl/src/widgets/bar/lv_bar.c ****         bar->indic_area.x2 = bar->indic_area.x1 + LV_BAR_SIZE_MIN;
 2128              		.loc 1 339 28 view .LVU708
 2129 02b8 E263     		str	r2, [r4, #60]
 340:Drivers/lvgl/src/widgets/bar/lv_bar.c ****     }
 2130              		.loc 1 340 9 is_stmt 1 view .LVU709
 340:Drivers/lvgl/src/widgets/bar/lv_bar.c ****     }
 2131              		.loc 1 340 49 is_stmt 0 view .LVU710
 2132 02ba 0233     		adds	r3, r3, #2
 340:Drivers/lvgl/src/widgets/bar/lv_bar.c ****     }
 2133              		.loc 1 340 28 view .LVU711
 2134 02bc 6364     		str	r3, [r4, #68]
 2135 02be 2AE7     		b	.L111
 2136              	.L175:
 339:Drivers/lvgl/src/widgets/bar/lv_bar.c ****         bar->indic_area.x2 = bar->indic_area.x1 + LV_BAR_SIZE_MIN;
 2137              		.loc 1 339 53 view .LVU712
 2138 02c0 4A1C     		adds	r2, r1, #1
 2139 02c2 F6E7     		b	.L113
 2140              	.LVL234:
ARM GAS  /tmp/cc1kxWTq.s 			page 76


 2141              	.L114:
 348:Drivers/lvgl/src/widgets/bar/lv_bar.c **** 
 2142              		.loc 1 348 5 is_stmt 1 view .LVU713
 350:Drivers/lvgl/src/widgets/bar/lv_bar.c ****     int32_t (*indic_length_calc)(const lv_area_t * area);
 2143              		.loc 1 350 5 view .LVU714
 351:Drivers/lvgl/src/widgets/bar/lv_bar.c **** 
 2144              		.loc 1 351 5 view .LVU715
 353:Drivers/lvgl/src/widgets/bar/lv_bar.c ****         axis1 = &bar->indic_area.x1;
 2145              		.loc 1 353 5 view .LVU716
 359:Drivers/lvgl/src/widgets/bar/lv_bar.c ****         axis2 = &bar->indic_area.y2;
 2146              		.loc 1 359 9 view .LVU717
 359:Drivers/lvgl/src/widgets/bar/lv_bar.c ****         axis2 = &bar->indic_area.y2;
 2147              		.loc 1 359 15 is_stmt 0 view .LVU718
 2148 02c4 04F14008 		add	r8, r4, #64
 2149              	.LVL235:
 360:Drivers/lvgl/src/widgets/bar/lv_bar.c ****         indic_length_calc = lv_area_get_height;
 2150              		.loc 1 360 9 is_stmt 1 view .LVU719
 360:Drivers/lvgl/src/widgets/bar/lv_bar.c ****         indic_length_calc = lv_area_get_height;
 2151              		.loc 1 360 15 is_stmt 0 view .LVU720
 2152 02c8 04F1480B 		add	fp, r4, #72
 2153              	.LVL236:
 361:Drivers/lvgl/src/widgets/bar/lv_bar.c ****     }
 2154              		.loc 1 361 9 is_stmt 1 view .LVU721
 346:Drivers/lvgl/src/widgets/bar/lv_bar.c **** 
 2155              		.loc 1 346 45 is_stmt 0 discriminator 2 view .LVU722
 2156 02cc 0190     		str	r0, [sp, #4]
 2157              	.LVL237:
 361:Drivers/lvgl/src/widgets/bar/lv_bar.c ****     }
 2158              		.loc 1 361 27 view .LVU723
 2159 02ce 3C4B     		ldr	r3, .L180+4
 2160 02d0 0993     		str	r3, [sp, #36]
 2161 02d2 32E7     		b	.L115
 2162              	.LVL238:
 2163              	.L171:
 2164              	.LBB70:
 370:Drivers/lvgl/src/widgets/bar/lv_bar.c ****                               LV_BAR_ANIM_STATE_END);
 2165              		.loc 1 370 28 view .LVU724
 2166 02d4 FF32     		adds	r2, r2, #255
 2167 02d6 49E7     		b	.L117
 2168              	.LVL239:
 2169              	.L116:
 370:Drivers/lvgl/src/widgets/bar/lv_bar.c ****                               LV_BAR_ANIM_STATE_END);
 2170              		.loc 1 370 28 view .LVU725
 2171              	.LBE70:
 376:Drivers/lvgl/src/widgets/bar/lv_bar.c ****     }
 2172              		.loc 1 376 9 is_stmt 1 view .LVU726
 376:Drivers/lvgl/src/widgets/bar/lv_bar.c ****     }
 2173              		.loc 1 376 67 is_stmt 0 view .LVU727
 2174 02d8 A56B     		ldr	r5, [r4, #56]
 376:Drivers/lvgl/src/widgets/bar/lv_bar.c ****     }
 2175              		.loc 1 376 86 view .LVU728
 2176 02da 236B     		ldr	r3, [r4, #48]
 376:Drivers/lvgl/src/widgets/bar/lv_bar.c ****     }
 2177              		.loc 1 376 81 view .LVU729
 2178 02dc ED1A     		subs	r5, r5, r3
 376:Drivers/lvgl/src/widgets/bar/lv_bar.c ****     }
 2179              		.loc 1 376 30 view .LVU730
ARM GAS  /tmp/cc1kxWTq.s 			page 77


 2180 02de 019B     		ldr	r3, [sp, #4]
 2181 02e0 03FB05F5 		mul	r5, r3, r5
 376:Drivers/lvgl/src/widgets/bar/lv_bar.c ****     }
 2182              		.loc 1 376 28 view .LVU731
 2183 02e4 95FBF7F5 		sdiv	r5, r5, r7
 2184 02e8 42E7     		b	.L118
 2185              	.LVL240:
 2186              	.L172:
 2187              	.LBB71:
 386:Drivers/lvgl/src/widgets/bar/lv_bar.c ****                                                      LV_BAR_ANIM_STATE_END);
 2188              		.loc 1 386 87 view .LVU732
 2189 02ea FF32     		adds	r2, r2, #255
 2190 02ec 59E7     		b	.L120
 2191              	.LVL241:
 2192              	.L119:
 386:Drivers/lvgl/src/widgets/bar/lv_bar.c ****                                                      LV_BAR_ANIM_STATE_END);
 2193              		.loc 1 386 87 view .LVU733
 2194              	.LBE71:
 390:Drivers/lvgl/src/widgets/bar/lv_bar.c ****     }
 2195              		.loc 1 390 9 is_stmt 1 view .LVU734
 390:Drivers/lvgl/src/widgets/bar/lv_bar.c ****     }
 2196              		.loc 1 390 65 is_stmt 0 view .LVU735
 2197 02ee E66A     		ldr	r6, [r4, #44]
 2198              	.LVL242:
 390:Drivers/lvgl/src/widgets/bar/lv_bar.c ****     }
 2199              		.loc 1 390 82 view .LVU736
 2200 02f0 236B     		ldr	r3, [r4, #48]
 390:Drivers/lvgl/src/widgets/bar/lv_bar.c ****     }
 2201              		.loc 1 390 77 view .LVU737
 2202 02f2 F61A     		subs	r6, r6, r3
 390:Drivers/lvgl/src/widgets/bar/lv_bar.c ****     }
 2203              		.loc 1 390 28 view .LVU738
 2204 02f4 019B     		ldr	r3, [sp, #4]
 2205 02f6 03FB06F6 		mul	r6, r3, r6
 390:Drivers/lvgl/src/widgets/bar/lv_bar.c ****     }
 2206              		.loc 1 390 26 view .LVU739
 2207 02fa 96FBF7F6 		sdiv	r6, r6, r7
 2208 02fe 52E7     		b	.L121
 2209              	.LVL243:
 2210              	.L123:
 417:Drivers/lvgl/src/widgets/bar/lv_bar.c ****         *axis2 -= anim_start_value_x;
 2211              		.loc 1 417 9 is_stmt 1 view .LVU740
 417:Drivers/lvgl/src/widgets/bar/lv_bar.c ****         *axis2 -= anim_start_value_x;
 2212              		.loc 1 417 18 is_stmt 0 view .LVU741
 2213 0300 DBF80030 		ldr	r3, [fp]
 417:Drivers/lvgl/src/widgets/bar/lv_bar.c ****         *axis2 -= anim_start_value_x;
 2214              		.loc 1 417 25 view .LVU742
 2215 0304 9B1B     		subs	r3, r3, r6
 417:Drivers/lvgl/src/widgets/bar/lv_bar.c ****         *axis2 -= anim_start_value_x;
 2216              		.loc 1 417 44 view .LVU743
 2217 0306 0133     		adds	r3, r3, #1
 417:Drivers/lvgl/src/widgets/bar/lv_bar.c ****         *axis2 -= anim_start_value_x;
 2218              		.loc 1 417 16 view .LVU744
 2219 0308 C8F80030 		str	r3, [r8]
 418:Drivers/lvgl/src/widgets/bar/lv_bar.c ****     }
 2220              		.loc 1 418 9 is_stmt 1 view .LVU745
 2221 030c DBF80030 		ldr	r3, [fp]
ARM GAS  /tmp/cc1kxWTq.s 			page 78


 418:Drivers/lvgl/src/widgets/bar/lv_bar.c ****     }
 2222              		.loc 1 418 16 is_stmt 0 view .LVU746
 2223 0310 5B1B     		subs	r3, r3, r5
 2224 0312 CBF80030 		str	r3, [fp]
 2225 0316 69E7     		b	.L124
 2226              	.L125:
 2227              	.LBB72:
 422:Drivers/lvgl/src/widgets/bar/lv_bar.c ****         shift = (-bar->min_value * anim_length) / range;
 2228              		.loc 1 422 9 is_stmt 1 view .LVU747
 423:Drivers/lvgl/src/widgets/bar/lv_bar.c **** 
 2229              		.loc 1 423 9 view .LVU748
 423:Drivers/lvgl/src/widgets/bar/lv_bar.c **** 
 2230              		.loc 1 423 22 is_stmt 0 view .LVU749
 2231 0318 236B     		ldr	r3, [r4, #48]
 423:Drivers/lvgl/src/widgets/bar/lv_bar.c **** 
 2232              		.loc 1 423 18 view .LVU750
 2233 031a 5B42     		rsbs	r3, r3, #0
 423:Drivers/lvgl/src/widgets/bar/lv_bar.c **** 
 2234              		.loc 1 423 34 view .LVU751
 2235 031c 0198     		ldr	r0, [sp, #4]
 2236              	.LVL244:
 423:Drivers/lvgl/src/widgets/bar/lv_bar.c **** 
 2237              		.loc 1 423 34 view .LVU752
 2238 031e 00FB03F3 		mul	r3, r0, r3
 423:Drivers/lvgl/src/widgets/bar/lv_bar.c **** 
 2239              		.loc 1 423 15 view .LVU753
 2240 0322 93FBF7F3 		sdiv	r3, r3, r7
 2241              	.LVL245:
 425:Drivers/lvgl/src/widgets/bar/lv_bar.c ****             int32_t * left = reversed ? axis2 : axis1;
 2242              		.loc 1 425 9 is_stmt 1 view .LVU754
 425:Drivers/lvgl/src/widgets/bar/lv_bar.c ****             int32_t * left = reversed ? axis2 : axis1;
 2243              		.loc 1 425 11 is_stmt 0 view .LVU755
 2244 0326 B9F1000F 		cmp	r9, #0
 2245 032a 1DD0     		beq	.L128
 2246              	.LBB73:
 426:Drivers/lvgl/src/widgets/bar/lv_bar.c ****             int32_t * right = reversed ? axis1 : axis2;
 2247              		.loc 1 426 13 is_stmt 1 view .LVU756
 426:Drivers/lvgl/src/widgets/bar/lv_bar.c ****             int32_t * right = reversed ? axis1 : axis2;
 2248              		.loc 1 426 47 is_stmt 0 view .LVU757
 2249 032c 8A42     		cmp	r2, r1
 2250 032e 10D0     		beq	.L161
 426:Drivers/lvgl/src/widgets/bar/lv_bar.c ****             int32_t * right = reversed ? axis1 : axis2;
 2251              		.loc 1 426 47 discriminator 1 view .LVU758
 2252 0330 5D46     		mov	r5, fp
 2253              	.LVL246:
 2254              	.L129:
 427:Drivers/lvgl/src/widgets/bar/lv_bar.c ****             if(reversed)
 2255              		.loc 1 427 13 is_stmt 1 view .LVU759
 427:Drivers/lvgl/src/widgets/bar/lv_bar.c ****             if(reversed)
 2256              		.loc 1 427 48 is_stmt 0 view .LVU760
 2257 0332 8A42     		cmp	r2, r1
 2258 0334 0FD0     		beq	.L162
 427:Drivers/lvgl/src/widgets/bar/lv_bar.c ****             if(reversed)
 2259              		.loc 1 427 48 discriminator 1 view .LVU761
 2260 0336 4046     		mov	r0, r8
 2261              	.L130:
 2262              	.LVL247:
ARM GAS  /tmp/cc1kxWTq.s 			page 79


 428:Drivers/lvgl/src/widgets/bar/lv_bar.c ****                 zero = *axis1 - shift + 1;
 2263              		.loc 1 428 13 is_stmt 1 view .LVU762
 428:Drivers/lvgl/src/widgets/bar/lv_bar.c ****                 zero = *axis1 - shift + 1;
 2264              		.loc 1 428 15 is_stmt 0 view .LVU763
 2265 0338 8A42     		cmp	r2, r1
 2266 033a 0ED0     		beq	.L131
 429:Drivers/lvgl/src/widgets/bar/lv_bar.c ****             else
 2267              		.loc 1 429 17 is_stmt 1 view .LVU764
 429:Drivers/lvgl/src/widgets/bar/lv_bar.c ****             else
 2268              		.loc 1 429 24 is_stmt 0 view .LVU765
 2269 033c D8F80020 		ldr	r2, [r8]
 2270              	.LVL248:
 429:Drivers/lvgl/src/widgets/bar/lv_bar.c ****             else
 2271              		.loc 1 429 31 view .LVU766
 2272 0340 D31A     		subs	r3, r2, r3
 2273              	.LVL249:
 429:Drivers/lvgl/src/widgets/bar/lv_bar.c ****             else
 2274              		.loc 1 429 22 view .LVU767
 2275 0342 0133     		adds	r3, r3, #1
 2276              	.LVL250:
 2277              	.L132:
 433:Drivers/lvgl/src/widgets/bar/lv_bar.c ****                 *right = *axis2;
 2278              		.loc 1 433 13 is_stmt 1 view .LVU768
 433:Drivers/lvgl/src/widgets/bar/lv_bar.c ****                 *right = *axis2;
 2279              		.loc 1 433 16 is_stmt 0 view .LVU769
 2280 0344 DBF80020 		ldr	r2, [fp]
 433:Drivers/lvgl/src/widgets/bar/lv_bar.c ****                 *right = *axis2;
 2281              		.loc 1 433 15 view .LVU770
 2282 0348 9A42     		cmp	r2, r3
 2283 034a 0ADD     		ble	.L133
 434:Drivers/lvgl/src/widgets/bar/lv_bar.c ****                 *left = zero;
 2284              		.loc 1 434 17 is_stmt 1 view .LVU771
 434:Drivers/lvgl/src/widgets/bar/lv_bar.c ****                 *left = zero;
 2285              		.loc 1 434 24 is_stmt 0 view .LVU772
 2286 034c 0260     		str	r2, [r0]
 2287              	.LVL251:
 435:Drivers/lvgl/src/widgets/bar/lv_bar.c ****             }
 2288              		.loc 1 435 17 is_stmt 1 view .LVU773
 435:Drivers/lvgl/src/widgets/bar/lv_bar.c ****             }
 2289              		.loc 1 435 23 is_stmt 0 view .LVU774
 2290 034e 2B60     		str	r3, [r5]
 2291 0350 56E7     		b	.L127
 2292              	.LVL252:
 2293              	.L161:
 426:Drivers/lvgl/src/widgets/bar/lv_bar.c ****             int32_t * right = reversed ? axis1 : axis2;
 2294              		.loc 1 426 47 discriminator 2 view .LVU775
 2295 0352 4546     		mov	r5, r8
 2296              	.LVL253:
 426:Drivers/lvgl/src/widgets/bar/lv_bar.c ****             int32_t * right = reversed ? axis1 : axis2;
 2297              		.loc 1 426 47 discriminator 2 view .LVU776
 2298 0354 EDE7     		b	.L129
 2299              	.LVL254:
 2300              	.L162:
 427:Drivers/lvgl/src/widgets/bar/lv_bar.c ****             if(reversed)
 2301              		.loc 1 427 48 discriminator 2 view .LVU777
 2302 0356 5846     		mov	r0, fp
 2303 0358 EEE7     		b	.L130
ARM GAS  /tmp/cc1kxWTq.s 			page 80


 2304              	.LVL255:
 2305              	.L131:
 431:Drivers/lvgl/src/widgets/bar/lv_bar.c **** 
 2306              		.loc 1 431 17 is_stmt 1 view .LVU778
 431:Drivers/lvgl/src/widgets/bar/lv_bar.c **** 
 2307              		.loc 1 431 24 is_stmt 0 view .LVU779
 2308 035a D8F80020 		ldr	r2, [r8]
 2309              	.LVL256:
 431:Drivers/lvgl/src/widgets/bar/lv_bar.c **** 
 2310              		.loc 1 431 22 view .LVU780
 2311 035e 1344     		add	r3, r3, r2
 2312              	.LVL257:
 431:Drivers/lvgl/src/widgets/bar/lv_bar.c **** 
 2313              		.loc 1 431 22 view .LVU781
 2314 0360 F0E7     		b	.L132
 2315              	.LVL258:
 2316              	.L133:
 438:Drivers/lvgl/src/widgets/bar/lv_bar.c ****                 *right = zero;
 2317              		.loc 1 438 17 is_stmt 1 view .LVU782
 438:Drivers/lvgl/src/widgets/bar/lv_bar.c ****                 *right = zero;
 2318              		.loc 1 438 23 is_stmt 0 view .LVU783
 2319 0362 2A60     		str	r2, [r5]
 2320              	.LVL259:
 439:Drivers/lvgl/src/widgets/bar/lv_bar.c ****             }
 2321              		.loc 1 439 17 is_stmt 1 view .LVU784
 439:Drivers/lvgl/src/widgets/bar/lv_bar.c ****             }
 2322              		.loc 1 439 24 is_stmt 0 view .LVU785
 2323 0364 0360     		str	r3, [r0]
 2324 0366 4BE7     		b	.L127
 2325              	.LVL260:
 2326              	.L128:
 439:Drivers/lvgl/src/widgets/bar/lv_bar.c ****             }
 2327              		.loc 1 439 24 view .LVU786
 2328              	.LBE73:
 2329              	.LBB74:
 443:Drivers/lvgl/src/widgets/bar/lv_bar.c ****             int32_t * bottom = reversed ? axis1 : axis2;
 2330              		.loc 1 443 13 is_stmt 1 view .LVU787
 443:Drivers/lvgl/src/widgets/bar/lv_bar.c ****             int32_t * bottom = reversed ? axis1 : axis2;
 2331              		.loc 1 443 46 is_stmt 0 view .LVU788
 2332 0368 8A42     		cmp	r2, r1
 2333 036a 0FD0     		beq	.L163
 443:Drivers/lvgl/src/widgets/bar/lv_bar.c ****             int32_t * bottom = reversed ? axis1 : axis2;
 2334              		.loc 1 443 46 discriminator 1 view .LVU789
 2335 036c 5D46     		mov	r5, fp
 2336              	.LVL261:
 2337              	.L134:
 444:Drivers/lvgl/src/widgets/bar/lv_bar.c ****             if(reversed)
 2338              		.loc 1 444 13 is_stmt 1 view .LVU790
 444:Drivers/lvgl/src/widgets/bar/lv_bar.c ****             if(reversed)
 2339              		.loc 1 444 49 is_stmt 0 view .LVU791
 2340 036e 8A42     		cmp	r2, r1
 2341 0370 0ED0     		beq	.L164
 444:Drivers/lvgl/src/widgets/bar/lv_bar.c ****             if(reversed)
 2342              		.loc 1 444 49 discriminator 1 view .LVU792
 2343 0372 4046     		mov	r0, r8
 2344              	.L135:
 2345              	.LVL262:
ARM GAS  /tmp/cc1kxWTq.s 			page 81


 445:Drivers/lvgl/src/widgets/bar/lv_bar.c ****                 zero = *axis2 + shift;
 2346              		.loc 1 445 13 is_stmt 1 view .LVU793
 445:Drivers/lvgl/src/widgets/bar/lv_bar.c ****                 zero = *axis2 + shift;
 2347              		.loc 1 445 15 is_stmt 0 view .LVU794
 2348 0374 8A42     		cmp	r2, r1
 2349 0376 0DD0     		beq	.L136
 446:Drivers/lvgl/src/widgets/bar/lv_bar.c ****             else
 2350              		.loc 1 446 17 is_stmt 1 view .LVU795
 446:Drivers/lvgl/src/widgets/bar/lv_bar.c ****             else
 2351              		.loc 1 446 24 is_stmt 0 view .LVU796
 2352 0378 DBF80020 		ldr	r2, [fp]
 2353              	.LVL263:
 446:Drivers/lvgl/src/widgets/bar/lv_bar.c ****             else
 2354              		.loc 1 446 22 view .LVU797
 2355 037c 1344     		add	r3, r3, r2
 2356              	.LVL264:
 2357              	.L137:
 450:Drivers/lvgl/src/widgets/bar/lv_bar.c ****                 *bottom = *axis1;
 2358              		.loc 1 450 13 is_stmt 1 view .LVU798
 450:Drivers/lvgl/src/widgets/bar/lv_bar.c ****                 *bottom = *axis1;
 2359              		.loc 1 450 16 is_stmt 0 view .LVU799
 2360 037e D8F80020 		ldr	r2, [r8]
 450:Drivers/lvgl/src/widgets/bar/lv_bar.c ****                 *bottom = *axis1;
 2361              		.loc 1 450 15 view .LVU800
 2362 0382 9A42     		cmp	r2, r3
 2363 0384 0BDD     		ble	.L138
 451:Drivers/lvgl/src/widgets/bar/lv_bar.c ****                 *top = zero;
 2364              		.loc 1 451 17 is_stmt 1 view .LVU801
 451:Drivers/lvgl/src/widgets/bar/lv_bar.c ****                 *top = zero;
 2365              		.loc 1 451 25 is_stmt 0 view .LVU802
 2366 0386 0260     		str	r2, [r0]
 2367              	.LVL265:
 452:Drivers/lvgl/src/widgets/bar/lv_bar.c ****             }
 2368              		.loc 1 452 17 is_stmt 1 view .LVU803
 452:Drivers/lvgl/src/widgets/bar/lv_bar.c ****             }
 2369              		.loc 1 452 22 is_stmt 0 view .LVU804
 2370 0388 2B60     		str	r3, [r5]
 2371 038a 39E7     		b	.L127
 2372              	.LVL266:
 2373              	.L163:
 443:Drivers/lvgl/src/widgets/bar/lv_bar.c ****             int32_t * bottom = reversed ? axis1 : axis2;
 2374              		.loc 1 443 46 discriminator 2 view .LVU805
 2375 038c 4546     		mov	r5, r8
 2376              	.LVL267:
 443:Drivers/lvgl/src/widgets/bar/lv_bar.c ****             int32_t * bottom = reversed ? axis1 : axis2;
 2377              		.loc 1 443 46 discriminator 2 view .LVU806
 2378 038e EEE7     		b	.L134
 2379              	.LVL268:
 2380              	.L164:
 444:Drivers/lvgl/src/widgets/bar/lv_bar.c ****             if(reversed)
 2381              		.loc 1 444 49 discriminator 2 view .LVU807
 2382 0390 5846     		mov	r0, fp
 2383 0392 EFE7     		b	.L135
 2384              	.LVL269:
 2385              	.L136:
 448:Drivers/lvgl/src/widgets/bar/lv_bar.c **** 
 2386              		.loc 1 448 17 is_stmt 1 view .LVU808
ARM GAS  /tmp/cc1kxWTq.s 			page 82


 448:Drivers/lvgl/src/widgets/bar/lv_bar.c **** 
 2387              		.loc 1 448 24 is_stmt 0 view .LVU809
 2388 0394 DBF80020 		ldr	r2, [fp]
 2389              	.LVL270:
 448:Drivers/lvgl/src/widgets/bar/lv_bar.c **** 
 2390              		.loc 1 448 31 view .LVU810
 2391 0398 D31A     		subs	r3, r2, r3
 2392              	.LVL271:
 448:Drivers/lvgl/src/widgets/bar/lv_bar.c **** 
 2393              		.loc 1 448 22 view .LVU811
 2394 039a 0133     		adds	r3, r3, #1
 2395 039c EFE7     		b	.L137
 2396              	.LVL272:
 2397              	.L138:
 455:Drivers/lvgl/src/widgets/bar/lv_bar.c ****                 *bottom = zero;
 2398              		.loc 1 455 17 is_stmt 1 view .LVU812
 455:Drivers/lvgl/src/widgets/bar/lv_bar.c ****                 *bottom = zero;
 2399              		.loc 1 455 22 is_stmt 0 view .LVU813
 2400 039e 2A60     		str	r2, [r5]
 2401              	.LVL273:
 456:Drivers/lvgl/src/widgets/bar/lv_bar.c ****             }
 2402              		.loc 1 456 17 is_stmt 1 view .LVU814
 456:Drivers/lvgl/src/widgets/bar/lv_bar.c ****             }
 2403              		.loc 1 456 25 is_stmt 0 view .LVU815
 2404 03a0 0360     		str	r3, [r0]
 2405 03a2 2DE7     		b	.L127
 2406              	.LVL274:
 2407              	.L173:
 456:Drivers/lvgl/src/widgets/bar/lv_bar.c ****             }
 2408              		.loc 1 456 25 view .LVU816
 2409              	.LBE74:
 2410              	.LBE72:
 463:Drivers/lvgl/src/widgets/bar/lv_bar.c ****         return;
 2411              		.loc 1 463 9 is_stmt 1 view .LVU817
 2412 03a4 0022     		movs	r2, #0
 2413 03a6 2221     		movs	r1, #34
 2414 03a8 2046     		mov	r0, r4
 2415 03aa FFF7FEFF 		bl	lv_obj_send_event
 2416              	.LVL275:
 464:Drivers/lvgl/src/widgets/bar/lv_bar.c ****     }
 2417              		.loc 1 464 9 view .LVU818
 2418 03ae 7AE0     		b	.L107
 2419              	.LVL276:
 2420              	.L141:
 480:Drivers/lvgl/src/widgets/bar/lv_bar.c ****     if(indic_radius > short_side >> 1) indic_radius = short_side >> 1;
 2421              		.loc 1 480 18 is_stmt 0 discriminator 2 view .LVU819
 2422 03b0 5046     		mov	r0, r10
 2423 03b2 FFF7FEFF 		bl	lv_area_get_height
 2424              	.LVL277:
 2425 03b6 55E7     		b	.L142
 2426              	.LVL278:
 2427              	.L174:
 508:Drivers/lvgl/src/widgets/bar/lv_bar.c ****     else if(!hor && draw_rect_dsc.bg_grad.dir == LV_GRAD_DIR_VER) mask_needed = true;
 2428              		.loc 1 508 73 discriminator 2 view .LVU820
 2429 03b8 4C46     		mov	r4, r9
 2430 03ba 0AE0     		b	.L145
 2431              	.L181:
ARM GAS  /tmp/cc1kxWTq.s 			page 83


 2432              		.align	2
 2433              	.L180:
 2434 03bc 00000000 		.word	lv_area_get_width
 2435 03c0 00000000 		.word	lv_area_get_height
 2436              	.L144:
 509:Drivers/lvgl/src/widgets/bar/lv_bar.c **** 
 2437              		.loc 1 509 47 discriminator 1 view .LVU821
 2438 03c4 9DF87731 		ldrb	r3, [sp, #375]	@ zero_extendqisi2
 2439 03c8 03F00F03 		and	r3, r3, #15
 509:Drivers/lvgl/src/widgets/bar/lv_bar.c **** 
 2440              		.loc 1 509 18 discriminator 1 view .LVU822
 2441 03cc 012B     		cmp	r3, #1
 2442 03ce 6DD0     		beq	.L166
 507:Drivers/lvgl/src/widgets/bar/lv_bar.c ****     if(hor && draw_rect_dsc.bg_grad.dir == LV_GRAD_DIR_HOR) mask_needed = true;
 2443              		.loc 1 507 10 view .LVU823
 2444 03d0 4C46     		mov	r4, r9
 2445              	.L145:
 2446              	.LVL279:
 511:Drivers/lvgl/src/widgets/bar/lv_bar.c **** 
 2447              		.loc 1 511 5 is_stmt 1 view .LVU824
 511:Drivers/lvgl/src/widgets/bar/lv_bar.c **** 
 2448              		.loc 1 511 21 is_stmt 0 view .LVU825
 2449 03d2 5E9B     		ldr	r3, [sp, #376]
 511:Drivers/lvgl/src/widgets/bar/lv_bar.c **** 
 2450              		.loc 1 511 7 view .LVU826
 2451 03d4 03B1     		cbz	r3, .L146
 511:Drivers/lvgl/src/widgets/bar/lv_bar.c **** 
 2452              		.loc 1 511 48 discriminator 1 view .LVU827
 2453 03d6 0124     		movs	r4, #1
 2454              	.LVL280:
 2455              	.L146:
 513:Drivers/lvgl/src/widgets/bar/lv_bar.c ****     /*The indicator is fully drawn if it's larger than the bg*/
 2456              		.loc 1 513 5 is_stmt 1 view .LVU828
 515:Drivers/lvgl/src/widgets/bar/lv_bar.c ****     else if(indic_radius >= bg_radius) radius_issue = false;
 2457              		.loc 1 515 5 view .LVU829
 515:Drivers/lvgl/src/widgets/bar/lv_bar.c ****     else if(indic_radius >= bg_radius) radius_issue = false;
 2458              		.loc 1 515 7 is_stmt 0 view .LVU830
 2459 03d8 079B     		ldr	r3, [sp, #28]
 2460 03da 009A     		ldr	r2, [sp]
 2461 03dc 1343     		orrs	r3, r3, r2
 2462 03de 07D4     		bmi	.L147
 515:Drivers/lvgl/src/widgets/bar/lv_bar.c ****     else if(indic_radius >= bg_radius) radius_issue = false;
 2463              		.loc 1 515 64 discriminator 2 view .LVU831
 2464 03e0 049B     		ldr	r3, [sp, #16]
 2465 03e2 DB0F     		lsrs	r3, r3, #31
 515:Drivers/lvgl/src/widgets/bar/lv_bar.c ****     else if(indic_radius >= bg_radius) radius_issue = false;
 2466              		.loc 1 515 51 discriminator 2 view .LVU832
 2467 03e4 039A     		ldr	r2, [sp, #12]
 2468 03e6 002A     		cmp	r2, #0
 2469 03e8 02DB     		blt	.L147
 2470 03ea 0BB9     		cbnz	r3, .L147
 516:Drivers/lvgl/src/widgets/bar/lv_bar.c ****     else if(lv_area_is_in(&indic_area, &bar_coords, bg_radius)) radius_issue = false;
 2471              		.loc 1 516 10 is_stmt 1 view .LVU833
 516:Drivers/lvgl/src/widgets/bar/lv_bar.c ****     else if(lv_area_is_in(&indic_area, &bar_coords, bg_radius)) radius_issue = false;
 2472              		.loc 1 516 12 is_stmt 0 view .LVU834
 2473 03ec 5745     		cmp	r7, r10
 2474 03ee 5FDC     		bgt	.L176
ARM GAS  /tmp/cc1kxWTq.s 			page 84


 2475              	.LVL281:
 2476              	.L147:
 519:Drivers/lvgl/src/widgets/bar/lv_bar.c ****         if(!radius_issue) {
 2477              		.loc 1 519 5 is_stmt 1 view .LVU835
 519:Drivers/lvgl/src/widgets/bar/lv_bar.c ****         if(!radius_issue) {
 2478              		.loc 1 519 7 is_stmt 0 view .LVU836
 2479 03f0 002C     		cmp	r4, #0
 2480 03f2 00F0A080 		beq	.L149
 2481 03f6 4FF00008 		mov	r8, #0
 2482              	.LVL282:
 2483              	.L148:
 2484              	.LBB75:
 520:Drivers/lvgl/src/widgets/bar/lv_bar.c ****             /*Draw only the shadow*/
 2485              		.loc 1 520 9 is_stmt 1 view .LVU837
 520:Drivers/lvgl/src/widgets/bar/lv_bar.c ****             /*Draw only the shadow*/
 2486              		.loc 1 520 11 is_stmt 0 view .LVU838
 2487 03fa B8F1000F 		cmp	r8, #0
 2488 03fe 61D0     		beq	.L177
 530:Drivers/lvgl/src/widgets/bar/lv_bar.c ****             draw_rect_dsc.outline_opa = 0;
 2489              		.loc 1 530 13 is_stmt 1 view .LVU839
 530:Drivers/lvgl/src/widgets/bar/lv_bar.c ****             draw_rect_dsc.outline_opa = 0;
 2490              		.loc 1 530 38 is_stmt 0 view .LVU840
 2491 0400 0023     		movs	r3, #0
 2492 0402 8DF89031 		strb	r3, [sp, #400]
 531:Drivers/lvgl/src/widgets/bar/lv_bar.c ****         }
 2493              		.loc 1 531 13 is_stmt 1 view .LVU841
 531:Drivers/lvgl/src/widgets/bar/lv_bar.c ****         }
 2494              		.loc 1 531 39 is_stmt 0 view .LVU842
 2495 0406 8DF8A031 		strb	r3, [sp, #416]
 2496              	.L151:
 533:Drivers/lvgl/src/widgets/bar/lv_bar.c **** 
 2497              		.loc 1 533 9 is_stmt 1 view .LVU843
 533:Drivers/lvgl/src/widgets/bar/lv_bar.c **** 
 2498              		.loc 1 533 34 is_stmt 0 view .LVU844
 2499 040a 0026     		movs	r6, #0
 2500              	.LVL283:
 533:Drivers/lvgl/src/widgets/bar/lv_bar.c **** 
 2501              		.loc 1 533 34 view .LVU845
 2502 040c 8DF8B461 		strb	r6, [sp, #436]
 537:Drivers/lvgl/src/widgets/bar/lv_bar.c ****         draw_tmp_dsc.border_opa = 0;
 2503              		.loc 1 537 9 is_stmt 1 view .LVU846
 537:Drivers/lvgl/src/widgets/bar/lv_bar.c ****         draw_tmp_dsc.border_opa = 0;
 2504              		.loc 1 537 28 is_stmt 0 view .LVU847
 2505 0410 36AD     		add	r5, sp, #216
 2506 0412 7022     		movs	r2, #112
 2507 0414 52A9     		add	r1, sp, #328
 2508 0416 2846     		mov	r0, r5
 2509 0418 FFF7FEFF 		bl	memcpy
 2510              	.LVL284:
 538:Drivers/lvgl/src/widgets/bar/lv_bar.c ****         draw_tmp_dsc.outline_opa = 0;
 2511              		.loc 1 538 9 is_stmt 1 view .LVU848
 538:Drivers/lvgl/src/widgets/bar/lv_bar.c ****         draw_tmp_dsc.outline_opa = 0;
 2512              		.loc 1 538 33 is_stmt 0 view .LVU849
 2513 041c 8DF82061 		strb	r6, [sp, #288]
 539:Drivers/lvgl/src/widgets/bar/lv_bar.c ****         draw_tmp_dsc.shadow_opa = 0;
 2514              		.loc 1 539 9 is_stmt 1 view .LVU850
 539:Drivers/lvgl/src/widgets/bar/lv_bar.c ****         draw_tmp_dsc.shadow_opa = 0;
ARM GAS  /tmp/cc1kxWTq.s 			page 85


 2515              		.loc 1 539 34 is_stmt 0 view .LVU851
 2516 0420 8DF83061 		strb	r6, [sp, #304]
 540:Drivers/lvgl/src/widgets/bar/lv_bar.c ****         lv_area_t indic_draw_area = indic_area;
 2517              		.loc 1 540 9 is_stmt 1 view .LVU852
 541:Drivers/lvgl/src/widgets/bar/lv_bar.c ****         if(mask_needed) {
 2518              		.loc 1 541 9 view .LVU853
 541:Drivers/lvgl/src/widgets/bar/lv_bar.c ****         if(mask_needed) {
 2519              		.loc 1 541 19 is_stmt 0 view .LVU854
 2520 0424 0AAD     		add	r5, sp, #40
 2521 0426 6EAB     		add	r3, sp, #440
 2522 0428 0FCB     		ldm	r3, {r0, r1, r2, r3}
 2523 042a 85E80F00 		stm	r5, {r0, r1, r2, r3}
 542:Drivers/lvgl/src/widgets/bar/lv_bar.c ****             if(hor) {
 2524              		.loc 1 542 9 is_stmt 1 view .LVU855
 542:Drivers/lvgl/src/widgets/bar/lv_bar.c ****             if(hor) {
 2525              		.loc 1 542 11 is_stmt 0 view .LVU856
 2526 042e 64B1     		cbz	r4, .L152
 543:Drivers/lvgl/src/widgets/bar/lv_bar.c ****                 indic_draw_area.x1 = bar_coords.x1 + bg_left;
 2527              		.loc 1 543 13 is_stmt 1 view .LVU857
 543:Drivers/lvgl/src/widgets/bar/lv_bar.c ****                 indic_draw_area.x1 = bar_coords.x1 + bg_left;
 2528              		.loc 1 543 15 is_stmt 0 view .LVU858
 2529 0430 B9F1000F 		cmp	r9, #0
 2530 0434 5BD0     		beq	.L153
 544:Drivers/lvgl/src/widgets/bar/lv_bar.c ****                 indic_draw_area.x2 = bar_coords.x2 - bg_right;
 2531              		.loc 1 544 17 is_stmt 1 view .LVU859
 544:Drivers/lvgl/src/widgets/bar/lv_bar.c ****                 indic_draw_area.x2 = bar_coords.x2 - bg_right;
 2532              		.loc 1 544 48 is_stmt 0 view .LVU860
 2533 0436 729B     		ldr	r3, [sp, #456]
 544:Drivers/lvgl/src/widgets/bar/lv_bar.c ****                 indic_draw_area.x2 = bar_coords.x2 - bg_right;
 2534              		.loc 1 544 52 view .LVU861
 2535 0438 079A     		ldr	r2, [sp, #28]
 2536 043a 1344     		add	r3, r3, r2
 544:Drivers/lvgl/src/widgets/bar/lv_bar.c ****                 indic_draw_area.x2 = bar_coords.x2 - bg_right;
 2537              		.loc 1 544 36 view .LVU862
 2538 043c 2B60     		str	r3, [r5]
 545:Drivers/lvgl/src/widgets/bar/lv_bar.c ****             }
 2539              		.loc 1 545 17 is_stmt 1 view .LVU863
 545:Drivers/lvgl/src/widgets/bar/lv_bar.c ****             }
 2540              		.loc 1 545 48 is_stmt 0 view .LVU864
 2541 043e 749B     		ldr	r3, [sp, #464]
 545:Drivers/lvgl/src/widgets/bar/lv_bar.c ****             }
 2542              		.loc 1 545 52 view .LVU865
 2543 0440 0099     		ldr	r1, [sp]
 2544 0442 5B1A     		subs	r3, r3, r1
 545:Drivers/lvgl/src/widgets/bar/lv_bar.c ****             }
 2545              		.loc 1 545 36 view .LVU866
 2546 0444 AB60     		str	r3, [r5, #8]
 2547              	.L154:
 551:Drivers/lvgl/src/widgets/bar/lv_bar.c ****         }
 2548              		.loc 1 551 13 is_stmt 1 view .LVU867
 551:Drivers/lvgl/src/widgets/bar/lv_bar.c ****         }
 2549              		.loc 1 551 33 is_stmt 0 view .LVU868
 2550 0446 0022     		movs	r2, #0
 2551 0448 3D92     		str	r2, [sp, #244]
 2552              	.L152:
 554:Drivers/lvgl/src/widgets/bar/lv_bar.c **** 
 2553              		.loc 1 554 9 is_stmt 1 view .LVU869
ARM GAS  /tmp/cc1kxWTq.s 			page 86


 554:Drivers/lvgl/src/widgets/bar/lv_bar.c **** 
 2554              		.loc 1 554 36 is_stmt 0 view .LVU870
 2555 044a 0AAE     		add	r6, sp, #40
 2556 044c 3246     		mov	r2, r6
 2557 044e 1021     		movs	r1, #16
 2558 0450 0298     		ldr	r0, [sp, #8]
 2559 0452 FFF7FEFF 		bl	lv_draw_layer_create
 2560              	.LVL285:
 2561 0456 0546     		mov	r5, r0
 2562              	.LVL286:
 556:Drivers/lvgl/src/widgets/bar/lv_bar.c **** 
 2563              		.loc 1 556 9 is_stmt 1 view .LVU871
 2564 0458 3246     		mov	r2, r6
 2565 045a 36A9     		add	r1, sp, #216
 2566 045c FFF7FEFF 		bl	lv_draw_rect
 2567              	.LVL287:
 558:Drivers/lvgl/src/widgets/bar/lv_bar.c ****         lv_draw_mask_rect_dsc_init(&mask_dsc);
 2568              		.loc 1 558 9 view .LVU872
 559:Drivers/lvgl/src/widgets/bar/lv_bar.c ****         if(radius_issue) {
 2569              		.loc 1 559 9 view .LVU873
 2570 0460 0EA8     		add	r0, sp, #56
 2571 0462 FFF7FEFF 		bl	lv_draw_mask_rect_dsc_init
 2572              	.LVL288:
 560:Drivers/lvgl/src/widgets/bar/lv_bar.c ****             mask_dsc.area = bar_coords;
 2573              		.loc 1 560 9 view .LVU874
 560:Drivers/lvgl/src/widgets/bar/lv_bar.c ****             mask_dsc.area = bar_coords;
 2574              		.loc 1 560 11 is_stmt 0 view .LVU875
 2575 0466 B8F1000F 		cmp	r8, #0
 2576 046a 49D1     		bne	.L178
 2577              	.L155:
 566:Drivers/lvgl/src/widgets/bar/lv_bar.c ****             mask_dsc.area = indic_area;
 2578              		.loc 1 566 9 is_stmt 1 view .LVU876
 566:Drivers/lvgl/src/widgets/bar/lv_bar.c ****             mask_dsc.area = indic_area;
 2579              		.loc 1 566 11 is_stmt 0 view .LVU877
 2580 046c 002C     		cmp	r4, #0
 2581 046e 55D1     		bne	.L179
 2582              	.LVL289:
 2583              	.L156:
 572:Drivers/lvgl/src/widgets/bar/lv_bar.c ****         lv_draw_image_dsc_init(&layer_draw_dsc);
 2584              		.loc 1 572 9 is_stmt 1 view .LVU878
 573:Drivers/lvgl/src/widgets/bar/lv_bar.c ****         layer_draw_dsc.src = layer_indic;
 2585              		.loc 1 573 9 view .LVU879
 2586 0470 1BAC     		add	r4, sp, #108
 2587 0472 2046     		mov	r0, r4
 2588 0474 FFF7FEFF 		bl	lv_draw_image_dsc_init
 2589              	.LVL290:
 574:Drivers/lvgl/src/widgets/bar/lv_bar.c ****         lv_draw_layer(layer, &layer_draw_dsc, &indic_draw_area);
 2590              		.loc 1 574 9 view .LVU880
 574:Drivers/lvgl/src/widgets/bar/lv_bar.c ****         lv_draw_layer(layer, &layer_draw_dsc, &indic_draw_area);
 2591              		.loc 1 574 28 is_stmt 0 view .LVU881
 2592 0478 2295     		str	r5, [sp, #136]
 575:Drivers/lvgl/src/widgets/bar/lv_bar.c **** 
 2593              		.loc 1 575 9 is_stmt 1 view .LVU882
 2594 047a 0AAA     		add	r2, sp, #40
 2595 047c 2146     		mov	r1, r4
 2596 047e 029D     		ldr	r5, [sp, #8]
 2597              	.LVL291:
ARM GAS  /tmp/cc1kxWTq.s 			page 87


 575:Drivers/lvgl/src/widgets/bar/lv_bar.c **** 
 2598              		.loc 1 575 9 is_stmt 0 view .LVU883
 2599 0480 2846     		mov	r0, r5
 2600 0482 FFF7FEFF 		bl	lv_draw_layer
 2601              	.LVL292:
 579:Drivers/lvgl/src/widgets/bar/lv_bar.c ****         draw_tmp_dsc.bg_opa = 0;
 2602              		.loc 1 579 9 is_stmt 1 view .LVU884
 579:Drivers/lvgl/src/widgets/bar/lv_bar.c ****         draw_tmp_dsc.bg_opa = 0;
 2603              		.loc 1 579 22 is_stmt 0 view .LVU885
 2604 0486 36AC     		add	r4, sp, #216
 2605 0488 7022     		movs	r2, #112
 2606 048a 52A9     		add	r1, sp, #328
 2607 048c 2046     		mov	r0, r4
 2608 048e FFF7FEFF 		bl	memcpy
 2609              	.LVL293:
 580:Drivers/lvgl/src/widgets/bar/lv_bar.c ****         draw_tmp_dsc.bg_image_opa = 0;
 2610              		.loc 1 580 9 is_stmt 1 view .LVU886
 580:Drivers/lvgl/src/widgets/bar/lv_bar.c ****         draw_tmp_dsc.bg_image_opa = 0;
 2611              		.loc 1 580 29 is_stmt 0 view .LVU887
 2612 0492 0023     		movs	r3, #0
 2613 0494 8DF8F830 		strb	r3, [sp, #248]
 581:Drivers/lvgl/src/widgets/bar/lv_bar.c ****         lv_draw_rect(layer, &draw_tmp_dsc, &indic_area);
 2614              		.loc 1 581 9 is_stmt 1 view .LVU888
 581:Drivers/lvgl/src/widgets/bar/lv_bar.c ****         lv_draw_rect(layer, &draw_tmp_dsc, &indic_area);
 2615              		.loc 1 581 35 is_stmt 0 view .LVU889
 2616 0498 8DF81331 		strb	r3, [sp, #275]
 582:Drivers/lvgl/src/widgets/bar/lv_bar.c ****     }
 2617              		.loc 1 582 9 is_stmt 1 view .LVU890
 2618 049c 6EAA     		add	r2, sp, #440
 2619 049e 2146     		mov	r1, r4
 2620 04a0 2846     		mov	r0, r5
 2621 04a2 FFF7FEFF 		bl	lv_draw_rect
 2622              	.LVL294:
 2623              	.L107:
 582:Drivers/lvgl/src/widgets/bar/lv_bar.c ****     }
 2624              		.loc 1 582 9 is_stmt 0 view .LVU891
 2625              	.LBE75:
 587:Drivers/lvgl/src/widgets/bar/lv_bar.c **** 
 2626              		.loc 1 587 1 view .LVU892
 2627 04a6 77B0     		add	sp, sp, #476
 2628              	.LCFI26:
 2629              		.cfi_remember_state
 2630              		.cfi_def_cfa_offset 36
 2631              	.LVL295:
 587:Drivers/lvgl/src/widgets/bar/lv_bar.c **** 
 2632              		.loc 1 587 1 view .LVU893
 2633              		@ sp needed
 2634 04a8 BDE8F08F 		pop	{r4, r5, r6, r7, r8, r9, r10, fp, pc}
 2635              	.LVL296:
 2636              	.L166:
 2637              	.LCFI27:
 2638              		.cfi_restore_state
 509:Drivers/lvgl/src/widgets/bar/lv_bar.c **** 
 2639              		.loc 1 509 79 discriminator 2 view .LVU894
 2640 04ac 0124     		movs	r4, #1
 2641 04ae 90E7     		b	.L145
 2642              	.LVL297:
ARM GAS  /tmp/cc1kxWTq.s 			page 88


 2643              	.L176:
 517:Drivers/lvgl/src/widgets/bar/lv_bar.c **** 
 2644              		.loc 1 517 10 is_stmt 1 view .LVU895
 517:Drivers/lvgl/src/widgets/bar/lv_bar.c **** 
 2645              		.loc 1 517 13 is_stmt 0 view .LVU896
 2646 04b0 3A46     		mov	r2, r7
 2647 04b2 72A9     		add	r1, sp, #456
 2648 04b4 6EA8     		add	r0, sp, #440
 2649              	.LVL298:
 517:Drivers/lvgl/src/widgets/bar/lv_bar.c **** 
 2650              		.loc 1 517 13 view .LVU897
 2651 04b6 FFF7FEFF 		bl	lv_area_is_in
 2652              	.LVL299:
 517:Drivers/lvgl/src/widgets/bar/lv_bar.c **** 
 2653              		.loc 1 517 12 discriminator 1 view .LVU898
 2654 04ba 0028     		cmp	r0, #0
 2655 04bc 98D1     		bne	.L147
 513:Drivers/lvgl/src/widgets/bar/lv_bar.c ****     /*The indicator is fully drawn if it's larger than the bg*/
 2656              		.loc 1 513 10 view .LVU899
 2657 04be 4FF00108 		mov	r8, #1
 2658              	.LVL300:
 513:Drivers/lvgl/src/widgets/bar/lv_bar.c ****     /*The indicator is fully drawn if it's larger than the bg*/
 2659              		.loc 1 513 10 view .LVU900
 2660 04c2 9AE7     		b	.L148
 2661              	.LVL301:
 2662              	.L177:
 2663              	.LBB77:
 2664              	.LBB76:
 522:Drivers/lvgl/src/widgets/bar/lv_bar.c ****             draw_tmp_dsc.border_opa = 0;
 2665              		.loc 1 522 13 is_stmt 1 view .LVU901
 522:Drivers/lvgl/src/widgets/bar/lv_bar.c ****             draw_tmp_dsc.border_opa = 0;
 2666              		.loc 1 522 32 is_stmt 0 view .LVU902
 2667 04c4 36AD     		add	r5, sp, #216
 2668 04c6 7022     		movs	r2, #112
 2669 04c8 52A9     		add	r1, sp, #328
 2670 04ca 2846     		mov	r0, r5
 2671 04cc FFF7FEFF 		bl	memcpy
 2672              	.LVL302:
 523:Drivers/lvgl/src/widgets/bar/lv_bar.c ****             draw_tmp_dsc.outline_opa = 0;
 2673              		.loc 1 523 13 is_stmt 1 view .LVU903
 523:Drivers/lvgl/src/widgets/bar/lv_bar.c ****             draw_tmp_dsc.outline_opa = 0;
 2674              		.loc 1 523 37 is_stmt 0 view .LVU904
 2675 04d0 0023     		movs	r3, #0
 2676 04d2 8DF82031 		strb	r3, [sp, #288]
 524:Drivers/lvgl/src/widgets/bar/lv_bar.c ****             draw_tmp_dsc.bg_opa = 0;
 2677              		.loc 1 524 13 is_stmt 1 view .LVU905
 524:Drivers/lvgl/src/widgets/bar/lv_bar.c ****             draw_tmp_dsc.bg_opa = 0;
 2678              		.loc 1 524 38 is_stmt 0 view .LVU906
 2679 04d6 8DF83031 		strb	r3, [sp, #304]
 525:Drivers/lvgl/src/widgets/bar/lv_bar.c ****             draw_tmp_dsc.bg_image_opa = 0;
 2680              		.loc 1 525 13 is_stmt 1 view .LVU907
 525:Drivers/lvgl/src/widgets/bar/lv_bar.c ****             draw_tmp_dsc.bg_image_opa = 0;
 2681              		.loc 1 525 33 is_stmt 0 view .LVU908
 2682 04da 8DF8F830 		strb	r3, [sp, #248]
 526:Drivers/lvgl/src/widgets/bar/lv_bar.c ****             lv_draw_rect(layer, &draw_tmp_dsc, &indic_area);
 2683              		.loc 1 526 13 is_stmt 1 view .LVU909
 526:Drivers/lvgl/src/widgets/bar/lv_bar.c ****             lv_draw_rect(layer, &draw_tmp_dsc, &indic_area);
ARM GAS  /tmp/cc1kxWTq.s 			page 89


 2684              		.loc 1 526 39 is_stmt 0 view .LVU910
 2685 04de 8DF81331 		strb	r3, [sp, #275]
 527:Drivers/lvgl/src/widgets/bar/lv_bar.c ****         }
 2686              		.loc 1 527 13 is_stmt 1 view .LVU911
 2687 04e2 6EAA     		add	r2, sp, #440
 2688 04e4 2946     		mov	r1, r5
 2689 04e6 0298     		ldr	r0, [sp, #8]
 2690 04e8 FFF7FEFF 		bl	lv_draw_rect
 2691              	.LVL303:
 2692              	.LBE76:
 2693 04ec 8DE7     		b	.L151
 2694              	.LVL304:
 2695              	.L153:
 548:Drivers/lvgl/src/widgets/bar/lv_bar.c ****                 indic_draw_area.y2 = bar_coords.y2 - bg_bottom;
 2696              		.loc 1 548 17 view .LVU912
 548:Drivers/lvgl/src/widgets/bar/lv_bar.c ****                 indic_draw_area.y2 = bar_coords.y2 - bg_bottom;
 2697              		.loc 1 548 48 is_stmt 0 view .LVU913
 2698 04ee 739B     		ldr	r3, [sp, #460]
 548:Drivers/lvgl/src/widgets/bar/lv_bar.c ****                 indic_draw_area.y2 = bar_coords.y2 - bg_bottom;
 2699              		.loc 1 548 52 view .LVU914
 2700 04f0 039A     		ldr	r2, [sp, #12]
 2701 04f2 1344     		add	r3, r3, r2
 548:Drivers/lvgl/src/widgets/bar/lv_bar.c ****                 indic_draw_area.y2 = bar_coords.y2 - bg_bottom;
 2702              		.loc 1 548 36 view .LVU915
 2703 04f4 0B93     		str	r3, [sp, #44]
 549:Drivers/lvgl/src/widgets/bar/lv_bar.c ****             }
 2704              		.loc 1 549 17 is_stmt 1 view .LVU916
 549:Drivers/lvgl/src/widgets/bar/lv_bar.c ****             }
 2705              		.loc 1 549 48 is_stmt 0 view .LVU917
 2706 04f6 759B     		ldr	r3, [sp, #468]
 549:Drivers/lvgl/src/widgets/bar/lv_bar.c ****             }
 2707              		.loc 1 549 52 view .LVU918
 2708 04f8 0499     		ldr	r1, [sp, #16]
 2709 04fa 5B1A     		subs	r3, r3, r1
 549:Drivers/lvgl/src/widgets/bar/lv_bar.c ****             }
 2710              		.loc 1 549 36 view .LVU919
 2711 04fc 0D93     		str	r3, [sp, #52]
 2712 04fe A2E7     		b	.L154
 2713              	.LVL305:
 2714              	.L178:
 561:Drivers/lvgl/src/widgets/bar/lv_bar.c ****             mask_dsc.radius = bg_radius;
 2715              		.loc 1 561 13 is_stmt 1 view .LVU920
 561:Drivers/lvgl/src/widgets/bar/lv_bar.c ****             mask_dsc.radius = bg_radius;
 2716              		.loc 1 561 27 is_stmt 0 view .LVU921
 2717 0500 0DF1380C 		add	ip, sp, #56
 2718 0504 15AE     		add	r6, sp, #84
 2719 0506 76AB     		add	r3, sp, #472
 2720 0508 13E90F00 		ldmdb	r3, {r0, r1, r2, r3}
 2721 050c 86E80F00 		stm	r6, {r0, r1, r2, r3}
 562:Drivers/lvgl/src/widgets/bar/lv_bar.c ****             lv_draw_mask_rect(layer_indic, &mask_dsc);
 2722              		.loc 1 562 13 is_stmt 1 view .LVU922
 562:Drivers/lvgl/src/widgets/bar/lv_bar.c ****             lv_draw_mask_rect(layer_indic, &mask_dsc);
 2723              		.loc 1 562 29 is_stmt 0 view .LVU923
 2724 0510 1997     		str	r7, [sp, #100]
 563:Drivers/lvgl/src/widgets/bar/lv_bar.c ****         }
 2725              		.loc 1 563 13 is_stmt 1 view .LVU924
 2726 0512 6146     		mov	r1, ip
ARM GAS  /tmp/cc1kxWTq.s 			page 90


 2727 0514 2846     		mov	r0, r5
 2728 0516 FFF7FEFF 		bl	lv_draw_mask_rect
 2729              	.LVL306:
 2730 051a A7E7     		b	.L155
 2731              	.L179:
 567:Drivers/lvgl/src/widgets/bar/lv_bar.c ****             mask_dsc.radius = indic_radius;
 2732              		.loc 1 567 13 view .LVU925
 567:Drivers/lvgl/src/widgets/bar/lv_bar.c ****             mask_dsc.radius = indic_radius;
 2733              		.loc 1 567 27 is_stmt 0 view .LVU926
 2734 051c 0EAE     		add	r6, sp, #56
 2735 051e 15AC     		add	r4, sp, #84
 2736              	.LVL307:
 567:Drivers/lvgl/src/widgets/bar/lv_bar.c ****             mask_dsc.radius = indic_radius;
 2737              		.loc 1 567 27 view .LVU927
 2738 0520 6EAB     		add	r3, sp, #440
 2739 0522 0FCB     		ldm	r3, {r0, r1, r2, r3}
 2740 0524 84E80F00 		stm	r4, {r0, r1, r2, r3}
 568:Drivers/lvgl/src/widgets/bar/lv_bar.c ****             lv_draw_mask_rect(layer_indic, &mask_dsc);
 2741              		.loc 1 568 13 is_stmt 1 view .LVU928
 568:Drivers/lvgl/src/widgets/bar/lv_bar.c ****             lv_draw_mask_rect(layer_indic, &mask_dsc);
 2742              		.loc 1 568 29 is_stmt 0 view .LVU929
 2743 0528 CDF864A0 		str	r10, [sp, #100]
 569:Drivers/lvgl/src/widgets/bar/lv_bar.c ****         }
 2744              		.loc 1 569 13 is_stmt 1 view .LVU930
 2745 052c 3146     		mov	r1, r6
 2746 052e 2846     		mov	r0, r5
 2747 0530 FFF7FEFF 		bl	lv_draw_mask_rect
 2748              	.LVL308:
 2749 0534 9CE7     		b	.L156
 2750              	.LVL309:
 2751              	.L149:
 569:Drivers/lvgl/src/widgets/bar/lv_bar.c ****         }
 2752              		.loc 1 569 13 is_stmt 0 view .LVU931
 2753              	.LBE77:
 585:Drivers/lvgl/src/widgets/bar/lv_bar.c ****     }
 2754              		.loc 1 585 9 is_stmt 1 view .LVU932
 2755 0536 6EAA     		add	r2, sp, #440
 2756 0538 52A9     		add	r1, sp, #328
 2757 053a 0298     		ldr	r0, [sp, #8]
 2758 053c FFF7FEFF 		bl	lv_draw_rect
 2759              	.LVL310:
 2760 0540 B1E7     		b	.L107
 2761              		.cfi_endproc
 2762              	.LFE186:
 2764 0542 00BF     		.section	.text.lv_bar_event,"ax",%progbits
 2765              		.align	1
 2766              		.syntax unified
 2767              		.thumb
 2768              		.thumb_func
 2770              	lv_bar_event:
 2771              	.LVL311:
 2772              	.LFB187:
 590:Drivers/lvgl/src/widgets/bar/lv_bar.c ****     LV_UNUSED(class_p);
 2773              		.loc 1 590 1 view -0
 2774              		.cfi_startproc
 2775              		@ args = 0, pretend = 0, frame = 8
 2776              		@ frame_needed = 0, uses_anonymous_args = 0
ARM GAS  /tmp/cc1kxWTq.s 			page 91


 590:Drivers/lvgl/src/widgets/bar/lv_bar.c ****     LV_UNUSED(class_p);
 2777              		.loc 1 590 1 is_stmt 0 view .LVU934
 2778 0000 2DE9F041 		push	{r4, r5, r6, r7, r8, lr}
 2779              	.LCFI28:
 2780              		.cfi_def_cfa_offset 24
 2781              		.cfi_offset 4, -24
 2782              		.cfi_offset 5, -20
 2783              		.cfi_offset 6, -16
 2784              		.cfi_offset 7, -12
 2785              		.cfi_offset 8, -8
 2786              		.cfi_offset 14, -4
 2787 0004 82B0     		sub	sp, sp, #8
 2788              	.LCFI29:
 2789              		.cfi_def_cfa_offset 32
 2790 0006 0D46     		mov	r5, r1
 591:Drivers/lvgl/src/widgets/bar/lv_bar.c **** 
 2791              		.loc 1 591 5 is_stmt 1 view .LVU935
 593:Drivers/lvgl/src/widgets/bar/lv_bar.c **** 
 2792              		.loc 1 593 5 view .LVU936
 596:Drivers/lvgl/src/widgets/bar/lv_bar.c ****     if(res != LV_RESULT_OK) return;
 2793              		.loc 1 596 5 view .LVU937
 596:Drivers/lvgl/src/widgets/bar/lv_bar.c ****     if(res != LV_RESULT_OK) return;
 2794              		.loc 1 596 11 is_stmt 0 view .LVU938
 2795 0008 4948     		ldr	r0, .L191
 2796              	.LVL312:
 596:Drivers/lvgl/src/widgets/bar/lv_bar.c ****     if(res != LV_RESULT_OK) return;
 2797              		.loc 1 596 11 view .LVU939
 2798 000a FFF7FEFF 		bl	lv_obj_event_base
 2799              	.LVL313:
 597:Drivers/lvgl/src/widgets/bar/lv_bar.c **** 
 2800              		.loc 1 597 5 is_stmt 1 view .LVU940
 597:Drivers/lvgl/src/widgets/bar/lv_bar.c **** 
 2801              		.loc 1 597 7 is_stmt 0 view .LVU941
 2802 000e 0128     		cmp	r0, #1
 2803 0010 02D0     		beq	.L190
 2804              	.LVL314:
 2805              	.L182:
 628:Drivers/lvgl/src/widgets/bar/lv_bar.c **** 
 2806              		.loc 1 628 1 view .LVU942
 2807 0012 02B0     		add	sp, sp, #8
 2808              	.LCFI30:
 2809              		.cfi_remember_state
 2810              		.cfi_def_cfa_offset 24
 2811              		@ sp needed
 2812 0014 BDE8F081 		pop	{r4, r5, r6, r7, r8, pc}
 2813              	.LVL315:
 2814              	.L190:
 2815              	.LCFI31:
 2816              		.cfi_restore_state
 599:Drivers/lvgl/src/widgets/bar/lv_bar.c ****     lv_obj_t * obj = lv_event_get_current_target(e);
 2817              		.loc 1 599 5 is_stmt 1 view .LVU943
 599:Drivers/lvgl/src/widgets/bar/lv_bar.c ****     lv_obj_t * obj = lv_event_get_current_target(e);
 2818              		.loc 1 599 28 is_stmt 0 view .LVU944
 2819 0018 2846     		mov	r0, r5
 2820              	.LVL316:
 599:Drivers/lvgl/src/widgets/bar/lv_bar.c ****     lv_obj_t * obj = lv_event_get_current_target(e);
 2821              		.loc 1 599 28 view .LVU945
ARM GAS  /tmp/cc1kxWTq.s 			page 92


 2822 001a FFF7FEFF 		bl	lv_event_get_code
 2823              	.LVL317:
 2824 001e 0446     		mov	r4, r0
 2825              	.LVL318:
 600:Drivers/lvgl/src/widgets/bar/lv_bar.c **** 
 2826              		.loc 1 600 5 is_stmt 1 view .LVU946
 600:Drivers/lvgl/src/widgets/bar/lv_bar.c **** 
 2827              		.loc 1 600 22 is_stmt 0 view .LVU947
 2828 0020 2846     		mov	r0, r5
 2829              	.LVL319:
 600:Drivers/lvgl/src/widgets/bar/lv_bar.c **** 
 2830              		.loc 1 600 22 view .LVU948
 2831 0022 FFF7FEFF 		bl	lv_event_get_current_target
 2832              	.LVL320:
 2833 0026 0646     		mov	r6, r0
 2834              	.LVL321:
 602:Drivers/lvgl/src/widgets/bar/lv_bar.c ****         int32_t indic_size;
 2835              		.loc 1 602 5 is_stmt 1 view .LVU949
 2836 0028 631E     		subs	r3, r4, #1
 2837 002a 1C2B     		cmp	r3, #28
 2838 002c F1D8     		bhi	.L182
 2839 002e 01A2     		adr	r2, .L185
 2840 0030 52F823F0 		ldr	pc, [r2, r3, lsl #2]
 2841              		.p2align 2
 2842              	.L185:
 2843 0034 1D010000 		.word	.L187+1
 2844 0038 13000000 		.word	.L182+1
 2845 003c 13000000 		.word	.L182+1
 2846 0040 13000000 		.word	.L182+1
 2847 0044 13000000 		.word	.L182+1
 2848 0048 13000000 		.word	.L182+1
 2849 004c 13000000 		.word	.L182+1
 2850 0050 13000000 		.word	.L182+1
 2851 0054 13000000 		.word	.L182+1
 2852 0058 13000000 		.word	.L182+1
 2853 005c 1D010000 		.word	.L187+1
 2854 0060 13000000 		.word	.L182+1
 2855 0064 13000000 		.word	.L182+1
 2856 0068 13000000 		.word	.L182+1
 2857 006c 13000000 		.word	.L182+1
 2858 0070 13000000 		.word	.L182+1
 2859 0074 13000000 		.word	.L182+1
 2860 0078 13000000 		.word	.L182+1
 2861 007c 13000000 		.word	.L182+1
 2862 0080 13000000 		.word	.L182+1
 2863 0084 13000000 		.word	.L182+1
 2864 0088 13000000 		.word	.L182+1
 2865 008c 13000000 		.word	.L182+1
 2866 0090 13000000 		.word	.L182+1
 2867 0094 13000000 		.word	.L182+1
 2868 0098 13000000 		.word	.L182+1
 2869 009c A9000000 		.word	.L186+1
 2870 00a0 13000000 		.word	.L182+1
 2871 00a4 27010000 		.word	.L184+1
 2872              		.p2align 1
 2873              	.L186:
 2874              	.LBB78:
ARM GAS  /tmp/cc1kxWTq.s 			page 93


 603:Drivers/lvgl/src/widgets/bar/lv_bar.c ****         indic_size = lv_obj_calculate_ext_draw_size(obj, LV_PART_INDICATOR);
 2875              		.loc 1 603 9 view .LVU950
 604:Drivers/lvgl/src/widgets/bar/lv_bar.c **** 
 2876              		.loc 1 604 9 view .LVU951
 604:Drivers/lvgl/src/widgets/bar/lv_bar.c **** 
 2877              		.loc 1 604 22 is_stmt 0 view .LVU952
 2878 00a8 4FF40031 		mov	r1, #131072
 2879 00ac FFF7FEFF 		bl	lv_obj_calculate_ext_draw_size
 2880              	.LVL322:
 604:Drivers/lvgl/src/widgets/bar/lv_bar.c **** 
 2881              		.loc 1 604 22 view .LVU953
 2882 00b0 0446     		mov	r4, r0
 2883              	.LVL323:
 607:Drivers/lvgl/src/widgets/bar/lv_bar.c ****         *s = LV_MAX(*s, indic_size);
 2884              		.loc 1 607 9 is_stmt 1 view .LVU954
 607:Drivers/lvgl/src/widgets/bar/lv_bar.c ****         *s = LV_MAX(*s, indic_size);
 2885              		.loc 1 607 23 is_stmt 0 view .LVU955
 2886 00b2 2846     		mov	r0, r5
 2887              	.LVL324:
 607:Drivers/lvgl/src/widgets/bar/lv_bar.c ****         *s = LV_MAX(*s, indic_size);
 2888              		.loc 1 607 23 view .LVU956
 2889 00b4 FFF7FEFF 		bl	lv_event_get_param
 2890              	.LVL325:
 2891 00b8 0546     		mov	r5, r0
 2892              	.LVL326:
 608:Drivers/lvgl/src/widgets/bar/lv_bar.c **** 
 2893              		.loc 1 608 9 is_stmt 1 view .LVU957
 608:Drivers/lvgl/src/widgets/bar/lv_bar.c **** 
 2894              		.loc 1 608 14 is_stmt 0 view .LVU958
 2895 00ba 0368     		ldr	r3, [r0]
 2896 00bc 9C42     		cmp	r4, r3
 2897 00be B8BF     		it	lt
 2898 00c0 1C46     		movlt	r4, r3
 2899              	.LVL327:
 608:Drivers/lvgl/src/widgets/bar/lv_bar.c **** 
 2900              		.loc 1 608 12 view .LVU959
 2901 00c2 0460     		str	r4, [r0]
 611:Drivers/lvgl/src/widgets/bar/lv_bar.c ****         int32_t bg_right = lv_obj_get_style_pad_right(obj, LV_PART_MAIN);
 2902              		.loc 1 611 9 is_stmt 1 view .LVU960
 2903              	.LVL328:
 2904              	.LBB79:
 2905              	.LBI79:
 166:Drivers/lvgl/src/widgets/bar/../../core/lv_obj_style_gen.h **** {
 2906              		.loc 2 166 23 view .LVU961
 2907              	.LBB80:
 168:Drivers/lvgl/src/widgets/bar/../../core/lv_obj_style_gen.h ****     return (int32_t)v.num;
 2908              		.loc 2 168 5 view .LVU962
 168:Drivers/lvgl/src/widgets/bar/../../core/lv_obj_style_gen.h ****     return (int32_t)v.num;
 2909              		.loc 2 168 26 is_stmt 0 view .LVU963
 2910 00c4 1222     		movs	r2, #18
 2911 00c6 0021     		movs	r1, #0
 2912 00c8 3046     		mov	r0, r6
 2913              	.LVL329:
 168:Drivers/lvgl/src/widgets/bar/../../core/lv_obj_style_gen.h ****     return (int32_t)v.num;
 2914              		.loc 2 168 26 view .LVU964
 2915 00ca FFF7FEFF 		bl	lv_obj_get_style_prop
 2916              	.LVL330:
ARM GAS  /tmp/cc1kxWTq.s 			page 94


 2917 00ce 0746     		mov	r7, r0
 2918 00d0 0190     		str	r0, [sp, #4]
 169:Drivers/lvgl/src/widgets/bar/../../core/lv_obj_style_gen.h **** }
 2919              		.loc 2 169 5 is_stmt 1 view .LVU965
 2920              	.LVL331:
 169:Drivers/lvgl/src/widgets/bar/../../core/lv_obj_style_gen.h **** }
 2921              		.loc 2 169 5 is_stmt 0 view .LVU966
 2922              	.LBE80:
 2923              	.LBE79:
 612:Drivers/lvgl/src/widgets/bar/lv_bar.c ****         int32_t bg_top = lv_obj_get_style_pad_top(obj, LV_PART_MAIN);
 2924              		.loc 1 612 9 is_stmt 1 view .LVU967
 2925              	.LBB81:
 2926              	.LBI81:
 172:Drivers/lvgl/src/widgets/bar/../../core/lv_obj_style_gen.h **** {
 2927              		.loc 2 172 23 view .LVU968
 2928              	.LBB82:
 174:Drivers/lvgl/src/widgets/bar/../../core/lv_obj_style_gen.h ****     return (int32_t)v.num;
 2929              		.loc 2 174 5 view .LVU969
 174:Drivers/lvgl/src/widgets/bar/../../core/lv_obj_style_gen.h ****     return (int32_t)v.num;
 2930              		.loc 2 174 26 is_stmt 0 view .LVU970
 2931 00d2 1322     		movs	r2, #19
 2932 00d4 0021     		movs	r1, #0
 2933 00d6 3046     		mov	r0, r6
 2934              	.LVL332:
 174:Drivers/lvgl/src/widgets/bar/../../core/lv_obj_style_gen.h ****     return (int32_t)v.num;
 2935              		.loc 2 174 26 view .LVU971
 2936 00d8 FFF7FEFF 		bl	lv_obj_get_style_prop
 2937              	.LVL333:
 2938 00dc 0446     		mov	r4, r0
 2939 00de 0190     		str	r0, [sp, #4]
 175:Drivers/lvgl/src/widgets/bar/../../core/lv_obj_style_gen.h **** }
 2940              		.loc 2 175 5 is_stmt 1 view .LVU972
 2941              	.LVL334:
 175:Drivers/lvgl/src/widgets/bar/../../core/lv_obj_style_gen.h **** }
 2942              		.loc 2 175 5 is_stmt 0 view .LVU973
 2943              	.LBE82:
 2944              	.LBE81:
 613:Drivers/lvgl/src/widgets/bar/lv_bar.c ****         int32_t bg_bottom = lv_obj_get_style_pad_bottom(obj, LV_PART_MAIN);
 2945              		.loc 1 613 9 is_stmt 1 view .LVU974
 2946              	.LBB83:
 2947              	.LBI83:
 154:Drivers/lvgl/src/widgets/bar/../../core/lv_obj_style_gen.h **** {
 2948              		.loc 2 154 23 view .LVU975
 2949              	.LBB84:
 156:Drivers/lvgl/src/widgets/bar/../../core/lv_obj_style_gen.h ****     return (int32_t)v.num;
 2950              		.loc 2 156 5 view .LVU976
 156:Drivers/lvgl/src/widgets/bar/../../core/lv_obj_style_gen.h ****     return (int32_t)v.num;
 2951              		.loc 2 156 26 is_stmt 0 view .LVU977
 2952 00e0 1022     		movs	r2, #16
 2953 00e2 0021     		movs	r1, #0
 2954 00e4 3046     		mov	r0, r6
 2955              	.LVL335:
 156:Drivers/lvgl/src/widgets/bar/../../core/lv_obj_style_gen.h ****     return (int32_t)v.num;
 2956              		.loc 2 156 26 view .LVU978
 2957 00e6 FFF7FEFF 		bl	lv_obj_get_style_prop
 2958              	.LVL336:
 2959 00ea 8046     		mov	r8, r0
ARM GAS  /tmp/cc1kxWTq.s 			page 95


 2960 00ec 0190     		str	r0, [sp, #4]
 157:Drivers/lvgl/src/widgets/bar/../../core/lv_obj_style_gen.h **** }
 2961              		.loc 2 157 5 is_stmt 1 view .LVU979
 2962              	.LVL337:
 157:Drivers/lvgl/src/widgets/bar/../../core/lv_obj_style_gen.h **** }
 2963              		.loc 2 157 5 is_stmt 0 view .LVU980
 2964              	.LBE84:
 2965              	.LBE83:
 614:Drivers/lvgl/src/widgets/bar/lv_bar.c **** 
 2966              		.loc 1 614 9 is_stmt 1 view .LVU981
 2967              	.LBB85:
 2968              	.LBI85:
 160:Drivers/lvgl/src/widgets/bar/../../core/lv_obj_style_gen.h **** {
 2969              		.loc 2 160 23 view .LVU982
 2970              	.LBB86:
 162:Drivers/lvgl/src/widgets/bar/../../core/lv_obj_style_gen.h ****     return (int32_t)v.num;
 2971              		.loc 2 162 5 view .LVU983
 162:Drivers/lvgl/src/widgets/bar/../../core/lv_obj_style_gen.h ****     return (int32_t)v.num;
 2972              		.loc 2 162 26 is_stmt 0 view .LVU984
 2973 00ee 1122     		movs	r2, #17
 2974 00f0 0021     		movs	r1, #0
 2975 00f2 3046     		mov	r0, r6
 2976              	.LVL338:
 162:Drivers/lvgl/src/widgets/bar/../../core/lv_obj_style_gen.h ****     return (int32_t)v.num;
 2977              		.loc 2 162 26 view .LVU985
 2978 00f4 FFF7FEFF 		bl	lv_obj_get_style_prop
 2979              	.LVL339:
 2980 00f8 0190     		str	r0, [sp, #4]
 163:Drivers/lvgl/src/widgets/bar/../../core/lv_obj_style_gen.h **** }
 2981              		.loc 2 163 5 is_stmt 1 view .LVU986
 2982              	.LVL340:
 163:Drivers/lvgl/src/widgets/bar/../../core/lv_obj_style_gen.h **** }
 2983              		.loc 2 163 5 is_stmt 0 view .LVU987
 2984              	.LBE86:
 2985              	.LBE85:
 616:Drivers/lvgl/src/widgets/bar/lv_bar.c ****         if(pad < 0) {
 2986              		.loc 1 616 9 is_stmt 1 view .LVU988
 616:Drivers/lvgl/src/widgets/bar/lv_bar.c ****         if(pad < 0) {
 2987              		.loc 1 616 23 is_stmt 0 view .LVU989
 2988 00fa 0346     		mov	r3, r0
 2989 00fc 4045     		cmp	r0, r8
 2990 00fe A8BF     		it	ge
 2991 0100 4346     		movge	r3, r8
 2992 0102 BC42     		cmp	r4, r7
 2993 0104 A8BF     		it	ge
 2994 0106 3C46     		movge	r4, r7
 2995              	.LVL341:
 616:Drivers/lvgl/src/widgets/bar/lv_bar.c ****         if(pad < 0) {
 2996              		.loc 1 616 17 view .LVU990
 2997 0108 A342     		cmp	r3, r4
 2998 010a A8BF     		it	ge
 2999 010c 2346     		movge	r3, r4
 3000              	.LVL342:
 617:Drivers/lvgl/src/widgets/bar/lv_bar.c ****             *s = *s - pad;
 3001              		.loc 1 617 9 is_stmt 1 view .LVU991
 617:Drivers/lvgl/src/widgets/bar/lv_bar.c ****             *s = *s - pad;
 3002              		.loc 1 617 11 is_stmt 0 view .LVU992
ARM GAS  /tmp/cc1kxWTq.s 			page 96


 3003 010e 002B     		cmp	r3, #0
 3004 0110 BFF67FAF 		bge	.L182
 618:Drivers/lvgl/src/widgets/bar/lv_bar.c ****         }
 3005              		.loc 1 618 13 is_stmt 1 view .LVU993
 618:Drivers/lvgl/src/widgets/bar/lv_bar.c ****         }
 3006              		.loc 1 618 18 is_stmt 0 view .LVU994
 3007 0114 2A68     		ldr	r2, [r5]
 618:Drivers/lvgl/src/widgets/bar/lv_bar.c ****         }
 3008              		.loc 1 618 21 view .LVU995
 3009 0116 D21A     		subs	r2, r2, r3
 618:Drivers/lvgl/src/widgets/bar/lv_bar.c ****         }
 3010              		.loc 1 618 16 view .LVU996
 3011 0118 2A60     		str	r2, [r5]
 3012 011a 7AE7     		b	.L182
 3013              	.LVL343:
 3014              	.L187:
 618:Drivers/lvgl/src/widgets/bar/lv_bar.c ****         }
 3015              		.loc 1 618 16 view .LVU997
 3016              	.LBE78:
 3017              	.LBB87:
 622:Drivers/lvgl/src/widgets/bar/lv_bar.c ****         lv_obj_invalidate_area(obj, &bar->indic_area);
 3018              		.loc 1 622 9 is_stmt 1 view .LVU998
 623:Drivers/lvgl/src/widgets/bar/lv_bar.c ****     }
 3019              		.loc 1 623 9 view .LVU999
 3020 011c 00F13C01 		add	r1, r0, #60
 3021 0120 FFF7FEFF 		bl	lv_obj_invalidate_area
 3022              	.LVL344:
 623:Drivers/lvgl/src/widgets/bar/lv_bar.c ****     }
 3023              		.loc 1 623 9 is_stmt 0 view .LVU1000
 3024              	.LBE87:
 3025 0124 75E7     		b	.L182
 3026              	.LVL345:
 3027              	.L184:
 626:Drivers/lvgl/src/widgets/bar/lv_bar.c ****     }
 3028              		.loc 1 626 9 is_stmt 1 view .LVU1001
 3029 0126 2846     		mov	r0, r5
 3030              	.LVL346:
 626:Drivers/lvgl/src/widgets/bar/lv_bar.c ****     }
 3031              		.loc 1 626 9 is_stmt 0 view .LVU1002
 3032 0128 FFF7FEFF 		bl	draw_indic
 3033              	.LVL347:
 3034 012c 71E7     		b	.L182
 3035              	.L192:
 3036 012e 00BF     		.align	2
 3037              	.L191:
 3038 0130 00000000 		.word	lv_bar_class
 3039              		.cfi_endproc
 3040              	.LFE187:
 3042              		.global	lv_bar_class
 3043              		.section	.rodata.str1.4,"aMS",%progbits,1
 3044              		.align	2
 3045              	.LC0:
 3046 0000 6C765F62 		.ascii	"lv_bar\000"
 3046      617200
 3047              		.section	.rodata.lv_bar_class,"a"
 3048              		.align	2
 3051              	lv_bar_class:
ARM GAS  /tmp/cc1kxWTq.s 			page 97


 3052 0000 00000000 		.word	lv_obj_class
 3053 0004 00000000 		.word	lv_bar_constructor
 3054 0008 00000000 		.word	lv_bar_destructor
 3055 000c 00000000 		.word	lv_bar_event
 3056 0010 00000000 		.space	4
 3057 0014 00000000 		.word	.LC0
 3058 0018 04010000 		.word	260
 3059 001c 0D000000 		.word	13
 3060 0020 40       		.byte	64
 3061 0021 07       		.byte	7
 3062 0022 00       		.byte	0
 3063 0023 00       		.space	1
 3064              		.text
 3065              	.Letext0:
 3066              		.file 4 "/usr/arm-none-eabi/include/machine/_default_types.h"
 3067              		.file 5 "/usr/arm-none-eabi/include/sys/_stdint.h"
 3068              		.file 6 "/usr/lib/gcc/arm-none-eabi/14.2.0/include/stddef.h"
 3069              		.file 7 "Drivers/lvgl/src/widgets/bar/../../core/../misc/lv_types.h"
 3070              		.file 8 "Drivers/lvgl/src/widgets/bar/../../core/lv_obj_private.h"
 3071              		.file 9 "Drivers/lvgl/src/widgets/bar/../../core/lv_obj_class_private.h"
 3072              		.file 10 "Drivers/lvgl/src/widgets/bar/../../core/../draw/lv_draw.h"
 3073              		.file 11 "Drivers/lvgl/src/widgets/bar/../../core/../misc/lv_anim.h"
 3074              		.file 12 "Drivers/lvgl/src/widgets/bar/../../core/../draw/lv_draw_image.h"
 3075              		.file 13 "Drivers/lvgl/src/widgets/bar/../../draw/lv_draw_mask_private.h"
 3076              		.file 14 "Drivers/lvgl/src/widgets/bar/lv_bar_private.h"
 3077              		.file 15 "Drivers/lvgl/src/widgets/bar/../../core/../display/../misc/lv_array.h"
 3078              		.file 16 "Drivers/lvgl/src/widgets/bar/../../core/../misc/../font/../draw/lv_draw_buf.h"
 3079              		.file 17 "Drivers/lvgl/src/widgets/bar/../../core/../misc/../font/../draw/../misc/lv_color.h"
 3080              		.file 18 "Drivers/lvgl/src/widgets/bar/../../core/../misc/../font/../draw/lv_image_dsc.h"
 3081              		.file 19 "Drivers/lvgl/src/widgets/bar/../../core/../misc/lv_bidi.h"
 3082              		.file 20 "Drivers/lvgl/src/widgets/bar/../../core/../misc/lv_grad.h"
 3083              		.file 21 "Drivers/lvgl/src/widgets/bar/../../core/../misc/lv_style.h"
 3084              		.file 22 "Drivers/lvgl/src/widgets/bar/../../core/../display/../misc/lv_event.h"
 3085              		.file 23 "Drivers/lvgl/src/widgets/bar/../../core/../draw/lv_draw_rect.h"
 3086              		.file 24 "Drivers/lvgl/src/widgets/bar/../../core/../indev/lv_indev.h"
 3087              		.file 25 "Drivers/lvgl/src/widgets/bar/../../core/lv_obj.h"
 3088              		.file 26 "Drivers/lvgl/src/widgets/bar/lv_bar.h"
 3089              		.file 27 "Drivers/lvgl/src/widgets/bar/../../core/lv_obj_pos.h"
 3090              		.file 28 "Drivers/lvgl/src/widgets/bar/../../core/lv_obj_class.h"
 3091              		.file 29 "Drivers/lvgl/src/widgets/bar/../../draw/lv_draw_mask.h"
 3092              		.file 30 "Drivers/lvgl/src/widgets/bar/../../misc/lv_area_private.h"
 3093              		.file 31 "Drivers/lvgl/src/widgets/bar/../../core/lv_obj_draw.h"
 3094              		.file 32 "Drivers/lvgl/src/widgets/bar/../../core/lv_obj_event.h"
 3095              		.file 33 "Drivers/lvgl/src/widgets/bar/../../core/lv_obj_style.h"
 3096              		.file 34 "<built-in>"
ARM GAS  /tmp/cc1kxWTq.s 			page 98


DEFINED SYMBOLS
                            *ABS*:00000000 lv_bar.c
     /tmp/cc1kxWTq.s:21     .text.lv_bar_init_anim:00000000 $t
     /tmp/cc1kxWTq.s:26     .text.lv_bar_init_anim:00000000 lv_bar_init_anim
     /tmp/cc1kxWTq.s:54     .text.lv_bar_destructor:00000000 $t
     /tmp/cc1kxWTq.s:59     .text.lv_bar_destructor:00000000 lv_bar_destructor
     /tmp/cc1kxWTq.s:97     .text.lv_bar_anim_completed:00000000 $t
     /tmp/cc1kxWTq.s:102    .text.lv_bar_anim_completed:00000000 lv_bar_anim_completed
     /tmp/cc1kxWTq.s:168    .text.lv_bar_anim:00000000 $t
     /tmp/cc1kxWTq.s:173    .text.lv_bar_anim:00000000 lv_bar_anim
     /tmp/cc1kxWTq.s:203    .text.lv_bar_set_value_with_anim:00000000 $t
     /tmp/cc1kxWTq.s:208    .text.lv_bar_set_value_with_anim:00000000 lv_bar_set_value_with_anim
     /tmp/cc1kxWTq.s:381    .text.lv_bar_set_value_with_anim:000000a4 $d
     /tmp/cc1kxWTq.s:388    .text.lv_bar_create:00000000 $t
     /tmp/cc1kxWTq.s:394    .text.lv_bar_create:00000000 lv_bar_create
     /tmp/cc1kxWTq.s:433    .text.lv_bar_create:00000014 $d
     /tmp/cc1kxWTq.s:3051   .rodata.lv_bar_class:00000000 lv_bar_class
     /tmp/cc1kxWTq.s:438    .text.lv_bar_set_value:00000000 $t
     /tmp/cc1kxWTq.s:444    .text.lv_bar_set_value:00000000 lv_bar_set_value
     /tmp/cc1kxWTq.s:535    .text.lv_bar_constructor:00000000 $t
     /tmp/cc1kxWTq.s:540    .text.lv_bar_constructor:00000000 lv_bar_constructor
     /tmp/cc1kxWTq.s:637    .text.lv_bar_set_start_value:00000000 $t
     /tmp/cc1kxWTq.s:643    .text.lv_bar_set_start_value:00000000 lv_bar_set_start_value
     /tmp/cc1kxWTq.s:733    .text.lv_bar_set_mode:00000000 $t
     /tmp/cc1kxWTq.s:739    .text.lv_bar_set_mode:00000000 lv_bar_set_mode
     /tmp/cc1kxWTq.s:802    .text.lv_bar_set_orientation:00000000 $t
     /tmp/cc1kxWTq.s:808    .text.lv_bar_set_orientation:00000000 lv_bar_set_orientation
     /tmp/cc1kxWTq.s:854    .text.lv_bar_get_value:00000000 $t
     /tmp/cc1kxWTq.s:860    .text.lv_bar_get_value:00000000 lv_bar_get_value
     /tmp/cc1kxWTq.s:904    .text.lv_bar_get_start_value:00000000 $t
     /tmp/cc1kxWTq.s:910    .text.lv_bar_get_start_value:00000000 lv_bar_get_start_value
     /tmp/cc1kxWTq.s:969    .text.lv_bar_get_min_value:00000000 $t
     /tmp/cc1kxWTq.s:975    .text.lv_bar_get_min_value:00000000 lv_bar_get_min_value
     /tmp/cc1kxWTq.s:1019   .text.lv_bar_get_max_value:00000000 $t
     /tmp/cc1kxWTq.s:1025   .text.lv_bar_get_max_value:00000000 lv_bar_get_max_value
     /tmp/cc1kxWTq.s:1069   .text.lv_bar_get_mode:00000000 $t
     /tmp/cc1kxWTq.s:1075   .text.lv_bar_get_mode:00000000 lv_bar_get_mode
     /tmp/cc1kxWTq.s:1109   .text.lv_bar_set_range:00000000 $t
     /tmp/cc1kxWTq.s:1115   .text.lv_bar_set_range:00000000 lv_bar_set_range
     /tmp/cc1kxWTq.s:1266   .text.lv_bar_get_orientation:00000000 $t
     /tmp/cc1kxWTq.s:1272   .text.lv_bar_get_orientation:00000000 lv_bar_get_orientation
     /tmp/cc1kxWTq.s:1306   .text.lv_bar_is_symmetrical:00000000 $t
     /tmp/cc1kxWTq.s:1312   .text.lv_bar_is_symmetrical:00000000 lv_bar_is_symmetrical
     /tmp/cc1kxWTq.s:1394   .text.draw_indic:00000000 $t
     /tmp/cc1kxWTq.s:1399   .text.draw_indic:00000000 draw_indic
     /tmp/cc1kxWTq.s:2434   .text.draw_indic:000003bc $d
     /tmp/cc1kxWTq.s:2438   .text.draw_indic:000003c4 $t
     /tmp/cc1kxWTq.s:2765   .text.lv_bar_event:00000000 $t
     /tmp/cc1kxWTq.s:2770   .text.lv_bar_event:00000000 lv_bar_event
     /tmp/cc1kxWTq.s:2843   .text.lv_bar_event:00000034 $d
     /tmp/cc1kxWTq.s:2872   .text.lv_bar_event:000000a8 $t
     /tmp/cc1kxWTq.s:3038   .text.lv_bar_event:00000130 $d
     /tmp/cc1kxWTq.s:3044   .rodata.str1.4:00000000 $d
     /tmp/cc1kxWTq.s:3048   .rodata.lv_bar_class:00000000 $d

UNDEFINED SYMBOLS
lv_anim_delete
ARM GAS  /tmp/cc1kxWTq.s 			page 99


lv_obj_invalidate
lv_anim_init
lv_anim_set_var
lv_anim_set_exec_cb
lv_anim_set_values
lv_anim_set_completed_cb
lv_obj_get_style_prop
lv_anim_set_duration
lv_anim_start
lv_obj_class_create_obj
lv_obj_class_init_obj
lv_obj_remove_flag
lv_event_get_current_target
lv_event_get_layer
lv_obj_get_coords
lv_area_increase
lv_area_get_width
lv_area_get_height
lv_draw_rect_dsc_init
lv_obj_init_draw_rect_dsc
lv_obj_send_event
memcpy
lv_draw_layer_create
lv_draw_rect
lv_draw_mask_rect_dsc_init
lv_draw_image_dsc_init
lv_draw_layer
lv_area_is_in
lv_draw_mask_rect
lv_obj_event_base
lv_event_get_code
lv_obj_calculate_ext_draw_size
lv_event_get_param
lv_obj_invalidate_area
lv_obj_class
