ARM GAS  /tmp/ccuBKat8.s 			page 1


   1              		.cpu cortex-m7
   2              		.arch armv7e-m
   3              		.fpu fpv5-sp-d16
   4              		.eabi_attribute 27, 1
   5              		.eabi_attribute 28, 1
   6              		.eabi_attribute 20, 1
   7              		.eabi_attribute 21, 1
   8              		.eabi_attribute 23, 3
   9              		.eabi_attribute 24, 1
  10              		.eabi_attribute 25, 1
  11              		.eabi_attribute 26, 1
  12              		.eabi_attribute 30, 1
  13              		.eabi_attribute 34, 1
  14              		.eabi_attribute 18, 4
  15              		.file	"lv_cache.c"
  16              		.text
  17              	.Ltext0:
  18              		.cfi_sections	.debug_frame
  19              		.file 1 "Drivers/lvgl/src/misc/cache/lv_cache.c"
  20              		.section	.text.cache_evict_one_internal_no_lock,"ax",%progbits
  21              		.align	1
  22              		.syntax unified
  23              		.thumb
  24              		.thumb_func
  26              	cache_evict_one_internal_no_lock:
  27              	.LVL0:
  28              	.LFB39:
   1:Drivers/lvgl/src/misc/cache/lv_cache.c **** /**
   2:Drivers/lvgl/src/misc/cache/lv_cache.c **** * @file lv_cache.c
   3:Drivers/lvgl/src/misc/cache/lv_cache.c **** *
   4:Drivers/lvgl/src/misc/cache/lv_cache.c **** */
   5:Drivers/lvgl/src/misc/cache/lv_cache.c **** 
   6:Drivers/lvgl/src/misc/cache/lv_cache.c **** /*********************
   7:Drivers/lvgl/src/misc/cache/lv_cache.c ****  *      INCLUDES
   8:Drivers/lvgl/src/misc/cache/lv_cache.c ****  *********************/
   9:Drivers/lvgl/src/misc/cache/lv_cache.c **** #include "lv_cache.h"
  10:Drivers/lvgl/src/misc/cache/lv_cache.c **** #include "../../stdlib/lv_sprintf.h"
  11:Drivers/lvgl/src/misc/cache/lv_cache.c **** #include "../lv_assert.h"
  12:Drivers/lvgl/src/misc/cache/lv_cache.c **** #include "lv_cache_entry_private.h"
  13:Drivers/lvgl/src/misc/cache/lv_cache.c **** #include "lv_cache_private.h"
  14:Drivers/lvgl/src/misc/cache/lv_cache.c **** 
  15:Drivers/lvgl/src/misc/cache/lv_cache.c **** /*********************
  16:Drivers/lvgl/src/misc/cache/lv_cache.c ****  *      DEFINES
  17:Drivers/lvgl/src/misc/cache/lv_cache.c ****  *********************/
  18:Drivers/lvgl/src/misc/cache/lv_cache.c **** 
  19:Drivers/lvgl/src/misc/cache/lv_cache.c **** /**********************
  20:Drivers/lvgl/src/misc/cache/lv_cache.c ****  *      TYPEDEFS
  21:Drivers/lvgl/src/misc/cache/lv_cache.c ****  **********************/
  22:Drivers/lvgl/src/misc/cache/lv_cache.c **** 
  23:Drivers/lvgl/src/misc/cache/lv_cache.c **** /**********************
  24:Drivers/lvgl/src/misc/cache/lv_cache.c ****  *  STATIC PROTOTYPES
  25:Drivers/lvgl/src/misc/cache/lv_cache.c ****  **********************/
  26:Drivers/lvgl/src/misc/cache/lv_cache.c **** static void cache_drop_internal_no_lock(lv_cache_t * cache, const void * key, void * user_data);
  27:Drivers/lvgl/src/misc/cache/lv_cache.c **** static bool cache_evict_one_internal_no_lock(lv_cache_t * cache, void * user_data);
  28:Drivers/lvgl/src/misc/cache/lv_cache.c **** static lv_cache_entry_t * cache_add_internal_no_lock(lv_cache_t * cache, const void * key, void * u
  29:Drivers/lvgl/src/misc/cache/lv_cache.c **** 
  30:Drivers/lvgl/src/misc/cache/lv_cache.c **** /**********************
ARM GAS  /tmp/ccuBKat8.s 			page 2


  31:Drivers/lvgl/src/misc/cache/lv_cache.c ****  *  GLOBAL VARIABLES
  32:Drivers/lvgl/src/misc/cache/lv_cache.c ****  **********************/
  33:Drivers/lvgl/src/misc/cache/lv_cache.c **** 
  34:Drivers/lvgl/src/misc/cache/lv_cache.c **** /**********************
  35:Drivers/lvgl/src/misc/cache/lv_cache.c ****  *  STATIC VARIABLES
  36:Drivers/lvgl/src/misc/cache/lv_cache.c ****  **********************/
  37:Drivers/lvgl/src/misc/cache/lv_cache.c **** 
  38:Drivers/lvgl/src/misc/cache/lv_cache.c **** /**********************
  39:Drivers/lvgl/src/misc/cache/lv_cache.c ****  *      MACROS
  40:Drivers/lvgl/src/misc/cache/lv_cache.c ****  **********************/
  41:Drivers/lvgl/src/misc/cache/lv_cache.c **** 
  42:Drivers/lvgl/src/misc/cache/lv_cache.c **** /**********************
  43:Drivers/lvgl/src/misc/cache/lv_cache.c ****  *   GLOBAL FUNCTIONS
  44:Drivers/lvgl/src/misc/cache/lv_cache.c ****  **********************/
  45:Drivers/lvgl/src/misc/cache/lv_cache.c **** 
  46:Drivers/lvgl/src/misc/cache/lv_cache.c **** lv_cache_t * lv_cache_create(const lv_cache_class_t * cache_class,
  47:Drivers/lvgl/src/misc/cache/lv_cache.c ****                              size_t node_size, size_t max_size,
  48:Drivers/lvgl/src/misc/cache/lv_cache.c ****                              lv_cache_ops_t ops)
  49:Drivers/lvgl/src/misc/cache/lv_cache.c **** {
  50:Drivers/lvgl/src/misc/cache/lv_cache.c ****     lv_cache_t * cache = cache_class->alloc_cb();
  51:Drivers/lvgl/src/misc/cache/lv_cache.c ****     LV_ASSERT_MALLOC(cache);
  52:Drivers/lvgl/src/misc/cache/lv_cache.c **** 
  53:Drivers/lvgl/src/misc/cache/lv_cache.c ****     cache->clz = cache_class;
  54:Drivers/lvgl/src/misc/cache/lv_cache.c ****     cache->node_size = node_size;
  55:Drivers/lvgl/src/misc/cache/lv_cache.c ****     cache->max_size = max_size;
  56:Drivers/lvgl/src/misc/cache/lv_cache.c ****     cache->size = 0;
  57:Drivers/lvgl/src/misc/cache/lv_cache.c ****     cache->ops = ops;
  58:Drivers/lvgl/src/misc/cache/lv_cache.c **** 
  59:Drivers/lvgl/src/misc/cache/lv_cache.c ****     if(cache->clz->init_cb(cache) == false) {
  60:Drivers/lvgl/src/misc/cache/lv_cache.c ****         LV_LOG_ERROR("Cache init failed");
  61:Drivers/lvgl/src/misc/cache/lv_cache.c ****         lv_free(cache);
  62:Drivers/lvgl/src/misc/cache/lv_cache.c ****         return NULL;
  63:Drivers/lvgl/src/misc/cache/lv_cache.c ****     }
  64:Drivers/lvgl/src/misc/cache/lv_cache.c **** 
  65:Drivers/lvgl/src/misc/cache/lv_cache.c ****     lv_mutex_init(&cache->lock);
  66:Drivers/lvgl/src/misc/cache/lv_cache.c **** 
  67:Drivers/lvgl/src/misc/cache/lv_cache.c ****     return cache;
  68:Drivers/lvgl/src/misc/cache/lv_cache.c **** }
  69:Drivers/lvgl/src/misc/cache/lv_cache.c **** 
  70:Drivers/lvgl/src/misc/cache/lv_cache.c **** void lv_cache_destroy(lv_cache_t * cache, void * user_data)
  71:Drivers/lvgl/src/misc/cache/lv_cache.c **** {
  72:Drivers/lvgl/src/misc/cache/lv_cache.c ****     LV_ASSERT_NULL(cache);
  73:Drivers/lvgl/src/misc/cache/lv_cache.c **** 
  74:Drivers/lvgl/src/misc/cache/lv_cache.c ****     lv_mutex_lock(&cache->lock);
  75:Drivers/lvgl/src/misc/cache/lv_cache.c ****     cache->clz->destroy_cb(cache, user_data);
  76:Drivers/lvgl/src/misc/cache/lv_cache.c ****     lv_mutex_unlock(&cache->lock);
  77:Drivers/lvgl/src/misc/cache/lv_cache.c ****     lv_mutex_delete(&cache->lock);
  78:Drivers/lvgl/src/misc/cache/lv_cache.c ****     lv_free(cache);
  79:Drivers/lvgl/src/misc/cache/lv_cache.c **** }
  80:Drivers/lvgl/src/misc/cache/lv_cache.c **** 
  81:Drivers/lvgl/src/misc/cache/lv_cache.c **** lv_cache_entry_t * lv_cache_acquire(lv_cache_t * cache, const void * key, void * user_data)
  82:Drivers/lvgl/src/misc/cache/lv_cache.c **** {
  83:Drivers/lvgl/src/misc/cache/lv_cache.c ****     LV_ASSERT_NULL(cache);
  84:Drivers/lvgl/src/misc/cache/lv_cache.c ****     LV_ASSERT_NULL(key);
  85:Drivers/lvgl/src/misc/cache/lv_cache.c **** 
  86:Drivers/lvgl/src/misc/cache/lv_cache.c ****     LV_PROFILER_CACHE_BEGIN;
  87:Drivers/lvgl/src/misc/cache/lv_cache.c **** 
ARM GAS  /tmp/ccuBKat8.s 			page 3


  88:Drivers/lvgl/src/misc/cache/lv_cache.c ****     lv_mutex_lock(&cache->lock);
  89:Drivers/lvgl/src/misc/cache/lv_cache.c **** 
  90:Drivers/lvgl/src/misc/cache/lv_cache.c ****     if(cache->size == 0) {
  91:Drivers/lvgl/src/misc/cache/lv_cache.c ****         lv_mutex_unlock(&cache->lock);
  92:Drivers/lvgl/src/misc/cache/lv_cache.c **** 
  93:Drivers/lvgl/src/misc/cache/lv_cache.c ****         LV_PROFILER_CACHE_END;
  94:Drivers/lvgl/src/misc/cache/lv_cache.c ****         return NULL;
  95:Drivers/lvgl/src/misc/cache/lv_cache.c ****     }
  96:Drivers/lvgl/src/misc/cache/lv_cache.c **** 
  97:Drivers/lvgl/src/misc/cache/lv_cache.c ****     lv_cache_entry_t * entry = cache->clz->get_cb(cache, key, user_data);
  98:Drivers/lvgl/src/misc/cache/lv_cache.c ****     if(entry != NULL) {
  99:Drivers/lvgl/src/misc/cache/lv_cache.c ****         lv_cache_entry_acquire_data(entry);
 100:Drivers/lvgl/src/misc/cache/lv_cache.c ****     }
 101:Drivers/lvgl/src/misc/cache/lv_cache.c ****     lv_mutex_unlock(&cache->lock);
 102:Drivers/lvgl/src/misc/cache/lv_cache.c **** 
 103:Drivers/lvgl/src/misc/cache/lv_cache.c ****     LV_PROFILER_CACHE_END;
 104:Drivers/lvgl/src/misc/cache/lv_cache.c ****     return entry;
 105:Drivers/lvgl/src/misc/cache/lv_cache.c **** }
 106:Drivers/lvgl/src/misc/cache/lv_cache.c **** void lv_cache_release(lv_cache_t * cache, lv_cache_entry_t * entry, void * user_data)
 107:Drivers/lvgl/src/misc/cache/lv_cache.c **** {
 108:Drivers/lvgl/src/misc/cache/lv_cache.c ****     LV_ASSERT_NULL(entry);
 109:Drivers/lvgl/src/misc/cache/lv_cache.c **** 
 110:Drivers/lvgl/src/misc/cache/lv_cache.c ****     LV_PROFILER_CACHE_BEGIN;
 111:Drivers/lvgl/src/misc/cache/lv_cache.c **** 
 112:Drivers/lvgl/src/misc/cache/lv_cache.c ****     lv_mutex_lock(&cache->lock);
 113:Drivers/lvgl/src/misc/cache/lv_cache.c ****     lv_cache_entry_release_data(entry, user_data);
 114:Drivers/lvgl/src/misc/cache/lv_cache.c **** 
 115:Drivers/lvgl/src/misc/cache/lv_cache.c ****     if(lv_cache_entry_get_ref(entry) == 0 && lv_cache_entry_is_invalid(entry)) {
 116:Drivers/lvgl/src/misc/cache/lv_cache.c ****         cache->ops.free_cb(lv_cache_entry_get_data(entry), user_data);
 117:Drivers/lvgl/src/misc/cache/lv_cache.c ****         lv_cache_entry_delete(entry);
 118:Drivers/lvgl/src/misc/cache/lv_cache.c ****     }
 119:Drivers/lvgl/src/misc/cache/lv_cache.c ****     lv_mutex_unlock(&cache->lock);
 120:Drivers/lvgl/src/misc/cache/lv_cache.c **** 
 121:Drivers/lvgl/src/misc/cache/lv_cache.c ****     LV_PROFILER_CACHE_END;
 122:Drivers/lvgl/src/misc/cache/lv_cache.c **** }
 123:Drivers/lvgl/src/misc/cache/lv_cache.c **** lv_cache_entry_t * lv_cache_add(lv_cache_t * cache, const void * key, void * user_data)
 124:Drivers/lvgl/src/misc/cache/lv_cache.c **** {
 125:Drivers/lvgl/src/misc/cache/lv_cache.c ****     LV_ASSERT_NULL(cache);
 126:Drivers/lvgl/src/misc/cache/lv_cache.c ****     LV_ASSERT_NULL(key);
 127:Drivers/lvgl/src/misc/cache/lv_cache.c **** 
 128:Drivers/lvgl/src/misc/cache/lv_cache.c ****     LV_PROFILER_CACHE_BEGIN;
 129:Drivers/lvgl/src/misc/cache/lv_cache.c **** 
 130:Drivers/lvgl/src/misc/cache/lv_cache.c ****     lv_mutex_lock(&cache->lock);
 131:Drivers/lvgl/src/misc/cache/lv_cache.c ****     if(cache->max_size == 0) {
 132:Drivers/lvgl/src/misc/cache/lv_cache.c ****         lv_mutex_unlock(&cache->lock);
 133:Drivers/lvgl/src/misc/cache/lv_cache.c **** 
 134:Drivers/lvgl/src/misc/cache/lv_cache.c ****         LV_PROFILER_CACHE_END;
 135:Drivers/lvgl/src/misc/cache/lv_cache.c ****         return NULL;
 136:Drivers/lvgl/src/misc/cache/lv_cache.c ****     }
 137:Drivers/lvgl/src/misc/cache/lv_cache.c **** 
 138:Drivers/lvgl/src/misc/cache/lv_cache.c ****     lv_cache_entry_t * entry = cache_add_internal_no_lock(cache, key, user_data);
 139:Drivers/lvgl/src/misc/cache/lv_cache.c ****     if(entry != NULL) {
 140:Drivers/lvgl/src/misc/cache/lv_cache.c ****         lv_cache_entry_acquire_data(entry);
 141:Drivers/lvgl/src/misc/cache/lv_cache.c ****     }
 142:Drivers/lvgl/src/misc/cache/lv_cache.c ****     lv_mutex_unlock(&cache->lock);
 143:Drivers/lvgl/src/misc/cache/lv_cache.c **** 
 144:Drivers/lvgl/src/misc/cache/lv_cache.c ****     LV_PROFILER_CACHE_END;
ARM GAS  /tmp/ccuBKat8.s 			page 4


 145:Drivers/lvgl/src/misc/cache/lv_cache.c ****     return entry;
 146:Drivers/lvgl/src/misc/cache/lv_cache.c **** }
 147:Drivers/lvgl/src/misc/cache/lv_cache.c **** lv_cache_entry_t * lv_cache_acquire_or_create(lv_cache_t * cache, const void * key, void * user_dat
 148:Drivers/lvgl/src/misc/cache/lv_cache.c **** {
 149:Drivers/lvgl/src/misc/cache/lv_cache.c ****     LV_ASSERT_NULL(cache);
 150:Drivers/lvgl/src/misc/cache/lv_cache.c ****     LV_ASSERT_NULL(key);
 151:Drivers/lvgl/src/misc/cache/lv_cache.c **** 
 152:Drivers/lvgl/src/misc/cache/lv_cache.c ****     LV_PROFILER_CACHE_BEGIN;
 153:Drivers/lvgl/src/misc/cache/lv_cache.c **** 
 154:Drivers/lvgl/src/misc/cache/lv_cache.c ****     lv_mutex_lock(&cache->lock);
 155:Drivers/lvgl/src/misc/cache/lv_cache.c ****     lv_cache_entry_t * entry = NULL;
 156:Drivers/lvgl/src/misc/cache/lv_cache.c **** 
 157:Drivers/lvgl/src/misc/cache/lv_cache.c ****     if(cache->size != 0) {
 158:Drivers/lvgl/src/misc/cache/lv_cache.c ****         entry = cache->clz->get_cb(cache, key, user_data);
 159:Drivers/lvgl/src/misc/cache/lv_cache.c ****         if(entry != NULL) {
 160:Drivers/lvgl/src/misc/cache/lv_cache.c ****             lv_cache_entry_acquire_data(entry);
 161:Drivers/lvgl/src/misc/cache/lv_cache.c ****             lv_mutex_unlock(&cache->lock);
 162:Drivers/lvgl/src/misc/cache/lv_cache.c **** 
 163:Drivers/lvgl/src/misc/cache/lv_cache.c ****             LV_PROFILER_CACHE_END;
 164:Drivers/lvgl/src/misc/cache/lv_cache.c ****             return entry;
 165:Drivers/lvgl/src/misc/cache/lv_cache.c ****         }
 166:Drivers/lvgl/src/misc/cache/lv_cache.c ****     }
 167:Drivers/lvgl/src/misc/cache/lv_cache.c **** 
 168:Drivers/lvgl/src/misc/cache/lv_cache.c ****     if(cache->max_size == 0) {
 169:Drivers/lvgl/src/misc/cache/lv_cache.c ****         lv_mutex_unlock(&cache->lock);
 170:Drivers/lvgl/src/misc/cache/lv_cache.c **** 
 171:Drivers/lvgl/src/misc/cache/lv_cache.c ****         LV_PROFILER_CACHE_END;
 172:Drivers/lvgl/src/misc/cache/lv_cache.c ****         return NULL;
 173:Drivers/lvgl/src/misc/cache/lv_cache.c ****     }
 174:Drivers/lvgl/src/misc/cache/lv_cache.c **** 
 175:Drivers/lvgl/src/misc/cache/lv_cache.c ****     entry = cache_add_internal_no_lock(cache, key, user_data);
 176:Drivers/lvgl/src/misc/cache/lv_cache.c ****     if(entry == NULL) {
 177:Drivers/lvgl/src/misc/cache/lv_cache.c ****         lv_mutex_unlock(&cache->lock);
 178:Drivers/lvgl/src/misc/cache/lv_cache.c **** 
 179:Drivers/lvgl/src/misc/cache/lv_cache.c ****         LV_PROFILER_CACHE_END;
 180:Drivers/lvgl/src/misc/cache/lv_cache.c ****         return NULL;
 181:Drivers/lvgl/src/misc/cache/lv_cache.c ****     }
 182:Drivers/lvgl/src/misc/cache/lv_cache.c ****     bool create_res = cache->ops.create_cb(lv_cache_entry_get_data(entry), user_data);
 183:Drivers/lvgl/src/misc/cache/lv_cache.c ****     if(create_res == false) {
 184:Drivers/lvgl/src/misc/cache/lv_cache.c ****         cache->clz->remove_cb(cache, entry, user_data);
 185:Drivers/lvgl/src/misc/cache/lv_cache.c ****         lv_cache_entry_delete(entry);
 186:Drivers/lvgl/src/misc/cache/lv_cache.c ****         entry = NULL;
 187:Drivers/lvgl/src/misc/cache/lv_cache.c ****     }
 188:Drivers/lvgl/src/misc/cache/lv_cache.c ****     else {
 189:Drivers/lvgl/src/misc/cache/lv_cache.c ****         lv_cache_entry_acquire_data(entry);
 190:Drivers/lvgl/src/misc/cache/lv_cache.c ****     }
 191:Drivers/lvgl/src/misc/cache/lv_cache.c ****     lv_mutex_unlock(&cache->lock);
 192:Drivers/lvgl/src/misc/cache/lv_cache.c **** 
 193:Drivers/lvgl/src/misc/cache/lv_cache.c ****     LV_PROFILER_CACHE_END;
 194:Drivers/lvgl/src/misc/cache/lv_cache.c ****     return entry;
 195:Drivers/lvgl/src/misc/cache/lv_cache.c **** }
 196:Drivers/lvgl/src/misc/cache/lv_cache.c **** void lv_cache_reserve(lv_cache_t * cache, uint32_t reserved_size, void * user_data)
 197:Drivers/lvgl/src/misc/cache/lv_cache.c **** {
 198:Drivers/lvgl/src/misc/cache/lv_cache.c ****     LV_ASSERT_NULL(cache);
 199:Drivers/lvgl/src/misc/cache/lv_cache.c **** 
 200:Drivers/lvgl/src/misc/cache/lv_cache.c ****     LV_PROFILER_CACHE_BEGIN;
 201:Drivers/lvgl/src/misc/cache/lv_cache.c **** 
ARM GAS  /tmp/ccuBKat8.s 			page 5


 202:Drivers/lvgl/src/misc/cache/lv_cache.c ****     for(lv_cache_reserve_cond_res_t reserve_cond_res = cache->clz->reserve_cond_cb(cache, NULL, res
 203:Drivers/lvgl/src/misc/cache/lv_cache.c ****         reserve_cond_res == LV_CACHE_RESERVE_COND_NEED_VICTIM;
 204:Drivers/lvgl/src/misc/cache/lv_cache.c ****         reserve_cond_res = cache->clz->reserve_cond_cb(cache, NULL, reserved_size, user_data))
 205:Drivers/lvgl/src/misc/cache/lv_cache.c ****         cache_evict_one_internal_no_lock(cache, user_data);
 206:Drivers/lvgl/src/misc/cache/lv_cache.c **** 
 207:Drivers/lvgl/src/misc/cache/lv_cache.c ****     LV_PROFILER_CACHE_END;
 208:Drivers/lvgl/src/misc/cache/lv_cache.c **** }
 209:Drivers/lvgl/src/misc/cache/lv_cache.c **** void lv_cache_drop(lv_cache_t * cache, const void * key, void * user_data)
 210:Drivers/lvgl/src/misc/cache/lv_cache.c **** {
 211:Drivers/lvgl/src/misc/cache/lv_cache.c ****     LV_ASSERT_NULL(cache);
 212:Drivers/lvgl/src/misc/cache/lv_cache.c ****     LV_ASSERT_NULL(key);
 213:Drivers/lvgl/src/misc/cache/lv_cache.c **** 
 214:Drivers/lvgl/src/misc/cache/lv_cache.c ****     LV_PROFILER_CACHE_BEGIN;
 215:Drivers/lvgl/src/misc/cache/lv_cache.c **** 
 216:Drivers/lvgl/src/misc/cache/lv_cache.c ****     lv_mutex_lock(&cache->lock);
 217:Drivers/lvgl/src/misc/cache/lv_cache.c ****     cache_drop_internal_no_lock(cache, key, user_data);
 218:Drivers/lvgl/src/misc/cache/lv_cache.c ****     lv_mutex_unlock(&cache->lock);
 219:Drivers/lvgl/src/misc/cache/lv_cache.c **** 
 220:Drivers/lvgl/src/misc/cache/lv_cache.c ****     LV_PROFILER_CACHE_END;
 221:Drivers/lvgl/src/misc/cache/lv_cache.c **** }
 222:Drivers/lvgl/src/misc/cache/lv_cache.c **** bool lv_cache_evict_one(lv_cache_t * cache, void * user_data)
 223:Drivers/lvgl/src/misc/cache/lv_cache.c **** {
 224:Drivers/lvgl/src/misc/cache/lv_cache.c ****     LV_ASSERT_NULL(cache);
 225:Drivers/lvgl/src/misc/cache/lv_cache.c **** 
 226:Drivers/lvgl/src/misc/cache/lv_cache.c ****     LV_PROFILER_CACHE_BEGIN;
 227:Drivers/lvgl/src/misc/cache/lv_cache.c **** 
 228:Drivers/lvgl/src/misc/cache/lv_cache.c ****     lv_mutex_lock(&cache->lock);
 229:Drivers/lvgl/src/misc/cache/lv_cache.c ****     bool res = cache_evict_one_internal_no_lock(cache, user_data);
 230:Drivers/lvgl/src/misc/cache/lv_cache.c ****     lv_mutex_unlock(&cache->lock);
 231:Drivers/lvgl/src/misc/cache/lv_cache.c **** 
 232:Drivers/lvgl/src/misc/cache/lv_cache.c ****     LV_PROFILER_CACHE_END;
 233:Drivers/lvgl/src/misc/cache/lv_cache.c ****     return res;
 234:Drivers/lvgl/src/misc/cache/lv_cache.c **** }
 235:Drivers/lvgl/src/misc/cache/lv_cache.c **** void lv_cache_drop_all(lv_cache_t * cache, void * user_data)
 236:Drivers/lvgl/src/misc/cache/lv_cache.c **** {
 237:Drivers/lvgl/src/misc/cache/lv_cache.c ****     LV_ASSERT_NULL(cache);
 238:Drivers/lvgl/src/misc/cache/lv_cache.c **** 
 239:Drivers/lvgl/src/misc/cache/lv_cache.c ****     LV_PROFILER_CACHE_BEGIN;
 240:Drivers/lvgl/src/misc/cache/lv_cache.c **** 
 241:Drivers/lvgl/src/misc/cache/lv_cache.c ****     lv_mutex_lock(&cache->lock);
 242:Drivers/lvgl/src/misc/cache/lv_cache.c ****     cache->clz->drop_all_cb(cache, user_data);
 243:Drivers/lvgl/src/misc/cache/lv_cache.c ****     lv_mutex_unlock(&cache->lock);
 244:Drivers/lvgl/src/misc/cache/lv_cache.c **** 
 245:Drivers/lvgl/src/misc/cache/lv_cache.c ****     LV_PROFILER_CACHE_END;
 246:Drivers/lvgl/src/misc/cache/lv_cache.c **** }
 247:Drivers/lvgl/src/misc/cache/lv_cache.c **** 
 248:Drivers/lvgl/src/misc/cache/lv_cache.c **** void lv_cache_set_max_size(lv_cache_t * cache, size_t max_size, void * user_data)
 249:Drivers/lvgl/src/misc/cache/lv_cache.c **** {
 250:Drivers/lvgl/src/misc/cache/lv_cache.c ****     LV_UNUSED(user_data);
 251:Drivers/lvgl/src/misc/cache/lv_cache.c ****     cache->max_size = max_size;
 252:Drivers/lvgl/src/misc/cache/lv_cache.c **** }
 253:Drivers/lvgl/src/misc/cache/lv_cache.c **** size_t lv_cache_get_max_size(lv_cache_t * cache, void * user_data)
 254:Drivers/lvgl/src/misc/cache/lv_cache.c **** {
 255:Drivers/lvgl/src/misc/cache/lv_cache.c ****     LV_UNUSED(user_data);
 256:Drivers/lvgl/src/misc/cache/lv_cache.c ****     return cache->max_size;
 257:Drivers/lvgl/src/misc/cache/lv_cache.c **** }
 258:Drivers/lvgl/src/misc/cache/lv_cache.c **** size_t lv_cache_get_size(lv_cache_t * cache, void * user_data)
ARM GAS  /tmp/ccuBKat8.s 			page 6


 259:Drivers/lvgl/src/misc/cache/lv_cache.c **** {
 260:Drivers/lvgl/src/misc/cache/lv_cache.c ****     LV_UNUSED(user_data);
 261:Drivers/lvgl/src/misc/cache/lv_cache.c ****     return cache->size;
 262:Drivers/lvgl/src/misc/cache/lv_cache.c **** }
 263:Drivers/lvgl/src/misc/cache/lv_cache.c **** size_t lv_cache_get_free_size(lv_cache_t * cache, void * user_data)
 264:Drivers/lvgl/src/misc/cache/lv_cache.c **** {
 265:Drivers/lvgl/src/misc/cache/lv_cache.c ****     LV_UNUSED(user_data);
 266:Drivers/lvgl/src/misc/cache/lv_cache.c ****     return cache->max_size - cache->size;
 267:Drivers/lvgl/src/misc/cache/lv_cache.c **** }
 268:Drivers/lvgl/src/misc/cache/lv_cache.c **** bool lv_cache_is_enabled(lv_cache_t * cache)
 269:Drivers/lvgl/src/misc/cache/lv_cache.c **** {
 270:Drivers/lvgl/src/misc/cache/lv_cache.c ****     return cache->max_size > 0;
 271:Drivers/lvgl/src/misc/cache/lv_cache.c **** }
 272:Drivers/lvgl/src/misc/cache/lv_cache.c **** void lv_cache_set_compare_cb(lv_cache_t * cache, lv_cache_compare_cb_t compare_cb, void * user_data
 273:Drivers/lvgl/src/misc/cache/lv_cache.c **** {
 274:Drivers/lvgl/src/misc/cache/lv_cache.c ****     LV_UNUSED(user_data);
 275:Drivers/lvgl/src/misc/cache/lv_cache.c ****     cache->ops.compare_cb = compare_cb;
 276:Drivers/lvgl/src/misc/cache/lv_cache.c **** }
 277:Drivers/lvgl/src/misc/cache/lv_cache.c **** void lv_cache_set_create_cb(lv_cache_t * cache, lv_cache_create_cb_t alloc_cb, void * user_data)
 278:Drivers/lvgl/src/misc/cache/lv_cache.c **** {
 279:Drivers/lvgl/src/misc/cache/lv_cache.c ****     LV_UNUSED(user_data);
 280:Drivers/lvgl/src/misc/cache/lv_cache.c ****     cache->ops.create_cb = alloc_cb;
 281:Drivers/lvgl/src/misc/cache/lv_cache.c **** }
 282:Drivers/lvgl/src/misc/cache/lv_cache.c **** void lv_cache_set_free_cb(lv_cache_t * cache, lv_cache_free_cb_t free_cb, void * user_data)
 283:Drivers/lvgl/src/misc/cache/lv_cache.c **** {
 284:Drivers/lvgl/src/misc/cache/lv_cache.c ****     LV_UNUSED(user_data);
 285:Drivers/lvgl/src/misc/cache/lv_cache.c ****     cache->ops.free_cb = free_cb;
 286:Drivers/lvgl/src/misc/cache/lv_cache.c **** }
 287:Drivers/lvgl/src/misc/cache/lv_cache.c **** void lv_cache_set_name(lv_cache_t * cache, const char * name)
 288:Drivers/lvgl/src/misc/cache/lv_cache.c **** {
 289:Drivers/lvgl/src/misc/cache/lv_cache.c ****     if(cache == NULL) return;
 290:Drivers/lvgl/src/misc/cache/lv_cache.c ****     cache->name = name;
 291:Drivers/lvgl/src/misc/cache/lv_cache.c **** }
 292:Drivers/lvgl/src/misc/cache/lv_cache.c **** const char * lv_cache_get_name(lv_cache_t * cache)
 293:Drivers/lvgl/src/misc/cache/lv_cache.c **** {
 294:Drivers/lvgl/src/misc/cache/lv_cache.c ****     return cache->name;
 295:Drivers/lvgl/src/misc/cache/lv_cache.c **** }
 296:Drivers/lvgl/src/misc/cache/lv_cache.c **** 
 297:Drivers/lvgl/src/misc/cache/lv_cache.c **** lv_iter_t * lv_cache_iter_create(lv_cache_t * cache)
 298:Drivers/lvgl/src/misc/cache/lv_cache.c **** {
 299:Drivers/lvgl/src/misc/cache/lv_cache.c ****     LV_ASSERT_NULL(cache);
 300:Drivers/lvgl/src/misc/cache/lv_cache.c ****     if(cache == NULL || cache->clz->iter_create_cb == NULL) return NULL;
 301:Drivers/lvgl/src/misc/cache/lv_cache.c ****     return cache->clz->iter_create_cb(cache);
 302:Drivers/lvgl/src/misc/cache/lv_cache.c **** }
 303:Drivers/lvgl/src/misc/cache/lv_cache.c **** 
 304:Drivers/lvgl/src/misc/cache/lv_cache.c **** /**********************
 305:Drivers/lvgl/src/misc/cache/lv_cache.c ****  *   STATIC FUNCTIONS
 306:Drivers/lvgl/src/misc/cache/lv_cache.c ****  **********************/
 307:Drivers/lvgl/src/misc/cache/lv_cache.c **** 
 308:Drivers/lvgl/src/misc/cache/lv_cache.c **** static void cache_drop_internal_no_lock(lv_cache_t * cache, const void * key, void * user_data)
 309:Drivers/lvgl/src/misc/cache/lv_cache.c **** {
 310:Drivers/lvgl/src/misc/cache/lv_cache.c ****     lv_cache_entry_t * entry = cache->clz->get_cb(cache, key, user_data);
 311:Drivers/lvgl/src/misc/cache/lv_cache.c ****     if(entry == NULL) {
 312:Drivers/lvgl/src/misc/cache/lv_cache.c ****         return;
 313:Drivers/lvgl/src/misc/cache/lv_cache.c ****     }
 314:Drivers/lvgl/src/misc/cache/lv_cache.c **** 
 315:Drivers/lvgl/src/misc/cache/lv_cache.c ****     if(lv_cache_entry_get_ref(entry) == 0) {
ARM GAS  /tmp/ccuBKat8.s 			page 7


 316:Drivers/lvgl/src/misc/cache/lv_cache.c ****         cache->clz->remove_cb(cache, entry, user_data);
 317:Drivers/lvgl/src/misc/cache/lv_cache.c ****         cache->ops.free_cb(lv_cache_entry_get_data(entry), user_data);
 318:Drivers/lvgl/src/misc/cache/lv_cache.c ****         lv_cache_entry_delete(entry);
 319:Drivers/lvgl/src/misc/cache/lv_cache.c ****     }
 320:Drivers/lvgl/src/misc/cache/lv_cache.c ****     else {
 321:Drivers/lvgl/src/misc/cache/lv_cache.c ****         lv_cache_entry_set_invalid(entry, true);
 322:Drivers/lvgl/src/misc/cache/lv_cache.c ****         cache->clz->remove_cb(cache, entry, user_data);
 323:Drivers/lvgl/src/misc/cache/lv_cache.c ****     }
 324:Drivers/lvgl/src/misc/cache/lv_cache.c **** }
 325:Drivers/lvgl/src/misc/cache/lv_cache.c **** 
 326:Drivers/lvgl/src/misc/cache/lv_cache.c **** static bool cache_evict_one_internal_no_lock(lv_cache_t * cache, void * user_data)
 327:Drivers/lvgl/src/misc/cache/lv_cache.c **** {
  29              		.loc 1 327 1 view -0
  30              		.cfi_startproc
  31              		@ args = 0, pretend = 0, frame = 0
  32              		@ frame_needed = 0, uses_anonymous_args = 0
  33              		.loc 1 327 1 is_stmt 0 view .LVU1
  34 0000 70B5     		push	{r4, r5, r6, lr}
  35              	.LCFI0:
  36              		.cfi_def_cfa_offset 16
  37              		.cfi_offset 4, -16
  38              		.cfi_offset 5, -12
  39              		.cfi_offset 6, -8
  40              		.cfi_offset 14, -4
  41 0002 0446     		mov	r4, r0
  42 0004 0D46     		mov	r5, r1
 328:Drivers/lvgl/src/misc/cache/lv_cache.c ****     lv_cache_entry_t * victim = cache->clz->get_victim_cb(cache, user_data);
  43              		.loc 1 328 5 is_stmt 1 view .LVU2
  44              		.loc 1 328 38 is_stmt 0 view .LVU3
  45 0006 0368     		ldr	r3, [r0]
  46              		.loc 1 328 43 view .LVU4
  47 0008 1B6A     		ldr	r3, [r3, #32]
  48              		.loc 1 328 33 view .LVU5
  49 000a 9847     		blx	r3
  50              	.LVL1:
 329:Drivers/lvgl/src/misc/cache/lv_cache.c **** 
 330:Drivers/lvgl/src/misc/cache/lv_cache.c ****     if(victim == NULL) {
  51              		.loc 1 330 5 is_stmt 1 view .LVU6
  52              		.loc 1 330 7 is_stmt 0 view .LVU7
  53 000c 88B1     		cbz	r0, .L3
  54 000e 0646     		mov	r6, r0
 331:Drivers/lvgl/src/misc/cache/lv_cache.c ****         LV_LOG_ERROR("No victim found");
 332:Drivers/lvgl/src/misc/cache/lv_cache.c ****         return false;
 333:Drivers/lvgl/src/misc/cache/lv_cache.c ****     }
 334:Drivers/lvgl/src/misc/cache/lv_cache.c **** 
 335:Drivers/lvgl/src/misc/cache/lv_cache.c ****     cache->clz->remove_cb(cache, victim, user_data);
  55              		.loc 1 335 5 is_stmt 1 view .LVU8
  56              		.loc 1 335 10 is_stmt 0 view .LVU9
  57 0010 2368     		ldr	r3, [r4]
  58              		.loc 1 335 15 view .LVU10
  59 0012 5B69     		ldr	r3, [r3, #20]
  60              		.loc 1 335 5 view .LVU11
  61 0014 2A46     		mov	r2, r5
  62 0016 0146     		mov	r1, r0
  63 0018 2046     		mov	r0, r4
  64              	.LVL2:
  65              		.loc 1 335 5 view .LVU12
ARM GAS  /tmp/ccuBKat8.s 			page 8


  66 001a 9847     		blx	r3
  67              	.LVL3:
 336:Drivers/lvgl/src/misc/cache/lv_cache.c ****     cache->ops.free_cb(lv_cache_entry_get_data(victim), user_data);
  68              		.loc 1 336 5 is_stmt 1 view .LVU13
  69              		.loc 1 336 15 is_stmt 0 view .LVU14
  70 001c A469     		ldr	r4, [r4, #24]
  71              	.LVL4:
  72              		.loc 1 336 5 view .LVU15
  73 001e 3046     		mov	r0, r6
  74 0020 FFF7FEFF 		bl	lv_cache_entry_get_data
  75              	.LVL5:
  76              		.loc 1 336 5 discriminator 1 view .LVU16
  77 0024 2946     		mov	r1, r5
  78 0026 A047     		blx	r4
  79              	.LVL6:
 337:Drivers/lvgl/src/misc/cache/lv_cache.c ****     lv_cache_entry_delete(victim);
  80              		.loc 1 337 5 is_stmt 1 view .LVU17
  81 0028 3046     		mov	r0, r6
  82 002a FFF7FEFF 		bl	lv_cache_entry_delete
  83              	.LVL7:
 338:Drivers/lvgl/src/misc/cache/lv_cache.c ****     return true;
  84              		.loc 1 338 5 view .LVU18
  85              		.loc 1 338 12 is_stmt 0 view .LVU19
  86 002e 0120     		movs	r0, #1
  87              	.LVL8:
  88              	.L2:
 339:Drivers/lvgl/src/misc/cache/lv_cache.c **** }
  89              		.loc 1 339 1 view .LVU20
  90 0030 70BD     		pop	{r4, r5, r6, pc}
  91              	.LVL9:
  92              	.L3:
 332:Drivers/lvgl/src/misc/cache/lv_cache.c ****     }
  93              		.loc 1 332 16 view .LVU21
  94 0032 0020     		movs	r0, #0
  95              	.LVL10:
 332:Drivers/lvgl/src/misc/cache/lv_cache.c ****     }
  96              		.loc 1 332 16 view .LVU22
  97 0034 FCE7     		b	.L2
  98              		.cfi_endproc
  99              	.LFE39:
 101              		.section	.text.cache_add_internal_no_lock,"ax",%progbits
 102              		.align	1
 103              		.syntax unified
 104              		.thumb
 105              		.thumb_func
 107              	cache_add_internal_no_lock:
 108              	.LVL11:
 109              	.LFB40:
 340:Drivers/lvgl/src/misc/cache/lv_cache.c **** 
 341:Drivers/lvgl/src/misc/cache/lv_cache.c **** static lv_cache_entry_t * cache_add_internal_no_lock(lv_cache_t * cache, const void * key, void * u
 342:Drivers/lvgl/src/misc/cache/lv_cache.c **** {
 110              		.loc 1 342 1 is_stmt 1 view -0
 111              		.cfi_startproc
 112              		@ args = 0, pretend = 0, frame = 0
 113              		@ frame_needed = 0, uses_anonymous_args = 0
 114              		.loc 1 342 1 is_stmt 0 view .LVU24
 115 0000 F8B5     		push	{r3, r4, r5, r6, r7, lr}
ARM GAS  /tmp/ccuBKat8.s 			page 9


 116              	.LCFI1:
 117              		.cfi_def_cfa_offset 24
 118              		.cfi_offset 3, -24
 119              		.cfi_offset 4, -20
 120              		.cfi_offset 5, -16
 121              		.cfi_offset 6, -12
 122              		.cfi_offset 7, -8
 123              		.cfi_offset 14, -4
 124 0002 0446     		mov	r4, r0
 125 0004 0F46     		mov	r7, r1
 126 0006 1546     		mov	r5, r2
 343:Drivers/lvgl/src/misc/cache/lv_cache.c ****     lv_cache_reserve_cond_res_t reserve_cond_res = cache->clz->reserve_cond_cb(cache, key, 0, user_
 127              		.loc 1 343 5 is_stmt 1 view .LVU25
 128              		.loc 1 343 57 is_stmt 0 view .LVU26
 129 0008 0368     		ldr	r3, [r0]
 130              		.loc 1 343 62 view .LVU27
 131 000a 5E6A     		ldr	r6, [r3, #36]
 132              		.loc 1 343 52 view .LVU28
 133 000c 1346     		mov	r3, r2
 134 000e 0022     		movs	r2, #0
 135              	.LVL12:
 136              		.loc 1 343 52 view .LVU29
 137 0010 B047     		blx	r6
 138              	.LVL13:
 344:Drivers/lvgl/src/misc/cache/lv_cache.c ****     if(reserve_cond_res == LV_CACHE_RESERVE_COND_TOO_LARGE) {
 139              		.loc 1 344 5 is_stmt 1 view .LVU30
 140              		.loc 1 344 7 is_stmt 0 view .LVU31
 141 0012 0128     		cmp	r0, #1
 142 0014 15D0     		beq	.L12
 143              	.LVL14:
 144              	.L7:
 345:Drivers/lvgl/src/misc/cache/lv_cache.c ****         LV_LOG_ERROR("data %p is too large that exceeds max size (%" LV_PRIu32 ")", key, cache->max
 346:Drivers/lvgl/src/misc/cache/lv_cache.c ****         return NULL;
 347:Drivers/lvgl/src/misc/cache/lv_cache.c ****     }
 348:Drivers/lvgl/src/misc/cache/lv_cache.c **** 
 349:Drivers/lvgl/src/misc/cache/lv_cache.c ****     for(; reserve_cond_res == LV_CACHE_RESERVE_COND_NEED_VICTIM;
 145              		.loc 1 349 28 is_stmt 1 view .LVU32
 146 0016 0228     		cmp	r0, #2
 147 0018 0CD1     		bne	.L13
 350:Drivers/lvgl/src/misc/cache/lv_cache.c ****         reserve_cond_res = cache->clz->reserve_cond_cb(cache, key, 0, user_data))
 351:Drivers/lvgl/src/misc/cache/lv_cache.c ****         if(cache_evict_one_internal_no_lock(cache, user_data) == false)
 148              		.loc 1 351 9 view .LVU33
 149              		.loc 1 351 12 is_stmt 0 view .LVU34
 150 001a 2946     		mov	r1, r5
 151 001c 2046     		mov	r0, r4
 152              	.LVL15:
 153              		.loc 1 351 12 view .LVU35
 154 001e FFF7FEFF 		bl	cache_evict_one_internal_no_lock
 155              	.LVL16:
 156              		.loc 1 351 11 discriminator 1 view .LVU36
 157 0022 80B1     		cbz	r0, .L10
 350:Drivers/lvgl/src/misc/cache/lv_cache.c ****         reserve_cond_res = cache->clz->reserve_cond_cb(cache, key, 0, user_data))
 158              		.loc 1 350 26 is_stmt 1 view .LVU37
 350:Drivers/lvgl/src/misc/cache/lv_cache.c ****         reserve_cond_res = cache->clz->reserve_cond_cb(cache, key, 0, user_data))
 159              		.loc 1 350 33 is_stmt 0 view .LVU38
 160 0024 2368     		ldr	r3, [r4]
 350:Drivers/lvgl/src/misc/cache/lv_cache.c ****         reserve_cond_res = cache->clz->reserve_cond_cb(cache, key, 0, user_data))
ARM GAS  /tmp/ccuBKat8.s 			page 10


 161              		.loc 1 350 38 view .LVU39
 162 0026 5E6A     		ldr	r6, [r3, #36]
 350:Drivers/lvgl/src/misc/cache/lv_cache.c ****         reserve_cond_res = cache->clz->reserve_cond_cb(cache, key, 0, user_data))
 163              		.loc 1 350 28 view .LVU40
 164 0028 2B46     		mov	r3, r5
 165 002a 0022     		movs	r2, #0
 166 002c 3946     		mov	r1, r7
 167 002e 2046     		mov	r0, r4
 168 0030 B047     		blx	r6
 169              	.LVL17:
 170 0032 F0E7     		b	.L7
 171              	.LVL18:
 172              	.L13:
 352:Drivers/lvgl/src/misc/cache/lv_cache.c ****             return NULL;
 353:Drivers/lvgl/src/misc/cache/lv_cache.c **** 
 354:Drivers/lvgl/src/misc/cache/lv_cache.c ****     lv_cache_entry_t * entry = cache->clz->add_cb(cache, key, user_data);
 173              		.loc 1 354 5 is_stmt 1 view .LVU41
 174              		.loc 1 354 37 is_stmt 0 view .LVU42
 175 0034 2368     		ldr	r3, [r4]
 176              		.loc 1 354 42 view .LVU43
 177 0036 1B69     		ldr	r3, [r3, #16]
 178              		.loc 1 354 32 view .LVU44
 179 0038 2A46     		mov	r2, r5
 180 003a 3946     		mov	r1, r7
 181 003c 2046     		mov	r0, r4
 182              	.LVL19:
 183              		.loc 1 354 32 view .LVU45
 184 003e 9847     		blx	r3
 185              	.LVL20:
 355:Drivers/lvgl/src/misc/cache/lv_cache.c **** 
 356:Drivers/lvgl/src/misc/cache/lv_cache.c ****     return entry;
 186              		.loc 1 356 5 is_stmt 1 view .LVU46
 187              	.L5:
 357:Drivers/lvgl/src/misc/cache/lv_cache.c **** }
 188              		.loc 1 357 1 is_stmt 0 view .LVU47
 189 0040 F8BD     		pop	{r3, r4, r5, r6, r7, pc}
 190              	.LVL21:
 191              	.L12:
 346:Drivers/lvgl/src/misc/cache/lv_cache.c ****     }
 192              		.loc 1 346 16 view .LVU48
 193 0042 0020     		movs	r0, #0
 194              	.LVL22:
 346:Drivers/lvgl/src/misc/cache/lv_cache.c ****     }
 195              		.loc 1 346 16 view .LVU49
 196 0044 FCE7     		b	.L5
 197              	.L10:
 352:Drivers/lvgl/src/misc/cache/lv_cache.c **** 
 198              		.loc 1 352 20 view .LVU50
 199 0046 0020     		movs	r0, #0
 200 0048 FAE7     		b	.L5
 201              		.cfi_endproc
 202              	.LFE40:
 204              		.section	.text.cache_drop_internal_no_lock,"ax",%progbits
 205              		.align	1
 206              		.syntax unified
 207              		.thumb
 208              		.thumb_func
ARM GAS  /tmp/ccuBKat8.s 			page 11


 210              	cache_drop_internal_no_lock:
 211              	.LVL23:
 212              	.LFB38:
 309:Drivers/lvgl/src/misc/cache/lv_cache.c ****     lv_cache_entry_t * entry = cache->clz->get_cb(cache, key, user_data);
 213              		.loc 1 309 1 is_stmt 1 view -0
 214              		.cfi_startproc
 215              		@ args = 0, pretend = 0, frame = 0
 216              		@ frame_needed = 0, uses_anonymous_args = 0
 309:Drivers/lvgl/src/misc/cache/lv_cache.c ****     lv_cache_entry_t * entry = cache->clz->get_cb(cache, key, user_data);
 217              		.loc 1 309 1 is_stmt 0 view .LVU52
 218 0000 70B5     		push	{r4, r5, r6, lr}
 219              	.LCFI2:
 220              		.cfi_def_cfa_offset 16
 221              		.cfi_offset 4, -16
 222              		.cfi_offset 5, -12
 223              		.cfi_offset 6, -8
 224              		.cfi_offset 14, -4
 225 0002 0446     		mov	r4, r0
 226 0004 1546     		mov	r5, r2
 310:Drivers/lvgl/src/misc/cache/lv_cache.c ****     if(entry == NULL) {
 227              		.loc 1 310 5 is_stmt 1 view .LVU53
 310:Drivers/lvgl/src/misc/cache/lv_cache.c ****     if(entry == NULL) {
 228              		.loc 1 310 37 is_stmt 0 view .LVU54
 229 0006 0368     		ldr	r3, [r0]
 310:Drivers/lvgl/src/misc/cache/lv_cache.c ****     if(entry == NULL) {
 230              		.loc 1 310 42 view .LVU55
 231 0008 DB68     		ldr	r3, [r3, #12]
 310:Drivers/lvgl/src/misc/cache/lv_cache.c ****     if(entry == NULL) {
 232              		.loc 1 310 32 view .LVU56
 233 000a 9847     		blx	r3
 234              	.LVL24:
 311:Drivers/lvgl/src/misc/cache/lv_cache.c ****         return;
 235              		.loc 1 311 5 is_stmt 1 view .LVU57
 311:Drivers/lvgl/src/misc/cache/lv_cache.c ****         return;
 236              		.loc 1 311 7 is_stmt 0 view .LVU58
 237 000c 90B1     		cbz	r0, .L14
 238 000e 0646     		mov	r6, r0
 315:Drivers/lvgl/src/misc/cache/lv_cache.c ****         cache->clz->remove_cb(cache, entry, user_data);
 239              		.loc 1 315 5 is_stmt 1 view .LVU59
 315:Drivers/lvgl/src/misc/cache/lv_cache.c ****         cache->clz->remove_cb(cache, entry, user_data);
 240              		.loc 1 315 8 is_stmt 0 view .LVU60
 241 0010 FFF7FEFF 		bl	lv_cache_entry_get_ref
 242              	.LVL25:
 315:Drivers/lvgl/src/misc/cache/lv_cache.c ****         cache->clz->remove_cb(cache, entry, user_data);
 243              		.loc 1 315 7 discriminator 1 view .LVU61
 244 0014 78B9     		cbnz	r0, .L16
 316:Drivers/lvgl/src/misc/cache/lv_cache.c ****         cache->ops.free_cb(lv_cache_entry_get_data(entry), user_data);
 245              		.loc 1 316 9 is_stmt 1 view .LVU62
 316:Drivers/lvgl/src/misc/cache/lv_cache.c ****         cache->ops.free_cb(lv_cache_entry_get_data(entry), user_data);
 246              		.loc 1 316 14 is_stmt 0 view .LVU63
 247 0016 2368     		ldr	r3, [r4]
 316:Drivers/lvgl/src/misc/cache/lv_cache.c ****         cache->ops.free_cb(lv_cache_entry_get_data(entry), user_data);
 248              		.loc 1 316 19 view .LVU64
 249 0018 5B69     		ldr	r3, [r3, #20]
 316:Drivers/lvgl/src/misc/cache/lv_cache.c ****         cache->ops.free_cb(lv_cache_entry_get_data(entry), user_data);
 250              		.loc 1 316 9 view .LVU65
 251 001a 2A46     		mov	r2, r5
ARM GAS  /tmp/ccuBKat8.s 			page 12


 252 001c 3146     		mov	r1, r6
 253 001e 2046     		mov	r0, r4
 254 0020 9847     		blx	r3
 255              	.LVL26:
 317:Drivers/lvgl/src/misc/cache/lv_cache.c ****         lv_cache_entry_delete(entry);
 256              		.loc 1 317 9 is_stmt 1 view .LVU66
 317:Drivers/lvgl/src/misc/cache/lv_cache.c ****         lv_cache_entry_delete(entry);
 257              		.loc 1 317 19 is_stmt 0 view .LVU67
 258 0022 A469     		ldr	r4, [r4, #24]
 259              	.LVL27:
 317:Drivers/lvgl/src/misc/cache/lv_cache.c ****         lv_cache_entry_delete(entry);
 260              		.loc 1 317 9 view .LVU68
 261 0024 3046     		mov	r0, r6
 262 0026 FFF7FEFF 		bl	lv_cache_entry_get_data
 263              	.LVL28:
 317:Drivers/lvgl/src/misc/cache/lv_cache.c ****         lv_cache_entry_delete(entry);
 264              		.loc 1 317 9 discriminator 1 view .LVU69
 265 002a 2946     		mov	r1, r5
 266 002c A047     		blx	r4
 267              	.LVL29:
 318:Drivers/lvgl/src/misc/cache/lv_cache.c ****     }
 268              		.loc 1 318 9 is_stmt 1 view .LVU70
 269 002e 3046     		mov	r0, r6
 270 0030 FFF7FEFF 		bl	lv_cache_entry_delete
 271              	.LVL30:
 272              	.L14:
 324:Drivers/lvgl/src/misc/cache/lv_cache.c **** 
 273              		.loc 1 324 1 is_stmt 0 view .LVU71
 274 0034 70BD     		pop	{r4, r5, r6, pc}
 275              	.LVL31:
 276              	.L16:
 321:Drivers/lvgl/src/misc/cache/lv_cache.c ****         cache->clz->remove_cb(cache, entry, user_data);
 277              		.loc 1 321 9 is_stmt 1 view .LVU72
 278 0036 0121     		movs	r1, #1
 279 0038 3046     		mov	r0, r6
 280 003a FFF7FEFF 		bl	lv_cache_entry_set_invalid
 281              	.LVL32:
 322:Drivers/lvgl/src/misc/cache/lv_cache.c ****     }
 282              		.loc 1 322 9 view .LVU73
 322:Drivers/lvgl/src/misc/cache/lv_cache.c ****     }
 283              		.loc 1 322 14 is_stmt 0 view .LVU74
 284 003e 2368     		ldr	r3, [r4]
 322:Drivers/lvgl/src/misc/cache/lv_cache.c ****     }
 285              		.loc 1 322 19 view .LVU75
 286 0040 5B69     		ldr	r3, [r3, #20]
 322:Drivers/lvgl/src/misc/cache/lv_cache.c ****     }
 287              		.loc 1 322 9 view .LVU76
 288 0042 2A46     		mov	r2, r5
 289 0044 3146     		mov	r1, r6
 290 0046 2046     		mov	r0, r4
 291 0048 9847     		blx	r3
 292              	.LVL33:
 293 004a F3E7     		b	.L14
 294              		.cfi_endproc
 295              	.LFE38:
 297              		.section	.text.lv_cache_create,"ax",%progbits
 298              		.align	1
ARM GAS  /tmp/ccuBKat8.s 			page 13


 299              		.global	lv_cache_create
 300              		.syntax unified
 301              		.thumb
 302              		.thumb_func
 304              	lv_cache_create:
 305              	.LVL34:
 306              	.LFB17:
  49:Drivers/lvgl/src/misc/cache/lv_cache.c ****     lv_cache_t * cache = cache_class->alloc_cb();
 307              		.loc 1 49 1 is_stmt 1 view -0
 308              		.cfi_startproc
 309              		@ args = 16, pretend = 8, frame = 0
 310              		@ frame_needed = 0, uses_anonymous_args = 0
  49:Drivers/lvgl/src/misc/cache/lv_cache.c ****     lv_cache_t * cache = cache_class->alloc_cb();
 311              		.loc 1 49 1 is_stmt 0 view .LVU78
 312 0000 82B0     		sub	sp, sp, #8
 313              	.LCFI3:
 314              		.cfi_def_cfa_offset 8
 315 0002 F8B5     		push	{r3, r4, r5, r6, r7, lr}
 316              	.LCFI4:
 317              		.cfi_def_cfa_offset 32
 318              		.cfi_offset 3, -32
 319              		.cfi_offset 4, -28
 320              		.cfi_offset 5, -24
 321              		.cfi_offset 6, -20
 322              		.cfi_offset 7, -16
 323              		.cfi_offset 14, -12
 324 0004 0546     		mov	r5, r0
 325 0006 0F46     		mov	r7, r1
 326 0008 1646     		mov	r6, r2
 327 000a 0793     		str	r3, [sp, #28]
  50:Drivers/lvgl/src/misc/cache/lv_cache.c ****     LV_ASSERT_MALLOC(cache);
 328              		.loc 1 50 5 is_stmt 1 view .LVU79
  50:Drivers/lvgl/src/misc/cache/lv_cache.c ****     LV_ASSERT_MALLOC(cache);
 329              		.loc 1 50 37 is_stmt 0 view .LVU80
 330 000c 0368     		ldr	r3, [r0]
  50:Drivers/lvgl/src/misc/cache/lv_cache.c ****     LV_ASSERT_MALLOC(cache);
 331              		.loc 1 50 26 view .LVU81
 332 000e 9847     		blx	r3
 333              	.LVL35:
  51:Drivers/lvgl/src/misc/cache/lv_cache.c **** 
 334              		.loc 1 51 5 is_stmt 1 view .LVU82
  51:Drivers/lvgl/src/misc/cache/lv_cache.c **** 
 335              		.loc 1 51 5 view .LVU83
 336 0010 A0B1     		cbz	r0, .L20
 337 0012 0446     		mov	r4, r0
  51:Drivers/lvgl/src/misc/cache/lv_cache.c **** 
 338              		.loc 1 51 5 discriminator 2 view .LVU84
  51:Drivers/lvgl/src/misc/cache/lv_cache.c **** 
 339              		.loc 1 51 28 discriminator 2 view .LVU85
  53:Drivers/lvgl/src/misc/cache/lv_cache.c ****     cache->node_size = node_size;
 340              		.loc 1 53 5 view .LVU86
  53:Drivers/lvgl/src/misc/cache/lv_cache.c ****     cache->node_size = node_size;
 341              		.loc 1 53 16 is_stmt 0 view .LVU87
 342 0014 0560     		str	r5, [r0]
  54:Drivers/lvgl/src/misc/cache/lv_cache.c ****     cache->max_size = max_size;
 343              		.loc 1 54 5 is_stmt 1 view .LVU88
  54:Drivers/lvgl/src/misc/cache/lv_cache.c ****     cache->max_size = max_size;
ARM GAS  /tmp/ccuBKat8.s 			page 14


 344              		.loc 1 54 22 is_stmt 0 view .LVU89
 345 0016 4760     		str	r7, [r0, #4]
  55:Drivers/lvgl/src/misc/cache/lv_cache.c ****     cache->size = 0;
 346              		.loc 1 55 5 is_stmt 1 view .LVU90
  55:Drivers/lvgl/src/misc/cache/lv_cache.c ****     cache->size = 0;
 347              		.loc 1 55 21 is_stmt 0 view .LVU91
 348 0018 8660     		str	r6, [r0, #8]
  56:Drivers/lvgl/src/misc/cache/lv_cache.c ****     cache->ops = ops;
 349              		.loc 1 56 5 is_stmt 1 view .LVU92
  56:Drivers/lvgl/src/misc/cache/lv_cache.c ****     cache->ops = ops;
 350              		.loc 1 56 17 is_stmt 0 view .LVU93
 351 001a 0023     		movs	r3, #0
 352 001c C360     		str	r3, [r0, #12]
  57:Drivers/lvgl/src/misc/cache/lv_cache.c **** 
 353              		.loc 1 57 5 is_stmt 1 view .LVU94
  57:Drivers/lvgl/src/misc/cache/lv_cache.c **** 
 354              		.loc 1 57 16 is_stmt 0 view .LVU95
 355 001e 00F11003 		add	r3, r0, #16
 356 0022 07AA     		add	r2, sp, #28
 357 0024 07CA     		ldm	r2, {r0, r1, r2}
 358              	.LVL36:
  57:Drivers/lvgl/src/misc/cache/lv_cache.c **** 
 359              		.loc 1 57 16 view .LVU96
 360 0026 83E80700 		stm	r3, {r0, r1, r2}
  59:Drivers/lvgl/src/misc/cache/lv_cache.c ****         LV_LOG_ERROR("Cache init failed");
 361              		.loc 1 59 5 is_stmt 1 view .LVU97
  59:Drivers/lvgl/src/misc/cache/lv_cache.c ****         LV_LOG_ERROR("Cache init failed");
 362              		.loc 1 59 18 is_stmt 0 view .LVU98
 363 002a 6B68     		ldr	r3, [r5, #4]
  59:Drivers/lvgl/src/misc/cache/lv_cache.c ****         LV_LOG_ERROR("Cache init failed");
 364              		.loc 1 59 8 view .LVU99
 365 002c 2046     		mov	r0, r4
 366 002e 9847     		blx	r3
 367              	.LVL37:
  59:Drivers/lvgl/src/misc/cache/lv_cache.c ****         LV_LOG_ERROR("Cache init failed");
 368              		.loc 1 59 7 discriminator 1 view .LVU100
 369 0030 28B1     		cbz	r0, .L23
 370              	.LVL38:
 371              	.L18:
  68:Drivers/lvgl/src/misc/cache/lv_cache.c **** 
 372              		.loc 1 68 1 view .LVU101
 373 0032 2046     		mov	r0, r4
 374 0034 BDE8F840 		pop	{r3, r4, r5, r6, r7, lr}
 375              	.LCFI5:
 376              		.cfi_remember_state
 377              		.cfi_restore 14
 378              		.cfi_restore 7
 379              		.cfi_restore 6
 380              		.cfi_restore 5
 381              		.cfi_restore 4
 382              		.cfi_restore 3
 383              		.cfi_def_cfa_offset 8
 384              	.LVL39:
  68:Drivers/lvgl/src/misc/cache/lv_cache.c **** 
 385              		.loc 1 68 1 view .LVU102
 386 0038 02B0     		add	sp, sp, #8
 387              	.LCFI6:
ARM GAS  /tmp/ccuBKat8.s 			page 15


 388              		.cfi_def_cfa_offset 0
 389 003a 7047     		bx	lr
 390              	.LVL40:
 391              	.L20:
 392              	.LCFI7:
 393              		.cfi_restore_state
  51:Drivers/lvgl/src/misc/cache/lv_cache.c **** 
 394              		.loc 1 51 5 is_stmt 1 discriminator 1 view .LVU103
  51:Drivers/lvgl/src/misc/cache/lv_cache.c **** 
 395              		.loc 1 51 5 discriminator 1 view .LVU104
  51:Drivers/lvgl/src/misc/cache/lv_cache.c **** 
 396              		.loc 1 51 5 discriminator 1 view .LVU105
  51:Drivers/lvgl/src/misc/cache/lv_cache.c **** 
 397              		.loc 1 51 5 discriminator 1 view .LVU106
  51:Drivers/lvgl/src/misc/cache/lv_cache.c **** 
 398              		.loc 1 51 5 discriminator 1 view .LVU107
 399 003c FEE7     		b	.L20
 400              	.LVL41:
 401              	.L23:
  60:Drivers/lvgl/src/misc/cache/lv_cache.c ****         lv_free(cache);
 402              		.loc 1 60 9 view .LVU108
  60:Drivers/lvgl/src/misc/cache/lv_cache.c ****         lv_free(cache);
 403              		.loc 1 60 9 view .LVU109
  60:Drivers/lvgl/src/misc/cache/lv_cache.c ****         lv_free(cache);
 404              		.loc 1 60 9 view .LVU110
  61:Drivers/lvgl/src/misc/cache/lv_cache.c ****         return NULL;
 405              		.loc 1 61 9 view .LVU111
 406 003e 2046     		mov	r0, r4
 407 0040 FFF7FEFF 		bl	lv_free
 408              	.LVL42:
  62:Drivers/lvgl/src/misc/cache/lv_cache.c ****     }
 409              		.loc 1 62 9 view .LVU112
  62:Drivers/lvgl/src/misc/cache/lv_cache.c ****     }
 410              		.loc 1 62 16 is_stmt 0 view .LVU113
 411 0044 0024     		movs	r4, #0
 412              	.LVL43:
  62:Drivers/lvgl/src/misc/cache/lv_cache.c ****     }
 413              		.loc 1 62 16 view .LVU114
 414 0046 F4E7     		b	.L18
 415              		.cfi_endproc
 416              	.LFE17:
 418              		.section	.text.lv_cache_destroy,"ax",%progbits
 419              		.align	1
 420              		.global	lv_cache_destroy
 421              		.syntax unified
 422              		.thumb
 423              		.thumb_func
 425              	lv_cache_destroy:
 426              	.LVL44:
 427              	.LFB18:
  71:Drivers/lvgl/src/misc/cache/lv_cache.c ****     LV_ASSERT_NULL(cache);
 428              		.loc 1 71 1 is_stmt 1 view -0
 429              		.cfi_startproc
 430              		@ args = 0, pretend = 0, frame = 0
 431              		@ frame_needed = 0, uses_anonymous_args = 0
  72:Drivers/lvgl/src/misc/cache/lv_cache.c **** 
 432              		.loc 1 72 5 view .LVU116
ARM GAS  /tmp/ccuBKat8.s 			page 16


  72:Drivers/lvgl/src/misc/cache/lv_cache.c **** 
 433              		.loc 1 72 5 view .LVU117
 434 0000 40B1     		cbz	r0, .L26
  71:Drivers/lvgl/src/misc/cache/lv_cache.c ****     LV_ASSERT_NULL(cache);
 435              		.loc 1 71 1 is_stmt 0 view .LVU118
 436 0002 10B5     		push	{r4, lr}
 437              	.LCFI8:
 438              		.cfi_def_cfa_offset 8
 439              		.cfi_offset 4, -8
 440              		.cfi_offset 14, -4
 441 0004 0446     		mov	r4, r0
  72:Drivers/lvgl/src/misc/cache/lv_cache.c **** 
 442              		.loc 1 72 5 is_stmt 1 discriminator 2 view .LVU119
  72:Drivers/lvgl/src/misc/cache/lv_cache.c **** 
 443              		.loc 1 72 26 discriminator 2 view .LVU120
  74:Drivers/lvgl/src/misc/cache/lv_cache.c ****     cache->clz->destroy_cb(cache, user_data);
 444              		.loc 1 74 5 view .LVU121
  75:Drivers/lvgl/src/misc/cache/lv_cache.c ****     lv_mutex_unlock(&cache->lock);
 445              		.loc 1 75 5 view .LVU122
  75:Drivers/lvgl/src/misc/cache/lv_cache.c ****     lv_mutex_unlock(&cache->lock);
 446              		.loc 1 75 10 is_stmt 0 view .LVU123
 447 0006 0368     		ldr	r3, [r0]
  75:Drivers/lvgl/src/misc/cache/lv_cache.c ****     lv_mutex_unlock(&cache->lock);
 448              		.loc 1 75 15 view .LVU124
 449 0008 9B68     		ldr	r3, [r3, #8]
  75:Drivers/lvgl/src/misc/cache/lv_cache.c ****     lv_mutex_unlock(&cache->lock);
 450              		.loc 1 75 5 view .LVU125
 451 000a 9847     		blx	r3
 452              	.LVL45:
  76:Drivers/lvgl/src/misc/cache/lv_cache.c ****     lv_mutex_delete(&cache->lock);
 453              		.loc 1 76 5 is_stmt 1 view .LVU126
  77:Drivers/lvgl/src/misc/cache/lv_cache.c ****     lv_free(cache);
 454              		.loc 1 77 5 view .LVU127
  78:Drivers/lvgl/src/misc/cache/lv_cache.c **** }
 455              		.loc 1 78 5 view .LVU128
 456 000c 2046     		mov	r0, r4
 457 000e FFF7FEFF 		bl	lv_free
 458              	.LVL46:
  79:Drivers/lvgl/src/misc/cache/lv_cache.c **** 
 459              		.loc 1 79 1 is_stmt 0 view .LVU129
 460 0012 10BD     		pop	{r4, pc}
 461              	.LVL47:
 462              	.L26:
 463              	.LCFI9:
 464              		.cfi_def_cfa_offset 0
 465              		.cfi_restore 4
 466              		.cfi_restore 14
  72:Drivers/lvgl/src/misc/cache/lv_cache.c **** 
 467              		.loc 1 72 5 is_stmt 1 discriminator 1 view .LVU130
  72:Drivers/lvgl/src/misc/cache/lv_cache.c **** 
 468              		.loc 1 72 5 discriminator 1 view .LVU131
  72:Drivers/lvgl/src/misc/cache/lv_cache.c **** 
 469              		.loc 1 72 5 discriminator 1 view .LVU132
  72:Drivers/lvgl/src/misc/cache/lv_cache.c **** 
 470              		.loc 1 72 5 discriminator 1 view .LVU133
  72:Drivers/lvgl/src/misc/cache/lv_cache.c **** 
 471              		.loc 1 72 5 discriminator 1 view .LVU134
ARM GAS  /tmp/ccuBKat8.s 			page 17


 472 0014 FEE7     		b	.L26
 473              		.cfi_endproc
 474              	.LFE18:
 476              		.section	.text.lv_cache_acquire,"ax",%progbits
 477              		.align	1
 478              		.global	lv_cache_acquire
 479              		.syntax unified
 480              		.thumb
 481              		.thumb_func
 483              	lv_cache_acquire:
 484              	.LVL48:
 485              	.LFB19:
  82:Drivers/lvgl/src/misc/cache/lv_cache.c ****     LV_ASSERT_NULL(cache);
 486              		.loc 1 82 1 view -0
 487              		.cfi_startproc
 488              		@ args = 0, pretend = 0, frame = 0
 489              		@ frame_needed = 0, uses_anonymous_args = 0
  83:Drivers/lvgl/src/misc/cache/lv_cache.c ****     LV_ASSERT_NULL(key);
 490              		.loc 1 83 5 view .LVU136
  83:Drivers/lvgl/src/misc/cache/lv_cache.c ****     LV_ASSERT_NULL(key);
 491              		.loc 1 83 5 view .LVU137
 492 0000 70B1     		cbz	r0, .L31
 493 0002 0346     		mov	r3, r0
  83:Drivers/lvgl/src/misc/cache/lv_cache.c ****     LV_ASSERT_NULL(key);
 494              		.loc 1 83 5 discriminator 2 view .LVU138
  83:Drivers/lvgl/src/misc/cache/lv_cache.c ****     LV_ASSERT_NULL(key);
 495              		.loc 1 83 26 discriminator 2 view .LVU139
  84:Drivers/lvgl/src/misc/cache/lv_cache.c **** 
 496              		.loc 1 84 5 view .LVU140
  84:Drivers/lvgl/src/misc/cache/lv_cache.c **** 
 497              		.loc 1 84 5 view .LVU141
 498 0004 69B1     		cbz	r1, .L33
  82:Drivers/lvgl/src/misc/cache/lv_cache.c ****     LV_ASSERT_NULL(cache);
 499              		.loc 1 82 1 is_stmt 0 view .LVU142
 500 0006 10B5     		push	{r4, lr}
 501              	.LCFI10:
 502              		.cfi_def_cfa_offset 8
 503              		.cfi_offset 4, -8
 504              		.cfi_offset 14, -4
  84:Drivers/lvgl/src/misc/cache/lv_cache.c **** 
 505              		.loc 1 84 5 is_stmt 1 discriminator 2 view .LVU143
  84:Drivers/lvgl/src/misc/cache/lv_cache.c **** 
 506              		.loc 1 84 24 discriminator 2 view .LVU144
  86:Drivers/lvgl/src/misc/cache/lv_cache.c **** 
 507              		.loc 1 86 28 view .LVU145
  88:Drivers/lvgl/src/misc/cache/lv_cache.c **** 
 508              		.loc 1 88 5 view .LVU146
  90:Drivers/lvgl/src/misc/cache/lv_cache.c ****         lv_mutex_unlock(&cache->lock);
 509              		.loc 1 90 5 view .LVU147
  90:Drivers/lvgl/src/misc/cache/lv_cache.c ****         lv_mutex_unlock(&cache->lock);
 510              		.loc 1 90 13 is_stmt 0 view .LVU148
 511 0008 C068     		ldr	r0, [r0, #12]
 512              	.LVL49:
  90:Drivers/lvgl/src/misc/cache/lv_cache.c ****         lv_mutex_unlock(&cache->lock);
 513              		.loc 1 90 7 view .LVU149
 514 000a 58B1     		cbz	r0, .L36
  97:Drivers/lvgl/src/misc/cache/lv_cache.c ****     if(entry != NULL) {
ARM GAS  /tmp/ccuBKat8.s 			page 18


 515              		.loc 1 97 5 is_stmt 1 view .LVU150
  97:Drivers/lvgl/src/misc/cache/lv_cache.c ****     if(entry != NULL) {
 516              		.loc 1 97 37 is_stmt 0 view .LVU151
 517 000c 1868     		ldr	r0, [r3]
  97:Drivers/lvgl/src/misc/cache/lv_cache.c ****     if(entry != NULL) {
 518              		.loc 1 97 42 view .LVU152
 519 000e C468     		ldr	r4, [r0, #12]
  97:Drivers/lvgl/src/misc/cache/lv_cache.c ****     if(entry != NULL) {
 520              		.loc 1 97 32 view .LVU153
 521 0010 1846     		mov	r0, r3
 522 0012 A047     		blx	r4
 523              	.LVL50:
  98:Drivers/lvgl/src/misc/cache/lv_cache.c ****         lv_cache_entry_acquire_data(entry);
 524              		.loc 1 98 5 is_stmt 1 view .LVU154
  98:Drivers/lvgl/src/misc/cache/lv_cache.c ****         lv_cache_entry_acquire_data(entry);
 525              		.loc 1 98 7 is_stmt 0 view .LVU155
 526 0014 0446     		mov	r4, r0
 527 0016 08B1     		cbz	r0, .L29
  99:Drivers/lvgl/src/misc/cache/lv_cache.c ****     }
 528              		.loc 1 99 9 is_stmt 1 view .LVU156
 529 0018 FFF7FEFF 		bl	lv_cache_entry_acquire_data
 530              	.LVL51:
 101:Drivers/lvgl/src/misc/cache/lv_cache.c **** 
 531              		.loc 1 101 5 view .LVU157
 103:Drivers/lvgl/src/misc/cache/lv_cache.c ****     return entry;
 532              		.loc 1 103 26 view .LVU158
 104:Drivers/lvgl/src/misc/cache/lv_cache.c **** }
 533              		.loc 1 104 5 view .LVU159
 534              	.L29:
 105:Drivers/lvgl/src/misc/cache/lv_cache.c **** void lv_cache_release(lv_cache_t * cache, lv_cache_entry_t * entry, void * user_data)
 535              		.loc 1 105 1 is_stmt 0 view .LVU160
 536 001c 2046     		mov	r0, r4
 537 001e 10BD     		pop	{r4, pc}
 538              	.LVL52:
 539              	.L31:
 540              	.LCFI11:
 541              		.cfi_def_cfa_offset 0
 542              		.cfi_restore 4
 543              		.cfi_restore 14
  83:Drivers/lvgl/src/misc/cache/lv_cache.c ****     LV_ASSERT_NULL(key);
 544              		.loc 1 83 5 is_stmt 1 discriminator 1 view .LVU161
  83:Drivers/lvgl/src/misc/cache/lv_cache.c ****     LV_ASSERT_NULL(key);
 545              		.loc 1 83 5 discriminator 1 view .LVU162
  83:Drivers/lvgl/src/misc/cache/lv_cache.c ****     LV_ASSERT_NULL(key);
 546              		.loc 1 83 5 discriminator 1 view .LVU163
  83:Drivers/lvgl/src/misc/cache/lv_cache.c ****     LV_ASSERT_NULL(key);
 547              		.loc 1 83 5 discriminator 1 view .LVU164
  83:Drivers/lvgl/src/misc/cache/lv_cache.c ****     LV_ASSERT_NULL(key);
 548              		.loc 1 83 5 discriminator 1 view .LVU165
 549 0020 FEE7     		b	.L31
 550              	.L33:
  84:Drivers/lvgl/src/misc/cache/lv_cache.c **** 
 551              		.loc 1 84 5 discriminator 1 view .LVU166
  84:Drivers/lvgl/src/misc/cache/lv_cache.c **** 
 552              		.loc 1 84 5 discriminator 1 view .LVU167
  84:Drivers/lvgl/src/misc/cache/lv_cache.c **** 
 553              		.loc 1 84 5 discriminator 1 view .LVU168
ARM GAS  /tmp/ccuBKat8.s 			page 19


  84:Drivers/lvgl/src/misc/cache/lv_cache.c **** 
 554              		.loc 1 84 5 discriminator 1 view .LVU169
  84:Drivers/lvgl/src/misc/cache/lv_cache.c **** 
 555              		.loc 1 84 5 discriminator 1 view .LVU170
 556 0022 FEE7     		b	.L33
 557              	.LVL53:
 558              	.L36:
 559              	.LCFI12:
 560              		.cfi_def_cfa_offset 8
 561              		.cfi_offset 4, -8
 562              		.cfi_offset 14, -4
  94:Drivers/lvgl/src/misc/cache/lv_cache.c ****     }
 563              		.loc 1 94 16 is_stmt 0 view .LVU171
 564 0024 0024     		movs	r4, #0
 565 0026 F9E7     		b	.L29
 566              		.cfi_endproc
 567              	.LFE19:
 569              		.section	.text.lv_cache_release,"ax",%progbits
 570              		.align	1
 571              		.global	lv_cache_release
 572              		.syntax unified
 573              		.thumb
 574              		.thumb_func
 576              	lv_cache_release:
 577              	.LVL54:
 578              	.LFB20:
 107:Drivers/lvgl/src/misc/cache/lv_cache.c ****     LV_ASSERT_NULL(entry);
 579              		.loc 1 107 1 is_stmt 1 view -0
 580              		.cfi_startproc
 581              		@ args = 0, pretend = 0, frame = 0
 582              		@ frame_needed = 0, uses_anonymous_args = 0
 108:Drivers/lvgl/src/misc/cache/lv_cache.c **** 
 583              		.loc 1 108 5 view .LVU173
 108:Drivers/lvgl/src/misc/cache/lv_cache.c **** 
 584              		.loc 1 108 5 view .LVU174
 585 0000 61B1     		cbz	r1, .L41
 107:Drivers/lvgl/src/misc/cache/lv_cache.c ****     LV_ASSERT_NULL(entry);
 586              		.loc 1 107 1 is_stmt 0 view .LVU175
 587 0002 70B5     		push	{r4, r5, r6, lr}
 588              	.LCFI13:
 589              		.cfi_def_cfa_offset 16
 590              		.cfi_offset 4, -16
 591              		.cfi_offset 5, -12
 592              		.cfi_offset 6, -8
 593              		.cfi_offset 14, -4
 594 0004 0546     		mov	r5, r0
 595 0006 1446     		mov	r4, r2
 596 0008 0E46     		mov	r6, r1
 108:Drivers/lvgl/src/misc/cache/lv_cache.c **** 
 597              		.loc 1 108 5 is_stmt 1 discriminator 2 view .LVU176
 108:Drivers/lvgl/src/misc/cache/lv_cache.c **** 
 598              		.loc 1 108 26 discriminator 2 view .LVU177
 110:Drivers/lvgl/src/misc/cache/lv_cache.c **** 
 599              		.loc 1 110 28 view .LVU178
 112:Drivers/lvgl/src/misc/cache/lv_cache.c ****     lv_cache_entry_release_data(entry, user_data);
 600              		.loc 1 112 5 view .LVU179
 113:Drivers/lvgl/src/misc/cache/lv_cache.c **** 
ARM GAS  /tmp/ccuBKat8.s 			page 20


 601              		.loc 1 113 5 view .LVU180
 602 000a 1146     		mov	r1, r2
 603              	.LVL55:
 113:Drivers/lvgl/src/misc/cache/lv_cache.c **** 
 604              		.loc 1 113 5 is_stmt 0 view .LVU181
 605 000c 3046     		mov	r0, r6
 606              	.LVL56:
 113:Drivers/lvgl/src/misc/cache/lv_cache.c **** 
 607              		.loc 1 113 5 view .LVU182
 608 000e FFF7FEFF 		bl	lv_cache_entry_release_data
 609              	.LVL57:
 115:Drivers/lvgl/src/misc/cache/lv_cache.c ****         cache->ops.free_cb(lv_cache_entry_get_data(entry), user_data);
 610              		.loc 1 115 5 is_stmt 1 view .LVU183
 115:Drivers/lvgl/src/misc/cache/lv_cache.c ****         cache->ops.free_cb(lv_cache_entry_get_data(entry), user_data);
 611              		.loc 1 115 8 is_stmt 0 view .LVU184
 612 0012 3046     		mov	r0, r6
 613 0014 FFF7FEFF 		bl	lv_cache_entry_get_ref
 614              	.LVL58:
 115:Drivers/lvgl/src/misc/cache/lv_cache.c ****         cache->ops.free_cb(lv_cache_entry_get_data(entry), user_data);
 615              		.loc 1 115 7 discriminator 1 view .LVU185
 616 0018 08B1     		cbz	r0, .L45
 617              	.LVL59:
 618              	.L39:
 122:Drivers/lvgl/src/misc/cache/lv_cache.c **** lv_cache_entry_t * lv_cache_add(lv_cache_t * cache, const void * key, void * user_data)
 619              		.loc 1 122 1 view .LVU186
 620 001a 70BD     		pop	{r4, r5, r6, pc}
 621              	.LVL60:
 622              	.L41:
 623              	.LCFI14:
 624              		.cfi_def_cfa_offset 0
 625              		.cfi_restore 4
 626              		.cfi_restore 5
 627              		.cfi_restore 6
 628              		.cfi_restore 14
 108:Drivers/lvgl/src/misc/cache/lv_cache.c **** 
 629              		.loc 1 108 5 is_stmt 1 discriminator 1 view .LVU187
 108:Drivers/lvgl/src/misc/cache/lv_cache.c **** 
 630              		.loc 1 108 5 discriminator 1 view .LVU188
 108:Drivers/lvgl/src/misc/cache/lv_cache.c **** 
 631              		.loc 1 108 5 discriminator 1 view .LVU189
 108:Drivers/lvgl/src/misc/cache/lv_cache.c **** 
 632              		.loc 1 108 5 discriminator 1 view .LVU190
 108:Drivers/lvgl/src/misc/cache/lv_cache.c **** 
 633              		.loc 1 108 5 discriminator 1 view .LVU191
 634 001c FEE7     		b	.L41
 635              	.LVL61:
 636              	.L45:
 637              	.LCFI15:
 638              		.cfi_def_cfa_offset 16
 639              		.cfi_offset 4, -16
 640              		.cfi_offset 5, -12
 641              		.cfi_offset 6, -8
 642              		.cfi_offset 14, -4
 115:Drivers/lvgl/src/misc/cache/lv_cache.c ****         cache->ops.free_cb(lv_cache_entry_get_data(entry), user_data);
 643              		.loc 1 115 46 is_stmt 0 discriminator 1 view .LVU192
 644 001e 3046     		mov	r0, r6
 645 0020 FFF7FEFF 		bl	lv_cache_entry_is_invalid
ARM GAS  /tmp/ccuBKat8.s 			page 21


 646              	.LVL62:
 115:Drivers/lvgl/src/misc/cache/lv_cache.c ****         cache->ops.free_cb(lv_cache_entry_get_data(entry), user_data);
 647              		.loc 1 115 43 discriminator 1 view .LVU193
 648 0024 0028     		cmp	r0, #0
 649 0026 F8D0     		beq	.L39
 116:Drivers/lvgl/src/misc/cache/lv_cache.c ****         lv_cache_entry_delete(entry);
 650              		.loc 1 116 9 is_stmt 1 view .LVU194
 116:Drivers/lvgl/src/misc/cache/lv_cache.c ****         lv_cache_entry_delete(entry);
 651              		.loc 1 116 19 is_stmt 0 view .LVU195
 652 0028 AD69     		ldr	r5, [r5, #24]
 653              	.LVL63:
 116:Drivers/lvgl/src/misc/cache/lv_cache.c ****         lv_cache_entry_delete(entry);
 654              		.loc 1 116 9 view .LVU196
 655 002a 3046     		mov	r0, r6
 656 002c FFF7FEFF 		bl	lv_cache_entry_get_data
 657              	.LVL64:
 116:Drivers/lvgl/src/misc/cache/lv_cache.c ****         lv_cache_entry_delete(entry);
 658              		.loc 1 116 9 discriminator 1 view .LVU197
 659 0030 2146     		mov	r1, r4
 660 0032 A847     		blx	r5
 661              	.LVL65:
 117:Drivers/lvgl/src/misc/cache/lv_cache.c ****     }
 662              		.loc 1 117 9 is_stmt 1 view .LVU198
 663 0034 3046     		mov	r0, r6
 664 0036 FFF7FEFF 		bl	lv_cache_entry_delete
 665              	.LVL66:
 119:Drivers/lvgl/src/misc/cache/lv_cache.c **** 
 666              		.loc 1 119 5 view .LVU199
 121:Drivers/lvgl/src/misc/cache/lv_cache.c **** }
 667              		.loc 1 121 26 view .LVU200
 122:Drivers/lvgl/src/misc/cache/lv_cache.c **** lv_cache_entry_t * lv_cache_add(lv_cache_t * cache, const void * key, void * user_data)
 668              		.loc 1 122 1 is_stmt 0 view .LVU201
 669 003a EEE7     		b	.L39
 670              		.cfi_endproc
 671              	.LFE20:
 673              		.section	.text.lv_cache_add,"ax",%progbits
 674              		.align	1
 675              		.global	lv_cache_add
 676              		.syntax unified
 677              		.thumb
 678              		.thumb_func
 680              	lv_cache_add:
 681              	.LVL67:
 682              	.LFB21:
 124:Drivers/lvgl/src/misc/cache/lv_cache.c ****     LV_ASSERT_NULL(cache);
 683              		.loc 1 124 1 is_stmt 1 view -0
 684              		.cfi_startproc
 685              		@ args = 0, pretend = 0, frame = 0
 686              		@ frame_needed = 0, uses_anonymous_args = 0
 125:Drivers/lvgl/src/misc/cache/lv_cache.c ****     LV_ASSERT_NULL(key);
 687              		.loc 1 125 5 view .LVU203
 125:Drivers/lvgl/src/misc/cache/lv_cache.c ****     LV_ASSERT_NULL(key);
 688              		.loc 1 125 5 view .LVU204
 689 0000 68B1     		cbz	r0, .L48
 690 0002 0346     		mov	r3, r0
 125:Drivers/lvgl/src/misc/cache/lv_cache.c ****     LV_ASSERT_NULL(key);
 691              		.loc 1 125 5 discriminator 2 view .LVU205
ARM GAS  /tmp/ccuBKat8.s 			page 22


 125:Drivers/lvgl/src/misc/cache/lv_cache.c ****     LV_ASSERT_NULL(key);
 692              		.loc 1 125 26 discriminator 2 view .LVU206
 126:Drivers/lvgl/src/misc/cache/lv_cache.c **** 
 693              		.loc 1 126 5 view .LVU207
 126:Drivers/lvgl/src/misc/cache/lv_cache.c **** 
 694              		.loc 1 126 5 view .LVU208
 695 0004 61B1     		cbz	r1, .L50
 124:Drivers/lvgl/src/misc/cache/lv_cache.c ****     LV_ASSERT_NULL(cache);
 696              		.loc 1 124 1 is_stmt 0 view .LVU209
 697 0006 10B5     		push	{r4, lr}
 698              	.LCFI16:
 699              		.cfi_def_cfa_offset 8
 700              		.cfi_offset 4, -8
 701              		.cfi_offset 14, -4
 126:Drivers/lvgl/src/misc/cache/lv_cache.c **** 
 702              		.loc 1 126 5 is_stmt 1 discriminator 2 view .LVU210
 126:Drivers/lvgl/src/misc/cache/lv_cache.c **** 
 703              		.loc 1 126 24 discriminator 2 view .LVU211
 128:Drivers/lvgl/src/misc/cache/lv_cache.c **** 
 704              		.loc 1 128 28 view .LVU212
 130:Drivers/lvgl/src/misc/cache/lv_cache.c ****     if(cache->max_size == 0) {
 705              		.loc 1 130 5 view .LVU213
 131:Drivers/lvgl/src/misc/cache/lv_cache.c ****         lv_mutex_unlock(&cache->lock);
 706              		.loc 1 131 5 view .LVU214
 131:Drivers/lvgl/src/misc/cache/lv_cache.c ****         lv_mutex_unlock(&cache->lock);
 707              		.loc 1 131 13 is_stmt 0 view .LVU215
 708 0008 8068     		ldr	r0, [r0, #8]
 709              	.LVL68:
 131:Drivers/lvgl/src/misc/cache/lv_cache.c ****         lv_mutex_unlock(&cache->lock);
 710              		.loc 1 131 7 view .LVU216
 711 000a 50B1     		cbz	r0, .L53
 138:Drivers/lvgl/src/misc/cache/lv_cache.c ****     if(entry != NULL) {
 712              		.loc 1 138 5 is_stmt 1 view .LVU217
 138:Drivers/lvgl/src/misc/cache/lv_cache.c ****     if(entry != NULL) {
 713              		.loc 1 138 32 is_stmt 0 view .LVU218
 714 000c 1846     		mov	r0, r3
 715 000e FFF7FEFF 		bl	cache_add_internal_no_lock
 716              	.LVL69:
 139:Drivers/lvgl/src/misc/cache/lv_cache.c ****         lv_cache_entry_acquire_data(entry);
 717              		.loc 1 139 5 is_stmt 1 view .LVU219
 139:Drivers/lvgl/src/misc/cache/lv_cache.c ****         lv_cache_entry_acquire_data(entry);
 718              		.loc 1 139 7 is_stmt 0 view .LVU220
 719 0012 0446     		mov	r4, r0
 720 0014 08B1     		cbz	r0, .L46
 140:Drivers/lvgl/src/misc/cache/lv_cache.c ****     }
 721              		.loc 1 140 9 is_stmt 1 view .LVU221
 722 0016 FFF7FEFF 		bl	lv_cache_entry_acquire_data
 723              	.LVL70:
 142:Drivers/lvgl/src/misc/cache/lv_cache.c **** 
 724              		.loc 1 142 5 view .LVU222
 144:Drivers/lvgl/src/misc/cache/lv_cache.c ****     return entry;
 725              		.loc 1 144 26 view .LVU223
 145:Drivers/lvgl/src/misc/cache/lv_cache.c **** }
 726              		.loc 1 145 5 view .LVU224
 727              	.L46:
 146:Drivers/lvgl/src/misc/cache/lv_cache.c **** lv_cache_entry_t * lv_cache_acquire_or_create(lv_cache_t * cache, const void * key, void * user_dat
 728              		.loc 1 146 1 is_stmt 0 view .LVU225
ARM GAS  /tmp/ccuBKat8.s 			page 23


 729 001a 2046     		mov	r0, r4
 730 001c 10BD     		pop	{r4, pc}
 731              	.LVL71:
 732              	.L48:
 733              	.LCFI17:
 734              		.cfi_def_cfa_offset 0
 735              		.cfi_restore 4
 736              		.cfi_restore 14
 125:Drivers/lvgl/src/misc/cache/lv_cache.c ****     LV_ASSERT_NULL(key);
 737              		.loc 1 125 5 is_stmt 1 discriminator 1 view .LVU226
 125:Drivers/lvgl/src/misc/cache/lv_cache.c ****     LV_ASSERT_NULL(key);
 738              		.loc 1 125 5 discriminator 1 view .LVU227
 125:Drivers/lvgl/src/misc/cache/lv_cache.c ****     LV_ASSERT_NULL(key);
 739              		.loc 1 125 5 discriminator 1 view .LVU228
 125:Drivers/lvgl/src/misc/cache/lv_cache.c ****     LV_ASSERT_NULL(key);
 740              		.loc 1 125 5 discriminator 1 view .LVU229
 125:Drivers/lvgl/src/misc/cache/lv_cache.c ****     LV_ASSERT_NULL(key);
 741              		.loc 1 125 5 discriminator 1 view .LVU230
 742 001e FEE7     		b	.L48
 743              	.L50:
 126:Drivers/lvgl/src/misc/cache/lv_cache.c **** 
 744              		.loc 1 126 5 discriminator 1 view .LVU231
 126:Drivers/lvgl/src/misc/cache/lv_cache.c **** 
 745              		.loc 1 126 5 discriminator 1 view .LVU232
 126:Drivers/lvgl/src/misc/cache/lv_cache.c **** 
 746              		.loc 1 126 5 discriminator 1 view .LVU233
 126:Drivers/lvgl/src/misc/cache/lv_cache.c **** 
 747              		.loc 1 126 5 discriminator 1 view .LVU234
 126:Drivers/lvgl/src/misc/cache/lv_cache.c **** 
 748              		.loc 1 126 5 discriminator 1 view .LVU235
 749 0020 FEE7     		b	.L50
 750              	.LVL72:
 751              	.L53:
 752              	.LCFI18:
 753              		.cfi_def_cfa_offset 8
 754              		.cfi_offset 4, -8
 755              		.cfi_offset 14, -4
 135:Drivers/lvgl/src/misc/cache/lv_cache.c ****     }
 756              		.loc 1 135 16 is_stmt 0 view .LVU236
 757 0022 0024     		movs	r4, #0
 758 0024 F9E7     		b	.L46
 759              		.cfi_endproc
 760              	.LFE21:
 762              		.section	.text.lv_cache_acquire_or_create,"ax",%progbits
 763              		.align	1
 764              		.global	lv_cache_acquire_or_create
 765              		.syntax unified
 766              		.thumb
 767              		.thumb_func
 769              	lv_cache_acquire_or_create:
 770              	.LVL73:
 771              	.LFB22:
 148:Drivers/lvgl/src/misc/cache/lv_cache.c ****     LV_ASSERT_NULL(cache);
 772              		.loc 1 148 1 is_stmt 1 view -0
 773              		.cfi_startproc
 774              		@ args = 0, pretend = 0, frame = 0
 775              		@ frame_needed = 0, uses_anonymous_args = 0
ARM GAS  /tmp/ccuBKat8.s 			page 24


 149:Drivers/lvgl/src/misc/cache/lv_cache.c ****     LV_ASSERT_NULL(key);
 776              		.loc 1 149 5 view .LVU238
 149:Drivers/lvgl/src/misc/cache/lv_cache.c ****     LV_ASSERT_NULL(key);
 777              		.loc 1 149 5 view .LVU239
 778 0000 30B3     		cbz	r0, .L58
 148:Drivers/lvgl/src/misc/cache/lv_cache.c ****     LV_ASSERT_NULL(cache);
 779              		.loc 1 148 1 is_stmt 0 view .LVU240
 780 0002 F8B5     		push	{r3, r4, r5, r6, r7, lr}
 781              	.LCFI19:
 782              		.cfi_def_cfa_offset 24
 783              		.cfi_offset 3, -24
 784              		.cfi_offset 4, -20
 785              		.cfi_offset 5, -16
 786              		.cfi_offset 6, -12
 787              		.cfi_offset 7, -8
 788              		.cfi_offset 14, -4
 789 0004 0C46     		mov	r4, r1
 790 0006 1646     		mov	r6, r2
 791 0008 0546     		mov	r5, r0
 149:Drivers/lvgl/src/misc/cache/lv_cache.c ****     LV_ASSERT_NULL(key);
 792              		.loc 1 149 5 is_stmt 1 discriminator 2 view .LVU241
 149:Drivers/lvgl/src/misc/cache/lv_cache.c ****     LV_ASSERT_NULL(key);
 793              		.loc 1 149 26 discriminator 2 view .LVU242
 150:Drivers/lvgl/src/misc/cache/lv_cache.c **** 
 794              		.loc 1 150 5 view .LVU243
 150:Drivers/lvgl/src/misc/cache/lv_cache.c **** 
 795              		.loc 1 150 5 view .LVU244
 796 000a 11B3     		cbz	r1, .L60
 150:Drivers/lvgl/src/misc/cache/lv_cache.c **** 
 797              		.loc 1 150 5 discriminator 2 view .LVU245
 150:Drivers/lvgl/src/misc/cache/lv_cache.c **** 
 798              		.loc 1 150 24 discriminator 2 view .LVU246
 152:Drivers/lvgl/src/misc/cache/lv_cache.c **** 
 799              		.loc 1 152 28 view .LVU247
 154:Drivers/lvgl/src/misc/cache/lv_cache.c ****     lv_cache_entry_t * entry = NULL;
 800              		.loc 1 154 5 view .LVU248
 155:Drivers/lvgl/src/misc/cache/lv_cache.c **** 
 801              		.loc 1 155 5 view .LVU249
 802              	.LVL74:
 157:Drivers/lvgl/src/misc/cache/lv_cache.c ****         entry = cache->clz->get_cb(cache, key, user_data);
 803              		.loc 1 157 5 view .LVU250
 157:Drivers/lvgl/src/misc/cache/lv_cache.c ****         entry = cache->clz->get_cb(cache, key, user_data);
 804              		.loc 1 157 13 is_stmt 0 view .LVU251
 805 000c C368     		ldr	r3, [r0, #12]
 157:Drivers/lvgl/src/misc/cache/lv_cache.c ****         entry = cache->clz->get_cb(cache, key, user_data);
 806              		.loc 1 157 7 view .LVU252
 807 000e 23B1     		cbz	r3, .L61
 158:Drivers/lvgl/src/misc/cache/lv_cache.c ****         if(entry != NULL) {
 808              		.loc 1 158 9 is_stmt 1 view .LVU253
 158:Drivers/lvgl/src/misc/cache/lv_cache.c ****         if(entry != NULL) {
 809              		.loc 1 158 22 is_stmt 0 view .LVU254
 810 0010 0368     		ldr	r3, [r0]
 158:Drivers/lvgl/src/misc/cache/lv_cache.c ****         if(entry != NULL) {
 811              		.loc 1 158 27 view .LVU255
 812 0012 DB68     		ldr	r3, [r3, #12]
 158:Drivers/lvgl/src/misc/cache/lv_cache.c ****         if(entry != NULL) {
 813              		.loc 1 158 17 view .LVU256
ARM GAS  /tmp/ccuBKat8.s 			page 25


 814 0014 9847     		blx	r3
 815              	.LVL75:
 159:Drivers/lvgl/src/misc/cache/lv_cache.c ****             lv_cache_entry_acquire_data(entry);
 816              		.loc 1 159 9 is_stmt 1 view .LVU257
 159:Drivers/lvgl/src/misc/cache/lv_cache.c ****             lv_cache_entry_acquire_data(entry);
 817              		.loc 1 159 11 is_stmt 0 view .LVU258
 818 0016 0746     		mov	r7, r0
 819 0018 E0B9     		cbnz	r0, .L68
 820              	.LVL76:
 821              	.L61:
 168:Drivers/lvgl/src/misc/cache/lv_cache.c ****         lv_mutex_unlock(&cache->lock);
 822              		.loc 1 168 5 is_stmt 1 view .LVU259
 168:Drivers/lvgl/src/misc/cache/lv_cache.c ****         lv_mutex_unlock(&cache->lock);
 823              		.loc 1 168 13 is_stmt 0 view .LVU260
 824 001a AB68     		ldr	r3, [r5, #8]
 168:Drivers/lvgl/src/misc/cache/lv_cache.c ****         lv_mutex_unlock(&cache->lock);
 825              		.loc 1 168 7 view .LVU261
 826 001c 0BB3     		cbz	r3, .L65
 175:Drivers/lvgl/src/misc/cache/lv_cache.c ****     if(entry == NULL) {
 827              		.loc 1 175 5 is_stmt 1 view .LVU262
 175:Drivers/lvgl/src/misc/cache/lv_cache.c ****     if(entry == NULL) {
 828              		.loc 1 175 13 is_stmt 0 view .LVU263
 829 001e 3246     		mov	r2, r6
 830 0020 2146     		mov	r1, r4
 831 0022 2846     		mov	r0, r5
 832 0024 FFF7FEFF 		bl	cache_add_internal_no_lock
 833              	.LVL77:
 176:Drivers/lvgl/src/misc/cache/lv_cache.c ****         lv_mutex_unlock(&cache->lock);
 834              		.loc 1 176 5 is_stmt 1 view .LVU264
 176:Drivers/lvgl/src/misc/cache/lv_cache.c ****         lv_mutex_unlock(&cache->lock);
 835              		.loc 1 176 7 is_stmt 0 view .LVU265
 836 0028 0746     		mov	r7, r0
 837 002a 78B1     		cbz	r0, .L56
 182:Drivers/lvgl/src/misc/cache/lv_cache.c ****     if(create_res == false) {
 838              		.loc 1 182 5 is_stmt 1 view .LVU266
 182:Drivers/lvgl/src/misc/cache/lv_cache.c ****     if(create_res == false) {
 839              		.loc 1 182 33 is_stmt 0 view .LVU267
 840 002c 6C69     		ldr	r4, [r5, #20]
 841              	.LVL78:
 182:Drivers/lvgl/src/misc/cache/lv_cache.c ****     if(create_res == false) {
 842              		.loc 1 182 23 view .LVU268
 843 002e FFF7FEFF 		bl	lv_cache_entry_get_data
 844              	.LVL79:
 182:Drivers/lvgl/src/misc/cache/lv_cache.c ****     if(create_res == false) {
 845              		.loc 1 182 23 discriminator 1 view .LVU269
 846 0032 3146     		mov	r1, r6
 847 0034 A047     		blx	r4
 848              	.LVL80:
 183:Drivers/lvgl/src/misc/cache/lv_cache.c ****         cache->clz->remove_cb(cache, entry, user_data);
 849              		.loc 1 183 5 is_stmt 1 view .LVU270
 183:Drivers/lvgl/src/misc/cache/lv_cache.c ****         cache->clz->remove_cb(cache, entry, user_data);
 850              		.loc 1 183 7 is_stmt 0 view .LVU271
 851 0036 80B9     		cbnz	r0, .L63
 184:Drivers/lvgl/src/misc/cache/lv_cache.c ****         lv_cache_entry_delete(entry);
 852              		.loc 1 184 9 is_stmt 1 view .LVU272
 184:Drivers/lvgl/src/misc/cache/lv_cache.c ****         lv_cache_entry_delete(entry);
 853              		.loc 1 184 14 is_stmt 0 view .LVU273
ARM GAS  /tmp/ccuBKat8.s 			page 26


 854 0038 2B68     		ldr	r3, [r5]
 184:Drivers/lvgl/src/misc/cache/lv_cache.c ****         lv_cache_entry_delete(entry);
 855              		.loc 1 184 19 view .LVU274
 856 003a 5B69     		ldr	r3, [r3, #20]
 184:Drivers/lvgl/src/misc/cache/lv_cache.c ****         lv_cache_entry_delete(entry);
 857              		.loc 1 184 9 view .LVU275
 858 003c 3246     		mov	r2, r6
 859 003e 3946     		mov	r1, r7
 860 0040 2846     		mov	r0, r5
 861              	.LVL81:
 184:Drivers/lvgl/src/misc/cache/lv_cache.c ****         lv_cache_entry_delete(entry);
 862              		.loc 1 184 9 view .LVU276
 863 0042 9847     		blx	r3
 864              	.LVL82:
 185:Drivers/lvgl/src/misc/cache/lv_cache.c ****         entry = NULL;
 865              		.loc 1 185 9 is_stmt 1 view .LVU277
 866 0044 3846     		mov	r0, r7
 867 0046 FFF7FEFF 		bl	lv_cache_entry_delete
 868              	.LVL83:
 186:Drivers/lvgl/src/misc/cache/lv_cache.c ****     }
 869              		.loc 1 186 9 view .LVU278
 186:Drivers/lvgl/src/misc/cache/lv_cache.c ****     }
 870              		.loc 1 186 15 is_stmt 0 view .LVU279
 871 004a 0027     		movs	r7, #0
 872              	.LVL84:
 873              	.L56:
 195:Drivers/lvgl/src/misc/cache/lv_cache.c **** void lv_cache_reserve(lv_cache_t * cache, uint32_t reserved_size, void * user_data)
 874              		.loc 1 195 1 view .LVU280
 875 004c 3846     		mov	r0, r7
 876 004e F8BD     		pop	{r3, r4, r5, r6, r7, pc}
 877              	.LVL85:
 878              	.L58:
 879              	.LCFI20:
 880              		.cfi_def_cfa_offset 0
 881              		.cfi_restore 3
 882              		.cfi_restore 4
 883              		.cfi_restore 5
 884              		.cfi_restore 6
 885              		.cfi_restore 7
 886              		.cfi_restore 14
 149:Drivers/lvgl/src/misc/cache/lv_cache.c ****     LV_ASSERT_NULL(key);
 887              		.loc 1 149 5 is_stmt 1 discriminator 1 view .LVU281
 149:Drivers/lvgl/src/misc/cache/lv_cache.c ****     LV_ASSERT_NULL(key);
 888              		.loc 1 149 5 discriminator 1 view .LVU282
 149:Drivers/lvgl/src/misc/cache/lv_cache.c ****     LV_ASSERT_NULL(key);
 889              		.loc 1 149 5 discriminator 1 view .LVU283
 149:Drivers/lvgl/src/misc/cache/lv_cache.c ****     LV_ASSERT_NULL(key);
 890              		.loc 1 149 5 discriminator 1 view .LVU284
 149:Drivers/lvgl/src/misc/cache/lv_cache.c ****     LV_ASSERT_NULL(key);
 891              		.loc 1 149 5 discriminator 1 view .LVU285
 892 0050 FEE7     		b	.L58
 893              	.L60:
 894              	.LCFI21:
 895              		.cfi_def_cfa_offset 24
 896              		.cfi_offset 3, -24
 897              		.cfi_offset 4, -20
 898              		.cfi_offset 5, -16
ARM GAS  /tmp/ccuBKat8.s 			page 27


 899              		.cfi_offset 6, -12
 900              		.cfi_offset 7, -8
 901              		.cfi_offset 14, -4
 150:Drivers/lvgl/src/misc/cache/lv_cache.c **** 
 902              		.loc 1 150 5 discriminator 1 view .LVU286
 150:Drivers/lvgl/src/misc/cache/lv_cache.c **** 
 903              		.loc 1 150 5 discriminator 1 view .LVU287
 150:Drivers/lvgl/src/misc/cache/lv_cache.c **** 
 904              		.loc 1 150 5 discriminator 1 view .LVU288
 150:Drivers/lvgl/src/misc/cache/lv_cache.c **** 
 905              		.loc 1 150 5 discriminator 1 view .LVU289
 150:Drivers/lvgl/src/misc/cache/lv_cache.c **** 
 906              		.loc 1 150 5 discriminator 1 view .LVU290
 907 0052 FEE7     		b	.L60
 908              	.LVL86:
 909              	.L68:
 160:Drivers/lvgl/src/misc/cache/lv_cache.c ****             lv_mutex_unlock(&cache->lock);
 910              		.loc 1 160 13 view .LVU291
 911 0054 FFF7FEFF 		bl	lv_cache_entry_acquire_data
 912              	.LVL87:
 161:Drivers/lvgl/src/misc/cache/lv_cache.c **** 
 913              		.loc 1 161 13 view .LVU292
 163:Drivers/lvgl/src/misc/cache/lv_cache.c ****             return entry;
 914              		.loc 1 163 34 view .LVU293
 164:Drivers/lvgl/src/misc/cache/lv_cache.c ****         }
 915              		.loc 1 164 13 view .LVU294
 164:Drivers/lvgl/src/misc/cache/lv_cache.c ****         }
 916              		.loc 1 164 20 is_stmt 0 view .LVU295
 917 0058 F8E7     		b	.L56
 918              	.LVL88:
 919              	.L63:
 189:Drivers/lvgl/src/misc/cache/lv_cache.c ****     }
 920              		.loc 1 189 9 is_stmt 1 view .LVU296
 921 005a 3846     		mov	r0, r7
 922              	.LVL89:
 189:Drivers/lvgl/src/misc/cache/lv_cache.c ****     }
 923              		.loc 1 189 9 is_stmt 0 view .LVU297
 924 005c FFF7FEFF 		bl	lv_cache_entry_acquire_data
 925              	.LVL90:
 191:Drivers/lvgl/src/misc/cache/lv_cache.c **** 
 926              		.loc 1 191 5 is_stmt 1 view .LVU298
 193:Drivers/lvgl/src/misc/cache/lv_cache.c ****     return entry;
 927              		.loc 1 193 26 view .LVU299
 194:Drivers/lvgl/src/misc/cache/lv_cache.c **** }
 928              		.loc 1 194 5 view .LVU300
 194:Drivers/lvgl/src/misc/cache/lv_cache.c **** }
 929              		.loc 1 194 12 is_stmt 0 view .LVU301
 930 0060 F4E7     		b	.L56
 931              	.LVL91:
 932              	.L65:
 172:Drivers/lvgl/src/misc/cache/lv_cache.c ****     }
 933              		.loc 1 172 16 view .LVU302
 934 0062 0027     		movs	r7, #0
 935 0064 F2E7     		b	.L56
 936              		.cfi_endproc
 937              	.LFE22:
 939              		.section	.text.lv_cache_reserve,"ax",%progbits
ARM GAS  /tmp/ccuBKat8.s 			page 28


 940              		.align	1
 941              		.global	lv_cache_reserve
 942              		.syntax unified
 943              		.thumb
 944              		.thumb_func
 946              	lv_cache_reserve:
 947              	.LVL92:
 948              	.LFB23:
 197:Drivers/lvgl/src/misc/cache/lv_cache.c ****     LV_ASSERT_NULL(cache);
 949              		.loc 1 197 1 is_stmt 1 view -0
 950              		.cfi_startproc
 951              		@ args = 0, pretend = 0, frame = 0
 952              		@ frame_needed = 0, uses_anonymous_args = 0
 198:Drivers/lvgl/src/misc/cache/lv_cache.c **** 
 953              		.loc 1 198 5 view .LVU304
 198:Drivers/lvgl/src/misc/cache/lv_cache.c **** 
 954              		.loc 1 198 5 view .LVU305
 955 0000 50B1     		cbz	r0, .L71
 197:Drivers/lvgl/src/misc/cache/lv_cache.c ****     LV_ASSERT_NULL(cache);
 956              		.loc 1 197 1 is_stmt 0 view .LVU306
 957 0002 F8B5     		push	{r3, r4, r5, r6, r7, lr}
 958              	.LCFI22:
 959              		.cfi_def_cfa_offset 24
 960              		.cfi_offset 3, -24
 961              		.cfi_offset 4, -20
 962              		.cfi_offset 5, -16
 963              		.cfi_offset 6, -12
 964              		.cfi_offset 7, -8
 965              		.cfi_offset 14, -4
 966 0004 0F46     		mov	r7, r1
 967 0006 1546     		mov	r5, r2
 968 0008 0446     		mov	r4, r0
 198:Drivers/lvgl/src/misc/cache/lv_cache.c **** 
 969              		.loc 1 198 5 is_stmt 1 discriminator 2 view .LVU307
 198:Drivers/lvgl/src/misc/cache/lv_cache.c **** 
 970              		.loc 1 198 26 discriminator 2 view .LVU308
 200:Drivers/lvgl/src/misc/cache/lv_cache.c **** 
 971              		.loc 1 200 28 view .LVU309
 202:Drivers/lvgl/src/misc/cache/lv_cache.c ****         reserve_cond_res == LV_CACHE_RESERVE_COND_NEED_VICTIM;
 972              		.loc 1 202 5 view .LVU310
 973              	.LBB48:
 202:Drivers/lvgl/src/misc/cache/lv_cache.c ****         reserve_cond_res == LV_CACHE_RESERVE_COND_NEED_VICTIM;
 974              		.loc 1 202 9 view .LVU311
 202:Drivers/lvgl/src/misc/cache/lv_cache.c ****         reserve_cond_res == LV_CACHE_RESERVE_COND_NEED_VICTIM;
 975              		.loc 1 202 61 is_stmt 0 view .LVU312
 976 000a 0368     		ldr	r3, [r0]
 202:Drivers/lvgl/src/misc/cache/lv_cache.c ****         reserve_cond_res == LV_CACHE_RESERVE_COND_NEED_VICTIM;
 977              		.loc 1 202 66 view .LVU313
 978 000c 5E6A     		ldr	r6, [r3, #36]
 202:Drivers/lvgl/src/misc/cache/lv_cache.c ****         reserve_cond_res == LV_CACHE_RESERVE_COND_NEED_VICTIM;
 979              		.loc 1 202 56 view .LVU314
 980 000e 1346     		mov	r3, r2
 981 0010 0A46     		mov	r2, r1
 982              	.LVL93:
 202:Drivers/lvgl/src/misc/cache/lv_cache.c ****         reserve_cond_res == LV_CACHE_RESERVE_COND_NEED_VICTIM;
 983              		.loc 1 202 56 view .LVU315
 984 0012 0021     		movs	r1, #0
ARM GAS  /tmp/ccuBKat8.s 			page 29


 985              	.LVL94:
 202:Drivers/lvgl/src/misc/cache/lv_cache.c ****         reserve_cond_res == LV_CACHE_RESERVE_COND_NEED_VICTIM;
 986              		.loc 1 202 56 view .LVU316
 987 0014 B047     		blx	r6
 988              	.LVL95:
 202:Drivers/lvgl/src/misc/cache/lv_cache.c ****         reserve_cond_res == LV_CACHE_RESERVE_COND_NEED_VICTIM;
 989              		.loc 1 202 5 view .LVU317
 990 0016 0BE0     		b	.L72
 991              	.LVL96:
 992              	.L71:
 993              	.LCFI23:
 994              		.cfi_def_cfa_offset 0
 995              		.cfi_restore 3
 996              		.cfi_restore 4
 997              		.cfi_restore 5
 998              		.cfi_restore 6
 999              		.cfi_restore 7
 1000              		.cfi_restore 14
 202:Drivers/lvgl/src/misc/cache/lv_cache.c ****         reserve_cond_res == LV_CACHE_RESERVE_COND_NEED_VICTIM;
 1001              		.loc 1 202 5 view .LVU318
 1002              	.LBE48:
 198:Drivers/lvgl/src/misc/cache/lv_cache.c **** 
 1003              		.loc 1 198 5 is_stmt 1 discriminator 1 view .LVU319
 198:Drivers/lvgl/src/misc/cache/lv_cache.c **** 
 1004              		.loc 1 198 5 discriminator 1 view .LVU320
 198:Drivers/lvgl/src/misc/cache/lv_cache.c **** 
 1005              		.loc 1 198 5 discriminator 1 view .LVU321
 198:Drivers/lvgl/src/misc/cache/lv_cache.c **** 
 1006              		.loc 1 198 5 discriminator 1 view .LVU322
 198:Drivers/lvgl/src/misc/cache/lv_cache.c **** 
 1007              		.loc 1 198 5 discriminator 1 view .LVU323
 1008 0018 FEE7     		b	.L71
 1009              	.LVL97:
 1010              	.L73:
 1011              	.LCFI24:
 1012              		.cfi_def_cfa_offset 24
 1013              		.cfi_offset 3, -24
 1014              		.cfi_offset 4, -20
 1015              		.cfi_offset 5, -16
 1016              		.cfi_offset 6, -12
 1017              		.cfi_offset 7, -8
 1018              		.cfi_offset 14, -4
 1019              	.LBB49:
 205:Drivers/lvgl/src/misc/cache/lv_cache.c **** 
 1020              		.loc 1 205 9 view .LVU324
 1021 001a 2946     		mov	r1, r5
 1022 001c 2046     		mov	r0, r4
 1023              	.LVL98:
 205:Drivers/lvgl/src/misc/cache/lv_cache.c **** 
 1024              		.loc 1 205 9 is_stmt 0 view .LVU325
 1025 001e FFF7FEFF 		bl	cache_evict_one_internal_no_lock
 1026              	.LVL99:
 204:Drivers/lvgl/src/misc/cache/lv_cache.c ****         cache_evict_one_internal_no_lock(cache, user_data);
 1027              		.loc 1 204 26 is_stmt 1 view .LVU326
 204:Drivers/lvgl/src/misc/cache/lv_cache.c ****         cache_evict_one_internal_no_lock(cache, user_data);
 1028              		.loc 1 204 33 is_stmt 0 view .LVU327
 1029 0022 2368     		ldr	r3, [r4]
ARM GAS  /tmp/ccuBKat8.s 			page 30


 204:Drivers/lvgl/src/misc/cache/lv_cache.c ****         cache_evict_one_internal_no_lock(cache, user_data);
 1030              		.loc 1 204 38 view .LVU328
 1031 0024 5E6A     		ldr	r6, [r3, #36]
 204:Drivers/lvgl/src/misc/cache/lv_cache.c ****         cache_evict_one_internal_no_lock(cache, user_data);
 1032              		.loc 1 204 28 view .LVU329
 1033 0026 2B46     		mov	r3, r5
 1034 0028 3A46     		mov	r2, r7
 1035 002a 0021     		movs	r1, #0
 1036 002c 2046     		mov	r0, r4
 1037 002e B047     		blx	r6
 1038              	.LVL100:
 1039              	.L72:
 203:Drivers/lvgl/src/misc/cache/lv_cache.c ****         reserve_cond_res = cache->clz->reserve_cond_cb(cache, NULL, reserved_size, user_data))
 1040              		.loc 1 203 26 is_stmt 1 view .LVU330
 1041 0030 0228     		cmp	r0, #2
 1042 0032 F2D0     		beq	.L73
 1043              	.LBE49:
 208:Drivers/lvgl/src/misc/cache/lv_cache.c **** void lv_cache_drop(lv_cache_t * cache, const void * key, void * user_data)
 1044              		.loc 1 208 1 is_stmt 0 view .LVU331
 1045 0034 F8BD     		pop	{r3, r4, r5, r6, r7, pc}
 208:Drivers/lvgl/src/misc/cache/lv_cache.c **** void lv_cache_drop(lv_cache_t * cache, const void * key, void * user_data)
 1046              		.loc 1 208 1 view .LVU332
 1047              		.cfi_endproc
 1048              	.LFE23:
 1050              		.section	.text.lv_cache_drop,"ax",%progbits
 1051              		.align	1
 1052              		.global	lv_cache_drop
 1053              		.syntax unified
 1054              		.thumb
 1055              		.thumb_func
 1057              	lv_cache_drop:
 1058              	.LVL101:
 1059              	.LFB24:
 210:Drivers/lvgl/src/misc/cache/lv_cache.c ****     LV_ASSERT_NULL(cache);
 1060              		.loc 1 210 1 is_stmt 1 view -0
 1061              		.cfi_startproc
 1062              		@ args = 0, pretend = 0, frame = 0
 1063              		@ frame_needed = 0, uses_anonymous_args = 0
 211:Drivers/lvgl/src/misc/cache/lv_cache.c ****     LV_ASSERT_NULL(key);
 1064              		.loc 1 211 5 view .LVU334
 211:Drivers/lvgl/src/misc/cache/lv_cache.c ****     LV_ASSERT_NULL(key);
 1065              		.loc 1 211 5 view .LVU335
 1066 0000 20B1     		cbz	r0, .L78
 210:Drivers/lvgl/src/misc/cache/lv_cache.c ****     LV_ASSERT_NULL(cache);
 1067              		.loc 1 210 1 is_stmt 0 view .LVU336
 1068 0002 08B5     		push	{r3, lr}
 1069              	.LCFI25:
 1070              		.cfi_def_cfa_offset 8
 1071              		.cfi_offset 3, -8
 1072              		.cfi_offset 14, -4
 211:Drivers/lvgl/src/misc/cache/lv_cache.c ****     LV_ASSERT_NULL(key);
 1073              		.loc 1 211 5 is_stmt 1 discriminator 2 view .LVU337
 211:Drivers/lvgl/src/misc/cache/lv_cache.c ****     LV_ASSERT_NULL(key);
 1074              		.loc 1 211 26 discriminator 2 view .LVU338
 212:Drivers/lvgl/src/misc/cache/lv_cache.c **** 
 1075              		.loc 1 212 5 view .LVU339
 212:Drivers/lvgl/src/misc/cache/lv_cache.c **** 
ARM GAS  /tmp/ccuBKat8.s 			page 31


 1076              		.loc 1 212 5 view .LVU340
 1077 0004 19B1     		cbz	r1, .L80
 212:Drivers/lvgl/src/misc/cache/lv_cache.c **** 
 1078              		.loc 1 212 5 discriminator 2 view .LVU341
 212:Drivers/lvgl/src/misc/cache/lv_cache.c **** 
 1079              		.loc 1 212 24 discriminator 2 view .LVU342
 214:Drivers/lvgl/src/misc/cache/lv_cache.c **** 
 1080              		.loc 1 214 28 view .LVU343
 216:Drivers/lvgl/src/misc/cache/lv_cache.c ****     cache_drop_internal_no_lock(cache, key, user_data);
 1081              		.loc 1 216 5 view .LVU344
 217:Drivers/lvgl/src/misc/cache/lv_cache.c ****     lv_mutex_unlock(&cache->lock);
 1082              		.loc 1 217 5 view .LVU345
 1083 0006 FFF7FEFF 		bl	cache_drop_internal_no_lock
 1084              	.LVL102:
 218:Drivers/lvgl/src/misc/cache/lv_cache.c **** 
 1085              		.loc 1 218 5 view .LVU346
 220:Drivers/lvgl/src/misc/cache/lv_cache.c **** }
 1086              		.loc 1 220 26 view .LVU347
 221:Drivers/lvgl/src/misc/cache/lv_cache.c **** bool lv_cache_evict_one(lv_cache_t * cache, void * user_data)
 1087              		.loc 1 221 1 is_stmt 0 view .LVU348
 1088 000a 08BD     		pop	{r3, pc}
 1089              	.LVL103:
 1090              	.L78:
 1091              	.LCFI26:
 1092              		.cfi_def_cfa_offset 0
 1093              		.cfi_restore 3
 1094              		.cfi_restore 14
 211:Drivers/lvgl/src/misc/cache/lv_cache.c ****     LV_ASSERT_NULL(key);
 1095              		.loc 1 211 5 is_stmt 1 discriminator 1 view .LVU349
 211:Drivers/lvgl/src/misc/cache/lv_cache.c ****     LV_ASSERT_NULL(key);
 1096              		.loc 1 211 5 discriminator 1 view .LVU350
 211:Drivers/lvgl/src/misc/cache/lv_cache.c ****     LV_ASSERT_NULL(key);
 1097              		.loc 1 211 5 discriminator 1 view .LVU351
 211:Drivers/lvgl/src/misc/cache/lv_cache.c ****     LV_ASSERT_NULL(key);
 1098              		.loc 1 211 5 discriminator 1 view .LVU352
 211:Drivers/lvgl/src/misc/cache/lv_cache.c ****     LV_ASSERT_NULL(key);
 1099              		.loc 1 211 5 discriminator 1 view .LVU353
 1100 000c FEE7     		b	.L78
 1101              	.L80:
 1102              	.LCFI27:
 1103              		.cfi_def_cfa_offset 8
 1104              		.cfi_offset 3, -8
 1105              		.cfi_offset 14, -4
 212:Drivers/lvgl/src/misc/cache/lv_cache.c **** 
 1106              		.loc 1 212 5 discriminator 1 view .LVU354
 212:Drivers/lvgl/src/misc/cache/lv_cache.c **** 
 1107              		.loc 1 212 5 discriminator 1 view .LVU355
 212:Drivers/lvgl/src/misc/cache/lv_cache.c **** 
 1108              		.loc 1 212 5 discriminator 1 view .LVU356
 212:Drivers/lvgl/src/misc/cache/lv_cache.c **** 
 1109              		.loc 1 212 5 discriminator 1 view .LVU357
 212:Drivers/lvgl/src/misc/cache/lv_cache.c **** 
 1110              		.loc 1 212 5 discriminator 1 view .LVU358
 1111 000e FEE7     		b	.L80
 1112              		.cfi_endproc
 1113              	.LFE24:
 1115              		.section	.text.lv_cache_evict_one,"ax",%progbits
ARM GAS  /tmp/ccuBKat8.s 			page 32


 1116              		.align	1
 1117              		.global	lv_cache_evict_one
 1118              		.syntax unified
 1119              		.thumb
 1120              		.thumb_func
 1122              	lv_cache_evict_one:
 1123              	.LVL104:
 1124              	.LFB25:
 223:Drivers/lvgl/src/misc/cache/lv_cache.c ****     LV_ASSERT_NULL(cache);
 1125              		.loc 1 223 1 view -0
 1126              		.cfi_startproc
 1127              		@ args = 0, pretend = 0, frame = 0
 1128              		@ frame_needed = 0, uses_anonymous_args = 0
 224:Drivers/lvgl/src/misc/cache/lv_cache.c **** 
 1129              		.loc 1 224 5 view .LVU360
 224:Drivers/lvgl/src/misc/cache/lv_cache.c **** 
 1130              		.loc 1 224 5 view .LVU361
 1131 0000 18B1     		cbz	r0, .L85
 223:Drivers/lvgl/src/misc/cache/lv_cache.c ****     LV_ASSERT_NULL(cache);
 1132              		.loc 1 223 1 is_stmt 0 view .LVU362
 1133 0002 08B5     		push	{r3, lr}
 1134              	.LCFI28:
 1135              		.cfi_def_cfa_offset 8
 1136              		.cfi_offset 3, -8
 1137              		.cfi_offset 14, -4
 224:Drivers/lvgl/src/misc/cache/lv_cache.c **** 
 1138              		.loc 1 224 5 is_stmt 1 discriminator 2 view .LVU363
 224:Drivers/lvgl/src/misc/cache/lv_cache.c **** 
 1139              		.loc 1 224 26 discriminator 2 view .LVU364
 226:Drivers/lvgl/src/misc/cache/lv_cache.c **** 
 1140              		.loc 1 226 28 view .LVU365
 228:Drivers/lvgl/src/misc/cache/lv_cache.c ****     bool res = cache_evict_one_internal_no_lock(cache, user_data);
 1141              		.loc 1 228 5 view .LVU366
 229:Drivers/lvgl/src/misc/cache/lv_cache.c ****     lv_mutex_unlock(&cache->lock);
 1142              		.loc 1 229 5 view .LVU367
 229:Drivers/lvgl/src/misc/cache/lv_cache.c ****     lv_mutex_unlock(&cache->lock);
 1143              		.loc 1 229 16 is_stmt 0 view .LVU368
 1144 0004 FFF7FEFF 		bl	cache_evict_one_internal_no_lock
 1145              	.LVL105:
 230:Drivers/lvgl/src/misc/cache/lv_cache.c **** 
 1146              		.loc 1 230 5 is_stmt 1 view .LVU369
 232:Drivers/lvgl/src/misc/cache/lv_cache.c ****     return res;
 1147              		.loc 1 232 26 view .LVU370
 233:Drivers/lvgl/src/misc/cache/lv_cache.c **** }
 1148              		.loc 1 233 5 view .LVU371
 234:Drivers/lvgl/src/misc/cache/lv_cache.c **** void lv_cache_drop_all(lv_cache_t * cache, void * user_data)
 1149              		.loc 1 234 1 is_stmt 0 view .LVU372
 1150 0008 08BD     		pop	{r3, pc}
 1151              	.LVL106:
 1152              	.L85:
 1153              	.LCFI29:
 1154              		.cfi_def_cfa_offset 0
 1155              		.cfi_restore 3
 1156              		.cfi_restore 14
 224:Drivers/lvgl/src/misc/cache/lv_cache.c **** 
 1157              		.loc 1 224 5 is_stmt 1 discriminator 1 view .LVU373
 224:Drivers/lvgl/src/misc/cache/lv_cache.c **** 
ARM GAS  /tmp/ccuBKat8.s 			page 33


 1158              		.loc 1 224 5 discriminator 1 view .LVU374
 224:Drivers/lvgl/src/misc/cache/lv_cache.c **** 
 1159              		.loc 1 224 5 discriminator 1 view .LVU375
 224:Drivers/lvgl/src/misc/cache/lv_cache.c **** 
 1160              		.loc 1 224 5 discriminator 1 view .LVU376
 224:Drivers/lvgl/src/misc/cache/lv_cache.c **** 
 1161              		.loc 1 224 5 discriminator 1 view .LVU377
 1162 000a FEE7     		b	.L85
 1163              		.cfi_endproc
 1164              	.LFE25:
 1166              		.section	.text.lv_cache_drop_all,"ax",%progbits
 1167              		.align	1
 1168              		.global	lv_cache_drop_all
 1169              		.syntax unified
 1170              		.thumb
 1171              		.thumb_func
 1173              	lv_cache_drop_all:
 1174              	.LVL107:
 1175              	.LFB26:
 236:Drivers/lvgl/src/misc/cache/lv_cache.c ****     LV_ASSERT_NULL(cache);
 1176              		.loc 1 236 1 view -0
 1177              		.cfi_startproc
 1178              		@ args = 0, pretend = 0, frame = 0
 1179              		@ frame_needed = 0, uses_anonymous_args = 0
 237:Drivers/lvgl/src/misc/cache/lv_cache.c **** 
 1180              		.loc 1 237 5 view .LVU379
 237:Drivers/lvgl/src/misc/cache/lv_cache.c **** 
 1181              		.loc 1 237 5 view .LVU380
 1182 0000 20B1     		cbz	r0, .L90
 236:Drivers/lvgl/src/misc/cache/lv_cache.c ****     LV_ASSERT_NULL(cache);
 1183              		.loc 1 236 1 is_stmt 0 view .LVU381
 1184 0002 08B5     		push	{r3, lr}
 1185              	.LCFI30:
 1186              		.cfi_def_cfa_offset 8
 1187              		.cfi_offset 3, -8
 1188              		.cfi_offset 14, -4
 237:Drivers/lvgl/src/misc/cache/lv_cache.c **** 
 1189              		.loc 1 237 5 is_stmt 1 discriminator 2 view .LVU382
 237:Drivers/lvgl/src/misc/cache/lv_cache.c **** 
 1190              		.loc 1 237 26 discriminator 2 view .LVU383
 239:Drivers/lvgl/src/misc/cache/lv_cache.c **** 
 1191              		.loc 1 239 28 view .LVU384
 241:Drivers/lvgl/src/misc/cache/lv_cache.c ****     cache->clz->drop_all_cb(cache, user_data);
 1192              		.loc 1 241 5 view .LVU385
 242:Drivers/lvgl/src/misc/cache/lv_cache.c ****     lv_mutex_unlock(&cache->lock);
 1193              		.loc 1 242 5 view .LVU386
 242:Drivers/lvgl/src/misc/cache/lv_cache.c ****     lv_mutex_unlock(&cache->lock);
 1194              		.loc 1 242 10 is_stmt 0 view .LVU387
 1195 0004 0268     		ldr	r2, [r0]
 242:Drivers/lvgl/src/misc/cache/lv_cache.c ****     lv_mutex_unlock(&cache->lock);
 1196              		.loc 1 242 15 view .LVU388
 1197 0006 D269     		ldr	r2, [r2, #28]
 242:Drivers/lvgl/src/misc/cache/lv_cache.c ****     lv_mutex_unlock(&cache->lock);
 1198              		.loc 1 242 5 view .LVU389
 1199 0008 9047     		blx	r2
 1200              	.LVL108:
 243:Drivers/lvgl/src/misc/cache/lv_cache.c **** 
ARM GAS  /tmp/ccuBKat8.s 			page 34


 1201              		.loc 1 243 5 is_stmt 1 view .LVU390
 245:Drivers/lvgl/src/misc/cache/lv_cache.c **** }
 1202              		.loc 1 245 26 view .LVU391
 246:Drivers/lvgl/src/misc/cache/lv_cache.c **** 
 1203              		.loc 1 246 1 is_stmt 0 view .LVU392
 1204 000a 08BD     		pop	{r3, pc}
 1205              	.LVL109:
 1206              	.L90:
 1207              	.LCFI31:
 1208              		.cfi_def_cfa_offset 0
 1209              		.cfi_restore 3
 1210              		.cfi_restore 14
 237:Drivers/lvgl/src/misc/cache/lv_cache.c **** 
 1211              		.loc 1 237 5 is_stmt 1 discriminator 1 view .LVU393
 237:Drivers/lvgl/src/misc/cache/lv_cache.c **** 
 1212              		.loc 1 237 5 discriminator 1 view .LVU394
 237:Drivers/lvgl/src/misc/cache/lv_cache.c **** 
 1213              		.loc 1 237 5 discriminator 1 view .LVU395
 237:Drivers/lvgl/src/misc/cache/lv_cache.c **** 
 1214              		.loc 1 237 5 discriminator 1 view .LVU396
 237:Drivers/lvgl/src/misc/cache/lv_cache.c **** 
 1215              		.loc 1 237 5 discriminator 1 view .LVU397
 1216 000c FEE7     		b	.L90
 1217              		.cfi_endproc
 1218              	.LFE26:
 1220              		.section	.text.lv_cache_set_max_size,"ax",%progbits
 1221              		.align	1
 1222              		.global	lv_cache_set_max_size
 1223              		.syntax unified
 1224              		.thumb
 1225              		.thumb_func
 1227              	lv_cache_set_max_size:
 1228              	.LVL110:
 1229              	.LFB27:
 249:Drivers/lvgl/src/misc/cache/lv_cache.c ****     LV_UNUSED(user_data);
 1230              		.loc 1 249 1 view -0
 1231              		.cfi_startproc
 1232              		@ args = 0, pretend = 0, frame = 0
 1233              		@ frame_needed = 0, uses_anonymous_args = 0
 1234              		@ link register save eliminated.
 250:Drivers/lvgl/src/misc/cache/lv_cache.c ****     cache->max_size = max_size;
 1235              		.loc 1 250 5 view .LVU399
 251:Drivers/lvgl/src/misc/cache/lv_cache.c **** }
 1236              		.loc 1 251 5 view .LVU400
 251:Drivers/lvgl/src/misc/cache/lv_cache.c **** }
 1237              		.loc 1 251 21 is_stmt 0 view .LVU401
 1238 0000 8160     		str	r1, [r0, #8]
 252:Drivers/lvgl/src/misc/cache/lv_cache.c **** size_t lv_cache_get_max_size(lv_cache_t * cache, void * user_data)
 1239              		.loc 1 252 1 view .LVU402
 1240 0002 7047     		bx	lr
 1241              		.cfi_endproc
 1242              	.LFE27:
 1244              		.section	.text.lv_cache_get_max_size,"ax",%progbits
 1245              		.align	1
 1246              		.global	lv_cache_get_max_size
 1247              		.syntax unified
 1248              		.thumb
ARM GAS  /tmp/ccuBKat8.s 			page 35


 1249              		.thumb_func
 1251              	lv_cache_get_max_size:
 1252              	.LVL111:
 1253              	.LFB28:
 254:Drivers/lvgl/src/misc/cache/lv_cache.c ****     LV_UNUSED(user_data);
 1254              		.loc 1 254 1 is_stmt 1 view -0
 1255              		.cfi_startproc
 1256              		@ args = 0, pretend = 0, frame = 0
 1257              		@ frame_needed = 0, uses_anonymous_args = 0
 1258              		@ link register save eliminated.
 255:Drivers/lvgl/src/misc/cache/lv_cache.c ****     return cache->max_size;
 1259              		.loc 1 255 5 view .LVU404
 256:Drivers/lvgl/src/misc/cache/lv_cache.c **** }
 1260              		.loc 1 256 5 view .LVU405
 257:Drivers/lvgl/src/misc/cache/lv_cache.c **** size_t lv_cache_get_size(lv_cache_t * cache, void * user_data)
 1261              		.loc 1 257 1 is_stmt 0 view .LVU406
 1262 0000 8068     		ldr	r0, [r0, #8]
 1263              	.LVL112:
 257:Drivers/lvgl/src/misc/cache/lv_cache.c **** size_t lv_cache_get_size(lv_cache_t * cache, void * user_data)
 1264              		.loc 1 257 1 view .LVU407
 1265 0002 7047     		bx	lr
 1266              		.cfi_endproc
 1267              	.LFE28:
 1269              		.section	.text.lv_cache_get_size,"ax",%progbits
 1270              		.align	1
 1271              		.global	lv_cache_get_size
 1272              		.syntax unified
 1273              		.thumb
 1274              		.thumb_func
 1276              	lv_cache_get_size:
 1277              	.LVL113:
 1278              	.LFB29:
 259:Drivers/lvgl/src/misc/cache/lv_cache.c ****     LV_UNUSED(user_data);
 1279              		.loc 1 259 1 is_stmt 1 view -0
 1280              		.cfi_startproc
 1281              		@ args = 0, pretend = 0, frame = 0
 1282              		@ frame_needed = 0, uses_anonymous_args = 0
 1283              		@ link register save eliminated.
 260:Drivers/lvgl/src/misc/cache/lv_cache.c ****     return cache->size;
 1284              		.loc 1 260 5 view .LVU409
 261:Drivers/lvgl/src/misc/cache/lv_cache.c **** }
 1285              		.loc 1 261 5 view .LVU410
 262:Drivers/lvgl/src/misc/cache/lv_cache.c **** size_t lv_cache_get_free_size(lv_cache_t * cache, void * user_data)
 1286              		.loc 1 262 1 is_stmt 0 view .LVU411
 1287 0000 C068     		ldr	r0, [r0, #12]
 1288              	.LVL114:
 262:Drivers/lvgl/src/misc/cache/lv_cache.c **** size_t lv_cache_get_free_size(lv_cache_t * cache, void * user_data)
 1289              		.loc 1 262 1 view .LVU412
 1290 0002 7047     		bx	lr
 1291              		.cfi_endproc
 1292              	.LFE29:
 1294              		.section	.text.lv_cache_get_free_size,"ax",%progbits
 1295              		.align	1
 1296              		.global	lv_cache_get_free_size
 1297              		.syntax unified
 1298              		.thumb
 1299              		.thumb_func
ARM GAS  /tmp/ccuBKat8.s 			page 36


 1301              	lv_cache_get_free_size:
 1302              	.LVL115:
 1303              	.LFB30:
 264:Drivers/lvgl/src/misc/cache/lv_cache.c ****     LV_UNUSED(user_data);
 1304              		.loc 1 264 1 is_stmt 1 view -0
 1305              		.cfi_startproc
 1306              		@ args = 0, pretend = 0, frame = 0
 1307              		@ frame_needed = 0, uses_anonymous_args = 0
 1308              		@ link register save eliminated.
 265:Drivers/lvgl/src/misc/cache/lv_cache.c ****     return cache->max_size - cache->size;
 1309              		.loc 1 265 5 view .LVU414
 266:Drivers/lvgl/src/misc/cache/lv_cache.c **** }
 1310              		.loc 1 266 5 view .LVU415
 266:Drivers/lvgl/src/misc/cache/lv_cache.c **** }
 1311              		.loc 1 266 17 is_stmt 0 view .LVU416
 1312 0000 8268     		ldr	r2, [r0, #8]
 266:Drivers/lvgl/src/misc/cache/lv_cache.c **** }
 1313              		.loc 1 266 35 view .LVU417
 1314 0002 C068     		ldr	r0, [r0, #12]
 1315              	.LVL116:
 267:Drivers/lvgl/src/misc/cache/lv_cache.c **** bool lv_cache_is_enabled(lv_cache_t * cache)
 1316              		.loc 1 267 1 view .LVU418
 1317 0004 101A     		subs	r0, r2, r0
 1318 0006 7047     		bx	lr
 1319              		.cfi_endproc
 1320              	.LFE30:
 1322              		.section	.text.lv_cache_is_enabled,"ax",%progbits
 1323              		.align	1
 1324              		.global	lv_cache_is_enabled
 1325              		.syntax unified
 1326              		.thumb
 1327              		.thumb_func
 1329              	lv_cache_is_enabled:
 1330              	.LVL117:
 1331              	.LFB31:
 269:Drivers/lvgl/src/misc/cache/lv_cache.c ****     return cache->max_size > 0;
 1332              		.loc 1 269 1 is_stmt 1 view -0
 1333              		.cfi_startproc
 1334              		@ args = 0, pretend = 0, frame = 0
 1335              		@ frame_needed = 0, uses_anonymous_args = 0
 1336              		@ link register save eliminated.
 270:Drivers/lvgl/src/misc/cache/lv_cache.c **** }
 1337              		.loc 1 270 5 view .LVU420
 270:Drivers/lvgl/src/misc/cache/lv_cache.c **** }
 1338              		.loc 1 270 17 is_stmt 0 view .LVU421
 1339 0000 8068     		ldr	r0, [r0, #8]
 1340              	.LVL118:
 271:Drivers/lvgl/src/misc/cache/lv_cache.c **** void lv_cache_set_compare_cb(lv_cache_t * cache, lv_cache_compare_cb_t compare_cb, void * user_data
 1341              		.loc 1 271 1 view .LVU422
 1342 0002 0038     		subs	r0, r0, #0
 1343 0004 18BF     		it	ne
 1344 0006 0120     		movne	r0, #1
 1345 0008 7047     		bx	lr
 1346              		.cfi_endproc
 1347              	.LFE31:
 1349              		.section	.text.lv_cache_set_compare_cb,"ax",%progbits
 1350              		.align	1
ARM GAS  /tmp/ccuBKat8.s 			page 37


 1351              		.global	lv_cache_set_compare_cb
 1352              		.syntax unified
 1353              		.thumb
 1354              		.thumb_func
 1356              	lv_cache_set_compare_cb:
 1357              	.LVL119:
 1358              	.LFB32:
 273:Drivers/lvgl/src/misc/cache/lv_cache.c ****     LV_UNUSED(user_data);
 1359              		.loc 1 273 1 is_stmt 1 view -0
 1360              		.cfi_startproc
 1361              		@ args = 0, pretend = 0, frame = 0
 1362              		@ frame_needed = 0, uses_anonymous_args = 0
 1363              		@ link register save eliminated.
 274:Drivers/lvgl/src/misc/cache/lv_cache.c ****     cache->ops.compare_cb = compare_cb;
 1364              		.loc 1 274 5 view .LVU424
 275:Drivers/lvgl/src/misc/cache/lv_cache.c **** }
 1365              		.loc 1 275 5 view .LVU425
 275:Drivers/lvgl/src/misc/cache/lv_cache.c **** }
 1366              		.loc 1 275 27 is_stmt 0 view .LVU426
 1367 0000 0161     		str	r1, [r0, #16]
 276:Drivers/lvgl/src/misc/cache/lv_cache.c **** void lv_cache_set_create_cb(lv_cache_t * cache, lv_cache_create_cb_t alloc_cb, void * user_data)
 1368              		.loc 1 276 1 view .LVU427
 1369 0002 7047     		bx	lr
 1370              		.cfi_endproc
 1371              	.LFE32:
 1373              		.section	.text.lv_cache_set_create_cb,"ax",%progbits
 1374              		.align	1
 1375              		.global	lv_cache_set_create_cb
 1376              		.syntax unified
 1377              		.thumb
 1378              		.thumb_func
 1380              	lv_cache_set_create_cb:
 1381              	.LVL120:
 1382              	.LFB33:
 278:Drivers/lvgl/src/misc/cache/lv_cache.c ****     LV_UNUSED(user_data);
 1383              		.loc 1 278 1 is_stmt 1 view -0
 1384              		.cfi_startproc
 1385              		@ args = 0, pretend = 0, frame = 0
 1386              		@ frame_needed = 0, uses_anonymous_args = 0
 1387              		@ link register save eliminated.
 279:Drivers/lvgl/src/misc/cache/lv_cache.c ****     cache->ops.create_cb = alloc_cb;
 1388              		.loc 1 279 5 view .LVU429
 280:Drivers/lvgl/src/misc/cache/lv_cache.c **** }
 1389              		.loc 1 280 5 view .LVU430
 280:Drivers/lvgl/src/misc/cache/lv_cache.c **** }
 1390              		.loc 1 280 26 is_stmt 0 view .LVU431
 1391 0000 4161     		str	r1, [r0, #20]
 281:Drivers/lvgl/src/misc/cache/lv_cache.c **** void lv_cache_set_free_cb(lv_cache_t * cache, lv_cache_free_cb_t free_cb, void * user_data)
 1392              		.loc 1 281 1 view .LVU432
 1393 0002 7047     		bx	lr
 1394              		.cfi_endproc
 1395              	.LFE33:
 1397              		.section	.text.lv_cache_set_free_cb,"ax",%progbits
 1398              		.align	1
 1399              		.global	lv_cache_set_free_cb
 1400              		.syntax unified
 1401              		.thumb
ARM GAS  /tmp/ccuBKat8.s 			page 38


 1402              		.thumb_func
 1404              	lv_cache_set_free_cb:
 1405              	.LVL121:
 1406              	.LFB34:
 283:Drivers/lvgl/src/misc/cache/lv_cache.c ****     LV_UNUSED(user_data);
 1407              		.loc 1 283 1 is_stmt 1 view -0
 1408              		.cfi_startproc
 1409              		@ args = 0, pretend = 0, frame = 0
 1410              		@ frame_needed = 0, uses_anonymous_args = 0
 1411              		@ link register save eliminated.
 284:Drivers/lvgl/src/misc/cache/lv_cache.c ****     cache->ops.free_cb = free_cb;
 1412              		.loc 1 284 5 view .LVU434
 285:Drivers/lvgl/src/misc/cache/lv_cache.c **** }
 1413              		.loc 1 285 5 view .LVU435
 285:Drivers/lvgl/src/misc/cache/lv_cache.c **** }
 1414              		.loc 1 285 24 is_stmt 0 view .LVU436
 1415 0000 8161     		str	r1, [r0, #24]
 286:Drivers/lvgl/src/misc/cache/lv_cache.c **** void lv_cache_set_name(lv_cache_t * cache, const char * name)
 1416              		.loc 1 286 1 view .LVU437
 1417 0002 7047     		bx	lr
 1418              		.cfi_endproc
 1419              	.LFE34:
 1421              		.section	.text.lv_cache_set_name,"ax",%progbits
 1422              		.align	1
 1423              		.global	lv_cache_set_name
 1424              		.syntax unified
 1425              		.thumb
 1426              		.thumb_func
 1428              	lv_cache_set_name:
 1429              	.LVL122:
 1430              	.LFB35:
 288:Drivers/lvgl/src/misc/cache/lv_cache.c ****     if(cache == NULL) return;
 1431              		.loc 1 288 1 is_stmt 1 view -0
 1432              		.cfi_startproc
 1433              		@ args = 0, pretend = 0, frame = 0
 1434              		@ frame_needed = 0, uses_anonymous_args = 0
 1435              		@ link register save eliminated.
 289:Drivers/lvgl/src/misc/cache/lv_cache.c ****     cache->name = name;
 1436              		.loc 1 289 5 view .LVU439
 289:Drivers/lvgl/src/misc/cache/lv_cache.c ****     cache->name = name;
 1437              		.loc 1 289 7 is_stmt 0 view .LVU440
 1438 0000 00B1     		cbz	r0, .L101
 290:Drivers/lvgl/src/misc/cache/lv_cache.c **** }
 1439              		.loc 1 290 5 is_stmt 1 view .LVU441
 290:Drivers/lvgl/src/misc/cache/lv_cache.c **** }
 1440              		.loc 1 290 17 is_stmt 0 view .LVU442
 1441 0002 0162     		str	r1, [r0, #32]
 1442              	.L101:
 291:Drivers/lvgl/src/misc/cache/lv_cache.c **** const char * lv_cache_get_name(lv_cache_t * cache)
 1443              		.loc 1 291 1 view .LVU443
 1444 0004 7047     		bx	lr
 1445              		.cfi_endproc
 1446              	.LFE35:
 1448              		.section	.text.lv_cache_get_name,"ax",%progbits
 1449              		.align	1
 1450              		.global	lv_cache_get_name
 1451              		.syntax unified
ARM GAS  /tmp/ccuBKat8.s 			page 39


 1452              		.thumb
 1453              		.thumb_func
 1455              	lv_cache_get_name:
 1456              	.LVL123:
 1457              	.LFB36:
 293:Drivers/lvgl/src/misc/cache/lv_cache.c ****     return cache->name;
 1458              		.loc 1 293 1 is_stmt 1 view -0
 1459              		.cfi_startproc
 1460              		@ args = 0, pretend = 0, frame = 0
 1461              		@ frame_needed = 0, uses_anonymous_args = 0
 1462              		@ link register save eliminated.
 294:Drivers/lvgl/src/misc/cache/lv_cache.c **** }
 1463              		.loc 1 294 5 view .LVU445
 295:Drivers/lvgl/src/misc/cache/lv_cache.c **** 
 1464              		.loc 1 295 1 is_stmt 0 view .LVU446
 1465 0000 006A     		ldr	r0, [r0, #32]
 1466              	.LVL124:
 295:Drivers/lvgl/src/misc/cache/lv_cache.c **** 
 1467              		.loc 1 295 1 view .LVU447
 1468 0002 7047     		bx	lr
 1469              		.cfi_endproc
 1470              	.LFE36:
 1472              		.section	.text.lv_cache_iter_create,"ax",%progbits
 1473              		.align	1
 1474              		.global	lv_cache_iter_create
 1475              		.syntax unified
 1476              		.thumb
 1477              		.thumb_func
 1479              	lv_cache_iter_create:
 1480              	.LVL125:
 1481              	.LFB37:
 298:Drivers/lvgl/src/misc/cache/lv_cache.c ****     LV_ASSERT_NULL(cache);
 1482              		.loc 1 298 1 is_stmt 1 view -0
 1483              		.cfi_startproc
 1484              		@ args = 0, pretend = 0, frame = 0
 1485              		@ frame_needed = 0, uses_anonymous_args = 0
 299:Drivers/lvgl/src/misc/cache/lv_cache.c ****     if(cache == NULL || cache->clz->iter_create_cb == NULL) return NULL;
 1486              		.loc 1 299 5 view .LVU449
 299:Drivers/lvgl/src/misc/cache/lv_cache.c ****     if(cache == NULL || cache->clz->iter_create_cb == NULL) return NULL;
 1487              		.loc 1 299 5 view .LVU450
 1488 0000 28B1     		cbz	r0, .L106
 298:Drivers/lvgl/src/misc/cache/lv_cache.c ****     LV_ASSERT_NULL(cache);
 1489              		.loc 1 298 1 is_stmt 0 view .LVU451
 1490 0002 08B5     		push	{r3, lr}
 1491              	.LCFI32:
 1492              		.cfi_def_cfa_offset 8
 1493              		.cfi_offset 3, -8
 1494              		.cfi_offset 14, -4
 299:Drivers/lvgl/src/misc/cache/lv_cache.c ****     if(cache == NULL || cache->clz->iter_create_cb == NULL) return NULL;
 1495              		.loc 1 299 5 is_stmt 1 discriminator 2 view .LVU452
 299:Drivers/lvgl/src/misc/cache/lv_cache.c ****     if(cache == NULL || cache->clz->iter_create_cb == NULL) return NULL;
 1496              		.loc 1 299 26 discriminator 2 view .LVU453
 300:Drivers/lvgl/src/misc/cache/lv_cache.c ****     return cache->clz->iter_create_cb(cache);
 1497              		.loc 1 300 5 view .LVU454
 300:Drivers/lvgl/src/misc/cache/lv_cache.c ****     return cache->clz->iter_create_cb(cache);
 1498              		.loc 1 300 30 is_stmt 0 discriminator 2 view .LVU455
 1499 0004 0268     		ldr	r2, [r0]
ARM GAS  /tmp/ccuBKat8.s 			page 40


 300:Drivers/lvgl/src/misc/cache/lv_cache.c ****     return cache->clz->iter_create_cb(cache);
 1500              		.loc 1 300 35 discriminator 2 view .LVU456
 1501 0006 926A     		ldr	r2, [r2, #40]
 300:Drivers/lvgl/src/misc/cache/lv_cache.c ****     return cache->clz->iter_create_cb(cache);
 1502              		.loc 1 300 22 discriminator 2 view .LVU457
 1503 0008 12B1     		cbz	r2, .L108
 301:Drivers/lvgl/src/misc/cache/lv_cache.c **** }
 1504              		.loc 1 301 5 is_stmt 1 view .LVU458
 301:Drivers/lvgl/src/misc/cache/lv_cache.c **** }
 1505              		.loc 1 301 12 is_stmt 0 view .LVU459
 1506 000a 9047     		blx	r2
 1507              	.LVL126:
 1508              	.L104:
 302:Drivers/lvgl/src/misc/cache/lv_cache.c **** 
 1509              		.loc 1 302 1 view .LVU460
 1510 000c 08BD     		pop	{r3, pc}
 1511              	.LVL127:
 1512              	.L106:
 1513              	.LCFI33:
 1514              		.cfi_def_cfa_offset 0
 1515              		.cfi_restore 3
 1516              		.cfi_restore 14
 299:Drivers/lvgl/src/misc/cache/lv_cache.c ****     if(cache == NULL || cache->clz->iter_create_cb == NULL) return NULL;
 1517              		.loc 1 299 5 is_stmt 1 discriminator 1 view .LVU461
 299:Drivers/lvgl/src/misc/cache/lv_cache.c ****     if(cache == NULL || cache->clz->iter_create_cb == NULL) return NULL;
 1518              		.loc 1 299 5 discriminator 1 view .LVU462
 299:Drivers/lvgl/src/misc/cache/lv_cache.c ****     if(cache == NULL || cache->clz->iter_create_cb == NULL) return NULL;
 1519              		.loc 1 299 5 discriminator 1 view .LVU463
 299:Drivers/lvgl/src/misc/cache/lv_cache.c ****     if(cache == NULL || cache->clz->iter_create_cb == NULL) return NULL;
 1520              		.loc 1 299 5 discriminator 1 view .LVU464
 299:Drivers/lvgl/src/misc/cache/lv_cache.c ****     if(cache == NULL || cache->clz->iter_create_cb == NULL) return NULL;
 1521              		.loc 1 299 5 discriminator 1 view .LVU465
 1522 000e FEE7     		b	.L106
 1523              	.L108:
 1524              	.LCFI34:
 1525              		.cfi_def_cfa_offset 8
 1526              		.cfi_offset 3, -8
 1527              		.cfi_offset 14, -4
 300:Drivers/lvgl/src/misc/cache/lv_cache.c ****     return cache->clz->iter_create_cb(cache);
 1528              		.loc 1 300 68 is_stmt 0 discriminator 3 view .LVU466
 1529 0010 0020     		movs	r0, #0
 1530              	.LVL128:
 300:Drivers/lvgl/src/misc/cache/lv_cache.c ****     return cache->clz->iter_create_cb(cache);
 1531              		.loc 1 300 68 discriminator 3 view .LVU467
 1532 0012 FBE7     		b	.L104
 1533              		.cfi_endproc
 1534              	.LFE37:
 1536              		.text
 1537              	.Letext0:
 1538              		.file 2 "/usr/arm-none-eabi/include/machine/_default_types.h"
 1539              		.file 3 "/usr/arm-none-eabi/include/sys/_stdint.h"
 1540              		.file 4 "/usr/lib/gcc/arm-none-eabi/14.2.0/include/stddef.h"
 1541              		.file 5 "Drivers/lvgl/src/misc/cache/../lv_types.h"
 1542              		.file 6 "Drivers/lvgl/src/misc/cache/lv_cache_private.h"
 1543              		.file 7 "Drivers/lvgl/src/misc/cache/../../osal/lv_os_none.h"
 1544              		.file 8 "Drivers/lvgl/src/misc/cache/lv_cache_entry_private.h"
 1545              		.file 9 "Drivers/lvgl/src/misc/cache/lv_cache_entry.h"
ARM GAS  /tmp/ccuBKat8.s 			page 41


 1546              		.file 10 "Drivers/lvgl/src/misc/cache/../../stdlib/lv_mem.h"
 1547              		.file 11 "Drivers/lvgl/src/misc/cache/../../osal/lv_os.h"
ARM GAS  /tmp/ccuBKat8.s 			page 42

