ARM GAS  /tmp/ccKqQad2.s 			page 1


   1              		.cpu cortex-m7
   2              		.arch armv7e-m
   3              		.fpu fpv5-sp-d16
   4              		.eabi_attribute 27, 1
   5              		.eabi_attribute 28, 1
   6              		.eabi_attribute 20, 1
   7              		.eabi_attribute 21, 1
   8              		.eabi_attribute 23, 3
   9              		.eabi_attribute 24, 1
  10              		.eabi_attribute 25, 1
  11              		.eabi_attribute 26, 1
  12              		.eabi_attribute 30, 1
  13              		.eabi_attribute 34, 1
  14              		.eabi_attribute 18, 4
  15              		.file	"lv_color_op.c"
  16              		.text
  17              	.Ltext0:
  18              		.cfi_sections	.debug_frame
  19              		.file 1 "Drivers/lvgl/src/misc/lv_color_op.c"
  20              		.section	.text.lv_color_mix,"ax",%progbits
  21              		.align	1
  22              		.global	lv_color_mix
  23              		.syntax unified
  24              		.thumb
  25              		.thumb_func
  27              	lv_color_mix:
  28              	.LVL0:
  29              	.LFB3:
   1:Drivers/lvgl/src/misc/lv_color_op.c **** /**
   2:Drivers/lvgl/src/misc/lv_color_op.c ****  * @file lv_color.c
   3:Drivers/lvgl/src/misc/lv_color_op.c ****  *
   4:Drivers/lvgl/src/misc/lv_color_op.c ****  */
   5:Drivers/lvgl/src/misc/lv_color_op.c **** 
   6:Drivers/lvgl/src/misc/lv_color_op.c **** /*********************
   7:Drivers/lvgl/src/misc/lv_color_op.c ****  *      INCLUDES
   8:Drivers/lvgl/src/misc/lv_color_op.c ****  *********************/
   9:Drivers/lvgl/src/misc/lv_color_op.c **** #include "lv_color_op_private.h"
  10:Drivers/lvgl/src/misc/lv_color_op.c **** #include "lv_log.h"
  11:Drivers/lvgl/src/misc/lv_color_op.c **** 
  12:Drivers/lvgl/src/misc/lv_color_op.c **** /*********************
  13:Drivers/lvgl/src/misc/lv_color_op.c ****  *      DEFINES
  14:Drivers/lvgl/src/misc/lv_color_op.c ****  *********************/
  15:Drivers/lvgl/src/misc/lv_color_op.c **** 
  16:Drivers/lvgl/src/misc/lv_color_op.c **** /**********************
  17:Drivers/lvgl/src/misc/lv_color_op.c ****  *      TYPEDEFS
  18:Drivers/lvgl/src/misc/lv_color_op.c ****  **********************/
  19:Drivers/lvgl/src/misc/lv_color_op.c **** 
  20:Drivers/lvgl/src/misc/lv_color_op.c **** /**********************
  21:Drivers/lvgl/src/misc/lv_color_op.c ****  *  STATIC PROTOTYPES
  22:Drivers/lvgl/src/misc/lv_color_op.c ****  **********************/
  23:Drivers/lvgl/src/misc/lv_color_op.c **** 
  24:Drivers/lvgl/src/misc/lv_color_op.c **** /**********************
  25:Drivers/lvgl/src/misc/lv_color_op.c ****  *  STATIC VARIABLES
  26:Drivers/lvgl/src/misc/lv_color_op.c ****  **********************/
  27:Drivers/lvgl/src/misc/lv_color_op.c **** 
  28:Drivers/lvgl/src/misc/lv_color_op.c **** /**********************
  29:Drivers/lvgl/src/misc/lv_color_op.c ****  *      MACROS
ARM GAS  /tmp/ccKqQad2.s 			page 2


  30:Drivers/lvgl/src/misc/lv_color_op.c ****  **********************/
  31:Drivers/lvgl/src/misc/lv_color_op.c **** 
  32:Drivers/lvgl/src/misc/lv_color_op.c **** /**********************
  33:Drivers/lvgl/src/misc/lv_color_op.c ****  *   GLOBAL FUNCTIONS
  34:Drivers/lvgl/src/misc/lv_color_op.c ****  **********************/
  35:Drivers/lvgl/src/misc/lv_color_op.c **** 
  36:Drivers/lvgl/src/misc/lv_color_op.c **** lv_color_t LV_ATTRIBUTE_FAST_MEM lv_color_mix(lv_color_t c1, lv_color_t c2, uint8_t mix)
  37:Drivers/lvgl/src/misc/lv_color_op.c **** {
  30              		.loc 1 37 1 view -0
  31              		.cfi_startproc
  32              		@ args = 0, pretend = 0, frame = 16
  33              		@ frame_needed = 0, uses_anonymous_args = 0
  34              		@ link register save eliminated.
  35              		.loc 1 37 1 is_stmt 0 view .LVU1
  36 0000 84B0     		sub	sp, sp, #16
  37              	.LCFI0:
  38              		.cfi_def_cfa_offset 16
  39 0002 0190     		str	r0, [sp, #4]
  40 0004 0091     		str	r1, [sp]
  38:Drivers/lvgl/src/misc/lv_color_op.c ****     lv_color_t ret;
  41              		.loc 1 38 5 is_stmt 1 view .LVU2
  39:Drivers/lvgl/src/misc/lv_color_op.c **** 
  40:Drivers/lvgl/src/misc/lv_color_op.c ****     ret.red = LV_UDIV255((uint16_t)c1.red * mix + c2.red * (255 - mix) + LV_COLOR_MIX_ROUND_OFS);
  42              		.loc 1 40 5 view .LVU3
  43              		.loc 1 40 15 is_stmt 0 view .LVU4
  44 0006 9DF80600 		ldrb	r0, [sp, #6]	@ zero_extendqisi2
  45 000a 9DF80210 		ldrb	r1, [sp, #2]	@ zero_extendqisi2
  46 000e C2F1FF03 		rsb	r3, r2, #255
  47 0012 03FB01F1 		mul	r1, r3, r1
  48 0016 02FB0011 		mla	r1, r2, r0, r1
  49 001a 01EB0120 		add	r0, r1, r1, lsl #8
  50 001e 01EBC011 		add	r1, r1, r0, lsl #7
  51 0022 C90D     		lsrs	r1, r1, #23
  52              		.loc 1 40 13 view .LVU5
  53 0024 8DF80A10 		strb	r1, [sp, #10]
  41:Drivers/lvgl/src/misc/lv_color_op.c ****     ret.green = LV_UDIV255((uint16_t)c1.green * mix + c2.green * (255 - mix) + LV_COLOR_MIX_ROUND_O
  54              		.loc 1 41 5 is_stmt 1 view .LVU6
  55              		.loc 1 41 17 is_stmt 0 view .LVU7
  56 0028 9DF80500 		ldrb	r0, [sp, #5]	@ zero_extendqisi2
  57 002c 9DF80110 		ldrb	r1, [sp, #1]	@ zero_extendqisi2
  58 0030 03FB01F1 		mul	r1, r3, r1
  59 0034 00FB0211 		mla	r1, r0, r2, r1
  60 0038 01EB0120 		add	r0, r1, r1, lsl #8
  61 003c 01EBC011 		add	r1, r1, r0, lsl #7
  62 0040 C90D     		lsrs	r1, r1, #23
  63              		.loc 1 41 15 view .LVU8
  64 0042 8DF80910 		strb	r1, [sp, #9]
  42:Drivers/lvgl/src/misc/lv_color_op.c ****     ret.blue = LV_UDIV255((uint16_t)c1.blue * mix + c2.blue * (255 - mix) + LV_COLOR_MIX_ROUND_OFS)
  65              		.loc 1 42 5 is_stmt 1 view .LVU9
  66              		.loc 1 42 16 is_stmt 0 view .LVU10
  67 0046 9DF80410 		ldrb	r1, [sp, #4]	@ zero_extendqisi2
  68 004a 9DF80000 		ldrb	r0, [sp]	@ zero_extendqisi2
  69 004e 00FB03F3 		mul	r3, r0, r3
  70 0052 01FB0232 		mla	r2, r1, r2, r3
  71              	.LVL1:
  72              		.loc 1 42 16 view .LVU11
  73 0056 02EB0223 		add	r3, r2, r2, lsl #8
ARM GAS  /tmp/ccKqQad2.s 			page 3


  74 005a 02EBC312 		add	r2, r2, r3, lsl #7
  75 005e D20D     		lsrs	r2, r2, #23
  76              		.loc 1 42 14 view .LVU12
  77 0060 8DF80820 		strb	r2, [sp, #8]
  43:Drivers/lvgl/src/misc/lv_color_op.c ****     return ret;
  78              		.loc 1 43 5 is_stmt 1 view .LVU13
  79              		.loc 1 43 12 is_stmt 0 view .LVU14
  80 0064 029B     		ldr	r3, [sp, #8]
  81 0066 ADF80C30 		strh	r3, [sp, #12]	@ movhi
  82 006a 1B0C     		lsrs	r3, r3, #16
  83 006c 8DF80E30 		strb	r3, [sp, #14]
  84 0070 0020     		movs	r0, #0
  85 0072 9DF80C30 		ldrb	r3, [sp, #12]	@ zero_extendqisi2
  86 0076 63F30700 		bfi	r0, r3, #0, #8
  87 007a 9DF80D30 		ldrb	r3, [sp, #13]	@ zero_extendqisi2
  88 007e 63F30F20 		bfi	r0, r3, #8, #8
  89 0082 9DF80E30 		ldrb	r3, [sp, #14]	@ zero_extendqisi2
  90 0086 63F31740 		bfi	r0, r3, #16, #8
  44:Drivers/lvgl/src/misc/lv_color_op.c **** }
  91              		.loc 1 44 1 view .LVU15
  92 008a 04B0     		add	sp, sp, #16
  93              	.LCFI1:
  94              		.cfi_def_cfa_offset 0
  95              		@ sp needed
  96 008c 7047     		bx	lr
  97              		.cfi_endproc
  98              	.LFE3:
 100              		.section	.text.lv_color_mix32,"ax",%progbits
 101              		.align	1
 102              		.global	lv_color_mix32
 103              		.syntax unified
 104              		.thumb
 105              		.thumb_func
 107              	lv_color_mix32:
 108              	.LFB4:
  45:Drivers/lvgl/src/misc/lv_color_op.c **** 
  46:Drivers/lvgl/src/misc/lv_color_op.c **** lv_color32_t lv_color_mix32(lv_color32_t fg, lv_color32_t bg)
  47:Drivers/lvgl/src/misc/lv_color_op.c **** {
 109              		.loc 1 47 1 is_stmt 1 view -0
 110              		.cfi_startproc
 111              		@ args = 0, pretend = 0, frame = 16
 112              		@ frame_needed = 0, uses_anonymous_args = 0
 113              		@ link register save eliminated.
 114 0000 84B0     		sub	sp, sp, #16
 115              	.LCFI2:
 116              		.cfi_def_cfa_offset 16
 117 0002 0190     		str	r0, [sp, #4]
 118 0004 0091     		str	r1, [sp]
  48:Drivers/lvgl/src/misc/lv_color_op.c ****     if(fg.alpha >= LV_OPA_MAX) {
 119              		.loc 1 48 5 view .LVU17
 120              		.loc 1 48 10 is_stmt 0 view .LVU18
 121 0006 9DF80710 		ldrb	r1, [sp, #7]	@ zero_extendqisi2
 122              		.loc 1 48 7 view .LVU19
 123 000a FC29     		cmp	r1, #252
 124 000c 45D8     		bhi	.L8
  49:Drivers/lvgl/src/misc/lv_color_op.c ****         fg.alpha = bg.alpha;
  50:Drivers/lvgl/src/misc/lv_color_op.c ****         return fg;
ARM GAS  /tmp/ccKqQad2.s 			page 4


  51:Drivers/lvgl/src/misc/lv_color_op.c ****     }
  52:Drivers/lvgl/src/misc/lv_color_op.c ****     if(fg.alpha <= LV_OPA_MIN) {
 125              		.loc 1 52 5 is_stmt 1 view .LVU20
 126              		.loc 1 52 7 is_stmt 0 view .LVU21
 127 000e 0229     		cmp	r1, #2
 128 0010 4AD9     		bls	.L9
  53:Drivers/lvgl/src/misc/lv_color_op.c ****         return bg;
  54:Drivers/lvgl/src/misc/lv_color_op.c ****     }
  55:Drivers/lvgl/src/misc/lv_color_op.c ****     bg.red = LV_UDIV255((uint32_t)((uint32_t)fg.red * fg.alpha + (uint32_t)bg.red * (255 - fg.alpha
 129              		.loc 1 55 5 is_stmt 1 view .LVU22
 130              		.loc 1 55 14 is_stmt 0 view .LVU23
 131 0012 9DF80600 		ldrb	r0, [sp, #6]	@ zero_extendqisi2
 132 0016 9DF80220 		ldrb	r2, [sp, #2]	@ zero_extendqisi2
 133 001a C1F1FF03 		rsb	r3, r1, #255
 134 001e 03FB02F2 		mul	r2, r3, r2
 135 0022 01FB0022 		mla	r2, r1, r0, r2
 136 0026 02EB0220 		add	r0, r2, r2, lsl #8
 137 002a 02EBC012 		add	r2, r2, r0, lsl #7
 138 002e D20D     		lsrs	r2, r2, #23
 139              		.loc 1 55 12 view .LVU24
 140 0030 8DF80220 		strb	r2, [sp, #2]
  56:Drivers/lvgl/src/misc/lv_color_op.c ****     bg.green = LV_UDIV255((uint32_t)((uint32_t)fg.green * fg.alpha + (uint32_t)bg.green * (255 - fg
 141              		.loc 1 56 5 is_stmt 1 view .LVU25
 142              		.loc 1 56 16 is_stmt 0 view .LVU26
 143 0034 9DF80500 		ldrb	r0, [sp, #5]	@ zero_extendqisi2
 144 0038 9DF80120 		ldrb	r2, [sp, #1]	@ zero_extendqisi2
 145 003c 03FB02F2 		mul	r2, r3, r2
 146 0040 00FB0122 		mla	r2, r0, r1, r2
 147 0044 02EB0220 		add	r0, r2, r2, lsl #8
 148 0048 02EBC012 		add	r2, r2, r0, lsl #7
 149 004c D20D     		lsrs	r2, r2, #23
 150              		.loc 1 56 14 view .LVU27
 151 004e 8DF80120 		strb	r2, [sp, #1]
  57:Drivers/lvgl/src/misc/lv_color_op.c ****     bg.blue = LV_UDIV255((uint32_t)((uint32_t)fg.blue * fg.alpha + (uint32_t)bg.blue * (255 - fg.al
 152              		.loc 1 57 5 is_stmt 1 view .LVU28
 153              		.loc 1 57 15 is_stmt 0 view .LVU29
 154 0052 9DF80420 		ldrb	r2, [sp, #4]	@ zero_extendqisi2
 155 0056 9DF80000 		ldrb	r0, [sp]	@ zero_extendqisi2
 156 005a 00FB03F3 		mul	r3, r0, r3
 157 005e 02FB0133 		mla	r3, r2, r1, r3
 158 0062 03EB0322 		add	r2, r3, r3, lsl #8
 159 0066 03EBC213 		add	r3, r3, r2, lsl #7
 160 006a DB0D     		lsrs	r3, r3, #23
 161              		.loc 1 57 13 view .LVU30
 162 006c 8DF80030 		strb	r3, [sp]
  58:Drivers/lvgl/src/misc/lv_color_op.c ****     return bg;
 163              		.loc 1 58 5 is_stmt 1 view .LVU31
 164              		.loc 1 58 12 is_stmt 0 view .LVU32
 165 0070 009B     		ldr	r3, [sp]
 166 0072 0393     		str	r3, [sp, #12]
 167              	.L5:
  59:Drivers/lvgl/src/misc/lv_color_op.c **** }
 168              		.loc 1 59 1 view .LVU33
 169 0074 0020     		movs	r0, #0
 170 0076 9DF80C30 		ldrb	r3, [sp, #12]	@ zero_extendqisi2
 171 007a 63F30700 		bfi	r0, r3, #0, #8
 172 007e 9DF80D30 		ldrb	r3, [sp, #13]	@ zero_extendqisi2
ARM GAS  /tmp/ccKqQad2.s 			page 5


 173 0082 63F30F20 		bfi	r0, r3, #8, #8
 174 0086 9DF80E30 		ldrb	r3, [sp, #14]	@ zero_extendqisi2
 175 008a 63F31740 		bfi	r0, r3, #16, #8
 176 008e 9DF80F30 		ldrb	r3, [sp, #15]	@ zero_extendqisi2
 177 0092 63F31F60 		bfi	r0, r3, #24, #8
 178 0096 04B0     		add	sp, sp, #16
 179              	.LCFI3:
 180              		.cfi_remember_state
 181              		.cfi_def_cfa_offset 0
 182              		@ sp needed
 183 0098 7047     		bx	lr
 184              	.L8:
 185              	.LCFI4:
 186              		.cfi_restore_state
  49:Drivers/lvgl/src/misc/lv_color_op.c ****         return fg;
 187              		.loc 1 49 9 is_stmt 1 view .LVU34
  49:Drivers/lvgl/src/misc/lv_color_op.c ****         return fg;
 188              		.loc 1 49 22 is_stmt 0 view .LVU35
 189 009a 9DF80330 		ldrb	r3, [sp, #3]	@ zero_extendqisi2
  49:Drivers/lvgl/src/misc/lv_color_op.c ****         return fg;
 190              		.loc 1 49 18 view .LVU36
 191 009e 8DF80730 		strb	r3, [sp, #7]
  50:Drivers/lvgl/src/misc/lv_color_op.c ****     }
 192              		.loc 1 50 9 is_stmt 1 view .LVU37
  50:Drivers/lvgl/src/misc/lv_color_op.c ****     }
 193              		.loc 1 50 16 is_stmt 0 view .LVU38
 194 00a2 019B     		ldr	r3, [sp, #4]
 195 00a4 0393     		str	r3, [sp, #12]
 196 00a6 E5E7     		b	.L5
 197              	.L9:
  53:Drivers/lvgl/src/misc/lv_color_op.c ****     }
 198              		.loc 1 53 9 is_stmt 1 view .LVU39
  53:Drivers/lvgl/src/misc/lv_color_op.c ****     }
 199              		.loc 1 53 16 is_stmt 0 view .LVU40
 200 00a8 009B     		ldr	r3, [sp]
 201 00aa 0393     		str	r3, [sp, #12]
 202 00ac E2E7     		b	.L5
 203              		.cfi_endproc
 204              	.LFE4:
 206              		.section	.text.lv_color_mix32_premultiplied,"ax",%progbits
 207              		.align	1
 208              		.global	lv_color_mix32_premultiplied
 209              		.syntax unified
 210              		.thumb
 211              		.thumb_func
 213              	lv_color_mix32_premultiplied:
 214              	.LFB5:
  60:Drivers/lvgl/src/misc/lv_color_op.c **** 
  61:Drivers/lvgl/src/misc/lv_color_op.c **** lv_color32_t lv_color_mix32_premultiplied(lv_color32_t fg, lv_color32_t bg)
  62:Drivers/lvgl/src/misc/lv_color_op.c **** {
 215              		.loc 1 62 1 is_stmt 1 view -0
 216              		.cfi_startproc
 217              		@ args = 0, pretend = 0, frame = 16
 218              		@ frame_needed = 0, uses_anonymous_args = 0
 219              		@ link register save eliminated.
 220 0000 84B0     		sub	sp, sp, #16
 221              	.LCFI5:
ARM GAS  /tmp/ccKqQad2.s 			page 6


 222              		.cfi_def_cfa_offset 16
 223 0002 0190     		str	r0, [sp, #4]
 224 0004 0091     		str	r1, [sp]
  63:Drivers/lvgl/src/misc/lv_color_op.c ****     if(fg.alpha >= LV_OPA_MAX) {
 225              		.loc 1 63 5 view .LVU42
 226              		.loc 1 63 10 is_stmt 0 view .LVU43
 227 0006 9DF80730 		ldrb	r3, [sp, #7]	@ zero_extendqisi2
 228              		.loc 1 63 7 view .LVU44
 229 000a FC2B     		cmp	r3, #252
 230 000c 3ED8     		bhi	.L15
  64:Drivers/lvgl/src/misc/lv_color_op.c ****         return fg;  /* Fully opaque foreground replaces background */
  65:Drivers/lvgl/src/misc/lv_color_op.c ****     }
  66:Drivers/lvgl/src/misc/lv_color_op.c ****     if(fg.alpha <= LV_OPA_MIN) {
 231              		.loc 1 66 5 is_stmt 1 view .LVU45
 232              		.loc 1 66 7 is_stmt 0 view .LVU46
 233 000e 022B     		cmp	r3, #2
 234 0010 3ED9     		bls	.L16
  67:Drivers/lvgl/src/misc/lv_color_op.c ****         return bg;  /* Fully transparent foreground, return background */
  68:Drivers/lvgl/src/misc/lv_color_op.c ****     }
  69:Drivers/lvgl/src/misc/lv_color_op.c **** 
  70:Drivers/lvgl/src/misc/lv_color_op.c ****     uint32_t inv_fg_alpha = LV_OPA_MAX - fg.alpha;
 235              		.loc 1 70 5 is_stmt 1 view .LVU47
 236              		.loc 1 70 40 is_stmt 0 view .LVU48
 237 0012 C3F1FD02 		rsb	r2, r3, #253
 238              	.LVL2:
  71:Drivers/lvgl/src/misc/lv_color_op.c **** 
  72:Drivers/lvgl/src/misc/lv_color_op.c ****     /* Premultiplied blending */
  73:Drivers/lvgl/src/misc/lv_color_op.c ****     bg.red   = fg.red   + ((bg.red   * inv_fg_alpha) >> 8);
 239              		.loc 1 73 5 is_stmt 1 view .LVU49
 240              		.loc 1 73 18 is_stmt 0 view .LVU50
 241 0016 9DF80610 		ldrb	r1, [sp, #6]	@ zero_extendqisi2
 242              		.loc 1 73 31 view .LVU51
 243 001a 9DF80200 		ldrb	r0, [sp, #2]	@ zero_extendqisi2
 244              		.loc 1 73 38 view .LVU52
 245 001e 02FB00F0 		mul	r0, r2, r0
 246              		.loc 1 73 25 view .LVU53
 247 0022 01EB1021 		add	r1, r1, r0, lsr #8
 248              		.loc 1 73 14 view .LVU54
 249 0026 8DF80210 		strb	r1, [sp, #2]
  74:Drivers/lvgl/src/misc/lv_color_op.c ****     bg.green = fg.green + ((bg.green * inv_fg_alpha) >> 8);
 250              		.loc 1 74 5 is_stmt 1 view .LVU55
 251              		.loc 1 74 18 is_stmt 0 view .LVU56
 252 002a 9DF80510 		ldrb	r1, [sp, #5]	@ zero_extendqisi2
 253              		.loc 1 74 31 view .LVU57
 254 002e 9DF80100 		ldrb	r0, [sp, #1]	@ zero_extendqisi2
 255              		.loc 1 74 38 view .LVU58
 256 0032 02FB00F0 		mul	r0, r2, r0
 257              		.loc 1 74 25 view .LVU59
 258 0036 01EB1021 		add	r1, r1, r0, lsr #8
 259              		.loc 1 74 14 view .LVU60
 260 003a 8DF80110 		strb	r1, [sp, #1]
  75:Drivers/lvgl/src/misc/lv_color_op.c ****     bg.blue  = fg.blue  + ((bg.blue  * inv_fg_alpha) >> 8);
 261              		.loc 1 75 5 is_stmt 1 view .LVU61
 262              		.loc 1 75 18 is_stmt 0 view .LVU62
 263 003e 9DF80410 		ldrb	r1, [sp, #4]	@ zero_extendqisi2
 264              		.loc 1 75 31 view .LVU63
 265 0042 9DF80000 		ldrb	r0, [sp]	@ zero_extendqisi2
ARM GAS  /tmp/ccKqQad2.s 			page 7


 266              		.loc 1 75 38 view .LVU64
 267 0046 02FB00F0 		mul	r0, r2, r0
 268              		.loc 1 75 25 view .LVU65
 269 004a 01EB1021 		add	r1, r1, r0, lsr #8
 270              		.loc 1 75 14 view .LVU66
 271 004e 8DF80010 		strb	r1, [sp]
  76:Drivers/lvgl/src/misc/lv_color_op.c ****     bg.alpha = fg.alpha + ((bg.alpha * inv_fg_alpha) >> 8);
 272              		.loc 1 76 5 is_stmt 1 view .LVU67
 273              		.loc 1 76 31 is_stmt 0 view .LVU68
 274 0052 9DF80310 		ldrb	r1, [sp, #3]	@ zero_extendqisi2
 275              		.loc 1 76 38 view .LVU69
 276 0056 01FB02F2 		mul	r2, r1, r2
 277              	.LVL3:
 278              		.loc 1 76 25 view .LVU70
 279 005a 03EB1223 		add	r3, r3, r2, lsr #8
 280              	.LVL4:
 281              		.loc 1 76 14 view .LVU71
 282 005e 8DF80330 		strb	r3, [sp, #3]
  77:Drivers/lvgl/src/misc/lv_color_op.c **** 
  78:Drivers/lvgl/src/misc/lv_color_op.c ****     return bg;
 283              		.loc 1 78 5 is_stmt 1 view .LVU72
 284              		.loc 1 78 12 is_stmt 0 view .LVU73
 285 0062 009B     		ldr	r3, [sp]
 286 0064 0393     		str	r3, [sp, #12]
 287              	.LVL5:
 288              	.L12:
  79:Drivers/lvgl/src/misc/lv_color_op.c **** }
 289              		.loc 1 79 1 view .LVU74
 290 0066 0020     		movs	r0, #0
 291 0068 9DF80C30 		ldrb	r3, [sp, #12]	@ zero_extendqisi2
 292 006c 63F30700 		bfi	r0, r3, #0, #8
 293 0070 9DF80D30 		ldrb	r3, [sp, #13]	@ zero_extendqisi2
 294 0074 63F30F20 		bfi	r0, r3, #8, #8
 295 0078 9DF80E30 		ldrb	r3, [sp, #14]	@ zero_extendqisi2
 296 007c 63F31740 		bfi	r0, r3, #16, #8
 297 0080 9DF80F30 		ldrb	r3, [sp, #15]	@ zero_extendqisi2
 298 0084 63F31F60 		bfi	r0, r3, #24, #8
 299 0088 04B0     		add	sp, sp, #16
 300              	.LCFI6:
 301              		.cfi_remember_state
 302              		.cfi_def_cfa_offset 0
 303              		@ sp needed
 304 008a 7047     		bx	lr
 305              	.L15:
 306              	.LCFI7:
 307              		.cfi_restore_state
  64:Drivers/lvgl/src/misc/lv_color_op.c ****     }
 308              		.loc 1 64 9 is_stmt 1 view .LVU75
  64:Drivers/lvgl/src/misc/lv_color_op.c ****     }
 309              		.loc 1 64 16 is_stmt 0 view .LVU76
 310 008c 0390     		str	r0, [sp, #12]
 311 008e EAE7     		b	.L12
 312              	.L16:
  67:Drivers/lvgl/src/misc/lv_color_op.c ****     }
 313              		.loc 1 67 9 is_stmt 1 view .LVU77
  67:Drivers/lvgl/src/misc/lv_color_op.c ****     }
 314              		.loc 1 67 16 is_stmt 0 view .LVU78
ARM GAS  /tmp/ccKqQad2.s 			page 8


 315 0090 009B     		ldr	r3, [sp]
 316 0092 0393     		str	r3, [sp, #12]
 317 0094 E7E7     		b	.L12
 318              		.cfi_endproc
 319              	.LFE5:
 321              		.section	.text.lv_color_brightness,"ax",%progbits
 322              		.align	1
 323              		.global	lv_color_brightness
 324              		.syntax unified
 325              		.thumb
 326              		.thumb_func
 328              	lv_color_brightness:
 329              	.LFB6:
  80:Drivers/lvgl/src/misc/lv_color_op.c **** 
  81:Drivers/lvgl/src/misc/lv_color_op.c **** uint8_t lv_color_brightness(lv_color_t c)
  82:Drivers/lvgl/src/misc/lv_color_op.c **** {
 330              		.loc 1 82 1 is_stmt 1 view -0
 331              		.cfi_startproc
 332              		@ args = 0, pretend = 0, frame = 8
 333              		@ frame_needed = 0, uses_anonymous_args = 0
 334              		@ link register save eliminated.
 335 0000 82B0     		sub	sp, sp, #8
 336              	.LCFI8:
 337              		.cfi_def_cfa_offset 8
 338 0002 0190     		str	r0, [sp, #4]
  83:Drivers/lvgl/src/misc/lv_color_op.c ****     uint16_t bright = (uint16_t)(3u * c.red + c.green + 4u * c.blue);
 339              		.loc 1 83 5 view .LVU80
 340              		.loc 1 83 40 is_stmt 0 view .LVU81
 341 0004 9DF80600 		ldrb	r0, [sp, #6]	@ zero_extendqisi2
 342              		.loc 1 83 37 view .LVU82
 343 0008 00EB4000 		add	r0, r0, r0, lsl #1
 344              		.loc 1 83 63 view .LVU83
 345 000c 9DF80430 		ldrb	r3, [sp, #4]	@ zero_extendqisi2
 346              		.loc 1 83 55 view .LVU84
 347 0010 00EB8300 		add	r0, r0, r3, lsl #2
 348              		.loc 1 83 48 view .LVU85
 349 0014 9DF80530 		ldrb	r3, [sp, #5]	@ zero_extendqisi2
 350              		.loc 1 83 14 view .LVU86
 351 0018 1844     		add	r0, r0, r3
 352              	.LVL6:
  84:Drivers/lvgl/src/misc/lv_color_op.c ****     return (uint8_t)(bright >> 3);
 353              		.loc 1 84 5 is_stmt 1 view .LVU87
  85:Drivers/lvgl/src/misc/lv_color_op.c **** }
 354              		.loc 1 85 1 is_stmt 0 view .LVU88
 355 001a C0F3C700 		ubfx	r0, r0, #3, #8
 356              	.LVL7:
 357              		.loc 1 85 1 view .LVU89
 358 001e 02B0     		add	sp, sp, #8
 359              	.LCFI9:
 360              		.cfi_def_cfa_offset 0
 361              	.LVL8:
 362              		.loc 1 85 1 view .LVU90
 363              		@ sp needed
 364 0020 7047     		bx	lr
 365              		.cfi_endproc
 366              	.LFE6:
 368              		.section	.text.lv_color_filter_dsc_init,"ax",%progbits
ARM GAS  /tmp/ccKqQad2.s 			page 9


 369              		.align	1
 370              		.global	lv_color_filter_dsc_init
 371              		.syntax unified
 372              		.thumb
 373              		.thumb_func
 375              	lv_color_filter_dsc_init:
 376              	.LVL9:
 377              	.LFB7:
  86:Drivers/lvgl/src/misc/lv_color_op.c **** 
  87:Drivers/lvgl/src/misc/lv_color_op.c **** void lv_color_filter_dsc_init(lv_color_filter_dsc_t * dsc, lv_color_filter_cb_t cb)
  88:Drivers/lvgl/src/misc/lv_color_op.c **** {
 378              		.loc 1 88 1 is_stmt 1 view -0
 379              		.cfi_startproc
 380              		@ args = 0, pretend = 0, frame = 0
 381              		@ frame_needed = 0, uses_anonymous_args = 0
 382              		@ link register save eliminated.
  89:Drivers/lvgl/src/misc/lv_color_op.c ****     dsc->filter_cb = cb;
 383              		.loc 1 89 5 view .LVU92
 384              		.loc 1 89 20 is_stmt 0 view .LVU93
 385 0000 0160     		str	r1, [r0]
  90:Drivers/lvgl/src/misc/lv_color_op.c **** }
 386              		.loc 1 90 1 view .LVU94
 387 0002 7047     		bx	lr
 388              		.cfi_endproc
 389              	.LFE7:
 391              		.section	.text.lv_color_over32,"ax",%progbits
 392              		.align	1
 393              		.global	lv_color_over32
 394              		.syntax unified
 395              		.thumb
 396              		.thumb_func
 398              	lv_color_over32:
 399              	.LFB8:
  91:Drivers/lvgl/src/misc/lv_color_op.c **** 
  92:Drivers/lvgl/src/misc/lv_color_op.c **** lv_color32_t lv_color_over32(lv_color32_t fg, lv_color32_t bg)
  93:Drivers/lvgl/src/misc/lv_color_op.c **** {
 400              		.loc 1 93 1 is_stmt 1 view -0
 401              		.cfi_startproc
 402              		@ args = 0, pretend = 0, frame = 16
 403              		@ frame_needed = 0, uses_anonymous_args = 0
 404 0000 10B5     		push	{r4, lr}
 405              	.LCFI10:
 406              		.cfi_def_cfa_offset 8
 407              		.cfi_offset 4, -8
 408              		.cfi_offset 14, -4
 409 0002 84B0     		sub	sp, sp, #16
 410              	.LCFI11:
 411              		.cfi_def_cfa_offset 24
 412 0004 0190     		str	r0, [sp, #4]
 413 0006 0091     		str	r1, [sp]
  94:Drivers/lvgl/src/misc/lv_color_op.c ****     if(fg.alpha >= LV_OPA_MAX || bg.alpha <= LV_OPA_MIN) {
 414              		.loc 1 94 5 view .LVU96
 415              		.loc 1 94 10 is_stmt 0 view .LVU97
 416 0008 9DF80730 		ldrb	r3, [sp, #7]	@ zero_extendqisi2
 417              		.loc 1 94 7 view .LVU98
 418 000c FC2B     		cmp	r3, #252
 419 000e 21D8     		bhi	.L21
ARM GAS  /tmp/ccKqQad2.s 			page 10


 420              		.loc 1 94 36 discriminator 1 view .LVU99
 421 0010 9DF80320 		ldrb	r2, [sp, #3]	@ zero_extendqisi2
 422              		.loc 1 94 31 discriminator 1 view .LVU100
 423 0014 022A     		cmp	r2, #2
 424 0016 1DD9     		bls	.L21
  95:Drivers/lvgl/src/misc/lv_color_op.c ****         return fg;
  96:Drivers/lvgl/src/misc/lv_color_op.c ****     }
  97:Drivers/lvgl/src/misc/lv_color_op.c ****     else if(fg.alpha <= LV_OPA_MIN) {
 425              		.loc 1 97 10 is_stmt 1 view .LVU101
 426              		.loc 1 97 12 is_stmt 0 view .LVU102
 427 0018 022B     		cmp	r3, #2
 428 001a 30D9     		bls	.L27
  98:Drivers/lvgl/src/misc/lv_color_op.c ****         return bg;
  99:Drivers/lvgl/src/misc/lv_color_op.c ****     }
 100:Drivers/lvgl/src/misc/lv_color_op.c ****     else if(bg.alpha == 255) {
 429              		.loc 1 100 10 is_stmt 1 view .LVU103
 430              		.loc 1 100 12 is_stmt 0 view .LVU104
 431 001c FF2A     		cmp	r2, #255
 432 001e 31D0     		beq	.L28
 101:Drivers/lvgl/src/misc/lv_color_op.c ****         return lv_color_mix32(fg, bg);
 102:Drivers/lvgl/src/misc/lv_color_op.c ****     }
 103:Drivers/lvgl/src/misc/lv_color_op.c **** 
 104:Drivers/lvgl/src/misc/lv_color_op.c ****     lv_opa_t res_alpha  = 255 - LV_OPA_MIX2(255 - fg.alpha, 255 - bg.alpha);
 433              		.loc 1 104 5 is_stmt 1 view .LVU105
 434              		.loc 1 104 33 is_stmt 0 view .LVU106
 435 0020 C3F1FF04 		rsb	r4, r3, #255
 436 0024 C2F1FF02 		rsb	r2, r2, #255
 437 0028 02FB04F4 		mul	r4, r2, r4
 438 002c C4F30724 		ubfx	r4, r4, #8, #8
 439              		.loc 1 104 14 view .LVU107
 440 0030 E443     		mvns	r4, r4
 441 0032 E4B2     		uxtb	r4, r4
 442              	.LVL10:
 105:Drivers/lvgl/src/misc/lv_color_op.c ****     lv_opa_t ratio = (uint32_t)((uint32_t)fg.alpha * 255) / res_alpha;
 443              		.loc 1 105 5 is_stmt 1 view .LVU108
 444              		.loc 1 105 22 is_stmt 0 view .LVU109
 445 0034 C3EB0323 		rsb	r3, r3, r3, lsl #8
 446              		.loc 1 105 59 view .LVU110
 447 0038 B3FBF4F3 		udiv	r3, r3, r4
 448              	.LVL11:
 106:Drivers/lvgl/src/misc/lv_color_op.c ****     fg.alpha = ratio;
 449              		.loc 1 106 5 is_stmt 1 view .LVU111
 450              		.loc 1 106 14 is_stmt 0 view .LVU112
 451 003c 8DF80730 		strb	r3, [sp, #7]
 107:Drivers/lvgl/src/misc/lv_color_op.c ****     lv_color32_t res = lv_color_mix32(fg, bg);
 452              		.loc 1 107 5 is_stmt 1 view .LVU113
 453              		.loc 1 107 24 is_stmt 0 view .LVU114
 454 0040 0099     		ldr	r1, [sp]
 455 0042 0198     		ldr	r0, [sp, #4]
 456 0044 FFF7FEFF 		bl	lv_color_mix32
 457              	.LVL12:
 458              		.loc 1 107 24 view .LVU115
 459 0048 0290     		str	r0, [sp, #8]
 108:Drivers/lvgl/src/misc/lv_color_op.c ****     res.alpha = res_alpha;
 460              		.loc 1 108 5 is_stmt 1 view .LVU116
 461              		.loc 1 108 15 is_stmt 0 view .LVU117
 462 004a 8DF80B40 		strb	r4, [sp, #11]
ARM GAS  /tmp/ccKqQad2.s 			page 11


 109:Drivers/lvgl/src/misc/lv_color_op.c **** 
 110:Drivers/lvgl/src/misc/lv_color_op.c ****     return res;
 463              		.loc 1 110 5 is_stmt 1 view .LVU118
 464              		.loc 1 110 12 is_stmt 0 view .LVU119
 465 004e 029B     		ldr	r3, [sp, #8]
 466 0050 0393     		str	r3, [sp, #12]
 467 0052 01E0     		b	.L23
 468              	.LVL13:
 469              	.L21:
  95:Drivers/lvgl/src/misc/lv_color_op.c ****     }
 470              		.loc 1 95 9 is_stmt 1 view .LVU120
  95:Drivers/lvgl/src/misc/lv_color_op.c ****     }
 471              		.loc 1 95 16 is_stmt 0 view .LVU121
 472 0054 019B     		ldr	r3, [sp, #4]
 473 0056 0393     		str	r3, [sp, #12]
 474              	.L23:
 111:Drivers/lvgl/src/misc/lv_color_op.c **** }
 475              		.loc 1 111 1 view .LVU122
 476 0058 0020     		movs	r0, #0
 477 005a 9DF80C30 		ldrb	r3, [sp, #12]	@ zero_extendqisi2
 478 005e 63F30700 		bfi	r0, r3, #0, #8
 479 0062 9DF80D30 		ldrb	r3, [sp, #13]	@ zero_extendqisi2
 480 0066 63F30F20 		bfi	r0, r3, #8, #8
 481 006a 9DF80E30 		ldrb	r3, [sp, #14]	@ zero_extendqisi2
 482 006e 63F31740 		bfi	r0, r3, #16, #8
 483 0072 9DF80F30 		ldrb	r3, [sp, #15]	@ zero_extendqisi2
 484 0076 63F31F60 		bfi	r0, r3, #24, #8
 485 007a 04B0     		add	sp, sp, #16
 486              	.LCFI12:
 487              		.cfi_remember_state
 488              		.cfi_def_cfa_offset 8
 489              		@ sp needed
 490 007c 10BD     		pop	{r4, pc}
 491              	.L27:
 492              	.LCFI13:
 493              		.cfi_restore_state
  98:Drivers/lvgl/src/misc/lv_color_op.c ****     }
 494              		.loc 1 98 9 is_stmt 1 view .LVU123
  98:Drivers/lvgl/src/misc/lv_color_op.c ****     }
 495              		.loc 1 98 16 is_stmt 0 view .LVU124
 496 007e 009B     		ldr	r3, [sp]
 497 0080 0393     		str	r3, [sp, #12]
 498 0082 E9E7     		b	.L23
 499              	.L28:
 101:Drivers/lvgl/src/misc/lv_color_op.c ****     }
 500              		.loc 1 101 9 is_stmt 1 view .LVU125
 101:Drivers/lvgl/src/misc/lv_color_op.c ****     }
 501              		.loc 1 101 16 is_stmt 0 view .LVU126
 502 0084 0099     		ldr	r1, [sp]
 503 0086 0198     		ldr	r0, [sp, #4]
 504 0088 FFF7FEFF 		bl	lv_color_mix32
 505              	.LVL14:
 506 008c 0390     		str	r0, [sp, #12]
 507 008e E3E7     		b	.L23
 508              		.cfi_endproc
 509              	.LFE8:
 511              		.text
ARM GAS  /tmp/ccKqQad2.s 			page 12


 512              	.Letext0:
 513              		.file 2 "/usr/arm-none-eabi/include/machine/_default_types.h"
 514              		.file 3 "/usr/arm-none-eabi/include/sys/_stdint.h"
 515              		.file 4 "Drivers/lvgl/src/misc/lv_types.h"
 516              		.file 5 "Drivers/lvgl/src/misc/lv_color_op.h"
 517              		.file 6 "Drivers/lvgl/src/misc/lv_color.h"
ARM GAS  /tmp/ccKqQad2.s 			page 13

