ARM GAS  /tmp/cccopIWO.s 			page 1


   1              		.cpu cortex-m7
   2              		.arch armv7e-m
   3              		.fpu fpv5-sp-d16
   4              		.eabi_attribute 27, 1
   5              		.eabi_attribute 28, 1
   6              		.eabi_attribute 20, 1
   7              		.eabi_attribute 21, 1
   8              		.eabi_attribute 23, 3
   9              		.eabi_attribute 24, 1
  10              		.eabi_attribute 25, 1
  11              		.eabi_attribute 26, 1
  12              		.eabi_attribute 30, 1
  13              		.eabi_attribute 34, 1
  14              		.eabi_attribute 18, 4
  15              		.file	"lv_calendar_header_dropdown.c"
  16              		.text
  17              	.Ltext0:
  18              		.cfi_sections	.debug_frame
  19              		.file 1 "Drivers/lvgl/src/widgets/calendar/lv_calendar_header_dropdown.c"
  20              		.section	.rodata.my_constructor.str1.4,"aMS",%progbits,1
  21              		.align	2
  22              	.LC0:
  23 0000 32303235 		.ascii	"2025\0122024\0122023\0122022\0122021\0122020\012201"
  23      0A323032 
  23      340A3230 
  23      32330A32 
  23      3032320A 
  24 0021 390A3230 		.ascii	"9\0122018\0122017\0122016\0122015\0122014\0122013\012"
  24      31380A32 
  24      3031370A 
  24      32303136 
  24      0A323031 
  25 0041 32303132 		.ascii	"2012\0122011\0122010\0122009\0122008\0122007\012200"
  25      0A323031 
  25      310A3230 
  25      31300A32 
  25      3030390A 
  26 0062 360A3230 		.ascii	"6\0122005\0122004\0122003\0122002\0122001\0122000\012"
  26      30350A32 
  26      3030340A 
  26      32303033 
  26      0A323030 
  27 0082 31393939 		.ascii	"1999\0121998\0121997\0121996\0121995\0121994\012199"
  27      0A313939 
  27      380A3139 
  27      39370A31 
  27      3939360A 
  28 00a3 330A3139 		.ascii	"3\0121992\0121991\0121990\0121989\0121988\0121987\012"
  28      39320A31 
  28      3939310A 
  28      31393930 
  28      0A313938 
  29 00c3 31393836 		.ascii	"1986\0121985\0121984\0121983\0121982\0121981\012198"
  29      0A313938 
  29      350A3139 
  29      38340A31 
  29      3938330A 
ARM GAS  /tmp/cccopIWO.s 			page 2


  30 00e4 300A3139 		.ascii	"0\0121979\0121978\0121977\0121976\0121975\0121974\012"
  30      37390A31 
  30      3937380A 
  30      31393737 
  30      0A313937 
  31 0104 31393733 		.ascii	"1973\0121972\0121971\0121970\0121969\0121968\012196"
  31      0A313937 
  31      320A3139 
  31      37310A31 
  31      3937300A 
  32 0125 370A3139 		.ascii	"7\0121966\0121965\0121964\0121963\0121962\0121961\012"
  32      36360A31 
  32      3936350A 
  32      31393634 
  32      0A313936 
  33 0145 31393630 		.ascii	"1960\0121959\0121958\0121957\0121956\0121955\012195"
  33      0A313935 
  33      390A3139 
  33      35380A31 
  33      3935370A 
  34 0166 340A3139 		.ascii	"4\0121953\0121952\0121951\0121950\0121949\0121948\012"
  34      35330A31 
  34      3935320A 
  34      31393531 
  34      0A313935 
  35 0186 31393437 		.ascii	"1947\0121946\0121945\0121944\0121943\0121942\012194"
  35      0A313934 
  35      360A3139 
  35      34350A31 
  35      3934340A 
  36 01a7 310A3139 		.ascii	"1\0121940\0121939\0121938\0121937\0121936\0121935\012"
  36      34300A31 
  36      3933390A 
  36      31393338 
  36      0A313933 
  37 01c7 31393334 		.ascii	"1934\0121933\0121932\0121931\0121930\0121929\012192"
  37      0A313933 
  37      330A3139 
  37      33320A31 
  37      3933310A 
  38 01e8 380A3139 		.ascii	"8\0121927\0121926\0121925\0121924\0121923\0121922\012"
  38      32370A31 
  38      3932360A 
  38      31393235 
  38      0A313932 
  39 0208 31393231 		.ascii	"1921\0121920\0121919\0121918\0121917\0121916\012191"
  39      0A313932 
  39      300A3139 
  39      31390A31 
  39      3931380A 
  40 0229 350A3139 		.ascii	"5\0121914\0121913\0121912\0121911\0121910\0121909\012"
  40      31340A31 
  40      3931330A 
  40      31393132 
  40      0A313931 
  41 0249 31393038 		.ascii	"1908\0121907\0121906\0121905\0121904\0121903\012190"
  41      0A313930 
ARM GAS  /tmp/cccopIWO.s 			page 3


  41      370A3139 
  41      30360A31 
  41      3930350A 
  42 026a 320A3139 		.ascii	"2\0121901\000"
  42      303100
  43 0271 000000   		.align	2
  44              	.LC1:
  45 0274 30310A30 		.ascii	"01\01202\01203\01204\01205\01206\01207\01208\01209\012"
  45      320A3033 
  45      0A30340A 
  45      30350A30 
  45      360A3037 
  46 028f 31300A31 		.ascii	"10\01211\01212\000"
  46      310A3132 
  46      00
  47              		.section	.text.my_constructor,"ax",%progbits
  48              		.align	1
  49              		.syntax unified
  50              		.thumb
  51              		.thumb_func
  53              	my_constructor:
  54              	.LVL0:
  55              	.LFB173:
   1:Drivers/lvgl/src/widgets/calendar/lv_calendar_header_dropdown.c **** /**
   2:Drivers/lvgl/src/widgets/calendar/lv_calendar_header_dropdown.c ****  * @file lv_calendar_obj_dropdown.c
   3:Drivers/lvgl/src/widgets/calendar/lv_calendar_header_dropdown.c ****  *
   4:Drivers/lvgl/src/widgets/calendar/lv_calendar_header_dropdown.c ****  */
   5:Drivers/lvgl/src/widgets/calendar/lv_calendar_header_dropdown.c **** 
   6:Drivers/lvgl/src/widgets/calendar/lv_calendar_header_dropdown.c **** /*********************
   7:Drivers/lvgl/src/widgets/calendar/lv_calendar_header_dropdown.c ****  *      INCLUDES
   8:Drivers/lvgl/src/widgets/calendar/lv_calendar_header_dropdown.c ****  *********************/
   9:Drivers/lvgl/src/widgets/calendar/lv_calendar_header_dropdown.c **** #include "../../core/lv_obj_class_private.h"
  10:Drivers/lvgl/src/widgets/calendar/lv_calendar_header_dropdown.c **** #include "lv_calendar_header_dropdown.h"
  11:Drivers/lvgl/src/widgets/calendar/lv_calendar_header_dropdown.c **** #if LV_USE_CALENDAR && LV_USE_CALENDAR_HEADER_DROPDOWN
  12:Drivers/lvgl/src/widgets/calendar/lv_calendar_header_dropdown.c **** 
  13:Drivers/lvgl/src/widgets/calendar/lv_calendar_header_dropdown.c **** #include "lv_calendar.h"
  14:Drivers/lvgl/src/widgets/calendar/lv_calendar_header_dropdown.c **** #include "../dropdown/lv_dropdown.h"
  15:Drivers/lvgl/src/widgets/calendar/lv_calendar_header_dropdown.c **** #include "../../layouts/flex/lv_flex.h"
  16:Drivers/lvgl/src/widgets/calendar/lv_calendar_header_dropdown.c **** 
  17:Drivers/lvgl/src/widgets/calendar/lv_calendar_header_dropdown.c **** /*********************
  18:Drivers/lvgl/src/widgets/calendar/lv_calendar_header_dropdown.c ****  *      DEFINES
  19:Drivers/lvgl/src/widgets/calendar/lv_calendar_header_dropdown.c ****  *********************/
  20:Drivers/lvgl/src/widgets/calendar/lv_calendar_header_dropdown.c **** 
  21:Drivers/lvgl/src/widgets/calendar/lv_calendar_header_dropdown.c **** /**********************
  22:Drivers/lvgl/src/widgets/calendar/lv_calendar_header_dropdown.c ****  *      TYPEDEFS
  23:Drivers/lvgl/src/widgets/calendar/lv_calendar_header_dropdown.c ****  **********************/
  24:Drivers/lvgl/src/widgets/calendar/lv_calendar_header_dropdown.c **** 
  25:Drivers/lvgl/src/widgets/calendar/lv_calendar_header_dropdown.c **** /**********************
  26:Drivers/lvgl/src/widgets/calendar/lv_calendar_header_dropdown.c ****  *  STATIC PROTOTYPES
  27:Drivers/lvgl/src/widgets/calendar/lv_calendar_header_dropdown.c ****  **********************/
  28:Drivers/lvgl/src/widgets/calendar/lv_calendar_header_dropdown.c **** static void my_constructor(const lv_obj_class_t * class_p, lv_obj_t * obj);
  29:Drivers/lvgl/src/widgets/calendar/lv_calendar_header_dropdown.c **** static void year_event_cb(lv_event_t * e);
  30:Drivers/lvgl/src/widgets/calendar/lv_calendar_header_dropdown.c **** static void month_event_cb(lv_event_t * e);
  31:Drivers/lvgl/src/widgets/calendar/lv_calendar_header_dropdown.c **** static void value_changed_event_cb(lv_event_t * e);
  32:Drivers/lvgl/src/widgets/calendar/lv_calendar_header_dropdown.c **** 
  33:Drivers/lvgl/src/widgets/calendar/lv_calendar_header_dropdown.c **** /**********************
  34:Drivers/lvgl/src/widgets/calendar/lv_calendar_header_dropdown.c ****  *  STATIC VARIABLES
ARM GAS  /tmp/cccopIWO.s 			page 4


  35:Drivers/lvgl/src/widgets/calendar/lv_calendar_header_dropdown.c ****  **********************/
  36:Drivers/lvgl/src/widgets/calendar/lv_calendar_header_dropdown.c **** 
  37:Drivers/lvgl/src/widgets/calendar/lv_calendar_header_dropdown.c **** const lv_obj_class_t lv_calendar_header_dropdown_class = {
  38:Drivers/lvgl/src/widgets/calendar/lv_calendar_header_dropdown.c ****     .base_class = &lv_obj_class,
  39:Drivers/lvgl/src/widgets/calendar/lv_calendar_header_dropdown.c ****     .width_def = LV_PCT(100),
  40:Drivers/lvgl/src/widgets/calendar/lv_calendar_header_dropdown.c ****     .height_def = LV_SIZE_CONTENT,
  41:Drivers/lvgl/src/widgets/calendar/lv_calendar_header_dropdown.c ****     .constructor_cb = my_constructor,
  42:Drivers/lvgl/src/widgets/calendar/lv_calendar_header_dropdown.c ****     .name = "lv_calendar_header_dropdown",
  43:Drivers/lvgl/src/widgets/calendar/lv_calendar_header_dropdown.c **** };
  44:Drivers/lvgl/src/widgets/calendar/lv_calendar_header_dropdown.c **** 
  45:Drivers/lvgl/src/widgets/calendar/lv_calendar_header_dropdown.c **** static const char * month_list = "01\n02\n03\n04\n05\n06\n07\n08\n09\n10\n11\n12";
  46:Drivers/lvgl/src/widgets/calendar/lv_calendar_header_dropdown.c **** static const char * year_list = {
  47:Drivers/lvgl/src/widgets/calendar/lv_calendar_header_dropdown.c ****     "2025\n2024\n2023\n2022\n2021\n"
  48:Drivers/lvgl/src/widgets/calendar/lv_calendar_header_dropdown.c ****     "2020\n2019\n2018\n2017\n2016\n2015\n2014\n2013\n2012\n2011\n2010\n2009\n2008\n2007\n2006\n2005
  49:Drivers/lvgl/src/widgets/calendar/lv_calendar_header_dropdown.c ****     "2000\n1999\n1998\n1997\n1996\n1995\n1994\n1993\n1992\n1991\n1990\n1989\n1988\n1987\n1986\n1985
  50:Drivers/lvgl/src/widgets/calendar/lv_calendar_header_dropdown.c ****     "1980\n1979\n1978\n1977\n1976\n1975\n1974\n1973\n1972\n1971\n1970\n1969\n1968\n1967\n1966\n1965
  51:Drivers/lvgl/src/widgets/calendar/lv_calendar_header_dropdown.c ****     "1960\n1959\n1958\n1957\n1956\n1955\n1954\n1953\n1952\n1951\n1950\n1949\n1948\n1947\n1946\n1945
  52:Drivers/lvgl/src/widgets/calendar/lv_calendar_header_dropdown.c ****     "1940\n1939\n1938\n1937\n1936\n1935\n1934\n1933\n1932\n1931\n1930\n1929\n1928\n1927\n1926\n1925
  53:Drivers/lvgl/src/widgets/calendar/lv_calendar_header_dropdown.c ****     "1920\n1919\n1918\n1917\n1916\n1915\n1914\n1913\n1912\n1911\n1910\n1909\n1908\n1907\n1906\n1905
  54:Drivers/lvgl/src/widgets/calendar/lv_calendar_header_dropdown.c **** };
  55:Drivers/lvgl/src/widgets/calendar/lv_calendar_header_dropdown.c **** 
  56:Drivers/lvgl/src/widgets/calendar/lv_calendar_header_dropdown.c **** /**********************
  57:Drivers/lvgl/src/widgets/calendar/lv_calendar_header_dropdown.c ****  *      MACROS
  58:Drivers/lvgl/src/widgets/calendar/lv_calendar_header_dropdown.c ****  **********************/
  59:Drivers/lvgl/src/widgets/calendar/lv_calendar_header_dropdown.c **** 
  60:Drivers/lvgl/src/widgets/calendar/lv_calendar_header_dropdown.c **** /**********************
  61:Drivers/lvgl/src/widgets/calendar/lv_calendar_header_dropdown.c ****  *   GLOBAL FUNCTIONS
  62:Drivers/lvgl/src/widgets/calendar/lv_calendar_header_dropdown.c ****  **********************/
  63:Drivers/lvgl/src/widgets/calendar/lv_calendar_header_dropdown.c **** 
  64:Drivers/lvgl/src/widgets/calendar/lv_calendar_header_dropdown.c **** lv_obj_t * lv_calendar_header_dropdown_create(lv_obj_t * parent)
  65:Drivers/lvgl/src/widgets/calendar/lv_calendar_header_dropdown.c **** {
  66:Drivers/lvgl/src/widgets/calendar/lv_calendar_header_dropdown.c ****     lv_obj_t * obj = lv_obj_class_create_obj(&lv_calendar_header_dropdown_class, parent);
  67:Drivers/lvgl/src/widgets/calendar/lv_calendar_header_dropdown.c ****     lv_obj_class_init_obj(obj);
  68:Drivers/lvgl/src/widgets/calendar/lv_calendar_header_dropdown.c **** 
  69:Drivers/lvgl/src/widgets/calendar/lv_calendar_header_dropdown.c ****     return obj;
  70:Drivers/lvgl/src/widgets/calendar/lv_calendar_header_dropdown.c **** }
  71:Drivers/lvgl/src/widgets/calendar/lv_calendar_header_dropdown.c **** 
  72:Drivers/lvgl/src/widgets/calendar/lv_calendar_header_dropdown.c **** void lv_calendar_header_dropdown_set_year_list(lv_obj_t * parent, const char * years_list)
  73:Drivers/lvgl/src/widgets/calendar/lv_calendar_header_dropdown.c **** {
  74:Drivers/lvgl/src/widgets/calendar/lv_calendar_header_dropdown.c ****     /* Search for the header dropdown */
  75:Drivers/lvgl/src/widgets/calendar/lv_calendar_header_dropdown.c ****     lv_obj_t * header = lv_obj_get_child_by_type(parent, 0, &lv_calendar_header_dropdown_class);
  76:Drivers/lvgl/src/widgets/calendar/lv_calendar_header_dropdown.c ****     if(NULL == header) {
  77:Drivers/lvgl/src/widgets/calendar/lv_calendar_header_dropdown.c ****         /* Header not found */
  78:Drivers/lvgl/src/widgets/calendar/lv_calendar_header_dropdown.c ****         return;
  79:Drivers/lvgl/src/widgets/calendar/lv_calendar_header_dropdown.c ****     }
  80:Drivers/lvgl/src/widgets/calendar/lv_calendar_header_dropdown.c **** 
  81:Drivers/lvgl/src/widgets/calendar/lv_calendar_header_dropdown.c ****     /* Search for the year dropdown
  82:Drivers/lvgl/src/widgets/calendar/lv_calendar_header_dropdown.c ****      * Index is 0 because in the header dropdown constructor the year dropdown (year_dd)
  83:Drivers/lvgl/src/widgets/calendar/lv_calendar_header_dropdown.c ****      * is the first created child of the header */
  84:Drivers/lvgl/src/widgets/calendar/lv_calendar_header_dropdown.c ****     const int32_t year_dropdown_index = 0;
  85:Drivers/lvgl/src/widgets/calendar/lv_calendar_header_dropdown.c ****     lv_obj_t * year_dropdown = lv_obj_get_child_by_type(header, year_dropdown_index, &lv_dropdown_c
  86:Drivers/lvgl/src/widgets/calendar/lv_calendar_header_dropdown.c ****     if(NULL == year_dropdown) {
  87:Drivers/lvgl/src/widgets/calendar/lv_calendar_header_dropdown.c ****         /* year dropdown not found */
  88:Drivers/lvgl/src/widgets/calendar/lv_calendar_header_dropdown.c ****         return;
  89:Drivers/lvgl/src/widgets/calendar/lv_calendar_header_dropdown.c ****     }
  90:Drivers/lvgl/src/widgets/calendar/lv_calendar_header_dropdown.c **** 
  91:Drivers/lvgl/src/widgets/calendar/lv_calendar_header_dropdown.c ****     lv_dropdown_clear_options(year_dropdown);
ARM GAS  /tmp/cccopIWO.s 			page 5


  92:Drivers/lvgl/src/widgets/calendar/lv_calendar_header_dropdown.c ****     lv_dropdown_set_options(year_dropdown, years_list);
  93:Drivers/lvgl/src/widgets/calendar/lv_calendar_header_dropdown.c **** 
  94:Drivers/lvgl/src/widgets/calendar/lv_calendar_header_dropdown.c ****     lv_obj_invalidate(parent);
  95:Drivers/lvgl/src/widgets/calendar/lv_calendar_header_dropdown.c **** }
  96:Drivers/lvgl/src/widgets/calendar/lv_calendar_header_dropdown.c **** 
  97:Drivers/lvgl/src/widgets/calendar/lv_calendar_header_dropdown.c **** /**********************
  98:Drivers/lvgl/src/widgets/calendar/lv_calendar_header_dropdown.c ****  *  STATIC FUNCTIONS
  99:Drivers/lvgl/src/widgets/calendar/lv_calendar_header_dropdown.c ****  **********************/
 100:Drivers/lvgl/src/widgets/calendar/lv_calendar_header_dropdown.c **** 
 101:Drivers/lvgl/src/widgets/calendar/lv_calendar_header_dropdown.c **** static void my_constructor(const lv_obj_class_t * class_p, lv_obj_t * obj)
 102:Drivers/lvgl/src/widgets/calendar/lv_calendar_header_dropdown.c **** {
  56              		.loc 1 102 1 view -0
  57              		.cfi_startproc
  58              		@ args = 0, pretend = 0, frame = 0
  59              		@ frame_needed = 0, uses_anonymous_args = 0
  60              		.loc 1 102 1 is_stmt 0 view .LVU1
  61 0000 70B5     		push	{r4, r5, r6, lr}
  62              	.LCFI0:
  63              		.cfi_def_cfa_offset 16
  64              		.cfi_offset 4, -16
  65              		.cfi_offset 5, -12
  66              		.cfi_offset 6, -8
  67              		.cfi_offset 14, -4
  68 0002 0C46     		mov	r4, r1
 103:Drivers/lvgl/src/widgets/calendar/lv_calendar_header_dropdown.c ****     LV_TRACE_OBJ_CREATE("begin");
  69              		.loc 1 103 33 is_stmt 1 view .LVU2
 104:Drivers/lvgl/src/widgets/calendar/lv_calendar_header_dropdown.c **** 
 105:Drivers/lvgl/src/widgets/calendar/lv_calendar_header_dropdown.c ****     LV_UNUSED(class_p);
  70              		.loc 1 105 5 view .LVU3
 106:Drivers/lvgl/src/widgets/calendar/lv_calendar_header_dropdown.c **** 
 107:Drivers/lvgl/src/widgets/calendar/lv_calendar_header_dropdown.c ****     lv_obj_t * calendar = lv_obj_get_parent(obj);
  71              		.loc 1 107 5 view .LVU4
  72              		.loc 1 107 27 is_stmt 0 view .LVU5
  73 0004 0846     		mov	r0, r1
  74              	.LVL1:
  75              		.loc 1 107 27 view .LVU6
  76 0006 FFF7FEFF 		bl	lv_obj_get_parent
  77              	.LVL2:
  78              		.loc 1 107 27 view .LVU7
  79 000a 0646     		mov	r6, r0
  80              	.LVL3:
 108:Drivers/lvgl/src/widgets/calendar/lv_calendar_header_dropdown.c ****     lv_obj_move_to_index(obj, 0);
  81              		.loc 1 108 5 is_stmt 1 view .LVU8
  82 000c 0021     		movs	r1, #0
  83 000e 2046     		mov	r0, r4
  84              	.LVL4:
  85              		.loc 1 108 5 is_stmt 0 view .LVU9
  86 0010 FFF7FEFF 		bl	lv_obj_move_to_index
  87              	.LVL5:
 109:Drivers/lvgl/src/widgets/calendar/lv_calendar_header_dropdown.c ****     lv_obj_set_flex_flow(obj, LV_FLEX_FLOW_ROW);
  88              		.loc 1 109 5 is_stmt 1 view .LVU10
  89 0014 0021     		movs	r1, #0
  90 0016 2046     		mov	r0, r4
  91 0018 FFF7FEFF 		bl	lv_obj_set_flex_flow
  92              	.LVL6:
 110:Drivers/lvgl/src/widgets/calendar/lv_calendar_header_dropdown.c **** 
 111:Drivers/lvgl/src/widgets/calendar/lv_calendar_header_dropdown.c ****     lv_obj_t * year_dd = lv_dropdown_create(obj);
ARM GAS  /tmp/cccopIWO.s 			page 6


  93              		.loc 1 111 5 view .LVU11
  94              		.loc 1 111 26 is_stmt 0 view .LVU12
  95 001c 2046     		mov	r0, r4
  96 001e FFF7FEFF 		bl	lv_dropdown_create
  97              	.LVL7:
  98 0022 0546     		mov	r5, r0
  99              	.LVL8:
 112:Drivers/lvgl/src/widgets/calendar/lv_calendar_header_dropdown.c ****     lv_dropdown_set_options(year_dd, year_list);
 100              		.loc 1 112 5 is_stmt 1 view .LVU13
 101 0024 1449     		ldr	r1, .L3
 102 0026 FFF7FEFF 		bl	lv_dropdown_set_options
 103              	.LVL9:
 113:Drivers/lvgl/src/widgets/calendar/lv_calendar_header_dropdown.c ****     lv_obj_add_event_cb(year_dd, year_event_cb, LV_EVENT_VALUE_CHANGED, calendar);
 104              		.loc 1 113 5 view .LVU14
 105 002a 3346     		mov	r3, r6
 106 002c 2322     		movs	r2, #35
 107 002e 1349     		ldr	r1, .L3+4
 108 0030 2846     		mov	r0, r5
 109 0032 FFF7FEFF 		bl	lv_obj_add_event_cb
 110              	.LVL10:
 114:Drivers/lvgl/src/widgets/calendar/lv_calendar_header_dropdown.c ****     lv_obj_set_flex_grow(year_dd, 1);
 111              		.loc 1 114 5 view .LVU15
 112 0036 0121     		movs	r1, #1
 113 0038 2846     		mov	r0, r5
 114 003a FFF7FEFF 		bl	lv_obj_set_flex_grow
 115              	.LVL11:
 115:Drivers/lvgl/src/widgets/calendar/lv_calendar_header_dropdown.c **** 
 116:Drivers/lvgl/src/widgets/calendar/lv_calendar_header_dropdown.c ****     lv_obj_t * month_dd = lv_dropdown_create(obj);
 116              		.loc 1 116 5 view .LVU16
 117              		.loc 1 116 27 is_stmt 0 view .LVU17
 118 003e 2046     		mov	r0, r4
 119 0040 FFF7FEFF 		bl	lv_dropdown_create
 120              	.LVL12:
 121 0044 0546     		mov	r5, r0
 122              	.LVL13:
 117:Drivers/lvgl/src/widgets/calendar/lv_calendar_header_dropdown.c ****     lv_dropdown_set_options(month_dd, month_list);
 123              		.loc 1 117 5 is_stmt 1 view .LVU18
 124 0046 0E49     		ldr	r1, .L3+8
 125 0048 FFF7FEFF 		bl	lv_dropdown_set_options
 126              	.LVL14:
 118:Drivers/lvgl/src/widgets/calendar/lv_calendar_header_dropdown.c ****     lv_obj_add_event_cb(month_dd, month_event_cb, LV_EVENT_VALUE_CHANGED, calendar);
 127              		.loc 1 118 5 view .LVU19
 128 004c 3346     		mov	r3, r6
 129 004e 2322     		movs	r2, #35
 130 0050 0C49     		ldr	r1, .L3+12
 131 0052 2846     		mov	r0, r5
 132 0054 FFF7FEFF 		bl	lv_obj_add_event_cb
 133              	.LVL15:
 119:Drivers/lvgl/src/widgets/calendar/lv_calendar_header_dropdown.c ****     lv_obj_set_flex_grow(month_dd, 1);
 134              		.loc 1 119 5 view .LVU20
 135 0058 0121     		movs	r1, #1
 136 005a 2846     		mov	r0, r5
 137 005c FFF7FEFF 		bl	lv_obj_set_flex_grow
 138              	.LVL16:
 120:Drivers/lvgl/src/widgets/calendar/lv_calendar_header_dropdown.c **** 
 121:Drivers/lvgl/src/widgets/calendar/lv_calendar_header_dropdown.c ****     lv_obj_add_event_cb(obj, value_changed_event_cb, LV_EVENT_VALUE_CHANGED, NULL);
 139              		.loc 1 121 5 view .LVU21
ARM GAS  /tmp/cccopIWO.s 			page 7


 140 0060 0023     		movs	r3, #0
 141 0062 2322     		movs	r2, #35
 142 0064 0849     		ldr	r1, .L3+16
 143 0066 2046     		mov	r0, r4
 144 0068 FFF7FEFF 		bl	lv_obj_add_event_cb
 145              	.LVL17:
 122:Drivers/lvgl/src/widgets/calendar/lv_calendar_header_dropdown.c ****     /*Refresh the drop downs*/
 123:Drivers/lvgl/src/widgets/calendar/lv_calendar_header_dropdown.c ****     lv_obj_send_event(obj, LV_EVENT_VALUE_CHANGED, NULL);
 146              		.loc 1 123 5 view .LVU22
 147 006c 0022     		movs	r2, #0
 148 006e 2321     		movs	r1, #35
 149 0070 2046     		mov	r0, r4
 150 0072 FFF7FEFF 		bl	lv_obj_send_event
 151              	.LVL18:
 124:Drivers/lvgl/src/widgets/calendar/lv_calendar_header_dropdown.c **** }
 152              		.loc 1 124 1 is_stmt 0 view .LVU23
 153 0076 70BD     		pop	{r4, r5, r6, pc}
 154              	.LVL19:
 155              	.L4:
 156              		.loc 1 124 1 view .LVU24
 157              		.align	2
 158              	.L3:
 159 0078 00000000 		.word	.LC0
 160 007c 00000000 		.word	year_event_cb
 161 0080 74020000 		.word	.LC1
 162 0084 00000000 		.word	month_event_cb
 163 0088 00000000 		.word	value_changed_event_cb
 164              		.cfi_endproc
 165              	.LFE173:
 167              		.section	.text.value_changed_event_cb,"ax",%progbits
 168              		.align	1
 169              		.syntax unified
 170              		.thumb
 171              		.thumb_func
 173              	value_changed_event_cb:
 174              	.LVL20:
 175              	.LFB176:
 125:Drivers/lvgl/src/widgets/calendar/lv_calendar_header_dropdown.c **** 
 126:Drivers/lvgl/src/widgets/calendar/lv_calendar_header_dropdown.c **** static void month_event_cb(lv_event_t * e)
 127:Drivers/lvgl/src/widgets/calendar/lv_calendar_header_dropdown.c **** {
 128:Drivers/lvgl/src/widgets/calendar/lv_calendar_header_dropdown.c ****     lv_obj_t * dropdown = lv_event_get_current_target(e);
 129:Drivers/lvgl/src/widgets/calendar/lv_calendar_header_dropdown.c ****     lv_obj_t * calendar = lv_event_get_user_data(e);
 130:Drivers/lvgl/src/widgets/calendar/lv_calendar_header_dropdown.c **** 
 131:Drivers/lvgl/src/widgets/calendar/lv_calendar_header_dropdown.c ****     uint32_t sel = lv_dropdown_get_selected(dropdown);
 132:Drivers/lvgl/src/widgets/calendar/lv_calendar_header_dropdown.c **** 
 133:Drivers/lvgl/src/widgets/calendar/lv_calendar_header_dropdown.c ****     const lv_calendar_date_t * d;
 134:Drivers/lvgl/src/widgets/calendar/lv_calendar_header_dropdown.c ****     d = lv_calendar_get_showed_date(calendar);
 135:Drivers/lvgl/src/widgets/calendar/lv_calendar_header_dropdown.c ****     lv_calendar_date_t newd = *d;
 136:Drivers/lvgl/src/widgets/calendar/lv_calendar_header_dropdown.c ****     newd.month = sel + 1;
 137:Drivers/lvgl/src/widgets/calendar/lv_calendar_header_dropdown.c **** 
 138:Drivers/lvgl/src/widgets/calendar/lv_calendar_header_dropdown.c ****     lv_calendar_set_month_shown(calendar, newd.year, newd.month);
 139:Drivers/lvgl/src/widgets/calendar/lv_calendar_header_dropdown.c **** }
 140:Drivers/lvgl/src/widgets/calendar/lv_calendar_header_dropdown.c **** 
 141:Drivers/lvgl/src/widgets/calendar/lv_calendar_header_dropdown.c **** static void year_event_cb(lv_event_t * e)
 142:Drivers/lvgl/src/widgets/calendar/lv_calendar_header_dropdown.c **** {
 143:Drivers/lvgl/src/widgets/calendar/lv_calendar_header_dropdown.c ****     lv_obj_t * dropdown = lv_event_get_current_target(e);
 144:Drivers/lvgl/src/widgets/calendar/lv_calendar_header_dropdown.c ****     lv_obj_t * calendar = lv_event_get_user_data(e);
ARM GAS  /tmp/cccopIWO.s 			page 8


 145:Drivers/lvgl/src/widgets/calendar/lv_calendar_header_dropdown.c **** 
 146:Drivers/lvgl/src/widgets/calendar/lv_calendar_header_dropdown.c ****     uint32_t sel = lv_dropdown_get_selected(dropdown);
 147:Drivers/lvgl/src/widgets/calendar/lv_calendar_header_dropdown.c **** 
 148:Drivers/lvgl/src/widgets/calendar/lv_calendar_header_dropdown.c ****     const lv_calendar_date_t * d;
 149:Drivers/lvgl/src/widgets/calendar/lv_calendar_header_dropdown.c ****     d = lv_calendar_get_showed_date(calendar);
 150:Drivers/lvgl/src/widgets/calendar/lv_calendar_header_dropdown.c **** 
 151:Drivers/lvgl/src/widgets/calendar/lv_calendar_header_dropdown.c ****     /* Get the first year on the options list
 152:Drivers/lvgl/src/widgets/calendar/lv_calendar_header_dropdown.c ****      * NOTE: Assumes the first 4 digits in the option list are numbers */
 153:Drivers/lvgl/src/widgets/calendar/lv_calendar_header_dropdown.c ****     const char * year_p = lv_dropdown_get_options(dropdown);
 154:Drivers/lvgl/src/widgets/calendar/lv_calendar_header_dropdown.c ****     const uint32_t year = (year_p[0] - '0') * 1000 + (year_p[1] - '0') * 100 + (year_p[2] - '0') * 
 155:Drivers/lvgl/src/widgets/calendar/lv_calendar_header_dropdown.c ****                           (year_p[3] - '0');
 156:Drivers/lvgl/src/widgets/calendar/lv_calendar_header_dropdown.c **** 
 157:Drivers/lvgl/src/widgets/calendar/lv_calendar_header_dropdown.c ****     lv_calendar_date_t newd = *d;
 158:Drivers/lvgl/src/widgets/calendar/lv_calendar_header_dropdown.c ****     newd.year = year - sel;
 159:Drivers/lvgl/src/widgets/calendar/lv_calendar_header_dropdown.c **** 
 160:Drivers/lvgl/src/widgets/calendar/lv_calendar_header_dropdown.c ****     lv_calendar_set_month_shown(calendar, newd.year, newd.month);
 161:Drivers/lvgl/src/widgets/calendar/lv_calendar_header_dropdown.c **** }
 162:Drivers/lvgl/src/widgets/calendar/lv_calendar_header_dropdown.c **** 
 163:Drivers/lvgl/src/widgets/calendar/lv_calendar_header_dropdown.c **** static void value_changed_event_cb(lv_event_t * e)
 164:Drivers/lvgl/src/widgets/calendar/lv_calendar_header_dropdown.c **** {
 176              		.loc 1 164 1 is_stmt 1 view -0
 177              		.cfi_startproc
 178              		@ args = 0, pretend = 0, frame = 0
 179              		@ frame_needed = 0, uses_anonymous_args = 0
 180              		.loc 1 164 1 is_stmt 0 view .LVU26
 181 0000 70B5     		push	{r4, r5, r6, lr}
 182              	.LCFI1:
 183              		.cfi_def_cfa_offset 16
 184              		.cfi_offset 4, -16
 185              		.cfi_offset 5, -12
 186              		.cfi_offset 6, -8
 187              		.cfi_offset 14, -4
 165:Drivers/lvgl/src/widgets/calendar/lv_calendar_header_dropdown.c ****     lv_obj_t * header = lv_event_get_current_target(e);
 188              		.loc 1 165 5 is_stmt 1 view .LVU27
 189              		.loc 1 165 25 is_stmt 0 view .LVU28
 190 0002 FFF7FEFF 		bl	lv_event_get_current_target
 191              	.LVL21:
 192              		.loc 1 165 25 view .LVU29
 193 0006 0546     		mov	r5, r0
 194              	.LVL22:
 166:Drivers/lvgl/src/widgets/calendar/lv_calendar_header_dropdown.c ****     lv_obj_t * calendar = lv_obj_get_parent(header);
 195              		.loc 1 166 5 is_stmt 1 view .LVU30
 196              		.loc 1 166 27 is_stmt 0 view .LVU31
 197 0008 FFF7FEFF 		bl	lv_obj_get_parent
 198              	.LVL23:
 167:Drivers/lvgl/src/widgets/calendar/lv_calendar_header_dropdown.c ****     const lv_calendar_date_t * cur_date = lv_calendar_get_showed_date(calendar);
 199              		.loc 1 167 5 is_stmt 1 view .LVU32
 200              		.loc 1 167 43 is_stmt 0 view .LVU33
 201 000c FFF7FEFF 		bl	lv_calendar_get_showed_date
 202              	.LVL24:
 203              		.loc 1 167 43 view .LVU34
 204 0010 0446     		mov	r4, r0
 205              	.LVL25:
 168:Drivers/lvgl/src/widgets/calendar/lv_calendar_header_dropdown.c **** 
 169:Drivers/lvgl/src/widgets/calendar/lv_calendar_header_dropdown.c ****     lv_obj_t * year_dd = lv_obj_get_child(header, 0);
 206              		.loc 1 169 5 is_stmt 1 view .LVU35
 207              		.loc 1 169 26 is_stmt 0 view .LVU36
ARM GAS  /tmp/cccopIWO.s 			page 9


 208 0012 0021     		movs	r1, #0
 209 0014 2846     		mov	r0, r5
 210              	.LVL26:
 211              		.loc 1 169 26 view .LVU37
 212 0016 FFF7FEFF 		bl	lv_obj_get_child
 213              	.LVL27:
 214 001a 0646     		mov	r6, r0
 215              	.LVL28:
 170:Drivers/lvgl/src/widgets/calendar/lv_calendar_header_dropdown.c **** 
 171:Drivers/lvgl/src/widgets/calendar/lv_calendar_header_dropdown.c ****     /* Get the first year on the options list
 172:Drivers/lvgl/src/widgets/calendar/lv_calendar_header_dropdown.c ****      * NOTE: Assumes the first 4 digits in the option list are numbers */
 173:Drivers/lvgl/src/widgets/calendar/lv_calendar_header_dropdown.c ****     const char * year_p = lv_dropdown_get_options(year_dd);
 216              		.loc 1 173 5 is_stmt 1 view .LVU38
 217              		.loc 1 173 27 is_stmt 0 view .LVU39
 218 001c FFF7FEFF 		bl	lv_dropdown_get_options
 219              	.LVL29:
 174:Drivers/lvgl/src/widgets/calendar/lv_calendar_header_dropdown.c ****     const uint32_t year = (year_p[0] - '0') * 1000 + (year_p[1] - '0') * 100 + (year_p[2] - '0') * 
 220              		.loc 1 174 5 is_stmt 1 view .LVU40
 221              		.loc 1 174 34 is_stmt 0 view .LVU41
 222 0020 0278     		ldrb	r2, [r0]	@ zero_extendqisi2
 223              		.loc 1 174 38 view .LVU42
 224 0022 303A     		subs	r2, r2, #48
 225              		.loc 1 174 61 view .LVU43
 226 0024 4378     		ldrb	r3, [r0, #1]	@ zero_extendqisi2
 227              		.loc 1 174 65 view .LVU44
 228 0026 303B     		subs	r3, r3, #48
 229              		.loc 1 174 72 view .LVU45
 230 0028 6421     		movs	r1, #100
 231 002a 01FB03F3 		mul	r3, r1, r3
 232              		.loc 1 174 52 view .LVU46
 233 002e 4FF47A71 		mov	r1, #1000
 234 0032 01FB0233 		mla	r3, r1, r2, r3
 235              		.loc 1 174 87 view .LVU47
 236 0036 8278     		ldrb	r2, [r0, #2]	@ zero_extendqisi2
 237              		.loc 1 174 91 view .LVU48
 238 0038 303A     		subs	r2, r2, #48
 239              		.loc 1 174 98 view .LVU49
 240 003a 02EB8202 		add	r2, r2, r2, lsl #2
 241              		.loc 1 174 78 view .LVU50
 242 003e 03EB4203 		add	r3, r3, r2, lsl #1
 175:Drivers/lvgl/src/widgets/calendar/lv_calendar_header_dropdown.c ****                           (year_p[3] - '0');
 243              		.loc 1 175 34 view .LVU51
 244 0042 C278     		ldrb	r2, [r0, #3]	@ zero_extendqisi2
 245              		.loc 1 175 38 view .LVU52
 246 0044 303A     		subs	r2, r2, #48
 174:Drivers/lvgl/src/widgets/calendar/lv_calendar_header_dropdown.c ****     const uint32_t year = (year_p[0] - '0') * 1000 + (year_p[1] - '0') * 100 + (year_p[2] - '0') * 
 247              		.loc 1 174 103 view .LVU53
 248 0046 1344     		add	r3, r3, r2
 249              	.LVL30:
 176:Drivers/lvgl/src/widgets/calendar/lv_calendar_header_dropdown.c **** 
 177:Drivers/lvgl/src/widgets/calendar/lv_calendar_header_dropdown.c ****     lv_dropdown_set_selected(year_dd, year - cur_date->year, LV_ANIM_OFF);
 250              		.loc 1 177 5 is_stmt 1 view .LVU54
 251              		.loc 1 177 54 is_stmt 0 view .LVU55
 252 0048 2188     		ldrh	r1, [r4]
 253              		.loc 1 177 5 view .LVU56
 254 004a 0022     		movs	r2, #0
 255 004c 591A     		subs	r1, r3, r1
ARM GAS  /tmp/cccopIWO.s 			page 10


 256 004e 3046     		mov	r0, r6
 257              	.LVL31:
 258              		.loc 1 177 5 view .LVU57
 259 0050 FFF7FEFF 		bl	lv_dropdown_set_selected
 260              	.LVL32:
 178:Drivers/lvgl/src/widgets/calendar/lv_calendar_header_dropdown.c **** 
 179:Drivers/lvgl/src/widgets/calendar/lv_calendar_header_dropdown.c ****     lv_obj_t * month_dd = lv_obj_get_child(header, 1);
 261              		.loc 1 179 5 is_stmt 1 view .LVU58
 262              		.loc 1 179 27 is_stmt 0 view .LVU59
 263 0054 0121     		movs	r1, #1
 264 0056 2846     		mov	r0, r5
 265 0058 FFF7FEFF 		bl	lv_obj_get_child
 266              	.LVL33:
 180:Drivers/lvgl/src/widgets/calendar/lv_calendar_header_dropdown.c ****     lv_dropdown_set_selected(month_dd, cur_date->month - 1, LV_ANIM_OFF);
 267              		.loc 1 180 5 is_stmt 1 view .LVU60
 268              		.loc 1 180 48 is_stmt 0 view .LVU61
 269 005c 94F90210 		ldrsb	r1, [r4, #2]
 270              		.loc 1 180 5 view .LVU62
 271 0060 0022     		movs	r2, #0
 272 0062 0139     		subs	r1, r1, #1
 273 0064 FFF7FEFF 		bl	lv_dropdown_set_selected
 274              	.LVL34:
 181:Drivers/lvgl/src/widgets/calendar/lv_calendar_header_dropdown.c **** }
 275              		.loc 1 181 1 view .LVU63
 276 0068 70BD     		pop	{r4, r5, r6, pc}
 277              		.loc 1 181 1 view .LVU64
 278              		.cfi_endproc
 279              	.LFE176:
 281              		.section	.text.month_event_cb,"ax",%progbits
 282              		.align	1
 283              		.syntax unified
 284              		.thumb
 285              		.thumb_func
 287              	month_event_cb:
 288              	.LVL35:
 289              	.LFB174:
 127:Drivers/lvgl/src/widgets/calendar/lv_calendar_header_dropdown.c ****     lv_obj_t * dropdown = lv_event_get_current_target(e);
 290              		.loc 1 127 1 is_stmt 1 view -0
 291              		.cfi_startproc
 292              		@ args = 0, pretend = 0, frame = 8
 293              		@ frame_needed = 0, uses_anonymous_args = 0
 127:Drivers/lvgl/src/widgets/calendar/lv_calendar_header_dropdown.c ****     lv_obj_t * dropdown = lv_event_get_current_target(e);
 294              		.loc 1 127 1 is_stmt 0 view .LVU66
 295 0000 30B5     		push	{r4, r5, lr}
 296              	.LCFI2:
 297              		.cfi_def_cfa_offset 12
 298              		.cfi_offset 4, -12
 299              		.cfi_offset 5, -8
 300              		.cfi_offset 14, -4
 301 0002 83B0     		sub	sp, sp, #12
 302              	.LCFI3:
 303              		.cfi_def_cfa_offset 24
 304 0004 0546     		mov	r5, r0
 128:Drivers/lvgl/src/widgets/calendar/lv_calendar_header_dropdown.c ****     lv_obj_t * calendar = lv_event_get_user_data(e);
 305              		.loc 1 128 5 is_stmt 1 view .LVU67
 128:Drivers/lvgl/src/widgets/calendar/lv_calendar_header_dropdown.c ****     lv_obj_t * calendar = lv_event_get_user_data(e);
 306              		.loc 1 128 27 is_stmt 0 view .LVU68
ARM GAS  /tmp/cccopIWO.s 			page 11


 307 0006 FFF7FEFF 		bl	lv_event_get_current_target
 308              	.LVL36:
 128:Drivers/lvgl/src/widgets/calendar/lv_calendar_header_dropdown.c ****     lv_obj_t * calendar = lv_event_get_user_data(e);
 309              		.loc 1 128 27 view .LVU69
 310 000a 0446     		mov	r4, r0
 311              	.LVL37:
 129:Drivers/lvgl/src/widgets/calendar/lv_calendar_header_dropdown.c **** 
 312              		.loc 1 129 5 is_stmt 1 view .LVU70
 129:Drivers/lvgl/src/widgets/calendar/lv_calendar_header_dropdown.c **** 
 313              		.loc 1 129 27 is_stmt 0 view .LVU71
 314 000c 2846     		mov	r0, r5
 315              	.LVL38:
 129:Drivers/lvgl/src/widgets/calendar/lv_calendar_header_dropdown.c **** 
 316              		.loc 1 129 27 view .LVU72
 317 000e FFF7FEFF 		bl	lv_event_get_user_data
 318              	.LVL39:
 319 0012 0546     		mov	r5, r0
 320              	.LVL40:
 131:Drivers/lvgl/src/widgets/calendar/lv_calendar_header_dropdown.c **** 
 321              		.loc 1 131 5 is_stmt 1 view .LVU73
 131:Drivers/lvgl/src/widgets/calendar/lv_calendar_header_dropdown.c **** 
 322              		.loc 1 131 20 is_stmt 0 view .LVU74
 323 0014 2046     		mov	r0, r4
 324              	.LVL41:
 131:Drivers/lvgl/src/widgets/calendar/lv_calendar_header_dropdown.c **** 
 325              		.loc 1 131 20 view .LVU75
 326 0016 FFF7FEFF 		bl	lv_dropdown_get_selected
 327              	.LVL42:
 328 001a 0446     		mov	r4, r0
 329              	.LVL43:
 133:Drivers/lvgl/src/widgets/calendar/lv_calendar_header_dropdown.c ****     d = lv_calendar_get_showed_date(calendar);
 330              		.loc 1 133 5 is_stmt 1 view .LVU76
 134:Drivers/lvgl/src/widgets/calendar/lv_calendar_header_dropdown.c ****     lv_calendar_date_t newd = *d;
 331              		.loc 1 134 5 view .LVU77
 134:Drivers/lvgl/src/widgets/calendar/lv_calendar_header_dropdown.c ****     lv_calendar_date_t newd = *d;
 332              		.loc 1 134 9 is_stmt 0 view .LVU78
 333 001c 2846     		mov	r0, r5
 334              	.LVL44:
 134:Drivers/lvgl/src/widgets/calendar/lv_calendar_header_dropdown.c ****     lv_calendar_date_t newd = *d;
 335              		.loc 1 134 9 view .LVU79
 336 001e FFF7FEFF 		bl	lv_calendar_get_showed_date
 337              	.LVL45:
 135:Drivers/lvgl/src/widgets/calendar/lv_calendar_header_dropdown.c ****     newd.month = sel + 1;
 338              		.loc 1 135 5 is_stmt 1 view .LVU80
 135:Drivers/lvgl/src/widgets/calendar/lv_calendar_header_dropdown.c ****     newd.month = sel + 1;
 339              		.loc 1 135 24 is_stmt 0 view .LVU81
 340 0022 0068     		ldr	r0, [r0]	@ unaligned
 341              	.LVL46:
 135:Drivers/lvgl/src/widgets/calendar/lv_calendar_header_dropdown.c ****     newd.month = sel + 1;
 342              		.loc 1 135 24 view .LVU82
 343 0024 0190     		str	r0, [sp, #4]
 136:Drivers/lvgl/src/widgets/calendar/lv_calendar_header_dropdown.c **** 
 344              		.loc 1 136 5 is_stmt 1 view .LVU83
 136:Drivers/lvgl/src/widgets/calendar/lv_calendar_header_dropdown.c **** 
 345              		.loc 1 136 22 is_stmt 0 view .LVU84
 346 0026 621C     		adds	r2, r4, #1
 347 0028 52B2     		sxtb	r2, r2
ARM GAS  /tmp/cccopIWO.s 			page 12


 136:Drivers/lvgl/src/widgets/calendar/lv_calendar_header_dropdown.c **** 
 348              		.loc 1 136 16 view .LVU85
 349 002a 8DF80620 		strb	r2, [sp, #6]
 138:Drivers/lvgl/src/widgets/calendar/lv_calendar_header_dropdown.c **** }
 350              		.loc 1 138 5 is_stmt 1 view .LVU86
 351 002e BDF80410 		ldrh	r1, [sp, #4]
 352 0032 2846     		mov	r0, r5
 353 0034 FFF7FEFF 		bl	lv_calendar_set_month_shown
 354              	.LVL47:
 139:Drivers/lvgl/src/widgets/calendar/lv_calendar_header_dropdown.c **** 
 355              		.loc 1 139 1 is_stmt 0 view .LVU87
 356 0038 03B0     		add	sp, sp, #12
 357              	.LCFI4:
 358              		.cfi_def_cfa_offset 12
 359              		@ sp needed
 360 003a 30BD     		pop	{r4, r5, pc}
 139:Drivers/lvgl/src/widgets/calendar/lv_calendar_header_dropdown.c **** 
 361              		.loc 1 139 1 view .LVU88
 362              		.cfi_endproc
 363              	.LFE174:
 365              		.section	.text.year_event_cb,"ax",%progbits
 366              		.align	1
 367              		.syntax unified
 368              		.thumb
 369              		.thumb_func
 371              	year_event_cb:
 372              	.LVL48:
 373              	.LFB175:
 142:Drivers/lvgl/src/widgets/calendar/lv_calendar_header_dropdown.c ****     lv_obj_t * dropdown = lv_event_get_current_target(e);
 374              		.loc 1 142 1 is_stmt 1 view -0
 375              		.cfi_startproc
 376              		@ args = 0, pretend = 0, frame = 8
 377              		@ frame_needed = 0, uses_anonymous_args = 0
 142:Drivers/lvgl/src/widgets/calendar/lv_calendar_header_dropdown.c ****     lv_obj_t * dropdown = lv_event_get_current_target(e);
 378              		.loc 1 142 1 is_stmt 0 view .LVU90
 379 0000 F0B5     		push	{r4, r5, r6, r7, lr}
 380              	.LCFI5:
 381              		.cfi_def_cfa_offset 20
 382              		.cfi_offset 4, -20
 383              		.cfi_offset 5, -16
 384              		.cfi_offset 6, -12
 385              		.cfi_offset 7, -8
 386              		.cfi_offset 14, -4
 387 0002 83B0     		sub	sp, sp, #12
 388              	.LCFI6:
 389              		.cfi_def_cfa_offset 32
 390 0004 0446     		mov	r4, r0
 143:Drivers/lvgl/src/widgets/calendar/lv_calendar_header_dropdown.c ****     lv_obj_t * calendar = lv_event_get_user_data(e);
 391              		.loc 1 143 5 is_stmt 1 view .LVU91
 143:Drivers/lvgl/src/widgets/calendar/lv_calendar_header_dropdown.c ****     lv_obj_t * calendar = lv_event_get_user_data(e);
 392              		.loc 1 143 27 is_stmt 0 view .LVU92
 393 0006 FFF7FEFF 		bl	lv_event_get_current_target
 394              	.LVL49:
 143:Drivers/lvgl/src/widgets/calendar/lv_calendar_header_dropdown.c ****     lv_obj_t * calendar = lv_event_get_user_data(e);
 395              		.loc 1 143 27 view .LVU93
 396 000a 0746     		mov	r7, r0
 397              	.LVL50:
ARM GAS  /tmp/cccopIWO.s 			page 13


 144:Drivers/lvgl/src/widgets/calendar/lv_calendar_header_dropdown.c **** 
 398              		.loc 1 144 5 is_stmt 1 view .LVU94
 144:Drivers/lvgl/src/widgets/calendar/lv_calendar_header_dropdown.c **** 
 399              		.loc 1 144 27 is_stmt 0 view .LVU95
 400 000c 2046     		mov	r0, r4
 401              	.LVL51:
 144:Drivers/lvgl/src/widgets/calendar/lv_calendar_header_dropdown.c **** 
 402              		.loc 1 144 27 view .LVU96
 403 000e FFF7FEFF 		bl	lv_event_get_user_data
 404              	.LVL52:
 405 0012 0446     		mov	r4, r0
 406              	.LVL53:
 146:Drivers/lvgl/src/widgets/calendar/lv_calendar_header_dropdown.c **** 
 407              		.loc 1 146 5 is_stmt 1 view .LVU97
 146:Drivers/lvgl/src/widgets/calendar/lv_calendar_header_dropdown.c **** 
 408              		.loc 1 146 20 is_stmt 0 view .LVU98
 409 0014 3846     		mov	r0, r7
 410              	.LVL54:
 146:Drivers/lvgl/src/widgets/calendar/lv_calendar_header_dropdown.c **** 
 411              		.loc 1 146 20 view .LVU99
 412 0016 FFF7FEFF 		bl	lv_dropdown_get_selected
 413              	.LVL55:
 414 001a 0546     		mov	r5, r0
 415              	.LVL56:
 148:Drivers/lvgl/src/widgets/calendar/lv_calendar_header_dropdown.c ****     d = lv_calendar_get_showed_date(calendar);
 416              		.loc 1 148 5 is_stmt 1 view .LVU100
 149:Drivers/lvgl/src/widgets/calendar/lv_calendar_header_dropdown.c **** 
 417              		.loc 1 149 5 view .LVU101
 149:Drivers/lvgl/src/widgets/calendar/lv_calendar_header_dropdown.c **** 
 418              		.loc 1 149 9 is_stmt 0 view .LVU102
 419 001c 2046     		mov	r0, r4
 420              	.LVL57:
 149:Drivers/lvgl/src/widgets/calendar/lv_calendar_header_dropdown.c **** 
 421              		.loc 1 149 9 view .LVU103
 422 001e FFF7FEFF 		bl	lv_calendar_get_showed_date
 423              	.LVL58:
 424 0022 0646     		mov	r6, r0
 425              	.LVL59:
 153:Drivers/lvgl/src/widgets/calendar/lv_calendar_header_dropdown.c ****     const uint32_t year = (year_p[0] - '0') * 1000 + (year_p[1] - '0') * 100 + (year_p[2] - '0') * 
 426              		.loc 1 153 5 is_stmt 1 view .LVU104
 153:Drivers/lvgl/src/widgets/calendar/lv_calendar_header_dropdown.c ****     const uint32_t year = (year_p[0] - '0') * 1000 + (year_p[1] - '0') * 100 + (year_p[2] - '0') * 
 427              		.loc 1 153 27 is_stmt 0 view .LVU105
 428 0024 3846     		mov	r0, r7
 429              	.LVL60:
 153:Drivers/lvgl/src/widgets/calendar/lv_calendar_header_dropdown.c ****     const uint32_t year = (year_p[0] - '0') * 1000 + (year_p[1] - '0') * 100 + (year_p[2] - '0') * 
 430              		.loc 1 153 27 view .LVU106
 431 0026 FFF7FEFF 		bl	lv_dropdown_get_options
 432              	.LVL61:
 154:Drivers/lvgl/src/widgets/calendar/lv_calendar_header_dropdown.c ****                           (year_p[3] - '0');
 433              		.loc 1 154 5 is_stmt 1 view .LVU107
 154:Drivers/lvgl/src/widgets/calendar/lv_calendar_header_dropdown.c ****                           (year_p[3] - '0');
 434              		.loc 1 154 34 is_stmt 0 view .LVU108
 435 002a 0378     		ldrb	r3, [r0]	@ zero_extendqisi2
 154:Drivers/lvgl/src/widgets/calendar/lv_calendar_header_dropdown.c ****                           (year_p[3] - '0');
 436              		.loc 1 154 38 view .LVU109
 437 002c 303B     		subs	r3, r3, #48
 154:Drivers/lvgl/src/widgets/calendar/lv_calendar_header_dropdown.c ****                           (year_p[3] - '0');
ARM GAS  /tmp/cccopIWO.s 			page 14


 438              		.loc 1 154 61 view .LVU110
 439 002e 4178     		ldrb	r1, [r0, #1]	@ zero_extendqisi2
 154:Drivers/lvgl/src/widgets/calendar/lv_calendar_header_dropdown.c ****                           (year_p[3] - '0');
 440              		.loc 1 154 65 view .LVU111
 441 0030 3039     		subs	r1, r1, #48
 154:Drivers/lvgl/src/widgets/calendar/lv_calendar_header_dropdown.c ****                           (year_p[3] - '0');
 442              		.loc 1 154 72 view .LVU112
 443 0032 6422     		movs	r2, #100
 444 0034 02FB01F1 		mul	r1, r2, r1
 154:Drivers/lvgl/src/widgets/calendar/lv_calendar_header_dropdown.c ****                           (year_p[3] - '0');
 445              		.loc 1 154 52 view .LVU113
 446 0038 4FF47A72 		mov	r2, #1000
 447 003c 02FB0311 		mla	r1, r2, r3, r1
 154:Drivers/lvgl/src/widgets/calendar/lv_calendar_header_dropdown.c ****                           (year_p[3] - '0');
 448              		.loc 1 154 87 view .LVU114
 449 0040 8378     		ldrb	r3, [r0, #2]	@ zero_extendqisi2
 154:Drivers/lvgl/src/widgets/calendar/lv_calendar_header_dropdown.c ****                           (year_p[3] - '0');
 450              		.loc 1 154 91 view .LVU115
 451 0042 303B     		subs	r3, r3, #48
 154:Drivers/lvgl/src/widgets/calendar/lv_calendar_header_dropdown.c ****                           (year_p[3] - '0');
 452              		.loc 1 154 98 view .LVU116
 453 0044 03EB8303 		add	r3, r3, r3, lsl #2
 154:Drivers/lvgl/src/widgets/calendar/lv_calendar_header_dropdown.c ****                           (year_p[3] - '0');
 454              		.loc 1 154 78 view .LVU117
 455 0048 01EB4301 		add	r1, r1, r3, lsl #1
 155:Drivers/lvgl/src/widgets/calendar/lv_calendar_header_dropdown.c **** 
 456              		.loc 1 155 34 view .LVU118
 457 004c C378     		ldrb	r3, [r0, #3]	@ zero_extendqisi2
 155:Drivers/lvgl/src/widgets/calendar/lv_calendar_header_dropdown.c **** 
 458              		.loc 1 155 38 view .LVU119
 459 004e 303B     		subs	r3, r3, #48
 154:Drivers/lvgl/src/widgets/calendar/lv_calendar_header_dropdown.c ****                           (year_p[3] - '0');
 460              		.loc 1 154 103 view .LVU120
 461 0050 1944     		add	r1, r1, r3
 462              	.LVL62:
 157:Drivers/lvgl/src/widgets/calendar/lv_calendar_header_dropdown.c ****     newd.year = year - sel;
 463              		.loc 1 157 5 is_stmt 1 view .LVU121
 157:Drivers/lvgl/src/widgets/calendar/lv_calendar_header_dropdown.c ****     newd.year = year - sel;
 464              		.loc 1 157 24 is_stmt 0 view .LVU122
 465 0052 3068     		ldr	r0, [r6]	@ unaligned
 466              	.LVL63:
 157:Drivers/lvgl/src/widgets/calendar/lv_calendar_header_dropdown.c ****     newd.year = year - sel;
 467              		.loc 1 157 24 view .LVU123
 468 0054 0190     		str	r0, [sp, #4]
 158:Drivers/lvgl/src/widgets/calendar/lv_calendar_header_dropdown.c **** 
 469              		.loc 1 158 5 is_stmt 1 view .LVU124
 158:Drivers/lvgl/src/widgets/calendar/lv_calendar_header_dropdown.c **** 
 470              		.loc 1 158 22 is_stmt 0 view .LVU125
 471 0056 491B     		subs	r1, r1, r5
 472              	.LVL64:
 158:Drivers/lvgl/src/widgets/calendar/lv_calendar_header_dropdown.c **** 
 473              		.loc 1 158 22 view .LVU126
 474 0058 89B2     		uxth	r1, r1
 158:Drivers/lvgl/src/widgets/calendar/lv_calendar_header_dropdown.c **** 
 475              		.loc 1 158 15 view .LVU127
 476 005a ADF80410 		strh	r1, [sp, #4]	@ movhi
 160:Drivers/lvgl/src/widgets/calendar/lv_calendar_header_dropdown.c **** }
ARM GAS  /tmp/cccopIWO.s 			page 15


 477              		.loc 1 160 5 is_stmt 1 view .LVU128
 478 005e 9DF90620 		ldrsb	r2, [sp, #6]
 479 0062 2046     		mov	r0, r4
 480 0064 FFF7FEFF 		bl	lv_calendar_set_month_shown
 481              	.LVL65:
 161:Drivers/lvgl/src/widgets/calendar/lv_calendar_header_dropdown.c **** 
 482              		.loc 1 161 1 is_stmt 0 view .LVU129
 483 0068 03B0     		add	sp, sp, #12
 484              	.LCFI7:
 485              		.cfi_def_cfa_offset 20
 486              		@ sp needed
 487 006a F0BD     		pop	{r4, r5, r6, r7, pc}
 161:Drivers/lvgl/src/widgets/calendar/lv_calendar_header_dropdown.c **** 
 488              		.loc 1 161 1 view .LVU130
 489              		.cfi_endproc
 490              	.LFE175:
 492              		.section	.text.lv_calendar_header_dropdown_create,"ax",%progbits
 493              		.align	1
 494              		.global	lv_calendar_header_dropdown_create
 495              		.syntax unified
 496              		.thumb
 497              		.thumb_func
 499              	lv_calendar_header_dropdown_create:
 500              	.LVL66:
 501              	.LFB171:
  65:Drivers/lvgl/src/widgets/calendar/lv_calendar_header_dropdown.c ****     lv_obj_t * obj = lv_obj_class_create_obj(&lv_calendar_header_dropdown_class, parent);
 502              		.loc 1 65 1 is_stmt 1 view -0
 503              		.cfi_startproc
 504              		@ args = 0, pretend = 0, frame = 0
 505              		@ frame_needed = 0, uses_anonymous_args = 0
  65:Drivers/lvgl/src/widgets/calendar/lv_calendar_header_dropdown.c ****     lv_obj_t * obj = lv_obj_class_create_obj(&lv_calendar_header_dropdown_class, parent);
 506              		.loc 1 65 1 is_stmt 0 view .LVU132
 507 0000 10B5     		push	{r4, lr}
 508              	.LCFI8:
 509              		.cfi_def_cfa_offset 8
 510              		.cfi_offset 4, -8
 511              		.cfi_offset 14, -4
 512 0002 0146     		mov	r1, r0
  66:Drivers/lvgl/src/widgets/calendar/lv_calendar_header_dropdown.c ****     lv_obj_class_init_obj(obj);
 513              		.loc 1 66 5 is_stmt 1 view .LVU133
  66:Drivers/lvgl/src/widgets/calendar/lv_calendar_header_dropdown.c ****     lv_obj_class_init_obj(obj);
 514              		.loc 1 66 22 is_stmt 0 view .LVU134
 515 0004 0348     		ldr	r0, .L13
 516              	.LVL67:
  66:Drivers/lvgl/src/widgets/calendar/lv_calendar_header_dropdown.c ****     lv_obj_class_init_obj(obj);
 517              		.loc 1 66 22 view .LVU135
 518 0006 FFF7FEFF 		bl	lv_obj_class_create_obj
 519              	.LVL68:
  66:Drivers/lvgl/src/widgets/calendar/lv_calendar_header_dropdown.c ****     lv_obj_class_init_obj(obj);
 520              		.loc 1 66 22 view .LVU136
 521 000a 0446     		mov	r4, r0
 522              	.LVL69:
  67:Drivers/lvgl/src/widgets/calendar/lv_calendar_header_dropdown.c **** 
 523              		.loc 1 67 5 is_stmt 1 view .LVU137
 524 000c FFF7FEFF 		bl	lv_obj_class_init_obj
 525              	.LVL70:
  69:Drivers/lvgl/src/widgets/calendar/lv_calendar_header_dropdown.c **** }
ARM GAS  /tmp/cccopIWO.s 			page 16


 526              		.loc 1 69 5 view .LVU138
  70:Drivers/lvgl/src/widgets/calendar/lv_calendar_header_dropdown.c **** 
 527              		.loc 1 70 1 is_stmt 0 view .LVU139
 528 0010 2046     		mov	r0, r4
 529 0012 10BD     		pop	{r4, pc}
 530              	.LVL71:
 531              	.L14:
  70:Drivers/lvgl/src/widgets/calendar/lv_calendar_header_dropdown.c **** 
 532              		.loc 1 70 1 view .LVU140
 533              		.align	2
 534              	.L13:
 535 0014 00000000 		.word	lv_calendar_header_dropdown_class
 536              		.cfi_endproc
 537              	.LFE171:
 539              		.section	.text.lv_calendar_header_dropdown_set_year_list,"ax",%progbits
 540              		.align	1
 541              		.global	lv_calendar_header_dropdown_set_year_list
 542              		.syntax unified
 543              		.thumb
 544              		.thumb_func
 546              	lv_calendar_header_dropdown_set_year_list:
 547              	.LVL72:
 548              	.LFB172:
  73:Drivers/lvgl/src/widgets/calendar/lv_calendar_header_dropdown.c ****     /* Search for the header dropdown */
 549              		.loc 1 73 1 is_stmt 1 view -0
 550              		.cfi_startproc
 551              		@ args = 0, pretend = 0, frame = 0
 552              		@ frame_needed = 0, uses_anonymous_args = 0
  73:Drivers/lvgl/src/widgets/calendar/lv_calendar_header_dropdown.c ****     /* Search for the header dropdown */
 553              		.loc 1 73 1 is_stmt 0 view .LVU142
 554 0000 70B5     		push	{r4, r5, r6, lr}
 555              	.LCFI9:
 556              		.cfi_def_cfa_offset 16
 557              		.cfi_offset 4, -16
 558              		.cfi_offset 5, -12
 559              		.cfi_offset 6, -8
 560              		.cfi_offset 14, -4
 561 0002 0446     		mov	r4, r0
 562 0004 0D46     		mov	r5, r1
  75:Drivers/lvgl/src/widgets/calendar/lv_calendar_header_dropdown.c ****     if(NULL == header) {
 563              		.loc 1 75 5 is_stmt 1 view .LVU143
  75:Drivers/lvgl/src/widgets/calendar/lv_calendar_header_dropdown.c ****     if(NULL == header) {
 564              		.loc 1 75 25 is_stmt 0 view .LVU144
 565 0006 0A4A     		ldr	r2, .L18
 566 0008 0021     		movs	r1, #0
 567              	.LVL73:
  75:Drivers/lvgl/src/widgets/calendar/lv_calendar_header_dropdown.c ****     if(NULL == header) {
 568              		.loc 1 75 25 view .LVU145
 569 000a FFF7FEFF 		bl	lv_obj_get_child_by_type
 570              	.LVL74:
  76:Drivers/lvgl/src/widgets/calendar/lv_calendar_header_dropdown.c ****         /* Header not found */
 571              		.loc 1 76 5 is_stmt 1 view .LVU146
  76:Drivers/lvgl/src/widgets/calendar/lv_calendar_header_dropdown.c ****         /* Header not found */
 572              		.loc 1 76 7 is_stmt 0 view .LVU147
 573 000e 70B1     		cbz	r0, .L15
  84:Drivers/lvgl/src/widgets/calendar/lv_calendar_header_dropdown.c ****     lv_obj_t * year_dropdown = lv_obj_get_child_by_type(header, year_dropdown_index, &lv_dropdown_c
 574              		.loc 1 84 5 is_stmt 1 view .LVU148
ARM GAS  /tmp/cccopIWO.s 			page 17


 575              	.LVL75:
  85:Drivers/lvgl/src/widgets/calendar/lv_calendar_header_dropdown.c ****     if(NULL == year_dropdown) {
 576              		.loc 1 85 5 view .LVU149
  85:Drivers/lvgl/src/widgets/calendar/lv_calendar_header_dropdown.c ****     if(NULL == year_dropdown) {
 577              		.loc 1 85 32 is_stmt 0 view .LVU150
 578 0010 084A     		ldr	r2, .L18+4
 579 0012 0021     		movs	r1, #0
 580 0014 FFF7FEFF 		bl	lv_obj_get_child_by_type
 581              	.LVL76:
  86:Drivers/lvgl/src/widgets/calendar/lv_calendar_header_dropdown.c ****         /* year dropdown not found */
 582              		.loc 1 86 5 is_stmt 1 view .LVU151
  86:Drivers/lvgl/src/widgets/calendar/lv_calendar_header_dropdown.c ****         /* year dropdown not found */
 583              		.loc 1 86 7 is_stmt 0 view .LVU152
 584 0018 0646     		mov	r6, r0
 585 001a 40B1     		cbz	r0, .L15
  91:Drivers/lvgl/src/widgets/calendar/lv_calendar_header_dropdown.c ****     lv_dropdown_set_options(year_dropdown, years_list);
 586              		.loc 1 91 5 is_stmt 1 view .LVU153
 587 001c FFF7FEFF 		bl	lv_dropdown_clear_options
 588              	.LVL77:
  92:Drivers/lvgl/src/widgets/calendar/lv_calendar_header_dropdown.c **** 
 589              		.loc 1 92 5 view .LVU154
 590 0020 2946     		mov	r1, r5
 591 0022 3046     		mov	r0, r6
 592 0024 FFF7FEFF 		bl	lv_dropdown_set_options
 593              	.LVL78:
  94:Drivers/lvgl/src/widgets/calendar/lv_calendar_header_dropdown.c **** }
 594              		.loc 1 94 5 view .LVU155
 595 0028 2046     		mov	r0, r4
 596 002a FFF7FEFF 		bl	lv_obj_invalidate
 597              	.LVL79:
 598              	.L15:
  95:Drivers/lvgl/src/widgets/calendar/lv_calendar_header_dropdown.c **** 
 599              		.loc 1 95 1 is_stmt 0 view .LVU156
 600 002e 70BD     		pop	{r4, r5, r6, pc}
 601              	.LVL80:
 602              	.L19:
  95:Drivers/lvgl/src/widgets/calendar/lv_calendar_header_dropdown.c **** 
 603              		.loc 1 95 1 view .LVU157
 604              		.align	2
 605              	.L18:
 606 0030 00000000 		.word	lv_calendar_header_dropdown_class
 607 0034 00000000 		.word	lv_dropdown_class
 608              		.cfi_endproc
 609              	.LFE172:
 611              		.global	lv_calendar_header_dropdown_class
 612              		.section	.rodata.str1.4,"aMS",%progbits,1
 613              		.align	2
 614              	.LC2:
 615 0000 6C765F63 		.ascii	"lv_calendar_header_dropdown\000"
 615      616C656E 
 615      6461725F 
 615      68656164 
 615      65725F64 
 616              		.section	.rodata.lv_calendar_header_dropdown_class,"a"
 617              		.align	2
 620              	lv_calendar_header_dropdown_class:
 621 0000 00000000 		.word	lv_obj_class
ARM GAS  /tmp/cccopIWO.s 			page 18


 622 0004 00000000 		.word	my_constructor
 623 0008 00000000 		.space	12
 623      00000000 
 623      00000000 
 624 0014 00000000 		.word	.LC2
 625 0018 64000020 		.word	536871012
 626 001c FFFFFF3F 		.word	1073741823
 627 0020 00000000 		.space	4
 628              		.text
 629              	.Letext0:
 630              		.file 2 "/usr/arm-none-eabi/include/machine/_default_types.h"
 631              		.file 3 "/usr/arm-none-eabi/include/sys/_stdint.h"
 632              		.file 4 "Drivers/lvgl/src/widgets/calendar/../../core/../misc/lv_types.h"
 633              		.file 5 "Drivers/lvgl/src/widgets/calendar/../../core/lv_obj_class_private.h"
 634              		.file 6 "Drivers/lvgl/src/widgets/calendar/../../core/../misc/lv_anim.h"
 635              		.file 7 "Drivers/lvgl/src/widgets/calendar/../../core/../misc/../layouts/flex/lv_flex.h"
 636              		.file 8 "Drivers/lvgl/src/widgets/calendar/../../core/../display/../misc/lv_event.h"
 637              		.file 9 "Drivers/lvgl/src/widgets/calendar/../../core/../indev/lv_indev.h"
 638              		.file 10 "Drivers/lvgl/src/widgets/calendar/../../core/lv_obj.h"
 639              		.file 11 "Drivers/lvgl/src/widgets/calendar/lv_calendar_header_dropdown.h"
 640              		.file 12 "Drivers/lvgl/src/widgets/calendar/lv_calendar.h"
 641              		.file 13 "Drivers/lvgl/src/widgets/calendar/../dropdown/lv_dropdown.h"
 642              		.file 14 "Drivers/lvgl/src/widgets/calendar/../../core/lv_obj_pos.h"
 643              		.file 15 "Drivers/lvgl/src/widgets/calendar/../../core/lv_obj_class.h"
 644              		.file 16 "Drivers/lvgl/src/widgets/calendar/../../core/lv_obj_tree.h"
 645              		.file 17 "Drivers/lvgl/src/widgets/calendar/../../core/lv_obj_event.h"
ARM GAS  /tmp/cccopIWO.s 			page 19

