ARM GAS  /tmp/ccGpYpzg.s 			page 1


   1              		.cpu cortex-m7
   2              		.arch armv7e-m
   3              		.fpu fpv5-sp-d16
   4              		.eabi_attribute 27, 1
   5              		.eabi_attribute 28, 1
   6              		.eabi_attribute 20, 1
   7              		.eabi_attribute 21, 1
   8              		.eabi_attribute 23, 3
   9              		.eabi_attribute 24, 1
  10              		.eabi_attribute 25, 1
  11              		.eabi_attribute 26, 1
  12              		.eabi_attribute 30, 1
  13              		.eabi_attribute 34, 1
  14              		.eabi_attribute 18, 4
  15              		.file	"lv_draw_sw_blend_to_argb8888_premultiplied.c"
  16              		.text
  17              	.Ltext0:
  18              		.cfi_sections	.debug_frame
  19              		.file 1 "Drivers/lvgl/src/draw/sw/blend/lv_draw_sw_blend_to_argb8888_premultiplied.c"
  20              		.section	.text.lv_color_mix_with_alpha_cache_init,"ax",%progbits
  21              		.align	1
  22              		.syntax unified
  23              		.thumb
  24              		.thumb_func
  26              	lv_color_mix_with_alpha_cache_init:
  27              	.LVL0:
  28              	.LFB191:
   1:Drivers/lvgl/src/draw/sw/blend/lv_draw_sw_blend_to_argb8888_premultiplied.c **** /**
   2:Drivers/lvgl/src/draw/sw/blend/lv_draw_sw_blend_to_argb8888_premultiplied.c ****  * @file lv_draw_sw_blend_to_argb8888_premultiplied.c
   3:Drivers/lvgl/src/draw/sw/blend/lv_draw_sw_blend_to_argb8888_premultiplied.c ****  * @brief Implementation of ARGB8888 Premultiplied blending for LVGL.
   4:Drivers/lvgl/src/draw/sw/blend/lv_draw_sw_blend_to_argb8888_premultiplied.c ****  */
   5:Drivers/lvgl/src/draw/sw/blend/lv_draw_sw_blend_to_argb8888_premultiplied.c **** 
   6:Drivers/lvgl/src/draw/sw/blend/lv_draw_sw_blend_to_argb8888_premultiplied.c **** /*********************
   7:Drivers/lvgl/src/draw/sw/blend/lv_draw_sw_blend_to_argb8888_premultiplied.c **** *      INCLUDES
   8:Drivers/lvgl/src/draw/sw/blend/lv_draw_sw_blend_to_argb8888_premultiplied.c **** *********************/
   9:Drivers/lvgl/src/draw/sw/blend/lv_draw_sw_blend_to_argb8888_premultiplied.c **** #include "lv_draw_sw_blend_to_argb8888_premultiplied.h"
  10:Drivers/lvgl/src/draw/sw/blend/lv_draw_sw_blend_to_argb8888_premultiplied.c **** #if LV_USE_DRAW_SW
  11:Drivers/lvgl/src/draw/sw/blend/lv_draw_sw_blend_to_argb8888_premultiplied.c **** 
  12:Drivers/lvgl/src/draw/sw/blend/lv_draw_sw_blend_to_argb8888_premultiplied.c **** #if LV_DRAW_SW_SUPPORT_ARGB8888_PREMULTIPLIED
  13:Drivers/lvgl/src/draw/sw/blend/lv_draw_sw_blend_to_argb8888_premultiplied.c **** 
  14:Drivers/lvgl/src/draw/sw/blend/lv_draw_sw_blend_to_argb8888_premultiplied.c **** #include "lv_draw_sw_blend_private.h"
  15:Drivers/lvgl/src/draw/sw/blend/lv_draw_sw_blend_to_argb8888_premultiplied.c **** #include "../../../misc/lv_math.h"
  16:Drivers/lvgl/src/draw/sw/blend/lv_draw_sw_blend_to_argb8888_premultiplied.c **** #include "../../../display/lv_display.h"
  17:Drivers/lvgl/src/draw/sw/blend/lv_draw_sw_blend_to_argb8888_premultiplied.c **** #include "../../../core/lv_refr.h"
  18:Drivers/lvgl/src/draw/sw/blend/lv_draw_sw_blend_to_argb8888_premultiplied.c **** #include "../../../misc/lv_color.h"
  19:Drivers/lvgl/src/draw/sw/blend/lv_draw_sw_blend_to_argb8888_premultiplied.c **** 
  20:Drivers/lvgl/src/draw/sw/blend/lv_draw_sw_blend_to_argb8888_premultiplied.c **** /*********************
  21:Drivers/lvgl/src/draw/sw/blend/lv_draw_sw_blend_to_argb8888_premultiplied.c ****  *      DEFINES
  22:Drivers/lvgl/src/draw/sw/blend/lv_draw_sw_blend_to_argb8888_premultiplied.c ****  *********************/
  23:Drivers/lvgl/src/draw/sw/blend/lv_draw_sw_blend_to_argb8888_premultiplied.c **** 
  24:Drivers/lvgl/src/draw/sw/blend/lv_draw_sw_blend_to_argb8888_premultiplied.c **** /**********************
  25:Drivers/lvgl/src/draw/sw/blend/lv_draw_sw_blend_to_argb8888_premultiplied.c ****  *      TYPEDEFS
  26:Drivers/lvgl/src/draw/sw/blend/lv_draw_sw_blend_to_argb8888_premultiplied.c ****  **********************/
  27:Drivers/lvgl/src/draw/sw/blend/lv_draw_sw_blend_to_argb8888_premultiplied.c **** 
  28:Drivers/lvgl/src/draw/sw/blend/lv_draw_sw_blend_to_argb8888_premultiplied.c **** /**********************
  29:Drivers/lvgl/src/draw/sw/blend/lv_draw_sw_blend_to_argb8888_premultiplied.c **** *      TYPEDEFS
  30:Drivers/lvgl/src/draw/sw/blend/lv_draw_sw_blend_to_argb8888_premultiplied.c **** **********************/
ARM GAS  /tmp/ccGpYpzg.s 			page 2


  31:Drivers/lvgl/src/draw/sw/blend/lv_draw_sw_blend_to_argb8888_premultiplied.c **** 
  32:Drivers/lvgl/src/draw/sw/blend/lv_draw_sw_blend_to_argb8888_premultiplied.c **** typedef struct {
  33:Drivers/lvgl/src/draw/sw/blend/lv_draw_sw_blend_to_argb8888_premultiplied.c ****     lv_color32_t fg_saved;
  34:Drivers/lvgl/src/draw/sw/blend/lv_draw_sw_blend_to_argb8888_premultiplied.c ****     lv_color32_t bg_saved;
  35:Drivers/lvgl/src/draw/sw/blend/lv_draw_sw_blend_to_argb8888_premultiplied.c ****     lv_color32_t res_saved;
  36:Drivers/lvgl/src/draw/sw/blend/lv_draw_sw_blend_to_argb8888_premultiplied.c ****     lv_opa_t res_alpha_saved;
  37:Drivers/lvgl/src/draw/sw/blend/lv_draw_sw_blend_to_argb8888_premultiplied.c ****     lv_opa_t ratio_saved;
  38:Drivers/lvgl/src/draw/sw/blend/lv_draw_sw_blend_to_argb8888_premultiplied.c **** } lv_color_mix_alpha_cache_t;
  39:Drivers/lvgl/src/draw/sw/blend/lv_draw_sw_blend_to_argb8888_premultiplied.c **** 
  40:Drivers/lvgl/src/draw/sw/blend/lv_draw_sw_blend_to_argb8888_premultiplied.c **** /**********************
  41:Drivers/lvgl/src/draw/sw/blend/lv_draw_sw_blend_to_argb8888_premultiplied.c ****  *  STATIC PROTOTYPES
  42:Drivers/lvgl/src/draw/sw/blend/lv_draw_sw_blend_to_argb8888_premultiplied.c ****  **********************/
  43:Drivers/lvgl/src/draw/sw/blend/lv_draw_sw_blend_to_argb8888_premultiplied.c **** 
  44:Drivers/lvgl/src/draw/sw/blend/lv_draw_sw_blend_to_argb8888_premultiplied.c **** 
  45:Drivers/lvgl/src/draw/sw/blend/lv_draw_sw_blend_to_argb8888_premultiplied.c **** #if LV_DRAW_SW_SUPPORT_ARGB8888
  46:Drivers/lvgl/src/draw/sw/blend/lv_draw_sw_blend_to_argb8888_premultiplied.c ****     static void /* LV_ATTRIBUTE_FAST_MEM */ argb8888_image_blend(lv_draw_sw_blend_image_dsc_t * dsc
  47:Drivers/lvgl/src/draw/sw/blend/lv_draw_sw_blend_to_argb8888_premultiplied.c **** #endif
  48:Drivers/lvgl/src/draw/sw/blend/lv_draw_sw_blend_to_argb8888_premultiplied.c **** 
  49:Drivers/lvgl/src/draw/sw/blend/lv_draw_sw_blend_to_argb8888_premultiplied.c **** static void /* LV_ATTRIBUTE_FAST_MEM */ argb8888_premultiplied_image_blend(lv_draw_sw_blend_image_d
  50:Drivers/lvgl/src/draw/sw/blend/lv_draw_sw_blend_to_argb8888_premultiplied.c **** 
  51:Drivers/lvgl/src/draw/sw/blend/lv_draw_sw_blend_to_argb8888_premultiplied.c **** static inline void /* LV_ATTRIBUTE_FAST_MEM */ blend_non_normal_pixel_premultiplied(
  52:Drivers/lvgl/src/draw/sw/blend/lv_draw_sw_blend_to_argb8888_premultiplied.c ****     lv_color32_t * dest, lv_color32_t src, lv_blend_mode_t mode, lv_color_mix_alpha_cache_t * cache
  53:Drivers/lvgl/src/draw/sw/blend/lv_draw_sw_blend_to_argb8888_premultiplied.c **** 
  54:Drivers/lvgl/src/draw/sw/blend/lv_draw_sw_blend_to_argb8888_premultiplied.c **** static inline lv_color32_t lv_color_32_32_mix_premul(lv_color32_t fg, lv_color32_t bg,
  55:Drivers/lvgl/src/draw/sw/blend/lv_draw_sw_blend_to_argb8888_premultiplied.c ****                                                      lv_color_mix_alpha_cache_t * cache);
  56:Drivers/lvgl/src/draw/sw/blend/lv_draw_sw_blend_to_argb8888_premultiplied.c **** 
  57:Drivers/lvgl/src/draw/sw/blend/lv_draw_sw_blend_to_argb8888_premultiplied.c **** static void lv_color_mix_with_alpha_cache_init(lv_color_mix_alpha_cache_t * cache);
  58:Drivers/lvgl/src/draw/sw/blend/lv_draw_sw_blend_to_argb8888_premultiplied.c **** 
  59:Drivers/lvgl/src/draw/sw/blend/lv_draw_sw_blend_to_argb8888_premultiplied.c **** static inline void * /* LV_ATTRIBUTE_FAST_MEM */ drawbuf_next_row(const void * buf, uint32_t stride
  60:Drivers/lvgl/src/draw/sw/blend/lv_draw_sw_blend_to_argb8888_premultiplied.c **** 
  61:Drivers/lvgl/src/draw/sw/blend/lv_draw_sw_blend_to_argb8888_premultiplied.c **** static void lv_color_mix_with_alpha_cache_init(lv_color_mix_alpha_cache_t * cache);
  62:Drivers/lvgl/src/draw/sw/blend/lv_draw_sw_blend_to_argb8888_premultiplied.c **** 
  63:Drivers/lvgl/src/draw/sw/blend/lv_draw_sw_blend_to_argb8888_premultiplied.c **** /**********************
  64:Drivers/lvgl/src/draw/sw/blend/lv_draw_sw_blend_to_argb8888_premultiplied.c **** *  STATIC VARIABLES
  65:Drivers/lvgl/src/draw/sw/blend/lv_draw_sw_blend_to_argb8888_premultiplied.c **** **********************/
  66:Drivers/lvgl/src/draw/sw/blend/lv_draw_sw_blend_to_argb8888_premultiplied.c **** 
  67:Drivers/lvgl/src/draw/sw/blend/lv_draw_sw_blend_to_argb8888_premultiplied.c **** /**********************
  68:Drivers/lvgl/src/draw/sw/blend/lv_draw_sw_blend_to_argb8888_premultiplied.c ****  *      MACROS
  69:Drivers/lvgl/src/draw/sw/blend/lv_draw_sw_blend_to_argb8888_premultiplied.c ****  **********************/
  70:Drivers/lvgl/src/draw/sw/blend/lv_draw_sw_blend_to_argb8888_premultiplied.c **** 
  71:Drivers/lvgl/src/draw/sw/blend/lv_draw_sw_blend_to_argb8888_premultiplied.c **** #ifndef LV_DRAW_SW_ARGB8888_BLEND_NORMAL_TO_ARGB8888_PREMULTIPLIED
  72:Drivers/lvgl/src/draw/sw/blend/lv_draw_sw_blend_to_argb8888_premultiplied.c ****     #define   LV_DRAW_SW_ARGB8888_BLEND_NORMAL_TO_ARGB8888_PREMULTIPLIED(...)             LV_RESULT
  73:Drivers/lvgl/src/draw/sw/blend/lv_draw_sw_blend_to_argb8888_premultiplied.c **** #endif
  74:Drivers/lvgl/src/draw/sw/blend/lv_draw_sw_blend_to_argb8888_premultiplied.c **** 
  75:Drivers/lvgl/src/draw/sw/blend/lv_draw_sw_blend_to_argb8888_premultiplied.c **** #ifndef LV_DRAW_SW_ARGB8888_BLEND_NORMAL_TO_ARGB8888_PREMULTIPLIED_WITH_OPA
  76:Drivers/lvgl/src/draw/sw/blend/lv_draw_sw_blend_to_argb8888_premultiplied.c ****     #define   LV_DRAW_SW_ARGB8888_BLEND_NORMAL_TO_ARGB8888_PREMULTIPLIED_WITH_OPA(...)             
  77:Drivers/lvgl/src/draw/sw/blend/lv_draw_sw_blend_to_argb8888_premultiplied.c **** #endif
  78:Drivers/lvgl/src/draw/sw/blend/lv_draw_sw_blend_to_argb8888_premultiplied.c **** 
  79:Drivers/lvgl/src/draw/sw/blend/lv_draw_sw_blend_to_argb8888_premultiplied.c **** #ifndef LV_DRAW_SW_ARGB8888_BLEND_NORMAL_TO_ARGB8888_PREMULTIPLIED_WITH_MASK
  80:Drivers/lvgl/src/draw/sw/blend/lv_draw_sw_blend_to_argb8888_premultiplied.c ****     #define   LV_DRAW_SW_ARGB8888_BLEND_NORMAL_TO_ARGB8888_PREMULTIPLIED_WITH_MASK(...)            
  81:Drivers/lvgl/src/draw/sw/blend/lv_draw_sw_blend_to_argb8888_premultiplied.c **** #endif
  82:Drivers/lvgl/src/draw/sw/blend/lv_draw_sw_blend_to_argb8888_premultiplied.c **** 
  83:Drivers/lvgl/src/draw/sw/blend/lv_draw_sw_blend_to_argb8888_premultiplied.c **** #ifndef LV_DRAW_SW_ARGB8888_BLEND_NORMAL_TO_ARGB8888_PREMULTIPLIED_MIX_MASK_OPA
  84:Drivers/lvgl/src/draw/sw/blend/lv_draw_sw_blend_to_argb8888_premultiplied.c ****     #define   LV_DRAW_SW_ARGB8888_BLEND_NORMAL_TO_ARGB8888_PREMULTIPLIED_MIX_MASK_OPA(...)         
  85:Drivers/lvgl/src/draw/sw/blend/lv_draw_sw_blend_to_argb8888_premultiplied.c **** #endif
  86:Drivers/lvgl/src/draw/sw/blend/lv_draw_sw_blend_to_argb8888_premultiplied.c **** 
  87:Drivers/lvgl/src/draw/sw/blend/lv_draw_sw_blend_to_argb8888_premultiplied.c **** #ifndef LV_DRAW_SW_ARGB8888_PREMULTIPLIED_BLEND_NORMAL_TO_ARGB8888_PREMULTIPLIED
ARM GAS  /tmp/ccGpYpzg.s 			page 3


  88:Drivers/lvgl/src/draw/sw/blend/lv_draw_sw_blend_to_argb8888_premultiplied.c ****     #define   LV_DRAW_SW_ARGB8888_PREMULTIPLIED_BLEND_NORMAL_TO_ARGB8888_PREMULTIPLIED(...)        
  89:Drivers/lvgl/src/draw/sw/blend/lv_draw_sw_blend_to_argb8888_premultiplied.c **** #endif
  90:Drivers/lvgl/src/draw/sw/blend/lv_draw_sw_blend_to_argb8888_premultiplied.c **** 
  91:Drivers/lvgl/src/draw/sw/blend/lv_draw_sw_blend_to_argb8888_premultiplied.c **** #ifndef LV_DRAW_SW_ARGB8888_PREMULTIPLIED_BLEND_NORMAL_TO_ARGB8888_PREMULTIPLIED_WITH_OPA
  92:Drivers/lvgl/src/draw/sw/blend/lv_draw_sw_blend_to_argb8888_premultiplied.c ****     #define   LV_DRAW_SW_ARGB8888_PREMULTIPLIED_BLEND_NORMAL_TO_ARGB8888_PREMULTIPLIED_WITH_OPA(...
  93:Drivers/lvgl/src/draw/sw/blend/lv_draw_sw_blend_to_argb8888_premultiplied.c **** #endif
  94:Drivers/lvgl/src/draw/sw/blend/lv_draw_sw_blend_to_argb8888_premultiplied.c **** 
  95:Drivers/lvgl/src/draw/sw/blend/lv_draw_sw_blend_to_argb8888_premultiplied.c **** #ifndef LV_DRAW_SW_ARGB8888_PREMULTIPLIED_BLEND_NORMAL_TO_ARGB8888_PREMULTIPLIED_WITH_MASK
  96:Drivers/lvgl/src/draw/sw/blend/lv_draw_sw_blend_to_argb8888_premultiplied.c ****     #define   LV_DRAW_SW_ARGB8888_PREMULTIPLIED_BLEND_NORMAL_TO_ARGB8888_PREMULTIPLIED_WITH_MASK(..
  97:Drivers/lvgl/src/draw/sw/blend/lv_draw_sw_blend_to_argb8888_premultiplied.c **** #endif
  98:Drivers/lvgl/src/draw/sw/blend/lv_draw_sw_blend_to_argb8888_premultiplied.c **** 
  99:Drivers/lvgl/src/draw/sw/blend/lv_draw_sw_blend_to_argb8888_premultiplied.c **** #ifndef LV_DRAW_SW_ARGB8888_PREMULTIPLIED_BLEND_NORMAL_TO_ARGB8888_PREMULTIPLIED_MIX_MASK_OPA
 100:Drivers/lvgl/src/draw/sw/blend/lv_draw_sw_blend_to_argb8888_premultiplied.c ****     #define   LV_DRAW_SW_ARGB8888_PREMULTIPLIED_BLEND_NORMAL_TO_ARGB8888_PREMULTIPLIED_MIX_MASK_OPA
 101:Drivers/lvgl/src/draw/sw/blend/lv_draw_sw_blend_to_argb8888_premultiplied.c **** #endif
 102:Drivers/lvgl/src/draw/sw/blend/lv_draw_sw_blend_to_argb8888_premultiplied.c **** 
 103:Drivers/lvgl/src/draw/sw/blend/lv_draw_sw_blend_to_argb8888_premultiplied.c **** /**********************
 104:Drivers/lvgl/src/draw/sw/blend/lv_draw_sw_blend_to_argb8888_premultiplied.c ****  *   GLOBAL FUNCTIONS
 105:Drivers/lvgl/src/draw/sw/blend/lv_draw_sw_blend_to_argb8888_premultiplied.c ****  **********************/
 106:Drivers/lvgl/src/draw/sw/blend/lv_draw_sw_blend_to_argb8888_premultiplied.c **** /**
 107:Drivers/lvgl/src/draw/sw/blend/lv_draw_sw_blend_to_argb8888_premultiplied.c ****  * @brief Blend a solid color into an ARGB8888 premultiplied buffer.
 108:Drivers/lvgl/src/draw/sw/blend/lv_draw_sw_blend_to_argb8888_premultiplied.c ****  *
 109:Drivers/lvgl/src/draw/sw/blend/lv_draw_sw_blend_to_argb8888_premultiplied.c ****  * This function applies a solid color to the destination buffer with optional
 110:Drivers/lvgl/src/draw/sw/blend/lv_draw_sw_blend_to_argb8888_premultiplied.c ****  * opacity and masking. The input color is first converted to a premultiplied
 111:Drivers/lvgl/src/draw/sw/blend/lv_draw_sw_blend_to_argb8888_premultiplied.c ****  * alpha format before blending.
 112:Drivers/lvgl/src/draw/sw/blend/lv_draw_sw_blend_to_argb8888_premultiplied.c ****  *
 113:Drivers/lvgl/src/draw/sw/blend/lv_draw_sw_blend_to_argb8888_premultiplied.c ****  * @param dsc Blending descriptor containing destination buffer, color, and opacity
 114:Drivers/lvgl/src/draw/sw/blend/lv_draw_sw_blend_to_argb8888_premultiplied.c ****  */
 115:Drivers/lvgl/src/draw/sw/blend/lv_draw_sw_blend_to_argb8888_premultiplied.c **** void LV_ATTRIBUTE_FAST_MEM lv_draw_sw_blend_color_to_argb8888_premultiplied(lv_draw_sw_blend_fill_d
 116:Drivers/lvgl/src/draw/sw/blend/lv_draw_sw_blend_to_argb8888_premultiplied.c **** {
 117:Drivers/lvgl/src/draw/sw/blend/lv_draw_sw_blend_to_argb8888_premultiplied.c ****     int32_t w = dsc->dest_w;
 118:Drivers/lvgl/src/draw/sw/blend/lv_draw_sw_blend_to_argb8888_premultiplied.c ****     int32_t h = dsc->dest_h;
 119:Drivers/lvgl/src/draw/sw/blend/lv_draw_sw_blend_to_argb8888_premultiplied.c ****     lv_opa_t opa = dsc->opa;
 120:Drivers/lvgl/src/draw/sw/blend/lv_draw_sw_blend_to_argb8888_premultiplied.c ****     const lv_opa_t * mask = dsc->mask_buf;
 121:Drivers/lvgl/src/draw/sw/blend/lv_draw_sw_blend_to_argb8888_premultiplied.c ****     int32_t mask_stride = dsc->mask_stride;
 122:Drivers/lvgl/src/draw/sw/blend/lv_draw_sw_blend_to_argb8888_premultiplied.c ****     int32_t dest_stride = dsc->dest_stride;
 123:Drivers/lvgl/src/draw/sw/blend/lv_draw_sw_blend_to_argb8888_premultiplied.c **** 
 124:Drivers/lvgl/src/draw/sw/blend/lv_draw_sw_blend_to_argb8888_premultiplied.c ****     lv_color_mix_alpha_cache_t cache;
 125:Drivers/lvgl/src/draw/sw/blend/lv_draw_sw_blend_to_argb8888_premultiplied.c ****     lv_color_mix_with_alpha_cache_init(&cache);
 126:Drivers/lvgl/src/draw/sw/blend/lv_draw_sw_blend_to_argb8888_premultiplied.c **** 
 127:Drivers/lvgl/src/draw/sw/blend/lv_draw_sw_blend_to_argb8888_premultiplied.c ****     int32_t x;
 128:Drivers/lvgl/src/draw/sw/blend/lv_draw_sw_blend_to_argb8888_premultiplied.c ****     int32_t y;
 129:Drivers/lvgl/src/draw/sw/blend/lv_draw_sw_blend_to_argb8888_premultiplied.c **** 
 130:Drivers/lvgl/src/draw/sw/blend/lv_draw_sw_blend_to_argb8888_premultiplied.c ****     /* Convert source color to premultiplied */
 131:Drivers/lvgl/src/draw/sw/blend/lv_draw_sw_blend_to_argb8888_premultiplied.c ****     lv_color32_t color_argb = lv_color_to_32(dsc->color, opa);
 132:Drivers/lvgl/src/draw/sw/blend/lv_draw_sw_blend_to_argb8888_premultiplied.c ****     color_argb.red   = (color_argb.red   * color_argb.alpha) >> 8;
 133:Drivers/lvgl/src/draw/sw/blend/lv_draw_sw_blend_to_argb8888_premultiplied.c ****     color_argb.green = (color_argb.green * color_argb.alpha) >> 8;
 134:Drivers/lvgl/src/draw/sw/blend/lv_draw_sw_blend_to_argb8888_premultiplied.c ****     color_argb.blue  = (color_argb.blue  * color_argb.alpha) >> 8;
 135:Drivers/lvgl/src/draw/sw/blend/lv_draw_sw_blend_to_argb8888_premultiplied.c **** 
 136:Drivers/lvgl/src/draw/sw/blend/lv_draw_sw_blend_to_argb8888_premultiplied.c **** 
 137:Drivers/lvgl/src/draw/sw/blend/lv_draw_sw_blend_to_argb8888_premultiplied.c ****     /* Simple fill */
 138:Drivers/lvgl/src/draw/sw/blend/lv_draw_sw_blend_to_argb8888_premultiplied.c ****     if(mask == NULL && opa >= LV_OPA_MAX) {
 139:Drivers/lvgl/src/draw/sw/blend/lv_draw_sw_blend_to_argb8888_premultiplied.c ****         uint32_t color32 = lv_color_to_u32(dsc->color);
 140:Drivers/lvgl/src/draw/sw/blend/lv_draw_sw_blend_to_argb8888_premultiplied.c ****         uint32_t * dest_buf = dsc->dest_buf;
 141:Drivers/lvgl/src/draw/sw/blend/lv_draw_sw_blend_to_argb8888_premultiplied.c **** 
 142:Drivers/lvgl/src/draw/sw/blend/lv_draw_sw_blend_to_argb8888_premultiplied.c ****         for(y = 0; y < h; y++) {
 143:Drivers/lvgl/src/draw/sw/blend/lv_draw_sw_blend_to_argb8888_premultiplied.c ****             for(x = 0; x < w; x++) {
 144:Drivers/lvgl/src/draw/sw/blend/lv_draw_sw_blend_to_argb8888_premultiplied.c ****                 dest_buf[x] = color32;
ARM GAS  /tmp/ccGpYpzg.s 			page 4


 145:Drivers/lvgl/src/draw/sw/blend/lv_draw_sw_blend_to_argb8888_premultiplied.c ****             }
 146:Drivers/lvgl/src/draw/sw/blend/lv_draw_sw_blend_to_argb8888_premultiplied.c ****             dest_buf = drawbuf_next_row(dest_buf, dest_stride);
 147:Drivers/lvgl/src/draw/sw/blend/lv_draw_sw_blend_to_argb8888_premultiplied.c ****         }
 148:Drivers/lvgl/src/draw/sw/blend/lv_draw_sw_blend_to_argb8888_premultiplied.c ****     }
 149:Drivers/lvgl/src/draw/sw/blend/lv_draw_sw_blend_to_argb8888_premultiplied.c ****     /* Opacity only */
 150:Drivers/lvgl/src/draw/sw/blend/lv_draw_sw_blend_to_argb8888_premultiplied.c ****     else if(mask == NULL && opa < LV_OPA_MAX) {
 151:Drivers/lvgl/src/draw/sw/blend/lv_draw_sw_blend_to_argb8888_premultiplied.c ****         lv_color32_t * dest_buf = dsc->dest_buf;
 152:Drivers/lvgl/src/draw/sw/blend/lv_draw_sw_blend_to_argb8888_premultiplied.c ****         for(y = 0; y < h; y++) {
 153:Drivers/lvgl/src/draw/sw/blend/lv_draw_sw_blend_to_argb8888_premultiplied.c ****             for(x = 0; x < w; x++) {
 154:Drivers/lvgl/src/draw/sw/blend/lv_draw_sw_blend_to_argb8888_premultiplied.c ****                 dest_buf[x] = lv_color_32_32_mix_premul(color_argb, dest_buf[x], &cache);
 155:Drivers/lvgl/src/draw/sw/blend/lv_draw_sw_blend_to_argb8888_premultiplied.c ****             }
 156:Drivers/lvgl/src/draw/sw/blend/lv_draw_sw_blend_to_argb8888_premultiplied.c ****             dest_buf = drawbuf_next_row(dest_buf, dest_stride);
 157:Drivers/lvgl/src/draw/sw/blend/lv_draw_sw_blend_to_argb8888_premultiplied.c ****         }
 158:Drivers/lvgl/src/draw/sw/blend/lv_draw_sw_blend_to_argb8888_premultiplied.c ****     }
 159:Drivers/lvgl/src/draw/sw/blend/lv_draw_sw_blend_to_argb8888_premultiplied.c ****     /* Masked fill */
 160:Drivers/lvgl/src/draw/sw/blend/lv_draw_sw_blend_to_argb8888_premultiplied.c ****     else if(mask && opa >= LV_OPA_MAX) {
 161:Drivers/lvgl/src/draw/sw/blend/lv_draw_sw_blend_to_argb8888_premultiplied.c ****         lv_color32_t * dest_buf = dsc->dest_buf;
 162:Drivers/lvgl/src/draw/sw/blend/lv_draw_sw_blend_to_argb8888_premultiplied.c ****         for(y = 0; y < h; y++) {
 163:Drivers/lvgl/src/draw/sw/blend/lv_draw_sw_blend_to_argb8888_premultiplied.c ****             for(x = 0; x < w; x++) {
 164:Drivers/lvgl/src/draw/sw/blend/lv_draw_sw_blend_to_argb8888_premultiplied.c ****                 lv_color32_t color_premul = color_argb;
 165:Drivers/lvgl/src/draw/sw/blend/lv_draw_sw_blend_to_argb8888_premultiplied.c ****                 color_premul.alpha = mask[x];
 166:Drivers/lvgl/src/draw/sw/blend/lv_draw_sw_blend_to_argb8888_premultiplied.c ****                 color_premul.red   = (color_premul.red   * color_premul.alpha) >> 8;
 167:Drivers/lvgl/src/draw/sw/blend/lv_draw_sw_blend_to_argb8888_premultiplied.c ****                 color_premul.green = (color_premul.green * color_premul.alpha) >> 8;
 168:Drivers/lvgl/src/draw/sw/blend/lv_draw_sw_blend_to_argb8888_premultiplied.c ****                 color_premul.blue  = (color_premul.blue  * color_premul.alpha) >> 8;
 169:Drivers/lvgl/src/draw/sw/blend/lv_draw_sw_blend_to_argb8888_premultiplied.c ****                 dest_buf[x] = lv_color_32_32_mix_premul(color_premul, dest_buf[x], &cache);
 170:Drivers/lvgl/src/draw/sw/blend/lv_draw_sw_blend_to_argb8888_premultiplied.c ****             }
 171:Drivers/lvgl/src/draw/sw/blend/lv_draw_sw_blend_to_argb8888_premultiplied.c ****             dest_buf = drawbuf_next_row(dest_buf, dest_stride);
 172:Drivers/lvgl/src/draw/sw/blend/lv_draw_sw_blend_to_argb8888_premultiplied.c ****             mask += mask_stride;
 173:Drivers/lvgl/src/draw/sw/blend/lv_draw_sw_blend_to_argb8888_premultiplied.c ****         }
 174:Drivers/lvgl/src/draw/sw/blend/lv_draw_sw_blend_to_argb8888_premultiplied.c ****     }
 175:Drivers/lvgl/src/draw/sw/blend/lv_draw_sw_blend_to_argb8888_premultiplied.c ****     /* Masked with opacity */
 176:Drivers/lvgl/src/draw/sw/blend/lv_draw_sw_blend_to_argb8888_premultiplied.c ****     else {
 177:Drivers/lvgl/src/draw/sw/blend/lv_draw_sw_blend_to_argb8888_premultiplied.c ****         lv_color32_t * dest_buf = dsc->dest_buf;
 178:Drivers/lvgl/src/draw/sw/blend/lv_draw_sw_blend_to_argb8888_premultiplied.c ****         for(y = 0; y < h; y++) {
 179:Drivers/lvgl/src/draw/sw/blend/lv_draw_sw_blend_to_argb8888_premultiplied.c ****             for(x = 0; x < w; x++) {
 180:Drivers/lvgl/src/draw/sw/blend/lv_draw_sw_blend_to_argb8888_premultiplied.c ****                 lv_color32_t color_premul = color_argb;
 181:Drivers/lvgl/src/draw/sw/blend/lv_draw_sw_blend_to_argb8888_premultiplied.c ****                 color_premul.alpha = LV_OPA_MIX2(mask[x], opa);
 182:Drivers/lvgl/src/draw/sw/blend/lv_draw_sw_blend_to_argb8888_premultiplied.c ****                 color_premul.red   = (color_premul.red   * color_premul.alpha) >> 8;
 183:Drivers/lvgl/src/draw/sw/blend/lv_draw_sw_blend_to_argb8888_premultiplied.c ****                 color_premul.green = (color_premul.green * color_premul.alpha) >> 8;
 184:Drivers/lvgl/src/draw/sw/blend/lv_draw_sw_blend_to_argb8888_premultiplied.c ****                 color_premul.blue  = (color_premul.blue  * color_premul.alpha) >> 8;
 185:Drivers/lvgl/src/draw/sw/blend/lv_draw_sw_blend_to_argb8888_premultiplied.c ****                 dest_buf[x] = lv_color_32_32_mix_premul(color_premul, dest_buf[x], &cache);
 186:Drivers/lvgl/src/draw/sw/blend/lv_draw_sw_blend_to_argb8888_premultiplied.c ****             }
 187:Drivers/lvgl/src/draw/sw/blend/lv_draw_sw_blend_to_argb8888_premultiplied.c ****             dest_buf = drawbuf_next_row(dest_buf, dest_stride);
 188:Drivers/lvgl/src/draw/sw/blend/lv_draw_sw_blend_to_argb8888_premultiplied.c ****             mask += mask_stride;
 189:Drivers/lvgl/src/draw/sw/blend/lv_draw_sw_blend_to_argb8888_premultiplied.c ****         }
 190:Drivers/lvgl/src/draw/sw/blend/lv_draw_sw_blend_to_argb8888_premultiplied.c ****     }
 191:Drivers/lvgl/src/draw/sw/blend/lv_draw_sw_blend_to_argb8888_premultiplied.c **** }
 192:Drivers/lvgl/src/draw/sw/blend/lv_draw_sw_blend_to_argb8888_premultiplied.c **** 
 193:Drivers/lvgl/src/draw/sw/blend/lv_draw_sw_blend_to_argb8888_premultiplied.c **** /**
 194:Drivers/lvgl/src/draw/sw/blend/lv_draw_sw_blend_to_argb8888_premultiplied.c ****  * @brief Blend an image into an ARGB8888 premultiplied buffer.
 195:Drivers/lvgl/src/draw/sw/blend/lv_draw_sw_blend_to_argb8888_premultiplied.c ****  *
 196:Drivers/lvgl/src/draw/sw/blend/lv_draw_sw_blend_to_argb8888_premultiplied.c ****  * This function blends an image stored in ARGB8888 premultiplied format
 197:Drivers/lvgl/src/draw/sw/blend/lv_draw_sw_blend_to_argb8888_premultiplied.c ****  * into the destination buffer. It accounts for opacity and optional masking.
 198:Drivers/lvgl/src/draw/sw/blend/lv_draw_sw_blend_to_argb8888_premultiplied.c ****  *
 199:Drivers/lvgl/src/draw/sw/blend/lv_draw_sw_blend_to_argb8888_premultiplied.c ****  * @param dsc Blending descriptor containing source and destination buffer information
 200:Drivers/lvgl/src/draw/sw/blend/lv_draw_sw_blend_to_argb8888_premultiplied.c ****  */
 201:Drivers/lvgl/src/draw/sw/blend/lv_draw_sw_blend_to_argb8888_premultiplied.c **** void LV_ATTRIBUTE_FAST_MEM lv_draw_sw_blend_image_to_argb8888_premultiplied(lv_draw_sw_blend_image_
ARM GAS  /tmp/ccGpYpzg.s 			page 5


 202:Drivers/lvgl/src/draw/sw/blend/lv_draw_sw_blend_to_argb8888_premultiplied.c **** {
 203:Drivers/lvgl/src/draw/sw/blend/lv_draw_sw_blend_to_argb8888_premultiplied.c **** 
 204:Drivers/lvgl/src/draw/sw/blend/lv_draw_sw_blend_to_argb8888_premultiplied.c ****     switch(dsc->src_color_format) {
 205:Drivers/lvgl/src/draw/sw/blend/lv_draw_sw_blend_to_argb8888_premultiplied.c **** #if LV_DRAW_SW_SUPPORT_ARGB8888
 206:Drivers/lvgl/src/draw/sw/blend/lv_draw_sw_blend_to_argb8888_premultiplied.c ****         case LV_COLOR_FORMAT_ARGB8888:
 207:Drivers/lvgl/src/draw/sw/blend/lv_draw_sw_blend_to_argb8888_premultiplied.c ****             argb8888_image_blend(dsc);
 208:Drivers/lvgl/src/draw/sw/blend/lv_draw_sw_blend_to_argb8888_premultiplied.c ****             break;
 209:Drivers/lvgl/src/draw/sw/blend/lv_draw_sw_blend_to_argb8888_premultiplied.c **** #endif
 210:Drivers/lvgl/src/draw/sw/blend/lv_draw_sw_blend_to_argb8888_premultiplied.c ****         case LV_COLOR_FORMAT_ARGB8888_PREMULTIPLIED:
 211:Drivers/lvgl/src/draw/sw/blend/lv_draw_sw_blend_to_argb8888_premultiplied.c ****             argb8888_premultiplied_image_blend(dsc);
 212:Drivers/lvgl/src/draw/sw/blend/lv_draw_sw_blend_to_argb8888_premultiplied.c ****             break;
 213:Drivers/lvgl/src/draw/sw/blend/lv_draw_sw_blend_to_argb8888_premultiplied.c **** 
 214:Drivers/lvgl/src/draw/sw/blend/lv_draw_sw_blend_to_argb8888_premultiplied.c ****         default:
 215:Drivers/lvgl/src/draw/sw/blend/lv_draw_sw_blend_to_argb8888_premultiplied.c ****             LV_LOG_WARN("Not supported source color format");
 216:Drivers/lvgl/src/draw/sw/blend/lv_draw_sw_blend_to_argb8888_premultiplied.c ****             break;
 217:Drivers/lvgl/src/draw/sw/blend/lv_draw_sw_blend_to_argb8888_premultiplied.c ****     }
 218:Drivers/lvgl/src/draw/sw/blend/lv_draw_sw_blend_to_argb8888_premultiplied.c **** }
 219:Drivers/lvgl/src/draw/sw/blend/lv_draw_sw_blend_to_argb8888_premultiplied.c **** 
 220:Drivers/lvgl/src/draw/sw/blend/lv_draw_sw_blend_to_argb8888_premultiplied.c **** /**********************
 221:Drivers/lvgl/src/draw/sw/blend/lv_draw_sw_blend_to_argb8888_premultiplied.c ****  *   STATIC FUNCTIONS
 222:Drivers/lvgl/src/draw/sw/blend/lv_draw_sw_blend_to_argb8888_premultiplied.c ****  **********************/
 223:Drivers/lvgl/src/draw/sw/blend/lv_draw_sw_blend_to_argb8888_premultiplied.c **** 
 224:Drivers/lvgl/src/draw/sw/blend/lv_draw_sw_blend_to_argb8888_premultiplied.c **** #if LV_DRAW_SW_SUPPORT_ARGB8888
 225:Drivers/lvgl/src/draw/sw/blend/lv_draw_sw_blend_to_argb8888_premultiplied.c **** 
 226:Drivers/lvgl/src/draw/sw/blend/lv_draw_sw_blend_to_argb8888_premultiplied.c **** static void LV_ATTRIBUTE_FAST_MEM argb8888_image_blend(lv_draw_sw_blend_image_dsc_t * dsc)
 227:Drivers/lvgl/src/draw/sw/blend/lv_draw_sw_blend_to_argb8888_premultiplied.c **** {
 228:Drivers/lvgl/src/draw/sw/blend/lv_draw_sw_blend_to_argb8888_premultiplied.c ****     int32_t w = dsc->dest_w;
 229:Drivers/lvgl/src/draw/sw/blend/lv_draw_sw_blend_to_argb8888_premultiplied.c ****     int32_t h = dsc->dest_h;
 230:Drivers/lvgl/src/draw/sw/blend/lv_draw_sw_blend_to_argb8888_premultiplied.c ****     lv_opa_t opa = dsc->opa;
 231:Drivers/lvgl/src/draw/sw/blend/lv_draw_sw_blend_to_argb8888_premultiplied.c ****     lv_color32_t * dest_buf_c32 = dsc->dest_buf;
 232:Drivers/lvgl/src/draw/sw/blend/lv_draw_sw_blend_to_argb8888_premultiplied.c ****     int32_t dest_stride = dsc->dest_stride;
 233:Drivers/lvgl/src/draw/sw/blend/lv_draw_sw_blend_to_argb8888_premultiplied.c ****     const lv_color32_t * src_buf_c32 = dsc->src_buf;
 234:Drivers/lvgl/src/draw/sw/blend/lv_draw_sw_blend_to_argb8888_premultiplied.c ****     int32_t src_stride = dsc->src_stride;
 235:Drivers/lvgl/src/draw/sw/blend/lv_draw_sw_blend_to_argb8888_premultiplied.c ****     const lv_opa_t * mask_buf = dsc->mask_buf;
 236:Drivers/lvgl/src/draw/sw/blend/lv_draw_sw_blend_to_argb8888_premultiplied.c ****     int32_t mask_stride = dsc->mask_stride;
 237:Drivers/lvgl/src/draw/sw/blend/lv_draw_sw_blend_to_argb8888_premultiplied.c **** 
 238:Drivers/lvgl/src/draw/sw/blend/lv_draw_sw_blend_to_argb8888_premultiplied.c ****     lv_color32_t color_argb;
 239:Drivers/lvgl/src/draw/sw/blend/lv_draw_sw_blend_to_argb8888_premultiplied.c ****     lv_color_mix_alpha_cache_t cache;
 240:Drivers/lvgl/src/draw/sw/blend/lv_draw_sw_blend_to_argb8888_premultiplied.c ****     lv_color_mix_with_alpha_cache_init(&cache);
 241:Drivers/lvgl/src/draw/sw/blend/lv_draw_sw_blend_to_argb8888_premultiplied.c **** 
 242:Drivers/lvgl/src/draw/sw/blend/lv_draw_sw_blend_to_argb8888_premultiplied.c ****     int32_t x, y;
 243:Drivers/lvgl/src/draw/sw/blend/lv_draw_sw_blend_to_argb8888_premultiplied.c **** 
 244:Drivers/lvgl/src/draw/sw/blend/lv_draw_sw_blend_to_argb8888_premultiplied.c ****     if(dsc->blend_mode == LV_BLEND_MODE_NORMAL) {
 245:Drivers/lvgl/src/draw/sw/blend/lv_draw_sw_blend_to_argb8888_premultiplied.c ****         if(mask_buf == NULL && opa >= LV_OPA_MAX) {
 246:Drivers/lvgl/src/draw/sw/blend/lv_draw_sw_blend_to_argb8888_premultiplied.c ****             if(LV_RESULT_INVALID == LV_DRAW_SW_ARGB8888_BLEND_NORMAL_TO_ARGB8888_PREMULTIPLIED(dsc)
 247:Drivers/lvgl/src/draw/sw/blend/lv_draw_sw_blend_to_argb8888_premultiplied.c ****                 for(y = 0; y < h; y++) {
 248:Drivers/lvgl/src/draw/sw/blend/lv_draw_sw_blend_to_argb8888_premultiplied.c ****                     for(x = 0; x < w; x++) {
 249:Drivers/lvgl/src/draw/sw/blend/lv_draw_sw_blend_to_argb8888_premultiplied.c ****                         color_argb = src_buf_c32[x];
 250:Drivers/lvgl/src/draw/sw/blend/lv_draw_sw_blend_to_argb8888_premultiplied.c **** 
 251:Drivers/lvgl/src/draw/sw/blend/lv_draw_sw_blend_to_argb8888_premultiplied.c ****                         /* Premultiply alpha */
 252:Drivers/lvgl/src/draw/sw/blend/lv_draw_sw_blend_to_argb8888_premultiplied.c ****                         color_argb.red   = (color_argb.red   * color_argb.alpha) >> 8;
 253:Drivers/lvgl/src/draw/sw/blend/lv_draw_sw_blend_to_argb8888_premultiplied.c ****                         color_argb.green = (color_argb.green * color_argb.alpha) >> 8;
 254:Drivers/lvgl/src/draw/sw/blend/lv_draw_sw_blend_to_argb8888_premultiplied.c ****                         color_argb.blue  = (color_argb.blue  * color_argb.alpha) >> 8;
 255:Drivers/lvgl/src/draw/sw/blend/lv_draw_sw_blend_to_argb8888_premultiplied.c **** 
 256:Drivers/lvgl/src/draw/sw/blend/lv_draw_sw_blend_to_argb8888_premultiplied.c ****                         dest_buf_c32[x] = lv_color_32_32_mix_premul(color_argb, dest_buf_c32[x], &c
 257:Drivers/lvgl/src/draw/sw/blend/lv_draw_sw_blend_to_argb8888_premultiplied.c ****                     }
 258:Drivers/lvgl/src/draw/sw/blend/lv_draw_sw_blend_to_argb8888_premultiplied.c ****                     dest_buf_c32 = drawbuf_next_row(dest_buf_c32, dest_stride);
ARM GAS  /tmp/ccGpYpzg.s 			page 6


 259:Drivers/lvgl/src/draw/sw/blend/lv_draw_sw_blend_to_argb8888_premultiplied.c ****                     src_buf_c32 = drawbuf_next_row(src_buf_c32, src_stride);
 260:Drivers/lvgl/src/draw/sw/blend/lv_draw_sw_blend_to_argb8888_premultiplied.c ****                 }
 261:Drivers/lvgl/src/draw/sw/blend/lv_draw_sw_blend_to_argb8888_premultiplied.c ****             }
 262:Drivers/lvgl/src/draw/sw/blend/lv_draw_sw_blend_to_argb8888_premultiplied.c ****         }
 263:Drivers/lvgl/src/draw/sw/blend/lv_draw_sw_blend_to_argb8888_premultiplied.c ****         else if(mask_buf == NULL && opa < LV_OPA_MAX) {
 264:Drivers/lvgl/src/draw/sw/blend/lv_draw_sw_blend_to_argb8888_premultiplied.c ****             if(LV_RESULT_INVALID == LV_DRAW_SW_ARGB8888_BLEND_NORMAL_TO_ARGB8888_PREMULTIPLIED_WITH
 265:Drivers/lvgl/src/draw/sw/blend/lv_draw_sw_blend_to_argb8888_premultiplied.c ****                 for(y = 0; y < h; y++) {
 266:Drivers/lvgl/src/draw/sw/blend/lv_draw_sw_blend_to_argb8888_premultiplied.c ****                     for(x = 0; x < w; x++) {
 267:Drivers/lvgl/src/draw/sw/blend/lv_draw_sw_blend_to_argb8888_premultiplied.c ****                         color_argb = src_buf_c32[x];
 268:Drivers/lvgl/src/draw/sw/blend/lv_draw_sw_blend_to_argb8888_premultiplied.c **** 
 269:Drivers/lvgl/src/draw/sw/blend/lv_draw_sw_blend_to_argb8888_premultiplied.c ****                         /* Apply global opacity */
 270:Drivers/lvgl/src/draw/sw/blend/lv_draw_sw_blend_to_argb8888_premultiplied.c ****                         color_argb.alpha = LV_OPA_MIX2(color_argb.alpha, opa);
 271:Drivers/lvgl/src/draw/sw/blend/lv_draw_sw_blend_to_argb8888_premultiplied.c **** 
 272:Drivers/lvgl/src/draw/sw/blend/lv_draw_sw_blend_to_argb8888_premultiplied.c ****                         /* Premultiply alpha */
 273:Drivers/lvgl/src/draw/sw/blend/lv_draw_sw_blend_to_argb8888_premultiplied.c ****                         color_argb.red   = (color_argb.red   * color_argb.alpha) >> 8;
 274:Drivers/lvgl/src/draw/sw/blend/lv_draw_sw_blend_to_argb8888_premultiplied.c ****                         color_argb.green = (color_argb.green * color_argb.alpha) >> 8;
 275:Drivers/lvgl/src/draw/sw/blend/lv_draw_sw_blend_to_argb8888_premultiplied.c ****                         color_argb.blue  = (color_argb.blue  * color_argb.alpha) >> 8;
 276:Drivers/lvgl/src/draw/sw/blend/lv_draw_sw_blend_to_argb8888_premultiplied.c **** 
 277:Drivers/lvgl/src/draw/sw/blend/lv_draw_sw_blend_to_argb8888_premultiplied.c ****                         dest_buf_c32[x] = lv_color_32_32_mix_premul(color_argb, dest_buf_c32[x], &c
 278:Drivers/lvgl/src/draw/sw/blend/lv_draw_sw_blend_to_argb8888_premultiplied.c ****                     }
 279:Drivers/lvgl/src/draw/sw/blend/lv_draw_sw_blend_to_argb8888_premultiplied.c ****                     dest_buf_c32 = drawbuf_next_row(dest_buf_c32, dest_stride);
 280:Drivers/lvgl/src/draw/sw/blend/lv_draw_sw_blend_to_argb8888_premultiplied.c ****                     src_buf_c32 = drawbuf_next_row(src_buf_c32, src_stride);
 281:Drivers/lvgl/src/draw/sw/blend/lv_draw_sw_blend_to_argb8888_premultiplied.c ****                 }
 282:Drivers/lvgl/src/draw/sw/blend/lv_draw_sw_blend_to_argb8888_premultiplied.c ****             }
 283:Drivers/lvgl/src/draw/sw/blend/lv_draw_sw_blend_to_argb8888_premultiplied.c ****         }
 284:Drivers/lvgl/src/draw/sw/blend/lv_draw_sw_blend_to_argb8888_premultiplied.c ****         else if(mask_buf && opa >= LV_OPA_MAX) {
 285:Drivers/lvgl/src/draw/sw/blend/lv_draw_sw_blend_to_argb8888_premultiplied.c ****             if(LV_RESULT_INVALID == LV_DRAW_SW_ARGB8888_BLEND_NORMAL_TO_ARGB8888_PREMULTIPLIED_WITH
 286:Drivers/lvgl/src/draw/sw/blend/lv_draw_sw_blend_to_argb8888_premultiplied.c ****                 for(y = 0; y < h; y++) {
 287:Drivers/lvgl/src/draw/sw/blend/lv_draw_sw_blend_to_argb8888_premultiplied.c ****                     for(x = 0; x < w; x++) {
 288:Drivers/lvgl/src/draw/sw/blend/lv_draw_sw_blend_to_argb8888_premultiplied.c ****                         color_argb = src_buf_c32[x];
 289:Drivers/lvgl/src/draw/sw/blend/lv_draw_sw_blend_to_argb8888_premultiplied.c **** 
 290:Drivers/lvgl/src/draw/sw/blend/lv_draw_sw_blend_to_argb8888_premultiplied.c ****                         /* Apply mask opacity */
 291:Drivers/lvgl/src/draw/sw/blend/lv_draw_sw_blend_to_argb8888_premultiplied.c ****                         color_argb.alpha = LV_OPA_MIX2(color_argb.alpha, mask_buf[x]);
 292:Drivers/lvgl/src/draw/sw/blend/lv_draw_sw_blend_to_argb8888_premultiplied.c **** 
 293:Drivers/lvgl/src/draw/sw/blend/lv_draw_sw_blend_to_argb8888_premultiplied.c ****                         /* Premultiply alpha */
 294:Drivers/lvgl/src/draw/sw/blend/lv_draw_sw_blend_to_argb8888_premultiplied.c ****                         color_argb.red   = (color_argb.red   * color_argb.alpha) >> 8;
 295:Drivers/lvgl/src/draw/sw/blend/lv_draw_sw_blend_to_argb8888_premultiplied.c ****                         color_argb.green = (color_argb.green * color_argb.alpha) >> 8;
 296:Drivers/lvgl/src/draw/sw/blend/lv_draw_sw_blend_to_argb8888_premultiplied.c ****                         color_argb.blue  = (color_argb.blue  * color_argb.alpha) >> 8;
 297:Drivers/lvgl/src/draw/sw/blend/lv_draw_sw_blend_to_argb8888_premultiplied.c **** 
 298:Drivers/lvgl/src/draw/sw/blend/lv_draw_sw_blend_to_argb8888_premultiplied.c ****                         dest_buf_c32[x] = lv_color_32_32_mix_premul(color_argb, dest_buf_c32[x], &c
 299:Drivers/lvgl/src/draw/sw/blend/lv_draw_sw_blend_to_argb8888_premultiplied.c ****                     }
 300:Drivers/lvgl/src/draw/sw/blend/lv_draw_sw_blend_to_argb8888_premultiplied.c ****                     dest_buf_c32 = drawbuf_next_row(dest_buf_c32, dest_stride);
 301:Drivers/lvgl/src/draw/sw/blend/lv_draw_sw_blend_to_argb8888_premultiplied.c ****                     src_buf_c32 = drawbuf_next_row(src_buf_c32, src_stride);
 302:Drivers/lvgl/src/draw/sw/blend/lv_draw_sw_blend_to_argb8888_premultiplied.c ****                     mask_buf += mask_stride;
 303:Drivers/lvgl/src/draw/sw/blend/lv_draw_sw_blend_to_argb8888_premultiplied.c ****                 }
 304:Drivers/lvgl/src/draw/sw/blend/lv_draw_sw_blend_to_argb8888_premultiplied.c ****             }
 305:Drivers/lvgl/src/draw/sw/blend/lv_draw_sw_blend_to_argb8888_premultiplied.c ****         }
 306:Drivers/lvgl/src/draw/sw/blend/lv_draw_sw_blend_to_argb8888_premultiplied.c ****         else if(mask_buf && opa < LV_OPA_MAX) {
 307:Drivers/lvgl/src/draw/sw/blend/lv_draw_sw_blend_to_argb8888_premultiplied.c ****             if(LV_RESULT_INVALID == LV_DRAW_SW_ARGB8888_BLEND_NORMAL_TO_ARGB8888_PREMULTIPLIED_MIX_
 308:Drivers/lvgl/src/draw/sw/blend/lv_draw_sw_blend_to_argb8888_premultiplied.c ****                 for(y = 0; y < h; y++) {
 309:Drivers/lvgl/src/draw/sw/blend/lv_draw_sw_blend_to_argb8888_premultiplied.c ****                     for(x = 0; x < w; x++) {
 310:Drivers/lvgl/src/draw/sw/blend/lv_draw_sw_blend_to_argb8888_premultiplied.c ****                         color_argb = src_buf_c32[x];
 311:Drivers/lvgl/src/draw/sw/blend/lv_draw_sw_blend_to_argb8888_premultiplied.c **** 
 312:Drivers/lvgl/src/draw/sw/blend/lv_draw_sw_blend_to_argb8888_premultiplied.c ****                         /* Apply both mask and global opacity */
 313:Drivers/lvgl/src/draw/sw/blend/lv_draw_sw_blend_to_argb8888_premultiplied.c ****                         color_argb.alpha = LV_OPA_MIX3(color_argb.alpha, opa, mask_buf[x]);
 314:Drivers/lvgl/src/draw/sw/blend/lv_draw_sw_blend_to_argb8888_premultiplied.c **** 
 315:Drivers/lvgl/src/draw/sw/blend/lv_draw_sw_blend_to_argb8888_premultiplied.c ****                         /* Premultiply alpha */
ARM GAS  /tmp/ccGpYpzg.s 			page 7


 316:Drivers/lvgl/src/draw/sw/blend/lv_draw_sw_blend_to_argb8888_premultiplied.c ****                         color_argb.red   = (color_argb.red   * color_argb.alpha) >> 8;
 317:Drivers/lvgl/src/draw/sw/blend/lv_draw_sw_blend_to_argb8888_premultiplied.c ****                         color_argb.green = (color_argb.green * color_argb.alpha) >> 8;
 318:Drivers/lvgl/src/draw/sw/blend/lv_draw_sw_blend_to_argb8888_premultiplied.c ****                         color_argb.blue  = (color_argb.blue  * color_argb.alpha) >> 8;
 319:Drivers/lvgl/src/draw/sw/blend/lv_draw_sw_blend_to_argb8888_premultiplied.c **** 
 320:Drivers/lvgl/src/draw/sw/blend/lv_draw_sw_blend_to_argb8888_premultiplied.c ****                         dest_buf_c32[x] = lv_color_32_32_mix_premul(color_argb, dest_buf_c32[x], &c
 321:Drivers/lvgl/src/draw/sw/blend/lv_draw_sw_blend_to_argb8888_premultiplied.c ****                     }
 322:Drivers/lvgl/src/draw/sw/blend/lv_draw_sw_blend_to_argb8888_premultiplied.c ****                     dest_buf_c32 = drawbuf_next_row(dest_buf_c32, dest_stride);
 323:Drivers/lvgl/src/draw/sw/blend/lv_draw_sw_blend_to_argb8888_premultiplied.c ****                     src_buf_c32 = drawbuf_next_row(src_buf_c32, src_stride);
 324:Drivers/lvgl/src/draw/sw/blend/lv_draw_sw_blend_to_argb8888_premultiplied.c ****                     mask_buf += mask_stride;
 325:Drivers/lvgl/src/draw/sw/blend/lv_draw_sw_blend_to_argb8888_premultiplied.c ****                 }
 326:Drivers/lvgl/src/draw/sw/blend/lv_draw_sw_blend_to_argb8888_premultiplied.c ****             }
 327:Drivers/lvgl/src/draw/sw/blend/lv_draw_sw_blend_to_argb8888_premultiplied.c ****         }
 328:Drivers/lvgl/src/draw/sw/blend/lv_draw_sw_blend_to_argb8888_premultiplied.c ****     }
 329:Drivers/lvgl/src/draw/sw/blend/lv_draw_sw_blend_to_argb8888_premultiplied.c ****     else {
 330:Drivers/lvgl/src/draw/sw/blend/lv_draw_sw_blend_to_argb8888_premultiplied.c ****         for(y = 0; y < h; y++) {
 331:Drivers/lvgl/src/draw/sw/blend/lv_draw_sw_blend_to_argb8888_premultiplied.c ****             for(x = 0; x < w; x++) {
 332:Drivers/lvgl/src/draw/sw/blend/lv_draw_sw_blend_to_argb8888_premultiplied.c ****                 color_argb = src_buf_c32[x];
 333:Drivers/lvgl/src/draw/sw/blend/lv_draw_sw_blend_to_argb8888_premultiplied.c **** 
 334:Drivers/lvgl/src/draw/sw/blend/lv_draw_sw_blend_to_argb8888_premultiplied.c ****                 /* Apply mask and/or opacity */
 335:Drivers/lvgl/src/draw/sw/blend/lv_draw_sw_blend_to_argb8888_premultiplied.c ****                 if(mask_buf == NULL)
 336:Drivers/lvgl/src/draw/sw/blend/lv_draw_sw_blend_to_argb8888_premultiplied.c ****                     color_argb.alpha = LV_OPA_MIX2(color_argb.alpha, opa);
 337:Drivers/lvgl/src/draw/sw/blend/lv_draw_sw_blend_to_argb8888_premultiplied.c ****                 else
 338:Drivers/lvgl/src/draw/sw/blend/lv_draw_sw_blend_to_argb8888_premultiplied.c ****                     color_argb.alpha = LV_OPA_MIX3(color_argb.alpha, mask_buf[x], opa);
 339:Drivers/lvgl/src/draw/sw/blend/lv_draw_sw_blend_to_argb8888_premultiplied.c **** 
 340:Drivers/lvgl/src/draw/sw/blend/lv_draw_sw_blend_to_argb8888_premultiplied.c ****                 /* Premultiply alpha */
 341:Drivers/lvgl/src/draw/sw/blend/lv_draw_sw_blend_to_argb8888_premultiplied.c ****                 color_argb.red   = (color_argb.red   * color_argb.alpha) >> 8;
 342:Drivers/lvgl/src/draw/sw/blend/lv_draw_sw_blend_to_argb8888_premultiplied.c ****                 color_argb.green = (color_argb.green * color_argb.alpha) >> 8;
 343:Drivers/lvgl/src/draw/sw/blend/lv_draw_sw_blend_to_argb8888_premultiplied.c ****                 color_argb.blue  = (color_argb.blue  * color_argb.alpha) >> 8;
 344:Drivers/lvgl/src/draw/sw/blend/lv_draw_sw_blend_to_argb8888_premultiplied.c **** 
 345:Drivers/lvgl/src/draw/sw/blend/lv_draw_sw_blend_to_argb8888_premultiplied.c ****                 blend_non_normal_pixel_premultiplied(&dest_buf_c32[x], color_argb, dsc->blend_mode,
 346:Drivers/lvgl/src/draw/sw/blend/lv_draw_sw_blend_to_argb8888_premultiplied.c ****             }
 347:Drivers/lvgl/src/draw/sw/blend/lv_draw_sw_blend_to_argb8888_premultiplied.c ****             if(mask_buf) mask_buf += mask_stride;
 348:Drivers/lvgl/src/draw/sw/blend/lv_draw_sw_blend_to_argb8888_premultiplied.c ****             dest_buf_c32 = drawbuf_next_row(dest_buf_c32, dest_stride);
 349:Drivers/lvgl/src/draw/sw/blend/lv_draw_sw_blend_to_argb8888_premultiplied.c ****             src_buf_c32 = drawbuf_next_row(src_buf_c32, src_stride);
 350:Drivers/lvgl/src/draw/sw/blend/lv_draw_sw_blend_to_argb8888_premultiplied.c ****         }
 351:Drivers/lvgl/src/draw/sw/blend/lv_draw_sw_blend_to_argb8888_premultiplied.c ****     }
 352:Drivers/lvgl/src/draw/sw/blend/lv_draw_sw_blend_to_argb8888_premultiplied.c **** }
 353:Drivers/lvgl/src/draw/sw/blend/lv_draw_sw_blend_to_argb8888_premultiplied.c **** 
 354:Drivers/lvgl/src/draw/sw/blend/lv_draw_sw_blend_to_argb8888_premultiplied.c **** #endif
 355:Drivers/lvgl/src/draw/sw/blend/lv_draw_sw_blend_to_argb8888_premultiplied.c **** 
 356:Drivers/lvgl/src/draw/sw/blend/lv_draw_sw_blend_to_argb8888_premultiplied.c **** static void LV_ATTRIBUTE_FAST_MEM argb8888_premultiplied_image_blend(lv_draw_sw_blend_image_dsc_t *
 357:Drivers/lvgl/src/draw/sw/blend/lv_draw_sw_blend_to_argb8888_premultiplied.c **** {
 358:Drivers/lvgl/src/draw/sw/blend/lv_draw_sw_blend_to_argb8888_premultiplied.c ****     int32_t w = dsc->dest_w;
 359:Drivers/lvgl/src/draw/sw/blend/lv_draw_sw_blend_to_argb8888_premultiplied.c ****     int32_t h = dsc->dest_h;
 360:Drivers/lvgl/src/draw/sw/blend/lv_draw_sw_blend_to_argb8888_premultiplied.c ****     lv_opa_t opa = dsc->opa;
 361:Drivers/lvgl/src/draw/sw/blend/lv_draw_sw_blend_to_argb8888_premultiplied.c ****     lv_color32_t * dest_buf_c32 = dsc->dest_buf;
 362:Drivers/lvgl/src/draw/sw/blend/lv_draw_sw_blend_to_argb8888_premultiplied.c ****     int32_t dest_stride = dsc->dest_stride;
 363:Drivers/lvgl/src/draw/sw/blend/lv_draw_sw_blend_to_argb8888_premultiplied.c ****     const lv_color32_t * src_buf_c32 = dsc->src_buf;
 364:Drivers/lvgl/src/draw/sw/blend/lv_draw_sw_blend_to_argb8888_premultiplied.c ****     int32_t src_stride = dsc->src_stride;
 365:Drivers/lvgl/src/draw/sw/blend/lv_draw_sw_blend_to_argb8888_premultiplied.c ****     const lv_opa_t * mask_buf = dsc->mask_buf;
 366:Drivers/lvgl/src/draw/sw/blend/lv_draw_sw_blend_to_argb8888_premultiplied.c ****     int32_t mask_stride = dsc->mask_stride;
 367:Drivers/lvgl/src/draw/sw/blend/lv_draw_sw_blend_to_argb8888_premultiplied.c **** 
 368:Drivers/lvgl/src/draw/sw/blend/lv_draw_sw_blend_to_argb8888_premultiplied.c ****     lv_color32_t color_argb;
 369:Drivers/lvgl/src/draw/sw/blend/lv_draw_sw_blend_to_argb8888_premultiplied.c ****     lv_color_mix_alpha_cache_t cache;
 370:Drivers/lvgl/src/draw/sw/blend/lv_draw_sw_blend_to_argb8888_premultiplied.c ****     lv_color_mix_with_alpha_cache_init(&cache);
 371:Drivers/lvgl/src/draw/sw/blend/lv_draw_sw_blend_to_argb8888_premultiplied.c **** 
 372:Drivers/lvgl/src/draw/sw/blend/lv_draw_sw_blend_to_argb8888_premultiplied.c ****     int32_t x, y;
ARM GAS  /tmp/ccGpYpzg.s 			page 8


 373:Drivers/lvgl/src/draw/sw/blend/lv_draw_sw_blend_to_argb8888_premultiplied.c **** 
 374:Drivers/lvgl/src/draw/sw/blend/lv_draw_sw_blend_to_argb8888_premultiplied.c ****     if(dsc->blend_mode == LV_BLEND_MODE_NORMAL) {
 375:Drivers/lvgl/src/draw/sw/blend/lv_draw_sw_blend_to_argb8888_premultiplied.c ****         if(mask_buf == NULL && opa >= LV_OPA_MAX) {
 376:Drivers/lvgl/src/draw/sw/blend/lv_draw_sw_blend_to_argb8888_premultiplied.c ****             if(LV_RESULT_INVALID == LV_DRAW_SW_ARGB8888_PREMULTIPLIED_BLEND_NORMAL_TO_ARGB8888_PREM
 377:Drivers/lvgl/src/draw/sw/blend/lv_draw_sw_blend_to_argb8888_premultiplied.c ****                 for(y = 0; y < h; y++) {
 378:Drivers/lvgl/src/draw/sw/blend/lv_draw_sw_blend_to_argb8888_premultiplied.c ****                     for(x = 0; x < w; x++) {
 379:Drivers/lvgl/src/draw/sw/blend/lv_draw_sw_blend_to_argb8888_premultiplied.c ****                         dest_buf_c32[x] = lv_color_32_32_mix_premul(src_buf_c32[x], dest_buf_c32[x]
 380:Drivers/lvgl/src/draw/sw/blend/lv_draw_sw_blend_to_argb8888_premultiplied.c ****                     }
 381:Drivers/lvgl/src/draw/sw/blend/lv_draw_sw_blend_to_argb8888_premultiplied.c ****                     dest_buf_c32 = drawbuf_next_row(dest_buf_c32, dest_stride);
 382:Drivers/lvgl/src/draw/sw/blend/lv_draw_sw_blend_to_argb8888_premultiplied.c ****                     src_buf_c32 = drawbuf_next_row(src_buf_c32, src_stride);
 383:Drivers/lvgl/src/draw/sw/blend/lv_draw_sw_blend_to_argb8888_premultiplied.c ****                 }
 384:Drivers/lvgl/src/draw/sw/blend/lv_draw_sw_blend_to_argb8888_premultiplied.c ****             }
 385:Drivers/lvgl/src/draw/sw/blend/lv_draw_sw_blend_to_argb8888_premultiplied.c ****         }
 386:Drivers/lvgl/src/draw/sw/blend/lv_draw_sw_blend_to_argb8888_premultiplied.c ****         else if(mask_buf == NULL && opa < LV_OPA_MAX) {
 387:Drivers/lvgl/src/draw/sw/blend/lv_draw_sw_blend_to_argb8888_premultiplied.c ****             if(LV_RESULT_INVALID == LV_DRAW_SW_ARGB8888_PREMULTIPLIED_BLEND_NORMAL_TO_ARGB8888_PREM
 388:Drivers/lvgl/src/draw/sw/blend/lv_draw_sw_blend_to_argb8888_premultiplied.c ****                 for(y = 0; y < h; y++) {
 389:Drivers/lvgl/src/draw/sw/blend/lv_draw_sw_blend_to_argb8888_premultiplied.c ****                     for(x = 0; x < w; x++) {
 390:Drivers/lvgl/src/draw/sw/blend/lv_draw_sw_blend_to_argb8888_premultiplied.c ****                         color_argb = src_buf_c32[x];
 391:Drivers/lvgl/src/draw/sw/blend/lv_draw_sw_blend_to_argb8888_premultiplied.c **** 
 392:Drivers/lvgl/src/draw/sw/blend/lv_draw_sw_blend_to_argb8888_premultiplied.c ****                         /* Unpremultiply the source color by using the reciprocal of the alpha */
 393:Drivers/lvgl/src/draw/sw/blend/lv_draw_sw_blend_to_argb8888_premultiplied.c ****                         if(color_argb.alpha != 0) {
 394:Drivers/lvgl/src/draw/sw/blend/lv_draw_sw_blend_to_argb8888_premultiplied.c ****                             uint16_t reciprocal_alpha = (255 * 256) / color_argb.alpha;
 395:Drivers/lvgl/src/draw/sw/blend/lv_draw_sw_blend_to_argb8888_premultiplied.c ****                             color_argb.red = (color_argb.red * reciprocal_alpha) >> 8;
 396:Drivers/lvgl/src/draw/sw/blend/lv_draw_sw_blend_to_argb8888_premultiplied.c ****                             color_argb.green = (color_argb.green * reciprocal_alpha) >> 8;
 397:Drivers/lvgl/src/draw/sw/blend/lv_draw_sw_blend_to_argb8888_premultiplied.c ****                             color_argb.blue = (color_argb.blue * reciprocal_alpha) >> 8;
 398:Drivers/lvgl/src/draw/sw/blend/lv_draw_sw_blend_to_argb8888_premultiplied.c ****                         }
 399:Drivers/lvgl/src/draw/sw/blend/lv_draw_sw_blend_to_argb8888_premultiplied.c **** 
 400:Drivers/lvgl/src/draw/sw/blend/lv_draw_sw_blend_to_argb8888_premultiplied.c ****                         /* Apply global opacity */
 401:Drivers/lvgl/src/draw/sw/blend/lv_draw_sw_blend_to_argb8888_premultiplied.c ****                         color_argb.alpha = LV_OPA_MIX2(color_argb.alpha, opa);
 402:Drivers/lvgl/src/draw/sw/blend/lv_draw_sw_blend_to_argb8888_premultiplied.c **** 
 403:Drivers/lvgl/src/draw/sw/blend/lv_draw_sw_blend_to_argb8888_premultiplied.c ****                         /* Premultiply alpha */
 404:Drivers/lvgl/src/draw/sw/blend/lv_draw_sw_blend_to_argb8888_premultiplied.c ****                         color_argb.red   = (color_argb.red   * color_argb.alpha) >> 8;
 405:Drivers/lvgl/src/draw/sw/blend/lv_draw_sw_blend_to_argb8888_premultiplied.c ****                         color_argb.green = (color_argb.green * color_argb.alpha) >> 8;
 406:Drivers/lvgl/src/draw/sw/blend/lv_draw_sw_blend_to_argb8888_premultiplied.c ****                         color_argb.blue  = (color_argb.blue  * color_argb.alpha) >> 8;
 407:Drivers/lvgl/src/draw/sw/blend/lv_draw_sw_blend_to_argb8888_premultiplied.c **** 
 408:Drivers/lvgl/src/draw/sw/blend/lv_draw_sw_blend_to_argb8888_premultiplied.c **** 
 409:Drivers/lvgl/src/draw/sw/blend/lv_draw_sw_blend_to_argb8888_premultiplied.c ****                         dest_buf_c32[x] = lv_color_32_32_mix_premul(color_argb, dest_buf_c32[x], &c
 410:Drivers/lvgl/src/draw/sw/blend/lv_draw_sw_blend_to_argb8888_premultiplied.c ****                     }
 411:Drivers/lvgl/src/draw/sw/blend/lv_draw_sw_blend_to_argb8888_premultiplied.c ****                     dest_buf_c32 = drawbuf_next_row(dest_buf_c32, dest_stride);
 412:Drivers/lvgl/src/draw/sw/blend/lv_draw_sw_blend_to_argb8888_premultiplied.c ****                     src_buf_c32 = drawbuf_next_row(src_buf_c32, src_stride);
 413:Drivers/lvgl/src/draw/sw/blend/lv_draw_sw_blend_to_argb8888_premultiplied.c ****                 }
 414:Drivers/lvgl/src/draw/sw/blend/lv_draw_sw_blend_to_argb8888_premultiplied.c ****             }
 415:Drivers/lvgl/src/draw/sw/blend/lv_draw_sw_blend_to_argb8888_premultiplied.c ****         }
 416:Drivers/lvgl/src/draw/sw/blend/lv_draw_sw_blend_to_argb8888_premultiplied.c ****         else if(mask_buf && opa >= LV_OPA_MAX) {
 417:Drivers/lvgl/src/draw/sw/blend/lv_draw_sw_blend_to_argb8888_premultiplied.c ****             if(LV_RESULT_INVALID == LV_DRAW_SW_ARGB8888_PREMULTIPLIED_BLEND_NORMAL_TO_ARGB8888_PREM
 418:Drivers/lvgl/src/draw/sw/blend/lv_draw_sw_blend_to_argb8888_premultiplied.c ****                 for(y = 0; y < h; y++) {
 419:Drivers/lvgl/src/draw/sw/blend/lv_draw_sw_blend_to_argb8888_premultiplied.c ****                     for(x = 0; x < w; x++) {
 420:Drivers/lvgl/src/draw/sw/blend/lv_draw_sw_blend_to_argb8888_premultiplied.c ****                         color_argb = src_buf_c32[x];
 421:Drivers/lvgl/src/draw/sw/blend/lv_draw_sw_blend_to_argb8888_premultiplied.c **** 
 422:Drivers/lvgl/src/draw/sw/blend/lv_draw_sw_blend_to_argb8888_premultiplied.c ****                         /* Unpremultiply the source color by using the reciprocal of the alpha */
 423:Drivers/lvgl/src/draw/sw/blend/lv_draw_sw_blend_to_argb8888_premultiplied.c ****                         if(color_argb.alpha != 0) {
 424:Drivers/lvgl/src/draw/sw/blend/lv_draw_sw_blend_to_argb8888_premultiplied.c ****                             uint16_t reciprocal_alpha = (255 * 256) / color_argb.alpha;
 425:Drivers/lvgl/src/draw/sw/blend/lv_draw_sw_blend_to_argb8888_premultiplied.c ****                             color_argb.red = (color_argb.red * reciprocal_alpha) >> 8;
 426:Drivers/lvgl/src/draw/sw/blend/lv_draw_sw_blend_to_argb8888_premultiplied.c ****                             color_argb.green = (color_argb.green * reciprocal_alpha) >> 8;
 427:Drivers/lvgl/src/draw/sw/blend/lv_draw_sw_blend_to_argb8888_premultiplied.c ****                             color_argb.blue = (color_argb.blue * reciprocal_alpha) >> 8;
 428:Drivers/lvgl/src/draw/sw/blend/lv_draw_sw_blend_to_argb8888_premultiplied.c ****                         }
 429:Drivers/lvgl/src/draw/sw/blend/lv_draw_sw_blend_to_argb8888_premultiplied.c ****                         /* Adjust alpha using mask */
ARM GAS  /tmp/ccGpYpzg.s 			page 9


 430:Drivers/lvgl/src/draw/sw/blend/lv_draw_sw_blend_to_argb8888_premultiplied.c ****                         color_argb.alpha = LV_OPA_MIX2(color_argb.alpha, mask_buf[x]);
 431:Drivers/lvgl/src/draw/sw/blend/lv_draw_sw_blend_to_argb8888_premultiplied.c **** 
 432:Drivers/lvgl/src/draw/sw/blend/lv_draw_sw_blend_to_argb8888_premultiplied.c ****                         /* Premultiply alpha */
 433:Drivers/lvgl/src/draw/sw/blend/lv_draw_sw_blend_to_argb8888_premultiplied.c ****                         color_argb.red   = (color_argb.red   * color_argb.alpha) >> 8;
 434:Drivers/lvgl/src/draw/sw/blend/lv_draw_sw_blend_to_argb8888_premultiplied.c ****                         color_argb.green = (color_argb.green * color_argb.alpha) >> 8;
 435:Drivers/lvgl/src/draw/sw/blend/lv_draw_sw_blend_to_argb8888_premultiplied.c ****                         color_argb.blue  = (color_argb.blue  * color_argb.alpha) >> 8;
 436:Drivers/lvgl/src/draw/sw/blend/lv_draw_sw_blend_to_argb8888_premultiplied.c **** 
 437:Drivers/lvgl/src/draw/sw/blend/lv_draw_sw_blend_to_argb8888_premultiplied.c ****                         dest_buf_c32[x] = lv_color_32_32_mix_premul(color_argb, dest_buf_c32[x], &c
 438:Drivers/lvgl/src/draw/sw/blend/lv_draw_sw_blend_to_argb8888_premultiplied.c ****                     }
 439:Drivers/lvgl/src/draw/sw/blend/lv_draw_sw_blend_to_argb8888_premultiplied.c ****                     dest_buf_c32 = drawbuf_next_row(dest_buf_c32, dest_stride);
 440:Drivers/lvgl/src/draw/sw/blend/lv_draw_sw_blend_to_argb8888_premultiplied.c ****                     src_buf_c32 = drawbuf_next_row(src_buf_c32, src_stride);
 441:Drivers/lvgl/src/draw/sw/blend/lv_draw_sw_blend_to_argb8888_premultiplied.c ****                     mask_buf += mask_stride;
 442:Drivers/lvgl/src/draw/sw/blend/lv_draw_sw_blend_to_argb8888_premultiplied.c ****                 }
 443:Drivers/lvgl/src/draw/sw/blend/lv_draw_sw_blend_to_argb8888_premultiplied.c ****             }
 444:Drivers/lvgl/src/draw/sw/blend/lv_draw_sw_blend_to_argb8888_premultiplied.c ****         }
 445:Drivers/lvgl/src/draw/sw/blend/lv_draw_sw_blend_to_argb8888_premultiplied.c ****         else if(mask_buf && opa < LV_OPA_MAX) {
 446:Drivers/lvgl/src/draw/sw/blend/lv_draw_sw_blend_to_argb8888_premultiplied.c ****             if(LV_RESULT_INVALID == LV_DRAW_SW_ARGB8888_PREMULTIPLIED_BLEND_NORMAL_TO_ARGB8888_PREM
 447:Drivers/lvgl/src/draw/sw/blend/lv_draw_sw_blend_to_argb8888_premultiplied.c ****                 for(y = 0; y < h; y++) {
 448:Drivers/lvgl/src/draw/sw/blend/lv_draw_sw_blend_to_argb8888_premultiplied.c ****                     for(x = 0; x < w; x++) {
 449:Drivers/lvgl/src/draw/sw/blend/lv_draw_sw_blend_to_argb8888_premultiplied.c ****                         color_argb = src_buf_c32[x];
 450:Drivers/lvgl/src/draw/sw/blend/lv_draw_sw_blend_to_argb8888_premultiplied.c **** 
 451:Drivers/lvgl/src/draw/sw/blend/lv_draw_sw_blend_to_argb8888_premultiplied.c ****                         /* Unpremultiply the source color by using the reciprocal of the alpha */
 452:Drivers/lvgl/src/draw/sw/blend/lv_draw_sw_blend_to_argb8888_premultiplied.c ****                         if(color_argb.alpha != 0) {
 453:Drivers/lvgl/src/draw/sw/blend/lv_draw_sw_blend_to_argb8888_premultiplied.c ****                             uint16_t reciprocal_alpha = (255 * 256) / color_argb.alpha;
 454:Drivers/lvgl/src/draw/sw/blend/lv_draw_sw_blend_to_argb8888_premultiplied.c ****                             color_argb.red = (color_argb.red * reciprocal_alpha) >> 8;
 455:Drivers/lvgl/src/draw/sw/blend/lv_draw_sw_blend_to_argb8888_premultiplied.c ****                             color_argb.green = (color_argb.green * reciprocal_alpha) >> 8;
 456:Drivers/lvgl/src/draw/sw/blend/lv_draw_sw_blend_to_argb8888_premultiplied.c ****                             color_argb.blue = (color_argb.blue * reciprocal_alpha) >> 8;
 457:Drivers/lvgl/src/draw/sw/blend/lv_draw_sw_blend_to_argb8888_premultiplied.c ****                         }
 458:Drivers/lvgl/src/draw/sw/blend/lv_draw_sw_blend_to_argb8888_premultiplied.c **** 
 459:Drivers/lvgl/src/draw/sw/blend/lv_draw_sw_blend_to_argb8888_premultiplied.c ****                         /* Adjust alpha using both mask and opacity */
 460:Drivers/lvgl/src/draw/sw/blend/lv_draw_sw_blend_to_argb8888_premultiplied.c ****                         color_argb.alpha = LV_OPA_MIX3(color_argb.alpha, opa, mask_buf[x]);
 461:Drivers/lvgl/src/draw/sw/blend/lv_draw_sw_blend_to_argb8888_premultiplied.c **** 
 462:Drivers/lvgl/src/draw/sw/blend/lv_draw_sw_blend_to_argb8888_premultiplied.c ****                         /* Premultiply alpha */
 463:Drivers/lvgl/src/draw/sw/blend/lv_draw_sw_blend_to_argb8888_premultiplied.c ****                         color_argb.red   = (color_argb.red   * color_argb.alpha) >> 8;
 464:Drivers/lvgl/src/draw/sw/blend/lv_draw_sw_blend_to_argb8888_premultiplied.c ****                         color_argb.green = (color_argb.green * color_argb.alpha) >> 8;
 465:Drivers/lvgl/src/draw/sw/blend/lv_draw_sw_blend_to_argb8888_premultiplied.c ****                         color_argb.blue  = (color_argb.blue  * color_argb.alpha) >> 8;
 466:Drivers/lvgl/src/draw/sw/blend/lv_draw_sw_blend_to_argb8888_premultiplied.c **** 
 467:Drivers/lvgl/src/draw/sw/blend/lv_draw_sw_blend_to_argb8888_premultiplied.c ****                         dest_buf_c32[x] = lv_color_32_32_mix_premul(color_argb, dest_buf_c32[x], &c
 468:Drivers/lvgl/src/draw/sw/blend/lv_draw_sw_blend_to_argb8888_premultiplied.c ****                     }
 469:Drivers/lvgl/src/draw/sw/blend/lv_draw_sw_blend_to_argb8888_premultiplied.c ****                     dest_buf_c32 = drawbuf_next_row(dest_buf_c32, dest_stride);
 470:Drivers/lvgl/src/draw/sw/blend/lv_draw_sw_blend_to_argb8888_premultiplied.c ****                     src_buf_c32 = drawbuf_next_row(src_buf_c32, src_stride);
 471:Drivers/lvgl/src/draw/sw/blend/lv_draw_sw_blend_to_argb8888_premultiplied.c ****                     mask_buf += mask_stride;
 472:Drivers/lvgl/src/draw/sw/blend/lv_draw_sw_blend_to_argb8888_premultiplied.c ****                 }
 473:Drivers/lvgl/src/draw/sw/blend/lv_draw_sw_blend_to_argb8888_premultiplied.c ****             }
 474:Drivers/lvgl/src/draw/sw/blend/lv_draw_sw_blend_to_argb8888_premultiplied.c ****         }
 475:Drivers/lvgl/src/draw/sw/blend/lv_draw_sw_blend_to_argb8888_premultiplied.c ****     }
 476:Drivers/lvgl/src/draw/sw/blend/lv_draw_sw_blend_to_argb8888_premultiplied.c ****     else {
 477:Drivers/lvgl/src/draw/sw/blend/lv_draw_sw_blend_to_argb8888_premultiplied.c ****         for(y = 0; y < h; y++) {
 478:Drivers/lvgl/src/draw/sw/blend/lv_draw_sw_blend_to_argb8888_premultiplied.c ****             for(x = 0; x < w; x++) {
 479:Drivers/lvgl/src/draw/sw/blend/lv_draw_sw_blend_to_argb8888_premultiplied.c ****                 color_argb = src_buf_c32[x];
 480:Drivers/lvgl/src/draw/sw/blend/lv_draw_sw_blend_to_argb8888_premultiplied.c **** 
 481:Drivers/lvgl/src/draw/sw/blend/lv_draw_sw_blend_to_argb8888_premultiplied.c ****                 /* Unpremultiply the source color by using the reciprocal of the alpha */
 482:Drivers/lvgl/src/draw/sw/blend/lv_draw_sw_blend_to_argb8888_premultiplied.c ****                 if(color_argb.alpha != 0) {
 483:Drivers/lvgl/src/draw/sw/blend/lv_draw_sw_blend_to_argb8888_premultiplied.c ****                     uint16_t reciprocal_alpha = (255 * 256) / color_argb.alpha;
 484:Drivers/lvgl/src/draw/sw/blend/lv_draw_sw_blend_to_argb8888_premultiplied.c ****                     color_argb.red = (color_argb.red * reciprocal_alpha) >> 8;
 485:Drivers/lvgl/src/draw/sw/blend/lv_draw_sw_blend_to_argb8888_premultiplied.c ****                     color_argb.green = (color_argb.green * reciprocal_alpha) >> 8;
 486:Drivers/lvgl/src/draw/sw/blend/lv_draw_sw_blend_to_argb8888_premultiplied.c ****                     color_argb.blue = (color_argb.blue * reciprocal_alpha) >> 8;
ARM GAS  /tmp/ccGpYpzg.s 			page 10


 487:Drivers/lvgl/src/draw/sw/blend/lv_draw_sw_blend_to_argb8888_premultiplied.c ****                 }
 488:Drivers/lvgl/src/draw/sw/blend/lv_draw_sw_blend_to_argb8888_premultiplied.c **** 
 489:Drivers/lvgl/src/draw/sw/blend/lv_draw_sw_blend_to_argb8888_premultiplied.c ****                 /* Adjust alpha if needed */
 490:Drivers/lvgl/src/draw/sw/blend/lv_draw_sw_blend_to_argb8888_premultiplied.c ****                 if(mask_buf == NULL)
 491:Drivers/lvgl/src/draw/sw/blend/lv_draw_sw_blend_to_argb8888_premultiplied.c ****                     color_argb.alpha = LV_OPA_MIX2(color_argb.alpha, opa);
 492:Drivers/lvgl/src/draw/sw/blend/lv_draw_sw_blend_to_argb8888_premultiplied.c ****                 else
 493:Drivers/lvgl/src/draw/sw/blend/lv_draw_sw_blend_to_argb8888_premultiplied.c ****                     color_argb.alpha = LV_OPA_MIX3(color_argb.alpha, mask_buf[x], opa);
 494:Drivers/lvgl/src/draw/sw/blend/lv_draw_sw_blend_to_argb8888_premultiplied.c **** 
 495:Drivers/lvgl/src/draw/sw/blend/lv_draw_sw_blend_to_argb8888_premultiplied.c ****                 /* Premultiply alpha */
 496:Drivers/lvgl/src/draw/sw/blend/lv_draw_sw_blend_to_argb8888_premultiplied.c ****                 color_argb.red   = (color_argb.red   * color_argb.alpha) >> 8;
 497:Drivers/lvgl/src/draw/sw/blend/lv_draw_sw_blend_to_argb8888_premultiplied.c ****                 color_argb.green = (color_argb.green * color_argb.alpha) >> 8;
 498:Drivers/lvgl/src/draw/sw/blend/lv_draw_sw_blend_to_argb8888_premultiplied.c ****                 color_argb.blue  = (color_argb.blue  * color_argb.alpha) >> 8;
 499:Drivers/lvgl/src/draw/sw/blend/lv_draw_sw_blend_to_argb8888_premultiplied.c **** 
 500:Drivers/lvgl/src/draw/sw/blend/lv_draw_sw_blend_to_argb8888_premultiplied.c ****                 blend_non_normal_pixel_premultiplied(&dest_buf_c32[x], color_argb, dsc->blend_mode,
 501:Drivers/lvgl/src/draw/sw/blend/lv_draw_sw_blend_to_argb8888_premultiplied.c ****             }
 502:Drivers/lvgl/src/draw/sw/blend/lv_draw_sw_blend_to_argb8888_premultiplied.c ****             if(mask_buf) mask_buf += mask_stride;
 503:Drivers/lvgl/src/draw/sw/blend/lv_draw_sw_blend_to_argb8888_premultiplied.c ****             dest_buf_c32 = drawbuf_next_row(dest_buf_c32, dest_stride);
 504:Drivers/lvgl/src/draw/sw/blend/lv_draw_sw_blend_to_argb8888_premultiplied.c ****             src_buf_c32 = drawbuf_next_row(src_buf_c32, src_stride);
 505:Drivers/lvgl/src/draw/sw/blend/lv_draw_sw_blend_to_argb8888_premultiplied.c ****         }
 506:Drivers/lvgl/src/draw/sw/blend/lv_draw_sw_blend_to_argb8888_premultiplied.c ****     }
 507:Drivers/lvgl/src/draw/sw/blend/lv_draw_sw_blend_to_argb8888_premultiplied.c **** }
 508:Drivers/lvgl/src/draw/sw/blend/lv_draw_sw_blend_to_argb8888_premultiplied.c **** 
 509:Drivers/lvgl/src/draw/sw/blend/lv_draw_sw_blend_to_argb8888_premultiplied.c **** 
 510:Drivers/lvgl/src/draw/sw/blend/lv_draw_sw_blend_to_argb8888_premultiplied.c **** /**
 511:Drivers/lvgl/src/draw/sw/blend/lv_draw_sw_blend_to_argb8888_premultiplied.c ****  * @brief Mix two ARGB8888 premultiplied colors.
 512:Drivers/lvgl/src/draw/sw/blend/lv_draw_sw_blend_to_argb8888_premultiplied.c ****  *
 513:Drivers/lvgl/src/draw/sw/blend/lv_draw_sw_blend_to_argb8888_premultiplied.c ****  * This function blends the foreground (`fg`) and background (`bg`) colors.
 514:Drivers/lvgl/src/draw/sw/blend/lv_draw_sw_blend_to_argb8888_premultiplied.c ****  * The foreground color is assumed to be premultiplied.
 515:Drivers/lvgl/src/draw/sw/blend/lv_draw_sw_blend_to_argb8888_premultiplied.c ****  *
 516:Drivers/lvgl/src/draw/sw/blend/lv_draw_sw_blend_to_argb8888_premultiplied.c ****  * @param fg Foreground color (premultiplied alpha)
 517:Drivers/lvgl/src/draw/sw/blend/lv_draw_sw_blend_to_argb8888_premultiplied.c ****  * @param bg Background color
 518:Drivers/lvgl/src/draw/sw/blend/lv_draw_sw_blend_to_argb8888_premultiplied.c ****  * @param cache Alpha blending cache for optimization
 519:Drivers/lvgl/src/draw/sw/blend/lv_draw_sw_blend_to_argb8888_premultiplied.c ****  * @return lv_color32_t Blended color result
 520:Drivers/lvgl/src/draw/sw/blend/lv_draw_sw_blend_to_argb8888_premultiplied.c ****  */
 521:Drivers/lvgl/src/draw/sw/blend/lv_draw_sw_blend_to_argb8888_premultiplied.c **** static inline lv_color32_t lv_color_32_32_mix_premul(lv_color32_t fg, lv_color32_t bg,
 522:Drivers/lvgl/src/draw/sw/blend/lv_draw_sw_blend_to_argb8888_premultiplied.c ****                                                      lv_color_mix_alpha_cache_t * cache)
 523:Drivers/lvgl/src/draw/sw/blend/lv_draw_sw_blend_to_argb8888_premultiplied.c **** {
 524:Drivers/lvgl/src/draw/sw/blend/lv_draw_sw_blend_to_argb8888_premultiplied.c ****     /*Pick the foreground if it's fully opaque or the background is fully transparent*/
 525:Drivers/lvgl/src/draw/sw/blend/lv_draw_sw_blend_to_argb8888_premultiplied.c ****     if(fg.alpha >= LV_OPA_MAX || bg.alpha <= LV_OPA_MIN) {
 526:Drivers/lvgl/src/draw/sw/blend/lv_draw_sw_blend_to_argb8888_premultiplied.c ****         return fg;
 527:Drivers/lvgl/src/draw/sw/blend/lv_draw_sw_blend_to_argb8888_premultiplied.c ****     }
 528:Drivers/lvgl/src/draw/sw/blend/lv_draw_sw_blend_to_argb8888_premultiplied.c ****     /* Transparent foreground: use the background */
 529:Drivers/lvgl/src/draw/sw/blend/lv_draw_sw_blend_to_argb8888_premultiplied.c ****     else if(fg.alpha <= LV_OPA_MIN) {
 530:Drivers/lvgl/src/draw/sw/blend/lv_draw_sw_blend_to_argb8888_premultiplied.c ****         return bg;
 531:Drivers/lvgl/src/draw/sw/blend/lv_draw_sw_blend_to_argb8888_premultiplied.c ****     }
 532:Drivers/lvgl/src/draw/sw/blend/lv_draw_sw_blend_to_argb8888_premultiplied.c ****     /* Opaque background: use simple mix */
 533:Drivers/lvgl/src/draw/sw/blend/lv_draw_sw_blend_to_argb8888_premultiplied.c ****     else if(bg.alpha == 255) {
 534:Drivers/lvgl/src/draw/sw/blend/lv_draw_sw_blend_to_argb8888_premultiplied.c ****         return lv_color_mix32_premultiplied(fg, bg);
 535:Drivers/lvgl/src/draw/sw/blend/lv_draw_sw_blend_to_argb8888_premultiplied.c ****     }
 536:Drivers/lvgl/src/draw/sw/blend/lv_draw_sw_blend_to_argb8888_premultiplied.c ****     else {
 537:Drivers/lvgl/src/draw/sw/blend/lv_draw_sw_blend_to_argb8888_premultiplied.c ****         /* Check cache to avoid redundant calculations */
 538:Drivers/lvgl/src/draw/sw/blend/lv_draw_sw_blend_to_argb8888_premultiplied.c ****         if(bg.alpha != cache->bg_saved.alpha || fg.alpha != cache->fg_saved.alpha) {
 539:Drivers/lvgl/src/draw/sw/blend/lv_draw_sw_blend_to_argb8888_premultiplied.c ****             /* Compute final alpha value */
 540:Drivers/lvgl/src/draw/sw/blend/lv_draw_sw_blend_to_argb8888_premultiplied.c ****             cache->res_alpha_saved = 255 - LV_OPA_MIX2(255 - fg.alpha, 255 - bg.alpha);
 541:Drivers/lvgl/src/draw/sw/blend/lv_draw_sw_blend_to_argb8888_premultiplied.c ****             LV_ASSERT(cache->res_alpha_saved != 0);
 542:Drivers/lvgl/src/draw/sw/blend/lv_draw_sw_blend_to_argb8888_premultiplied.c **** 
 543:Drivers/lvgl/src/draw/sw/blend/lv_draw_sw_blend_to_argb8888_premultiplied.c ****             /* Compute premultiplied blending ratio */
ARM GAS  /tmp/ccGpYpzg.s 			page 11


 544:Drivers/lvgl/src/draw/sw/blend/lv_draw_sw_blend_to_argb8888_premultiplied.c ****             cache->ratio_saved = (uint32_t)((uint32_t)fg.alpha * 255) / cache->res_alpha_saved;
 545:Drivers/lvgl/src/draw/sw/blend/lv_draw_sw_blend_to_argb8888_premultiplied.c ****         }
 546:Drivers/lvgl/src/draw/sw/blend/lv_draw_sw_blend_to_argb8888_premultiplied.c **** 
 547:Drivers/lvgl/src/draw/sw/blend/lv_draw_sw_blend_to_argb8888_premultiplied.c ****         /* Check if color blending is already cached */
 548:Drivers/lvgl/src/draw/sw/blend/lv_draw_sw_blend_to_argb8888_premultiplied.c ****         if(!lv_color32_eq(bg, cache->bg_saved) || !lv_color32_eq(fg, cache->fg_saved)) {
 549:Drivers/lvgl/src/draw/sw/blend/lv_draw_sw_blend_to_argb8888_premultiplied.c ****             cache->fg_saved = fg;
 550:Drivers/lvgl/src/draw/sw/blend/lv_draw_sw_blend_to_argb8888_premultiplied.c ****             cache->bg_saved = bg;
 551:Drivers/lvgl/src/draw/sw/blend/lv_draw_sw_blend_to_argb8888_premultiplied.c **** 
 552:Drivers/lvgl/src/draw/sw/blend/lv_draw_sw_blend_to_argb8888_premultiplied.c ****             /* Blend using premultiplied alpha */
 553:Drivers/lvgl/src/draw/sw/blend/lv_draw_sw_blend_to_argb8888_premultiplied.c ****             uint32_t inv_fg_alpha = 255 - fg.alpha;
 554:Drivers/lvgl/src/draw/sw/blend/lv_draw_sw_blend_to_argb8888_premultiplied.c ****             cache->res_saved.red   = fg.red   + ((bg.red   * inv_fg_alpha) >> 8);
 555:Drivers/lvgl/src/draw/sw/blend/lv_draw_sw_blend_to_argb8888_premultiplied.c ****             cache->res_saved.green = fg.green + ((bg.green * inv_fg_alpha) >> 8);
 556:Drivers/lvgl/src/draw/sw/blend/lv_draw_sw_blend_to_argb8888_premultiplied.c ****             cache->res_saved.blue  = fg.blue  + ((bg.blue  * inv_fg_alpha) >> 8);
 557:Drivers/lvgl/src/draw/sw/blend/lv_draw_sw_blend_to_argb8888_premultiplied.c ****             cache->res_saved.alpha = cache->res_alpha_saved;
 558:Drivers/lvgl/src/draw/sw/blend/lv_draw_sw_blend_to_argb8888_premultiplied.c ****         }
 559:Drivers/lvgl/src/draw/sw/blend/lv_draw_sw_blend_to_argb8888_premultiplied.c **** 
 560:Drivers/lvgl/src/draw/sw/blend/lv_draw_sw_blend_to_argb8888_premultiplied.c ****         return cache->res_saved;
 561:Drivers/lvgl/src/draw/sw/blend/lv_draw_sw_blend_to_argb8888_premultiplied.c ****     }
 562:Drivers/lvgl/src/draw/sw/blend/lv_draw_sw_blend_to_argb8888_premultiplied.c **** }
 563:Drivers/lvgl/src/draw/sw/blend/lv_draw_sw_blend_to_argb8888_premultiplied.c **** 
 564:Drivers/lvgl/src/draw/sw/blend/lv_draw_sw_blend_to_argb8888_premultiplied.c **** static void lv_color_mix_with_alpha_cache_init(lv_color_mix_alpha_cache_t * cache)
 565:Drivers/lvgl/src/draw/sw/blend/lv_draw_sw_blend_to_argb8888_premultiplied.c **** {
  29              		.loc 1 565 1 view -0
  30              		.cfi_startproc
  31              		@ args = 0, pretend = 0, frame = 0
  32              		@ frame_needed = 0, uses_anonymous_args = 0
  33              		.loc 1 565 1 is_stmt 0 view .LVU1
  34 0000 10B5     		push	{r4, lr}
  35              	.LCFI0:
  36              		.cfi_def_cfa_offset 8
  37              		.cfi_offset 4, -8
  38              		.cfi_offset 14, -4
  39 0002 0446     		mov	r4, r0
 566:Drivers/lvgl/src/draw/sw/blend/lv_draw_sw_blend_to_argb8888_premultiplied.c ****     lv_memzero(&cache->fg_saved, sizeof(lv_color32_t));
  40              		.loc 1 566 5 is_stmt 1 view .LVU2
  41              	.LVL1:
  42              	.LBB66:
  43              	.LBI66:
  44              		.file 2 "Drivers/lvgl/src/draw/sw/blend/../../../misc/../font/../draw/../misc/../stdlib/lv_string.
   1:Drivers/lvgl/src/draw/sw/blend/../../../misc/../font/../draw/../misc/../stdlib/lv_string.h **** /**
   2:Drivers/lvgl/src/draw/sw/blend/../../../misc/../font/../draw/../misc/../stdlib/lv_string.h ****  * @file lv_string.h
   3:Drivers/lvgl/src/draw/sw/blend/../../../misc/../font/../draw/../misc/../stdlib/lv_string.h ****  *
   4:Drivers/lvgl/src/draw/sw/blend/../../../misc/../font/../draw/../misc/../stdlib/lv_string.h ****  */
   5:Drivers/lvgl/src/draw/sw/blend/../../../misc/../font/../draw/../misc/../stdlib/lv_string.h **** 
   6:Drivers/lvgl/src/draw/sw/blend/../../../misc/../font/../draw/../misc/../stdlib/lv_string.h **** #ifndef LV_STRING_H
   7:Drivers/lvgl/src/draw/sw/blend/../../../misc/../font/../draw/../misc/../stdlib/lv_string.h **** #define LV_STRING_H
   8:Drivers/lvgl/src/draw/sw/blend/../../../misc/../font/../draw/../misc/../stdlib/lv_string.h **** 
   9:Drivers/lvgl/src/draw/sw/blend/../../../misc/../font/../draw/../misc/../stdlib/lv_string.h **** #ifdef __cplusplus
  10:Drivers/lvgl/src/draw/sw/blend/../../../misc/../font/../draw/../misc/../stdlib/lv_string.h **** extern "C" {
  11:Drivers/lvgl/src/draw/sw/blend/../../../misc/../font/../draw/../misc/../stdlib/lv_string.h **** #endif
  12:Drivers/lvgl/src/draw/sw/blend/../../../misc/../font/../draw/../misc/../stdlib/lv_string.h **** 
  13:Drivers/lvgl/src/draw/sw/blend/../../../misc/../font/../draw/../misc/../stdlib/lv_string.h **** /*********************
  14:Drivers/lvgl/src/draw/sw/blend/../../../misc/../font/../draw/../misc/../stdlib/lv_string.h ****  *      INCLUDES
  15:Drivers/lvgl/src/draw/sw/blend/../../../misc/../font/../draw/../misc/../stdlib/lv_string.h ****  *********************/
  16:Drivers/lvgl/src/draw/sw/blend/../../../misc/../font/../draw/../misc/../stdlib/lv_string.h **** #include "../lv_conf_internal.h"
  17:Drivers/lvgl/src/draw/sw/blend/../../../misc/../font/../draw/../misc/../stdlib/lv_string.h **** #include "../misc/lv_types.h"
  18:Drivers/lvgl/src/draw/sw/blend/../../../misc/../font/../draw/../misc/../stdlib/lv_string.h **** 
ARM GAS  /tmp/ccGpYpzg.s 			page 12


  19:Drivers/lvgl/src/draw/sw/blend/../../../misc/../font/../draw/../misc/../stdlib/lv_string.h **** /*********************
  20:Drivers/lvgl/src/draw/sw/blend/../../../misc/../font/../draw/../misc/../stdlib/lv_string.h ****  *      DEFINES
  21:Drivers/lvgl/src/draw/sw/blend/../../../misc/../font/../draw/../misc/../stdlib/lv_string.h ****  *********************/
  22:Drivers/lvgl/src/draw/sw/blend/../../../misc/../font/../draw/../misc/../stdlib/lv_string.h **** 
  23:Drivers/lvgl/src/draw/sw/blend/../../../misc/../font/../draw/../misc/../stdlib/lv_string.h **** /**********************
  24:Drivers/lvgl/src/draw/sw/blend/../../../misc/../font/../draw/../misc/../stdlib/lv_string.h ****  *      TYPEDEFS
  25:Drivers/lvgl/src/draw/sw/blend/../../../misc/../font/../draw/../misc/../stdlib/lv_string.h ****  **********************/
  26:Drivers/lvgl/src/draw/sw/blend/../../../misc/../font/../draw/../misc/../stdlib/lv_string.h **** 
  27:Drivers/lvgl/src/draw/sw/blend/../../../misc/../font/../draw/../misc/../stdlib/lv_string.h **** /**********************
  28:Drivers/lvgl/src/draw/sw/blend/../../../misc/../font/../draw/../misc/../stdlib/lv_string.h ****  * GLOBAL PROTOTYPES
  29:Drivers/lvgl/src/draw/sw/blend/../../../misc/../font/../draw/../misc/../stdlib/lv_string.h ****  **********************/
  30:Drivers/lvgl/src/draw/sw/blend/../../../misc/../font/../draw/../misc/../stdlib/lv_string.h **** 
  31:Drivers/lvgl/src/draw/sw/blend/../../../misc/../font/../draw/../misc/../stdlib/lv_string.h **** /**
  32:Drivers/lvgl/src/draw/sw/blend/../../../misc/../font/../draw/../misc/../stdlib/lv_string.h ****  * @brief Copies a block of memory from a source address to a destination address.
  33:Drivers/lvgl/src/draw/sw/blend/../../../misc/../font/../draw/../misc/../stdlib/lv_string.h ****  * @param dst Pointer to the destination array where the content is to be copied.
  34:Drivers/lvgl/src/draw/sw/blend/../../../misc/../font/../draw/../misc/../stdlib/lv_string.h ****  * @param src Pointer to the source of data to be copied.
  35:Drivers/lvgl/src/draw/sw/blend/../../../misc/../font/../draw/../misc/../stdlib/lv_string.h ****  * @param len Number of bytes to copy.
  36:Drivers/lvgl/src/draw/sw/blend/../../../misc/../font/../draw/../misc/../stdlib/lv_string.h ****  * @return Pointer to the destination array.
  37:Drivers/lvgl/src/draw/sw/blend/../../../misc/../font/../draw/../misc/../stdlib/lv_string.h ****  * @note The function does not check for any overlapping of the source and destination memory block
  38:Drivers/lvgl/src/draw/sw/blend/../../../misc/../font/../draw/../misc/../stdlib/lv_string.h ****  */
  39:Drivers/lvgl/src/draw/sw/blend/../../../misc/../font/../draw/../misc/../stdlib/lv_string.h **** void * lv_memcpy(void * dst, const void * src, size_t len);
  40:Drivers/lvgl/src/draw/sw/blend/../../../misc/../font/../draw/../misc/../stdlib/lv_string.h **** 
  41:Drivers/lvgl/src/draw/sw/blend/../../../misc/../font/../draw/../misc/../stdlib/lv_string.h **** /**
  42:Drivers/lvgl/src/draw/sw/blend/../../../misc/../font/../draw/../misc/../stdlib/lv_string.h ****  * @brief Fills a block of memory with a specified value.
  43:Drivers/lvgl/src/draw/sw/blend/../../../misc/../font/../draw/../misc/../stdlib/lv_string.h ****  * @param dst Pointer to the destination array to fill with the specified value.
  44:Drivers/lvgl/src/draw/sw/blend/../../../misc/../font/../draw/../misc/../stdlib/lv_string.h ****  * @param v Value to be set. The value is passed as an int, but the function fills
  45:Drivers/lvgl/src/draw/sw/blend/../../../misc/../font/../draw/../misc/../stdlib/lv_string.h ****  *          the block of memory using the unsigned char conversion of this value.
  46:Drivers/lvgl/src/draw/sw/blend/../../../misc/../font/../draw/../misc/../stdlib/lv_string.h ****  * @param len Number of bytes to be set to the value.
  47:Drivers/lvgl/src/draw/sw/blend/../../../misc/../font/../draw/../misc/../stdlib/lv_string.h ****  */
  48:Drivers/lvgl/src/draw/sw/blend/../../../misc/../font/../draw/../misc/../stdlib/lv_string.h **** void lv_memset(void * dst, uint8_t v, size_t len);
  49:Drivers/lvgl/src/draw/sw/blend/../../../misc/../font/../draw/../misc/../stdlib/lv_string.h **** 
  50:Drivers/lvgl/src/draw/sw/blend/../../../misc/../font/../draw/../misc/../stdlib/lv_string.h **** /**
  51:Drivers/lvgl/src/draw/sw/blend/../../../misc/../font/../draw/../misc/../stdlib/lv_string.h ****  * @brief Move a block of memory from source to destination
  52:Drivers/lvgl/src/draw/sw/blend/../../../misc/../font/../draw/../misc/../stdlib/lv_string.h ****  * @param dst Pointer to the destination array where the content is to be copied.
  53:Drivers/lvgl/src/draw/sw/blend/../../../misc/../font/../draw/../misc/../stdlib/lv_string.h ****  * @param src Pointer to the source of data to be copied.
  54:Drivers/lvgl/src/draw/sw/blend/../../../misc/../font/../draw/../misc/../stdlib/lv_string.h ****  * @param len Number of bytes to copy
  55:Drivers/lvgl/src/draw/sw/blend/../../../misc/../font/../draw/../misc/../stdlib/lv_string.h ****  * @return Pointer to the destination array.
  56:Drivers/lvgl/src/draw/sw/blend/../../../misc/../font/../draw/../misc/../stdlib/lv_string.h ****  */
  57:Drivers/lvgl/src/draw/sw/blend/../../../misc/../font/../draw/../misc/../stdlib/lv_string.h **** void * lv_memmove(void * dst, const void * src, size_t len);
  58:Drivers/lvgl/src/draw/sw/blend/../../../misc/../font/../draw/../misc/../stdlib/lv_string.h **** 
  59:Drivers/lvgl/src/draw/sw/blend/../../../misc/../font/../draw/../misc/../stdlib/lv_string.h **** /**
  60:Drivers/lvgl/src/draw/sw/blend/../../../misc/../font/../draw/../misc/../stdlib/lv_string.h ****  * @brief This function will compare two memory blocks
  61:Drivers/lvgl/src/draw/sw/blend/../../../misc/../font/../draw/../misc/../stdlib/lv_string.h ****  * @param p1 Pointer to the first memory block
  62:Drivers/lvgl/src/draw/sw/blend/../../../misc/../font/../draw/../misc/../stdlib/lv_string.h ****  * @param p2 Pointer to the second memory block
  63:Drivers/lvgl/src/draw/sw/blend/../../../misc/../font/../draw/../misc/../stdlib/lv_string.h ****  * @param len Number of bytes to compare
  64:Drivers/lvgl/src/draw/sw/blend/../../../misc/../font/../draw/../misc/../stdlib/lv_string.h ****  * @return The difference between the value of the first unmatching byte.
  65:Drivers/lvgl/src/draw/sw/blend/../../../misc/../font/../draw/../misc/../stdlib/lv_string.h ****  */
  66:Drivers/lvgl/src/draw/sw/blend/../../../misc/../font/../draw/../misc/../stdlib/lv_string.h **** int lv_memcmp(const void * p1, const void * p2, size_t len);
  67:Drivers/lvgl/src/draw/sw/blend/../../../misc/../font/../draw/../misc/../stdlib/lv_string.h **** 
  68:Drivers/lvgl/src/draw/sw/blend/../../../misc/../font/../draw/../misc/../stdlib/lv_string.h **** /**
  69:Drivers/lvgl/src/draw/sw/blend/../../../misc/../font/../draw/../misc/../stdlib/lv_string.h ****  * Same as `memset(dst, 0x00, len)`.
  70:Drivers/lvgl/src/draw/sw/blend/../../../misc/../font/../draw/../misc/../stdlib/lv_string.h ****  * @param dst pointer to the destination buffer
  71:Drivers/lvgl/src/draw/sw/blend/../../../misc/../font/../draw/../misc/../stdlib/lv_string.h ****  * @param len number of byte to set
  72:Drivers/lvgl/src/draw/sw/blend/../../../misc/../font/../draw/../misc/../stdlib/lv_string.h ****  */
  73:Drivers/lvgl/src/draw/sw/blend/../../../misc/../font/../draw/../misc/../stdlib/lv_string.h **** static inline void lv_memzero(void * dst, size_t len)
  45              		.loc 2 73 20 view .LVU3
  46              	.LBB67:
ARM GAS  /tmp/ccGpYpzg.s 			page 13


  74:Drivers/lvgl/src/draw/sw/blend/../../../misc/../font/../draw/../misc/../stdlib/lv_string.h **** {
  75:Drivers/lvgl/src/draw/sw/blend/../../../misc/../font/../draw/../misc/../stdlib/lv_string.h ****     lv_memset(dst, 0x00, len);
  47              		.loc 2 75 5 view .LVU4
  48 0004 0422     		movs	r2, #4
  49 0006 0021     		movs	r1, #0
  50 0008 FFF7FEFF 		bl	lv_memset
  51              	.LVL2:
  52              		.loc 2 75 5 is_stmt 0 view .LVU5
  53              	.LBE67:
  54              	.LBE66:
 567:Drivers/lvgl/src/draw/sw/blend/lv_draw_sw_blend_to_argb8888_premultiplied.c ****     lv_memzero(&cache->bg_saved, sizeof(lv_color32_t));
  55              		.loc 1 567 5 is_stmt 1 view .LVU6
  56              	.LBB68:
  57              	.LBI68:
  73:Drivers/lvgl/src/draw/sw/blend/../../../misc/../font/../draw/../misc/../stdlib/lv_string.h **** {
  58              		.loc 2 73 20 view .LVU7
  59              	.LBB69:
  60              		.loc 2 75 5 view .LVU8
  61 000c 0422     		movs	r2, #4
  62 000e 0021     		movs	r1, #0
  63 0010 A018     		adds	r0, r4, r2
  64              	.LVL3:
  65              		.loc 2 75 5 is_stmt 0 view .LVU9
  66 0012 FFF7FEFF 		bl	lv_memset
  67              	.LVL4:
  68              		.loc 2 75 5 view .LVU10
  69              	.LBE69:
  70              	.LBE68:
 568:Drivers/lvgl/src/draw/sw/blend/lv_draw_sw_blend_to_argb8888_premultiplied.c ****     lv_memzero(&cache->res_saved, sizeof(lv_color32_t));
  71              		.loc 1 568 5 is_stmt 1 view .LVU11
  72              	.LBB70:
  73              	.LBI70:
  73:Drivers/lvgl/src/draw/sw/blend/../../../misc/../font/../draw/../misc/../stdlib/lv_string.h **** {
  74              		.loc 2 73 20 view .LVU12
  75              	.LBB71:
  76              		.loc 2 75 5 view .LVU13
  77 0016 0422     		movs	r2, #4
  78 0018 0021     		movs	r1, #0
  79 001a 04F10800 		add	r0, r4, #8
  80              	.LVL5:
  81              		.loc 2 75 5 is_stmt 0 view .LVU14
  82 001e FFF7FEFF 		bl	lv_memset
  83              	.LVL6:
  84              		.loc 2 75 5 view .LVU15
  85              	.LBE71:
  86              	.LBE70:
 569:Drivers/lvgl/src/draw/sw/blend/lv_draw_sw_blend_to_argb8888_premultiplied.c ****     cache->res_alpha_saved = 255;
  87              		.loc 1 569 5 is_stmt 1 view .LVU16
  88              		.loc 1 569 28 is_stmt 0 view .LVU17
  89 0022 FF23     		movs	r3, #255
  90 0024 2373     		strb	r3, [r4, #12]
 570:Drivers/lvgl/src/draw/sw/blend/lv_draw_sw_blend_to_argb8888_premultiplied.c ****     cache->ratio_saved = 255;
  91              		.loc 1 570 5 is_stmt 1 view .LVU18
  92              		.loc 1 570 24 is_stmt 0 view .LVU19
  93 0026 6373     		strb	r3, [r4, #13]
 571:Drivers/lvgl/src/draw/sw/blend/lv_draw_sw_blend_to_argb8888_premultiplied.c **** }
  94              		.loc 1 571 1 view .LVU20
ARM GAS  /tmp/ccGpYpzg.s 			page 14


  95 0028 10BD     		pop	{r4, pc}
  96              		.loc 1 571 1 view .LVU21
  97              		.cfi_endproc
  98              	.LFE191:
 100              		.section	.text.lv_color_32_32_mix_premul,"ax",%progbits
 101              		.align	1
 102              		.syntax unified
 103              		.thumb
 104              		.thumb_func
 106              	lv_color_32_32_mix_premul:
 107              	.LVL7:
 108              	.LFB190:
 523:Drivers/lvgl/src/draw/sw/blend/lv_draw_sw_blend_to_argb8888_premultiplied.c ****     /*Pick the foreground if it's fully opaque or the background is fully transparent*/
 109              		.loc 1 523 1 is_stmt 1 view -0
 110              		.cfi_startproc
 111              		@ args = 0, pretend = 0, frame = 16
 112              		@ frame_needed = 0, uses_anonymous_args = 0
 523:Drivers/lvgl/src/draw/sw/blend/lv_draw_sw_blend_to_argb8888_premultiplied.c ****     /*Pick the foreground if it's fully opaque or the background is fully transparent*/
 113              		.loc 1 523 1 is_stmt 0 view .LVU23
 114 0000 30B5     		push	{r4, r5, lr}
 115              	.LCFI1:
 116              		.cfi_def_cfa_offset 12
 117              		.cfi_offset 4, -12
 118              		.cfi_offset 5, -8
 119              		.cfi_offset 14, -4
 120 0002 85B0     		sub	sp, sp, #20
 121              	.LCFI2:
 122              		.cfi_def_cfa_offset 32
 123 0004 0190     		str	r0, [sp, #4]
 124 0006 0091     		str	r1, [sp]
 525:Drivers/lvgl/src/draw/sw/blend/lv_draw_sw_blend_to_argb8888_premultiplied.c ****         return fg;
 125              		.loc 1 525 5 is_stmt 1 view .LVU24
 525:Drivers/lvgl/src/draw/sw/blend/lv_draw_sw_blend_to_argb8888_premultiplied.c ****         return fg;
 126              		.loc 1 525 10 is_stmt 0 view .LVU25
 127 0008 9DF80750 		ldrb	r5, [sp, #7]	@ zero_extendqisi2
 525:Drivers/lvgl/src/draw/sw/blend/lv_draw_sw_blend_to_argb8888_premultiplied.c ****         return fg;
 128              		.loc 1 525 7 view .LVU26
 129 000c FC2D     		cmp	r5, #252
 130 000e 18D8     		bhi	.L4
 131 0010 1446     		mov	r4, r2
 525:Drivers/lvgl/src/draw/sw/blend/lv_draw_sw_blend_to_argb8888_premultiplied.c ****         return fg;
 132              		.loc 1 525 36 discriminator 1 view .LVU27
 133 0012 9DF80320 		ldrb	r2, [sp, #3]	@ zero_extendqisi2
 134              	.LVL8:
 525:Drivers/lvgl/src/draw/sw/blend/lv_draw_sw_blend_to_argb8888_premultiplied.c ****         return fg;
 135              		.loc 1 525 31 discriminator 1 view .LVU28
 136 0016 022A     		cmp	r2, #2
 137 0018 13D9     		bls	.L4
 529:Drivers/lvgl/src/draw/sw/blend/lv_draw_sw_blend_to_argb8888_premultiplied.c ****         return bg;
 138              		.loc 1 529 10 is_stmt 1 view .LVU29
 529:Drivers/lvgl/src/draw/sw/blend/lv_draw_sw_blend_to_argb8888_premultiplied.c ****         return bg;
 139              		.loc 1 529 12 is_stmt 0 view .LVU30
 140 001a 022D     		cmp	r5, #2
 141 001c 26D9     		bls	.L16
 533:Drivers/lvgl/src/draw/sw/blend/lv_draw_sw_blend_to_argb8888_premultiplied.c ****         return lv_color_mix32_premultiplied(fg, bg);
 142              		.loc 1 533 10 is_stmt 1 view .LVU31
 533:Drivers/lvgl/src/draw/sw/blend/lv_draw_sw_blend_to_argb8888_premultiplied.c ****         return lv_color_mix32_premultiplied(fg, bg);
ARM GAS  /tmp/ccGpYpzg.s 			page 15


 143              		.loc 1 533 12 is_stmt 0 view .LVU32
 144 001e FF2A     		cmp	r2, #255
 145 0020 27D0     		beq	.L17
 538:Drivers/lvgl/src/draw/sw/blend/lv_draw_sw_blend_to_argb8888_premultiplied.c ****             /* Compute final alpha value */
 146              		.loc 1 538 9 is_stmt 1 view .LVU33
 538:Drivers/lvgl/src/draw/sw/blend/lv_draw_sw_blend_to_argb8888_premultiplied.c ****             /* Compute final alpha value */
 147              		.loc 1 538 39 is_stmt 0 view .LVU34
 148 0022 E379     		ldrb	r3, [r4, #7]	@ zero_extendqisi2
 538:Drivers/lvgl/src/draw/sw/blend/lv_draw_sw_blend_to_argb8888_premultiplied.c ****             /* Compute final alpha value */
 149              		.loc 1 538 11 view .LVU35
 150 0024 9A42     		cmp	r2, r3
 151 0026 2AD0     		beq	.L18
 152              	.L9:
 540:Drivers/lvgl/src/draw/sw/blend/lv_draw_sw_blend_to_argb8888_premultiplied.c ****             LV_ASSERT(cache->res_alpha_saved != 0);
 153              		.loc 1 540 13 is_stmt 1 view .LVU36
 540:Drivers/lvgl/src/draw/sw/blend/lv_draw_sw_blend_to_argb8888_premultiplied.c ****             LV_ASSERT(cache->res_alpha_saved != 0);
 154              		.loc 1 540 44 is_stmt 0 view .LVU37
 155 0028 C5F1FF03 		rsb	r3, r5, #255
 156 002c C2F1FF02 		rsb	r2, r2, #255
 157 0030 02FB03F3 		mul	r3, r2, r3
 158 0034 C3F30723 		ubfx	r3, r3, #8, #8
 540:Drivers/lvgl/src/draw/sw/blend/lv_draw_sw_blend_to_argb8888_premultiplied.c ****             LV_ASSERT(cache->res_alpha_saved != 0);
 159              		.loc 1 540 42 view .LVU38
 160 0038 DB43     		mvns	r3, r3
 161 003a DBB2     		uxtb	r3, r3
 540:Drivers/lvgl/src/draw/sw/blend/lv_draw_sw_blend_to_argb8888_premultiplied.c ****             LV_ASSERT(cache->res_alpha_saved != 0);
 162              		.loc 1 540 36 view .LVU39
 163 003c 2373     		strb	r3, [r4, #12]
 541:Drivers/lvgl/src/draw/sw/blend/lv_draw_sw_blend_to_argb8888_premultiplied.c **** 
 164              		.loc 1 541 13 is_stmt 1 view .LVU40
 541:Drivers/lvgl/src/draw/sw/blend/lv_draw_sw_blend_to_argb8888_premultiplied.c **** 
 165              		.loc 1 541 13 view .LVU41
 166 003e 13BB     		cbnz	r3, .L11
 167              	.L12:
 541:Drivers/lvgl/src/draw/sw/blend/lv_draw_sw_blend_to_argb8888_premultiplied.c **** 
 168              		.loc 1 541 13 discriminator 1 view .LVU42
 541:Drivers/lvgl/src/draw/sw/blend/lv_draw_sw_blend_to_argb8888_premultiplied.c **** 
 169              		.loc 1 541 13 discriminator 1 view .LVU43
 541:Drivers/lvgl/src/draw/sw/blend/lv_draw_sw_blend_to_argb8888_premultiplied.c **** 
 170              		.loc 1 541 13 discriminator 1 view .LVU44
 541:Drivers/lvgl/src/draw/sw/blend/lv_draw_sw_blend_to_argb8888_premultiplied.c **** 
 171              		.loc 1 541 13 discriminator 1 view .LVU45
 541:Drivers/lvgl/src/draw/sw/blend/lv_draw_sw_blend_to_argb8888_premultiplied.c **** 
 172              		.loc 1 541 13 discriminator 1 view .LVU46
 173 0040 FEE7     		b	.L12
 174              	.LVL9:
 175              	.L4:
 526:Drivers/lvgl/src/draw/sw/blend/lv_draw_sw_blend_to_argb8888_premultiplied.c ****     }
 176              		.loc 1 526 9 view .LVU47
 526:Drivers/lvgl/src/draw/sw/blend/lv_draw_sw_blend_to_argb8888_premultiplied.c ****     }
 177              		.loc 1 526 16 is_stmt 0 view .LVU48
 178 0042 019B     		ldr	r3, [sp, #4]
 179 0044 0393     		str	r3, [sp, #12]
 180              	.L6:
 562:Drivers/lvgl/src/draw/sw/blend/lv_draw_sw_blend_to_argb8888_premultiplied.c **** 
 181              		.loc 1 562 1 view .LVU49
 182 0046 0020     		movs	r0, #0
ARM GAS  /tmp/ccGpYpzg.s 			page 16


 183 0048 9DF80C30 		ldrb	r3, [sp, #12]	@ zero_extendqisi2
 184 004c 63F30700 		bfi	r0, r3, #0, #8
 185 0050 9DF80D30 		ldrb	r3, [sp, #13]	@ zero_extendqisi2
 186 0054 63F30F20 		bfi	r0, r3, #8, #8
 187 0058 9DF80E30 		ldrb	r3, [sp, #14]	@ zero_extendqisi2
 188 005c 63F31740 		bfi	r0, r3, #16, #8
 189 0060 9DF80F30 		ldrb	r3, [sp, #15]	@ zero_extendqisi2
 190 0064 63F31F60 		bfi	r0, r3, #24, #8
 191 0068 05B0     		add	sp, sp, #20
 192              	.LCFI3:
 193              		.cfi_remember_state
 194              		.cfi_def_cfa_offset 12
 195              		@ sp needed
 196 006a 30BD     		pop	{r4, r5, pc}
 197              	.LVL10:
 198              	.L16:
 199              	.LCFI4:
 200              		.cfi_restore_state
 530:Drivers/lvgl/src/draw/sw/blend/lv_draw_sw_blend_to_argb8888_premultiplied.c ****     }
 201              		.loc 1 530 9 is_stmt 1 view .LVU50
 530:Drivers/lvgl/src/draw/sw/blend/lv_draw_sw_blend_to_argb8888_premultiplied.c ****     }
 202              		.loc 1 530 16 is_stmt 0 view .LVU51
 203 006c 009B     		ldr	r3, [sp]
 204 006e 0393     		str	r3, [sp, #12]
 205 0070 E9E7     		b	.L6
 206              	.L17:
 534:Drivers/lvgl/src/draw/sw/blend/lv_draw_sw_blend_to_argb8888_premultiplied.c ****     }
 207              		.loc 1 534 9 is_stmt 1 view .LVU52
 534:Drivers/lvgl/src/draw/sw/blend/lv_draw_sw_blend_to_argb8888_premultiplied.c ****     }
 208              		.loc 1 534 16 is_stmt 0 view .LVU53
 209 0072 0099     		ldr	r1, [sp]
 210 0074 0198     		ldr	r0, [sp, #4]
 211 0076 FFF7FEFF 		bl	lv_color_mix32_premultiplied
 212              	.LVL11:
 213 007a 0390     		str	r0, [sp, #12]
 214 007c E3E7     		b	.L6
 215              	.L18:
 538:Drivers/lvgl/src/draw/sw/blend/lv_draw_sw_blend_to_argb8888_premultiplied.c ****             /* Compute final alpha value */
 216              		.loc 1 538 76 discriminator 1 view .LVU54
 217 007e E378     		ldrb	r3, [r4, #3]	@ zero_extendqisi2
 538:Drivers/lvgl/src/draw/sw/blend/lv_draw_sw_blend_to_argb8888_premultiplied.c ****             /* Compute final alpha value */
 218              		.loc 1 538 46 discriminator 1 view .LVU55
 219 0080 9D42     		cmp	r5, r3
 220 0082 D1D1     		bne	.L9
 221 0084 04E0     		b	.L10
 222              	.L11:
 541:Drivers/lvgl/src/draw/sw/blend/lv_draw_sw_blend_to_argb8888_premultiplied.c **** 
 223              		.loc 1 541 13 is_stmt 1 discriminator 2 view .LVU56
 544:Drivers/lvgl/src/draw/sw/blend/lv_draw_sw_blend_to_argb8888_premultiplied.c ****         }
 224              		.loc 1 544 13 view .LVU57
 544:Drivers/lvgl/src/draw/sw/blend/lv_draw_sw_blend_to_argb8888_premultiplied.c ****         }
 225              		.loc 1 544 34 is_stmt 0 view .LVU58
 226 0086 C5EB0522 		rsb	r2, r5, r5, lsl #8
 544:Drivers/lvgl/src/draw/sw/blend/lv_draw_sw_blend_to_argb8888_premultiplied.c ****         }
 227              		.loc 1 544 71 view .LVU59
 228 008a B2FBF3F3 		udiv	r3, r2, r3
 544:Drivers/lvgl/src/draw/sw/blend/lv_draw_sw_blend_to_argb8888_premultiplied.c ****         }
ARM GAS  /tmp/ccGpYpzg.s 			page 17


 229              		.loc 1 544 32 view .LVU60
 230 008e 6373     		strb	r3, [r4, #13]
 231              	.L10:
 548:Drivers/lvgl/src/draw/sw/blend/lv_draw_sw_blend_to_argb8888_premultiplied.c ****             cache->fg_saved = fg;
 232              		.loc 1 548 9 is_stmt 1 view .LVU61
 548:Drivers/lvgl/src/draw/sw/blend/lv_draw_sw_blend_to_argb8888_premultiplied.c ****             cache->fg_saved = fg;
 233              		.loc 1 548 13 is_stmt 0 view .LVU62
 234 0090 6168     		ldr	r1, [r4, #4]	@ unaligned
 235 0092 0098     		ldr	r0, [sp]
 236 0094 FFF7FEFF 		bl	lv_color32_eq
 237              	.LVL12:
 548:Drivers/lvgl/src/draw/sw/blend/lv_draw_sw_blend_to_argb8888_premultiplied.c ****             cache->fg_saved = fg;
 238              		.loc 1 548 11 discriminator 1 view .LVU63
 239 0098 28BB     		cbnz	r0, .L19
 240              	.L13:
 241              	.LBB72:
 549:Drivers/lvgl/src/draw/sw/blend/lv_draw_sw_blend_to_argb8888_premultiplied.c ****             cache->bg_saved = bg;
 242              		.loc 1 549 13 is_stmt 1 view .LVU64
 549:Drivers/lvgl/src/draw/sw/blend/lv_draw_sw_blend_to_argb8888_premultiplied.c ****             cache->bg_saved = bg;
 243              		.loc 1 549 29 is_stmt 0 view .LVU65
 244 009a 0198     		ldr	r0, [sp, #4]
 245 009c 2060     		str	r0, [r4]	@ unaligned
 550:Drivers/lvgl/src/draw/sw/blend/lv_draw_sw_blend_to_argb8888_premultiplied.c **** 
 246              		.loc 1 550 13 is_stmt 1 view .LVU66
 550:Drivers/lvgl/src/draw/sw/blend/lv_draw_sw_blend_to_argb8888_premultiplied.c **** 
 247              		.loc 1 550 29 is_stmt 0 view .LVU67
 248 009e 0098     		ldr	r0, [sp]
 249 00a0 6060     		str	r0, [r4, #4]	@ unaligned
 553:Drivers/lvgl/src/draw/sw/blend/lv_draw_sw_blend_to_argb8888_premultiplied.c ****             cache->res_saved.red   = fg.red   + ((bg.red   * inv_fg_alpha) >> 8);
 250              		.loc 1 553 13 is_stmt 1 view .LVU68
 553:Drivers/lvgl/src/draw/sw/blend/lv_draw_sw_blend_to_argb8888_premultiplied.c ****             cache->res_saved.red   = fg.red   + ((bg.red   * inv_fg_alpha) >> 8);
 251              		.loc 1 553 41 is_stmt 0 view .LVU69
 252 00a2 C5F1FF05 		rsb	r5, r5, #255
 253              	.LVL13:
 554:Drivers/lvgl/src/draw/sw/blend/lv_draw_sw_blend_to_argb8888_premultiplied.c ****             cache->res_saved.green = fg.green + ((bg.green * inv_fg_alpha) >> 8);
 254              		.loc 1 554 13 is_stmt 1 view .LVU70
 554:Drivers/lvgl/src/draw/sw/blend/lv_draw_sw_blend_to_argb8888_premultiplied.c ****             cache->res_saved.green = fg.green + ((bg.green * inv_fg_alpha) >> 8);
 255              		.loc 1 554 40 is_stmt 0 view .LVU71
 256 00a6 9DF80630 		ldrb	r3, [sp, #6]	@ zero_extendqisi2
 554:Drivers/lvgl/src/draw/sw/blend/lv_draw_sw_blend_to_argb8888_premultiplied.c ****             cache->res_saved.green = fg.green + ((bg.green * inv_fg_alpha) >> 8);
 257              		.loc 1 554 53 view .LVU72
 258 00aa 9DF80220 		ldrb	r2, [sp, #2]	@ zero_extendqisi2
 554:Drivers/lvgl/src/draw/sw/blend/lv_draw_sw_blend_to_argb8888_premultiplied.c ****             cache->res_saved.green = fg.green + ((bg.green * inv_fg_alpha) >> 8);
 259              		.loc 1 554 60 view .LVU73
 260 00ae 05FB02F2 		mul	r2, r5, r2
 554:Drivers/lvgl/src/draw/sw/blend/lv_draw_sw_blend_to_argb8888_premultiplied.c ****             cache->res_saved.green = fg.green + ((bg.green * inv_fg_alpha) >> 8);
 261              		.loc 1 554 47 view .LVU74
 262 00b2 03EB1223 		add	r3, r3, r2, lsr #8
 554:Drivers/lvgl/src/draw/sw/blend/lv_draw_sw_blend_to_argb8888_premultiplied.c ****             cache->res_saved.green = fg.green + ((bg.green * inv_fg_alpha) >> 8);
 263              		.loc 1 554 36 view .LVU75
 264 00b6 A372     		strb	r3, [r4, #10]
 555:Drivers/lvgl/src/draw/sw/blend/lv_draw_sw_blend_to_argb8888_premultiplied.c ****             cache->res_saved.blue  = fg.blue  + ((bg.blue  * inv_fg_alpha) >> 8);
 265              		.loc 1 555 13 is_stmt 1 view .LVU76
 555:Drivers/lvgl/src/draw/sw/blend/lv_draw_sw_blend_to_argb8888_premultiplied.c ****             cache->res_saved.blue  = fg.blue  + ((bg.blue  * inv_fg_alpha) >> 8);
 266              		.loc 1 555 40 is_stmt 0 view .LVU77
 267 00b8 9DF80530 		ldrb	r3, [sp, #5]	@ zero_extendqisi2
 555:Drivers/lvgl/src/draw/sw/blend/lv_draw_sw_blend_to_argb8888_premultiplied.c ****             cache->res_saved.blue  = fg.blue  + ((bg.blue  * inv_fg_alpha) >> 8);
ARM GAS  /tmp/ccGpYpzg.s 			page 18


 268              		.loc 1 555 53 view .LVU78
 269 00bc 9DF80120 		ldrb	r2, [sp, #1]	@ zero_extendqisi2
 555:Drivers/lvgl/src/draw/sw/blend/lv_draw_sw_blend_to_argb8888_premultiplied.c ****             cache->res_saved.blue  = fg.blue  + ((bg.blue  * inv_fg_alpha) >> 8);
 270              		.loc 1 555 60 view .LVU79
 271 00c0 05FB02F2 		mul	r2, r5, r2
 555:Drivers/lvgl/src/draw/sw/blend/lv_draw_sw_blend_to_argb8888_premultiplied.c ****             cache->res_saved.blue  = fg.blue  + ((bg.blue  * inv_fg_alpha) >> 8);
 272              		.loc 1 555 47 view .LVU80
 273 00c4 03EB1223 		add	r3, r3, r2, lsr #8
 555:Drivers/lvgl/src/draw/sw/blend/lv_draw_sw_blend_to_argb8888_premultiplied.c ****             cache->res_saved.blue  = fg.blue  + ((bg.blue  * inv_fg_alpha) >> 8);
 274              		.loc 1 555 36 view .LVU81
 275 00c8 6372     		strb	r3, [r4, #9]
 556:Drivers/lvgl/src/draw/sw/blend/lv_draw_sw_blend_to_argb8888_premultiplied.c ****             cache->res_saved.alpha = cache->res_alpha_saved;
 276              		.loc 1 556 13 is_stmt 1 view .LVU82
 556:Drivers/lvgl/src/draw/sw/blend/lv_draw_sw_blend_to_argb8888_premultiplied.c ****             cache->res_saved.alpha = cache->res_alpha_saved;
 277              		.loc 1 556 40 is_stmt 0 view .LVU83
 278 00ca 9DF80430 		ldrb	r3, [sp, #4]	@ zero_extendqisi2
 556:Drivers/lvgl/src/draw/sw/blend/lv_draw_sw_blend_to_argb8888_premultiplied.c ****             cache->res_saved.alpha = cache->res_alpha_saved;
 279              		.loc 1 556 53 view .LVU84
 280 00ce 9DF80020 		ldrb	r2, [sp]	@ zero_extendqisi2
 556:Drivers/lvgl/src/draw/sw/blend/lv_draw_sw_blend_to_argb8888_premultiplied.c ****             cache->res_saved.alpha = cache->res_alpha_saved;
 281              		.loc 1 556 60 view .LVU85
 282 00d2 05FB02F2 		mul	r2, r5, r2
 556:Drivers/lvgl/src/draw/sw/blend/lv_draw_sw_blend_to_argb8888_premultiplied.c ****             cache->res_saved.alpha = cache->res_alpha_saved;
 283              		.loc 1 556 47 view .LVU86
 284 00d6 03EB1223 		add	r3, r3, r2, lsr #8
 556:Drivers/lvgl/src/draw/sw/blend/lv_draw_sw_blend_to_argb8888_premultiplied.c ****             cache->res_saved.alpha = cache->res_alpha_saved;
 285              		.loc 1 556 36 view .LVU87
 286 00da 2372     		strb	r3, [r4, #8]
 557:Drivers/lvgl/src/draw/sw/blend/lv_draw_sw_blend_to_argb8888_premultiplied.c ****         }
 287              		.loc 1 557 13 is_stmt 1 view .LVU88
 557:Drivers/lvgl/src/draw/sw/blend/lv_draw_sw_blend_to_argb8888_premultiplied.c ****         }
 288              		.loc 1 557 43 is_stmt 0 view .LVU89
 289 00dc 237B     		ldrb	r3, [r4, #12]	@ zero_extendqisi2
 557:Drivers/lvgl/src/draw/sw/blend/lv_draw_sw_blend_to_argb8888_premultiplied.c ****         }
 290              		.loc 1 557 36 view .LVU90
 291 00de E372     		strb	r3, [r4, #11]
 292              	.LVL14:
 293              	.L14:
 557:Drivers/lvgl/src/draw/sw/blend/lv_draw_sw_blend_to_argb8888_premultiplied.c ****         }
 294              		.loc 1 557 36 view .LVU91
 295              	.LBE72:
 560:Drivers/lvgl/src/draw/sw/blend/lv_draw_sw_blend_to_argb8888_premultiplied.c ****     }
 296              		.loc 1 560 9 is_stmt 1 view .LVU92
 560:Drivers/lvgl/src/draw/sw/blend/lv_draw_sw_blend_to_argb8888_premultiplied.c ****     }
 297              		.loc 1 560 21 is_stmt 0 view .LVU93
 298 00e0 A068     		ldr	r0, [r4, #8]	@ unaligned
 299 00e2 0390     		str	r0, [sp, #12]
 300 00e4 AFE7     		b	.L6
 301              	.L19:
 548:Drivers/lvgl/src/draw/sw/blend/lv_draw_sw_blend_to_argb8888_premultiplied.c ****             cache->fg_saved = fg;
 302              		.loc 1 548 52 discriminator 1 view .LVU94
 303 00e6 2168     		ldr	r1, [r4]	@ unaligned
 304 00e8 0198     		ldr	r0, [sp, #4]
 305 00ea FFF7FEFF 		bl	lv_color32_eq
 306              	.LVL15:
 548:Drivers/lvgl/src/draw/sw/blend/lv_draw_sw_blend_to_argb8888_premultiplied.c ****             cache->fg_saved = fg;
 307              		.loc 1 548 48 discriminator 1 view .LVU95
ARM GAS  /tmp/ccGpYpzg.s 			page 19


 308 00ee 0028     		cmp	r0, #0
 309 00f0 F6D1     		bne	.L14
 310 00f2 D2E7     		b	.L13
 311              		.cfi_endproc
 312              	.LFE190:
 314              		.section	.text.blend_non_normal_pixel_premultiplied,"ax",%progbits
 315              		.align	1
 316              		.syntax unified
 317              		.thumb
 318              		.thumb_func
 320              	blend_non_normal_pixel_premultiplied:
 321              	.LVL16:
 322              	.LFB193:
 572:Drivers/lvgl/src/draw/sw/blend/lv_draw_sw_blend_to_argb8888_premultiplied.c **** 
 573:Drivers/lvgl/src/draw/sw/blend/lv_draw_sw_blend_to_argb8888_premultiplied.c **** 
 574:Drivers/lvgl/src/draw/sw/blend/lv_draw_sw_blend_to_argb8888_premultiplied.c **** static inline void * LV_ATTRIBUTE_FAST_MEM drawbuf_next_row(const void * buf, uint32_t stride)
 575:Drivers/lvgl/src/draw/sw/blend/lv_draw_sw_blend_to_argb8888_premultiplied.c **** {
 576:Drivers/lvgl/src/draw/sw/blend/lv_draw_sw_blend_to_argb8888_premultiplied.c ****     return (void *)((uint8_t *)buf + stride);
 577:Drivers/lvgl/src/draw/sw/blend/lv_draw_sw_blend_to_argb8888_premultiplied.c **** }
 578:Drivers/lvgl/src/draw/sw/blend/lv_draw_sw_blend_to_argb8888_premultiplied.c **** 
 579:Drivers/lvgl/src/draw/sw/blend/lv_draw_sw_blend_to_argb8888_premultiplied.c **** 
 580:Drivers/lvgl/src/draw/sw/blend/lv_draw_sw_blend_to_argb8888_premultiplied.c **** static inline void LV_ATTRIBUTE_FAST_MEM blend_non_normal_pixel_premultiplied(
 581:Drivers/lvgl/src/draw/sw/blend/lv_draw_sw_blend_to_argb8888_premultiplied.c ****     lv_color32_t * dest, lv_color32_t src, lv_blend_mode_t mode, lv_color_mix_alpha_cache_t * cache
 582:Drivers/lvgl/src/draw/sw/blend/lv_draw_sw_blend_to_argb8888_premultiplied.c **** {
 323              		.loc 1 582 1 is_stmt 1 view -0
 324              		.cfi_startproc
 325              		@ args = 0, pretend = 0, frame = 16
 326              		@ frame_needed = 0, uses_anonymous_args = 0
 327              		.loc 1 582 1 is_stmt 0 view .LVU97
 328 0000 10B5     		push	{r4, lr}
 329              	.LCFI5:
 330              		.cfi_def_cfa_offset 8
 331              		.cfi_offset 4, -8
 332              		.cfi_offset 14, -4
 333 0002 84B0     		sub	sp, sp, #16
 334              	.LCFI6:
 335              		.cfi_def_cfa_offset 24
 336 0004 0446     		mov	r4, r0
 337 0006 0191     		str	r1, [sp, #4]
 338 0008 1146     		mov	r1, r2
 339 000a 1A46     		mov	r2, r3
 340              	.LVL17:
 583:Drivers/lvgl/src/draw/sw/blend/lv_draw_sw_blend_to_argb8888_premultiplied.c ****     lv_color32_t res;
 341              		.loc 1 583 5 is_stmt 1 view .LVU98
 584:Drivers/lvgl/src/draw/sw/blend/lv_draw_sw_blend_to_argb8888_premultiplied.c ****     uint8_t src_alpha = src.alpha;  /* Premultiplied alpha of source */
 342              		.loc 1 584 5 view .LVU99
 343              		.loc 1 584 13 is_stmt 0 view .LVU100
 344 000c 9DF80700 		ldrb	r0, [sp, #7]	@ zero_extendqisi2
 345              	.LVL18:
 585:Drivers/lvgl/src/draw/sw/blend/lv_draw_sw_blend_to_argb8888_premultiplied.c ****     uint8_t dest_alpha = dest->alpha;
 346              		.loc 1 585 5 is_stmt 1 view .LVU101
 347              		.loc 1 585 13 is_stmt 0 view .LVU102
 348 0010 E378     		ldrb	r3, [r4, #3]	@ zero_extendqisi2
 349              	.LVL19:
 586:Drivers/lvgl/src/draw/sw/blend/lv_draw_sw_blend_to_argb8888_premultiplied.c **** 
 587:Drivers/lvgl/src/draw/sw/blend/lv_draw_sw_blend_to_argb8888_premultiplied.c ****     switch(mode) {
 350              		.loc 1 587 5 is_stmt 1 view .LVU103
ARM GAS  /tmp/ccGpYpzg.s 			page 20


 351 0012 0139     		subs	r1, r1, #1
 352              	.LVL20:
 353              		.loc 1 587 5 is_stmt 0 view .LVU104
 354 0014 0329     		cmp	r1, #3
 355 0016 2ED8     		bhi	.L20
 356 0018 DFE801F0 		tbb	[pc, r1]
 357              	.L23:
 358 001c 02       		.byte	(.L26-.L23)/2
 359 001d 2F       		.byte	(.L25-.L23)/2
 360 001e 48       		.byte	(.L24-.L23)/2
 361 001f 68       		.byte	(.L22-.L23)/2
 362              		.p2align 1
 363              	.L26:
 588:Drivers/lvgl/src/draw/sw/blend/lv_draw_sw_blend_to_argb8888_premultiplied.c ****         case LV_BLEND_MODE_ADDITIVE:
 589:Drivers/lvgl/src/draw/sw/blend/lv_draw_sw_blend_to_argb8888_premultiplied.c ****             /* Ensure RGB remains premultiplied */
 590:Drivers/lvgl/src/draw/sw/blend/lv_draw_sw_blend_to_argb8888_premultiplied.c ****             res.red   = LV_MIN(dest->red + src.red, dest_alpha);
 364              		.loc 1 590 13 is_stmt 1 view .LVU105
 365              		.loc 1 590 25 is_stmt 0 view .LVU106
 366 0020 A178     		ldrb	r1, [r4, #2]	@ zero_extendqisi2
 367              	.LVL21:
 368              		.loc 1 590 25 view .LVU107
 369 0022 9DF806C0 		ldrb	ip, [sp, #6]	@ zero_extendqisi2
 370 0026 6144     		add	r1, r1, ip
 371 0028 9942     		cmp	r1, r3
 372 002a A8BF     		it	ge
 373 002c 1946     		movge	r1, r3
 374              		.loc 1 590 23 view .LVU108
 375 002e 8DF80E10 		strb	r1, [sp, #14]
 591:Drivers/lvgl/src/draw/sw/blend/lv_draw_sw_blend_to_argb8888_premultiplied.c ****             res.green = LV_MIN(dest->green + src.green, dest_alpha);
 376              		.loc 1 591 13 is_stmt 1 view .LVU109
 377              		.loc 1 591 25 is_stmt 0 view .LVU110
 378 0032 6178     		ldrb	r1, [r4, #1]	@ zero_extendqisi2
 379 0034 9DF805C0 		ldrb	ip, [sp, #5]	@ zero_extendqisi2
 380 0038 6144     		add	r1, r1, ip
 381 003a 9942     		cmp	r1, r3
 382 003c A8BF     		it	ge
 383 003e 1946     		movge	r1, r3
 384              		.loc 1 591 23 view .LVU111
 385 0040 8DF80D10 		strb	r1, [sp, #13]
 592:Drivers/lvgl/src/draw/sw/blend/lv_draw_sw_blend_to_argb8888_premultiplied.c ****             res.blue  = LV_MIN(dest->blue + src.blue, dest_alpha);
 386              		.loc 1 592 13 is_stmt 1 view .LVU112
 387              		.loc 1 592 25 is_stmt 0 view .LVU113
 388 0044 2178     		ldrb	r1, [r4]	@ zero_extendqisi2
 389 0046 9DF804C0 		ldrb	ip, [sp, #4]	@ zero_extendqisi2
 390 004a 6144     		add	r1, r1, ip
 391 004c 8B42     		cmp	r3, r1
 392 004e A8BF     		it	ge
 393 0050 0B46     		movge	r3, r1
 394              	.LVL22:
 395              		.loc 1 592 23 view .LVU114
 396 0052 8DF80C30 		strb	r3, [sp, #12]
 593:Drivers/lvgl/src/draw/sw/blend/lv_draw_sw_blend_to_argb8888_premultiplied.c ****             break;
 397              		.loc 1 593 13 is_stmt 1 view .LVU115
 398              	.L27:
 594:Drivers/lvgl/src/draw/sw/blend/lv_draw_sw_blend_to_argb8888_premultiplied.c **** 
 595:Drivers/lvgl/src/draw/sw/blend/lv_draw_sw_blend_to_argb8888_premultiplied.c ****         case LV_BLEND_MODE_SUBTRACTIVE:
 596:Drivers/lvgl/src/draw/sw/blend/lv_draw_sw_blend_to_argb8888_premultiplied.c ****             /* Ensure RGB remains non-negative and premultiplied */
ARM GAS  /tmp/ccGpYpzg.s 			page 21


 597:Drivers/lvgl/src/draw/sw/blend/lv_draw_sw_blend_to_argb8888_premultiplied.c ****             res.red   = LV_MAX(dest->red - src.red, 0);
 598:Drivers/lvgl/src/draw/sw/blend/lv_draw_sw_blend_to_argb8888_premultiplied.c ****             res.green = LV_MAX(dest->green - src.green, 0);
 599:Drivers/lvgl/src/draw/sw/blend/lv_draw_sw_blend_to_argb8888_premultiplied.c ****             res.blue  = LV_MAX(dest->blue - src.blue, 0);
 600:Drivers/lvgl/src/draw/sw/blend/lv_draw_sw_blend_to_argb8888_premultiplied.c ****             break;
 601:Drivers/lvgl/src/draw/sw/blend/lv_draw_sw_blend_to_argb8888_premultiplied.c **** 
 602:Drivers/lvgl/src/draw/sw/blend/lv_draw_sw_blend_to_argb8888_premultiplied.c ****         case LV_BLEND_MODE_MULTIPLY:
 603:Drivers/lvgl/src/draw/sw/blend/lv_draw_sw_blend_to_argb8888_premultiplied.c ****             /* Adjusted for premultiplied alpha: scale the result properly */
 604:Drivers/lvgl/src/draw/sw/blend/lv_draw_sw_blend_to_argb8888_premultiplied.c ****             res.red   = ((dest->red * src.red) / LV_MAX(src_alpha, 1));
 605:Drivers/lvgl/src/draw/sw/blend/lv_draw_sw_blend_to_argb8888_premultiplied.c ****             res.green = ((dest->green * src.green) / LV_MAX(src_alpha, 1));
 606:Drivers/lvgl/src/draw/sw/blend/lv_draw_sw_blend_to_argb8888_premultiplied.c ****             res.blue  = ((dest->blue * src.blue) / LV_MAX(src_alpha, 1));
 607:Drivers/lvgl/src/draw/sw/blend/lv_draw_sw_blend_to_argb8888_premultiplied.c ****             break;
 608:Drivers/lvgl/src/draw/sw/blend/lv_draw_sw_blend_to_argb8888_premultiplied.c **** 
 609:Drivers/lvgl/src/draw/sw/blend/lv_draw_sw_blend_to_argb8888_premultiplied.c ****         case LV_BLEND_MODE_DIFFERENCE:
 610:Drivers/lvgl/src/draw/sw/blend/lv_draw_sw_blend_to_argb8888_premultiplied.c ****             res.red   = LV_ABS(dest->red - src.red);
 611:Drivers/lvgl/src/draw/sw/blend/lv_draw_sw_blend_to_argb8888_premultiplied.c ****             res.green = LV_ABS(dest->green - src.green);
 612:Drivers/lvgl/src/draw/sw/blend/lv_draw_sw_blend_to_argb8888_premultiplied.c ****             res.blue  = LV_ABS(dest->blue - src.blue);
 613:Drivers/lvgl/src/draw/sw/blend/lv_draw_sw_blend_to_argb8888_premultiplied.c ****             break;
 614:Drivers/lvgl/src/draw/sw/blend/lv_draw_sw_blend_to_argb8888_premultiplied.c **** 
 615:Drivers/lvgl/src/draw/sw/blend/lv_draw_sw_blend_to_argb8888_premultiplied.c ****         default:
 616:Drivers/lvgl/src/draw/sw/blend/lv_draw_sw_blend_to_argb8888_premultiplied.c ****             LV_LOG_WARN("Not supported blend mode: %d", mode);
 617:Drivers/lvgl/src/draw/sw/blend/lv_draw_sw_blend_to_argb8888_premultiplied.c ****             return;
 618:Drivers/lvgl/src/draw/sw/blend/lv_draw_sw_blend_to_argb8888_premultiplied.c ****     }
 619:Drivers/lvgl/src/draw/sw/blend/lv_draw_sw_blend_to_argb8888_premultiplied.c **** 
 620:Drivers/lvgl/src/draw/sw/blend/lv_draw_sw_blend_to_argb8888_premultiplied.c ****     res.alpha = src_alpha;  /* Keep the alpha from premultiplied source */
 399              		.loc 1 620 5 view .LVU116
 400              		.loc 1 620 15 is_stmt 0 view .LVU117
 401 0056 8DF80F00 		strb	r0, [sp, #15]
 621:Drivers/lvgl/src/draw/sw/blend/lv_draw_sw_blend_to_argb8888_premultiplied.c ****     *dest = lv_color_32_32_mix_premul(res, *dest, cache);
 402              		.loc 1 621 5 is_stmt 1 view .LVU118
 403              		.loc 1 621 13 is_stmt 0 view .LVU119
 404 005a 2168     		ldr	r1, [r4]	@ unaligned
 405 005c 0398     		ldr	r0, [sp, #12]
 406              	.LVL23:
 407              		.loc 1 621 13 view .LVU120
 408 005e FFF7FEFF 		bl	lv_color_32_32_mix_premul
 409              	.LVL24:
 410              		.loc 1 621 13 view .LVU121
 411 0062 2070     		strb	r0, [r4]
 412 0064 C0F30723 		ubfx	r3, r0, #8, #8
 413 0068 6370     		strb	r3, [r4, #1]
 414 006a C0F30743 		ubfx	r3, r0, #16, #8
 415 006e A370     		strb	r3, [r4, #2]
 416 0070 C0F30760 		ubfx	r0, r0, #24, #8
 417 0074 E070     		strb	r0, [r4, #3]
 418              	.LVL25:
 419              	.L20:
 622:Drivers/lvgl/src/draw/sw/blend/lv_draw_sw_blend_to_argb8888_premultiplied.c **** }
 420              		.loc 1 622 1 view .LVU122
 421 0076 04B0     		add	sp, sp, #16
 422              	.LCFI7:
 423              		.cfi_remember_state
 424              		.cfi_def_cfa_offset 8
 425              		@ sp needed
 426 0078 10BD     		pop	{r4, pc}
 427              	.LVL26:
 428              	.L25:
 429              	.LCFI8:
ARM GAS  /tmp/ccGpYpzg.s 			page 22


 430              		.cfi_restore_state
 597:Drivers/lvgl/src/draw/sw/blend/lv_draw_sw_blend_to_argb8888_premultiplied.c ****             res.green = LV_MAX(dest->green - src.green, 0);
 431              		.loc 1 597 13 is_stmt 1 view .LVU123
 597:Drivers/lvgl/src/draw/sw/blend/lv_draw_sw_blend_to_argb8888_premultiplied.c ****             res.green = LV_MAX(dest->green - src.green, 0);
 432              		.loc 1 597 25 is_stmt 0 view .LVU124
 433 007a A378     		ldrb	r3, [r4, #2]	@ zero_extendqisi2
 434              	.LVL27:
 597:Drivers/lvgl/src/draw/sw/blend/lv_draw_sw_blend_to_argb8888_premultiplied.c ****             res.green = LV_MAX(dest->green - src.green, 0);
 435              		.loc 1 597 25 view .LVU125
 436 007c 9DF80610 		ldrb	r1, [sp, #6]	@ zero_extendqisi2
 437 0080 5B1A     		subs	r3, r3, r1
 438 0082 23EAE373 		bic	r3, r3, r3, asr #31
 597:Drivers/lvgl/src/draw/sw/blend/lv_draw_sw_blend_to_argb8888_premultiplied.c ****             res.green = LV_MAX(dest->green - src.green, 0);
 439              		.loc 1 597 23 view .LVU126
 440 0086 8DF80E30 		strb	r3, [sp, #14]
 598:Drivers/lvgl/src/draw/sw/blend/lv_draw_sw_blend_to_argb8888_premultiplied.c ****             res.blue  = LV_MAX(dest->blue - src.blue, 0);
 441              		.loc 1 598 13 is_stmt 1 view .LVU127
 598:Drivers/lvgl/src/draw/sw/blend/lv_draw_sw_blend_to_argb8888_premultiplied.c ****             res.blue  = LV_MAX(dest->blue - src.blue, 0);
 442              		.loc 1 598 25 is_stmt 0 view .LVU128
 443 008a 6378     		ldrb	r3, [r4, #1]	@ zero_extendqisi2
 444 008c 9DF80510 		ldrb	r1, [sp, #5]	@ zero_extendqisi2
 445 0090 5B1A     		subs	r3, r3, r1
 446 0092 23EAE373 		bic	r3, r3, r3, asr #31
 598:Drivers/lvgl/src/draw/sw/blend/lv_draw_sw_blend_to_argb8888_premultiplied.c ****             res.blue  = LV_MAX(dest->blue - src.blue, 0);
 447              		.loc 1 598 23 view .LVU129
 448 0096 8DF80D30 		strb	r3, [sp, #13]
 599:Drivers/lvgl/src/draw/sw/blend/lv_draw_sw_blend_to_argb8888_premultiplied.c ****             break;
 449              		.loc 1 599 13 is_stmt 1 view .LVU130
 599:Drivers/lvgl/src/draw/sw/blend/lv_draw_sw_blend_to_argb8888_premultiplied.c ****             break;
 450              		.loc 1 599 25 is_stmt 0 view .LVU131
 451 009a 2378     		ldrb	r3, [r4]	@ zero_extendqisi2
 452 009c 9DF80410 		ldrb	r1, [sp, #4]	@ zero_extendqisi2
 453 00a0 5B1A     		subs	r3, r3, r1
 454 00a2 23EAE373 		bic	r3, r3, r3, asr #31
 599:Drivers/lvgl/src/draw/sw/blend/lv_draw_sw_blend_to_argb8888_premultiplied.c ****             break;
 455              		.loc 1 599 23 view .LVU132
 456 00a6 8DF80C30 		strb	r3, [sp, #12]
 600:Drivers/lvgl/src/draw/sw/blend/lv_draw_sw_blend_to_argb8888_premultiplied.c **** 
 457              		.loc 1 600 13 is_stmt 1 view .LVU133
 458 00aa D4E7     		b	.L27
 459              	.LVL28:
 460              	.L24:
 604:Drivers/lvgl/src/draw/sw/blend/lv_draw_sw_blend_to_argb8888_premultiplied.c ****             res.green = ((dest->green * src.green) / LV_MAX(src_alpha, 1));
 461              		.loc 1 604 13 view .LVU134
 604:Drivers/lvgl/src/draw/sw/blend/lv_draw_sw_blend_to_argb8888_premultiplied.c ****             res.green = ((dest->green * src.green) / LV_MAX(src_alpha, 1));
 462              		.loc 1 604 31 is_stmt 0 view .LVU135
 463 00ac A378     		ldrb	r3, [r4, #2]	@ zero_extendqisi2
 464              	.LVL29:
 604:Drivers/lvgl/src/draw/sw/blend/lv_draw_sw_blend_to_argb8888_premultiplied.c ****             res.green = ((dest->green * src.green) / LV_MAX(src_alpha, 1));
 465              		.loc 1 604 42 view .LVU136
 466 00ae 9DF80610 		ldrb	r1, [sp, #6]	@ zero_extendqisi2
 604:Drivers/lvgl/src/draw/sw/blend/lv_draw_sw_blend_to_argb8888_premultiplied.c ****             res.green = ((dest->green * src.green) / LV_MAX(src_alpha, 1));
 467              		.loc 1 604 37 view .LVU137
 468 00b2 01FB03F3 		mul	r3, r1, r3
 604:Drivers/lvgl/src/draw/sw/blend/lv_draw_sw_blend_to_argb8888_premultiplied.c ****             res.green = ((dest->green * src.green) / LV_MAX(src_alpha, 1));
 469              		.loc 1 604 50 view .LVU138
 470 00b6 0146     		mov	r1, r0
ARM GAS  /tmp/ccGpYpzg.s 			page 23


 471 00b8 0128     		cmp	r0, #1
 472 00ba 38BF     		it	cc
 473 00bc 0121     		movcc	r1, #1
 604:Drivers/lvgl/src/draw/sw/blend/lv_draw_sw_blend_to_argb8888_premultiplied.c ****             res.green = ((dest->green * src.green) / LV_MAX(src_alpha, 1));
 474              		.loc 1 604 48 view .LVU139
 475 00be 93FBF1F3 		sdiv	r3, r3, r1
 604:Drivers/lvgl/src/draw/sw/blend/lv_draw_sw_blend_to_argb8888_premultiplied.c ****             res.green = ((dest->green * src.green) / LV_MAX(src_alpha, 1));
 476              		.loc 1 604 23 view .LVU140
 477 00c2 8DF80E30 		strb	r3, [sp, #14]
 605:Drivers/lvgl/src/draw/sw/blend/lv_draw_sw_blend_to_argb8888_premultiplied.c ****             res.blue  = ((dest->blue * src.blue) / LV_MAX(src_alpha, 1));
 478              		.loc 1 605 13 is_stmt 1 view .LVU141
 605:Drivers/lvgl/src/draw/sw/blend/lv_draw_sw_blend_to_argb8888_premultiplied.c ****             res.blue  = ((dest->blue * src.blue) / LV_MAX(src_alpha, 1));
 479              		.loc 1 605 31 is_stmt 0 view .LVU142
 480 00c6 6378     		ldrb	r3, [r4, #1]	@ zero_extendqisi2
 605:Drivers/lvgl/src/draw/sw/blend/lv_draw_sw_blend_to_argb8888_premultiplied.c ****             res.blue  = ((dest->blue * src.blue) / LV_MAX(src_alpha, 1));
 481              		.loc 1 605 44 view .LVU143
 482 00c8 9DF805C0 		ldrb	ip, [sp, #5]	@ zero_extendqisi2
 605:Drivers/lvgl/src/draw/sw/blend/lv_draw_sw_blend_to_argb8888_premultiplied.c ****             res.blue  = ((dest->blue * src.blue) / LV_MAX(src_alpha, 1));
 483              		.loc 1 605 39 view .LVU144
 484 00cc 0CFB03F3 		mul	r3, ip, r3
 605:Drivers/lvgl/src/draw/sw/blend/lv_draw_sw_blend_to_argb8888_premultiplied.c ****             res.blue  = ((dest->blue * src.blue) / LV_MAX(src_alpha, 1));
 485              		.loc 1 605 52 view .LVU145
 486 00d0 93FBF1F3 		sdiv	r3, r3, r1
 605:Drivers/lvgl/src/draw/sw/blend/lv_draw_sw_blend_to_argb8888_premultiplied.c ****             res.blue  = ((dest->blue * src.blue) / LV_MAX(src_alpha, 1));
 487              		.loc 1 605 23 view .LVU146
 488 00d4 8DF80D30 		strb	r3, [sp, #13]
 606:Drivers/lvgl/src/draw/sw/blend/lv_draw_sw_blend_to_argb8888_premultiplied.c ****             break;
 489              		.loc 1 606 13 is_stmt 1 view .LVU147
 606:Drivers/lvgl/src/draw/sw/blend/lv_draw_sw_blend_to_argb8888_premultiplied.c ****             break;
 490              		.loc 1 606 31 is_stmt 0 view .LVU148
 491 00d8 2378     		ldrb	r3, [r4]	@ zero_extendqisi2
 606:Drivers/lvgl/src/draw/sw/blend/lv_draw_sw_blend_to_argb8888_premultiplied.c ****             break;
 492              		.loc 1 606 43 view .LVU149
 493 00da 9DF804C0 		ldrb	ip, [sp, #4]	@ zero_extendqisi2
 606:Drivers/lvgl/src/draw/sw/blend/lv_draw_sw_blend_to_argb8888_premultiplied.c ****             break;
 494              		.loc 1 606 38 view .LVU150
 495 00de 0CFB03F3 		mul	r3, ip, r3
 606:Drivers/lvgl/src/draw/sw/blend/lv_draw_sw_blend_to_argb8888_premultiplied.c ****             break;
 496              		.loc 1 606 50 view .LVU151
 497 00e2 93FBF1F3 		sdiv	r3, r3, r1
 606:Drivers/lvgl/src/draw/sw/blend/lv_draw_sw_blend_to_argb8888_premultiplied.c ****             break;
 498              		.loc 1 606 23 view .LVU152
 499 00e6 8DF80C30 		strb	r3, [sp, #12]
 607:Drivers/lvgl/src/draw/sw/blend/lv_draw_sw_blend_to_argb8888_premultiplied.c **** 
 500              		.loc 1 607 13 is_stmt 1 view .LVU153
 501 00ea B4E7     		b	.L27
 502              	.LVL30:
 503              	.L22:
 610:Drivers/lvgl/src/draw/sw/blend/lv_draw_sw_blend_to_argb8888_premultiplied.c ****             res.green = LV_ABS(dest->green - src.green);
 504              		.loc 1 610 13 view .LVU154
 610:Drivers/lvgl/src/draw/sw/blend/lv_draw_sw_blend_to_argb8888_premultiplied.c ****             res.green = LV_ABS(dest->green - src.green);
 505              		.loc 1 610 25 is_stmt 0 view .LVU155
 506 00ec A378     		ldrb	r3, [r4, #2]	@ zero_extendqisi2
 507              	.LVL31:
 610:Drivers/lvgl/src/draw/sw/blend/lv_draw_sw_blend_to_argb8888_premultiplied.c ****             res.green = LV_ABS(dest->green - src.green);
 508              		.loc 1 610 25 view .LVU156
 509 00ee 9DF80610 		ldrb	r1, [sp, #6]	@ zero_extendqisi2
ARM GAS  /tmp/ccGpYpzg.s 			page 24


 510 00f2 5B1A     		subs	r3, r3, r1
 511 00f4 002B     		cmp	r3, #0
 512 00f6 B8BF     		it	lt
 513 00f8 5B42     		rsblt	r3, r3, #0
 610:Drivers/lvgl/src/draw/sw/blend/lv_draw_sw_blend_to_argb8888_premultiplied.c ****             res.green = LV_ABS(dest->green - src.green);
 514              		.loc 1 610 23 view .LVU157
 515 00fa 8DF80E30 		strb	r3, [sp, #14]
 611:Drivers/lvgl/src/draw/sw/blend/lv_draw_sw_blend_to_argb8888_premultiplied.c ****             res.blue  = LV_ABS(dest->blue - src.blue);
 516              		.loc 1 611 13 is_stmt 1 view .LVU158
 611:Drivers/lvgl/src/draw/sw/blend/lv_draw_sw_blend_to_argb8888_premultiplied.c ****             res.blue  = LV_ABS(dest->blue - src.blue);
 517              		.loc 1 611 25 is_stmt 0 view .LVU159
 518 00fe 6378     		ldrb	r3, [r4, #1]	@ zero_extendqisi2
 519 0100 9DF80510 		ldrb	r1, [sp, #5]	@ zero_extendqisi2
 520 0104 5B1A     		subs	r3, r3, r1
 521 0106 002B     		cmp	r3, #0
 522 0108 B8BF     		it	lt
 523 010a 5B42     		rsblt	r3, r3, #0
 611:Drivers/lvgl/src/draw/sw/blend/lv_draw_sw_blend_to_argb8888_premultiplied.c ****             res.blue  = LV_ABS(dest->blue - src.blue);
 524              		.loc 1 611 23 view .LVU160
 525 010c 8DF80D30 		strb	r3, [sp, #13]
 612:Drivers/lvgl/src/draw/sw/blend/lv_draw_sw_blend_to_argb8888_premultiplied.c ****             break;
 526              		.loc 1 612 13 is_stmt 1 view .LVU161
 612:Drivers/lvgl/src/draw/sw/blend/lv_draw_sw_blend_to_argb8888_premultiplied.c ****             break;
 527              		.loc 1 612 25 is_stmt 0 view .LVU162
 528 0110 2378     		ldrb	r3, [r4]	@ zero_extendqisi2
 529 0112 9DF80410 		ldrb	r1, [sp, #4]	@ zero_extendqisi2
 530 0116 5B1A     		subs	r3, r3, r1
 531 0118 002B     		cmp	r3, #0
 532 011a B8BF     		it	lt
 533 011c 5B42     		rsblt	r3, r3, #0
 612:Drivers/lvgl/src/draw/sw/blend/lv_draw_sw_blend_to_argb8888_premultiplied.c ****             break;
 534              		.loc 1 612 23 view .LVU163
 535 011e 8DF80C30 		strb	r3, [sp, #12]
 613:Drivers/lvgl/src/draw/sw/blend/lv_draw_sw_blend_to_argb8888_premultiplied.c **** 
 536              		.loc 1 613 13 is_stmt 1 view .LVU164
 537 0122 98E7     		b	.L27
 538              		.cfi_endproc
 539              	.LFE193:
 541              		.section	.text.argb8888_image_blend,"ax",%progbits
 542              		.align	1
 543              		.syntax unified
 544              		.thumb
 545              		.thumb_func
 547              	argb8888_image_blend:
 548              	.LVL32:
 549              	.LFB188:
 227:Drivers/lvgl/src/draw/sw/blend/lv_draw_sw_blend_to_argb8888_premultiplied.c ****     int32_t w = dsc->dest_w;
 550              		.loc 1 227 1 view -0
 551              		.cfi_startproc
 552              		@ args = 0, pretend = 0, frame = 40
 553              		@ frame_needed = 0, uses_anonymous_args = 0
 227:Drivers/lvgl/src/draw/sw/blend/lv_draw_sw_blend_to_argb8888_premultiplied.c ****     int32_t w = dsc->dest_w;
 554              		.loc 1 227 1 is_stmt 0 view .LVU166
 555 0000 2DE9F04F 		push	{r4, r5, r6, r7, r8, r9, r10, fp, lr}
 556              	.LCFI9:
 557              		.cfi_def_cfa_offset 36
 558              		.cfi_offset 4, -36
ARM GAS  /tmp/ccGpYpzg.s 			page 25


 559              		.cfi_offset 5, -32
 560              		.cfi_offset 6, -28
 561              		.cfi_offset 7, -24
 562              		.cfi_offset 8, -20
 563              		.cfi_offset 9, -16
 564              		.cfi_offset 10, -12
 565              		.cfi_offset 11, -8
 566              		.cfi_offset 14, -4
 567 0004 8BB0     		sub	sp, sp, #44
 568              	.LCFI10:
 569              		.cfi_def_cfa_offset 80
 570 0006 8146     		mov	r9, r0
 228:Drivers/lvgl/src/draw/sw/blend/lv_draw_sw_blend_to_argb8888_premultiplied.c ****     int32_t h = dsc->dest_h;
 571              		.loc 1 228 5 is_stmt 1 view .LVU167
 228:Drivers/lvgl/src/draw/sw/blend/lv_draw_sw_blend_to_argb8888_premultiplied.c ****     int32_t h = dsc->dest_h;
 572              		.loc 1 228 13 is_stmt 0 view .LVU168
 573 0008 D0F80480 		ldr	r8, [r0, #4]
 574              	.LVL33:
 229:Drivers/lvgl/src/draw/sw/blend/lv_draw_sw_blend_to_argb8888_premultiplied.c ****     lv_opa_t opa = dsc->opa;
 575              		.loc 1 229 5 is_stmt 1 view .LVU169
 229:Drivers/lvgl/src/draw/sw/blend/lv_draw_sw_blend_to_argb8888_premultiplied.c ****     lv_opa_t opa = dsc->opa;
 576              		.loc 1 229 13 is_stmt 0 view .LVU170
 577 000c D0F808B0 		ldr	fp, [r0, #8]
 578              	.LVL34:
 230:Drivers/lvgl/src/draw/sw/blend/lv_draw_sw_blend_to_argb8888_premultiplied.c ****     lv_color32_t * dest_buf_c32 = dsc->dest_buf;
 579              		.loc 1 230 5 is_stmt 1 view .LVU171
 230:Drivers/lvgl/src/draw/sw/blend/lv_draw_sw_blend_to_argb8888_premultiplied.c ****     lv_color32_t * dest_buf_c32 = dsc->dest_buf;
 580              		.loc 1 230 14 is_stmt 0 view .LVU172
 581 0010 90F821A0 		ldrb	r10, [r0, #33]	@ zero_extendqisi2
 582              	.LVL35:
 231:Drivers/lvgl/src/draw/sw/blend/lv_draw_sw_blend_to_argb8888_premultiplied.c ****     int32_t dest_stride = dsc->dest_stride;
 583              		.loc 1 231 5 is_stmt 1 view .LVU173
 231:Drivers/lvgl/src/draw/sw/blend/lv_draw_sw_blend_to_argb8888_premultiplied.c ****     int32_t dest_stride = dsc->dest_stride;
 584              		.loc 1 231 20 is_stmt 0 view .LVU174
 585 0014 0568     		ldr	r5, [r0]
 586              	.LVL36:
 232:Drivers/lvgl/src/draw/sw/blend/lv_draw_sw_blend_to_argb8888_premultiplied.c ****     const lv_color32_t * src_buf_c32 = dsc->src_buf;
 587              		.loc 1 232 5 is_stmt 1 view .LVU175
 232:Drivers/lvgl/src/draw/sw/blend/lv_draw_sw_blend_to_argb8888_premultiplied.c ****     const lv_color32_t * src_buf_c32 = dsc->src_buf;
 588              		.loc 1 232 13 is_stmt 0 view .LVU176
 589 0016 C368     		ldr	r3, [r0, #12]
 590 0018 0093     		str	r3, [sp]
 591              	.LVL37:
 233:Drivers/lvgl/src/draw/sw/blend/lv_draw_sw_blend_to_argb8888_premultiplied.c ****     int32_t src_stride = dsc->src_stride;
 592              		.loc 1 233 5 is_stmt 1 view .LVU177
 233:Drivers/lvgl/src/draw/sw/blend/lv_draw_sw_blend_to_argb8888_premultiplied.c ****     int32_t src_stride = dsc->src_stride;
 593              		.loc 1 233 26 is_stmt 0 view .LVU178
 594 001a 8669     		ldr	r6, [r0, #24]
 595              	.LVL38:
 234:Drivers/lvgl/src/draw/sw/blend/lv_draw_sw_blend_to_argb8888_premultiplied.c ****     const lv_opa_t * mask_buf = dsc->mask_buf;
 596              		.loc 1 234 5 is_stmt 1 view .LVU179
 234:Drivers/lvgl/src/draw/sw/blend/lv_draw_sw_blend_to_argb8888_premultiplied.c ****     const lv_opa_t * mask_buf = dsc->mask_buf;
 597              		.loc 1 234 13 is_stmt 0 view .LVU180
 598 001c C369     		ldr	r3, [r0, #28]
 599              	.LVL39:
 234:Drivers/lvgl/src/draw/sw/blend/lv_draw_sw_blend_to_argb8888_premultiplied.c ****     const lv_opa_t * mask_buf = dsc->mask_buf;
 600              		.loc 1 234 13 view .LVU181
ARM GAS  /tmp/ccGpYpzg.s 			page 26


 601 001e 0193     		str	r3, [sp, #4]
 602              	.LVL40:
 235:Drivers/lvgl/src/draw/sw/blend/lv_draw_sw_blend_to_argb8888_premultiplied.c ****     int32_t mask_stride = dsc->mask_stride;
 603              		.loc 1 235 5 is_stmt 1 view .LVU182
 235:Drivers/lvgl/src/draw/sw/blend/lv_draw_sw_blend_to_argb8888_premultiplied.c ****     int32_t mask_stride = dsc->mask_stride;
 604              		.loc 1 235 22 is_stmt 0 view .LVU183
 605 0020 0769     		ldr	r7, [r0, #16]
 606              	.LVL41:
 236:Drivers/lvgl/src/draw/sw/blend/lv_draw_sw_blend_to_argb8888_premultiplied.c **** 
 607              		.loc 1 236 5 is_stmt 1 view .LVU184
 236:Drivers/lvgl/src/draw/sw/blend/lv_draw_sw_blend_to_argb8888_premultiplied.c **** 
 608              		.loc 1 236 13 is_stmt 0 view .LVU185
 609 0022 4369     		ldr	r3, [r0, #20]
 610              	.LVL42:
 236:Drivers/lvgl/src/draw/sw/blend/lv_draw_sw_blend_to_argb8888_premultiplied.c **** 
 611              		.loc 1 236 13 view .LVU186
 612 0024 0393     		str	r3, [sp, #12]
 613              	.LVL43:
 238:Drivers/lvgl/src/draw/sw/blend/lv_draw_sw_blend_to_argb8888_premultiplied.c ****     lv_color_mix_alpha_cache_t cache;
 614              		.loc 1 238 5 is_stmt 1 view .LVU187
 239:Drivers/lvgl/src/draw/sw/blend/lv_draw_sw_blend_to_argb8888_premultiplied.c ****     lv_color_mix_with_alpha_cache_init(&cache);
 615              		.loc 1 239 5 view .LVU188
 240:Drivers/lvgl/src/draw/sw/blend/lv_draw_sw_blend_to_argb8888_premultiplied.c **** 
 616              		.loc 1 240 5 view .LVU189
 617 0026 05A8     		add	r0, sp, #20
 618              	.LVL44:
 240:Drivers/lvgl/src/draw/sw/blend/lv_draw_sw_blend_to_argb8888_premultiplied.c **** 
 619              		.loc 1 240 5 is_stmt 0 view .LVU190
 620 0028 FFF7FEFF 		bl	lv_color_mix_with_alpha_cache_init
 621              	.LVL45:
 242:Drivers/lvgl/src/draw/sw/blend/lv_draw_sw_blend_to_argb8888_premultiplied.c **** 
 622              		.loc 1 242 5 is_stmt 1 view .LVU191
 244:Drivers/lvgl/src/draw/sw/blend/lv_draw_sw_blend_to_argb8888_premultiplied.c ****         if(mask_buf == NULL && opa >= LV_OPA_MAX) {
 623              		.loc 1 244 5 view .LVU192
 244:Drivers/lvgl/src/draw/sw/blend/lv_draw_sw_blend_to_argb8888_premultiplied.c ****         if(mask_buf == NULL && opa >= LV_OPA_MAX) {
 624              		.loc 1 244 11 is_stmt 0 view .LVU193
 625 002c 99F82230 		ldrb	r3, [r9, #34]	@ zero_extendqisi2
 244:Drivers/lvgl/src/draw/sw/blend/lv_draw_sw_blend_to_argb8888_premultiplied.c ****         if(mask_buf == NULL && opa >= LV_OPA_MAX) {
 626              		.loc 1 244 7 view .LVU194
 627 0030 002B     		cmp	r3, #0
 628 0032 40F08E81 		bne	.L54
 245:Drivers/lvgl/src/draw/sw/blend/lv_draw_sw_blend_to_argb8888_premultiplied.c ****             if(LV_RESULT_INVALID == LV_DRAW_SW_ARGB8888_BLEND_NORMAL_TO_ARGB8888_PREMULTIPLIED(dsc)
 629              		.loc 1 245 9 is_stmt 1 view .LVU195
 245:Drivers/lvgl/src/draw/sw/blend/lv_draw_sw_blend_to_argb8888_premultiplied.c ****             if(LV_RESULT_INVALID == LV_DRAW_SW_ARGB8888_BLEND_NORMAL_TO_ARGB8888_PREMULTIPLIED(dsc)
 630              		.loc 1 245 21 is_stmt 0 view .LVU196
 631 0036 B7FA87F3 		clz	r3, r7
 632 003a 5B09     		lsrs	r3, r3, #5
 245:Drivers/lvgl/src/draw/sw/blend/lv_draw_sw_blend_to_argb8888_premultiplied.c ****             if(LV_RESULT_INVALID == LV_DRAW_SW_ARGB8888_BLEND_NORMAL_TO_ARGB8888_PREMULTIPLIED(dsc)
 633              		.loc 1 245 36 view .LVU197
 634 003c BAF1FC0F 		cmp	r10, #252
 635 0040 94BF     		ite	ls
 636 0042 0022     		movls	r2, #0
 637 0044 0122     		movhi	r2, #1
 245:Drivers/lvgl/src/draw/sw/blend/lv_draw_sw_blend_to_argb8888_premultiplied.c ****             if(LV_RESULT_INVALID == LV_DRAW_SW_ARGB8888_BLEND_NORMAL_TO_ARGB8888_PREMULTIPLIED(dsc)
 638              		.loc 1 245 11 view .LVU198
 639 0046 1342     		tst	r3, r2
 640 0048 4CD1     		bne	.L55
ARM GAS  /tmp/ccGpYpzg.s 			page 27


 263:Drivers/lvgl/src/draw/sw/blend/lv_draw_sw_blend_to_argb8888_premultiplied.c ****             if(LV_RESULT_INVALID == LV_DRAW_SW_ARGB8888_BLEND_NORMAL_TO_ARGB8888_PREMULTIPLIED_WITH
 641              		.loc 1 263 14 is_stmt 1 view .LVU199
 263:Drivers/lvgl/src/draw/sw/blend/lv_draw_sw_blend_to_argb8888_premultiplied.c ****             if(LV_RESULT_INVALID == LV_DRAW_SW_ARGB8888_BLEND_NORMAL_TO_ARGB8888_PREMULTIPLIED_WITH
 642              		.loc 1 263 41 is_stmt 0 view .LVU200
 643 004a BAF1FC0F 		cmp	r10, #252
 644 004e 8CBF     		ite	hi
 645 0050 0021     		movhi	r1, #0
 646 0052 0121     		movls	r1, #1
 263:Drivers/lvgl/src/draw/sw/blend/lv_draw_sw_blend_to_argb8888_premultiplied.c ****             if(LV_RESULT_INVALID == LV_DRAW_SW_ARGB8888_BLEND_NORMAL_TO_ARGB8888_PREMULTIPLIED_WITH
 647              		.loc 1 263 16 view .LVU201
 648 0054 0B42     		tst	r3, r1
 649 0056 40F09080 		bne	.L57
 284:Drivers/lvgl/src/draw/sw/blend/lv_draw_sw_blend_to_argb8888_premultiplied.c ****             if(LV_RESULT_INVALID == LV_DRAW_SW_ARGB8888_BLEND_NORMAL_TO_ARGB8888_PREMULTIPLIED_WITH
 650              		.loc 1 284 14 is_stmt 1 view .LVU202
 284:Drivers/lvgl/src/draw/sw/blend/lv_draw_sw_blend_to_argb8888_premultiplied.c ****             if(LV_RESULT_INVALID == LV_DRAW_SW_ARGB8888_BLEND_NORMAL_TO_ARGB8888_PREMULTIPLIED_WITH
 651              		.loc 1 284 17 is_stmt 0 view .LVU203
 652 005a 3B1E     		subs	r3, r7, #0
 653 005c 18BF     		it	ne
 654 005e 0123     		movne	r3, #1
 284:Drivers/lvgl/src/draw/sw/blend/lv_draw_sw_blend_to_argb8888_premultiplied.c ****             if(LV_RESULT_INVALID == LV_DRAW_SW_ARGB8888_BLEND_NORMAL_TO_ARGB8888_PREMULTIPLIED_WITH
 655              		.loc 1 284 16 view .LVU204
 656 0060 1A42     		tst	r2, r3
 657 0062 40F0D780 		bne	.L59
 306:Drivers/lvgl/src/draw/sw/blend/lv_draw_sw_blend_to_argb8888_premultiplied.c ****             if(LV_RESULT_INVALID == LV_DRAW_SW_ARGB8888_BLEND_NORMAL_TO_ARGB8888_PREMULTIPLIED_MIX_
 658              		.loc 1 306 14 is_stmt 1 view .LVU205
 306:Drivers/lvgl/src/draw/sw/blend/lv_draw_sw_blend_to_argb8888_premultiplied.c ****             if(LV_RESULT_INVALID == LV_DRAW_SW_ARGB8888_BLEND_NORMAL_TO_ARGB8888_PREMULTIPLIED_MIX_
 659              		.loc 1 306 16 is_stmt 0 view .LVU206
 660 0066 1942     		tst	r1, r3
 661 0068 40F02181 		bne	.L61
 662              	.LVL46:
 663              	.L31:
 352:Drivers/lvgl/src/draw/sw/blend/lv_draw_sw_blend_to_argb8888_premultiplied.c **** 
 664              		.loc 1 352 1 view .LVU207
 665 006c 0BB0     		add	sp, sp, #44
 666              	.LCFI11:
 667              		.cfi_remember_state
 668              		.cfi_def_cfa_offset 36
 669              	.LVL47:
 352:Drivers/lvgl/src/draw/sw/blend/lv_draw_sw_blend_to_argb8888_premultiplied.c **** 
 670              		.loc 1 352 1 view .LVU208
 671              		@ sp needed
 672 006e BDE8F08F 		pop	{r4, r5, r6, r7, r8, r9, r10, fp, pc}
 673              	.LVL48:
 674              	.L35:
 675              	.LCFI12:
 676              		.cfi_restore_state
 249:Drivers/lvgl/src/draw/sw/blend/lv_draw_sw_blend_to_argb8888_premultiplied.c **** 
 677              		.loc 1 249 25 is_stmt 1 view .LVU209
 249:Drivers/lvgl/src/draw/sw/blend/lv_draw_sw_blend_to_argb8888_premultiplied.c **** 
 678              		.loc 1 249 36 is_stmt 0 view .LVU210
 679 0072 56F82400 		ldr	r0, [r6, r4, lsl #2]	@ unaligned
 680 0076 0990     		str	r0, [sp, #36]
 252:Drivers/lvgl/src/draw/sw/blend/lv_draw_sw_blend_to_argb8888_premultiplied.c ****                         color_argb.green = (color_argb.green * color_argb.alpha) >> 8;
 681              		.loc 1 252 25 is_stmt 1 view .LVU211
 252:Drivers/lvgl/src/draw/sw/blend/lv_draw_sw_blend_to_argb8888_premultiplied.c ****                         color_argb.green = (color_argb.green * color_argb.alpha) >> 8;
 682              		.loc 1 252 55 is_stmt 0 view .LVU212
 683 0078 9DF82620 		ldrb	r2, [sp, #38]	@ zero_extendqisi2
ARM GAS  /tmp/ccGpYpzg.s 			page 28


 252:Drivers/lvgl/src/draw/sw/blend/lv_draw_sw_blend_to_argb8888_premultiplied.c ****                         color_argb.green = (color_argb.green * color_argb.alpha) >> 8;
 684              		.loc 1 252 74 view .LVU213
 685 007c 9DF82730 		ldrb	r3, [sp, #39]	@ zero_extendqisi2
 252:Drivers/lvgl/src/draw/sw/blend/lv_draw_sw_blend_to_argb8888_premultiplied.c ****                         color_argb.green = (color_argb.green * color_argb.alpha) >> 8;
 686              		.loc 1 252 62 view .LVU214
 687 0080 03FB02F2 		mul	r2, r3, r2
 252:Drivers/lvgl/src/draw/sw/blend/lv_draw_sw_blend_to_argb8888_premultiplied.c ****                         color_argb.green = (color_argb.green * color_argb.alpha) >> 8;
 688              		.loc 1 252 82 view .LVU215
 689 0084 1212     		asrs	r2, r2, #8
 252:Drivers/lvgl/src/draw/sw/blend/lv_draw_sw_blend_to_argb8888_premultiplied.c ****                         color_argb.green = (color_argb.green * color_argb.alpha) >> 8;
 690              		.loc 1 252 42 view .LVU216
 691 0086 8DF82620 		strb	r2, [sp, #38]
 253:Drivers/lvgl/src/draw/sw/blend/lv_draw_sw_blend_to_argb8888_premultiplied.c ****                         color_argb.blue  = (color_argb.blue  * color_argb.alpha) >> 8;
 692              		.loc 1 253 25 is_stmt 1 view .LVU217
 253:Drivers/lvgl/src/draw/sw/blend/lv_draw_sw_blend_to_argb8888_premultiplied.c ****                         color_argb.blue  = (color_argb.blue  * color_argb.alpha) >> 8;
 693              		.loc 1 253 55 is_stmt 0 view .LVU218
 694 008a 9DF82520 		ldrb	r2, [sp, #37]	@ zero_extendqisi2
 253:Drivers/lvgl/src/draw/sw/blend/lv_draw_sw_blend_to_argb8888_premultiplied.c ****                         color_argb.blue  = (color_argb.blue  * color_argb.alpha) >> 8;
 695              		.loc 1 253 62 view .LVU219
 696 008e 03FB02F2 		mul	r2, r3, r2
 253:Drivers/lvgl/src/draw/sw/blend/lv_draw_sw_blend_to_argb8888_premultiplied.c ****                         color_argb.blue  = (color_argb.blue  * color_argb.alpha) >> 8;
 697              		.loc 1 253 82 view .LVU220
 698 0092 1212     		asrs	r2, r2, #8
 253:Drivers/lvgl/src/draw/sw/blend/lv_draw_sw_blend_to_argb8888_premultiplied.c ****                         color_argb.blue  = (color_argb.blue  * color_argb.alpha) >> 8;
 699              		.loc 1 253 42 view .LVU221
 700 0094 8DF82520 		strb	r2, [sp, #37]
 254:Drivers/lvgl/src/draw/sw/blend/lv_draw_sw_blend_to_argb8888_premultiplied.c **** 
 701              		.loc 1 254 25 is_stmt 1 view .LVU222
 254:Drivers/lvgl/src/draw/sw/blend/lv_draw_sw_blend_to_argb8888_premultiplied.c **** 
 702              		.loc 1 254 55 is_stmt 0 view .LVU223
 703 0098 9DF82420 		ldrb	r2, [sp, #36]	@ zero_extendqisi2
 254:Drivers/lvgl/src/draw/sw/blend/lv_draw_sw_blend_to_argb8888_premultiplied.c **** 
 704              		.loc 1 254 62 view .LVU224
 705 009c 02FB03F3 		mul	r3, r2, r3
 254:Drivers/lvgl/src/draw/sw/blend/lv_draw_sw_blend_to_argb8888_premultiplied.c **** 
 706              		.loc 1 254 82 view .LVU225
 707 00a0 1B12     		asrs	r3, r3, #8
 254:Drivers/lvgl/src/draw/sw/blend/lv_draw_sw_blend_to_argb8888_premultiplied.c **** 
 708              		.loc 1 254 42 view .LVU226
 709 00a2 8DF82430 		strb	r3, [sp, #36]
 256:Drivers/lvgl/src/draw/sw/blend/lv_draw_sw_blend_to_argb8888_premultiplied.c ****                     }
 710              		.loc 1 256 25 is_stmt 1 view .LVU227
 256:Drivers/lvgl/src/draw/sw/blend/lv_draw_sw_blend_to_argb8888_premultiplied.c ****                     }
 711              		.loc 1 256 93 is_stmt 0 view .LVU228
 712 00a6 05EB8407 		add	r7, r5, r4, lsl #2
 256:Drivers/lvgl/src/draw/sw/blend/lv_draw_sw_blend_to_argb8888_premultiplied.c ****                     }
 713              		.loc 1 256 43 view .LVU229
 714 00aa 05AA     		add	r2, sp, #20
 715 00ac 55F82410 		ldr	r1, [r5, r4, lsl #2]	@ unaligned
 716 00b0 0998     		ldr	r0, [sp, #36]
 717 00b2 FFF7FEFF 		bl	lv_color_32_32_mix_premul
 718              	.LVL49:
 719 00b6 05F82400 		strb	r0, [r5, r4, lsl #2]
 720 00ba C0F30723 		ubfx	r3, r0, #8, #8
 721 00be 7B70     		strb	r3, [r7, #1]
 722 00c0 C0F30743 		ubfx	r3, r0, #16, #8
 723 00c4 BB70     		strb	r3, [r7, #2]
ARM GAS  /tmp/ccGpYpzg.s 			page 29


 724 00c6 C0F30760 		ubfx	r0, r0, #24, #8
 725 00ca F870     		strb	r0, [r7, #3]
 248:Drivers/lvgl/src/draw/sw/blend/lv_draw_sw_blend_to_argb8888_premultiplied.c ****                         color_argb = src_buf_c32[x];
 726              		.loc 1 248 40 is_stmt 1 discriminator 3 view .LVU230
 727 00cc 0134     		adds	r4, r4, #1
 728              	.LVL50:
 729              	.L36:
 248:Drivers/lvgl/src/draw/sw/blend/lv_draw_sw_blend_to_argb8888_premultiplied.c ****                         color_argb = src_buf_c32[x];
 730              		.loc 1 248 34 discriminator 1 view .LVU231
 731 00ce 4445     		cmp	r4, r8
 732 00d0 CFDB     		blt	.L35
 258:Drivers/lvgl/src/draw/sw/blend/lv_draw_sw_blend_to_argb8888_premultiplied.c ****                     src_buf_c32 = drawbuf_next_row(src_buf_c32, src_stride);
 733              		.loc 1 258 21 view .LVU232
 734              	.LVL51:
 735              	.LBB73:
 736              	.LBI73:
 574:Drivers/lvgl/src/draw/sw/blend/lv_draw_sw_blend_to_argb8888_premultiplied.c **** {
 737              		.loc 1 574 44 view .LVU233
 738              	.LBB74:
 576:Drivers/lvgl/src/draw/sw/blend/lv_draw_sw_blend_to_argb8888_premultiplied.c **** }
 739              		.loc 1 576 5 view .LVU234
 576:Drivers/lvgl/src/draw/sw/blend/lv_draw_sw_blend_to_argb8888_premultiplied.c **** }
 740              		.loc 1 576 12 is_stmt 0 view .LVU235
 741 00d2 009B     		ldr	r3, [sp]
 742 00d4 1D44     		add	r5, r5, r3
 743              	.LVL52:
 576:Drivers/lvgl/src/draw/sw/blend/lv_draw_sw_blend_to_argb8888_premultiplied.c **** }
 744              		.loc 1 576 12 view .LVU236
 745              	.LBE74:
 746              	.LBE73:
 259:Drivers/lvgl/src/draw/sw/blend/lv_draw_sw_blend_to_argb8888_premultiplied.c ****                 }
 747              		.loc 1 259 21 is_stmt 1 view .LVU237
 748              	.LBB75:
 749              	.LBI75:
 574:Drivers/lvgl/src/draw/sw/blend/lv_draw_sw_blend_to_argb8888_premultiplied.c **** {
 750              		.loc 1 574 44 view .LVU238
 751              	.LBB76:
 576:Drivers/lvgl/src/draw/sw/blend/lv_draw_sw_blend_to_argb8888_premultiplied.c **** }
 752              		.loc 1 576 5 view .LVU239
 576:Drivers/lvgl/src/draw/sw/blend/lv_draw_sw_blend_to_argb8888_premultiplied.c **** }
 753              		.loc 1 576 12 is_stmt 0 view .LVU240
 754 00d6 5644     		add	r6, r6, r10
 755              	.LVL53:
 576:Drivers/lvgl/src/draw/sw/blend/lv_draw_sw_blend_to_argb8888_premultiplied.c **** }
 756              		.loc 1 576 12 view .LVU241
 757              	.LBE76:
 758              	.LBE75:
 247:Drivers/lvgl/src/draw/sw/blend/lv_draw_sw_blend_to_argb8888_premultiplied.c ****                     for(x = 0; x < w; x++) {
 759              		.loc 1 247 36 is_stmt 1 discriminator 2 view .LVU242
 760 00d8 09F10109 		add	r9, r9, #1
 761              	.LVL54:
 762              	.L33:
 247:Drivers/lvgl/src/draw/sw/blend/lv_draw_sw_blend_to_argb8888_premultiplied.c ****                     for(x = 0; x < w; x++) {
 763              		.loc 1 247 30 discriminator 1 view .LVU243
 764 00dc D945     		cmp	r9, fp
 765 00de C5DA     		bge	.L31
 248:Drivers/lvgl/src/draw/sw/blend/lv_draw_sw_blend_to_argb8888_premultiplied.c ****                         color_argb = src_buf_c32[x];
ARM GAS  /tmp/ccGpYpzg.s 			page 30


 766              		.loc 1 248 27 is_stmt 0 view .LVU244
 767 00e0 0024     		movs	r4, #0
 768 00e2 F4E7     		b	.L36
 769              	.LVL55:
 770              	.L55:
 247:Drivers/lvgl/src/draw/sw/blend/lv_draw_sw_blend_to_argb8888_premultiplied.c ****                     for(x = 0; x < w; x++) {
 771              		.loc 1 247 23 view .LVU245
 772 00e4 4FF00009 		mov	r9, #0
 773              	.LVL56:
 247:Drivers/lvgl/src/draw/sw/blend/lv_draw_sw_blend_to_argb8888_premultiplied.c ****                     for(x = 0; x < w; x++) {
 774              		.loc 1 247 23 view .LVU246
 775 00e8 DDF804A0 		ldr	r10, [sp, #4]
 776              	.LVL57:
 247:Drivers/lvgl/src/draw/sw/blend/lv_draw_sw_blend_to_argb8888_premultiplied.c ****                     for(x = 0; x < w; x++) {
 777              		.loc 1 247 23 view .LVU247
 778 00ec F6E7     		b	.L33
 779              	.LVL58:
 780              	.L40:
 267:Drivers/lvgl/src/draw/sw/blend/lv_draw_sw_blend_to_argb8888_premultiplied.c **** 
 781              		.loc 1 267 25 is_stmt 1 view .LVU248
 267:Drivers/lvgl/src/draw/sw/blend/lv_draw_sw_blend_to_argb8888_premultiplied.c **** 
 782              		.loc 1 267 36 is_stmt 0 view .LVU249
 783 00ee 56F82400 		ldr	r0, [r6, r4, lsl #2]	@ unaligned
 784 00f2 0990     		str	r0, [sp, #36]
 270:Drivers/lvgl/src/draw/sw/blend/lv_draw_sw_blend_to_argb8888_premultiplied.c **** 
 785              		.loc 1 270 25 is_stmt 1 view .LVU250
 270:Drivers/lvgl/src/draw/sw/blend/lv_draw_sw_blend_to_argb8888_premultiplied.c **** 
 786              		.loc 1 270 44 is_stmt 0 view .LVU251
 787 00f4 9DF82730 		ldrb	r3, [sp, #39]	@ zero_extendqisi2
 788 00f8 03FB0AF3 		mul	r3, r3, r10
 789 00fc 1B0A     		lsrs	r3, r3, #8
 270:Drivers/lvgl/src/draw/sw/blend/lv_draw_sw_blend_to_argb8888_premultiplied.c **** 
 790              		.loc 1 270 42 view .LVU252
 791 00fe 8DF82730 		strb	r3, [sp, #39]
 273:Drivers/lvgl/src/draw/sw/blend/lv_draw_sw_blend_to_argb8888_premultiplied.c ****                         color_argb.green = (color_argb.green * color_argb.alpha) >> 8;
 792              		.loc 1 273 25 is_stmt 1 view .LVU253
 273:Drivers/lvgl/src/draw/sw/blend/lv_draw_sw_blend_to_argb8888_premultiplied.c ****                         color_argb.green = (color_argb.green * color_argb.alpha) >> 8;
 793              		.loc 1 273 55 is_stmt 0 view .LVU254
 794 0102 9DF82620 		ldrb	r2, [sp, #38]	@ zero_extendqisi2
 273:Drivers/lvgl/src/draw/sw/blend/lv_draw_sw_blend_to_argb8888_premultiplied.c ****                         color_argb.green = (color_argb.green * color_argb.alpha) >> 8;
 795              		.loc 1 273 62 view .LVU255
 796 0106 03FB02F2 		mul	r2, r3, r2
 273:Drivers/lvgl/src/draw/sw/blend/lv_draw_sw_blend_to_argb8888_premultiplied.c ****                         color_argb.green = (color_argb.green * color_argb.alpha) >> 8;
 797              		.loc 1 273 82 view .LVU256
 798 010a 1212     		asrs	r2, r2, #8
 273:Drivers/lvgl/src/draw/sw/blend/lv_draw_sw_blend_to_argb8888_premultiplied.c ****                         color_argb.green = (color_argb.green * color_argb.alpha) >> 8;
 799              		.loc 1 273 42 view .LVU257
 800 010c 8DF82620 		strb	r2, [sp, #38]
 274:Drivers/lvgl/src/draw/sw/blend/lv_draw_sw_blend_to_argb8888_premultiplied.c ****                         color_argb.blue  = (color_argb.blue  * color_argb.alpha) >> 8;
 801              		.loc 1 274 25 is_stmt 1 view .LVU258
 274:Drivers/lvgl/src/draw/sw/blend/lv_draw_sw_blend_to_argb8888_premultiplied.c ****                         color_argb.blue  = (color_argb.blue  * color_argb.alpha) >> 8;
 802              		.loc 1 274 55 is_stmt 0 view .LVU259
 803 0110 9DF82520 		ldrb	r2, [sp, #37]	@ zero_extendqisi2
 274:Drivers/lvgl/src/draw/sw/blend/lv_draw_sw_blend_to_argb8888_premultiplied.c ****                         color_argb.blue  = (color_argb.blue  * color_argb.alpha) >> 8;
 804              		.loc 1 274 62 view .LVU260
 805 0114 03FB02F2 		mul	r2, r3, r2
 274:Drivers/lvgl/src/draw/sw/blend/lv_draw_sw_blend_to_argb8888_premultiplied.c ****                         color_argb.blue  = (color_argb.blue  * color_argb.alpha) >> 8;
ARM GAS  /tmp/ccGpYpzg.s 			page 31


 806              		.loc 1 274 82 view .LVU261
 807 0118 1212     		asrs	r2, r2, #8
 274:Drivers/lvgl/src/draw/sw/blend/lv_draw_sw_blend_to_argb8888_premultiplied.c ****                         color_argb.blue  = (color_argb.blue  * color_argb.alpha) >> 8;
 808              		.loc 1 274 42 view .LVU262
 809 011a 8DF82520 		strb	r2, [sp, #37]
 275:Drivers/lvgl/src/draw/sw/blend/lv_draw_sw_blend_to_argb8888_premultiplied.c **** 
 810              		.loc 1 275 25 is_stmt 1 view .LVU263
 275:Drivers/lvgl/src/draw/sw/blend/lv_draw_sw_blend_to_argb8888_premultiplied.c **** 
 811              		.loc 1 275 55 is_stmt 0 view .LVU264
 812 011e 9DF82420 		ldrb	r2, [sp, #36]	@ zero_extendqisi2
 275:Drivers/lvgl/src/draw/sw/blend/lv_draw_sw_blend_to_argb8888_premultiplied.c **** 
 813              		.loc 1 275 62 view .LVU265
 814 0122 02FB03F3 		mul	r3, r2, r3
 275:Drivers/lvgl/src/draw/sw/blend/lv_draw_sw_blend_to_argb8888_premultiplied.c **** 
 815              		.loc 1 275 82 view .LVU266
 816 0126 1B12     		asrs	r3, r3, #8
 275:Drivers/lvgl/src/draw/sw/blend/lv_draw_sw_blend_to_argb8888_premultiplied.c **** 
 817              		.loc 1 275 42 view .LVU267
 818 0128 8DF82430 		strb	r3, [sp, #36]
 277:Drivers/lvgl/src/draw/sw/blend/lv_draw_sw_blend_to_argb8888_premultiplied.c ****                     }
 819              		.loc 1 277 25 is_stmt 1 view .LVU268
 277:Drivers/lvgl/src/draw/sw/blend/lv_draw_sw_blend_to_argb8888_premultiplied.c ****                     }
 820              		.loc 1 277 93 is_stmt 0 view .LVU269
 821 012c 05EB8409 		add	r9, r5, r4, lsl #2
 277:Drivers/lvgl/src/draw/sw/blend/lv_draw_sw_blend_to_argb8888_premultiplied.c ****                     }
 822              		.loc 1 277 43 view .LVU270
 823 0130 05AA     		add	r2, sp, #20
 824 0132 55F82410 		ldr	r1, [r5, r4, lsl #2]	@ unaligned
 825 0136 0998     		ldr	r0, [sp, #36]
 826 0138 FFF7FEFF 		bl	lv_color_32_32_mix_premul
 827              	.LVL59:
 828 013c 05F82400 		strb	r0, [r5, r4, lsl #2]
 829 0140 C0F30723 		ubfx	r3, r0, #8, #8
 830 0144 89F80130 		strb	r3, [r9, #1]
 831 0148 C0F30743 		ubfx	r3, r0, #16, #8
 832 014c 89F80230 		strb	r3, [r9, #2]
 833 0150 C0F30760 		ubfx	r0, r0, #24, #8
 834 0154 89F80300 		strb	r0, [r9, #3]
 266:Drivers/lvgl/src/draw/sw/blend/lv_draw_sw_blend_to_argb8888_premultiplied.c ****                         color_argb = src_buf_c32[x];
 835              		.loc 1 266 40 is_stmt 1 discriminator 3 view .LVU271
 836 0158 0134     		adds	r4, r4, #1
 837              	.LVL60:
 838              	.L41:
 266:Drivers/lvgl/src/draw/sw/blend/lv_draw_sw_blend_to_argb8888_premultiplied.c ****                         color_argb = src_buf_c32[x];
 839              		.loc 1 266 34 discriminator 1 view .LVU272
 840 015a 4445     		cmp	r4, r8
 841 015c C7DB     		blt	.L40
 842              	.LBB77:
 843              	.LBB78:
 576:Drivers/lvgl/src/draw/sw/blend/lv_draw_sw_blend_to_argb8888_premultiplied.c **** }
 844              		.loc 1 576 12 is_stmt 0 view .LVU273
 845 015e DDF80490 		ldr	r9, [sp, #4]
 846              	.LBE78:
 847              	.LBE77:
 279:Drivers/lvgl/src/draw/sw/blend/lv_draw_sw_blend_to_argb8888_premultiplied.c ****                     src_buf_c32 = drawbuf_next_row(src_buf_c32, src_stride);
 848              		.loc 1 279 21 is_stmt 1 view .LVU274
 849              	.LVL61:
ARM GAS  /tmp/ccGpYpzg.s 			page 32


 850              	.LBB80:
 851              	.LBI77:
 574:Drivers/lvgl/src/draw/sw/blend/lv_draw_sw_blend_to_argb8888_premultiplied.c **** {
 852              		.loc 1 574 44 view .LVU275
 853              	.LBB79:
 576:Drivers/lvgl/src/draw/sw/blend/lv_draw_sw_blend_to_argb8888_premultiplied.c **** }
 854              		.loc 1 576 5 view .LVU276
 576:Drivers/lvgl/src/draw/sw/blend/lv_draw_sw_blend_to_argb8888_premultiplied.c **** }
 855              		.loc 1 576 12 is_stmt 0 view .LVU277
 856 0162 009B     		ldr	r3, [sp]
 857 0164 1D44     		add	r5, r5, r3
 858              	.LVL62:
 576:Drivers/lvgl/src/draw/sw/blend/lv_draw_sw_blend_to_argb8888_premultiplied.c **** }
 859              		.loc 1 576 12 view .LVU278
 860              	.LBE79:
 861              	.LBE80:
 280:Drivers/lvgl/src/draw/sw/blend/lv_draw_sw_blend_to_argb8888_premultiplied.c ****                 }
 862              		.loc 1 280 21 is_stmt 1 view .LVU279
 863              	.LBB81:
 864              	.LBI81:
 574:Drivers/lvgl/src/draw/sw/blend/lv_draw_sw_blend_to_argb8888_premultiplied.c **** {
 865              		.loc 1 574 44 view .LVU280
 866              	.LBB82:
 576:Drivers/lvgl/src/draw/sw/blend/lv_draw_sw_blend_to_argb8888_premultiplied.c **** }
 867              		.loc 1 576 5 view .LVU281
 576:Drivers/lvgl/src/draw/sw/blend/lv_draw_sw_blend_to_argb8888_premultiplied.c **** }
 868              		.loc 1 576 12 is_stmt 0 view .LVU282
 869 0166 3E44     		add	r6, r6, r7
 870              	.LVL63:
 576:Drivers/lvgl/src/draw/sw/blend/lv_draw_sw_blend_to_argb8888_premultiplied.c **** }
 871              		.loc 1 576 12 view .LVU283
 872              	.LBE82:
 873              	.LBE81:
 265:Drivers/lvgl/src/draw/sw/blend/lv_draw_sw_blend_to_argb8888_premultiplied.c ****                     for(x = 0; x < w; x++) {
 874              		.loc 1 265 36 is_stmt 1 discriminator 2 view .LVU284
 875 0168 09F10109 		add	r9, r9, #1
 876              	.LVL64:
 877              	.L38:
 265:Drivers/lvgl/src/draw/sw/blend/lv_draw_sw_blend_to_argb8888_premultiplied.c ****                     for(x = 0; x < w; x++) {
 878              		.loc 1 265 30 discriminator 1 view .LVU285
 879 016c D945     		cmp	r9, fp
 880 016e BFF67DAF 		bge	.L31
 266:Drivers/lvgl/src/draw/sw/blend/lv_draw_sw_blend_to_argb8888_premultiplied.c ****                         color_argb = src_buf_c32[x];
 881              		.loc 1 266 27 is_stmt 0 view .LVU286
 882 0172 0024     		movs	r4, #0
 883 0174 CDF80490 		str	r9, [sp, #4]
 884 0178 EFE7     		b	.L41
 885              	.LVL65:
 886              	.L57:
 265:Drivers/lvgl/src/draw/sw/blend/lv_draw_sw_blend_to_argb8888_premultiplied.c ****                     for(x = 0; x < w; x++) {
 887              		.loc 1 265 23 view .LVU287
 888 017a 0027     		movs	r7, #0
 889              	.LVL66:
 265:Drivers/lvgl/src/draw/sw/blend/lv_draw_sw_blend_to_argb8888_premultiplied.c ****                     for(x = 0; x < w; x++) {
 890              		.loc 1 265 23 view .LVU288
 891 017c B946     		mov	r9, r7
 892              	.LVL67:
ARM GAS  /tmp/ccGpYpzg.s 			page 33


 265:Drivers/lvgl/src/draw/sw/blend/lv_draw_sw_blend_to_argb8888_premultiplied.c ****                     for(x = 0; x < w; x++) {
 893              		.loc 1 265 23 view .LVU289
 894 017e 019F     		ldr	r7, [sp, #4]
 895 0180 F4E7     		b	.L38
 896              	.LVL68:
 897              	.L44:
 288:Drivers/lvgl/src/draw/sw/blend/lv_draw_sw_blend_to_argb8888_premultiplied.c **** 
 898              		.loc 1 288 25 is_stmt 1 view .LVU290
 288:Drivers/lvgl/src/draw/sw/blend/lv_draw_sw_blend_to_argb8888_premultiplied.c **** 
 899              		.loc 1 288 36 is_stmt 0 view .LVU291
 900 0182 56F82400 		ldr	r0, [r6, r4, lsl #2]	@ unaligned
 901 0186 0990     		str	r0, [sp, #36]
 291:Drivers/lvgl/src/draw/sw/blend/lv_draw_sw_blend_to_argb8888_premultiplied.c **** 
 902              		.loc 1 291 25 is_stmt 1 view .LVU292
 291:Drivers/lvgl/src/draw/sw/blend/lv_draw_sw_blend_to_argb8888_premultiplied.c **** 
 903              		.loc 1 291 44 is_stmt 0 view .LVU293
 904 0188 9DF82730 		ldrb	r3, [sp, #39]	@ zero_extendqisi2
 905 018c 3A5D     		ldrb	r2, [r7, r4]	@ zero_extendqisi2
 906 018e 02FB03F3 		mul	r3, r2, r3
 907 0192 1B0A     		lsrs	r3, r3, #8
 291:Drivers/lvgl/src/draw/sw/blend/lv_draw_sw_blend_to_argb8888_premultiplied.c **** 
 908              		.loc 1 291 42 view .LVU294
 909 0194 8DF82730 		strb	r3, [sp, #39]
 294:Drivers/lvgl/src/draw/sw/blend/lv_draw_sw_blend_to_argb8888_premultiplied.c ****                         color_argb.green = (color_argb.green * color_argb.alpha) >> 8;
 910              		.loc 1 294 25 is_stmt 1 view .LVU295
 294:Drivers/lvgl/src/draw/sw/blend/lv_draw_sw_blend_to_argb8888_premultiplied.c ****                         color_argb.green = (color_argb.green * color_argb.alpha) >> 8;
 911              		.loc 1 294 55 is_stmt 0 view .LVU296
 912 0198 9DF82620 		ldrb	r2, [sp, #38]	@ zero_extendqisi2
 294:Drivers/lvgl/src/draw/sw/blend/lv_draw_sw_blend_to_argb8888_premultiplied.c ****                         color_argb.green = (color_argb.green * color_argb.alpha) >> 8;
 913              		.loc 1 294 62 view .LVU297
 914 019c 03FB02F2 		mul	r2, r3, r2
 294:Drivers/lvgl/src/draw/sw/blend/lv_draw_sw_blend_to_argb8888_premultiplied.c ****                         color_argb.green = (color_argb.green * color_argb.alpha) >> 8;
 915              		.loc 1 294 82 view .LVU298
 916 01a0 1212     		asrs	r2, r2, #8
 294:Drivers/lvgl/src/draw/sw/blend/lv_draw_sw_blend_to_argb8888_premultiplied.c ****                         color_argb.green = (color_argb.green * color_argb.alpha) >> 8;
 917              		.loc 1 294 42 view .LVU299
 918 01a2 8DF82620 		strb	r2, [sp, #38]
 295:Drivers/lvgl/src/draw/sw/blend/lv_draw_sw_blend_to_argb8888_premultiplied.c ****                         color_argb.blue  = (color_argb.blue  * color_argb.alpha) >> 8;
 919              		.loc 1 295 25 is_stmt 1 view .LVU300
 295:Drivers/lvgl/src/draw/sw/blend/lv_draw_sw_blend_to_argb8888_premultiplied.c ****                         color_argb.blue  = (color_argb.blue  * color_argb.alpha) >> 8;
 920              		.loc 1 295 55 is_stmt 0 view .LVU301
 921 01a6 9DF82520 		ldrb	r2, [sp, #37]	@ zero_extendqisi2
 295:Drivers/lvgl/src/draw/sw/blend/lv_draw_sw_blend_to_argb8888_premultiplied.c ****                         color_argb.blue  = (color_argb.blue  * color_argb.alpha) >> 8;
 922              		.loc 1 295 62 view .LVU302
 923 01aa 03FB02F2 		mul	r2, r3, r2
 295:Drivers/lvgl/src/draw/sw/blend/lv_draw_sw_blend_to_argb8888_premultiplied.c ****                         color_argb.blue  = (color_argb.blue  * color_argb.alpha) >> 8;
 924              		.loc 1 295 82 view .LVU303
 925 01ae 1212     		asrs	r2, r2, #8
 295:Drivers/lvgl/src/draw/sw/blend/lv_draw_sw_blend_to_argb8888_premultiplied.c ****                         color_argb.blue  = (color_argb.blue  * color_argb.alpha) >> 8;
 926              		.loc 1 295 42 view .LVU304
 927 01b0 8DF82520 		strb	r2, [sp, #37]
 296:Drivers/lvgl/src/draw/sw/blend/lv_draw_sw_blend_to_argb8888_premultiplied.c **** 
 928              		.loc 1 296 25 is_stmt 1 view .LVU305
 296:Drivers/lvgl/src/draw/sw/blend/lv_draw_sw_blend_to_argb8888_premultiplied.c **** 
 929              		.loc 1 296 55 is_stmt 0 view .LVU306
 930 01b4 9DF82420 		ldrb	r2, [sp, #36]	@ zero_extendqisi2
 296:Drivers/lvgl/src/draw/sw/blend/lv_draw_sw_blend_to_argb8888_premultiplied.c **** 
ARM GAS  /tmp/ccGpYpzg.s 			page 34


 931              		.loc 1 296 62 view .LVU307
 932 01b8 02FB03F3 		mul	r3, r2, r3
 296:Drivers/lvgl/src/draw/sw/blend/lv_draw_sw_blend_to_argb8888_premultiplied.c **** 
 933              		.loc 1 296 82 view .LVU308
 934 01bc 1B12     		asrs	r3, r3, #8
 296:Drivers/lvgl/src/draw/sw/blend/lv_draw_sw_blend_to_argb8888_premultiplied.c **** 
 935              		.loc 1 296 42 view .LVU309
 936 01be 8DF82430 		strb	r3, [sp, #36]
 298:Drivers/lvgl/src/draw/sw/blend/lv_draw_sw_blend_to_argb8888_premultiplied.c ****                     }
 937              		.loc 1 298 25 is_stmt 1 view .LVU310
 298:Drivers/lvgl/src/draw/sw/blend/lv_draw_sw_blend_to_argb8888_premultiplied.c ****                     }
 938              		.loc 1 298 93 is_stmt 0 view .LVU311
 939 01c2 05EB840A 		add	r10, r5, r4, lsl #2
 298:Drivers/lvgl/src/draw/sw/blend/lv_draw_sw_blend_to_argb8888_premultiplied.c ****                     }
 940              		.loc 1 298 43 view .LVU312
 941 01c6 05AA     		add	r2, sp, #20
 942 01c8 55F82410 		ldr	r1, [r5, r4, lsl #2]	@ unaligned
 943 01cc 0998     		ldr	r0, [sp, #36]
 944 01ce FFF7FEFF 		bl	lv_color_32_32_mix_premul
 945              	.LVL69:
 946 01d2 05F82400 		strb	r0, [r5, r4, lsl #2]
 947 01d6 C0F30723 		ubfx	r3, r0, #8, #8
 948 01da 8AF80130 		strb	r3, [r10, #1]
 949 01de C0F30743 		ubfx	r3, r0, #16, #8
 950 01e2 8AF80230 		strb	r3, [r10, #2]
 951 01e6 C0F30760 		ubfx	r0, r0, #24, #8
 952 01ea 8AF80300 		strb	r0, [r10, #3]
 287:Drivers/lvgl/src/draw/sw/blend/lv_draw_sw_blend_to_argb8888_premultiplied.c ****                         color_argb = src_buf_c32[x];
 953              		.loc 1 287 40 is_stmt 1 discriminator 3 view .LVU313
 954 01ee 0134     		adds	r4, r4, #1
 955              	.LVL70:
 956              	.L45:
 287:Drivers/lvgl/src/draw/sw/blend/lv_draw_sw_blend_to_argb8888_premultiplied.c ****                         color_argb = src_buf_c32[x];
 957              		.loc 1 287 34 discriminator 1 view .LVU314
 958 01f0 4445     		cmp	r4, r8
 959 01f2 C6DB     		blt	.L44
 960              	.LBB83:
 961              	.LBB84:
 576:Drivers/lvgl/src/draw/sw/blend/lv_draw_sw_blend_to_argb8888_premultiplied.c **** }
 962              		.loc 1 576 12 is_stmt 0 view .LVU315
 963 01f4 DDF808A0 		ldr	r10, [sp, #8]
 964              	.LBE84:
 965              	.LBE83:
 300:Drivers/lvgl/src/draw/sw/blend/lv_draw_sw_blend_to_argb8888_premultiplied.c ****                     src_buf_c32 = drawbuf_next_row(src_buf_c32, src_stride);
 966              		.loc 1 300 21 is_stmt 1 view .LVU316
 967              	.LVL71:
 968              	.LBB86:
 969              	.LBI83:
 574:Drivers/lvgl/src/draw/sw/blend/lv_draw_sw_blend_to_argb8888_premultiplied.c **** {
 970              		.loc 1 574 44 view .LVU317
 971              	.LBB85:
 576:Drivers/lvgl/src/draw/sw/blend/lv_draw_sw_blend_to_argb8888_premultiplied.c **** }
 972              		.loc 1 576 5 view .LVU318
 576:Drivers/lvgl/src/draw/sw/blend/lv_draw_sw_blend_to_argb8888_premultiplied.c **** }
 973              		.loc 1 576 12 is_stmt 0 view .LVU319
 974 01f8 009B     		ldr	r3, [sp]
 975 01fa 1D44     		add	r5, r5, r3
ARM GAS  /tmp/ccGpYpzg.s 			page 35


 976              	.LVL72:
 576:Drivers/lvgl/src/draw/sw/blend/lv_draw_sw_blend_to_argb8888_premultiplied.c **** }
 977              		.loc 1 576 12 view .LVU320
 978              	.LBE85:
 979              	.LBE86:
 301:Drivers/lvgl/src/draw/sw/blend/lv_draw_sw_blend_to_argb8888_premultiplied.c ****                     mask_buf += mask_stride;
 980              		.loc 1 301 21 is_stmt 1 view .LVU321
 981              	.LBB87:
 982              	.LBI87:
 574:Drivers/lvgl/src/draw/sw/blend/lv_draw_sw_blend_to_argb8888_premultiplied.c **** {
 983              		.loc 1 574 44 view .LVU322
 984              	.LBB88:
 576:Drivers/lvgl/src/draw/sw/blend/lv_draw_sw_blend_to_argb8888_premultiplied.c **** }
 985              		.loc 1 576 5 view .LVU323
 576:Drivers/lvgl/src/draw/sw/blend/lv_draw_sw_blend_to_argb8888_premultiplied.c **** }
 986              		.loc 1 576 12 is_stmt 0 view .LVU324
 987 01fc 019B     		ldr	r3, [sp, #4]
 988 01fe 1E44     		add	r6, r6, r3
 989              	.LVL73:
 576:Drivers/lvgl/src/draw/sw/blend/lv_draw_sw_blend_to_argb8888_premultiplied.c **** }
 990              		.loc 1 576 12 view .LVU325
 991              	.LBE88:
 992              	.LBE87:
 302:Drivers/lvgl/src/draw/sw/blend/lv_draw_sw_blend_to_argb8888_premultiplied.c ****                 }
 993              		.loc 1 302 21 is_stmt 1 view .LVU326
 302:Drivers/lvgl/src/draw/sw/blend/lv_draw_sw_blend_to_argb8888_premultiplied.c ****                 }
 994              		.loc 1 302 30 is_stmt 0 view .LVU327
 995 0200 4F44     		add	r7, r7, r9
 996              	.LVL74:
 286:Drivers/lvgl/src/draw/sw/blend/lv_draw_sw_blend_to_argb8888_premultiplied.c ****                     for(x = 0; x < w; x++) {
 997              		.loc 1 286 36 is_stmt 1 discriminator 2 view .LVU328
 998 0202 0AF1010A 		add	r10, r10, #1
 999              	.LVL75:
 1000              	.L42:
 286:Drivers/lvgl/src/draw/sw/blend/lv_draw_sw_blend_to_argb8888_premultiplied.c ****                     for(x = 0; x < w; x++) {
 1001              		.loc 1 286 30 discriminator 1 view .LVU329
 1002 0206 DA45     		cmp	r10, fp
 1003 0208 BFF630AF 		bge	.L31
 287:Drivers/lvgl/src/draw/sw/blend/lv_draw_sw_blend_to_argb8888_premultiplied.c ****                         color_argb = src_buf_c32[x];
 1004              		.loc 1 287 27 is_stmt 0 view .LVU330
 1005 020c 0024     		movs	r4, #0
 1006 020e CDF808A0 		str	r10, [sp, #8]
 1007 0212 EDE7     		b	.L45
 1008              	.LVL76:
 1009              	.L59:
 286:Drivers/lvgl/src/draw/sw/blend/lv_draw_sw_blend_to_argb8888_premultiplied.c ****                     for(x = 0; x < w; x++) {
 1010              		.loc 1 286 23 view .LVU331
 1011 0214 4FF00009 		mov	r9, #0
 1012              	.LVL77:
 286:Drivers/lvgl/src/draw/sw/blend/lv_draw_sw_blend_to_argb8888_premultiplied.c ****                     for(x = 0; x < w; x++) {
 1013              		.loc 1 286 23 view .LVU332
 1014 0218 CA46     		mov	r10, r9
 1015              	.LVL78:
 286:Drivers/lvgl/src/draw/sw/blend/lv_draw_sw_blend_to_argb8888_premultiplied.c ****                     for(x = 0; x < w; x++) {
 1016              		.loc 1 286 23 view .LVU333
 1017 021a DDF80C90 		ldr	r9, [sp, #12]
 1018 021e F2E7     		b	.L42
ARM GAS  /tmp/ccGpYpzg.s 			page 36


 1019              	.LVL79:
 1020              	.L47:
 310:Drivers/lvgl/src/draw/sw/blend/lv_draw_sw_blend_to_argb8888_premultiplied.c **** 
 1021              		.loc 1 310 25 is_stmt 1 view .LVU334
 310:Drivers/lvgl/src/draw/sw/blend/lv_draw_sw_blend_to_argb8888_premultiplied.c **** 
 1022              		.loc 1 310 36 is_stmt 0 view .LVU335
 1023 0220 57F82400 		ldr	r0, [r7, r4, lsl #2]	@ unaligned
 1024 0224 0990     		str	r0, [sp, #36]
 313:Drivers/lvgl/src/draw/sw/blend/lv_draw_sw_blend_to_argb8888_premultiplied.c **** 
 1025              		.loc 1 313 25 is_stmt 1 view .LVU336
 313:Drivers/lvgl/src/draw/sw/blend/lv_draw_sw_blend_to_argb8888_premultiplied.c **** 
 1026              		.loc 1 313 44 is_stmt 0 view .LVU337
 1027 0226 9DF82730 		ldrb	r3, [sp, #39]	@ zero_extendqisi2
 1028 022a 03FB0AF3 		mul	r3, r3, r10
 1029 022e 19F80420 		ldrb	r2, [r9, r4]	@ zero_extendqisi2
 1030 0232 02FB03F3 		mul	r3, r2, r3
 1031 0236 1B0C     		lsrs	r3, r3, #16
 313:Drivers/lvgl/src/draw/sw/blend/lv_draw_sw_blend_to_argb8888_premultiplied.c **** 
 1032              		.loc 1 313 42 view .LVU338
 1033 0238 8DF82730 		strb	r3, [sp, #39]
 316:Drivers/lvgl/src/draw/sw/blend/lv_draw_sw_blend_to_argb8888_premultiplied.c ****                         color_argb.green = (color_argb.green * color_argb.alpha) >> 8;
 1034              		.loc 1 316 25 is_stmt 1 view .LVU339
 316:Drivers/lvgl/src/draw/sw/blend/lv_draw_sw_blend_to_argb8888_premultiplied.c ****                         color_argb.green = (color_argb.green * color_argb.alpha) >> 8;
 1035              		.loc 1 316 55 is_stmt 0 view .LVU340
 1036 023c 9DF82620 		ldrb	r2, [sp, #38]	@ zero_extendqisi2
 316:Drivers/lvgl/src/draw/sw/blend/lv_draw_sw_blend_to_argb8888_premultiplied.c ****                         color_argb.green = (color_argb.green * color_argb.alpha) >> 8;
 1037              		.loc 1 316 62 view .LVU341
 1038 0240 03FB02F2 		mul	r2, r3, r2
 316:Drivers/lvgl/src/draw/sw/blend/lv_draw_sw_blend_to_argb8888_premultiplied.c ****                         color_argb.green = (color_argb.green * color_argb.alpha) >> 8;
 1039              		.loc 1 316 82 view .LVU342
 1040 0244 1212     		asrs	r2, r2, #8
 316:Drivers/lvgl/src/draw/sw/blend/lv_draw_sw_blend_to_argb8888_premultiplied.c ****                         color_argb.green = (color_argb.green * color_argb.alpha) >> 8;
 1041              		.loc 1 316 42 view .LVU343
 1042 0246 8DF82620 		strb	r2, [sp, #38]
 317:Drivers/lvgl/src/draw/sw/blend/lv_draw_sw_blend_to_argb8888_premultiplied.c ****                         color_argb.blue  = (color_argb.blue  * color_argb.alpha) >> 8;
 1043              		.loc 1 317 25 is_stmt 1 view .LVU344
 317:Drivers/lvgl/src/draw/sw/blend/lv_draw_sw_blend_to_argb8888_premultiplied.c ****                         color_argb.blue  = (color_argb.blue  * color_argb.alpha) >> 8;
 1044              		.loc 1 317 55 is_stmt 0 view .LVU345
 1045 024a 9DF82520 		ldrb	r2, [sp, #37]	@ zero_extendqisi2
 317:Drivers/lvgl/src/draw/sw/blend/lv_draw_sw_blend_to_argb8888_premultiplied.c ****                         color_argb.blue  = (color_argb.blue  * color_argb.alpha) >> 8;
 1046              		.loc 1 317 62 view .LVU346
 1047 024e 03FB02F2 		mul	r2, r3, r2
 317:Drivers/lvgl/src/draw/sw/blend/lv_draw_sw_blend_to_argb8888_premultiplied.c ****                         color_argb.blue  = (color_argb.blue  * color_argb.alpha) >> 8;
 1048              		.loc 1 317 82 view .LVU347
 1049 0252 1212     		asrs	r2, r2, #8
 317:Drivers/lvgl/src/draw/sw/blend/lv_draw_sw_blend_to_argb8888_premultiplied.c ****                         color_argb.blue  = (color_argb.blue  * color_argb.alpha) >> 8;
 1050              		.loc 1 317 42 view .LVU348
 1051 0254 8DF82520 		strb	r2, [sp, #37]
 318:Drivers/lvgl/src/draw/sw/blend/lv_draw_sw_blend_to_argb8888_premultiplied.c **** 
 1052              		.loc 1 318 25 is_stmt 1 view .LVU349
 318:Drivers/lvgl/src/draw/sw/blend/lv_draw_sw_blend_to_argb8888_premultiplied.c **** 
 1053              		.loc 1 318 55 is_stmt 0 view .LVU350
 1054 0258 9DF82420 		ldrb	r2, [sp, #36]	@ zero_extendqisi2
 318:Drivers/lvgl/src/draw/sw/blend/lv_draw_sw_blend_to_argb8888_premultiplied.c **** 
 1055              		.loc 1 318 62 view .LVU351
 1056 025c 02FB03F3 		mul	r3, r2, r3
 318:Drivers/lvgl/src/draw/sw/blend/lv_draw_sw_blend_to_argb8888_premultiplied.c **** 
ARM GAS  /tmp/ccGpYpzg.s 			page 37


 1057              		.loc 1 318 82 view .LVU352
 1058 0260 1B12     		asrs	r3, r3, #8
 318:Drivers/lvgl/src/draw/sw/blend/lv_draw_sw_blend_to_argb8888_premultiplied.c **** 
 1059              		.loc 1 318 42 view .LVU353
 1060 0262 8DF82430 		strb	r3, [sp, #36]
 320:Drivers/lvgl/src/draw/sw/blend/lv_draw_sw_blend_to_argb8888_premultiplied.c ****                     }
 1061              		.loc 1 320 25 is_stmt 1 view .LVU354
 320:Drivers/lvgl/src/draw/sw/blend/lv_draw_sw_blend_to_argb8888_premultiplied.c ****                     }
 1062              		.loc 1 320 93 is_stmt 0 view .LVU355
 1063 0266 06EB8405 		add	r5, r6, r4, lsl #2
 320:Drivers/lvgl/src/draw/sw/blend/lv_draw_sw_blend_to_argb8888_premultiplied.c ****                     }
 1064              		.loc 1 320 43 view .LVU356
 1065 026a 05AA     		add	r2, sp, #20
 1066 026c 56F82410 		ldr	r1, [r6, r4, lsl #2]	@ unaligned
 1067 0270 0998     		ldr	r0, [sp, #36]
 1068 0272 FFF7FEFF 		bl	lv_color_32_32_mix_premul
 1069              	.LVL80:
 1070 0276 06F82400 		strb	r0, [r6, r4, lsl #2]
 1071 027a C0F30723 		ubfx	r3, r0, #8, #8
 1072 027e 6B70     		strb	r3, [r5, #1]
 1073 0280 C0F30743 		ubfx	r3, r0, #16, #8
 1074 0284 AB70     		strb	r3, [r5, #2]
 1075 0286 C0F30760 		ubfx	r0, r0, #24, #8
 1076 028a E870     		strb	r0, [r5, #3]
 309:Drivers/lvgl/src/draw/sw/blend/lv_draw_sw_blend_to_argb8888_premultiplied.c ****                         color_argb = src_buf_c32[x];
 1077              		.loc 1 309 40 is_stmt 1 discriminator 3 view .LVU357
 1078 028c 0134     		adds	r4, r4, #1
 1079              	.LVL81:
 1080              	.L48:
 309:Drivers/lvgl/src/draw/sw/blend/lv_draw_sw_blend_to_argb8888_premultiplied.c ****                         color_argb = src_buf_c32[x];
 1081              		.loc 1 309 34 discriminator 1 view .LVU358
 1082 028e 4445     		cmp	r4, r8
 1083 0290 C6DB     		blt	.L47
 1084              	.LBB89:
 1085              	.LBB90:
 576:Drivers/lvgl/src/draw/sw/blend/lv_draw_sw_blend_to_argb8888_premultiplied.c **** }
 1086              		.loc 1 576 12 is_stmt 0 view .LVU359
 1087 0292 029D     		ldr	r5, [sp, #8]
 1088              	.LBE90:
 1089              	.LBE89:
 322:Drivers/lvgl/src/draw/sw/blend/lv_draw_sw_blend_to_argb8888_premultiplied.c ****                     src_buf_c32 = drawbuf_next_row(src_buf_c32, src_stride);
 1090              		.loc 1 322 21 is_stmt 1 view .LVU360
 1091              	.LVL82:
 1092              	.LBB92:
 1093              	.LBI89:
 574:Drivers/lvgl/src/draw/sw/blend/lv_draw_sw_blend_to_argb8888_premultiplied.c **** {
 1094              		.loc 1 574 44 view .LVU361
 1095              	.LBB91:
 576:Drivers/lvgl/src/draw/sw/blend/lv_draw_sw_blend_to_argb8888_premultiplied.c **** }
 1096              		.loc 1 576 5 view .LVU362
 576:Drivers/lvgl/src/draw/sw/blend/lv_draw_sw_blend_to_argb8888_premultiplied.c **** }
 1097              		.loc 1 576 12 is_stmt 0 view .LVU363
 1098 0294 009B     		ldr	r3, [sp]
 1099 0296 1E44     		add	r6, r6, r3
 1100              	.LVL83:
 576:Drivers/lvgl/src/draw/sw/blend/lv_draw_sw_blend_to_argb8888_premultiplied.c **** }
 1101              		.loc 1 576 12 view .LVU364
ARM GAS  /tmp/ccGpYpzg.s 			page 38


 1102              	.LBE91:
 1103              	.LBE92:
 323:Drivers/lvgl/src/draw/sw/blend/lv_draw_sw_blend_to_argb8888_premultiplied.c ****                     mask_buf += mask_stride;
 1104              		.loc 1 323 21 is_stmt 1 view .LVU365
 1105              	.LBB93:
 1106              	.LBI93:
 574:Drivers/lvgl/src/draw/sw/blend/lv_draw_sw_blend_to_argb8888_premultiplied.c **** {
 1107              		.loc 1 574 44 view .LVU366
 1108              	.LBB94:
 576:Drivers/lvgl/src/draw/sw/blend/lv_draw_sw_blend_to_argb8888_premultiplied.c **** }
 1109              		.loc 1 576 5 view .LVU367
 576:Drivers/lvgl/src/draw/sw/blend/lv_draw_sw_blend_to_argb8888_premultiplied.c **** }
 1110              		.loc 1 576 12 is_stmt 0 view .LVU368
 1111 0298 019B     		ldr	r3, [sp, #4]
 1112 029a 1F44     		add	r7, r7, r3
 1113              	.LVL84:
 576:Drivers/lvgl/src/draw/sw/blend/lv_draw_sw_blend_to_argb8888_premultiplied.c **** }
 1114              		.loc 1 576 12 view .LVU369
 1115              	.LBE94:
 1116              	.LBE93:
 324:Drivers/lvgl/src/draw/sw/blend/lv_draw_sw_blend_to_argb8888_premultiplied.c ****                 }
 1117              		.loc 1 324 21 is_stmt 1 view .LVU370
 324:Drivers/lvgl/src/draw/sw/blend/lv_draw_sw_blend_to_argb8888_premultiplied.c ****                 }
 1118              		.loc 1 324 30 is_stmt 0 view .LVU371
 1119 029c 039B     		ldr	r3, [sp, #12]
 1120 029e 9944     		add	r9, r9, r3
 1121              	.LVL85:
 308:Drivers/lvgl/src/draw/sw/blend/lv_draw_sw_blend_to_argb8888_premultiplied.c ****                     for(x = 0; x < w; x++) {
 1122              		.loc 1 308 36 is_stmt 1 discriminator 2 view .LVU372
 1123 02a0 0135     		adds	r5, r5, #1
 1124              	.LVL86:
 1125              	.L46:
 308:Drivers/lvgl/src/draw/sw/blend/lv_draw_sw_blend_to_argb8888_premultiplied.c ****                     for(x = 0; x < w; x++) {
 1126              		.loc 1 308 30 discriminator 1 view .LVU373
 1127 02a2 5D45     		cmp	r5, fp
 1128 02a4 BFF6E2AE 		bge	.L31
 309:Drivers/lvgl/src/draw/sw/blend/lv_draw_sw_blend_to_argb8888_premultiplied.c ****                         color_argb = src_buf_c32[x];
 1129              		.loc 1 309 27 is_stmt 0 view .LVU374
 1130 02a8 0024     		movs	r4, #0
 1131 02aa 0295     		str	r5, [sp, #8]
 1132 02ac EFE7     		b	.L48
 1133              	.LVL87:
 1134              	.L61:
 308:Drivers/lvgl/src/draw/sw/blend/lv_draw_sw_blend_to_argb8888_premultiplied.c ****                     for(x = 0; x < w; x++) {
 1135              		.loc 1 308 23 view .LVU375
 1136 02ae 4FF00009 		mov	r9, #0
 1137              	.LVL88:
 308:Drivers/lvgl/src/draw/sw/blend/lv_draw_sw_blend_to_argb8888_premultiplied.c ****                     for(x = 0; x < w; x++) {
 1138              		.loc 1 308 23 view .LVU376
 1139 02b2 4B46     		mov	r3, r9
 1140 02b4 B946     		mov	r9, r7
 1141 02b6 3746     		mov	r7, r6
 1142              	.LVL89:
 308:Drivers/lvgl/src/draw/sw/blend/lv_draw_sw_blend_to_argb8888_premultiplied.c ****                     for(x = 0; x < w; x++) {
 1143              		.loc 1 308 23 view .LVU377
 1144 02b8 2E46     		mov	r6, r5
 1145              	.LVL90:
ARM GAS  /tmp/ccGpYpzg.s 			page 39


 308:Drivers/lvgl/src/draw/sw/blend/lv_draw_sw_blend_to_argb8888_premultiplied.c ****                     for(x = 0; x < w; x++) {
 1146              		.loc 1 308 23 view .LVU378
 1147 02ba 1D46     		mov	r5, r3
 1148              	.LVL91:
 308:Drivers/lvgl/src/draw/sw/blend/lv_draw_sw_blend_to_argb8888_premultiplied.c ****                     for(x = 0; x < w; x++) {
 1149              		.loc 1 308 23 view .LVU379
 1150 02bc F1E7     		b	.L46
 1151              	.LVL92:
 1152              	.L49:
 338:Drivers/lvgl/src/draw/sw/blend/lv_draw_sw_blend_to_argb8888_premultiplied.c **** 
 1153              		.loc 1 338 21 is_stmt 1 view .LVU380
 338:Drivers/lvgl/src/draw/sw/blend/lv_draw_sw_blend_to_argb8888_premultiplied.c **** 
 1154              		.loc 1 338 40 is_stmt 0 view .LVU381
 1155 02be 9DF82730 		ldrb	r3, [sp, #39]	@ zero_extendqisi2
 1156 02c2 3A5D     		ldrb	r2, [r7, r4]	@ zero_extendqisi2
 1157 02c4 02FB03F3 		mul	r3, r2, r3
 1158 02c8 03FB0AF3 		mul	r3, r3, r10
 1159 02cc 1B0C     		lsrs	r3, r3, #16
 338:Drivers/lvgl/src/draw/sw/blend/lv_draw_sw_blend_to_argb8888_premultiplied.c **** 
 1160              		.loc 1 338 38 view .LVU382
 1161 02ce 8DF82730 		strb	r3, [sp, #39]
 1162              	.L50:
 341:Drivers/lvgl/src/draw/sw/blend/lv_draw_sw_blend_to_argb8888_premultiplied.c ****                 color_argb.green = (color_argb.green * color_argb.alpha) >> 8;
 1163              		.loc 1 341 17 is_stmt 1 view .LVU383
 341:Drivers/lvgl/src/draw/sw/blend/lv_draw_sw_blend_to_argb8888_premultiplied.c ****                 color_argb.green = (color_argb.green * color_argb.alpha) >> 8;
 1164              		.loc 1 341 47 is_stmt 0 view .LVU384
 1165 02d2 9DF82620 		ldrb	r2, [sp, #38]	@ zero_extendqisi2
 341:Drivers/lvgl/src/draw/sw/blend/lv_draw_sw_blend_to_argb8888_premultiplied.c ****                 color_argb.green = (color_argb.green * color_argb.alpha) >> 8;
 1166              		.loc 1 341 66 view .LVU385
 1167 02d6 9DF82730 		ldrb	r3, [sp, #39]	@ zero_extendqisi2
 341:Drivers/lvgl/src/draw/sw/blend/lv_draw_sw_blend_to_argb8888_premultiplied.c ****                 color_argb.green = (color_argb.green * color_argb.alpha) >> 8;
 1168              		.loc 1 341 54 view .LVU386
 1169 02da 03FB02F2 		mul	r2, r3, r2
 341:Drivers/lvgl/src/draw/sw/blend/lv_draw_sw_blend_to_argb8888_premultiplied.c ****                 color_argb.green = (color_argb.green * color_argb.alpha) >> 8;
 1170              		.loc 1 341 74 view .LVU387
 1171 02de 1212     		asrs	r2, r2, #8
 341:Drivers/lvgl/src/draw/sw/blend/lv_draw_sw_blend_to_argb8888_premultiplied.c ****                 color_argb.green = (color_argb.green * color_argb.alpha) >> 8;
 1172              		.loc 1 341 34 view .LVU388
 1173 02e0 8DF82620 		strb	r2, [sp, #38]
 342:Drivers/lvgl/src/draw/sw/blend/lv_draw_sw_blend_to_argb8888_premultiplied.c ****                 color_argb.blue  = (color_argb.blue  * color_argb.alpha) >> 8;
 1174              		.loc 1 342 17 is_stmt 1 view .LVU389
 342:Drivers/lvgl/src/draw/sw/blend/lv_draw_sw_blend_to_argb8888_premultiplied.c ****                 color_argb.blue  = (color_argb.blue  * color_argb.alpha) >> 8;
 1175              		.loc 1 342 47 is_stmt 0 view .LVU390
 1176 02e4 9DF82520 		ldrb	r2, [sp, #37]	@ zero_extendqisi2
 342:Drivers/lvgl/src/draw/sw/blend/lv_draw_sw_blend_to_argb8888_premultiplied.c ****                 color_argb.blue  = (color_argb.blue  * color_argb.alpha) >> 8;
 1177              		.loc 1 342 54 view .LVU391
 1178 02e8 03FB02F2 		mul	r2, r3, r2
 342:Drivers/lvgl/src/draw/sw/blend/lv_draw_sw_blend_to_argb8888_premultiplied.c ****                 color_argb.blue  = (color_argb.blue  * color_argb.alpha) >> 8;
 1179              		.loc 1 342 74 view .LVU392
 1180 02ec 1212     		asrs	r2, r2, #8
 342:Drivers/lvgl/src/draw/sw/blend/lv_draw_sw_blend_to_argb8888_premultiplied.c ****                 color_argb.blue  = (color_argb.blue  * color_argb.alpha) >> 8;
 1181              		.loc 1 342 34 view .LVU393
 1182 02ee 8DF82520 		strb	r2, [sp, #37]
 343:Drivers/lvgl/src/draw/sw/blend/lv_draw_sw_blend_to_argb8888_premultiplied.c **** 
 1183              		.loc 1 343 17 is_stmt 1 view .LVU394
 343:Drivers/lvgl/src/draw/sw/blend/lv_draw_sw_blend_to_argb8888_premultiplied.c **** 
 1184              		.loc 1 343 47 is_stmt 0 view .LVU395
ARM GAS  /tmp/ccGpYpzg.s 			page 40


 1185 02f2 9DF82420 		ldrb	r2, [sp, #36]	@ zero_extendqisi2
 343:Drivers/lvgl/src/draw/sw/blend/lv_draw_sw_blend_to_argb8888_premultiplied.c **** 
 1186              		.loc 1 343 54 view .LVU396
 1187 02f6 02FB03F3 		mul	r3, r2, r3
 343:Drivers/lvgl/src/draw/sw/blend/lv_draw_sw_blend_to_argb8888_premultiplied.c **** 
 1188              		.loc 1 343 74 view .LVU397
 1189 02fa 1B12     		asrs	r3, r3, #8
 343:Drivers/lvgl/src/draw/sw/blend/lv_draw_sw_blend_to_argb8888_premultiplied.c **** 
 1190              		.loc 1 343 34 view .LVU398
 1191 02fc 8DF82430 		strb	r3, [sp, #36]
 345:Drivers/lvgl/src/draw/sw/blend/lv_draw_sw_blend_to_argb8888_premultiplied.c ****             }
 1192              		.loc 1 345 17 is_stmt 1 view .LVU399
 1193 0300 05AB     		add	r3, sp, #20
 1194 0302 99F82220 		ldrb	r2, [r9, #34]	@ zero_extendqisi2
 1195 0306 0999     		ldr	r1, [sp, #36]
 1196 0308 05EB0C00 		add	r0, r5, ip
 1197 030c FFF7FEFF 		bl	blend_non_normal_pixel_premultiplied
 1198              	.LVL93:
 331:Drivers/lvgl/src/draw/sw/blend/lv_draw_sw_blend_to_argb8888_premultiplied.c ****                 color_argb = src_buf_c32[x];
 1199              		.loc 1 331 32 discriminator 2 view .LVU400
 1200 0310 0134     		adds	r4, r4, #1
 1201              	.LVL94:
 1202              	.L53:
 331:Drivers/lvgl/src/draw/sw/blend/lv_draw_sw_blend_to_argb8888_premultiplied.c ****                 color_argb = src_buf_c32[x];
 1203              		.loc 1 331 26 discriminator 1 view .LVU401
 1204 0312 4445     		cmp	r4, r8
 1205 0314 0EDA     		bge	.L68
 332:Drivers/lvgl/src/draw/sw/blend/lv_draw_sw_blend_to_argb8888_premultiplied.c **** 
 1206              		.loc 1 332 17 view .LVU402
 332:Drivers/lvgl/src/draw/sw/blend/lv_draw_sw_blend_to_argb8888_premultiplied.c **** 
 1207              		.loc 1 332 41 is_stmt 0 view .LVU403
 1208 0316 4FEA840C 		lsl	ip, r4, #2
 332:Drivers/lvgl/src/draw/sw/blend/lv_draw_sw_blend_to_argb8888_premultiplied.c **** 
 1209              		.loc 1 332 28 view .LVU404
 1210 031a 56F82400 		ldr	r0, [r6, r4, lsl #2]	@ unaligned
 1211 031e 0990     		str	r0, [sp, #36]
 335:Drivers/lvgl/src/draw/sw/blend/lv_draw_sw_blend_to_argb8888_premultiplied.c ****                     color_argb.alpha = LV_OPA_MIX2(color_argb.alpha, opa);
 1212              		.loc 1 335 17 is_stmt 1 view .LVU405
 335:Drivers/lvgl/src/draw/sw/blend/lv_draw_sw_blend_to_argb8888_premultiplied.c ****                     color_argb.alpha = LV_OPA_MIX2(color_argb.alpha, opa);
 1213              		.loc 1 335 19 is_stmt 0 view .LVU406
 1214 0320 002F     		cmp	r7, #0
 1215 0322 CCD1     		bne	.L49
 336:Drivers/lvgl/src/draw/sw/blend/lv_draw_sw_blend_to_argb8888_premultiplied.c ****                 else
 1216              		.loc 1 336 21 is_stmt 1 view .LVU407
 336:Drivers/lvgl/src/draw/sw/blend/lv_draw_sw_blend_to_argb8888_premultiplied.c ****                 else
 1217              		.loc 1 336 40 is_stmt 0 view .LVU408
 1218 0324 9DF82730 		ldrb	r3, [sp, #39]	@ zero_extendqisi2
 1219 0328 03FB0AF3 		mul	r3, r3, r10
 1220 032c 1B0A     		lsrs	r3, r3, #8
 336:Drivers/lvgl/src/draw/sw/blend/lv_draw_sw_blend_to_argb8888_premultiplied.c ****                 else
 1221              		.loc 1 336 38 view .LVU409
 1222 032e 8DF82730 		strb	r3, [sp, #39]
 1223 0332 CEE7     		b	.L50
 1224              	.L68:
 347:Drivers/lvgl/src/draw/sw/blend/lv_draw_sw_blend_to_argb8888_premultiplied.c ****             dest_buf_c32 = drawbuf_next_row(dest_buf_c32, dest_stride);
 1225              		.loc 1 347 13 is_stmt 1 view .LVU410
 347:Drivers/lvgl/src/draw/sw/blend/lv_draw_sw_blend_to_argb8888_premultiplied.c ****             dest_buf_c32 = drawbuf_next_row(dest_buf_c32, dest_stride);
ARM GAS  /tmp/ccGpYpzg.s 			page 41


 1226              		.loc 1 347 15 is_stmt 0 view .LVU411
 1227 0334 0FB1     		cbz	r7, .L52
 347:Drivers/lvgl/src/draw/sw/blend/lv_draw_sw_blend_to_argb8888_premultiplied.c ****             dest_buf_c32 = drawbuf_next_row(dest_buf_c32, dest_stride);
 1228              		.loc 1 347 26 is_stmt 1 discriminator 1 view .LVU412
 347:Drivers/lvgl/src/draw/sw/blend/lv_draw_sw_blend_to_argb8888_premultiplied.c ****             dest_buf_c32 = drawbuf_next_row(dest_buf_c32, dest_stride);
 1229              		.loc 1 347 35 is_stmt 0 discriminator 1 view .LVU413
 1230 0336 039B     		ldr	r3, [sp, #12]
 1231 0338 1F44     		add	r7, r7, r3
 1232              	.LVL95:
 1233              	.L52:
 348:Drivers/lvgl/src/draw/sw/blend/lv_draw_sw_blend_to_argb8888_premultiplied.c ****             src_buf_c32 = drawbuf_next_row(src_buf_c32, src_stride);
 1234              		.loc 1 348 13 is_stmt 1 view .LVU414
 1235              	.LBB95:
 1236              	.LBI95:
 574:Drivers/lvgl/src/draw/sw/blend/lv_draw_sw_blend_to_argb8888_premultiplied.c **** {
 1237              		.loc 1 574 44 view .LVU415
 1238              	.LBB96:
 576:Drivers/lvgl/src/draw/sw/blend/lv_draw_sw_blend_to_argb8888_premultiplied.c **** }
 1239              		.loc 1 576 5 view .LVU416
 576:Drivers/lvgl/src/draw/sw/blend/lv_draw_sw_blend_to_argb8888_premultiplied.c **** }
 1240              		.loc 1 576 12 is_stmt 0 view .LVU417
 1241 033a 009B     		ldr	r3, [sp]
 1242 033c 1D44     		add	r5, r5, r3
 1243              	.LVL96:
 576:Drivers/lvgl/src/draw/sw/blend/lv_draw_sw_blend_to_argb8888_premultiplied.c **** }
 1244              		.loc 1 576 12 view .LVU418
 1245              	.LBE96:
 1246              	.LBE95:
 349:Drivers/lvgl/src/draw/sw/blend/lv_draw_sw_blend_to_argb8888_premultiplied.c ****         }
 1247              		.loc 1 349 13 is_stmt 1 view .LVU419
 1248              	.LBB97:
 1249              	.LBI97:
 574:Drivers/lvgl/src/draw/sw/blend/lv_draw_sw_blend_to_argb8888_premultiplied.c **** {
 1250              		.loc 1 574 44 view .LVU420
 1251              	.LBB98:
 576:Drivers/lvgl/src/draw/sw/blend/lv_draw_sw_blend_to_argb8888_premultiplied.c **** }
 1252              		.loc 1 576 5 view .LVU421
 576:Drivers/lvgl/src/draw/sw/blend/lv_draw_sw_blend_to_argb8888_premultiplied.c **** }
 1253              		.loc 1 576 12 is_stmt 0 view .LVU422
 1254 033e 019B     		ldr	r3, [sp, #4]
 1255 0340 1E44     		add	r6, r6, r3
 1256              	.LVL97:
 576:Drivers/lvgl/src/draw/sw/blend/lv_draw_sw_blend_to_argb8888_premultiplied.c **** }
 1257              		.loc 1 576 12 view .LVU423
 1258              	.LBE98:
 1259              	.LBE97:
 330:Drivers/lvgl/src/draw/sw/blend/lv_draw_sw_blend_to_argb8888_premultiplied.c ****             for(x = 0; x < w; x++) {
 1260              		.loc 1 330 28 is_stmt 1 discriminator 2 view .LVU424
 1261 0342 0BF1010B 		add	fp, fp, #1
 1262              	.LVL98:
 1263              	.L32:
 330:Drivers/lvgl/src/draw/sw/blend/lv_draw_sw_blend_to_argb8888_premultiplied.c ****             for(x = 0; x < w; x++) {
 1264              		.loc 1 330 22 discriminator 1 view .LVU425
 1265 0346 029B     		ldr	r3, [sp, #8]
 1266 0348 9B45     		cmp	fp, r3
 1267 034a BFF68FAE 		bge	.L31
 331:Drivers/lvgl/src/draw/sw/blend/lv_draw_sw_blend_to_argb8888_premultiplied.c ****                 color_argb = src_buf_c32[x];
ARM GAS  /tmp/ccGpYpzg.s 			page 42


 1268              		.loc 1 331 19 is_stmt 0 view .LVU426
 1269 034e 0024     		movs	r4, #0
 1270 0350 DFE7     		b	.L53
 1271              	.LVL99:
 1272              	.L54:
 330:Drivers/lvgl/src/draw/sw/blend/lv_draw_sw_blend_to_argb8888_premultiplied.c ****             for(x = 0; x < w; x++) {
 1273              		.loc 1 330 15 view .LVU427
 1274 0352 0023     		movs	r3, #0
 1275 0354 CDF808B0 		str	fp, [sp, #8]
 1276 0358 9B46     		mov	fp, r3
 1277              	.LVL100:
 330:Drivers/lvgl/src/draw/sw/blend/lv_draw_sw_blend_to_argb8888_premultiplied.c ****             for(x = 0; x < w; x++) {
 1278              		.loc 1 330 15 view .LVU428
 1279 035a F4E7     		b	.L32
 1280              		.cfi_endproc
 1281              	.LFE188:
 1283              		.section	.text.argb8888_premultiplied_image_blend,"ax",%progbits
 1284              		.align	1
 1285              		.syntax unified
 1286              		.thumb
 1287              		.thumb_func
 1289              	argb8888_premultiplied_image_blend:
 1290              	.LVL101:
 1291              	.LFB189:
 357:Drivers/lvgl/src/draw/sw/blend/lv_draw_sw_blend_to_argb8888_premultiplied.c ****     int32_t w = dsc->dest_w;
 1292              		.loc 1 357 1 is_stmt 1 view -0
 1293              		.cfi_startproc
 1294              		@ args = 0, pretend = 0, frame = 48
 1295              		@ frame_needed = 0, uses_anonymous_args = 0
 357:Drivers/lvgl/src/draw/sw/blend/lv_draw_sw_blend_to_argb8888_premultiplied.c ****     int32_t w = dsc->dest_w;
 1296              		.loc 1 357 1 is_stmt 0 view .LVU430
 1297 0000 2DE9F04F 		push	{r4, r5, r6, r7, r8, r9, r10, fp, lr}
 1298              	.LCFI13:
 1299              		.cfi_def_cfa_offset 36
 1300              		.cfi_offset 4, -36
 1301              		.cfi_offset 5, -32
 1302              		.cfi_offset 6, -28
 1303              		.cfi_offset 7, -24
 1304              		.cfi_offset 8, -20
 1305              		.cfi_offset 9, -16
 1306              		.cfi_offset 10, -12
 1307              		.cfi_offset 11, -8
 1308              		.cfi_offset 14, -4
 1309 0004 8DB0     		sub	sp, sp, #52
 1310              	.LCFI14:
 1311              		.cfi_def_cfa_offset 88
 1312 0006 8346     		mov	fp, r0
 358:Drivers/lvgl/src/draw/sw/blend/lv_draw_sw_blend_to_argb8888_premultiplied.c ****     int32_t h = dsc->dest_h;
 1313              		.loc 1 358 5 is_stmt 1 view .LVU431
 358:Drivers/lvgl/src/draw/sw/blend/lv_draw_sw_blend_to_argb8888_premultiplied.c ****     int32_t h = dsc->dest_h;
 1314              		.loc 1 358 13 is_stmt 0 view .LVU432
 1315 0008 4768     		ldr	r7, [r0, #4]
 1316              	.LVL102:
 359:Drivers/lvgl/src/draw/sw/blend/lv_draw_sw_blend_to_argb8888_premultiplied.c ****     lv_opa_t opa = dsc->opa;
 1317              		.loc 1 359 5 is_stmt 1 view .LVU433
 359:Drivers/lvgl/src/draw/sw/blend/lv_draw_sw_blend_to_argb8888_premultiplied.c ****     lv_opa_t opa = dsc->opa;
 1318              		.loc 1 359 13 is_stmt 0 view .LVU434
ARM GAS  /tmp/ccGpYpzg.s 			page 43


 1319 000a D0F808A0 		ldr	r10, [r0, #8]
 1320              	.LVL103:
 360:Drivers/lvgl/src/draw/sw/blend/lv_draw_sw_blend_to_argb8888_premultiplied.c ****     lv_color32_t * dest_buf_c32 = dsc->dest_buf;
 1321              		.loc 1 360 5 is_stmt 1 view .LVU435
 360:Drivers/lvgl/src/draw/sw/blend/lv_draw_sw_blend_to_argb8888_premultiplied.c ****     lv_color32_t * dest_buf_c32 = dsc->dest_buf;
 1322              		.loc 1 360 14 is_stmt 0 view .LVU436
 1323 000e 90F82180 		ldrb	r8, [r0, #33]	@ zero_extendqisi2
 1324              	.LVL104:
 361:Drivers/lvgl/src/draw/sw/blend/lv_draw_sw_blend_to_argb8888_premultiplied.c ****     int32_t dest_stride = dsc->dest_stride;
 1325              		.loc 1 361 5 is_stmt 1 view .LVU437
 361:Drivers/lvgl/src/draw/sw/blend/lv_draw_sw_blend_to_argb8888_premultiplied.c ****     int32_t dest_stride = dsc->dest_stride;
 1326              		.loc 1 361 20 is_stmt 0 view .LVU438
 1327 0012 0468     		ldr	r4, [r0]
 1328              	.LVL105:
 362:Drivers/lvgl/src/draw/sw/blend/lv_draw_sw_blend_to_argb8888_premultiplied.c ****     const lv_color32_t * src_buf_c32 = dsc->src_buf;
 1329              		.loc 1 362 5 is_stmt 1 view .LVU439
 362:Drivers/lvgl/src/draw/sw/blend/lv_draw_sw_blend_to_argb8888_premultiplied.c ****     const lv_color32_t * src_buf_c32 = dsc->src_buf;
 1330              		.loc 1 362 13 is_stmt 0 view .LVU440
 1331 0014 C368     		ldr	r3, [r0, #12]
 1332 0016 0193     		str	r3, [sp, #4]
 1333              	.LVL106:
 363:Drivers/lvgl/src/draw/sw/blend/lv_draw_sw_blend_to_argb8888_premultiplied.c ****     int32_t src_stride = dsc->src_stride;
 1334              		.loc 1 363 5 is_stmt 1 view .LVU441
 363:Drivers/lvgl/src/draw/sw/blend/lv_draw_sw_blend_to_argb8888_premultiplied.c ****     int32_t src_stride = dsc->src_stride;
 1335              		.loc 1 363 26 is_stmt 0 view .LVU442
 1336 0018 8569     		ldr	r5, [r0, #24]
 1337              	.LVL107:
 364:Drivers/lvgl/src/draw/sw/blend/lv_draw_sw_blend_to_argb8888_premultiplied.c ****     const lv_opa_t * mask_buf = dsc->mask_buf;
 1338              		.loc 1 364 5 is_stmt 1 view .LVU443
 364:Drivers/lvgl/src/draw/sw/blend/lv_draw_sw_blend_to_argb8888_premultiplied.c ****     const lv_opa_t * mask_buf = dsc->mask_buf;
 1339              		.loc 1 364 13 is_stmt 0 view .LVU444
 1340 001a C369     		ldr	r3, [r0, #28]
 1341              	.LVL108:
 364:Drivers/lvgl/src/draw/sw/blend/lv_draw_sw_blend_to_argb8888_premultiplied.c ****     const lv_opa_t * mask_buf = dsc->mask_buf;
 1342              		.loc 1 364 13 view .LVU445
 1343 001c 0293     		str	r3, [sp, #8]
 1344              	.LVL109:
 365:Drivers/lvgl/src/draw/sw/blend/lv_draw_sw_blend_to_argb8888_premultiplied.c ****     int32_t mask_stride = dsc->mask_stride;
 1345              		.loc 1 365 5 is_stmt 1 view .LVU446
 365:Drivers/lvgl/src/draw/sw/blend/lv_draw_sw_blend_to_argb8888_premultiplied.c ****     int32_t mask_stride = dsc->mask_stride;
 1346              		.loc 1 365 22 is_stmt 0 view .LVU447
 1347 001e 0669     		ldr	r6, [r0, #16]
 1348              	.LVL110:
 366:Drivers/lvgl/src/draw/sw/blend/lv_draw_sw_blend_to_argb8888_premultiplied.c **** 
 1349              		.loc 1 366 5 is_stmt 1 view .LVU448
 366:Drivers/lvgl/src/draw/sw/blend/lv_draw_sw_blend_to_argb8888_premultiplied.c **** 
 1350              		.loc 1 366 13 is_stmt 0 view .LVU449
 1351 0020 4369     		ldr	r3, [r0, #20]
 1352              	.LVL111:
 366:Drivers/lvgl/src/draw/sw/blend/lv_draw_sw_blend_to_argb8888_premultiplied.c **** 
 1353              		.loc 1 366 13 view .LVU450
 1354 0022 0493     		str	r3, [sp, #16]
 1355              	.LVL112:
 368:Drivers/lvgl/src/draw/sw/blend/lv_draw_sw_blend_to_argb8888_premultiplied.c ****     lv_color_mix_alpha_cache_t cache;
 1356              		.loc 1 368 5 is_stmt 1 view .LVU451
 369:Drivers/lvgl/src/draw/sw/blend/lv_draw_sw_blend_to_argb8888_premultiplied.c ****     lv_color_mix_with_alpha_cache_init(&cache);
 1357              		.loc 1 369 5 view .LVU452
ARM GAS  /tmp/ccGpYpzg.s 			page 44


 370:Drivers/lvgl/src/draw/sw/blend/lv_draw_sw_blend_to_argb8888_premultiplied.c **** 
 1358              		.loc 1 370 5 view .LVU453
 1359 0024 07A8     		add	r0, sp, #28
 1360              	.LVL113:
 370:Drivers/lvgl/src/draw/sw/blend/lv_draw_sw_blend_to_argb8888_premultiplied.c **** 
 1361              		.loc 1 370 5 is_stmt 0 view .LVU454
 1362 0026 FFF7FEFF 		bl	lv_color_mix_with_alpha_cache_init
 1363              	.LVL114:
 372:Drivers/lvgl/src/draw/sw/blend/lv_draw_sw_blend_to_argb8888_premultiplied.c **** 
 1364              		.loc 1 372 5 is_stmt 1 view .LVU455
 374:Drivers/lvgl/src/draw/sw/blend/lv_draw_sw_blend_to_argb8888_premultiplied.c ****         if(mask_buf == NULL && opa >= LV_OPA_MAX) {
 1365              		.loc 1 374 5 view .LVU456
 374:Drivers/lvgl/src/draw/sw/blend/lv_draw_sw_blend_to_argb8888_premultiplied.c ****         if(mask_buf == NULL && opa >= LV_OPA_MAX) {
 1366              		.loc 1 374 11 is_stmt 0 view .LVU457
 1367 002a 9BF82230 		ldrb	r3, [fp, #34]	@ zero_extendqisi2
 374:Drivers/lvgl/src/draw/sw/blend/lv_draw_sw_blend_to_argb8888_premultiplied.c ****         if(mask_buf == NULL && opa >= LV_OPA_MAX) {
 1368              		.loc 1 374 7 view .LVU458
 1369 002e 002B     		cmp	r3, #0
 1370 0030 40F0F681 		bne	.L96
 375:Drivers/lvgl/src/draw/sw/blend/lv_draw_sw_blend_to_argb8888_premultiplied.c ****             if(LV_RESULT_INVALID == LV_DRAW_SW_ARGB8888_PREMULTIPLIED_BLEND_NORMAL_TO_ARGB8888_PREM
 1371              		.loc 1 375 9 is_stmt 1 view .LVU459
 375:Drivers/lvgl/src/draw/sw/blend/lv_draw_sw_blend_to_argb8888_premultiplied.c ****             if(LV_RESULT_INVALID == LV_DRAW_SW_ARGB8888_PREMULTIPLIED_BLEND_NORMAL_TO_ARGB8888_PREM
 1372              		.loc 1 375 21 is_stmt 0 view .LVU460
 1373 0034 B6FA86F3 		clz	r3, r6
 1374 0038 5B09     		lsrs	r3, r3, #5
 375:Drivers/lvgl/src/draw/sw/blend/lv_draw_sw_blend_to_argb8888_premultiplied.c ****             if(LV_RESULT_INVALID == LV_DRAW_SW_ARGB8888_PREMULTIPLIED_BLEND_NORMAL_TO_ARGB8888_PREM
 1375              		.loc 1 375 36 view .LVU461
 1376 003a B8F1FC0F 		cmp	r8, #252
 1377 003e 94BF     		ite	ls
 1378 0040 0022     		movls	r2, #0
 1379 0042 0122     		movhi	r2, #1
 375:Drivers/lvgl/src/draw/sw/blend/lv_draw_sw_blend_to_argb8888_premultiplied.c ****             if(LV_RESULT_INVALID == LV_DRAW_SW_ARGB8888_PREMULTIPLIED_BLEND_NORMAL_TO_ARGB8888_PREM
 1380              		.loc 1 375 11 view .LVU462
 1381 0044 1342     		tst	r3, r2
 1382 0046 36D1     		bne	.L97
 386:Drivers/lvgl/src/draw/sw/blend/lv_draw_sw_blend_to_argb8888_premultiplied.c ****             if(LV_RESULT_INVALID == LV_DRAW_SW_ARGB8888_PREMULTIPLIED_BLEND_NORMAL_TO_ARGB8888_PREM
 1383              		.loc 1 386 14 is_stmt 1 view .LVU463
 386:Drivers/lvgl/src/draw/sw/blend/lv_draw_sw_blend_to_argb8888_premultiplied.c ****             if(LV_RESULT_INVALID == LV_DRAW_SW_ARGB8888_PREMULTIPLIED_BLEND_NORMAL_TO_ARGB8888_PREM
 1384              		.loc 1 386 41 is_stmt 0 view .LVU464
 1385 0048 B8F1FC0F 		cmp	r8, #252
 1386 004c 8CBF     		ite	hi
 1387 004e 0021     		movhi	r1, #0
 1388 0050 0121     		movls	r1, #1
 386:Drivers/lvgl/src/draw/sw/blend/lv_draw_sw_blend_to_argb8888_premultiplied.c ****             if(LV_RESULT_INVALID == LV_DRAW_SW_ARGB8888_PREMULTIPLIED_BLEND_NORMAL_TO_ARGB8888_PREM
 1389              		.loc 1 386 16 view .LVU465
 1390 0052 0B42     		tst	r3, r1
 1391 0054 40F09680 		bne	.L99
 416:Drivers/lvgl/src/draw/sw/blend/lv_draw_sw_blend_to_argb8888_premultiplied.c ****             if(LV_RESULT_INVALID == LV_DRAW_SW_ARGB8888_PREMULTIPLIED_BLEND_NORMAL_TO_ARGB8888_PREM
 1392              		.loc 1 416 14 is_stmt 1 view .LVU466
 416:Drivers/lvgl/src/draw/sw/blend/lv_draw_sw_blend_to_argb8888_premultiplied.c ****             if(LV_RESULT_INVALID == LV_DRAW_SW_ARGB8888_PREMULTIPLIED_BLEND_NORMAL_TO_ARGB8888_PREM
 1393              		.loc 1 416 17 is_stmt 0 view .LVU467
 1394 0058 331E     		subs	r3, r6, #0
 1395 005a 18BF     		it	ne
 1396 005c 0123     		movne	r3, #1
 416:Drivers/lvgl/src/draw/sw/blend/lv_draw_sw_blend_to_argb8888_premultiplied.c ****             if(LV_RESULT_INVALID == LV_DRAW_SW_ARGB8888_PREMULTIPLIED_BLEND_NORMAL_TO_ARGB8888_PREM
 1397              		.loc 1 416 16 view .LVU468
 1398 005e 1A42     		tst	r2, r3
ARM GAS  /tmp/ccGpYpzg.s 			page 45


 1399 0060 40F00581 		bne	.L101
 445:Drivers/lvgl/src/draw/sw/blend/lv_draw_sw_blend_to_argb8888_premultiplied.c ****             if(LV_RESULT_INVALID == LV_DRAW_SW_ARGB8888_PREMULTIPLIED_BLEND_NORMAL_TO_ARGB8888_PREM
 1400              		.loc 1 445 14 is_stmt 1 view .LVU469
 445:Drivers/lvgl/src/draw/sw/blend/lv_draw_sw_blend_to_argb8888_premultiplied.c ****             if(LV_RESULT_INVALID == LV_DRAW_SW_ARGB8888_PREMULTIPLIED_BLEND_NORMAL_TO_ARGB8888_PREM
 1401              		.loc 1 445 16 is_stmt 0 view .LVU470
 1402 0064 1942     		tst	r1, r3
 1403 0066 40F06E81 		bne	.L103
 1404              	.LVL115:
 1405              	.L69:
 507:Drivers/lvgl/src/draw/sw/blend/lv_draw_sw_blend_to_argb8888_premultiplied.c **** 
 1406              		.loc 1 507 1 view .LVU471
 1407 006a 0DB0     		add	sp, sp, #52
 1408              	.LCFI15:
 1409              		.cfi_remember_state
 1410              		.cfi_def_cfa_offset 36
 1411              		@ sp needed
 1412 006c BDE8F08F 		pop	{r4, r5, r6, r7, r8, r9, r10, fp, pc}
 1413              	.LVL116:
 1414              	.L73:
 1415              	.LCFI16:
 1416              		.cfi_restore_state
 379:Drivers/lvgl/src/draw/sw/blend/lv_draw_sw_blend_to_argb8888_premultiplied.c ****                     }
 1417              		.loc 1 379 25 is_stmt 1 view .LVU472
 379:Drivers/lvgl/src/draw/sw/blend/lv_draw_sw_blend_to_argb8888_premultiplied.c ****                     }
 1418              		.loc 1 379 97 is_stmt 0 view .LVU473
 1419 0070 04EB8608 		add	r8, r4, r6, lsl #2
 379:Drivers/lvgl/src/draw/sw/blend/lv_draw_sw_blend_to_argb8888_premultiplied.c ****                     }
 1420              		.loc 1 379 43 view .LVU474
 1421 0074 07AA     		add	r2, sp, #28
 1422 0076 54F82610 		ldr	r1, [r4, r6, lsl #2]	@ unaligned
 1423 007a 55F82600 		ldr	r0, [r5, r6, lsl #2]	@ unaligned
 1424 007e FFF7FEFF 		bl	lv_color_32_32_mix_premul
 1425              	.LVL117:
 1426 0082 04F82600 		strb	r0, [r4, r6, lsl #2]
 1427 0086 C0F30723 		ubfx	r3, r0, #8, #8
 1428 008a 88F80130 		strb	r3, [r8, #1]
 1429 008e C0F30743 		ubfx	r3, r0, #16, #8
 1430 0092 88F80230 		strb	r3, [r8, #2]
 1431 0096 C0F30760 		ubfx	r0, r0, #24, #8
 1432 009a 88F80300 		strb	r0, [r8, #3]
 378:Drivers/lvgl/src/draw/sw/blend/lv_draw_sw_blend_to_argb8888_premultiplied.c ****                         dest_buf_c32[x] = lv_color_32_32_mix_premul(src_buf_c32[x], dest_buf_c32[x]
 1433              		.loc 1 378 40 is_stmt 1 discriminator 3 view .LVU475
 1434 009e 0136     		adds	r6, r6, #1
 1435              	.LVL118:
 1436              	.L74:
 378:Drivers/lvgl/src/draw/sw/blend/lv_draw_sw_blend_to_argb8888_premultiplied.c ****                         dest_buf_c32[x] = lv_color_32_32_mix_premul(src_buf_c32[x], dest_buf_c32[x]
 1437              		.loc 1 378 34 discriminator 1 view .LVU476
 1438 00a0 BE42     		cmp	r6, r7
 1439 00a2 E5DB     		blt	.L73
 381:Drivers/lvgl/src/draw/sw/blend/lv_draw_sw_blend_to_argb8888_premultiplied.c ****                     src_buf_c32 = drawbuf_next_row(src_buf_c32, src_stride);
 1440              		.loc 1 381 21 view .LVU477
 1441              	.LVL119:
 1442              	.LBB99:
 1443              	.LBI99:
 574:Drivers/lvgl/src/draw/sw/blend/lv_draw_sw_blend_to_argb8888_premultiplied.c **** {
 1444              		.loc 1 574 44 view .LVU478
 1445              	.LBB100:
ARM GAS  /tmp/ccGpYpzg.s 			page 46


 576:Drivers/lvgl/src/draw/sw/blend/lv_draw_sw_blend_to_argb8888_premultiplied.c **** }
 1446              		.loc 1 576 5 view .LVU479
 576:Drivers/lvgl/src/draw/sw/blend/lv_draw_sw_blend_to_argb8888_premultiplied.c **** }
 1447              		.loc 1 576 12 is_stmt 0 view .LVU480
 1448 00a4 019B     		ldr	r3, [sp, #4]
 1449 00a6 1C44     		add	r4, r4, r3
 1450              	.LVL120:
 576:Drivers/lvgl/src/draw/sw/blend/lv_draw_sw_blend_to_argb8888_premultiplied.c **** }
 1451              		.loc 1 576 12 view .LVU481
 1452              	.LBE100:
 1453              	.LBE99:
 382:Drivers/lvgl/src/draw/sw/blend/lv_draw_sw_blend_to_argb8888_premultiplied.c ****                 }
 1454              		.loc 1 382 21 is_stmt 1 view .LVU482
 1455              	.LBB101:
 1456              	.LBI101:
 574:Drivers/lvgl/src/draw/sw/blend/lv_draw_sw_blend_to_argb8888_premultiplied.c **** {
 1457              		.loc 1 574 44 view .LVU483
 1458              	.LBB102:
 576:Drivers/lvgl/src/draw/sw/blend/lv_draw_sw_blend_to_argb8888_premultiplied.c **** }
 1459              		.loc 1 576 5 view .LVU484
 576:Drivers/lvgl/src/draw/sw/blend/lv_draw_sw_blend_to_argb8888_premultiplied.c **** }
 1460              		.loc 1 576 12 is_stmt 0 view .LVU485
 1461 00a8 5D44     		add	r5, r5, fp
 1462              	.LVL121:
 576:Drivers/lvgl/src/draw/sw/blend/lv_draw_sw_blend_to_argb8888_premultiplied.c **** }
 1463              		.loc 1 576 12 view .LVU486
 1464              	.LBE102:
 1465              	.LBE101:
 377:Drivers/lvgl/src/draw/sw/blend/lv_draw_sw_blend_to_argb8888_premultiplied.c ****                     for(x = 0; x < w; x++) {
 1466              		.loc 1 377 36 is_stmt 1 discriminator 2 view .LVU487
 1467 00aa 09F10109 		add	r9, r9, #1
 1468              	.LVL122:
 1469              	.L71:
 377:Drivers/lvgl/src/draw/sw/blend/lv_draw_sw_blend_to_argb8888_premultiplied.c ****                     for(x = 0; x < w; x++) {
 1470              		.loc 1 377 30 discriminator 1 view .LVU488
 1471 00ae D145     		cmp	r9, r10
 1472 00b0 DBDA     		bge	.L69
 378:Drivers/lvgl/src/draw/sw/blend/lv_draw_sw_blend_to_argb8888_premultiplied.c ****                         dest_buf_c32[x] = lv_color_32_32_mix_premul(src_buf_c32[x], dest_buf_c32[x]
 1473              		.loc 1 378 27 is_stmt 0 view .LVU489
 1474 00b2 0026     		movs	r6, #0
 1475 00b4 F4E7     		b	.L74
 1476              	.LVL123:
 1477              	.L97:
 377:Drivers/lvgl/src/draw/sw/blend/lv_draw_sw_blend_to_argb8888_premultiplied.c ****                     for(x = 0; x < w; x++) {
 1478              		.loc 1 377 23 view .LVU490
 1479 00b6 4FF00009 		mov	r9, #0
 1480 00ba DDF808B0 		ldr	fp, [sp, #8]
 1481              	.LVL124:
 377:Drivers/lvgl/src/draw/sw/blend/lv_draw_sw_blend_to_argb8888_premultiplied.c ****                     for(x = 0; x < w; x++) {
 1482              		.loc 1 377 23 view .LVU491
 1483 00be F6E7     		b	.L71
 1484              	.LVL125:
 1485              	.L78:
 401:Drivers/lvgl/src/draw/sw/blend/lv_draw_sw_blend_to_argb8888_premultiplied.c **** 
 1486              		.loc 1 401 25 is_stmt 1 view .LVU492
 401:Drivers/lvgl/src/draw/sw/blend/lv_draw_sw_blend_to_argb8888_premultiplied.c **** 
 1487              		.loc 1 401 44 is_stmt 0 view .LVU493
ARM GAS  /tmp/ccGpYpzg.s 			page 47


 1488 00c0 03FB08F3 		mul	r3, r3, r8
 1489 00c4 1B0A     		lsrs	r3, r3, #8
 401:Drivers/lvgl/src/draw/sw/blend/lv_draw_sw_blend_to_argb8888_premultiplied.c **** 
 1490              		.loc 1 401 42 view .LVU494
 1491 00c6 8DF82F30 		strb	r3, [sp, #47]
 404:Drivers/lvgl/src/draw/sw/blend/lv_draw_sw_blend_to_argb8888_premultiplied.c ****                         color_argb.green = (color_argb.green * color_argb.alpha) >> 8;
 1492              		.loc 1 404 25 is_stmt 1 view .LVU495
 404:Drivers/lvgl/src/draw/sw/blend/lv_draw_sw_blend_to_argb8888_premultiplied.c ****                         color_argb.green = (color_argb.green * color_argb.alpha) >> 8;
 1493              		.loc 1 404 55 is_stmt 0 view .LVU496
 1494 00ca 9DF82E20 		ldrb	r2, [sp, #46]	@ zero_extendqisi2
 404:Drivers/lvgl/src/draw/sw/blend/lv_draw_sw_blend_to_argb8888_premultiplied.c ****                         color_argb.green = (color_argb.green * color_argb.alpha) >> 8;
 1495              		.loc 1 404 62 view .LVU497
 1496 00ce 03FB02F2 		mul	r2, r3, r2
 404:Drivers/lvgl/src/draw/sw/blend/lv_draw_sw_blend_to_argb8888_premultiplied.c ****                         color_argb.green = (color_argb.green * color_argb.alpha) >> 8;
 1497              		.loc 1 404 82 view .LVU498
 1498 00d2 1212     		asrs	r2, r2, #8
 404:Drivers/lvgl/src/draw/sw/blend/lv_draw_sw_blend_to_argb8888_premultiplied.c ****                         color_argb.green = (color_argb.green * color_argb.alpha) >> 8;
 1499              		.loc 1 404 42 view .LVU499
 1500 00d4 8DF82E20 		strb	r2, [sp, #46]
 405:Drivers/lvgl/src/draw/sw/blend/lv_draw_sw_blend_to_argb8888_premultiplied.c ****                         color_argb.blue  = (color_argb.blue  * color_argb.alpha) >> 8;
 1501              		.loc 1 405 25 is_stmt 1 view .LVU500
 405:Drivers/lvgl/src/draw/sw/blend/lv_draw_sw_blend_to_argb8888_premultiplied.c ****                         color_argb.blue  = (color_argb.blue  * color_argb.alpha) >> 8;
 1502              		.loc 1 405 55 is_stmt 0 view .LVU501
 1503 00d8 9DF82D20 		ldrb	r2, [sp, #45]	@ zero_extendqisi2
 405:Drivers/lvgl/src/draw/sw/blend/lv_draw_sw_blend_to_argb8888_premultiplied.c ****                         color_argb.blue  = (color_argb.blue  * color_argb.alpha) >> 8;
 1504              		.loc 1 405 62 view .LVU502
 1505 00dc 03FB02F2 		mul	r2, r3, r2
 405:Drivers/lvgl/src/draw/sw/blend/lv_draw_sw_blend_to_argb8888_premultiplied.c ****                         color_argb.blue  = (color_argb.blue  * color_argb.alpha) >> 8;
 1506              		.loc 1 405 82 view .LVU503
 1507 00e0 1212     		asrs	r2, r2, #8
 405:Drivers/lvgl/src/draw/sw/blend/lv_draw_sw_blend_to_argb8888_premultiplied.c ****                         color_argb.blue  = (color_argb.blue  * color_argb.alpha) >> 8;
 1508              		.loc 1 405 42 view .LVU504
 1509 00e2 8DF82D20 		strb	r2, [sp, #45]
 406:Drivers/lvgl/src/draw/sw/blend/lv_draw_sw_blend_to_argb8888_premultiplied.c **** 
 1510              		.loc 1 406 25 is_stmt 1 view .LVU505
 406:Drivers/lvgl/src/draw/sw/blend/lv_draw_sw_blend_to_argb8888_premultiplied.c **** 
 1511              		.loc 1 406 55 is_stmt 0 view .LVU506
 1512 00e6 9DF82C20 		ldrb	r2, [sp, #44]	@ zero_extendqisi2
 406:Drivers/lvgl/src/draw/sw/blend/lv_draw_sw_blend_to_argb8888_premultiplied.c **** 
 1513              		.loc 1 406 62 view .LVU507
 1514 00ea 02FB03F3 		mul	r3, r2, r3
 406:Drivers/lvgl/src/draw/sw/blend/lv_draw_sw_blend_to_argb8888_premultiplied.c **** 
 1515              		.loc 1 406 82 view .LVU508
 1516 00ee 1B12     		asrs	r3, r3, #8
 406:Drivers/lvgl/src/draw/sw/blend/lv_draw_sw_blend_to_argb8888_premultiplied.c **** 
 1517              		.loc 1 406 42 view .LVU509
 1518 00f0 8DF82C30 		strb	r3, [sp, #44]
 409:Drivers/lvgl/src/draw/sw/blend/lv_draw_sw_blend_to_argb8888_premultiplied.c ****                     }
 1519              		.loc 1 409 25 is_stmt 1 view .LVU510
 409:Drivers/lvgl/src/draw/sw/blend/lv_draw_sw_blend_to_argb8888_premultiplied.c ****                     }
 1520              		.loc 1 409 93 is_stmt 0 view .LVU511
 1521 00f4 05EB0B04 		add	r4, r5, fp
 409:Drivers/lvgl/src/draw/sw/blend/lv_draw_sw_blend_to_argb8888_premultiplied.c ****                     }
 1522              		.loc 1 409 43 view .LVU512
 1523 00f8 07AA     		add	r2, sp, #28
 1524 00fa 55F80B10 		ldr	r1, [r5, fp]	@ unaligned
 1525 00fe 0B98     		ldr	r0, [sp, #44]
ARM GAS  /tmp/ccGpYpzg.s 			page 48


 1526 0100 FFF7FEFF 		bl	lv_color_32_32_mix_premul
 1527              	.LVL126:
 1528 0104 05F80B00 		strb	r0, [r5, fp]
 1529 0108 C0F30723 		ubfx	r3, r0, #8, #8
 1530 010c 6370     		strb	r3, [r4, #1]
 1531 010e C0F30743 		ubfx	r3, r0, #16, #8
 1532 0112 A370     		strb	r3, [r4, #2]
 1533 0114 C0F30760 		ubfx	r0, r0, #24, #8
 1534 0118 E070     		strb	r0, [r4, #3]
 389:Drivers/lvgl/src/draw/sw/blend/lv_draw_sw_blend_to_argb8888_premultiplied.c ****                         color_argb = src_buf_c32[x];
 1535              		.loc 1 389 40 is_stmt 1 discriminator 2 view .LVU513
 1536 011a 0136     		adds	r6, r6, #1
 1537              	.LVL127:
 1538              	.L80:
 389:Drivers/lvgl/src/draw/sw/blend/lv_draw_sw_blend_to_argb8888_premultiplied.c ****                         color_argb = src_buf_c32[x];
 1539              		.loc 1 389 34 discriminator 1 view .LVU514
 1540 011c BE42     		cmp	r6, r7
 1541 011e 22DA     		bge	.L110
 390:Drivers/lvgl/src/draw/sw/blend/lv_draw_sw_blend_to_argb8888_premultiplied.c **** 
 1542              		.loc 1 390 25 view .LVU515
 390:Drivers/lvgl/src/draw/sw/blend/lv_draw_sw_blend_to_argb8888_premultiplied.c **** 
 1543              		.loc 1 390 49 is_stmt 0 view .LVU516
 1544 0120 4FEA860B 		lsl	fp, r6, #2
 390:Drivers/lvgl/src/draw/sw/blend/lv_draw_sw_blend_to_argb8888_premultiplied.c **** 
 1545              		.loc 1 390 36 view .LVU517
 1546 0124 59F82600 		ldr	r0, [r9, r6, lsl #2]	@ unaligned
 1547 0128 0B90     		str	r0, [sp, #44]
 393:Drivers/lvgl/src/draw/sw/blend/lv_draw_sw_blend_to_argb8888_premultiplied.c ****                             uint16_t reciprocal_alpha = (255 * 256) / color_argb.alpha;
 1548              		.loc 1 393 25 is_stmt 1 view .LVU518
 393:Drivers/lvgl/src/draw/sw/blend/lv_draw_sw_blend_to_argb8888_premultiplied.c ****                             uint16_t reciprocal_alpha = (255 * 256) / color_argb.alpha;
 1549              		.loc 1 393 38 is_stmt 0 view .LVU519
 1550 012a 9DF82F30 		ldrb	r3, [sp, #47]	@ zero_extendqisi2
 393:Drivers/lvgl/src/draw/sw/blend/lv_draw_sw_blend_to_argb8888_premultiplied.c ****                             uint16_t reciprocal_alpha = (255 * 256) / color_argb.alpha;
 1551              		.loc 1 393 27 view .LVU520
 1552 012e 002B     		cmp	r3, #0
 1553 0130 C6D0     		beq	.L78
 1554              	.LBB103:
 394:Drivers/lvgl/src/draw/sw/blend/lv_draw_sw_blend_to_argb8888_premultiplied.c ****                             color_argb.red = (color_argb.red * reciprocal_alpha) >> 8;
 1555              		.loc 1 394 29 is_stmt 1 view .LVU521
 1556              	.LVL128:
 395:Drivers/lvgl/src/draw/sw/blend/lv_draw_sw_blend_to_argb8888_premultiplied.c ****                             color_argb.green = (color_argb.green * reciprocal_alpha) >> 8;
 1557              		.loc 1 395 29 view .LVU522
 395:Drivers/lvgl/src/draw/sw/blend/lv_draw_sw_blend_to_argb8888_premultiplied.c ****                             color_argb.green = (color_argb.green * reciprocal_alpha) >> 8;
 1558              		.loc 1 395 57 is_stmt 0 view .LVU523
 1559 0132 9DF82E20 		ldrb	r2, [sp, #46]	@ zero_extendqisi2
 1560 0136 4FF47F41 		mov	r1, #65280
 1561 013a 91FBF3F1 		sdiv	r1, r1, r3
 1562              	.LVL129:
 395:Drivers/lvgl/src/draw/sw/blend/lv_draw_sw_blend_to_argb8888_premultiplied.c ****                             color_argb.green = (color_argb.green * reciprocal_alpha) >> 8;
 1563              		.loc 1 395 62 view .LVU524
 1564 013e 01FB02F2 		mul	r2, r1, r2
 395:Drivers/lvgl/src/draw/sw/blend/lv_draw_sw_blend_to_argb8888_premultiplied.c ****                             color_argb.green = (color_argb.green * reciprocal_alpha) >> 8;
 1565              		.loc 1 395 82 view .LVU525
 1566 0142 1212     		asrs	r2, r2, #8
 395:Drivers/lvgl/src/draw/sw/blend/lv_draw_sw_blend_to_argb8888_premultiplied.c ****                             color_argb.green = (color_argb.green * reciprocal_alpha) >> 8;
 1567              		.loc 1 395 44 view .LVU526
 1568 0144 8DF82E20 		strb	r2, [sp, #46]
ARM GAS  /tmp/ccGpYpzg.s 			page 49


 396:Drivers/lvgl/src/draw/sw/blend/lv_draw_sw_blend_to_argb8888_premultiplied.c ****                             color_argb.blue = (color_argb.blue * reciprocal_alpha) >> 8;
 1569              		.loc 1 396 29 is_stmt 1 view .LVU527
 396:Drivers/lvgl/src/draw/sw/blend/lv_draw_sw_blend_to_argb8888_premultiplied.c ****                             color_argb.blue = (color_argb.blue * reciprocal_alpha) >> 8;
 1570              		.loc 1 396 59 is_stmt 0 view .LVU528
 1571 0148 9DF82D20 		ldrb	r2, [sp, #45]	@ zero_extendqisi2
 396:Drivers/lvgl/src/draw/sw/blend/lv_draw_sw_blend_to_argb8888_premultiplied.c ****                             color_argb.blue = (color_argb.blue * reciprocal_alpha) >> 8;
 1572              		.loc 1 396 66 view .LVU529
 1573 014c 01FB02F2 		mul	r2, r1, r2
 396:Drivers/lvgl/src/draw/sw/blend/lv_draw_sw_blend_to_argb8888_premultiplied.c ****                             color_argb.blue = (color_argb.blue * reciprocal_alpha) >> 8;
 1574              		.loc 1 396 86 view .LVU530
 1575 0150 1212     		asrs	r2, r2, #8
 396:Drivers/lvgl/src/draw/sw/blend/lv_draw_sw_blend_to_argb8888_premultiplied.c ****                             color_argb.blue = (color_argb.blue * reciprocal_alpha) >> 8;
 1576              		.loc 1 396 46 view .LVU531
 1577 0152 8DF82D20 		strb	r2, [sp, #45]
 397:Drivers/lvgl/src/draw/sw/blend/lv_draw_sw_blend_to_argb8888_premultiplied.c ****                         }
 1578              		.loc 1 397 29 is_stmt 1 view .LVU532
 397:Drivers/lvgl/src/draw/sw/blend/lv_draw_sw_blend_to_argb8888_premultiplied.c ****                         }
 1579              		.loc 1 397 58 is_stmt 0 view .LVU533
 1580 0156 9DF82C20 		ldrb	r2, [sp, #44]	@ zero_extendqisi2
 397:Drivers/lvgl/src/draw/sw/blend/lv_draw_sw_blend_to_argb8888_premultiplied.c ****                         }
 1581              		.loc 1 397 64 view .LVU534
 1582 015a 01FB02F2 		mul	r2, r1, r2
 397:Drivers/lvgl/src/draw/sw/blend/lv_draw_sw_blend_to_argb8888_premultiplied.c ****                         }
 1583              		.loc 1 397 84 view .LVU535
 1584 015e 1212     		asrs	r2, r2, #8
 397:Drivers/lvgl/src/draw/sw/blend/lv_draw_sw_blend_to_argb8888_premultiplied.c ****                         }
 1585              		.loc 1 397 45 view .LVU536
 1586 0160 8DF82C20 		strb	r2, [sp, #44]
 1587 0164 ACE7     		b	.L78
 1588              	.LVL130:
 1589              	.L110:
 397:Drivers/lvgl/src/draw/sw/blend/lv_draw_sw_blend_to_argb8888_premultiplied.c ****                         }
 1590              		.loc 1 397 45 view .LVU537
 1591              	.LBE103:
 1592              	.LBB104:
 1593              	.LBB105:
 576:Drivers/lvgl/src/draw/sw/blend/lv_draw_sw_blend_to_argb8888_premultiplied.c **** }
 1594              		.loc 1 576 12 view .LVU538
 1595 0166 DDF804B0 		ldr	fp, [sp, #4]
 1596              	.LBE105:
 1597              	.LBE104:
 411:Drivers/lvgl/src/draw/sw/blend/lv_draw_sw_blend_to_argb8888_premultiplied.c ****                     src_buf_c32 = drawbuf_next_row(src_buf_c32, src_stride);
 1598              		.loc 1 411 21 is_stmt 1 view .LVU539
 1599              	.LVL131:
 1600              	.LBB107:
 1601              	.LBI104:
 574:Drivers/lvgl/src/draw/sw/blend/lv_draw_sw_blend_to_argb8888_premultiplied.c **** {
 1602              		.loc 1 574 44 view .LVU540
 1603              	.LBB106:
 576:Drivers/lvgl/src/draw/sw/blend/lv_draw_sw_blend_to_argb8888_premultiplied.c **** }
 1604              		.loc 1 576 5 view .LVU541
 576:Drivers/lvgl/src/draw/sw/blend/lv_draw_sw_blend_to_argb8888_premultiplied.c **** }
 1605              		.loc 1 576 12 is_stmt 0 view .LVU542
 1606 016a 5544     		add	r5, r5, r10
 1607              	.LVL132:
 576:Drivers/lvgl/src/draw/sw/blend/lv_draw_sw_blend_to_argb8888_premultiplied.c **** }
 1608              		.loc 1 576 12 view .LVU543
ARM GAS  /tmp/ccGpYpzg.s 			page 50


 1609              	.LBE106:
 1610              	.LBE107:
 412:Drivers/lvgl/src/draw/sw/blend/lv_draw_sw_blend_to_argb8888_premultiplied.c ****                 }
 1611              		.loc 1 412 21 is_stmt 1 view .LVU544
 1612              	.LBB108:
 1613              	.LBI108:
 574:Drivers/lvgl/src/draw/sw/blend/lv_draw_sw_blend_to_argb8888_premultiplied.c **** {
 1614              		.loc 1 574 44 view .LVU545
 1615              	.LBB109:
 576:Drivers/lvgl/src/draw/sw/blend/lv_draw_sw_blend_to_argb8888_premultiplied.c **** }
 1616              		.loc 1 576 5 view .LVU546
 576:Drivers/lvgl/src/draw/sw/blend/lv_draw_sw_blend_to_argb8888_premultiplied.c **** }
 1617              		.loc 1 576 12 is_stmt 0 view .LVU547
 1618 016c 029B     		ldr	r3, [sp, #8]
 1619 016e 9944     		add	r9, r9, r3
 1620              	.LVL133:
 576:Drivers/lvgl/src/draw/sw/blend/lv_draw_sw_blend_to_argb8888_premultiplied.c **** }
 1621              		.loc 1 576 12 view .LVU548
 1622              	.LBE109:
 1623              	.LBE108:
 388:Drivers/lvgl/src/draw/sw/blend/lv_draw_sw_blend_to_argb8888_premultiplied.c ****                     for(x = 0; x < w; x++) {
 1624              		.loc 1 388 36 is_stmt 1 discriminator 2 view .LVU549
 1625 0170 0BF1010B 		add	fp, fp, #1
 1626              	.LVL134:
 1627              	.L76:
 388:Drivers/lvgl/src/draw/sw/blend/lv_draw_sw_blend_to_argb8888_premultiplied.c ****                     for(x = 0; x < w; x++) {
 1628              		.loc 1 388 30 discriminator 1 view .LVU550
 1629 0174 039B     		ldr	r3, [sp, #12]
 1630 0176 9B45     		cmp	fp, r3
 1631 0178 BFF677AF 		bge	.L69
 389:Drivers/lvgl/src/draw/sw/blend/lv_draw_sw_blend_to_argb8888_premultiplied.c ****                         color_argb = src_buf_c32[x];
 1632              		.loc 1 389 27 is_stmt 0 view .LVU551
 1633 017c 0026     		movs	r6, #0
 1634 017e CDF804B0 		str	fp, [sp, #4]
 1635 0182 CBE7     		b	.L80
 1636              	.LVL135:
 1637              	.L99:
 388:Drivers/lvgl/src/draw/sw/blend/lv_draw_sw_blend_to_argb8888_premultiplied.c ****                     for(x = 0; x < w; x++) {
 1638              		.loc 1 388 23 view .LVU552
 1639 0184 4FF00009 		mov	r9, #0
 1640 0188 CB46     		mov	fp, r9
 1641              	.LVL136:
 388:Drivers/lvgl/src/draw/sw/blend/lv_draw_sw_blend_to_argb8888_premultiplied.c ****                     for(x = 0; x < w; x++) {
 1642              		.loc 1 388 23 view .LVU553
 1643 018a A946     		mov	r9, r5
 1644 018c 2546     		mov	r5, r4
 1645              	.LVL137:
 388:Drivers/lvgl/src/draw/sw/blend/lv_draw_sw_blend_to_argb8888_premultiplied.c ****                     for(x = 0; x < w; x++) {
 1646              		.loc 1 388 23 view .LVU554
 1647 018e CDF80CA0 		str	r10, [sp, #12]
 1648 0192 DDF804A0 		ldr	r10, [sp, #4]
 1649              	.LVL138:
 388:Drivers/lvgl/src/draw/sw/blend/lv_draw_sw_blend_to_argb8888_premultiplied.c ****                     for(x = 0; x < w; x++) {
 1650              		.loc 1 388 23 view .LVU555
 1651 0196 EDE7     		b	.L76
 1652              	.LVL139:
 1653              	.L83:
ARM GAS  /tmp/ccGpYpzg.s 			page 51


 430:Drivers/lvgl/src/draw/sw/blend/lv_draw_sw_blend_to_argb8888_premultiplied.c **** 
 1654              		.loc 1 430 25 is_stmt 1 view .LVU556
 430:Drivers/lvgl/src/draw/sw/blend/lv_draw_sw_blend_to_argb8888_premultiplied.c **** 
 1655              		.loc 1 430 44 is_stmt 0 view .LVU557
 1656 0198 725C     		ldrb	r2, [r6, r1]	@ zero_extendqisi2
 1657 019a 02FB03F3 		mul	r3, r2, r3
 1658 019e 1B0A     		lsrs	r3, r3, #8
 430:Drivers/lvgl/src/draw/sw/blend/lv_draw_sw_blend_to_argb8888_premultiplied.c **** 
 1659              		.loc 1 430 42 view .LVU558
 1660 01a0 8DF82F30 		strb	r3, [sp, #47]
 433:Drivers/lvgl/src/draw/sw/blend/lv_draw_sw_blend_to_argb8888_premultiplied.c ****                         color_argb.green = (color_argb.green * color_argb.alpha) >> 8;
 1661              		.loc 1 433 25 is_stmt 1 view .LVU559
 433:Drivers/lvgl/src/draw/sw/blend/lv_draw_sw_blend_to_argb8888_premultiplied.c ****                         color_argb.green = (color_argb.green * color_argb.alpha) >> 8;
 1662              		.loc 1 433 55 is_stmt 0 view .LVU560
 1663 01a4 9DF82E20 		ldrb	r2, [sp, #46]	@ zero_extendqisi2
 433:Drivers/lvgl/src/draw/sw/blend/lv_draw_sw_blend_to_argb8888_premultiplied.c ****                         color_argb.green = (color_argb.green * color_argb.alpha) >> 8;
 1664              		.loc 1 433 62 view .LVU561
 1665 01a8 03FB02F2 		mul	r2, r3, r2
 433:Drivers/lvgl/src/draw/sw/blend/lv_draw_sw_blend_to_argb8888_premultiplied.c ****                         color_argb.green = (color_argb.green * color_argb.alpha) >> 8;
 1666              		.loc 1 433 82 view .LVU562
 1667 01ac 1212     		asrs	r2, r2, #8
 433:Drivers/lvgl/src/draw/sw/blend/lv_draw_sw_blend_to_argb8888_premultiplied.c ****                         color_argb.green = (color_argb.green * color_argb.alpha) >> 8;
 1668              		.loc 1 433 42 view .LVU563
 1669 01ae 8DF82E20 		strb	r2, [sp, #46]
 434:Drivers/lvgl/src/draw/sw/blend/lv_draw_sw_blend_to_argb8888_premultiplied.c ****                         color_argb.blue  = (color_argb.blue  * color_argb.alpha) >> 8;
 1670              		.loc 1 434 25 is_stmt 1 view .LVU564
 434:Drivers/lvgl/src/draw/sw/blend/lv_draw_sw_blend_to_argb8888_premultiplied.c ****                         color_argb.blue  = (color_argb.blue  * color_argb.alpha) >> 8;
 1671              		.loc 1 434 55 is_stmt 0 view .LVU565
 1672 01b2 9DF82D20 		ldrb	r2, [sp, #45]	@ zero_extendqisi2
 434:Drivers/lvgl/src/draw/sw/blend/lv_draw_sw_blend_to_argb8888_premultiplied.c ****                         color_argb.blue  = (color_argb.blue  * color_argb.alpha) >> 8;
 1673              		.loc 1 434 62 view .LVU566
 1674 01b6 03FB02F2 		mul	r2, r3, r2
 434:Drivers/lvgl/src/draw/sw/blend/lv_draw_sw_blend_to_argb8888_premultiplied.c ****                         color_argb.blue  = (color_argb.blue  * color_argb.alpha) >> 8;
 1675              		.loc 1 434 82 view .LVU567
 1676 01ba 1212     		asrs	r2, r2, #8
 434:Drivers/lvgl/src/draw/sw/blend/lv_draw_sw_blend_to_argb8888_premultiplied.c ****                         color_argb.blue  = (color_argb.blue  * color_argb.alpha) >> 8;
 1677              		.loc 1 434 42 view .LVU568
 1678 01bc 8DF82D20 		strb	r2, [sp, #45]
 435:Drivers/lvgl/src/draw/sw/blend/lv_draw_sw_blend_to_argb8888_premultiplied.c **** 
 1679              		.loc 1 435 25 is_stmt 1 view .LVU569
 435:Drivers/lvgl/src/draw/sw/blend/lv_draw_sw_blend_to_argb8888_premultiplied.c **** 
 1680              		.loc 1 435 55 is_stmt 0 view .LVU570
 1681 01c0 9DF82C20 		ldrb	r2, [sp, #44]	@ zero_extendqisi2
 435:Drivers/lvgl/src/draw/sw/blend/lv_draw_sw_blend_to_argb8888_premultiplied.c **** 
 1682              		.loc 1 435 62 view .LVU571
 1683 01c4 02FB03F3 		mul	r3, r2, r3
 435:Drivers/lvgl/src/draw/sw/blend/lv_draw_sw_blend_to_argb8888_premultiplied.c **** 
 1684              		.loc 1 435 82 view .LVU572
 1685 01c8 1B12     		asrs	r3, r3, #8
 435:Drivers/lvgl/src/draw/sw/blend/lv_draw_sw_blend_to_argb8888_premultiplied.c **** 
 1686              		.loc 1 435 42 view .LVU573
 1687 01ca 8DF82C30 		strb	r3, [sp, #44]
 437:Drivers/lvgl/src/draw/sw/blend/lv_draw_sw_blend_to_argb8888_premultiplied.c ****                     }
 1688              		.loc 1 437 25 is_stmt 1 view .LVU574
 437:Drivers/lvgl/src/draw/sw/blend/lv_draw_sw_blend_to_argb8888_premultiplied.c ****                     }
 1689              		.loc 1 437 93 is_stmt 0 view .LVU575
 1690 01ce 04EB0B09 		add	r9, r4, fp
ARM GAS  /tmp/ccGpYpzg.s 			page 52


 437:Drivers/lvgl/src/draw/sw/blend/lv_draw_sw_blend_to_argb8888_premultiplied.c ****                     }
 1691              		.loc 1 437 43 view .LVU576
 1692 01d2 07AA     		add	r2, sp, #28
 1693 01d4 54F80B10 		ldr	r1, [r4, fp]	@ unaligned
 1694              	.LVL140:
 437:Drivers/lvgl/src/draw/sw/blend/lv_draw_sw_blend_to_argb8888_premultiplied.c ****                     }
 1695              		.loc 1 437 43 view .LVU577
 1696 01d8 0B98     		ldr	r0, [sp, #44]
 1697 01da FFF7FEFF 		bl	lv_color_32_32_mix_premul
 1698              	.LVL141:
 1699 01de 04F80B00 		strb	r0, [r4, fp]
 1700 01e2 C0F30723 		ubfx	r3, r0, #8, #8
 1701 01e6 89F80130 		strb	r3, [r9, #1]
 1702 01ea C0F30743 		ubfx	r3, r0, #16, #8
 1703 01ee 89F80230 		strb	r3, [r9, #2]
 1704 01f2 C0F30760 		ubfx	r0, r0, #24, #8
 1705 01f6 89F80300 		strb	r0, [r9, #3]
 419:Drivers/lvgl/src/draw/sw/blend/lv_draw_sw_blend_to_argb8888_premultiplied.c ****                         color_argb = src_buf_c32[x];
 1706              		.loc 1 419 40 is_stmt 1 discriminator 2 view .LVU578
 1707 01fa 08F10108 		add	r8, r8, #1
 1708              	.LVL142:
 1709              	.L85:
 419:Drivers/lvgl/src/draw/sw/blend/lv_draw_sw_blend_to_argb8888_premultiplied.c ****                         color_argb = src_buf_c32[x];
 1710              		.loc 1 419 34 discriminator 1 view .LVU579
 1711 01fe B845     		cmp	r8, r7
 1712 0200 23DA     		bge	.L111
 420:Drivers/lvgl/src/draw/sw/blend/lv_draw_sw_blend_to_argb8888_premultiplied.c **** 
 1713              		.loc 1 420 25 view .LVU580
 420:Drivers/lvgl/src/draw/sw/blend/lv_draw_sw_blend_to_argb8888_premultiplied.c **** 
 1714              		.loc 1 420 49 is_stmt 0 view .LVU581
 1715 0202 4146     		mov	r1, r8
 1716 0204 4FEA880B 		lsl	fp, r8, #2
 420:Drivers/lvgl/src/draw/sw/blend/lv_draw_sw_blend_to_argb8888_premultiplied.c **** 
 1717              		.loc 1 420 36 view .LVU582
 1718 0208 55F82800 		ldr	r0, [r5, r8, lsl #2]	@ unaligned
 1719 020c 0B90     		str	r0, [sp, #44]
 423:Drivers/lvgl/src/draw/sw/blend/lv_draw_sw_blend_to_argb8888_premultiplied.c ****                             uint16_t reciprocal_alpha = (255 * 256) / color_argb.alpha;
 1720              		.loc 1 423 25 is_stmt 1 view .LVU583
 423:Drivers/lvgl/src/draw/sw/blend/lv_draw_sw_blend_to_argb8888_premultiplied.c ****                             uint16_t reciprocal_alpha = (255 * 256) / color_argb.alpha;
 1721              		.loc 1 423 38 is_stmt 0 view .LVU584
 1722 020e 9DF82F30 		ldrb	r3, [sp, #47]	@ zero_extendqisi2
 423:Drivers/lvgl/src/draw/sw/blend/lv_draw_sw_blend_to_argb8888_premultiplied.c ****                             uint16_t reciprocal_alpha = (255 * 256) / color_argb.alpha;
 1723              		.loc 1 423 27 view .LVU585
 1724 0212 002B     		cmp	r3, #0
 1725 0214 C0D0     		beq	.L83
 1726              	.LBB110:
 424:Drivers/lvgl/src/draw/sw/blend/lv_draw_sw_blend_to_argb8888_premultiplied.c ****                             color_argb.red = (color_argb.red * reciprocal_alpha) >> 8;
 1727              		.loc 1 424 29 is_stmt 1 view .LVU586
 1728              	.LVL143:
 425:Drivers/lvgl/src/draw/sw/blend/lv_draw_sw_blend_to_argb8888_premultiplied.c ****                             color_argb.green = (color_argb.green * reciprocal_alpha) >> 8;
 1729              		.loc 1 425 29 view .LVU587
 425:Drivers/lvgl/src/draw/sw/blend/lv_draw_sw_blend_to_argb8888_premultiplied.c ****                             color_argb.green = (color_argb.green * reciprocal_alpha) >> 8;
 1730              		.loc 1 425 57 is_stmt 0 view .LVU588
 1731 0216 9DF82E20 		ldrb	r2, [sp, #46]	@ zero_extendqisi2
 1732 021a 4FF47F40 		mov	r0, #65280
 1733 021e 90FBF3F0 		sdiv	r0, r0, r3
 1734              	.LVL144:
ARM GAS  /tmp/ccGpYpzg.s 			page 53


 425:Drivers/lvgl/src/draw/sw/blend/lv_draw_sw_blend_to_argb8888_premultiplied.c ****                             color_argb.green = (color_argb.green * reciprocal_alpha) >> 8;
 1735              		.loc 1 425 62 view .LVU589
 1736 0222 00FB02F2 		mul	r2, r0, r2
 425:Drivers/lvgl/src/draw/sw/blend/lv_draw_sw_blend_to_argb8888_premultiplied.c ****                             color_argb.green = (color_argb.green * reciprocal_alpha) >> 8;
 1737              		.loc 1 425 82 view .LVU590
 1738 0226 1212     		asrs	r2, r2, #8
 425:Drivers/lvgl/src/draw/sw/blend/lv_draw_sw_blend_to_argb8888_premultiplied.c ****                             color_argb.green = (color_argb.green * reciprocal_alpha) >> 8;
 1739              		.loc 1 425 44 view .LVU591
 1740 0228 8DF82E20 		strb	r2, [sp, #46]
 426:Drivers/lvgl/src/draw/sw/blend/lv_draw_sw_blend_to_argb8888_premultiplied.c ****                             color_argb.blue = (color_argb.blue * reciprocal_alpha) >> 8;
 1741              		.loc 1 426 29 is_stmt 1 view .LVU592
 426:Drivers/lvgl/src/draw/sw/blend/lv_draw_sw_blend_to_argb8888_premultiplied.c ****                             color_argb.blue = (color_argb.blue * reciprocal_alpha) >> 8;
 1742              		.loc 1 426 59 is_stmt 0 view .LVU593
 1743 022c 9DF82D20 		ldrb	r2, [sp, #45]	@ zero_extendqisi2
 426:Drivers/lvgl/src/draw/sw/blend/lv_draw_sw_blend_to_argb8888_premultiplied.c ****                             color_argb.blue = (color_argb.blue * reciprocal_alpha) >> 8;
 1744              		.loc 1 426 66 view .LVU594
 1745 0230 00FB02F2 		mul	r2, r0, r2
 426:Drivers/lvgl/src/draw/sw/blend/lv_draw_sw_blend_to_argb8888_premultiplied.c ****                             color_argb.blue = (color_argb.blue * reciprocal_alpha) >> 8;
 1746              		.loc 1 426 86 view .LVU595
 1747 0234 1212     		asrs	r2, r2, #8
 426:Drivers/lvgl/src/draw/sw/blend/lv_draw_sw_blend_to_argb8888_premultiplied.c ****                             color_argb.blue = (color_argb.blue * reciprocal_alpha) >> 8;
 1748              		.loc 1 426 46 view .LVU596
 1749 0236 8DF82D20 		strb	r2, [sp, #45]
 427:Drivers/lvgl/src/draw/sw/blend/lv_draw_sw_blend_to_argb8888_premultiplied.c ****                         }
 1750              		.loc 1 427 29 is_stmt 1 view .LVU597
 427:Drivers/lvgl/src/draw/sw/blend/lv_draw_sw_blend_to_argb8888_premultiplied.c ****                         }
 1751              		.loc 1 427 58 is_stmt 0 view .LVU598
 1752 023a 9DF82C20 		ldrb	r2, [sp, #44]	@ zero_extendqisi2
 427:Drivers/lvgl/src/draw/sw/blend/lv_draw_sw_blend_to_argb8888_premultiplied.c ****                         }
 1753              		.loc 1 427 64 view .LVU599
 1754 023e 00FB02F2 		mul	r2, r0, r2
 427:Drivers/lvgl/src/draw/sw/blend/lv_draw_sw_blend_to_argb8888_premultiplied.c ****                         }
 1755              		.loc 1 427 84 view .LVU600
 1756 0242 1212     		asrs	r2, r2, #8
 427:Drivers/lvgl/src/draw/sw/blend/lv_draw_sw_blend_to_argb8888_premultiplied.c ****                         }
 1757              		.loc 1 427 45 view .LVU601
 1758 0244 8DF82C20 		strb	r2, [sp, #44]
 1759 0248 A6E7     		b	.L83
 1760              	.LVL145:
 1761              	.L111:
 427:Drivers/lvgl/src/draw/sw/blend/lv_draw_sw_blend_to_argb8888_premultiplied.c ****                         }
 1762              		.loc 1 427 45 view .LVU602
 1763              	.LBE110:
 1764              	.LBB111:
 1765              	.LBB112:
 576:Drivers/lvgl/src/draw/sw/blend/lv_draw_sw_blend_to_argb8888_premultiplied.c **** }
 1766              		.loc 1 576 12 view .LVU603
 1767 024a DDF80C90 		ldr	r9, [sp, #12]
 1768              	.LBE112:
 1769              	.LBE111:
 439:Drivers/lvgl/src/draw/sw/blend/lv_draw_sw_blend_to_argb8888_premultiplied.c ****                     src_buf_c32 = drawbuf_next_row(src_buf_c32, src_stride);
 1770              		.loc 1 439 21 is_stmt 1 view .LVU604
 1771              	.LVL146:
 1772              	.LBB114:
 1773              	.LBI111:
 574:Drivers/lvgl/src/draw/sw/blend/lv_draw_sw_blend_to_argb8888_premultiplied.c **** {
 1774              		.loc 1 574 44 view .LVU605
ARM GAS  /tmp/ccGpYpzg.s 			page 54


 1775              	.LBB113:
 576:Drivers/lvgl/src/draw/sw/blend/lv_draw_sw_blend_to_argb8888_premultiplied.c **** }
 1776              		.loc 1 576 5 view .LVU606
 576:Drivers/lvgl/src/draw/sw/blend/lv_draw_sw_blend_to_argb8888_premultiplied.c **** }
 1777              		.loc 1 576 12 is_stmt 0 view .LVU607
 1778 024e 019B     		ldr	r3, [sp, #4]
 1779 0250 1C44     		add	r4, r4, r3
 1780              	.LVL147:
 576:Drivers/lvgl/src/draw/sw/blend/lv_draw_sw_blend_to_argb8888_premultiplied.c **** }
 1781              		.loc 1 576 12 view .LVU608
 1782              	.LBE113:
 1783              	.LBE114:
 440:Drivers/lvgl/src/draw/sw/blend/lv_draw_sw_blend_to_argb8888_premultiplied.c ****                     mask_buf += mask_stride;
 1784              		.loc 1 440 21 is_stmt 1 view .LVU609
 1785              	.LBB115:
 1786              	.LBI115:
 574:Drivers/lvgl/src/draw/sw/blend/lv_draw_sw_blend_to_argb8888_premultiplied.c **** {
 1787              		.loc 1 574 44 view .LVU610
 1788              	.LBB116:
 576:Drivers/lvgl/src/draw/sw/blend/lv_draw_sw_blend_to_argb8888_premultiplied.c **** }
 1789              		.loc 1 576 5 view .LVU611
 576:Drivers/lvgl/src/draw/sw/blend/lv_draw_sw_blend_to_argb8888_premultiplied.c **** }
 1790              		.loc 1 576 12 is_stmt 0 view .LVU612
 1791 0252 029B     		ldr	r3, [sp, #8]
 1792 0254 1D44     		add	r5, r5, r3
 1793              	.LVL148:
 576:Drivers/lvgl/src/draw/sw/blend/lv_draw_sw_blend_to_argb8888_premultiplied.c **** }
 1794              		.loc 1 576 12 view .LVU613
 1795              	.LBE116:
 1796              	.LBE115:
 441:Drivers/lvgl/src/draw/sw/blend/lv_draw_sw_blend_to_argb8888_premultiplied.c ****                 }
 1797              		.loc 1 441 21 is_stmt 1 view .LVU614
 441:Drivers/lvgl/src/draw/sw/blend/lv_draw_sw_blend_to_argb8888_premultiplied.c ****                 }
 1798              		.loc 1 441 30 is_stmt 0 view .LVU615
 1799 0256 049B     		ldr	r3, [sp, #16]
 1800 0258 1E44     		add	r6, r6, r3
 1801              	.LVL149:
 418:Drivers/lvgl/src/draw/sw/blend/lv_draw_sw_blend_to_argb8888_premultiplied.c ****                     for(x = 0; x < w; x++) {
 1802              		.loc 1 418 36 is_stmt 1 discriminator 2 view .LVU616
 1803 025a 09F10109 		add	r9, r9, #1
 1804              	.LVL150:
 1805              	.L81:
 418:Drivers/lvgl/src/draw/sw/blend/lv_draw_sw_blend_to_argb8888_premultiplied.c ****                     for(x = 0; x < w; x++) {
 1806              		.loc 1 418 30 discriminator 1 view .LVU617
 1807 025e D145     		cmp	r9, r10
 1808 0260 BFF603AF 		bge	.L69
 419:Drivers/lvgl/src/draw/sw/blend/lv_draw_sw_blend_to_argb8888_premultiplied.c ****                         color_argb = src_buf_c32[x];
 1809              		.loc 1 419 27 is_stmt 0 view .LVU618
 1810 0264 4FF00008 		mov	r8, #0
 1811 0268 CDF80C90 		str	r9, [sp, #12]
 1812 026c C7E7     		b	.L85
 1813              	.LVL151:
 1814              	.L101:
 418:Drivers/lvgl/src/draw/sw/blend/lv_draw_sw_blend_to_argb8888_premultiplied.c ****                     for(x = 0; x < w; x++) {
 1815              		.loc 1 418 23 view .LVU619
 1816 026e 4FF00009 		mov	r9, #0
 1817 0272 F4E7     		b	.L81
ARM GAS  /tmp/ccGpYpzg.s 			page 55


 1818              	.LVL152:
 1819              	.L87:
 460:Drivers/lvgl/src/draw/sw/blend/lv_draw_sw_blend_to_argb8888_premultiplied.c **** 
 1820              		.loc 1 460 25 is_stmt 1 view .LVU620
 460:Drivers/lvgl/src/draw/sw/blend/lv_draw_sw_blend_to_argb8888_premultiplied.c **** 
 1821              		.loc 1 460 44 is_stmt 0 view .LVU621
 1822 0274 03FB08F3 		mul	r3, r3, r8
 1823 0278 1AF80120 		ldrb	r2, [r10, r1]	@ zero_extendqisi2
 1824 027c 02FB03F3 		mul	r3, r2, r3
 1825 0280 1B0C     		lsrs	r3, r3, #16
 460:Drivers/lvgl/src/draw/sw/blend/lv_draw_sw_blend_to_argb8888_premultiplied.c **** 
 1826              		.loc 1 460 42 view .LVU622
 1827 0282 8DF82F30 		strb	r3, [sp, #47]
 463:Drivers/lvgl/src/draw/sw/blend/lv_draw_sw_blend_to_argb8888_premultiplied.c ****                         color_argb.green = (color_argb.green * color_argb.alpha) >> 8;
 1828              		.loc 1 463 25 is_stmt 1 view .LVU623
 463:Drivers/lvgl/src/draw/sw/blend/lv_draw_sw_blend_to_argb8888_premultiplied.c ****                         color_argb.green = (color_argb.green * color_argb.alpha) >> 8;
 1829              		.loc 1 463 55 is_stmt 0 view .LVU624
 1830 0286 9DF82E20 		ldrb	r2, [sp, #46]	@ zero_extendqisi2
 463:Drivers/lvgl/src/draw/sw/blend/lv_draw_sw_blend_to_argb8888_premultiplied.c ****                         color_argb.green = (color_argb.green * color_argb.alpha) >> 8;
 1831              		.loc 1 463 62 view .LVU625
 1832 028a 03FB02F2 		mul	r2, r3, r2
 463:Drivers/lvgl/src/draw/sw/blend/lv_draw_sw_blend_to_argb8888_premultiplied.c ****                         color_argb.green = (color_argb.green * color_argb.alpha) >> 8;
 1833              		.loc 1 463 82 view .LVU626
 1834 028e 1212     		asrs	r2, r2, #8
 463:Drivers/lvgl/src/draw/sw/blend/lv_draw_sw_blend_to_argb8888_premultiplied.c ****                         color_argb.green = (color_argb.green * color_argb.alpha) >> 8;
 1835              		.loc 1 463 42 view .LVU627
 1836 0290 8DF82E20 		strb	r2, [sp, #46]
 464:Drivers/lvgl/src/draw/sw/blend/lv_draw_sw_blend_to_argb8888_premultiplied.c ****                         color_argb.blue  = (color_argb.blue  * color_argb.alpha) >> 8;
 1837              		.loc 1 464 25 is_stmt 1 view .LVU628
 464:Drivers/lvgl/src/draw/sw/blend/lv_draw_sw_blend_to_argb8888_premultiplied.c ****                         color_argb.blue  = (color_argb.blue  * color_argb.alpha) >> 8;
 1838              		.loc 1 464 55 is_stmt 0 view .LVU629
 1839 0294 9DF82D20 		ldrb	r2, [sp, #45]	@ zero_extendqisi2
 464:Drivers/lvgl/src/draw/sw/blend/lv_draw_sw_blend_to_argb8888_premultiplied.c ****                         color_argb.blue  = (color_argb.blue  * color_argb.alpha) >> 8;
 1840              		.loc 1 464 62 view .LVU630
 1841 0298 03FB02F2 		mul	r2, r3, r2
 464:Drivers/lvgl/src/draw/sw/blend/lv_draw_sw_blend_to_argb8888_premultiplied.c ****                         color_argb.blue  = (color_argb.blue  * color_argb.alpha) >> 8;
 1842              		.loc 1 464 82 view .LVU631
 1843 029c 1212     		asrs	r2, r2, #8
 464:Drivers/lvgl/src/draw/sw/blend/lv_draw_sw_blend_to_argb8888_premultiplied.c ****                         color_argb.blue  = (color_argb.blue  * color_argb.alpha) >> 8;
 1844              		.loc 1 464 42 view .LVU632
 1845 029e 8DF82D20 		strb	r2, [sp, #45]
 465:Drivers/lvgl/src/draw/sw/blend/lv_draw_sw_blend_to_argb8888_premultiplied.c **** 
 1846              		.loc 1 465 25 is_stmt 1 view .LVU633
 465:Drivers/lvgl/src/draw/sw/blend/lv_draw_sw_blend_to_argb8888_premultiplied.c **** 
 1847              		.loc 1 465 55 is_stmt 0 view .LVU634
 1848 02a2 9DF82C20 		ldrb	r2, [sp, #44]	@ zero_extendqisi2
 465:Drivers/lvgl/src/draw/sw/blend/lv_draw_sw_blend_to_argb8888_premultiplied.c **** 
 1849              		.loc 1 465 62 view .LVU635
 1850 02a6 02FB03F3 		mul	r3, r2, r3
 465:Drivers/lvgl/src/draw/sw/blend/lv_draw_sw_blend_to_argb8888_premultiplied.c **** 
 1851              		.loc 1 465 82 view .LVU636
 1852 02aa 1B12     		asrs	r3, r3, #8
 465:Drivers/lvgl/src/draw/sw/blend/lv_draw_sw_blend_to_argb8888_premultiplied.c **** 
 1853              		.loc 1 465 42 view .LVU637
 1854 02ac 8DF82C30 		strb	r3, [sp, #44]
 467:Drivers/lvgl/src/draw/sw/blend/lv_draw_sw_blend_to_argb8888_premultiplied.c ****                     }
 1855              		.loc 1 467 25 is_stmt 1 view .LVU638
ARM GAS  /tmp/ccGpYpzg.s 			page 56


 467:Drivers/lvgl/src/draw/sw/blend/lv_draw_sw_blend_to_argb8888_premultiplied.c ****                     }
 1856              		.loc 1 467 93 is_stmt 0 view .LVU639
 1857 02b0 04EB0B06 		add	r6, r4, fp
 467:Drivers/lvgl/src/draw/sw/blend/lv_draw_sw_blend_to_argb8888_premultiplied.c ****                     }
 1858              		.loc 1 467 43 view .LVU640
 1859 02b4 07AA     		add	r2, sp, #28
 1860 02b6 54F80B10 		ldr	r1, [r4, fp]	@ unaligned
 1861              	.LVL153:
 467:Drivers/lvgl/src/draw/sw/blend/lv_draw_sw_blend_to_argb8888_premultiplied.c ****                     }
 1862              		.loc 1 467 43 view .LVU641
 1863 02ba 0B98     		ldr	r0, [sp, #44]
 1864 02bc FFF7FEFF 		bl	lv_color_32_32_mix_premul
 1865              	.LVL154:
 1866 02c0 04F80B00 		strb	r0, [r4, fp]
 1867 02c4 C0F30723 		ubfx	r3, r0, #8, #8
 1868 02c8 7370     		strb	r3, [r6, #1]
 1869 02ca C0F30743 		ubfx	r3, r0, #16, #8
 1870 02ce B370     		strb	r3, [r6, #2]
 1871 02d0 C0F30760 		ubfx	r0, r0, #24, #8
 1872 02d4 F070     		strb	r0, [r6, #3]
 448:Drivers/lvgl/src/draw/sw/blend/lv_draw_sw_blend_to_argb8888_premultiplied.c ****                         color_argb = src_buf_c32[x];
 1873              		.loc 1 448 40 is_stmt 1 discriminator 2 view .LVU642
 1874 02d6 09F10109 		add	r9, r9, #1
 1875              	.LVL155:
 1876              	.L89:
 448:Drivers/lvgl/src/draw/sw/blend/lv_draw_sw_blend_to_argb8888_premultiplied.c ****                         color_argb = src_buf_c32[x];
 1877              		.loc 1 448 34 discriminator 1 view .LVU643
 1878 02da B945     		cmp	r9, r7
 1879 02dc 23DA     		bge	.L112
 449:Drivers/lvgl/src/draw/sw/blend/lv_draw_sw_blend_to_argb8888_premultiplied.c **** 
 1880              		.loc 1 449 25 view .LVU644
 449:Drivers/lvgl/src/draw/sw/blend/lv_draw_sw_blend_to_argb8888_premultiplied.c **** 
 1881              		.loc 1 449 49 is_stmt 0 view .LVU645
 1882 02de 4946     		mov	r1, r9
 1883 02e0 4FEA890B 		lsl	fp, r9, #2
 449:Drivers/lvgl/src/draw/sw/blend/lv_draw_sw_blend_to_argb8888_premultiplied.c **** 
 1884              		.loc 1 449 36 view .LVU646
 1885 02e4 55F82900 		ldr	r0, [r5, r9, lsl #2]	@ unaligned
 1886 02e8 0B90     		str	r0, [sp, #44]
 452:Drivers/lvgl/src/draw/sw/blend/lv_draw_sw_blend_to_argb8888_premultiplied.c ****                             uint16_t reciprocal_alpha = (255 * 256) / color_argb.alpha;
 1887              		.loc 1 452 25 is_stmt 1 view .LVU647
 452:Drivers/lvgl/src/draw/sw/blend/lv_draw_sw_blend_to_argb8888_premultiplied.c ****                             uint16_t reciprocal_alpha = (255 * 256) / color_argb.alpha;
 1888              		.loc 1 452 38 is_stmt 0 view .LVU648
 1889 02ea 9DF82F30 		ldrb	r3, [sp, #47]	@ zero_extendqisi2
 452:Drivers/lvgl/src/draw/sw/blend/lv_draw_sw_blend_to_argb8888_premultiplied.c ****                             uint16_t reciprocal_alpha = (255 * 256) / color_argb.alpha;
 1890              		.loc 1 452 27 view .LVU649
 1891 02ee 002B     		cmp	r3, #0
 1892 02f0 C0D0     		beq	.L87
 1893              	.LBB117:
 453:Drivers/lvgl/src/draw/sw/blend/lv_draw_sw_blend_to_argb8888_premultiplied.c ****                             color_argb.red = (color_argb.red * reciprocal_alpha) >> 8;
 1894              		.loc 1 453 29 is_stmt 1 view .LVU650
 1895              	.LVL156:
 454:Drivers/lvgl/src/draw/sw/blend/lv_draw_sw_blend_to_argb8888_premultiplied.c ****                             color_argb.green = (color_argb.green * reciprocal_alpha) >> 8;
 1896              		.loc 1 454 29 view .LVU651
 454:Drivers/lvgl/src/draw/sw/blend/lv_draw_sw_blend_to_argb8888_premultiplied.c ****                             color_argb.green = (color_argb.green * reciprocal_alpha) >> 8;
 1897              		.loc 1 454 57 is_stmt 0 view .LVU652
 1898 02f2 9DF82E20 		ldrb	r2, [sp, #46]	@ zero_extendqisi2
ARM GAS  /tmp/ccGpYpzg.s 			page 57


 1899 02f6 4FF47F40 		mov	r0, #65280
 1900 02fa 90FBF3F0 		sdiv	r0, r0, r3
 1901              	.LVL157:
 454:Drivers/lvgl/src/draw/sw/blend/lv_draw_sw_blend_to_argb8888_premultiplied.c ****                             color_argb.green = (color_argb.green * reciprocal_alpha) >> 8;
 1902              		.loc 1 454 62 view .LVU653
 1903 02fe 00FB02F2 		mul	r2, r0, r2
 454:Drivers/lvgl/src/draw/sw/blend/lv_draw_sw_blend_to_argb8888_premultiplied.c ****                             color_argb.green = (color_argb.green * reciprocal_alpha) >> 8;
 1904              		.loc 1 454 82 view .LVU654
 1905 0302 1212     		asrs	r2, r2, #8
 454:Drivers/lvgl/src/draw/sw/blend/lv_draw_sw_blend_to_argb8888_premultiplied.c ****                             color_argb.green = (color_argb.green * reciprocal_alpha) >> 8;
 1906              		.loc 1 454 44 view .LVU655
 1907 0304 8DF82E20 		strb	r2, [sp, #46]
 455:Drivers/lvgl/src/draw/sw/blend/lv_draw_sw_blend_to_argb8888_premultiplied.c ****                             color_argb.blue = (color_argb.blue * reciprocal_alpha) >> 8;
 1908              		.loc 1 455 29 is_stmt 1 view .LVU656
 455:Drivers/lvgl/src/draw/sw/blend/lv_draw_sw_blend_to_argb8888_premultiplied.c ****                             color_argb.blue = (color_argb.blue * reciprocal_alpha) >> 8;
