ARM GAS  /tmp/cc9ag92L.s 			page 1


   1              		.cpu cortex-m7
   2              		.arch armv7e-m
   3              		.fpu fpv5-sp-d16
   4              		.eabi_attribute 27, 1
   5              		.eabi_attribute 28, 1
   6              		.eabi_attribute 20, 1
   7              		.eabi_attribute 21, 1
   8              		.eabi_attribute 23, 3
   9              		.eabi_attribute 24, 1
  10              		.eabi_attribute 25, 1
  11              		.eabi_attribute 26, 1
  12              		.eabi_attribute 30, 1
  13              		.eabi_attribute 34, 1
  14              		.eabi_attribute 18, 4
  15              		.file	"lv_draw_sw_blend_to_i1.c"
  16              		.text
  17              	.Ltext0:
  18              		.cfi_sections	.debug_frame
  19              		.file 1 "Drivers/lvgl/src/draw/sw/blend/lv_draw_sw_blend_to_i1.c"
  20              		.section	.text.lv_color_8_8_mix,"ax",%progbits
  21              		.align	1
  22              		.syntax unified
  23              		.thumb
  24              		.thumb_func
  26              	lv_color_8_8_mix:
  27              	.LVL0:
  28              	.LFB195:
   1:Drivers/lvgl/src/draw/sw/blend/lv_draw_sw_blend_to_i1.c **** /**
   2:Drivers/lvgl/src/draw/sw/blend/lv_draw_sw_blend_to_i1.c ****  * @file lv_draw_sw_blend_to_i1.c
   3:Drivers/lvgl/src/draw/sw/blend/lv_draw_sw_blend_to_i1.c ****  *
   4:Drivers/lvgl/src/draw/sw/blend/lv_draw_sw_blend_to_i1.c ****  */
   5:Drivers/lvgl/src/draw/sw/blend/lv_draw_sw_blend_to_i1.c **** 
   6:Drivers/lvgl/src/draw/sw/blend/lv_draw_sw_blend_to_i1.c **** /*********************
   7:Drivers/lvgl/src/draw/sw/blend/lv_draw_sw_blend_to_i1.c ****  *      INCLUDES
   8:Drivers/lvgl/src/draw/sw/blend/lv_draw_sw_blend_to_i1.c ****  *********************/
   9:Drivers/lvgl/src/draw/sw/blend/lv_draw_sw_blend_to_i1.c **** #include "lv_draw_sw_blend_to_i1.h"
  10:Drivers/lvgl/src/draw/sw/blend/lv_draw_sw_blend_to_i1.c **** #if LV_USE_DRAW_SW
  11:Drivers/lvgl/src/draw/sw/blend/lv_draw_sw_blend_to_i1.c **** 
  12:Drivers/lvgl/src/draw/sw/blend/lv_draw_sw_blend_to_i1.c **** #include "lv_draw_sw_blend_private.h"
  13:Drivers/lvgl/src/draw/sw/blend/lv_draw_sw_blend_to_i1.c **** #include "../../../misc/lv_math.h"
  14:Drivers/lvgl/src/draw/sw/blend/lv_draw_sw_blend_to_i1.c **** #include "../../../display/lv_display.h"
  15:Drivers/lvgl/src/draw/sw/blend/lv_draw_sw_blend_to_i1.c **** #include "../../../core/lv_refr.h"
  16:Drivers/lvgl/src/draw/sw/blend/lv_draw_sw_blend_to_i1.c **** #include "../../../misc/lv_color.h"
  17:Drivers/lvgl/src/draw/sw/blend/lv_draw_sw_blend_to_i1.c **** #include "../../../stdlib/lv_string.h"
  18:Drivers/lvgl/src/draw/sw/blend/lv_draw_sw_blend_to_i1.c **** 
  19:Drivers/lvgl/src/draw/sw/blend/lv_draw_sw_blend_to_i1.c **** #if LV_USE_DRAW_SW_ASM == LV_DRAW_SW_ASM_NEON
  20:Drivers/lvgl/src/draw/sw/blend/lv_draw_sw_blend_to_i1.c ****     #include "neon/lv_blend_neon.h"
  21:Drivers/lvgl/src/draw/sw/blend/lv_draw_sw_blend_to_i1.c **** #elif LV_USE_DRAW_SW_ASM == LV_DRAW_SW_ASM_HELIUM
  22:Drivers/lvgl/src/draw/sw/blend/lv_draw_sw_blend_to_i1.c ****     #include "helium/lv_blend_helium.h"
  23:Drivers/lvgl/src/draw/sw/blend/lv_draw_sw_blend_to_i1.c **** #elif LV_USE_DRAW_SW_ASM == LV_DRAW_SW_ASM_CUSTOM
  24:Drivers/lvgl/src/draw/sw/blend/lv_draw_sw_blend_to_i1.c ****     #include LV_DRAW_SW_ASM_CUSTOM_INCLUDE
  25:Drivers/lvgl/src/draw/sw/blend/lv_draw_sw_blend_to_i1.c **** #endif
  26:Drivers/lvgl/src/draw/sw/blend/lv_draw_sw_blend_to_i1.c **** 
  27:Drivers/lvgl/src/draw/sw/blend/lv_draw_sw_blend_to_i1.c **** /*********************
  28:Drivers/lvgl/src/draw/sw/blend/lv_draw_sw_blend_to_i1.c ****  *      DEFINES
  29:Drivers/lvgl/src/draw/sw/blend/lv_draw_sw_blend_to_i1.c ****  *********************/
  30:Drivers/lvgl/src/draw/sw/blend/lv_draw_sw_blend_to_i1.c **** 
ARM GAS  /tmp/cc9ag92L.s 			page 2


  31:Drivers/lvgl/src/draw/sw/blend/lv_draw_sw_blend_to_i1.c **** /**********************
  32:Drivers/lvgl/src/draw/sw/blend/lv_draw_sw_blend_to_i1.c ****  *      TYPEDEFS
  33:Drivers/lvgl/src/draw/sw/blend/lv_draw_sw_blend_to_i1.c ****  **********************/
  34:Drivers/lvgl/src/draw/sw/blend/lv_draw_sw_blend_to_i1.c **** 
  35:Drivers/lvgl/src/draw/sw/blend/lv_draw_sw_blend_to_i1.c **** /**********************
  36:Drivers/lvgl/src/draw/sw/blend/lv_draw_sw_blend_to_i1.c ****  *  STATIC PROTOTYPES
  37:Drivers/lvgl/src/draw/sw/blend/lv_draw_sw_blend_to_i1.c ****  **********************/
  38:Drivers/lvgl/src/draw/sw/blend/lv_draw_sw_blend_to_i1.c **** 
  39:Drivers/lvgl/src/draw/sw/blend/lv_draw_sw_blend_to_i1.c **** static void /* LV_ATTRIBUTE_FAST_MEM */ i1_image_blend(lv_draw_sw_blend_image_dsc_t * dsc);
  40:Drivers/lvgl/src/draw/sw/blend/lv_draw_sw_blend_to_i1.c **** 
  41:Drivers/lvgl/src/draw/sw/blend/lv_draw_sw_blend_to_i1.c **** #if LV_DRAW_SW_SUPPORT_L8
  42:Drivers/lvgl/src/draw/sw/blend/lv_draw_sw_blend_to_i1.c ****     static void /* LV_ATTRIBUTE_FAST_MEM */ l8_image_blend(lv_draw_sw_blend_image_dsc_t * dsc);
  43:Drivers/lvgl/src/draw/sw/blend/lv_draw_sw_blend_to_i1.c **** #endif
  44:Drivers/lvgl/src/draw/sw/blend/lv_draw_sw_blend_to_i1.c **** 
  45:Drivers/lvgl/src/draw/sw/blend/lv_draw_sw_blend_to_i1.c **** #if LV_DRAW_SW_SUPPORT_AL88
  46:Drivers/lvgl/src/draw/sw/blend/lv_draw_sw_blend_to_i1.c ****     static void /* LV_ATTRIBUTE_FAST_MEM */ al88_image_blend(lv_draw_sw_blend_image_dsc_t * dsc);
  47:Drivers/lvgl/src/draw/sw/blend/lv_draw_sw_blend_to_i1.c **** #endif
  48:Drivers/lvgl/src/draw/sw/blend/lv_draw_sw_blend_to_i1.c **** 
  49:Drivers/lvgl/src/draw/sw/blend/lv_draw_sw_blend_to_i1.c **** #if LV_DRAW_SW_SUPPORT_RGB565
  50:Drivers/lvgl/src/draw/sw/blend/lv_draw_sw_blend_to_i1.c ****     static void /* LV_ATTRIBUTE_FAST_MEM */ rgb565_image_blend(lv_draw_sw_blend_image_dsc_t * dsc);
  51:Drivers/lvgl/src/draw/sw/blend/lv_draw_sw_blend_to_i1.c **** #endif
  52:Drivers/lvgl/src/draw/sw/blend/lv_draw_sw_blend_to_i1.c **** 
  53:Drivers/lvgl/src/draw/sw/blend/lv_draw_sw_blend_to_i1.c **** #if LV_DRAW_SW_SUPPORT_RGB888 || LV_DRAW_SW_SUPPORT_XRGB8888
  54:Drivers/lvgl/src/draw/sw/blend/lv_draw_sw_blend_to_i1.c **** static void /* LV_ATTRIBUTE_FAST_MEM */ rgb888_image_blend(lv_draw_sw_blend_image_dsc_t * dsc,
  55:Drivers/lvgl/src/draw/sw/blend/lv_draw_sw_blend_to_i1.c ****                                                            const uint8_t src_px_size);
  56:Drivers/lvgl/src/draw/sw/blend/lv_draw_sw_blend_to_i1.c **** #endif
  57:Drivers/lvgl/src/draw/sw/blend/lv_draw_sw_blend_to_i1.c **** 
  58:Drivers/lvgl/src/draw/sw/blend/lv_draw_sw_blend_to_i1.c **** #if LV_DRAW_SW_SUPPORT_ARGB8888
  59:Drivers/lvgl/src/draw/sw/blend/lv_draw_sw_blend_to_i1.c ****     static void /* LV_ATTRIBUTE_FAST_MEM */ argb8888_image_blend(lv_draw_sw_blend_image_dsc_t * dsc
  60:Drivers/lvgl/src/draw/sw/blend/lv_draw_sw_blend_to_i1.c **** #endif
  61:Drivers/lvgl/src/draw/sw/blend/lv_draw_sw_blend_to_i1.c **** 
  62:Drivers/lvgl/src/draw/sw/blend/lv_draw_sw_blend_to_i1.c **** static inline void /* LV_ATTRIBUTE_FAST_MEM */ lv_color_8_8_mix(const uint8_t src, uint8_t * dest, 
  63:Drivers/lvgl/src/draw/sw/blend/lv_draw_sw_blend_to_i1.c **** 
  64:Drivers/lvgl/src/draw/sw/blend/lv_draw_sw_blend_to_i1.c **** static inline void /* LV_ATTRIBUTE_FAST_MEM */ blend_non_normal_pixel(uint8_t * dest_buf, int32_t d
  65:Drivers/lvgl/src/draw/sw/blend/lv_draw_sw_blend_to_i1.c ****                                                                       lv_color32_t src,
  66:Drivers/lvgl/src/draw/sw/blend/lv_draw_sw_blend_to_i1.c ****                                                                       lv_blend_mode_t mode);
  67:Drivers/lvgl/src/draw/sw/blend/lv_draw_sw_blend_to_i1.c **** 
  68:Drivers/lvgl/src/draw/sw/blend/lv_draw_sw_blend_to_i1.c **** 
  69:Drivers/lvgl/src/draw/sw/blend/lv_draw_sw_blend_to_i1.c **** static inline void /* LV_ATTRIBUTE_FAST_MEM */ set_bit(uint8_t * buf, int32_t bit_idx);
  70:Drivers/lvgl/src/draw/sw/blend/lv_draw_sw_blend_to_i1.c **** 
  71:Drivers/lvgl/src/draw/sw/blend/lv_draw_sw_blend_to_i1.c **** static inline void /* LV_ATTRIBUTE_FAST_MEM */ clear_bit(uint8_t * buf, int32_t bit_idx);
  72:Drivers/lvgl/src/draw/sw/blend/lv_draw_sw_blend_to_i1.c **** 
  73:Drivers/lvgl/src/draw/sw/blend/lv_draw_sw_blend_to_i1.c **** static inline uint8_t /* LV_ATTRIBUTE_FAST_MEM */ get_bit(const uint8_t * buf, int32_t bit_idx);
  74:Drivers/lvgl/src/draw/sw/blend/lv_draw_sw_blend_to_i1.c **** 
  75:Drivers/lvgl/src/draw/sw/blend/lv_draw_sw_blend_to_i1.c **** static inline void * /* LV_ATTRIBUTE_FAST_MEM */ drawbuf_next_row(const void * buf, uint32_t stride
  76:Drivers/lvgl/src/draw/sw/blend/lv_draw_sw_blend_to_i1.c **** 
  77:Drivers/lvgl/src/draw/sw/blend/lv_draw_sw_blend_to_i1.c **** /**********************
  78:Drivers/lvgl/src/draw/sw/blend/lv_draw_sw_blend_to_i1.c ****  *  STATIC VARIABLES
  79:Drivers/lvgl/src/draw/sw/blend/lv_draw_sw_blend_to_i1.c ****  **********************/
  80:Drivers/lvgl/src/draw/sw/blend/lv_draw_sw_blend_to_i1.c **** 
  81:Drivers/lvgl/src/draw/sw/blend/lv_draw_sw_blend_to_i1.c **** /**********************
  82:Drivers/lvgl/src/draw/sw/blend/lv_draw_sw_blend_to_i1.c ****  *      MACROS
  83:Drivers/lvgl/src/draw/sw/blend/lv_draw_sw_blend_to_i1.c ****  **********************/
  84:Drivers/lvgl/src/draw/sw/blend/lv_draw_sw_blend_to_i1.c **** 
  85:Drivers/lvgl/src/draw/sw/blend/lv_draw_sw_blend_to_i1.c **** #define I1_LUM_THRESHOLD LV_DRAW_SW_I1_LUM_THRESHOLD
  86:Drivers/lvgl/src/draw/sw/blend/lv_draw_sw_blend_to_i1.c **** 
  87:Drivers/lvgl/src/draw/sw/blend/lv_draw_sw_blend_to_i1.c **** #ifndef LV_DRAW_SW_I1_BLEND_NORMAL_TO_I1
ARM GAS  /tmp/cc9ag92L.s 			page 3


  88:Drivers/lvgl/src/draw/sw/blend/lv_draw_sw_blend_to_i1.c ****     #define LV_DRAW_SW_I1_BLEND_NORMAL_TO_I1(...)                    LV_RESULT_INVALID
  89:Drivers/lvgl/src/draw/sw/blend/lv_draw_sw_blend_to_i1.c **** #endif
  90:Drivers/lvgl/src/draw/sw/blend/lv_draw_sw_blend_to_i1.c **** 
  91:Drivers/lvgl/src/draw/sw/blend/lv_draw_sw_blend_to_i1.c **** #ifndef LV_DRAW_SW_I1_BLEND_NORMAL_TO_I1_WITH_OPA
  92:Drivers/lvgl/src/draw/sw/blend/lv_draw_sw_blend_to_i1.c ****     #define LV_DRAW_SW_I1_BLEND_NORMAL_TO_I1_WITH_OPA(...)           LV_RESULT_INVALID
  93:Drivers/lvgl/src/draw/sw/blend/lv_draw_sw_blend_to_i1.c **** #endif
  94:Drivers/lvgl/src/draw/sw/blend/lv_draw_sw_blend_to_i1.c **** 
  95:Drivers/lvgl/src/draw/sw/blend/lv_draw_sw_blend_to_i1.c **** #ifndef LV_DRAW_SW_I1_BLEND_NORMAL_TO_I1_WITH_MASK
  96:Drivers/lvgl/src/draw/sw/blend/lv_draw_sw_blend_to_i1.c ****     #define LV_DRAW_SW_I1_BLEND_NORMAL_TO_I1_WITH_MASK(...)          LV_RESULT_INVALID
  97:Drivers/lvgl/src/draw/sw/blend/lv_draw_sw_blend_to_i1.c **** #endif
  98:Drivers/lvgl/src/draw/sw/blend/lv_draw_sw_blend_to_i1.c **** 
  99:Drivers/lvgl/src/draw/sw/blend/lv_draw_sw_blend_to_i1.c **** #ifndef LV_DRAW_SW_I1_BLEND_NORMAL_TO_I1_MIX_MASK_OPA
 100:Drivers/lvgl/src/draw/sw/blend/lv_draw_sw_blend_to_i1.c ****     #define LV_DRAW_SW_I1_BLEND_NORMAL_TO_I1_MIX_MASK_OPA(...)       LV_RESULT_INVALID
 101:Drivers/lvgl/src/draw/sw/blend/lv_draw_sw_blend_to_i1.c **** #endif
 102:Drivers/lvgl/src/draw/sw/blend/lv_draw_sw_blend_to_i1.c **** 
 103:Drivers/lvgl/src/draw/sw/blend/lv_draw_sw_blend_to_i1.c **** #ifndef LV_DRAW_SW_COLOR_BLEND_TO_I1
 104:Drivers/lvgl/src/draw/sw/blend/lv_draw_sw_blend_to_i1.c ****     #define LV_DRAW_SW_COLOR_BLEND_TO_I1(...)                         LV_RESULT_INVALID
 105:Drivers/lvgl/src/draw/sw/blend/lv_draw_sw_blend_to_i1.c **** #endif
 106:Drivers/lvgl/src/draw/sw/blend/lv_draw_sw_blend_to_i1.c **** 
 107:Drivers/lvgl/src/draw/sw/blend/lv_draw_sw_blend_to_i1.c **** #ifndef LV_DRAW_SW_COLOR_BLEND_TO_I1_WITH_OPA
 108:Drivers/lvgl/src/draw/sw/blend/lv_draw_sw_blend_to_i1.c ****     #define LV_DRAW_SW_COLOR_BLEND_TO_I1_WITH_OPA(...)                LV_RESULT_INVALID
 109:Drivers/lvgl/src/draw/sw/blend/lv_draw_sw_blend_to_i1.c **** #endif
 110:Drivers/lvgl/src/draw/sw/blend/lv_draw_sw_blend_to_i1.c **** 
 111:Drivers/lvgl/src/draw/sw/blend/lv_draw_sw_blend_to_i1.c **** #ifndef LV_DRAW_SW_COLOR_BLEND_TO_I1_WITH_MASK
 112:Drivers/lvgl/src/draw/sw/blend/lv_draw_sw_blend_to_i1.c ****     #define LV_DRAW_SW_COLOR_BLEND_TO_I1_WITH_MASK(...)               LV_RESULT_INVALID
 113:Drivers/lvgl/src/draw/sw/blend/lv_draw_sw_blend_to_i1.c **** #endif
 114:Drivers/lvgl/src/draw/sw/blend/lv_draw_sw_blend_to_i1.c **** 
 115:Drivers/lvgl/src/draw/sw/blend/lv_draw_sw_blend_to_i1.c **** #ifndef LV_DRAW_SW_COLOR_BLEND_TO_I1_MIX_MASK_OPA
 116:Drivers/lvgl/src/draw/sw/blend/lv_draw_sw_blend_to_i1.c ****     #define LV_DRAW_SW_COLOR_BLEND_TO_I1_MIX_MASK_OPA(...)            LV_RESULT_INVALID
 117:Drivers/lvgl/src/draw/sw/blend/lv_draw_sw_blend_to_i1.c **** #endif
 118:Drivers/lvgl/src/draw/sw/blend/lv_draw_sw_blend_to_i1.c **** 
 119:Drivers/lvgl/src/draw/sw/blend/lv_draw_sw_blend_to_i1.c **** #ifndef LV_DRAW_SW_RGB565_BLEND_NORMAL_TO_I1
 120:Drivers/lvgl/src/draw/sw/blend/lv_draw_sw_blend_to_i1.c ****     #define LV_DRAW_SW_RGB565_BLEND_NORMAL_TO_I1(...)                 LV_RESULT_INVALID
 121:Drivers/lvgl/src/draw/sw/blend/lv_draw_sw_blend_to_i1.c **** #endif
 122:Drivers/lvgl/src/draw/sw/blend/lv_draw_sw_blend_to_i1.c **** 
 123:Drivers/lvgl/src/draw/sw/blend/lv_draw_sw_blend_to_i1.c **** #ifndef LV_DRAW_SW_RGB565_BLEND_NORMAL_TO_I1_WITH_OPA
 124:Drivers/lvgl/src/draw/sw/blend/lv_draw_sw_blend_to_i1.c ****     #define LV_DRAW_SW_RGB565_BLEND_NORMAL_TO_I1_WITH_OPA(...)        LV_RESULT_INVALID
 125:Drivers/lvgl/src/draw/sw/blend/lv_draw_sw_blend_to_i1.c **** #endif
 126:Drivers/lvgl/src/draw/sw/blend/lv_draw_sw_blend_to_i1.c **** 
 127:Drivers/lvgl/src/draw/sw/blend/lv_draw_sw_blend_to_i1.c **** #ifndef LV_DRAW_SW_RGB565_BLEND_NORMAL_TO_I1_WITH_MASK
 128:Drivers/lvgl/src/draw/sw/blend/lv_draw_sw_blend_to_i1.c ****     #define LV_DRAW_SW_RGB565_BLEND_NORMAL_TO_I1_WITH_MASK(...)       LV_RESULT_INVALID
 129:Drivers/lvgl/src/draw/sw/blend/lv_draw_sw_blend_to_i1.c **** #endif
 130:Drivers/lvgl/src/draw/sw/blend/lv_draw_sw_blend_to_i1.c **** 
 131:Drivers/lvgl/src/draw/sw/blend/lv_draw_sw_blend_to_i1.c **** #ifndef LV_DRAW_SW_RGB565_BLEND_NORMAL_TO_I1_MIX_MASK_OPA
 132:Drivers/lvgl/src/draw/sw/blend/lv_draw_sw_blend_to_i1.c ****     #define LV_DRAW_SW_RGB565_BLEND_NORMAL_TO_I1_MIX_MASK_OPA(...)    LV_RESULT_INVALID
 133:Drivers/lvgl/src/draw/sw/blend/lv_draw_sw_blend_to_i1.c **** #endif
 134:Drivers/lvgl/src/draw/sw/blend/lv_draw_sw_blend_to_i1.c **** 
 135:Drivers/lvgl/src/draw/sw/blend/lv_draw_sw_blend_to_i1.c **** #ifndef LV_DRAW_SW_RGB888_BLEND_NORMAL_TO_I1
 136:Drivers/lvgl/src/draw/sw/blend/lv_draw_sw_blend_to_i1.c ****     #define LV_DRAW_SW_RGB888_BLEND_NORMAL_TO_I1(...)                 LV_RESULT_INVALID
 137:Drivers/lvgl/src/draw/sw/blend/lv_draw_sw_blend_to_i1.c **** #endif
 138:Drivers/lvgl/src/draw/sw/blend/lv_draw_sw_blend_to_i1.c **** 
 139:Drivers/lvgl/src/draw/sw/blend/lv_draw_sw_blend_to_i1.c **** #ifndef LV_DRAW_SW_RGB888_BLEND_NORMAL_TO_I1_WITH_OPA
 140:Drivers/lvgl/src/draw/sw/blend/lv_draw_sw_blend_to_i1.c ****     #define LV_DRAW_SW_RGB888_BLEND_NORMAL_TO_I1_WITH_OPA(...)        LV_RESULT_INVALID
 141:Drivers/lvgl/src/draw/sw/blend/lv_draw_sw_blend_to_i1.c **** #endif
 142:Drivers/lvgl/src/draw/sw/blend/lv_draw_sw_blend_to_i1.c **** 
 143:Drivers/lvgl/src/draw/sw/blend/lv_draw_sw_blend_to_i1.c **** #ifndef LV_DRAW_SW_RGB888_BLEND_NORMAL_TO_I1_WITH_MASK
 144:Drivers/lvgl/src/draw/sw/blend/lv_draw_sw_blend_to_i1.c ****     #define LV_DRAW_SW_RGB888_BLEND_NORMAL_TO_I1_WITH_MASK(...)       LV_RESULT_INVALID
ARM GAS  /tmp/cc9ag92L.s 			page 4


 145:Drivers/lvgl/src/draw/sw/blend/lv_draw_sw_blend_to_i1.c **** #endif
 146:Drivers/lvgl/src/draw/sw/blend/lv_draw_sw_blend_to_i1.c **** 
 147:Drivers/lvgl/src/draw/sw/blend/lv_draw_sw_blend_to_i1.c **** #ifndef LV_DRAW_SW_RGB888_BLEND_NORMAL_TO_I1_MIX_MASK_OPA
 148:Drivers/lvgl/src/draw/sw/blend/lv_draw_sw_blend_to_i1.c ****     #define LV_DRAW_SW_RGB888_BLEND_NORMAL_TO_I1_MIX_MASK_OPA(...)    LV_RESULT_INVALID
 149:Drivers/lvgl/src/draw/sw/blend/lv_draw_sw_blend_to_i1.c **** #endif
 150:Drivers/lvgl/src/draw/sw/blend/lv_draw_sw_blend_to_i1.c **** 
 151:Drivers/lvgl/src/draw/sw/blend/lv_draw_sw_blend_to_i1.c **** #ifndef LV_DRAW_SW_L8_BLEND_NORMAL_TO_I1
 152:Drivers/lvgl/src/draw/sw/blend/lv_draw_sw_blend_to_i1.c ****     #define LV_DRAW_SW_L8_BLEND_NORMAL_TO_I1(...)               LV_RESULT_INVALID
 153:Drivers/lvgl/src/draw/sw/blend/lv_draw_sw_blend_to_i1.c **** #endif
 154:Drivers/lvgl/src/draw/sw/blend/lv_draw_sw_blend_to_i1.c **** 
 155:Drivers/lvgl/src/draw/sw/blend/lv_draw_sw_blend_to_i1.c **** #ifndef LV_DRAW_SW_L8_BLEND_NORMAL_TO_I1_WITH_OPA
 156:Drivers/lvgl/src/draw/sw/blend/lv_draw_sw_blend_to_i1.c ****     #define LV_DRAW_SW_L8_BLEND_NORMAL_TO_I1_WITH_OPA(...)      LV_RESULT_INVALID
 157:Drivers/lvgl/src/draw/sw/blend/lv_draw_sw_blend_to_i1.c **** #endif
 158:Drivers/lvgl/src/draw/sw/blend/lv_draw_sw_blend_to_i1.c **** 
 159:Drivers/lvgl/src/draw/sw/blend/lv_draw_sw_blend_to_i1.c **** #ifndef LV_DRAW_SW_L8_BLEND_NORMAL_TO_I1_WITH_MASK
 160:Drivers/lvgl/src/draw/sw/blend/lv_draw_sw_blend_to_i1.c ****     #define LV_DRAW_SW_L8_BLEND_NORMAL_TO_I1_WITH_MASK(...)     LV_RESULT_INVALID
 161:Drivers/lvgl/src/draw/sw/blend/lv_draw_sw_blend_to_i1.c **** #endif
 162:Drivers/lvgl/src/draw/sw/blend/lv_draw_sw_blend_to_i1.c **** 
 163:Drivers/lvgl/src/draw/sw/blend/lv_draw_sw_blend_to_i1.c **** #ifndef LV_DRAW_SW_L8_BLEND_NORMAL_TO_I1_MIX_MASK_OPA
 164:Drivers/lvgl/src/draw/sw/blend/lv_draw_sw_blend_to_i1.c ****     #define LV_DRAW_SW_L8_BLEND_NORMAL_TO_I1_MIX_MASK_OPA(...)  LV_RESULT_INVALID
 165:Drivers/lvgl/src/draw/sw/blend/lv_draw_sw_blend_to_i1.c **** #endif
 166:Drivers/lvgl/src/draw/sw/blend/lv_draw_sw_blend_to_i1.c **** 
 167:Drivers/lvgl/src/draw/sw/blend/lv_draw_sw_blend_to_i1.c **** #ifndef LV_DRAW_SW_AL88_BLEND_NORMAL_TO_I1
 168:Drivers/lvgl/src/draw/sw/blend/lv_draw_sw_blend_to_i1.c ****     #define LV_DRAW_SW_AL88_BLEND_NORMAL_TO_I1(...)               LV_RESULT_INVALID
 169:Drivers/lvgl/src/draw/sw/blend/lv_draw_sw_blend_to_i1.c **** #endif
 170:Drivers/lvgl/src/draw/sw/blend/lv_draw_sw_blend_to_i1.c **** 
 171:Drivers/lvgl/src/draw/sw/blend/lv_draw_sw_blend_to_i1.c **** #ifndef LV_DRAW_SW_AL88_BLEND_NORMAL_TO_I1_WITH_OPA
 172:Drivers/lvgl/src/draw/sw/blend/lv_draw_sw_blend_to_i1.c ****     #define LV_DRAW_SW_AL88_BLEND_NORMAL_TO_I1_WITH_OPA(...)      LV_RESULT_INVALID
 173:Drivers/lvgl/src/draw/sw/blend/lv_draw_sw_blend_to_i1.c **** #endif
 174:Drivers/lvgl/src/draw/sw/blend/lv_draw_sw_blend_to_i1.c **** 
 175:Drivers/lvgl/src/draw/sw/blend/lv_draw_sw_blend_to_i1.c **** #ifndef LV_DRAW_SW_AL88_BLEND_NORMAL_TO_I1_WITH_MASK
 176:Drivers/lvgl/src/draw/sw/blend/lv_draw_sw_blend_to_i1.c ****     #define LV_DRAW_SW_AL88_BLEND_NORMAL_TO_I1_WITH_MASK(...)     LV_RESULT_INVALID
 177:Drivers/lvgl/src/draw/sw/blend/lv_draw_sw_blend_to_i1.c **** #endif
 178:Drivers/lvgl/src/draw/sw/blend/lv_draw_sw_blend_to_i1.c **** 
 179:Drivers/lvgl/src/draw/sw/blend/lv_draw_sw_blend_to_i1.c **** #ifndef LV_DRAW_SW_AL88_BLEND_NORMAL_TO_I1_MIX_MASK_OPA
 180:Drivers/lvgl/src/draw/sw/blend/lv_draw_sw_blend_to_i1.c ****     #define LV_DRAW_SW_AL88_BLEND_NORMAL_TO_I1_MIX_MASK_OPA(...)  LV_RESULT_INVALID
 181:Drivers/lvgl/src/draw/sw/blend/lv_draw_sw_blend_to_i1.c **** #endif
 182:Drivers/lvgl/src/draw/sw/blend/lv_draw_sw_blend_to_i1.c **** 
 183:Drivers/lvgl/src/draw/sw/blend/lv_draw_sw_blend_to_i1.c **** #ifndef LV_DRAW_SW_ARGB8888_BLEND_NORMAL_TO_I1
 184:Drivers/lvgl/src/draw/sw/blend/lv_draw_sw_blend_to_i1.c ****     #define LV_DRAW_SW_ARGB8888_BLEND_NORMAL_TO_I1(...)               LV_RESULT_INVALID
 185:Drivers/lvgl/src/draw/sw/blend/lv_draw_sw_blend_to_i1.c **** #endif
 186:Drivers/lvgl/src/draw/sw/blend/lv_draw_sw_blend_to_i1.c **** 
 187:Drivers/lvgl/src/draw/sw/blend/lv_draw_sw_blend_to_i1.c **** #ifndef LV_DRAW_SW_ARGB8888_BLEND_NORMAL_TO_I1_WITH_OPA
 188:Drivers/lvgl/src/draw/sw/blend/lv_draw_sw_blend_to_i1.c ****     #define LV_DRAW_SW_ARGB8888_BLEND_NORMAL_TO_I1_WITH_OPA(...)      LV_RESULT_INVALID
 189:Drivers/lvgl/src/draw/sw/blend/lv_draw_sw_blend_to_i1.c **** #endif
 190:Drivers/lvgl/src/draw/sw/blend/lv_draw_sw_blend_to_i1.c **** 
 191:Drivers/lvgl/src/draw/sw/blend/lv_draw_sw_blend_to_i1.c **** #ifndef LV_DRAW_SW_ARGB8888_BLEND_NORMAL_TO_I1_WITH_MASK
 192:Drivers/lvgl/src/draw/sw/blend/lv_draw_sw_blend_to_i1.c ****     #define LV_DRAW_SW_ARGB8888_BLEND_NORMAL_TO_I1_WITH_MASK(...)     LV_RESULT_INVALID
 193:Drivers/lvgl/src/draw/sw/blend/lv_draw_sw_blend_to_i1.c **** #endif
 194:Drivers/lvgl/src/draw/sw/blend/lv_draw_sw_blend_to_i1.c **** 
 195:Drivers/lvgl/src/draw/sw/blend/lv_draw_sw_blend_to_i1.c **** #ifndef LV_DRAW_SW_ARGB8888_BLEND_NORMAL_TO_I1_MIX_MASK_OPA
 196:Drivers/lvgl/src/draw/sw/blend/lv_draw_sw_blend_to_i1.c ****     #define LV_DRAW_SW_ARGB8888_BLEND_NORMAL_TO_I1_MIX_MASK_OPA(...)  LV_RESULT_INVALID
 197:Drivers/lvgl/src/draw/sw/blend/lv_draw_sw_blend_to_i1.c **** #endif
 198:Drivers/lvgl/src/draw/sw/blend/lv_draw_sw_blend_to_i1.c **** 
 199:Drivers/lvgl/src/draw/sw/blend/lv_draw_sw_blend_to_i1.c **** /**********************
 200:Drivers/lvgl/src/draw/sw/blend/lv_draw_sw_blend_to_i1.c ****  *   GLOBAL FUNCTIONS
 201:Drivers/lvgl/src/draw/sw/blend/lv_draw_sw_blend_to_i1.c ****  **********************/
ARM GAS  /tmp/cc9ag92L.s 			page 5


 202:Drivers/lvgl/src/draw/sw/blend/lv_draw_sw_blend_to_i1.c **** 
 203:Drivers/lvgl/src/draw/sw/blend/lv_draw_sw_blend_to_i1.c **** void LV_ATTRIBUTE_FAST_MEM lv_draw_sw_blend_color_to_i1(lv_draw_sw_blend_fill_dsc_t * dsc)
 204:Drivers/lvgl/src/draw/sw/blend/lv_draw_sw_blend_to_i1.c **** {
 205:Drivers/lvgl/src/draw/sw/blend/lv_draw_sw_blend_to_i1.c ****     int32_t w = dsc->dest_w;
 206:Drivers/lvgl/src/draw/sw/blend/lv_draw_sw_blend_to_i1.c ****     int32_t h = dsc->dest_h;
 207:Drivers/lvgl/src/draw/sw/blend/lv_draw_sw_blend_to_i1.c ****     lv_opa_t opa = dsc->opa;
 208:Drivers/lvgl/src/draw/sw/blend/lv_draw_sw_blend_to_i1.c ****     const lv_opa_t * mask = dsc->mask_buf;
 209:Drivers/lvgl/src/draw/sw/blend/lv_draw_sw_blend_to_i1.c ****     int32_t mask_stride = dsc->mask_stride;
 210:Drivers/lvgl/src/draw/sw/blend/lv_draw_sw_blend_to_i1.c ****     int32_t dest_stride = dsc->dest_stride;
 211:Drivers/lvgl/src/draw/sw/blend/lv_draw_sw_blend_to_i1.c **** 
 212:Drivers/lvgl/src/draw/sw/blend/lv_draw_sw_blend_to_i1.c ****     uint8_t src_color = lv_color_luminance(dsc->color) / (I1_LUM_THRESHOLD + 1);
 213:Drivers/lvgl/src/draw/sw/blend/lv_draw_sw_blend_to_i1.c ****     uint8_t * dest_buf = dsc->dest_buf;
 214:Drivers/lvgl/src/draw/sw/blend/lv_draw_sw_blend_to_i1.c **** 
 215:Drivers/lvgl/src/draw/sw/blend/lv_draw_sw_blend_to_i1.c ****     int32_t bit_ofs = dsc->relative_area.x1 % 8;
 216:Drivers/lvgl/src/draw/sw/blend/lv_draw_sw_blend_to_i1.c **** 
 217:Drivers/lvgl/src/draw/sw/blend/lv_draw_sw_blend_to_i1.c ****     /* Simple fill */
 218:Drivers/lvgl/src/draw/sw/blend/lv_draw_sw_blend_to_i1.c ****     if(mask == NULL && opa >= LV_OPA_MAX) {
 219:Drivers/lvgl/src/draw/sw/blend/lv_draw_sw_blend_to_i1.c ****         if(LV_RESULT_INVALID == LV_DRAW_SW_COLOR_BLEND_TO_I1(dsc)) {
 220:Drivers/lvgl/src/draw/sw/blend/lv_draw_sw_blend_to_i1.c ****             for(int32_t y = 0; y < h; y++) {
 221:Drivers/lvgl/src/draw/sw/blend/lv_draw_sw_blend_to_i1.c ****                 for(int32_t x = 0; x < w; x++) {
 222:Drivers/lvgl/src/draw/sw/blend/lv_draw_sw_blend_to_i1.c ****                     if(src_color) {
 223:Drivers/lvgl/src/draw/sw/blend/lv_draw_sw_blend_to_i1.c ****                         set_bit(dest_buf, x + bit_ofs);
 224:Drivers/lvgl/src/draw/sw/blend/lv_draw_sw_blend_to_i1.c ****                     }
 225:Drivers/lvgl/src/draw/sw/blend/lv_draw_sw_blend_to_i1.c ****                     else {
 226:Drivers/lvgl/src/draw/sw/blend/lv_draw_sw_blend_to_i1.c ****                         clear_bit(dest_buf, x + bit_ofs);
 227:Drivers/lvgl/src/draw/sw/blend/lv_draw_sw_blend_to_i1.c ****                     }
 228:Drivers/lvgl/src/draw/sw/blend/lv_draw_sw_blend_to_i1.c ****                 }
 229:Drivers/lvgl/src/draw/sw/blend/lv_draw_sw_blend_to_i1.c ****                 dest_buf = drawbuf_next_row(dest_buf, dest_stride);
 230:Drivers/lvgl/src/draw/sw/blend/lv_draw_sw_blend_to_i1.c ****             }
 231:Drivers/lvgl/src/draw/sw/blend/lv_draw_sw_blend_to_i1.c ****         }
 232:Drivers/lvgl/src/draw/sw/blend/lv_draw_sw_blend_to_i1.c ****     }
 233:Drivers/lvgl/src/draw/sw/blend/lv_draw_sw_blend_to_i1.c ****     /* Opacity only */
 234:Drivers/lvgl/src/draw/sw/blend/lv_draw_sw_blend_to_i1.c ****     else if(mask == NULL && opa < LV_OPA_MAX) {
 235:Drivers/lvgl/src/draw/sw/blend/lv_draw_sw_blend_to_i1.c ****         if(LV_RESULT_INVALID == LV_DRAW_SW_COLOR_BLEND_TO_I1_WITH_OPA(dsc)) {
 236:Drivers/lvgl/src/draw/sw/blend/lv_draw_sw_blend_to_i1.c ****             for(int32_t y = 0; y < h; y++) {
 237:Drivers/lvgl/src/draw/sw/blend/lv_draw_sw_blend_to_i1.c ****                 for(int32_t x = 0; x < w; x++) {
 238:Drivers/lvgl/src/draw/sw/blend/lv_draw_sw_blend_to_i1.c ****                     uint8_t * dest_bit = &dest_buf[(x + bit_ofs) / 8];
 239:Drivers/lvgl/src/draw/sw/blend/lv_draw_sw_blend_to_i1.c ****                     uint8_t current_bit = (*dest_bit >> (7 - ((x + bit_ofs) % 8))) & 0x01;
 240:Drivers/lvgl/src/draw/sw/blend/lv_draw_sw_blend_to_i1.c ****                     uint8_t new_bit = (opa * src_color + (255 - opa) * current_bit) / 255;
 241:Drivers/lvgl/src/draw/sw/blend/lv_draw_sw_blend_to_i1.c ****                     if(new_bit) {
 242:Drivers/lvgl/src/draw/sw/blend/lv_draw_sw_blend_to_i1.c ****                         set_bit(dest_buf, x + bit_ofs);
 243:Drivers/lvgl/src/draw/sw/blend/lv_draw_sw_blend_to_i1.c ****                     }
 244:Drivers/lvgl/src/draw/sw/blend/lv_draw_sw_blend_to_i1.c ****                     else {
 245:Drivers/lvgl/src/draw/sw/blend/lv_draw_sw_blend_to_i1.c ****                         clear_bit(dest_buf, x + bit_ofs);
 246:Drivers/lvgl/src/draw/sw/blend/lv_draw_sw_blend_to_i1.c ****                     }
 247:Drivers/lvgl/src/draw/sw/blend/lv_draw_sw_blend_to_i1.c ****                 }
 248:Drivers/lvgl/src/draw/sw/blend/lv_draw_sw_blend_to_i1.c ****                 dest_buf = drawbuf_next_row(dest_buf, dest_stride);
 249:Drivers/lvgl/src/draw/sw/blend/lv_draw_sw_blend_to_i1.c ****             }
 250:Drivers/lvgl/src/draw/sw/blend/lv_draw_sw_blend_to_i1.c ****         }
 251:Drivers/lvgl/src/draw/sw/blend/lv_draw_sw_blend_to_i1.c ****     }
 252:Drivers/lvgl/src/draw/sw/blend/lv_draw_sw_blend_to_i1.c ****     /* Masked with full opacity */
 253:Drivers/lvgl/src/draw/sw/blend/lv_draw_sw_blend_to_i1.c ****     else if(mask && opa >= LV_OPA_MAX) {
 254:Drivers/lvgl/src/draw/sw/blend/lv_draw_sw_blend_to_i1.c ****         if(LV_RESULT_INVALID == LV_DRAW_SW_COLOR_BLEND_TO_I1_WITH_MASK(dsc)) {
 255:Drivers/lvgl/src/draw/sw/blend/lv_draw_sw_blend_to_i1.c ****             for(int32_t y = 0; y < h; y++) {
 256:Drivers/lvgl/src/draw/sw/blend/lv_draw_sw_blend_to_i1.c ****                 for(int32_t x = 0; x < w; x++) {
 257:Drivers/lvgl/src/draw/sw/blend/lv_draw_sw_blend_to_i1.c ****                     uint8_t mask_val = mask[x];
 258:Drivers/lvgl/src/draw/sw/blend/lv_draw_sw_blend_to_i1.c ****                     if(mask_val == LV_OPA_TRANSP) continue;
ARM GAS  /tmp/cc9ag92L.s 			page 6


 259:Drivers/lvgl/src/draw/sw/blend/lv_draw_sw_blend_to_i1.c ****                     if(mask_val == LV_OPA_COVER) {
 260:Drivers/lvgl/src/draw/sw/blend/lv_draw_sw_blend_to_i1.c ****                         if(src_color) {
 261:Drivers/lvgl/src/draw/sw/blend/lv_draw_sw_blend_to_i1.c ****                             set_bit(dest_buf, x + bit_ofs);
 262:Drivers/lvgl/src/draw/sw/blend/lv_draw_sw_blend_to_i1.c ****                         }
 263:Drivers/lvgl/src/draw/sw/blend/lv_draw_sw_blend_to_i1.c ****                         else {
 264:Drivers/lvgl/src/draw/sw/blend/lv_draw_sw_blend_to_i1.c ****                             clear_bit(dest_buf, x + bit_ofs);
 265:Drivers/lvgl/src/draw/sw/blend/lv_draw_sw_blend_to_i1.c ****                         }
 266:Drivers/lvgl/src/draw/sw/blend/lv_draw_sw_blend_to_i1.c ****                     }
 267:Drivers/lvgl/src/draw/sw/blend/lv_draw_sw_blend_to_i1.c ****                     else {
 268:Drivers/lvgl/src/draw/sw/blend/lv_draw_sw_blend_to_i1.c ****                         uint8_t * dest_bit = &dest_buf[(x + bit_ofs) / 8];
 269:Drivers/lvgl/src/draw/sw/blend/lv_draw_sw_blend_to_i1.c ****                         uint8_t current_bit = (*dest_bit >> (7 - ((x + bit_ofs) % 8))) & 0x01;
 270:Drivers/lvgl/src/draw/sw/blend/lv_draw_sw_blend_to_i1.c ****                         uint8_t new_bit = (mask_val * src_color + (255 - mask_val) * current_bit) /
 271:Drivers/lvgl/src/draw/sw/blend/lv_draw_sw_blend_to_i1.c ****                         if(new_bit) {
 272:Drivers/lvgl/src/draw/sw/blend/lv_draw_sw_blend_to_i1.c ****                             set_bit(dest_buf, x + bit_ofs);
 273:Drivers/lvgl/src/draw/sw/blend/lv_draw_sw_blend_to_i1.c ****                         }
 274:Drivers/lvgl/src/draw/sw/blend/lv_draw_sw_blend_to_i1.c ****                         else {
 275:Drivers/lvgl/src/draw/sw/blend/lv_draw_sw_blend_to_i1.c ****                             clear_bit(dest_buf, x + bit_ofs);
 276:Drivers/lvgl/src/draw/sw/blend/lv_draw_sw_blend_to_i1.c ****                         }
 277:Drivers/lvgl/src/draw/sw/blend/lv_draw_sw_blend_to_i1.c ****                     }
 278:Drivers/lvgl/src/draw/sw/blend/lv_draw_sw_blend_to_i1.c ****                 }
 279:Drivers/lvgl/src/draw/sw/blend/lv_draw_sw_blend_to_i1.c ****                 dest_buf = drawbuf_next_row(dest_buf, dest_stride);
 280:Drivers/lvgl/src/draw/sw/blend/lv_draw_sw_blend_to_i1.c ****                 mask += mask_stride;
 281:Drivers/lvgl/src/draw/sw/blend/lv_draw_sw_blend_to_i1.c ****             }
 282:Drivers/lvgl/src/draw/sw/blend/lv_draw_sw_blend_to_i1.c ****         }
 283:Drivers/lvgl/src/draw/sw/blend/lv_draw_sw_blend_to_i1.c ****     }
 284:Drivers/lvgl/src/draw/sw/blend/lv_draw_sw_blend_to_i1.c ****     /* Masked with opacity */
 285:Drivers/lvgl/src/draw/sw/blend/lv_draw_sw_blend_to_i1.c ****     else {
 286:Drivers/lvgl/src/draw/sw/blend/lv_draw_sw_blend_to_i1.c ****         if(LV_RESULT_INVALID == LV_DRAW_SW_COLOR_BLEND_TO_I1_MIX_MASK_OPA(dsc)) {
 287:Drivers/lvgl/src/draw/sw/blend/lv_draw_sw_blend_to_i1.c ****             for(int32_t y = 0; y < h; y++) {
 288:Drivers/lvgl/src/draw/sw/blend/lv_draw_sw_blend_to_i1.c ****                 for(int32_t x = 0; x < w; x++) {
 289:Drivers/lvgl/src/draw/sw/blend/lv_draw_sw_blend_to_i1.c ****                     uint8_t mask_val = mask[x];
 290:Drivers/lvgl/src/draw/sw/blend/lv_draw_sw_blend_to_i1.c ****                     if(mask_val == LV_OPA_TRANSP) continue;
 291:Drivers/lvgl/src/draw/sw/blend/lv_draw_sw_blend_to_i1.c ****                     uint8_t * dest_bit = &dest_buf[(x + bit_ofs) / 8];
 292:Drivers/lvgl/src/draw/sw/blend/lv_draw_sw_blend_to_i1.c ****                     uint8_t current_bit = (*dest_bit >> (7 - ((x  + bit_ofs) % 8))) & 0x01;
 293:Drivers/lvgl/src/draw/sw/blend/lv_draw_sw_blend_to_i1.c ****                     uint8_t blended_opa = (mask_val * opa) / 255;
 294:Drivers/lvgl/src/draw/sw/blend/lv_draw_sw_blend_to_i1.c ****                     uint8_t new_bit = (blended_opa * src_color + (255 - blended_opa) * current_bit)
 295:Drivers/lvgl/src/draw/sw/blend/lv_draw_sw_blend_to_i1.c ****                     if(new_bit) {
 296:Drivers/lvgl/src/draw/sw/blend/lv_draw_sw_blend_to_i1.c ****                         set_bit(dest_buf, x + bit_ofs);
 297:Drivers/lvgl/src/draw/sw/blend/lv_draw_sw_blend_to_i1.c ****                     }
 298:Drivers/lvgl/src/draw/sw/blend/lv_draw_sw_blend_to_i1.c ****                     else {
 299:Drivers/lvgl/src/draw/sw/blend/lv_draw_sw_blend_to_i1.c ****                         clear_bit(dest_buf, x + bit_ofs);
 300:Drivers/lvgl/src/draw/sw/blend/lv_draw_sw_blend_to_i1.c ****                     }
 301:Drivers/lvgl/src/draw/sw/blend/lv_draw_sw_blend_to_i1.c ****                 }
 302:Drivers/lvgl/src/draw/sw/blend/lv_draw_sw_blend_to_i1.c ****                 dest_buf = drawbuf_next_row(dest_buf, dest_stride);
 303:Drivers/lvgl/src/draw/sw/blend/lv_draw_sw_blend_to_i1.c ****                 mask += mask_stride;
 304:Drivers/lvgl/src/draw/sw/blend/lv_draw_sw_blend_to_i1.c ****             }
 305:Drivers/lvgl/src/draw/sw/blend/lv_draw_sw_blend_to_i1.c ****         }
 306:Drivers/lvgl/src/draw/sw/blend/lv_draw_sw_blend_to_i1.c ****     }
 307:Drivers/lvgl/src/draw/sw/blend/lv_draw_sw_blend_to_i1.c **** }
 308:Drivers/lvgl/src/draw/sw/blend/lv_draw_sw_blend_to_i1.c **** 
 309:Drivers/lvgl/src/draw/sw/blend/lv_draw_sw_blend_to_i1.c **** void LV_ATTRIBUTE_FAST_MEM lv_draw_sw_blend_image_to_i1(lv_draw_sw_blend_image_dsc_t * dsc)
 310:Drivers/lvgl/src/draw/sw/blend/lv_draw_sw_blend_to_i1.c **** {
 311:Drivers/lvgl/src/draw/sw/blend/lv_draw_sw_blend_to_i1.c ****     switch(dsc->src_color_format) {
 312:Drivers/lvgl/src/draw/sw/blend/lv_draw_sw_blend_to_i1.c **** #if LV_DRAW_SW_SUPPORT_RGB565
 313:Drivers/lvgl/src/draw/sw/blend/lv_draw_sw_blend_to_i1.c ****         case LV_COLOR_FORMAT_RGB565:
 314:Drivers/lvgl/src/draw/sw/blend/lv_draw_sw_blend_to_i1.c ****             rgb565_image_blend(dsc);
 315:Drivers/lvgl/src/draw/sw/blend/lv_draw_sw_blend_to_i1.c ****             break;
ARM GAS  /tmp/cc9ag92L.s 			page 7


 316:Drivers/lvgl/src/draw/sw/blend/lv_draw_sw_blend_to_i1.c **** #endif
 317:Drivers/lvgl/src/draw/sw/blend/lv_draw_sw_blend_to_i1.c **** #if LV_DRAW_SW_SUPPORT_RGB888
 318:Drivers/lvgl/src/draw/sw/blend/lv_draw_sw_blend_to_i1.c ****         case LV_COLOR_FORMAT_RGB888:
 319:Drivers/lvgl/src/draw/sw/blend/lv_draw_sw_blend_to_i1.c ****             rgb888_image_blend(dsc, 3);
 320:Drivers/lvgl/src/draw/sw/blend/lv_draw_sw_blend_to_i1.c ****             break;
 321:Drivers/lvgl/src/draw/sw/blend/lv_draw_sw_blend_to_i1.c **** #endif
 322:Drivers/lvgl/src/draw/sw/blend/lv_draw_sw_blend_to_i1.c **** #if LV_DRAW_SW_SUPPORT_XRGB8888
 323:Drivers/lvgl/src/draw/sw/blend/lv_draw_sw_blend_to_i1.c ****         case LV_COLOR_FORMAT_XRGB8888:
 324:Drivers/lvgl/src/draw/sw/blend/lv_draw_sw_blend_to_i1.c ****             rgb888_image_blend(dsc, 4);
 325:Drivers/lvgl/src/draw/sw/blend/lv_draw_sw_blend_to_i1.c ****             break;
 326:Drivers/lvgl/src/draw/sw/blend/lv_draw_sw_blend_to_i1.c **** #endif
 327:Drivers/lvgl/src/draw/sw/blend/lv_draw_sw_blend_to_i1.c **** #if LV_DRAW_SW_SUPPORT_ARGB8888
 328:Drivers/lvgl/src/draw/sw/blend/lv_draw_sw_blend_to_i1.c ****         case LV_COLOR_FORMAT_ARGB8888:
 329:Drivers/lvgl/src/draw/sw/blend/lv_draw_sw_blend_to_i1.c ****             argb8888_image_blend(dsc);
 330:Drivers/lvgl/src/draw/sw/blend/lv_draw_sw_blend_to_i1.c ****             break;
 331:Drivers/lvgl/src/draw/sw/blend/lv_draw_sw_blend_to_i1.c **** #endif
 332:Drivers/lvgl/src/draw/sw/blend/lv_draw_sw_blend_to_i1.c **** #if LV_DRAW_SW_SUPPORT_L8
 333:Drivers/lvgl/src/draw/sw/blend/lv_draw_sw_blend_to_i1.c ****         case LV_COLOR_FORMAT_L8:
 334:Drivers/lvgl/src/draw/sw/blend/lv_draw_sw_blend_to_i1.c ****             l8_image_blend(dsc);
 335:Drivers/lvgl/src/draw/sw/blend/lv_draw_sw_blend_to_i1.c ****             break;
 336:Drivers/lvgl/src/draw/sw/blend/lv_draw_sw_blend_to_i1.c **** #endif
 337:Drivers/lvgl/src/draw/sw/blend/lv_draw_sw_blend_to_i1.c **** #if LV_DRAW_SW_SUPPORT_AL88
 338:Drivers/lvgl/src/draw/sw/blend/lv_draw_sw_blend_to_i1.c ****         case LV_COLOR_FORMAT_AL88:
 339:Drivers/lvgl/src/draw/sw/blend/lv_draw_sw_blend_to_i1.c ****             al88_image_blend(dsc);
 340:Drivers/lvgl/src/draw/sw/blend/lv_draw_sw_blend_to_i1.c ****             break;
 341:Drivers/lvgl/src/draw/sw/blend/lv_draw_sw_blend_to_i1.c **** #endif
 342:Drivers/lvgl/src/draw/sw/blend/lv_draw_sw_blend_to_i1.c ****         case LV_COLOR_FORMAT_I1:
 343:Drivers/lvgl/src/draw/sw/blend/lv_draw_sw_blend_to_i1.c ****             i1_image_blend(dsc);
 344:Drivers/lvgl/src/draw/sw/blend/lv_draw_sw_blend_to_i1.c ****             break;
 345:Drivers/lvgl/src/draw/sw/blend/lv_draw_sw_blend_to_i1.c ****         default:
 346:Drivers/lvgl/src/draw/sw/blend/lv_draw_sw_blend_to_i1.c ****             LV_LOG_WARN("Not supported source color format");
 347:Drivers/lvgl/src/draw/sw/blend/lv_draw_sw_blend_to_i1.c ****             break;
 348:Drivers/lvgl/src/draw/sw/blend/lv_draw_sw_blend_to_i1.c ****     }
 349:Drivers/lvgl/src/draw/sw/blend/lv_draw_sw_blend_to_i1.c **** }
 350:Drivers/lvgl/src/draw/sw/blend/lv_draw_sw_blend_to_i1.c **** 
 351:Drivers/lvgl/src/draw/sw/blend/lv_draw_sw_blend_to_i1.c **** /**********************
 352:Drivers/lvgl/src/draw/sw/blend/lv_draw_sw_blend_to_i1.c ****  *   STATIC FUNCTIONS
 353:Drivers/lvgl/src/draw/sw/blend/lv_draw_sw_blend_to_i1.c ****  **********************/
 354:Drivers/lvgl/src/draw/sw/blend/lv_draw_sw_blend_to_i1.c **** 
 355:Drivers/lvgl/src/draw/sw/blend/lv_draw_sw_blend_to_i1.c **** static void LV_ATTRIBUTE_FAST_MEM i1_image_blend(lv_draw_sw_blend_image_dsc_t * dsc)
 356:Drivers/lvgl/src/draw/sw/blend/lv_draw_sw_blend_to_i1.c **** {
 357:Drivers/lvgl/src/draw/sw/blend/lv_draw_sw_blend_to_i1.c ****     int32_t w = dsc->dest_w;
 358:Drivers/lvgl/src/draw/sw/blend/lv_draw_sw_blend_to_i1.c ****     int32_t h = dsc->dest_h;
 359:Drivers/lvgl/src/draw/sw/blend/lv_draw_sw_blend_to_i1.c ****     lv_opa_t opa = dsc->opa;
 360:Drivers/lvgl/src/draw/sw/blend/lv_draw_sw_blend_to_i1.c ****     uint8_t * dest_buf_i1 = dsc->dest_buf;
 361:Drivers/lvgl/src/draw/sw/blend/lv_draw_sw_blend_to_i1.c ****     int32_t dest_stride = dsc->dest_stride;
 362:Drivers/lvgl/src/draw/sw/blend/lv_draw_sw_blend_to_i1.c ****     const uint8_t * src_buf_i1 = dsc->src_buf;
 363:Drivers/lvgl/src/draw/sw/blend/lv_draw_sw_blend_to_i1.c ****     int32_t src_stride = dsc->src_stride;
 364:Drivers/lvgl/src/draw/sw/blend/lv_draw_sw_blend_to_i1.c ****     const lv_opa_t * mask_buf = dsc->mask_buf;
 365:Drivers/lvgl/src/draw/sw/blend/lv_draw_sw_blend_to_i1.c ****     int32_t mask_stride = dsc->mask_stride;
 366:Drivers/lvgl/src/draw/sw/blend/lv_draw_sw_blend_to_i1.c **** 
 367:Drivers/lvgl/src/draw/sw/blend/lv_draw_sw_blend_to_i1.c ****     int32_t dest_x;
 368:Drivers/lvgl/src/draw/sw/blend/lv_draw_sw_blend_to_i1.c ****     int32_t src_x;
 369:Drivers/lvgl/src/draw/sw/blend/lv_draw_sw_blend_to_i1.c ****     int32_t y;
 370:Drivers/lvgl/src/draw/sw/blend/lv_draw_sw_blend_to_i1.c **** 
 371:Drivers/lvgl/src/draw/sw/blend/lv_draw_sw_blend_to_i1.c ****     int32_t bit_ofs = dsc->relative_area.x1 % 8;
 372:Drivers/lvgl/src/draw/sw/blend/lv_draw_sw_blend_to_i1.c **** 
ARM GAS  /tmp/cc9ag92L.s 			page 8


 373:Drivers/lvgl/src/draw/sw/blend/lv_draw_sw_blend_to_i1.c ****     if(dsc->blend_mode == LV_BLEND_MODE_NORMAL) {
 374:Drivers/lvgl/src/draw/sw/blend/lv_draw_sw_blend_to_i1.c ****         if(mask_buf == NULL && opa >= LV_OPA_MAX) {
 375:Drivers/lvgl/src/draw/sw/blend/lv_draw_sw_blend_to_i1.c ****             if(LV_RESULT_INVALID == LV_DRAW_SW_I1_BLEND_NORMAL_TO_I1(dsc)) {
 376:Drivers/lvgl/src/draw/sw/blend/lv_draw_sw_blend_to_i1.c ****                 for(y = 0; y < h; y++) {
 377:Drivers/lvgl/src/draw/sw/blend/lv_draw_sw_blend_to_i1.c ****                     for(dest_x = 0, src_x = 0; src_x < w; dest_x++, src_x++) {
 378:Drivers/lvgl/src/draw/sw/blend/lv_draw_sw_blend_to_i1.c ****                         if(get_bit(src_buf_i1, src_x)) {
 379:Drivers/lvgl/src/draw/sw/blend/lv_draw_sw_blend_to_i1.c ****                             set_bit(dest_buf_i1, dest_x + bit_ofs);
 380:Drivers/lvgl/src/draw/sw/blend/lv_draw_sw_blend_to_i1.c ****                         }
 381:Drivers/lvgl/src/draw/sw/blend/lv_draw_sw_blend_to_i1.c ****                         else {
 382:Drivers/lvgl/src/draw/sw/blend/lv_draw_sw_blend_to_i1.c ****                             clear_bit(dest_buf_i1, dest_x + bit_ofs);
 383:Drivers/lvgl/src/draw/sw/blend/lv_draw_sw_blend_to_i1.c ****                         }
 384:Drivers/lvgl/src/draw/sw/blend/lv_draw_sw_blend_to_i1.c ****                     }
 385:Drivers/lvgl/src/draw/sw/blend/lv_draw_sw_blend_to_i1.c ****                     dest_buf_i1 = drawbuf_next_row(dest_buf_i1, dest_stride);
 386:Drivers/lvgl/src/draw/sw/blend/lv_draw_sw_blend_to_i1.c ****                     src_buf_i1 = drawbuf_next_row(src_buf_i1, src_stride);
 387:Drivers/lvgl/src/draw/sw/blend/lv_draw_sw_blend_to_i1.c ****                 }
 388:Drivers/lvgl/src/draw/sw/blend/lv_draw_sw_blend_to_i1.c ****             }
 389:Drivers/lvgl/src/draw/sw/blend/lv_draw_sw_blend_to_i1.c ****         }
 390:Drivers/lvgl/src/draw/sw/blend/lv_draw_sw_blend_to_i1.c ****         else if(mask_buf == NULL && opa < LV_OPA_MAX) {
 391:Drivers/lvgl/src/draw/sw/blend/lv_draw_sw_blend_to_i1.c ****             if(LV_RESULT_INVALID == LV_DRAW_SW_I1_BLEND_NORMAL_TO_I1_WITH_OPA(dsc)) {
 392:Drivers/lvgl/src/draw/sw/blend/lv_draw_sw_blend_to_i1.c ****                 for(y = 0; y < h; y++) {
 393:Drivers/lvgl/src/draw/sw/blend/lv_draw_sw_blend_to_i1.c ****                     for(dest_x = 0, src_x = 0; src_x < w; dest_x++, src_x++) {
 394:Drivers/lvgl/src/draw/sw/blend/lv_draw_sw_blend_to_i1.c ****                         uint8_t src = get_bit(src_buf_i1, src_x);
 395:Drivers/lvgl/src/draw/sw/blend/lv_draw_sw_blend_to_i1.c ****                         uint8_t dest = get_bit(dest_buf_i1, dest_x + bit_ofs);
 396:Drivers/lvgl/src/draw/sw/blend/lv_draw_sw_blend_to_i1.c ****                         uint8_t blended = (src * opa + dest * (255 - opa));
 397:Drivers/lvgl/src/draw/sw/blend/lv_draw_sw_blend_to_i1.c ****                         if(blended > I1_LUM_THRESHOLD) {
 398:Drivers/lvgl/src/draw/sw/blend/lv_draw_sw_blend_to_i1.c ****                             set_bit(dest_buf_i1, dest_x + bit_ofs);
 399:Drivers/lvgl/src/draw/sw/blend/lv_draw_sw_blend_to_i1.c ****                         }
 400:Drivers/lvgl/src/draw/sw/blend/lv_draw_sw_blend_to_i1.c ****                         else  {
 401:Drivers/lvgl/src/draw/sw/blend/lv_draw_sw_blend_to_i1.c ****                             clear_bit(dest_buf_i1, dest_x + bit_ofs);
 402:Drivers/lvgl/src/draw/sw/blend/lv_draw_sw_blend_to_i1.c ****                         }
 403:Drivers/lvgl/src/draw/sw/blend/lv_draw_sw_blend_to_i1.c ****                     }
 404:Drivers/lvgl/src/draw/sw/blend/lv_draw_sw_blend_to_i1.c ****                     dest_buf_i1 = drawbuf_next_row(dest_buf_i1, dest_stride);
 405:Drivers/lvgl/src/draw/sw/blend/lv_draw_sw_blend_to_i1.c ****                     src_buf_i1 = drawbuf_next_row(src_buf_i1, src_stride);
 406:Drivers/lvgl/src/draw/sw/blend/lv_draw_sw_blend_to_i1.c ****                 }
 407:Drivers/lvgl/src/draw/sw/blend/lv_draw_sw_blend_to_i1.c ****             }
 408:Drivers/lvgl/src/draw/sw/blend/lv_draw_sw_blend_to_i1.c ****         }
 409:Drivers/lvgl/src/draw/sw/blend/lv_draw_sw_blend_to_i1.c ****         else if(mask_buf && opa >= LV_OPA_MAX) {
 410:Drivers/lvgl/src/draw/sw/blend/lv_draw_sw_blend_to_i1.c ****             if(LV_RESULT_INVALID == LV_DRAW_SW_I1_BLEND_NORMAL_TO_I1_WITH_MASK(dsc)) {
 411:Drivers/lvgl/src/draw/sw/blend/lv_draw_sw_blend_to_i1.c ****                 for(y = 0; y < h; y++) {
 412:Drivers/lvgl/src/draw/sw/blend/lv_draw_sw_blend_to_i1.c ****                     for(dest_x = 0, src_x = 0; src_x < w; dest_x++, src_x++) {
 413:Drivers/lvgl/src/draw/sw/blend/lv_draw_sw_blend_to_i1.c ****                         uint8_t mask_val = mask_buf[src_x];
 414:Drivers/lvgl/src/draw/sw/blend/lv_draw_sw_blend_to_i1.c ****                         uint8_t src = get_bit(src_buf_i1, src_x);
 415:Drivers/lvgl/src/draw/sw/blend/lv_draw_sw_blend_to_i1.c ****                         uint8_t dest = get_bit(dest_buf_i1, dest_x + bit_ofs);
 416:Drivers/lvgl/src/draw/sw/blend/lv_draw_sw_blend_to_i1.c ****                         uint8_t blended = (src * mask_val + dest * (255 - mask_val));
 417:Drivers/lvgl/src/draw/sw/blend/lv_draw_sw_blend_to_i1.c ****                         if(blended > I1_LUM_THRESHOLD) {
 418:Drivers/lvgl/src/draw/sw/blend/lv_draw_sw_blend_to_i1.c ****                             set_bit(dest_buf_i1, dest_x + bit_ofs);
 419:Drivers/lvgl/src/draw/sw/blend/lv_draw_sw_blend_to_i1.c ****                         }
 420:Drivers/lvgl/src/draw/sw/blend/lv_draw_sw_blend_to_i1.c ****                         else  {
 421:Drivers/lvgl/src/draw/sw/blend/lv_draw_sw_blend_to_i1.c ****                             clear_bit(dest_buf_i1, dest_x + bit_ofs);
 422:Drivers/lvgl/src/draw/sw/blend/lv_draw_sw_blend_to_i1.c ****                         }
 423:Drivers/lvgl/src/draw/sw/blend/lv_draw_sw_blend_to_i1.c ****                     }
 424:Drivers/lvgl/src/draw/sw/blend/lv_draw_sw_blend_to_i1.c ****                     dest_buf_i1 = drawbuf_next_row(dest_buf_i1, dest_stride);
 425:Drivers/lvgl/src/draw/sw/blend/lv_draw_sw_blend_to_i1.c ****                     src_buf_i1 = drawbuf_next_row(src_buf_i1, src_stride);
 426:Drivers/lvgl/src/draw/sw/blend/lv_draw_sw_blend_to_i1.c ****                     mask_buf += mask_stride;
 427:Drivers/lvgl/src/draw/sw/blend/lv_draw_sw_blend_to_i1.c ****                 }
 428:Drivers/lvgl/src/draw/sw/blend/lv_draw_sw_blend_to_i1.c ****             }
 429:Drivers/lvgl/src/draw/sw/blend/lv_draw_sw_blend_to_i1.c ****         }
ARM GAS  /tmp/cc9ag92L.s 			page 9


 430:Drivers/lvgl/src/draw/sw/blend/lv_draw_sw_blend_to_i1.c ****         else if(mask_buf && opa < LV_OPA_MAX) {
 431:Drivers/lvgl/src/draw/sw/blend/lv_draw_sw_blend_to_i1.c ****             if(LV_RESULT_INVALID == LV_DRAW_SW_I1_BLEND_NORMAL_TO_I1_MIX_MASK_OPA(dsc)) {
 432:Drivers/lvgl/src/draw/sw/blend/lv_draw_sw_blend_to_i1.c ****                 for(y = 0; y < h; y++) {
 433:Drivers/lvgl/src/draw/sw/blend/lv_draw_sw_blend_to_i1.c ****                     for(dest_x = 0, src_x = 0; src_x < w; dest_x++, src_x++) {
 434:Drivers/lvgl/src/draw/sw/blend/lv_draw_sw_blend_to_i1.c ****                         uint8_t mask_val = mask_buf[src_x];
 435:Drivers/lvgl/src/draw/sw/blend/lv_draw_sw_blend_to_i1.c ****                         if(mask_val == LV_OPA_TRANSP) continue;
 436:Drivers/lvgl/src/draw/sw/blend/lv_draw_sw_blend_to_i1.c ****                         uint8_t src = get_bit(src_buf_i1, src_x);
 437:Drivers/lvgl/src/draw/sw/blend/lv_draw_sw_blend_to_i1.c ****                         uint8_t dest = get_bit(dest_buf_i1, dest_x + bit_ofs);
 438:Drivers/lvgl/src/draw/sw/blend/lv_draw_sw_blend_to_i1.c ****                         uint8_t blend_opa = LV_OPA_MIX2(mask_val, opa);
 439:Drivers/lvgl/src/draw/sw/blend/lv_draw_sw_blend_to_i1.c ****                         uint8_t blended = (src * blend_opa + dest * (255 - blend_opa));
 440:Drivers/lvgl/src/draw/sw/blend/lv_draw_sw_blend_to_i1.c ****                         if(blended > I1_LUM_THRESHOLD) {
 441:Drivers/lvgl/src/draw/sw/blend/lv_draw_sw_blend_to_i1.c ****                             set_bit(dest_buf_i1, dest_x + bit_ofs);
 442:Drivers/lvgl/src/draw/sw/blend/lv_draw_sw_blend_to_i1.c ****                         }
 443:Drivers/lvgl/src/draw/sw/blend/lv_draw_sw_blend_to_i1.c ****                         else  {
 444:Drivers/lvgl/src/draw/sw/blend/lv_draw_sw_blend_to_i1.c ****                             clear_bit(dest_buf_i1, dest_x + bit_ofs);
 445:Drivers/lvgl/src/draw/sw/blend/lv_draw_sw_blend_to_i1.c ****                         }
 446:Drivers/lvgl/src/draw/sw/blend/lv_draw_sw_blend_to_i1.c ****                     }
 447:Drivers/lvgl/src/draw/sw/blend/lv_draw_sw_blend_to_i1.c ****                     dest_buf_i1 = drawbuf_next_row(dest_buf_i1, dest_stride);
 448:Drivers/lvgl/src/draw/sw/blend/lv_draw_sw_blend_to_i1.c ****                     src_buf_i1 = drawbuf_next_row(src_buf_i1, src_stride);
 449:Drivers/lvgl/src/draw/sw/blend/lv_draw_sw_blend_to_i1.c ****                     mask_buf += mask_stride;
 450:Drivers/lvgl/src/draw/sw/blend/lv_draw_sw_blend_to_i1.c ****                 }
 451:Drivers/lvgl/src/draw/sw/blend/lv_draw_sw_blend_to_i1.c ****             }
 452:Drivers/lvgl/src/draw/sw/blend/lv_draw_sw_blend_to_i1.c ****         }
 453:Drivers/lvgl/src/draw/sw/blend/lv_draw_sw_blend_to_i1.c ****     }
 454:Drivers/lvgl/src/draw/sw/blend/lv_draw_sw_blend_to_i1.c ****     else {
 455:Drivers/lvgl/src/draw/sw/blend/lv_draw_sw_blend_to_i1.c ****         lv_color32_t src_argb;
 456:Drivers/lvgl/src/draw/sw/blend/lv_draw_sw_blend_to_i1.c ****         for(y = 0; y < h; y++) {
 457:Drivers/lvgl/src/draw/sw/blend/lv_draw_sw_blend_to_i1.c ****             for(dest_x = 0, src_x = 0; src_x < w; dest_x++, src_x++) {
 458:Drivers/lvgl/src/draw/sw/blend/lv_draw_sw_blend_to_i1.c ****                 src_argb.red = get_bit(src_buf_i1, src_x) * 255;
 459:Drivers/lvgl/src/draw/sw/blend/lv_draw_sw_blend_to_i1.c ****                 src_argb.green = src_argb.red;
 460:Drivers/lvgl/src/draw/sw/blend/lv_draw_sw_blend_to_i1.c ****                 src_argb.blue = src_argb.red;
 461:Drivers/lvgl/src/draw/sw/blend/lv_draw_sw_blend_to_i1.c ****                 if(mask_buf == NULL) src_argb.alpha = opa;
 462:Drivers/lvgl/src/draw/sw/blend/lv_draw_sw_blend_to_i1.c ****                 else src_argb.alpha = LV_OPA_MIX2(mask_buf[dest_x], opa);
 463:Drivers/lvgl/src/draw/sw/blend/lv_draw_sw_blend_to_i1.c ****                 blend_non_normal_pixel(dest_buf_i1, dest_x + bit_ofs, src_argb, dsc->blend_mode);
 464:Drivers/lvgl/src/draw/sw/blend/lv_draw_sw_blend_to_i1.c ****             }
 465:Drivers/lvgl/src/draw/sw/blend/lv_draw_sw_blend_to_i1.c ****             if(mask_buf) mask_buf += mask_stride;
 466:Drivers/lvgl/src/draw/sw/blend/lv_draw_sw_blend_to_i1.c ****             dest_buf_i1 = drawbuf_next_row(dest_buf_i1, dest_stride);
 467:Drivers/lvgl/src/draw/sw/blend/lv_draw_sw_blend_to_i1.c ****             src_buf_i1 = drawbuf_next_row(src_buf_i1, src_stride);
 468:Drivers/lvgl/src/draw/sw/blend/lv_draw_sw_blend_to_i1.c ****         }
 469:Drivers/lvgl/src/draw/sw/blend/lv_draw_sw_blend_to_i1.c ****     }
 470:Drivers/lvgl/src/draw/sw/blend/lv_draw_sw_blend_to_i1.c **** }
 471:Drivers/lvgl/src/draw/sw/blend/lv_draw_sw_blend_to_i1.c **** 
 472:Drivers/lvgl/src/draw/sw/blend/lv_draw_sw_blend_to_i1.c **** #if LV_DRAW_SW_SUPPORT_L8
 473:Drivers/lvgl/src/draw/sw/blend/lv_draw_sw_blend_to_i1.c **** static void LV_ATTRIBUTE_FAST_MEM l8_image_blend(lv_draw_sw_blend_image_dsc_t * dsc)
 474:Drivers/lvgl/src/draw/sw/blend/lv_draw_sw_blend_to_i1.c **** {
 475:Drivers/lvgl/src/draw/sw/blend/lv_draw_sw_blend_to_i1.c ****     int32_t w = dsc->dest_w;
 476:Drivers/lvgl/src/draw/sw/blend/lv_draw_sw_blend_to_i1.c ****     int32_t h = dsc->dest_h;
 477:Drivers/lvgl/src/draw/sw/blend/lv_draw_sw_blend_to_i1.c ****     lv_opa_t opa = dsc->opa;
 478:Drivers/lvgl/src/draw/sw/blend/lv_draw_sw_blend_to_i1.c ****     uint8_t * dest_buf_i1 = dsc->dest_buf;
 479:Drivers/lvgl/src/draw/sw/blend/lv_draw_sw_blend_to_i1.c ****     int32_t dest_stride = dsc->dest_stride;
 480:Drivers/lvgl/src/draw/sw/blend/lv_draw_sw_blend_to_i1.c ****     const uint8_t * src_buf_l8 = dsc->src_buf;
 481:Drivers/lvgl/src/draw/sw/blend/lv_draw_sw_blend_to_i1.c ****     int32_t src_stride = dsc->src_stride;
 482:Drivers/lvgl/src/draw/sw/blend/lv_draw_sw_blend_to_i1.c ****     const lv_opa_t * mask_buf = dsc->mask_buf;
 483:Drivers/lvgl/src/draw/sw/blend/lv_draw_sw_blend_to_i1.c ****     int32_t mask_stride = dsc->mask_stride;
 484:Drivers/lvgl/src/draw/sw/blend/lv_draw_sw_blend_to_i1.c **** 
 485:Drivers/lvgl/src/draw/sw/blend/lv_draw_sw_blend_to_i1.c ****     int32_t src_x, dest_x;
 486:Drivers/lvgl/src/draw/sw/blend/lv_draw_sw_blend_to_i1.c ****     int32_t y;
ARM GAS  /tmp/cc9ag92L.s 			page 10


 487:Drivers/lvgl/src/draw/sw/blend/lv_draw_sw_blend_to_i1.c **** 
 488:Drivers/lvgl/src/draw/sw/blend/lv_draw_sw_blend_to_i1.c ****     int32_t bit_ofs = dsc->relative_area.x1 % 8;
 489:Drivers/lvgl/src/draw/sw/blend/lv_draw_sw_blend_to_i1.c **** 
 490:Drivers/lvgl/src/draw/sw/blend/lv_draw_sw_blend_to_i1.c ****     if(dsc->blend_mode == LV_BLEND_MODE_NORMAL) {
 491:Drivers/lvgl/src/draw/sw/blend/lv_draw_sw_blend_to_i1.c ****         if(mask_buf == NULL && opa >= LV_OPA_MAX) {
 492:Drivers/lvgl/src/draw/sw/blend/lv_draw_sw_blend_to_i1.c ****             if(LV_RESULT_INVALID == LV_DRAW_SW_L8_BLEND_NORMAL_TO_I1(dsc)) {
 493:Drivers/lvgl/src/draw/sw/blend/lv_draw_sw_blend_to_i1.c ****                 for(y = 0; y < h; y++) {
 494:Drivers/lvgl/src/draw/sw/blend/lv_draw_sw_blend_to_i1.c ****                     for(dest_x = 0, src_x = 0; src_x < w; dest_x++, src_x++) {
 495:Drivers/lvgl/src/draw/sw/blend/lv_draw_sw_blend_to_i1.c ****                         if(src_buf_l8[src_x] > I1_LUM_THRESHOLD) {
 496:Drivers/lvgl/src/draw/sw/blend/lv_draw_sw_blend_to_i1.c ****                             set_bit(dest_buf_i1, dest_x + bit_ofs);
 497:Drivers/lvgl/src/draw/sw/blend/lv_draw_sw_blend_to_i1.c ****                         }
 498:Drivers/lvgl/src/draw/sw/blend/lv_draw_sw_blend_to_i1.c ****                         else {
 499:Drivers/lvgl/src/draw/sw/blend/lv_draw_sw_blend_to_i1.c ****                             clear_bit(dest_buf_i1, dest_x + bit_ofs);
 500:Drivers/lvgl/src/draw/sw/blend/lv_draw_sw_blend_to_i1.c ****                         }
 501:Drivers/lvgl/src/draw/sw/blend/lv_draw_sw_blend_to_i1.c ****                     }
 502:Drivers/lvgl/src/draw/sw/blend/lv_draw_sw_blend_to_i1.c ****                     dest_buf_i1 = drawbuf_next_row(dest_buf_i1, dest_stride);
 503:Drivers/lvgl/src/draw/sw/blend/lv_draw_sw_blend_to_i1.c ****                     src_buf_l8 = drawbuf_next_row(src_buf_l8, src_stride);
 504:Drivers/lvgl/src/draw/sw/blend/lv_draw_sw_blend_to_i1.c ****                 }
 505:Drivers/lvgl/src/draw/sw/blend/lv_draw_sw_blend_to_i1.c ****             }
 506:Drivers/lvgl/src/draw/sw/blend/lv_draw_sw_blend_to_i1.c ****         }
 507:Drivers/lvgl/src/draw/sw/blend/lv_draw_sw_blend_to_i1.c ****         else if(mask_buf == NULL && opa < LV_OPA_MAX) {
 508:Drivers/lvgl/src/draw/sw/blend/lv_draw_sw_blend_to_i1.c ****             if(LV_RESULT_INVALID == LV_DRAW_SW_L8_BLEND_NORMAL_TO_I1_WITH_OPA(dsc)) {
 509:Drivers/lvgl/src/draw/sw/blend/lv_draw_sw_blend_to_i1.c ****                 for(y = 0; y < h; y++) {
 510:Drivers/lvgl/src/draw/sw/blend/lv_draw_sw_blend_to_i1.c ****                     for(dest_x = 0, src_x = 0; src_x < w; dest_x++, src_x++) {
 511:Drivers/lvgl/src/draw/sw/blend/lv_draw_sw_blend_to_i1.c ****                         uint8_t dest_val = get_bit(dest_buf_i1, dest_x + bit_ofs) * 255;
 512:Drivers/lvgl/src/draw/sw/blend/lv_draw_sw_blend_to_i1.c ****                         lv_color_8_8_mix(src_buf_l8[src_x], &dest_val, opa);
 513:Drivers/lvgl/src/draw/sw/blend/lv_draw_sw_blend_to_i1.c ****                         if(dest_val > I1_LUM_THRESHOLD) {
 514:Drivers/lvgl/src/draw/sw/blend/lv_draw_sw_blend_to_i1.c ****                             set_bit(dest_buf_i1, dest_x + bit_ofs);
 515:Drivers/lvgl/src/draw/sw/blend/lv_draw_sw_blend_to_i1.c ****                         }
 516:Drivers/lvgl/src/draw/sw/blend/lv_draw_sw_blend_to_i1.c ****                         else {
 517:Drivers/lvgl/src/draw/sw/blend/lv_draw_sw_blend_to_i1.c ****                             clear_bit(dest_buf_i1, dest_x + bit_ofs);
 518:Drivers/lvgl/src/draw/sw/blend/lv_draw_sw_blend_to_i1.c ****                         }
 519:Drivers/lvgl/src/draw/sw/blend/lv_draw_sw_blend_to_i1.c ****                     }
 520:Drivers/lvgl/src/draw/sw/blend/lv_draw_sw_blend_to_i1.c ****                     dest_buf_i1 = drawbuf_next_row(dest_buf_i1, dest_stride);
 521:Drivers/lvgl/src/draw/sw/blend/lv_draw_sw_blend_to_i1.c ****                     src_buf_l8 = drawbuf_next_row(src_buf_l8, src_stride);
 522:Drivers/lvgl/src/draw/sw/blend/lv_draw_sw_blend_to_i1.c ****                 }
 523:Drivers/lvgl/src/draw/sw/blend/lv_draw_sw_blend_to_i1.c ****             }
 524:Drivers/lvgl/src/draw/sw/blend/lv_draw_sw_blend_to_i1.c ****         }
 525:Drivers/lvgl/src/draw/sw/blend/lv_draw_sw_blend_to_i1.c ****         else if(mask_buf && opa >= LV_OPA_MAX) {
 526:Drivers/lvgl/src/draw/sw/blend/lv_draw_sw_blend_to_i1.c ****             if(LV_RESULT_INVALID == LV_DRAW_SW_L8_BLEND_NORMAL_TO_I1_WITH_MASK(dsc)) {
 527:Drivers/lvgl/src/draw/sw/blend/lv_draw_sw_blend_to_i1.c ****                 for(y = 0; y < h; y++) {
 528:Drivers/lvgl/src/draw/sw/blend/lv_draw_sw_blend_to_i1.c ****                     for(dest_x = 0, src_x = 0; src_x < w; dest_x++, src_x++) {
 529:Drivers/lvgl/src/draw/sw/blend/lv_draw_sw_blend_to_i1.c ****                         uint8_t src_luminance = src_buf_l8[src_x];
 530:Drivers/lvgl/src/draw/sw/blend/lv_draw_sw_blend_to_i1.c ****                         uint8_t dest_val = get_bit(dest_buf_i1, dest_x + bit_ofs) * 255;
 531:Drivers/lvgl/src/draw/sw/blend/lv_draw_sw_blend_to_i1.c ****                         lv_color_8_8_mix(src_luminance, &dest_val, mask_buf[src_x]);
 532:Drivers/lvgl/src/draw/sw/blend/lv_draw_sw_blend_to_i1.c ****                         if(dest_val > I1_LUM_THRESHOLD) {
 533:Drivers/lvgl/src/draw/sw/blend/lv_draw_sw_blend_to_i1.c ****                             set_bit(dest_buf_i1, dest_x + bit_ofs);
 534:Drivers/lvgl/src/draw/sw/blend/lv_draw_sw_blend_to_i1.c ****                         }
 535:Drivers/lvgl/src/draw/sw/blend/lv_draw_sw_blend_to_i1.c ****                         else {
 536:Drivers/lvgl/src/draw/sw/blend/lv_draw_sw_blend_to_i1.c ****                             clear_bit(dest_buf_i1, dest_x + bit_ofs);
 537:Drivers/lvgl/src/draw/sw/blend/lv_draw_sw_blend_to_i1.c ****                         }
 538:Drivers/lvgl/src/draw/sw/blend/lv_draw_sw_blend_to_i1.c ****                     }
 539:Drivers/lvgl/src/draw/sw/blend/lv_draw_sw_blend_to_i1.c ****                     dest_buf_i1 = drawbuf_next_row(dest_buf_i1, dest_stride);
 540:Drivers/lvgl/src/draw/sw/blend/lv_draw_sw_blend_to_i1.c ****                     src_buf_l8 = drawbuf_next_row(src_buf_l8, src_stride);
 541:Drivers/lvgl/src/draw/sw/blend/lv_draw_sw_blend_to_i1.c ****                     mask_buf += mask_stride;
 542:Drivers/lvgl/src/draw/sw/blend/lv_draw_sw_blend_to_i1.c ****                 }
 543:Drivers/lvgl/src/draw/sw/blend/lv_draw_sw_blend_to_i1.c ****             }
ARM GAS  /tmp/cc9ag92L.s 			page 11


 544:Drivers/lvgl/src/draw/sw/blend/lv_draw_sw_blend_to_i1.c ****         }
 545:Drivers/lvgl/src/draw/sw/blend/lv_draw_sw_blend_to_i1.c ****         else if(mask_buf && opa < LV_OPA_MAX) {
 546:Drivers/lvgl/src/draw/sw/blend/lv_draw_sw_blend_to_i1.c ****             if(LV_RESULT_INVALID == LV_DRAW_SW_L8_BLEND_NORMAL_TO_I1_MIX_MASK_OPA(dsc)) {
 547:Drivers/lvgl/src/draw/sw/blend/lv_draw_sw_blend_to_i1.c ****                 for(y = 0; y < h; y++) {
 548:Drivers/lvgl/src/draw/sw/blend/lv_draw_sw_blend_to_i1.c ****                     for(dest_x = 0, src_x = 0; src_x < w; dest_x++, src_x++) {
 549:Drivers/lvgl/src/draw/sw/blend/lv_draw_sw_blend_to_i1.c ****                         uint8_t src_luminance = src_buf_l8[src_x];
 550:Drivers/lvgl/src/draw/sw/blend/lv_draw_sw_blend_to_i1.c ****                         uint8_t dest_val = get_bit(dest_buf_i1, dest_x + bit_ofs) * 255;
 551:Drivers/lvgl/src/draw/sw/blend/lv_draw_sw_blend_to_i1.c ****                         lv_color_8_8_mix(src_luminance, &dest_val, LV_OPA_MIX2(mask_buf[src_x], opa
 552:Drivers/lvgl/src/draw/sw/blend/lv_draw_sw_blend_to_i1.c ****                         if(dest_val > I1_LUM_THRESHOLD) {
 553:Drivers/lvgl/src/draw/sw/blend/lv_draw_sw_blend_to_i1.c ****                             set_bit(dest_buf_i1, dest_x + bit_ofs);
 554:Drivers/lvgl/src/draw/sw/blend/lv_draw_sw_blend_to_i1.c ****                         }
 555:Drivers/lvgl/src/draw/sw/blend/lv_draw_sw_blend_to_i1.c ****                         else {
 556:Drivers/lvgl/src/draw/sw/blend/lv_draw_sw_blend_to_i1.c ****                             clear_bit(dest_buf_i1, dest_x + bit_ofs);
 557:Drivers/lvgl/src/draw/sw/blend/lv_draw_sw_blend_to_i1.c ****                         }
 558:Drivers/lvgl/src/draw/sw/blend/lv_draw_sw_blend_to_i1.c ****                     }
 559:Drivers/lvgl/src/draw/sw/blend/lv_draw_sw_blend_to_i1.c ****                     dest_buf_i1 = drawbuf_next_row(dest_buf_i1, dest_stride);
 560:Drivers/lvgl/src/draw/sw/blend/lv_draw_sw_blend_to_i1.c ****                     src_buf_l8 = drawbuf_next_row(src_buf_l8, src_stride);
 561:Drivers/lvgl/src/draw/sw/blend/lv_draw_sw_blend_to_i1.c ****                     mask_buf += mask_stride;
 562:Drivers/lvgl/src/draw/sw/blend/lv_draw_sw_blend_to_i1.c ****                 }
 563:Drivers/lvgl/src/draw/sw/blend/lv_draw_sw_blend_to_i1.c ****             }
 564:Drivers/lvgl/src/draw/sw/blend/lv_draw_sw_blend_to_i1.c ****         }
 565:Drivers/lvgl/src/draw/sw/blend/lv_draw_sw_blend_to_i1.c ****     }
 566:Drivers/lvgl/src/draw/sw/blend/lv_draw_sw_blend_to_i1.c ****     else {
 567:Drivers/lvgl/src/draw/sw/blend/lv_draw_sw_blend_to_i1.c ****         lv_color32_t src_argb;
 568:Drivers/lvgl/src/draw/sw/blend/lv_draw_sw_blend_to_i1.c ****         for(y = 0; y < h; y++) {
 569:Drivers/lvgl/src/draw/sw/blend/lv_draw_sw_blend_to_i1.c ****             for(src_x = 0; src_x < w; src_x++) {
 570:Drivers/lvgl/src/draw/sw/blend/lv_draw_sw_blend_to_i1.c ****                 src_argb.red = src_buf_l8[src_x];
 571:Drivers/lvgl/src/draw/sw/blend/lv_draw_sw_blend_to_i1.c ****                 src_argb.green = src_buf_l8[src_x];
 572:Drivers/lvgl/src/draw/sw/blend/lv_draw_sw_blend_to_i1.c ****                 src_argb.blue = src_buf_l8[src_x];
 573:Drivers/lvgl/src/draw/sw/blend/lv_draw_sw_blend_to_i1.c ****                 if(mask_buf == NULL) src_argb.alpha = opa;
 574:Drivers/lvgl/src/draw/sw/blend/lv_draw_sw_blend_to_i1.c ****                 else src_argb.alpha = LV_OPA_MIX2(mask_buf[src_x], opa);
 575:Drivers/lvgl/src/draw/sw/blend/lv_draw_sw_blend_to_i1.c ****                 blend_non_normal_pixel(dest_buf_i1, src_x + bit_ofs, src_argb, dsc->blend_mode);
 576:Drivers/lvgl/src/draw/sw/blend/lv_draw_sw_blend_to_i1.c ****             }
 577:Drivers/lvgl/src/draw/sw/blend/lv_draw_sw_blend_to_i1.c ****             if(mask_buf) mask_buf += mask_stride;
 578:Drivers/lvgl/src/draw/sw/blend/lv_draw_sw_blend_to_i1.c ****             dest_buf_i1 = drawbuf_next_row(dest_buf_i1, dest_stride);
 579:Drivers/lvgl/src/draw/sw/blend/lv_draw_sw_blend_to_i1.c ****             src_buf_l8 = drawbuf_next_row(src_buf_l8, src_stride);
 580:Drivers/lvgl/src/draw/sw/blend/lv_draw_sw_blend_to_i1.c ****         }
 581:Drivers/lvgl/src/draw/sw/blend/lv_draw_sw_blend_to_i1.c ****     }
 582:Drivers/lvgl/src/draw/sw/blend/lv_draw_sw_blend_to_i1.c **** }
 583:Drivers/lvgl/src/draw/sw/blend/lv_draw_sw_blend_to_i1.c **** #endif
 584:Drivers/lvgl/src/draw/sw/blend/lv_draw_sw_blend_to_i1.c **** 
 585:Drivers/lvgl/src/draw/sw/blend/lv_draw_sw_blend_to_i1.c **** #if LV_DRAW_SW_SUPPORT_AL88
 586:Drivers/lvgl/src/draw/sw/blend/lv_draw_sw_blend_to_i1.c **** static void LV_ATTRIBUTE_FAST_MEM al88_image_blend(lv_draw_sw_blend_image_dsc_t * dsc)
 587:Drivers/lvgl/src/draw/sw/blend/lv_draw_sw_blend_to_i1.c **** {
 588:Drivers/lvgl/src/draw/sw/blend/lv_draw_sw_blend_to_i1.c ****     int32_t w = dsc->dest_w;
 589:Drivers/lvgl/src/draw/sw/blend/lv_draw_sw_blend_to_i1.c ****     int32_t h = dsc->dest_h;
 590:Drivers/lvgl/src/draw/sw/blend/lv_draw_sw_blend_to_i1.c ****     lv_opa_t opa = dsc->opa;
 591:Drivers/lvgl/src/draw/sw/blend/lv_draw_sw_blend_to_i1.c ****     uint8_t * dest_buf_i1 = dsc->dest_buf;
 592:Drivers/lvgl/src/draw/sw/blend/lv_draw_sw_blend_to_i1.c ****     int32_t dest_stride = dsc->dest_stride;
 593:Drivers/lvgl/src/draw/sw/blend/lv_draw_sw_blend_to_i1.c ****     const lv_color16a_t * src_buf_al88 = dsc->src_buf;
 594:Drivers/lvgl/src/draw/sw/blend/lv_draw_sw_blend_to_i1.c ****     int32_t src_stride = dsc->src_stride;
 595:Drivers/lvgl/src/draw/sw/blend/lv_draw_sw_blend_to_i1.c ****     const lv_opa_t * mask_buf = dsc->mask_buf;
 596:Drivers/lvgl/src/draw/sw/blend/lv_draw_sw_blend_to_i1.c ****     int32_t mask_stride = dsc->mask_stride;
 597:Drivers/lvgl/src/draw/sw/blend/lv_draw_sw_blend_to_i1.c **** 
 598:Drivers/lvgl/src/draw/sw/blend/lv_draw_sw_blend_to_i1.c ****     int32_t dest_x;
 599:Drivers/lvgl/src/draw/sw/blend/lv_draw_sw_blend_to_i1.c ****     int32_t src_x;
 600:Drivers/lvgl/src/draw/sw/blend/lv_draw_sw_blend_to_i1.c ****     int32_t y;
ARM GAS  /tmp/cc9ag92L.s 			page 12


 601:Drivers/lvgl/src/draw/sw/blend/lv_draw_sw_blend_to_i1.c **** 
 602:Drivers/lvgl/src/draw/sw/blend/lv_draw_sw_blend_to_i1.c ****     int32_t bit_ofs = dsc->relative_area.x1 % 8;
 603:Drivers/lvgl/src/draw/sw/blend/lv_draw_sw_blend_to_i1.c **** 
 604:Drivers/lvgl/src/draw/sw/blend/lv_draw_sw_blend_to_i1.c ****     if(dsc->blend_mode == LV_BLEND_MODE_NORMAL) {
 605:Drivers/lvgl/src/draw/sw/blend/lv_draw_sw_blend_to_i1.c ****         if(mask_buf == NULL && opa >= LV_OPA_MAX) {
 606:Drivers/lvgl/src/draw/sw/blend/lv_draw_sw_blend_to_i1.c ****             if(LV_RESULT_INVALID == LV_DRAW_SW_AL88_BLEND_NORMAL_TO_I1(dsc)) {
 607:Drivers/lvgl/src/draw/sw/blend/lv_draw_sw_blend_to_i1.c ****                 for(y = 0; y < h; y++) {
 608:Drivers/lvgl/src/draw/sw/blend/lv_draw_sw_blend_to_i1.c ****                     for(dest_x = 0, src_x = 0; src_x < w; dest_x++, src_x++) {
 609:Drivers/lvgl/src/draw/sw/blend/lv_draw_sw_blend_to_i1.c ****                         uint8_t dest_val = get_bit(dest_buf_i1, dest_x + bit_ofs) * 255;
 610:Drivers/lvgl/src/draw/sw/blend/lv_draw_sw_blend_to_i1.c ****                         lv_color_8_8_mix(src_buf_al88[src_x].lumi, &dest_val, src_buf_al88[src_x].a
 611:Drivers/lvgl/src/draw/sw/blend/lv_draw_sw_blend_to_i1.c ****                         if(dest_val > I1_LUM_THRESHOLD) {
 612:Drivers/lvgl/src/draw/sw/blend/lv_draw_sw_blend_to_i1.c ****                             set_bit(dest_buf_i1, dest_x + bit_ofs);
 613:Drivers/lvgl/src/draw/sw/blend/lv_draw_sw_blend_to_i1.c ****                         }
 614:Drivers/lvgl/src/draw/sw/blend/lv_draw_sw_blend_to_i1.c ****                         else {
 615:Drivers/lvgl/src/draw/sw/blend/lv_draw_sw_blend_to_i1.c ****                             clear_bit(dest_buf_i1, dest_x + bit_ofs);
 616:Drivers/lvgl/src/draw/sw/blend/lv_draw_sw_blend_to_i1.c ****                         }
 617:Drivers/lvgl/src/draw/sw/blend/lv_draw_sw_blend_to_i1.c ****                     }
 618:Drivers/lvgl/src/draw/sw/blend/lv_draw_sw_blend_to_i1.c ****                     dest_buf_i1 = drawbuf_next_row(dest_buf_i1, dest_stride);
 619:Drivers/lvgl/src/draw/sw/blend/lv_draw_sw_blend_to_i1.c ****                     src_buf_al88 = drawbuf_next_row(src_buf_al88, src_stride);
 620:Drivers/lvgl/src/draw/sw/blend/lv_draw_sw_blend_to_i1.c ****                 }
 621:Drivers/lvgl/src/draw/sw/blend/lv_draw_sw_blend_to_i1.c ****             }
 622:Drivers/lvgl/src/draw/sw/blend/lv_draw_sw_blend_to_i1.c ****         }
 623:Drivers/lvgl/src/draw/sw/blend/lv_draw_sw_blend_to_i1.c ****         else if(mask_buf == NULL && opa < LV_OPA_MAX) {
 624:Drivers/lvgl/src/draw/sw/blend/lv_draw_sw_blend_to_i1.c ****             if(LV_RESULT_INVALID == LV_DRAW_SW_AL88_BLEND_NORMAL_TO_I1_WITH_OPA(dsc)) {
 625:Drivers/lvgl/src/draw/sw/blend/lv_draw_sw_blend_to_i1.c ****                 for(y = 0; y < h; y++) {
 626:Drivers/lvgl/src/draw/sw/blend/lv_draw_sw_blend_to_i1.c ****                     for(dest_x = 0, src_x = 0; src_x < w; dest_x++, src_x++) {
 627:Drivers/lvgl/src/draw/sw/blend/lv_draw_sw_blend_to_i1.c ****                         uint8_t dest_val = get_bit(dest_buf_i1, dest_x + bit_ofs) * 255;
 628:Drivers/lvgl/src/draw/sw/blend/lv_draw_sw_blend_to_i1.c ****                         lv_color_8_8_mix(src_buf_al88[src_x].lumi, &dest_val, LV_OPA_MIX2(src_buf_a
 629:Drivers/lvgl/src/draw/sw/blend/lv_draw_sw_blend_to_i1.c ****                         if(dest_val > I1_LUM_THRESHOLD) {
 630:Drivers/lvgl/src/draw/sw/blend/lv_draw_sw_blend_to_i1.c ****                             set_bit(dest_buf_i1, dest_x + bit_ofs);
 631:Drivers/lvgl/src/draw/sw/blend/lv_draw_sw_blend_to_i1.c ****                         }
 632:Drivers/lvgl/src/draw/sw/blend/lv_draw_sw_blend_to_i1.c ****                         else {
 633:Drivers/lvgl/src/draw/sw/blend/lv_draw_sw_blend_to_i1.c ****                             clear_bit(dest_buf_i1, dest_x + bit_ofs);
 634:Drivers/lvgl/src/draw/sw/blend/lv_draw_sw_blend_to_i1.c ****                         }
 635:Drivers/lvgl/src/draw/sw/blend/lv_draw_sw_blend_to_i1.c ****                     }
 636:Drivers/lvgl/src/draw/sw/blend/lv_draw_sw_blend_to_i1.c ****                     dest_buf_i1 = drawbuf_next_row(dest_buf_i1, dest_stride);
 637:Drivers/lvgl/src/draw/sw/blend/lv_draw_sw_blend_to_i1.c ****                     src_buf_al88 = drawbuf_next_row(src_buf_al88, src_stride);
 638:Drivers/lvgl/src/draw/sw/blend/lv_draw_sw_blend_to_i1.c ****                 }
 639:Drivers/lvgl/src/draw/sw/blend/lv_draw_sw_blend_to_i1.c ****             }
 640:Drivers/lvgl/src/draw/sw/blend/lv_draw_sw_blend_to_i1.c ****         }
 641:Drivers/lvgl/src/draw/sw/blend/lv_draw_sw_blend_to_i1.c ****         else if(mask_buf && opa >= LV_OPA_MAX) {
 642:Drivers/lvgl/src/draw/sw/blend/lv_draw_sw_blend_to_i1.c ****             if(LV_RESULT_INVALID == LV_DRAW_SW_AL88_BLEND_NORMAL_TO_I1_WITH_MASK(dsc)) {
 643:Drivers/lvgl/src/draw/sw/blend/lv_draw_sw_blend_to_i1.c ****                 for(y = 0; y < h; y++) {
 644:Drivers/lvgl/src/draw/sw/blend/lv_draw_sw_blend_to_i1.c ****                     for(dest_x = 0, src_x = 0; src_x < w; dest_x++, src_x++) {
 645:Drivers/lvgl/src/draw/sw/blend/lv_draw_sw_blend_to_i1.c ****                         uint8_t dest_val = get_bit(dest_buf_i1, dest_x + bit_ofs) * 255;
 646:Drivers/lvgl/src/draw/sw/blend/lv_draw_sw_blend_to_i1.c ****                         lv_color_8_8_mix(src_buf_al88[src_x].lumi, &dest_val,  LV_OPA_MIX2(src_buf_
 647:Drivers/lvgl/src/draw/sw/blend/lv_draw_sw_blend_to_i1.c ****                         if(dest_val > I1_LUM_THRESHOLD) {
 648:Drivers/lvgl/src/draw/sw/blend/lv_draw_sw_blend_to_i1.c ****                             set_bit(dest_buf_i1, dest_x + bit_ofs);
 649:Drivers/lvgl/src/draw/sw/blend/lv_draw_sw_blend_to_i1.c ****                         }
 650:Drivers/lvgl/src/draw/sw/blend/lv_draw_sw_blend_to_i1.c ****                         else {
 651:Drivers/lvgl/src/draw/sw/blend/lv_draw_sw_blend_to_i1.c ****                             clear_bit(dest_buf_i1, dest_x + bit_ofs);
 652:Drivers/lvgl/src/draw/sw/blend/lv_draw_sw_blend_to_i1.c ****                         }
 653:Drivers/lvgl/src/draw/sw/blend/lv_draw_sw_blend_to_i1.c ****                     }
 654:Drivers/lvgl/src/draw/sw/blend/lv_draw_sw_blend_to_i1.c ****                     dest_buf_i1 = drawbuf_next_row(dest_buf_i1, dest_stride);
 655:Drivers/lvgl/src/draw/sw/blend/lv_draw_sw_blend_to_i1.c ****                     src_buf_al88 = drawbuf_next_row(src_buf_al88, src_stride);
 656:Drivers/lvgl/src/draw/sw/blend/lv_draw_sw_blend_to_i1.c ****                     mask_buf += mask_stride;
 657:Drivers/lvgl/src/draw/sw/blend/lv_draw_sw_blend_to_i1.c ****                 }
ARM GAS  /tmp/cc9ag92L.s 			page 13


 658:Drivers/lvgl/src/draw/sw/blend/lv_draw_sw_blend_to_i1.c ****             }
 659:Drivers/lvgl/src/draw/sw/blend/lv_draw_sw_blend_to_i1.c ****         }
 660:Drivers/lvgl/src/draw/sw/blend/lv_draw_sw_blend_to_i1.c ****         else if(mask_buf && opa < LV_OPA_MAX) {
 661:Drivers/lvgl/src/draw/sw/blend/lv_draw_sw_blend_to_i1.c ****             if(LV_RESULT_INVALID == LV_DRAW_SW_AL88_BLEND_NORMAL_TO_I1_MIX_MASK_OPA(dsc)) {
 662:Drivers/lvgl/src/draw/sw/blend/lv_draw_sw_blend_to_i1.c ****                 for(y = 0; y < h; y++) {
 663:Drivers/lvgl/src/draw/sw/blend/lv_draw_sw_blend_to_i1.c ****                     for(dest_x = 0, src_x = 0; src_x < w; dest_x++, src_x++) {
 664:Drivers/lvgl/src/draw/sw/blend/lv_draw_sw_blend_to_i1.c ****                         uint8_t dest_val = get_bit(dest_buf_i1, dest_x + bit_ofs) * 255;
 665:Drivers/lvgl/src/draw/sw/blend/lv_draw_sw_blend_to_i1.c ****                         lv_color_8_8_mix(src_buf_al88[src_x].lumi, &dest_val, LV_OPA_MIX3(src_buf_a
 666:Drivers/lvgl/src/draw/sw/blend/lv_draw_sw_blend_to_i1.c ****                         if(dest_val > I1_LUM_THRESHOLD) {
 667:Drivers/lvgl/src/draw/sw/blend/lv_draw_sw_blend_to_i1.c ****                             set_bit(dest_buf_i1, dest_x + bit_ofs);
 668:Drivers/lvgl/src/draw/sw/blend/lv_draw_sw_blend_to_i1.c ****                         }
 669:Drivers/lvgl/src/draw/sw/blend/lv_draw_sw_blend_to_i1.c ****                         else {
 670:Drivers/lvgl/src/draw/sw/blend/lv_draw_sw_blend_to_i1.c ****                             clear_bit(dest_buf_i1, dest_x + bit_ofs);
 671:Drivers/lvgl/src/draw/sw/blend/lv_draw_sw_blend_to_i1.c ****                         }
 672:Drivers/lvgl/src/draw/sw/blend/lv_draw_sw_blend_to_i1.c ****                     }
 673:Drivers/lvgl/src/draw/sw/blend/lv_draw_sw_blend_to_i1.c ****                     dest_buf_i1 = drawbuf_next_row(dest_buf_i1, dest_stride);
 674:Drivers/lvgl/src/draw/sw/blend/lv_draw_sw_blend_to_i1.c ****                     src_buf_al88 = drawbuf_next_row(src_buf_al88, src_stride);
 675:Drivers/lvgl/src/draw/sw/blend/lv_draw_sw_blend_to_i1.c ****                     mask_buf += mask_stride;
 676:Drivers/lvgl/src/draw/sw/blend/lv_draw_sw_blend_to_i1.c ****                 }
 677:Drivers/lvgl/src/draw/sw/blend/lv_draw_sw_blend_to_i1.c ****             }
 678:Drivers/lvgl/src/draw/sw/blend/lv_draw_sw_blend_to_i1.c ****         }
 679:Drivers/lvgl/src/draw/sw/blend/lv_draw_sw_blend_to_i1.c ****     }
 680:Drivers/lvgl/src/draw/sw/blend/lv_draw_sw_blend_to_i1.c ****     else {
 681:Drivers/lvgl/src/draw/sw/blend/lv_draw_sw_blend_to_i1.c ****         lv_color32_t src_argb;
 682:Drivers/lvgl/src/draw/sw/blend/lv_draw_sw_blend_to_i1.c ****         for(y = 0; y < h; y++) {
 683:Drivers/lvgl/src/draw/sw/blend/lv_draw_sw_blend_to_i1.c ****             for(dest_x = 0, src_x = 0; src_x < w; dest_x++, src_x++) {
 684:Drivers/lvgl/src/draw/sw/blend/lv_draw_sw_blend_to_i1.c ****                 src_argb.red = src_buf_al88[src_x].lumi;
 685:Drivers/lvgl/src/draw/sw/blend/lv_draw_sw_blend_to_i1.c ****                 src_argb.green = src_buf_al88[src_x].lumi;
 686:Drivers/lvgl/src/draw/sw/blend/lv_draw_sw_blend_to_i1.c ****                 src_argb.blue = src_buf_al88[src_x].lumi;
 687:Drivers/lvgl/src/draw/sw/blend/lv_draw_sw_blend_to_i1.c ****                 if(mask_buf == NULL) src_argb.alpha = LV_OPA_MIX2(src_buf_al88[src_x].alpha, opa);
 688:Drivers/lvgl/src/draw/sw/blend/lv_draw_sw_blend_to_i1.c ****                 else src_argb.alpha = LV_OPA_MIX3(src_buf_al88[src_x].alpha, mask_buf[src_x], opa);
 689:Drivers/lvgl/src/draw/sw/blend/lv_draw_sw_blend_to_i1.c ****                 blend_non_normal_pixel(dest_buf_i1, dest_x + bit_ofs, src_argb, dsc->blend_mode);
 690:Drivers/lvgl/src/draw/sw/blend/lv_draw_sw_blend_to_i1.c ****             }
 691:Drivers/lvgl/src/draw/sw/blend/lv_draw_sw_blend_to_i1.c ****             if(mask_buf) mask_buf += mask_stride;
 692:Drivers/lvgl/src/draw/sw/blend/lv_draw_sw_blend_to_i1.c ****             dest_buf_i1 = drawbuf_next_row(dest_buf_i1, dest_stride);
 693:Drivers/lvgl/src/draw/sw/blend/lv_draw_sw_blend_to_i1.c ****             src_buf_al88 = drawbuf_next_row(src_buf_al88, src_stride);
 694:Drivers/lvgl/src/draw/sw/blend/lv_draw_sw_blend_to_i1.c ****         }
 695:Drivers/lvgl/src/draw/sw/blend/lv_draw_sw_blend_to_i1.c ****     }
 696:Drivers/lvgl/src/draw/sw/blend/lv_draw_sw_blend_to_i1.c **** }
 697:Drivers/lvgl/src/draw/sw/blend/lv_draw_sw_blend_to_i1.c **** #endif
 698:Drivers/lvgl/src/draw/sw/blend/lv_draw_sw_blend_to_i1.c **** 
 699:Drivers/lvgl/src/draw/sw/blend/lv_draw_sw_blend_to_i1.c **** #if LV_DRAW_SW_SUPPORT_ARGB8888
 700:Drivers/lvgl/src/draw/sw/blend/lv_draw_sw_blend_to_i1.c **** static void LV_ATTRIBUTE_FAST_MEM argb8888_image_blend(lv_draw_sw_blend_image_dsc_t * dsc)
 701:Drivers/lvgl/src/draw/sw/blend/lv_draw_sw_blend_to_i1.c **** {
 702:Drivers/lvgl/src/draw/sw/blend/lv_draw_sw_blend_to_i1.c ****     int32_t w = dsc->dest_w;
 703:Drivers/lvgl/src/draw/sw/blend/lv_draw_sw_blend_to_i1.c ****     int32_t h = dsc->dest_h;
 704:Drivers/lvgl/src/draw/sw/blend/lv_draw_sw_blend_to_i1.c ****     lv_opa_t opa = dsc->opa;
 705:Drivers/lvgl/src/draw/sw/blend/lv_draw_sw_blend_to_i1.c ****     uint8_t * dest_buf_i1 = dsc->dest_buf;
 706:Drivers/lvgl/src/draw/sw/blend/lv_draw_sw_blend_to_i1.c ****     int32_t dest_stride = dsc->dest_stride;
 707:Drivers/lvgl/src/draw/sw/blend/lv_draw_sw_blend_to_i1.c ****     const lv_color32_t * src_buf_c32 = dsc->src_buf;
 708:Drivers/lvgl/src/draw/sw/blend/lv_draw_sw_blend_to_i1.c ****     int32_t src_stride = dsc->src_stride;
 709:Drivers/lvgl/src/draw/sw/blend/lv_draw_sw_blend_to_i1.c ****     const lv_opa_t * mask_buf = dsc->mask_buf;
 710:Drivers/lvgl/src/draw/sw/blend/lv_draw_sw_blend_to_i1.c ****     int32_t mask_stride = dsc->mask_stride;
 711:Drivers/lvgl/src/draw/sw/blend/lv_draw_sw_blend_to_i1.c **** 
 712:Drivers/lvgl/src/draw/sw/blend/lv_draw_sw_blend_to_i1.c ****     int32_t x;
 713:Drivers/lvgl/src/draw/sw/blend/lv_draw_sw_blend_to_i1.c ****     int32_t y;
 714:Drivers/lvgl/src/draw/sw/blend/lv_draw_sw_blend_to_i1.c **** 
ARM GAS  /tmp/cc9ag92L.s 			page 14


 715:Drivers/lvgl/src/draw/sw/blend/lv_draw_sw_blend_to_i1.c ****     int32_t bit_ofs = dsc->relative_area.x1 % 8;
 716:Drivers/lvgl/src/draw/sw/blend/lv_draw_sw_blend_to_i1.c **** 
 717:Drivers/lvgl/src/draw/sw/blend/lv_draw_sw_blend_to_i1.c ****     if(dsc->blend_mode == LV_BLEND_MODE_NORMAL) {
 718:Drivers/lvgl/src/draw/sw/blend/lv_draw_sw_blend_to_i1.c ****         if(mask_buf == NULL && opa >= LV_OPA_MAX) {
 719:Drivers/lvgl/src/draw/sw/blend/lv_draw_sw_blend_to_i1.c ****             if(LV_RESULT_INVALID == LV_DRAW_SW_ARGB8888_BLEND_NORMAL_TO_I1(dsc)) {
 720:Drivers/lvgl/src/draw/sw/blend/lv_draw_sw_blend_to_i1.c ****                 for(y = 0; y < h; y++) {
 721:Drivers/lvgl/src/draw/sw/blend/lv_draw_sw_blend_to_i1.c ****                     for(x = 0; x < w; x++) {
 722:Drivers/lvgl/src/draw/sw/blend/lv_draw_sw_blend_to_i1.c ****                         uint8_t src = lv_color32_luminance(src_buf_c32[x]);
 723:Drivers/lvgl/src/draw/sw/blend/lv_draw_sw_blend_to_i1.c ****                         uint8_t dest = get_bit(dest_buf_i1, x + bit_ofs) * 255;
 724:Drivers/lvgl/src/draw/sw/blend/lv_draw_sw_blend_to_i1.c ****                         lv_color_8_8_mix(src, &dest, src_buf_c32[x].alpha);
 725:Drivers/lvgl/src/draw/sw/blend/lv_draw_sw_blend_to_i1.c ****                         if(dest > I1_LUM_THRESHOLD) {
 726:Drivers/lvgl/src/draw/sw/blend/lv_draw_sw_blend_to_i1.c ****                             set_bit(dest_buf_i1, x + bit_ofs);
 727:Drivers/lvgl/src/draw/sw/blend/lv_draw_sw_blend_to_i1.c ****                         }
 728:Drivers/lvgl/src/draw/sw/blend/lv_draw_sw_blend_to_i1.c ****                         else {
 729:Drivers/lvgl/src/draw/sw/blend/lv_draw_sw_blend_to_i1.c ****                             clear_bit(dest_buf_i1, x + bit_ofs);
 730:Drivers/lvgl/src/draw/sw/blend/lv_draw_sw_blend_to_i1.c ****                         }
 731:Drivers/lvgl/src/draw/sw/blend/lv_draw_sw_blend_to_i1.c ****                     }
 732:Drivers/lvgl/src/draw/sw/blend/lv_draw_sw_blend_to_i1.c ****                     dest_buf_i1 = drawbuf_next_row(dest_buf_i1, dest_stride);
 733:Drivers/lvgl/src/draw/sw/blend/lv_draw_sw_blend_to_i1.c ****                     src_buf_c32 = drawbuf_next_row(src_buf_c32, src_stride);
 734:Drivers/lvgl/src/draw/sw/blend/lv_draw_sw_blend_to_i1.c ****                 }
 735:Drivers/lvgl/src/draw/sw/blend/lv_draw_sw_blend_to_i1.c ****             }
 736:Drivers/lvgl/src/draw/sw/blend/lv_draw_sw_blend_to_i1.c ****         }
 737:Drivers/lvgl/src/draw/sw/blend/lv_draw_sw_blend_to_i1.c ****         else if(mask_buf == NULL && opa < LV_OPA_MAX) {
 738:Drivers/lvgl/src/draw/sw/blend/lv_draw_sw_blend_to_i1.c ****             if(LV_RESULT_INVALID == LV_DRAW_SW_ARGB8888_BLEND_NORMAL_TO_I1_WITH_OPA(dsc)) {
 739:Drivers/lvgl/src/draw/sw/blend/lv_draw_sw_blend_to_i1.c ****                 for(y = 0; y < h; y++) {
 740:Drivers/lvgl/src/draw/sw/blend/lv_draw_sw_blend_to_i1.c ****                     for(x = 0; x < w; x++) {
 741:Drivers/lvgl/src/draw/sw/blend/lv_draw_sw_blend_to_i1.c ****                         uint8_t src = lv_color32_luminance(src_buf_c32[x]);
 742:Drivers/lvgl/src/draw/sw/blend/lv_draw_sw_blend_to_i1.c ****                         uint8_t dest = get_bit(dest_buf_i1, x + bit_ofs) * 255;
 743:Drivers/lvgl/src/draw/sw/blend/lv_draw_sw_blend_to_i1.c ****                         lv_color_8_8_mix(src, &dest, LV_OPA_MIX2(opa, src_buf_c32[x].alpha));
 744:Drivers/lvgl/src/draw/sw/blend/lv_draw_sw_blend_to_i1.c ****                         if(dest > I1_LUM_THRESHOLD) {
 745:Drivers/lvgl/src/draw/sw/blend/lv_draw_sw_blend_to_i1.c ****                             set_bit(dest_buf_i1, x + bit_ofs);
 746:Drivers/lvgl/src/draw/sw/blend/lv_draw_sw_blend_to_i1.c ****                         }
 747:Drivers/lvgl/src/draw/sw/blend/lv_draw_sw_blend_to_i1.c ****                         else {
 748:Drivers/lvgl/src/draw/sw/blend/lv_draw_sw_blend_to_i1.c ****                             clear_bit(dest_buf_i1, x + bit_ofs);
 749:Drivers/lvgl/src/draw/sw/blend/lv_draw_sw_blend_to_i1.c ****                         }
 750:Drivers/lvgl/src/draw/sw/blend/lv_draw_sw_blend_to_i1.c ****                     }
 751:Drivers/lvgl/src/draw/sw/blend/lv_draw_sw_blend_to_i1.c ****                     dest_buf_i1 = drawbuf_next_row(dest_buf_i1, dest_stride);
 752:Drivers/lvgl/src/draw/sw/blend/lv_draw_sw_blend_to_i1.c ****                     src_buf_c32 = drawbuf_next_row(src_buf_c32, src_stride);
 753:Drivers/lvgl/src/draw/sw/blend/lv_draw_sw_blend_to_i1.c ****                 }
 754:Drivers/lvgl/src/draw/sw/blend/lv_draw_sw_blend_to_i1.c ****             }
 755:Drivers/lvgl/src/draw/sw/blend/lv_draw_sw_blend_to_i1.c ****         }
 756:Drivers/lvgl/src/draw/sw/blend/lv_draw_sw_blend_to_i1.c ****         else if(mask_buf && opa >= LV_OPA_MAX) {
 757:Drivers/lvgl/src/draw/sw/blend/lv_draw_sw_blend_to_i1.c ****             if(LV_RESULT_INVALID == LV_DRAW_SW_ARGB8888_BLEND_NORMAL_TO_I1_WITH_MASK(dsc)) {
 758:Drivers/lvgl/src/draw/sw/blend/lv_draw_sw_blend_to_i1.c ****                 for(y = 0; y < h; y++) {
 759:Drivers/lvgl/src/draw/sw/blend/lv_draw_sw_blend_to_i1.c ****                     for(x = 0; x < w; x++) {
 760:Drivers/lvgl/src/draw/sw/blend/lv_draw_sw_blend_to_i1.c ****                         uint8_t src = lv_color32_luminance(src_buf_c32[x]);
 761:Drivers/lvgl/src/draw/sw/blend/lv_draw_sw_blend_to_i1.c ****                         uint8_t dest = get_bit(dest_buf_i1, x + bit_ofs) * 255;
 762:Drivers/lvgl/src/draw/sw/blend/lv_draw_sw_blend_to_i1.c ****                         lv_color_8_8_mix(src, &dest, LV_OPA_MIX2(mask_buf[x], src_buf_c32[x].alpha)
 763:Drivers/lvgl/src/draw/sw/blend/lv_draw_sw_blend_to_i1.c ****                         if(dest > I1_LUM_THRESHOLD) {
 764:Drivers/lvgl/src/draw/sw/blend/lv_draw_sw_blend_to_i1.c ****                             set_bit(dest_buf_i1, x + bit_ofs);
 765:Drivers/lvgl/src/draw/sw/blend/lv_draw_sw_blend_to_i1.c ****                         }
 766:Drivers/lvgl/src/draw/sw/blend/lv_draw_sw_blend_to_i1.c ****                         else {
 767:Drivers/lvgl/src/draw/sw/blend/lv_draw_sw_blend_to_i1.c ****                             clear_bit(dest_buf_i1, x + bit_ofs);
 768:Drivers/lvgl/src/draw/sw/blend/lv_draw_sw_blend_to_i1.c ****                         }
 769:Drivers/lvgl/src/draw/sw/blend/lv_draw_sw_blend_to_i1.c ****                     }
 770:Drivers/lvgl/src/draw/sw/blend/lv_draw_sw_blend_to_i1.c ****                     dest_buf_i1 = drawbuf_next_row(dest_buf_i1, dest_stride);
 771:Drivers/lvgl/src/draw/sw/blend/lv_draw_sw_blend_to_i1.c ****                     src_buf_c32 = drawbuf_next_row(src_buf_c32, src_stride);
ARM GAS  /tmp/cc9ag92L.s 			page 15


 772:Drivers/lvgl/src/draw/sw/blend/lv_draw_sw_blend_to_i1.c ****                     mask_buf += mask_stride;
 773:Drivers/lvgl/src/draw/sw/blend/lv_draw_sw_blend_to_i1.c ****                 }
 774:Drivers/lvgl/src/draw/sw/blend/lv_draw_sw_blend_to_i1.c ****             }
 775:Drivers/lvgl/src/draw/sw/blend/lv_draw_sw_blend_to_i1.c ****         }
 776:Drivers/lvgl/src/draw/sw/blend/lv_draw_sw_blend_to_i1.c ****         else if(mask_buf && opa < LV_OPA_MAX) {
 777:Drivers/lvgl/src/draw/sw/blend/lv_draw_sw_blend_to_i1.c ****             if(LV_RESULT_INVALID == LV_DRAW_SW_ARGB8888_BLEND_NORMAL_TO_I1_MIX_MASK_OPA(dsc)) {
 778:Drivers/lvgl/src/draw/sw/blend/lv_draw_sw_blend_to_i1.c ****                 for(y = 0; y < h; y++) {
 779:Drivers/lvgl/src/draw/sw/blend/lv_draw_sw_blend_to_i1.c ****                     for(x = 0; x < w; x++) {
 780:Drivers/lvgl/src/draw/sw/blend/lv_draw_sw_blend_to_i1.c ****                         uint8_t src = lv_color32_luminance(src_buf_c32[x]);
 781:Drivers/lvgl/src/draw/sw/blend/lv_draw_sw_blend_to_i1.c ****                         uint8_t dest = get_bit(dest_buf_i1, x + bit_ofs) * 255;
 782:Drivers/lvgl/src/draw/sw/blend/lv_draw_sw_blend_to_i1.c ****                         lv_color_8_8_mix(src, &dest, LV_OPA_MIX3(opa, mask_buf[x], src_buf_c32[x].a
 783:Drivers/lvgl/src/draw/sw/blend/lv_draw_sw_blend_to_i1.c ****                         if(dest > I1_LUM_THRESHOLD) {
 784:Drivers/lvgl/src/draw/sw/blend/lv_draw_sw_blend_to_i1.c ****                             set_bit(dest_buf_i1, x + bit_ofs);
 785:Drivers/lvgl/src/draw/sw/blend/lv_draw_sw_blend_to_i1.c ****                         }
 786:Drivers/lvgl/src/draw/sw/blend/lv_draw_sw_blend_to_i1.c ****                         else {
 787:Drivers/lvgl/src/draw/sw/blend/lv_draw_sw_blend_to_i1.c ****                             clear_bit(dest_buf_i1, x + bit_ofs);
 788:Drivers/lvgl/src/draw/sw/blend/lv_draw_sw_blend_to_i1.c ****                         }
 789:Drivers/lvgl/src/draw/sw/blend/lv_draw_sw_blend_to_i1.c ****                     }
 790:Drivers/lvgl/src/draw/sw/blend/lv_draw_sw_blend_to_i1.c ****                     dest_buf_i1 = drawbuf_next_row(dest_buf_i1, dest_stride);
 791:Drivers/lvgl/src/draw/sw/blend/lv_draw_sw_blend_to_i1.c ****                     src_buf_c32 = drawbuf_next_row(src_buf_c32, src_stride);
 792:Drivers/lvgl/src/draw/sw/blend/lv_draw_sw_blend_to_i1.c ****                     mask_buf += mask_stride;
 793:Drivers/lvgl/src/draw/sw/blend/lv_draw_sw_blend_to_i1.c ****                 }
 794:Drivers/lvgl/src/draw/sw/blend/lv_draw_sw_blend_to_i1.c ****             }
 795:Drivers/lvgl/src/draw/sw/blend/lv_draw_sw_blend_to_i1.c ****         }
 796:Drivers/lvgl/src/draw/sw/blend/lv_draw_sw_blend_to_i1.c ****     }
 797:Drivers/lvgl/src/draw/sw/blend/lv_draw_sw_blend_to_i1.c ****     else {
 798:Drivers/lvgl/src/draw/sw/blend/lv_draw_sw_blend_to_i1.c ****         for(y = 0; y < h; y++) {
 799:Drivers/lvgl/src/draw/sw/blend/lv_draw_sw_blend_to_i1.c ****             for(x = 0; x < w; x++) {
 800:Drivers/lvgl/src/draw/sw/blend/lv_draw_sw_blend_to_i1.c ****                 lv_color32_t color_argb = src_buf_c32[x];
 801:Drivers/lvgl/src/draw/sw/blend/lv_draw_sw_blend_to_i1.c ****                 if(mask_buf == NULL) color_argb.alpha = LV_OPA_MIX2(color_argb.alpha, opa);
 802:Drivers/lvgl/src/draw/sw/blend/lv_draw_sw_blend_to_i1.c ****                 else color_argb.alpha = LV_OPA_MIX3(color_argb.alpha, mask_buf[x], opa);
 803:Drivers/lvgl/src/draw/sw/blend/lv_draw_sw_blend_to_i1.c ****                 blend_non_normal_pixel(dest_buf_i1, x + bit_ofs, color_argb, dsc->blend_mode);
 804:Drivers/lvgl/src/draw/sw/blend/lv_draw_sw_blend_to_i1.c ****             }
 805:Drivers/lvgl/src/draw/sw/blend/lv_draw_sw_blend_to_i1.c ****             if(mask_buf) mask_buf += mask_stride;
 806:Drivers/lvgl/src/draw/sw/blend/lv_draw_sw_blend_to_i1.c ****             dest_buf_i1 = drawbuf_next_row(dest_buf_i1, dest_stride);
 807:Drivers/lvgl/src/draw/sw/blend/lv_draw_sw_blend_to_i1.c ****             src_buf_c32 = drawbuf_next_row(src_buf_c32, src_stride);
 808:Drivers/lvgl/src/draw/sw/blend/lv_draw_sw_blend_to_i1.c ****         }
 809:Drivers/lvgl/src/draw/sw/blend/lv_draw_sw_blend_to_i1.c ****     }
 810:Drivers/lvgl/src/draw/sw/blend/lv_draw_sw_blend_to_i1.c **** }
 811:Drivers/lvgl/src/draw/sw/blend/lv_draw_sw_blend_to_i1.c **** #endif
 812:Drivers/lvgl/src/draw/sw/blend/lv_draw_sw_blend_to_i1.c **** 
 813:Drivers/lvgl/src/draw/sw/blend/lv_draw_sw_blend_to_i1.c **** #if LV_DRAW_SW_SUPPORT_RGB888 || LV_DRAW_SW_SUPPORT_XRGB8888
 814:Drivers/lvgl/src/draw/sw/blend/lv_draw_sw_blend_to_i1.c **** static void LV_ATTRIBUTE_FAST_MEM rgb888_image_blend(lv_draw_sw_blend_image_dsc_t * dsc,
 815:Drivers/lvgl/src/draw/sw/blend/lv_draw_sw_blend_to_i1.c ****                                                      const uint8_t src_px_size)
 816:Drivers/lvgl/src/draw/sw/blend/lv_draw_sw_blend_to_i1.c **** {
 817:Drivers/lvgl/src/draw/sw/blend/lv_draw_sw_blend_to_i1.c ****     int32_t w = dsc->dest_w;
 818:Drivers/lvgl/src/draw/sw/blend/lv_draw_sw_blend_to_i1.c ****     int32_t h = dsc->dest_h;
 819:Drivers/lvgl/src/draw/sw/blend/lv_draw_sw_blend_to_i1.c ****     lv_opa_t opa = dsc->opa;
 820:Drivers/lvgl/src/draw/sw/blend/lv_draw_sw_blend_to_i1.c ****     uint8_t * dest_buf_i1 = dsc->dest_buf;
 821:Drivers/lvgl/src/draw/sw/blend/lv_draw_sw_blend_to_i1.c ****     int32_t dest_stride = dsc->dest_stride;
 822:Drivers/lvgl/src/draw/sw/blend/lv_draw_sw_blend_to_i1.c ****     const uint8_t * src_buf_rgb888 = dsc->src_buf;
 823:Drivers/lvgl/src/draw/sw/blend/lv_draw_sw_blend_to_i1.c ****     int32_t src_stride = dsc->src_stride;
 824:Drivers/lvgl/src/draw/sw/blend/lv_draw_sw_blend_to_i1.c ****     const lv_opa_t * mask_buf = dsc->mask_buf;
 825:Drivers/lvgl/src/draw/sw/blend/lv_draw_sw_blend_to_i1.c ****     int32_t mask_stride = dsc->mask_stride;
 826:Drivers/lvgl/src/draw/sw/blend/lv_draw_sw_blend_to_i1.c **** 
 827:Drivers/lvgl/src/draw/sw/blend/lv_draw_sw_blend_to_i1.c ****     int32_t dest_x;
 828:Drivers/lvgl/src/draw/sw/blend/lv_draw_sw_blend_to_i1.c ****     int32_t src_x;
ARM GAS  /tmp/cc9ag92L.s 			page 16


 829:Drivers/lvgl/src/draw/sw/blend/lv_draw_sw_blend_to_i1.c ****     int32_t y;
 830:Drivers/lvgl/src/draw/sw/blend/lv_draw_sw_blend_to_i1.c **** 
 831:Drivers/lvgl/src/draw/sw/blend/lv_draw_sw_blend_to_i1.c **** 
 832:Drivers/lvgl/src/draw/sw/blend/lv_draw_sw_blend_to_i1.c ****     int32_t bit_ofs = dsc->relative_area.x1 % 8;
 833:Drivers/lvgl/src/draw/sw/blend/lv_draw_sw_blend_to_i1.c **** 
 834:Drivers/lvgl/src/draw/sw/blend/lv_draw_sw_blend_to_i1.c ****     if(dsc->blend_mode == LV_BLEND_MODE_NORMAL) {
 835:Drivers/lvgl/src/draw/sw/blend/lv_draw_sw_blend_to_i1.c ****         /*Special case*/
 836:Drivers/lvgl/src/draw/sw/blend/lv_draw_sw_blend_to_i1.c ****         if(mask_buf == NULL && opa >= LV_OPA_MAX) {
 837:Drivers/lvgl/src/draw/sw/blend/lv_draw_sw_blend_to_i1.c ****             if(LV_RESULT_INVALID == LV_DRAW_SW_RGB888_BLEND_NORMAL_TO_I1(dsc)) {
 838:Drivers/lvgl/src/draw/sw/blend/lv_draw_sw_blend_to_i1.c ****                 for(y = 0; y < h; y++) {
 839:Drivers/lvgl/src/draw/sw/blend/lv_draw_sw_blend_to_i1.c ****                     for(dest_x = 0, src_x = 0; dest_x < w; dest_x++, src_x += src_px_size) {
 840:Drivers/lvgl/src/draw/sw/blend/lv_draw_sw_blend_to_i1.c ****                         uint8_t src = lv_color24_luminance(&src_buf_rgb888[src_x]);
 841:Drivers/lvgl/src/draw/sw/blend/lv_draw_sw_blend_to_i1.c ****                         if(src > I1_LUM_THRESHOLD) {
 842:Drivers/lvgl/src/draw/sw/blend/lv_draw_sw_blend_to_i1.c ****                             set_bit(dest_buf_i1, dest_x + bit_ofs);
 843:Drivers/lvgl/src/draw/sw/blend/lv_draw_sw_blend_to_i1.c ****                         }
 844:Drivers/lvgl/src/draw/sw/blend/lv_draw_sw_blend_to_i1.c ****                         else {
 845:Drivers/lvgl/src/draw/sw/blend/lv_draw_sw_blend_to_i1.c ****                             clear_bit(dest_buf_i1, dest_x + bit_ofs);
 846:Drivers/lvgl/src/draw/sw/blend/lv_draw_sw_blend_to_i1.c ****                         }
 847:Drivers/lvgl/src/draw/sw/blend/lv_draw_sw_blend_to_i1.c ****                     }
 848:Drivers/lvgl/src/draw/sw/blend/lv_draw_sw_blend_to_i1.c ****                     dest_buf_i1 = drawbuf_next_row(dest_buf_i1, dest_stride);
 849:Drivers/lvgl/src/draw/sw/blend/lv_draw_sw_blend_to_i1.c ****                     src_buf_rgb888 = drawbuf_next_row(src_buf_rgb888, src_stride);
 850:Drivers/lvgl/src/draw/sw/blend/lv_draw_sw_blend_to_i1.c ****                 }
 851:Drivers/lvgl/src/draw/sw/blend/lv_draw_sw_blend_to_i1.c ****             }
 852:Drivers/lvgl/src/draw/sw/blend/lv_draw_sw_blend_to_i1.c ****         }
 853:Drivers/lvgl/src/draw/sw/blend/lv_draw_sw_blend_to_i1.c ****         else if(mask_buf == NULL && opa < LV_OPA_MAX) {
 854:Drivers/lvgl/src/draw/sw/blend/lv_draw_sw_blend_to_i1.c ****             if(LV_RESULT_INVALID == LV_DRAW_SW_RGB888_BLEND_NORMAL_TO_I1_WITH_OPA(dsc)) {
 855:Drivers/lvgl/src/draw/sw/blend/lv_draw_sw_blend_to_i1.c ****                 for(y = 0; y < h; y++) {
 856:Drivers/lvgl/src/draw/sw/blend/lv_draw_sw_blend_to_i1.c ****                     for(dest_x = 0, src_x = 0; dest_x < w; dest_x++, src_x += src_px_size) {
 857:Drivers/lvgl/src/draw/sw/blend/lv_draw_sw_blend_to_i1.c ****                         uint8_t src = lv_color24_luminance(&src_buf_rgb888[src_x]);
 858:Drivers/lvgl/src/draw/sw/blend/lv_draw_sw_blend_to_i1.c ****                         uint8_t dest = get_bit(dest_buf_i1, dest_x + bit_ofs) * 255;
 859:Drivers/lvgl/src/draw/sw/blend/lv_draw_sw_blend_to_i1.c ****                         lv_color_8_8_mix(src, &dest, opa);
 860:Drivers/lvgl/src/draw/sw/blend/lv_draw_sw_blend_to_i1.c ****                         if(dest > I1_LUM_THRESHOLD) {
 861:Drivers/lvgl/src/draw/sw/blend/lv_draw_sw_blend_to_i1.c ****                             set_bit(dest_buf_i1, dest_x + bit_ofs);
 862:Drivers/lvgl/src/draw/sw/blend/lv_draw_sw_blend_to_i1.c ****                         }
 863:Drivers/lvgl/src/draw/sw/blend/lv_draw_sw_blend_to_i1.c ****                         else {
 864:Drivers/lvgl/src/draw/sw/blend/lv_draw_sw_blend_to_i1.c ****                             clear_bit(dest_buf_i1, dest_x + bit_ofs);
 865:Drivers/lvgl/src/draw/sw/blend/lv_draw_sw_blend_to_i1.c ****                         }
 866:Drivers/lvgl/src/draw/sw/blend/lv_draw_sw_blend_to_i1.c ****                     }
 867:Drivers/lvgl/src/draw/sw/blend/lv_draw_sw_blend_to_i1.c ****                     dest_buf_i1 = drawbuf_next_row(dest_buf_i1, dest_stride);
 868:Drivers/lvgl/src/draw/sw/blend/lv_draw_sw_blend_to_i1.c ****                     src_buf_rgb888 = drawbuf_next_row(src_buf_rgb888, src_stride);
 869:Drivers/lvgl/src/draw/sw/blend/lv_draw_sw_blend_to_i1.c ****                 }
 870:Drivers/lvgl/src/draw/sw/blend/lv_draw_sw_blend_to_i1.c ****             }
 871:Drivers/lvgl/src/draw/sw/blend/lv_draw_sw_blend_to_i1.c ****         }
 872:Drivers/lvgl/src/draw/sw/blend/lv_draw_sw_blend_to_i1.c ****         else if(mask_buf && opa >= LV_OPA_MAX) {
 873:Drivers/lvgl/src/draw/sw/blend/lv_draw_sw_blend_to_i1.c ****             if(LV_RESULT_INVALID == LV_DRAW_SW_RGB888_BLEND_NORMAL_TO_I1_WITH_MASK(dsc)) {
 874:Drivers/lvgl/src/draw/sw/blend/lv_draw_sw_blend_to_i1.c ****                 uint32_t mask_x;
 875:Drivers/lvgl/src/draw/sw/blend/lv_draw_sw_blend_to_i1.c ****                 for(y = 0; y < h; y++) {
 876:Drivers/lvgl/src/draw/sw/blend/lv_draw_sw_blend_to_i1.c ****                     for(mask_x = 0, dest_x = 0, src_x = 0; dest_x < w; mask_x++, dest_x++, src_x +=
 877:Drivers/lvgl/src/draw/sw/blend/lv_draw_sw_blend_to_i1.c ****                         uint8_t src = lv_color24_luminance(&src_buf_rgb888[src_x]);
 878:Drivers/lvgl/src/draw/sw/blend/lv_draw_sw_blend_to_i1.c ****                         uint8_t dest = get_bit(dest_buf_i1, dest_x + bit_ofs) * 255;
 879:Drivers/lvgl/src/draw/sw/blend/lv_draw_sw_blend_to_i1.c ****                         lv_color_8_8_mix(src, &dest, mask_buf[mask_x]);
 880:Drivers/lvgl/src/draw/sw/blend/lv_draw_sw_blend_to_i1.c ****                         if(dest > I1_LUM_THRESHOLD) {
 881:Drivers/lvgl/src/draw/sw/blend/lv_draw_sw_blend_to_i1.c ****                             set_bit(dest_buf_i1, dest_x + bit_ofs);
 882:Drivers/lvgl/src/draw/sw/blend/lv_draw_sw_blend_to_i1.c ****                         }
 883:Drivers/lvgl/src/draw/sw/blend/lv_draw_sw_blend_to_i1.c ****                         else {
 884:Drivers/lvgl/src/draw/sw/blend/lv_draw_sw_blend_to_i1.c ****                             clear_bit(dest_buf_i1, dest_x + bit_ofs);
 885:Drivers/lvgl/src/draw/sw/blend/lv_draw_sw_blend_to_i1.c ****                         }
ARM GAS  /tmp/cc9ag92L.s 			page 17


 886:Drivers/lvgl/src/draw/sw/blend/lv_draw_sw_blend_to_i1.c ****                     }
 887:Drivers/lvgl/src/draw/sw/blend/lv_draw_sw_blend_to_i1.c ****                     dest_buf_i1 = drawbuf_next_row(dest_buf_i1, dest_stride);
 888:Drivers/lvgl/src/draw/sw/blend/lv_draw_sw_blend_to_i1.c ****                     src_buf_rgb888 = drawbuf_next_row(src_buf_rgb888, src_stride);
 889:Drivers/lvgl/src/draw/sw/blend/lv_draw_sw_blend_to_i1.c ****                     mask_buf += mask_stride;
 890:Drivers/lvgl/src/draw/sw/blend/lv_draw_sw_blend_to_i1.c ****                 }
 891:Drivers/lvgl/src/draw/sw/blend/lv_draw_sw_blend_to_i1.c ****             }
 892:Drivers/lvgl/src/draw/sw/blend/lv_draw_sw_blend_to_i1.c ****         }
 893:Drivers/lvgl/src/draw/sw/blend/lv_draw_sw_blend_to_i1.c ****         else if(mask_buf && opa < LV_OPA_MAX) {
 894:Drivers/lvgl/src/draw/sw/blend/lv_draw_sw_blend_to_i1.c ****             if(LV_RESULT_INVALID == LV_DRAW_SW_RGB888_BLEND_NORMAL_TO_I1_MIX_MASK_OPA(dsc)) {
 895:Drivers/lvgl/src/draw/sw/blend/lv_draw_sw_blend_to_i1.c ****                 uint32_t mask_x;
 896:Drivers/lvgl/src/draw/sw/blend/lv_draw_sw_blend_to_i1.c ****                 for(y = 0; y < h; y++) {
 897:Drivers/lvgl/src/draw/sw/blend/lv_draw_sw_blend_to_i1.c ****                     for(mask_x = 0, dest_x = 0, src_x = 0; dest_x < w; mask_x++, dest_x++, src_x +=
 898:Drivers/lvgl/src/draw/sw/blend/lv_draw_sw_blend_to_i1.c ****                         uint8_t src = lv_color24_luminance(&src_buf_rgb888[src_x]);
 899:Drivers/lvgl/src/draw/sw/blend/lv_draw_sw_blend_to_i1.c ****                         uint8_t dest = get_bit(dest_buf_i1, dest_x + bit_ofs) * 255;
 900:Drivers/lvgl/src/draw/sw/blend/lv_draw_sw_blend_to_i1.c ****                         lv_color_8_8_mix(src, &dest, LV_OPA_MIX2(mask_buf[mask_x], opa));
 901:Drivers/lvgl/src/draw/sw/blend/lv_draw_sw_blend_to_i1.c ****                         if(dest > I1_LUM_THRESHOLD) {
 902:Drivers/lvgl/src/draw/sw/blend/lv_draw_sw_blend_to_i1.c ****                             set_bit(dest_buf_i1, dest_x + bit_ofs);
 903:Drivers/lvgl/src/draw/sw/blend/lv_draw_sw_blend_to_i1.c ****                         }
 904:Drivers/lvgl/src/draw/sw/blend/lv_draw_sw_blend_to_i1.c ****                         else {
 905:Drivers/lvgl/src/draw/sw/blend/lv_draw_sw_blend_to_i1.c ****                             clear_bit(dest_buf_i1, dest_x + bit_ofs);
 906:Drivers/lvgl/src/draw/sw/blend/lv_draw_sw_blend_to_i1.c ****                         }
 907:Drivers/lvgl/src/draw/sw/blend/lv_draw_sw_blend_to_i1.c ****                     }
 908:Drivers/lvgl/src/draw/sw/blend/lv_draw_sw_blend_to_i1.c ****                     dest_buf_i1 = drawbuf_next_row(dest_buf_i1, dest_stride);
 909:Drivers/lvgl/src/draw/sw/blend/lv_draw_sw_blend_to_i1.c ****                     src_buf_rgb888 = drawbuf_next_row(src_buf_rgb888, src_stride);
 910:Drivers/lvgl/src/draw/sw/blend/lv_draw_sw_blend_to_i1.c ****                     mask_buf += mask_stride;
 911:Drivers/lvgl/src/draw/sw/blend/lv_draw_sw_blend_to_i1.c ****                 }
 912:Drivers/lvgl/src/draw/sw/blend/lv_draw_sw_blend_to_i1.c ****             }
 913:Drivers/lvgl/src/draw/sw/blend/lv_draw_sw_blend_to_i1.c ****         }
 914:Drivers/lvgl/src/draw/sw/blend/lv_draw_sw_blend_to_i1.c ****         else {
 915:Drivers/lvgl/src/draw/sw/blend/lv_draw_sw_blend_to_i1.c ****             lv_color32_t src_argb;
 916:Drivers/lvgl/src/draw/sw/blend/lv_draw_sw_blend_to_i1.c ****             for(y = 0; y < h; y++) {
 917:Drivers/lvgl/src/draw/sw/blend/lv_draw_sw_blend_to_i1.c ****                 for(dest_x = 0, src_x = 0; dest_x < w; dest_x++, src_x += src_px_size) {
 918:Drivers/lvgl/src/draw/sw/blend/lv_draw_sw_blend_to_i1.c ****                     src_argb.red = src_buf_rgb888[src_x + 2];
 919:Drivers/lvgl/src/draw/sw/blend/lv_draw_sw_blend_to_i1.c ****                     src_argb.green = src_buf_rgb888[src_x + 1];
 920:Drivers/lvgl/src/draw/sw/blend/lv_draw_sw_blend_to_i1.c ****                     src_argb.blue = src_buf_rgb888[src_x + 0];
 921:Drivers/lvgl/src/draw/sw/blend/lv_draw_sw_blend_to_i1.c ****                     if(mask_buf == NULL) src_argb.alpha = opa;
 922:Drivers/lvgl/src/draw/sw/blend/lv_draw_sw_blend_to_i1.c ****                     else src_argb.alpha = LV_OPA_MIX2(mask_buf[dest_x], opa);
 923:Drivers/lvgl/src/draw/sw/blend/lv_draw_sw_blend_to_i1.c **** 
 924:Drivers/lvgl/src/draw/sw/blend/lv_draw_sw_blend_to_i1.c ****                     blend_non_normal_pixel(dest_buf_i1, dest_x + bit_ofs, src_argb, dsc->blend_mode
 925:Drivers/lvgl/src/draw/sw/blend/lv_draw_sw_blend_to_i1.c ****                 }
 926:Drivers/lvgl/src/draw/sw/blend/lv_draw_sw_blend_to_i1.c ****                 if(mask_buf) mask_buf += mask_stride;
 927:Drivers/lvgl/src/draw/sw/blend/lv_draw_sw_blend_to_i1.c ****                 dest_buf_i1 = drawbuf_next_row(dest_buf_i1, dest_stride);
 928:Drivers/lvgl/src/draw/sw/blend/lv_draw_sw_blend_to_i1.c ****                 src_buf_rgb888 = drawbuf_next_row(src_buf_rgb888, src_stride);
 929:Drivers/lvgl/src/draw/sw/blend/lv_draw_sw_blend_to_i1.c ****             }
 930:Drivers/lvgl/src/draw/sw/blend/lv_draw_sw_blend_to_i1.c ****         }
 931:Drivers/lvgl/src/draw/sw/blend/lv_draw_sw_blend_to_i1.c ****     }
 932:Drivers/lvgl/src/draw/sw/blend/lv_draw_sw_blend_to_i1.c **** }
 933:Drivers/lvgl/src/draw/sw/blend/lv_draw_sw_blend_to_i1.c **** #endif
 934:Drivers/lvgl/src/draw/sw/blend/lv_draw_sw_blend_to_i1.c **** 
 935:Drivers/lvgl/src/draw/sw/blend/lv_draw_sw_blend_to_i1.c **** #if LV_DRAW_SW_SUPPORT_RGB565
 936:Drivers/lvgl/src/draw/sw/blend/lv_draw_sw_blend_to_i1.c **** static void LV_ATTRIBUTE_FAST_MEM rgb565_image_blend(lv_draw_sw_blend_image_dsc_t * dsc)
 937:Drivers/lvgl/src/draw/sw/blend/lv_draw_sw_blend_to_i1.c **** {
 938:Drivers/lvgl/src/draw/sw/blend/lv_draw_sw_blend_to_i1.c ****     int32_t w = dsc->dest_w;
 939:Drivers/lvgl/src/draw/sw/blend/lv_draw_sw_blend_to_i1.c ****     int32_t h = dsc->dest_h;
 940:Drivers/lvgl/src/draw/sw/blend/lv_draw_sw_blend_to_i1.c ****     lv_opa_t opa = dsc->opa;
 941:Drivers/lvgl/src/draw/sw/blend/lv_draw_sw_blend_to_i1.c ****     uint8_t * dest_buf_u8 = dsc->dest_buf;
 942:Drivers/lvgl/src/draw/sw/blend/lv_draw_sw_blend_to_i1.c ****     int32_t dest_stride = dsc->dest_stride;
ARM GAS  /tmp/cc9ag92L.s 			page 18


 943:Drivers/lvgl/src/draw/sw/blend/lv_draw_sw_blend_to_i1.c ****     const lv_color16_t * src_buf_c16 = (const lv_color16_t *)dsc->src_buf;
 944:Drivers/lvgl/src/draw/sw/blend/lv_draw_sw_blend_to_i1.c ****     int32_t src_stride = dsc->src_stride;
 945:Drivers/lvgl/src/draw/sw/blend/lv_draw_sw_blend_to_i1.c ****     const lv_opa_t * mask_buf = dsc->mask_buf;
 946:Drivers/lvgl/src/draw/sw/blend/lv_draw_sw_blend_to_i1.c ****     int32_t mask_stride = dsc->mask_stride;
 947:Drivers/lvgl/src/draw/sw/blend/lv_draw_sw_blend_to_i1.c ****     int32_t bit_ofs = dsc->relative_area.x1 % 8;
 948:Drivers/lvgl/src/draw/sw/blend/lv_draw_sw_blend_to_i1.c **** 
 949:Drivers/lvgl/src/draw/sw/blend/lv_draw_sw_blend_to_i1.c ****     int32_t src_x;
 950:Drivers/lvgl/src/draw/sw/blend/lv_draw_sw_blend_to_i1.c ****     int32_t dest_x;
 951:Drivers/lvgl/src/draw/sw/blend/lv_draw_sw_blend_to_i1.c ****     int32_t y;
 952:Drivers/lvgl/src/draw/sw/blend/lv_draw_sw_blend_to_i1.c **** 
 953:Drivers/lvgl/src/draw/sw/blend/lv_draw_sw_blend_to_i1.c ****     if(dsc->blend_mode == LV_BLEND_MODE_NORMAL) {
 954:Drivers/lvgl/src/draw/sw/blend/lv_draw_sw_blend_to_i1.c ****         if(mask_buf == NULL && opa >= LV_OPA_MAX) {
 955:Drivers/lvgl/src/draw/sw/blend/lv_draw_sw_blend_to_i1.c ****             if(LV_RESULT_INVALID == LV_DRAW_SW_RGB565_BLEND_NORMAL_TO_I1(dsc)) {
 956:Drivers/lvgl/src/draw/sw/blend/lv_draw_sw_blend_to_i1.c ****                 for(y = 0; y < h; y++) {
 957:Drivers/lvgl/src/draw/sw/blend/lv_draw_sw_blend_to_i1.c ****                     for(src_x = 0, dest_x = 0; src_x < w; dest_x++, src_x++) {
 958:Drivers/lvgl/src/draw/sw/blend/lv_draw_sw_blend_to_i1.c ****                         uint8_t src = lv_color16_luminance(src_buf_c16[src_x]);
 959:Drivers/lvgl/src/draw/sw/blend/lv_draw_sw_blend_to_i1.c ****                         if(src > I1_LUM_THRESHOLD) {
 960:Drivers/lvgl/src/draw/sw/blend/lv_draw_sw_blend_to_i1.c ****                             set_bit(dest_buf_u8, dest_x + bit_ofs);
 961:Drivers/lvgl/src/draw/sw/blend/lv_draw_sw_blend_to_i1.c ****                         }
 962:Drivers/lvgl/src/draw/sw/blend/lv_draw_sw_blend_to_i1.c ****                         else {
 963:Drivers/lvgl/src/draw/sw/blend/lv_draw_sw_blend_to_i1.c ****                             clear_bit(dest_buf_u8, dest_x + bit_ofs);
 964:Drivers/lvgl/src/draw/sw/blend/lv_draw_sw_blend_to_i1.c ****                         }
 965:Drivers/lvgl/src/draw/sw/blend/lv_draw_sw_blend_to_i1.c ****                     }
 966:Drivers/lvgl/src/draw/sw/blend/lv_draw_sw_blend_to_i1.c ****                     dest_buf_u8 = drawbuf_next_row(dest_buf_u8, dest_stride);
 967:Drivers/lvgl/src/draw/sw/blend/lv_draw_sw_blend_to_i1.c ****                     src_buf_c16 = drawbuf_next_row(src_buf_c16, src_stride);
 968:Drivers/lvgl/src/draw/sw/blend/lv_draw_sw_blend_to_i1.c ****                 }
 969:Drivers/lvgl/src/draw/sw/blend/lv_draw_sw_blend_to_i1.c ****             }
 970:Drivers/lvgl/src/draw/sw/blend/lv_draw_sw_blend_to_i1.c ****         }
 971:Drivers/lvgl/src/draw/sw/blend/lv_draw_sw_blend_to_i1.c ****         else if(mask_buf == NULL && opa < LV_OPA_MAX) {
 972:Drivers/lvgl/src/draw/sw/blend/lv_draw_sw_blend_to_i1.c ****             if(LV_RESULT_INVALID == LV_DRAW_SW_RGB565_BLEND_NORMAL_TO_I1_WITH_OPA(dsc)) {
 973:Drivers/lvgl/src/draw/sw/blend/lv_draw_sw_blend_to_i1.c ****                 for(y = 0; y < h; y++) {
 974:Drivers/lvgl/src/draw/sw/blend/lv_draw_sw_blend_to_i1.c ****                     for(src_x = 0, dest_x = 0; src_x < w; dest_x++, src_x++) {
 975:Drivers/lvgl/src/draw/sw/blend/lv_draw_sw_blend_to_i1.c ****                         uint8_t src = lv_color16_luminance(src_buf_c16[src_x]);
 976:Drivers/lvgl/src/draw/sw/blend/lv_draw_sw_blend_to_i1.c ****                         uint8_t dest = get_bit(dest_buf_u8, dest_x + bit_ofs) * 255;
 977:Drivers/lvgl/src/draw/sw/blend/lv_draw_sw_blend_to_i1.c ****                         lv_color_8_8_mix(src, &dest, opa);
 978:Drivers/lvgl/src/draw/sw/blend/lv_draw_sw_blend_to_i1.c ****                         if(dest > I1_LUM_THRESHOLD) {
 979:Drivers/lvgl/src/draw/sw/blend/lv_draw_sw_blend_to_i1.c ****                             set_bit(dest_buf_u8, dest_x  + bit_ofs);
 980:Drivers/lvgl/src/draw/sw/blend/lv_draw_sw_blend_to_i1.c ****                         }
 981:Drivers/lvgl/src/draw/sw/blend/lv_draw_sw_blend_to_i1.c ****                         else {
 982:Drivers/lvgl/src/draw/sw/blend/lv_draw_sw_blend_to_i1.c ****                             clear_bit(dest_buf_u8, dest_x  + bit_ofs);
 983:Drivers/lvgl/src/draw/sw/blend/lv_draw_sw_blend_to_i1.c ****                         }
 984:Drivers/lvgl/src/draw/sw/blend/lv_draw_sw_blend_to_i1.c ****                     }
 985:Drivers/lvgl/src/draw/sw/blend/lv_draw_sw_blend_to_i1.c ****                     dest_buf_u8 = drawbuf_next_row(dest_buf_u8, dest_stride);
 986:Drivers/lvgl/src/draw/sw/blend/lv_draw_sw_blend_to_i1.c ****                     src_buf_c16 = drawbuf_next_row(src_buf_c16, src_stride);
 987:Drivers/lvgl/src/draw/sw/blend/lv_draw_sw_blend_to_i1.c ****                 }
 988:Drivers/lvgl/src/draw/sw/blend/lv_draw_sw_blend_to_i1.c ****             }
 989:Drivers/lvgl/src/draw/sw/blend/lv_draw_sw_blend_to_i1.c ****         }
 990:Drivers/lvgl/src/draw/sw/blend/lv_draw_sw_blend_to_i1.c ****         else if(mask_buf && opa >= LV_OPA_MAX) {
 991:Drivers/lvgl/src/draw/sw/blend/lv_draw_sw_blend_to_i1.c ****             if(LV_RESULT_INVALID == LV_DRAW_SW_RGB565_BLEND_NORMAL_TO_I1_WITH_MASK(dsc)) {
 992:Drivers/lvgl/src/draw/sw/blend/lv_draw_sw_blend_to_i1.c ****                 uint32_t mask_x;
 993:Drivers/lvgl/src/draw/sw/blend/lv_draw_sw_blend_to_i1.c ****                 for(y = 0; y < h; y++) {
 994:Drivers/lvgl/src/draw/sw/blend/lv_draw_sw_blend_to_i1.c ****                     for(mask_x = 0, dest_x = 0, src_x = 0; dest_x < w; mask_x++, dest_x++, src_x++)
 995:Drivers/lvgl/src/draw/sw/blend/lv_draw_sw_blend_to_i1.c ****                         uint8_t src = lv_color16_luminance(src_buf_c16[src_x]);
 996:Drivers/lvgl/src/draw/sw/blend/lv_draw_sw_blend_to_i1.c ****                         uint8_t dest = get_bit(dest_buf_u8, dest_x + bit_ofs) * 255;
 997:Drivers/lvgl/src/draw/sw/blend/lv_draw_sw_blend_to_i1.c ****                         lv_color_8_8_mix(src, &dest, mask_buf[mask_x]);
 998:Drivers/lvgl/src/draw/sw/blend/lv_draw_sw_blend_to_i1.c ****                         if(dest > I1_LUM_THRESHOLD) {
 999:Drivers/lvgl/src/draw/sw/blend/lv_draw_sw_blend_to_i1.c ****                             set_bit(dest_buf_u8, dest_x + bit_ofs);
ARM GAS  /tmp/cc9ag92L.s 			page 19


1000:Drivers/lvgl/src/draw/sw/blend/lv_draw_sw_blend_to_i1.c ****                         }
1001:Drivers/lvgl/src/draw/sw/blend/lv_draw_sw_blend_to_i1.c ****                         else {
1002:Drivers/lvgl/src/draw/sw/blend/lv_draw_sw_blend_to_i1.c ****                             clear_bit(dest_buf_u8, dest_x + bit_ofs);
1003:Drivers/lvgl/src/draw/sw/blend/lv_draw_sw_blend_to_i1.c ****                         }
1004:Drivers/lvgl/src/draw/sw/blend/lv_draw_sw_blend_to_i1.c ****                     }
1005:Drivers/lvgl/src/draw/sw/blend/lv_draw_sw_blend_to_i1.c ****                     dest_buf_u8 = drawbuf_next_row(dest_buf_u8, dest_stride);
1006:Drivers/lvgl/src/draw/sw/blend/lv_draw_sw_blend_to_i1.c ****                     src_buf_c16 = drawbuf_next_row(src_buf_c16, src_stride);
1007:Drivers/lvgl/src/draw/sw/blend/lv_draw_sw_blend_to_i1.c ****                     mask_buf += mask_stride;
1008:Drivers/lvgl/src/draw/sw/blend/lv_draw_sw_blend_to_i1.c ****                 }
1009:Drivers/lvgl/src/draw/sw/blend/lv_draw_sw_blend_to_i1.c ****             }
1010:Drivers/lvgl/src/draw/sw/blend/lv_draw_sw_blend_to_i1.c ****         }
1011:Drivers/lvgl/src/draw/sw/blend/lv_draw_sw_blend_to_i1.c ****         else if(mask_buf && opa < LV_OPA_MAX)  {
1012:Drivers/lvgl/src/draw/sw/blend/lv_draw_sw_blend_to_i1.c ****             if(LV_RESULT_INVALID == LV_DRAW_SW_RGB565_BLEND_NORMAL_TO_I1_MIX_MASK_OPA(dsc)) {
1013:Drivers/lvgl/src/draw/sw/blend/lv_draw_sw_blend_to_i1.c ****                 uint32_t mask_x;
1014:Drivers/lvgl/src/draw/sw/blend/lv_draw_sw_blend_to_i1.c ****                 for(y = 0; y < h; y++) {
1015:Drivers/lvgl/src/draw/sw/blend/lv_draw_sw_blend_to_i1.c ****                     for(mask_x = 0, dest_x = 0, src_x = 0; dest_x < w; mask_x++, dest_x++, src_x++)
1016:Drivers/lvgl/src/draw/sw/blend/lv_draw_sw_blend_to_i1.c ****                         uint8_t src = lv_color16_luminance(src_buf_c16[src_x]);
1017:Drivers/lvgl/src/draw/sw/blend/lv_draw_sw_blend_to_i1.c ****                         uint8_t dest = get_bit(dest_buf_u8, dest_x + bit_ofs) * 255;
1018:Drivers/lvgl/src/draw/sw/blend/lv_draw_sw_blend_to_i1.c ****                         lv_color_8_8_mix(src, &dest, LV_OPA_MIX2(mask_buf[mask_x], opa));
1019:Drivers/lvgl/src/draw/sw/blend/lv_draw_sw_blend_to_i1.c ****                         if(dest > I1_LUM_THRESHOLD) {
1020:Drivers/lvgl/src/draw/sw/blend/lv_draw_sw_blend_to_i1.c ****                             set_bit(dest_buf_u8, dest_x + bit_ofs);
1021:Drivers/lvgl/src/draw/sw/blend/lv_draw_sw_blend_to_i1.c ****                         }
1022:Drivers/lvgl/src/draw/sw/blend/lv_draw_sw_blend_to_i1.c ****                         else {
1023:Drivers/lvgl/src/draw/sw/blend/lv_draw_sw_blend_to_i1.c ****                             clear_bit(dest_buf_u8, dest_x + bit_ofs);
1024:Drivers/lvgl/src/draw/sw/blend/lv_draw_sw_blend_to_i1.c ****                         }
1025:Drivers/lvgl/src/draw/sw/blend/lv_draw_sw_blend_to_i1.c ****                     }
1026:Drivers/lvgl/src/draw/sw/blend/lv_draw_sw_blend_to_i1.c ****                     dest_buf_u8 = drawbuf_next_row(dest_buf_u8, dest_stride);
1027:Drivers/lvgl/src/draw/sw/blend/lv_draw_sw_blend_to_i1.c ****                     src_buf_c16 = drawbuf_next_row(src_buf_c16, src_stride);
1028:Drivers/lvgl/src/draw/sw/blend/lv_draw_sw_blend_to_i1.c ****                     mask_buf += mask_stride;
1029:Drivers/lvgl/src/draw/sw/blend/lv_draw_sw_blend_to_i1.c ****                 }
1030:Drivers/lvgl/src/draw/sw/blend/lv_draw_sw_blend_to_i1.c ****             }
1031:Drivers/lvgl/src/draw/sw/blend/lv_draw_sw_blend_to_i1.c ****         }
1032:Drivers/lvgl/src/draw/sw/blend/lv_draw_sw_blend_to_i1.c ****     }
1033:Drivers/lvgl/src/draw/sw/blend/lv_draw_sw_blend_to_i1.c ****     else {
1034:Drivers/lvgl/src/draw/sw/blend/lv_draw_sw_blend_to_i1.c ****         lv_color32_t src_argb;
1035:Drivers/lvgl/src/draw/sw/blend/lv_draw_sw_blend_to_i1.c ****         for(y = 0; y < h; y++) {
1036:Drivers/lvgl/src/draw/sw/blend/lv_draw_sw_blend_to_i1.c ****             for(src_x = 0, dest_x = 0; src_x < w; src_x++, dest_x++) {
1037:Drivers/lvgl/src/draw/sw/blend/lv_draw_sw_blend_to_i1.c ****                 src_argb.red = (src_buf_c16[src_x].red * 2106) >> 8;
1038:Drivers/lvgl/src/draw/sw/blend/lv_draw_sw_blend_to_i1.c ****                 src_argb.green = (src_buf_c16[src_x].green * 1037) >> 8;
1039:Drivers/lvgl/src/draw/sw/blend/lv_draw_sw_blend_to_i1.c ****                 src_argb.blue = (src_buf_c16[src_x].blue * 2106) >> 8;
1040:Drivers/lvgl/src/draw/sw/blend/lv_draw_sw_blend_to_i1.c ****                 if(mask_buf == NULL) src_argb.alpha = opa;
1041:Drivers/lvgl/src/draw/sw/blend/lv_draw_sw_blend_to_i1.c ****                 else src_argb.alpha = LV_OPA_MIX2(mask_buf[src_x], opa);
1042:Drivers/lvgl/src/draw/sw/blend/lv_draw_sw_blend_to_i1.c **** 
1043:Drivers/lvgl/src/draw/sw/blend/lv_draw_sw_blend_to_i1.c ****                 blend_non_normal_pixel(dest_buf_u8, dest_x + bit_ofs, src_argb, dsc->blend_mode);
1044:Drivers/lvgl/src/draw/sw/blend/lv_draw_sw_blend_to_i1.c ****             }
1045:Drivers/lvgl/src/draw/sw/blend/lv_draw_sw_blend_to_i1.c ****             if(mask_buf) mask_buf += mask_stride;
1046:Drivers/lvgl/src/draw/sw/blend/lv_draw_sw_blend_to_i1.c ****             dest_buf_u8 = drawbuf_next_row(dest_buf_u8, dest_stride);
1047:Drivers/lvgl/src/draw/sw/blend/lv_draw_sw_blend_to_i1.c ****             src_buf_c16 = drawbuf_next_row(src_buf_c16, src_stride);
1048:Drivers/lvgl/src/draw/sw/blend/lv_draw_sw_blend_to_i1.c ****         }
1049:Drivers/lvgl/src/draw/sw/blend/lv_draw_sw_blend_to_i1.c ****     }
1050:Drivers/lvgl/src/draw/sw/blend/lv_draw_sw_blend_to_i1.c **** }
1051:Drivers/lvgl/src/draw/sw/blend/lv_draw_sw_blend_to_i1.c **** #endif
1052:Drivers/lvgl/src/draw/sw/blend/lv_draw_sw_blend_to_i1.c **** 
1053:Drivers/lvgl/src/draw/sw/blend/lv_draw_sw_blend_to_i1.c **** static inline void LV_ATTRIBUTE_FAST_MEM blend_non_normal_pixel(uint8_t * dest_buf, int32_t dest_x,
1054:Drivers/lvgl/src/draw/sw/blend/lv_draw_sw_blend_to_i1.c ****                                                                 lv_blend_mode_t mode)
1055:Drivers/lvgl/src/draw/sw/blend/lv_draw_sw_blend_to_i1.c **** {
1056:Drivers/lvgl/src/draw/sw/blend/lv_draw_sw_blend_to_i1.c ****     uint8_t res;
ARM GAS  /tmp/cc9ag92L.s 			page 20


1057:Drivers/lvgl/src/draw/sw/blend/lv_draw_sw_blend_to_i1.c ****     int32_t src_lumi = lv_color32_luminance(src);
1058:Drivers/lvgl/src/draw/sw/blend/lv_draw_sw_blend_to_i1.c ****     uint8_t dest_lumi = get_bit(dest_buf, dest_x) * 255;
1059:Drivers/lvgl/src/draw/sw/blend/lv_draw_sw_blend_to_i1.c ****     switch(mode) {
1060:Drivers/lvgl/src/draw/sw/blend/lv_draw_sw_blend_to_i1.c ****         case LV_BLEND_MODE_ADDITIVE:
1061:Drivers/lvgl/src/draw/sw/blend/lv_draw_sw_blend_to_i1.c ****             res = LV_MIN(dest_lumi + src_lumi, 255);
1062:Drivers/lvgl/src/draw/sw/blend/lv_draw_sw_blend_to_i1.c ****             break;
1063:Drivers/lvgl/src/draw/sw/blend/lv_draw_sw_blend_to_i1.c ****         case LV_BLEND_MODE_SUBTRACTIVE:
1064:Drivers/lvgl/src/draw/sw/blend/lv_draw_sw_blend_to_i1.c ****             res = LV_MAX(dest_lumi - src_lumi, 0);
1065:Drivers/lvgl/src/draw/sw/blend/lv_draw_sw_blend_to_i1.c ****             break;
1066:Drivers/lvgl/src/draw/sw/blend/lv_draw_sw_blend_to_i1.c ****         case LV_BLEND_MODE_MULTIPLY:
1067:Drivers/lvgl/src/draw/sw/blend/lv_draw_sw_blend_to_i1.c ****             res = (dest_lumi * src_lumi) >> 8;
1068:Drivers/lvgl/src/draw/sw/blend/lv_draw_sw_blend_to_i1.c ****             break;
1069:Drivers/lvgl/src/draw/sw/blend/lv_draw_sw_blend_to_i1.c ****         case LV_BLEND_MODE_DIFFERENCE:
1070:Drivers/lvgl/src/draw/sw/blend/lv_draw_sw_blend_to_i1.c ****             res = LV_ABS(dest_lumi - src_lumi);
1071:Drivers/lvgl/src/draw/sw/blend/lv_draw_sw_blend_to_i1.c ****             break;
1072:Drivers/lvgl/src/draw/sw/blend/lv_draw_sw_blend_to_i1.c ****         default:
1073:Drivers/lvgl/src/draw/sw/blend/lv_draw_sw_blend_to_i1.c ****             LV_LOG_WARN("Not supported blend mode: %d", mode);
1074:Drivers/lvgl/src/draw/sw/blend/lv_draw_sw_blend_to_i1.c ****             return;
1075:Drivers/lvgl/src/draw/sw/blend/lv_draw_sw_blend_to_i1.c ****     }
1076:Drivers/lvgl/src/draw/sw/blend/lv_draw_sw_blend_to_i1.c **** 
1077:Drivers/lvgl/src/draw/sw/blend/lv_draw_sw_blend_to_i1.c ****     lv_color_8_8_mix(res, &dest_lumi, src.alpha);
1078:Drivers/lvgl/src/draw/sw/blend/lv_draw_sw_blend_to_i1.c ****     if(dest_lumi > I1_LUM_THRESHOLD) {
1079:Drivers/lvgl/src/draw/sw/blend/lv_draw_sw_blend_to_i1.c ****         set_bit(dest_buf, dest_x);
1080:Drivers/lvgl/src/draw/sw/blend/lv_draw_sw_blend_to_i1.c ****     }
1081:Drivers/lvgl/src/draw/sw/blend/lv_draw_sw_blend_to_i1.c ****     else {
1082:Drivers/lvgl/src/draw/sw/blend/lv_draw_sw_blend_to_i1.c ****         clear_bit(dest_buf, dest_x);
1083:Drivers/lvgl/src/draw/sw/blend/lv_draw_sw_blend_to_i1.c ****     }
1084:Drivers/lvgl/src/draw/sw/blend/lv_draw_sw_blend_to_i1.c **** }
1085:Drivers/lvgl/src/draw/sw/blend/lv_draw_sw_blend_to_i1.c **** 
1086:Drivers/lvgl/src/draw/sw/blend/lv_draw_sw_blend_to_i1.c **** static inline void LV_ATTRIBUTE_FAST_MEM lv_color_8_8_mix(const uint8_t src, uint8_t * dest, uint8_
1087:Drivers/lvgl/src/draw/sw/blend/lv_draw_sw_blend_to_i1.c **** {
  29              		.loc 1 1087 1 view -0
  30              		.cfi_startproc
  31              		@ args = 0, pretend = 0, frame = 0
  32              		@ frame_needed = 0, uses_anonymous_args = 0
  33              		@ link register save eliminated.
1088:Drivers/lvgl/src/draw/sw/blend/lv_draw_sw_blend_to_i1.c **** 
1089:Drivers/lvgl/src/draw/sw/blend/lv_draw_sw_blend_to_i1.c ****     if(mix == 0) return;
  34              		.loc 1 1089 5 view .LVU1
  35              		.loc 1 1089 7 is_stmt 0 view .LVU2
  36 0000 9446     		mov	ip, r2
  37 0002 62B1     		cbz	r2, .L1
1090:Drivers/lvgl/src/draw/sw/blend/lv_draw_sw_blend_to_i1.c **** 
1091:Drivers/lvgl/src/draw/sw/blend/lv_draw_sw_blend_to_i1.c ****     if(mix >= LV_OPA_MAX) {
  38              		.loc 1 1091 5 is_stmt 1 view .LVU3
  39              		.loc 1 1091 7 is_stmt 0 view .LVU4
  40 0004 FC2A     		cmp	r2, #252
  41 0006 01D9     		bls	.L3
1092:Drivers/lvgl/src/draw/sw/blend/lv_draw_sw_blend_to_i1.c ****         *dest = src;
  42              		.loc 1 1092 9 is_stmt 1 view .LVU5
  43              		.loc 1 1092 15 is_stmt 0 view .LVU6
  44 0008 0870     		strb	r0, [r1]
  45 000a 7047     		bx	lr
  46              	.L3:
  47              	.LBB346:
1093:Drivers/lvgl/src/draw/sw/blend/lv_draw_sw_blend_to_i1.c ****     }
1094:Drivers/lvgl/src/draw/sw/blend/lv_draw_sw_blend_to_i1.c ****     else {
ARM GAS  /tmp/cc9ag92L.s 			page 21


1095:Drivers/lvgl/src/draw/sw/blend/lv_draw_sw_blend_to_i1.c ****         lv_opa_t mix_inv = 255 - mix;
  48              		.loc 1 1095 9 is_stmt 1 view .LVU7
  49              		.loc 1 1095 18 is_stmt 0 view .LVU8
  50 000c D343     		mvns	r3, r2
  51 000e DBB2     		uxtb	r3, r3
  52              	.LVL1:
1096:Drivers/lvgl/src/draw/sw/blend/lv_draw_sw_blend_to_i1.c ****         *dest = (uint32_t)((uint32_t)src * mix + dest[0] * mix_inv) >> 8;
  53              		.loc 1 1096 9 is_stmt 1 view .LVU9
  54              		.loc 1 1096 54 is_stmt 0 view .LVU10
  55 0010 0A78     		ldrb	r2, [r1]	@ zero_extendqisi2
  56              	.LVL2:
  57              		.loc 1 1096 58 view .LVU11
  58 0012 02FB03F3 		mul	r3, r2, r3
  59              	.LVL3:
  60              		.loc 1 1096 17 view .LVU12
  61 0016 00FB0C33 		mla	r3, r0, ip, r3
  62              		.loc 1 1096 69 view .LVU13
  63 001a 1B0A     		lsrs	r3, r3, #8
  64              		.loc 1 1096 15 view .LVU14
  65 001c 0B70     		strb	r3, [r1]
  66              	.LVL4:
  67              	.L1:
  68              		.loc 1 1096 15 view .LVU15
  69              	.LBE346:
1097:Drivers/lvgl/src/draw/sw/blend/lv_draw_sw_blend_to_i1.c ****     }
1098:Drivers/lvgl/src/draw/sw/blend/lv_draw_sw_blend_to_i1.c **** }
  70              		.loc 1 1098 1 view .LVU16
  71 001e 7047     		bx	lr
  72              		.cfi_endproc
  73              	.LFE195:
  75              		.section	.text.blend_non_normal_pixel,"ax",%progbits
  76              		.align	1
  77              		.syntax unified
  78              		.thumb
  79              		.thumb_func
  81              	blend_non_normal_pixel:
  82              	.LVL5:
  83              	.LFB194:
1055:Drivers/lvgl/src/draw/sw/blend/lv_draw_sw_blend_to_i1.c ****     uint8_t res;
  84              		.loc 1 1055 1 is_stmt 1 view -0
  85              		.cfi_startproc
  86              		@ args = 0, pretend = 0, frame = 16
  87              		@ frame_needed = 0, uses_anonymous_args = 0
1055:Drivers/lvgl/src/draw/sw/blend/lv_draw_sw_blend_to_i1.c ****     uint8_t res;
  88              		.loc 1 1055 1 is_stmt 0 view .LVU18
  89 0000 F0B5     		push	{r4, r5, r6, r7, lr}
  90              	.LCFI0:
  91              		.cfi_def_cfa_offset 20
  92              		.cfi_offset 4, -20
  93              		.cfi_offset 5, -16
  94              		.cfi_offset 6, -12
  95              		.cfi_offset 7, -8
  96              		.cfi_offset 14, -4
  97 0002 85B0     		sub	sp, sp, #20
  98              	.LCFI1:
  99              		.cfi_def_cfa_offset 40
 100 0004 0646     		mov	r6, r0
ARM GAS  /tmp/cc9ag92L.s 			page 22


 101 0006 0C46     		mov	r4, r1
 102 0008 0192     		str	r2, [sp, #4]
 103 000a 1F46     		mov	r7, r3
1056:Drivers/lvgl/src/draw/sw/blend/lv_draw_sw_blend_to_i1.c ****     int32_t src_lumi = lv_color32_luminance(src);
 104              		.loc 1 1056 5 is_stmt 1 view .LVU19
1057:Drivers/lvgl/src/draw/sw/blend/lv_draw_sw_blend_to_i1.c ****     uint8_t dest_lumi = get_bit(dest_buf, dest_x) * 255;
 105              		.loc 1 1057 5 view .LVU20
1057:Drivers/lvgl/src/draw/sw/blend/lv_draw_sw_blend_to_i1.c ****     uint8_t dest_lumi = get_bit(dest_buf, dest_x) * 255;
 106              		.loc 1 1057 24 is_stmt 0 view .LVU21
 107 000c 1046     		mov	r0, r2
 108              	.LVL6:
1057:Drivers/lvgl/src/draw/sw/blend/lv_draw_sw_blend_to_i1.c ****     uint8_t dest_lumi = get_bit(dest_buf, dest_x) * 255;
 109              		.loc 1 1057 24 view .LVU22
 110 000e FFF7FEFF 		bl	lv_color32_luminance
 111              	.LVL7:
1058:Drivers/lvgl/src/draw/sw/blend/lv_draw_sw_blend_to_i1.c ****     switch(mode) {
 112              		.loc 1 1058 5 is_stmt 1 view .LVU23
 113              	.LBB347:
 114              	.LBI347:
1099:Drivers/lvgl/src/draw/sw/blend/lv_draw_sw_blend_to_i1.c **** 
1100:Drivers/lvgl/src/draw/sw/blend/lv_draw_sw_blend_to_i1.c **** static inline void * LV_ATTRIBUTE_FAST_MEM drawbuf_next_row(const void * buf, uint32_t stride)
1101:Drivers/lvgl/src/draw/sw/blend/lv_draw_sw_blend_to_i1.c **** {
1102:Drivers/lvgl/src/draw/sw/blend/lv_draw_sw_blend_to_i1.c ****     return (void *)((uint8_t *)buf + stride);
1103:Drivers/lvgl/src/draw/sw/blend/lv_draw_sw_blend_to_i1.c **** }
1104:Drivers/lvgl/src/draw/sw/blend/lv_draw_sw_blend_to_i1.c **** 
1105:Drivers/lvgl/src/draw/sw/blend/lv_draw_sw_blend_to_i1.c **** static inline void LV_ATTRIBUTE_FAST_MEM set_bit(uint8_t * buf, int32_t bit_idx)
1106:Drivers/lvgl/src/draw/sw/blend/lv_draw_sw_blend_to_i1.c **** {
1107:Drivers/lvgl/src/draw/sw/blend/lv_draw_sw_blend_to_i1.c ****     buf[bit_idx / 8] |= (1 << (7 - (bit_idx % 8)));
1108:Drivers/lvgl/src/draw/sw/blend/lv_draw_sw_blend_to_i1.c **** }
1109:Drivers/lvgl/src/draw/sw/blend/lv_draw_sw_blend_to_i1.c **** 
1110:Drivers/lvgl/src/draw/sw/blend/lv_draw_sw_blend_to_i1.c **** static inline void LV_ATTRIBUTE_FAST_MEM clear_bit(uint8_t * buf, int32_t bit_idx)
1111:Drivers/lvgl/src/draw/sw/blend/lv_draw_sw_blend_to_i1.c **** {
1112:Drivers/lvgl/src/draw/sw/blend/lv_draw_sw_blend_to_i1.c ****     buf[bit_idx / 8] &= ~(1 << (7 - (bit_idx % 8)));
1113:Drivers/lvgl/src/draw/sw/blend/lv_draw_sw_blend_to_i1.c **** }
1114:Drivers/lvgl/src/draw/sw/blend/lv_draw_sw_blend_to_i1.c **** 
1115:Drivers/lvgl/src/draw/sw/blend/lv_draw_sw_blend_to_i1.c **** static inline uint8_t LV_ATTRIBUTE_FAST_MEM get_bit(const uint8_t * buf, int32_t bit_idx)
 115              		.loc 1 1115 45 view .LVU24
 116              	.LBB348:
1116:Drivers/lvgl/src/draw/sw/blend/lv_draw_sw_blend_to_i1.c **** {
1117:Drivers/lvgl/src/draw/sw/blend/lv_draw_sw_blend_to_i1.c ****     return (buf[bit_idx / 8] >> (7 - (bit_idx % 8))) & 1;
 117              		.loc 1 1117 5 view .LVU25
 118              		.loc 1 1117 25 is_stmt 0 view .LVU26
 119 0012 2546     		mov	r5, r4
 120 0014 002C     		cmp	r4, #0
 121 0016 17DB     		blt	.L18
 122              	.L5:
 123              		.loc 1 1117 25 view .LVU27
 124 0018 ED10     		asrs	r5, r5, #3
 125              		.loc 1 1117 16 view .LVU28
 126 001a 725D     		ldrb	r2, [r6, r5]	@ zero_extendqisi2
 127              		.loc 1 1117 47 view .LVU29
 128 001c 6342     		rsbs	r3, r4, #0
 129 001e 04F00704 		and	r4, r4, #7
 130              	.LVL8:
 131              		.loc 1 1117 47 view .LVU30
 132 0022 03F00703 		and	r3, r3, #7
 133 0026 58BF     		it	pl
ARM GAS  /tmp/cc9ag92L.s 			page 23


 134 0028 5C42     		rsbpl	r4, r3, #0
 135              		.loc 1 1117 36 view .LVU31
 136 002a C4F10704 		rsb	r4, r4, #7
 137              		.loc 1 1117 30 view .LVU32
 138 002e 2241     		asrs	r2, r2, r4
 139              	.LVL9:
 140              		.loc 1 1117 30 view .LVU33
 141              	.LBE348:
 142              	.LBE347:
1058:Drivers/lvgl/src/draw/sw/blend/lv_draw_sw_blend_to_i1.c ****     switch(mode) {
 143              		.loc 1 1058 13 discriminator 1 view .LVU34
 144 0030 42F30002 		sbfx	r2, r2, #0, #1
 145 0034 D2B2     		uxtb	r2, r2
 146 0036 8DF80F20 		strb	r2, [sp, #15]
1059:Drivers/lvgl/src/draw/sw/blend/lv_draw_sw_blend_to_i1.c ****         case LV_BLEND_MODE_ADDITIVE:
 147              		.loc 1 1059 5 is_stmt 1 view .LVU35
 148 003a 013F     		subs	r7, r7, #1
 149              	.LVL10:
1059:Drivers/lvgl/src/draw/sw/blend/lv_draw_sw_blend_to_i1.c ****         case LV_BLEND_MODE_ADDITIVE:
 150              		.loc 1 1059 5 is_stmt 0 view .LVU36
 151 003c 032F     		cmp	r7, #3
 152 003e 1CD8     		bhi	.L4
 153 0040 DFE807F0 		tbb	[pc, r7]
 154              	.L8:
 155 0044 04       		.byte	(.L11-.L8)/2
 156 0045 1D       		.byte	(.L10-.L8)/2
 157 0046 22       		.byte	(.L9-.L8)/2
 158 0047 27       		.byte	(.L7-.L8)/2
 159              	.LVL11:
 160              		.p2align 1
 161              	.L18:
 162              	.LBB350:
 163              	.LBB349:
 164              		.loc 1 1117 25 view .LVU37
 165 0048 E51D     		adds	r5, r4, #7
 166 004a E5E7     		b	.L5
 167              	.LVL12:
 168              	.L11:
 169              		.loc 1 1117 25 view .LVU38
 170              	.LBE349:
 171              	.LBE350:
1061:Drivers/lvgl/src/draw/sw/blend/lv_draw_sw_blend_to_i1.c ****             break;
 172              		.loc 1 1061 13 is_stmt 1 view .LVU39
1061:Drivers/lvgl/src/draw/sw/blend/lv_draw_sw_blend_to_i1.c ****             break;
 173              		.loc 1 1061 19 is_stmt 0 view .LVU40
 174 004c 1044     		add	r0, r0, r2
 175              	.LVL13:
1061:Drivers/lvgl/src/draw/sw/blend/lv_draw_sw_blend_to_i1.c ****             break;
 176              		.loc 1 1061 19 view .LVU41
 177 004e 0246     		mov	r2, r0
 178 0050 FF28     		cmp	r0, #255
 179 0052 A8BF     		it	ge
 180 0054 FF22     		movge	r2, #255
1061:Drivers/lvgl/src/draw/sw/blend/lv_draw_sw_blend_to_i1.c ****             break;
 181              		.loc 1 1061 17 view .LVU42
 182 0056 D0B2     		uxtb	r0, r2
 183              	.LVL14:
ARM GAS  /tmp/cc9ag92L.s 			page 24


1062:Drivers/lvgl/src/draw/sw/blend/lv_draw_sw_blend_to_i1.c ****         case LV_BLEND_MODE_SUBTRACTIVE:
 184              		.loc 1 1062 13 is_stmt 1 view .LVU43
 185              	.L12:
1077:Drivers/lvgl/src/draw/sw/blend/lv_draw_sw_blend_to_i1.c ****     if(dest_lumi > I1_LUM_THRESHOLD) {
 186              		.loc 1 1077 5 view .LVU44
 187 0058 9DF80720 		ldrb	r2, [sp, #7]	@ zero_extendqisi2
 188 005c 0DF10F01 		add	r1, sp, #15
 189 0060 FFF7FEFF 		bl	lv_color_8_8_mix
 190              	.LVL15:
1078:Drivers/lvgl/src/draw/sw/blend/lv_draw_sw_blend_to_i1.c ****         set_bit(dest_buf, dest_x);
 191              		.loc 1 1078 5 view .LVU45
1078:Drivers/lvgl/src/draw/sw/blend/lv_draw_sw_blend_to_i1.c ****         set_bit(dest_buf, dest_x);
 192              		.loc 1 1078 18 is_stmt 0 view .LVU46
 193 0064 9DF90F30 		ldrsb	r3, [sp, #15]
1078:Drivers/lvgl/src/draw/sw/blend/lv_draw_sw_blend_to_i1.c ****         set_bit(dest_buf, dest_x);
 194              		.loc 1 1078 7 view .LVU47
 195 0068 002B     		cmp	r3, #0
 196 006a 18DB     		blt	.L19
1082:Drivers/lvgl/src/draw/sw/blend/lv_draw_sw_blend_to_i1.c ****     }
 197              		.loc 1 1082 9 is_stmt 1 view .LVU48
 198              	.LVL16:
 199              	.LBB351:
 200              	.LBI351:
1110:Drivers/lvgl/src/draw/sw/blend/lv_draw_sw_blend_to_i1.c **** {
 201              		.loc 1 1110 42 view .LVU49
 202              	.LBB352:
1112:Drivers/lvgl/src/draw/sw/blend/lv_draw_sw_blend_to_i1.c **** }
 203              		.loc 1 1112 5 view .LVU50
1112:Drivers/lvgl/src/draw/sw/blend/lv_draw_sw_blend_to_i1.c **** }
 204              		.loc 1 1112 8 is_stmt 0 view .LVU51
 205 006c 725D     		ldrb	r2, [r6, r5]	@ zero_extendqisi2
1112:Drivers/lvgl/src/draw/sw/blend/lv_draw_sw_blend_to_i1.c **** }
 206              		.loc 1 1112 29 view .LVU52
 207 006e 0123     		movs	r3, #1
 208 0070 A340     		lsls	r3, r3, r4
1112:Drivers/lvgl/src/draw/sw/blend/lv_draw_sw_blend_to_i1.c **** }
 209              		.loc 1 1112 22 view .LVU53
 210 0072 DB43     		mvns	r3, r3
 211 0074 5BB2     		sxtb	r3, r3
 212 0076 1340     		ands	r3, r3, r2
 213 0078 7355     		strb	r3, [r6, r5]
 214              	.LVL17:
 215              	.L4:
1112:Drivers/lvgl/src/draw/sw/blend/lv_draw_sw_blend_to_i1.c **** }
 216              		.loc 1 1112 22 view .LVU54
 217              	.LBE352:
 218              	.LBE351:
1084:Drivers/lvgl/src/draw/sw/blend/lv_draw_sw_blend_to_i1.c **** 
 219              		.loc 1 1084 1 view .LVU55
 220 007a 05B0     		add	sp, sp, #20
 221              	.LCFI2:
 222              		.cfi_remember_state
 223              		.cfi_def_cfa_offset 20
 224              		@ sp needed
 225 007c F0BD     		pop	{r4, r5, r6, r7, pc}
 226              	.LVL18:
 227              	.L10:
ARM GAS  /tmp/cc9ag92L.s 			page 25


 228              	.LCFI3:
 229              		.cfi_restore_state
1064:Drivers/lvgl/src/draw/sw/blend/lv_draw_sw_blend_to_i1.c ****             break;
 230              		.loc 1 1064 13 is_stmt 1 view .LVU56
1064:Drivers/lvgl/src/draw/sw/blend/lv_draw_sw_blend_to_i1.c ****             break;
 231              		.loc 1 1064 19 is_stmt 0 view .LVU57
 232 007e 101A     		subs	r0, r2, r0
 233              	.LVL19:
1064:Drivers/lvgl/src/draw/sw/blend/lv_draw_sw_blend_to_i1.c ****             break;
 234              		.loc 1 1064 19 view .LVU58
 235 0080 20EAE070 		bic	r0, r0, r0, asr #31
1064:Drivers/lvgl/src/draw/sw/blend/lv_draw_sw_blend_to_i1.c ****             break;
 236              		.loc 1 1064 17 view .LVU59
 237 0084 C0B2     		uxtb	r0, r0
 238              	.LVL20:
1065:Drivers/lvgl/src/draw/sw/blend/lv_draw_sw_blend_to_i1.c ****         case LV_BLEND_MODE_MULTIPLY:
 239              		.loc 1 1065 13 is_stmt 1 view .LVU60
 240 0086 E7E7     		b	.L12
 241              	.LVL21:
 242              	.L9:
1067:Drivers/lvgl/src/draw/sw/blend/lv_draw_sw_blend_to_i1.c ****             break;
 243              		.loc 1 1067 13 view .LVU61
1067:Drivers/lvgl/src/draw/sw/blend/lv_draw_sw_blend_to_i1.c ****             break;
 244              		.loc 1 1067 30 is_stmt 0 view .LVU62
 245 0088 02FB00F0 		mul	r0, r2, r0
 246              	.LVL22:
1067:Drivers/lvgl/src/draw/sw/blend/lv_draw_sw_blend_to_i1.c ****             break;
 247              		.loc 1 1067 17 view .LVU63
 248 008c C0F30720 		ubfx	r0, r0, #8, #8
 249              	.LVL23:
1068:Drivers/lvgl/src/draw/sw/blend/lv_draw_sw_blend_to_i1.c ****         case LV_BLEND_MODE_DIFFERENCE:
 250              		.loc 1 1068 13 is_stmt 1 view .LVU64
 251 0090 E2E7     		b	.L12
 252              	.LVL24:
 253              	.L7:
1070:Drivers/lvgl/src/draw/sw/blend/lv_draw_sw_blend_to_i1.c ****             break;
 254              		.loc 1 1070 13 view .LVU65
1070:Drivers/lvgl/src/draw/sw/blend/lv_draw_sw_blend_to_i1.c ****             break;
 255              		.loc 1 1070 19 is_stmt 0 view .LVU66
 256 0092 101A     		subs	r0, r2, r0
 257              	.LVL25:
1070:Drivers/lvgl/src/draw/sw/blend/lv_draw_sw_blend_to_i1.c ****             break;
 258              		.loc 1 1070 19 view .LVU67
 259 0094 0028     		cmp	r0, #0
 260 0096 B8BF     		it	lt
 261 0098 4042     		rsblt	r0, r0, #0
1070:Drivers/lvgl/src/draw/sw/blend/lv_draw_sw_blend_to_i1.c ****             break;
 262              		.loc 1 1070 17 view .LVU68
 263 009a C0B2     		uxtb	r0, r0
 264              	.LVL26:
1071:Drivers/lvgl/src/draw/sw/blend/lv_draw_sw_blend_to_i1.c ****         default:
 265              		.loc 1 1071 13 is_stmt 1 view .LVU69
 266 009c DCE7     		b	.L12
 267              	.LVL27:
 268              	.L19:
1079:Drivers/lvgl/src/draw/sw/blend/lv_draw_sw_blend_to_i1.c ****     }
 269              		.loc 1 1079 9 view .LVU70
ARM GAS  /tmp/cc9ag92L.s 			page 26


 270              	.LBB353:
 271              	.LBI353:
1105:Drivers/lvgl/src/draw/sw/blend/lv_draw_sw_blend_to_i1.c **** {
 272              		.loc 1 1105 42 view .LVU71
 273              	.LBB354:
1107:Drivers/lvgl/src/draw/sw/blend/lv_draw_sw_blend_to_i1.c **** }
 274              		.loc 1 1107 5 view .LVU72
1107:Drivers/lvgl/src/draw/sw/blend/lv_draw_sw_blend_to_i1.c **** }
 275              		.loc 1 1107 8 is_stmt 0 view .LVU73
 276 009e 735D     		ldrb	r3, [r6, r5]	@ zero_extendqisi2
1107:Drivers/lvgl/src/draw/sw/blend/lv_draw_sw_blend_to_i1.c **** }
 277              		.loc 1 1107 28 view .LVU74
 278 00a0 0122     		movs	r2, #1
 279 00a2 A240     		lsls	r2, r2, r4
1107:Drivers/lvgl/src/draw/sw/blend/lv_draw_sw_blend_to_i1.c **** }
 280              		.loc 1 1107 22 view .LVU75
 281 00a4 1343     		orrs	r3, r3, r2
 282 00a6 7355     		strb	r3, [r6, r5]
 283              	.LVL28:
1108:Drivers/lvgl/src/draw/sw/blend/lv_draw_sw_blend_to_i1.c **** 
 284              		.loc 1 1108 1 view .LVU76
 285 00a8 E7E7     		b	.L4
 286              	.LBE354:
 287              	.LBE353:
 288              		.cfi_endproc
 289              	.LFE194:
 291              		.section	.text.rgb565_image_blend,"ax",%progbits
 292              		.align	1
 293              		.syntax unified
 294              		.thumb
 295              		.thumb_func
 297              	rgb565_image_blend:
 298              	.LVL29:
 299              	.LFB193:
 937:Drivers/lvgl/src/draw/sw/blend/lv_draw_sw_blend_to_i1.c ****     int32_t w = dsc->dest_w;
 300              		.loc 1 937 1 is_stmt 1 view -0
 301              		.cfi_startproc
 302              		@ args = 0, pretend = 0, frame = 40
 303              		@ frame_needed = 0, uses_anonymous_args = 0
 937:Drivers/lvgl/src/draw/sw/blend/lv_draw_sw_blend_to_i1.c ****     int32_t w = dsc->dest_w;
 304              		.loc 1 937 1 is_stmt 0 view .LVU78
 305 0000 2DE9F04F 		push	{r4, r5, r6, r7, r8, r9, r10, fp, lr}
 306              	.LCFI4:
 307              		.cfi_def_cfa_offset 36
 308              		.cfi_offset 4, -36
 309              		.cfi_offset 5, -32
 310              		.cfi_offset 6, -28
 311              		.cfi_offset 7, -24
 312              		.cfi_offset 8, -20
 313              		.cfi_offset 9, -16
 314              		.cfi_offset 10, -12
 315              		.cfi_offset 11, -8
 316              		.cfi_offset 14, -4
 317 0004 8BB0     		sub	sp, sp, #44
 318              	.LCFI5:
 319              		.cfi_def_cfa_offset 80
 938:Drivers/lvgl/src/draw/sw/blend/lv_draw_sw_blend_to_i1.c ****     int32_t h = dsc->dest_h;
ARM GAS  /tmp/cc9ag92L.s 			page 27


 320              		.loc 1 938 5 is_stmt 1 view .LVU79
 938:Drivers/lvgl/src/draw/sw/blend/lv_draw_sw_blend_to_i1.c ****     int32_t h = dsc->dest_h;
 321              		.loc 1 938 13 is_stmt 0 view .LVU80
 322 0006 D0F80480 		ldr	r8, [r0, #4]
 323              	.LVL30:
 939:Drivers/lvgl/src/draw/sw/blend/lv_draw_sw_blend_to_i1.c ****     lv_opa_t opa = dsc->opa;
 324              		.loc 1 939 5 is_stmt 1 view .LVU81
 939:Drivers/lvgl/src/draw/sw/blend/lv_draw_sw_blend_to_i1.c ****     lv_opa_t opa = dsc->opa;
 325              		.loc 1 939 13 is_stmt 0 view .LVU82
 326 000a 8368     		ldr	r3, [r0, #8]
 327 000c 0493     		str	r3, [sp, #16]
 328              	.LVL31:
 940:Drivers/lvgl/src/draw/sw/blend/lv_draw_sw_blend_to_i1.c ****     uint8_t * dest_buf_u8 = dsc->dest_buf;
 329              		.loc 1 940 5 is_stmt 1 view .LVU83
 940:Drivers/lvgl/src/draw/sw/blend/lv_draw_sw_blend_to_i1.c ****     uint8_t * dest_buf_u8 = dsc->dest_buf;
 330              		.loc 1 940 14 is_stmt 0 view .LVU84
 331 000e 90F821C0 		ldrb	ip, [r0, #33]	@ zero_extendqisi2
 332              	.LVL32:
 941:Drivers/lvgl/src/draw/sw/blend/lv_draw_sw_blend_to_i1.c ****     int32_t dest_stride = dsc->dest_stride;
 333              		.loc 1 941 5 is_stmt 1 view .LVU85
 941:Drivers/lvgl/src/draw/sw/blend/lv_draw_sw_blend_to_i1.c ****     int32_t dest_stride = dsc->dest_stride;
 334              		.loc 1 941 15 is_stmt 0 view .LVU86
 335 0012 0668     		ldr	r6, [r0]
 336              	.LVL33:
 942:Drivers/lvgl/src/draw/sw/blend/lv_draw_sw_blend_to_i1.c ****     const lv_color16_t * src_buf_c16 = (const lv_color16_t *)dsc->src_buf;
 337              		.loc 1 942 5 is_stmt 1 view .LVU87
 942:Drivers/lvgl/src/draw/sw/blend/lv_draw_sw_blend_to_i1.c ****     const lv_color16_t * src_buf_c16 = (const lv_color16_t *)dsc->src_buf;
 338              		.loc 1 942 13 is_stmt 0 view .LVU88
 339 0014 C368     		ldr	r3, [r0, #12]
 340              	.LVL34:
 942:Drivers/lvgl/src/draw/sw/blend/lv_draw_sw_blend_to_i1.c ****     const lv_color16_t * src_buf_c16 = (const lv_color16_t *)dsc->src_buf;
 341              		.loc 1 942 13 view .LVU89
 342 0016 0193     		str	r3, [sp, #4]
 343              	.LVL35:
 943:Drivers/lvgl/src/draw/sw/blend/lv_draw_sw_blend_to_i1.c ****     int32_t src_stride = dsc->src_stride;
 344              		.loc 1 943 5 is_stmt 1 view .LVU90
 943:Drivers/lvgl/src/draw/sw/blend/lv_draw_sw_blend_to_i1.c ****     int32_t src_stride = dsc->src_stride;
 345              		.loc 1 943 26 is_stmt 0 view .LVU91
 346 0018 8569     		ldr	r5, [r0, #24]
 347              	.LVL36:
 944:Drivers/lvgl/src/draw/sw/blend/lv_draw_sw_blend_to_i1.c ****     const lv_opa_t * mask_buf = dsc->mask_buf;
 348              		.loc 1 944 5 is_stmt 1 view .LVU92
 944:Drivers/lvgl/src/draw/sw/blend/lv_draw_sw_blend_to_i1.c ****     const lv_opa_t * mask_buf = dsc->mask_buf;
 349              		.loc 1 944 13 is_stmt 0 view .LVU93
 350 001a C369     		ldr	r3, [r0, #28]
 351              	.LVL37:
 944:Drivers/lvgl/src/draw/sw/blend/lv_draw_sw_blend_to_i1.c ****     const lv_opa_t * mask_buf = dsc->mask_buf;
 352              		.loc 1 944 13 view .LVU94
 353 001c 0293     		str	r3, [sp, #8]
 354              	.LVL38:
 945:Drivers/lvgl/src/draw/sw/blend/lv_draw_sw_blend_to_i1.c ****     int32_t mask_stride = dsc->mask_stride;
 355              		.loc 1 945 5 is_stmt 1 view .LVU95
 945:Drivers/lvgl/src/draw/sw/blend/lv_draw_sw_blend_to_i1.c ****     int32_t mask_stride = dsc->mask_stride;
 356              		.loc 1 945 22 is_stmt 0 view .LVU96
 357 001e D0F810B0 		ldr	fp, [r0, #16]
 358              	.LVL39:
 946:Drivers/lvgl/src/draw/sw/blend/lv_draw_sw_blend_to_i1.c ****     int32_t bit_ofs = dsc->relative_area.x1 % 8;
ARM GAS  /tmp/cc9ag92L.s 			page 28


 359              		.loc 1 946 5 is_stmt 1 view .LVU97
 946:Drivers/lvgl/src/draw/sw/blend/lv_draw_sw_blend_to_i1.c ****     int32_t bit_ofs = dsc->relative_area.x1 % 8;
 360              		.loc 1 946 13 is_stmt 0 view .LVU98
 361 0022 4369     		ldr	r3, [r0, #20]
 362              	.LVL40:
 947:Drivers/lvgl/src/draw/sw/blend/lv_draw_sw_blend_to_i1.c **** 
 363              		.loc 1 947 5 is_stmt 1 view .LVU99
 947:Drivers/lvgl/src/draw/sw/blend/lv_draw_sw_blend_to_i1.c **** 
 364              		.loc 1 947 41 is_stmt 0 view .LVU100
 365 0024 416A     		ldr	r1, [r0, #36]
 947:Drivers/lvgl/src/draw/sw/blend/lv_draw_sw_blend_to_i1.c **** 
 366              		.loc 1 947 13 view .LVU101
 367 0026 4A42     		rsbs	r2, r1, #0
 368 0028 01F00701 		and	r1, r1, #7
 369 002c 02F00702 		and	r2, r2, #7
 370 0030 58BF     		it	pl
 371 0032 5142     		rsbpl	r1, r2, #0
 372              	.LVL41:
 949:Drivers/lvgl/src/draw/sw/blend/lv_draw_sw_blend_to_i1.c ****     int32_t dest_x;
 373              		.loc 1 949 5 is_stmt 1 view .LVU102
 950:Drivers/lvgl/src/draw/sw/blend/lv_draw_sw_blend_to_i1.c ****     int32_t y;
 374              		.loc 1 950 5 view .LVU103
 951:Drivers/lvgl/src/draw/sw/blend/lv_draw_sw_blend_to_i1.c **** 
 375              		.loc 1 951 5 view .LVU104
 953:Drivers/lvgl/src/draw/sw/blend/lv_draw_sw_blend_to_i1.c ****         if(mask_buf == NULL && opa >= LV_OPA_MAX) {
 376              		.loc 1 953 5 view .LVU105
 953:Drivers/lvgl/src/draw/sw/blend/lv_draw_sw_blend_to_i1.c ****         if(mask_buf == NULL && opa >= LV_OPA_MAX) {
 377              		.loc 1 953 11 is_stmt 0 view .LVU106
 378 0034 90F82220 		ldrb	r2, [r0, #34]	@ zero_extendqisi2
 953:Drivers/lvgl/src/draw/sw/blend/lv_draw_sw_blend_to_i1.c ****         if(mask_buf == NULL && opa >= LV_OPA_MAX) {
 379              		.loc 1 953 7 view .LVU107
 380 0038 002A     		cmp	r2, #0
 381 003a 40F0CB81 		bne	.L56
 954:Drivers/lvgl/src/draw/sw/blend/lv_draw_sw_blend_to_i1.c ****             if(LV_RESULT_INVALID == LV_DRAW_SW_RGB565_BLEND_NORMAL_TO_I1(dsc)) {
 382              		.loc 1 954 9 is_stmt 1 view .LVU108
 954:Drivers/lvgl/src/draw/sw/blend/lv_draw_sw_blend_to_i1.c ****             if(LV_RESULT_INVALID == LV_DRAW_SW_RGB565_BLEND_NORMAL_TO_I1(dsc)) {
 383              		.loc 1 954 21 is_stmt 0 view .LVU109
 384 003e BBFA8BF2 		clz	r2, fp
 385 0042 5209     		lsrs	r2, r2, #5
 954:Drivers/lvgl/src/draw/sw/blend/lv_draw_sw_blend_to_i1.c ****             if(LV_RESULT_INVALID == LV_DRAW_SW_RGB565_BLEND_NORMAL_TO_I1(dsc)) {
 386              		.loc 1 954 36 view .LVU110
 387 0044 BCF1FC0F 		cmp	ip, #252
 388 0048 94BF     		ite	ls
 389 004a 0020     		movls	r0, #0
 390              	.LVL42:
 954:Drivers/lvgl/src/draw/sw/blend/lv_draw_sw_blend_to_i1.c ****             if(LV_RESULT_INVALID == LV_DRAW_SW_RGB565_BLEND_NORMAL_TO_I1(dsc)) {
 391              		.loc 1 954 36 view .LVU111
 392 004c 0120     		movhi	r0, #1
 954:Drivers/lvgl/src/draw/sw/blend/lv_draw_sw_blend_to_i1.c ****             if(LV_RESULT_INVALID == LV_DRAW_SW_RGB565_BLEND_NORMAL_TO_I1(dsc)) {
 393              		.loc 1 954 11 view .LVU112
 394 004e 0242     		tst	r2, r0
 395 0050 5BD1     		bne	.L57
 971:Drivers/lvgl/src/draw/sw/blend/lv_draw_sw_blend_to_i1.c ****             if(LV_RESULT_INVALID == LV_DRAW_SW_RGB565_BLEND_NORMAL_TO_I1_WITH_OPA(dsc)) {
 396              		.loc 1 971 14 is_stmt 1 view .LVU113
 971:Drivers/lvgl/src/draw/sw/blend/lv_draw_sw_blend_to_i1.c ****             if(LV_RESULT_INVALID == LV_DRAW_SW_RGB565_BLEND_NORMAL_TO_I1_WITH_OPA(dsc)) {
 397              		.loc 1 971 41 is_stmt 0 view .LVU114
 398 0052 BCF1FC0F 		cmp	ip, #252
ARM GAS  /tmp/cc9ag92L.s 			page 29


 399 0056 8CBF     		ite	hi
 400 0058 0024     		movhi	r4, #0
 401 005a 0124     		movls	r4, #1
 971:Drivers/lvgl/src/draw/sw/blend/lv_draw_sw_blend_to_i1.c ****             if(LV_RESULT_INVALID == LV_DRAW_SW_RGB565_BLEND_NORMAL_TO_I1_WITH_OPA(dsc)) {
 402              		.loc 1 971 16 view .LVU115
 403 005c 2242     		tst	r2, r4
 404 005e 40F0A880 		bne	.L59
 990:Drivers/lvgl/src/draw/sw/blend/lv_draw_sw_blend_to_i1.c ****             if(LV_RESULT_INVALID == LV_DRAW_SW_RGB565_BLEND_NORMAL_TO_I1_WITH_MASK(dsc)) {
 405              		.loc 1 990 14 is_stmt 1 view .LVU116
 990:Drivers/lvgl/src/draw/sw/blend/lv_draw_sw_blend_to_i1.c ****             if(LV_RESULT_INVALID == LV_DRAW_SW_RGB565_BLEND_NORMAL_TO_I1_WITH_MASK(dsc)) {
 406              		.loc 1 990 17 is_stmt 0 view .LVU117
 407 0062 BBF10002 		subs	r2, fp, #0
 408 0066 18BF     		it	ne
 409 0068 0122     		movne	r2, #1
 990:Drivers/lvgl/src/draw/sw/blend/lv_draw_sw_blend_to_i1.c ****             if(LV_RESULT_INVALID == LV_DRAW_SW_RGB565_BLEND_NORMAL_TO_I1_WITH_MASK(dsc)) {
 410              		.loc 1 990 16 view .LVU118
 411 006a 1042     		tst	r0, r2
 412 006c 40F0F980 		bne	.L61
1011:Drivers/lvgl/src/draw/sw/blend/lv_draw_sw_blend_to_i1.c ****             if(LV_RESULT_INVALID == LV_DRAW_SW_RGB565_BLEND_NORMAL_TO_I1_MIX_MASK_OPA(dsc)) {
 413              		.loc 1 1011 14 is_stmt 1 view .LVU119
1011:Drivers/lvgl/src/draw/sw/blend/lv_draw_sw_blend_to_i1.c ****             if(LV_RESULT_INVALID == LV_DRAW_SW_RGB565_BLEND_NORMAL_TO_I1_MIX_MASK_OPA(dsc)) {
 414              		.loc 1 1011 16 is_stmt 0 view .LVU120
 415 0070 1442     		tst	r4, r2
 416 0072 40F05981 		bne	.L63
 417              	.LVL43:
 418              	.L20:
1050:Drivers/lvgl/src/draw/sw/blend/lv_draw_sw_blend_to_i1.c **** #endif
 419              		.loc 1 1050 1 view .LVU121
 420 0076 0BB0     		add	sp, sp, #44
 421              	.LCFI6:
 422              		.cfi_remember_state
 423              		.cfi_def_cfa_offset 36
 424              		@ sp needed
 425 0078 BDE8F08F 		pop	{r4, r5, r6, r7, r8, r9, r10, fp, pc}
 426              	.LVL44:
 427              	.L72:
 428              	.LCFI7:
 429              		.cfi_restore_state
 430              	.LBB355:
 960:Drivers/lvgl/src/draw/sw/blend/lv_draw_sw_blend_to_i1.c ****                         }
 431              		.loc 1 960 29 is_stmt 1 view .LVU122
 432 007c 07EB0A03 		add	r3, r7, r10
 433              	.LVL45:
 434              	.LBB356:
 435              	.LBI356:
1105:Drivers/lvgl/src/draw/sw/blend/lv_draw_sw_blend_to_i1.c **** {
 436              		.loc 1 1105 42 view .LVU123
 437              	.LBB357:
1107:Drivers/lvgl/src/draw/sw/blend/lv_draw_sw_blend_to_i1.c **** }
 438              		.loc 1 1107 5 view .LVU124
1107:Drivers/lvgl/src/draw/sw/blend/lv_draw_sw_blend_to_i1.c **** }
 439              		.loc 1 1107 17 is_stmt 0 view .LVU125
 440 0080 1A46     		mov	r2, r3
 441 0082 002B     		cmp	r3, #0
 442 0084 10DB     		blt	.L70
 443              	.L25:
1107:Drivers/lvgl/src/draw/sw/blend/lv_draw_sw_blend_to_i1.c **** }
ARM GAS  /tmp/cc9ag92L.s 			page 30


 444              		.loc 1 1107 17 view .LVU126
 445 0086 D210     		asrs	r2, r2, #3
1107:Drivers/lvgl/src/draw/sw/blend/lv_draw_sw_blend_to_i1.c **** }
 446              		.loc 1 1107 8 view .LVU127
 447 0088 B15C     		ldrb	r1, [r6, r2]	@ zero_extendqisi2
1107:Drivers/lvgl/src/draw/sw/blend/lv_draw_sw_blend_to_i1.c **** }
 448              		.loc 1 1107 45 view .LVU128
 449 008a 5842     		rsbs	r0, r3, #0
 450              	.LVL46:
1107:Drivers/lvgl/src/draw/sw/blend/lv_draw_sw_blend_to_i1.c **** }
 451              		.loc 1 1107 45 view .LVU129
 452 008c 03F00703 		and	r3, r3, #7
 453              	.LVL47:
1107:Drivers/lvgl/src/draw/sw/blend/lv_draw_sw_blend_to_i1.c **** }
 454              		.loc 1 1107 45 view .LVU130
 455 0090 00F00700 		and	r0, r0, #7
 456 0094 58BF     		it	pl
 457 0096 4342     		rsbpl	r3, r0, #0
1107:Drivers/lvgl/src/draw/sw/blend/lv_draw_sw_blend_to_i1.c **** }
 458              		.loc 1 1107 34 view .LVU131
 459 0098 C3F10703 		rsb	r3, r3, #7
1107:Drivers/lvgl/src/draw/sw/blend/lv_draw_sw_blend_to_i1.c **** }
 460              		.loc 1 1107 28 view .LVU132
 461 009c 0120     		movs	r0, #1
 462 009e 00FA03F3 		lsl	r3, r0, r3
1107:Drivers/lvgl/src/draw/sw/blend/lv_draw_sw_blend_to_i1.c **** }
 463              		.loc 1 1107 22 view .LVU133
 464 00a2 0B43     		orrs	r3, r3, r1
 465 00a4 B354     		strb	r3, [r6, r2]
 466              	.LVL48:
1108:Drivers/lvgl/src/draw/sw/blend/lv_draw_sw_blend_to_i1.c **** 
 467              		.loc 1 1108 1 view .LVU134
 468 00a6 13E0     		b	.L26
 469              	.LVL49:
 470              	.L70:
1107:Drivers/lvgl/src/draw/sw/blend/lv_draw_sw_blend_to_i1.c **** }
 471              		.loc 1 1107 17 view .LVU135
 472 00a8 DA1D     		adds	r2, r3, #7
 473              	.LVL50:
1107:Drivers/lvgl/src/draw/sw/blend/lv_draw_sw_blend_to_i1.c **** }
 474              		.loc 1 1107 17 view .LVU136
 475 00aa ECE7     		b	.L25
 476              	.LVL51:
 477              	.L27:
1107:Drivers/lvgl/src/draw/sw/blend/lv_draw_sw_blend_to_i1.c **** }
 478              		.loc 1 1107 17 view .LVU137
 479              	.LBE357:
 480              	.LBE356:
 481              	.LBB358:
 482              	.LBB359:
1112:Drivers/lvgl/src/draw/sw/blend/lv_draw_sw_blend_to_i1.c **** }
 483              		.loc 1 1112 17 view .LVU138
 484 00ac D210     		asrs	r2, r2, #3
1112:Drivers/lvgl/src/draw/sw/blend/lv_draw_sw_blend_to_i1.c **** }
 485              		.loc 1 1112 8 view .LVU139
 486 00ae B15C     		ldrb	r1, [r6, r2]	@ zero_extendqisi2
1112:Drivers/lvgl/src/draw/sw/blend/lv_draw_sw_blend_to_i1.c **** }
ARM GAS  /tmp/cc9ag92L.s 			page 31


 487              		.loc 1 1112 46 view .LVU140
 488 00b0 5842     		rsbs	r0, r3, #0
 489              	.LVL52:
1112:Drivers/lvgl/src/draw/sw/blend/lv_draw_sw_blend_to_i1.c **** }
 490              		.loc 1 1112 46 view .LVU141
 491 00b2 03F00703 		and	r3, r3, #7
 492              	.LVL53:
1112:Drivers/lvgl/src/draw/sw/blend/lv_draw_sw_blend_to_i1.c **** }
 493              		.loc 1 1112 46 view .LVU142
 494 00b6 00F00700 		and	r0, r0, #7
 495 00ba 58BF     		it	pl
 496 00bc 4342     		rsbpl	r3, r0, #0
1112:Drivers/lvgl/src/draw/sw/blend/lv_draw_sw_blend_to_i1.c **** }
 497              		.loc 1 1112 35 view .LVU143
 498 00be C3F10703 		rsb	r3, r3, #7
1112:Drivers/lvgl/src/draw/sw/blend/lv_draw_sw_blend_to_i1.c **** }
 499              		.loc 1 1112 29 view .LVU144
 500 00c2 0120     		movs	r0, #1
 501 00c4 00FA03F3 		lsl	r3, r0, r3
1112:Drivers/lvgl/src/draw/sw/blend/lv_draw_sw_blend_to_i1.c **** }
 502              		.loc 1 1112 22 view .LVU145
 503 00c8 DB43     		mvns	r3, r3
 504 00ca 5BB2     		sxtb	r3, r3
 505 00cc 1940     		ands	r1, r1, r3
 506 00ce B154     		strb	r1, [r6, r2]
 507              	.LVL54:
 508              	.L26:
1112:Drivers/lvgl/src/draw/sw/blend/lv_draw_sw_blend_to_i1.c **** }
 509              		.loc 1 1112 22 view .LVU146
 510              	.LBE359:
 511              	.LBE358:
 512              	.LBE355:
 957:Drivers/lvgl/src/draw/sw/blend/lv_draw_sw_blend_to_i1.c ****                         uint8_t src = lv_color16_luminance(src_buf_c16[src_x]);
 513              		.loc 1 957 67 is_stmt 1 discriminator 2 view .LVU147
 957:Drivers/lvgl/src/draw/sw/blend/lv_draw_sw_blend_to_i1.c ****                         uint8_t src = lv_color16_luminance(src_buf_c16[src_x]);
 514              		.loc 1 957 65 is_stmt 0 discriminator 2 view .LVU148
 515 00d0 0137     		adds	r7, r7, #1
 516              	.LVL55:
 957:Drivers/lvgl/src/draw/sw/blend/lv_draw_sw_blend_to_i1.c ****                         uint8_t src = lv_color16_luminance(src_buf_c16[src_x]);
 517              		.loc 1 957 74 discriminator 2 view .LVU149
 518 00d2 0134     		adds	r4, r4, #1
 519              	.LVL56:
 520              	.L29:
 957:Drivers/lvgl/src/draw/sw/blend/lv_draw_sw_blend_to_i1.c ****                         uint8_t src = lv_color16_luminance(src_buf_c16[src_x]);
 521              		.loc 1 957 54 is_stmt 1 discriminator 1 view .LVU150
 522 00d4 4445     		cmp	r4, r8
 523 00d6 0DDA     		bge	.L71
 524              	.LBB362:
 958:Drivers/lvgl/src/draw/sw/blend/lv_draw_sw_blend_to_i1.c ****                         if(src > I1_LUM_THRESHOLD) {
 525              		.loc 1 958 25 view .LVU151
 958:Drivers/lvgl/src/draw/sw/blend/lv_draw_sw_blend_to_i1.c ****                         if(src > I1_LUM_THRESHOLD) {
 526              		.loc 1 958 39 is_stmt 0 view .LVU152
 527 00d8 35F81400 		ldrh	r0, [r5, r4, lsl #1]
 528 00dc FFF7FEFF 		bl	lv_color16_luminance
 529              	.LVL57:
 959:Drivers/lvgl/src/draw/sw/blend/lv_draw_sw_blend_to_i1.c ****                             set_bit(dest_buf_u8, dest_x + bit_ofs);
 530              		.loc 1 959 25 is_stmt 1 view .LVU153
ARM GAS  /tmp/cc9ag92L.s 			page 32


 959:Drivers/lvgl/src/draw/sw/blend/lv_draw_sw_blend_to_i1.c ****                             set_bit(dest_buf_u8, dest_x + bit_ofs);
 531              		.loc 1 959 27 is_stmt 0 view .LVU154
 532 00e0 10F0800F 		tst	r0, #128
 533 00e4 CAD1     		bne	.L72
 963:Drivers/lvgl/src/draw/sw/blend/lv_draw_sw_blend_to_i1.c ****                         }
 534              		.loc 1 963 29 is_stmt 1 view .LVU155
 535 00e6 07EB0A03 		add	r3, r7, r10
 536              	.LVL58:
 537              	.LBB361:
 538              	.LBI358:
1110:Drivers/lvgl/src/draw/sw/blend/lv_draw_sw_blend_to_i1.c **** {
 539              		.loc 1 1110 42 view .LVU156
 540              	.LBB360:
1112:Drivers/lvgl/src/draw/sw/blend/lv_draw_sw_blend_to_i1.c **** }
 541              		.loc 1 1112 5 view .LVU157
1112:Drivers/lvgl/src/draw/sw/blend/lv_draw_sw_blend_to_i1.c **** }
 542              		.loc 1 1112 17 is_stmt 0 view .LVU158
 543 00ea 1A46     		mov	r2, r3
 544 00ec 002B     		cmp	r3, #0
 545 00ee DDDA     		bge	.L27
1112:Drivers/lvgl/src/draw/sw/blend/lv_draw_sw_blend_to_i1.c **** }
 546              		.loc 1 1112 17 view .LVU159
 547 00f0 DA1D     		adds	r2, r3, #7
 548 00f2 DBE7     		b	.L27
 549              	.LVL59:
 550              	.L71:
1112:Drivers/lvgl/src/draw/sw/blend/lv_draw_sw_blend_to_i1.c **** }
 551              		.loc 1 1112 17 view .LVU160
 552              	.LBE360:
 553              	.LBE361:
 554              	.LBE362:
 966:Drivers/lvgl/src/draw/sw/blend/lv_draw_sw_blend_to_i1.c ****                     src_buf_c16 = drawbuf_next_row(src_buf_c16, src_stride);
 555              		.loc 1 966 21 is_stmt 1 view .LVU161
 556              	.LBB363:
 557              	.LBI363:
1100:Drivers/lvgl/src/draw/sw/blend/lv_draw_sw_blend_to_i1.c **** {
 558              		.loc 1 1100 44 view .LVU162
 559              	.LBB364:
1102:Drivers/lvgl/src/draw/sw/blend/lv_draw_sw_blend_to_i1.c **** }
 560              		.loc 1 1102 5 view .LVU163
1102:Drivers/lvgl/src/draw/sw/blend/lv_draw_sw_blend_to_i1.c **** }
 561              		.loc 1 1102 12 is_stmt 0 view .LVU164
 562 00f4 019B     		ldr	r3, [sp, #4]
 563 00f6 1E44     		add	r6, r6, r3
 564              	.LVL60:
1102:Drivers/lvgl/src/draw/sw/blend/lv_draw_sw_blend_to_i1.c **** }
 565              		.loc 1 1102 12 view .LVU165
 566              	.LBE364:
 567              	.LBE363:
 967:Drivers/lvgl/src/draw/sw/blend/lv_draw_sw_blend_to_i1.c ****                 }
 568              		.loc 1 967 21 is_stmt 1 view .LVU166
 569              	.LBB365:
 570              	.LBI365:
1100:Drivers/lvgl/src/draw/sw/blend/lv_draw_sw_blend_to_i1.c **** {
 571              		.loc 1 1100 44 view .LVU167
 572              	.LBB366:
1102:Drivers/lvgl/src/draw/sw/blend/lv_draw_sw_blend_to_i1.c **** }
ARM GAS  /tmp/cc9ag92L.s 			page 33


 573              		.loc 1 1102 5 view .LVU168
1102:Drivers/lvgl/src/draw/sw/blend/lv_draw_sw_blend_to_i1.c **** }
 574              		.loc 1 1102 12 is_stmt 0 view .LVU169
 575 00f8 029B     		ldr	r3, [sp, #8]
 576 00fa 1D44     		add	r5, r5, r3
 577              	.LVL61:
1102:Drivers/lvgl/src/draw/sw/blend/lv_draw_sw_blend_to_i1.c **** }
 578              		.loc 1 1102 12 view .LVU170
 579              	.LBE366:
 580              	.LBE365:
 956:Drivers/lvgl/src/draw/sw/blend/lv_draw_sw_blend_to_i1.c ****                     for(src_x = 0, dest_x = 0; src_x < w; dest_x++, src_x++) {
 581              		.loc 1 956 36 is_stmt 1 discriminator 2 view .LVU171
 582 00fc 09F10109 		add	r9, r9, #1
 583              	.LVL62:
 584              	.L22:
 956:Drivers/lvgl/src/draw/sw/blend/lv_draw_sw_blend_to_i1.c ****                     for(src_x = 0, dest_x = 0; src_x < w; dest_x++, src_x++) {
 585              		.loc 1 956 30 discriminator 1 view .LVU172
 586 0100 D945     		cmp	r9, fp
 587 0102 B8DA     		bge	.L20
 957:Drivers/lvgl/src/draw/sw/blend/lv_draw_sw_blend_to_i1.c ****                         uint8_t src = lv_color16_luminance(src_buf_c16[src_x]);
 588              		.loc 1 957 43 is_stmt 0 view .LVU173
 589 0104 0027     		movs	r7, #0
 957:Drivers/lvgl/src/draw/sw/blend/lv_draw_sw_blend_to_i1.c ****                         uint8_t src = lv_color16_luminance(src_buf_c16[src_x]);
 590              		.loc 1 957 31 view .LVU174
 591 0106 3C46     		mov	r4, r7
 592 0108 E4E7     		b	.L29
 593              	.LVL63:
 594              	.L57:
 956:Drivers/lvgl/src/draw/sw/blend/lv_draw_sw_blend_to_i1.c ****                     for(src_x = 0, dest_x = 0; src_x < w; dest_x++, src_x++) {
 595              		.loc 1 956 23 view .LVU175
 596 010a 4FF00009 		mov	r9, #0
 597 010e DDF810B0 		ldr	fp, [sp, #16]
 598              	.LVL64:
 956:Drivers/lvgl/src/draw/sw/blend/lv_draw_sw_blend_to_i1.c ****                     for(src_x = 0, dest_x = 0; src_x < w; dest_x++, src_x++) {
 599              		.loc 1 956 23 view .LVU176
 600 0112 8A46     		mov	r10, r1
 601 0114 F4E7     		b	.L22
 602              	.LVL65:
 603              	.L74:
 604              	.LBB367:
 605              	.LBB368:
 606              	.LBB369:
 607              		.loc 1 1117 25 view .LVU177
 608 0116 04F1070B 		add	fp, r4, #7
 609 011a 14E0     		b	.L33
 610              	.LVL66:
 611              	.L75:
 612              		.loc 1 1117 25 view .LVU178
 613              	.LBE369:
 614              	.LBE368:
 979:Drivers/lvgl/src/draw/sw/blend/lv_draw_sw_blend_to_i1.c ****                         }
 615              		.loc 1 979 29 is_stmt 1 view .LVU179
 616              	.LBB371:
 617              	.LBI371:
1105:Drivers/lvgl/src/draw/sw/blend/lv_draw_sw_blend_to_i1.c **** {
 618              		.loc 1 1105 42 view .LVU180
 619              	.LBB372:
ARM GAS  /tmp/cc9ag92L.s 			page 34


1107:Drivers/lvgl/src/draw/sw/blend/lv_draw_sw_blend_to_i1.c **** }
 620              		.loc 1 1107 5 view .LVU181
1107:Drivers/lvgl/src/draw/sw/blend/lv_draw_sw_blend_to_i1.c **** }
 621              		.loc 1 1107 8 is_stmt 0 view .LVU182
 622 011c 16F80B30 		ldrb	r3, [r6, fp]	@ zero_extendqisi2
1107:Drivers/lvgl/src/draw/sw/blend/lv_draw_sw_blend_to_i1.c **** }
 623              		.loc 1 1107 28 view .LVU183
 624 0120 0122     		movs	r2, #1
 625 0122 A240     		lsls	r2, r2, r4
1107:Drivers/lvgl/src/draw/sw/blend/lv_draw_sw_blend_to_i1.c **** }
 626              		.loc 1 1107 22 view .LVU184
 627 0124 1343     		orrs	r3, r3, r2
 628 0126 06F80B30 		strb	r3, [r6, fp]
 629              	.LVL67:
 630              	.L35:
1107:Drivers/lvgl/src/draw/sw/blend/lv_draw_sw_blend_to_i1.c **** }
 631              		.loc 1 1107 22 view .LVU185
 632              	.LBE372:
 633              	.LBE371:
 634              	.LBE367:
 974:Drivers/lvgl/src/draw/sw/blend/lv_draw_sw_blend_to_i1.c ****                         uint8_t src = lv_color16_luminance(src_buf_c16[src_x]);
 635              		.loc 1 974 67 is_stmt 1 discriminator 2 view .LVU186
 974:Drivers/lvgl/src/draw/sw/blend/lv_draw_sw_blend_to_i1.c ****                         uint8_t src = lv_color16_luminance(src_buf_c16[src_x]);
 636              		.loc 1 974 65 is_stmt 0 discriminator 2 view .LVU187
 637 012a 09F10109 		add	r9, r9, #1
 638              	.LVL68:
 974:Drivers/lvgl/src/draw/sw/blend/lv_draw_sw_blend_to_i1.c ****                         uint8_t src = lv_color16_luminance(src_buf_c16[src_x]);
 639              		.loc 1 974 74 discriminator 2 view .LVU188
 640 012e 0137     		adds	r7, r7, #1
 641              	.LVL69:
 642              	.L37:
 974:Drivers/lvgl/src/draw/sw/blend/lv_draw_sw_blend_to_i1.c ****                         uint8_t src = lv_color16_luminance(src_buf_c16[src_x]);
 643              		.loc 1 974 54 is_stmt 1 discriminator 1 view .LVU189
 644 0130 4745     		cmp	r7, r8
 645 0132 2CDA     		bge	.L73
 646              	.LBB376:
 975:Drivers/lvgl/src/draw/sw/blend/lv_draw_sw_blend_to_i1.c ****                         uint8_t dest = get_bit(dest_buf_u8, dest_x + bit_ofs) * 255;
 647              		.loc 1 975 25 view .LVU190
 975:Drivers/lvgl/src/draw/sw/blend/lv_draw_sw_blend_to_i1.c ****                         uint8_t dest = get_bit(dest_buf_u8, dest_x + bit_ofs) * 255;
 648              		.loc 1 975 39 is_stmt 0 view .LVU191
 649 0134 3AF81700 		ldrh	r0, [r10, r7, lsl #1]
 650 0138 FFF7FEFF 		bl	lv_color16_luminance
 651              	.LVL70:
 976:Drivers/lvgl/src/draw/sw/blend/lv_draw_sw_blend_to_i1.c ****                         lv_color_8_8_mix(src, &dest, opa);
 652              		.loc 1 976 25 is_stmt 1 view .LVU192
 976:Drivers/lvgl/src/draw/sw/blend/lv_draw_sw_blend_to_i1.c ****                         lv_color_8_8_mix(src, &dest, opa);
 653              		.loc 1 976 40 is_stmt 0 view .LVU193
 654 013c 09EB0504 		add	r4, r9, r5
 655              	.LVL71:
 656              	.LBB373:
 657              	.LBI368:
1115:Drivers/lvgl/src/draw/sw/blend/lv_draw_sw_blend_to_i1.c **** {
 658              		.loc 1 1115 45 is_stmt 1 view .LVU194
 659              	.LBB370:
 660              		.loc 1 1117 5 view .LVU195
 661              		.loc 1 1117 25 is_stmt 0 view .LVU196
 662 0140 A346     		mov	fp, r4
ARM GAS  /tmp/cc9ag92L.s 			page 35


 663 0142 002C     		cmp	r4, #0
 664 0144 E7DB     		blt	.L74
 665              	.L33:
 666              		.loc 1 1117 25 view .LVU197
 667 0146 4FEAEB0B 		asr	fp, fp, #3
 668              		.loc 1 1117 16 view .LVU198
 669 014a 16F80B30 		ldrb	r3, [r6, fp]	@ zero_extendqisi2
 670              		.loc 1 1117 47 view .LVU199
 671 014e 6242     		rsbs	r2, r4, #0
 672 0150 04F00704 		and	r4, r4, #7
 673              	.LVL72:
 674              		.loc 1 1117 47 view .LVU200
 675 0154 02F00702 		and	r2, r2, #7
 676 0158 58BF     		it	pl
 677 015a 5442     		rsbpl	r4, r2, #0
 678              		.loc 1 1117 36 view .LVU201
 679 015c C4F10704 		rsb	r4, r4, #7
 680              		.loc 1 1117 30 view .LVU202
 681 0160 2341     		asrs	r3, r3, r4
 682              	.LVL73:
 683              		.loc 1 1117 30 view .LVU203
 684              	.LBE370:
 685              	.LBE373:
 976:Drivers/lvgl/src/draw/sw/blend/lv_draw_sw_blend_to_i1.c ****                         lv_color_8_8_mix(src, &dest, opa);
 686              		.loc 1 976 33 discriminator 1 view .LVU204
 687 0162 43F30003 		sbfx	r3, r3, #0, #1
 688 0166 8DF82430 		strb	r3, [sp, #36]
 977:Drivers/lvgl/src/draw/sw/blend/lv_draw_sw_blend_to_i1.c ****                         if(dest > I1_LUM_THRESHOLD) {
 689              		.loc 1 977 25 is_stmt 1 view .LVU205
 690 016a 009A     		ldr	r2, [sp]
 691 016c 09A9     		add	r1, sp, #36
 692 016e FFF7FEFF 		bl	lv_color_8_8_mix
 693              	.LVL74:
 978:Drivers/lvgl/src/draw/sw/blend/lv_draw_sw_blend_to_i1.c ****                             set_bit(dest_buf_u8, dest_x  + bit_ofs);
 694              		.loc 1 978 25 view .LVU206
 978:Drivers/lvgl/src/draw/sw/blend/lv_draw_sw_blend_to_i1.c ****                             set_bit(dest_buf_u8, dest_x  + bit_ofs);
 695              		.loc 1 978 33 is_stmt 0 view .LVU207
 696 0172 9DF92430 		ldrsb	r3, [sp, #36]
 978:Drivers/lvgl/src/draw/sw/blend/lv_draw_sw_blend_to_i1.c ****                             set_bit(dest_buf_u8, dest_x  + bit_ofs);
 697              		.loc 1 978 27 view .LVU208
 698 0176 002B     		cmp	r3, #0
 699 0178 D0DB     		blt	.L75
 982:Drivers/lvgl/src/draw/sw/blend/lv_draw_sw_blend_to_i1.c ****                         }
 700              		.loc 1 982 29 is_stmt 1 view .LVU209
 701              	.LVL75:
 702              	.LBB374:
 703              	.LBI374:
1110:Drivers/lvgl/src/draw/sw/blend/lv_draw_sw_blend_to_i1.c **** {
 704              		.loc 1 1110 42 view .LVU210
 705              	.LBB375:
1112:Drivers/lvgl/src/draw/sw/blend/lv_draw_sw_blend_to_i1.c **** }
 706              		.loc 1 1112 5 view .LVU211
1112:Drivers/lvgl/src/draw/sw/blend/lv_draw_sw_blend_to_i1.c **** }
 707              		.loc 1 1112 8 is_stmt 0 view .LVU212
 708 017a 16F80B20 		ldrb	r2, [r6, fp]	@ zero_extendqisi2
1112:Drivers/lvgl/src/draw/sw/blend/lv_draw_sw_blend_to_i1.c **** }
 709              		.loc 1 1112 29 view .LVU213
ARM GAS  /tmp/cc9ag92L.s 			page 36


 710 017e 0123     		movs	r3, #1
 711 0180 A340     		lsls	r3, r3, r4
1112:Drivers/lvgl/src/draw/sw/blend/lv_draw_sw_blend_to_i1.c **** }
 712              		.loc 1 1112 22 view .LVU214
 713 0182 DB43     		mvns	r3, r3
 714 0184 5BB2     		sxtb	r3, r3
 715 0186 1340     		ands	r3, r3, r2
 716 0188 06F80B30 		strb	r3, [r6, fp]
 717              	.LVL76:
1113:Drivers/lvgl/src/draw/sw/blend/lv_draw_sw_blend_to_i1.c **** 
 718              		.loc 1 1113 1 view .LVU215
 719 018c CDE7     		b	.L35
 720              	.LVL77:
 721              	.L73:
1113:Drivers/lvgl/src/draw/sw/blend/lv_draw_sw_blend_to_i1.c **** 
 722              		.loc 1 1113 1 view .LVU216
 723              	.LBE375:
 724              	.LBE374:
 725              	.LBE376:
 726              	.LBB377:
 727              	.LBB378:
1102:Drivers/lvgl/src/draw/sw/blend/lv_draw_sw_blend_to_i1.c **** }
 728              		.loc 1 1102 12 view .LVU217
 729 018e DDF80CB0 		ldr	fp, [sp, #12]
 730              	.LBE378:
 731              	.LBE377:
 985:Drivers/lvgl/src/draw/sw/blend/lv_draw_sw_blend_to_i1.c ****                     src_buf_c16 = drawbuf_next_row(src_buf_c16, src_stride);
 732              		.loc 1 985 21 is_stmt 1 view .LVU218
 733              	.LVL78:
 734              	.LBB380:
 735              	.LBI377:
1100:Drivers/lvgl/src/draw/sw/blend/lv_draw_sw_blend_to_i1.c **** {
 736              		.loc 1 1100 44 view .LVU219
 737              	.LBB379:
1102:Drivers/lvgl/src/draw/sw/blend/lv_draw_sw_blend_to_i1.c **** }
 738              		.loc 1 1102 5 view .LVU220
1102:Drivers/lvgl/src/draw/sw/blend/lv_draw_sw_blend_to_i1.c **** }
 739              		.loc 1 1102 12 is_stmt 0 view .LVU221
 740 0192 019B     		ldr	r3, [sp, #4]
 741 0194 1E44     		add	r6, r6, r3
 742              	.LVL79:
1102:Drivers/lvgl/src/draw/sw/blend/lv_draw_sw_blend_to_i1.c **** }
 743              		.loc 1 1102 12 view .LVU222
 744              	.LBE379:
 745              	.LBE380:
 986:Drivers/lvgl/src/draw/sw/blend/lv_draw_sw_blend_to_i1.c ****                 }
 746              		.loc 1 986 21 is_stmt 1 view .LVU223
 747              	.LBB381:
 748              	.LBI381:
1100:Drivers/lvgl/src/draw/sw/blend/lv_draw_sw_blend_to_i1.c **** {
 749              		.loc 1 1100 44 view .LVU224
 750              	.LBB382:
1102:Drivers/lvgl/src/draw/sw/blend/lv_draw_sw_blend_to_i1.c **** }
 751              		.loc 1 1102 5 view .LVU225
1102:Drivers/lvgl/src/draw/sw/blend/lv_draw_sw_blend_to_i1.c **** }
 752              		.loc 1 1102 12 is_stmt 0 view .LVU226
 753 0196 029B     		ldr	r3, [sp, #8]
ARM GAS  /tmp/cc9ag92L.s 			page 37


 754 0198 9A44     		add	r10, r10, r3
 755              	.LVL80:
1102:Drivers/lvgl/src/draw/sw/blend/lv_draw_sw_blend_to_i1.c **** }
 756              		.loc 1 1102 12 view .LVU227
 757              	.LBE382:
 758              	.LBE381:
 973:Drivers/lvgl/src/draw/sw/blend/lv_draw_sw_blend_to_i1.c ****                     for(src_x = 0, dest_x = 0; src_x < w; dest_x++, src_x++) {
 759              		.loc 1 973 36 is_stmt 1 discriminator 2 view .LVU228
 760 019a 0BF1010B 		add	fp, fp, #1
 761              	.LVL81:
 762              	.L31:
 973:Drivers/lvgl/src/draw/sw/blend/lv_draw_sw_blend_to_i1.c ****                     for(src_x = 0, dest_x = 0; src_x < w; dest_x++, src_x++) {
 763              		.loc 1 973 30 discriminator 1 view .LVU229
 764 019e 049B     		ldr	r3, [sp, #16]
 765 01a0 9B45     		cmp	fp, r3
 766 01a2 BFF668AF 		bge	.L20
 974:Drivers/lvgl/src/draw/sw/blend/lv_draw_sw_blend_to_i1.c ****                         uint8_t src = lv_color16_luminance(src_buf_c16[src_x]);
 767              		.loc 1 974 43 is_stmt 0 view .LVU230
 768 01a6 4FF00009 		mov	r9, #0
 974:Drivers/lvgl/src/draw/sw/blend/lv_draw_sw_blend_to_i1.c ****                         uint8_t src = lv_color16_luminance(src_buf_c16[src_x]);
 769              		.loc 1 974 31 view .LVU231
 770 01aa 4F46     		mov	r7, r9
 771 01ac CDF80CB0 		str	fp, [sp, #12]
 772 01b0 BEE7     		b	.L37
 773              	.LVL82:
 774              	.L59:
 973:Drivers/lvgl/src/draw/sw/blend/lv_draw_sw_blend_to_i1.c ****                     for(src_x = 0, dest_x = 0; src_x < w; dest_x++, src_x++) {
 775              		.loc 1 973 23 view .LVU232
 776 01b2 4FF0000B 		mov	fp, #0
 777              	.LVL83:
 973:Drivers/lvgl/src/draw/sw/blend/lv_draw_sw_blend_to_i1.c ****                     for(src_x = 0, dest_x = 0; src_x < w; dest_x++, src_x++) {
 778              		.loc 1 973 23 view .LVU233
 779 01b6 AA46     		mov	r10, r5
 780 01b8 CDF800C0 		str	ip, [sp]
 781 01bc 0D46     		mov	r5, r1
 782              	.LVL84:
 973:Drivers/lvgl/src/draw/sw/blend/lv_draw_sw_blend_to_i1.c ****                     for(src_x = 0, dest_x = 0; src_x < w; dest_x++, src_x++) {
 783              		.loc 1 973 23 view .LVU234
 784 01be EEE7     		b	.L31
 785              	.LVL85:
 786              	.L77:
 787              	.LBB383:
 788              	.LBB384:
 789              	.LBB385:
 790              	.LBB386:
 791              		.loc 1 1117 25 view .LVU235
 792 01c0 07F10709 		add	r9, r7, #7
 793 01c4 17E0     		b	.L40
 794              	.LVL86:
 795              	.L78:
 796              		.loc 1 1117 25 view .LVU236
 797              	.LBE386:
 798              	.LBE385:
 999:Drivers/lvgl/src/draw/sw/blend/lv_draw_sw_blend_to_i1.c ****                         }
 799              		.loc 1 999 29 is_stmt 1 view .LVU237
 800              	.LBB388:
 801              	.LBI388:
ARM GAS  /tmp/cc9ag92L.s 			page 38


1105:Drivers/lvgl/src/draw/sw/blend/lv_draw_sw_blend_to_i1.c **** {
 802              		.loc 1 1105 42 view .LVU238
 803              	.LBB389:
1107:Drivers/lvgl/src/draw/sw/blend/lv_draw_sw_blend_to_i1.c **** }
 804              		.loc 1 1107 5 view .LVU239
1107:Drivers/lvgl/src/draw/sw/blend/lv_draw_sw_blend_to_i1.c **** }
 805              		.loc 1 1107 8 is_stmt 0 view .LVU240
 806 01c6 1BF80930 		ldrb	r3, [fp, r9]	@ zero_extendqisi2
1107:Drivers/lvgl/src/draw/sw/blend/lv_draw_sw_blend_to_i1.c **** }
 807              		.loc 1 1107 28 view .LVU241
 808 01ca 0122     		movs	r2, #1
 809 01cc BA40     		lsls	r2, r2, r7
1107:Drivers/lvgl/src/draw/sw/blend/lv_draw_sw_blend_to_i1.c **** }
 810              		.loc 1 1107 22 view .LVU242
 811 01ce 1343     		orrs	r3, r3, r2
 812 01d0 0BF80930 		strb	r3, [fp, r9]
 813              	.LVL87:
 814              	.L42:
1107:Drivers/lvgl/src/draw/sw/blend/lv_draw_sw_blend_to_i1.c **** }
 815              		.loc 1 1107 22 view .LVU243
 816              	.LBE389:
 817              	.LBE388:
 818              	.LBE384:
 994:Drivers/lvgl/src/draw/sw/blend/lv_draw_sw_blend_to_i1.c ****                         uint8_t src = lv_color16_luminance(src_buf_c16[src_x]);
 819              		.loc 1 994 90 is_stmt 1 discriminator 2 view .LVU244
 994:Drivers/lvgl/src/draw/sw/blend/lv_draw_sw_blend_to_i1.c ****                         uint8_t src = lv_color16_luminance(src_buf_c16[src_x]);
 820              		.loc 1 994 78 is_stmt 0 discriminator 2 view .LVU245
 821 01d4 0134     		adds	r4, r4, #1
 822              	.LVL88:
 994:Drivers/lvgl/src/draw/sw/blend/lv_draw_sw_blend_to_i1.c ****                         uint8_t src = lv_color16_luminance(src_buf_c16[src_x]);
 823              		.loc 1 994 88 discriminator 2 view .LVU246
 824 01d6 0AF1010A 		add	r10, r10, #1
 825              	.LVL89:
 994:Drivers/lvgl/src/draw/sw/blend/lv_draw_sw_blend_to_i1.c ****                         uint8_t src = lv_color16_luminance(src_buf_c16[src_x]);
 826              		.loc 1 994 97 discriminator 2 view .LVU247
 827 01da 0135     		adds	r5, r5, #1
 828              	.LVL90:
 829              	.L44:
 994:Drivers/lvgl/src/draw/sw/blend/lv_draw_sw_blend_to_i1.c ****                         uint8_t src = lv_color16_luminance(src_buf_c16[src_x]);
 830              		.loc 1 994 67 is_stmt 1 discriminator 1 view .LVU248
 831 01dc 009B     		ldr	r3, [sp]
 832 01de 9A45     		cmp	r10, r3
 833 01e0 2EDA     		bge	.L76
 834              	.LBB393:
 995:Drivers/lvgl/src/draw/sw/blend/lv_draw_sw_blend_to_i1.c ****                         uint8_t dest = get_bit(dest_buf_u8, dest_x + bit_ofs) * 255;
 835              		.loc 1 995 25 view .LVU249
 995:Drivers/lvgl/src/draw/sw/blend/lv_draw_sw_blend_to_i1.c ****                         uint8_t dest = get_bit(dest_buf_u8, dest_x + bit_ofs) * 255;
 836              		.loc 1 995 39 is_stmt 0 view .LVU250
 837 01e2 36F81500 		ldrh	r0, [r6, r5, lsl #1]
 838 01e6 FFF7FEFF 		bl	lv_color16_luminance
 839              	.LVL91:
 996:Drivers/lvgl/src/draw/sw/blend/lv_draw_sw_blend_to_i1.c ****                         lv_color_8_8_mix(src, &dest, mask_buf[mask_x]);
 840              		.loc 1 996 25 is_stmt 1 view .LVU251
 996:Drivers/lvgl/src/draw/sw/blend/lv_draw_sw_blend_to_i1.c ****                         lv_color_8_8_mix(src, &dest, mask_buf[mask_x]);
 841              		.loc 1 996 40 is_stmt 0 view .LVU252
 842 01ea 039B     		ldr	r3, [sp, #12]
 843 01ec 0AEB0307 		add	r7, r10, r3
ARM GAS  /tmp/cc9ag92L.s 			page 39


 844              	.LVL92:
 845              	.LBB390:
 846              	.LBI385:
1115:Drivers/lvgl/src/draw/sw/blend/lv_draw_sw_blend_to_i1.c **** {
 847              		.loc 1 1115 45 is_stmt 1 view .LVU253
 848              	.LBB387:
 849              		.loc 1 1117 5 view .LVU254
 850              		.loc 1 1117 25 is_stmt 0 view .LVU255
 851 01f0 B946     		mov	r9, r7
 852 01f2 002F     		cmp	r7, #0
 853 01f4 E4DB     		blt	.L77
 854              	.L40:
 855              		.loc 1 1117 25 view .LVU256
 856 01f6 4FEAE909 		asr	r9, r9, #3
 857              		.loc 1 1117 16 view .LVU257
 858 01fa 1BF80930 		ldrb	r3, [fp, r9]	@ zero_extendqisi2
 859              		.loc 1 1117 47 view .LVU258
 860 01fe 7A42     		rsbs	r2, r7, #0
 861 0200 07F00707 		and	r7, r7, #7
 862              	.LVL93:
 863              		.loc 1 1117 47 view .LVU259
 864 0204 02F00702 		and	r2, r2, #7
 865 0208 58BF     		it	pl
 866 020a 5742     		rsbpl	r7, r2, #0
 867              		.loc 1 1117 36 view .LVU260
 868 020c C7F10707 		rsb	r7, r7, #7
 869              		.loc 1 1117 30 view .LVU261
 870 0210 3B41     		asrs	r3, r3, r7
 871              	.LVL94:
 872              		.loc 1 1117 30 view .LVU262
 873              	.LBE387:
 874              	.LBE390:
 996:Drivers/lvgl/src/draw/sw/blend/lv_draw_sw_blend_to_i1.c ****                         lv_color_8_8_mix(src, &dest, mask_buf[mask_x]);
 875              		.loc 1 996 33 discriminator 1 view .LVU263
 876 0212 43F30003 		sbfx	r3, r3, #0, #1
 877 0216 8DF82430 		strb	r3, [sp, #36]
 997:Drivers/lvgl/src/draw/sw/blend/lv_draw_sw_blend_to_i1.c ****                         if(dest > I1_LUM_THRESHOLD) {
 878              		.loc 1 997 25 is_stmt 1 view .LVU264
 879 021a 18F80420 		ldrb	r2, [r8, r4]	@ zero_extendqisi2
 880 021e 09A9     		add	r1, sp, #36
 881 0220 FFF7FEFF 		bl	lv_color_8_8_mix
 882              	.LVL95:
 998:Drivers/lvgl/src/draw/sw/blend/lv_draw_sw_blend_to_i1.c ****                             set_bit(dest_buf_u8, dest_x + bit_ofs);
 883              		.loc 1 998 25 view .LVU265
 998:Drivers/lvgl/src/draw/sw/blend/lv_draw_sw_blend_to_i1.c ****                             set_bit(dest_buf_u8, dest_x + bit_ofs);
 884              		.loc 1 998 33 is_stmt 0 view .LVU266
 885 0224 9DF92430 		ldrsb	r3, [sp, #36]
 998:Drivers/lvgl/src/draw/sw/blend/lv_draw_sw_blend_to_i1.c ****                             set_bit(dest_buf_u8, dest_x + bit_ofs);
 886              		.loc 1 998 27 view .LVU267
 887 0228 002B     		cmp	r3, #0
 888 022a CCDB     		blt	.L78
1002:Drivers/lvgl/src/draw/sw/blend/lv_draw_sw_blend_to_i1.c ****                         }
 889              		.loc 1 1002 29 is_stmt 1 view .LVU268
 890              	.LVL96:
 891              	.LBB391:
 892              	.LBI391:
1110:Drivers/lvgl/src/draw/sw/blend/lv_draw_sw_blend_to_i1.c **** {
ARM GAS  /tmp/cc9ag92L.s 			page 40


 893              		.loc 1 1110 42 view .LVU269
 894              	.LBB392:
1112:Drivers/lvgl/src/draw/sw/blend/lv_draw_sw_blend_to_i1.c **** }
 895              		.loc 1 1112 5 view .LVU270
1112:Drivers/lvgl/src/draw/sw/blend/lv_draw_sw_blend_to_i1.c **** }
 896              		.loc 1 1112 8 is_stmt 0 view .LVU271
 897 022c 1BF80920 		ldrb	r2, [fp, r9]	@ zero_extendqisi2
1112:Drivers/lvgl/src/draw/sw/blend/lv_draw_sw_blend_to_i1.c **** }
 898              		.loc 1 1112 29 view .LVU272
 899 0230 0123     		movs	r3, #1
 900 0232 BB40     		lsls	r3, r3, r7
1112:Drivers/lvgl/src/draw/sw/blend/lv_draw_sw_blend_to_i1.c **** }
 901              		.loc 1 1112 22 view .LVU273
 902 0234 DB43     		mvns	r3, r3
 903 0236 5BB2     		sxtb	r3, r3
 904 0238 1340     		ands	r3, r3, r2
 905 023a 0BF80930 		strb	r3, [fp, r9]
 906              	.LVL97:
1113:Drivers/lvgl/src/draw/sw/blend/lv_draw_sw_blend_to_i1.c **** 
 907              		.loc 1 1113 1 view .LVU274
 908 023e C9E7     		b	.L42
 909              	.LVL98:
 910              	.L76:
1113:Drivers/lvgl/src/draw/sw/blend/lv_draw_sw_blend_to_i1.c **** 
 911              		.loc 1 1113 1 view .LVU275
 912              	.LBE392:
 913              	.LBE391:
 914              	.LBE393:
 915              	.LBB394:
 916              	.LBB395:
1102:Drivers/lvgl/src/draw/sw/blend/lv_draw_sw_blend_to_i1.c **** }
 917              		.loc 1 1102 12 view .LVU276
 918 0240 059F     		ldr	r7, [sp, #20]
 919              	.LBE395:
 920              	.LBE394:
1005:Drivers/lvgl/src/draw/sw/blend/lv_draw_sw_blend_to_i1.c ****                     src_buf_c16 = drawbuf_next_row(src_buf_c16, src_stride);
 921              		.loc 1 1005 21 is_stmt 1 view .LVU277
 922              	.LVL99:
 923              	.LBB397:
 924              	.LBI394:
1100:Drivers/lvgl/src/draw/sw/blend/lv_draw_sw_blend_to_i1.c **** {
 925              		.loc 1 1100 44 view .LVU278
 926              	.LBB396:
1102:Drivers/lvgl/src/draw/sw/blend/lv_draw_sw_blend_to_i1.c **** }
 927              		.loc 1 1102 5 view .LVU279
1102:Drivers/lvgl/src/draw/sw/blend/lv_draw_sw_blend_to_i1.c **** }
 928              		.loc 1 1102 12 is_stmt 0 view .LVU280
 929 0242 019B     		ldr	r3, [sp, #4]
 930 0244 9B44     		add	fp, fp, r3
 931              	.LVL100:
1102:Drivers/lvgl/src/draw/sw/blend/lv_draw_sw_blend_to_i1.c **** }
 932              		.loc 1 1102 12 view .LVU281
 933              	.LBE396:
 934              	.LBE397:
1006:Drivers/lvgl/src/draw/sw/blend/lv_draw_sw_blend_to_i1.c ****                     mask_buf += mask_stride;
 935              		.loc 1 1006 21 is_stmt 1 view .LVU282
 936              	.LBB398:
ARM GAS  /tmp/cc9ag92L.s 			page 41


 937              	.LBI398:
1100:Drivers/lvgl/src/draw/sw/blend/lv_draw_sw_blend_to_i1.c **** {
 938              		.loc 1 1100 44 view .LVU283
 939              	.LBB399:
1102:Drivers/lvgl/src/draw/sw/blend/lv_draw_sw_blend_to_i1.c **** }
 940              		.loc 1 1102 5 view .LVU284
1102:Drivers/lvgl/src/draw/sw/blend/lv_draw_sw_blend_to_i1.c **** }
 941              		.loc 1 1102 12 is_stmt 0 view .LVU285
 942 0246 029B     		ldr	r3, [sp, #8]
 943 0248 1E44     		add	r6, r6, r3
 944              	.LVL101:
1102:Drivers/lvgl/src/draw/sw/blend/lv_draw_sw_blend_to_i1.c **** }
 945              		.loc 1 1102 12 view .LVU286
 946              	.LBE399:
 947              	.LBE398:
1007:Drivers/lvgl/src/draw/sw/blend/lv_draw_sw_blend_to_i1.c ****                 }
 948              		.loc 1 1007 21 is_stmt 1 view .LVU287
1007:Drivers/lvgl/src/draw/sw/blend/lv_draw_sw_blend_to_i1.c ****                 }
 949              		.loc 1 1007 30 is_stmt 0 view .LVU288
 950 024a 069B     		ldr	r3, [sp, #24]
 951 024c 9844     		add	r8, r8, r3
 952              	.LVL102:
 993:Drivers/lvgl/src/draw/sw/blend/lv_draw_sw_blend_to_i1.c ****                     for(mask_x = 0, dest_x = 0, src_x = 0; dest_x < w; mask_x++, dest_x++, src_x++)
 953              		.loc 1 993 36 is_stmt 1 discriminator 2 view .LVU289
 954 024e 0137     		adds	r7, r7, #1
 955              	.LVL103:
 956              	.L38:
 993:Drivers/lvgl/src/draw/sw/blend/lv_draw_sw_blend_to_i1.c ****                     for(mask_x = 0, dest_x = 0, src_x = 0; dest_x < w; mask_x++, dest_x++, src_x++)
 957              		.loc 1 993 30 discriminator 1 view .LVU290
 958 0250 049B     		ldr	r3, [sp, #16]
 959 0252 9F42     		cmp	r7, r3
 960 0254 BFF60FAF 		bge	.L20
 994:Drivers/lvgl/src/draw/sw/blend/lv_draw_sw_blend_to_i1.c ****                         uint8_t src = lv_color16_luminance(src_buf_c16[src_x]);
 961              		.loc 1 994 32 is_stmt 0 view .LVU291
 962 0258 0024     		movs	r4, #0
 994:Drivers/lvgl/src/draw/sw/blend/lv_draw_sw_blend_to_i1.c ****                         uint8_t src = lv_color16_luminance(src_buf_c16[src_x]);
 963              		.loc 1 994 44 view .LVU292
 964 025a A246     		mov	r10, r4
 994:Drivers/lvgl/src/draw/sw/blend/lv_draw_sw_blend_to_i1.c ****                         uint8_t src = lv_color16_luminance(src_buf_c16[src_x]);
 965              		.loc 1 994 55 view .LVU293
 966 025c 2546     		mov	r5, r4
 967 025e 0597     		str	r7, [sp, #20]
 968 0260 BCE7     		b	.L44
 969              	.LVL104:
 970              	.L61:
 993:Drivers/lvgl/src/draw/sw/blend/lv_draw_sw_blend_to_i1.c ****                     for(mask_x = 0, dest_x = 0, src_x = 0; dest_x < w; mask_x++, dest_x++, src_x++)
 971              		.loc 1 993 23 view .LVU294
 972 0262 0024     		movs	r4, #0
 973 0264 2746     		mov	r7, r4
 974 0266 CDF80080 		str	r8, [sp]
 975 026a D846     		mov	r8, fp
 976              	.LVL105:
 993:Drivers/lvgl/src/draw/sw/blend/lv_draw_sw_blend_to_i1.c ****                     for(mask_x = 0, dest_x = 0, src_x = 0; dest_x < w; mask_x++, dest_x++, src_x++)
 977              		.loc 1 993 23 view .LVU295
 978 026c B346     		mov	fp, r6
 979              	.LVL106:
 993:Drivers/lvgl/src/draw/sw/blend/lv_draw_sw_blend_to_i1.c ****                     for(mask_x = 0, dest_x = 0, src_x = 0; dest_x < w; mask_x++, dest_x++, src_x++)
ARM GAS  /tmp/cc9ag92L.s 			page 42


 980              		.loc 1 993 23 view .LVU296
 981 026e 2E46     		mov	r6, r5
 982              	.LVL107:
 993:Drivers/lvgl/src/draw/sw/blend/lv_draw_sw_blend_to_i1.c ****                     for(mask_x = 0, dest_x = 0, src_x = 0; dest_x < w; mask_x++, dest_x++, src_x++)
 983              		.loc 1 993 23 view .LVU297
 984 0270 0693     		str	r3, [sp, #24]
 985 0272 0391     		str	r1, [sp, #12]
 986 0274 ECE7     		b	.L38
 987              	.LVL108:
 988              	.L80:
 993:Drivers/lvgl/src/draw/sw/blend/lv_draw_sw_blend_to_i1.c ****                     for(mask_x = 0, dest_x = 0, src_x = 0; dest_x < w; mask_x++, dest_x++, src_x++)
 989              		.loc 1 993 23 view .LVU298
 990              	.LBE383:
 991              	.LBB400:
 992              	.LBB401:
 993              	.LBB402:
 994              	.LBB403:
 995              		.loc 1 1117 25 view .LVU299
 996 0276 04F1070B 		add	fp, r4, #7
 997 027a 17E0     		b	.L46
 998              	.LVL109:
 999              	.L81:
 1000              		.loc 1 1117 25 view .LVU300
 1001              	.LBE403:
 1002              	.LBE402:
1020:Drivers/lvgl/src/draw/sw/blend/lv_draw_sw_blend_to_i1.c ****                         }
 1003              		.loc 1 1020 29 is_stmt 1 view .LVU301
 1004              	.LBB405:
 1005              	.LBI405:
1105:Drivers/lvgl/src/draw/sw/blend/lv_draw_sw_blend_to_i1.c **** {
 1006              		.loc 1 1105 42 view .LVU302
 1007              	.LBB406:
1107:Drivers/lvgl/src/draw/sw/blend/lv_draw_sw_blend_to_i1.c **** }
 1008              		.loc 1 1107 5 view .LVU303
1107:Drivers/lvgl/src/draw/sw/blend/lv_draw_sw_blend_to_i1.c **** }
 1009              		.loc 1 1107 8 is_stmt 0 view .LVU304
 1010 027c 15F80B30 		ldrb	r3, [r5, fp]	@ zero_extendqisi2
1107:Drivers/lvgl/src/draw/sw/blend/lv_draw_sw_blend_to_i1.c **** }
 1011              		.loc 1 1107 28 view .LVU305
 1012 0280 0122     		movs	r2, #1
 1013 0282 A240     		lsls	r2, r2, r4
1107:Drivers/lvgl/src/draw/sw/blend/lv_draw_sw_blend_to_i1.c **** }
 1014              		.loc 1 1107 22 view .LVU306
 1015 0284 1343     		orrs	r3, r3, r2
 1016 0286 05F80B30 		strb	r3, [r5, fp]
 1017              	.LVL110:
 1018              	.L48:
1107:Drivers/lvgl/src/draw/sw/blend/lv_draw_sw_blend_to_i1.c **** }
 1019              		.loc 1 1107 22 view .LVU307
 1020              	.LBE406:
 1021              	.LBE405:
 1022              	.LBE401:
1015:Drivers/lvgl/src/draw/sw/blend/lv_draw_sw_blend_to_i1.c ****                         uint8_t src = lv_color16_luminance(src_buf_c16[src_x]);
 1023              		.loc 1 1015 90 is_stmt 1 discriminator 2 view .LVU308
1015:Drivers/lvgl/src/draw/sw/blend/lv_draw_sw_blend_to_i1.c ****                         uint8_t src = lv_color16_luminance(src_buf_c16[src_x]);
 1024              		.loc 1 1015 78 is_stmt 0 discriminator 2 view .LVU309
 1025 028a 09F10109 		add	r9, r9, #1
ARM GAS  /tmp/cc9ag92L.s 			page 43


 1026              	.LVL111:
1015:Drivers/lvgl/src/draw/sw/blend/lv_draw_sw_blend_to_i1.c ****                         uint8_t src = lv_color16_luminance(src_buf_c16[src_x]);
 1027              		.loc 1 1015 88 discriminator 2 view .LVU310
 1028 028e 0137     		adds	r7, r7, #1
 1029              	.LVL112:
1015:Drivers/lvgl/src/draw/sw/blend/lv_draw_sw_blend_to_i1.c ****                         uint8_t src = lv_color16_luminance(src_buf_c16[src_x]);
 1030              		.loc 1 1015 97 discriminator 2 view .LVU311
 1031 0290 0AF1010A 		add	r10, r10, #1
 1032              	.LVL113:
 1033              	.L50:
1015:Drivers/lvgl/src/draw/sw/blend/lv_draw_sw_blend_to_i1.c ****                         uint8_t src = lv_color16_luminance(src_buf_c16[src_x]);
 1034              		.loc 1 1015 67 is_stmt 1 discriminator 1 view .LVU312
 1035 0294 009B     		ldr	r3, [sp]
 1036 0296 9F42     		cmp	r7, r3
 1037 0298 31DA     		bge	.L79
 1038              	.LBB410:
1016:Drivers/lvgl/src/draw/sw/blend/lv_draw_sw_blend_to_i1.c ****                         uint8_t dest = get_bit(dest_buf_u8, dest_x + bit_ofs) * 255;
 1039              		.loc 1 1016 25 view .LVU313
1016:Drivers/lvgl/src/draw/sw/blend/lv_draw_sw_blend_to_i1.c ****                         uint8_t dest = get_bit(dest_buf_u8, dest_x + bit_ofs) * 255;
 1040              		.loc 1 1016 39 is_stmt 0 view .LVU314
 1041 029a 36F81A00 		ldrh	r0, [r6, r10, lsl #1]
 1042 029e FFF7FEFF 		bl	lv_color16_luminance
 1043              	.LVL114:
1017:Drivers/lvgl/src/draw/sw/blend/lv_draw_sw_blend_to_i1.c ****                         lv_color_8_8_mix(src, &dest, LV_OPA_MIX2(mask_buf[mask_x], opa));
 1044              		.loc 1 1017 25 is_stmt 1 view .LVU315
1017:Drivers/lvgl/src/draw/sw/blend/lv_draw_sw_blend_to_i1.c ****                         lv_color_8_8_mix(src, &dest, LV_OPA_MIX2(mask_buf[mask_x], opa));
 1045              		.loc 1 1017 40 is_stmt 0 view .LVU316
 1046 02a2 059B     		ldr	r3, [sp, #20]
 1047 02a4 FC18     		adds	r4, r7, r3
 1048              	.LVL115:
 1049              	.LBB407:
 1050              	.LBI402:
1115:Drivers/lvgl/src/draw/sw/blend/lv_draw_sw_blend_to_i1.c **** {
 1051              		.loc 1 1115 45 is_stmt 1 view .LVU317
 1052              	.LBB404:
 1053              		.loc 1 1117 5 view .LVU318
 1054              		.loc 1 1117 25 is_stmt 0 view .LVU319
 1055 02a6 A346     		mov	fp, r4
 1056 02a8 002C     		cmp	r4, #0
 1057 02aa E4DB     		blt	.L80
 1058              	.L46:
 1059              		.loc 1 1117 25 view .LVU320
 1060 02ac 4FEAEB0B 		asr	fp, fp, #3
 1061              		.loc 1 1117 16 view .LVU321
 1062 02b0 15F80B30 		ldrb	r3, [r5, fp]	@ zero_extendqisi2
 1063              		.loc 1 1117 47 view .LVU322
 1064 02b4 6242     		rsbs	r2, r4, #0
 1065 02b6 04F00704 		and	r4, r4, #7
 1066              	.LVL116:
 1067              		.loc 1 1117 47 view .LVU323
 1068 02ba 02F00702 		and	r2, r2, #7
 1069 02be 58BF     		it	pl
 1070 02c0 5442     		rsbpl	r4, r2, #0
 1071              		.loc 1 1117 36 view .LVU324
 1072 02c2 C4F10704 		rsb	r4, r4, #7
 1073              		.loc 1 1117 30 view .LVU325
 1074 02c6 2341     		asrs	r3, r3, r4
ARM GAS  /tmp/cc9ag92L.s 			page 44


 1075              	.LVL117:
 1076              		.loc 1 1117 30 view .LVU326
 1077              	.LBE404:
 1078              	.LBE407:
1017:Drivers/lvgl/src/draw/sw/blend/lv_draw_sw_blend_to_i1.c ****                         lv_color_8_8_mix(src, &dest, LV_OPA_MIX2(mask_buf[mask_x], opa));
 1079              		.loc 1 1017 33 discriminator 1 view .LVU327
 1080 02c8 43F30003 		sbfx	r3, r3, #0, #1
 1081 02cc 8DF82430 		strb	r3, [sp, #36]
1018:Drivers/lvgl/src/draw/sw/blend/lv_draw_sw_blend_to_i1.c ****                         if(dest > I1_LUM_THRESHOLD) {
 1082              		.loc 1 1018 25 is_stmt 1 view .LVU328
1018:Drivers/lvgl/src/draw/sw/blend/lv_draw_sw_blend_to_i1.c ****                         if(dest > I1_LUM_THRESHOLD) {
 1083              		.loc 1 1018 54 is_stmt 0 view .LVU329
 1084 02d0 18F80920 		ldrb	r2, [r8, r9]	@ zero_extendqisi2
 1085 02d4 039B     		ldr	r3, [sp, #12]
 1086 02d6 03FB02F2 		mul	r2, r3, r2
1018:Drivers/lvgl/src/draw/sw/blend/lv_draw_sw_blend_to_i1.c ****                         if(dest > I1_LUM_THRESHOLD) {
 1087              		.loc 1 1018 25 view .LVU330
 1088 02da 120A     		lsrs	r2, r2, #8
 1089 02dc 09A9     		add	r1, sp, #36
 1090 02de FFF7FEFF 		bl	lv_color_8_8_mix
 1091              	.LVL118:
1019:Drivers/lvgl/src/draw/sw/blend/lv_draw_sw_blend_to_i1.c ****                             set_bit(dest_buf_u8, dest_x + bit_ofs);
 1092              		.loc 1 1019 25 is_stmt 1 view .LVU331
1019:Drivers/lvgl/src/draw/sw/blend/lv_draw_sw_blend_to_i1.c ****                             set_bit(dest_buf_u8, dest_x + bit_ofs);
 1093              		.loc 1 1019 33 is_stmt 0 view .LVU332
 1094 02e2 9DF92430 		ldrsb	r3, [sp, #36]
1019:Drivers/lvgl/src/draw/sw/blend/lv_draw_sw_blend_to_i1.c ****                             set_bit(dest_buf_u8, dest_x + bit_ofs);
 1095              		.loc 1 1019 27 view .LVU333
 1096 02e6 002B     		cmp	r3, #0
 1097 02e8 C8DB     		blt	.L81
1023:Drivers/lvgl/src/draw/sw/blend/lv_draw_sw_blend_to_i1.c ****                         }
 1098              		.loc 1 1023 29 is_stmt 1 view .LVU334
 1099              	.LVL119:
 1100              	.LBB408:
 1101              	.LBI408:
1110:Drivers/lvgl/src/draw/sw/blend/lv_draw_sw_blend_to_i1.c **** {
 1102              		.loc 1 1110 42 view .LVU335
 1103              	.LBB409:
1112:Drivers/lvgl/src/draw/sw/blend/lv_draw_sw_blend_to_i1.c **** }
 1104              		.loc 1 1112 5 view .LVU336
1112:Drivers/lvgl/src/draw/sw/blend/lv_draw_sw_blend_to_i1.c **** }
 1105              		.loc 1 1112 8 is_stmt 0 view .LVU337
 1106 02ea 15F80B20 		ldrb	r2, [r5, fp]	@ zero_extendqisi2
1112:Drivers/lvgl/src/draw/sw/blend/lv_draw_sw_blend_to_i1.c **** }
 1107              		.loc 1 1112 29 view .LVU338
 1108 02ee 0123     		movs	r3, #1
 1109 02f0 A340     		lsls	r3, r3, r4
1112:Drivers/lvgl/src/draw/sw/blend/lv_draw_sw_blend_to_i1.c **** }
 1110              		.loc 1 1112 22 view .LVU339
 1111 02f2 DB43     		mvns	r3, r3
 1112 02f4 5BB2     		sxtb	r3, r3
 1113 02f6 1340     		ands	r3, r3, r2
 1114 02f8 05F80B30 		strb	r3, [r5, fp]
 1115              	.LVL120:
1113:Drivers/lvgl/src/draw/sw/blend/lv_draw_sw_blend_to_i1.c **** 
 1116              		.loc 1 1113 1 view .LVU340
 1117 02fc C5E7     		b	.L48
ARM GAS  /tmp/cc9ag92L.s 			page 45


 1118              	.LVL121:
 1119              	.L79:
1113:Drivers/lvgl/src/draw/sw/blend/lv_draw_sw_blend_to_i1.c **** 
 1120              		.loc 1 1113 1 view .LVU341
 1121              	.LBE409:
 1122              	.LBE408:
 1123              	.LBE410:
 1124              	.LBB411:
 1125              	.LBB412:
1102:Drivers/lvgl/src/draw/sw/blend/lv_draw_sw_blend_to_i1.c **** }
 1126              		.loc 1 1102 12 view .LVU342
 1127 02fe DDF818B0 		ldr	fp, [sp, #24]
 1128              	.LBE412:
 1129              	.LBE411:
1026:Drivers/lvgl/src/draw/sw/blend/lv_draw_sw_blend_to_i1.c ****                     src_buf_c16 = drawbuf_next_row(src_buf_c16, src_stride);
 1130              		.loc 1 1026 21 is_stmt 1 view .LVU343
 1131              	.LVL122:
 1132              	.LBB414:
 1133              	.LBI411:
1100:Drivers/lvgl/src/draw/sw/blend/lv_draw_sw_blend_to_i1.c **** {
 1134              		.loc 1 1100 44 view .LVU344
 1135              	.LBB413:
1102:Drivers/lvgl/src/draw/sw/blend/lv_draw_sw_blend_to_i1.c **** }
 1136              		.loc 1 1102 5 view .LVU345
1102:Drivers/lvgl/src/draw/sw/blend/lv_draw_sw_blend_to_i1.c **** }
 1137              		.loc 1 1102 12 is_stmt 0 view .LVU346
 1138 0302 019B     		ldr	r3, [sp, #4]
 1139 0304 1D44     		add	r5, r5, r3
 1140              	.LVL123:
1102:Drivers/lvgl/src/draw/sw/blend/lv_draw_sw_blend_to_i1.c **** }
 1141              		.loc 1 1102 12 view .LVU347
 1142              	.LBE413:
 1143              	.LBE414:
1027:Drivers/lvgl/src/draw/sw/blend/lv_draw_sw_blend_to_i1.c ****                     mask_buf += mask_stride;
 1144              		.loc 1 1027 21 is_stmt 1 view .LVU348
 1145              	.LBB415:
 1146              	.LBI415:
1100:Drivers/lvgl/src/draw/sw/blend/lv_draw_sw_blend_to_i1.c **** {
 1147              		.loc 1 1100 44 view .LVU349
 1148              	.LBB416:
1102:Drivers/lvgl/src/draw/sw/blend/lv_draw_sw_blend_to_i1.c **** }
 1149              		.loc 1 1102 5 view .LVU350
1102:Drivers/lvgl/src/draw/sw/blend/lv_draw_sw_blend_to_i1.c **** }
 1150              		.loc 1 1102 12 is_stmt 0 view .LVU351
 1151 0306 029B     		ldr	r3, [sp, #8]
 1152 0308 1E44     		add	r6, r6, r3
 1153              	.LVL124:
1102:Drivers/lvgl/src/draw/sw/blend/lv_draw_sw_blend_to_i1.c **** }
 1154              		.loc 1 1102 12 view .LVU352
 1155              	.LBE416:
 1156              	.LBE415:
1028:Drivers/lvgl/src/draw/sw/blend/lv_draw_sw_blend_to_i1.c ****                 }
 1157              		.loc 1 1028 21 is_stmt 1 view .LVU353
1028:Drivers/lvgl/src/draw/sw/blend/lv_draw_sw_blend_to_i1.c ****                 }
 1158              		.loc 1 1028 30 is_stmt 0 view .LVU354
 1159 030a 079B     		ldr	r3, [sp, #28]
 1160 030c 9844     		add	r8, r8, r3
ARM GAS  /tmp/cc9ag92L.s 			page 46


 1161              	.LVL125:
1014:Drivers/lvgl/src/draw/sw/blend/lv_draw_sw_blend_to_i1.c ****                     for(mask_x = 0, dest_x = 0, src_x = 0; dest_x < w; mask_x++, dest_x++, src_x++)
 1162              		.loc 1 1014 36 is_stmt 1 discriminator 2 view .LVU355
 1163 030e 0BF1010B 		add	fp, fp, #1
 1164              	.LVL126:
 1165              	.L45:
1014:Drivers/lvgl/src/draw/sw/blend/lv_draw_sw_blend_to_i1.c ****                     for(mask_x = 0, dest_x = 0, src_x = 0; dest_x < w; mask_x++, dest_x++, src_x++)
 1166              		.loc 1 1014 30 discriminator 1 view .LVU356
 1167 0312 049B     		ldr	r3, [sp, #16]
 1168 0314 9B45     		cmp	fp, r3
 1169 0316 BFF6AEAE 		bge	.L20
1015:Drivers/lvgl/src/draw/sw/blend/lv_draw_sw_blend_to_i1.c ****                         uint8_t src = lv_color16_luminance(src_buf_c16[src_x]);
 1170              		.loc 1 1015 32 is_stmt 0 view .LVU357
 1171 031a 4FF00009 		mov	r9, #0
1015:Drivers/lvgl/src/draw/sw/blend/lv_draw_sw_blend_to_i1.c ****                         uint8_t src = lv_color16_luminance(src_buf_c16[src_x]);
 1172              		.loc 1 1015 44 view .LVU358
 1173 031e 4F46     		mov	r7, r9
1015:Drivers/lvgl/src/draw/sw/blend/lv_draw_sw_blend_to_i1.c ****                         uint8_t src = lv_color16_luminance(src_buf_c16[src_x]);
 1174              		.loc 1 1015 55 view .LVU359
 1175 0320 CA46     		mov	r10, r9
 1176 0322 CDF818B0 		str	fp, [sp, #24]
 1177 0326 B5E7     		b	.L50
 1178              	.LVL127:
 1179              	.L63:
1014:Drivers/lvgl/src/draw/sw/blend/lv_draw_sw_blend_to_i1.c ****                     for(mask_x = 0, dest_x = 0, src_x = 0; dest_x < w; mask_x++, dest_x++, src_x++)
 1180              		.loc 1 1014 23 view .LVU360
 1181 0328 0024     		movs	r4, #0
 1182 032a 2A46     		mov	r2, r5
 1183 032c 3546     		mov	r5, r6
 1184              	.LVL128:
1014:Drivers/lvgl/src/draw/sw/blend/lv_draw_sw_blend_to_i1.c ****                     for(mask_x = 0, dest_x = 0, src_x = 0; dest_x < w; mask_x++, dest_x++, src_x++)
 1185              		.loc 1 1014 23 view .LVU361
 1186 032e CDF80080 		str	r8, [sp]
 1187 0332 D846     		mov	r8, fp
 1188              	.LVL129:
1014:Drivers/lvgl/src/draw/sw/blend/lv_draw_sw_blend_to_i1.c ****                     for(mask_x = 0, dest_x = 0, src_x = 0; dest_x < w; mask_x++, dest_x++, src_x++)
 1189              		.loc 1 1014 23 view .LVU362
 1190 0334 A346     		mov	fp, r4
 1191              	.LVL130:
1014:Drivers/lvgl/src/draw/sw/blend/lv_draw_sw_blend_to_i1.c ****                     for(mask_x = 0, dest_x = 0, src_x = 0; dest_x < w; mask_x++, dest_x++, src_x++)
 1192              		.loc 1 1014 23 view .LVU363
 1193 0336 CDF80CC0 		str	ip, [sp, #12]
 1194 033a 0793     		str	r3, [sp, #28]
 1195 033c 0591     		str	r1, [sp, #20]
 1196 033e 1646     		mov	r6, r2
 1197              	.LVL131:
1014:Drivers/lvgl/src/draw/sw/blend/lv_draw_sw_blend_to_i1.c ****                     for(mask_x = 0, dest_x = 0, src_x = 0; dest_x < w; mask_x++, dest_x++, src_x++)
 1198              		.loc 1 1014 23 view .LVU364
 1199 0340 E7E7     		b	.L45
 1200              	.LVL132:
 1201              	.L51:
1014:Drivers/lvgl/src/draw/sw/blend/lv_draw_sw_blend_to_i1.c ****                     for(mask_x = 0, dest_x = 0, src_x = 0; dest_x < w; mask_x++, dest_x++, src_x++)
 1202              		.loc 1 1014 23 view .LVU365
 1203              	.LBE400:
 1204              	.LBB417:
1041:Drivers/lvgl/src/draw/sw/blend/lv_draw_sw_blend_to_i1.c **** 
 1205              		.loc 1 1041 22 is_stmt 1 view .LVU366
ARM GAS  /tmp/cc9ag92L.s 			page 47


1041:Drivers/lvgl/src/draw/sw/blend/lv_draw_sw_blend_to_i1.c **** 
 1206              		.loc 1 1041 39 is_stmt 0 view .LVU367
 1207 0342 335D     		ldrb	r3, [r6, r4]	@ zero_extendqisi2
 1208 0344 009A     		ldr	r2, [sp]
 1209 0346 02FB03F3 		mul	r3, r2, r3
 1210 034a 1B0A     		lsrs	r3, r3, #8
1041:Drivers/lvgl/src/draw/sw/blend/lv_draw_sw_blend_to_i1.c **** 
 1211              		.loc 1 1041 37 view .LVU368
 1212 034c 8DF82730 		strb	r3, [sp, #39]
 1213              	.L52:
1043:Drivers/lvgl/src/draw/sw/blend/lv_draw_sw_blend_to_i1.c ****             }
 1214              		.loc 1 1043 17 is_stmt 1 view .LVU369
 1215 0350 9AF82230 		ldrb	r3, [r10, #34]	@ zero_extendqisi2
 1216 0354 099A     		ldr	r2, [sp, #36]
 1217 0356 07EB0901 		add	r1, r7, r9
 1218 035a 5846     		mov	r0, fp
 1219 035c FFF7FEFF 		bl	blend_non_normal_pixel
 1220              	.LVL133:
1036:Drivers/lvgl/src/draw/sw/blend/lv_draw_sw_blend_to_i1.c ****                 src_argb.red = (src_buf_c16[src_x].red * 2106) >> 8;
 1221              		.loc 1 1036 58 discriminator 2 view .LVU370
1036:Drivers/lvgl/src/draw/sw/blend/lv_draw_sw_blend_to_i1.c ****                 src_argb.red = (src_buf_c16[src_x].red * 2106) >> 8;
 1222              		.loc 1 1036 56 is_stmt 0 discriminator 2 view .LVU371
 1223 0360 0134     		adds	r4, r4, #1
 1224              	.LVL134:
1036:Drivers/lvgl/src/draw/sw/blend/lv_draw_sw_blend_to_i1.c ****                 src_argb.red = (src_buf_c16[src_x].red * 2106) >> 8;
 1225              		.loc 1 1036 66 discriminator 2 view .LVU372
 1226 0362 0137     		adds	r7, r7, #1
 1227              	.LVL135:
 1228              	.L55:
1036:Drivers/lvgl/src/draw/sw/blend/lv_draw_sw_blend_to_i1.c ****                 src_argb.red = (src_buf_c16[src_x].red * 2106) >> 8;
 1229              		.loc 1 1036 46 is_stmt 1 discriminator 1 view .LVU373
 1230 0364 4445     		cmp	r4, r8
 1231 0366 24DA     		bge	.L82
1037:Drivers/lvgl/src/draw/sw/blend/lv_draw_sw_blend_to_i1.c ****                 src_argb.green = (src_buf_c16[src_x].green * 1037) >> 8;
 1232              		.loc 1 1037 17 view .LVU374
1037:Drivers/lvgl/src/draw/sw/blend/lv_draw_sw_blend_to_i1.c ****                 src_argb.green = (src_buf_c16[src_x].green * 1037) >> 8;
 1233              		.loc 1 1037 44 is_stmt 0 view .LVU375
 1234 0368 05EB4403 		add	r3, r5, r4, lsl #1
1037:Drivers/lvgl/src/draw/sw/blend/lv_draw_sw_blend_to_i1.c ****                 src_argb.green = (src_buf_c16[src_x].green * 1037) >> 8;
 1235              		.loc 1 1037 51 view .LVU376
 1236 036c 5B78     		ldrb	r3, [r3, #1]	@ zero_extendqisi2
 1237 036e DB08     		lsrs	r3, r3, #3
1037:Drivers/lvgl/src/draw/sw/blend/lv_draw_sw_blend_to_i1.c ****                 src_argb.green = (src_buf_c16[src_x].green * 1037) >> 8;
 1238              		.loc 1 1037 56 view .LVU377
 1239 0370 40F63A02 		movw	r2, #2106
 1240 0374 02FB03F3 		mul	r3, r2, r3
1037:Drivers/lvgl/src/draw/sw/blend/lv_draw_sw_blend_to_i1.c ****                 src_argb.green = (src_buf_c16[src_x].green * 1037) >> 8;
 1241              		.loc 1 1037 64 view .LVU378
 1242 0378 1B12     		asrs	r3, r3, #8
1037:Drivers/lvgl/src/draw/sw/blend/lv_draw_sw_blend_to_i1.c ****                 src_argb.green = (src_buf_c16[src_x].green * 1037) >> 8;
 1243              		.loc 1 1037 30 view .LVU379
 1244 037a 8DF82630 		strb	r3, [sp, #38]
1038:Drivers/lvgl/src/draw/sw/blend/lv_draw_sw_blend_to_i1.c ****                 src_argb.blue = (src_buf_c16[src_x].blue * 2106) >> 8;
 1245              		.loc 1 1038 17 is_stmt 1 view .LVU380
1038:Drivers/lvgl/src/draw/sw/blend/lv_draw_sw_blend_to_i1.c ****                 src_argb.blue = (src_buf_c16[src_x].blue * 2106) >> 8;
 1246              		.loc 1 1038 53 is_stmt 0 view .LVU381
 1247 037e 35F81430 		ldrh	r3, [r5, r4, lsl #1]
ARM GAS  /tmp/cc9ag92L.s 			page 48


 1248 0382 C3F34513 		ubfx	r3, r3, #5, #6
1038:Drivers/lvgl/src/draw/sw/blend/lv_draw_sw_blend_to_i1.c ****                 src_argb.blue = (src_buf_c16[src_x].blue * 2106) >> 8;
 1249              		.loc 1 1038 60 view .LVU382
 1250 0386 40F20D41 		movw	r1, #1037
 1251 038a 01FB03F3 		mul	r3, r1, r3
1038:Drivers/lvgl/src/draw/sw/blend/lv_draw_sw_blend_to_i1.c ****                 src_argb.blue = (src_buf_c16[src_x].blue * 2106) >> 8;
 1252              		.loc 1 1038 68 view .LVU383
 1253 038e 1B12     		asrs	r3, r3, #8
1038:Drivers/lvgl/src/draw/sw/blend/lv_draw_sw_blend_to_i1.c ****                 src_argb.blue = (src_buf_c16[src_x].blue * 2106) >> 8;
 1254              		.loc 1 1038 32 view .LVU384
 1255 0390 8DF82530 		strb	r3, [sp, #37]
1039:Drivers/lvgl/src/draw/sw/blend/lv_draw_sw_blend_to_i1.c ****                 if(mask_buf == NULL) src_argb.alpha = opa;
 1256              		.loc 1 1039 17 is_stmt 1 view .LVU385
1039:Drivers/lvgl/src/draw/sw/blend/lv_draw_sw_blend_to_i1.c ****                 if(mask_buf == NULL) src_argb.alpha = opa;
 1257              		.loc 1 1039 52 is_stmt 0 view .LVU386
 1258 0394 15F81430 		ldrb	r3, [r5, r4, lsl #1]	@ zero_extendqisi2
 1259 0398 03F01F03 		and	r3, r3, #31
1039:Drivers/lvgl/src/draw/sw/blend/lv_draw_sw_blend_to_i1.c ****                 if(mask_buf == NULL) src_argb.alpha = opa;
 1260              		.loc 1 1039 58 view .LVU387
 1261 039c 02FB03F3 		mul	r3, r2, r3
1039:Drivers/lvgl/src/draw/sw/blend/lv_draw_sw_blend_to_i1.c ****                 if(mask_buf == NULL) src_argb.alpha = opa;
 1262              		.loc 1 1039 66 view .LVU388
 1263 03a0 1B12     		asrs	r3, r3, #8
1039:Drivers/lvgl/src/draw/sw/blend/lv_draw_sw_blend_to_i1.c ****                 if(mask_buf == NULL) src_argb.alpha = opa;
 1264              		.loc 1 1039 31 view .LVU389
 1265 03a2 8DF82430 		strb	r3, [sp, #36]
1040:Drivers/lvgl/src/draw/sw/blend/lv_draw_sw_blend_to_i1.c ****                 else src_argb.alpha = LV_OPA_MIX2(mask_buf[src_x], opa);
 1266              		.loc 1 1040 17 is_stmt 1 view .LVU390
1040:Drivers/lvgl/src/draw/sw/blend/lv_draw_sw_blend_to_i1.c ****                 else src_argb.alpha = LV_OPA_MIX2(mask_buf[src_x], opa);
 1267              		.loc 1 1040 19 is_stmt 0 view .LVU391
 1268 03a6 002E     		cmp	r6, #0
 1269 03a8 CBD1     		bne	.L51
1040:Drivers/lvgl/src/draw/sw/blend/lv_draw_sw_blend_to_i1.c ****                 else src_argb.alpha = LV_OPA_MIX2(mask_buf[src_x], opa);
 1270              		.loc 1 1040 38 is_stmt 1 discriminator 1 view .LVU392
1040:Drivers/lvgl/src/draw/sw/blend/lv_draw_sw_blend_to_i1.c ****                 else src_argb.alpha = LV_OPA_MIX2(mask_buf[src_x], opa);
 1271              		.loc 1 1040 53 is_stmt 0 discriminator 1 view .LVU393
 1272 03aa 009B     		ldr	r3, [sp]
 1273 03ac 8DF82730 		strb	r3, [sp, #39]
 1274 03b0 CEE7     		b	.L52
 1275              	.L82:
1045:Drivers/lvgl/src/draw/sw/blend/lv_draw_sw_blend_to_i1.c ****             dest_buf_u8 = drawbuf_next_row(dest_buf_u8, dest_stride);
 1276              		.loc 1 1045 15 view .LVU394
 1277 03b2 0398     		ldr	r0, [sp, #12]
1045:Drivers/lvgl/src/draw/sw/blend/lv_draw_sw_blend_to_i1.c ****             dest_buf_u8 = drawbuf_next_row(dest_buf_u8, dest_stride);
 1278              		.loc 1 1045 13 is_stmt 1 view .LVU395
1045:Drivers/lvgl/src/draw/sw/blend/lv_draw_sw_blend_to_i1.c ****             dest_buf_u8 = drawbuf_next_row(dest_buf_u8, dest_stride);
 1279              		.loc 1 1045 15 is_stmt 0 view .LVU396
 1280 03b4 0EB1     		cbz	r6, .L54
1045:Drivers/lvgl/src/draw/sw/blend/lv_draw_sw_blend_to_i1.c ****             dest_buf_u8 = drawbuf_next_row(dest_buf_u8, dest_stride);
 1281              		.loc 1 1045 26 is_stmt 1 discriminator 1 view .LVU397
1045:Drivers/lvgl/src/draw/sw/blend/lv_draw_sw_blend_to_i1.c ****             dest_buf_u8 = drawbuf_next_row(dest_buf_u8, dest_stride);
 1282              		.loc 1 1045 35 is_stmt 0 discriminator 1 view .LVU398
 1283 03b6 059B     		ldr	r3, [sp, #20]
 1284 03b8 1E44     		add	r6, r6, r3
 1285              	.LVL136:
 1286              	.L54:
1046:Drivers/lvgl/src/draw/sw/blend/lv_draw_sw_blend_to_i1.c ****             src_buf_c16 = drawbuf_next_row(src_buf_c16, src_stride);
ARM GAS  /tmp/cc9ag92L.s 			page 49


 1287              		.loc 1 1046 13 is_stmt 1 view .LVU399
 1288              	.LBB418:
 1289              	.LBI418:
1100:Drivers/lvgl/src/draw/sw/blend/lv_draw_sw_blend_to_i1.c **** {
 1290              		.loc 1 1100 44 view .LVU400
 1291              	.LBB419:
1102:Drivers/lvgl/src/draw/sw/blend/lv_draw_sw_blend_to_i1.c **** }
 1292              		.loc 1 1102 5 view .LVU401
1102:Drivers/lvgl/src/draw/sw/blend/lv_draw_sw_blend_to_i1.c **** }
 1293              		.loc 1 1102 12 is_stmt 0 view .LVU402
 1294 03ba 019B     		ldr	r3, [sp, #4]
 1295 03bc 9B44     		add	fp, fp, r3
 1296              	.LVL137:
1102:Drivers/lvgl/src/draw/sw/blend/lv_draw_sw_blend_to_i1.c **** }
 1297              		.loc 1 1102 12 view .LVU403
 1298              	.LBE419:
 1299              	.LBE418:
1047:Drivers/lvgl/src/draw/sw/blend/lv_draw_sw_blend_to_i1.c ****         }
 1300              		.loc 1 1047 13 is_stmt 1 view .LVU404
 1301              	.LBB420:
 1302              	.LBI420:
1100:Drivers/lvgl/src/draw/sw/blend/lv_draw_sw_blend_to_i1.c **** {
 1303              		.loc 1 1100 44 view .LVU405
 1304              	.LBB421:
1102:Drivers/lvgl/src/draw/sw/blend/lv_draw_sw_blend_to_i1.c **** }
 1305              		.loc 1 1102 5 view .LVU406
1102:Drivers/lvgl/src/draw/sw/blend/lv_draw_sw_blend_to_i1.c **** }
 1306              		.loc 1 1102 12 is_stmt 0 view .LVU407
 1307 03be 029B     		ldr	r3, [sp, #8]
 1308 03c0 1D44     		add	r5, r5, r3
 1309              	.LVL138:
1102:Drivers/lvgl/src/draw/sw/blend/lv_draw_sw_blend_to_i1.c **** }
 1310              		.loc 1 1102 12 view .LVU408
 1311              	.LBE421:
 1312              	.LBE420:
1035:Drivers/lvgl/src/draw/sw/blend/lv_draw_sw_blend_to_i1.c ****             for(src_x = 0, dest_x = 0; src_x < w; src_x++, dest_x++) {
 1313              		.loc 1 1035 28 is_stmt 1 discriminator 2 view .LVU409
 1314 03c2 0130     		adds	r0, r0, #1
 1315              	.LVL139:
 1316              	.L21:
1035:Drivers/lvgl/src/draw/sw/blend/lv_draw_sw_blend_to_i1.c ****             for(src_x = 0, dest_x = 0; src_x < w; src_x++, dest_x++) {
 1317              		.loc 1 1035 22 discriminator 1 view .LVU410
 1318 03c4 049B     		ldr	r3, [sp, #16]
 1319 03c6 9842     		cmp	r0, r3
 1320 03c8 BFF655AE 		bge	.L20
1036:Drivers/lvgl/src/draw/sw/blend/lv_draw_sw_blend_to_i1.c ****                 src_argb.red = (src_buf_c16[src_x].red * 2106) >> 8;
 1321              		.loc 1 1036 35 is_stmt 0 view .LVU411
 1322 03cc 0027     		movs	r7, #0
1036:Drivers/lvgl/src/draw/sw/blend/lv_draw_sw_blend_to_i1.c ****                 src_argb.red = (src_buf_c16[src_x].red * 2106) >> 8;
 1323              		.loc 1 1036 23 view .LVU412
 1324 03ce 3C46     		mov	r4, r7
 1325 03d0 0390     		str	r0, [sp, #12]
 1326 03d2 C7E7     		b	.L55
 1327              	.LVL140:
 1328              	.L56:
1036:Drivers/lvgl/src/draw/sw/blend/lv_draw_sw_blend_to_i1.c ****                 src_argb.red = (src_buf_c16[src_x].red * 2106) >> 8;
 1329              		.loc 1 1036 23 view .LVU413
ARM GAS  /tmp/cc9ag92L.s 			page 50


 1330 03d4 8246     		mov	r10, r0
1035:Drivers/lvgl/src/draw/sw/blend/lv_draw_sw_blend_to_i1.c ****             for(src_x = 0, dest_x = 0; src_x < w; src_x++, dest_x++) {
 1331              		.loc 1 1035 15 view .LVU414
 1332 03d6 4FF00009 		mov	r9, #0
 1333 03da 5A46     		mov	r2, fp
 1334 03dc B346     		mov	fp, r6
 1335              	.LVL141:
1035:Drivers/lvgl/src/draw/sw/blend/lv_draw_sw_blend_to_i1.c ****             for(src_x = 0, dest_x = 0; src_x < w; src_x++, dest_x++) {
 1336              		.loc 1 1035 15 view .LVU415
 1337 03de 4846     		mov	r0, r9
 1338              	.LVL142:
1035:Drivers/lvgl/src/draw/sw/blend/lv_draw_sw_blend_to_i1.c ****             for(src_x = 0, dest_x = 0; src_x < w; src_x++, dest_x++) {
 1339              		.loc 1 1035 15 view .LVU416
 1340 03e0 CDF800C0 		str	ip, [sp]
 1341 03e4 0593     		str	r3, [sp, #20]
 1342 03e6 8946     		mov	r9, r1
 1343 03e8 1646     		mov	r6, r2
 1344              	.LVL143:
1035:Drivers/lvgl/src/draw/sw/blend/lv_draw_sw_blend_to_i1.c ****             for(src_x = 0, dest_x = 0; src_x < w; src_x++, dest_x++) {
 1345              		.loc 1 1035 15 view .LVU417
 1346 03ea EBE7     		b	.L21
 1347              	.LBE417:
 1348              		.cfi_endproc
 1349              	.LFE193:
 1351              		.section	.text.l8_image_blend,"ax",%progbits
 1352              		.align	1
 1353              		.syntax unified
 1354              		.thumb
 1355              		.thumb_func
 1357              	l8_image_blend:
 1358              	.LVL144:
 1359              	.LFB189:
 474:Drivers/lvgl/src/draw/sw/blend/lv_draw_sw_blend_to_i1.c ****     int32_t w = dsc->dest_w;
 1360              		.loc 1 474 1 is_stmt 1 view -0
 1361              		.cfi_startproc
 1362              		@ args = 0, pretend = 0, frame = 40
 1363              		@ frame_needed = 0, uses_anonymous_args = 0
 474:Drivers/lvgl/src/draw/sw/blend/lv_draw_sw_blend_to_i1.c ****     int32_t w = dsc->dest_w;
 1364              		.loc 1 474 1 is_stmt 0 view .LVU419
 1365 0000 2DE9F04F 		push	{r4, r5, r6, r7, r8, r9, r10, fp, lr}
 1366              	.LCFI8:
 1367              		.cfi_def_cfa_offset 36
 1368              		.cfi_offset 4, -36
 1369              		.cfi_offset 5, -32
 1370              		.cfi_offset 6, -28
 1371              		.cfi_offset 7, -24
 1372              		.cfi_offset 8, -20
 1373              		.cfi_offset 9, -16
 1374              		.cfi_offset 10, -12
 1375              		.cfi_offset 11, -8
 1376              		.cfi_offset 14, -4
 1377 0004 8BB0     		sub	sp, sp, #44
 1378              	.LCFI9:
 1379              		.cfi_def_cfa_offset 80
 1380 0006 8346     		mov	fp, r0
 475:Drivers/lvgl/src/draw/sw/blend/lv_draw_sw_blend_to_i1.c ****     int32_t h = dsc->dest_h;
 1381              		.loc 1 475 5 is_stmt 1 view .LVU420
ARM GAS  /tmp/cc9ag92L.s 			page 51


 475:Drivers/lvgl/src/draw/sw/blend/lv_draw_sw_blend_to_i1.c ****     int32_t h = dsc->dest_h;
 1382              		.loc 1 475 13 is_stmt 0 view .LVU421
 1383 0008 4768     		ldr	r7, [r0, #4]
 1384              	.LVL145:
 476:Drivers/lvgl/src/draw/sw/blend/lv_draw_sw_blend_to_i1.c ****     lv_opa_t opa = dsc->opa;
 1385              		.loc 1 476 5 is_stmt 1 view .LVU422
 476:Drivers/lvgl/src/draw/sw/blend/lv_draw_sw_blend_to_i1.c ****     lv_opa_t opa = dsc->opa;
 1386              		.loc 1 476 13 is_stmt 0 view .LVU423
 1387 000a D0F80880 		ldr	r8, [r0, #8]
 1388              	.LVL146:
 477:Drivers/lvgl/src/draw/sw/blend/lv_draw_sw_blend_to_i1.c ****     uint8_t * dest_buf_i1 = dsc->dest_buf;
 1389              		.loc 1 477 5 is_stmt 1 view .LVU424
 477:Drivers/lvgl/src/draw/sw/blend/lv_draw_sw_blend_to_i1.c ****     uint8_t * dest_buf_i1 = dsc->dest_buf;
 1390              		.loc 1 477 14 is_stmt 0 view .LVU425
 1391 000e 90F82110 		ldrb	r1, [r0, #33]	@ zero_extendqisi2
 1392              	.LVL147:
 478:Drivers/lvgl/src/draw/sw/blend/lv_draw_sw_blend_to_i1.c ****     int32_t dest_stride = dsc->dest_stride;
 1393              		.loc 1 478 5 is_stmt 1 view .LVU426
 478:Drivers/lvgl/src/draw/sw/blend/lv_draw_sw_blend_to_i1.c ****     int32_t dest_stride = dsc->dest_stride;
 1394              		.loc 1 478 15 is_stmt 0 view .LVU427
 1395 0012 0468     		ldr	r4, [r0]
 1396              	.LVL148:
 479:Drivers/lvgl/src/draw/sw/blend/lv_draw_sw_blend_to_i1.c ****     const uint8_t * src_buf_l8 = dsc->src_buf;
 1397              		.loc 1 479 5 is_stmt 1 view .LVU428
 479:Drivers/lvgl/src/draw/sw/blend/lv_draw_sw_blend_to_i1.c ****     const uint8_t * src_buf_l8 = dsc->src_buf;
 1398              		.loc 1 479 13 is_stmt 0 view .LVU429
 1399 0014 D0F80CE0 		ldr	lr, [r0, #12]
 1400              	.LVL149:
 480:Drivers/lvgl/src/draw/sw/blend/lv_draw_sw_blend_to_i1.c ****     int32_t src_stride = dsc->src_stride;
 1401              		.loc 1 480 5 is_stmt 1 view .LVU430
 480:Drivers/lvgl/src/draw/sw/blend/lv_draw_sw_blend_to_i1.c ****     int32_t src_stride = dsc->src_stride;
 1402              		.loc 1 480 21 is_stmt 0 view .LVU431
 1403 0018 8669     		ldr	r6, [r0, #24]
 1404              	.LVL150:
 481:Drivers/lvgl/src/draw/sw/blend/lv_draw_sw_blend_to_i1.c ****     const lv_opa_t * mask_buf = dsc->mask_buf;
 1405              		.loc 1 481 5 is_stmt 1 view .LVU432
 481:Drivers/lvgl/src/draw/sw/blend/lv_draw_sw_blend_to_i1.c ****     const lv_opa_t * mask_buf = dsc->mask_buf;
 1406              		.loc 1 481 13 is_stmt 0 view .LVU433
 1407 001a C269     		ldr	r2, [r0, #28]
 1408              	.LVL151:
 482:Drivers/lvgl/src/draw/sw/blend/lv_draw_sw_blend_to_i1.c ****     int32_t mask_stride = dsc->mask_stride;
 1409              		.loc 1 482 5 is_stmt 1 view .LVU434
 482:Drivers/lvgl/src/draw/sw/blend/lv_draw_sw_blend_to_i1.c ****     int32_t mask_stride = dsc->mask_stride;
 1410              		.loc 1 482 22 is_stmt 0 view .LVU435
 1411 001c 0569     		ldr	r5, [r0, #16]
 1412              	.LVL152:
 483:Drivers/lvgl/src/draw/sw/blend/lv_draw_sw_blend_to_i1.c **** 
 1413              		.loc 1 483 5 is_stmt 1 view .LVU436
 483:Drivers/lvgl/src/draw/sw/blend/lv_draw_sw_blend_to_i1.c **** 
 1414              		.loc 1 483 13 is_stmt 0 view .LVU437
 1415 001e D0F814C0 		ldr	ip, [r0, #20]
 1416              	.LVL153:
 485:Drivers/lvgl/src/draw/sw/blend/lv_draw_sw_blend_to_i1.c ****     int32_t y;
 1417              		.loc 1 485 5 is_stmt 1 view .LVU438
 486:Drivers/lvgl/src/draw/sw/blend/lv_draw_sw_blend_to_i1.c **** 
 1418              		.loc 1 486 5 view .LVU439
 488:Drivers/lvgl/src/draw/sw/blend/lv_draw_sw_blend_to_i1.c **** 
ARM GAS  /tmp/cc9ag92L.s 			page 52


 1419              		.loc 1 488 5 view .LVU440
 488:Drivers/lvgl/src/draw/sw/blend/lv_draw_sw_blend_to_i1.c **** 
 1420              		.loc 1 488 41 is_stmt 0 view .LVU441
 1421 0022 436A     		ldr	r3, [r0, #36]
 488:Drivers/lvgl/src/draw/sw/blend/lv_draw_sw_blend_to_i1.c **** 
 1422              		.loc 1 488 13 view .LVU442
 1423 0024 5842     		rsbs	r0, r3, #0
 1424              	.LVL154:
 488:Drivers/lvgl/src/draw/sw/blend/lv_draw_sw_blend_to_i1.c **** 
 1425              		.loc 1 488 13 view .LVU443
 1426 0026 03F00703 		and	r3, r3, #7
 1427 002a 00F00700 		and	r0, r0, #7
 1428 002e 58BF     		it	pl
 1429 0030 4342     		rsbpl	r3, r0, #0
 1430              	.LVL155:
 490:Drivers/lvgl/src/draw/sw/blend/lv_draw_sw_blend_to_i1.c ****         if(mask_buf == NULL && opa >= LV_OPA_MAX) {
 1431              		.loc 1 490 5 is_stmt 1 view .LVU444
 490:Drivers/lvgl/src/draw/sw/blend/lv_draw_sw_blend_to_i1.c ****         if(mask_buf == NULL && opa >= LV_OPA_MAX) {
 1432              		.loc 1 490 11 is_stmt 0 view .LVU445
 1433 0032 9BF82200 		ldrb	r0, [fp, #34]	@ zero_extendqisi2
 490:Drivers/lvgl/src/draw/sw/blend/lv_draw_sw_blend_to_i1.c ****         if(mask_buf == NULL && opa >= LV_OPA_MAX) {
 1434              		.loc 1 490 7 view .LVU446
 1435 0036 0028     		cmp	r0, #0
 1436 0038 40F0CC81 		bne	.L119
 491:Drivers/lvgl/src/draw/sw/blend/lv_draw_sw_blend_to_i1.c ****             if(LV_RESULT_INVALID == LV_DRAW_SW_L8_BLEND_NORMAL_TO_I1(dsc)) {
 1437              		.loc 1 491 9 is_stmt 1 view .LVU447
 491:Drivers/lvgl/src/draw/sw/blend/lv_draw_sw_blend_to_i1.c ****             if(LV_RESULT_INVALID == LV_DRAW_SW_L8_BLEND_NORMAL_TO_I1(dsc)) {
 1438              		.loc 1 491 21 is_stmt 0 view .LVU448
 1439 003c B5FA85F0 		clz	r0, r5
 1440 0040 4009     		lsrs	r0, r0, #5
 491:Drivers/lvgl/src/draw/sw/blend/lv_draw_sw_blend_to_i1.c ****             if(LV_RESULT_INVALID == LV_DRAW_SW_L8_BLEND_NORMAL_TO_I1(dsc)) {
 1441              		.loc 1 491 36 view .LVU449
 1442 0042 FC29     		cmp	r1, #252
 1443 0044 94BF     		ite	ls
 1444 0046 4FF00009 		movls	r9, #0
 1445 004a 4FF00109 		movhi	r9, #1
 491:Drivers/lvgl/src/draw/sw/blend/lv_draw_sw_blend_to_i1.c ****             if(LV_RESULT_INVALID == LV_DRAW_SW_L8_BLEND_NORMAL_TO_I1(dsc)) {
 1446              		.loc 1 491 11 view .LVU450
 1447 004e 10EA090F 		tst	r0, r9
 1448 0052 65D1     		bne	.L120
 507:Drivers/lvgl/src/draw/sw/blend/lv_draw_sw_blend_to_i1.c ****             if(LV_RESULT_INVALID == LV_DRAW_SW_L8_BLEND_NORMAL_TO_I1_WITH_OPA(dsc)) {
 1449              		.loc 1 507 14 is_stmt 1 view .LVU451
 507:Drivers/lvgl/src/draw/sw/blend/lv_draw_sw_blend_to_i1.c ****             if(LV_RESULT_INVALID == LV_DRAW_SW_L8_BLEND_NORMAL_TO_I1_WITH_OPA(dsc)) {
 1450              		.loc 1 507 41 is_stmt 0 view .LVU452
 1451 0054 FC29     		cmp	r1, #252
 1452 0056 8CBF     		ite	hi
 1453 0058 4FF0000A 		movhi	r10, #0
 1454 005c 4FF0010A 		movls	r10, #1
 507:Drivers/lvgl/src/draw/sw/blend/lv_draw_sw_blend_to_i1.c ****             if(LV_RESULT_INVALID == LV_DRAW_SW_L8_BLEND_NORMAL_TO_I1_WITH_OPA(dsc)) {
 1455              		.loc 1 507 16 view .LVU453
 1456 0060 10EA0A0F 		tst	r0, r10
 1457 0064 40F0AC80 		bne	.L122
 525:Drivers/lvgl/src/draw/sw/blend/lv_draw_sw_blend_to_i1.c ****             if(LV_RESULT_INVALID == LV_DRAW_SW_L8_BLEND_NORMAL_TO_I1_WITH_MASK(dsc)) {
 1458              		.loc 1 525 14 is_stmt 1 view .LVU454
 525:Drivers/lvgl/src/draw/sw/blend/lv_draw_sw_blend_to_i1.c ****             if(LV_RESULT_INVALID == LV_DRAW_SW_L8_BLEND_NORMAL_TO_I1_WITH_MASK(dsc)) {
 1459              		.loc 1 525 17 is_stmt 0 view .LVU455
 1460 0068 281E     		subs	r0, r5, #0
ARM GAS  /tmp/cc9ag92L.s 			page 53


 1461 006a 18BF     		it	ne
 1462 006c 0120     		movne	r0, #1
 525:Drivers/lvgl/src/draw/sw/blend/lv_draw_sw_blend_to_i1.c ****             if(LV_RESULT_INVALID == LV_DRAW_SW_L8_BLEND_NORMAL_TO_I1_WITH_MASK(dsc)) {
 1463              		.loc 1 525 16 view .LVU456
 1464 006e 19EA000F 		tst	r9, r0
 1465 0072 40F00581 		bne	.L124
 545:Drivers/lvgl/src/draw/sw/blend/lv_draw_sw_blend_to_i1.c ****             if(LV_RESULT_INVALID == LV_DRAW_SW_L8_BLEND_NORMAL_TO_I1_MIX_MASK_OPA(dsc)) {
 1466              		.loc 1 545 14 is_stmt 1 view .LVU457
 545:Drivers/lvgl/src/draw/sw/blend/lv_draw_sw_blend_to_i1.c ****             if(LV_RESULT_INVALID == LV_DRAW_SW_L8_BLEND_NORMAL_TO_I1_MIX_MASK_OPA(dsc)) {
 1467              		.loc 1 545 16 is_stmt 0 view .LVU458
 1468 0076 1AEA000F 		tst	r10, r0
 1469 007a 40F06381 		bne	.L126
 1470              	.LVL156:
 1471              	.L83:
 582:Drivers/lvgl/src/draw/sw/blend/lv_draw_sw_blend_to_i1.c **** #endif
 1472              		.loc 1 582 1 view .LVU459
 1473 007e 0BB0     		add	sp, sp, #44
 1474              	.LCFI10:
 1475              		.cfi_remember_state
 1476              		.cfi_def_cfa_offset 36
 1477              		@ sp needed
 1478 0080 BDE8F08F 		pop	{r4, r5, r6, r7, r8, r9, r10, fp, pc}
 1479              	.LVL157:
 1480              	.L135:
 1481              	.LCFI11:
 1482              		.cfi_restore_state
 496:Drivers/lvgl/src/draw/sw/blend/lv_draw_sw_blend_to_i1.c ****                         }
 1483              		.loc 1 496 29 is_stmt 1 view .LVU460
 1484 0084 E918     		adds	r1, r5, r3
 1485              	.LVL158:
 1486              	.LBB422:
 1487              	.LBI422:
1105:Drivers/lvgl/src/draw/sw/blend/lv_draw_sw_blend_to_i1.c **** {
 1488              		.loc 1 1105 42 view .LVU461
 1489              	.LBB423:
1107:Drivers/lvgl/src/draw/sw/blend/lv_draw_sw_blend_to_i1.c **** }
 1490              		.loc 1 1107 5 view .LVU462
1107:Drivers/lvgl/src/draw/sw/blend/lv_draw_sw_blend_to_i1.c **** }
 1491              		.loc 1 1107 17 is_stmt 0 view .LVU463
 1492 0086 8C46     		mov	ip, r1
 1493 0088 0029     		cmp	r1, #0
 1494 008a 17DB     		blt	.L133
 1495              	.L88:
1107:Drivers/lvgl/src/draw/sw/blend/lv_draw_sw_blend_to_i1.c **** }
 1496              		.loc 1 1107 17 view .LVU464
 1497 008c 4FEAEC0C 		asr	ip, ip, #3
1107:Drivers/lvgl/src/draw/sw/blend/lv_draw_sw_blend_to_i1.c **** }
 1498              		.loc 1 1107 8 view .LVU465
 1499 0090 14F80C90 		ldrb	r9, [r4, ip]	@ zero_extendqisi2
1107:Drivers/lvgl/src/draw/sw/blend/lv_draw_sw_blend_to_i1.c **** }
 1500              		.loc 1 1107 45 view .LVU466
 1501 0094 D1F1000B 		rsbs	fp, r1, #0
 1502 0098 01F00701 		and	r1, r1, #7
 1503              	.LVL159:
1107:Drivers/lvgl/src/draw/sw/blend/lv_draw_sw_blend_to_i1.c **** }
 1504              		.loc 1 1107 45 view .LVU467
 1505 009c 0BF0070B 		and	fp, fp, #7
ARM GAS  /tmp/cc9ag92L.s 			page 54


 1506 00a0 58BF     		it	pl
 1507 00a2 CBF10001 		rsbpl	r1, fp, #0
1107:Drivers/lvgl/src/draw/sw/blend/lv_draw_sw_blend_to_i1.c **** }
 1508              		.loc 1 1107 34 view .LVU468
 1509 00a6 C1F10701 		rsb	r1, r1, #7
1107:Drivers/lvgl/src/draw/sw/blend/lv_draw_sw_blend_to_i1.c **** }
 1510              		.loc 1 1107 28 view .LVU469
 1511 00aa 4FF0010B 		mov	fp, #1
 1512 00ae 0BFA01F1 		lsl	r1, fp, r1
1107:Drivers/lvgl/src/draw/sw/blend/lv_draw_sw_blend_to_i1.c **** }
 1513              		.loc 1 1107 22 view .LVU470
 1514 00b2 49EA0109 		orr	r9, r9, r1
 1515 00b6 04F80C90 		strb	r9, [r4, ip]
 1516              	.LVL160:
1108:Drivers/lvgl/src/draw/sw/blend/lv_draw_sw_blend_to_i1.c **** 
 1517              		.loc 1 1108 1 view .LVU471
 1518 00ba 1AE0     		b	.L89
 1519              	.LVL161:
 1520              	.L133:
1107:Drivers/lvgl/src/draw/sw/blend/lv_draw_sw_blend_to_i1.c **** }
 1521              		.loc 1 1107 17 view .LVU472
 1522 00bc 01F1070C 		add	ip, r1, #7
 1523 00c0 E4E7     		b	.L88
 1524              	.LVL162:
 1525              	.L90:
1107:Drivers/lvgl/src/draw/sw/blend/lv_draw_sw_blend_to_i1.c **** }
 1526              		.loc 1 1107 17 view .LVU473
 1527              	.LBE423:
 1528              	.LBE422:
 1529              	.LBB424:
 1530              	.LBB425:
1112:Drivers/lvgl/src/draw/sw/blend/lv_draw_sw_blend_to_i1.c **** }
 1531              		.loc 1 1112 17 view .LVU474
 1532 00c2 4FEAEC0C 		asr	ip, ip, #3
1112:Drivers/lvgl/src/draw/sw/blend/lv_draw_sw_blend_to_i1.c **** }
 1533              		.loc 1 1112 8 view .LVU475
 1534 00c6 14F80C90 		ldrb	r9, [r4, ip]	@ zero_extendqisi2
1112:Drivers/lvgl/src/draw/sw/blend/lv_draw_sw_blend_to_i1.c **** }
 1535              		.loc 1 1112 46 view .LVU476
 1536 00ca D1F1000B 		rsbs	fp, r1, #0
 1537 00ce 01F00701 		and	r1, r1, #7
 1538              	.LVL163:
1112:Drivers/lvgl/src/draw/sw/blend/lv_draw_sw_blend_to_i1.c **** }
 1539              		.loc 1 1112 46 view .LVU477
 1540 00d2 0BF0070B 		and	fp, fp, #7
 1541 00d6 58BF     		it	pl
 1542 00d8 CBF10001 		rsbpl	r1, fp, #0
1112:Drivers/lvgl/src/draw/sw/blend/lv_draw_sw_blend_to_i1.c **** }
 1543              		.loc 1 1112 35 view .LVU478
 1544 00dc C1F1070B 		rsb	fp, r1, #7
1112:Drivers/lvgl/src/draw/sw/blend/lv_draw_sw_blend_to_i1.c **** }
 1545              		.loc 1 1112 29 view .LVU479
 1546 00e0 0121     		movs	r1, #1
 1547 00e2 01FA0BF1 		lsl	r1, r1, fp
1112:Drivers/lvgl/src/draw/sw/blend/lv_draw_sw_blend_to_i1.c **** }
 1548              		.loc 1 1112 22 view .LVU480
 1549 00e6 C943     		mvns	r1, r1
ARM GAS  /tmp/cc9ag92L.s 			page 55


 1550 00e8 49B2     		sxtb	r1, r1
 1551 00ea 09EA0109 		and	r9, r9, r1
 1552 00ee 04F80C90 		strb	r9, [r4, ip]
 1553              	.LVL164:
 1554              	.L89:
1112:Drivers/lvgl/src/draw/sw/blend/lv_draw_sw_blend_to_i1.c **** }
 1555              		.loc 1 1112 22 view .LVU481
 1556              	.LBE425:
 1557              	.LBE424:
 494:Drivers/lvgl/src/draw/sw/blend/lv_draw_sw_blend_to_i1.c ****                         if(src_buf_l8[src_x] > I1_LUM_THRESHOLD) {
 1558              		.loc 1 494 67 is_stmt 1 discriminator 2 view .LVU482
 494:Drivers/lvgl/src/draw/sw/blend/lv_draw_sw_blend_to_i1.c ****                         if(src_buf_l8[src_x] > I1_LUM_THRESHOLD) {
 1559              		.loc 1 494 65 is_stmt 0 discriminator 2 view .LVU483
 1560 00f2 0135     		adds	r5, r5, #1
 1561              	.LVL165:
 494:Drivers/lvgl/src/draw/sw/blend/lv_draw_sw_blend_to_i1.c ****                         if(src_buf_l8[src_x] > I1_LUM_THRESHOLD) {
 1562              		.loc 1 494 74 discriminator 2 view .LVU484
 1563 00f4 0130     		adds	r0, r0, #1
 1564              	.LVL166:
 1565              	.L92:
 494:Drivers/lvgl/src/draw/sw/blend/lv_draw_sw_blend_to_i1.c ****                         if(src_buf_l8[src_x] > I1_LUM_THRESHOLD) {
 1566              		.loc 1 494 54 is_stmt 1 discriminator 1 view .LVU485
 1567 00f6 B842     		cmp	r0, r7
 1568 00f8 09DA     		bge	.L134
 495:Drivers/lvgl/src/draw/sw/blend/lv_draw_sw_blend_to_i1.c ****                             set_bit(dest_buf_i1, dest_x + bit_ofs);
 1569              		.loc 1 495 25 view .LVU486
 495:Drivers/lvgl/src/draw/sw/blend/lv_draw_sw_blend_to_i1.c ****                             set_bit(dest_buf_i1, dest_x + bit_ofs);
 1570              		.loc 1 495 46 is_stmt 0 view .LVU487
 1571 00fa 3156     		ldrsb	r1, [r6, r0]
 495:Drivers/lvgl/src/draw/sw/blend/lv_draw_sw_blend_to_i1.c ****                             set_bit(dest_buf_i1, dest_x + bit_ofs);
 1572              		.loc 1 495 27 view .LVU488
 1573 00fc 0029     		cmp	r1, #0
 1574 00fe C1DB     		blt	.L135
 499:Drivers/lvgl/src/draw/sw/blend/lv_draw_sw_blend_to_i1.c ****                         }
 1575              		.loc 1 499 29 is_stmt 1 view .LVU489
 1576 0100 E918     		adds	r1, r5, r3
 1577              	.LVL167:
 1578              	.LBB427:
 1579              	.LBI424:
1110:Drivers/lvgl/src/draw/sw/blend/lv_draw_sw_blend_to_i1.c **** {
 1580              		.loc 1 1110 42 view .LVU490
 1581              	.LBB426:
1112:Drivers/lvgl/src/draw/sw/blend/lv_draw_sw_blend_to_i1.c **** }
 1582              		.loc 1 1112 5 view .LVU491
1112:Drivers/lvgl/src/draw/sw/blend/lv_draw_sw_blend_to_i1.c **** }
 1583              		.loc 1 1112 17 is_stmt 0 view .LVU492
 1584 0102 8C46     		mov	ip, r1
 1585 0104 0029     		cmp	r1, #0
 1586 0106 DCDA     		bge	.L90
1112:Drivers/lvgl/src/draw/sw/blend/lv_draw_sw_blend_to_i1.c **** }
 1587              		.loc 1 1112 17 view .LVU493
 1588 0108 01F1070C 		add	ip, r1, #7
 1589 010c D9E7     		b	.L90
 1590              	.LVL168:
 1591              	.L134:
1112:Drivers/lvgl/src/draw/sw/blend/lv_draw_sw_blend_to_i1.c **** }
 1592              		.loc 1 1112 17 view .LVU494
ARM GAS  /tmp/cc9ag92L.s 			page 56


 1593              	.LBE426:
 1594              	.LBE427:
 502:Drivers/lvgl/src/draw/sw/blend/lv_draw_sw_blend_to_i1.c ****                     src_buf_l8 = drawbuf_next_row(src_buf_l8, src_stride);
 1595              		.loc 1 502 21 is_stmt 1 view .LVU495
 1596              	.LBB428:
 1597              	.LBI428:
1100:Drivers/lvgl/src/draw/sw/blend/lv_draw_sw_blend_to_i1.c **** {
 1598              		.loc 1 1100 44 view .LVU496
 1599              	.LBB429:
1102:Drivers/lvgl/src/draw/sw/blend/lv_draw_sw_blend_to_i1.c **** }
 1600              		.loc 1 1102 5 view .LVU497
1102:Drivers/lvgl/src/draw/sw/blend/lv_draw_sw_blend_to_i1.c **** }
 1601              		.loc 1 1102 12 is_stmt 0 view .LVU498
 1602 010e 7444     		add	r4, r4, lr
 1603              	.LVL169:
1102:Drivers/lvgl/src/draw/sw/blend/lv_draw_sw_blend_to_i1.c **** }
 1604              		.loc 1 1102 12 view .LVU499
 1605              	.LBE429:
 1606              	.LBE428:
 503:Drivers/lvgl/src/draw/sw/blend/lv_draw_sw_blend_to_i1.c ****                 }
 1607              		.loc 1 503 21 is_stmt 1 view .LVU500
 1608              	.LBB430:
 1609              	.LBI430:
1100:Drivers/lvgl/src/draw/sw/blend/lv_draw_sw_blend_to_i1.c **** {
 1610              		.loc 1 1100 44 view .LVU501
 1611              	.LBB431:
1102:Drivers/lvgl/src/draw/sw/blend/lv_draw_sw_blend_to_i1.c **** }
 1612              		.loc 1 1102 5 view .LVU502
1102:Drivers/lvgl/src/draw/sw/blend/lv_draw_sw_blend_to_i1.c **** }
 1613              		.loc 1 1102 12 is_stmt 0 view .LVU503
 1614 0110 1644     		add	r6, r6, r2
 1615              	.LVL170:
1102:Drivers/lvgl/src/draw/sw/blend/lv_draw_sw_blend_to_i1.c **** }
 1616              		.loc 1 1102 12 view .LVU504
 1617              	.LBE431:
 1618              	.LBE430:
 493:Drivers/lvgl/src/draw/sw/blend/lv_draw_sw_blend_to_i1.c ****                     for(dest_x = 0, src_x = 0; src_x < w; dest_x++, src_x++) {
 1619              		.loc 1 493 36 is_stmt 1 discriminator 2 view .LVU505
 1620 0112 0AF1010A 		add	r10, r10, #1
 1621              	.LVL171:
 1622              	.L85:
 493:Drivers/lvgl/src/draw/sw/blend/lv_draw_sw_blend_to_i1.c ****                     for(dest_x = 0, src_x = 0; src_x < w; dest_x++, src_x++) {
 1623              		.loc 1 493 30 discriminator 1 view .LVU506
 1624 0116 C245     		cmp	r10, r8
 1625 0118 B1DA     		bge	.L83
 494:Drivers/lvgl/src/draw/sw/blend/lv_draw_sw_blend_to_i1.c ****                         if(src_buf_l8[src_x] > I1_LUM_THRESHOLD) {
 1626              		.loc 1 494 32 is_stmt 0 view .LVU507
 1627 011a 0025     		movs	r5, #0
 494:Drivers/lvgl/src/draw/sw/blend/lv_draw_sw_blend_to_i1.c ****                         if(src_buf_l8[src_x] > I1_LUM_THRESHOLD) {
 1628              		.loc 1 494 43 view .LVU508
 1629 011c 2846     		mov	r0, r5
 1630 011e EAE7     		b	.L92
 1631              	.LVL172:
 1632              	.L120:
 493:Drivers/lvgl/src/draw/sw/blend/lv_draw_sw_blend_to_i1.c ****                     for(dest_x = 0, src_x = 0; src_x < w; dest_x++, src_x++) {
 1633              		.loc 1 493 23 view .LVU509
 1634 0120 4FF0000A 		mov	r10, #0
ARM GAS  /tmp/cc9ag92L.s 			page 57


 1635 0124 F7E7     		b	.L85
 1636              	.LVL173:
 1637              	.L137:
 1638              	.LBB432:
 1639              	.LBB433:
 1640              	.LBB434:
 1641              		.loc 1 1117 25 view .LVU510
 1642 0126 05F10708 		add	r8, r5, #7
 1643 012a 11E0     		b	.L96
 1644              	.LVL174:
 1645              	.L138:
 1646              		.loc 1 1117 25 view .LVU511
 1647              	.LBE434:
 1648              	.LBE433:
 514:Drivers/lvgl/src/draw/sw/blend/lv_draw_sw_blend_to_i1.c ****                         }
 1649              		.loc 1 514 29 is_stmt 1 view .LVU512
 1650              	.LBB436:
 1651              	.LBI436:
1105:Drivers/lvgl/src/draw/sw/blend/lv_draw_sw_blend_to_i1.c **** {
 1652              		.loc 1 1105 42 view .LVU513
 1653              	.LBB437:
1107:Drivers/lvgl/src/draw/sw/blend/lv_draw_sw_blend_to_i1.c **** }
 1654              		.loc 1 1107 5 view .LVU514
1107:Drivers/lvgl/src/draw/sw/blend/lv_draw_sw_blend_to_i1.c **** }
 1655              		.loc 1 1107 8 is_stmt 0 view .LVU515
 1656 012c 14F80830 		ldrb	r3, [r4, r8]	@ zero_extendqisi2
1107:Drivers/lvgl/src/draw/sw/blend/lv_draw_sw_blend_to_i1.c **** }
 1657              		.loc 1 1107 28 view .LVU516
 1658 0130 0122     		movs	r2, #1
 1659 0132 AA40     		lsls	r2, r2, r5
1107:Drivers/lvgl/src/draw/sw/blend/lv_draw_sw_blend_to_i1.c **** }
 1660              		.loc 1 1107 22 view .LVU517
 1661 0134 1343     		orrs	r3, r3, r2
 1662 0136 04F80830 		strb	r3, [r4, r8]
 1663              	.LVL175:
 1664              	.L98:
1107:Drivers/lvgl/src/draw/sw/blend/lv_draw_sw_blend_to_i1.c **** }
 1665              		.loc 1 1107 22 view .LVU518
 1666              	.LBE437:
 1667              	.LBE436:
 1668              	.LBE432:
 510:Drivers/lvgl/src/draw/sw/blend/lv_draw_sw_blend_to_i1.c ****                         uint8_t dest_val = get_bit(dest_buf_i1, dest_x + bit_ofs) * 255;
 1669              		.loc 1 510 67 is_stmt 1 discriminator 2 view .LVU519
 510:Drivers/lvgl/src/draw/sw/blend/lv_draw_sw_blend_to_i1.c ****                         uint8_t dest_val = get_bit(dest_buf_i1, dest_x + bit_ofs) * 255;
 1670              		.loc 1 510 65 is_stmt 0 discriminator 2 view .LVU520
 1671 013a 0AF1010A 		add	r10, r10, #1
 1672              	.LVL176:
 510:Drivers/lvgl/src/draw/sw/blend/lv_draw_sw_blend_to_i1.c ****                         uint8_t dest_val = get_bit(dest_buf_i1, dest_x + bit_ofs) * 255;
 1673              		.loc 1 510 74 discriminator 2 view .LVU521
 1674 013e 09F10109 		add	r9, r9, #1
 1675              	.LVL177:
 1676              	.L100:
 510:Drivers/lvgl/src/draw/sw/blend/lv_draw_sw_blend_to_i1.c ****                         uint8_t dest_val = get_bit(dest_buf_i1, dest_x + bit_ofs) * 255;
 1677              		.loc 1 510 54 is_stmt 1 discriminator 1 view .LVU522
 1678 0142 B945     		cmp	r9, r7
 1679 0144 2ADA     		bge	.L136
 1680              	.LBB441:
ARM GAS  /tmp/cc9ag92L.s 			page 58


 511:Drivers/lvgl/src/draw/sw/blend/lv_draw_sw_blend_to_i1.c ****                         lv_color_8_8_mix(src_buf_l8[src_x], &dest_val, opa);
 1681              		.loc 1 511 25 view .LVU523
 511:Drivers/lvgl/src/draw/sw/blend/lv_draw_sw_blend_to_i1.c ****                         lv_color_8_8_mix(src_buf_l8[src_x], &dest_val, opa);
 1682              		.loc 1 511 44 is_stmt 0 view .LVU524
 1683 0146 0AEB0B05 		add	r5, r10, fp
 1684              	.LVL178:
 1685              	.LBB438:
 1686              	.LBI433:
1115:Drivers/lvgl/src/draw/sw/blend/lv_draw_sw_blend_to_i1.c **** {
 1687              		.loc 1 1115 45 is_stmt 1 view .LVU525
 1688              	.LBB435:
 1689              		.loc 1 1117 5 view .LVU526
 1690              		.loc 1 1117 25 is_stmt 0 view .LVU527
 1691 014a A846     		mov	r8, r5
 1692 014c 002D     		cmp	r5, #0
 1693 014e EADB     		blt	.L137
 1694              	.L96:
 1695              		.loc 1 1117 25 view .LVU528
 1696 0150 4FEAE808 		asr	r8, r8, #3
 1697              		.loc 1 1117 16 view .LVU529
 1698 0154 14F80830 		ldrb	r3, [r4, r8]	@ zero_extendqisi2
 1699              		.loc 1 1117 47 view .LVU530
 1700 0158 6A42     		rsbs	r2, r5, #0
 1701 015a 05F00705 		and	r5, r5, #7
 1702              	.LVL179:
 1703              		.loc 1 1117 47 view .LVU531
 1704 015e 02F00702 		and	r2, r2, #7
 1705 0162 58BF     		it	pl
 1706 0164 5542     		rsbpl	r5, r2, #0
 1707              		.loc 1 1117 36 view .LVU532
 1708 0166 C5F10705 		rsb	r5, r5, #7
 1709              		.loc 1 1117 30 view .LVU533
 1710 016a 2B41     		asrs	r3, r3, r5
 1711              	.LVL180:
 1712              		.loc 1 1117 30 view .LVU534
 1713              	.LBE435:
 1714              	.LBE438:
 511:Drivers/lvgl/src/draw/sw/blend/lv_draw_sw_blend_to_i1.c ****                         lv_color_8_8_mix(src_buf_l8[src_x], &dest_val, opa);
 1715              		.loc 1 511 33 discriminator 1 view .LVU535
 1716 016c 43F30003 		sbfx	r3, r3, #0, #1
 1717 0170 8DF82430 		strb	r3, [sp, #36]
 512:Drivers/lvgl/src/draw/sw/blend/lv_draw_sw_blend_to_i1.c ****                         if(dest_val > I1_LUM_THRESHOLD) {
 1718              		.loc 1 512 25 is_stmt 1 view .LVU536
 1719 0174 019A     		ldr	r2, [sp, #4]
 1720 0176 09A9     		add	r1, sp, #36
 1721 0178 16F80900 		ldrb	r0, [r6, r9]	@ zero_extendqisi2
 1722 017c FFF7FEFF 		bl	lv_color_8_8_mix
 1723              	.LVL181:
 513:Drivers/lvgl/src/draw/sw/blend/lv_draw_sw_blend_to_i1.c ****                             set_bit(dest_buf_i1, dest_x + bit_ofs);
 1724              		.loc 1 513 25 view .LVU537
 513:Drivers/lvgl/src/draw/sw/blend/lv_draw_sw_blend_to_i1.c ****                             set_bit(dest_buf_i1, dest_x + bit_ofs);
 1725              		.loc 1 513 37 is_stmt 0 view .LVU538
 1726 0180 9DF92430 		ldrsb	r3, [sp, #36]
 513:Drivers/lvgl/src/draw/sw/blend/lv_draw_sw_blend_to_i1.c ****                             set_bit(dest_buf_i1, dest_x + bit_ofs);
 1727              		.loc 1 513 27 view .LVU539
 1728 0184 002B     		cmp	r3, #0
 1729 0186 D1DB     		blt	.L138
ARM GAS  /tmp/cc9ag92L.s 			page 59


 517:Drivers/lvgl/src/draw/sw/blend/lv_draw_sw_blend_to_i1.c ****                         }
 1730              		.loc 1 517 29 is_stmt 1 view .LVU540
 1731              	.LVL182:
 1732              	.LBB439:
 1733              	.LBI439:
1110:Drivers/lvgl/src/draw/sw/blend/lv_draw_sw_blend_to_i1.c **** {
 1734              		.loc 1 1110 42 view .LVU541
 1735              	.LBB440:
1112:Drivers/lvgl/src/draw/sw/blend/lv_draw_sw_blend_to_i1.c **** }
 1736              		.loc 1 1112 5 view .LVU542
1112:Drivers/lvgl/src/draw/sw/blend/lv_draw_sw_blend_to_i1.c **** }
 1737              		.loc 1 1112 8 is_stmt 0 view .LVU543
 1738 0188 14F80820 		ldrb	r2, [r4, r8]	@ zero_extendqisi2
1112:Drivers/lvgl/src/draw/sw/blend/lv_draw_sw_blend_to_i1.c **** }
 1739              		.loc 1 1112 29 view .LVU544
 1740 018c 0123     		movs	r3, #1
 1741 018e AB40     		lsls	r3, r3, r5
1112:Drivers/lvgl/src/draw/sw/blend/lv_draw_sw_blend_to_i1.c **** }
 1742              		.loc 1 1112 22 view .LVU545
 1743 0190 DB43     		mvns	r3, r3
 1744 0192 5BB2     		sxtb	r3, r3
 1745 0194 1340     		ands	r3, r3, r2
 1746 0196 04F80830 		strb	r3, [r4, r8]
 1747              	.LVL183:
1113:Drivers/lvgl/src/draw/sw/blend/lv_draw_sw_blend_to_i1.c **** 
 1748              		.loc 1 1113 1 view .LVU546
 1749 019a CEE7     		b	.L98
 1750              	.L136:
1113:Drivers/lvgl/src/draw/sw/blend/lv_draw_sw_blend_to_i1.c **** 
 1751              		.loc 1 1113 1 view .LVU547
 1752              	.LBE440:
 1753              	.LBE439:
 1754              	.LBE441:
 1755              	.LBB442:
 1756              	.LBB443:
1102:Drivers/lvgl/src/draw/sw/blend/lv_draw_sw_blend_to_i1.c **** }
 1757              		.loc 1 1102 12 view .LVU548
 1758 019c DDF80880 		ldr	r8, [sp, #8]
 1759              	.LBE443:
 1760              	.LBE442:
 520:Drivers/lvgl/src/draw/sw/blend/lv_draw_sw_blend_to_i1.c ****                     src_buf_l8 = drawbuf_next_row(src_buf_l8, src_stride);
 1761              		.loc 1 520 21 is_stmt 1 view .LVU549
 1762              	.LVL184:
 1763              	.LBB445:
 1764              	.LBI442:
1100:Drivers/lvgl/src/draw/sw/blend/lv_draw_sw_blend_to_i1.c **** {
 1765              		.loc 1 1100 44 view .LVU550
 1766              	.LBB444:
1102:Drivers/lvgl/src/draw/sw/blend/lv_draw_sw_blend_to_i1.c **** }
 1767              		.loc 1 1102 5 view .LVU551
1102:Drivers/lvgl/src/draw/sw/blend/lv_draw_sw_blend_to_i1.c **** }
 1768              		.loc 1 1102 12 is_stmt 0 view .LVU552
 1769 01a0 049B     		ldr	r3, [sp, #16]
 1770 01a2 1C44     		add	r4, r4, r3
 1771              	.LVL185:
1102:Drivers/lvgl/src/draw/sw/blend/lv_draw_sw_blend_to_i1.c **** }
 1772              		.loc 1 1102 12 view .LVU553
ARM GAS  /tmp/cc9ag92L.s 			page 60


 1773              	.LBE444:
 1774              	.LBE445:
 521:Drivers/lvgl/src/draw/sw/blend/lv_draw_sw_blend_to_i1.c ****                 }
 1775              		.loc 1 521 21 is_stmt 1 view .LVU554
 1776              	.LBB446:
 1777              	.LBI446:
1100:Drivers/lvgl/src/draw/sw/blend/lv_draw_sw_blend_to_i1.c **** {
 1778              		.loc 1 1100 44 view .LVU555
 1779              	.LBB447:
1102:Drivers/lvgl/src/draw/sw/blend/lv_draw_sw_blend_to_i1.c **** }
 1780              		.loc 1 1102 5 view .LVU556
1102:Drivers/lvgl/src/draw/sw/blend/lv_draw_sw_blend_to_i1.c **** }
 1781              		.loc 1 1102 12 is_stmt 0 view .LVU557
 1782 01a4 059B     		ldr	r3, [sp, #20]
 1783 01a6 1E44     		add	r6, r6, r3
 1784              	.LVL186:
1102:Drivers/lvgl/src/draw/sw/blend/lv_draw_sw_blend_to_i1.c **** }
 1785              		.loc 1 1102 12 view .LVU558
 1786              	.LBE447:
 1787              	.LBE446:
 509:Drivers/lvgl/src/draw/sw/blend/lv_draw_sw_blend_to_i1.c ****                     for(dest_x = 0, src_x = 0; src_x < w; dest_x++, src_x++) {
 1788              		.loc 1 509 36 is_stmt 1 discriminator 2 view .LVU559
 1789 01a8 08F10108 		add	r8, r8, #1
 1790              	.LVL187:
 1791              	.L94:
 509:Drivers/lvgl/src/draw/sw/blend/lv_draw_sw_blend_to_i1.c ****                     for(dest_x = 0, src_x = 0; src_x < w; dest_x++, src_x++) {
 1792              		.loc 1 509 30 discriminator 1 view .LVU560
 1793 01ac 039B     		ldr	r3, [sp, #12]
 1794 01ae 9845     		cmp	r8, r3
 1795 01b0 BFF665AF 		bge	.L83
 510:Drivers/lvgl/src/draw/sw/blend/lv_draw_sw_blend_to_i1.c ****                         uint8_t dest_val = get_bit(dest_buf_i1, dest_x + bit_ofs) * 255;
 1796              		.loc 1 510 32 is_stmt 0 view .LVU561
 1797 01b4 4FF0000A 		mov	r10, #0
 510:Drivers/lvgl/src/draw/sw/blend/lv_draw_sw_blend_to_i1.c ****                         uint8_t dest_val = get_bit(dest_buf_i1, dest_x + bit_ofs) * 255;
 1798              		.loc 1 510 43 view .LVU562
 1799 01b8 D146     		mov	r9, r10
 1800 01ba CDF80880 		str	r8, [sp, #8]
 1801 01be C0E7     		b	.L100
 1802              	.LVL188:
 1803              	.L122:
 509:Drivers/lvgl/src/draw/sw/blend/lv_draw_sw_blend_to_i1.c ****                     for(dest_x = 0, src_x = 0; src_x < w; dest_x++, src_x++) {
 1804              		.loc 1 509 23 view .LVU563
 1805 01c0 4FF0000B 		mov	fp, #0
 1806              	.LVL189:
 509:Drivers/lvgl/src/draw/sw/blend/lv_draw_sw_blend_to_i1.c ****                     for(dest_x = 0, src_x = 0; src_x < w; dest_x++, src_x++) {
 1807              		.loc 1 509 23 view .LVU564
 1808 01c4 CDF80C80 		str	r8, [sp, #12]
 1809 01c8 D846     		mov	r8, fp
 1810              	.LVL190:
 509:Drivers/lvgl/src/draw/sw/blend/lv_draw_sw_blend_to_i1.c ****                     for(dest_x = 0, src_x = 0; src_x < w; dest_x++, src_x++) {
 1811              		.loc 1 509 23 view .LVU565
 1812 01ca 0191     		str	r1, [sp, #4]
 1813 01cc CDF810E0 		str	lr, [sp, #16]
 1814 01d0 0592     		str	r2, [sp, #20]
 1815 01d2 9B46     		mov	fp, r3
 1816 01d4 EAE7     		b	.L94
 1817              	.LVL191:
ARM GAS  /tmp/cc9ag92L.s 			page 61


 1818              	.L140:
 1819              	.LBB448:
 1820              	.LBB449:
 1821              	.LBB450:
 1822              		.loc 1 1117 25 view .LVU566
 1823 01d6 08F1070A 		add	r10, r8, #7
 1824 01da 16E0     		b	.L103
 1825              	.LVL192:
 1826              	.L141:
 1827              		.loc 1 1117 25 view .LVU567
 1828              	.LBE450:
 1829              	.LBE449:
 533:Drivers/lvgl/src/draw/sw/blend/lv_draw_sw_blend_to_i1.c ****                         }
 1830              		.loc 1 533 29 is_stmt 1 view .LVU568
 1831              	.LBB452:
 1832              	.LBI452:
1105:Drivers/lvgl/src/draw/sw/blend/lv_draw_sw_blend_to_i1.c **** {
 1833              		.loc 1 1105 42 view .LVU569
 1834              	.LBB453:
1107:Drivers/lvgl/src/draw/sw/blend/lv_draw_sw_blend_to_i1.c **** }
 1835              		.loc 1 1107 5 view .LVU570
1107:Drivers/lvgl/src/draw/sw/blend/lv_draw_sw_blend_to_i1.c **** }
 1836              		.loc 1 1107 8 is_stmt 0 view .LVU571
 1837 01dc 15F80A30 		ldrb	r3, [r5, r10]	@ zero_extendqisi2
1107:Drivers/lvgl/src/draw/sw/blend/lv_draw_sw_blend_to_i1.c **** }
 1838              		.loc 1 1107 28 view .LVU572
 1839 01e0 0122     		movs	r2, #1
 1840 01e2 02FA08F2 		lsl	r2, r2, r8
1107:Drivers/lvgl/src/draw/sw/blend/lv_draw_sw_blend_to_i1.c **** }
 1841              		.loc 1 1107 22 view .LVU573
 1842 01e6 1343     		orrs	r3, r3, r2
 1843 01e8 05F80A30 		strb	r3, [r5, r10]
 1844              	.LVL193:
 1845              	.L105:
1107:Drivers/lvgl/src/draw/sw/blend/lv_draw_sw_blend_to_i1.c **** }
 1846              		.loc 1 1107 22 view .LVU574
 1847              	.LBE453:
 1848              	.LBE452:
 1849              	.LBE448:
 528:Drivers/lvgl/src/draw/sw/blend/lv_draw_sw_blend_to_i1.c ****                         uint8_t src_luminance = src_buf_l8[src_x];
 1850              		.loc 1 528 67 is_stmt 1 discriminator 2 view .LVU575
 528:Drivers/lvgl/src/draw/sw/blend/lv_draw_sw_blend_to_i1.c ****                         uint8_t src_luminance = src_buf_l8[src_x];
 1851              		.loc 1 528 65 is_stmt 0 discriminator 2 view .LVU576
 1852 01ec 0134     		adds	r4, r4, #1
 1853              	.LVL194:
 528:Drivers/lvgl/src/draw/sw/blend/lv_draw_sw_blend_to_i1.c ****                         uint8_t src_luminance = src_buf_l8[src_x];
 1854              		.loc 1 528 74 discriminator 2 view .LVU577
 1855 01ee 0BF1010B 		add	fp, fp, #1
 1856              	.LVL195:
 1857              	.L107:
 528:Drivers/lvgl/src/draw/sw/blend/lv_draw_sw_blend_to_i1.c ****                         uint8_t src_luminance = src_buf_l8[src_x];
 1858              		.loc 1 528 54 is_stmt 1 discriminator 1 view .LVU578
 1859 01f2 BB45     		cmp	fp, r7
 1860 01f4 31DA     		bge	.L139
 1861              	.LBB457:
 529:Drivers/lvgl/src/draw/sw/blend/lv_draw_sw_blend_to_i1.c ****                         uint8_t dest_val = get_bit(dest_buf_i1, dest_x + bit_ofs) * 255;
 1862              		.loc 1 529 25 view .LVU579
ARM GAS  /tmp/cc9ag92L.s 			page 62


 529:Drivers/lvgl/src/draw/sw/blend/lv_draw_sw_blend_to_i1.c ****                         uint8_t dest_val = get_bit(dest_buf_i1, dest_x + bit_ofs) * 255;
 1863              		.loc 1 529 59 is_stmt 0 view .LVU580
 1864 01f6 5A46     		mov	r2, fp
 529:Drivers/lvgl/src/draw/sw/blend/lv_draw_sw_blend_to_i1.c ****                         uint8_t dest_val = get_bit(dest_buf_i1, dest_x + bit_ofs) * 255;
 1865              		.loc 1 529 33 view .LVU581
 1866 01f8 19F80B00 		ldrb	r0, [r9, fp]	@ zero_extendqisi2
 1867              	.LVL196:
 530:Drivers/lvgl/src/draw/sw/blend/lv_draw_sw_blend_to_i1.c ****                         lv_color_8_8_mix(src_luminance, &dest_val, mask_buf[src_x]);
 1868              		.loc 1 530 25 is_stmt 1 view .LVU582
 530:Drivers/lvgl/src/draw/sw/blend/lv_draw_sw_blend_to_i1.c ****                         lv_color_8_8_mix(src_luminance, &dest_val, mask_buf[src_x]);
 1869              		.loc 1 530 44 is_stmt 0 view .LVU583
 1870 01fc 019B     		ldr	r3, [sp, #4]
 1871 01fe 04EB0308 		add	r8, r4, r3
 1872              	.LVL197:
 1873              	.LBB454:
 1874              	.LBI449:
1115:Drivers/lvgl/src/draw/sw/blend/lv_draw_sw_blend_to_i1.c **** {
 1875              		.loc 1 1115 45 is_stmt 1 view .LVU584
 1876              	.LBB451:
 1877              		.loc 1 1117 5 view .LVU585
 1878              		.loc 1 1117 25 is_stmt 0 view .LVU586
 1879 0202 C246     		mov	r10, r8
 1880 0204 B8F1000F 		cmp	r8, #0
 1881 0208 E5DB     		blt	.L140
 1882              	.L103:
 1883              		.loc 1 1117 25 view .LVU587
 1884 020a 4FEAEA0A 		asr	r10, r10, #3
 1885              		.loc 1 1117 16 view .LVU588
 1886 020e 15F80A30 		ldrb	r3, [r5, r10]	@ zero_extendqisi2
 1887              		.loc 1 1117 47 view .LVU589
 1888 0212 D8F10001 		rsbs	r1, r8, #0
 1889 0216 08F00708 		and	r8, r8, #7
 1890              	.LVL198:
 1891              		.loc 1 1117 47 view .LVU590
 1892 021a 01F00701 		and	r1, r1, #7
 1893 021e 58BF     		it	pl
 1894 0220 C1F10008 		rsbpl	r8, r1, #0
 1895              		.loc 1 1117 36 view .LVU591
 1896 0224 C8F10708 		rsb	r8, r8, #7
 1897              		.loc 1 1117 30 view .LVU592
 1898 0228 43FA08F3 		asr	r3, r3, r8
 1899              	.LVL199:
 1900              		.loc 1 1117 30 view .LVU593
 1901              	.LBE451:
 1902              	.LBE454:
 530:Drivers/lvgl/src/draw/sw/blend/lv_draw_sw_blend_to_i1.c ****                         lv_color_8_8_mix(src_luminance, &dest_val, mask_buf[src_x]);
 1903              		.loc 1 530 33 discriminator 1 view .LVU594
 1904 022c 43F30003 		sbfx	r3, r3, #0, #1
 1905 0230 8DF82430 		strb	r3, [sp, #36]
 531:Drivers/lvgl/src/draw/sw/blend/lv_draw_sw_blend_to_i1.c ****                         if(dest_val > I1_LUM_THRESHOLD) {
 1906              		.loc 1 531 25 is_stmt 1 view .LVU595
 1907 0234 B25C     		ldrb	r2, [r6, r2]	@ zero_extendqisi2
 1908 0236 09A9     		add	r1, sp, #36
 1909 0238 FFF7FEFF 		bl	lv_color_8_8_mix
 1910              	.LVL200:
 532:Drivers/lvgl/src/draw/sw/blend/lv_draw_sw_blend_to_i1.c ****                             set_bit(dest_buf_i1, dest_x + bit_ofs);
 1911              		.loc 1 532 25 view .LVU596
ARM GAS  /tmp/cc9ag92L.s 			page 63


 532:Drivers/lvgl/src/draw/sw/blend/lv_draw_sw_blend_to_i1.c ****                             set_bit(dest_buf_i1, dest_x + bit_ofs);
 1912              		.loc 1 532 37 is_stmt 0 view .LVU597
 1913 023c 9DF92430 		ldrsb	r3, [sp, #36]
 532:Drivers/lvgl/src/draw/sw/blend/lv_draw_sw_blend_to_i1.c ****                             set_bit(dest_buf_i1, dest_x + bit_ofs);
 1914              		.loc 1 532 27 view .LVU598
 1915 0240 002B     		cmp	r3, #0
 1916 0242 CBDB     		blt	.L141
 536:Drivers/lvgl/src/draw/sw/blend/lv_draw_sw_blend_to_i1.c ****                         }
 1917              		.loc 1 536 29 is_stmt 1 view .LVU599
 1918              	.LVL201:
 1919              	.LBB455:
 1920              	.LBI455:
1110:Drivers/lvgl/src/draw/sw/blend/lv_draw_sw_blend_to_i1.c **** {
 1921              		.loc 1 1110 42 view .LVU600
 1922              	.LBB456:
1112:Drivers/lvgl/src/draw/sw/blend/lv_draw_sw_blend_to_i1.c **** }
 1923              		.loc 1 1112 5 view .LVU601
1112:Drivers/lvgl/src/draw/sw/blend/lv_draw_sw_blend_to_i1.c **** }
 1924              		.loc 1 1112 8 is_stmt 0 view .LVU602
 1925 0244 15F80A20 		ldrb	r2, [r5, r10]	@ zero_extendqisi2
1112:Drivers/lvgl/src/draw/sw/blend/lv_draw_sw_blend_to_i1.c **** }
 1926              		.loc 1 1112 29 view .LVU603
 1927 0248 0123     		movs	r3, #1
 1928 024a 03FA08F3 		lsl	r3, r3, r8
1112:Drivers/lvgl/src/draw/sw/blend/lv_draw_sw_blend_to_i1.c **** }
 1929              		.loc 1 1112 22 view .LVU604
 1930 024e DB43     		mvns	r3, r3
 1931 0250 5BB2     		sxtb	r3, r3
 1932 0252 1340     		ands	r3, r3, r2
 1933 0254 05F80A30 		strb	r3, [r5, r10]
 1934              	.LVL202:
1113:Drivers/lvgl/src/draw/sw/blend/lv_draw_sw_blend_to_i1.c **** 
 1935              		.loc 1 1113 1 view .LVU605
 1936 0258 C8E7     		b	.L105
 1937              	.LVL203:
 1938              	.L139:
1113:Drivers/lvgl/src/draw/sw/blend/lv_draw_sw_blend_to_i1.c **** 
 1939              		.loc 1 1113 1 view .LVU606
 1940              	.LBE456:
 1941              	.LBE455:
 1942              	.LBE457:
 1943              	.LBB458:
 1944              	.LBB459:
1102:Drivers/lvgl/src/draw/sw/blend/lv_draw_sw_blend_to_i1.c **** }
 1945              		.loc 1 1102 12 view .LVU607
 1946 025a DDF80880 		ldr	r8, [sp, #8]
 1947              	.LBE459:
 1948              	.LBE458:
 539:Drivers/lvgl/src/draw/sw/blend/lv_draw_sw_blend_to_i1.c ****                     src_buf_l8 = drawbuf_next_row(src_buf_l8, src_stride);
 1949              		.loc 1 539 21 is_stmt 1 view .LVU608
 1950              	.LVL204:
 1951              	.LBB461:
 1952              	.LBI458:
1100:Drivers/lvgl/src/draw/sw/blend/lv_draw_sw_blend_to_i1.c **** {
 1953              		.loc 1 1100 44 view .LVU609
 1954              	.LBB460:
1102:Drivers/lvgl/src/draw/sw/blend/lv_draw_sw_blend_to_i1.c **** }
ARM GAS  /tmp/cc9ag92L.s 			page 64


 1955              		.loc 1 1102 5 view .LVU610
1102:Drivers/lvgl/src/draw/sw/blend/lv_draw_sw_blend_to_i1.c **** }
 1956              		.loc 1 1102 12 is_stmt 0 view .LVU611
 1957 025e 049B     		ldr	r3, [sp, #16]
 1958 0260 1D44     		add	r5, r5, r3
 1959              	.LVL205:
1102:Drivers/lvgl/src/draw/sw/blend/lv_draw_sw_blend_to_i1.c **** }
 1960              		.loc 1 1102 12 view .LVU612
 1961              	.LBE460:
 1962              	.LBE461:
 540:Drivers/lvgl/src/draw/sw/blend/lv_draw_sw_blend_to_i1.c ****                     mask_buf += mask_stride;
 1963              		.loc 1 540 21 is_stmt 1 view .LVU613
 1964              	.LBB462:
 1965              	.LBI462:
1100:Drivers/lvgl/src/draw/sw/blend/lv_draw_sw_blend_to_i1.c **** {
 1966              		.loc 1 1100 44 view .LVU614
 1967              	.LBB463:
1102:Drivers/lvgl/src/draw/sw/blend/lv_draw_sw_blend_to_i1.c **** }
 1968              		.loc 1 1102 5 view .LVU615
1102:Drivers/lvgl/src/draw/sw/blend/lv_draw_sw_blend_to_i1.c **** }
 1969              		.loc 1 1102 12 is_stmt 0 view .LVU616
 1970 0262 059B     		ldr	r3, [sp, #20]
 1971 0264 9944     		add	r9, r9, r3
 1972              	.LVL206:
1102:Drivers/lvgl/src/draw/sw/blend/lv_draw_sw_blend_to_i1.c **** }
 1973              		.loc 1 1102 12 view .LVU617
 1974              	.LBE463:
 1975              	.LBE462:
 541:Drivers/lvgl/src/draw/sw/blend/lv_draw_sw_blend_to_i1.c ****                 }
 1976              		.loc 1 541 21 is_stmt 1 view .LVU618
 541:Drivers/lvgl/src/draw/sw/blend/lv_draw_sw_blend_to_i1.c ****                 }
 1977              		.loc 1 541 30 is_stmt 0 view .LVU619
 1978 0266 069B     		ldr	r3, [sp, #24]
 1979 0268 1E44     		add	r6, r6, r3
 1980              	.LVL207:
 527:Drivers/lvgl/src/draw/sw/blend/lv_draw_sw_blend_to_i1.c ****                     for(dest_x = 0, src_x = 0; src_x < w; dest_x++, src_x++) {
 1981              		.loc 1 527 36 is_stmt 1 discriminator 2 view .LVU620
 1982 026a 08F10108 		add	r8, r8, #1
 1983              	.LVL208:
 1984              	.L101:
 527:Drivers/lvgl/src/draw/sw/blend/lv_draw_sw_blend_to_i1.c ****                     for(dest_x = 0, src_x = 0; src_x < w; dest_x++, src_x++) {
 1985              		.loc 1 527 30 discriminator 1 view .LVU621
 1986 026e 039B     		ldr	r3, [sp, #12]
 1987 0270 9845     		cmp	r8, r3
 1988 0272 BFF604AF 		bge	.L83
 528:Drivers/lvgl/src/draw/sw/blend/lv_draw_sw_blend_to_i1.c ****                         uint8_t src_luminance = src_buf_l8[src_x];
 1989              		.loc 1 528 32 is_stmt 0 view .LVU622
 1990 0276 0024     		movs	r4, #0
 528:Drivers/lvgl/src/draw/sw/blend/lv_draw_sw_blend_to_i1.c ****                         uint8_t src_luminance = src_buf_l8[src_x];
 1991              		.loc 1 528 43 view .LVU623
 1992 0278 A346     		mov	fp, r4
 1993 027a CDF80880 		str	r8, [sp, #8]
 1994 027e B8E7     		b	.L107
 1995              	.LVL209:
 1996              	.L124:
 527:Drivers/lvgl/src/draw/sw/blend/lv_draw_sw_blend_to_i1.c ****                     for(dest_x = 0, src_x = 0; src_x < w; dest_x++, src_x++) {
 1997              		.loc 1 527 23 view .LVU624
ARM GAS  /tmp/cc9ag92L.s 			page 65


 1998 0280 4FF00009 		mov	r9, #0
 1999 0284 CDF80C80 		str	r8, [sp, #12]
 2000 0288 C846     		mov	r8, r9
 2001              	.LVL210:
 527:Drivers/lvgl/src/draw/sw/blend/lv_draw_sw_blend_to_i1.c ****                     for(dest_x = 0, src_x = 0; src_x < w; dest_x++, src_x++) {
 2002              		.loc 1 527 23 view .LVU625
 2003 028a B146     		mov	r9, r6
 2004 028c 2E46     		mov	r6, r5
 2005              	.LVL211:
 527:Drivers/lvgl/src/draw/sw/blend/lv_draw_sw_blend_to_i1.c ****                     for(dest_x = 0, src_x = 0; src_x < w; dest_x++, src_x++) {
 2006              		.loc 1 527 23 view .LVU626
 2007 028e 2546     		mov	r5, r4
 2008              	.LVL212:
 527:Drivers/lvgl/src/draw/sw/blend/lv_draw_sw_blend_to_i1.c ****                     for(dest_x = 0, src_x = 0; src_x < w; dest_x++, src_x++) {
 2009              		.loc 1 527 23 view .LVU627
 2010 0290 CDF810E0 		str	lr, [sp, #16]
 2011 0294 0592     		str	r2, [sp, #20]
 2012 0296 CDF818C0 		str	ip, [sp, #24]
 2013 029a 0193     		str	r3, [sp, #4]
 2014 029c E7E7     		b	.L101
 2015              	.LVL213:
 2016              	.L143:
 2017              	.LBB464:
 2018              	.LBB465:
 2019              	.LBB466:
 2020              		.loc 1 1117 25 view .LVU628
 2021 029e 06F10708 		add	r8, r6, #7
 2022 02a2 15E0     		b	.L109
 2023              	.LVL214:
 2024              	.L144:
 2025              		.loc 1 1117 25 view .LVU629
 2026              	.LBE466:
 2027              	.LBE465:
 553:Drivers/lvgl/src/draw/sw/blend/lv_draw_sw_blend_to_i1.c ****                         }
 2028              		.loc 1 553 29 is_stmt 1 view .LVU630
 2029              	.LBB468:
 2030              	.LBI468:
1105:Drivers/lvgl/src/draw/sw/blend/lv_draw_sw_blend_to_i1.c **** {
 2031              		.loc 1 1105 42 view .LVU631
 2032              	.LBB469:
1107:Drivers/lvgl/src/draw/sw/blend/lv_draw_sw_blend_to_i1.c **** }
 2033              		.loc 1 1107 5 view .LVU632
1107:Drivers/lvgl/src/draw/sw/blend/lv_draw_sw_blend_to_i1.c **** }
 2034              		.loc 1 1107 8 is_stmt 0 view .LVU633
 2035 02a4 14F80830 		ldrb	r3, [r4, r8]	@ zero_extendqisi2
1107:Drivers/lvgl/src/draw/sw/blend/lv_draw_sw_blend_to_i1.c **** }
 2036              		.loc 1 1107 28 view .LVU634
 2037 02a8 0122     		movs	r2, #1
 2038 02aa B240     		lsls	r2, r2, r6
1107:Drivers/lvgl/src/draw/sw/blend/lv_draw_sw_blend_to_i1.c **** }
 2039              		.loc 1 1107 22 view .LVU635
 2040 02ac 1343     		orrs	r3, r3, r2
 2041 02ae 04F80830 		strb	r3, [r4, r8]
 2042              	.LVL215:
 2043              	.L111:
1107:Drivers/lvgl/src/draw/sw/blend/lv_draw_sw_blend_to_i1.c **** }
 2044              		.loc 1 1107 22 view .LVU636
ARM GAS  /tmp/cc9ag92L.s 			page 66


 2045              	.LBE469:
 2046              	.LBE468:
 2047              	.LBE464:
 548:Drivers/lvgl/src/draw/sw/blend/lv_draw_sw_blend_to_i1.c ****                         uint8_t src_luminance = src_buf_l8[src_x];
 2048              		.loc 1 548 67 is_stmt 1 discriminator 2 view .LVU637
 548:Drivers/lvgl/src/draw/sw/blend/lv_draw_sw_blend_to_i1.c ****                         uint8_t src_luminance = src_buf_l8[src_x];
 2049              		.loc 1 548 65 is_stmt 0 discriminator 2 view .LVU638
 2050 02b2 0AF1010A 		add	r10, r10, #1
 2051              	.LVL216:
 548:Drivers/lvgl/src/draw/sw/blend/lv_draw_sw_blend_to_i1.c ****                         uint8_t src_luminance = src_buf_l8[src_x];
 2052              		.loc 1 548 74 discriminator 2 view .LVU639
 2053 02b6 09F10109 		add	r9, r9, #1
 2054              	.LVL217:
 2055              	.L113:
 548:Drivers/lvgl/src/draw/sw/blend/lv_draw_sw_blend_to_i1.c ****                         uint8_t src_luminance = src_buf_l8[src_x];
 2056              		.loc 1 548 54 is_stmt 1 discriminator 1 view .LVU640
 2057 02ba B945     		cmp	r9, r7
 2058 02bc 31DA     		bge	.L142
 2059              	.LBB473:
 549:Drivers/lvgl/src/draw/sw/blend/lv_draw_sw_blend_to_i1.c ****                         uint8_t dest_val = get_bit(dest_buf_i1, dest_x + bit_ofs) * 255;
 2060              		.loc 1 549 25 view .LVU641
 549:Drivers/lvgl/src/draw/sw/blend/lv_draw_sw_blend_to_i1.c ****                         uint8_t dest_val = get_bit(dest_buf_i1, dest_x + bit_ofs) * 255;
 2061              		.loc 1 549 59 is_stmt 0 view .LVU642
 2062 02be 4A46     		mov	r2, r9
 549:Drivers/lvgl/src/draw/sw/blend/lv_draw_sw_blend_to_i1.c ****                         uint8_t dest_val = get_bit(dest_buf_i1, dest_x + bit_ofs) * 255;
 2063              		.loc 1 549 33 view .LVU643
 2064 02c0 15F80900 		ldrb	r0, [r5, r9]	@ zero_extendqisi2
 2065              	.LVL218:
 550:Drivers/lvgl/src/draw/sw/blend/lv_draw_sw_blend_to_i1.c ****                         lv_color_8_8_mix(src_luminance, &dest_val, LV_OPA_MIX2(mask_buf[src_x], opa
 2066              		.loc 1 550 25 is_stmt 1 view .LVU644
 550:Drivers/lvgl/src/draw/sw/blend/lv_draw_sw_blend_to_i1.c ****                         lv_color_8_8_mix(src_luminance, &dest_val, LV_OPA_MIX2(mask_buf[src_x], opa
 2067              		.loc 1 550 44 is_stmt 0 view .LVU645
 2068 02c4 029B     		ldr	r3, [sp, #8]
 2069 02c6 0AEB0306 		add	r6, r10, r3
 2070              	.LVL219:
 2071              	.LBB470:
 2072              	.LBI465:
1115:Drivers/lvgl/src/draw/sw/blend/lv_draw_sw_blend_to_i1.c **** {
 2073              		.loc 1 1115 45 is_stmt 1 view .LVU646
 2074              	.LBB467:
 2075              		.loc 1 1117 5 view .LVU647
 2076              		.loc 1 1117 25 is_stmt 0 view .LVU648
 2077 02ca B046     		mov	r8, r6
 2078 02cc 002E     		cmp	r6, #0
 2079 02ce E6DB     		blt	.L143
 2080              	.L109:
 2081              		.loc 1 1117 25 view .LVU649
 2082 02d0 4FEAE808 		asr	r8, r8, #3
 2083              		.loc 1 1117 16 view .LVU650
 2084 02d4 14F80830 		ldrb	r3, [r4, r8]	@ zero_extendqisi2
 2085              		.loc 1 1117 47 view .LVU651
 2086 02d8 7142     		rsbs	r1, r6, #0
 2087 02da 06F00706 		and	r6, r6, #7
 2088              	.LVL220:
 2089              		.loc 1 1117 47 view .LVU652
 2090 02de 01F00701 		and	r1, r1, #7
 2091 02e2 58BF     		it	pl
ARM GAS  /tmp/cc9ag92L.s 			page 67


 2092 02e4 4E42     		rsbpl	r6, r1, #0
 2093              		.loc 1 1117 36 view .LVU653
 2094 02e6 C6F10706 		rsb	r6, r6, #7
 2095              		.loc 1 1117 30 view .LVU654
 2096 02ea 3341     		asrs	r3, r3, r6
 2097              	.LVL221:
 2098              		.loc 1 1117 30 view .LVU655
 2099              	.LBE467:
 2100              	.LBE470:
 550:Drivers/lvgl/src/draw/sw/blend/lv_draw_sw_blend_to_i1.c ****                         lv_color_8_8_mix(src_luminance, &dest_val, LV_OPA_MIX2(mask_buf[src_x], opa
 2101              		.loc 1 550 33 discriminator 1 view .LVU656
 2102 02ec 43F30003 		sbfx	r3, r3, #0, #1
 2103 02f0 8DF82430 		strb	r3, [sp, #36]
 551:Drivers/lvgl/src/draw/sw/blend/lv_draw_sw_blend_to_i1.c ****                         if(dest_val > I1_LUM_THRESHOLD) {
 2104              		.loc 1 551 25 is_stmt 1 view .LVU657
 551:Drivers/lvgl/src/draw/sw/blend/lv_draw_sw_blend_to_i1.c ****                         if(dest_val > I1_LUM_THRESHOLD) {
 2105              		.loc 1 551 68 is_stmt 0 view .LVU658
 2106 02f4 1BF80220 		ldrb	r2, [fp, r2]	@ zero_extendqisi2
 2107 02f8 019B     		ldr	r3, [sp, #4]
 2108 02fa 03FB02F2 		mul	r2, r3, r2
 551:Drivers/lvgl/src/draw/sw/blend/lv_draw_sw_blend_to_i1.c ****                         if(dest_val > I1_LUM_THRESHOLD) {
 2109              		.loc 1 551 25 view .LVU659
 2110 02fe 120A     		lsrs	r2, r2, #8
 2111 0300 09A9     		add	r1, sp, #36
 2112 0302 FFF7FEFF 		bl	lv_color_8_8_mix
 2113              	.LVL222:
 552:Drivers/lvgl/src/draw/sw/blend/lv_draw_sw_blend_to_i1.c ****                             set_bit(dest_buf_i1, dest_x + bit_ofs);
 2114              		.loc 1 552 25 is_stmt 1 view .LVU660
 552:Drivers/lvgl/src/draw/sw/blend/lv_draw_sw_blend_to_i1.c ****                             set_bit(dest_buf_i1, dest_x + bit_ofs);
 2115              		.loc 1 552 37 is_stmt 0 view .LVU661
 2116 0306 9DF92430 		ldrsb	r3, [sp, #36]
 552:Drivers/lvgl/src/draw/sw/blend/lv_draw_sw_blend_to_i1.c ****                             set_bit(dest_buf_i1, dest_x + bit_ofs);
 2117              		.loc 1 552 27 view .LVU662
 2118 030a 002B     		cmp	r3, #0
 2119 030c CADB     		blt	.L144
 556:Drivers/lvgl/src/draw/sw/blend/lv_draw_sw_blend_to_i1.c ****                         }
 2120              		.loc 1 556 29 is_stmt 1 view .LVU663
 2121              	.LVL223:
 2122              	.LBB471:
 2123              	.LBI471:
1110:Drivers/lvgl/src/draw/sw/blend/lv_draw_sw_blend_to_i1.c **** {
 2124              		.loc 1 1110 42 view .LVU664
 2125              	.LBB472:
1112:Drivers/lvgl/src/draw/sw/blend/lv_draw_sw_blend_to_i1.c **** }
 2126              		.loc 1 1112 5 view .LVU665
1112:Drivers/lvgl/src/draw/sw/blend/lv_draw_sw_blend_to_i1.c **** }
 2127              		.loc 1 1112 8 is_stmt 0 view .LVU666
 2128 030e 14F80820 		ldrb	r2, [r4, r8]	@ zero_extendqisi2
1112:Drivers/lvgl/src/draw/sw/blend/lv_draw_sw_blend_to_i1.c **** }
 2129              		.loc 1 1112 29 view .LVU667
 2130 0312 0123     		movs	r3, #1
 2131 0314 B340     		lsls	r3, r3, r6
1112:Drivers/lvgl/src/draw/sw/blend/lv_draw_sw_blend_to_i1.c **** }
 2132              		.loc 1 1112 22 view .LVU668
 2133 0316 DB43     		mvns	r3, r3
 2134 0318 5BB2     		sxtb	r3, r3
 2135 031a 1340     		ands	r3, r3, r2
ARM GAS  /tmp/cc9ag92L.s 			page 68


 2136 031c 04F80830 		strb	r3, [r4, r8]
 2137              	.LVL224:
1113:Drivers/lvgl/src/draw/sw/blend/lv_draw_sw_blend_to_i1.c **** 
 2138              		.loc 1 1113 1 view .LVU669
 2139 0320 C7E7     		b	.L111
 2140              	.LVL225:
 2141              	.L142:
1113:Drivers/lvgl/src/draw/sw/blend/lv_draw_sw_blend_to_i1.c **** 
 2142              		.loc 1 1113 1 view .LVU670
 2143              	.LBE472:
 2144              	.LBE471:
 2145              	.LBE473:
 2146              	.LBB474:
 2147              	.LBB475:
1102:Drivers/lvgl/src/draw/sw/blend/lv_draw_sw_blend_to_i1.c **** }
 2148              		.loc 1 1102 12 view .LVU671
 2149 0322 039E     		ldr	r6, [sp, #12]
 2150              	.LBE475:
 2151              	.LBE474:
 559:Drivers/lvgl/src/draw/sw/blend/lv_draw_sw_blend_to_i1.c ****                     src_buf_l8 = drawbuf_next_row(src_buf_l8, src_stride);
 2152              		.loc 1 559 21 is_stmt 1 view .LVU672
 2153              	.LVL226:
 2154              	.LBB477:
 2155              	.LBI474:
1100:Drivers/lvgl/src/draw/sw/blend/lv_draw_sw_blend_to_i1.c **** {
 2156              		.loc 1 1100 44 view .LVU673
 2157              	.LBB476:
1102:Drivers/lvgl/src/draw/sw/blend/lv_draw_sw_blend_to_i1.c **** }
 2158              		.loc 1 1102 5 view .LVU674
1102:Drivers/lvgl/src/draw/sw/blend/lv_draw_sw_blend_to_i1.c **** }
 2159              		.loc 1 1102 12 is_stmt 0 view .LVU675
 2160 0324 059B     		ldr	r3, [sp, #20]
 2161 0326 1C44     		add	r4, r4, r3
 2162              	.LVL227:
1102:Drivers/lvgl/src/draw/sw/blend/lv_draw_sw_blend_to_i1.c **** }
 2163              		.loc 1 1102 12 view .LVU676
 2164              	.LBE476:
 2165              	.LBE477:
 560:Drivers/lvgl/src/draw/sw/blend/lv_draw_sw_blend_to_i1.c ****                     mask_buf += mask_stride;
 2166              		.loc 1 560 21 is_stmt 1 view .LVU677
 2167              	.LBB478:
 2168              	.LBI478:
1100:Drivers/lvgl/src/draw/sw/blend/lv_draw_sw_blend_to_i1.c **** {
 2169              		.loc 1 1100 44 view .LVU678
 2170              	.LBB479:
1102:Drivers/lvgl/src/draw/sw/blend/lv_draw_sw_blend_to_i1.c **** }
 2171              		.loc 1 1102 5 view .LVU679
1102:Drivers/lvgl/src/draw/sw/blend/lv_draw_sw_blend_to_i1.c **** }
 2172              		.loc 1 1102 12 is_stmt 0 view .LVU680
 2173 0328 069B     		ldr	r3, [sp, #24]
 2174 032a 1D44     		add	r5, r5, r3
 2175              	.LVL228:
1102:Drivers/lvgl/src/draw/sw/blend/lv_draw_sw_blend_to_i1.c **** }
 2176              		.loc 1 1102 12 view .LVU681
 2177              	.LBE479:
 2178              	.LBE478:
 561:Drivers/lvgl/src/draw/sw/blend/lv_draw_sw_blend_to_i1.c ****                 }
ARM GAS  /tmp/cc9ag92L.s 			page 69


 2179              		.loc 1 561 21 is_stmt 1 view .LVU682
 561:Drivers/lvgl/src/draw/sw/blend/lv_draw_sw_blend_to_i1.c ****                 }
 2180              		.loc 1 561 30 is_stmt 0 view .LVU683
 2181 032c 079B     		ldr	r3, [sp, #28]
 2182 032e 9B44     		add	fp, fp, r3
 2183              	.LVL229:
 547:Drivers/lvgl/src/draw/sw/blend/lv_draw_sw_blend_to_i1.c ****                     for(dest_x = 0, src_x = 0; src_x < w; dest_x++, src_x++) {
 2184              		.loc 1 547 36 is_stmt 1 discriminator 2 view .LVU684
 2185 0330 0136     		adds	r6, r6, #1
 2186              	.LVL230:
 2187              	.L108:
 547:Drivers/lvgl/src/draw/sw/blend/lv_draw_sw_blend_to_i1.c ****                     for(dest_x = 0, src_x = 0; src_x < w; dest_x++, src_x++) {
 2188              		.loc 1 547 30 discriminator 1 view .LVU685
 2189 0332 049B     		ldr	r3, [sp, #16]
 2190 0334 9E42     		cmp	r6, r3
 2191 0336 BFF6A2AE 		bge	.L83
 548:Drivers/lvgl/src/draw/sw/blend/lv_draw_sw_blend_to_i1.c ****                         uint8_t src_luminance = src_buf_l8[src_x];
 2192              		.loc 1 548 32 is_stmt 0 view .LVU686
 2193 033a 4FF0000A 		mov	r10, #0
 548:Drivers/lvgl/src/draw/sw/blend/lv_draw_sw_blend_to_i1.c ****                         uint8_t src_luminance = src_buf_l8[src_x];
 2194              		.loc 1 548 43 view .LVU687
 2195 033e D146     		mov	r9, r10
 2196 0340 0396     		str	r6, [sp, #12]
 2197 0342 BAE7     		b	.L113
 2198              	.LVL231:
 2199              	.L126:
 547:Drivers/lvgl/src/draw/sw/blend/lv_draw_sw_blend_to_i1.c ****                     for(dest_x = 0, src_x = 0; src_x < w; dest_x++, src_x++) {
 2200              		.loc 1 547 23 view .LVU688
 2201 0344 4FF00009 		mov	r9, #0
 2202 0348 AB46     		mov	fp, r5
 2203              	.LVL232:
 547:Drivers/lvgl/src/draw/sw/blend/lv_draw_sw_blend_to_i1.c ****                     for(dest_x = 0, src_x = 0; src_x < w; dest_x++, src_x++) {
 2204              		.loc 1 547 23 view .LVU689
 2205 034a 3546     		mov	r5, r6
 2206              	.LVL233:
 547:Drivers/lvgl/src/draw/sw/blend/lv_draw_sw_blend_to_i1.c ****                     for(dest_x = 0, src_x = 0; src_x < w; dest_x++, src_x++) {
 2207              		.loc 1 547 23 view .LVU690
 2208 034c 4E46     		mov	r6, r9
 2209              	.LVL234:
 547:Drivers/lvgl/src/draw/sw/blend/lv_draw_sw_blend_to_i1.c ****                     for(dest_x = 0, src_x = 0; src_x < w; dest_x++, src_x++) {
 2210              		.loc 1 547 23 view .LVU691
 2211 034e CDF81080 		str	r8, [sp, #16]
 2212 0352 0191     		str	r1, [sp, #4]
 2213 0354 CDF814E0 		str	lr, [sp, #20]
 2214 0358 0692     		str	r2, [sp, #24]
 2215 035a CDF81CC0 		str	ip, [sp, #28]
 2216 035e 0293     		str	r3, [sp, #8]
 2217 0360 E7E7     		b	.L108
 2218              	.LVL235:
 2219              	.L114:
 2220              	.LBB480:
 574:Drivers/lvgl/src/draw/sw/blend/lv_draw_sw_blend_to_i1.c ****                 blend_non_normal_pixel(dest_buf_i1, src_x + bit_ofs, src_argb, dsc->blend_mode);
 2221              		.loc 1 574 22 is_stmt 1 view .LVU692
 574:Drivers/lvgl/src/draw/sw/blend/lv_draw_sw_blend_to_i1.c ****                 blend_non_normal_pixel(dest_buf_i1, src_x + bit_ofs, src_argb, dsc->blend_mode);
 2222              		.loc 1 574 39 is_stmt 0 view .LVU693
 2223 0362 14F80930 		ldrb	r3, [r4, r9]	@ zero_extendqisi2
 2224 0366 03FB0AF3 		mul	r3, r3, r10
ARM GAS  /tmp/cc9ag92L.s 			page 70


 2225 036a 1B0A     		lsrs	r3, r3, #8
 574:Drivers/lvgl/src/draw/sw/blend/lv_draw_sw_blend_to_i1.c ****                 blend_non_normal_pixel(dest_buf_i1, src_x + bit_ofs, src_argb, dsc->blend_mode);
 2226              		.loc 1 574 37 view .LVU694
 2227 036c 8DF82730 		strb	r3, [sp, #39]
 2228              	.L115:
 575:Drivers/lvgl/src/draw/sw/blend/lv_draw_sw_blend_to_i1.c ****             }
 2229              		.loc 1 575 17 is_stmt 1 view .LVU695
 2230 0370 9BF82230 		ldrb	r3, [fp, #34]	@ zero_extendqisi2
 2231 0374 099A     		ldr	r2, [sp, #36]
 2232 0376 09EB0801 		add	r1, r9, r8
 2233 037a 2846     		mov	r0, r5
 2234 037c FFF7FEFF 		bl	blend_non_normal_pixel
 2235              	.LVL236:
 569:Drivers/lvgl/src/draw/sw/blend/lv_draw_sw_blend_to_i1.c ****                 src_argb.red = src_buf_l8[src_x];
 2236              		.loc 1 569 44 discriminator 2 view .LVU696
 2237 0380 09F10109 		add	r9, r9, #1
 2238              	.LVL237:
 2239              	.L118:
 569:Drivers/lvgl/src/draw/sw/blend/lv_draw_sw_blend_to_i1.c ****                 src_argb.red = src_buf_l8[src_x];
 2240              		.loc 1 569 34 discriminator 1 view .LVU697
 2241 0384 B945     		cmp	r9, r7
 2242 0386 0CDA     		bge	.L145
 570:Drivers/lvgl/src/draw/sw/blend/lv_draw_sw_blend_to_i1.c ****                 src_argb.green = src_buf_l8[src_x];
 2243              		.loc 1 570 17 view .LVU698
 570:Drivers/lvgl/src/draw/sw/blend/lv_draw_sw_blend_to_i1.c ****                 src_argb.green = src_buf_l8[src_x];
 2244              		.loc 1 570 42 is_stmt 0 view .LVU699
 2245 0388 16F80930 		ldrb	r3, [r6, r9]	@ zero_extendqisi2
 570:Drivers/lvgl/src/draw/sw/blend/lv_draw_sw_blend_to_i1.c ****                 src_argb.green = src_buf_l8[src_x];
 2246              		.loc 1 570 30 view .LVU700
 2247 038c 8DF82630 		strb	r3, [sp, #38]
 571:Drivers/lvgl/src/draw/sw/blend/lv_draw_sw_blend_to_i1.c ****                 src_argb.blue = src_buf_l8[src_x];
 2248              		.loc 1 571 17 is_stmt 1 view .LVU701
 571:Drivers/lvgl/src/draw/sw/blend/lv_draw_sw_blend_to_i1.c ****                 src_argb.blue = src_buf_l8[src_x];
 2249              		.loc 1 571 32 is_stmt 0 view .LVU702
 2250 0390 8DF82530 		strb	r3, [sp, #37]
 572:Drivers/lvgl/src/draw/sw/blend/lv_draw_sw_blend_to_i1.c ****                 if(mask_buf == NULL) src_argb.alpha = opa;
 2251              		.loc 1 572 17 is_stmt 1 view .LVU703
 572:Drivers/lvgl/src/draw/sw/blend/lv_draw_sw_blend_to_i1.c ****                 if(mask_buf == NULL) src_argb.alpha = opa;
 2252              		.loc 1 572 31 is_stmt 0 view .LVU704
 2253 0394 8DF82430 		strb	r3, [sp, #36]
 573:Drivers/lvgl/src/draw/sw/blend/lv_draw_sw_blend_to_i1.c ****                 else src_argb.alpha = LV_OPA_MIX2(mask_buf[src_x], opa);
 2254              		.loc 1 573 17 is_stmt 1 view .LVU705
 573:Drivers/lvgl/src/draw/sw/blend/lv_draw_sw_blend_to_i1.c ****                 else src_argb.alpha = LV_OPA_MIX2(mask_buf[src_x], opa);
 2255              		.loc 1 573 19 is_stmt 0 view .LVU706
 2256 0398 002C     		cmp	r4, #0
 2257 039a E2D1     		bne	.L114
 573:Drivers/lvgl/src/draw/sw/blend/lv_draw_sw_blend_to_i1.c ****                 else src_argb.alpha = LV_OPA_MIX2(mask_buf[src_x], opa);
 2258              		.loc 1 573 38 is_stmt 1 discriminator 1 view .LVU707
 573:Drivers/lvgl/src/draw/sw/blend/lv_draw_sw_blend_to_i1.c ****                 else src_argb.alpha = LV_OPA_MIX2(mask_buf[src_x], opa);
 2259              		.loc 1 573 53 is_stmt 0 discriminator 1 view .LVU708
 2260 039c 8DF827A0 		strb	r10, [sp, #39]
 2261 03a0 E6E7     		b	.L115
 2262              	.L145:
 577:Drivers/lvgl/src/draw/sw/blend/lv_draw_sw_blend_to_i1.c ****             dest_buf_i1 = drawbuf_next_row(dest_buf_i1, dest_stride);
 2263              		.loc 1 577 15 view .LVU709
 2264 03a2 0198     		ldr	r0, [sp, #4]
 2265 03a4 4346     		mov	r3, r8
ARM GAS  /tmp/cc9ag92L.s 			page 71


 2266 03a6 A046     		mov	r8, r4
 2267              	.LVL238:
 577:Drivers/lvgl/src/draw/sw/blend/lv_draw_sw_blend_to_i1.c ****             dest_buf_i1 = drawbuf_next_row(dest_buf_i1, dest_stride);
 2268              		.loc 1 577 15 view .LVU710
 2269 03a8 1C46     		mov	r4, r3
 2270              	.LVL239:
 577:Drivers/lvgl/src/draw/sw/blend/lv_draw_sw_blend_to_i1.c ****             dest_buf_i1 = drawbuf_next_row(dest_buf_i1, dest_stride);
 2271              		.loc 1 577 13 is_stmt 1 view .LVU711
 577:Drivers/lvgl/src/draw/sw/blend/lv_draw_sw_blend_to_i1.c ****             dest_buf_i1 = drawbuf_next_row(dest_buf_i1, dest_stride);
 2272              		.loc 1 577 15 is_stmt 0 view .LVU712
 2273 03aa B8F1000F 		cmp	r8, #0
 2274 03ae 01D0     		beq	.L117
 577:Drivers/lvgl/src/draw/sw/blend/lv_draw_sw_blend_to_i1.c ****             dest_buf_i1 = drawbuf_next_row(dest_buf_i1, dest_stride);
 2275              		.loc 1 577 26 is_stmt 1 discriminator 1 view .LVU713
 577:Drivers/lvgl/src/draw/sw/blend/lv_draw_sw_blend_to_i1.c ****             dest_buf_i1 = drawbuf_next_row(dest_buf_i1, dest_stride);
 2276              		.loc 1 577 35 is_stmt 0 discriminator 1 view .LVU714
 2277 03b0 059B     		ldr	r3, [sp, #20]
 2278              	.LVL240:
 577:Drivers/lvgl/src/draw/sw/blend/lv_draw_sw_blend_to_i1.c ****             dest_buf_i1 = drawbuf_next_row(dest_buf_i1, dest_stride);
 2279              		.loc 1 577 35 discriminator 1 view .LVU715
 2280 03b2 9844     		add	r8, r8, r3
 2281              	.LVL241:
 2282              	.L117:
 578:Drivers/lvgl/src/draw/sw/blend/lv_draw_sw_blend_to_i1.c ****             src_buf_l8 = drawbuf_next_row(src_buf_l8, src_stride);
 2283              		.loc 1 578 13 is_stmt 1 view .LVU716
 2284              	.LBB481:
 2285              	.LBI481:
1100:Drivers/lvgl/src/draw/sw/blend/lv_draw_sw_blend_to_i1.c **** {
 2286              		.loc 1 1100 44 view .LVU717
 2287              	.LBB482:
1102:Drivers/lvgl/src/draw/sw/blend/lv_draw_sw_blend_to_i1.c **** }
 2288              		.loc 1 1102 5 view .LVU718
1102:Drivers/lvgl/src/draw/sw/blend/lv_draw_sw_blend_to_i1.c **** }
 2289              		.loc 1 1102 12 is_stmt 0 view .LVU719
 2290 03b4 039B     		ldr	r3, [sp, #12]
 2291 03b6 1D44     		add	r5, r5, r3
 2292              	.LVL242:
1102:Drivers/lvgl/src/draw/sw/blend/lv_draw_sw_blend_to_i1.c **** }
 2293              		.loc 1 1102 12 view .LVU720
 2294              	.LBE482:
 2295              	.LBE481:
 579:Drivers/lvgl/src/draw/sw/blend/lv_draw_sw_blend_to_i1.c ****         }
 2296              		.loc 1 579 13 is_stmt 1 view .LVU721
 2297              	.LBB483:
 2298              	.LBI483:
1100:Drivers/lvgl/src/draw/sw/blend/lv_draw_sw_blend_to_i1.c **** {
 2299              		.loc 1 1100 44 view .LVU722
 2300              	.LBB484:
1102:Drivers/lvgl/src/draw/sw/blend/lv_draw_sw_blend_to_i1.c **** }
 2301              		.loc 1 1102 5 view .LVU723
1102:Drivers/lvgl/src/draw/sw/blend/lv_draw_sw_blend_to_i1.c **** }
 2302              		.loc 1 1102 12 is_stmt 0 view .LVU724
 2303 03b8 049B     		ldr	r3, [sp, #16]
 2304 03ba 1E44     		add	r6, r6, r3
 2305              	.LVL243:
1102:Drivers/lvgl/src/draw/sw/blend/lv_draw_sw_blend_to_i1.c **** }
 2306              		.loc 1 1102 12 view .LVU725
ARM GAS  /tmp/cc9ag92L.s 			page 72


 2307              	.LBE484:
 2308              	.LBE483:
 568:Drivers/lvgl/src/draw/sw/blend/lv_draw_sw_blend_to_i1.c ****             for(src_x = 0; src_x < w; src_x++) {
 2309              		.loc 1 568 28 is_stmt 1 discriminator 2 view .LVU726
 2310 03bc 0130     		adds	r0, r0, #1
 2311              	.LVL244:
 2312              	.L84:
 568:Drivers/lvgl/src/draw/sw/blend/lv_draw_sw_blend_to_i1.c ****             for(src_x = 0; src_x < w; src_x++) {
 2313              		.loc 1 568 22 discriminator 1 view .LVU727
 2314 03be 029B     		ldr	r3, [sp, #8]
 2315 03c0 9842     		cmp	r0, r3
 2316 03c2 BFF65CAE 		bge	.L83
 569:Drivers/lvgl/src/draw/sw/blend/lv_draw_sw_blend_to_i1.c ****                 src_argb.red = src_buf_l8[src_x];
 2317              		.loc 1 569 23 is_stmt 0 view .LVU728
 2318 03c6 4FF00009 		mov	r9, #0
 2319 03ca 0190     		str	r0, [sp, #4]
 2320 03cc 2346     		mov	r3, r4
 2321 03ce 4446     		mov	r4, r8
 2322              	.LVL245:
 569:Drivers/lvgl/src/draw/sw/blend/lv_draw_sw_blend_to_i1.c ****                 src_argb.red = src_buf_l8[src_x];
 2323              		.loc 1 569 23 view .LVU729
 2324 03d0 9846     		mov	r8, r3
 2325              	.LVL246:
 569:Drivers/lvgl/src/draw/sw/blend/lv_draw_sw_blend_to_i1.c ****                 src_argb.red = src_buf_l8[src_x];
 2326              		.loc 1 569 23 view .LVU730
 2327 03d2 D7E7     		b	.L118
 2328              	.LVL247:
 2329              	.L119:
 568:Drivers/lvgl/src/draw/sw/blend/lv_draw_sw_blend_to_i1.c ****             for(src_x = 0; src_x < w; src_x++) {
 2330              		.loc 1 568 15 view .LVU731
 2331 03d4 0020     		movs	r0, #0
 2332 03d6 CDF80880 		str	r8, [sp, #8]
 2333 03da A846     		mov	r8, r5
 2334              	.LVL248:
 568:Drivers/lvgl/src/draw/sw/blend/lv_draw_sw_blend_to_i1.c ****             for(src_x = 0; src_x < w; src_x++) {
 2335              		.loc 1 568 15 view .LVU732
 2336 03dc 2546     		mov	r5, r4
 2337              	.LVL249:
 568:Drivers/lvgl/src/draw/sw/blend/lv_draw_sw_blend_to_i1.c ****             for(src_x = 0; src_x < w; src_x++) {
 2338              		.loc 1 568 15 view .LVU733
 2339 03de 8A46     		mov	r10, r1
 2340 03e0 CDF80CE0 		str	lr, [sp, #12]
 2341 03e4 0492     		str	r2, [sp, #16]
 2342 03e6 CDF814C0 		str	ip, [sp, #20]
 2343 03ea 1C46     		mov	r4, r3
 2344              	.LVL250:
 568:Drivers/lvgl/src/draw/sw/blend/lv_draw_sw_blend_to_i1.c ****             for(src_x = 0; src_x < w; src_x++) {
 2345              		.loc 1 568 15 view .LVU734
 2346 03ec E7E7     		b	.L84
 2347              	.LBE480:
 2348              		.cfi_endproc
 2349              	.LFE189:
 2351              		.section	.text.al88_image_blend,"ax",%progbits
 2352              		.align	1
 2353              		.syntax unified
 2354              		.thumb
 2355              		.thumb_func
ARM GAS  /tmp/cc9ag92L.s 			page 73


 2357              	al88_image_blend:
 2358              	.LVL251:
 2359              	.LFB190:
 587:Drivers/lvgl/src/draw/sw/blend/lv_draw_sw_blend_to_i1.c ****     int32_t w = dsc->dest_w;
 2360              		.loc 1 587 1 is_stmt 1 view -0
 2361              		.cfi_startproc
 2362              		@ args = 0, pretend = 0, frame = 40
 2363              		@ frame_needed = 0, uses_anonymous_args = 0
 587:Drivers/lvgl/src/draw/sw/blend/lv_draw_sw_blend_to_i1.c ****     int32_t w = dsc->dest_w;
 2364              		.loc 1 587 1 is_stmt 0 view .LVU736
 2365 0000 2DE9F04F 		push	{r4, r5, r6, r7, r8, r9, r10, fp, lr}
 2366              	.LCFI12:
 2367              		.cfi_def_cfa_offset 36
 2368              		.cfi_offset 4, -36
 2369              		.cfi_offset 5, -32
 2370              		.cfi_offset 6, -28
 2371              		.cfi_offset 7, -24
 2372              		.cfi_offset 8, -20
 2373              		.cfi_offset 9, -16
 2374              		.cfi_offset 10, -12
 2375              		.cfi_offset 11, -8
 2376              		.cfi_offset 14, -4
 2377 0004 8BB0     		sub	sp, sp, #44
 2378              	.LCFI13:
 2379              		.cfi_def_cfa_offset 80
 2380 0006 8346     		mov	fp, r0
 588:Drivers/lvgl/src/draw/sw/blend/lv_draw_sw_blend_to_i1.c ****     int32_t h = dsc->dest_h;
 2381              		.loc 1 588 5 is_stmt 1 view .LVU737
 588:Drivers/lvgl/src/draw/sw/blend/lv_draw_sw_blend_to_i1.c ****     int32_t h = dsc->dest_h;
 2382              		.loc 1 588 13 is_stmt 0 view .LVU738
 2383 0008 D0F80490 		ldr	r9, [r0, #4]
 2384              	.LVL252:
 589:Drivers/lvgl/src/draw/sw/blend/lv_draw_sw_blend_to_i1.c ****     lv_opa_t opa = dsc->opa;
 2385              		.loc 1 589 5 is_stmt 1 view .LVU739
 589:Drivers/lvgl/src/draw/sw/blend/lv_draw_sw_blend_to_i1.c ****     lv_opa_t opa = dsc->opa;
 2386              		.loc 1 589 13 is_stmt 0 view .LVU740
 2387 000c 8368     		ldr	r3, [r0, #8]
 2388 000e 0293     		str	r3, [sp, #8]
 2389              	.LVL253:
 590:Drivers/lvgl/src/draw/sw/blend/lv_draw_sw_blend_to_i1.c ****     uint8_t * dest_buf_i1 = dsc->dest_buf;
 2390              		.loc 1 590 5 is_stmt 1 view .LVU741
 590:Drivers/lvgl/src/draw/sw/blend/lv_draw_sw_blend_to_i1.c ****     uint8_t * dest_buf_i1 = dsc->dest_buf;
 2391              		.loc 1 590 14 is_stmt 0 view .LVU742
 2392 0010 90F82100 		ldrb	r0, [r0, #33]	@ zero_extendqisi2
 2393              	.LVL254:
 591:Drivers/lvgl/src/draw/sw/blend/lv_draw_sw_blend_to_i1.c ****     int32_t dest_stride = dsc->dest_stride;
 2394              		.loc 1 591 5 is_stmt 1 view .LVU743
 591:Drivers/lvgl/src/draw/sw/blend/lv_draw_sw_blend_to_i1.c ****     int32_t dest_stride = dsc->dest_stride;
 2395              		.loc 1 591 15 is_stmt 0 view .LVU744
 2396 0014 DBF80060 		ldr	r6, [fp]
 2397              	.LVL255:
 592:Drivers/lvgl/src/draw/sw/blend/lv_draw_sw_blend_to_i1.c ****     const lv_color16a_t * src_buf_al88 = dsc->src_buf;
 2398              		.loc 1 592 5 is_stmt 1 view .LVU745
 592:Drivers/lvgl/src/draw/sw/blend/lv_draw_sw_blend_to_i1.c ****     const lv_color16a_t * src_buf_al88 = dsc->src_buf;
 2399              		.loc 1 592 13 is_stmt 0 view .LVU746
 2400 0018 DBF80C30 		ldr	r3, [fp, #12]
 2401              	.LVL256:
ARM GAS  /tmp/cc9ag92L.s 			page 74


 592:Drivers/lvgl/src/draw/sw/blend/lv_draw_sw_blend_to_i1.c ****     const lv_color16a_t * src_buf_al88 = dsc->src_buf;
 2402              		.loc 1 592 13 view .LVU747
 2403 001c 0393     		str	r3, [sp, #12]
 2404              	.LVL257:
 593:Drivers/lvgl/src/draw/sw/blend/lv_draw_sw_blend_to_i1.c ****     int32_t src_stride = dsc->src_stride;
 2405              		.loc 1 593 5 is_stmt 1 view .LVU748
 593:Drivers/lvgl/src/draw/sw/blend/lv_draw_sw_blend_to_i1.c ****     int32_t src_stride = dsc->src_stride;
 2406              		.loc 1 593 27 is_stmt 0 view .LVU749
 2407 001e DBF81850 		ldr	r5, [fp, #24]
 2408              	.LVL258:
 594:Drivers/lvgl/src/draw/sw/blend/lv_draw_sw_blend_to_i1.c ****     const lv_opa_t * mask_buf = dsc->mask_buf;
 2409              		.loc 1 594 5 is_stmt 1 view .LVU750
 594:Drivers/lvgl/src/draw/sw/blend/lv_draw_sw_blend_to_i1.c ****     const lv_opa_t * mask_buf = dsc->mask_buf;
 2410              		.loc 1 594 13 is_stmt 0 view .LVU751
 2411 0022 DBF81C30 		ldr	r3, [fp, #28]
 2412              	.LVL259:
 594:Drivers/lvgl/src/draw/sw/blend/lv_draw_sw_blend_to_i1.c ****     const lv_opa_t * mask_buf = dsc->mask_buf;
 2413              		.loc 1 594 13 view .LVU752
 2414 0026 0493     		str	r3, [sp, #16]
 2415              	.LVL260:
 595:Drivers/lvgl/src/draw/sw/blend/lv_draw_sw_blend_to_i1.c ****     int32_t mask_stride = dsc->mask_stride;
 2416              		.loc 1 595 5 is_stmt 1 view .LVU753
 595:Drivers/lvgl/src/draw/sw/blend/lv_draw_sw_blend_to_i1.c ****     int32_t mask_stride = dsc->mask_stride;
 2417              		.loc 1 595 22 is_stmt 0 view .LVU754
 2418 0028 DBF810A0 		ldr	r10, [fp, #16]
 2419              	.LVL261:
 596:Drivers/lvgl/src/draw/sw/blend/lv_draw_sw_blend_to_i1.c **** 
 2420              		.loc 1 596 5 is_stmt 1 view .LVU755
 596:Drivers/lvgl/src/draw/sw/blend/lv_draw_sw_blend_to_i1.c **** 
 2421              		.loc 1 596 13 is_stmt 0 view .LVU756
 2422 002c DBF81410 		ldr	r1, [fp, #20]
 2423              	.LVL262:
 598:Drivers/lvgl/src/draw/sw/blend/lv_draw_sw_blend_to_i1.c ****     int32_t src_x;
 2424              		.loc 1 598 5 is_stmt 1 view .LVU757
 599:Drivers/lvgl/src/draw/sw/blend/lv_draw_sw_blend_to_i1.c ****     int32_t y;
 2425              		.loc 1 599 5 view .LVU758
 600:Drivers/lvgl/src/draw/sw/blend/lv_draw_sw_blend_to_i1.c **** 
 2426              		.loc 1 600 5 view .LVU759
 602:Drivers/lvgl/src/draw/sw/blend/lv_draw_sw_blend_to_i1.c **** 
 2427              		.loc 1 602 5 view .LVU760
 602:Drivers/lvgl/src/draw/sw/blend/lv_draw_sw_blend_to_i1.c **** 
 2428              		.loc 1 602 41 is_stmt 0 view .LVU761
 2429 0030 DBF82440 		ldr	r4, [fp, #36]
 602:Drivers/lvgl/src/draw/sw/blend/lv_draw_sw_blend_to_i1.c **** 
 2430              		.loc 1 602 13 view .LVU762
 2431 0034 6342     		rsbs	r3, r4, #0
 2432              	.LVL263:
 602:Drivers/lvgl/src/draw/sw/blend/lv_draw_sw_blend_to_i1.c **** 
 2433              		.loc 1 602 13 view .LVU763
 2434 0036 04F00704 		and	r4, r4, #7
 2435 003a 03F00703 		and	r3, r3, #7
 2436 003e 58BF     		it	pl
 2437 0040 5C42     		rsbpl	r4, r3, #0
 2438              	.LVL264:
 604:Drivers/lvgl/src/draw/sw/blend/lv_draw_sw_blend_to_i1.c ****         if(mask_buf == NULL && opa >= LV_OPA_MAX) {
 2439              		.loc 1 604 5 is_stmt 1 view .LVU764
 604:Drivers/lvgl/src/draw/sw/blend/lv_draw_sw_blend_to_i1.c ****         if(mask_buf == NULL && opa >= LV_OPA_MAX) {
ARM GAS  /tmp/cc9ag92L.s 			page 75


 2440              		.loc 1 604 11 is_stmt 0 view .LVU765
 2441 0042 9BF82230 		ldrb	r3, [fp, #34]	@ zero_extendqisi2
 604:Drivers/lvgl/src/draw/sw/blend/lv_draw_sw_blend_to_i1.c ****         if(mask_buf == NULL && opa >= LV_OPA_MAX) {
 2442              		.loc 1 604 7 view .LVU766
 2443 0046 002B     		cmp	r3, #0
 2444 0048 40F0D181 		bne	.L181
 605:Drivers/lvgl/src/draw/sw/blend/lv_draw_sw_blend_to_i1.c ****             if(LV_RESULT_INVALID == LV_DRAW_SW_AL88_BLEND_NORMAL_TO_I1(dsc)) {
 2445              		.loc 1 605 9 is_stmt 1 view .LVU767
 605:Drivers/lvgl/src/draw/sw/blend/lv_draw_sw_blend_to_i1.c ****             if(LV_RESULT_INVALID == LV_DRAW_SW_AL88_BLEND_NORMAL_TO_I1(dsc)) {
 2446              		.loc 1 605 21 is_stmt 0 view .LVU768
 2447 004c BAFA8AF3 		clz	r3, r10
 2448 0050 5B09     		lsrs	r3, r3, #5
 605:Drivers/lvgl/src/draw/sw/blend/lv_draw_sw_blend_to_i1.c ****             if(LV_RESULT_INVALID == LV_DRAW_SW_AL88_BLEND_NORMAL_TO_I1(dsc)) {
 2449              		.loc 1 605 36 view .LVU769
 2450 0052 FC28     		cmp	r0, #252
 2451 0054 94BF     		ite	ls
 2452 0056 0022     		movls	r2, #0
 2453 0058 0122     		movhi	r2, #1
 605:Drivers/lvgl/src/draw/sw/blend/lv_draw_sw_blend_to_i1.c ****             if(LV_RESULT_INVALID == LV_DRAW_SW_AL88_BLEND_NORMAL_TO_I1(dsc)) {
 2454              		.loc 1 605 11 view .LVU770
 2455 005a 1342     		tst	r3, r2
 2456 005c 66D1     		bne	.L182
 623:Drivers/lvgl/src/draw/sw/blend/lv_draw_sw_blend_to_i1.c ****             if(LV_RESULT_INVALID == LV_DRAW_SW_AL88_BLEND_NORMAL_TO_I1_WITH_OPA(dsc)) {
 2457              		.loc 1 623 14 is_stmt 1 view .LVU771
 623:Drivers/lvgl/src/draw/sw/blend/lv_draw_sw_blend_to_i1.c ****             if(LV_RESULT_INVALID == LV_DRAW_SW_AL88_BLEND_NORMAL_TO_I1_WITH_OPA(dsc)) {
 2458              		.loc 1 623 41 is_stmt 0 view .LVU772
 2459 005e FC28     		cmp	r0, #252
 2460 0060 8CBF     		ite	hi
 2461 0062 0027     		movhi	r7, #0
 2462 0064 0127     		movls	r7, #1
 623:Drivers/lvgl/src/draw/sw/blend/lv_draw_sw_blend_to_i1.c ****             if(LV_RESULT_INVALID == LV_DRAW_SW_AL88_BLEND_NORMAL_TO_I1_WITH_OPA(dsc)) {
 2463              		.loc 1 623 16 view .LVU773
 2464 0066 3B42     		tst	r3, r7
 2465 0068 40F0BC80 		bne	.L184
 641:Drivers/lvgl/src/draw/sw/blend/lv_draw_sw_blend_to_i1.c ****             if(LV_RESULT_INVALID == LV_DRAW_SW_AL88_BLEND_NORMAL_TO_I1_WITH_MASK(dsc)) {
 2466              		.loc 1 641 14 is_stmt 1 view .LVU774
 641:Drivers/lvgl/src/draw/sw/blend/lv_draw_sw_blend_to_i1.c ****             if(LV_RESULT_INVALID == LV_DRAW_SW_AL88_BLEND_NORMAL_TO_I1_WITH_MASK(dsc)) {
 2467              		.loc 1 641 17 is_stmt 0 view .LVU775
 2468 006c BAF10003 		subs	r3, r10, #0
 2469 0070 18BF     		it	ne
 2470 0072 0123     		movne	r3, #1
 641:Drivers/lvgl/src/draw/sw/blend/lv_draw_sw_blend_to_i1.c ****             if(LV_RESULT_INVALID == LV_DRAW_SW_AL88_BLEND_NORMAL_TO_I1_WITH_MASK(dsc)) {
 2471              		.loc 1 641 16 view .LVU776
 2472 0074 1A42     		tst	r2, r3
 2473 0076 40F01481 		bne	.L186
 660:Drivers/lvgl/src/draw/sw/blend/lv_draw_sw_blend_to_i1.c ****             if(LV_RESULT_INVALID == LV_DRAW_SW_AL88_BLEND_NORMAL_TO_I1_MIX_MASK_OPA(dsc)) {
 2474              		.loc 1 660 14 is_stmt 1 view .LVU777
 660:Drivers/lvgl/src/draw/sw/blend/lv_draw_sw_blend_to_i1.c ****             if(LV_RESULT_INVALID == LV_DRAW_SW_AL88_BLEND_NORMAL_TO_I1_MIX_MASK_OPA(dsc)) {
 2475              		.loc 1 660 16 is_stmt 0 view .LVU778
 2476 007a 1F42     		tst	r7, r3
 2477 007c 40F07481 		bne	.L188
 2478              	.LVL265:
 2479              	.L146:
 696:Drivers/lvgl/src/draw/sw/blend/lv_draw_sw_blend_to_i1.c **** #endif
 2480              		.loc 1 696 1 view .LVU779
 2481 0080 0BB0     		add	sp, sp, #44
 2482              	.LCFI14:
ARM GAS  /tmp/cc9ag92L.s 			page 76


 2483              		.cfi_remember_state
 2484              		.cfi_def_cfa_offset 36
 2485              		@ sp needed
 2486 0082 BDE8F08F 		pop	{r4, r5, r6, r7, r8, r9, r10, fp, pc}
 2487              	.LVL266:
 2488              	.L196:
 2489              	.LCFI15:
 2490              		.cfi_restore_state
 2491              	.LBB485:
 2492              	.LBB486:
 2493              	.LBB487:
 2494              		.loc 1 1117 25 view .LVU780
 2495 0086 08F1070A 		add	r10, r8, #7
 2496 008a 12E0     		b	.L150
 2497              	.LVL267:
 2498              	.L197:
 2499              		.loc 1 1117 25 view .LVU781
 2500              	.LBE487:
 2501              	.LBE486:
 612:Drivers/lvgl/src/draw/sw/blend/lv_draw_sw_blend_to_i1.c ****                         }
 2502              		.loc 1 612 29 is_stmt 1 view .LVU782
 2503              	.LBB489:
 2504              	.LBI489:
1105:Drivers/lvgl/src/draw/sw/blend/lv_draw_sw_blend_to_i1.c **** {
 2505              		.loc 1 1105 42 view .LVU783
 2506              	.LBB490:
1107:Drivers/lvgl/src/draw/sw/blend/lv_draw_sw_blend_to_i1.c **** }
 2507              		.loc 1 1107 5 view .LVU784
1107:Drivers/lvgl/src/draw/sw/blend/lv_draw_sw_blend_to_i1.c **** }
 2508              		.loc 1 1107 8 is_stmt 0 view .LVU785
 2509 008c 16F80A30 		ldrb	r3, [r6, r10]	@ zero_extendqisi2
1107:Drivers/lvgl/src/draw/sw/blend/lv_draw_sw_blend_to_i1.c **** }
 2510              		.loc 1 1107 28 view .LVU786
 2511 0090 0122     		movs	r2, #1
 2512 0092 02FA08F2 		lsl	r2, r2, r8
1107:Drivers/lvgl/src/draw/sw/blend/lv_draw_sw_blend_to_i1.c **** }
 2513              		.loc 1 1107 22 view .LVU787
 2514 0096 1343     		orrs	r3, r3, r2
 2515 0098 06F80A30 		strb	r3, [r6, r10]
 2516              	.LVL268:
 2517              	.L152:
1107:Drivers/lvgl/src/draw/sw/blend/lv_draw_sw_blend_to_i1.c **** }
 2518              		.loc 1 1107 22 view .LVU788
 2519              	.LBE490:
 2520              	.LBE489:
 2521              	.LBE485:
 608:Drivers/lvgl/src/draw/sw/blend/lv_draw_sw_blend_to_i1.c ****                         uint8_t dest_val = get_bit(dest_buf_i1, dest_x + bit_ofs) * 255;
 2522              		.loc 1 608 67 is_stmt 1 discriminator 2 view .LVU789
 608:Drivers/lvgl/src/draw/sw/blend/lv_draw_sw_blend_to_i1.c ****                         uint8_t dest_val = get_bit(dest_buf_i1, dest_x + bit_ofs) * 255;
 2523              		.loc 1 608 65 is_stmt 0 discriminator 2 view .LVU790
 2524 009c 0134     		adds	r4, r4, #1
 2525              	.LVL269:
 608:Drivers/lvgl/src/draw/sw/blend/lv_draw_sw_blend_to_i1.c ****                         uint8_t dest_val = get_bit(dest_buf_i1, dest_x + bit_ofs) * 255;
 2526              		.loc 1 608 74 discriminator 2 view .LVU791
 2527 009e 0BF1010B 		add	fp, fp, #1
 2528              	.LVL270:
 2529              	.L154:
ARM GAS  /tmp/cc9ag92L.s 			page 77


 608:Drivers/lvgl/src/draw/sw/blend/lv_draw_sw_blend_to_i1.c ****                         uint8_t dest_val = get_bit(dest_buf_i1, dest_x + bit_ofs) * 255;
 2530              		.loc 1 608 54 is_stmt 1 discriminator 1 view .LVU792
 2531 00a2 CB45     		cmp	fp, r9
 2532 00a4 31DA     		bge	.L195
 2533              	.LBB494:
 609:Drivers/lvgl/src/draw/sw/blend/lv_draw_sw_blend_to_i1.c ****                         lv_color_8_8_mix(src_buf_al88[src_x].lumi, &dest_val, src_buf_al88[src_x].a
 2534              		.loc 1 609 25 view .LVU793
 609:Drivers/lvgl/src/draw/sw/blend/lv_draw_sw_blend_to_i1.c ****                         lv_color_8_8_mix(src_buf_al88[src_x].lumi, &dest_val, src_buf_al88[src_x].a
 2535              		.loc 1 609 44 is_stmt 0 view .LVU794
 2536 00a6 04EB0708 		add	r8, r4, r7
 2537              	.LVL271:
 2538              	.LBB491:
 2539              	.LBI486:
1115:Drivers/lvgl/src/draw/sw/blend/lv_draw_sw_blend_to_i1.c **** {
 2540              		.loc 1 1115 45 is_stmt 1 view .LVU795
 2541              	.LBB488:
 2542              		.loc 1 1117 5 view .LVU796
 2543              		.loc 1 1117 25 is_stmt 0 view .LVU797
 2544 00aa C246     		mov	r10, r8
 2545 00ac B8F1000F 		cmp	r8, #0
 2546 00b0 E9DB     		blt	.L196
 2547              	.L150:
 2548              		.loc 1 1117 25 view .LVU798
 2549 00b2 4FEAEA0A 		asr	r10, r10, #3
 2550              		.loc 1 1117 16 view .LVU799
 2551 00b6 16F80A30 		ldrb	r3, [r6, r10]	@ zero_extendqisi2
 2552              		.loc 1 1117 47 view .LVU800
 2553 00ba D8F10002 		rsbs	r2, r8, #0
 2554 00be 08F00708 		and	r8, r8, #7
 2555              	.LVL272:
 2556              		.loc 1 1117 47 view .LVU801
 2557 00c2 02F00702 		and	r2, r2, #7
 2558 00c6 58BF     		it	pl
 2559 00c8 C2F10008 		rsbpl	r8, r2, #0
 2560              		.loc 1 1117 36 view .LVU802
 2561 00cc C8F10708 		rsb	r8, r8, #7
 2562              		.loc 1 1117 30 view .LVU803
 2563 00d0 43FA08F3 		asr	r3, r3, r8
 2564              	.LVL273:
 2565              		.loc 1 1117 30 view .LVU804
 2566              	.LBE488:
 2567              	.LBE491:
 609:Drivers/lvgl/src/draw/sw/blend/lv_draw_sw_blend_to_i1.c ****                         lv_color_8_8_mix(src_buf_al88[src_x].lumi, &dest_val, src_buf_al88[src_x].a
 2568              		.loc 1 609 33 discriminator 1 view .LVU805
 2569 00d4 43F30003 		sbfx	r3, r3, #0, #1
 2570 00d8 8DF82430 		strb	r3, [sp, #36]
 610:Drivers/lvgl/src/draw/sw/blend/lv_draw_sw_blend_to_i1.c ****                         if(dest_val > I1_LUM_THRESHOLD) {
 2571              		.loc 1 610 25 is_stmt 1 view .LVU806
 610:Drivers/lvgl/src/draw/sw/blend/lv_draw_sw_blend_to_i1.c ****                         if(dest_val > I1_LUM_THRESHOLD) {
 2572              		.loc 1 610 54 is_stmt 0 view .LVU807
 2573 00dc 05EB4B03 		add	r3, r5, fp, lsl #1
 610:Drivers/lvgl/src/draw/sw/blend/lv_draw_sw_blend_to_i1.c ****                         if(dest_val > I1_LUM_THRESHOLD) {
 2574              		.loc 1 610 25 view .LVU808
 2575 00e0 5A78     		ldrb	r2, [r3, #1]	@ zero_extendqisi2
 2576 00e2 09A9     		add	r1, sp, #36
 2577 00e4 15F81B00 		ldrb	r0, [r5, fp, lsl #1]	@ zero_extendqisi2
 2578 00e8 FFF7FEFF 		bl	lv_color_8_8_mix
ARM GAS  /tmp/cc9ag92L.s 			page 78


 2579              	.LVL274:
 611:Drivers/lvgl/src/draw/sw/blend/lv_draw_sw_blend_to_i1.c ****                             set_bit(dest_buf_i1, dest_x + bit_ofs);
 2580              		.loc 1 611 25 is_stmt 1 view .LVU809
 611:Drivers/lvgl/src/draw/sw/blend/lv_draw_sw_blend_to_i1.c ****                             set_bit(dest_buf_i1, dest_x + bit_ofs);
 2581              		.loc 1 611 37 is_stmt 0 view .LVU810
 2582 00ec 9DF92430 		ldrsb	r3, [sp, #36]
 611:Drivers/lvgl/src/draw/sw/blend/lv_draw_sw_blend_to_i1.c ****                             set_bit(dest_buf_i1, dest_x + bit_ofs);
 2583              		.loc 1 611 27 view .LVU811
 2584 00f0 002B     		cmp	r3, #0
 2585 00f2 CBDB     		blt	.L197
 615:Drivers/lvgl/src/draw/sw/blend/lv_draw_sw_blend_to_i1.c ****                         }
 2586              		.loc 1 615 29 is_stmt 1 view .LVU812
 2587              	.LVL275:
 2588              	.LBB492:
 2589              	.LBI492:
1110:Drivers/lvgl/src/draw/sw/blend/lv_draw_sw_blend_to_i1.c **** {
 2590              		.loc 1 1110 42 view .LVU813
 2591              	.LBB493:
1112:Drivers/lvgl/src/draw/sw/blend/lv_draw_sw_blend_to_i1.c **** }
 2592              		.loc 1 1112 5 view .LVU814
1112:Drivers/lvgl/src/draw/sw/blend/lv_draw_sw_blend_to_i1.c **** }
 2593              		.loc 1 1112 8 is_stmt 0 view .LVU815
 2594 00f4 16F80A20 		ldrb	r2, [r6, r10]	@ zero_extendqisi2
1112:Drivers/lvgl/src/draw/sw/blend/lv_draw_sw_blend_to_i1.c **** }
 2595              		.loc 1 1112 29 view .LVU816
 2596 00f8 0123     		movs	r3, #1
 2597 00fa 03FA08F3 		lsl	r3, r3, r8
1112:Drivers/lvgl/src/draw/sw/blend/lv_draw_sw_blend_to_i1.c **** }
 2598              		.loc 1 1112 22 view .LVU817
 2599 00fe DB43     		mvns	r3, r3
 2600 0100 5BB2     		sxtb	r3, r3
 2601 0102 1340     		ands	r3, r3, r2
 2602 0104 06F80A30 		strb	r3, [r6, r10]
 2603              	.LVL276:
1113:Drivers/lvgl/src/draw/sw/blend/lv_draw_sw_blend_to_i1.c **** 
 2604              		.loc 1 1113 1 view .LVU818
 2605 0108 C8E7     		b	.L152
 2606              	.L195:
1113:Drivers/lvgl/src/draw/sw/blend/lv_draw_sw_blend_to_i1.c **** 
 2607              		.loc 1 1113 1 view .LVU819
 2608              	.LBE493:
 2609              	.LBE492:
 2610              	.LBE494:
 2611              	.LBB495:
 2612              	.LBB496:
1102:Drivers/lvgl/src/draw/sw/blend/lv_draw_sw_blend_to_i1.c **** }
 2613              		.loc 1 1102 12 view .LVU820
 2614 010a DDF804A0 		ldr	r10, [sp, #4]
 2615              	.LBE496:
 2616              	.LBE495:
 618:Drivers/lvgl/src/draw/sw/blend/lv_draw_sw_blend_to_i1.c ****                     src_buf_al88 = drawbuf_next_row(src_buf_al88, src_stride);
 2617              		.loc 1 618 21 is_stmt 1 view .LVU821
 2618              	.LVL277:
 2619              	.LBB498:
 2620              	.LBI495:
1100:Drivers/lvgl/src/draw/sw/blend/lv_draw_sw_blend_to_i1.c **** {
 2621              		.loc 1 1100 44 view .LVU822
ARM GAS  /tmp/cc9ag92L.s 			page 79


 2622              	.LBB497:
1102:Drivers/lvgl/src/draw/sw/blend/lv_draw_sw_blend_to_i1.c **** }
 2623              		.loc 1 1102 5 view .LVU823
1102:Drivers/lvgl/src/draw/sw/blend/lv_draw_sw_blend_to_i1.c **** }
 2624              		.loc 1 1102 12 is_stmt 0 view .LVU824
 2625 010e 039B     		ldr	r3, [sp, #12]
 2626 0110 1E44     		add	r6, r6, r3
 2627              	.LVL278:
1102:Drivers/lvgl/src/draw/sw/blend/lv_draw_sw_blend_to_i1.c **** }
 2628              		.loc 1 1102 12 view .LVU825
 2629              	.LBE497:
 2630              	.LBE498:
 619:Drivers/lvgl/src/draw/sw/blend/lv_draw_sw_blend_to_i1.c ****                 }
 2631              		.loc 1 619 21 is_stmt 1 view .LVU826
 2632              	.LBB499:
 2633              	.LBI499:
1100:Drivers/lvgl/src/draw/sw/blend/lv_draw_sw_blend_to_i1.c **** {
 2634              		.loc 1 1100 44 view .LVU827
 2635              	.LBB500:
1102:Drivers/lvgl/src/draw/sw/blend/lv_draw_sw_blend_to_i1.c **** }
 2636              		.loc 1 1102 5 view .LVU828
1102:Drivers/lvgl/src/draw/sw/blend/lv_draw_sw_blend_to_i1.c **** }
 2637              		.loc 1 1102 12 is_stmt 0 view .LVU829
 2638 0112 049B     		ldr	r3, [sp, #16]
 2639 0114 1D44     		add	r5, r5, r3
 2640              	.LVL279:
1102:Drivers/lvgl/src/draw/sw/blend/lv_draw_sw_blend_to_i1.c **** }
 2641              		.loc 1 1102 12 view .LVU830
 2642              	.LBE500:
 2643              	.LBE499:
 607:Drivers/lvgl/src/draw/sw/blend/lv_draw_sw_blend_to_i1.c ****                     for(dest_x = 0, src_x = 0; src_x < w; dest_x++, src_x++) {
 2644              		.loc 1 607 36 is_stmt 1 discriminator 2 view .LVU831
 2645 0116 0AF1010A 		add	r10, r10, #1
 2646              	.LVL280:
 2647              	.L148:
 607:Drivers/lvgl/src/draw/sw/blend/lv_draw_sw_blend_to_i1.c ****                     for(dest_x = 0, src_x = 0; src_x < w; dest_x++, src_x++) {
 2648              		.loc 1 607 30 discriminator 1 view .LVU832
 2649 011a 029B     		ldr	r3, [sp, #8]
 2650 011c 9A45     		cmp	r10, r3
 2651 011e AFDA     		bge	.L146
 608:Drivers/lvgl/src/draw/sw/blend/lv_draw_sw_blend_to_i1.c ****                         uint8_t dest_val = get_bit(dest_buf_i1, dest_x + bit_ofs) * 255;
 2652              		.loc 1 608 43 is_stmt 0 view .LVU833
 2653 0120 4FF0000B 		mov	fp, #0
 608:Drivers/lvgl/src/draw/sw/blend/lv_draw_sw_blend_to_i1.c ****                         uint8_t dest_val = get_bit(dest_buf_i1, dest_x + bit_ofs) * 255;
 2654              		.loc 1 608 32 view .LVU834
 2655 0124 5C46     		mov	r4, fp
 2656 0126 CDF804A0 		str	r10, [sp, #4]
 2657 012a BAE7     		b	.L154
 2658              	.LVL281:
 2659              	.L182:
 607:Drivers/lvgl/src/draw/sw/blend/lv_draw_sw_blend_to_i1.c ****                     for(dest_x = 0, src_x = 0; src_x < w; dest_x++, src_x++) {
 2660              		.loc 1 607 23 view .LVU835
 2661 012c 0027     		movs	r7, #0
 2662 012e BA46     		mov	r10, r7
 2663              	.LVL282:
 607:Drivers/lvgl/src/draw/sw/blend/lv_draw_sw_blend_to_i1.c ****                     for(dest_x = 0, src_x = 0; src_x < w; dest_x++, src_x++) {
 2664              		.loc 1 607 23 view .LVU836
ARM GAS  /tmp/cc9ag92L.s 			page 80


 2665 0130 2746     		mov	r7, r4
 2666 0132 F2E7     		b	.L148
 2667              	.LVL283:
 2668              	.L199:
 2669              	.LBB501:
 2670              	.LBB502:
 2671              	.LBB503:
 2672              		.loc 1 1117 25 view .LVU837
 2673 0134 08F1070A 		add	r10, r8, #7
 2674 0138 12E0     		b	.L158
 2675              	.LVL284:
 2676              	.L200:
 2677              		.loc 1 1117 25 view .LVU838
 2678              	.LBE503:
 2679              	.LBE502:
 630:Drivers/lvgl/src/draw/sw/blend/lv_draw_sw_blend_to_i1.c ****                         }
 2680              		.loc 1 630 29 is_stmt 1 view .LVU839
 2681              	.LBB505:
 2682              	.LBI505:
1105:Drivers/lvgl/src/draw/sw/blend/lv_draw_sw_blend_to_i1.c **** {
 2683              		.loc 1 1105 42 view .LVU840
 2684              	.LBB506:
1107:Drivers/lvgl/src/draw/sw/blend/lv_draw_sw_blend_to_i1.c **** }
 2685              		.loc 1 1107 5 view .LVU841
1107:Drivers/lvgl/src/draw/sw/blend/lv_draw_sw_blend_to_i1.c **** }
 2686              		.loc 1 1107 8 is_stmt 0 view .LVU842
 2687 013a 16F80A30 		ldrb	r3, [r6, r10]	@ zero_extendqisi2
1107:Drivers/lvgl/src/draw/sw/blend/lv_draw_sw_blend_to_i1.c **** }
 2688              		.loc 1 1107 28 view .LVU843
 2689 013e 0122     		movs	r2, #1
 2690 0140 02FA08F2 		lsl	r2, r2, r8
1107:Drivers/lvgl/src/draw/sw/blend/lv_draw_sw_blend_to_i1.c **** }
 2691              		.loc 1 1107 22 view .LVU844
 2692 0144 1343     		orrs	r3, r3, r2
 2693 0146 06F80A30 		strb	r3, [r6, r10]
 2694              	.LVL285:
 2695              	.L160:
1107:Drivers/lvgl/src/draw/sw/blend/lv_draw_sw_blend_to_i1.c **** }
 2696              		.loc 1 1107 22 view .LVU845
 2697              	.LBE506:
 2698              	.LBE505:
 2699              	.LBE501:
 626:Drivers/lvgl/src/draw/sw/blend/lv_draw_sw_blend_to_i1.c ****                         uint8_t dest_val = get_bit(dest_buf_i1, dest_x + bit_ofs) * 255;
 2700              		.loc 1 626 67 is_stmt 1 discriminator 2 view .LVU846
 626:Drivers/lvgl/src/draw/sw/blend/lv_draw_sw_blend_to_i1.c ****                         uint8_t dest_val = get_bit(dest_buf_i1, dest_x + bit_ofs) * 255;
 2701              		.loc 1 626 65 is_stmt 0 discriminator 2 view .LVU847
 2702 014a 0134     		adds	r4, r4, #1
 2703              	.LVL286:
 626:Drivers/lvgl/src/draw/sw/blend/lv_draw_sw_blend_to_i1.c ****                         uint8_t dest_val = get_bit(dest_buf_i1, dest_x + bit_ofs) * 255;
 2704              		.loc 1 626 74 discriminator 2 view .LVU848
 2705 014c 0BF1010B 		add	fp, fp, #1
 2706              	.LVL287:
 2707              	.L162:
 626:Drivers/lvgl/src/draw/sw/blend/lv_draw_sw_blend_to_i1.c ****                         uint8_t dest_val = get_bit(dest_buf_i1, dest_x + bit_ofs) * 255;
 2708              		.loc 1 626 54 is_stmt 1 discriminator 1 view .LVU849
 2709 0150 CB45     		cmp	fp, r9
 2710 0152 35DA     		bge	.L198
ARM GAS  /tmp/cc9ag92L.s 			page 81


 2711              	.LBB510:
 627:Drivers/lvgl/src/draw/sw/blend/lv_draw_sw_blend_to_i1.c ****                         lv_color_8_8_mix(src_buf_al88[src_x].lumi, &dest_val, LV_OPA_MIX2(src_buf_a
 2712              		.loc 1 627 25 view .LVU850
 627:Drivers/lvgl/src/draw/sw/blend/lv_draw_sw_blend_to_i1.c ****                         lv_color_8_8_mix(src_buf_al88[src_x].lumi, &dest_val, LV_OPA_MIX2(src_buf_a
 2713              		.loc 1 627 44 is_stmt 0 view .LVU851
 2714 0154 04EB0708 		add	r8, r4, r7
 2715              	.LVL288:
 2716              	.LBB507:
 2717              	.LBI502:
1115:Drivers/lvgl/src/draw/sw/blend/lv_draw_sw_blend_to_i1.c **** {
 2718              		.loc 1 1115 45 is_stmt 1 view .LVU852
 2719              	.LBB504:
 2720              		.loc 1 1117 5 view .LVU853
 2721              		.loc 1 1117 25 is_stmt 0 view .LVU854
 2722 0158 C246     		mov	r10, r8
 2723 015a B8F1000F 		cmp	r8, #0
 2724 015e E9DB     		blt	.L199
 2725              	.L158:
 2726              		.loc 1 1117 25 view .LVU855
 2727 0160 4FEAEA0A 		asr	r10, r10, #3
 2728              		.loc 1 1117 16 view .LVU856
 2729 0164 16F80A30 		ldrb	r3, [r6, r10]	@ zero_extendqisi2
 2730              		.loc 1 1117 47 view .LVU857
 2731 0168 D8F10002 		rsbs	r2, r8, #0
 2732 016c 08F00708 		and	r8, r8, #7
 2733              	.LVL289:
 2734              		.loc 1 1117 47 view .LVU858
 2735 0170 02F00702 		and	r2, r2, #7
 2736 0174 58BF     		it	pl
 2737 0176 C2F10008 		rsbpl	r8, r2, #0
 2738              		.loc 1 1117 36 view .LVU859
 2739 017a C8F10708 		rsb	r8, r8, #7
 2740              		.loc 1 1117 30 view .LVU860
 2741 017e 43FA08F3 		asr	r3, r3, r8
 2742              	.LVL290:
 2743              		.loc 1 1117 30 view .LVU861
 2744              	.LBE504:
 2745              	.LBE507:
 627:Drivers/lvgl/src/draw/sw/blend/lv_draw_sw_blend_to_i1.c ****                         lv_color_8_8_mix(src_buf_al88[src_x].lumi, &dest_val, LV_OPA_MIX2(src_buf_a
 2746              		.loc 1 627 33 discriminator 1 view .LVU862
 2747 0182 43F30003 		sbfx	r3, r3, #0, #1
 2748 0186 8DF82430 		strb	r3, [sp, #36]
 628:Drivers/lvgl/src/draw/sw/blend/lv_draw_sw_blend_to_i1.c ****                         if(dest_val > I1_LUM_THRESHOLD) {
 2749              		.loc 1 628 25 is_stmt 1 view .LVU863
 628:Drivers/lvgl/src/draw/sw/blend/lv_draw_sw_blend_to_i1.c ****                         if(dest_val > I1_LUM_THRESHOLD) {
 2750              		.loc 1 628 54 is_stmt 0 view .LVU864
 2751 018a 05EB4B03 		add	r3, r5, fp, lsl #1
 628:Drivers/lvgl/src/draw/sw/blend/lv_draw_sw_blend_to_i1.c ****                         if(dest_val > I1_LUM_THRESHOLD) {
 2752              		.loc 1 628 79 view .LVU865
 2753 018e 5A78     		ldrb	r2, [r3, #1]	@ zero_extendqisi2
 2754 0190 019B     		ldr	r3, [sp, #4]
 2755 0192 03FB02F2 		mul	r2, r3, r2
 628:Drivers/lvgl/src/draw/sw/blend/lv_draw_sw_blend_to_i1.c ****                         if(dest_val > I1_LUM_THRESHOLD) {
 2756              		.loc 1 628 25 view .LVU866
 2757 0196 120A     		lsrs	r2, r2, #8
 2758 0198 09A9     		add	r1, sp, #36
 2759 019a 15F81B00 		ldrb	r0, [r5, fp, lsl #1]	@ zero_extendqisi2
ARM GAS  /tmp/cc9ag92L.s 			page 82


 2760 019e FFF7FEFF 		bl	lv_color_8_8_mix
 2761              	.LVL291:
 629:Drivers/lvgl/src/draw/sw/blend/lv_draw_sw_blend_to_i1.c ****                             set_bit(dest_buf_i1, dest_x + bit_ofs);
 2762              		.loc 1 629 25 is_stmt 1 view .LVU867
 629:Drivers/lvgl/src/draw/sw/blend/lv_draw_sw_blend_to_i1.c ****                             set_bit(dest_buf_i1, dest_x + bit_ofs);
 2763              		.loc 1 629 37 is_stmt 0 view .LVU868
 2764 01a2 9DF92430 		ldrsb	r3, [sp, #36]
 629:Drivers/lvgl/src/draw/sw/blend/lv_draw_sw_blend_to_i1.c ****                             set_bit(dest_buf_i1, dest_x + bit_ofs);
 2765              		.loc 1 629 27 view .LVU869
 2766 01a6 002B     		cmp	r3, #0
 2767 01a8 C7DB     		blt	.L200
 633:Drivers/lvgl/src/draw/sw/blend/lv_draw_sw_blend_to_i1.c ****                         }
 2768              		.loc 1 633 29 is_stmt 1 view .LVU870
 2769              	.LVL292:
 2770              	.LBB508:
 2771              	.LBI508:
1110:Drivers/lvgl/src/draw/sw/blend/lv_draw_sw_blend_to_i1.c **** {
 2772              		.loc 1 1110 42 view .LVU871
 2773              	.LBB509:
1112:Drivers/lvgl/src/draw/sw/blend/lv_draw_sw_blend_to_i1.c **** }
 2774              		.loc 1 1112 5 view .LVU872
1112:Drivers/lvgl/src/draw/sw/blend/lv_draw_sw_blend_to_i1.c **** }
 2775              		.loc 1 1112 8 is_stmt 0 view .LVU873
 2776 01aa 16F80A20 		ldrb	r2, [r6, r10]	@ zero_extendqisi2
1112:Drivers/lvgl/src/draw/sw/blend/lv_draw_sw_blend_to_i1.c **** }
 2777              		.loc 1 1112 29 view .LVU874
 2778 01ae 0123     		movs	r3, #1
 2779 01b0 03FA08F3 		lsl	r3, r3, r8
1112:Drivers/lvgl/src/draw/sw/blend/lv_draw_sw_blend_to_i1.c **** }
 2780              		.loc 1 1112 22 view .LVU875
 2781 01b4 DB43     		mvns	r3, r3
 2782 01b6 5BB2     		sxtb	r3, r3
 2783 01b8 1340     		ands	r3, r3, r2
 2784 01ba 06F80A30 		strb	r3, [r6, r10]
 2785              	.LVL293:
1113:Drivers/lvgl/src/draw/sw/blend/lv_draw_sw_blend_to_i1.c **** 
 2786              		.loc 1 1113 1 view .LVU876
 2787 01be C4E7     		b	.L160
 2788              	.L198:
1113:Drivers/lvgl/src/draw/sw/blend/lv_draw_sw_blend_to_i1.c **** 
 2789              		.loc 1 1113 1 view .LVU877
 2790              	.LBE509:
 2791              	.LBE508:
 2792              	.LBE510:
 2793              	.LBB511:
 2794              	.LBB512:
1102:Drivers/lvgl/src/draw/sw/blend/lv_draw_sw_blend_to_i1.c **** }
 2795              		.loc 1 1102 12 view .LVU878
 2796 01c0 DDF814A0 		ldr	r10, [sp, #20]
 2797              	.LBE512:
 2798              	.LBE511:
 636:Drivers/lvgl/src/draw/sw/blend/lv_draw_sw_blend_to_i1.c ****                     src_buf_al88 = drawbuf_next_row(src_buf_al88, src_stride);
 2799              		.loc 1 636 21 is_stmt 1 view .LVU879
 2800              	.LVL294:
 2801              	.LBB514:
 2802              	.LBI511:
1100:Drivers/lvgl/src/draw/sw/blend/lv_draw_sw_blend_to_i1.c **** {
ARM GAS  /tmp/cc9ag92L.s 			page 83


 2803              		.loc 1 1100 44 view .LVU880
 2804              	.LBB513:
1102:Drivers/lvgl/src/draw/sw/blend/lv_draw_sw_blend_to_i1.c **** }
 2805              		.loc 1 1102 5 view .LVU881
1102:Drivers/lvgl/src/draw/sw/blend/lv_draw_sw_blend_to_i1.c **** }
 2806              		.loc 1 1102 12 is_stmt 0 view .LVU882
 2807 01c4 039B     		ldr	r3, [sp, #12]
 2808 01c6 1E44     		add	r6, r6, r3
 2809              	.LVL295:
1102:Drivers/lvgl/src/draw/sw/blend/lv_draw_sw_blend_to_i1.c **** }
 2810              		.loc 1 1102 12 view .LVU883
 2811              	.LBE513:
 2812              	.LBE514:
 637:Drivers/lvgl/src/draw/sw/blend/lv_draw_sw_blend_to_i1.c ****                 }
 2813              		.loc 1 637 21 is_stmt 1 view .LVU884
 2814              	.LBB515:
 2815              	.LBI515:
1100:Drivers/lvgl/src/draw/sw/blend/lv_draw_sw_blend_to_i1.c **** {
 2816              		.loc 1 1100 44 view .LVU885
 2817              	.LBB516:
1102:Drivers/lvgl/src/draw/sw/blend/lv_draw_sw_blend_to_i1.c **** }
 2818              		.loc 1 1102 5 view .LVU886
1102:Drivers/lvgl/src/draw/sw/blend/lv_draw_sw_blend_to_i1.c **** }
 2819              		.loc 1 1102 12 is_stmt 0 view .LVU887
 2820 01c8 049B     		ldr	r3, [sp, #16]
 2821 01ca 1D44     		add	r5, r5, r3
 2822              	.LVL296:
1102:Drivers/lvgl/src/draw/sw/blend/lv_draw_sw_blend_to_i1.c **** }
 2823              		.loc 1 1102 12 view .LVU888
 2824              	.LBE516:
 2825              	.LBE515:
 625:Drivers/lvgl/src/draw/sw/blend/lv_draw_sw_blend_to_i1.c ****                     for(dest_x = 0, src_x = 0; src_x < w; dest_x++, src_x++) {
 2826              		.loc 1 625 36 is_stmt 1 discriminator 2 view .LVU889
 2827 01cc 0AF1010A 		add	r10, r10, #1
 2828              	.LVL297:
 2829              	.L156:
 625:Drivers/lvgl/src/draw/sw/blend/lv_draw_sw_blend_to_i1.c ****                     for(dest_x = 0, src_x = 0; src_x < w; dest_x++, src_x++) {
 2830              		.loc 1 625 30 discriminator 1 view .LVU890
 2831 01d0 029B     		ldr	r3, [sp, #8]
 2832 01d2 9A45     		cmp	r10, r3
 2833 01d4 BFF654AF 		bge	.L146
 626:Drivers/lvgl/src/draw/sw/blend/lv_draw_sw_blend_to_i1.c ****                         uint8_t dest_val = get_bit(dest_buf_i1, dest_x + bit_ofs) * 255;
 2834              		.loc 1 626 43 is_stmt 0 view .LVU891
 2835 01d8 4FF0000B 		mov	fp, #0
 626:Drivers/lvgl/src/draw/sw/blend/lv_draw_sw_blend_to_i1.c ****                         uint8_t dest_val = get_bit(dest_buf_i1, dest_x + bit_ofs) * 255;
 2836              		.loc 1 626 32 view .LVU892
 2837 01dc 5C46     		mov	r4, fp
 2838 01de CDF814A0 		str	r10, [sp, #20]
 2839 01e2 B5E7     		b	.L162
 2840              	.LVL298:
 2841              	.L184:
 625:Drivers/lvgl/src/draw/sw/blend/lv_draw_sw_blend_to_i1.c ****                     for(dest_x = 0, src_x = 0; src_x < w; dest_x++, src_x++) {
 2842              		.loc 1 625 23 view .LVU893
 2843 01e4 0027     		movs	r7, #0
 2844 01e6 BA46     		mov	r10, r7
 2845              	.LVL299:
 625:Drivers/lvgl/src/draw/sw/blend/lv_draw_sw_blend_to_i1.c ****                     for(dest_x = 0, src_x = 0; src_x < w; dest_x++, src_x++) {
ARM GAS  /tmp/cc9ag92L.s 			page 84


 2846              		.loc 1 625 23 view .LVU894
 2847 01e8 0190     		str	r0, [sp, #4]
 2848 01ea 2746     		mov	r7, r4
 2849 01ec F0E7     		b	.L156
 2850              	.LVL300:
 2851              	.L202:
 2852              	.LBB517:
 2853              	.LBB518:
 2854              	.LBB519:
 2855              		.loc 1 1117 25 view .LVU895
 2856 01ee 08F1070B 		add	fp, r8, #7
 2857 01f2 12E0     		b	.L165
 2858              	.LVL301:
 2859              	.L203:
 2860              		.loc 1 1117 25 view .LVU896
 2861              	.LBE519:
 2862              	.LBE518:
 648:Drivers/lvgl/src/draw/sw/blend/lv_draw_sw_blend_to_i1.c ****                         }
 2863              		.loc 1 648 29 is_stmt 1 view .LVU897
 2864              	.LBB521:
 2865              	.LBI521:
1105:Drivers/lvgl/src/draw/sw/blend/lv_draw_sw_blend_to_i1.c **** {
 2866              		.loc 1 1105 42 view .LVU898
 2867              	.LBB522:
1107:Drivers/lvgl/src/draw/sw/blend/lv_draw_sw_blend_to_i1.c **** }
 2868              		.loc 1 1107 5 view .LVU899
1107:Drivers/lvgl/src/draw/sw/blend/lv_draw_sw_blend_to_i1.c **** }
 2869              		.loc 1 1107 8 is_stmt 0 view .LVU900
 2870 01f4 16F80B30 		ldrb	r3, [r6, fp]	@ zero_extendqisi2
1107:Drivers/lvgl/src/draw/sw/blend/lv_draw_sw_blend_to_i1.c **** }
 2871              		.loc 1 1107 28 view .LVU901
 2872 01f8 0122     		movs	r2, #1
 2873 01fa 02FA08F2 		lsl	r2, r2, r8
1107:Drivers/lvgl/src/draw/sw/blend/lv_draw_sw_blend_to_i1.c **** }
 2874              		.loc 1 1107 22 view .LVU902
 2875 01fe 1343     		orrs	r3, r3, r2
 2876 0200 06F80B30 		strb	r3, [r6, fp]
 2877              	.LVL302:
 2878              	.L167:
1107:Drivers/lvgl/src/draw/sw/blend/lv_draw_sw_blend_to_i1.c **** }
 2879              		.loc 1 1107 22 view .LVU903
 2880              	.LBE522:
 2881              	.LBE521:
 2882              	.LBE517:
 644:Drivers/lvgl/src/draw/sw/blend/lv_draw_sw_blend_to_i1.c ****                         uint8_t dest_val = get_bit(dest_buf_i1, dest_x + bit_ofs) * 255;
 2883              		.loc 1 644 67 is_stmt 1 discriminator 2 view .LVU904
 644:Drivers/lvgl/src/draw/sw/blend/lv_draw_sw_blend_to_i1.c ****                         uint8_t dest_val = get_bit(dest_buf_i1, dest_x + bit_ofs) * 255;
 2884              		.loc 1 644 65 is_stmt 0 discriminator 2 view .LVU905
 2885 0204 0135     		adds	r5, r5, #1
 2886              	.LVL303:
 644:Drivers/lvgl/src/draw/sw/blend/lv_draw_sw_blend_to_i1.c ****                         uint8_t dest_val = get_bit(dest_buf_i1, dest_x + bit_ofs) * 255;
 2887              		.loc 1 644 74 discriminator 2 view .LVU906
 2888 0206 0134     		adds	r4, r4, #1
 2889              	.LVL304:
 2890              	.L169:
 644:Drivers/lvgl/src/draw/sw/blend/lv_draw_sw_blend_to_i1.c ****                         uint8_t dest_val = get_bit(dest_buf_i1, dest_x + bit_ofs) * 255;
 2891              		.loc 1 644 54 is_stmt 1 discriminator 1 view .LVU907
ARM GAS  /tmp/cc9ag92L.s 			page 85


 2892 0208 4C45     		cmp	r4, r9
 2893 020a 37DA     		bge	.L201
 2894              	.LBB526:
 645:Drivers/lvgl/src/draw/sw/blend/lv_draw_sw_blend_to_i1.c ****                         lv_color_8_8_mix(src_buf_al88[src_x].lumi, &dest_val,  LV_OPA_MIX2(src_buf_
 2895              		.loc 1 645 25 view .LVU908
 645:Drivers/lvgl/src/draw/sw/blend/lv_draw_sw_blend_to_i1.c ****                         lv_color_8_8_mix(src_buf_al88[src_x].lumi, &dest_val,  LV_OPA_MIX2(src_buf_
 2896              		.loc 1 645 44 is_stmt 0 view .LVU909
 2897 020c 019B     		ldr	r3, [sp, #4]
 2898 020e 05EB0308 		add	r8, r5, r3
 2899              	.LVL305:
 2900              	.LBB523:
 2901              	.LBI518:
1115:Drivers/lvgl/src/draw/sw/blend/lv_draw_sw_blend_to_i1.c **** {
 2902              		.loc 1 1115 45 is_stmt 1 view .LVU910
 2903              	.LBB520:
 2904              		.loc 1 1117 5 view .LVU911
 2905              		.loc 1 1117 25 is_stmt 0 view .LVU912
 2906 0212 C346     		mov	fp, r8
 2907 0214 B8F1000F 		cmp	r8, #0
 2908 0218 E9DB     		blt	.L202
 2909              	.L165:
 2910              		.loc 1 1117 25 view .LVU913
 2911 021a 4FEAEB0B 		asr	fp, fp, #3
 2912              		.loc 1 1117 16 view .LVU914
 2913 021e 16F80B30 		ldrb	r3, [r6, fp]	@ zero_extendqisi2
 2914              		.loc 1 1117 47 view .LVU915
 2915 0222 D8F10002 		rsbs	r2, r8, #0
 2916 0226 08F00708 		and	r8, r8, #7
 2917              	.LVL306:
 2918              		.loc 1 1117 47 view .LVU916
 2919 022a 02F00702 		and	r2, r2, #7
 2920 022e 58BF     		it	pl
 2921 0230 C2F10008 		rsbpl	r8, r2, #0
 2922              		.loc 1 1117 36 view .LVU917
 2923 0234 C8F10708 		rsb	r8, r8, #7
 2924              		.loc 1 1117 30 view .LVU918
 2925 0238 43FA08F3 		asr	r3, r3, r8
 2926              	.LVL307:
 2927              		.loc 1 1117 30 view .LVU919
 2928              	.LBE520:
 2929              	.LBE523:
 645:Drivers/lvgl/src/draw/sw/blend/lv_draw_sw_blend_to_i1.c ****                         lv_color_8_8_mix(src_buf_al88[src_x].lumi, &dest_val,  LV_OPA_MIX2(src_buf_
 2930              		.loc 1 645 33 discriminator 1 view .LVU920
 2931 023c 43F30003 		sbfx	r3, r3, #0, #1
 2932 0240 8DF82430 		strb	r3, [sp, #36]
 646:Drivers/lvgl/src/draw/sw/blend/lv_draw_sw_blend_to_i1.c ****                         if(dest_val > I1_LUM_THRESHOLD) {
 2933              		.loc 1 646 25 is_stmt 1 view .LVU921
 646:Drivers/lvgl/src/draw/sw/blend/lv_draw_sw_blend_to_i1.c ****                         if(dest_val > I1_LUM_THRESHOLD) {
 2934              		.loc 1 646 54 is_stmt 0 view .LVU922
 2935 0244 07EB4403 		add	r3, r7, r4, lsl #1
 646:Drivers/lvgl/src/draw/sw/blend/lv_draw_sw_blend_to_i1.c ****                         if(dest_val > I1_LUM_THRESHOLD) {
 2936              		.loc 1 646 80 view .LVU923
 2937 0248 5A78     		ldrb	r2, [r3, #1]	@ zero_extendqisi2
 2938 024a 1AF80430 		ldrb	r3, [r10, r4]	@ zero_extendqisi2
 2939 024e 03FB02F2 		mul	r2, r3, r2
 646:Drivers/lvgl/src/draw/sw/blend/lv_draw_sw_blend_to_i1.c ****                         if(dest_val > I1_LUM_THRESHOLD) {
 2940              		.loc 1 646 25 view .LVU924
ARM GAS  /tmp/cc9ag92L.s 			page 86


 2941 0252 120A     		lsrs	r2, r2, #8
 2942 0254 09A9     		add	r1, sp, #36
 2943 0256 17F81400 		ldrb	r0, [r7, r4, lsl #1]	@ zero_extendqisi2
 2944 025a FFF7FEFF 		bl	lv_color_8_8_mix
 2945              	.LVL308:
 647:Drivers/lvgl/src/draw/sw/blend/lv_draw_sw_blend_to_i1.c ****                             set_bit(dest_buf_i1, dest_x + bit_ofs);
 2946              		.loc 1 647 25 is_stmt 1 view .LVU925
 647:Drivers/lvgl/src/draw/sw/blend/lv_draw_sw_blend_to_i1.c ****                             set_bit(dest_buf_i1, dest_x + bit_ofs);
 2947              		.loc 1 647 37 is_stmt 0 view .LVU926
 2948 025e 9DF92430 		ldrsb	r3, [sp, #36]
 647:Drivers/lvgl/src/draw/sw/blend/lv_draw_sw_blend_to_i1.c ****                             set_bit(dest_buf_i1, dest_x + bit_ofs);
 2949              		.loc 1 647 27 view .LVU927
 2950 0262 002B     		cmp	r3, #0
 2951 0264 C6DB     		blt	.L203
 651:Drivers/lvgl/src/draw/sw/blend/lv_draw_sw_blend_to_i1.c ****                         }
 2952              		.loc 1 651 29 is_stmt 1 view .LVU928
 2953              	.LVL309:
 2954              	.LBB524:
 2955              	.LBI524:
1110:Drivers/lvgl/src/draw/sw/blend/lv_draw_sw_blend_to_i1.c **** {
 2956              		.loc 1 1110 42 view .LVU929
 2957              	.LBB525:
1112:Drivers/lvgl/src/draw/sw/blend/lv_draw_sw_blend_to_i1.c **** }
 2958              		.loc 1 1112 5 view .LVU930
1112:Drivers/lvgl/src/draw/sw/blend/lv_draw_sw_blend_to_i1.c **** }
 2959              		.loc 1 1112 8 is_stmt 0 view .LVU931
 2960 0266 16F80B20 		ldrb	r2, [r6, fp]	@ zero_extendqisi2
1112:Drivers/lvgl/src/draw/sw/blend/lv_draw_sw_blend_to_i1.c **** }
 2961              		.loc 1 1112 29 view .LVU932
 2962 026a 0123     		movs	r3, #1
 2963 026c 03FA08F3 		lsl	r3, r3, r8
1112:Drivers/lvgl/src/draw/sw/blend/lv_draw_sw_blend_to_i1.c **** }
 2964              		.loc 1 1112 22 view .LVU933
 2965 0270 DB43     		mvns	r3, r3
 2966 0272 5BB2     		sxtb	r3, r3
 2967 0274 1340     		ands	r3, r3, r2
 2968 0276 06F80B30 		strb	r3, [r6, fp]
 2969              	.LVL310:
1113:Drivers/lvgl/src/draw/sw/blend/lv_draw_sw_blend_to_i1.c **** 
 2970              		.loc 1 1113 1 view .LVU934
 2971 027a C3E7     		b	.L167
 2972              	.L201:
1113:Drivers/lvgl/src/draw/sw/blend/lv_draw_sw_blend_to_i1.c **** 
 2973              		.loc 1 1113 1 view .LVU935
 2974              	.LBE525:
 2975              	.LBE524:
 2976              	.LBE526:
 2977              	.LBB527:
 2978              	.LBB528:
1102:Drivers/lvgl/src/draw/sw/blend/lv_draw_sw_blend_to_i1.c **** }
 2979              		.loc 1 1102 12 view .LVU936
 2980 027c DDF814B0 		ldr	fp, [sp, #20]
 2981              	.LBE528:
 2982              	.LBE527:
 654:Drivers/lvgl/src/draw/sw/blend/lv_draw_sw_blend_to_i1.c ****                     src_buf_al88 = drawbuf_next_row(src_buf_al88, src_stride);
 2983              		.loc 1 654 21 is_stmt 1 view .LVU937
 2984              	.LVL311:
ARM GAS  /tmp/cc9ag92L.s 			page 87


 2985              	.LBB530:
 2986              	.LBI527:
1100:Drivers/lvgl/src/draw/sw/blend/lv_draw_sw_blend_to_i1.c **** {
 2987              		.loc 1 1100 44 view .LVU938
 2988              	.LBB529:
1102:Drivers/lvgl/src/draw/sw/blend/lv_draw_sw_blend_to_i1.c **** }
 2989              		.loc 1 1102 5 view .LVU939
1102:Drivers/lvgl/src/draw/sw/blend/lv_draw_sw_blend_to_i1.c **** }
 2990              		.loc 1 1102 12 is_stmt 0 view .LVU940
 2991 0280 039B     		ldr	r3, [sp, #12]
 2992 0282 1E44     		add	r6, r6, r3
 2993              	.LVL312:
1102:Drivers/lvgl/src/draw/sw/blend/lv_draw_sw_blend_to_i1.c **** }
 2994              		.loc 1 1102 12 view .LVU941
 2995              	.LBE529:
 2996              	.LBE530:
 655:Drivers/lvgl/src/draw/sw/blend/lv_draw_sw_blend_to_i1.c ****                     mask_buf += mask_stride;
 2997              		.loc 1 655 21 is_stmt 1 view .LVU942
 2998              	.LBB531:
 2999              	.LBI531:
1100:Drivers/lvgl/src/draw/sw/blend/lv_draw_sw_blend_to_i1.c **** {
 3000              		.loc 1 1100 44 view .LVU943
 3001              	.LBB532:
1102:Drivers/lvgl/src/draw/sw/blend/lv_draw_sw_blend_to_i1.c **** }
 3002              		.loc 1 1102 5 view .LVU944
1102:Drivers/lvgl/src/draw/sw/blend/lv_draw_sw_blend_to_i1.c **** }
 3003              		.loc 1 1102 12 is_stmt 0 view .LVU945
 3004 0284 049B     		ldr	r3, [sp, #16]
 3005 0286 1F44     		add	r7, r7, r3
 3006              	.LVL313:
1102:Drivers/lvgl/src/draw/sw/blend/lv_draw_sw_blend_to_i1.c **** }
 3007              		.loc 1 1102 12 view .LVU946
 3008              	.LBE532:
 3009              	.LBE531:
 656:Drivers/lvgl/src/draw/sw/blend/lv_draw_sw_blend_to_i1.c ****                 }
 3010              		.loc 1 656 21 is_stmt 1 view .LVU947
 656:Drivers/lvgl/src/draw/sw/blend/lv_draw_sw_blend_to_i1.c ****                 }
 3011              		.loc 1 656 30 is_stmt 0 view .LVU948
 3012 0288 069B     		ldr	r3, [sp, #24]
 3013 028a 9A44     		add	r10, r10, r3
 3014              	.LVL314:
 643:Drivers/lvgl/src/draw/sw/blend/lv_draw_sw_blend_to_i1.c ****                     for(dest_x = 0, src_x = 0; src_x < w; dest_x++, src_x++) {
 3015              		.loc 1 643 36 is_stmt 1 discriminator 2 view .LVU949
 3016 028c 0BF1010B 		add	fp, fp, #1
 3017              	.LVL315:
 3018              	.L163:
 643:Drivers/lvgl/src/draw/sw/blend/lv_draw_sw_blend_to_i1.c ****                     for(dest_x = 0, src_x = 0; src_x < w; dest_x++, src_x++) {
 3019              		.loc 1 643 30 discriminator 1 view .LVU950
 3020 0290 029B     		ldr	r3, [sp, #8]
 3021 0292 9B45     		cmp	fp, r3
 3022 0294 BFF6F4AE 		bge	.L146
 644:Drivers/lvgl/src/draw/sw/blend/lv_draw_sw_blend_to_i1.c ****                         uint8_t dest_val = get_bit(dest_buf_i1, dest_x + bit_ofs) * 255;
 3023              		.loc 1 644 43 is_stmt 0 view .LVU951
 3024 0298 0024     		movs	r4, #0
 644:Drivers/lvgl/src/draw/sw/blend/lv_draw_sw_blend_to_i1.c ****                         uint8_t dest_val = get_bit(dest_buf_i1, dest_x + bit_ofs) * 255;
 3025              		.loc 1 644 32 view .LVU952
 3026 029a 2546     		mov	r5, r4
ARM GAS  /tmp/cc9ag92L.s 			page 88


 3027 029c CDF814B0 		str	fp, [sp, #20]
 3028 02a0 B2E7     		b	.L169
 3029              	.LVL316:
 3030              	.L186:
 643:Drivers/lvgl/src/draw/sw/blend/lv_draw_sw_blend_to_i1.c ****                     for(dest_x = 0, src_x = 0; src_x < w; dest_x++, src_x++) {
 3031              		.loc 1 643 23 view .LVU953
 3032 02a2 0027     		movs	r7, #0
 3033 02a4 BB46     		mov	fp, r7
 3034              	.LVL317:
 643:Drivers/lvgl/src/draw/sw/blend/lv_draw_sw_blend_to_i1.c ****                     for(dest_x = 0, src_x = 0; src_x < w; dest_x++, src_x++) {
 3035              		.loc 1 643 23 view .LVU954
 3036 02a6 2F46     		mov	r7, r5
 3037 02a8 0691     		str	r1, [sp, #24]
 3038 02aa 0194     		str	r4, [sp, #4]
 3039 02ac F0E7     		b	.L163
 3040              	.LVL318:
 3041              	.L205:
 3042              	.LBB533:
 3043              	.LBB534:
 3044              	.LBB535:
 3045              		.loc 1 1117 25 view .LVU955
 3046 02ae 08F1070B 		add	fp, r8, #7
 3047 02b2 12E0     		b	.L171
 3048              	.LVL319:
 3049              	.L206:
 3050              		.loc 1 1117 25 view .LVU956
 3051              	.LBE535:
 3052              	.LBE534:
 667:Drivers/lvgl/src/draw/sw/blend/lv_draw_sw_blend_to_i1.c ****                         }
 3053              		.loc 1 667 29 is_stmt 1 view .LVU957
 3054              	.LBB537:
 3055              	.LBI537:
1105:Drivers/lvgl/src/draw/sw/blend/lv_draw_sw_blend_to_i1.c **** {
 3056              		.loc 1 1105 42 view .LVU958
 3057              	.LBB538:
1107:Drivers/lvgl/src/draw/sw/blend/lv_draw_sw_blend_to_i1.c **** }
 3058              		.loc 1 1107 5 view .LVU959
1107:Drivers/lvgl/src/draw/sw/blend/lv_draw_sw_blend_to_i1.c **** }
 3059              		.loc 1 1107 8 is_stmt 0 view .LVU960
 3060 02b4 16F80B30 		ldrb	r3, [r6, fp]	@ zero_extendqisi2
1107:Drivers/lvgl/src/draw/sw/blend/lv_draw_sw_blend_to_i1.c **** }
 3061              		.loc 1 1107 28 view .LVU961
 3062 02b8 0122     		movs	r2, #1
 3063 02ba 02FA08F2 		lsl	r2, r2, r8
1107:Drivers/lvgl/src/draw/sw/blend/lv_draw_sw_blend_to_i1.c **** }
 3064              		.loc 1 1107 22 view .LVU962
 3065 02be 1343     		orrs	r3, r3, r2
 3066 02c0 06F80B30 		strb	r3, [r6, fp]
 3067              	.LVL320:
 3068              	.L173:
1107:Drivers/lvgl/src/draw/sw/blend/lv_draw_sw_blend_to_i1.c **** }
 3069              		.loc 1 1107 22 view .LVU963
 3070              	.LBE538:
 3071              	.LBE537:
 3072              	.LBE533:
 663:Drivers/lvgl/src/draw/sw/blend/lv_draw_sw_blend_to_i1.c ****                         uint8_t dest_val = get_bit(dest_buf_i1, dest_x + bit_ofs) * 255;
 3073              		.loc 1 663 67 is_stmt 1 discriminator 2 view .LVU964
ARM GAS  /tmp/cc9ag92L.s 			page 89


 663:Drivers/lvgl/src/draw/sw/blend/lv_draw_sw_blend_to_i1.c ****                         uint8_t dest_val = get_bit(dest_buf_i1, dest_x + bit_ofs) * 255;
 3074              		.loc 1 663 65 is_stmt 0 discriminator 2 view .LVU965
 3075 02c4 0135     		adds	r5, r5, #1
 3076              	.LVL321:
 663:Drivers/lvgl/src/draw/sw/blend/lv_draw_sw_blend_to_i1.c ****                         uint8_t dest_val = get_bit(dest_buf_i1, dest_x + bit_ofs) * 255;
 3077              		.loc 1 663 74 discriminator 2 view .LVU966
 3078 02c6 0134     		adds	r4, r4, #1
 3079              	.LVL322:
 3080              	.L175:
 663:Drivers/lvgl/src/draw/sw/blend/lv_draw_sw_blend_to_i1.c ****                         uint8_t dest_val = get_bit(dest_buf_i1, dest_x + bit_ofs) * 255;
 3081              		.loc 1 663 54 is_stmt 1 discriminator 1 view .LVU967
 3082 02c8 4C45     		cmp	r4, r9
 3083 02ca 3ADA     		bge	.L204
 3084              	.LBB542:
 664:Drivers/lvgl/src/draw/sw/blend/lv_draw_sw_blend_to_i1.c ****                         lv_color_8_8_mix(src_buf_al88[src_x].lumi, &dest_val, LV_OPA_MIX3(src_buf_a
 3085              		.loc 1 664 25 view .LVU968
 664:Drivers/lvgl/src/draw/sw/blend/lv_draw_sw_blend_to_i1.c ****                         lv_color_8_8_mix(src_buf_al88[src_x].lumi, &dest_val, LV_OPA_MIX3(src_buf_a
 3086              		.loc 1 664 44 is_stmt 0 view .LVU969
 3087 02cc 059B     		ldr	r3, [sp, #20]
 3088 02ce 05EB0308 		add	r8, r5, r3
 3089              	.LVL323:
 3090              	.LBB539:
 3091              	.LBI534:
1115:Drivers/lvgl/src/draw/sw/blend/lv_draw_sw_blend_to_i1.c **** {
 3092              		.loc 1 1115 45 is_stmt 1 view .LVU970
 3093              	.LBB536:
 3094              		.loc 1 1117 5 view .LVU971
 3095              		.loc 1 1117 25 is_stmt 0 view .LVU972
 3096 02d2 C346     		mov	fp, r8
 3097 02d4 B8F1000F 		cmp	r8, #0
 3098 02d8 E9DB     		blt	.L205
 3099              	.L171:
 3100              		.loc 1 1117 25 view .LVU973
 3101 02da 4FEAEB0B 		asr	fp, fp, #3
 3102              		.loc 1 1117 16 view .LVU974
 3103 02de 16F80B30 		ldrb	r3, [r6, fp]	@ zero_extendqisi2
 3104              		.loc 1 1117 47 view .LVU975
 3105 02e2 D8F10002 		rsbs	r2, r8, #0
 3106 02e6 08F00708 		and	r8, r8, #7
 3107              	.LVL324:
 3108              		.loc 1 1117 47 view .LVU976
 3109 02ea 02F00702 		and	r2, r2, #7
 3110 02ee 58BF     		it	pl
 3111 02f0 C2F10008 		rsbpl	r8, r2, #0
 3112              		.loc 1 1117 36 view .LVU977
 3113 02f4 C8F10708 		rsb	r8, r8, #7
 3114              		.loc 1 1117 30 view .LVU978
 3115 02f8 43FA08F3 		asr	r3, r3, r8
 3116              	.LVL325:
 3117              		.loc 1 1117 30 view .LVU979
 3118              	.LBE536:
 3119              	.LBE539:
 664:Drivers/lvgl/src/draw/sw/blend/lv_draw_sw_blend_to_i1.c ****                         lv_color_8_8_mix(src_buf_al88[src_x].lumi, &dest_val, LV_OPA_MIX3(src_buf_a
 3120              		.loc 1 664 33 discriminator 1 view .LVU980
 3121 02fc 43F30003 		sbfx	r3, r3, #0, #1
 3122 0300 8DF82430 		strb	r3, [sp, #36]
 665:Drivers/lvgl/src/draw/sw/blend/lv_draw_sw_blend_to_i1.c ****                         if(dest_val > I1_LUM_THRESHOLD) {
ARM GAS  /tmp/cc9ag92L.s 			page 90


 3123              		.loc 1 665 25 is_stmt 1 view .LVU981
 665:Drivers/lvgl/src/draw/sw/blend/lv_draw_sw_blend_to_i1.c ****                         if(dest_val > I1_LUM_THRESHOLD) {
 3124              		.loc 1 665 54 is_stmt 0 view .LVU982
 3125 0304 07EB4403 		add	r3, r7, r4, lsl #1
 665:Drivers/lvgl/src/draw/sw/blend/lv_draw_sw_blend_to_i1.c ****                         if(dest_val > I1_LUM_THRESHOLD) {
 3126              		.loc 1 665 79 view .LVU983
 3127 0308 5A78     		ldrb	r2, [r3, #1]	@ zero_extendqisi2
 3128 030a 1AF80430 		ldrb	r3, [r10, r4]	@ zero_extendqisi2
 3129 030e 03FB02F2 		mul	r2, r3, r2
 3130 0312 019B     		ldr	r3, [sp, #4]
 3131 0314 03FB02F2 		mul	r2, r3, r2
 665:Drivers/lvgl/src/draw/sw/blend/lv_draw_sw_blend_to_i1.c ****                         if(dest_val > I1_LUM_THRESHOLD) {
 3132              		.loc 1 665 25 view .LVU984
 3133 0318 120C     		lsrs	r2, r2, #16
 3134 031a 09A9     		add	r1, sp, #36
 3135 031c 17F81400 		ldrb	r0, [r7, r4, lsl #1]	@ zero_extendqisi2
 3136 0320 FFF7FEFF 		bl	lv_color_8_8_mix
 3137              	.LVL326:
 666:Drivers/lvgl/src/draw/sw/blend/lv_draw_sw_blend_to_i1.c ****                             set_bit(dest_buf_i1, dest_x + bit_ofs);
 3138              		.loc 1 666 25 is_stmt 1 view .LVU985
 666:Drivers/lvgl/src/draw/sw/blend/lv_draw_sw_blend_to_i1.c ****                             set_bit(dest_buf_i1, dest_x + bit_ofs);
 3139              		.loc 1 666 37 is_stmt 0 view .LVU986
 3140 0324 9DF92430 		ldrsb	r3, [sp, #36]
 666:Drivers/lvgl/src/draw/sw/blend/lv_draw_sw_blend_to_i1.c ****                             set_bit(dest_buf_i1, dest_x + bit_ofs);
 3141              		.loc 1 666 27 view .LVU987
 3142 0328 002B     		cmp	r3, #0
 3143 032a C3DB     		blt	.L206
 670:Drivers/lvgl/src/draw/sw/blend/lv_draw_sw_blend_to_i1.c ****                         }
 3144              		.loc 1 670 29 is_stmt 1 view .LVU988
 3145              	.LVL327:
 3146              	.LBB540:
 3147              	.LBI540:
1110:Drivers/lvgl/src/draw/sw/blend/lv_draw_sw_blend_to_i1.c **** {
 3148              		.loc 1 1110 42 view .LVU989
 3149              	.LBB541:
1112:Drivers/lvgl/src/draw/sw/blend/lv_draw_sw_blend_to_i1.c **** }
 3150              		.loc 1 1112 5 view .LVU990
1112:Drivers/lvgl/src/draw/sw/blend/lv_draw_sw_blend_to_i1.c **** }
 3151              		.loc 1 1112 8 is_stmt 0 view .LVU991
 3152 032c 16F80B20 		ldrb	r2, [r6, fp]	@ zero_extendqisi2
1112:Drivers/lvgl/src/draw/sw/blend/lv_draw_sw_blend_to_i1.c **** }
 3153              		.loc 1 1112 29 view .LVU992
 3154 0330 0123     		movs	r3, #1
 3155 0332 03FA08F3 		lsl	r3, r3, r8
1112:Drivers/lvgl/src/draw/sw/blend/lv_draw_sw_blend_to_i1.c **** }
 3156              		.loc 1 1112 22 view .LVU993
 3157 0336 DB43     		mvns	r3, r3
 3158 0338 5BB2     		sxtb	r3, r3
 3159 033a 1340     		ands	r3, r3, r2
 3160 033c 06F80B30 		strb	r3, [r6, fp]
 3161              	.LVL328:
1113:Drivers/lvgl/src/draw/sw/blend/lv_draw_sw_blend_to_i1.c **** 
 3162              		.loc 1 1113 1 view .LVU994
 3163 0340 C0E7     		b	.L173
 3164              	.L204:
1113:Drivers/lvgl/src/draw/sw/blend/lv_draw_sw_blend_to_i1.c **** 
 3165              		.loc 1 1113 1 view .LVU995
ARM GAS  /tmp/cc9ag92L.s 			page 91


 3166              	.LBE541:
 3167              	.LBE540:
 3168              	.LBE542:
 3169              	.LBB543:
 3170              	.LBB544:
1102:Drivers/lvgl/src/draw/sw/blend/lv_draw_sw_blend_to_i1.c **** }
 3171              		.loc 1 1102 12 view .LVU996
 3172 0342 DDF818B0 		ldr	fp, [sp, #24]
 3173              	.LBE544:
 3174              	.LBE543:
 673:Drivers/lvgl/src/draw/sw/blend/lv_draw_sw_blend_to_i1.c ****                     src_buf_al88 = drawbuf_next_row(src_buf_al88, src_stride);
 3175              		.loc 1 673 21 is_stmt 1 view .LVU997
 3176              	.LVL329:
 3177              	.LBB546:
 3178              	.LBI543:
1100:Drivers/lvgl/src/draw/sw/blend/lv_draw_sw_blend_to_i1.c **** {
 3179              		.loc 1 1100 44 view .LVU998
 3180              	.LBB545:
1102:Drivers/lvgl/src/draw/sw/blend/lv_draw_sw_blend_to_i1.c **** }
 3181              		.loc 1 1102 5 view .LVU999
1102:Drivers/lvgl/src/draw/sw/blend/lv_draw_sw_blend_to_i1.c **** }
 3182              		.loc 1 1102 12 is_stmt 0 view .LVU1000
 3183 0346 039B     		ldr	r3, [sp, #12]
 3184 0348 1E44     		add	r6, r6, r3
 3185              	.LVL330:
1102:Drivers/lvgl/src/draw/sw/blend/lv_draw_sw_blend_to_i1.c **** }
 3186              		.loc 1 1102 12 view .LVU1001
 3187              	.LBE545:
 3188              	.LBE546:
 674:Drivers/lvgl/src/draw/sw/blend/lv_draw_sw_blend_to_i1.c ****                     mask_buf += mask_stride;
 3189              		.loc 1 674 21 is_stmt 1 view .LVU1002
 3190              	.LBB547:
 3191              	.LBI547:
1100:Drivers/lvgl/src/draw/sw/blend/lv_draw_sw_blend_to_i1.c **** {
 3192              		.loc 1 1100 44 view .LVU1003
 3193              	.LBB548:
1102:Drivers/lvgl/src/draw/sw/blend/lv_draw_sw_blend_to_i1.c **** }
 3194              		.loc 1 1102 5 view .LVU1004
1102:Drivers/lvgl/src/draw/sw/blend/lv_draw_sw_blend_to_i1.c **** }
 3195              		.loc 1 1102 12 is_stmt 0 view .LVU1005
 3196 034a 049B     		ldr	r3, [sp, #16]
 3197 034c 1F44     		add	r7, r7, r3
 3198              	.LVL331:
1102:Drivers/lvgl/src/draw/sw/blend/lv_draw_sw_blend_to_i1.c **** }
 3199              		.loc 1 1102 12 view .LVU1006
 3200              	.LBE548:
 3201              	.LBE547:
 675:Drivers/lvgl/src/draw/sw/blend/lv_draw_sw_blend_to_i1.c ****                 }
 3202              		.loc 1 675 21 is_stmt 1 view .LVU1007
 675:Drivers/lvgl/src/draw/sw/blend/lv_draw_sw_blend_to_i1.c ****                 }
 3203              		.loc 1 675 30 is_stmt 0 view .LVU1008
 3204 034e 079B     		ldr	r3, [sp, #28]
 3205 0350 9A44     		add	r10, r10, r3
 3206              	.LVL332:
 662:Drivers/lvgl/src/draw/sw/blend/lv_draw_sw_blend_to_i1.c ****                     for(dest_x = 0, src_x = 0; src_x < w; dest_x++, src_x++) {
 3207              		.loc 1 662 36 is_stmt 1 discriminator 2 view .LVU1009
 3208 0352 0BF1010B 		add	fp, fp, #1
ARM GAS  /tmp/cc9ag92L.s 			page 92


 3209              	.LVL333:
 3210              	.L170:
 662:Drivers/lvgl/src/draw/sw/blend/lv_draw_sw_blend_to_i1.c ****                     for(dest_x = 0, src_x = 0; src_x < w; dest_x++, src_x++) {
 3211              		.loc 1 662 30 discriminator 1 view .LVU1010
 3212 0356 029B     		ldr	r3, [sp, #8]
 3213 0358 9B45     		cmp	fp, r3
 3214 035a BFF691AE 		bge	.L146
 663:Drivers/lvgl/src/draw/sw/blend/lv_draw_sw_blend_to_i1.c ****                         uint8_t dest_val = get_bit(dest_buf_i1, dest_x + bit_ofs) * 255;
 3215              		.loc 1 663 43 is_stmt 0 view .LVU1011
 3216 035e 0024     		movs	r4, #0
 663:Drivers/lvgl/src/draw/sw/blend/lv_draw_sw_blend_to_i1.c ****                         uint8_t dest_val = get_bit(dest_buf_i1, dest_x + bit_ofs) * 255;
 3217              		.loc 1 663 32 view .LVU1012
 3218 0360 2546     		mov	r5, r4
 3219 0362 CDF818B0 		str	fp, [sp, #24]
 3220 0366 AFE7     		b	.L175
 3221              	.LVL334:
 3222              	.L188:
 662:Drivers/lvgl/src/draw/sw/blend/lv_draw_sw_blend_to_i1.c ****                     for(dest_x = 0, src_x = 0; src_x < w; dest_x++, src_x++) {
 3223              		.loc 1 662 23 view .LVU1013
 3224 0368 0027     		movs	r7, #0
 3225 036a BB46     		mov	fp, r7
 3226              	.LVL335:
 662:Drivers/lvgl/src/draw/sw/blend/lv_draw_sw_blend_to_i1.c ****                     for(dest_x = 0, src_x = 0; src_x < w; dest_x++, src_x++) {
 3227              		.loc 1 662 23 view .LVU1014
 3228 036c 2F46     		mov	r7, r5
 3229 036e 0190     		str	r0, [sp, #4]
 3230 0370 0791     		str	r1, [sp, #28]
 3231 0372 0594     		str	r4, [sp, #20]
 3232 0374 EFE7     		b	.L170
 3233              	.LVL336:
 3234              	.L176:
 3235              	.LBB549:
 688:Drivers/lvgl/src/draw/sw/blend/lv_draw_sw_blend_to_i1.c ****                 blend_non_normal_pixel(dest_buf_i1, dest_x + bit_ofs, src_argb, dsc->blend_mode);
 3236              		.loc 1 688 22 is_stmt 1 view .LVU1015
 688:Drivers/lvgl/src/draw/sw/blend/lv_draw_sw_blend_to_i1.c ****                 blend_non_normal_pixel(dest_buf_i1, dest_x + bit_ofs, src_argb, dsc->blend_mode);
 3237              		.loc 1 688 39 is_stmt 0 view .LVU1016
 3238 0376 5378     		ldrb	r3, [r2, #1]	@ zero_extendqisi2
 3239 0378 E25D     		ldrb	r2, [r4, r7]	@ zero_extendqisi2
 3240 037a 02FB03F3 		mul	r3, r2, r3
 3241 037e 019A     		ldr	r2, [sp, #4]
 3242 0380 02FB03F3 		mul	r3, r2, r3
 3243 0384 1B0C     		lsrs	r3, r3, #16
 688:Drivers/lvgl/src/draw/sw/blend/lv_draw_sw_blend_to_i1.c ****                 blend_non_normal_pixel(dest_buf_i1, dest_x + bit_ofs, src_argb, dsc->blend_mode);
 3244              		.loc 1 688 37 view .LVU1017
 3245 0386 8DF82730 		strb	r3, [sp, #39]
 3246              	.L177:
 689:Drivers/lvgl/src/draw/sw/blend/lv_draw_sw_blend_to_i1.c ****             }
 3247              		.loc 1 689 17 is_stmt 1 view .LVU1018
 3248 038a 9BF82230 		ldrb	r3, [fp, #34]	@ zero_extendqisi2
 3249 038e 099A     		ldr	r2, [sp, #36]
 3250 0390 08EB0601 		add	r1, r8, r6
 3251 0394 5046     		mov	r0, r10
 3252 0396 FFF7FEFF 		bl	blend_non_normal_pixel
 3253              	.LVL337:
 683:Drivers/lvgl/src/draw/sw/blend/lv_draw_sw_blend_to_i1.c ****                 src_argb.red = src_buf_al88[src_x].lumi;
 3254              		.loc 1 683 59 discriminator 2 view .LVU1019
 683:Drivers/lvgl/src/draw/sw/blend/lv_draw_sw_blend_to_i1.c ****                 src_argb.red = src_buf_al88[src_x].lumi;
ARM GAS  /tmp/cc9ag92L.s 			page 93


 3255              		.loc 1 683 57 is_stmt 0 discriminator 2 view .LVU1020
 3256 039a 08F10108 		add	r8, r8, #1
 3257              	.LVL338:
 683:Drivers/lvgl/src/draw/sw/blend/lv_draw_sw_blend_to_i1.c ****                 src_argb.red = src_buf_al88[src_x].lumi;
 3258              		.loc 1 683 66 discriminator 2 view .LVU1021
 3259 039e 0137     		adds	r7, r7, #1
 3260              	.LVL339:
 3261              	.L180:
 683:Drivers/lvgl/src/draw/sw/blend/lv_draw_sw_blend_to_i1.c ****                 src_argb.red = src_buf_al88[src_x].lumi;
 3262              		.loc 1 683 46 is_stmt 1 discriminator 1 view .LVU1022
 3263 03a0 4F45     		cmp	r7, r9
 3264 03a2 13DA     		bge	.L207
 684:Drivers/lvgl/src/draw/sw/blend/lv_draw_sw_blend_to_i1.c ****                 src_argb.green = src_buf_al88[src_x].lumi;
 3265              		.loc 1 684 17 view .LVU1023
 684:Drivers/lvgl/src/draw/sw/blend/lv_draw_sw_blend_to_i1.c ****                 src_argb.green = src_buf_al88[src_x].lumi;
 3266              		.loc 1 684 44 is_stmt 0 view .LVU1024
 3267 03a4 05EB4702 		add	r2, r5, r7, lsl #1
 684:Drivers/lvgl/src/draw/sw/blend/lv_draw_sw_blend_to_i1.c ****                 src_argb.green = src_buf_al88[src_x].lumi;
 3268              		.loc 1 684 51 view .LVU1025
 3269 03a8 15F81730 		ldrb	r3, [r5, r7, lsl #1]	@ zero_extendqisi2
 684:Drivers/lvgl/src/draw/sw/blend/lv_draw_sw_blend_to_i1.c ****                 src_argb.green = src_buf_al88[src_x].lumi;
 3270              		.loc 1 684 30 view .LVU1026
 3271 03ac 8DF82630 		strb	r3, [sp, #38]
 685:Drivers/lvgl/src/draw/sw/blend/lv_draw_sw_blend_to_i1.c ****                 src_argb.blue = src_buf_al88[src_x].lumi;
 3272              		.loc 1 685 17 is_stmt 1 view .LVU1027
 685:Drivers/lvgl/src/draw/sw/blend/lv_draw_sw_blend_to_i1.c ****                 src_argb.blue = src_buf_al88[src_x].lumi;
 3273              		.loc 1 685 32 is_stmt 0 view .LVU1028
 3274 03b0 8DF82530 		strb	r3, [sp, #37]
 686:Drivers/lvgl/src/draw/sw/blend/lv_draw_sw_blend_to_i1.c ****                 if(mask_buf == NULL) src_argb.alpha = LV_OPA_MIX2(src_buf_al88[src_x].alpha, opa);
 3275              		.loc 1 686 17 is_stmt 1 view .LVU1029
 686:Drivers/lvgl/src/draw/sw/blend/lv_draw_sw_blend_to_i1.c ****                 if(mask_buf == NULL) src_argb.alpha = LV_OPA_MIX2(src_buf_al88[src_x].alpha, opa);
 3276              		.loc 1 686 31 is_stmt 0 view .LVU1030
 3277 03b4 8DF82430 		strb	r3, [sp, #36]
 687:Drivers/lvgl/src/draw/sw/blend/lv_draw_sw_blend_to_i1.c ****                 else src_argb.alpha = LV_OPA_MIX3(src_buf_al88[src_x].alpha, mask_buf[src_x], opa);
 3278              		.loc 1 687 17 is_stmt 1 view .LVU1031
 687:Drivers/lvgl/src/draw/sw/blend/lv_draw_sw_blend_to_i1.c ****                 else src_argb.alpha = LV_OPA_MIX3(src_buf_al88[src_x].alpha, mask_buf[src_x], opa);
 3279              		.loc 1 687 19 is_stmt 0 view .LVU1032
 3280 03b8 002C     		cmp	r4, #0
 3281 03ba DCD1     		bne	.L176
 687:Drivers/lvgl/src/draw/sw/blend/lv_draw_sw_blend_to_i1.c ****                 else src_argb.alpha = LV_OPA_MIX3(src_buf_al88[src_x].alpha, mask_buf[src_x], opa);
 3282              		.loc 1 687 38 is_stmt 1 discriminator 1 view .LVU1033
 687:Drivers/lvgl/src/draw/sw/blend/lv_draw_sw_blend_to_i1.c ****                 else src_argb.alpha = LV_OPA_MIX3(src_buf_al88[src_x].alpha, mask_buf[src_x], opa);
 3283              		.loc 1 687 55 is_stmt 0 discriminator 1 view .LVU1034
 3284 03bc 5378     		ldrb	r3, [r2, #1]	@ zero_extendqisi2
 3285 03be 019A     		ldr	r2, [sp, #4]
 3286 03c0 02FB03F3 		mul	r3, r2, r3
 3287 03c4 1B0A     		lsrs	r3, r3, #8
 687:Drivers/lvgl/src/draw/sw/blend/lv_draw_sw_blend_to_i1.c ****                 else src_argb.alpha = LV_OPA_MIX3(src_buf_al88[src_x].alpha, mask_buf[src_x], opa);
 3288              		.loc 1 687 53 discriminator 1 view .LVU1035
 3289 03c6 8DF82730 		strb	r3, [sp, #39]
 3290 03ca DEE7     		b	.L177
 3291              	.L207:
 691:Drivers/lvgl/src/draw/sw/blend/lv_draw_sw_blend_to_i1.c ****             dest_buf_i1 = drawbuf_next_row(dest_buf_i1, dest_stride);
 3292              		.loc 1 691 15 view .LVU1036
 3293 03cc 059A     		ldr	r2, [sp, #20]
 691:Drivers/lvgl/src/draw/sw/blend/lv_draw_sw_blend_to_i1.c ****             dest_buf_i1 = drawbuf_next_row(dest_buf_i1, dest_stride);
 3294              		.loc 1 691 13 is_stmt 1 view .LVU1037
ARM GAS  /tmp/cc9ag92L.s 			page 94


 691:Drivers/lvgl/src/draw/sw/blend/lv_draw_sw_blend_to_i1.c ****             dest_buf_i1 = drawbuf_next_row(dest_buf_i1, dest_stride);
 3295              		.loc 1 691 15 is_stmt 0 view .LVU1038
 3296 03ce 0CB1     		cbz	r4, .L179
 691:Drivers/lvgl/src/draw/sw/blend/lv_draw_sw_blend_to_i1.c ****             dest_buf_i1 = drawbuf_next_row(dest_buf_i1, dest_stride);
 3297              		.loc 1 691 26 is_stmt 1 discriminator 1 view .LVU1039
 691:Drivers/lvgl/src/draw/sw/blend/lv_draw_sw_blend_to_i1.c ****             dest_buf_i1 = drawbuf_next_row(dest_buf_i1, dest_stride);
 3298              		.loc 1 691 35 is_stmt 0 discriminator 1 view .LVU1040
 3299 03d0 069B     		ldr	r3, [sp, #24]
 3300 03d2 1C44     		add	r4, r4, r3
 3301              	.LVL340:
 3302              	.L179:
 692:Drivers/lvgl/src/draw/sw/blend/lv_draw_sw_blend_to_i1.c ****             src_buf_al88 = drawbuf_next_row(src_buf_al88, src_stride);
 3303              		.loc 1 692 13 is_stmt 1 view .LVU1041
 3304              	.LBB550:
 3305              	.LBI550:
1100:Drivers/lvgl/src/draw/sw/blend/lv_draw_sw_blend_to_i1.c **** {
 3306              		.loc 1 1100 44 view .LVU1042
 3307              	.LBB551:
1102:Drivers/lvgl/src/draw/sw/blend/lv_draw_sw_blend_to_i1.c **** }
 3308              		.loc 1 1102 5 view .LVU1043
1102:Drivers/lvgl/src/draw/sw/blend/lv_draw_sw_blend_to_i1.c **** }
 3309              		.loc 1 1102 12 is_stmt 0 view .LVU1044
 3310 03d4 039B     		ldr	r3, [sp, #12]
 3311 03d6 9A44     		add	r10, r10, r3
 3312              	.LVL341:
1102:Drivers/lvgl/src/draw/sw/blend/lv_draw_sw_blend_to_i1.c **** }
 3313              		.loc 1 1102 12 view .LVU1045
 3314              	.LBE551:
 3315              	.LBE550:
 693:Drivers/lvgl/src/draw/sw/blend/lv_draw_sw_blend_to_i1.c ****         }
 3316              		.loc 1 693 13 is_stmt 1 view .LVU1046
 3317              	.LBB552:
 3318              	.LBI552:
1100:Drivers/lvgl/src/draw/sw/blend/lv_draw_sw_blend_to_i1.c **** {
 3319              		.loc 1 1100 44 view .LVU1047
 3320              	.LBB553:
1102:Drivers/lvgl/src/draw/sw/blend/lv_draw_sw_blend_to_i1.c **** }
 3321              		.loc 1 1102 5 view .LVU1048
1102:Drivers/lvgl/src/draw/sw/blend/lv_draw_sw_blend_to_i1.c **** }
 3322              		.loc 1 1102 12 is_stmt 0 view .LVU1049
 3323 03d8 049B     		ldr	r3, [sp, #16]
 3324 03da 1D44     		add	r5, r5, r3
 3325              	.LVL342:
1102:Drivers/lvgl/src/draw/sw/blend/lv_draw_sw_blend_to_i1.c **** }
 3326              		.loc 1 1102 12 view .LVU1050
 3327              	.LBE553:
 3328              	.LBE552:
 682:Drivers/lvgl/src/draw/sw/blend/lv_draw_sw_blend_to_i1.c ****             for(dest_x = 0, src_x = 0; src_x < w; dest_x++, src_x++) {
 3329              		.loc 1 682 28 is_stmt 1 discriminator 2 view .LVU1051
 3330 03dc 0132     		adds	r2, r2, #1
 3331              	.LVL343:
 3332              	.L147:
 682:Drivers/lvgl/src/draw/sw/blend/lv_draw_sw_blend_to_i1.c ****             for(dest_x = 0, src_x = 0; src_x < w; dest_x++, src_x++) {
 3333              		.loc 1 682 22 discriminator 1 view .LVU1052
 3334 03de 029B     		ldr	r3, [sp, #8]
 3335 03e0 9A42     		cmp	r2, r3
 3336 03e2 BFF64DAE 		bge	.L146
ARM GAS  /tmp/cc9ag92L.s 			page 95


 683:Drivers/lvgl/src/draw/sw/blend/lv_draw_sw_blend_to_i1.c ****                 src_argb.red = src_buf_al88[src_x].lumi;
 3337              		.loc 1 683 35 is_stmt 0 view .LVU1053
 3338 03e6 0027     		movs	r7, #0
 683:Drivers/lvgl/src/draw/sw/blend/lv_draw_sw_blend_to_i1.c ****                 src_argb.red = src_buf_al88[src_x].lumi;
 3339              		.loc 1 683 24 view .LVU1054
 3340 03e8 B846     		mov	r8, r7
 3341 03ea 0592     		str	r2, [sp, #20]
 3342 03ec D8E7     		b	.L180
 3343              	.LVL344:
 3344              	.L181:
 682:Drivers/lvgl/src/draw/sw/blend/lv_draw_sw_blend_to_i1.c ****             for(dest_x = 0, src_x = 0; src_x < w; dest_x++, src_x++) {
 3345              		.loc 1 682 15 view .LVU1055
 3346 03ee 0022     		movs	r2, #0
 3347 03f0 0190     		str	r0, [sp, #4]
 3348 03f2 0691     		str	r1, [sp, #24]
 3349 03f4 2346     		mov	r3, r4
 3350 03f6 5446     		mov	r4, r10
 3351              	.LVL345:
 682:Drivers/lvgl/src/draw/sw/blend/lv_draw_sw_blend_to_i1.c ****             for(dest_x = 0, src_x = 0; src_x < w; dest_x++, src_x++) {
 3352              		.loc 1 682 15 view .LVU1056
 3353 03f8 B246     		mov	r10, r6
 3354              	.LVL346:
 682:Drivers/lvgl/src/draw/sw/blend/lv_draw_sw_blend_to_i1.c ****             for(dest_x = 0, src_x = 0; src_x < w; dest_x++, src_x++) {
 3355              		.loc 1 682 15 view .LVU1057
 3356 03fa 1E46     		mov	r6, r3
 3357              	.LVL347:
 682:Drivers/lvgl/src/draw/sw/blend/lv_draw_sw_blend_to_i1.c ****             for(dest_x = 0, src_x = 0; src_x < w; dest_x++, src_x++) {
 3358              		.loc 1 682 15 view .LVU1058
 3359 03fc EFE7     		b	.L147
 3360              	.LBE549:
 3361              		.cfi_endproc
 3362              	.LFE190:
 3364              		.section	.text.i1_image_blend,"ax",%progbits
 3365              		.align	1
 3366              		.syntax unified
 3367              		.thumb
 3368              		.thumb_func
 3370              	i1_image_blend:
 3371              	.LVL348:
 3372              	.LFB188:
 356:Drivers/lvgl/src/draw/sw/blend/lv_draw_sw_blend_to_i1.c ****     int32_t w = dsc->dest_w;
 3373              		.loc 1 356 1 is_stmt 1 view -0
 3374              		.cfi_startproc
 3375              		@ args = 0, pretend = 0, frame = 40
 3376              		@ frame_needed = 0, uses_anonymous_args = 0
 356:Drivers/lvgl/src/draw/sw/blend/lv_draw_sw_blend_to_i1.c ****     int32_t w = dsc->dest_w;
 3377              		.loc 1 356 1 is_stmt 0 view .LVU1060
 3378 0000 2DE9F04F 		push	{r4, r5, r6, r7, r8, r9, r10, fp, lr}
 3379              	.LCFI16:
 3380              		.cfi_def_cfa_offset 36
 3381              		.cfi_offset 4, -36
 3382              		.cfi_offset 5, -32
 3383              		.cfi_offset 6, -28
 3384              		.cfi_offset 7, -24
 3385              		.cfi_offset 8, -20
 3386              		.cfi_offset 9, -16
 3387              		.cfi_offset 10, -12
ARM GAS  /tmp/cc9ag92L.s 			page 96


 3388              		.cfi_offset 11, -8
 3389              		.cfi_offset 14, -4
 3390 0004 8BB0     		sub	sp, sp, #44
 3391              	.LCFI17:
 3392              		.cfi_def_cfa_offset 80
 357:Drivers/lvgl/src/draw/sw/blend/lv_draw_sw_blend_to_i1.c ****     int32_t h = dsc->dest_h;
 3393              		.loc 1 357 5 is_stmt 1 view .LVU1061
 357:Drivers/lvgl/src/draw/sw/blend/lv_draw_sw_blend_to_i1.c ****     int32_t h = dsc->dest_h;
 3394              		.loc 1 357 13 is_stmt 0 view .LVU1062
 3395 0006 4768     		ldr	r7, [r0, #4]
 3396              	.LVL349:
 358:Drivers/lvgl/src/draw/sw/blend/lv_draw_sw_blend_to_i1.c ****     lv_opa_t opa = dsc->opa;
 3397              		.loc 1 358 5 is_stmt 1 view .LVU1063
 358:Drivers/lvgl/src/draw/sw/blend/lv_draw_sw_blend_to_i1.c ****     lv_opa_t opa = dsc->opa;
 3398              		.loc 1 358 13 is_stmt 0 view .LVU1064
 3399 0008 8368     		ldr	r3, [r0, #8]
 3400 000a 0393     		str	r3, [sp, #12]
 3401              	.LVL350:
 359:Drivers/lvgl/src/draw/sw/blend/lv_draw_sw_blend_to_i1.c ****     uint8_t * dest_buf_i1 = dsc->dest_buf;
 3402              		.loc 1 359 5 is_stmt 1 view .LVU1065
 359:Drivers/lvgl/src/draw/sw/blend/lv_draw_sw_blend_to_i1.c ****     uint8_t * dest_buf_i1 = dsc->dest_buf;
 3403              		.loc 1 359 14 is_stmt 0 view .LVU1066
 3404 000c 90F82180 		ldrb	r8, [r0, #33]	@ zero_extendqisi2
 3405              	.LVL351:
 360:Drivers/lvgl/src/draw/sw/blend/lv_draw_sw_blend_to_i1.c ****     int32_t dest_stride = dsc->dest_stride;
 3406              		.loc 1 360 5 is_stmt 1 view .LVU1067
 360:Drivers/lvgl/src/draw/sw/blend/lv_draw_sw_blend_to_i1.c ****     int32_t dest_stride = dsc->dest_stride;
 3407              		.loc 1 360 15 is_stmt 0 view .LVU1068
 3408 0010 0468     		ldr	r4, [r0]
 3409              	.LVL352:
 361:Drivers/lvgl/src/draw/sw/blend/lv_draw_sw_blend_to_i1.c ****     const uint8_t * src_buf_i1 = dsc->src_buf;
 3410              		.loc 1 361 5 is_stmt 1 view .LVU1069
 361:Drivers/lvgl/src/draw/sw/blend/lv_draw_sw_blend_to_i1.c ****     const uint8_t * src_buf_i1 = dsc->src_buf;
 3411              		.loc 1 361 13 is_stmt 0 view .LVU1070
 3412 0012 C368     		ldr	r3, [r0, #12]
 3413              	.LVL353:
 362:Drivers/lvgl/src/draw/sw/blend/lv_draw_sw_blend_to_i1.c ****     int32_t src_stride = dsc->src_stride;
 3414              		.loc 1 362 5 is_stmt 1 view .LVU1071
 362:Drivers/lvgl/src/draw/sw/blend/lv_draw_sw_blend_to_i1.c ****     int32_t src_stride = dsc->src_stride;
 3415              		.loc 1 362 21 is_stmt 0 view .LVU1072
 3416 0014 8569     		ldr	r5, [r0, #24]
 3417              	.LVL354:
 363:Drivers/lvgl/src/draw/sw/blend/lv_draw_sw_blend_to_i1.c ****     const lv_opa_t * mask_buf = dsc->mask_buf;
 3418              		.loc 1 363 5 is_stmt 1 view .LVU1073
 363:Drivers/lvgl/src/draw/sw/blend/lv_draw_sw_blend_to_i1.c ****     const lv_opa_t * mask_buf = dsc->mask_buf;
 3419              		.loc 1 363 13 is_stmt 0 view .LVU1074
 3420 0016 D0F81CE0 		ldr	lr, [r0, #28]
 3421              	.LVL355:
 364:Drivers/lvgl/src/draw/sw/blend/lv_draw_sw_blend_to_i1.c ****     int32_t mask_stride = dsc->mask_stride;
 3422              		.loc 1 364 5 is_stmt 1 view .LVU1075
 364:Drivers/lvgl/src/draw/sw/blend/lv_draw_sw_blend_to_i1.c ****     int32_t mask_stride = dsc->mask_stride;
 3423              		.loc 1 364 22 is_stmt 0 view .LVU1076
 3424 001a 0669     		ldr	r6, [r0, #16]
 3425              	.LVL356:
 365:Drivers/lvgl/src/draw/sw/blend/lv_draw_sw_blend_to_i1.c **** 
 3426              		.loc 1 365 5 is_stmt 1 view .LVU1077
 365:Drivers/lvgl/src/draw/sw/blend/lv_draw_sw_blend_to_i1.c **** 
ARM GAS  /tmp/cc9ag92L.s 			page 97


 3427              		.loc 1 365 13 is_stmt 0 view .LVU1078
 3428 001c 4269     		ldr	r2, [r0, #20]
 3429 001e 0692     		str	r2, [sp, #24]
 3430              	.LVL357:
 367:Drivers/lvgl/src/draw/sw/blend/lv_draw_sw_blend_to_i1.c ****     int32_t src_x;
 3431              		.loc 1 367 5 is_stmt 1 view .LVU1079
 368:Drivers/lvgl/src/draw/sw/blend/lv_draw_sw_blend_to_i1.c ****     int32_t y;
 3432              		.loc 1 368 5 view .LVU1080
 369:Drivers/lvgl/src/draw/sw/blend/lv_draw_sw_blend_to_i1.c **** 
 3433              		.loc 1 369 5 view .LVU1081
 371:Drivers/lvgl/src/draw/sw/blend/lv_draw_sw_blend_to_i1.c **** 
 3434              		.loc 1 371 5 view .LVU1082
 371:Drivers/lvgl/src/draw/sw/blend/lv_draw_sw_blend_to_i1.c **** 
 3435              		.loc 1 371 41 is_stmt 0 view .LVU1083
 3436 0020 416A     		ldr	r1, [r0, #36]
 371:Drivers/lvgl/src/draw/sw/blend/lv_draw_sw_blend_to_i1.c **** 
 3437              		.loc 1 371 13 view .LVU1084
 3438 0022 4A42     		rsbs	r2, r1, #0
 3439              	.LVL358:
 371:Drivers/lvgl/src/draw/sw/blend/lv_draw_sw_blend_to_i1.c **** 
 3440              		.loc 1 371 13 view .LVU1085
 3441 0024 01F0070B 		and	fp, r1, #7
 3442 0028 02F00702 		and	r2, r2, #7
 3443 002c 58BF     		it	pl
 3444 002e C2F1000B 		rsbpl	fp, r2, #0
 3445              	.LVL359:
 373:Drivers/lvgl/src/draw/sw/blend/lv_draw_sw_blend_to_i1.c ****         if(mask_buf == NULL && opa >= LV_OPA_MAX) {
 3446              		.loc 1 373 5 is_stmt 1 view .LVU1086
 373:Drivers/lvgl/src/draw/sw/blend/lv_draw_sw_blend_to_i1.c ****         if(mask_buf == NULL && opa >= LV_OPA_MAX) {
 3447              		.loc 1 373 11 is_stmt 0 view .LVU1087
 3448 0032 90F82220 		ldrb	r2, [r0, #34]	@ zero_extendqisi2
 373:Drivers/lvgl/src/draw/sw/blend/lv_draw_sw_blend_to_i1.c ****         if(mask_buf == NULL && opa >= LV_OPA_MAX) {
 3449              		.loc 1 373 7 view .LVU1088
 3450 0036 002A     		cmp	r2, #0
 3451 0038 40F00D82 		bne	.L249
 374:Drivers/lvgl/src/draw/sw/blend/lv_draw_sw_blend_to_i1.c ****             if(LV_RESULT_INVALID == LV_DRAW_SW_I1_BLEND_NORMAL_TO_I1(dsc)) {
 3452              		.loc 1 374 9 is_stmt 1 view .LVU1089
 374:Drivers/lvgl/src/draw/sw/blend/lv_draw_sw_blend_to_i1.c ****             if(LV_RESULT_INVALID == LV_DRAW_SW_I1_BLEND_NORMAL_TO_I1(dsc)) {
 3453              		.loc 1 374 21 is_stmt 0 view .LVU1090
 3454 003c B6FA86F2 		clz	r2, r6
 3455 0040 5209     		lsrs	r2, r2, #5
 374:Drivers/lvgl/src/draw/sw/blend/lv_draw_sw_blend_to_i1.c ****             if(LV_RESULT_INVALID == LV_DRAW_SW_I1_BLEND_NORMAL_TO_I1(dsc)) {
 3456              		.loc 1 374 36 view .LVU1091
 3457 0042 B8F1FC0F 		cmp	r8, #252
 3458 0046 94BF     		ite	ls
 3459 0048 0021     		movls	r1, #0
 3460 004a 0121     		movhi	r1, #1
 374:Drivers/lvgl/src/draw/sw/blend/lv_draw_sw_blend_to_i1.c ****             if(LV_RESULT_INVALID == LV_DRAW_SW_I1_BLEND_NORMAL_TO_I1(dsc)) {
 3461              		.loc 1 374 11 view .LVU1092
 3462 004c 0A42     		tst	r2, r1
 3463 004e 77D1     		bne	.L250
 390:Drivers/lvgl/src/draw/sw/blend/lv_draw_sw_blend_to_i1.c ****             if(LV_RESULT_INVALID == LV_DRAW_SW_I1_BLEND_NORMAL_TO_I1_WITH_OPA(dsc)) {
 3464              		.loc 1 390 14 is_stmt 1 view .LVU1093
 390:Drivers/lvgl/src/draw/sw/blend/lv_draw_sw_blend_to_i1.c ****             if(LV_RESULT_INVALID == LV_DRAW_SW_I1_BLEND_NORMAL_TO_I1_WITH_OPA(dsc)) {
 3465              		.loc 1 390 41 is_stmt 0 view .LVU1094
 3466 0050 B8F1FC0F 		cmp	r8, #252
 3467 0054 8CBF     		ite	hi
ARM GAS  /tmp/cc9ag92L.s 			page 98


 3468 0056 0020     		movhi	r0, #0
 3469              	.LVL360:
 390:Drivers/lvgl/src/draw/sw/blend/lv_draw_sw_blend_to_i1.c ****             if(LV_RESULT_INVALID == LV_DRAW_SW_I1_BLEND_NORMAL_TO_I1_WITH_OPA(dsc)) {
 3470              		.loc 1 390 41 view .LVU1095
 3471 0058 0120     		movls	r0, #1
 390:Drivers/lvgl/src/draw/sw/blend/lv_draw_sw_blend_to_i1.c ****             if(LV_RESULT_INVALID == LV_DRAW_SW_I1_BLEND_NORMAL_TO_I1_WITH_OPA(dsc)) {
 3472              		.loc 1 390 16 view .LVU1096
 3473 005a 0242     		tst	r2, r0
 3474 005c 40F0CD80 		bne	.L252
 409:Drivers/lvgl/src/draw/sw/blend/lv_draw_sw_blend_to_i1.c ****             if(LV_RESULT_INVALID == LV_DRAW_SW_I1_BLEND_NORMAL_TO_I1_WITH_MASK(dsc)) {
 3475              		.loc 1 409 14 is_stmt 1 view .LVU1097
 409:Drivers/lvgl/src/draw/sw/blend/lv_draw_sw_blend_to_i1.c ****             if(LV_RESULT_INVALID == LV_DRAW_SW_I1_BLEND_NORMAL_TO_I1_WITH_MASK(dsc)) {
 3476              		.loc 1 409 17 is_stmt 0 view .LVU1098
 3477 0060 321E     		subs	r2, r6, #0
 3478 0062 18BF     		it	ne
 3479 0064 0122     		movne	r2, #1
 409:Drivers/lvgl/src/draw/sw/blend/lv_draw_sw_blend_to_i1.c ****             if(LV_RESULT_INVALID == LV_DRAW_SW_I1_BLEND_NORMAL_TO_I1_WITH_MASK(dsc)) {
 3480              		.loc 1 409 16 view .LVU1099
 3481 0066 1142     		tst	r1, r2
 3482 0068 40F02D81 		bne	.L254
 430:Drivers/lvgl/src/draw/sw/blend/lv_draw_sw_blend_to_i1.c ****             if(LV_RESULT_INVALID == LV_DRAW_SW_I1_BLEND_NORMAL_TO_I1_MIX_MASK_OPA(dsc)) {
 3483              		.loc 1 430 14 is_stmt 1 view .LVU1100
 430:Drivers/lvgl/src/draw/sw/blend/lv_draw_sw_blend_to_i1.c ****             if(LV_RESULT_INVALID == LV_DRAW_SW_I1_BLEND_NORMAL_TO_I1_MIX_MASK_OPA(dsc)) {
 3484              		.loc 1 430 16 is_stmt 0 view .LVU1101
 3485 006c 1042     		tst	r0, r2
 3486 006e 40F09E81 		bne	.L256
 3487              	.LVL361:
 3488              	.L208:
 470:Drivers/lvgl/src/draw/sw/blend/lv_draw_sw_blend_to_i1.c **** 
 3489              		.loc 1 470 1 view .LVU1102
 3490 0072 0BB0     		add	sp, sp, #44
 3491              	.LCFI18:
 3492              		.cfi_remember_state
 3493              		.cfi_def_cfa_offset 36
 3494              		@ sp needed
 3495 0074 BDE8F08F 		pop	{r4, r5, r6, r7, r8, r9, r10, fp, pc}
 3496              	.LVL362:
 3497              	.L264:
 3498              	.LCFI19:
 3499              		.cfi_restore_state
 3500              	.LBB554:
 3501              	.LBB555:
 3502              		.loc 1 1117 25 view .LVU1103
 3503 0078 D11D     		adds	r1, r2, #7
 3504              	.LVL363:
 3505              		.loc 1 1117 25 view .LVU1104
 3506 007a 1DE0     		b	.L212
 3507              	.LVL364:
 3508              	.L214:
 3509              		.loc 1 1117 25 view .LVU1105
 3510              	.LBE555:
 3511              	.LBE554:
 3512              	.LBB557:
 3513              	.LBB558:
1107:Drivers/lvgl/src/draw/sw/blend/lv_draw_sw_blend_to_i1.c **** }
 3514              		.loc 1 1107 17 view .LVU1106
 3515 007c 4FEAE808 		asr	r8, r8, #3
ARM GAS  /tmp/cc9ag92L.s 			page 99


1107:Drivers/lvgl/src/draw/sw/blend/lv_draw_sw_blend_to_i1.c **** }
 3516              		.loc 1 1107 8 view .LVU1107
 3517 0080 14F80890 		ldrb	r9, [r4, r8]	@ zero_extendqisi2
1107:Drivers/lvgl/src/draw/sw/blend/lv_draw_sw_blend_to_i1.c **** }
 3518              		.loc 1 1107 45 view .LVU1108
 3519 0084 D1F1000A 		rsbs	r10, r1, #0
 3520 0088 01F00701 		and	r1, r1, #7
 3521              	.LVL365:
1107:Drivers/lvgl/src/draw/sw/blend/lv_draw_sw_blend_to_i1.c **** }
 3522              		.loc 1 1107 45 view .LVU1109
 3523 008c 0AF0070A 		and	r10, r10, #7
 3524 0090 58BF     		it	pl
 3525 0092 CAF10001 		rsbpl	r1, r10, #0
1107:Drivers/lvgl/src/draw/sw/blend/lv_draw_sw_blend_to_i1.c **** }
 3526              		.loc 1 1107 34 view .LVU1110
 3527 0096 C1F10701 		rsb	r1, r1, #7
1107:Drivers/lvgl/src/draw/sw/blend/lv_draw_sw_blend_to_i1.c **** }
 3528              		.loc 1 1107 28 view .LVU1111
 3529 009a 4FF0010A 		mov	r10, #1
 3530 009e 0AFA01F1 		lsl	r1, r10, r1
1107:Drivers/lvgl/src/draw/sw/blend/lv_draw_sw_blend_to_i1.c **** }
 3531              		.loc 1 1107 22 view .LVU1112
 3532 00a2 49EA0109 		orr	r9, r9, r1
 3533 00a6 04F80890 		strb	r9, [r4, r8]
 3534              	.LVL366:
 3535              	.L215:
1107:Drivers/lvgl/src/draw/sw/blend/lv_draw_sw_blend_to_i1.c **** }
 3536              		.loc 1 1107 22 view .LVU1113
 3537              	.LBE558:
 3538              	.LBE557:
 377:Drivers/lvgl/src/draw/sw/blend/lv_draw_sw_blend_to_i1.c ****                         if(get_bit(src_buf_i1, src_x)) {
 3539              		.loc 1 377 67 is_stmt 1 discriminator 2 view .LVU1114
 377:Drivers/lvgl/src/draw/sw/blend/lv_draw_sw_blend_to_i1.c ****                         if(get_bit(src_buf_i1, src_x)) {
 3540              		.loc 1 377 65 is_stmt 0 discriminator 2 view .LVU1115
 3541 00aa 0130     		adds	r0, r0, #1
 3542              	.LVL367:
 377:Drivers/lvgl/src/draw/sw/blend/lv_draw_sw_blend_to_i1.c ****                         if(get_bit(src_buf_i1, src_x)) {
 3543              		.loc 1 377 74 discriminator 2 view .LVU1116
 3544 00ac 0132     		adds	r2, r2, #1
 3545              	.LVL368:
 3546              	.L218:
 377:Drivers/lvgl/src/draw/sw/blend/lv_draw_sw_blend_to_i1.c ****                         if(get_bit(src_buf_i1, src_x)) {
 3547              		.loc 1 377 54 is_stmt 1 discriminator 1 view .LVU1117
 3548 00ae BA42     		cmp	r2, r7
 3549 00b0 3EDA     		bge	.L263
 378:Drivers/lvgl/src/draw/sw/blend/lv_draw_sw_blend_to_i1.c ****                             set_bit(dest_buf_i1, dest_x + bit_ofs);
 3550              		.loc 1 378 25 view .LVU1118
 3551              	.LVL369:
 3552              	.LBB560:
 3553              	.LBI554:
1115:Drivers/lvgl/src/draw/sw/blend/lv_draw_sw_blend_to_i1.c **** {
 3554              		.loc 1 1115 45 view .LVU1119
 3555              	.LBB556:
 3556              		.loc 1 1117 5 view .LVU1120
 3557              		.loc 1 1117 25 is_stmt 0 view .LVU1121
 3558 00b2 1146     		mov	r1, r2
 3559 00b4 002A     		cmp	r2, #0
ARM GAS  /tmp/cc9ag92L.s 			page 100


 3560 00b6 DFDB     		blt	.L264
 3561              	.L212:
 3562              		.loc 1 1117 25 view .LVU1122
 3563 00b8 C910     		asrs	r1, r1, #3
 3564              		.loc 1 1117 16 view .LVU1123
 3565 00ba 15F80180 		ldrb	r8, [r5, r1]	@ zero_extendqisi2
 3566              		.loc 1 1117 47 view .LVU1124
 3567 00be D2F10009 		rsbs	r9, r2, #0
 3568 00c2 02F00701 		and	r1, r2, #7
 3569 00c6 09F00709 		and	r9, r9, #7
 3570 00ca 58BF     		it	pl
 3571 00cc C9F10001 		rsbpl	r1, r9, #0
 3572              		.loc 1 1117 36 view .LVU1125
 3573 00d0 C1F10701 		rsb	r1, r1, #7
 3574              		.loc 1 1117 30 view .LVU1126
 3575 00d4 48FA01F1 		asr	r1, r8, r1
 3576              	.LVL370:
 3577              		.loc 1 1117 30 view .LVU1127
 3578              	.LBE556:
 3579              	.LBE560:
 378:Drivers/lvgl/src/draw/sw/blend/lv_draw_sw_blend_to_i1.c ****                             set_bit(dest_buf_i1, dest_x + bit_ofs);
 3580              		.loc 1 378 27 discriminator 1 view .LVU1128
 3581 00d8 11F0010F 		tst	r1, #1
 3582 00dc 07D0     		beq	.L213
 379:Drivers/lvgl/src/draw/sw/blend/lv_draw_sw_blend_to_i1.c ****                         }
 3583              		.loc 1 379 29 is_stmt 1 view .LVU1129
 3584 00de 00EB0B01 		add	r1, r0, fp
 3585              	.LVL371:
 3586              	.LBB561:
 3587              	.LBI557:
1105:Drivers/lvgl/src/draw/sw/blend/lv_draw_sw_blend_to_i1.c **** {
 3588              		.loc 1 1105 42 view .LVU1130
 3589              	.LBB559:
1107:Drivers/lvgl/src/draw/sw/blend/lv_draw_sw_blend_to_i1.c **** }
 3590              		.loc 1 1107 5 view .LVU1131
1107:Drivers/lvgl/src/draw/sw/blend/lv_draw_sw_blend_to_i1.c **** }
 3591              		.loc 1 1107 17 is_stmt 0 view .LVU1132
 3592 00e2 8846     		mov	r8, r1
 3593 00e4 0029     		cmp	r1, #0
 3594 00e6 C9DA     		bge	.L214
1107:Drivers/lvgl/src/draw/sw/blend/lv_draw_sw_blend_to_i1.c **** }
 3595              		.loc 1 1107 17 view .LVU1133
 3596 00e8 01F10708 		add	r8, r1, #7
 3597 00ec C6E7     		b	.L214
 3598              	.LVL372:
 3599              	.L213:
1107:Drivers/lvgl/src/draw/sw/blend/lv_draw_sw_blend_to_i1.c **** }
 3600              		.loc 1 1107 17 view .LVU1134
 3601              	.LBE559:
 3602              	.LBE561:
 382:Drivers/lvgl/src/draw/sw/blend/lv_draw_sw_blend_to_i1.c ****                         }
 3603              		.loc 1 382 29 is_stmt 1 view .LVU1135
 3604 00ee 00EB0B01 		add	r1, r0, fp
 3605              	.LVL373:
 3606              	.LBB562:
 3607              	.LBI562:
1110:Drivers/lvgl/src/draw/sw/blend/lv_draw_sw_blend_to_i1.c **** {
ARM GAS  /tmp/cc9ag92L.s 			page 101


 3608              		.loc 1 1110 42 view .LVU1136
 3609              	.LBB563:
1112:Drivers/lvgl/src/draw/sw/blend/lv_draw_sw_blend_to_i1.c **** }
 3610              		.loc 1 1112 5 view .LVU1137
1112:Drivers/lvgl/src/draw/sw/blend/lv_draw_sw_blend_to_i1.c **** }
 3611              		.loc 1 1112 17 is_stmt 0 view .LVU1138
 3612 00f2 8846     		mov	r8, r1
 3613 00f4 0029     		cmp	r1, #0
 3614 00f6 18DB     		blt	.L265
 3615              	.L216:
1112:Drivers/lvgl/src/draw/sw/blend/lv_draw_sw_blend_to_i1.c **** }
 3616              		.loc 1 1112 17 view .LVU1139
 3617 00f8 4FEAE808 		asr	r8, r8, #3
1112:Drivers/lvgl/src/draw/sw/blend/lv_draw_sw_blend_to_i1.c **** }
 3618              		.loc 1 1112 8 view .LVU1140
 3619 00fc 14F80890 		ldrb	r9, [r4, r8]	@ zero_extendqisi2
1112:Drivers/lvgl/src/draw/sw/blend/lv_draw_sw_blend_to_i1.c **** }
 3620              		.loc 1 1112 46 view .LVU1141
 3621 0100 D1F1000A 		rsbs	r10, r1, #0
 3622 0104 01F00701 		and	r1, r1, #7
 3623              	.LVL374:
1112:Drivers/lvgl/src/draw/sw/blend/lv_draw_sw_blend_to_i1.c **** }
 3624              		.loc 1 1112 46 view .LVU1142
 3625 0108 0AF0070A 		and	r10, r10, #7
 3626 010c 58BF     		it	pl
 3627 010e CAF10001 		rsbpl	r1, r10, #0
1112:Drivers/lvgl/src/draw/sw/blend/lv_draw_sw_blend_to_i1.c **** }
 3628              		.loc 1 1112 35 view .LVU1143
 3629 0112 C1F1070A 		rsb	r10, r1, #7
1112:Drivers/lvgl/src/draw/sw/blend/lv_draw_sw_blend_to_i1.c **** }
 3630              		.loc 1 1112 29 view .LVU1144
 3631 0116 0121     		movs	r1, #1
 3632 0118 01FA0AF1 		lsl	r1, r1, r10
1112:Drivers/lvgl/src/draw/sw/blend/lv_draw_sw_blend_to_i1.c **** }
 3633              		.loc 1 1112 22 view .LVU1145
 3634 011c C943     		mvns	r1, r1
 3635 011e 49B2     		sxtb	r1, r1
 3636 0120 09EA0109 		and	r9, r9, r1
 3637 0124 04F80890 		strb	r9, [r4, r8]
 3638              	.LVL375:
1113:Drivers/lvgl/src/draw/sw/blend/lv_draw_sw_blend_to_i1.c **** 
 3639              		.loc 1 1113 1 view .LVU1146
 3640 0128 BFE7     		b	.L215
 3641              	.LVL376:
 3642              	.L265:
1112:Drivers/lvgl/src/draw/sw/blend/lv_draw_sw_blend_to_i1.c **** }
 3643              		.loc 1 1112 17 view .LVU1147
 3644 012a 01F10708 		add	r8, r1, #7
 3645 012e E3E7     		b	.L216
 3646              	.LVL377:
 3647              	.L263:
1112:Drivers/lvgl/src/draw/sw/blend/lv_draw_sw_blend_to_i1.c **** }
 3648              		.loc 1 1112 17 view .LVU1148
 3649              	.LBE563:
 3650              	.LBE562:
 385:Drivers/lvgl/src/draw/sw/blend/lv_draw_sw_blend_to_i1.c ****                     src_buf_i1 = drawbuf_next_row(src_buf_i1, src_stride);
 3651              		.loc 1 385 21 is_stmt 1 view .LVU1149
ARM GAS  /tmp/cc9ag92L.s 			page 102


 3652              	.LBB564:
 3653              	.LBI564:
1100:Drivers/lvgl/src/draw/sw/blend/lv_draw_sw_blend_to_i1.c **** {
 3654              		.loc 1 1100 44 view .LVU1150
 3655              	.LBB565:
1102:Drivers/lvgl/src/draw/sw/blend/lv_draw_sw_blend_to_i1.c **** }
 3656              		.loc 1 1102 5 view .LVU1151
1102:Drivers/lvgl/src/draw/sw/blend/lv_draw_sw_blend_to_i1.c **** }
 3657              		.loc 1 1102 12 is_stmt 0 view .LVU1152
 3658 0130 1C44     		add	r4, r4, r3
 3659              	.LVL378:
1102:Drivers/lvgl/src/draw/sw/blend/lv_draw_sw_blend_to_i1.c **** }
 3660              		.loc 1 1102 12 view .LVU1153
 3661              	.LBE565:
 3662              	.LBE564:
 386:Drivers/lvgl/src/draw/sw/blend/lv_draw_sw_blend_to_i1.c ****                 }
 3663              		.loc 1 386 21 is_stmt 1 view .LVU1154
 3664              	.LBB566:
 3665              	.LBI566:
1100:Drivers/lvgl/src/draw/sw/blend/lv_draw_sw_blend_to_i1.c **** {
 3666              		.loc 1 1100 44 view .LVU1155
 3667              	.LBB567:
1102:Drivers/lvgl/src/draw/sw/blend/lv_draw_sw_blend_to_i1.c **** }
 3668              		.loc 1 1102 5 view .LVU1156
1102:Drivers/lvgl/src/draw/sw/blend/lv_draw_sw_blend_to_i1.c **** }
 3669              		.loc 1 1102 12 is_stmt 0 view .LVU1157
 3670 0132 7544     		add	r5, r5, lr
 3671              	.LVL379:
1102:Drivers/lvgl/src/draw/sw/blend/lv_draw_sw_blend_to_i1.c **** }
 3672              		.loc 1 1102 12 view .LVU1158
 3673              	.LBE567:
 3674              	.LBE566:
 376:Drivers/lvgl/src/draw/sw/blend/lv_draw_sw_blend_to_i1.c ****                     for(dest_x = 0, src_x = 0; src_x < w; dest_x++, src_x++) {
 3675              		.loc 1 376 36 is_stmt 1 discriminator 2 view .LVU1159
 3676 0134 0136     		adds	r6, r6, #1
 3677              	.LVL380:
 3678              	.L210:
 376:Drivers/lvgl/src/draw/sw/blend/lv_draw_sw_blend_to_i1.c ****                     for(dest_x = 0, src_x = 0; src_x < w; dest_x++, src_x++) {
 3679              		.loc 1 376 30 discriminator 1 view .LVU1160
 3680 0136 6645     		cmp	r6, ip
 3681 0138 9BDA     		bge	.L208
 377:Drivers/lvgl/src/draw/sw/blend/lv_draw_sw_blend_to_i1.c ****                         if(get_bit(src_buf_i1, src_x)) {
 3682              		.loc 1 377 43 is_stmt 0 view .LVU1161
 3683 013a 0022     		movs	r2, #0
 377:Drivers/lvgl/src/draw/sw/blend/lv_draw_sw_blend_to_i1.c ****                         if(get_bit(src_buf_i1, src_x)) {
 3684              		.loc 1 377 32 view .LVU1162
 3685 013c 1046     		mov	r0, r2
 3686 013e B6E7     		b	.L218
 3687              	.LVL381:
 3688              	.L250:
 376:Drivers/lvgl/src/draw/sw/blend/lv_draw_sw_blend_to_i1.c ****                     for(dest_x = 0, src_x = 0; src_x < w; dest_x++, src_x++) {
 3689              		.loc 1 376 23 view .LVU1163
 3690 0140 0026     		movs	r6, #0
 3691              	.LVL382:
 376:Drivers/lvgl/src/draw/sw/blend/lv_draw_sw_blend_to_i1.c ****                     for(dest_x = 0, src_x = 0; src_x < w; dest_x++, src_x++) {
 3692              		.loc 1 376 23 view .LVU1164
 3693 0142 DDF80CC0 		ldr	ip, [sp, #12]
ARM GAS  /tmp/cc9ag92L.s 			page 103


 3694 0146 F6E7     		b	.L210
 3695              	.LVL383:
 3696              	.L267:
 3697              	.LBB568:
 3698              	.LBB569:
 3699              	.LBB570:
 3700              		.loc 1 1117 25 view .LVU1165
 3701 0148 CB1D     		adds	r3, r1, #7
 3702 014a 0EE0     		b	.L222
 3703              	.LVL384:
 3704              	.L268:
 3705              		.loc 1 1117 25 view .LVU1166
 3706              	.LBE570:
 3707              	.LBE569:
 3708              	.LBB572:
 3709              	.LBB573:
 3710 014c DE1D     		adds	r6, r3, #7
 3711 014e 1FE0     		b	.L223
 3712              	.LVL385:
 3713              	.L269:
 3714              		.loc 1 1117 25 view .LVU1167
 3715              	.LBE573:
 3716              	.LBE572:
 398:Drivers/lvgl/src/draw/sw/blend/lv_draw_sw_blend_to_i1.c ****                         }
 3717              		.loc 1 398 29 is_stmt 1 view .LVU1168
 3718              	.LBB575:
 3719              	.LBI575:
1105:Drivers/lvgl/src/draw/sw/blend/lv_draw_sw_blend_to_i1.c **** {
 3720              		.loc 1 1105 42 view .LVU1169
 3721              	.LBB576:
1107:Drivers/lvgl/src/draw/sw/blend/lv_draw_sw_blend_to_i1.c **** }
 3722              		.loc 1 1107 5 view .LVU1170
1107:Drivers/lvgl/src/draw/sw/blend/lv_draw_sw_blend_to_i1.c **** }
 3723              		.loc 1 1107 28 is_stmt 0 view .LVU1171
 3724 0150 0122     		movs	r2, #1
 3725 0152 9A40     		lsls	r2, r2, r3
1107:Drivers/lvgl/src/draw/sw/blend/lv_draw_sw_blend_to_i1.c **** }
 3726              		.loc 1 1107 22 view .LVU1172
 3727 0154 4CEA0202 		orr	r2, ip, r2
 3728 0158 A255     		strb	r2, [r4, r6]
 3729              	.LVL386:
 3730              	.L225:
1107:Drivers/lvgl/src/draw/sw/blend/lv_draw_sw_blend_to_i1.c **** }
 3731              		.loc 1 1107 22 view .LVU1173
 3732              	.LBE576:
 3733              	.LBE575:
 3734              	.LBE568:
 393:Drivers/lvgl/src/draw/sw/blend/lv_draw_sw_blend_to_i1.c ****                         uint8_t src = get_bit(src_buf_i1, src_x);
 3735              		.loc 1 393 67 is_stmt 1 discriminator 2 view .LVU1174
 393:Drivers/lvgl/src/draw/sw/blend/lv_draw_sw_blend_to_i1.c ****                         uint8_t src = get_bit(src_buf_i1, src_x);
 3736              		.loc 1 393 65 is_stmt 0 discriminator 2 view .LVU1175
 3737 015a 09F10109 		add	r9, r9, #1
 3738              	.LVL387:
 393:Drivers/lvgl/src/draw/sw/blend/lv_draw_sw_blend_to_i1.c ****                         uint8_t src = get_bit(src_buf_i1, src_x);
 3739              		.loc 1 393 74 discriminator 2 view .LVU1176
 3740 015e 0131     		adds	r1, r1, #1
 3741              	.LVL388:
ARM GAS  /tmp/cc9ag92L.s 			page 104


 3742              	.L227:
 393:Drivers/lvgl/src/draw/sw/blend/lv_draw_sw_blend_to_i1.c ****                         uint8_t src = get_bit(src_buf_i1, src_x);
 3743              		.loc 1 393 54 is_stmt 1 discriminator 1 view .LVU1177
 3744 0160 B942     		cmp	r1, r7
 3745 0162 3ADA     		bge	.L266
 3746              	.LBB581:
 394:Drivers/lvgl/src/draw/sw/blend/lv_draw_sw_blend_to_i1.c ****                         uint8_t dest = get_bit(dest_buf_i1, dest_x + bit_ofs);
 3747              		.loc 1 394 25 view .LVU1178
 3748              	.LVL389:
 3749              	.LBB577:
 3750              	.LBI569:
1115:Drivers/lvgl/src/draw/sw/blend/lv_draw_sw_blend_to_i1.c **** {
 3751              		.loc 1 1115 45 view .LVU1179
 3752              	.LBB571:
 3753              		.loc 1 1117 5 view .LVU1180
 3754              		.loc 1 1117 25 is_stmt 0 view .LVU1181
 3755 0164 0B46     		mov	r3, r1
 3756 0166 0029     		cmp	r1, #0
 3757 0168 EEDB     		blt	.L267
 3758              	.L222:
 3759              		.loc 1 1117 25 view .LVU1182
 3760 016a DB10     		asrs	r3, r3, #3
 3761              		.loc 1 1117 16 view .LVU1183
 3762 016c EA5C     		ldrb	r2, [r5, r3]	@ zero_extendqisi2
 3763              		.loc 1 1117 47 view .LVU1184
 3764 016e 4842     		rsbs	r0, r1, #0
 3765 0170 01F00703 		and	r3, r1, #7
 3766 0174 00F00700 		and	r0, r0, #7
 3767 0178 58BF     		it	pl
 3768 017a 4342     		rsbpl	r3, r0, #0
 3769              		.loc 1 1117 36 view .LVU1185
 3770 017c C3F10703 		rsb	r3, r3, #7
 3771              		.loc 1 1117 30 view .LVU1186
 3772 0180 1A41     		asrs	r2, r2, r3
 3773              		.loc 1 1117 54 view .LVU1187
 3774 0182 02F00102 		and	r2, r2, #1
 3775              	.LVL390:
 3776              		.loc 1 1117 54 view .LVU1188
 3777              	.LBE571:
 3778              	.LBE577:
 395:Drivers/lvgl/src/draw/sw/blend/lv_draw_sw_blend_to_i1.c ****                         uint8_t blended = (src * opa + dest * (255 - opa));
 3779              		.loc 1 395 25 is_stmt 1 view .LVU1189
 395:Drivers/lvgl/src/draw/sw/blend/lv_draw_sw_blend_to_i1.c ****                         uint8_t blended = (src * opa + dest * (255 - opa));
 3780              		.loc 1 395 40 is_stmt 0 view .LVU1190
 3781 0186 09EB0B03 		add	r3, r9, fp
 3782              	.LVL391:
 3783              	.LBB578:
 3784              	.LBI572:
1115:Drivers/lvgl/src/draw/sw/blend/lv_draw_sw_blend_to_i1.c **** {
 3785              		.loc 1 1115 45 is_stmt 1 view .LVU1191
 3786              	.LBB574:
 3787              		.loc 1 1117 5 view .LVU1192
 3788              		.loc 1 1117 25 is_stmt 0 view .LVU1193
 3789 018a 1E46     		mov	r6, r3
 3790 018c 002B     		cmp	r3, #0
 3791 018e DDDB     		blt	.L268
 3792              	.L223:
ARM GAS  /tmp/cc9ag92L.s 			page 105


 3793              		.loc 1 1117 25 view .LVU1194
 3794 0190 F610     		asrs	r6, r6, #3
 3795              		.loc 1 1117 16 view .LVU1195
 3796 0192 14F806C0 		ldrb	ip, [r4, r6]	@ zero_extendqisi2
 3797              		.loc 1 1117 47 view .LVU1196
 3798 0196 5842     		rsbs	r0, r3, #0
 3799 0198 03F00703 		and	r3, r3, #7
 3800              	.LVL392:
 3801              		.loc 1 1117 47 view .LVU1197
 3802 019c 00F00700 		and	r0, r0, #7
 3803 01a0 58BF     		it	pl
 3804 01a2 4342     		rsbpl	r3, r0, #0
 3805              		.loc 1 1117 36 view .LVU1198
 3806 01a4 C3F10703 		rsb	r3, r3, #7
 3807              		.loc 1 1117 30 view .LVU1199
 3808 01a8 4CFA03FA 		asr	r10, ip, r3
 3809              	.LVL393:
 3810              		.loc 1 1117 30 view .LVU1200
 3811              	.LBE574:
 3812              	.LBE578:
 396:Drivers/lvgl/src/draw/sw/blend/lv_draw_sw_blend_to_i1.c ****                         if(blended > I1_LUM_THRESHOLD) {
 3813              		.loc 1 396 25 is_stmt 1 view .LVU1201
 396:Drivers/lvgl/src/draw/sw/blend/lv_draw_sw_blend_to_i1.c ****                         if(blended > I1_LUM_THRESHOLD) {
 3814              		.loc 1 396 48 is_stmt 0 view .LVU1202
 3815 01ac 5242     		rsbs	r2, r2, #0
 3816              	.LVL394:
 396:Drivers/lvgl/src/draw/sw/blend/lv_draw_sw_blend_to_i1.c ****                         if(blended > I1_LUM_THRESHOLD) {
 3817              		.loc 1 396 48 view .LVU1203
 3818 01ae 08EA0202 		and	r2, r8, r2
 3819              	.LVL395:
 396:Drivers/lvgl/src/draw/sw/blend/lv_draw_sw_blend_to_i1.c ****                         if(blended > I1_LUM_THRESHOLD) {
 3820              		.loc 1 396 68 view .LVU1204
 3821 01b2 C8F1FF00 		rsb	r0, r8, #255
 396:Drivers/lvgl/src/draw/sw/blend/lv_draw_sw_blend_to_i1.c ****                         if(blended > I1_LUM_THRESHOLD) {
 3822              		.loc 1 396 54 view .LVU1205
 3823 01b6 4AF3000A 		sbfx	r10, r10, #0, #1
 3824              	.LVL396:
 396:Drivers/lvgl/src/draw/sw/blend/lv_draw_sw_blend_to_i1.c ****                         if(blended > I1_LUM_THRESHOLD) {
 3825              		.loc 1 396 54 view .LVU1206
 3826 01ba 00EA0A00 		and	r0, r0, r10
 396:Drivers/lvgl/src/draw/sw/blend/lv_draw_sw_blend_to_i1.c ****                         if(blended > I1_LUM_THRESHOLD) {
 3827              		.loc 1 396 33 view .LVU1207
 3828 01be 52FA80F0 		uxtab	r0, r2, r0
 3829              	.LVL397:
 397:Drivers/lvgl/src/draw/sw/blend/lv_draw_sw_blend_to_i1.c ****                             set_bit(dest_buf_i1, dest_x + bit_ofs);
 3830              		.loc 1 397 25 is_stmt 1 view .LVU1208
 397:Drivers/lvgl/src/draw/sw/blend/lv_draw_sw_blend_to_i1.c ****                             set_bit(dest_buf_i1, dest_x + bit_ofs);
 3831              		.loc 1 397 27 is_stmt 0 view .LVU1209
 3832 01c2 10F0800F 		tst	r0, #128
 3833 01c6 C3D1     		bne	.L269
 401:Drivers/lvgl/src/draw/sw/blend/lv_draw_sw_blend_to_i1.c ****                         }
 3834              		.loc 1 401 29 is_stmt 1 view .LVU1210
 3835              	.LVL398:
 3836              	.LBB579:
 3837              	.LBI579:
1110:Drivers/lvgl/src/draw/sw/blend/lv_draw_sw_blend_to_i1.c **** {
 3838              		.loc 1 1110 42 view .LVU1211
ARM GAS  /tmp/cc9ag92L.s 			page 106


 3839              	.LBB580:
1112:Drivers/lvgl/src/draw/sw/blend/lv_draw_sw_blend_to_i1.c **** }
 3840              		.loc 1 1112 5 view .LVU1212
1112:Drivers/lvgl/src/draw/sw/blend/lv_draw_sw_blend_to_i1.c **** }
 3841              		.loc 1 1112 29 is_stmt 0 view .LVU1213
 3842 01c8 0122     		movs	r2, #1
 3843 01ca 9A40     		lsls	r2, r2, r3
1112:Drivers/lvgl/src/draw/sw/blend/lv_draw_sw_blend_to_i1.c **** }
 3844              		.loc 1 1112 22 view .LVU1214
 3845 01cc D243     		mvns	r2, r2
 3846 01ce 52B2     		sxtb	r2, r2
 3847 01d0 0CEA020C 		and	ip, ip, r2
 3848              	.LVL399:
1112:Drivers/lvgl/src/draw/sw/blend/lv_draw_sw_blend_to_i1.c **** }
 3849              		.loc 1 1112 22 view .LVU1215
 3850 01d4 04F806C0 		strb	ip, [r4, r6]
 3851              	.LVL400:
1113:Drivers/lvgl/src/draw/sw/blend/lv_draw_sw_blend_to_i1.c **** 
 3852              		.loc 1 1113 1 view .LVU1216
 3853 01d8 BFE7     		b	.L225
 3854              	.LVL401:
 3855              	.L266:
1113:Drivers/lvgl/src/draw/sw/blend/lv_draw_sw_blend_to_i1.c **** 
 3856              		.loc 1 1113 1 view .LVU1217
 3857              	.LBE580:
 3858              	.LBE579:
 3859              	.LBE581:
 3860              	.LBB582:
 3861              	.LBB583:
1102:Drivers/lvgl/src/draw/sw/blend/lv_draw_sw_blend_to_i1.c **** }
 3862              		.loc 1 1102 12 view .LVU1218
 3863 01da DDF804A0 		ldr	r10, [sp, #4]
 3864              	.LBE583:
 3865              	.LBE582:
 404:Drivers/lvgl/src/draw/sw/blend/lv_draw_sw_blend_to_i1.c ****                     src_buf_i1 = drawbuf_next_row(src_buf_i1, src_stride);
 3866              		.loc 1 404 21 is_stmt 1 view .LVU1219
 3867              	.LVL402:
 3868              	.LBB585:
 3869              	.LBI582:
1100:Drivers/lvgl/src/draw/sw/blend/lv_draw_sw_blend_to_i1.c **** {
 3870              		.loc 1 1100 44 view .LVU1220
 3871              	.LBB584:
1102:Drivers/lvgl/src/draw/sw/blend/lv_draw_sw_blend_to_i1.c **** }
 3872              		.loc 1 1102 5 view .LVU1221
1102:Drivers/lvgl/src/draw/sw/blend/lv_draw_sw_blend_to_i1.c **** }
 3873              		.loc 1 1102 12 is_stmt 0 view .LVU1222
 3874 01de 029B     		ldr	r3, [sp, #8]
 3875 01e0 1C44     		add	r4, r4, r3
 3876              	.LVL403:
1102:Drivers/lvgl/src/draw/sw/blend/lv_draw_sw_blend_to_i1.c **** }
 3877              		.loc 1 1102 12 view .LVU1223
 3878              	.LBE584:
 3879              	.LBE585:
 405:Drivers/lvgl/src/draw/sw/blend/lv_draw_sw_blend_to_i1.c ****                 }
 3880              		.loc 1 405 21 is_stmt 1 view .LVU1224
 3881              	.LBB586:
 3882              	.LBI586:
ARM GAS  /tmp/cc9ag92L.s 			page 107


1100:Drivers/lvgl/src/draw/sw/blend/lv_draw_sw_blend_to_i1.c **** {
 3883              		.loc 1 1100 44 view .LVU1225
 3884              	.LBB587:
1102:Drivers/lvgl/src/draw/sw/blend/lv_draw_sw_blend_to_i1.c **** }
 3885              		.loc 1 1102 5 view .LVU1226
1102:Drivers/lvgl/src/draw/sw/blend/lv_draw_sw_blend_to_i1.c **** }
 3886              		.loc 1 1102 12 is_stmt 0 view .LVU1227
 3887 01e2 7544     		add	r5, r5, lr
 3888              	.LVL404:
1102:Drivers/lvgl/src/draw/sw/blend/lv_draw_sw_blend_to_i1.c **** }
 3889              		.loc 1 1102 12 view .LVU1228
 3890              	.LBE587:
 3891              	.LBE586:
 392:Drivers/lvgl/src/draw/sw/blend/lv_draw_sw_blend_to_i1.c ****                     for(dest_x = 0, src_x = 0; src_x < w; dest_x++, src_x++) {
 3892              		.loc 1 392 36 is_stmt 1 discriminator 2 view .LVU1229
 3893 01e4 0AF1010A 		add	r10, r10, #1
 3894              	.LVL405:
 3895              	.L220:
 392:Drivers/lvgl/src/draw/sw/blend/lv_draw_sw_blend_to_i1.c ****                     for(dest_x = 0, src_x = 0; src_x < w; dest_x++, src_x++) {
 3896              		.loc 1 392 30 discriminator 1 view .LVU1230
 3897 01e8 039B     		ldr	r3, [sp, #12]
 3898 01ea 9A45     		cmp	r10, r3
 3899 01ec BFF641AF 		bge	.L208
 393:Drivers/lvgl/src/draw/sw/blend/lv_draw_sw_blend_to_i1.c ****                         uint8_t src = get_bit(src_buf_i1, src_x);
 3900              		.loc 1 393 43 is_stmt 0 view .LVU1231
 3901 01f0 0021     		movs	r1, #0
 393:Drivers/lvgl/src/draw/sw/blend/lv_draw_sw_blend_to_i1.c ****                         uint8_t src = get_bit(src_buf_i1, src_x);
 3902              		.loc 1 393 32 view .LVU1232
 3903 01f2 8946     		mov	r9, r1
 3904 01f4 CDF804A0 		str	r10, [sp, #4]
 3905 01f8 B2E7     		b	.L227
 3906              	.LVL406:
 3907              	.L252:
 392:Drivers/lvgl/src/draw/sw/blend/lv_draw_sw_blend_to_i1.c ****                     for(dest_x = 0, src_x = 0; src_x < w; dest_x++, src_x++) {
 3908              		.loc 1 392 23 view .LVU1233
 3909 01fa 4FF0000A 		mov	r10, #0
 3910 01fe 0293     		str	r3, [sp, #8]
 3911 0200 F2E7     		b	.L220
 3912              	.LVL407:
 3913              	.L271:
 3914              	.LBB588:
 3915              	.LBB589:
 3916              	.LBB590:
 3917              		.loc 1 1117 25 view .LVU1234
 3918 0202 CB1D     		adds	r3, r1, #7
 3919 0204 11E0     		b	.L230
 3920              	.LVL408:
 3921              	.L272:
 3922              		.loc 1 1117 25 view .LVU1235
 3923              	.LBE590:
 3924              	.LBE589:
 3925              	.LBB592:
 3926              	.LBB593:
 3927 0206 03F1070C 		add	ip, r3, #7
 3928 020a 23E0     		b	.L231
 3929              	.LVL409:
 3930              	.L273:
ARM GAS  /tmp/cc9ag92L.s 			page 108


 3931              		.loc 1 1117 25 view .LVU1236
 3932              	.LBE593:
 3933              	.LBE592:
 418:Drivers/lvgl/src/draw/sw/blend/lv_draw_sw_blend_to_i1.c ****                         }
 3934              		.loc 1 418 29 is_stmt 1 view .LVU1237
 3935              	.LBB595:
 3936              	.LBI595:
1105:Drivers/lvgl/src/draw/sw/blend/lv_draw_sw_blend_to_i1.c **** {
 3937              		.loc 1 1105 42 view .LVU1238
 3938              	.LBB596:
1107:Drivers/lvgl/src/draw/sw/blend/lv_draw_sw_blend_to_i1.c **** }
 3939              		.loc 1 1107 5 view .LVU1239
1107:Drivers/lvgl/src/draw/sw/blend/lv_draw_sw_blend_to_i1.c **** }
 3940              		.loc 1 1107 28 is_stmt 0 view .LVU1240
 3941 020c 0122     		movs	r2, #1
 3942 020e 9A40     		lsls	r2, r2, r3
1107:Drivers/lvgl/src/draw/sw/blend/lv_draw_sw_blend_to_i1.c **** }
 3943              		.loc 1 1107 22 view .LVU1241
 3944 0210 48EA0202 		orr	r2, r8, r2
 3945 0214 04F80C20 		strb	r2, [r4, ip]
 3946              	.LVL410:
 3947              	.L233:
1107:Drivers/lvgl/src/draw/sw/blend/lv_draw_sw_blend_to_i1.c **** }
 3948              		.loc 1 1107 22 view .LVU1242
 3949              	.LBE596:
 3950              	.LBE595:
 3951              	.LBE588:
 412:Drivers/lvgl/src/draw/sw/blend/lv_draw_sw_blend_to_i1.c ****                         uint8_t mask_val = mask_buf[src_x];
 3952              		.loc 1 412 67 is_stmt 1 discriminator 2 view .LVU1243
 412:Drivers/lvgl/src/draw/sw/blend/lv_draw_sw_blend_to_i1.c ****                         uint8_t mask_val = mask_buf[src_x];
 3953              		.loc 1 412 65 is_stmt 0 discriminator 2 view .LVU1244
 3954 0218 0AF1010A 		add	r10, r10, #1
 3955              	.LVL411:
 412:Drivers/lvgl/src/draw/sw/blend/lv_draw_sw_blend_to_i1.c ****                         uint8_t mask_val = mask_buf[src_x];
 3956              		.loc 1 412 74 discriminator 2 view .LVU1245
 3957 021c 0131     		adds	r1, r1, #1
 3958              	.LVL412:
 3959              	.L235:
 412:Drivers/lvgl/src/draw/sw/blend/lv_draw_sw_blend_to_i1.c ****                         uint8_t mask_val = mask_buf[src_x];
 3960              		.loc 1 412 54 is_stmt 1 discriminator 1 view .LVU1246
 3961 021e B942     		cmp	r1, r7
 3962 0220 3FDA     		bge	.L270
 3963              	.LBB601:
 413:Drivers/lvgl/src/draw/sw/blend/lv_draw_sw_blend_to_i1.c ****                         uint8_t src = get_bit(src_buf_i1, src_x);
 3964              		.loc 1 413 25 view .LVU1247
 413:Drivers/lvgl/src/draw/sw/blend/lv_draw_sw_blend_to_i1.c ****                         uint8_t src = get_bit(src_buf_i1, src_x);
 3965              		.loc 1 413 33 is_stmt 0 view .LVU1248
 3966 0222 705C     		ldrb	r0, [r6, r1]	@ zero_extendqisi2
 3967              	.LVL413:
 414:Drivers/lvgl/src/draw/sw/blend/lv_draw_sw_blend_to_i1.c ****                         uint8_t dest = get_bit(dest_buf_i1, dest_x + bit_ofs);
 3968              		.loc 1 414 25 is_stmt 1 view .LVU1249
 3969              	.LBB597:
 3970              	.LBI589:
1115:Drivers/lvgl/src/draw/sw/blend/lv_draw_sw_blend_to_i1.c **** {
 3971              		.loc 1 1115 45 view .LVU1250
 3972              	.LBB591:
 3973              		.loc 1 1117 5 view .LVU1251
ARM GAS  /tmp/cc9ag92L.s 			page 109


 3974              		.loc 1 1117 25 is_stmt 0 view .LVU1252
 3975 0224 0B46     		mov	r3, r1
 3976 0226 0029     		cmp	r1, #0
 3977 0228 EBDB     		blt	.L271
 3978              	.L230:
 3979              		.loc 1 1117 25 view .LVU1253
 3980 022a DB10     		asrs	r3, r3, #3
 3981              		.loc 1 1117 16 view .LVU1254
 3982 022c EA5C     		ldrb	r2, [r5, r3]	@ zero_extendqisi2
 3983              		.loc 1 1117 47 view .LVU1255
 3984 022e D1F1000C 		rsbs	ip, r1, #0
 3985 0232 01F00703 		and	r3, r1, #7
 3986 0236 0CF0070C 		and	ip, ip, #7
 3987 023a 58BF     		it	pl
 3988 023c CCF10003 		rsbpl	r3, ip, #0
 3989              		.loc 1 1117 36 view .LVU1256
 3990 0240 C3F10703 		rsb	r3, r3, #7
 3991              		.loc 1 1117 30 view .LVU1257
 3992 0244 1A41     		asrs	r2, r2, r3
 3993              		.loc 1 1117 54 view .LVU1258
 3994 0246 02F00102 		and	r2, r2, #1
 3995              	.LVL414:
 3996              		.loc 1 1117 54 view .LVU1259
 3997              	.LBE591:
 3998              	.LBE597:
 415:Drivers/lvgl/src/draw/sw/blend/lv_draw_sw_blend_to_i1.c ****                         uint8_t blended = (src * mask_val + dest * (255 - mask_val));
 3999              		.loc 1 415 25 is_stmt 1 view .LVU1260
 415:Drivers/lvgl/src/draw/sw/blend/lv_draw_sw_blend_to_i1.c ****                         uint8_t blended = (src * mask_val + dest * (255 - mask_val));
 4000              		.loc 1 415 40 is_stmt 0 view .LVU1261
 4001 024a 0AEB0B03 		add	r3, r10, fp
 4002              	.LVL415:
 4003              	.LBB598:
 4004              	.LBI592:
1115:Drivers/lvgl/src/draw/sw/blend/lv_draw_sw_blend_to_i1.c **** {
 4005              		.loc 1 1115 45 is_stmt 1 view .LVU1262
 4006              	.LBB594:
 4007              		.loc 1 1117 5 view .LVU1263
 4008              		.loc 1 1117 25 is_stmt 0 view .LVU1264
 4009 024e 9C46     		mov	ip, r3
 4010 0250 002B     		cmp	r3, #0
 4011 0252 D8DB     		blt	.L272
 4012              	.L231:
 4013              		.loc 1 1117 25 view .LVU1265
 4014 0254 4FEAEC0C 		asr	ip, ip, #3
 4015              		.loc 1 1117 16 view .LVU1266
 4016 0258 14F80C80 		ldrb	r8, [r4, ip]	@ zero_extendqisi2
 4017              		.loc 1 1117 47 view .LVU1267
 4018 025c D3F10009 		rsbs	r9, r3, #0
 4019 0260 03F00703 		and	r3, r3, #7
 4020              	.LVL416:
 4021              		.loc 1 1117 47 view .LVU1268
 4022 0264 09F00709 		and	r9, r9, #7
 4023 0268 58BF     		it	pl
 4024 026a C9F10003 		rsbpl	r3, r9, #0
 4025              		.loc 1 1117 36 view .LVU1269
 4026 026e C3F10703 		rsb	r3, r3, #7
 4027              		.loc 1 1117 30 view .LVU1270
ARM GAS  /tmp/cc9ag92L.s 			page 110


 4028 0272 48FA03F9 		asr	r9, r8, r3
 4029              	.LVL417:
 4030              		.loc 1 1117 30 view .LVU1271
 4031              	.LBE594:
 4032              	.LBE598:
 416:Drivers/lvgl/src/draw/sw/blend/lv_draw_sw_blend_to_i1.c ****                         if(blended > I1_LUM_THRESHOLD) {
 4033              		.loc 1 416 25 is_stmt 1 view .LVU1272
 416:Drivers/lvgl/src/draw/sw/blend/lv_draw_sw_blend_to_i1.c ****                         if(blended > I1_LUM_THRESHOLD) {
 4034              		.loc 1 416 48 is_stmt 0 view .LVU1273
 4035 0276 5242     		rsbs	r2, r2, #0
 4036              	.LVL418:
 416:Drivers/lvgl/src/draw/sw/blend/lv_draw_sw_blend_to_i1.c ****                         if(blended > I1_LUM_THRESHOLD) {
 4037              		.loc 1 416 48 view .LVU1274
 4038 0278 0240     		ands	r2, r2, r0
 4039              	.LVL419:
 416:Drivers/lvgl/src/draw/sw/blend/lv_draw_sw_blend_to_i1.c ****                         if(blended > I1_LUM_THRESHOLD) {
 4040              		.loc 1 416 73 view .LVU1275
 4041 027a C0F1FF00 		rsb	r0, r0, #255
 4042              	.LVL420:
 416:Drivers/lvgl/src/draw/sw/blend/lv_draw_sw_blend_to_i1.c ****                         if(blended > I1_LUM_THRESHOLD) {
 4043              		.loc 1 416 59 view .LVU1276
 4044 027e 49F30009 		sbfx	r9, r9, #0, #1
 4045              	.LVL421:
 416:Drivers/lvgl/src/draw/sw/blend/lv_draw_sw_blend_to_i1.c ****                         if(blended > I1_LUM_THRESHOLD) {
 4046              		.loc 1 416 59 view .LVU1277
 4047 0282 00EA0900 		and	r0, r0, r9
 416:Drivers/lvgl/src/draw/sw/blend/lv_draw_sw_blend_to_i1.c ****                         if(blended > I1_LUM_THRESHOLD) {
 4048              		.loc 1 416 33 view .LVU1278
 4049 0286 52FA80F0 		uxtab	r0, r2, r0
 4050              	.LVL422:
 417:Drivers/lvgl/src/draw/sw/blend/lv_draw_sw_blend_to_i1.c ****                             set_bit(dest_buf_i1, dest_x + bit_ofs);
 4051              		.loc 1 417 25 is_stmt 1 view .LVU1279
 417:Drivers/lvgl/src/draw/sw/blend/lv_draw_sw_blend_to_i1.c ****                             set_bit(dest_buf_i1, dest_x + bit_ofs);
 4052              		.loc 1 417 27 is_stmt 0 view .LVU1280
 4053 028a 10F0800F 		tst	r0, #128
 4054 028e BDD1     		bne	.L273
 421:Drivers/lvgl/src/draw/sw/blend/lv_draw_sw_blend_to_i1.c ****                         }
 4055              		.loc 1 421 29 is_stmt 1 view .LVU1281
 4056              	.LVL423:
 4057              	.LBB599:
 4058              	.LBI599:
1110:Drivers/lvgl/src/draw/sw/blend/lv_draw_sw_blend_to_i1.c **** {
 4059              		.loc 1 1110 42 view .LVU1282
 4060              	.LBB600:
1112:Drivers/lvgl/src/draw/sw/blend/lv_draw_sw_blend_to_i1.c **** }
 4061              		.loc 1 1112 5 view .LVU1283
1112:Drivers/lvgl/src/draw/sw/blend/lv_draw_sw_blend_to_i1.c **** }
 4062              		.loc 1 1112 29 is_stmt 0 view .LVU1284
 4063 0290 0122     		movs	r2, #1
 4064 0292 9A40     		lsls	r2, r2, r3
1112:Drivers/lvgl/src/draw/sw/blend/lv_draw_sw_blend_to_i1.c **** }
 4065              		.loc 1 1112 22 view .LVU1285
 4066 0294 D243     		mvns	r2, r2
 4067 0296 52B2     		sxtb	r2, r2
 4068 0298 08EA0208 		and	r8, r8, r2
 4069              	.LVL424:
1112:Drivers/lvgl/src/draw/sw/blend/lv_draw_sw_blend_to_i1.c **** }
ARM GAS  /tmp/cc9ag92L.s 			page 111


 4070              		.loc 1 1112 22 view .LVU1286
 4071 029c 04F80C80 		strb	r8, [r4, ip]
 4072              	.LVL425:
1113:Drivers/lvgl/src/draw/sw/blend/lv_draw_sw_blend_to_i1.c **** 
 4073              		.loc 1 1113 1 view .LVU1287
 4074 02a0 BAE7     		b	.L233
 4075              	.LVL426:
 4076              	.L270:
1113:Drivers/lvgl/src/draw/sw/blend/lv_draw_sw_blend_to_i1.c **** 
 4077              		.loc 1 1113 1 view .LVU1288
 4078              	.LBE600:
 4079              	.LBE599:
 4080              	.LBE601:
 4081              	.LBB602:
 4082              	.LBB603:
1102:Drivers/lvgl/src/draw/sw/blend/lv_draw_sw_blend_to_i1.c **** }
 4083              		.loc 1 1102 12 view .LVU1289
 4084 02a2 DDF804C0 		ldr	ip, [sp, #4]
 4085              	.LBE603:
 4086              	.LBE602:
 424:Drivers/lvgl/src/draw/sw/blend/lv_draw_sw_blend_to_i1.c ****                     src_buf_i1 = drawbuf_next_row(src_buf_i1, src_stride);
 4087              		.loc 1 424 21 is_stmt 1 view .LVU1290
 4088              	.LVL427:
 4089              	.LBB605:
 4090              	.LBI602:
1100:Drivers/lvgl/src/draw/sw/blend/lv_draw_sw_blend_to_i1.c **** {
 4091              		.loc 1 1100 44 view .LVU1291
 4092              	.LBB604:
1102:Drivers/lvgl/src/draw/sw/blend/lv_draw_sw_blend_to_i1.c **** }
 4093              		.loc 1 1102 5 view .LVU1292
1102:Drivers/lvgl/src/draw/sw/blend/lv_draw_sw_blend_to_i1.c **** }
 4094              		.loc 1 1102 12 is_stmt 0 view .LVU1293
 4095 02a6 029B     		ldr	r3, [sp, #8]
 4096 02a8 1C44     		add	r4, r4, r3
 4097              	.LVL428:
1102:Drivers/lvgl/src/draw/sw/blend/lv_draw_sw_blend_to_i1.c **** }
 4098              		.loc 1 1102 12 view .LVU1294
 4099              	.LBE604:
 4100              	.LBE605:
 425:Drivers/lvgl/src/draw/sw/blend/lv_draw_sw_blend_to_i1.c ****                     mask_buf += mask_stride;
 4101              		.loc 1 425 21 is_stmt 1 view .LVU1295
 4102              	.LBB606:
 4103              	.LBI606:
1100:Drivers/lvgl/src/draw/sw/blend/lv_draw_sw_blend_to_i1.c **** {
 4104              		.loc 1 1100 44 view .LVU1296
 4105              	.LBB607:
1102:Drivers/lvgl/src/draw/sw/blend/lv_draw_sw_blend_to_i1.c **** }
 4106              		.loc 1 1102 5 view .LVU1297
1102:Drivers/lvgl/src/draw/sw/blend/lv_draw_sw_blend_to_i1.c **** }
 4107              		.loc 1 1102 12 is_stmt 0 view .LVU1298
 4108 02aa 049B     		ldr	r3, [sp, #16]
 4109 02ac 1D44     		add	r5, r5, r3
 4110              	.LVL429:
1102:Drivers/lvgl/src/draw/sw/blend/lv_draw_sw_blend_to_i1.c **** }
 4111              		.loc 1 1102 12 view .LVU1299
 4112              	.LBE607:
 4113              	.LBE606:
ARM GAS  /tmp/cc9ag92L.s 			page 112


 426:Drivers/lvgl/src/draw/sw/blend/lv_draw_sw_blend_to_i1.c ****                 }
 4114              		.loc 1 426 21 is_stmt 1 view .LVU1300
 426:Drivers/lvgl/src/draw/sw/blend/lv_draw_sw_blend_to_i1.c ****                 }
 4115              		.loc 1 426 30 is_stmt 0 view .LVU1301
 4116 02ae 7644     		add	r6, r6, lr
 4117              	.LVL430:
 411:Drivers/lvgl/src/draw/sw/blend/lv_draw_sw_blend_to_i1.c ****                     for(dest_x = 0, src_x = 0; src_x < w; dest_x++, src_x++) {
 4118              		.loc 1 411 36 is_stmt 1 discriminator 2 view .LVU1302
 4119 02b0 0CF1010C 		add	ip, ip, #1
 4120              	.LVL431:
 4121              	.L228:
 411:Drivers/lvgl/src/draw/sw/blend/lv_draw_sw_blend_to_i1.c ****                     for(dest_x = 0, src_x = 0; src_x < w; dest_x++, src_x++) {
 4122              		.loc 1 411 30 discriminator 1 view .LVU1303
 4123 02b4 039B     		ldr	r3, [sp, #12]
 4124 02b6 9C45     		cmp	ip, r3
 4125 02b8 BFF6DBAE 		bge	.L208
 412:Drivers/lvgl/src/draw/sw/blend/lv_draw_sw_blend_to_i1.c ****                         uint8_t mask_val = mask_buf[src_x];
 4126              		.loc 1 412 43 is_stmt 0 view .LVU1304
 4127 02bc 0021     		movs	r1, #0
 412:Drivers/lvgl/src/draw/sw/blend/lv_draw_sw_blend_to_i1.c ****                         uint8_t mask_val = mask_buf[src_x];
 4128              		.loc 1 412 32 view .LVU1305
 4129 02be 8A46     		mov	r10, r1
 4130 02c0 CDF804C0 		str	ip, [sp, #4]
 4131 02c4 ABE7     		b	.L235
 4132              	.LVL432:
 4133              	.L254:
 411:Drivers/lvgl/src/draw/sw/blend/lv_draw_sw_blend_to_i1.c ****                     for(dest_x = 0, src_x = 0; src_x < w; dest_x++, src_x++) {
 4134              		.loc 1 411 23 view .LVU1306
 4135 02c6 4FF0000C 		mov	ip, #0
 4136 02ca 0293     		str	r3, [sp, #8]
 4137 02cc CDF810E0 		str	lr, [sp, #16]
 4138 02d0 DDF818E0 		ldr	lr, [sp, #24]
 4139              	.LVL433:
 411:Drivers/lvgl/src/draw/sw/blend/lv_draw_sw_blend_to_i1.c ****                     for(dest_x = 0, src_x = 0; src_x < w; dest_x++, src_x++) {
 4140              		.loc 1 411 23 view .LVU1307
 4141 02d4 EEE7     		b	.L228
 4142              	.LVL434:
 4143              	.L275:
 4144              	.LBB608:
 4145              	.LBB609:
 4146              	.LBB610:
 4147              		.loc 1 1117 25 view .LVU1308
 4148 02d6 D31D     		adds	r3, r2, #7
 4149 02d8 13E0     		b	.L238
 4150              	.LVL435:
 4151              	.L276:
 4152              		.loc 1 1117 25 view .LVU1309
 4153              	.LBE610:
 4154              	.LBE609:
 4155              	.LBB612:
 4156              	.LBB613:
 4157 02da 03F1070E 		add	lr, r3, #7
 4158 02de 26E0     		b	.L239
 4159              	.LVL436:
 4160              	.L277:
 4161              		.loc 1 1117 25 view .LVU1310
 4162              	.LBE613:
ARM GAS  /tmp/cc9ag92L.s 			page 113


 4163              	.LBE612:
 441:Drivers/lvgl/src/draw/sw/blend/lv_draw_sw_blend_to_i1.c ****                         }
 4164              		.loc 1 441 29 is_stmt 1 view .LVU1311
 4165              	.LBB615:
 4166              	.LBI615:
1105:Drivers/lvgl/src/draw/sw/blend/lv_draw_sw_blend_to_i1.c **** {
 4167              		.loc 1 1105 42 view .LVU1312
 4168              	.LBB616:
1107:Drivers/lvgl/src/draw/sw/blend/lv_draw_sw_blend_to_i1.c **** }
 4169              		.loc 1 1107 5 view .LVU1313
1107:Drivers/lvgl/src/draw/sw/blend/lv_draw_sw_blend_to_i1.c **** }
 4170              		.loc 1 1107 28 is_stmt 0 view .LVU1314
 4171 02e0 0121     		movs	r1, #1
 4172 02e2 9940     		lsls	r1, r1, r3
1107:Drivers/lvgl/src/draw/sw/blend/lv_draw_sw_blend_to_i1.c **** }
 4173              		.loc 1 1107 22 view .LVU1315
 4174 02e4 48EA0101 		orr	r1, r8, r1
 4175 02e8 04F80E10 		strb	r1, [r4, lr]
 4176              	.LVL437:
 4177              	.L237:
1107:Drivers/lvgl/src/draw/sw/blend/lv_draw_sw_blend_to_i1.c **** }
 4178              		.loc 1 1107 22 view .LVU1316
 4179              	.LBE616:
 4180              	.LBE615:
 4181              	.LBE608:
 433:Drivers/lvgl/src/draw/sw/blend/lv_draw_sw_blend_to_i1.c ****                         uint8_t mask_val = mask_buf[src_x];
 4182              		.loc 1 433 67 is_stmt 1 discriminator 2 view .LVU1317
 433:Drivers/lvgl/src/draw/sw/blend/lv_draw_sw_blend_to_i1.c ****                         uint8_t mask_val = mask_buf[src_x];
 4183              		.loc 1 433 65 is_stmt 0 discriminator 2 view .LVU1318
 4184 02ec 09F10109 		add	r9, r9, #1
 4185              	.LVL438:
 433:Drivers/lvgl/src/draw/sw/blend/lv_draw_sw_blend_to_i1.c ****                         uint8_t mask_val = mask_buf[src_x];
 4186              		.loc 1 433 74 discriminator 2 view .LVU1319
 4187 02f0 0132     		adds	r2, r2, #1
 4188              	.LVL439:
 4189              	.L242:
 433:Drivers/lvgl/src/draw/sw/blend/lv_draw_sw_blend_to_i1.c ****                         uint8_t mask_val = mask_buf[src_x];
 4190              		.loc 1 433 54 is_stmt 1 discriminator 1 view .LVU1320
 4191 02f2 BA42     		cmp	r2, r7
 4192 02f4 49DA     		bge	.L274
 4193              	.LBB621:
 434:Drivers/lvgl/src/draw/sw/blend/lv_draw_sw_blend_to_i1.c ****                         if(mask_val == LV_OPA_TRANSP) continue;
 4194              		.loc 1 434 25 view .LVU1321
 434:Drivers/lvgl/src/draw/sw/blend/lv_draw_sw_blend_to_i1.c ****                         if(mask_val == LV_OPA_TRANSP) continue;
 4195              		.loc 1 434 33 is_stmt 0 view .LVU1322
 4196 02f6 B05C     		ldrb	r0, [r6, r2]	@ zero_extendqisi2
 4197              	.LVL440:
 435:Drivers/lvgl/src/draw/sw/blend/lv_draw_sw_blend_to_i1.c ****                         uint8_t src = get_bit(src_buf_i1, src_x);
 4198              		.loc 1 435 25 is_stmt 1 view .LVU1323
 435:Drivers/lvgl/src/draw/sw/blend/lv_draw_sw_blend_to_i1.c ****                         uint8_t src = get_bit(src_buf_i1, src_x);
 4199              		.loc 1 435 27 is_stmt 0 view .LVU1324
 4200 02f8 0028     		cmp	r0, #0
 4201 02fa F7D0     		beq	.L237
 436:Drivers/lvgl/src/draw/sw/blend/lv_draw_sw_blend_to_i1.c ****                         uint8_t dest = get_bit(dest_buf_i1, dest_x + bit_ofs);
 4202              		.loc 1 436 25 is_stmt 1 view .LVU1325
 4203              	.LVL441:
 4204              	.LBB617:
ARM GAS  /tmp/cc9ag92L.s 			page 114


 4205              	.LBI609:
1115:Drivers/lvgl/src/draw/sw/blend/lv_draw_sw_blend_to_i1.c **** {
 4206              		.loc 1 1115 45 view .LVU1326
 4207              	.LBB611:
 4208              		.loc 1 1117 5 view .LVU1327
 4209              		.loc 1 1117 25 is_stmt 0 view .LVU1328
 4210 02fc 1346     		mov	r3, r2
 4211 02fe 002A     		cmp	r2, #0
 4212 0300 E9DB     		blt	.L275
 4213              	.L238:
 4214              		.loc 1 1117 25 view .LVU1329
 4215 0302 DB10     		asrs	r3, r3, #3
 4216              		.loc 1 1117 16 view .LVU1330
 4217 0304 0199     		ldr	r1, [sp, #4]
 4218 0306 C95C     		ldrb	r1, [r1, r3]	@ zero_extendqisi2
 4219              		.loc 1 1117 47 view .LVU1331
 4220 0308 D2F1000C 		rsbs	ip, r2, #0
 4221 030c 02F00703 		and	r3, r2, #7
 4222 0310 0CF0070C 		and	ip, ip, #7
 4223 0314 58BF     		it	pl
 4224 0316 CCF10003 		rsbpl	r3, ip, #0
 4225              		.loc 1 1117 36 view .LVU1332
 4226 031a C3F10703 		rsb	r3, r3, #7
 4227              		.loc 1 1117 30 view .LVU1333
 4228 031e 1941     		asrs	r1, r1, r3
 4229              		.loc 1 1117 54 view .LVU1334
 4230 0320 01F00101 		and	r1, r1, #1
 4231              	.LVL442:
 4232              		.loc 1 1117 54 view .LVU1335
 4233              	.LBE611:
 4234              	.LBE617:
 437:Drivers/lvgl/src/draw/sw/blend/lv_draw_sw_blend_to_i1.c ****                         uint8_t blend_opa = LV_OPA_MIX2(mask_val, opa);
 4235              		.loc 1 437 25 is_stmt 1 view .LVU1336
 437:Drivers/lvgl/src/draw/sw/blend/lv_draw_sw_blend_to_i1.c ****                         uint8_t blend_opa = LV_OPA_MIX2(mask_val, opa);
 4236              		.loc 1 437 40 is_stmt 0 view .LVU1337
 4237 0324 09EB0B03 		add	r3, r9, fp
 4238              	.LVL443:
 4239              	.LBB618:
 4240              	.LBI612:
1115:Drivers/lvgl/src/draw/sw/blend/lv_draw_sw_blend_to_i1.c **** {
 4241              		.loc 1 1115 45 is_stmt 1 view .LVU1338
 4242              	.LBB614:
 4243              		.loc 1 1117 5 view .LVU1339
 4244              		.loc 1 1117 25 is_stmt 0 view .LVU1340
 4245 0328 9E46     		mov	lr, r3
 4246 032a 002B     		cmp	r3, #0
 4247 032c D5DB     		blt	.L276
 4248              	.L239:
 4249              		.loc 1 1117 25 view .LVU1341
 4250 032e 4FEAEE0E 		asr	lr, lr, #3
 4251              		.loc 1 1117 16 view .LVU1342
 4252 0332 14F80E80 		ldrb	r8, [r4, lr]	@ zero_extendqisi2
 4253              		.loc 1 1117 47 view .LVU1343
 4254 0336 D3F1000C 		rsbs	ip, r3, #0
 4255 033a 03F00703 		and	r3, r3, #7
 4256              	.LVL444:
 4257              		.loc 1 1117 47 view .LVU1344
ARM GAS  /tmp/cc9ag92L.s 			page 115


 4258 033e 0CF0070C 		and	ip, ip, #7
 4259 0342 58BF     		it	pl
 4260 0344 CCF10003 		rsbpl	r3, ip, #0
 4261              		.loc 1 1117 36 view .LVU1345
 4262 0348 C3F10703 		rsb	r3, r3, #7
 4263              		.loc 1 1117 30 view .LVU1346
 4264 034c 48FA03FA 		asr	r10, r8, r3
 4265              	.LVL445:
 4266              		.loc 1 1117 30 view .LVU1347
 4267              	.LBE614:
 4268              	.LBE618:
 438:Drivers/lvgl/src/draw/sw/blend/lv_draw_sw_blend_to_i1.c ****                         uint8_t blended = (src * blend_opa + dest * (255 - blend_opa));
 4269              		.loc 1 438 25 is_stmt 1 view .LVU1348
 438:Drivers/lvgl/src/draw/sw/blend/lv_draw_sw_blend_to_i1.c ****                         uint8_t blended = (src * blend_opa + dest * (255 - blend_opa));
 4270              		.loc 1 438 45 is_stmt 0 view .LVU1349
 4271 0350 029D     		ldr	r5, [sp, #8]
 4272 0352 00FB05FC 		mul	ip, r0, r5
 438:Drivers/lvgl/src/draw/sw/blend/lv_draw_sw_blend_to_i1.c ****                         uint8_t blended = (src * blend_opa + dest * (255 - blend_opa));
 4273              		.loc 1 438 33 view .LVU1350
 4274 0356 4FEA1C20 		lsr	r0, ip, #8
 4275              	.LVL446:
 439:Drivers/lvgl/src/draw/sw/blend/lv_draw_sw_blend_to_i1.c ****                         if(blended > I1_LUM_THRESHOLD) {
 4276              		.loc 1 439 25 is_stmt 1 view .LVU1351
 439:Drivers/lvgl/src/draw/sw/blend/lv_draw_sw_blend_to_i1.c ****                         if(blended > I1_LUM_THRESHOLD) {
 4277              		.loc 1 439 48 is_stmt 0 view .LVU1352
 4278 035a 4942     		rsbs	r1, r1, #0
 4279              	.LVL447:
 439:Drivers/lvgl/src/draw/sw/blend/lv_draw_sw_blend_to_i1.c ****                         if(blended > I1_LUM_THRESHOLD) {
 4280              		.loc 1 439 48 view .LVU1353
 4281 035c 01EA1C21 		and	r1, r1, ip, lsr #8
 4282              	.LVL448:
 439:Drivers/lvgl/src/draw/sw/blend/lv_draw_sw_blend_to_i1.c ****                         if(blended > I1_LUM_THRESHOLD) {
 4283              		.loc 1 439 74 view .LVU1354
 4284 0360 C0F1FF00 		rsb	r0, r0, #255
 4285              	.LVL449:
 439:Drivers/lvgl/src/draw/sw/blend/lv_draw_sw_blend_to_i1.c ****                         if(blended > I1_LUM_THRESHOLD) {
 4286              		.loc 1 439 60 view .LVU1355
 4287 0364 4AF3000A 		sbfx	r10, r10, #0, #1
 4288              	.LVL450:
 439:Drivers/lvgl/src/draw/sw/blend/lv_draw_sw_blend_to_i1.c ****                         if(blended > I1_LUM_THRESHOLD) {
 4289              		.loc 1 439 60 view .LVU1356
 4290 0368 00EA0A00 		and	r0, r0, r10
 439:Drivers/lvgl/src/draw/sw/blend/lv_draw_sw_blend_to_i1.c ****                         if(blended > I1_LUM_THRESHOLD) {
 4291              		.loc 1 439 33 view .LVU1357
 4292 036c 51FA80F0 		uxtab	r0, r1, r0
 4293              	.LVL451:
 440:Drivers/lvgl/src/draw/sw/blend/lv_draw_sw_blend_to_i1.c ****                             set_bit(dest_buf_i1, dest_x + bit_ofs);
 4294              		.loc 1 440 25 is_stmt 1 view .LVU1358
 440:Drivers/lvgl/src/draw/sw/blend/lv_draw_sw_blend_to_i1.c ****                             set_bit(dest_buf_i1, dest_x + bit_ofs);
 4295              		.loc 1 440 27 is_stmt 0 view .LVU1359
 4296 0370 10F0800F 		tst	r0, #128
 4297 0374 B4D1     		bne	.L277
 444:Drivers/lvgl/src/draw/sw/blend/lv_draw_sw_blend_to_i1.c ****                         }
 4298              		.loc 1 444 29 is_stmt 1 view .LVU1360
 4299              	.LVL452:
 4300              	.LBB619:
 4301              	.LBI619:
ARM GAS  /tmp/cc9ag92L.s 			page 116


1110:Drivers/lvgl/src/draw/sw/blend/lv_draw_sw_blend_to_i1.c **** {
 4302              		.loc 1 1110 42 view .LVU1361
 4303              	.LBB620:
1112:Drivers/lvgl/src/draw/sw/blend/lv_draw_sw_blend_to_i1.c **** }
 4304              		.loc 1 1112 5 view .LVU1362
1112:Drivers/lvgl/src/draw/sw/blend/lv_draw_sw_blend_to_i1.c **** }
 4305              		.loc 1 1112 29 is_stmt 0 view .LVU1363
 4306 0376 0121     		movs	r1, #1
 4307 0378 01FA03F3 		lsl	r3, r1, r3
 4308              	.LVL453:
1112:Drivers/lvgl/src/draw/sw/blend/lv_draw_sw_blend_to_i1.c **** }
 4309              		.loc 1 1112 22 view .LVU1364
 4310 037c DB43     		mvns	r3, r3
 4311 037e 5BB2     		sxtb	r3, r3
 4312 0380 08EA0308 		and	r8, r8, r3
 4313              	.LVL454:
1112:Drivers/lvgl/src/draw/sw/blend/lv_draw_sw_blend_to_i1.c **** }
 4314              		.loc 1 1112 22 view .LVU1365
 4315 0384 04F80E80 		strb	r8, [r4, lr]
 4316              	.LVL455:
1113:Drivers/lvgl/src/draw/sw/blend/lv_draw_sw_blend_to_i1.c **** 
 4317              		.loc 1 1113 1 view .LVU1366
 4318 0388 B0E7     		b	.L237
 4319              	.LVL456:
 4320              	.L274:
1113:Drivers/lvgl/src/draw/sw/blend/lv_draw_sw_blend_to_i1.c **** 
 4321              		.loc 1 1113 1 view .LVU1367
 4322              	.LBE620:
 4323              	.LBE619:
 4324              	.LBE621:
 4325              	.LBB622:
 4326              	.LBB623:
1102:Drivers/lvgl/src/draw/sw/blend/lv_draw_sw_blend_to_i1.c **** }
 4327              		.loc 1 1102 12 view .LVU1368
 4328 038a 019D     		ldr	r5, [sp, #4]
 4329 038c 049B     		ldr	r3, [sp, #16]
 4330              	.LBE623:
 4331              	.LBE622:
 447:Drivers/lvgl/src/draw/sw/blend/lv_draw_sw_blend_to_i1.c ****                     src_buf_i1 = drawbuf_next_row(src_buf_i1, src_stride);
 4332              		.loc 1 447 21 is_stmt 1 view .LVU1369
 4333              	.LVL457:
 4334              	.LBB625:
 4335              	.LBI622:
1100:Drivers/lvgl/src/draw/sw/blend/lv_draw_sw_blend_to_i1.c **** {
 4336              		.loc 1 1100 44 view .LVU1370
 4337              	.LBB624:
1102:Drivers/lvgl/src/draw/sw/blend/lv_draw_sw_blend_to_i1.c **** }
 4338              		.loc 1 1102 5 view .LVU1371
1102:Drivers/lvgl/src/draw/sw/blend/lv_draw_sw_blend_to_i1.c **** }
 4339              		.loc 1 1102 12 is_stmt 0 view .LVU1372
 4340 038e 059A     		ldr	r2, [sp, #20]
 4341              	.LVL458:
1102:Drivers/lvgl/src/draw/sw/blend/lv_draw_sw_blend_to_i1.c **** }
 4342              		.loc 1 1102 12 view .LVU1373
 4343 0390 1444     		add	r4, r4, r2
 4344              	.LVL459:
1102:Drivers/lvgl/src/draw/sw/blend/lv_draw_sw_blend_to_i1.c **** }
ARM GAS  /tmp/cc9ag92L.s 			page 117


 4345              		.loc 1 1102 12 view .LVU1374
 4346              	.LBE624:
 4347              	.LBE625:
 448:Drivers/lvgl/src/draw/sw/blend/lv_draw_sw_blend_to_i1.c ****                     mask_buf += mask_stride;
 4348              		.loc 1 448 21 is_stmt 1 view .LVU1375
 4349              	.LBB626:
 4350              	.LBI626:
1100:Drivers/lvgl/src/draw/sw/blend/lv_draw_sw_blend_to_i1.c **** {
 4351              		.loc 1 1100 44 view .LVU1376
 4352              	.LBB627:
1102:Drivers/lvgl/src/draw/sw/blend/lv_draw_sw_blend_to_i1.c **** }
 4353              		.loc 1 1102 5 view .LVU1377
1102:Drivers/lvgl/src/draw/sw/blend/lv_draw_sw_blend_to_i1.c **** }
 4354              		.loc 1 1102 12 is_stmt 0 view .LVU1378
 4355 0392 079A     		ldr	r2, [sp, #28]
 4356 0394 1544     		add	r5, r5, r2
 4357              	.LVL460:
1102:Drivers/lvgl/src/draw/sw/blend/lv_draw_sw_blend_to_i1.c **** }
 4358              		.loc 1 1102 12 view .LVU1379
 4359              	.LBE627:
 4360              	.LBE626:
 449:Drivers/lvgl/src/draw/sw/blend/lv_draw_sw_blend_to_i1.c ****                 }
 4361              		.loc 1 449 21 is_stmt 1 view .LVU1380
 449:Drivers/lvgl/src/draw/sw/blend/lv_draw_sw_blend_to_i1.c ****                 }
 4362              		.loc 1 449 30 is_stmt 0 view .LVU1381
 4363 0396 069A     		ldr	r2, [sp, #24]
 4364 0398 1644     		add	r6, r6, r2
 4365              	.LVL461:
 432:Drivers/lvgl/src/draw/sw/blend/lv_draw_sw_blend_to_i1.c ****                     for(dest_x = 0, src_x = 0; src_x < w; dest_x++, src_x++) {
 4366              		.loc 1 432 36 is_stmt 1 discriminator 2 view .LVU1382
 4367 039a 0133     		adds	r3, r3, #1
 4368              	.LVL462:
 4369              	.L236:
 432:Drivers/lvgl/src/draw/sw/blend/lv_draw_sw_blend_to_i1.c ****                     for(dest_x = 0, src_x = 0; src_x < w; dest_x++, src_x++) {
 4370              		.loc 1 432 30 discriminator 1 view .LVU1383
 4371 039c 039A     		ldr	r2, [sp, #12]
 4372 039e 9342     		cmp	r3, r2
 4373 03a0 BFF667AE 		bge	.L208
 433:Drivers/lvgl/src/draw/sw/blend/lv_draw_sw_blend_to_i1.c ****                         uint8_t mask_val = mask_buf[src_x];
 4374              		.loc 1 433 43 is_stmt 0 view .LVU1384
 4375 03a4 0022     		movs	r2, #0
 433:Drivers/lvgl/src/draw/sw/blend/lv_draw_sw_blend_to_i1.c ****                         uint8_t mask_val = mask_buf[src_x];
 4376              		.loc 1 433 32 view .LVU1385
 4377 03a6 9146     		mov	r9, r2
 4378 03a8 0195     		str	r5, [sp, #4]
 4379 03aa 0493     		str	r3, [sp, #16]
 4380 03ac A1E7     		b	.L242
 4381              	.LVL463:
 4382              	.L256:
 432:Drivers/lvgl/src/draw/sw/blend/lv_draw_sw_blend_to_i1.c ****                     for(dest_x = 0, src_x = 0; src_x < w; dest_x++, src_x++) {
 4383              		.loc 1 432 23 view .LVU1386
 4384 03ae 0021     		movs	r1, #0
 4385 03b0 CDF80880 		str	r8, [sp, #8]
 4386 03b4 0593     		str	r3, [sp, #20]
 4387 03b6 0B46     		mov	r3, r1
 4388              	.LVL464:
 432:Drivers/lvgl/src/draw/sw/blend/lv_draw_sw_blend_to_i1.c ****                     for(dest_x = 0, src_x = 0; src_x < w; dest_x++, src_x++) {
ARM GAS  /tmp/cc9ag92L.s 			page 118


 4389              		.loc 1 432 23 view .LVU1387
 4390 03b8 CDF81CE0 		str	lr, [sp, #28]
 4391 03bc EEE7     		b	.L236
 4392              	.LVL465:
 4393              	.L243:
 4394              	.LBB628:
 4395              	.LBB629:
 4396              	.LBB630:
 4397              		.loc 1 1117 25 view .LVU1388
 4398 03be DB10     		asrs	r3, r3, #3
 4399              		.loc 1 1117 16 view .LVU1389
 4400 03c0 E35C     		ldrb	r3, [r4, r3]	@ zero_extendqisi2
 4401              		.loc 1 1117 47 view .LVU1390
 4402 03c2 D9F10001 		rsbs	r1, r9, #0
 4403 03c6 09F00702 		and	r2, r9, #7
 4404 03ca 01F00701 		and	r1, r1, #7
 4405 03ce 58BF     		it	pl
 4406 03d0 4A42     		rsbpl	r2, r1, #0
 4407              		.loc 1 1117 36 view .LVU1391
 4408 03d2 C2F10702 		rsb	r2, r2, #7
 4409              		.loc 1 1117 30 view .LVU1392
 4410 03d6 1341     		asrs	r3, r3, r2
 4411              	.LVL466:
 4412              		.loc 1 1117 30 view .LVU1393
 4413              	.LBE630:
 4414              	.LBE629:
 458:Drivers/lvgl/src/draw/sw/blend/lv_draw_sw_blend_to_i1.c ****                 src_argb.green = src_argb.red;
 4415              		.loc 1 458 30 discriminator 1 view .LVU1394
 4416 03d8 43F30003 		sbfx	r3, r3, #0, #1
 4417 03dc DBB2     		uxtb	r3, r3
 4418 03de 8DF82630 		strb	r3, [sp, #38]
 459:Drivers/lvgl/src/draw/sw/blend/lv_draw_sw_blend_to_i1.c ****                 src_argb.blue = src_argb.red;
 4419              		.loc 1 459 17 is_stmt 1 view .LVU1395
 459:Drivers/lvgl/src/draw/sw/blend/lv_draw_sw_blend_to_i1.c ****                 src_argb.blue = src_argb.red;
 4420              		.loc 1 459 32 is_stmt 0 view .LVU1396
 4421 03e2 8DF82530 		strb	r3, [sp, #37]
 460:Drivers/lvgl/src/draw/sw/blend/lv_draw_sw_blend_to_i1.c ****                 if(mask_buf == NULL) src_argb.alpha = opa;
 4422              		.loc 1 460 17 is_stmt 1 view .LVU1397
 460:Drivers/lvgl/src/draw/sw/blend/lv_draw_sw_blend_to_i1.c ****                 if(mask_buf == NULL) src_argb.alpha = opa;
 4423              		.loc 1 460 31 is_stmt 0 view .LVU1398
 4424 03e6 8DF82430 		strb	r3, [sp, #36]
 461:Drivers/lvgl/src/draw/sw/blend/lv_draw_sw_blend_to_i1.c ****                 else src_argb.alpha = LV_OPA_MIX2(mask_buf[dest_x], opa);
 4425              		.loc 1 461 17 is_stmt 1 view .LVU1399
 461:Drivers/lvgl/src/draw/sw/blend/lv_draw_sw_blend_to_i1.c ****                 else src_argb.alpha = LV_OPA_MIX2(mask_buf[dest_x], opa);
 4426              		.loc 1 461 19 is_stmt 0 view .LVU1400
 4427 03ea E6B1     		cbz	r6, .L278
 462:Drivers/lvgl/src/draw/sw/blend/lv_draw_sw_blend_to_i1.c ****                 blend_non_normal_pixel(dest_buf_i1, dest_x + bit_ofs, src_argb, dsc->blend_mode);
 4428              		.loc 1 462 22 is_stmt 1 view .LVU1401
 462:Drivers/lvgl/src/draw/sw/blend/lv_draw_sw_blend_to_i1.c ****                 blend_non_normal_pixel(dest_buf_i1, dest_x + bit_ofs, src_argb, dsc->blend_mode);
 4429              		.loc 1 462 39 is_stmt 0 view .LVU1402
 4430 03ec 16F80A30 		ldrb	r3, [r6, r10]	@ zero_extendqisi2
 4431 03f0 03FB08F3 		mul	r3, r3, r8
 4432 03f4 1B0A     		lsrs	r3, r3, #8
 462:Drivers/lvgl/src/draw/sw/blend/lv_draw_sw_blend_to_i1.c ****                 blend_non_normal_pixel(dest_buf_i1, dest_x + bit_ofs, src_argb, dsc->blend_mode);
 4433              		.loc 1 462 37 view .LVU1403
 4434 03f6 8DF82730 		strb	r3, [sp, #39]
 4435              	.L245:
ARM GAS  /tmp/cc9ag92L.s 			page 119


 463:Drivers/lvgl/src/draw/sw/blend/lv_draw_sw_blend_to_i1.c ****             }
 4436              		.loc 1 463 17 is_stmt 1 view .LVU1404
 4437 03fa 019B     		ldr	r3, [sp, #4]
 4438 03fc 93F82230 		ldrb	r3, [r3, #34]	@ zero_extendqisi2
 4439 0400 099A     		ldr	r2, [sp, #36]
 4440 0402 0AEB0B01 		add	r1, r10, fp
 4441 0406 2846     		mov	r0, r5
 4442 0408 FFF7FEFF 		bl	blend_non_normal_pixel
 4443              	.LVL467:
 457:Drivers/lvgl/src/draw/sw/blend/lv_draw_sw_blend_to_i1.c ****                 src_argb.red = get_bit(src_buf_i1, src_x) * 255;
 4444              		.loc 1 457 59 discriminator 2 view .LVU1405
 457:Drivers/lvgl/src/draw/sw/blend/lv_draw_sw_blend_to_i1.c ****                 src_argb.red = get_bit(src_buf_i1, src_x) * 255;
 4445              		.loc 1 457 57 is_stmt 0 discriminator 2 view .LVU1406
 4446 040c 0AF1010A 		add	r10, r10, #1
 4447              	.LVL468:
 457:Drivers/lvgl/src/draw/sw/blend/lv_draw_sw_blend_to_i1.c ****                 src_argb.red = get_bit(src_buf_i1, src_x) * 255;
 4448              		.loc 1 457 66 discriminator 2 view .LVU1407
 4449 0410 09F10109 		add	r9, r9, #1
 4450              	.LVL469:
 4451              	.L248:
 457:Drivers/lvgl/src/draw/sw/blend/lv_draw_sw_blend_to_i1.c ****                 src_argb.red = get_bit(src_buf_i1, src_x) * 255;
 4452              		.loc 1 457 46 is_stmt 1 discriminator 1 view .LVU1408
 4453 0414 B945     		cmp	r9, r7
 4454 0416 09DA     		bge	.L279
 458:Drivers/lvgl/src/draw/sw/blend/lv_draw_sw_blend_to_i1.c ****                 src_argb.green = src_argb.red;
 4455              		.loc 1 458 17 view .LVU1409
 4456              	.LVL470:
 4457              	.LBB632:
 4458              	.LBI629:
1115:Drivers/lvgl/src/draw/sw/blend/lv_draw_sw_blend_to_i1.c **** {
 4459              		.loc 1 1115 45 view .LVU1410
 4460              	.LBB631:
 4461              		.loc 1 1117 5 view .LVU1411
 4462              		.loc 1 1117 25 is_stmt 0 view .LVU1412
 4463 0418 4B46     		mov	r3, r9
 4464 041a B9F1000F 		cmp	r9, #0
 4465 041e CEDA     		bge	.L243
 4466              		.loc 1 1117 25 view .LVU1413
 4467 0420 09F10703 		add	r3, r9, #7
 4468 0424 CBE7     		b	.L243
 4469              	.LVL471:
 4470              	.L278:
 4471              		.loc 1 1117 25 view .LVU1414
 4472              	.LBE631:
 4473              	.LBE632:
 461:Drivers/lvgl/src/draw/sw/blend/lv_draw_sw_blend_to_i1.c ****                 else src_argb.alpha = LV_OPA_MIX2(mask_buf[dest_x], opa);
 4474              		.loc 1 461 38 is_stmt 1 discriminator 1 view .LVU1415
 461:Drivers/lvgl/src/draw/sw/blend/lv_draw_sw_blend_to_i1.c ****                 else src_argb.alpha = LV_OPA_MIX2(mask_buf[dest_x], opa);
 4475              		.loc 1 461 53 is_stmt 0 discriminator 1 view .LVU1416
 4476 0426 8DF82780 		strb	r8, [sp, #39]
 4477 042a E6E7     		b	.L245
 4478              	.L279:
 465:Drivers/lvgl/src/draw/sw/blend/lv_draw_sw_blend_to_i1.c ****             dest_buf_i1 = drawbuf_next_row(dest_buf_i1, dest_stride);
 4479              		.loc 1 465 15 view .LVU1417
 4480 042c DDF808C0 		ldr	ip, [sp, #8]
 465:Drivers/lvgl/src/draw/sw/blend/lv_draw_sw_blend_to_i1.c ****             dest_buf_i1 = drawbuf_next_row(dest_buf_i1, dest_stride);
 4481              		.loc 1 465 13 is_stmt 1 view .LVU1418
ARM GAS  /tmp/cc9ag92L.s 			page 120


 465:Drivers/lvgl/src/draw/sw/blend/lv_draw_sw_blend_to_i1.c ****             dest_buf_i1 = drawbuf_next_row(dest_buf_i1, dest_stride);
 4482              		.loc 1 465 15 is_stmt 0 view .LVU1419
 4483 0430 0EB1     		cbz	r6, .L247
 465:Drivers/lvgl/src/draw/sw/blend/lv_draw_sw_blend_to_i1.c ****             dest_buf_i1 = drawbuf_next_row(dest_buf_i1, dest_stride);
 4484              		.loc 1 465 26 is_stmt 1 discriminator 1 view .LVU1420
 465:Drivers/lvgl/src/draw/sw/blend/lv_draw_sw_blend_to_i1.c ****             dest_buf_i1 = drawbuf_next_row(dest_buf_i1, dest_stride);
 4485              		.loc 1 465 35 is_stmt 0 discriminator 1 view .LVU1421
 4486 0432 069B     		ldr	r3, [sp, #24]
 4487 0434 1E44     		add	r6, r6, r3
 4488              	.LVL472:
 4489              	.L247:
 466:Drivers/lvgl/src/draw/sw/blend/lv_draw_sw_blend_to_i1.c ****             src_buf_i1 = drawbuf_next_row(src_buf_i1, src_stride);
 4490              		.loc 1 466 13 is_stmt 1 view .LVU1422
 4491              	.LBB633:
 4492              	.LBI633:
1100:Drivers/lvgl/src/draw/sw/blend/lv_draw_sw_blend_to_i1.c **** {
 4493              		.loc 1 1100 44 view .LVU1423
 4494              	.LBB634:
1102:Drivers/lvgl/src/draw/sw/blend/lv_draw_sw_blend_to_i1.c **** }
 4495              		.loc 1 1102 5 view .LVU1424
1102:Drivers/lvgl/src/draw/sw/blend/lv_draw_sw_blend_to_i1.c **** }
 4496              		.loc 1 1102 12 is_stmt 0 view .LVU1425
 4497 0436 049B     		ldr	r3, [sp, #16]
 4498 0438 1D44     		add	r5, r5, r3
 4499              	.LVL473:
1102:Drivers/lvgl/src/draw/sw/blend/lv_draw_sw_blend_to_i1.c **** }
 4500              		.loc 1 1102 12 view .LVU1426
 4501              	.LBE634:
 4502              	.LBE633:
 467:Drivers/lvgl/src/draw/sw/blend/lv_draw_sw_blend_to_i1.c ****         }
 4503              		.loc 1 467 13 is_stmt 1 view .LVU1427
 4504              	.LBB635:
 4505              	.LBI635:
1100:Drivers/lvgl/src/draw/sw/blend/lv_draw_sw_blend_to_i1.c **** {
 4506              		.loc 1 1100 44 view .LVU1428
 4507              	.LBB636:
1102:Drivers/lvgl/src/draw/sw/blend/lv_draw_sw_blend_to_i1.c **** }
 4508              		.loc 1 1102 5 view .LVU1429
1102:Drivers/lvgl/src/draw/sw/blend/lv_draw_sw_blend_to_i1.c **** }
 4509              		.loc 1 1102 12 is_stmt 0 view .LVU1430
 4510 043a 059B     		ldr	r3, [sp, #20]
 4511 043c 1C44     		add	r4, r4, r3
 4512              	.LVL474:
1102:Drivers/lvgl/src/draw/sw/blend/lv_draw_sw_blend_to_i1.c **** }
 4513              		.loc 1 1102 12 view .LVU1431
 4514              	.LBE636:
 4515              	.LBE635:
 456:Drivers/lvgl/src/draw/sw/blend/lv_draw_sw_blend_to_i1.c ****             for(dest_x = 0, src_x = 0; src_x < w; dest_x++, src_x++) {
 4516              		.loc 1 456 28 is_stmt 1 discriminator 2 view .LVU1432
 4517 043e 0CF1010C 		add	ip, ip, #1
 4518              	.LVL475:
 4519              	.L209:
 456:Drivers/lvgl/src/draw/sw/blend/lv_draw_sw_blend_to_i1.c ****             for(dest_x = 0, src_x = 0; src_x < w; dest_x++, src_x++) {
 4520              		.loc 1 456 22 discriminator 1 view .LVU1433
 4521 0442 039B     		ldr	r3, [sp, #12]
 4522 0444 9C45     		cmp	ip, r3
 4523 0446 BFF614AE 		bge	.L208
ARM GAS  /tmp/cc9ag92L.s 			page 121


 457:Drivers/lvgl/src/draw/sw/blend/lv_draw_sw_blend_to_i1.c ****                 src_argb.red = get_bit(src_buf_i1, src_x) * 255;
 4524              		.loc 1 457 35 is_stmt 0 view .LVU1434
 4525 044a 4FF00009 		mov	r9, #0
 457:Drivers/lvgl/src/draw/sw/blend/lv_draw_sw_blend_to_i1.c ****                 src_argb.red = get_bit(src_buf_i1, src_x) * 255;
 4526              		.loc 1 457 24 view .LVU1435
 4527 044e CA46     		mov	r10, r9
 4528 0450 CDF808C0 		str	ip, [sp, #8]
 4529 0454 DEE7     		b	.L248
 4530              	.LVL476:
 4531              	.L249:
 456:Drivers/lvgl/src/draw/sw/blend/lv_draw_sw_blend_to_i1.c ****             for(dest_x = 0, src_x = 0; src_x < w; dest_x++, src_x++) {
 4532              		.loc 1 456 15 view .LVU1436
 4533 0456 4FF0000C 		mov	ip, #0
 4534 045a 2A46     		mov	r2, r5
 4535 045c 2546     		mov	r5, r4
 4536              	.LVL477:
 456:Drivers/lvgl/src/draw/sw/blend/lv_draw_sw_blend_to_i1.c ****             for(dest_x = 0, src_x = 0; src_x < w; dest_x++, src_x++) {
 4537              		.loc 1 456 15 view .LVU1437
 4538 045e 0493     		str	r3, [sp, #16]
 4539 0460 CDF814E0 		str	lr, [sp, #20]
 4540 0464 0190     		str	r0, [sp, #4]
 4541 0466 1446     		mov	r4, r2
 4542              	.LVL478:
 456:Drivers/lvgl/src/draw/sw/blend/lv_draw_sw_blend_to_i1.c ****             for(dest_x = 0, src_x = 0; src_x < w; dest_x++, src_x++) {
 4543              		.loc 1 456 15 view .LVU1438
 4544 0468 EBE7     		b	.L209
 4545              	.LBE628:
 4546              		.cfi_endproc
 4547              	.LFE188:
 4549              		.section	.text.argb8888_image_blend,"ax",%progbits
 4550              		.align	1
 4551              		.syntax unified
 4552              		.thumb
 4553              		.thumb_func
 4555              	argb8888_image_blend:
 4556              	.LVL479:
 4557              	.LFB191:
 701:Drivers/lvgl/src/draw/sw/blend/lv_draw_sw_blend_to_i1.c ****     int32_t w = dsc->dest_w;
 4558              		.loc 1 701 1 is_stmt 1 view -0
 4559              		.cfi_startproc
 4560              		@ args = 0, pretend = 0, frame = 40
 4561              		@ frame_needed = 0, uses_anonymous_args = 0
 701:Drivers/lvgl/src/draw/sw/blend/lv_draw_sw_blend_to_i1.c ****     int32_t w = dsc->dest_w;
 4562              		.loc 1 701 1 is_stmt 0 view .LVU1440
 4563 0000 2DE9F04F 		push	{r4, r5, r6, r7, r8, r9, r10, fp, lr}
 4564              	.LCFI20:
 4565              		.cfi_def_cfa_offset 36
 4566              		.cfi_offset 4, -36
 4567              		.cfi_offset 5, -32
 4568              		.cfi_offset 6, -28
 4569              		.cfi_offset 7, -24
 4570              		.cfi_offset 8, -20
 4571              		.cfi_offset 9, -16
 4572              		.cfi_offset 10, -12
 4573              		.cfi_offset 11, -8
 4574              		.cfi_offset 14, -4
 4575 0004 8BB0     		sub	sp, sp, #44
ARM GAS  /tmp/cc9ag92L.s 			page 122


 4576              	.LCFI21:
 4577              		.cfi_def_cfa_offset 80
 702:Drivers/lvgl/src/draw/sw/blend/lv_draw_sw_blend_to_i1.c ****     int32_t h = dsc->dest_h;
 4578              		.loc 1 702 5 is_stmt 1 view .LVU1441
 702:Drivers/lvgl/src/draw/sw/blend/lv_draw_sw_blend_to_i1.c ****     int32_t h = dsc->dest_h;
 4579              		.loc 1 702 13 is_stmt 0 view .LVU1442
 4580 0006 D0F80490 		ldr	r9, [r0, #4]
 4581              	.LVL480:
 703:Drivers/lvgl/src/draw/sw/blend/lv_draw_sw_blend_to_i1.c ****     lv_opa_t opa = dsc->opa;
 4582              		.loc 1 703 5 is_stmt 1 view .LVU1443
 703:Drivers/lvgl/src/draw/sw/blend/lv_draw_sw_blend_to_i1.c ****     lv_opa_t opa = dsc->opa;
 4583              		.loc 1 703 13 is_stmt 0 view .LVU1444
 4584 000a 8368     		ldr	r3, [r0, #8]
 4585 000c 0093     		str	r3, [sp]
 4586              	.LVL481:
 704:Drivers/lvgl/src/draw/sw/blend/lv_draw_sw_blend_to_i1.c ****     uint8_t * dest_buf_i1 = dsc->dest_buf;
 4587              		.loc 1 704 5 is_stmt 1 view .LVU1445
 704:Drivers/lvgl/src/draw/sw/blend/lv_draw_sw_blend_to_i1.c ****     uint8_t * dest_buf_i1 = dsc->dest_buf;
 4588              		.loc 1 704 14 is_stmt 0 view .LVU1446
 4589 000e 90F821A0 		ldrb	r10, [r0, #33]	@ zero_extendqisi2
 4590              	.LVL482:
 705:Drivers/lvgl/src/draw/sw/blend/lv_draw_sw_blend_to_i1.c ****     int32_t dest_stride = dsc->dest_stride;
 4591              		.loc 1 705 5 is_stmt 1 view .LVU1447
 705:Drivers/lvgl/src/draw/sw/blend/lv_draw_sw_blend_to_i1.c ****     int32_t dest_stride = dsc->dest_stride;
 4592              		.loc 1 705 15 is_stmt 0 view .LVU1448
 4593 0012 0568     		ldr	r5, [r0]
 4594              	.LVL483:
 706:Drivers/lvgl/src/draw/sw/blend/lv_draw_sw_blend_to_i1.c ****     const lv_color32_t * src_buf_c32 = dsc->src_buf;
 4595              		.loc 1 706 5 is_stmt 1 view .LVU1449
 706:Drivers/lvgl/src/draw/sw/blend/lv_draw_sw_blend_to_i1.c ****     const lv_color32_t * src_buf_c32 = dsc->src_buf;
 4596              		.loc 1 706 13 is_stmt 0 view .LVU1450
 4597 0014 C368     		ldr	r3, [r0, #12]
 4598              	.LVL484:
 706:Drivers/lvgl/src/draw/sw/blend/lv_draw_sw_blend_to_i1.c ****     const lv_color32_t * src_buf_c32 = dsc->src_buf;
 4599              		.loc 1 706 13 view .LVU1451
 4600 0016 0193     		str	r3, [sp, #4]
 4601              	.LVL485:
 707:Drivers/lvgl/src/draw/sw/blend/lv_draw_sw_blend_to_i1.c ****     int32_t src_stride = dsc->src_stride;
 4602              		.loc 1 707 5 is_stmt 1 view .LVU1452
 707:Drivers/lvgl/src/draw/sw/blend/lv_draw_sw_blend_to_i1.c ****     int32_t src_stride = dsc->src_stride;
 4603              		.loc 1 707 26 is_stmt 0 view .LVU1453
 4604 0018 8669     		ldr	r6, [r0, #24]
 4605              	.LVL486:
 708:Drivers/lvgl/src/draw/sw/blend/lv_draw_sw_blend_to_i1.c ****     const lv_opa_t * mask_buf = dsc->mask_buf;
 4606              		.loc 1 708 5 is_stmt 1 view .LVU1454
 708:Drivers/lvgl/src/draw/sw/blend/lv_draw_sw_blend_to_i1.c ****     const lv_opa_t * mask_buf = dsc->mask_buf;
 4607              		.loc 1 708 13 is_stmt 0 view .LVU1455
 4608 001a C369     		ldr	r3, [r0, #28]
 4609              	.LVL487:
 708:Drivers/lvgl/src/draw/sw/blend/lv_draw_sw_blend_to_i1.c ****     const lv_opa_t * mask_buf = dsc->mask_buf;
 4610              		.loc 1 708 13 view .LVU1456
 4611 001c 0293     		str	r3, [sp, #8]
 4612              	.LVL488:
 709:Drivers/lvgl/src/draw/sw/blend/lv_draw_sw_blend_to_i1.c ****     int32_t mask_stride = dsc->mask_stride;
 4613              		.loc 1 709 5 is_stmt 1 view .LVU1457
 709:Drivers/lvgl/src/draw/sw/blend/lv_draw_sw_blend_to_i1.c ****     int32_t mask_stride = dsc->mask_stride;
 4614              		.loc 1 709 22 is_stmt 0 view .LVU1458
ARM GAS  /tmp/cc9ag92L.s 			page 123


 4615 001e D0F810B0 		ldr	fp, [r0, #16]
 4616              	.LVL489:
 710:Drivers/lvgl/src/draw/sw/blend/lv_draw_sw_blend_to_i1.c **** 
 4617              		.loc 1 710 5 is_stmt 1 view .LVU1459
 710:Drivers/lvgl/src/draw/sw/blend/lv_draw_sw_blend_to_i1.c **** 
 4618              		.loc 1 710 13 is_stmt 0 view .LVU1460
 4619 0022 4369     		ldr	r3, [r0, #20]
 4620              	.LVL490:
 712:Drivers/lvgl/src/draw/sw/blend/lv_draw_sw_blend_to_i1.c ****     int32_t y;
 4621              		.loc 1 712 5 is_stmt 1 view .LVU1461
 713:Drivers/lvgl/src/draw/sw/blend/lv_draw_sw_blend_to_i1.c **** 
 4622              		.loc 1 713 5 view .LVU1462
 715:Drivers/lvgl/src/draw/sw/blend/lv_draw_sw_blend_to_i1.c **** 
 4623              		.loc 1 715 5 view .LVU1463
 715:Drivers/lvgl/src/draw/sw/blend/lv_draw_sw_blend_to_i1.c **** 
 4624              		.loc 1 715 41 is_stmt 0 view .LVU1464
 4625 0024 416A     		ldr	r1, [r0, #36]
 715:Drivers/lvgl/src/draw/sw/blend/lv_draw_sw_blend_to_i1.c **** 
 4626              		.loc 1 715 13 view .LVU1465
 4627 0026 4A42     		rsbs	r2, r1, #0
 4628 0028 01F00701 		and	r1, r1, #7
 4629 002c 02F00702 		and	r2, r2, #7
 4630 0030 58BF     		it	pl
 4631 0032 5142     		rsbpl	r1, r2, #0
 4632              	.LVL491:
 717:Drivers/lvgl/src/draw/sw/blend/lv_draw_sw_blend_to_i1.c ****         if(mask_buf == NULL && opa >= LV_OPA_MAX) {
 4633              		.loc 1 717 5 is_stmt 1 view .LVU1466
 717:Drivers/lvgl/src/draw/sw/blend/lv_draw_sw_blend_to_i1.c ****         if(mask_buf == NULL && opa >= LV_OPA_MAX) {
 4634              		.loc 1 717 11 is_stmt 0 view .LVU1467
 4635 0034 90F82220 		ldrb	r2, [r0, #34]	@ zero_extendqisi2
 717:Drivers/lvgl/src/draw/sw/blend/lv_draw_sw_blend_to_i1.c ****         if(mask_buf == NULL && opa >= LV_OPA_MAX) {
 4636              		.loc 1 717 7 view .LVU1468
 4637 0038 002A     		cmp	r2, #0
 4638 003a 40F0AE81 		bne	.L315
 718:Drivers/lvgl/src/draw/sw/blend/lv_draw_sw_blend_to_i1.c ****             if(LV_RESULT_INVALID == LV_DRAW_SW_ARGB8888_BLEND_NORMAL_TO_I1(dsc)) {
 4639              		.loc 1 718 9 is_stmt 1 view .LVU1469
 718:Drivers/lvgl/src/draw/sw/blend/lv_draw_sw_blend_to_i1.c ****             if(LV_RESULT_INVALID == LV_DRAW_SW_ARGB8888_BLEND_NORMAL_TO_I1(dsc)) {
 4640              		.loc 1 718 21 is_stmt 0 view .LVU1470
 4641 003e BBFA8BF2 		clz	r2, fp
 4642 0042 5209     		lsrs	r2, r2, #5
 718:Drivers/lvgl/src/draw/sw/blend/lv_draw_sw_blend_to_i1.c ****             if(LV_RESULT_INVALID == LV_DRAW_SW_ARGB8888_BLEND_NORMAL_TO_I1(dsc)) {
 4643              		.loc 1 718 36 view .LVU1471
 4644 0044 BAF1FC0F 		cmp	r10, #252
 4645 0048 94BF     		ite	ls
 4646 004a 0020     		movls	r0, #0
 4647              	.LVL492:
 718:Drivers/lvgl/src/draw/sw/blend/lv_draw_sw_blend_to_i1.c ****             if(LV_RESULT_INVALID == LV_DRAW_SW_ARGB8888_BLEND_NORMAL_TO_I1(dsc)) {
 4648              		.loc 1 718 36 view .LVU1472
 4649 004c 0120     		movhi	r0, #1
 718:Drivers/lvgl/src/draw/sw/blend/lv_draw_sw_blend_to_i1.c ****             if(LV_RESULT_INVALID == LV_DRAW_SW_ARGB8888_BLEND_NORMAL_TO_I1(dsc)) {
 4650              		.loc 1 718 11 view .LVU1473
 4651 004e 0242     		tst	r2, r0
 4652 0050 60D1     		bne	.L316
 737:Drivers/lvgl/src/draw/sw/blend/lv_draw_sw_blend_to_i1.c ****             if(LV_RESULT_INVALID == LV_DRAW_SW_ARGB8888_BLEND_NORMAL_TO_I1_WITH_OPA(dsc)) {
 4653              		.loc 1 737 14 is_stmt 1 view .LVU1474
 737:Drivers/lvgl/src/draw/sw/blend/lv_draw_sw_blend_to_i1.c ****             if(LV_RESULT_INVALID == LV_DRAW_SW_ARGB8888_BLEND_NORMAL_TO_I1_WITH_OPA(dsc)) {
 4654              		.loc 1 737 41 is_stmt 0 view .LVU1475
ARM GAS  /tmp/cc9ag92L.s 			page 124


 4655 0052 BAF1FC0F 		cmp	r10, #252
 4656 0056 8CBF     		ite	hi
 4657 0058 0024     		movhi	r4, #0
 4658 005a 0124     		movls	r4, #1
 737:Drivers/lvgl/src/draw/sw/blend/lv_draw_sw_blend_to_i1.c ****             if(LV_RESULT_INVALID == LV_DRAW_SW_ARGB8888_BLEND_NORMAL_TO_I1_WITH_OPA(dsc)) {
 4659              		.loc 1 737 16 view .LVU1476
 4660 005c 2242     		tst	r2, r4
 4661 005e 40F0AD80 		bne	.L318
 756:Drivers/lvgl/src/draw/sw/blend/lv_draw_sw_blend_to_i1.c ****             if(LV_RESULT_INVALID == LV_DRAW_SW_ARGB8888_BLEND_NORMAL_TO_I1_WITH_MASK(dsc)) {
 4662              		.loc 1 756 14 is_stmt 1 view .LVU1477
 756:Drivers/lvgl/src/draw/sw/blend/lv_draw_sw_blend_to_i1.c ****             if(LV_RESULT_INVALID == LV_DRAW_SW_ARGB8888_BLEND_NORMAL_TO_I1_WITH_MASK(dsc)) {
 4663              		.loc 1 756 17 is_stmt 0 view .LVU1478
 4664 0062 BBF10002 		subs	r2, fp, #0
 4665 0066 18BF     		it	ne
 4666 0068 0122     		movne	r2, #1
 756:Drivers/lvgl/src/draw/sw/blend/lv_draw_sw_blend_to_i1.c ****             if(LV_RESULT_INVALID == LV_DRAW_SW_ARGB8888_BLEND_NORMAL_TO_I1_WITH_MASK(dsc)) {
 4667              		.loc 1 756 16 view .LVU1479
 4668 006a 1042     		tst	r0, r2
 4669 006c 40F0FE80 		bne	.L320
 776:Drivers/lvgl/src/draw/sw/blend/lv_draw_sw_blend_to_i1.c ****             if(LV_RESULT_INVALID == LV_DRAW_SW_ARGB8888_BLEND_NORMAL_TO_I1_MIX_MASK_OPA(dsc)) {
 4670              		.loc 1 776 14 is_stmt 1 view .LVU1480
 776:Drivers/lvgl/src/draw/sw/blend/lv_draw_sw_blend_to_i1.c ****             if(LV_RESULT_INVALID == LV_DRAW_SW_ARGB8888_BLEND_NORMAL_TO_I1_MIX_MASK_OPA(dsc)) {
 4671              		.loc 1 776 16 is_stmt 0 view .LVU1481
 4672 0070 1442     		tst	r4, r2
 4673 0072 40F05281 		bne	.L322
 4674              	.LVL493:
 4675              	.L280:
 810:Drivers/lvgl/src/draw/sw/blend/lv_draw_sw_blend_to_i1.c **** #endif
 4676              		.loc 1 810 1 view .LVU1482
 4677 0076 0BB0     		add	sp, sp, #44
 4678              	.LCFI22:
 4679              		.cfi_remember_state
 4680              		.cfi_def_cfa_offset 36
 4681              	.LVL494:
 810:Drivers/lvgl/src/draw/sw/blend/lv_draw_sw_blend_to_i1.c **** #endif
 4682              		.loc 1 810 1 view .LVU1483
 4683              		@ sp needed
 4684 0078 BDE8F08F 		pop	{r4, r5, r6, r7, r8, r9, r10, fp, pc}
 4685              	.LVL495:
 4686              	.L330:
 4687              	.LCFI23:
 4688              		.cfi_restore_state
 4689              	.LBB637:
 4690              	.LBB638:
 4691              	.LBB639:
 4692              		.loc 1 1117 25 view .LVU1484
 4693 007c 04F10708 		add	r8, r4, #7
 4694 0080 14E0     		b	.L284
 4695              	.LVL496:
 4696              	.L331:
 4697              		.loc 1 1117 25 view .LVU1485
 4698              	.LBE639:
 4699              	.LBE638:
 726:Drivers/lvgl/src/draw/sw/blend/lv_draw_sw_blend_to_i1.c ****                         }
 4700              		.loc 1 726 29 is_stmt 1 view .LVU1486
 4701              	.LBB641:
 4702              	.LBI641:
ARM GAS  /tmp/cc9ag92L.s 			page 125


1105:Drivers/lvgl/src/draw/sw/blend/lv_draw_sw_blend_to_i1.c **** {
 4703              		.loc 1 1105 42 view .LVU1487
 4704              	.LBB642:
1107:Drivers/lvgl/src/draw/sw/blend/lv_draw_sw_blend_to_i1.c **** }
 4705              		.loc 1 1107 5 view .LVU1488
1107:Drivers/lvgl/src/draw/sw/blend/lv_draw_sw_blend_to_i1.c **** }
 4706              		.loc 1 1107 8 is_stmt 0 view .LVU1489
 4707 0082 16F80830 		ldrb	r3, [r6, r8]	@ zero_extendqisi2
1107:Drivers/lvgl/src/draw/sw/blend/lv_draw_sw_blend_to_i1.c **** }
 4708              		.loc 1 1107 28 view .LVU1490
 4709 0086 0122     		movs	r2, #1
 4710 0088 A240     		lsls	r2, r2, r4
1107:Drivers/lvgl/src/draw/sw/blend/lv_draw_sw_blend_to_i1.c **** }
 4711              		.loc 1 1107 22 view .LVU1491
 4712 008a 1343     		orrs	r3, r3, r2
 4713 008c 06F80830 		strb	r3, [r6, r8]
 4714              	.LVL497:
 4715              	.L286:
1107:Drivers/lvgl/src/draw/sw/blend/lv_draw_sw_blend_to_i1.c **** }
 4716              		.loc 1 1107 22 view .LVU1492
 4717              	.LBE642:
 4718              	.LBE641:
 4719              	.LBE637:
 721:Drivers/lvgl/src/draw/sw/blend/lv_draw_sw_blend_to_i1.c ****                         uint8_t src = lv_color32_luminance(src_buf_c32[x]);
 4720              		.loc 1 721 40 is_stmt 1 discriminator 2 view .LVU1493
 4721 0090 0137     		adds	r7, r7, #1
 4722              	.LVL498:
 4723              	.L288:
 721:Drivers/lvgl/src/draw/sw/blend/lv_draw_sw_blend_to_i1.c ****                         uint8_t src = lv_color32_luminance(src_buf_c32[x]);
 4724              		.loc 1 721 34 discriminator 1 view .LVU1494
 4725 0092 4F45     		cmp	r7, r9
 4726 0094 2FDA     		bge	.L329
 4727              	.LBB646:
 722:Drivers/lvgl/src/draw/sw/blend/lv_draw_sw_blend_to_i1.c ****                         uint8_t dest = get_bit(dest_buf_i1, x + bit_ofs) * 255;
 4728              		.loc 1 722 25 view .LVU1495
 722:Drivers/lvgl/src/draw/sw/blend/lv_draw_sw_blend_to_i1.c ****                         uint8_t dest = get_bit(dest_buf_i1, x + bit_ofs) * 255;
 4729              		.loc 1 722 71 is_stmt 0 view .LVU1496
 4730 0096 05EB870A 		add	r10, r5, r7, lsl #2
 722:Drivers/lvgl/src/draw/sw/blend/lv_draw_sw_blend_to_i1.c ****                         uint8_t dest = get_bit(dest_buf_i1, x + bit_ofs) * 255;
 4731              		.loc 1 722 39 view .LVU1497
 4732 009a 55F82700 		ldr	r0, [r5, r7, lsl #2]	@ unaligned
 4733 009e FFF7FEFF 		bl	lv_color32_luminance
 4734              	.LVL499:
 723:Drivers/lvgl/src/draw/sw/blend/lv_draw_sw_blend_to_i1.c ****                         lv_color_8_8_mix(src, &dest, src_buf_c32[x].alpha);
 4735              		.loc 1 723 25 is_stmt 1 view .LVU1498
 723:Drivers/lvgl/src/draw/sw/blend/lv_draw_sw_blend_to_i1.c ****                         lv_color_8_8_mix(src, &dest, src_buf_c32[x].alpha);
 4736              		.loc 1 723 40 is_stmt 0 view .LVU1499
 4737 00a2 07EB0B04 		add	r4, r7, fp
 4738              	.LVL500:
 4739              	.LBB643:
 4740              	.LBI638:
1115:Drivers/lvgl/src/draw/sw/blend/lv_draw_sw_blend_to_i1.c **** {
 4741              		.loc 1 1115 45 is_stmt 1 view .LVU1500
 4742              	.LBB640:
 4743              		.loc 1 1117 5 view .LVU1501
 4744              		.loc 1 1117 25 is_stmt 0 view .LVU1502
 4745 00a6 A046     		mov	r8, r4
ARM GAS  /tmp/cc9ag92L.s 			page 126


 4746 00a8 002C     		cmp	r4, #0
 4747 00aa E7DB     		blt	.L330
 4748              	.L284:
 4749              		.loc 1 1117 25 view .LVU1503
 4750 00ac 4FEAE808 		asr	r8, r8, #3
 4751              		.loc 1 1117 16 view .LVU1504
 4752 00b0 16F80830 		ldrb	r3, [r6, r8]	@ zero_extendqisi2
 4753              		.loc 1 1117 47 view .LVU1505
 4754 00b4 6242     		rsbs	r2, r4, #0
 4755 00b6 04F00704 		and	r4, r4, #7
 4756              	.LVL501:
 4757              		.loc 1 1117 47 view .LVU1506
 4758 00ba 02F00702 		and	r2, r2, #7
 4759 00be 58BF     		it	pl
 4760 00c0 5442     		rsbpl	r4, r2, #0
 4761              		.loc 1 1117 36 view .LVU1507
 4762 00c2 C4F10704 		rsb	r4, r4, #7
 4763              		.loc 1 1117 30 view .LVU1508
 4764 00c6 2341     		asrs	r3, r3, r4
 4765              	.LVL502:
 4766              		.loc 1 1117 30 view .LVU1509
 4767              	.LBE640:
 4768              	.LBE643:
 723:Drivers/lvgl/src/draw/sw/blend/lv_draw_sw_blend_to_i1.c ****                         lv_color_8_8_mix(src, &dest, src_buf_c32[x].alpha);
 4769              		.loc 1 723 33 discriminator 1 view .LVU1510
 4770 00c8 43F30003 		sbfx	r3, r3, #0, #1
 4771 00cc 8DF82430 		strb	r3, [sp, #36]
 724:Drivers/lvgl/src/draw/sw/blend/lv_draw_sw_blend_to_i1.c ****                         if(dest > I1_LUM_THRESHOLD) {
 4772              		.loc 1 724 25 is_stmt 1 view .LVU1511
 4773 00d0 9AF80320 		ldrb	r2, [r10, #3]	@ zero_extendqisi2
 4774 00d4 09A9     		add	r1, sp, #36
 4775 00d6 FFF7FEFF 		bl	lv_color_8_8_mix
 4776              	.LVL503:
 725:Drivers/lvgl/src/draw/sw/blend/lv_draw_sw_blend_to_i1.c ****                             set_bit(dest_buf_i1, x + bit_ofs);
 4777              		.loc 1 725 25 view .LVU1512
 725:Drivers/lvgl/src/draw/sw/blend/lv_draw_sw_blend_to_i1.c ****                             set_bit(dest_buf_i1, x + bit_ofs);
 4778              		.loc 1 725 33 is_stmt 0 view .LVU1513
 4779 00da 9DF92430 		ldrsb	r3, [sp, #36]
 725:Drivers/lvgl/src/draw/sw/blend/lv_draw_sw_blend_to_i1.c ****                             set_bit(dest_buf_i1, x + bit_ofs);
 4780              		.loc 1 725 27 view .LVU1514
 4781 00de 002B     		cmp	r3, #0
 4782 00e0 CFDB     		blt	.L331
 729:Drivers/lvgl/src/draw/sw/blend/lv_draw_sw_blend_to_i1.c ****                         }
 4783              		.loc 1 729 29 is_stmt 1 view .LVU1515
 4784              	.LVL504:
 4785              	.LBB644:
 4786              	.LBI644:
1110:Drivers/lvgl/src/draw/sw/blend/lv_draw_sw_blend_to_i1.c **** {
 4787              		.loc 1 1110 42 view .LVU1516
 4788              	.LBB645:
1112:Drivers/lvgl/src/draw/sw/blend/lv_draw_sw_blend_to_i1.c **** }
 4789              		.loc 1 1112 5 view .LVU1517
1112:Drivers/lvgl/src/draw/sw/blend/lv_draw_sw_blend_to_i1.c **** }
 4790              		.loc 1 1112 8 is_stmt 0 view .LVU1518
 4791 00e2 16F80820 		ldrb	r2, [r6, r8]	@ zero_extendqisi2
1112:Drivers/lvgl/src/draw/sw/blend/lv_draw_sw_blend_to_i1.c **** }
 4792              		.loc 1 1112 29 view .LVU1519
ARM GAS  /tmp/cc9ag92L.s 			page 127


 4793 00e6 0123     		movs	r3, #1
 4794 00e8 A340     		lsls	r3, r3, r4
1112:Drivers/lvgl/src/draw/sw/blend/lv_draw_sw_blend_to_i1.c **** }
 4795              		.loc 1 1112 22 view .LVU1520
 4796 00ea DB43     		mvns	r3, r3
 4797 00ec 5BB2     		sxtb	r3, r3
 4798 00ee 1340     		ands	r3, r3, r2
 4799 00f0 06F80830 		strb	r3, [r6, r8]
 4800              	.LVL505:
1113:Drivers/lvgl/src/draw/sw/blend/lv_draw_sw_blend_to_i1.c **** 
 4801              		.loc 1 1113 1 view .LVU1521
 4802 00f4 CCE7     		b	.L286
 4803              	.LVL506:
 4804              	.L329:
1113:Drivers/lvgl/src/draw/sw/blend/lv_draw_sw_blend_to_i1.c **** 
 4805              		.loc 1 1113 1 view .LVU1522
 4806              	.LBE645:
 4807              	.LBE644:
 4808              	.LBE646:
 4809              	.LBB647:
 4810              	.LBB648:
1102:Drivers/lvgl/src/draw/sw/blend/lv_draw_sw_blend_to_i1.c **** }
 4811              		.loc 1 1102 12 view .LVU1523
 4812 00f6 DDF80C80 		ldr	r8, [sp, #12]
 4813              	.LBE648:
 4814              	.LBE647:
 732:Drivers/lvgl/src/draw/sw/blend/lv_draw_sw_blend_to_i1.c ****                     src_buf_c32 = drawbuf_next_row(src_buf_c32, src_stride);
 4815              		.loc 1 732 21 is_stmt 1 view .LVU1524
 4816              	.LVL507:
 4817              	.LBB650:
 4818              	.LBI647:
1100:Drivers/lvgl/src/draw/sw/blend/lv_draw_sw_blend_to_i1.c **** {
 4819              		.loc 1 1100 44 view .LVU1525
 4820              	.LBB649:
1102:Drivers/lvgl/src/draw/sw/blend/lv_draw_sw_blend_to_i1.c **** }
 4821              		.loc 1 1102 5 view .LVU1526
1102:Drivers/lvgl/src/draw/sw/blend/lv_draw_sw_blend_to_i1.c **** }
 4822              		.loc 1 1102 12 is_stmt 0 view .LVU1527
 4823 00fa 019B     		ldr	r3, [sp, #4]
 4824 00fc 1E44     		add	r6, r6, r3
 4825              	.LVL508:
1102:Drivers/lvgl/src/draw/sw/blend/lv_draw_sw_blend_to_i1.c **** }
 4826              		.loc 1 1102 12 view .LVU1528
 4827              	.LBE649:
 4828              	.LBE650:
 733:Drivers/lvgl/src/draw/sw/blend/lv_draw_sw_blend_to_i1.c ****                 }
 4829              		.loc 1 733 21 is_stmt 1 view .LVU1529
 4830              	.LBB651:
 4831              	.LBI651:
1100:Drivers/lvgl/src/draw/sw/blend/lv_draw_sw_blend_to_i1.c **** {
 4832              		.loc 1 1100 44 view .LVU1530
 4833              	.LBB652:
1102:Drivers/lvgl/src/draw/sw/blend/lv_draw_sw_blend_to_i1.c **** }
 4834              		.loc 1 1102 5 view .LVU1531
1102:Drivers/lvgl/src/draw/sw/blend/lv_draw_sw_blend_to_i1.c **** }
 4835              		.loc 1 1102 12 is_stmt 0 view .LVU1532
 4836 00fe 029B     		ldr	r3, [sp, #8]
ARM GAS  /tmp/cc9ag92L.s 			page 128


 4837 0100 1D44     		add	r5, r5, r3
 4838              	.LVL509:
1102:Drivers/lvgl/src/draw/sw/blend/lv_draw_sw_blend_to_i1.c **** }
 4839              		.loc 1 1102 12 view .LVU1533
 4840              	.LBE652:
 4841              	.LBE651:
 720:Drivers/lvgl/src/draw/sw/blend/lv_draw_sw_blend_to_i1.c ****                     for(x = 0; x < w; x++) {
 4842              		.loc 1 720 36 is_stmt 1 discriminator 2 view .LVU1534
 4843 0102 08F10108 		add	r8, r8, #1
 4844              	.LVL510:
 4845              	.L282:
 720:Drivers/lvgl/src/draw/sw/blend/lv_draw_sw_blend_to_i1.c ****                     for(x = 0; x < w; x++) {
 4846              		.loc 1 720 30 discriminator 1 view .LVU1535
 4847 0106 009B     		ldr	r3, [sp]
 4848 0108 9845     		cmp	r8, r3
 4849 010a B4DA     		bge	.L280
 721:Drivers/lvgl/src/draw/sw/blend/lv_draw_sw_blend_to_i1.c ****                         uint8_t src = lv_color32_luminance(src_buf_c32[x]);
 4850              		.loc 1 721 27 is_stmt 0 view .LVU1536
 4851 010c 0027     		movs	r7, #0
 4852 010e CDF80C80 		str	r8, [sp, #12]
 4853 0112 BEE7     		b	.L288
 4854              	.LVL511:
 4855              	.L316:
 720:Drivers/lvgl/src/draw/sw/blend/lv_draw_sw_blend_to_i1.c ****                     for(x = 0; x < w; x++) {
 4856              		.loc 1 720 23 view .LVU1537
 4857 0114 4FF0000A 		mov	r10, #0
 4858              	.LVL512:
 720:Drivers/lvgl/src/draw/sw/blend/lv_draw_sw_blend_to_i1.c ****                     for(x = 0; x < w; x++) {
 4859              		.loc 1 720 23 view .LVU1538
 4860 0118 3346     		mov	r3, r6
 4861              	.LVL513:
 720:Drivers/lvgl/src/draw/sw/blend/lv_draw_sw_blend_to_i1.c ****                     for(x = 0; x < w; x++) {
 4862              		.loc 1 720 23 view .LVU1539
 4863 011a 2E46     		mov	r6, r5
 4864              	.LVL514:
 720:Drivers/lvgl/src/draw/sw/blend/lv_draw_sw_blend_to_i1.c ****                     for(x = 0; x < w; x++) {
 4865              		.loc 1 720 23 view .LVU1540
 4866 011c D046     		mov	r8, r10
 4867 011e 8B46     		mov	fp, r1
 4868              	.LVL515:
 720:Drivers/lvgl/src/draw/sw/blend/lv_draw_sw_blend_to_i1.c ****                     for(x = 0; x < w; x++) {
 4869              		.loc 1 720 23 view .LVU1541
 4870 0120 1D46     		mov	r5, r3
 4871              	.LVL516:
 720:Drivers/lvgl/src/draw/sw/blend/lv_draw_sw_blend_to_i1.c ****                     for(x = 0; x < w; x++) {
 4872              		.loc 1 720 23 view .LVU1542
 4873 0122 F0E7     		b	.L282
 4874              	.LVL517:
 4875              	.L333:
 4876              	.LBB653:
 4877              	.LBB654:
 4878              	.LBB655:
 4879              		.loc 1 1117 25 view .LVU1543
 4880 0124 F71D     		adds	r7, r6, #7
 4881 0126 14E0     		b	.L292
 4882              	.LVL518:
 4883              	.L334:
ARM GAS  /tmp/cc9ag92L.s 			page 129


 4884              		.loc 1 1117 25 view .LVU1544
 4885              	.LBE655:
 4886              	.LBE654:
 745:Drivers/lvgl/src/draw/sw/blend/lv_draw_sw_blend_to_i1.c ****                         }
 4887              		.loc 1 745 29 is_stmt 1 view .LVU1545
 4888              	.LBB657:
 4889              	.LBI657:
1105:Drivers/lvgl/src/draw/sw/blend/lv_draw_sw_blend_to_i1.c **** {
 4890              		.loc 1 1105 42 view .LVU1546
 4891              	.LBB658:
1107:Drivers/lvgl/src/draw/sw/blend/lv_draw_sw_blend_to_i1.c **** }
 4892              		.loc 1 1107 5 view .LVU1547
1107:Drivers/lvgl/src/draw/sw/blend/lv_draw_sw_blend_to_i1.c **** }
 4893              		.loc 1 1107 8 is_stmt 0 view .LVU1548
 4894 0128 EB5D     		ldrb	r3, [r5, r7]	@ zero_extendqisi2
1107:Drivers/lvgl/src/draw/sw/blend/lv_draw_sw_blend_to_i1.c **** }
 4895              		.loc 1 1107 28 view .LVU1549
 4896 012a 0122     		movs	r2, #1
 4897 012c B240     		lsls	r2, r2, r6
1107:Drivers/lvgl/src/draw/sw/blend/lv_draw_sw_blend_to_i1.c **** }
 4898              		.loc 1 1107 22 view .LVU1550
 4899 012e 1343     		orrs	r3, r3, r2
 4900 0130 EB55     		strb	r3, [r5, r7]
 4901              	.LVL519:
 4902              	.L294:
1107:Drivers/lvgl/src/draw/sw/blend/lv_draw_sw_blend_to_i1.c **** }
 4903              		.loc 1 1107 22 view .LVU1551
 4904              	.LBE658:
 4905              	.LBE657:
 4906              	.LBE653:
 740:Drivers/lvgl/src/draw/sw/blend/lv_draw_sw_blend_to_i1.c ****                         uint8_t src = lv_color32_luminance(src_buf_c32[x]);
 4907              		.loc 1 740 40 is_stmt 1 discriminator 2 view .LVU1552
 4908 0132 08F10108 		add	r8, r8, #1
 4909              	.LVL520:
 4910              	.L296:
 740:Drivers/lvgl/src/draw/sw/blend/lv_draw_sw_blend_to_i1.c ****                         uint8_t src = lv_color32_luminance(src_buf_c32[x]);
 4911              		.loc 1 740 34 discriminator 1 view .LVU1553
 4912 0136 C845     		cmp	r8, r9
 4913 0138 2FDA     		bge	.L332
 4914              	.LBB662:
 741:Drivers/lvgl/src/draw/sw/blend/lv_draw_sw_blend_to_i1.c ****                         uint8_t dest = get_bit(dest_buf_i1, x + bit_ofs) * 255;
 4915              		.loc 1 741 25 view .LVU1554
 741:Drivers/lvgl/src/draw/sw/blend/lv_draw_sw_blend_to_i1.c ****                         uint8_t dest = get_bit(dest_buf_i1, x + bit_ofs) * 255;
 4916              		.loc 1 741 71 is_stmt 0 view .LVU1555
 4917 013a 04EB880B 		add	fp, r4, r8, lsl #2
 741:Drivers/lvgl/src/draw/sw/blend/lv_draw_sw_blend_to_i1.c ****                         uint8_t dest = get_bit(dest_buf_i1, x + bit_ofs) * 255;
 4918              		.loc 1 741 39 view .LVU1556
 4919 013e 54F82800 		ldr	r0, [r4, r8, lsl #2]	@ unaligned
 4920 0142 FFF7FEFF 		bl	lv_color32_luminance
 4921              	.LVL521:
 742:Drivers/lvgl/src/draw/sw/blend/lv_draw_sw_blend_to_i1.c ****                         lv_color_8_8_mix(src, &dest, LV_OPA_MIX2(opa, src_buf_c32[x].alpha));
 4922              		.loc 1 742 25 is_stmt 1 view .LVU1557
 742:Drivers/lvgl/src/draw/sw/blend/lv_draw_sw_blend_to_i1.c ****                         lv_color_8_8_mix(src, &dest, LV_OPA_MIX2(opa, src_buf_c32[x].alpha));
 4923              		.loc 1 742 40 is_stmt 0 view .LVU1558
 4924 0146 039B     		ldr	r3, [sp, #12]
 4925 0148 08EB0306 		add	r6, r8, r3
 4926              	.LVL522:
ARM GAS  /tmp/cc9ag92L.s 			page 130


 4927              	.LBB659:
 4928              	.LBI654:
1115:Drivers/lvgl/src/draw/sw/blend/lv_draw_sw_blend_to_i1.c **** {
 4929              		.loc 1 1115 45 is_stmt 1 view .LVU1559
 4930              	.LBB656:
 4931              		.loc 1 1117 5 view .LVU1560
 4932              		.loc 1 1117 25 is_stmt 0 view .LVU1561
 4933 014c 3746     		mov	r7, r6
 4934 014e 002E     		cmp	r6, #0
 4935 0150 E8DB     		blt	.L333
 4936              	.L292:
 4937              		.loc 1 1117 25 view .LVU1562
 4938 0152 FF10     		asrs	r7, r7, #3
 4939              		.loc 1 1117 16 view .LVU1563
 4940 0154 EB5D     		ldrb	r3, [r5, r7]	@ zero_extendqisi2
 4941              		.loc 1 1117 47 view .LVU1564
 4942 0156 7242     		rsbs	r2, r6, #0
 4943 0158 06F00706 		and	r6, r6, #7
 4944              	.LVL523:
 4945              		.loc 1 1117 47 view .LVU1565
 4946 015c 02F00702 		and	r2, r2, #7
 4947 0160 58BF     		it	pl
 4948 0162 5642     		rsbpl	r6, r2, #0
 4949              		.loc 1 1117 36 view .LVU1566
 4950 0164 C6F10706 		rsb	r6, r6, #7
 4951              		.loc 1 1117 30 view .LVU1567
 4952 0168 3341     		asrs	r3, r3, r6
 4953              	.LVL524:
 4954              		.loc 1 1117 30 view .LVU1568
 4955              	.LBE656:
 4956              	.LBE659:
 742:Drivers/lvgl/src/draw/sw/blend/lv_draw_sw_blend_to_i1.c ****                         lv_color_8_8_mix(src, &dest, LV_OPA_MIX2(opa, src_buf_c32[x].alpha));
 4957              		.loc 1 742 33 discriminator 1 view .LVU1569
 4958 016a 43F30003 		sbfx	r3, r3, #0, #1
 4959 016e 8DF82430 		strb	r3, [sp, #36]
 743:Drivers/lvgl/src/draw/sw/blend/lv_draw_sw_blend_to_i1.c ****                         if(dest > I1_LUM_THRESHOLD) {
 4960              		.loc 1 743 25 is_stmt 1 view .LVU1570
 743:Drivers/lvgl/src/draw/sw/blend/lv_draw_sw_blend_to_i1.c ****                         if(dest > I1_LUM_THRESHOLD) {
 4961              		.loc 1 743 54 is_stmt 0 view .LVU1571
 4962 0172 9BF80320 		ldrb	r2, [fp, #3]	@ zero_extendqisi2
 4963 0176 02FB0AF2 		mul	r2, r2, r10
 743:Drivers/lvgl/src/draw/sw/blend/lv_draw_sw_blend_to_i1.c ****                         if(dest > I1_LUM_THRESHOLD) {
 4964              		.loc 1 743 25 view .LVU1572
 4965 017a 120A     		lsrs	r2, r2, #8
 4966 017c 09A9     		add	r1, sp, #36
 4967 017e FFF7FEFF 		bl	lv_color_8_8_mix
 4968              	.LVL525:
 744:Drivers/lvgl/src/draw/sw/blend/lv_draw_sw_blend_to_i1.c ****                             set_bit(dest_buf_i1, x + bit_ofs);
 4969              		.loc 1 744 25 is_stmt 1 view .LVU1573
 744:Drivers/lvgl/src/draw/sw/blend/lv_draw_sw_blend_to_i1.c ****                             set_bit(dest_buf_i1, x + bit_ofs);
 4970              		.loc 1 744 33 is_stmt 0 view .LVU1574
 4971 0182 9DF92430 		ldrsb	r3, [sp, #36]
 744:Drivers/lvgl/src/draw/sw/blend/lv_draw_sw_blend_to_i1.c ****                             set_bit(dest_buf_i1, x + bit_ofs);
 4972              		.loc 1 744 27 view .LVU1575
 4973 0186 002B     		cmp	r3, #0
 4974 0188 CEDB     		blt	.L334
 748:Drivers/lvgl/src/draw/sw/blend/lv_draw_sw_blend_to_i1.c ****                         }
ARM GAS  /tmp/cc9ag92L.s 			page 131


 4975              		.loc 1 748 29 is_stmt 1 view .LVU1576
 4976              	.LVL526:
 4977              	.LBB660:
 4978              	.LBI660:
1110:Drivers/lvgl/src/draw/sw/blend/lv_draw_sw_blend_to_i1.c **** {
 4979              		.loc 1 1110 42 view .LVU1577
 4980              	.LBB661:
1112:Drivers/lvgl/src/draw/sw/blend/lv_draw_sw_blend_to_i1.c **** }
 4981              		.loc 1 1112 5 view .LVU1578
1112:Drivers/lvgl/src/draw/sw/blend/lv_draw_sw_blend_to_i1.c **** }
 4982              		.loc 1 1112 8 is_stmt 0 view .LVU1579
 4983 018a EA5D     		ldrb	r2, [r5, r7]	@ zero_extendqisi2
1112:Drivers/lvgl/src/draw/sw/blend/lv_draw_sw_blend_to_i1.c **** }
 4984              		.loc 1 1112 29 view .LVU1580
 4985 018c 0123     		movs	r3, #1
 4986 018e B340     		lsls	r3, r3, r6
1112:Drivers/lvgl/src/draw/sw/blend/lv_draw_sw_blend_to_i1.c **** }
 4987              		.loc 1 1112 22 view .LVU1581
 4988 0190 DB43     		mvns	r3, r3
 4989 0192 5BB2     		sxtb	r3, r3
 4990 0194 1340     		ands	r3, r3, r2
 4991 0196 EB55     		strb	r3, [r5, r7]
 4992              	.LVL527:
1113:Drivers/lvgl/src/draw/sw/blend/lv_draw_sw_blend_to_i1.c **** 
 4993              		.loc 1 1113 1 view .LVU1582
 4994 0198 CBE7     		b	.L294
 4995              	.LVL528:
 4996              	.L332:
1113:Drivers/lvgl/src/draw/sw/blend/lv_draw_sw_blend_to_i1.c **** 
 4997              		.loc 1 1113 1 view .LVU1583
 4998              	.LBE661:
 4999              	.LBE660:
 5000              	.LBE662:
 5001              	.LBB663:
 5002              	.LBB664:
1102:Drivers/lvgl/src/draw/sw/blend/lv_draw_sw_blend_to_i1.c **** }
 5003              		.loc 1 1102 12 view .LVU1584
 5004 019a DDF810B0 		ldr	fp, [sp, #16]
 5005              	.LBE664:
 5006              	.LBE663:
 751:Drivers/lvgl/src/draw/sw/blend/lv_draw_sw_blend_to_i1.c ****                     src_buf_c32 = drawbuf_next_row(src_buf_c32, src_stride);
 5007              		.loc 1 751 21 is_stmt 1 view .LVU1585
 5008              	.LVL529:
 5009              	.LBB666:
 5010              	.LBI663:
1100:Drivers/lvgl/src/draw/sw/blend/lv_draw_sw_blend_to_i1.c **** {
 5011              		.loc 1 1100 44 view .LVU1586
 5012              	.LBB665:
1102:Drivers/lvgl/src/draw/sw/blend/lv_draw_sw_blend_to_i1.c **** }
 5013              		.loc 1 1102 5 view .LVU1587
1102:Drivers/lvgl/src/draw/sw/blend/lv_draw_sw_blend_to_i1.c **** }
 5014              		.loc 1 1102 12 is_stmt 0 view .LVU1588
 5015 019e 019B     		ldr	r3, [sp, #4]
 5016 01a0 1D44     		add	r5, r5, r3
 5017              	.LVL530:
1102:Drivers/lvgl/src/draw/sw/blend/lv_draw_sw_blend_to_i1.c **** }
 5018              		.loc 1 1102 12 view .LVU1589
ARM GAS  /tmp/cc9ag92L.s 			page 132


 5019              	.LBE665:
 5020              	.LBE666:
 752:Drivers/lvgl/src/draw/sw/blend/lv_draw_sw_blend_to_i1.c ****                 }
 5021              		.loc 1 752 21 is_stmt 1 view .LVU1590
 5022              	.LBB667:
 5023              	.LBI667:
1100:Drivers/lvgl/src/draw/sw/blend/lv_draw_sw_blend_to_i1.c **** {
 5024              		.loc 1 1100 44 view .LVU1591
 5025              	.LBB668:
1102:Drivers/lvgl/src/draw/sw/blend/lv_draw_sw_blend_to_i1.c **** }
 5026              		.loc 1 1102 5 view .LVU1592
1102:Drivers/lvgl/src/draw/sw/blend/lv_draw_sw_blend_to_i1.c **** }
 5027              		.loc 1 1102 12 is_stmt 0 view .LVU1593
 5028 01a2 029B     		ldr	r3, [sp, #8]
 5029 01a4 1C44     		add	r4, r4, r3
 5030              	.LVL531:
1102:Drivers/lvgl/src/draw/sw/blend/lv_draw_sw_blend_to_i1.c **** }
 5031              		.loc 1 1102 12 view .LVU1594
 5032              	.LBE668:
 5033              	.LBE667:
 739:Drivers/lvgl/src/draw/sw/blend/lv_draw_sw_blend_to_i1.c ****                     for(x = 0; x < w; x++) {
 5034              		.loc 1 739 36 is_stmt 1 discriminator 2 view .LVU1595
 5035 01a6 0BF1010B 		add	fp, fp, #1
 5036              	.LVL532:
 5037              	.L290:
 739:Drivers/lvgl/src/draw/sw/blend/lv_draw_sw_blend_to_i1.c ****                     for(x = 0; x < w; x++) {
 5038              		.loc 1 739 30 discriminator 1 view .LVU1596
 5039 01aa 009B     		ldr	r3, [sp]
 5040 01ac 9B45     		cmp	fp, r3
 5041 01ae BFF662AF 		bge	.L280
 740:Drivers/lvgl/src/draw/sw/blend/lv_draw_sw_blend_to_i1.c ****                         uint8_t src = lv_color32_luminance(src_buf_c32[x]);
 5042              		.loc 1 740 27 is_stmt 0 view .LVU1597
 5043 01b2 4FF00008 		mov	r8, #0
 5044 01b6 CDF810B0 		str	fp, [sp, #16]
 5045 01ba BCE7     		b	.L296
 5046              	.LVL533:
 5047              	.L318:
 739:Drivers/lvgl/src/draw/sw/blend/lv_draw_sw_blend_to_i1.c ****                     for(x = 0; x < w; x++) {
 5048              		.loc 1 739 23 view .LVU1598
 5049 01bc 0024     		movs	r4, #0
 5050 01be A346     		mov	fp, r4
 5051              	.LVL534:
 739:Drivers/lvgl/src/draw/sw/blend/lv_draw_sw_blend_to_i1.c ****                     for(x = 0; x < w; x++) {
 5052              		.loc 1 739 23 view .LVU1599
 5053 01c0 3446     		mov	r4, r6
 5054 01c2 0391     		str	r1, [sp, #12]
 5055 01c4 F1E7     		b	.L290
 5056              	.LVL535:
 5057              	.L336:
 5058              	.LBB669:
 5059              	.LBB670:
 5060              	.LBB671:
 5061              		.loc 1 1117 25 view .LVU1600
 5062 01c6 E51D     		adds	r5, r4, #7
 5063 01c8 18E0     		b	.L299
 5064              	.LVL536:
 5065              	.L337:
ARM GAS  /tmp/cc9ag92L.s 			page 133


 5066              		.loc 1 1117 25 view .LVU1601
 5067              	.LBE671:
 5068              	.LBE670:
 764:Drivers/lvgl/src/draw/sw/blend/lv_draw_sw_blend_to_i1.c ****                         }
 5069              		.loc 1 764 29 is_stmt 1 view .LVU1602
 5070              	.LBB673:
 5071              	.LBI673:
1105:Drivers/lvgl/src/draw/sw/blend/lv_draw_sw_blend_to_i1.c **** {
 5072              		.loc 1 1105 42 view .LVU1603
 5073              	.LBB674:
1107:Drivers/lvgl/src/draw/sw/blend/lv_draw_sw_blend_to_i1.c **** }
 5074              		.loc 1 1107 5 view .LVU1604
1107:Drivers/lvgl/src/draw/sw/blend/lv_draw_sw_blend_to_i1.c **** }
 5075              		.loc 1 1107 8 is_stmt 0 view .LVU1605
 5076 01ca 1BF80530 		ldrb	r3, [fp, r5]	@ zero_extendqisi2
1107:Drivers/lvgl/src/draw/sw/blend/lv_draw_sw_blend_to_i1.c **** }
 5077              		.loc 1 1107 28 view .LVU1606
 5078 01ce 0122     		movs	r2, #1
 5079 01d0 A240     		lsls	r2, r2, r4
1107:Drivers/lvgl/src/draw/sw/blend/lv_draw_sw_blend_to_i1.c **** }
 5080              		.loc 1 1107 22 view .LVU1607
 5081 01d2 1343     		orrs	r3, r3, r2
 5082 01d4 0BF80530 		strb	r3, [fp, r5]
 5083              	.LVL537:
 5084              	.L301:
1107:Drivers/lvgl/src/draw/sw/blend/lv_draw_sw_blend_to_i1.c **** }
 5085              		.loc 1 1107 22 view .LVU1608
 5086              	.LBE674:
 5087              	.LBE673:
 5088              	.LBE669:
 759:Drivers/lvgl/src/draw/sw/blend/lv_draw_sw_blend_to_i1.c ****                         uint8_t src = lv_color32_luminance(src_buf_c32[x]);
 5089              		.loc 1 759 40 is_stmt 1 discriminator 2 view .LVU1609
 5090 01d8 08F10108 		add	r8, r8, #1
 5091              	.LVL538:
 5092              	.L303:
 759:Drivers/lvgl/src/draw/sw/blend/lv_draw_sw_blend_to_i1.c ****                         uint8_t src = lv_color32_luminance(src_buf_c32[x]);
 5093              		.loc 1 759 34 discriminator 1 view .LVU1610
 5094 01dc 039B     		ldr	r3, [sp, #12]
 5095 01de 9845     		cmp	r8, r3
 5096 01e0 34DA     		bge	.L335
 5097              	.LBB678:
 760:Drivers/lvgl/src/draw/sw/blend/lv_draw_sw_blend_to_i1.c ****                         uint8_t dest = get_bit(dest_buf_i1, x + bit_ofs) * 255;
 5098              		.loc 1 760 25 view .LVU1611
 760:Drivers/lvgl/src/draw/sw/blend/lv_draw_sw_blend_to_i1.c ****                         uint8_t dest = get_bit(dest_buf_i1, x + bit_ofs) * 255;
 5099              		.loc 1 760 71 is_stmt 0 view .LVU1612
 5100 01e2 C246     		mov	r10, r8
 5101 01e4 06EB8807 		add	r7, r6, r8, lsl #2
 760:Drivers/lvgl/src/draw/sw/blend/lv_draw_sw_blend_to_i1.c ****                         uint8_t dest = get_bit(dest_buf_i1, x + bit_ofs) * 255;
 5102              		.loc 1 760 39 view .LVU1613
 5103 01e8 56F82800 		ldr	r0, [r6, r8, lsl #2]	@ unaligned
 5104 01ec FFF7FEFF 		bl	lv_color32_luminance
 5105              	.LVL539:
 761:Drivers/lvgl/src/draw/sw/blend/lv_draw_sw_blend_to_i1.c ****                         lv_color_8_8_mix(src, &dest, LV_OPA_MIX2(mask_buf[x], src_buf_c32[x].alpha)
 5106              		.loc 1 761 25 is_stmt 1 view .LVU1614
 761:Drivers/lvgl/src/draw/sw/blend/lv_draw_sw_blend_to_i1.c ****                         lv_color_8_8_mix(src, &dest, LV_OPA_MIX2(mask_buf[x], src_buf_c32[x].alpha)
 5107              		.loc 1 761 40 is_stmt 0 view .LVU1615
 5108 01f0 049B     		ldr	r3, [sp, #16]
ARM GAS  /tmp/cc9ag92L.s 			page 134


 5109 01f2 08EB0304 		add	r4, r8, r3
 5110              	.LVL540:
 5111              	.LBB675:
 5112              	.LBI670:
1115:Drivers/lvgl/src/draw/sw/blend/lv_draw_sw_blend_to_i1.c **** {
 5113              		.loc 1 1115 45 is_stmt 1 view .LVU1616
 5114              	.LBB672:
 5115              		.loc 1 1117 5 view .LVU1617
 5116              		.loc 1 1117 25 is_stmt 0 view .LVU1618
 5117 01f6 2546     		mov	r5, r4
 5118 01f8 002C     		cmp	r4, #0
 5119 01fa E4DB     		blt	.L336
 5120              	.L299:
 5121              		.loc 1 1117 25 view .LVU1619
 5122 01fc ED10     		asrs	r5, r5, #3
 5123              		.loc 1 1117 16 view .LVU1620
 5124 01fe 1BF80530 		ldrb	r3, [fp, r5]	@ zero_extendqisi2
 5125              		.loc 1 1117 47 view .LVU1621
 5126 0202 6242     		rsbs	r2, r4, #0
 5127 0204 04F00704 		and	r4, r4, #7
 5128              	.LVL541:
 5129              		.loc 1 1117 47 view .LVU1622
 5130 0208 02F00702 		and	r2, r2, #7
 5131 020c 58BF     		it	pl
 5132 020e 5442     		rsbpl	r4, r2, #0
 5133              		.loc 1 1117 36 view .LVU1623
 5134 0210 C4F10704 		rsb	r4, r4, #7
 5135              		.loc 1 1117 30 view .LVU1624
 5136 0214 2341     		asrs	r3, r3, r4
 5137              	.LVL542:
 5138              		.loc 1 1117 30 view .LVU1625
 5139              	.LBE672:
 5140              	.LBE675:
 761:Drivers/lvgl/src/draw/sw/blend/lv_draw_sw_blend_to_i1.c ****                         lv_color_8_8_mix(src, &dest, LV_OPA_MIX2(mask_buf[x], src_buf_c32[x].alpha)
 5141              		.loc 1 761 33 discriminator 1 view .LVU1626
 5142 0216 43F30003 		sbfx	r3, r3, #0, #1
 5143 021a 8DF82430 		strb	r3, [sp, #36]
 762:Drivers/lvgl/src/draw/sw/blend/lv_draw_sw_blend_to_i1.c ****                         if(dest > I1_LUM_THRESHOLD) {
 5144              		.loc 1 762 25 is_stmt 1 view .LVU1627
 762:Drivers/lvgl/src/draw/sw/blend/lv_draw_sw_blend_to_i1.c ****                         if(dest > I1_LUM_THRESHOLD) {
 5145              		.loc 1 762 54 is_stmt 0 view .LVU1628
 5146 021e 19F80A20 		ldrb	r2, [r9, r10]	@ zero_extendqisi2
 5147 0222 FB78     		ldrb	r3, [r7, #3]	@ zero_extendqisi2
 5148 0224 03FB02F2 		mul	r2, r3, r2
 762:Drivers/lvgl/src/draw/sw/blend/lv_draw_sw_blend_to_i1.c ****                         if(dest > I1_LUM_THRESHOLD) {
 5149              		.loc 1 762 25 view .LVU1629
 5150 0228 120A     		lsrs	r2, r2, #8
 5151 022a 09A9     		add	r1, sp, #36
 5152 022c FFF7FEFF 		bl	lv_color_8_8_mix
 5153              	.LVL543:
 763:Drivers/lvgl/src/draw/sw/blend/lv_draw_sw_blend_to_i1.c ****                             set_bit(dest_buf_i1, x + bit_ofs);
 5154              		.loc 1 763 25 is_stmt 1 view .LVU1630
 763:Drivers/lvgl/src/draw/sw/blend/lv_draw_sw_blend_to_i1.c ****                             set_bit(dest_buf_i1, x + bit_ofs);
 5155              		.loc 1 763 33 is_stmt 0 view .LVU1631
 5156 0230 9DF92430 		ldrsb	r3, [sp, #36]
 763:Drivers/lvgl/src/draw/sw/blend/lv_draw_sw_blend_to_i1.c ****                             set_bit(dest_buf_i1, x + bit_ofs);
 5157              		.loc 1 763 27 view .LVU1632
ARM GAS  /tmp/cc9ag92L.s 			page 135


 5158 0234 002B     		cmp	r3, #0
 5159 0236 C8DB     		blt	.L337
 767:Drivers/lvgl/src/draw/sw/blend/lv_draw_sw_blend_to_i1.c ****                         }
 5160              		.loc 1 767 29 is_stmt 1 view .LVU1633
 5161              	.LVL544:
 5162              	.LBB676:
 5163              	.LBI676:
1110:Drivers/lvgl/src/draw/sw/blend/lv_draw_sw_blend_to_i1.c **** {
 5164              		.loc 1 1110 42 view .LVU1634
 5165              	.LBB677:
1112:Drivers/lvgl/src/draw/sw/blend/lv_draw_sw_blend_to_i1.c **** }
 5166              		.loc 1 1112 5 view .LVU1635
1112:Drivers/lvgl/src/draw/sw/blend/lv_draw_sw_blend_to_i1.c **** }
 5167              		.loc 1 1112 8 is_stmt 0 view .LVU1636
 5168 0238 1BF80520 		ldrb	r2, [fp, r5]	@ zero_extendqisi2
1112:Drivers/lvgl/src/draw/sw/blend/lv_draw_sw_blend_to_i1.c **** }
 5169              		.loc 1 1112 29 view .LVU1637
 5170 023c 0123     		movs	r3, #1
 5171 023e A340     		lsls	r3, r3, r4
1112:Drivers/lvgl/src/draw/sw/blend/lv_draw_sw_blend_to_i1.c **** }
 5172              		.loc 1 1112 22 view .LVU1638
 5173 0240 DB43     		mvns	r3, r3
 5174 0242 5BB2     		sxtb	r3, r3
 5175 0244 1340     		ands	r3, r3, r2
 5176 0246 0BF80530 		strb	r3, [fp, r5]
 5177              	.LVL545:
1113:Drivers/lvgl/src/draw/sw/blend/lv_draw_sw_blend_to_i1.c **** 
 5178              		.loc 1 1113 1 view .LVU1639
 5179 024a C5E7     		b	.L301
 5180              	.LVL546:
 5181              	.L335:
1113:Drivers/lvgl/src/draw/sw/blend/lv_draw_sw_blend_to_i1.c **** 
 5182              		.loc 1 1113 1 view .LVU1640
 5183              	.LBE677:
 5184              	.LBE676:
 5185              	.LBE678:
 5186              	.LBB679:
 5187              	.LBB680:
1102:Drivers/lvgl/src/draw/sw/blend/lv_draw_sw_blend_to_i1.c **** }
 5188              		.loc 1 1102 12 view .LVU1641
 5189 024c 059C     		ldr	r4, [sp, #20]
 5190              	.LBE680:
 5191              	.LBE679:
 770:Drivers/lvgl/src/draw/sw/blend/lv_draw_sw_blend_to_i1.c ****                     src_buf_c32 = drawbuf_next_row(src_buf_c32, src_stride);
 5192              		.loc 1 770 21 is_stmt 1 view .LVU1642
 5193              	.LVL547:
 5194              	.LBB682:
 5195              	.LBI679:
1100:Drivers/lvgl/src/draw/sw/blend/lv_draw_sw_blend_to_i1.c **** {
 5196              		.loc 1 1100 44 view .LVU1643
 5197              	.LBB681:
1102:Drivers/lvgl/src/draw/sw/blend/lv_draw_sw_blend_to_i1.c **** }
 5198              		.loc 1 1102 5 view .LVU1644
1102:Drivers/lvgl/src/draw/sw/blend/lv_draw_sw_blend_to_i1.c **** }
 5199              		.loc 1 1102 12 is_stmt 0 view .LVU1645
 5200 024e 019B     		ldr	r3, [sp, #4]
 5201 0250 9B44     		add	fp, fp, r3
ARM GAS  /tmp/cc9ag92L.s 			page 136


 5202              	.LVL548:
1102:Drivers/lvgl/src/draw/sw/blend/lv_draw_sw_blend_to_i1.c **** }
 5203              		.loc 1 1102 12 view .LVU1646
 5204              	.LBE681:
 5205              	.LBE682:
 771:Drivers/lvgl/src/draw/sw/blend/lv_draw_sw_blend_to_i1.c ****                     mask_buf += mask_stride;
 5206              		.loc 1 771 21 is_stmt 1 view .LVU1647
 5207              	.LBB683:
 5208              	.LBI683:
1100:Drivers/lvgl/src/draw/sw/blend/lv_draw_sw_blend_to_i1.c **** {
 5209              		.loc 1 1100 44 view .LVU1648
 5210              	.LBB684:
1102:Drivers/lvgl/src/draw/sw/blend/lv_draw_sw_blend_to_i1.c **** }
 5211              		.loc 1 1102 5 view .LVU1649
1102:Drivers/lvgl/src/draw/sw/blend/lv_draw_sw_blend_to_i1.c **** }
 5212              		.loc 1 1102 12 is_stmt 0 view .LVU1650
 5213 0252 029B     		ldr	r3, [sp, #8]
 5214 0254 1E44     		add	r6, r6, r3
 5215              	.LVL549:
1102:Drivers/lvgl/src/draw/sw/blend/lv_draw_sw_blend_to_i1.c **** }
 5216              		.loc 1 1102 12 view .LVU1651
 5217              	.LBE684:
 5218              	.LBE683:
 772:Drivers/lvgl/src/draw/sw/blend/lv_draw_sw_blend_to_i1.c ****                 }
 5219              		.loc 1 772 21 is_stmt 1 view .LVU1652
 772:Drivers/lvgl/src/draw/sw/blend/lv_draw_sw_blend_to_i1.c ****                 }
 5220              		.loc 1 772 30 is_stmt 0 view .LVU1653
 5221 0256 069B     		ldr	r3, [sp, #24]
 5222 0258 9944     		add	r9, r9, r3
 5223              	.LVL550:
 758:Drivers/lvgl/src/draw/sw/blend/lv_draw_sw_blend_to_i1.c ****                     for(x = 0; x < w; x++) {
 5224              		.loc 1 758 36 is_stmt 1 discriminator 2 view .LVU1654
 5225 025a 0134     		adds	r4, r4, #1
 5226              	.LVL551:
 5227              	.L297:
 758:Drivers/lvgl/src/draw/sw/blend/lv_draw_sw_blend_to_i1.c ****                     for(x = 0; x < w; x++) {
 5228              		.loc 1 758 30 discriminator 1 view .LVU1655
 5229 025c 009B     		ldr	r3, [sp]
 5230 025e 9C42     		cmp	r4, r3
 5231 0260 BFF609AF 		bge	.L280
 759:Drivers/lvgl/src/draw/sw/blend/lv_draw_sw_blend_to_i1.c ****                         uint8_t src = lv_color32_luminance(src_buf_c32[x]);
 5232              		.loc 1 759 27 is_stmt 0 view .LVU1656
 5233 0264 4FF00008 		mov	r8, #0
 5234 0268 0594     		str	r4, [sp, #20]
 5235 026a B7E7     		b	.L303
 5236              	.LVL552:
 5237              	.L320:
 758:Drivers/lvgl/src/draw/sw/blend/lv_draw_sw_blend_to_i1.c ****                     for(x = 0; x < w; x++) {
 5238              		.loc 1 758 23 view .LVU1657
 5239 026c 0024     		movs	r4, #0
 5240 026e CDF80C90 		str	r9, [sp, #12]
 5241 0272 D946     		mov	r9, fp
 5242              	.LVL553:
 758:Drivers/lvgl/src/draw/sw/blend/lv_draw_sw_blend_to_i1.c ****                     for(x = 0; x < w; x++) {
 5243              		.loc 1 758 23 view .LVU1658
 5244 0274 AB46     		mov	fp, r5
 5245              	.LVL554:
ARM GAS  /tmp/cc9ag92L.s 			page 137


 758:Drivers/lvgl/src/draw/sw/blend/lv_draw_sw_blend_to_i1.c ****                     for(x = 0; x < w; x++) {
 5246              		.loc 1 758 23 view .LVU1659
 5247 0276 0693     		str	r3, [sp, #24]
 5248 0278 0491     		str	r1, [sp, #16]
 5249 027a EFE7     		b	.L297
 5250              	.LVL555:
 5251              	.L339:
 5252              	.LBB685:
 5253              	.LBB686:
 5254              	.LBB687:
 5255              		.loc 1 1117 25 view .LVU1660
 5256 027c EF1D     		adds	r7, r5, #7
 5257 027e 14E0     		b	.L305
 5258              	.LVL556:
 5259              	.L340:
 5260              		.loc 1 1117 25 view .LVU1661
 5261              	.LBE687:
 5262              	.LBE686:
 784:Drivers/lvgl/src/draw/sw/blend/lv_draw_sw_blend_to_i1.c ****                         }
 5263              		.loc 1 784 29 is_stmt 1 view .LVU1662
 5264              	.LBB689:
 5265              	.LBI689:
1105:Drivers/lvgl/src/draw/sw/blend/lv_draw_sw_blend_to_i1.c **** {
 5266              		.loc 1 1105 42 view .LVU1663
 5267              	.LBB690:
1107:Drivers/lvgl/src/draw/sw/blend/lv_draw_sw_blend_to_i1.c **** }
 5268              		.loc 1 1107 5 view .LVU1664
1107:Drivers/lvgl/src/draw/sw/blend/lv_draw_sw_blend_to_i1.c **** }
 5269              		.loc 1 1107 8 is_stmt 0 view .LVU1665
 5270 0280 F35D     		ldrb	r3, [r6, r7]	@ zero_extendqisi2
1107:Drivers/lvgl/src/draw/sw/blend/lv_draw_sw_blend_to_i1.c **** }
 5271              		.loc 1 1107 28 view .LVU1666
 5272 0282 0122     		movs	r2, #1
 5273 0284 AA40     		lsls	r2, r2, r5
1107:Drivers/lvgl/src/draw/sw/blend/lv_draw_sw_blend_to_i1.c **** }
 5274              		.loc 1 1107 22 view .LVU1667
 5275 0286 1343     		orrs	r3, r3, r2
 5276 0288 F355     		strb	r3, [r6, r7]
 5277              	.LVL557:
 5278              	.L307:
1107:Drivers/lvgl/src/draw/sw/blend/lv_draw_sw_blend_to_i1.c **** }
 5279              		.loc 1 1107 22 view .LVU1668
 5280              	.LBE690:
 5281              	.LBE689:
 5282              	.LBE685:
 779:Drivers/lvgl/src/draw/sw/blend/lv_draw_sw_blend_to_i1.c ****                         uint8_t src = lv_color32_luminance(src_buf_c32[x]);
 5283              		.loc 1 779 40 is_stmt 1 discriminator 2 view .LVU1669
 5284 028a 0134     		adds	r4, r4, #1
 5285              	.LVL558:
 5286              	.L309:
 779:Drivers/lvgl/src/draw/sw/blend/lv_draw_sw_blend_to_i1.c ****                         uint8_t src = lv_color32_luminance(src_buf_c32[x]);
 5287              		.loc 1 779 34 discriminator 1 view .LVU1670
 5288 028c 039B     		ldr	r3, [sp, #12]
 5289 028e 9C42     		cmp	r4, r3
 5290 0290 34DA     		bge	.L338
 5291              	.LBB694:
 780:Drivers/lvgl/src/draw/sw/blend/lv_draw_sw_blend_to_i1.c ****                         uint8_t dest = get_bit(dest_buf_i1, x + bit_ofs) * 255;
ARM GAS  /tmp/cc9ag92L.s 			page 138


 5292              		.loc 1 780 25 view .LVU1671
 780:Drivers/lvgl/src/draw/sw/blend/lv_draw_sw_blend_to_i1.c ****                         uint8_t dest = get_bit(dest_buf_i1, x + bit_ofs) * 255;
 5293              		.loc 1 780 71 is_stmt 0 view .LVU1672
 5294 0292 A346     		mov	fp, r4
 5295 0294 0AEB8408 		add	r8, r10, r4, lsl #2
 780:Drivers/lvgl/src/draw/sw/blend/lv_draw_sw_blend_to_i1.c ****                         uint8_t dest = get_bit(dest_buf_i1, x + bit_ofs) * 255;
 5296              		.loc 1 780 39 view .LVU1673
 5297 0298 5AF82400 		ldr	r0, [r10, r4, lsl #2]	@ unaligned
 5298 029c FFF7FEFF 		bl	lv_color32_luminance
 5299              	.LVL559:
 781:Drivers/lvgl/src/draw/sw/blend/lv_draw_sw_blend_to_i1.c ****                         lv_color_8_8_mix(src, &dest, LV_OPA_MIX3(opa, mask_buf[x], src_buf_c32[x].a
 5300              		.loc 1 781 25 is_stmt 1 view .LVU1674
 781:Drivers/lvgl/src/draw/sw/blend/lv_draw_sw_blend_to_i1.c ****                         lv_color_8_8_mix(src, &dest, LV_OPA_MIX3(opa, mask_buf[x], src_buf_c32[x].a
 5301              		.loc 1 781 40 is_stmt 0 view .LVU1675
 5302 02a0 059B     		ldr	r3, [sp, #20]
 5303 02a2 E518     		adds	r5, r4, r3
 5304              	.LVL560:
 5305              	.LBB691:
 5306              	.LBI686:
1115:Drivers/lvgl/src/draw/sw/blend/lv_draw_sw_blend_to_i1.c **** {
 5307              		.loc 1 1115 45 is_stmt 1 view .LVU1676
 5308              	.LBB688:
 5309              		.loc 1 1117 5 view .LVU1677
 5310              		.loc 1 1117 25 is_stmt 0 view .LVU1678
 5311 02a4 2F46     		mov	r7, r5
 5312 02a6 002D     		cmp	r5, #0
 5313 02a8 E8DB     		blt	.L339
 5314              	.L305:
 5315              		.loc 1 1117 25 view .LVU1679
 5316 02aa FF10     		asrs	r7, r7, #3
 5317              		.loc 1 1117 16 view .LVU1680
 5318 02ac F35D     		ldrb	r3, [r6, r7]	@ zero_extendqisi2
 5319              		.loc 1 1117 47 view .LVU1681
 5320 02ae 6A42     		rsbs	r2, r5, #0
 5321 02b0 05F00705 		and	r5, r5, #7
 5322              	.LVL561:
 5323              		.loc 1 1117 47 view .LVU1682
 5324 02b4 02F00702 		and	r2, r2, #7
 5325 02b8 58BF     		it	pl
 5326 02ba 5542     		rsbpl	r5, r2, #0
 5327              		.loc 1 1117 36 view .LVU1683
 5328 02bc C5F10705 		rsb	r5, r5, #7
 5329              		.loc 1 1117 30 view .LVU1684
 5330 02c0 2B41     		asrs	r3, r3, r5
 5331              	.LVL562:
 5332              		.loc 1 1117 30 view .LVU1685
 5333              	.LBE688:
 5334              	.LBE691:
 781:Drivers/lvgl/src/draw/sw/blend/lv_draw_sw_blend_to_i1.c ****                         lv_color_8_8_mix(src, &dest, LV_OPA_MIX3(opa, mask_buf[x], src_buf_c32[x].a
 5335              		.loc 1 781 33 discriminator 1 view .LVU1686
 5336 02c2 43F30003 		sbfx	r3, r3, #0, #1
 5337 02c6 8DF82430 		strb	r3, [sp, #36]
 782:Drivers/lvgl/src/draw/sw/blend/lv_draw_sw_blend_to_i1.c ****                         if(dest > I1_LUM_THRESHOLD) {
 5338              		.loc 1 782 25 is_stmt 1 view .LVU1687
 782:Drivers/lvgl/src/draw/sw/blend/lv_draw_sw_blend_to_i1.c ****                         if(dest > I1_LUM_THRESHOLD) {
 5339              		.loc 1 782 54 is_stmt 0 view .LVU1688
 5340 02ca 19F80B20 		ldrb	r2, [r9, fp]	@ zero_extendqisi2
ARM GAS  /tmp/cc9ag92L.s 			page 139


 5341 02ce 049B     		ldr	r3, [sp, #16]
 5342 02d0 03FB02F2 		mul	r2, r3, r2
 5343 02d4 98F80330 		ldrb	r3, [r8, #3]	@ zero_extendqisi2
 5344 02d8 03FB02F2 		mul	r2, r3, r2
 782:Drivers/lvgl/src/draw/sw/blend/lv_draw_sw_blend_to_i1.c ****                         if(dest > I1_LUM_THRESHOLD) {
 5345              		.loc 1 782 25 view .LVU1689
 5346 02dc 120C     		lsrs	r2, r2, #16
 5347 02de 09A9     		add	r1, sp, #36
 5348 02e0 FFF7FEFF 		bl	lv_color_8_8_mix
 5349              	.LVL563:
 783:Drivers/lvgl/src/draw/sw/blend/lv_draw_sw_blend_to_i1.c ****                             set_bit(dest_buf_i1, x + bit_ofs);
 5350              		.loc 1 783 25 is_stmt 1 view .LVU1690
 783:Drivers/lvgl/src/draw/sw/blend/lv_draw_sw_blend_to_i1.c ****                             set_bit(dest_buf_i1, x + bit_ofs);
 5351              		.loc 1 783 33 is_stmt 0 view .LVU1691
 5352 02e4 9DF92430 		ldrsb	r3, [sp, #36]
 783:Drivers/lvgl/src/draw/sw/blend/lv_draw_sw_blend_to_i1.c ****                             set_bit(dest_buf_i1, x + bit_ofs);
 5353              		.loc 1 783 27 view .LVU1692
 5354 02e8 002B     		cmp	r3, #0
 5355 02ea C9DB     		blt	.L340
 787:Drivers/lvgl/src/draw/sw/blend/lv_draw_sw_blend_to_i1.c ****                         }
 5356              		.loc 1 787 29 is_stmt 1 view .LVU1693
 5357              	.LVL564:
 5358              	.LBB692:
 5359              	.LBI692:
1110:Drivers/lvgl/src/draw/sw/blend/lv_draw_sw_blend_to_i1.c **** {
 5360              		.loc 1 1110 42 view .LVU1694
 5361              	.LBB693:
1112:Drivers/lvgl/src/draw/sw/blend/lv_draw_sw_blend_to_i1.c **** }
 5362              		.loc 1 1112 5 view .LVU1695
1112:Drivers/lvgl/src/draw/sw/blend/lv_draw_sw_blend_to_i1.c **** }
 5363              		.loc 1 1112 8 is_stmt 0 view .LVU1696
 5364 02ec F25D     		ldrb	r2, [r6, r7]	@ zero_extendqisi2
1112:Drivers/lvgl/src/draw/sw/blend/lv_draw_sw_blend_to_i1.c **** }
 5365              		.loc 1 1112 29 view .LVU1697
 5366 02ee 0123     		movs	r3, #1
 5367 02f0 AB40     		lsls	r3, r3, r5
1112:Drivers/lvgl/src/draw/sw/blend/lv_draw_sw_blend_to_i1.c **** }
 5368              		.loc 1 1112 22 view .LVU1698
 5369 02f2 DB43     		mvns	r3, r3
 5370 02f4 5BB2     		sxtb	r3, r3
 5371 02f6 1340     		ands	r3, r3, r2
 5372 02f8 F355     		strb	r3, [r6, r7]
 5373              	.LVL565:
1113:Drivers/lvgl/src/draw/sw/blend/lv_draw_sw_blend_to_i1.c **** 
 5374              		.loc 1 1113 1 view .LVU1699
 5375 02fa C6E7     		b	.L307
 5376              	.LVL566:
 5377              	.L338:
1113:Drivers/lvgl/src/draw/sw/blend/lv_draw_sw_blend_to_i1.c **** 
 5378              		.loc 1 1113 1 view .LVU1700
 5379              	.LBE693:
 5380              	.LBE692:
 5381              	.LBE694:
 5382              	.LBB695:
 5383              	.LBB696:
1102:Drivers/lvgl/src/draw/sw/blend/lv_draw_sw_blend_to_i1.c **** }
 5384              		.loc 1 1102 12 view .LVU1701
ARM GAS  /tmp/cc9ag92L.s 			page 140


 5385 02fc 069D     		ldr	r5, [sp, #24]
 5386              	.LBE696:
 5387              	.LBE695:
 790:Drivers/lvgl/src/draw/sw/blend/lv_draw_sw_blend_to_i1.c ****                     src_buf_c32 = drawbuf_next_row(src_buf_c32, src_stride);
 5388              		.loc 1 790 21 is_stmt 1 view .LVU1702
 5389              	.LVL567:
 5390              	.LBB698:
 5391              	.LBI695:
1100:Drivers/lvgl/src/draw/sw/blend/lv_draw_sw_blend_to_i1.c **** {
 5392              		.loc 1 1100 44 view .LVU1703
 5393              	.LBB697:
1102:Drivers/lvgl/src/draw/sw/blend/lv_draw_sw_blend_to_i1.c **** }
 5394              		.loc 1 1102 5 view .LVU1704
1102:Drivers/lvgl/src/draw/sw/blend/lv_draw_sw_blend_to_i1.c **** }
 5395              		.loc 1 1102 12 is_stmt 0 view .LVU1705
 5396 02fe 019B     		ldr	r3, [sp, #4]
 5397 0300 1E44     		add	r6, r6, r3
 5398              	.LVL568:
1102:Drivers/lvgl/src/draw/sw/blend/lv_draw_sw_blend_to_i1.c **** }
 5399              		.loc 1 1102 12 view .LVU1706
 5400              	.LBE697:
 5401              	.LBE698:
 791:Drivers/lvgl/src/draw/sw/blend/lv_draw_sw_blend_to_i1.c ****                     mask_buf += mask_stride;
 5402              		.loc 1 791 21 is_stmt 1 view .LVU1707
 5403              	.LBB699:
 5404              	.LBI699:
1100:Drivers/lvgl/src/draw/sw/blend/lv_draw_sw_blend_to_i1.c **** {
 5405              		.loc 1 1100 44 view .LVU1708
 5406              	.LBB700:
1102:Drivers/lvgl/src/draw/sw/blend/lv_draw_sw_blend_to_i1.c **** }
 5407              		.loc 1 1102 5 view .LVU1709
1102:Drivers/lvgl/src/draw/sw/blend/lv_draw_sw_blend_to_i1.c **** }
 5408              		.loc 1 1102 12 is_stmt 0 view .LVU1710
 5409 0302 029B     		ldr	r3, [sp, #8]
 5410 0304 9A44     		add	r10, r10, r3
 5411              	.LVL569:
1102:Drivers/lvgl/src/draw/sw/blend/lv_draw_sw_blend_to_i1.c **** }
 5412              		.loc 1 1102 12 view .LVU1711
 5413              	.LBE700:
 5414              	.LBE699:
 792:Drivers/lvgl/src/draw/sw/blend/lv_draw_sw_blend_to_i1.c ****                 }
 5415              		.loc 1 792 21 is_stmt 1 view .LVU1712
 792:Drivers/lvgl/src/draw/sw/blend/lv_draw_sw_blend_to_i1.c ****                 }
 5416              		.loc 1 792 30 is_stmt 0 view .LVU1713
 5417 0306 079B     		ldr	r3, [sp, #28]
 5418 0308 9944     		add	r9, r9, r3
 5419              	.LVL570:
 778:Drivers/lvgl/src/draw/sw/blend/lv_draw_sw_blend_to_i1.c ****                     for(x = 0; x < w; x++) {
 5420              		.loc 1 778 36 is_stmt 1 discriminator 2 view .LVU1714
 5421 030a 0135     		adds	r5, r5, #1
 5422              	.LVL571:
 5423              	.L304:
 778:Drivers/lvgl/src/draw/sw/blend/lv_draw_sw_blend_to_i1.c ****                     for(x = 0; x < w; x++) {
 5424              		.loc 1 778 30 discriminator 1 view .LVU1715
 5425 030c 009B     		ldr	r3, [sp]
 5426 030e 9D42     		cmp	r5, r3
 5427 0310 BFF6B1AE 		bge	.L280
ARM GAS  /tmp/cc9ag92L.s 			page 141


 779:Drivers/lvgl/src/draw/sw/blend/lv_draw_sw_blend_to_i1.c ****                         uint8_t src = lv_color32_luminance(src_buf_c32[x]);
 5428              		.loc 1 779 27 is_stmt 0 view .LVU1716
 5429 0314 0024     		movs	r4, #0
 5430 0316 0695     		str	r5, [sp, #24]
 5431 0318 B8E7     		b	.L309
 5432              	.LVL572:
 5433              	.L322:
 778:Drivers/lvgl/src/draw/sw/blend/lv_draw_sw_blend_to_i1.c ****                     for(x = 0; x < w; x++) {
 5434              		.loc 1 778 23 view .LVU1717
 5435 031a 0024     		movs	r4, #0
 5436 031c CDF80C90 		str	r9, [sp, #12]
 5437 0320 D946     		mov	r9, fp
 5438              	.LVL573:
 778:Drivers/lvgl/src/draw/sw/blend/lv_draw_sw_blend_to_i1.c ****                     for(x = 0; x < w; x++) {
 5439              		.loc 1 778 23 view .LVU1718
 5440 0322 CDF810A0 		str	r10, [sp, #16]
 5441 0326 B246     		mov	r10, r6
 5442              	.LVL574:
 778:Drivers/lvgl/src/draw/sw/blend/lv_draw_sw_blend_to_i1.c ****                     for(x = 0; x < w; x++) {
 5443              		.loc 1 778 23 view .LVU1719
 5444 0328 2E46     		mov	r6, r5
 5445              	.LVL575:
 778:Drivers/lvgl/src/draw/sw/blend/lv_draw_sw_blend_to_i1.c ****                     for(x = 0; x < w; x++) {
 5446              		.loc 1 778 23 view .LVU1720
 5447 032a 2546     		mov	r5, r4
 5448              	.LVL576:
 778:Drivers/lvgl/src/draw/sw/blend/lv_draw_sw_blend_to_i1.c ****                     for(x = 0; x < w; x++) {
 5449              		.loc 1 778 23 view .LVU1721
 5450 032c 0793     		str	r3, [sp, #28]
 5451 032e 0591     		str	r1, [sp, #20]
 5452 0330 ECE7     		b	.L304
 5453              	.LVL577:
 5454              	.L310:
 5455              	.LBB701:
 802:Drivers/lvgl/src/draw/sw/blend/lv_draw_sw_blend_to_i1.c ****                 blend_non_normal_pixel(dest_buf_i1, x + bit_ofs, color_argb, dsc->blend_mode);
 5456              		.loc 1 802 22 is_stmt 1 view .LVU1722
 802:Drivers/lvgl/src/draw/sw/blend/lv_draw_sw_blend_to_i1.c ****                 blend_non_normal_pixel(dest_buf_i1, x + bit_ofs, color_argb, dsc->blend_mode);
 5457              		.loc 1 802 41 is_stmt 0 view .LVU1723
 5458 0332 9DF82730 		ldrb	r3, [sp, #39]	@ zero_extendqisi2
 5459 0336 325D     		ldrb	r2, [r6, r4]	@ zero_extendqisi2
 5460 0338 02FB03F3 		mul	r3, r2, r3
 5461 033c 03FB0AF3 		mul	r3, r3, r10
 5462 0340 1B0C     		lsrs	r3, r3, #16
 802:Drivers/lvgl/src/draw/sw/blend/lv_draw_sw_blend_to_i1.c ****                 blend_non_normal_pixel(dest_buf_i1, x + bit_ofs, color_argb, dsc->blend_mode);
 5463              		.loc 1 802 39 view .LVU1724
 5464 0342 8DF82730 		strb	r3, [sp, #39]
 5465              	.L311:
 803:Drivers/lvgl/src/draw/sw/blend/lv_draw_sw_blend_to_i1.c ****             }
 5466              		.loc 1 803 17 is_stmt 1 view .LVU1725
 5467 0346 97F82230 		ldrb	r3, [r7, #34]	@ zero_extendqisi2
 5468 034a 099A     		ldr	r2, [sp, #36]
 5469 034c 6119     		adds	r1, r4, r5
 5470 034e 5846     		mov	r0, fp
 5471 0350 FFF7FEFF 		bl	blend_non_normal_pixel
 5472              	.LVL578:
 5473              	.LBE701:
 799:Drivers/lvgl/src/draw/sw/blend/lv_draw_sw_blend_to_i1.c ****                 lv_color32_t color_argb = src_buf_c32[x];
ARM GAS  /tmp/cc9ag92L.s 			page 142


 5474              		.loc 1 799 32 discriminator 2 view .LVU1726
 5475 0354 0134     		adds	r4, r4, #1
 5476              	.LVL579:
 5477              	.L314:
 799:Drivers/lvgl/src/draw/sw/blend/lv_draw_sw_blend_to_i1.c ****                 lv_color32_t color_argb = src_buf_c32[x];
 5478              		.loc 1 799 26 discriminator 1 view .LVU1727
 5479 0356 4C45     		cmp	r4, r9
 5480 0358 0CDA     		bge	.L341
 5481              	.LBB702:
 800:Drivers/lvgl/src/draw/sw/blend/lv_draw_sw_blend_to_i1.c ****                 if(mask_buf == NULL) color_argb.alpha = LV_OPA_MIX2(color_argb.alpha, opa);
 5482              		.loc 1 800 17 view .LVU1728
 800:Drivers/lvgl/src/draw/sw/blend/lv_draw_sw_blend_to_i1.c ****                 if(mask_buf == NULL) color_argb.alpha = LV_OPA_MIX2(color_argb.alpha, opa);
 5483              		.loc 1 800 30 is_stmt 0 view .LVU1729
 5484 035a 58F82400 		ldr	r0, [r8, r4, lsl #2]	@ unaligned
 5485 035e 0990     		str	r0, [sp, #36]
 801:Drivers/lvgl/src/draw/sw/blend/lv_draw_sw_blend_to_i1.c ****                 else color_argb.alpha = LV_OPA_MIX3(color_argb.alpha, mask_buf[x], opa);
 5486              		.loc 1 801 17 is_stmt 1 view .LVU1730
 801:Drivers/lvgl/src/draw/sw/blend/lv_draw_sw_blend_to_i1.c ****                 else color_argb.alpha = LV_OPA_MIX3(color_argb.alpha, mask_buf[x], opa);
 5487              		.loc 1 801 19 is_stmt 0 view .LVU1731
 5488 0360 002E     		cmp	r6, #0
 5489 0362 E6D1     		bne	.L310
 801:Drivers/lvgl/src/draw/sw/blend/lv_draw_sw_blend_to_i1.c ****                 else color_argb.alpha = LV_OPA_MIX3(color_argb.alpha, mask_buf[x], opa);
 5490              		.loc 1 801 38 is_stmt 1 discriminator 1 view .LVU1732
 801:Drivers/lvgl/src/draw/sw/blend/lv_draw_sw_blend_to_i1.c ****                 else color_argb.alpha = LV_OPA_MIX3(color_argb.alpha, mask_buf[x], opa);
 5491              		.loc 1 801 57 is_stmt 0 discriminator 1 view .LVU1733
 5492 0364 9DF82730 		ldrb	r3, [sp, #39]	@ zero_extendqisi2
 5493 0368 03FB0AF3 		mul	r3, r3, r10
 5494 036c 1B0A     		lsrs	r3, r3, #8
 801:Drivers/lvgl/src/draw/sw/blend/lv_draw_sw_blend_to_i1.c ****                 else color_argb.alpha = LV_OPA_MIX3(color_argb.alpha, mask_buf[x], opa);
 5495              		.loc 1 801 55 discriminator 1 view .LVU1734
 5496 036e 8DF82730 		strb	r3, [sp, #39]
 5497 0372 E8E7     		b	.L311
 5498              	.L341:
 801:Drivers/lvgl/src/draw/sw/blend/lv_draw_sw_blend_to_i1.c ****                 else color_argb.alpha = LV_OPA_MIX3(color_argb.alpha, mask_buf[x], opa);
 5499              		.loc 1 801 55 discriminator 1 view .LVU1735
 5500              	.LBE702:
 805:Drivers/lvgl/src/draw/sw/blend/lv_draw_sw_blend_to_i1.c ****             dest_buf_i1 = drawbuf_next_row(dest_buf_i1, dest_stride);
 5501              		.loc 1 805 15 view .LVU1736
 5502 0374 DDF80CC0 		ldr	ip, [sp, #12]
 805:Drivers/lvgl/src/draw/sw/blend/lv_draw_sw_blend_to_i1.c ****             dest_buf_i1 = drawbuf_next_row(dest_buf_i1, dest_stride);
 5503              		.loc 1 805 13 is_stmt 1 view .LVU1737
 805:Drivers/lvgl/src/draw/sw/blend/lv_draw_sw_blend_to_i1.c ****             dest_buf_i1 = drawbuf_next_row(dest_buf_i1, dest_stride);
 5504              		.loc 1 805 15 is_stmt 0 view .LVU1738
 5505 0378 0EB1     		cbz	r6, .L313
 805:Drivers/lvgl/src/draw/sw/blend/lv_draw_sw_blend_to_i1.c ****             dest_buf_i1 = drawbuf_next_row(dest_buf_i1, dest_stride);
 5506              		.loc 1 805 26 is_stmt 1 discriminator 1 view .LVU1739
 805:Drivers/lvgl/src/draw/sw/blend/lv_draw_sw_blend_to_i1.c ****             dest_buf_i1 = drawbuf_next_row(dest_buf_i1, dest_stride);
 5507              		.loc 1 805 35 is_stmt 0 discriminator 1 view .LVU1740
 5508 037a 049B     		ldr	r3, [sp, #16]
 5509 037c 1E44     		add	r6, r6, r3
 5510              	.LVL580:
 5511              	.L313:
 806:Drivers/lvgl/src/draw/sw/blend/lv_draw_sw_blend_to_i1.c ****             src_buf_c32 = drawbuf_next_row(src_buf_c32, src_stride);
 5512              		.loc 1 806 13 is_stmt 1 view .LVU1741
 5513              	.LBB703:
 5514              	.LBI703:
1100:Drivers/lvgl/src/draw/sw/blend/lv_draw_sw_blend_to_i1.c **** {
ARM GAS  /tmp/cc9ag92L.s 			page 143


 5515              		.loc 1 1100 44 view .LVU1742
 5516              	.LBB704:
1102:Drivers/lvgl/src/draw/sw/blend/lv_draw_sw_blend_to_i1.c **** }
 5517              		.loc 1 1102 5 view .LVU1743
1102:Drivers/lvgl/src/draw/sw/blend/lv_draw_sw_blend_to_i1.c **** }
 5518              		.loc 1 1102 12 is_stmt 0 view .LVU1744
 5519 037e 019B     		ldr	r3, [sp, #4]
 5520 0380 9B44     		add	fp, fp, r3
 5521              	.LVL581:
1102:Drivers/lvgl/src/draw/sw/blend/lv_draw_sw_blend_to_i1.c **** }
 5522              		.loc 1 1102 12 view .LVU1745
 5523              	.LBE704:
 5524              	.LBE703:
 807:Drivers/lvgl/src/draw/sw/blend/lv_draw_sw_blend_to_i1.c ****         }
 5525              		.loc 1 807 13 is_stmt 1 view .LVU1746
 5526              	.LBB705:
 5527              	.LBI705:
1100:Drivers/lvgl/src/draw/sw/blend/lv_draw_sw_blend_to_i1.c **** {
 5528              		.loc 1 1100 44 view .LVU1747
 5529              	.LBB706:
1102:Drivers/lvgl/src/draw/sw/blend/lv_draw_sw_blend_to_i1.c **** }
 5530              		.loc 1 1102 5 view .LVU1748
1102:Drivers/lvgl/src/draw/sw/blend/lv_draw_sw_blend_to_i1.c **** }
 5531              		.loc 1 1102 12 is_stmt 0 view .LVU1749
 5532 0382 029B     		ldr	r3, [sp, #8]
 5533 0384 9844     		add	r8, r8, r3
 5534              	.LVL582:
1102:Drivers/lvgl/src/draw/sw/blend/lv_draw_sw_blend_to_i1.c **** }
 5535              		.loc 1 1102 12 view .LVU1750
 5536              	.LBE706:
 5537              	.LBE705:
 798:Drivers/lvgl/src/draw/sw/blend/lv_draw_sw_blend_to_i1.c ****             for(x = 0; x < w; x++) {
 5538              		.loc 1 798 28 is_stmt 1 discriminator 2 view .LVU1751
 5539 0386 0CF1010C 		add	ip, ip, #1
 5540              	.LVL583:
 5541              	.L281:
 798:Drivers/lvgl/src/draw/sw/blend/lv_draw_sw_blend_to_i1.c ****             for(x = 0; x < w; x++) {
 5542              		.loc 1 798 22 discriminator 1 view .LVU1752
 5543 038a 009B     		ldr	r3, [sp]
 5544 038c 9C45     		cmp	ip, r3
 5545 038e BFF672AE 		bge	.L280
 799:Drivers/lvgl/src/draw/sw/blend/lv_draw_sw_blend_to_i1.c ****                 lv_color32_t color_argb = src_buf_c32[x];
 5546              		.loc 1 799 19 is_stmt 0 view .LVU1753
 5547 0392 0024     		movs	r4, #0
 5548 0394 CDF80CC0 		str	ip, [sp, #12]
 5549 0398 DDE7     		b	.L314
 5550              	.LVL584:
 5551              	.L315:
 799:Drivers/lvgl/src/draw/sw/blend/lv_draw_sw_blend_to_i1.c ****                 lv_color32_t color_argb = src_buf_c32[x];
 5552              		.loc 1 799 19 view .LVU1754
 5553 039a 0746     		mov	r7, r0
 798:Drivers/lvgl/src/draw/sw/blend/lv_draw_sw_blend_to_i1.c ****             for(x = 0; x < w; x++) {
 5554              		.loc 1 798 15 view .LVU1755
 5555 039c 4FF00008 		mov	r8, #0
 5556 03a0 C446     		mov	ip, r8
 5557 03a2 B046     		mov	r8, r6
 5558 03a4 5E46     		mov	r6, fp
ARM GAS  /tmp/cc9ag92L.s 			page 144


 5559              	.LVL585:
 798:Drivers/lvgl/src/draw/sw/blend/lv_draw_sw_blend_to_i1.c ****             for(x = 0; x < w; x++) {
 5560              		.loc 1 798 15 view .LVU1756
 5561 03a6 AB46     		mov	fp, r5
 5562              	.LVL586:
 798:Drivers/lvgl/src/draw/sw/blend/lv_draw_sw_blend_to_i1.c ****             for(x = 0; x < w; x++) {
 5563              		.loc 1 798 15 view .LVU1757
 5564 03a8 0493     		str	r3, [sp, #16]
 5565 03aa 0D46     		mov	r5, r1
 5566              	.LVL587:
 798:Drivers/lvgl/src/draw/sw/blend/lv_draw_sw_blend_to_i1.c ****             for(x = 0; x < w; x++) {
 5567              		.loc 1 798 15 view .LVU1758
 5568 03ac EDE7     		b	.L281
 5569              		.cfi_endproc
 5570              	.LFE191:
 5572              		.section	.text.rgb888_image_blend,"ax",%progbits
 5573              		.align	1
 5574              		.syntax unified
 5575              		.thumb
 5576              		.thumb_func
 5578              	rgb888_image_blend:
 5579              	.LVL588:
 5580              	.LFB192:
 816:Drivers/lvgl/src/draw/sw/blend/lv_draw_sw_blend_to_i1.c ****     int32_t w = dsc->dest_w;
 5581              		.loc 1 816 1 is_stmt 1 view -0
 5582              		.cfi_startproc
 5583              		@ args = 0, pretend = 0, frame = 48
 5584              		@ frame_needed = 0, uses_anonymous_args = 0
 816:Drivers/lvgl/src/draw/sw/blend/lv_draw_sw_blend_to_i1.c ****     int32_t w = dsc->dest_w;
 5585              		.loc 1 816 1 is_stmt 0 view .LVU1760
 5586 0000 2DE9F04F 		push	{r4, r5, r6, r7, r8, r9, r10, fp, lr}
 5587              	.LCFI24:
 5588              		.cfi_def_cfa_offset 36
 5589              		.cfi_offset 4, -36
 5590              		.cfi_offset 5, -32
 5591              		.cfi_offset 6, -28
 5592              		.cfi_offset 7, -24
 5593              		.cfi_offset 8, -20
 5594              		.cfi_offset 9, -16
 5595              		.cfi_offset 10, -12
 5596              		.cfi_offset 11, -8
 5597              		.cfi_offset 14, -4
 5598 0004 8DB0     		sub	sp, sp, #52
 5599              	.LCFI25:
 5600              		.cfi_def_cfa_offset 88
 5601 0006 8146     		mov	r9, r0
 5602 0008 0191     		str	r1, [sp, #4]
 817:Drivers/lvgl/src/draw/sw/blend/lv_draw_sw_blend_to_i1.c ****     int32_t h = dsc->dest_h;
 5603              		.loc 1 817 5 is_stmt 1 view .LVU1761
 817:Drivers/lvgl/src/draw/sw/blend/lv_draw_sw_blend_to_i1.c ****     int32_t h = dsc->dest_h;
 5604              		.loc 1 817 13 is_stmt 0 view .LVU1762
 5605 000a D0F80480 		ldr	r8, [r0, #4]
 5606              	.LVL589:
 818:Drivers/lvgl/src/draw/sw/blend/lv_draw_sw_blend_to_i1.c ****     lv_opa_t opa = dsc->opa;
 5607              		.loc 1 818 5 is_stmt 1 view .LVU1763
 818:Drivers/lvgl/src/draw/sw/blend/lv_draw_sw_blend_to_i1.c ****     lv_opa_t opa = dsc->opa;
 5608              		.loc 1 818 13 is_stmt 0 view .LVU1764
ARM GAS  /tmp/cc9ag92L.s 			page 145


 5609 000e D0F808E0 		ldr	lr, [r0, #8]
 5610              	.LVL590:
 819:Drivers/lvgl/src/draw/sw/blend/lv_draw_sw_blend_to_i1.c ****     uint8_t * dest_buf_i1 = dsc->dest_buf;
 5611              		.loc 1 819 5 is_stmt 1 view .LVU1765
 819:Drivers/lvgl/src/draw/sw/blend/lv_draw_sw_blend_to_i1.c ****     uint8_t * dest_buf_i1 = dsc->dest_buf;
 5612              		.loc 1 819 14 is_stmt 0 view .LVU1766
 5613 0012 90F821B0 		ldrb	fp, [r0, #33]	@ zero_extendqisi2
 5614              	.LVL591:
 820:Drivers/lvgl/src/draw/sw/blend/lv_draw_sw_blend_to_i1.c ****     int32_t dest_stride = dsc->dest_stride;
 5615              		.loc 1 820 5 is_stmt 1 view .LVU1767
 820:Drivers/lvgl/src/draw/sw/blend/lv_draw_sw_blend_to_i1.c ****     int32_t dest_stride = dsc->dest_stride;
 5616              		.loc 1 820 15 is_stmt 0 view .LVU1768
 5617 0016 0568     		ldr	r5, [r0]
 5618              	.LVL592:
 821:Drivers/lvgl/src/draw/sw/blend/lv_draw_sw_blend_to_i1.c ****     const uint8_t * src_buf_rgb888 = dsc->src_buf;
 5619              		.loc 1 821 5 is_stmt 1 view .LVU1769
 821:Drivers/lvgl/src/draw/sw/blend/lv_draw_sw_blend_to_i1.c ****     const uint8_t * src_buf_rgb888 = dsc->src_buf;
 5620              		.loc 1 821 13 is_stmt 0 view .LVU1770
 5621 0018 D0F80CC0 		ldr	ip, [r0, #12]
 5622              	.LVL593:
 822:Drivers/lvgl/src/draw/sw/blend/lv_draw_sw_blend_to_i1.c ****     int32_t src_stride = dsc->src_stride;
 5623              		.loc 1 822 5 is_stmt 1 view .LVU1771
 822:Drivers/lvgl/src/draw/sw/blend/lv_draw_sw_blend_to_i1.c ****     int32_t src_stride = dsc->src_stride;
 5624              		.loc 1 822 21 is_stmt 0 view .LVU1772
 5625 001c 8769     		ldr	r7, [r0, #24]
 5626              	.LVL594:
 823:Drivers/lvgl/src/draw/sw/blend/lv_draw_sw_blend_to_i1.c ****     const lv_opa_t * mask_buf = dsc->mask_buf;
 5627              		.loc 1 823 5 is_stmt 1 view .LVU1773
 823:Drivers/lvgl/src/draw/sw/blend/lv_draw_sw_blend_to_i1.c ****     const lv_opa_t * mask_buf = dsc->mask_buf;
 5628              		.loc 1 823 13 is_stmt 0 view .LVU1774
 5629 001e C369     		ldr	r3, [r0, #28]
 5630 0020 0393     		str	r3, [sp, #12]
 5631              	.LVL595:
 824:Drivers/lvgl/src/draw/sw/blend/lv_draw_sw_blend_to_i1.c ****     int32_t mask_stride = dsc->mask_stride;
 5632              		.loc 1 824 5 is_stmt 1 view .LVU1775
 824:Drivers/lvgl/src/draw/sw/blend/lv_draw_sw_blend_to_i1.c ****     int32_t mask_stride = dsc->mask_stride;
 5633              		.loc 1 824 22 is_stmt 0 view .LVU1776
 5634 0022 0169     		ldr	r1, [r0, #16]
 5635              	.LVL596:
 825:Drivers/lvgl/src/draw/sw/blend/lv_draw_sw_blend_to_i1.c **** 
 5636              		.loc 1 825 5 is_stmt 1 view .LVU1777
 825:Drivers/lvgl/src/draw/sw/blend/lv_draw_sw_blend_to_i1.c **** 
 5637              		.loc 1 825 13 is_stmt 0 view .LVU1778
 5638 0024 4269     		ldr	r2, [r0, #20]
 5639              	.LVL597:
 827:Drivers/lvgl/src/draw/sw/blend/lv_draw_sw_blend_to_i1.c ****     int32_t src_x;
 5640              		.loc 1 827 5 is_stmt 1 view .LVU1779
 828:Drivers/lvgl/src/draw/sw/blend/lv_draw_sw_blend_to_i1.c ****     int32_t y;
 5641              		.loc 1 828 5 view .LVU1780
 829:Drivers/lvgl/src/draw/sw/blend/lv_draw_sw_blend_to_i1.c **** 
 5642              		.loc 1 829 5 view .LVU1781
 832:Drivers/lvgl/src/draw/sw/blend/lv_draw_sw_blend_to_i1.c **** 
 5643              		.loc 1 832 5 view .LVU1782
 832:Drivers/lvgl/src/draw/sw/blend/lv_draw_sw_blend_to_i1.c **** 
 5644              		.loc 1 832 41 is_stmt 0 view .LVU1783
 5645 0026 436A     		ldr	r3, [r0, #36]
 5646              	.LVL598:
ARM GAS  /tmp/cc9ag92L.s 			page 146


 832:Drivers/lvgl/src/draw/sw/blend/lv_draw_sw_blend_to_i1.c **** 
 5647              		.loc 1 832 13 view .LVU1784
 5648 0028 5842     		rsbs	r0, r3, #0
 5649              	.LVL599:
 832:Drivers/lvgl/src/draw/sw/blend/lv_draw_sw_blend_to_i1.c **** 
 5650              		.loc 1 832 13 view .LVU1785
 5651 002a 03F00703 		and	r3, r3, #7
 5652 002e 00F00700 		and	r0, r0, #7
 5653 0032 58BF     		it	pl
 5654 0034 4342     		rsbpl	r3, r0, #0
 5655              	.LVL600:
 834:Drivers/lvgl/src/draw/sw/blend/lv_draw_sw_blend_to_i1.c ****         /*Special case*/
 5656              		.loc 1 834 5 is_stmt 1 view .LVU1786
 834:Drivers/lvgl/src/draw/sw/blend/lv_draw_sw_blend_to_i1.c ****         /*Special case*/
 5657              		.loc 1 834 11 is_stmt 0 view .LVU1787
 5658 0036 99F82200 		ldrb	r0, [r9, #34]	@ zero_extendqisi2
 834:Drivers/lvgl/src/draw/sw/blend/lv_draw_sw_blend_to_i1.c ****         /*Special case*/
 5659              		.loc 1 834 7 view .LVU1788
 5660 003a 0028     		cmp	r0, #0
 5661 003c 40F0BD81 		bne	.L342
 836:Drivers/lvgl/src/draw/sw/blend/lv_draw_sw_blend_to_i1.c ****             if(LV_RESULT_INVALID == LV_DRAW_SW_RGB888_BLEND_NORMAL_TO_I1(dsc)) {
 5662              		.loc 1 836 9 is_stmt 1 view .LVU1789
 836:Drivers/lvgl/src/draw/sw/blend/lv_draw_sw_blend_to_i1.c ****             if(LV_RESULT_INVALID == LV_DRAW_SW_RGB888_BLEND_NORMAL_TO_I1(dsc)) {
 5663              		.loc 1 836 21 is_stmt 0 view .LVU1790
 5664 0040 B1FA81F0 		clz	r0, r1
 5665 0044 4009     		lsrs	r0, r0, #5
 836:Drivers/lvgl/src/draw/sw/blend/lv_draw_sw_blend_to_i1.c ****             if(LV_RESULT_INVALID == LV_DRAW_SW_RGB888_BLEND_NORMAL_TO_I1(dsc)) {
 5666              		.loc 1 836 36 view .LVU1791
 5667 0046 BBF1FC0F 		cmp	fp, #252
 5668 004a 94BF     		ite	ls
 5669 004c 0024     		movls	r4, #0
 5670 004e 0124     		movhi	r4, #1
 836:Drivers/lvgl/src/draw/sw/blend/lv_draw_sw_blend_to_i1.c ****             if(LV_RESULT_INVALID == LV_DRAW_SW_RGB888_BLEND_NORMAL_TO_I1(dsc)) {
 5671              		.loc 1 836 11 view .LVU1792
 5672 0050 2042     		tst	r0, r4
 5673 0052 66D1     		bne	.L378
 853:Drivers/lvgl/src/draw/sw/blend/lv_draw_sw_blend_to_i1.c ****             if(LV_RESULT_INVALID == LV_DRAW_SW_RGB888_BLEND_NORMAL_TO_I1_WITH_OPA(dsc)) {
 5674              		.loc 1 853 14 is_stmt 1 view .LVU1793
 853:Drivers/lvgl/src/draw/sw/blend/lv_draw_sw_blend_to_i1.c ****             if(LV_RESULT_INVALID == LV_DRAW_SW_RGB888_BLEND_NORMAL_TO_I1_WITH_OPA(dsc)) {
 5675              		.loc 1 853 41 is_stmt 0 view .LVU1794
 5676 0054 BBF1FC0F 		cmp	fp, #252
 5677 0058 8CBF     		ite	hi
 5678 005a 0026     		movhi	r6, #0
 5679 005c 0126     		movls	r6, #1
 853:Drivers/lvgl/src/draw/sw/blend/lv_draw_sw_blend_to_i1.c ****             if(LV_RESULT_INVALID == LV_DRAW_SW_RGB888_BLEND_NORMAL_TO_I1_WITH_OPA(dsc)) {
 5680              		.loc 1 853 16 view .LVU1795
 5681 005e 3042     		tst	r0, r6
 5682 0060 40F0B680 		bne	.L380
 872:Drivers/lvgl/src/draw/sw/blend/lv_draw_sw_blend_to_i1.c ****             if(LV_RESULT_INVALID == LV_DRAW_SW_RGB888_BLEND_NORMAL_TO_I1_WITH_MASK(dsc)) {
 5683              		.loc 1 872 14 is_stmt 1 view .LVU1796
 872:Drivers/lvgl/src/draw/sw/blend/lv_draw_sw_blend_to_i1.c ****             if(LV_RESULT_INVALID == LV_DRAW_SW_RGB888_BLEND_NORMAL_TO_I1_WITH_MASK(dsc)) {
 5684              		.loc 1 872 17 is_stmt 0 view .LVU1797
 5685 0064 081E     		subs	r0, r1, #0
 5686 0066 18BF     		it	ne
 5687 0068 0120     		movne	r0, #1
 872:Drivers/lvgl/src/draw/sw/blend/lv_draw_sw_blend_to_i1.c ****             if(LV_RESULT_INVALID == LV_DRAW_SW_RGB888_BLEND_NORMAL_TO_I1_WITH_MASK(dsc)) {
 5688              		.loc 1 872 16 view .LVU1798
ARM GAS  /tmp/cc9ag92L.s 			page 147


 5689 006a 0442     		tst	r4, r0
 5690 006c 40F00781 		bne	.L382
 893:Drivers/lvgl/src/draw/sw/blend/lv_draw_sw_blend_to_i1.c ****             if(LV_RESULT_INVALID == LV_DRAW_SW_RGB888_BLEND_NORMAL_TO_I1_MIX_MASK_OPA(dsc)) {
 5691              		.loc 1 893 14 is_stmt 1 view .LVU1799
 893:Drivers/lvgl/src/draw/sw/blend/lv_draw_sw_blend_to_i1.c ****             if(LV_RESULT_INVALID == LV_DRAW_SW_RGB888_BLEND_NORMAL_TO_I1_MIX_MASK_OPA(dsc)) {
 5692              		.loc 1 893 16 is_stmt 0 view .LVU1800
 5693 0070 0642     		tst	r6, r0
 5694 0072 40F05F81 		bne	.L384
 5695              	.LBB707:
 916:Drivers/lvgl/src/draw/sw/blend/lv_draw_sw_blend_to_i1.c ****                 for(dest_x = 0, src_x = 0; dest_x < w; dest_x++, src_x += src_px_size) {
 5696              		.loc 1 916 19 view .LVU1801
 5697 0076 4FF0000A 		mov	r10, #0
 5698 007a 5046     		mov	r0, r10
 5699 007c AA46     		mov	r10, r5
 5700 007e 0D46     		mov	r5, r1
 5701              	.LVL601:
 916:Drivers/lvgl/src/draw/sw/blend/lv_draw_sw_blend_to_i1.c ****                 for(dest_x = 0, src_x = 0; dest_x < w; dest_x++, src_x += src_px_size) {
 5702              		.loc 1 916 19 view .LVU1802
 5703 0080 CDF814E0 		str	lr, [sp, #20]
 5704 0084 CDF808B0 		str	fp, [sp, #8]
 5705 0088 CDF818C0 		str	ip, [sp, #24]
 5706 008c 0792     		str	r2, [sp, #28]
 5707 008e 9B46     		mov	fp, r3
 5708              	.LVL602:
 916:Drivers/lvgl/src/draw/sw/blend/lv_draw_sw_blend_to_i1.c ****                 for(dest_x = 0, src_x = 0; dest_x < w; dest_x++, src_x += src_px_size) {
 5709              		.loc 1 916 19 view .LVU1803
 5710 0090 8CE1     		b	.L367
 5711              	.LVL603:
 5712              	.L393:
 916:Drivers/lvgl/src/draw/sw/blend/lv_draw_sw_blend_to_i1.c ****                 for(dest_x = 0, src_x = 0; dest_x < w; dest_x++, src_x += src_px_size) {
 5713              		.loc 1 916 19 view .LVU1804
 5714              	.LBE707:
 5715              	.LBB712:
 842:Drivers/lvgl/src/draw/sw/blend/lv_draw_sw_blend_to_i1.c ****                         }
 5716              		.loc 1 842 29 is_stmt 1 view .LVU1805
 5717 0092 04EB0B03 		add	r3, r4, fp
 5718              	.LVL604:
 5719              	.LBB713:
 5720              	.LBI713:
1105:Drivers/lvgl/src/draw/sw/blend/lv_draw_sw_blend_to_i1.c **** {
 5721              		.loc 1 1105 42 view .LVU1806
 5722              	.LBB714:
1107:Drivers/lvgl/src/draw/sw/blend/lv_draw_sw_blend_to_i1.c **** }
 5723              		.loc 1 1107 5 view .LVU1807
1107:Drivers/lvgl/src/draw/sw/blend/lv_draw_sw_blend_to_i1.c **** }
 5724              		.loc 1 1107 17 is_stmt 0 view .LVU1808
 5725 0096 1A46     		mov	r2, r3
 5726 0098 002B     		cmp	r3, #0
 5727 009a 10DB     		blt	.L391
 5728              	.L347:
1107:Drivers/lvgl/src/draw/sw/blend/lv_draw_sw_blend_to_i1.c **** }
 5729              		.loc 1 1107 17 view .LVU1809
 5730 009c D210     		asrs	r2, r2, #3
1107:Drivers/lvgl/src/draw/sw/blend/lv_draw_sw_blend_to_i1.c **** }
 5731              		.loc 1 1107 8 view .LVU1810
 5732 009e A95C     		ldrb	r1, [r5, r2]	@ zero_extendqisi2
1107:Drivers/lvgl/src/draw/sw/blend/lv_draw_sw_blend_to_i1.c **** }
ARM GAS  /tmp/cc9ag92L.s 			page 148


 5733              		.loc 1 1107 45 view .LVU1811
 5734 00a0 5842     		rsbs	r0, r3, #0
 5735              	.LVL605:
1107:Drivers/lvgl/src/draw/sw/blend/lv_draw_sw_blend_to_i1.c **** }
 5736              		.loc 1 1107 45 view .LVU1812
 5737 00a2 03F00703 		and	r3, r3, #7
 5738              	.LVL606:
1107:Drivers/lvgl/src/draw/sw/blend/lv_draw_sw_blend_to_i1.c **** }
 5739              		.loc 1 1107 45 view .LVU1813
 5740 00a6 00F00700 		and	r0, r0, #7
 5741 00aa 58BF     		it	pl
 5742 00ac 4342     		rsbpl	r3, r0, #0
1107:Drivers/lvgl/src/draw/sw/blend/lv_draw_sw_blend_to_i1.c **** }
 5743              		.loc 1 1107 34 view .LVU1814
 5744 00ae C3F10703 		rsb	r3, r3, #7
1107:Drivers/lvgl/src/draw/sw/blend/lv_draw_sw_blend_to_i1.c **** }
 5745              		.loc 1 1107 28 view .LVU1815
 5746 00b2 0120     		movs	r0, #1
 5747 00b4 00FA03F3 		lsl	r3, r0, r3
1107:Drivers/lvgl/src/draw/sw/blend/lv_draw_sw_blend_to_i1.c **** }
 5748              		.loc 1 1107 22 view .LVU1816
 5749 00b8 0B43     		orrs	r3, r3, r1
 5750 00ba AB54     		strb	r3, [r5, r2]
 5751              	.LVL607:
1108:Drivers/lvgl/src/draw/sw/blend/lv_draw_sw_blend_to_i1.c **** 
 5752              		.loc 1 1108 1 view .LVU1817
 5753 00bc 13E0     		b	.L348
 5754              	.LVL608:
 5755              	.L391:
1107:Drivers/lvgl/src/draw/sw/blend/lv_draw_sw_blend_to_i1.c **** }
 5756              		.loc 1 1107 17 view .LVU1818
 5757 00be DA1D     		adds	r2, r3, #7
 5758              	.LVL609:
1107:Drivers/lvgl/src/draw/sw/blend/lv_draw_sw_blend_to_i1.c **** }
 5759              		.loc 1 1107 17 view .LVU1819
 5760 00c0 ECE7     		b	.L347
 5761              	.LVL610:
 5762              	.L349:
1107:Drivers/lvgl/src/draw/sw/blend/lv_draw_sw_blend_to_i1.c **** }
 5763              		.loc 1 1107 17 view .LVU1820
 5764              	.LBE714:
 5765              	.LBE713:
 5766              	.LBB715:
 5767              	.LBB716:
1112:Drivers/lvgl/src/draw/sw/blend/lv_draw_sw_blend_to_i1.c **** }
 5768              		.loc 1 1112 17 view .LVU1821
 5769 00c2 D210     		asrs	r2, r2, #3
1112:Drivers/lvgl/src/draw/sw/blend/lv_draw_sw_blend_to_i1.c **** }
 5770              		.loc 1 1112 8 view .LVU1822
 5771 00c4 A95C     		ldrb	r1, [r5, r2]	@ zero_extendqisi2
1112:Drivers/lvgl/src/draw/sw/blend/lv_draw_sw_blend_to_i1.c **** }
 5772              		.loc 1 1112 46 view .LVU1823
 5773 00c6 5842     		rsbs	r0, r3, #0
 5774              	.LVL611:
1112:Drivers/lvgl/src/draw/sw/blend/lv_draw_sw_blend_to_i1.c **** }
 5775              		.loc 1 1112 46 view .LVU1824
 5776 00c8 03F00703 		and	r3, r3, #7
ARM GAS  /tmp/cc9ag92L.s 			page 149


 5777              	.LVL612:
1112:Drivers/lvgl/src/draw/sw/blend/lv_draw_sw_blend_to_i1.c **** }
 5778              		.loc 1 1112 46 view .LVU1825
 5779 00cc 00F00700 		and	r0, r0, #7
 5780 00d0 58BF     		it	pl
 5781 00d2 4342     		rsbpl	r3, r0, #0
1112:Drivers/lvgl/src/draw/sw/blend/lv_draw_sw_blend_to_i1.c **** }
 5782              		.loc 1 1112 35 view .LVU1826
 5783 00d4 C3F10703 		rsb	r3, r3, #7
1112:Drivers/lvgl/src/draw/sw/blend/lv_draw_sw_blend_to_i1.c **** }
 5784              		.loc 1 1112 29 view .LVU1827
 5785 00d8 0120     		movs	r0, #1
 5786 00da 00FA03F3 		lsl	r3, r0, r3
1112:Drivers/lvgl/src/draw/sw/blend/lv_draw_sw_blend_to_i1.c **** }
 5787              		.loc 1 1112 22 view .LVU1828
 5788 00de DB43     		mvns	r3, r3
 5789 00e0 5BB2     		sxtb	r3, r3
 5790 00e2 1940     		ands	r1, r1, r3
 5791 00e4 A954     		strb	r1, [r5, r2]
 5792              	.LVL613:
 5793              	.L348:
1112:Drivers/lvgl/src/draw/sw/blend/lv_draw_sw_blend_to_i1.c **** }
 5794              		.loc 1 1112 22 view .LVU1829
 5795              	.LBE716:
 5796              	.LBE715:
 5797              	.LBE712:
 839:Drivers/lvgl/src/draw/sw/blend/lv_draw_sw_blend_to_i1.c ****                         uint8_t src = lv_color24_luminance(&src_buf_rgb888[src_x]);
 5798              		.loc 1 839 68 is_stmt 1 discriminator 2 view .LVU1830
 839:Drivers/lvgl/src/draw/sw/blend/lv_draw_sw_blend_to_i1.c ****                         uint8_t src = lv_color24_luminance(&src_buf_rgb888[src_x]);
 5799              		.loc 1 839 66 is_stmt 0 discriminator 2 view .LVU1831
 5800 00e6 0134     		adds	r4, r4, #1
 5801              	.LVL614:
 839:Drivers/lvgl/src/draw/sw/blend/lv_draw_sw_blend_to_i1.c ****                         uint8_t src = lv_color24_luminance(&src_buf_rgb888[src_x]);
 5802              		.loc 1 839 76 discriminator 2 view .LVU1832
 5803 00e8 4E44     		add	r6, r6, r9
 5804              	.LVL615:
 5805              	.L351:
 839:Drivers/lvgl/src/draw/sw/blend/lv_draw_sw_blend_to_i1.c ****                         uint8_t src = lv_color24_luminance(&src_buf_rgb888[src_x]);
 5806              		.loc 1 839 55 is_stmt 1 discriminator 1 view .LVU1833
 5807 00ea 4445     		cmp	r4, r8
 5808 00ec 0DDA     		bge	.L392
 5809              	.LBB719:
 840:Drivers/lvgl/src/draw/sw/blend/lv_draw_sw_blend_to_i1.c ****                         if(src > I1_LUM_THRESHOLD) {
 5810              		.loc 1 840 25 view .LVU1834
 840:Drivers/lvgl/src/draw/sw/blend/lv_draw_sw_blend_to_i1.c ****                         if(src > I1_LUM_THRESHOLD) {
 5811              		.loc 1 840 39 is_stmt 0 view .LVU1835
 5812 00ee 0AEB0600 		add	r0, r10, r6
 5813 00f2 FFF7FEFF 		bl	lv_color24_luminance
 5814              	.LVL616:
 841:Drivers/lvgl/src/draw/sw/blend/lv_draw_sw_blend_to_i1.c ****                             set_bit(dest_buf_i1, dest_x + bit_ofs);
 5815              		.loc 1 841 25 is_stmt 1 view .LVU1836
 841:Drivers/lvgl/src/draw/sw/blend/lv_draw_sw_blend_to_i1.c ****                             set_bit(dest_buf_i1, dest_x + bit_ofs);
 5816              		.loc 1 841 27 is_stmt 0 view .LVU1837
 5817 00f6 10F0800F 		tst	r0, #128
 5818 00fa CAD1     		bne	.L393
 845:Drivers/lvgl/src/draw/sw/blend/lv_draw_sw_blend_to_i1.c ****                         }
 5819              		.loc 1 845 29 is_stmt 1 view .LVU1838
ARM GAS  /tmp/cc9ag92L.s 			page 150


 5820 00fc 04EB0B03 		add	r3, r4, fp
 5821              	.LVL617:
 5822              	.LBB718:
 5823              	.LBI715:
1110:Drivers/lvgl/src/draw/sw/blend/lv_draw_sw_blend_to_i1.c **** {
 5824              		.loc 1 1110 42 view .LVU1839
 5825              	.LBB717:
1112:Drivers/lvgl/src/draw/sw/blend/lv_draw_sw_blend_to_i1.c **** }
 5826              		.loc 1 1112 5 view .LVU1840
1112:Drivers/lvgl/src/draw/sw/blend/lv_draw_sw_blend_to_i1.c **** }
 5827              		.loc 1 1112 17 is_stmt 0 view .LVU1841
 5828 0100 1A46     		mov	r2, r3
 5829 0102 002B     		cmp	r3, #0
 5830 0104 DDDA     		bge	.L349
1112:Drivers/lvgl/src/draw/sw/blend/lv_draw_sw_blend_to_i1.c **** }
 5831              		.loc 1 1112 17 view .LVU1842
 5832 0106 DA1D     		adds	r2, r3, #7
 5833 0108 DBE7     		b	.L349
 5834              	.LVL618:
 5835              	.L392:
1112:Drivers/lvgl/src/draw/sw/blend/lv_draw_sw_blend_to_i1.c **** }
 5836              		.loc 1 1112 17 view .LVU1843
 5837              	.LBE717:
 5838              	.LBE718:
 5839              	.LBE719:
 848:Drivers/lvgl/src/draw/sw/blend/lv_draw_sw_blend_to_i1.c ****                     src_buf_rgb888 = drawbuf_next_row(src_buf_rgb888, src_stride);
 5840              		.loc 1 848 21 is_stmt 1 view .LVU1844
 5841              	.LBB720:
 5842              	.LBI720:
1100:Drivers/lvgl/src/draw/sw/blend/lv_draw_sw_blend_to_i1.c **** {
 5843              		.loc 1 1100 44 view .LVU1845
 5844              	.LBB721:
1102:Drivers/lvgl/src/draw/sw/blend/lv_draw_sw_blend_to_i1.c **** }
 5845              		.loc 1 1102 5 view .LVU1846
1102:Drivers/lvgl/src/draw/sw/blend/lv_draw_sw_blend_to_i1.c **** }
 5846              		.loc 1 1102 12 is_stmt 0 view .LVU1847
 5847 010a 049B     		ldr	r3, [sp, #16]
 5848 010c 1D44     		add	r5, r5, r3
 5849              	.LVL619:
1102:Drivers/lvgl/src/draw/sw/blend/lv_draw_sw_blend_to_i1.c **** }
 5850              		.loc 1 1102 12 view .LVU1848
 5851              	.LBE721:
 5852              	.LBE720:
 849:Drivers/lvgl/src/draw/sw/blend/lv_draw_sw_blend_to_i1.c ****                 }
 5853              		.loc 1 849 21 is_stmt 1 view .LVU1849
 5854              	.LBB722:
 5855              	.LBI722:
1100:Drivers/lvgl/src/draw/sw/blend/lv_draw_sw_blend_to_i1.c **** {
 5856              		.loc 1 1100 44 view .LVU1850
 5857              	.LBB723:
1102:Drivers/lvgl/src/draw/sw/blend/lv_draw_sw_blend_to_i1.c **** }
 5858              		.loc 1 1102 5 view .LVU1851
1102:Drivers/lvgl/src/draw/sw/blend/lv_draw_sw_blend_to_i1.c **** }
 5859              		.loc 1 1102 12 is_stmt 0 view .LVU1852
 5860 010e 039B     		ldr	r3, [sp, #12]
 5861 0110 9A44     		add	r10, r10, r3
 5862              	.LVL620:
ARM GAS  /tmp/cc9ag92L.s 			page 151


1102:Drivers/lvgl/src/draw/sw/blend/lv_draw_sw_blend_to_i1.c **** }
 5863              		.loc 1 1102 12 view .LVU1853
 5864              	.LBE723:
 5865              	.LBE722:
 838:Drivers/lvgl/src/draw/sw/blend/lv_draw_sw_blend_to_i1.c ****                     for(dest_x = 0, src_x = 0; dest_x < w; dest_x++, src_x += src_px_size) {
 5866              		.loc 1 838 36 is_stmt 1 discriminator 2 view .LVU1854
 5867 0112 0137     		adds	r7, r7, #1
 5868              	.LVL621:
 5869              	.L344:
 838:Drivers/lvgl/src/draw/sw/blend/lv_draw_sw_blend_to_i1.c ****                     for(dest_x = 0, src_x = 0; dest_x < w; dest_x++, src_x += src_px_size) {
 5870              		.loc 1 838 30 discriminator 1 view .LVU1855
 5871 0114 029B     		ldr	r3, [sp, #8]
 5872 0116 9F42     		cmp	r7, r3
 5873 0118 80F24F81 		bge	.L342
 839:Drivers/lvgl/src/draw/sw/blend/lv_draw_sw_blend_to_i1.c ****                         uint8_t src = lv_color24_luminance(&src_buf_rgb888[src_x]);
 5874              		.loc 1 839 43 is_stmt 0 view .LVU1856
 5875 011c 0026     		movs	r6, #0
 839:Drivers/lvgl/src/draw/sw/blend/lv_draw_sw_blend_to_i1.c ****                         uint8_t src = lv_color24_luminance(&src_buf_rgb888[src_x]);
 5876              		.loc 1 839 32 view .LVU1857
 5877 011e 3446     		mov	r4, r6
 5878 0120 E3E7     		b	.L351
 5879              	.LVL622:
 5880              	.L378:
 838:Drivers/lvgl/src/draw/sw/blend/lv_draw_sw_blend_to_i1.c ****                     for(dest_x = 0, src_x = 0; dest_x < w; dest_x++, src_x += src_px_size) {
 5881              		.loc 1 838 23 view .LVU1858
 5882 0122 4FF0000A 		mov	r10, #0
 5883 0126 5246     		mov	r2, r10
 5884              	.LVL623:
 838:Drivers/lvgl/src/draw/sw/blend/lv_draw_sw_blend_to_i1.c ****                     for(dest_x = 0, src_x = 0; dest_x < w; dest_x++, src_x += src_px_size) {
 5885              		.loc 1 838 23 view .LVU1859
 5886 0128 BA46     		mov	r10, r7
 5887 012a CDF808E0 		str	lr, [sp, #8]
 5888 012e CDF810C0 		str	ip, [sp, #16]
 5889 0132 9B46     		mov	fp, r3
 5890              	.LVL624:
 838:Drivers/lvgl/src/draw/sw/blend/lv_draw_sw_blend_to_i1.c ****                     for(dest_x = 0, src_x = 0; dest_x < w; dest_x++, src_x += src_px_size) {
 5891              		.loc 1 838 23 view .LVU1860
 5892 0134 DDF80490 		ldr	r9, [sp, #4]
 5893              	.LVL625:
 838:Drivers/lvgl/src/draw/sw/blend/lv_draw_sw_blend_to_i1.c ****                     for(dest_x = 0, src_x = 0; dest_x < w; dest_x++, src_x += src_px_size) {
 5894              		.loc 1 838 23 view .LVU1861
 5895 0138 1746     		mov	r7, r2
 5896              	.LVL626:
 838:Drivers/lvgl/src/draw/sw/blend/lv_draw_sw_blend_to_i1.c ****                     for(dest_x = 0, src_x = 0; dest_x < w; dest_x++, src_x += src_px_size) {
 5897              		.loc 1 838 23 view .LVU1862
 5898 013a EBE7     		b	.L344
 5899              	.LVL627:
 5900              	.L395:
 5901              	.LBB724:
 5902              	.LBB725:
 5903              	.LBB726:
 5904              		.loc 1 1117 25 view .LVU1863
 5905 013c F71D     		adds	r7, r6, #7
 5906 013e 15E0     		b	.L354
 5907              	.LVL628:
 5908              	.L396:
 5909              		.loc 1 1117 25 view .LVU1864
ARM GAS  /tmp/cc9ag92L.s 			page 152


 5910              	.LBE726:
 5911              	.LBE725:
 861:Drivers/lvgl/src/draw/sw/blend/lv_draw_sw_blend_to_i1.c ****                         }
 5912              		.loc 1 861 29 is_stmt 1 view .LVU1865
 5913              	.LBB728:
 5914              	.LBI728:
1105:Drivers/lvgl/src/draw/sw/blend/lv_draw_sw_blend_to_i1.c **** {
 5915              		.loc 1 1105 42 view .LVU1866
 5916              	.LBB729:
1107:Drivers/lvgl/src/draw/sw/blend/lv_draw_sw_blend_to_i1.c **** }
 5917              		.loc 1 1107 5 view .LVU1867
1107:Drivers/lvgl/src/draw/sw/blend/lv_draw_sw_blend_to_i1.c **** }
 5918              		.loc 1 1107 8 is_stmt 0 view .LVU1868
 5919 0140 1BF80730 		ldrb	r3, [fp, r7]	@ zero_extendqisi2
1107:Drivers/lvgl/src/draw/sw/blend/lv_draw_sw_blend_to_i1.c **** }
 5920              		.loc 1 1107 28 view .LVU1869
 5921 0144 0122     		movs	r2, #1
 5922 0146 B240     		lsls	r2, r2, r6
1107:Drivers/lvgl/src/draw/sw/blend/lv_draw_sw_blend_to_i1.c **** }
 5923              		.loc 1 1107 22 view .LVU1870
 5924 0148 1343     		orrs	r3, r3, r2
 5925 014a 0BF80730 		strb	r3, [fp, r7]
 5926              	.LVL629:
 5927              	.L356:
1107:Drivers/lvgl/src/draw/sw/blend/lv_draw_sw_blend_to_i1.c **** }
 5928              		.loc 1 1107 22 view .LVU1871
 5929              	.LBE729:
 5930              	.LBE728:
 5931              	.LBE724:
 856:Drivers/lvgl/src/draw/sw/blend/lv_draw_sw_blend_to_i1.c ****                         uint8_t src = lv_color24_luminance(&src_buf_rgb888[src_x]);
 5932              		.loc 1 856 68 is_stmt 1 discriminator 2 view .LVU1872
 856:Drivers/lvgl/src/draw/sw/blend/lv_draw_sw_blend_to_i1.c ****                         uint8_t src = lv_color24_luminance(&src_buf_rgb888[src_x]);
 5933              		.loc 1 856 66 is_stmt 0 discriminator 2 view .LVU1873
 5934 014e 09F10109 		add	r9, r9, #1
 5935              	.LVL630:
 856:Drivers/lvgl/src/draw/sw/blend/lv_draw_sw_blend_to_i1.c ****                         uint8_t src = lv_color24_luminance(&src_buf_rgb888[src_x]);
 5936              		.loc 1 856 76 discriminator 2 view .LVU1874
 5937 0152 019B     		ldr	r3, [sp, #4]
 5938 0154 9A44     		add	r10, r10, r3
 5939              	.LVL631:
 5940              	.L358:
 856:Drivers/lvgl/src/draw/sw/blend/lv_draw_sw_blend_to_i1.c ****                         uint8_t src = lv_color24_luminance(&src_buf_rgb888[src_x]);
 5941              		.loc 1 856 55 is_stmt 1 discriminator 1 view .LVU1875
 5942 0156 C145     		cmp	r9, r8
 5943 0158 2BDA     		bge	.L394
 5944              	.LBB733:
 857:Drivers/lvgl/src/draw/sw/blend/lv_draw_sw_blend_to_i1.c ****                         uint8_t dest = get_bit(dest_buf_i1, dest_x + bit_ofs) * 255;
 5945              		.loc 1 857 25 view .LVU1876
 857:Drivers/lvgl/src/draw/sw/blend/lv_draw_sw_blend_to_i1.c ****                         uint8_t dest = get_bit(dest_buf_i1, dest_x + bit_ofs) * 255;
 5946              		.loc 1 857 39 is_stmt 0 view .LVU1877
 5947 015a 05EB0A00 		add	r0, r5, r10
 5948 015e FFF7FEFF 		bl	lv_color24_luminance
 5949              	.LVL632:
 858:Drivers/lvgl/src/draw/sw/blend/lv_draw_sw_blend_to_i1.c ****                         lv_color_8_8_mix(src, &dest, opa);
 5950              		.loc 1 858 25 is_stmt 1 view .LVU1878
 858:Drivers/lvgl/src/draw/sw/blend/lv_draw_sw_blend_to_i1.c ****                         lv_color_8_8_mix(src, &dest, opa);
 5951              		.loc 1 858 40 is_stmt 0 view .LVU1879
ARM GAS  /tmp/cc9ag92L.s 			page 153


 5952 0162 09EB0406 		add	r6, r9, r4
 5953              	.LVL633:
 5954              	.LBB730:
 5955              	.LBI725:
1115:Drivers/lvgl/src/draw/sw/blend/lv_draw_sw_blend_to_i1.c **** {
 5956              		.loc 1 1115 45 is_stmt 1 view .LVU1880
 5957              	.LBB727:
 5958              		.loc 1 1117 5 view .LVU1881
 5959              		.loc 1 1117 25 is_stmt 0 view .LVU1882
 5960 0166 3746     		mov	r7, r6
 5961 0168 002E     		cmp	r6, #0
 5962 016a E7DB     		blt	.L395
 5963              	.L354:
 5964              		.loc 1 1117 25 view .LVU1883
 5965 016c FF10     		asrs	r7, r7, #3
 5966              		.loc 1 1117 16 view .LVU1884
 5967 016e 1BF80730 		ldrb	r3, [fp, r7]	@ zero_extendqisi2
 5968              		.loc 1 1117 47 view .LVU1885
 5969 0172 7242     		rsbs	r2, r6, #0
 5970 0174 06F00706 		and	r6, r6, #7
 5971              	.LVL634:
 5972              		.loc 1 1117 47 view .LVU1886
 5973 0178 02F00702 		and	r2, r2, #7
 5974 017c 58BF     		it	pl
 5975 017e 5642     		rsbpl	r6, r2, #0
 5976              		.loc 1 1117 36 view .LVU1887
 5977 0180 C6F10706 		rsb	r6, r6, #7
 5978              		.loc 1 1117 30 view .LVU1888
 5979 0184 3341     		asrs	r3, r3, r6
 5980              	.LVL635:
 5981              		.loc 1 1117 30 view .LVU1889
 5982              	.LBE727:
 5983              	.LBE730:
 858:Drivers/lvgl/src/draw/sw/blend/lv_draw_sw_blend_to_i1.c ****                         lv_color_8_8_mix(src, &dest, opa);
 5984              		.loc 1 858 33 discriminator 1 view .LVU1890
 5985 0186 43F30003 		sbfx	r3, r3, #0, #1
 5986 018a 8DF82C30 		strb	r3, [sp, #44]
 859:Drivers/lvgl/src/draw/sw/blend/lv_draw_sw_blend_to_i1.c ****                         if(dest > I1_LUM_THRESHOLD) {
 5987              		.loc 1 859 25 is_stmt 1 view .LVU1891
 5988 018e 029A     		ldr	r2, [sp, #8]
 5989 0190 0BA9     		add	r1, sp, #44
 5990 0192 FFF7FEFF 		bl	lv_color_8_8_mix
 5991              	.LVL636:
 860:Drivers/lvgl/src/draw/sw/blend/lv_draw_sw_blend_to_i1.c ****                             set_bit(dest_buf_i1, dest_x + bit_ofs);
 5992              		.loc 1 860 25 view .LVU1892
 860:Drivers/lvgl/src/draw/sw/blend/lv_draw_sw_blend_to_i1.c ****                             set_bit(dest_buf_i1, dest_x + bit_ofs);
 5993              		.loc 1 860 33 is_stmt 0 view .LVU1893
 5994 0196 9DF92C30 		ldrsb	r3, [sp, #44]
 860:Drivers/lvgl/src/draw/sw/blend/lv_draw_sw_blend_to_i1.c ****                             set_bit(dest_buf_i1, dest_x + bit_ofs);
 5995              		.loc 1 860 27 view .LVU1894
 5996 019a 002B     		cmp	r3, #0
 5997 019c D0DB     		blt	.L396
 864:Drivers/lvgl/src/draw/sw/blend/lv_draw_sw_blend_to_i1.c ****                         }
 5998              		.loc 1 864 29 is_stmt 1 view .LVU1895
 5999              	.LVL637:
 6000              	.LBB731:
 6001              	.LBI731:
ARM GAS  /tmp/cc9ag92L.s 			page 154


1110:Drivers/lvgl/src/draw/sw/blend/lv_draw_sw_blend_to_i1.c **** {
 6002              		.loc 1 1110 42 view .LVU1896
 6003              	.LBB732:
1112:Drivers/lvgl/src/draw/sw/blend/lv_draw_sw_blend_to_i1.c **** }
 6004              		.loc 1 1112 5 view .LVU1897
1112:Drivers/lvgl/src/draw/sw/blend/lv_draw_sw_blend_to_i1.c **** }
 6005              		.loc 1 1112 8 is_stmt 0 view .LVU1898
 6006 019e 1BF80720 		ldrb	r2, [fp, r7]	@ zero_extendqisi2
1112:Drivers/lvgl/src/draw/sw/blend/lv_draw_sw_blend_to_i1.c **** }
 6007              		.loc 1 1112 29 view .LVU1899
 6008 01a2 0123     		movs	r3, #1
 6009 01a4 B340     		lsls	r3, r3, r6
1112:Drivers/lvgl/src/draw/sw/blend/lv_draw_sw_blend_to_i1.c **** }
 6010              		.loc 1 1112 22 view .LVU1900
 6011 01a6 DB43     		mvns	r3, r3
 6012 01a8 5BB2     		sxtb	r3, r3
 6013 01aa 1340     		ands	r3, r3, r2
 6014 01ac 0BF80730 		strb	r3, [fp, r7]
 6015              	.LVL638:
1113:Drivers/lvgl/src/draw/sw/blend/lv_draw_sw_blend_to_i1.c **** 
 6016              		.loc 1 1113 1 view .LVU1901
 6017 01b0 CDE7     		b	.L356
 6018              	.LVL639:
 6019              	.L394:
1113:Drivers/lvgl/src/draw/sw/blend/lv_draw_sw_blend_to_i1.c **** 
 6020              		.loc 1 1113 1 view .LVU1902
 6021              	.LBE732:
 6022              	.LBE731:
 6023              	.LBE733:
 6024              	.LBB734:
 6025              	.LBB735:
1102:Drivers/lvgl/src/draw/sw/blend/lv_draw_sw_blend_to_i1.c **** }
 6026              		.loc 1 1102 12 view .LVU1903
 6027 01b2 049E     		ldr	r6, [sp, #16]
 6028              	.LBE735:
 6029              	.LBE734:
 867:Drivers/lvgl/src/draw/sw/blend/lv_draw_sw_blend_to_i1.c ****                     src_buf_rgb888 = drawbuf_next_row(src_buf_rgb888, src_stride);
 6030              		.loc 1 867 21 is_stmt 1 view .LVU1904
 6031              	.LVL640:
 6032              	.LBB737:
 6033              	.LBI734:
1100:Drivers/lvgl/src/draw/sw/blend/lv_draw_sw_blend_to_i1.c **** {
 6034              		.loc 1 1100 44 view .LVU1905
 6035              	.LBB736:
1102:Drivers/lvgl/src/draw/sw/blend/lv_draw_sw_blend_to_i1.c **** }
 6036              		.loc 1 1102 5 view .LVU1906
1102:Drivers/lvgl/src/draw/sw/blend/lv_draw_sw_blend_to_i1.c **** }
 6037              		.loc 1 1102 12 is_stmt 0 view .LVU1907
 6038 01b4 069B     		ldr	r3, [sp, #24]
 6039 01b6 9B44     		add	fp, fp, r3
 6040              	.LVL641:
1102:Drivers/lvgl/src/draw/sw/blend/lv_draw_sw_blend_to_i1.c **** }
 6041              		.loc 1 1102 12 view .LVU1908
 6042              	.LBE736:
 6043              	.LBE737:
 868:Drivers/lvgl/src/draw/sw/blend/lv_draw_sw_blend_to_i1.c ****                 }
 6044              		.loc 1 868 21 is_stmt 1 view .LVU1909
ARM GAS  /tmp/cc9ag92L.s 			page 155


 6045              	.LBB738:
 6046              	.LBI738:
1100:Drivers/lvgl/src/draw/sw/blend/lv_draw_sw_blend_to_i1.c **** {
 6047              		.loc 1 1100 44 view .LVU1910
 6048              	.LBB739:
1102:Drivers/lvgl/src/draw/sw/blend/lv_draw_sw_blend_to_i1.c **** }
 6049              		.loc 1 1102 5 view .LVU1911
1102:Drivers/lvgl/src/draw/sw/blend/lv_draw_sw_blend_to_i1.c **** }
 6050              		.loc 1 1102 12 is_stmt 0 view .LVU1912
 6051 01b8 039B     		ldr	r3, [sp, #12]
 6052 01ba 1D44     		add	r5, r5, r3
 6053              	.LVL642:
1102:Drivers/lvgl/src/draw/sw/blend/lv_draw_sw_blend_to_i1.c **** }
 6054              		.loc 1 1102 12 view .LVU1913
 6055              	.LBE739:
 6056              	.LBE738:
 855:Drivers/lvgl/src/draw/sw/blend/lv_draw_sw_blend_to_i1.c ****                     for(dest_x = 0, src_x = 0; dest_x < w; dest_x++, src_x += src_px_size) {
 6057              		.loc 1 855 36 is_stmt 1 discriminator 2 view .LVU1914
 6058 01bc 0136     		adds	r6, r6, #1
 6059              	.LVL643:
 6060              	.L352:
 855:Drivers/lvgl/src/draw/sw/blend/lv_draw_sw_blend_to_i1.c ****                     for(dest_x = 0, src_x = 0; dest_x < w; dest_x++, src_x += src_px_size) {
 6061              		.loc 1 855 30 discriminator 1 view .LVU1915
 6062 01be 059B     		ldr	r3, [sp, #20]
 6063 01c0 9E42     		cmp	r6, r3
 6064 01c2 80F2FA80 		bge	.L342
 856:Drivers/lvgl/src/draw/sw/blend/lv_draw_sw_blend_to_i1.c ****                         uint8_t src = lv_color24_luminance(&src_buf_rgb888[src_x]);
 6065              		.loc 1 856 43 is_stmt 0 view .LVU1916
 6066 01c6 4FF0000A 		mov	r10, #0
 856:Drivers/lvgl/src/draw/sw/blend/lv_draw_sw_blend_to_i1.c ****                         uint8_t src = lv_color24_luminance(&src_buf_rgb888[src_x]);
 6067              		.loc 1 856 32 view .LVU1917
 6068 01ca D146     		mov	r9, r10
 6069 01cc 0496     		str	r6, [sp, #16]
 6070 01ce C2E7     		b	.L358
 6071              	.LVL644:
 6072              	.L380:
 855:Drivers/lvgl/src/draw/sw/blend/lv_draw_sw_blend_to_i1.c ****                     for(dest_x = 0, src_x = 0; dest_x < w; dest_x++, src_x += src_px_size) {
 6073              		.loc 1 855 23 view .LVU1918
 6074 01d0 0024     		movs	r4, #0
 6075 01d2 2646     		mov	r6, r4
 6076 01d4 CDF814E0 		str	lr, [sp, #20]
 6077 01d8 CDF808B0 		str	fp, [sp, #8]
 6078 01dc AB46     		mov	fp, r5
 6079              	.LVL645:
 855:Drivers/lvgl/src/draw/sw/blend/lv_draw_sw_blend_to_i1.c ****                     for(dest_x = 0, src_x = 0; dest_x < w; dest_x++, src_x += src_px_size) {
 6080              		.loc 1 855 23 view .LVU1919
 6081 01de 3D46     		mov	r5, r7
 6082              	.LVL646:
 855:Drivers/lvgl/src/draw/sw/blend/lv_draw_sw_blend_to_i1.c ****                     for(dest_x = 0, src_x = 0; dest_x < w; dest_x++, src_x += src_px_size) {
 6083              		.loc 1 855 23 view .LVU1920
 6084 01e0 CDF818C0 		str	ip, [sp, #24]
 6085 01e4 1C46     		mov	r4, r3
 6086 01e6 EAE7     		b	.L352
 6087              	.LVL647:
 6088              	.L398:
 6089              	.LBB740:
 6090              	.LBB741:
ARM GAS  /tmp/cc9ag92L.s 			page 156


 6091              	.LBB742:
 6092              	.LBB743:
 6093              		.loc 1 1117 25 view .LVU1921
 6094 01e8 E71D     		adds	r7, r4, #7
 6095 01ea 15E0     		b	.L361
 6096              	.LVL648:
 6097              	.L399:
 6098              		.loc 1 1117 25 view .LVU1922
 6099              	.LBE743:
 6100              	.LBE742:
 881:Drivers/lvgl/src/draw/sw/blend/lv_draw_sw_blend_to_i1.c ****                         }
 6101              		.loc 1 881 29 is_stmt 1 view .LVU1923
 6102              	.LBB745:
 6103              	.LBI745:
1105:Drivers/lvgl/src/draw/sw/blend/lv_draw_sw_blend_to_i1.c **** {
 6104              		.loc 1 1105 42 view .LVU1924
 6105              	.LBB746:
1107:Drivers/lvgl/src/draw/sw/blend/lv_draw_sw_blend_to_i1.c **** }
 6106              		.loc 1 1107 5 view .LVU1925
1107:Drivers/lvgl/src/draw/sw/blend/lv_draw_sw_blend_to_i1.c **** }
 6107              		.loc 1 1107 8 is_stmt 0 view .LVU1926
 6108 01ec EB5D     		ldrb	r3, [r5, r7]	@ zero_extendqisi2
1107:Drivers/lvgl/src/draw/sw/blend/lv_draw_sw_blend_to_i1.c **** }
 6109              		.loc 1 1107 28 view .LVU1927
 6110 01ee 0122     		movs	r2, #1
 6111 01f0 A240     		lsls	r2, r2, r4
1107:Drivers/lvgl/src/draw/sw/blend/lv_draw_sw_blend_to_i1.c **** }
 6112              		.loc 1 1107 22 view .LVU1928
 6113 01f2 1343     		orrs	r3, r3, r2
 6114 01f4 EB55     		strb	r3, [r5, r7]
 6115              	.LVL649:
 6116              	.L363:
1107:Drivers/lvgl/src/draw/sw/blend/lv_draw_sw_blend_to_i1.c **** }
 6117              		.loc 1 1107 22 view .LVU1929
 6118              	.LBE746:
 6119              	.LBE745:
 6120              	.LBE741:
 876:Drivers/lvgl/src/draw/sw/blend/lv_draw_sw_blend_to_i1.c ****                         uint8_t src = lv_color24_luminance(&src_buf_rgb888[src_x]);
 6121              		.loc 1 876 90 is_stmt 1 discriminator 2 view .LVU1930
 876:Drivers/lvgl/src/draw/sw/blend/lv_draw_sw_blend_to_i1.c ****                         uint8_t src = lv_color24_luminance(&src_buf_rgb888[src_x]);
 6122              		.loc 1 876 78 is_stmt 0 discriminator 2 view .LVU1931
 6123 01f6 09F10109 		add	r9, r9, #1
 6124              	.LVL650:
 876:Drivers/lvgl/src/draw/sw/blend/lv_draw_sw_blend_to_i1.c ****                         uint8_t src = lv_color24_luminance(&src_buf_rgb888[src_x]);
 6125              		.loc 1 876 88 discriminator 2 view .LVU1932
 6126 01fa 0136     		adds	r6, r6, #1
 6127              	.LVL651:
 876:Drivers/lvgl/src/draw/sw/blend/lv_draw_sw_blend_to_i1.c ****                         uint8_t src = lv_color24_luminance(&src_buf_rgb888[src_x]);
 6128              		.loc 1 876 98 discriminator 2 view .LVU1933
 6129 01fc 019B     		ldr	r3, [sp, #4]
 6130 01fe 9A44     		add	r10, r10, r3
 6131              	.LVL652:
 6132              	.L365:
 876:Drivers/lvgl/src/draw/sw/blend/lv_draw_sw_blend_to_i1.c ****                         uint8_t src = lv_color24_luminance(&src_buf_rgb888[src_x]);
 6133              		.loc 1 876 67 is_stmt 1 discriminator 1 view .LVU1934
 6134 0200 029B     		ldr	r3, [sp, #8]
 6135 0202 9E42     		cmp	r6, r3
ARM GAS  /tmp/cc9ag92L.s 			page 157


 6136 0204 29DA     		bge	.L397
 6137              	.LBB750:
 877:Drivers/lvgl/src/draw/sw/blend/lv_draw_sw_blend_to_i1.c ****                         uint8_t dest = get_bit(dest_buf_i1, dest_x + bit_ofs) * 255;
 6138              		.loc 1 877 25 view .LVU1935
 877:Drivers/lvgl/src/draw/sw/blend/lv_draw_sw_blend_to_i1.c ****                         uint8_t dest = get_bit(dest_buf_i1, dest_x + bit_ofs) * 255;
 6139              		.loc 1 877 39 is_stmt 0 view .LVU1936
 6140 0206 0BEB0A00 		add	r0, fp, r10
 6141 020a FFF7FEFF 		bl	lv_color24_luminance
 6142              	.LVL653:
 878:Drivers/lvgl/src/draw/sw/blend/lv_draw_sw_blend_to_i1.c ****                         lv_color_8_8_mix(src, &dest, mask_buf[mask_x]);
 6143              		.loc 1 878 25 is_stmt 1 view .LVU1937
 878:Drivers/lvgl/src/draw/sw/blend/lv_draw_sw_blend_to_i1.c ****                         lv_color_8_8_mix(src, &dest, mask_buf[mask_x]);
 6144              		.loc 1 878 40 is_stmt 0 view .LVU1938
 6145 020e 049B     		ldr	r3, [sp, #16]
 6146 0210 F418     		adds	r4, r6, r3
 6147              	.LVL654:
 6148              	.LBB747:
 6149              	.LBI742:
1115:Drivers/lvgl/src/draw/sw/blend/lv_draw_sw_blend_to_i1.c **** {
 6150              		.loc 1 1115 45 is_stmt 1 view .LVU1939
 6151              	.LBB744:
 6152              		.loc 1 1117 5 view .LVU1940
 6153              		.loc 1 1117 25 is_stmt 0 view .LVU1941
 6154 0212 2746     		mov	r7, r4
 6155 0214 002C     		cmp	r4, #0
 6156 0216 E7DB     		blt	.L398
 6157              	.L361:
 6158              		.loc 1 1117 25 view .LVU1942
 6159 0218 FF10     		asrs	r7, r7, #3
 6160              		.loc 1 1117 16 view .LVU1943
 6161 021a EB5D     		ldrb	r3, [r5, r7]	@ zero_extendqisi2
 6162              		.loc 1 1117 47 view .LVU1944
 6163 021c 6242     		rsbs	r2, r4, #0
 6164 021e 04F00704 		and	r4, r4, #7
 6165              	.LVL655:
 6166              		.loc 1 1117 47 view .LVU1945
 6167 0222 02F00702 		and	r2, r2, #7
 6168 0226 58BF     		it	pl
 6169 0228 5442     		rsbpl	r4, r2, #0
 6170              		.loc 1 1117 36 view .LVU1946
 6171 022a C4F10704 		rsb	r4, r4, #7
 6172              		.loc 1 1117 30 view .LVU1947
 6173 022e 2341     		asrs	r3, r3, r4
 6174              	.LVL656:
 6175              		.loc 1 1117 30 view .LVU1948
 6176              	.LBE744:
 6177              	.LBE747:
 878:Drivers/lvgl/src/draw/sw/blend/lv_draw_sw_blend_to_i1.c ****                         lv_color_8_8_mix(src, &dest, mask_buf[mask_x]);
 6178              		.loc 1 878 33 discriminator 1 view .LVU1949
 6179 0230 43F30003 		sbfx	r3, r3, #0, #1
 6180 0234 8DF82C30 		strb	r3, [sp, #44]
 879:Drivers/lvgl/src/draw/sw/blend/lv_draw_sw_blend_to_i1.c ****                         if(dest > I1_LUM_THRESHOLD) {
 6181              		.loc 1 879 25 is_stmt 1 view .LVU1950
 6182 0238 18F80920 		ldrb	r2, [r8, r9]	@ zero_extendqisi2
 6183 023c 0BA9     		add	r1, sp, #44
 6184 023e FFF7FEFF 		bl	lv_color_8_8_mix
 6185              	.LVL657:
ARM GAS  /tmp/cc9ag92L.s 			page 158


 880:Drivers/lvgl/src/draw/sw/blend/lv_draw_sw_blend_to_i1.c ****                             set_bit(dest_buf_i1, dest_x + bit_ofs);
 6186              		.loc 1 880 25 view .LVU1951
 880:Drivers/lvgl/src/draw/sw/blend/lv_draw_sw_blend_to_i1.c ****                             set_bit(dest_buf_i1, dest_x + bit_ofs);
 6187              		.loc 1 880 33 is_stmt 0 view .LVU1952
 6188 0242 9DF92C30 		ldrsb	r3, [sp, #44]
 880:Drivers/lvgl/src/draw/sw/blend/lv_draw_sw_blend_to_i1.c ****                             set_bit(dest_buf_i1, dest_x + bit_ofs);
 6189              		.loc 1 880 27 view .LVU1953
 6190 0246 002B     		cmp	r3, #0
 6191 0248 D0DB     		blt	.L399
 884:Drivers/lvgl/src/draw/sw/blend/lv_draw_sw_blend_to_i1.c ****                         }
 6192              		.loc 1 884 29 is_stmt 1 view .LVU1954
 6193              	.LVL658:
 6194              	.LBB748:
 6195              	.LBI748:
1110:Drivers/lvgl/src/draw/sw/blend/lv_draw_sw_blend_to_i1.c **** {
 6196              		.loc 1 1110 42 view .LVU1955
 6197              	.LBB749:
1112:Drivers/lvgl/src/draw/sw/blend/lv_draw_sw_blend_to_i1.c **** }
 6198              		.loc 1 1112 5 view .LVU1956
1112:Drivers/lvgl/src/draw/sw/blend/lv_draw_sw_blend_to_i1.c **** }
 6199              		.loc 1 1112 8 is_stmt 0 view .LVU1957
 6200 024a EA5D     		ldrb	r2, [r5, r7]	@ zero_extendqisi2
1112:Drivers/lvgl/src/draw/sw/blend/lv_draw_sw_blend_to_i1.c **** }
 6201              		.loc 1 1112 29 view .LVU1958
 6202 024c 0123     		movs	r3, #1
 6203 024e A340     		lsls	r3, r3, r4
1112:Drivers/lvgl/src/draw/sw/blend/lv_draw_sw_blend_to_i1.c **** }
 6204              		.loc 1 1112 22 view .LVU1959
 6205 0250 DB43     		mvns	r3, r3
 6206 0252 5BB2     		sxtb	r3, r3
 6207 0254 1340     		ands	r3, r3, r2
 6208 0256 EB55     		strb	r3, [r5, r7]
 6209              	.LVL659:
1113:Drivers/lvgl/src/draw/sw/blend/lv_draw_sw_blend_to_i1.c **** 
 6210              		.loc 1 1113 1 view .LVU1960
 6211 0258 CDE7     		b	.L363
 6212              	.LVL660:
 6213              	.L397:
1113:Drivers/lvgl/src/draw/sw/blend/lv_draw_sw_blend_to_i1.c **** 
 6214              		.loc 1 1113 1 view .LVU1961
 6215              	.LBE749:
 6216              	.LBE748:
 6217              	.LBE750:
 6218              	.LBB751:
 6219              	.LBB752:
1102:Drivers/lvgl/src/draw/sw/blend/lv_draw_sw_blend_to_i1.c **** }
 6220              		.loc 1 1102 12 view .LVU1962
 6221 025a 059F     		ldr	r7, [sp, #20]
 6222              	.LBE752:
 6223              	.LBE751:
 887:Drivers/lvgl/src/draw/sw/blend/lv_draw_sw_blend_to_i1.c ****                     src_buf_rgb888 = drawbuf_next_row(src_buf_rgb888, src_stride);
 6224              		.loc 1 887 21 is_stmt 1 view .LVU1963
 6225              	.LVL661:
 6226              	.LBB754:
 6227              	.LBI751:
1100:Drivers/lvgl/src/draw/sw/blend/lv_draw_sw_blend_to_i1.c **** {
 6228              		.loc 1 1100 44 view .LVU1964
ARM GAS  /tmp/cc9ag92L.s 			page 159


 6229              	.LBB753:
1102:Drivers/lvgl/src/draw/sw/blend/lv_draw_sw_blend_to_i1.c **** }
 6230              		.loc 1 1102 5 view .LVU1965
1102:Drivers/lvgl/src/draw/sw/blend/lv_draw_sw_blend_to_i1.c **** }
 6231              		.loc 1 1102 12 is_stmt 0 view .LVU1966
 6232 025c 079B     		ldr	r3, [sp, #28]
 6233 025e 1D44     		add	r5, r5, r3
 6234              	.LVL662:
1102:Drivers/lvgl/src/draw/sw/blend/lv_draw_sw_blend_to_i1.c **** }
 6235              		.loc 1 1102 12 view .LVU1967
 6236              	.LBE753:
 6237              	.LBE754:
 888:Drivers/lvgl/src/draw/sw/blend/lv_draw_sw_blend_to_i1.c ****                     mask_buf += mask_stride;
 6238              		.loc 1 888 21 is_stmt 1 view .LVU1968
 6239              	.LBB755:
 6240              	.LBI755:
1100:Drivers/lvgl/src/draw/sw/blend/lv_draw_sw_blend_to_i1.c **** {
 6241              		.loc 1 1100 44 view .LVU1969
 6242              	.LBB756:
1102:Drivers/lvgl/src/draw/sw/blend/lv_draw_sw_blend_to_i1.c **** }
 6243              		.loc 1 1102 5 view .LVU1970
1102:Drivers/lvgl/src/draw/sw/blend/lv_draw_sw_blend_to_i1.c **** }
 6244              		.loc 1 1102 12 is_stmt 0 view .LVU1971
 6245 0260 039B     		ldr	r3, [sp, #12]
 6246 0262 9B44     		add	fp, fp, r3
 6247              	.LVL663:
1102:Drivers/lvgl/src/draw/sw/blend/lv_draw_sw_blend_to_i1.c **** }
 6248              		.loc 1 1102 12 view .LVU1972
 6249              	.LBE756:
 6250              	.LBE755:
 889:Drivers/lvgl/src/draw/sw/blend/lv_draw_sw_blend_to_i1.c ****                 }
 6251              		.loc 1 889 21 is_stmt 1 view .LVU1973
 889:Drivers/lvgl/src/draw/sw/blend/lv_draw_sw_blend_to_i1.c ****                 }
 6252              		.loc 1 889 30 is_stmt 0 view .LVU1974
 6253 0264 089B     		ldr	r3, [sp, #32]
 6254 0266 9844     		add	r8, r8, r3
 6255              	.LVL664:
 875:Drivers/lvgl/src/draw/sw/blend/lv_draw_sw_blend_to_i1.c ****                     for(mask_x = 0, dest_x = 0, src_x = 0; dest_x < w; mask_x++, dest_x++, src_x +=
 6256              		.loc 1 875 36 is_stmt 1 discriminator 2 view .LVU1975
 6257 0268 0137     		adds	r7, r7, #1
 6258              	.LVL665:
 6259              	.L359:
 875:Drivers/lvgl/src/draw/sw/blend/lv_draw_sw_blend_to_i1.c ****                     for(mask_x = 0, dest_x = 0, src_x = 0; dest_x < w; mask_x++, dest_x++, src_x +=
 6260              		.loc 1 875 30 discriminator 1 view .LVU1976
 6261 026a 069B     		ldr	r3, [sp, #24]
 6262 026c 9F42     		cmp	r7, r3
 6263 026e 80F2A480 		bge	.L342
 876:Drivers/lvgl/src/draw/sw/blend/lv_draw_sw_blend_to_i1.c ****                         uint8_t src = lv_color24_luminance(&src_buf_rgb888[src_x]);
 6264              		.loc 1 876 32 is_stmt 0 view .LVU1977
 6265 0272 4FF00009 		mov	r9, #0
 876:Drivers/lvgl/src/draw/sw/blend/lv_draw_sw_blend_to_i1.c ****                         uint8_t src = lv_color24_luminance(&src_buf_rgb888[src_x]);
 6266              		.loc 1 876 55 view .LVU1978
 6267 0276 CA46     		mov	r10, r9
 876:Drivers/lvgl/src/draw/sw/blend/lv_draw_sw_blend_to_i1.c ****                         uint8_t src = lv_color24_luminance(&src_buf_rgb888[src_x]);
 6268              		.loc 1 876 44 view .LVU1979
 6269 0278 4E46     		mov	r6, r9
 6270 027a 0597     		str	r7, [sp, #20]
ARM GAS  /tmp/cc9ag92L.s 			page 160


 6271 027c C0E7     		b	.L365
 6272              	.LVL666:
 6273              	.L382:
 875:Drivers/lvgl/src/draw/sw/blend/lv_draw_sw_blend_to_i1.c ****                     for(mask_x = 0, dest_x = 0, src_x = 0; dest_x < w; mask_x++, dest_x++, src_x +=
 6274              		.loc 1 875 23 view .LVU1980
 6275 027e 0024     		movs	r4, #0
 6276 0280 BB46     		mov	fp, r7
 6277              	.LVL667:
 875:Drivers/lvgl/src/draw/sw/blend/lv_draw_sw_blend_to_i1.c ****                     for(mask_x = 0, dest_x = 0, src_x = 0; dest_x < w; mask_x++, dest_x++, src_x +=
 6278              		.loc 1 875 23 view .LVU1981
 6279 0282 2746     		mov	r7, r4
 6280              	.LVL668:
 875:Drivers/lvgl/src/draw/sw/blend/lv_draw_sw_blend_to_i1.c ****                     for(mask_x = 0, dest_x = 0, src_x = 0; dest_x < w; mask_x++, dest_x++, src_x +=
 6281              		.loc 1 875 23 view .LVU1982
 6282 0284 CDF80880 		str	r8, [sp, #8]
 6283 0288 8846     		mov	r8, r1
 6284              	.LVL669:
 875:Drivers/lvgl/src/draw/sw/blend/lv_draw_sw_blend_to_i1.c ****                     for(mask_x = 0, dest_x = 0, src_x = 0; dest_x < w; mask_x++, dest_x++, src_x +=
 6285              		.loc 1 875 23 view .LVU1983
 6286 028a CDF818E0 		str	lr, [sp, #24]
 6287 028e CDF81CC0 		str	ip, [sp, #28]
 6288 0292 0892     		str	r2, [sp, #32]
 6289 0294 0493     		str	r3, [sp, #16]
 6290 0296 E8E7     		b	.L359
 6291              	.LVL670:
 6292              	.L401:
 875:Drivers/lvgl/src/draw/sw/blend/lv_draw_sw_blend_to_i1.c ****                     for(mask_x = 0, dest_x = 0, src_x = 0; dest_x < w; mask_x++, dest_x++, src_x +=
 6293              		.loc 1 875 23 view .LVU1984
 6294              	.LBE740:
 6295              	.LBB757:
 6296              	.LBB758:
 6297              	.LBB759:
 6298              	.LBB760:
 6299              		.loc 1 1117 25 view .LVU1985
 6300 0298 E71D     		adds	r7, r4, #7
 6301 029a 15E0     		b	.L368
 6302              	.LVL671:
 6303              	.L402:
 6304              		.loc 1 1117 25 view .LVU1986
 6305              	.LBE760:
 6306              	.LBE759:
 902:Drivers/lvgl/src/draw/sw/blend/lv_draw_sw_blend_to_i1.c ****                         }
 6307              		.loc 1 902 29 is_stmt 1 view .LVU1987
 6308              	.LBB762:
 6309              	.LBI762:
1105:Drivers/lvgl/src/draw/sw/blend/lv_draw_sw_blend_to_i1.c **** {
 6310              		.loc 1 1105 42 view .LVU1988
 6311              	.LBB763:
1107:Drivers/lvgl/src/draw/sw/blend/lv_draw_sw_blend_to_i1.c **** }
 6312              		.loc 1 1107 5 view .LVU1989
1107:Drivers/lvgl/src/draw/sw/blend/lv_draw_sw_blend_to_i1.c **** }
 6313              		.loc 1 1107 8 is_stmt 0 view .LVU1990
 6314 029c EB5D     		ldrb	r3, [r5, r7]	@ zero_extendqisi2
1107:Drivers/lvgl/src/draw/sw/blend/lv_draw_sw_blend_to_i1.c **** }
 6315              		.loc 1 1107 28 view .LVU1991
 6316 029e 0122     		movs	r2, #1
 6317 02a0 A240     		lsls	r2, r2, r4
ARM GAS  /tmp/cc9ag92L.s 			page 161


1107:Drivers/lvgl/src/draw/sw/blend/lv_draw_sw_blend_to_i1.c **** }
 6318              		.loc 1 1107 22 view .LVU1992
 6319 02a2 1343     		orrs	r3, r3, r2
 6320 02a4 EB55     		strb	r3, [r5, r7]
 6321              	.LVL672:
 6322              	.L370:
1107:Drivers/lvgl/src/draw/sw/blend/lv_draw_sw_blend_to_i1.c **** }
 6323              		.loc 1 1107 22 view .LVU1993
 6324              	.LBE763:
 6325              	.LBE762:
 6326              	.LBE758:
 897:Drivers/lvgl/src/draw/sw/blend/lv_draw_sw_blend_to_i1.c ****                         uint8_t src = lv_color24_luminance(&src_buf_rgb888[src_x]);
 6327              		.loc 1 897 90 is_stmt 1 discriminator 2 view .LVU1994
 897:Drivers/lvgl/src/draw/sw/blend/lv_draw_sw_blend_to_i1.c ****                         uint8_t src = lv_color24_luminance(&src_buf_rgb888[src_x]);
 6328              		.loc 1 897 78 is_stmt 0 discriminator 2 view .LVU1995
 6329 02a6 09F10109 		add	r9, r9, #1
 6330              	.LVL673:
 897:Drivers/lvgl/src/draw/sw/blend/lv_draw_sw_blend_to_i1.c ****                         uint8_t src = lv_color24_luminance(&src_buf_rgb888[src_x]);
 6331              		.loc 1 897 88 discriminator 2 view .LVU1996
 6332 02aa 0136     		adds	r6, r6, #1
 6333              	.LVL674:
 897:Drivers/lvgl/src/draw/sw/blend/lv_draw_sw_blend_to_i1.c ****                         uint8_t src = lv_color24_luminance(&src_buf_rgb888[src_x]);
 6334              		.loc 1 897 98 discriminator 2 view .LVU1997
 6335 02ac 019B     		ldr	r3, [sp, #4]
 6336 02ae 9A44     		add	r10, r10, r3
 6337              	.LVL675:
 6338              	.L372:
 897:Drivers/lvgl/src/draw/sw/blend/lv_draw_sw_blend_to_i1.c ****                         uint8_t src = lv_color24_luminance(&src_buf_rgb888[src_x]);
 6339              		.loc 1 897 67 is_stmt 1 discriminator 1 view .LVU1998
 6340 02b0 029B     		ldr	r3, [sp, #8]
 6341 02b2 9E42     		cmp	r6, r3
 6342 02b4 2DDA     		bge	.L400
 6343              	.LBB767:
 898:Drivers/lvgl/src/draw/sw/blend/lv_draw_sw_blend_to_i1.c ****                         uint8_t dest = get_bit(dest_buf_i1, dest_x + bit_ofs) * 255;
 6344              		.loc 1 898 25 view .LVU1999
 898:Drivers/lvgl/src/draw/sw/blend/lv_draw_sw_blend_to_i1.c ****                         uint8_t dest = get_bit(dest_buf_i1, dest_x + bit_ofs) * 255;
 6345              		.loc 1 898 39 is_stmt 0 view .LVU2000
 6346 02b6 0BEB0A00 		add	r0, fp, r10
 6347 02ba FFF7FEFF 		bl	lv_color24_luminance
 6348              	.LVL676:
 899:Drivers/lvgl/src/draw/sw/blend/lv_draw_sw_blend_to_i1.c ****                         lv_color_8_8_mix(src, &dest, LV_OPA_MIX2(mask_buf[mask_x], opa));
 6349              		.loc 1 899 25 is_stmt 1 view .LVU2001
 899:Drivers/lvgl/src/draw/sw/blend/lv_draw_sw_blend_to_i1.c ****                         lv_color_8_8_mix(src, &dest, LV_OPA_MIX2(mask_buf[mask_x], opa));
 6350              		.loc 1 899 40 is_stmt 0 view .LVU2002
 6351 02be 059B     		ldr	r3, [sp, #20]
 6352 02c0 F418     		adds	r4, r6, r3
 6353              	.LVL677:
 6354              	.LBB764:
 6355              	.LBI759:
1115:Drivers/lvgl/src/draw/sw/blend/lv_draw_sw_blend_to_i1.c **** {
 6356              		.loc 1 1115 45 is_stmt 1 view .LVU2003
 6357              	.LBB761:
 6358              		.loc 1 1117 5 view .LVU2004
 6359              		.loc 1 1117 25 is_stmt 0 view .LVU2005
 6360 02c2 2746     		mov	r7, r4
 6361 02c4 002C     		cmp	r4, #0
 6362 02c6 E7DB     		blt	.L401
ARM GAS  /tmp/cc9ag92L.s 			page 162


 6363              	.L368:
 6364              		.loc 1 1117 25 view .LVU2006
 6365 02c8 FF10     		asrs	r7, r7, #3
 6366              		.loc 1 1117 16 view .LVU2007
 6367 02ca EB5D     		ldrb	r3, [r5, r7]	@ zero_extendqisi2
 6368              		.loc 1 1117 47 view .LVU2008
 6369 02cc 6242     		rsbs	r2, r4, #0
 6370 02ce 04F00704 		and	r4, r4, #7
 6371              	.LVL678:
 6372              		.loc 1 1117 47 view .LVU2009
 6373 02d2 02F00702 		and	r2, r2, #7
 6374 02d6 58BF     		it	pl
 6375 02d8 5442     		rsbpl	r4, r2, #0
 6376              		.loc 1 1117 36 view .LVU2010
 6377 02da C4F10704 		rsb	r4, r4, #7
 6378              		.loc 1 1117 30 view .LVU2011
 6379 02de 2341     		asrs	r3, r3, r4
 6380              	.LVL679:
 6381              		.loc 1 1117 30 view .LVU2012
 6382              	.LBE761:
 6383              	.LBE764:
 899:Drivers/lvgl/src/draw/sw/blend/lv_draw_sw_blend_to_i1.c ****                         lv_color_8_8_mix(src, &dest, LV_OPA_MIX2(mask_buf[mask_x], opa));
 6384              		.loc 1 899 33 discriminator 1 view .LVU2013
 6385 02e0 43F30003 		sbfx	r3, r3, #0, #1
 6386 02e4 8DF82C30 		strb	r3, [sp, #44]
 900:Drivers/lvgl/src/draw/sw/blend/lv_draw_sw_blend_to_i1.c ****                         if(dest > I1_LUM_THRESHOLD) {
 6387              		.loc 1 900 25 is_stmt 1 view .LVU2014
 900:Drivers/lvgl/src/draw/sw/blend/lv_draw_sw_blend_to_i1.c ****                         if(dest > I1_LUM_THRESHOLD) {
 6388              		.loc 1 900 54 is_stmt 0 view .LVU2015
 6389 02e8 18F80920 		ldrb	r2, [r8, r9]	@ zero_extendqisi2
 6390 02ec 049B     		ldr	r3, [sp, #16]
 6391 02ee 03FB02F2 		mul	r2, r3, r2
 900:Drivers/lvgl/src/draw/sw/blend/lv_draw_sw_blend_to_i1.c ****                         if(dest > I1_LUM_THRESHOLD) {
 6392              		.loc 1 900 25 view .LVU2016
 6393 02f2 120A     		lsrs	r2, r2, #8
 6394 02f4 0BA9     		add	r1, sp, #44
 6395 02f6 FFF7FEFF 		bl	lv_color_8_8_mix
 6396              	.LVL680:
 901:Drivers/lvgl/src/draw/sw/blend/lv_draw_sw_blend_to_i1.c ****                             set_bit(dest_buf_i1, dest_x + bit_ofs);
 6397              		.loc 1 901 25 is_stmt 1 view .LVU2017
 901:Drivers/lvgl/src/draw/sw/blend/lv_draw_sw_blend_to_i1.c ****                             set_bit(dest_buf_i1, dest_x + bit_ofs);
 6398              		.loc 1 901 33 is_stmt 0 view .LVU2018
 6399 02fa 9DF92C30 		ldrsb	r3, [sp, #44]
 901:Drivers/lvgl/src/draw/sw/blend/lv_draw_sw_blend_to_i1.c ****                             set_bit(dest_buf_i1, dest_x + bit_ofs);
 6400              		.loc 1 901 27 view .LVU2019
 6401 02fe 002B     		cmp	r3, #0
 6402 0300 CCDB     		blt	.L402
 905:Drivers/lvgl/src/draw/sw/blend/lv_draw_sw_blend_to_i1.c ****                         }
 6403              		.loc 1 905 29 is_stmt 1 view .LVU2020
 6404              	.LVL681:
 6405              	.LBB765:
 6406              	.LBI765:
1110:Drivers/lvgl/src/draw/sw/blend/lv_draw_sw_blend_to_i1.c **** {
 6407              		.loc 1 1110 42 view .LVU2021
 6408              	.LBB766:
1112:Drivers/lvgl/src/draw/sw/blend/lv_draw_sw_blend_to_i1.c **** }
 6409              		.loc 1 1112 5 view .LVU2022
ARM GAS  /tmp/cc9ag92L.s 			page 163


1112:Drivers/lvgl/src/draw/sw/blend/lv_draw_sw_blend_to_i1.c **** }
 6410              		.loc 1 1112 8 is_stmt 0 view .LVU2023
 6411 0302 EA5D     		ldrb	r2, [r5, r7]	@ zero_extendqisi2
1112:Drivers/lvgl/src/draw/sw/blend/lv_draw_sw_blend_to_i1.c **** }
 6412              		.loc 1 1112 29 view .LVU2024
 6413 0304 0123     		movs	r3, #1
 6414 0306 A340     		lsls	r3, r3, r4
1112:Drivers/lvgl/src/draw/sw/blend/lv_draw_sw_blend_to_i1.c **** }
 6415              		.loc 1 1112 22 view .LVU2025
 6416 0308 DB43     		mvns	r3, r3
 6417 030a 5BB2     		sxtb	r3, r3
 6418 030c 1340     		ands	r3, r3, r2
 6419 030e EB55     		strb	r3, [r5, r7]
 6420              	.LVL682:
1113:Drivers/lvgl/src/draw/sw/blend/lv_draw_sw_blend_to_i1.c **** 
 6421              		.loc 1 1113 1 view .LVU2026
 6422 0310 C9E7     		b	.L370
 6423              	.LVL683:
 6424              	.L400:
1113:Drivers/lvgl/src/draw/sw/blend/lv_draw_sw_blend_to_i1.c **** 
 6425              		.loc 1 1113 1 view .LVU2027
 6426              	.LBE766:
 6427              	.LBE765:
 6428              	.LBE767:
 6429              	.LBB768:
 6430              	.LBB769:
1102:Drivers/lvgl/src/draw/sw/blend/lv_draw_sw_blend_to_i1.c **** }
 6431              		.loc 1 1102 12 view .LVU2028
 6432 0312 069F     		ldr	r7, [sp, #24]
 6433              	.LBE769:
 6434              	.LBE768:
 908:Drivers/lvgl/src/draw/sw/blend/lv_draw_sw_blend_to_i1.c ****                     src_buf_rgb888 = drawbuf_next_row(src_buf_rgb888, src_stride);
 6435              		.loc 1 908 21 is_stmt 1 view .LVU2029
 6436              	.LVL684:
 6437              	.LBB771:
 6438              	.LBI768:
1100:Drivers/lvgl/src/draw/sw/blend/lv_draw_sw_blend_to_i1.c **** {
 6439              		.loc 1 1100 44 view .LVU2030
 6440              	.LBB770:
1102:Drivers/lvgl/src/draw/sw/blend/lv_draw_sw_blend_to_i1.c **** }
 6441              		.loc 1 1102 5 view .LVU2031
1102:Drivers/lvgl/src/draw/sw/blend/lv_draw_sw_blend_to_i1.c **** }
 6442              		.loc 1 1102 12 is_stmt 0 view .LVU2032
 6443 0314 089B     		ldr	r3, [sp, #32]
 6444 0316 1D44     		add	r5, r5, r3
 6445              	.LVL685:
1102:Drivers/lvgl/src/draw/sw/blend/lv_draw_sw_blend_to_i1.c **** }
 6446              		.loc 1 1102 12 view .LVU2033
 6447              	.LBE770:
 6448              	.LBE771:
 909:Drivers/lvgl/src/draw/sw/blend/lv_draw_sw_blend_to_i1.c ****                     mask_buf += mask_stride;
 6449              		.loc 1 909 21 is_stmt 1 view .LVU2034
 6450              	.LBB772:
 6451              	.LBI772:
1100:Drivers/lvgl/src/draw/sw/blend/lv_draw_sw_blend_to_i1.c **** {
 6452              		.loc 1 1100 44 view .LVU2035
 6453              	.LBB773:
ARM GAS  /tmp/cc9ag92L.s 			page 164


1102:Drivers/lvgl/src/draw/sw/blend/lv_draw_sw_blend_to_i1.c **** }
 6454              		.loc 1 1102 5 view .LVU2036
1102:Drivers/lvgl/src/draw/sw/blend/lv_draw_sw_blend_to_i1.c **** }
 6455              		.loc 1 1102 12 is_stmt 0 view .LVU2037
 6456 0318 039B     		ldr	r3, [sp, #12]
 6457 031a 9B44     		add	fp, fp, r3
 6458              	.LVL686:
1102:Drivers/lvgl/src/draw/sw/blend/lv_draw_sw_blend_to_i1.c **** }
 6459              		.loc 1 1102 12 view .LVU2038
 6460              	.LBE773:
 6461              	.LBE772:
 910:Drivers/lvgl/src/draw/sw/blend/lv_draw_sw_blend_to_i1.c ****                 }
 6462              		.loc 1 910 21 is_stmt 1 view .LVU2039
 910:Drivers/lvgl/src/draw/sw/blend/lv_draw_sw_blend_to_i1.c ****                 }
 6463              		.loc 1 910 30 is_stmt 0 view .LVU2040
 6464 031c 099B     		ldr	r3, [sp, #36]
 6465 031e 9844     		add	r8, r8, r3
 6466              	.LVL687:
 896:Drivers/lvgl/src/draw/sw/blend/lv_draw_sw_blend_to_i1.c ****                     for(mask_x = 0, dest_x = 0, src_x = 0; dest_x < w; mask_x++, dest_x++, src_x +=
 6467              		.loc 1 896 36 is_stmt 1 discriminator 2 view .LVU2041
 6468 0320 0137     		adds	r7, r7, #1
 6469              	.LVL688:
 6470              	.L366:
 896:Drivers/lvgl/src/draw/sw/blend/lv_draw_sw_blend_to_i1.c ****                     for(mask_x = 0, dest_x = 0, src_x = 0; dest_x < w; mask_x++, dest_x++, src_x +=
 6471              		.loc 1 896 30 discriminator 1 view .LVU2042
 6472 0322 079B     		ldr	r3, [sp, #28]
 6473 0324 9F42     		cmp	r7, r3
 6474 0326 48DA     		bge	.L342
 897:Drivers/lvgl/src/draw/sw/blend/lv_draw_sw_blend_to_i1.c ****                         uint8_t src = lv_color24_luminance(&src_buf_rgb888[src_x]);
 6475              		.loc 1 897 32 is_stmt 0 view .LVU2043
 6476 0328 4FF00009 		mov	r9, #0
 897:Drivers/lvgl/src/draw/sw/blend/lv_draw_sw_blend_to_i1.c ****                         uint8_t src = lv_color24_luminance(&src_buf_rgb888[src_x]);
 6477              		.loc 1 897 55 view .LVU2044
 6478 032c CA46     		mov	r10, r9
 897:Drivers/lvgl/src/draw/sw/blend/lv_draw_sw_blend_to_i1.c ****                         uint8_t src = lv_color24_luminance(&src_buf_rgb888[src_x]);
 6479              		.loc 1 897 44 view .LVU2045
 6480 032e 4E46     		mov	r6, r9
 6481 0330 0697     		str	r7, [sp, #24]
 6482 0332 BDE7     		b	.L372
 6483              	.LVL689:
 6484              	.L384:
 896:Drivers/lvgl/src/draw/sw/blend/lv_draw_sw_blend_to_i1.c ****                     for(mask_x = 0, dest_x = 0, src_x = 0; dest_x < w; mask_x++, dest_x++, src_x +=
 6485              		.loc 1 896 23 view .LVU2046
 6486 0334 0024     		movs	r4, #0
 6487 0336 CDF80880 		str	r8, [sp, #8]
 6488 033a 8846     		mov	r8, r1
 6489              	.LVL690:
 896:Drivers/lvgl/src/draw/sw/blend/lv_draw_sw_blend_to_i1.c ****                     for(mask_x = 0, dest_x = 0, src_x = 0; dest_x < w; mask_x++, dest_x++, src_x +=
 6490              		.loc 1 896 23 view .LVU2047
 6491 033c CDF81CE0 		str	lr, [sp, #28]
 6492 0340 CDF810B0 		str	fp, [sp, #16]
 6493 0344 BB46     		mov	fp, r7
 6494              	.LVL691:
 896:Drivers/lvgl/src/draw/sw/blend/lv_draw_sw_blend_to_i1.c ****                     for(mask_x = 0, dest_x = 0, src_x = 0; dest_x < w; mask_x++, dest_x++, src_x +=
 6495              		.loc 1 896 23 view .LVU2048
 6496 0346 2746     		mov	r7, r4
 6497              	.LVL692:
ARM GAS  /tmp/cc9ag92L.s 			page 165


 896:Drivers/lvgl/src/draw/sw/blend/lv_draw_sw_blend_to_i1.c ****                     for(mask_x = 0, dest_x = 0, src_x = 0; dest_x < w; mask_x++, dest_x++, src_x +=
 6498              		.loc 1 896 23 view .LVU2049
 6499 0348 CDF820C0 		str	ip, [sp, #32]
 6500 034c 0992     		str	r2, [sp, #36]
 6501 034e 0593     		str	r3, [sp, #20]
 6502 0350 E7E7     		b	.L366
 6503              	.LVL693:
 6504              	.L404:
 896:Drivers/lvgl/src/draw/sw/blend/lv_draw_sw_blend_to_i1.c ****                     for(mask_x = 0, dest_x = 0, src_x = 0; dest_x < w; mask_x++, dest_x++, src_x +=
 6505              		.loc 1 896 23 view .LVU2050
 6506              	.LBE757:
 6507              	.LBB774:
 921:Drivers/lvgl/src/draw/sw/blend/lv_draw_sw_blend_to_i1.c ****                     else src_argb.alpha = LV_OPA_MIX2(mask_buf[dest_x], opa);
 6508              		.loc 1 921 42 is_stmt 1 discriminator 1 view .LVU2051
 921:Drivers/lvgl/src/draw/sw/blend/lv_draw_sw_blend_to_i1.c ****                     else src_argb.alpha = LV_OPA_MIX2(mask_buf[dest_x], opa);
 6509              		.loc 1 921 57 is_stmt 0 discriminator 1 view .LVU2052
 6510 0352 029B     		ldr	r3, [sp, #8]
 6511 0354 8DF82F30 		strb	r3, [sp, #47]
 6512              	.L374:
 924:Drivers/lvgl/src/draw/sw/blend/lv_draw_sw_blend_to_i1.c ****                 }
 6513              		.loc 1 924 21 is_stmt 1 view .LVU2053
 6514 0358 99F82230 		ldrb	r3, [r9, #34]	@ zero_extendqisi2
 6515 035c 0B9A     		ldr	r2, [sp, #44]
 6516 035e 04EB0B01 		add	r1, r4, fp
 6517 0362 5046     		mov	r0, r10
 6518 0364 FFF7FEFF 		bl	blend_non_normal_pixel
 6519              	.LVL694:
 917:Drivers/lvgl/src/draw/sw/blend/lv_draw_sw_blend_to_i1.c ****                     src_argb.red = src_buf_rgb888[src_x + 2];
 6520              		.loc 1 917 64 discriminator 2 view .LVU2054
 917:Drivers/lvgl/src/draw/sw/blend/lv_draw_sw_blend_to_i1.c ****                     src_argb.red = src_buf_rgb888[src_x + 2];
 6521              		.loc 1 917 62 is_stmt 0 discriminator 2 view .LVU2055
 6522 0368 0134     		adds	r4, r4, #1
 6523              	.LVL695:
 917:Drivers/lvgl/src/draw/sw/blend/lv_draw_sw_blend_to_i1.c ****                     src_argb.red = src_buf_rgb888[src_x + 2];
 6524              		.loc 1 917 72 discriminator 2 view .LVU2056
 6525 036a 019B     		ldr	r3, [sp, #4]
 6526 036c 1E44     		add	r6, r6, r3
 6527              	.LVL696:
 6528              	.L377:
 917:Drivers/lvgl/src/draw/sw/blend/lv_draw_sw_blend_to_i1.c ****                     src_argb.red = src_buf_rgb888[src_x + 2];
 6529              		.loc 1 917 51 is_stmt 1 discriminator 1 view .LVU2057
 6530 036e 4445     		cmp	r4, r8
 6531 0370 13DA     		bge	.L403
 918:Drivers/lvgl/src/draw/sw/blend/lv_draw_sw_blend_to_i1.c ****                     src_argb.green = src_buf_rgb888[src_x + 1];
 6532              		.loc 1 918 21 view .LVU2058
 918:Drivers/lvgl/src/draw/sw/blend/lv_draw_sw_blend_to_i1.c ****                     src_argb.green = src_buf_rgb888[src_x + 1];
 6533              		.loc 1 918 50 is_stmt 0 view .LVU2059
 6534 0372 BB19     		adds	r3, r7, r6
 6535 0374 9A78     		ldrb	r2, [r3, #2]	@ zero_extendqisi2
 918:Drivers/lvgl/src/draw/sw/blend/lv_draw_sw_blend_to_i1.c ****                     src_argb.green = src_buf_rgb888[src_x + 1];
 6536              		.loc 1 918 34 view .LVU2060
 6537 0376 8DF82E20 		strb	r2, [sp, #46]
 919:Drivers/lvgl/src/draw/sw/blend/lv_draw_sw_blend_to_i1.c ****                     src_argb.blue = src_buf_rgb888[src_x + 0];
 6538              		.loc 1 919 21 is_stmt 1 view .LVU2061
 919:Drivers/lvgl/src/draw/sw/blend/lv_draw_sw_blend_to_i1.c ****                     src_argb.blue = src_buf_rgb888[src_x + 0];
 6539              		.loc 1 919 52 is_stmt 0 view .LVU2062
 6540 037a 5B78     		ldrb	r3, [r3, #1]	@ zero_extendqisi2
ARM GAS  /tmp/cc9ag92L.s 			page 166


 919:Drivers/lvgl/src/draw/sw/blend/lv_draw_sw_blend_to_i1.c ****                     src_argb.blue = src_buf_rgb888[src_x + 0];
 6541              		.loc 1 919 36 view .LVU2063
 6542 037c 8DF82D30 		strb	r3, [sp, #45]
 920:Drivers/lvgl/src/draw/sw/blend/lv_draw_sw_blend_to_i1.c ****                     if(mask_buf == NULL) src_argb.alpha = opa;
 6543              		.loc 1 920 21 is_stmt 1 view .LVU2064
 920:Drivers/lvgl/src/draw/sw/blend/lv_draw_sw_blend_to_i1.c ****                     if(mask_buf == NULL) src_argb.alpha = opa;
 6544              		.loc 1 920 51 is_stmt 0 view .LVU2065
 6545 0380 BB5D     		ldrb	r3, [r7, r6]	@ zero_extendqisi2
 920:Drivers/lvgl/src/draw/sw/blend/lv_draw_sw_blend_to_i1.c ****                     if(mask_buf == NULL) src_argb.alpha = opa;
 6546              		.loc 1 920 35 view .LVU2066
 6547 0382 8DF82C30 		strb	r3, [sp, #44]
 921:Drivers/lvgl/src/draw/sw/blend/lv_draw_sw_blend_to_i1.c ****                     else src_argb.alpha = LV_OPA_MIX2(mask_buf[dest_x], opa);
 6548              		.loc 1 921 21 is_stmt 1 view .LVU2067
 921:Drivers/lvgl/src/draw/sw/blend/lv_draw_sw_blend_to_i1.c ****                     else src_argb.alpha = LV_OPA_MIX2(mask_buf[dest_x], opa);
 6549              		.loc 1 921 23 is_stmt 0 view .LVU2068
 6550 0386 002D     		cmp	r5, #0
 6551 0388 E3D0     		beq	.L404
 922:Drivers/lvgl/src/draw/sw/blend/lv_draw_sw_blend_to_i1.c **** 
 6552              		.loc 1 922 26 is_stmt 1 view .LVU2069
 922:Drivers/lvgl/src/draw/sw/blend/lv_draw_sw_blend_to_i1.c **** 
 6553              		.loc 1 922 43 is_stmt 0 view .LVU2070
 6554 038a 2B5D     		ldrb	r3, [r5, r4]	@ zero_extendqisi2
 6555 038c 029A     		ldr	r2, [sp, #8]
 6556 038e 02FB03F3 		mul	r3, r2, r3
 6557 0392 1B0A     		lsrs	r3, r3, #8
 922:Drivers/lvgl/src/draw/sw/blend/lv_draw_sw_blend_to_i1.c **** 
 6558              		.loc 1 922 41 view .LVU2071
 6559 0394 8DF82F30 		strb	r3, [sp, #47]
 6560 0398 DEE7     		b	.L374
 6561              	.L403:
 926:Drivers/lvgl/src/draw/sw/blend/lv_draw_sw_blend_to_i1.c ****                 dest_buf_i1 = drawbuf_next_row(dest_buf_i1, dest_stride);
 6562              		.loc 1 926 19 view .LVU2072
 6563 039a 0498     		ldr	r0, [sp, #16]
 926:Drivers/lvgl/src/draw/sw/blend/lv_draw_sw_blend_to_i1.c ****                 dest_buf_i1 = drawbuf_next_row(dest_buf_i1, dest_stride);
 6564              		.loc 1 926 17 is_stmt 1 view .LVU2073
 926:Drivers/lvgl/src/draw/sw/blend/lv_draw_sw_blend_to_i1.c ****                 dest_buf_i1 = drawbuf_next_row(dest_buf_i1, dest_stride);
 6565              		.loc 1 926 19 is_stmt 0 view .LVU2074
 6566 039c 0DB1     		cbz	r5, .L376
 926:Drivers/lvgl/src/draw/sw/blend/lv_draw_sw_blend_to_i1.c ****                 dest_buf_i1 = drawbuf_next_row(dest_buf_i1, dest_stride);
 6567              		.loc 1 926 30 is_stmt 1 discriminator 1 view .LVU2075
 926:Drivers/lvgl/src/draw/sw/blend/lv_draw_sw_blend_to_i1.c ****                 dest_buf_i1 = drawbuf_next_row(dest_buf_i1, dest_stride);
 6568              		.loc 1 926 39 is_stmt 0 discriminator 1 view .LVU2076
 6569 039e 079B     		ldr	r3, [sp, #28]
 6570 03a0 1D44     		add	r5, r5, r3
 6571              	.LVL697:
 6572              	.L376:
 927:Drivers/lvgl/src/draw/sw/blend/lv_draw_sw_blend_to_i1.c ****                 src_buf_rgb888 = drawbuf_next_row(src_buf_rgb888, src_stride);
 6573              		.loc 1 927 17 is_stmt 1 view .LVU2077
 6574              	.LBB708:
 6575              	.LBI708:
1100:Drivers/lvgl/src/draw/sw/blend/lv_draw_sw_blend_to_i1.c **** {
 6576              		.loc 1 1100 44 view .LVU2078
 6577              	.LBB709:
1102:Drivers/lvgl/src/draw/sw/blend/lv_draw_sw_blend_to_i1.c **** }
 6578              		.loc 1 1102 5 view .LVU2079
1102:Drivers/lvgl/src/draw/sw/blend/lv_draw_sw_blend_to_i1.c **** }
 6579              		.loc 1 1102 12 is_stmt 0 view .LVU2080
ARM GAS  /tmp/cc9ag92L.s 			page 167


 6580 03a2 069B     		ldr	r3, [sp, #24]
 6581 03a4 9A44     		add	r10, r10, r3
 6582              	.LVL698:
1102:Drivers/lvgl/src/draw/sw/blend/lv_draw_sw_blend_to_i1.c **** }
 6583              		.loc 1 1102 12 view .LVU2081
 6584              	.LBE709:
 6585              	.LBE708:
 928:Drivers/lvgl/src/draw/sw/blend/lv_draw_sw_blend_to_i1.c ****             }
 6586              		.loc 1 928 17 is_stmt 1 view .LVU2082
 6587              	.LBB710:
 6588              	.LBI710:
1100:Drivers/lvgl/src/draw/sw/blend/lv_draw_sw_blend_to_i1.c **** {
 6589              		.loc 1 1100 44 view .LVU2083
 6590              	.LBB711:
1102:Drivers/lvgl/src/draw/sw/blend/lv_draw_sw_blend_to_i1.c **** }
 6591              		.loc 1 1102 5 view .LVU2084
1102:Drivers/lvgl/src/draw/sw/blend/lv_draw_sw_blend_to_i1.c **** }
 6592              		.loc 1 1102 12 is_stmt 0 view .LVU2085
 6593 03a6 039B     		ldr	r3, [sp, #12]
 6594 03a8 1F44     		add	r7, r7, r3
 6595              	.LVL699:
1102:Drivers/lvgl/src/draw/sw/blend/lv_draw_sw_blend_to_i1.c **** }
 6596              		.loc 1 1102 12 view .LVU2086
 6597              	.LBE711:
 6598              	.LBE710:
 916:Drivers/lvgl/src/draw/sw/blend/lv_draw_sw_blend_to_i1.c ****                 for(dest_x = 0, src_x = 0; dest_x < w; dest_x++, src_x += src_px_size) {
 6599              		.loc 1 916 32 is_stmt 1 discriminator 2 view .LVU2087
 6600 03aa 0130     		adds	r0, r0, #1
 6601              	.LVL700:
 6602              	.L367:
 916:Drivers/lvgl/src/draw/sw/blend/lv_draw_sw_blend_to_i1.c ****                 for(dest_x = 0, src_x = 0; dest_x < w; dest_x++, src_x += src_px_size) {
 6603              		.loc 1 916 26 discriminator 1 view .LVU2088
 6604 03ac 059B     		ldr	r3, [sp, #20]
 6605 03ae 9842     		cmp	r0, r3
 6606 03b0 03DA     		bge	.L342
 917:Drivers/lvgl/src/draw/sw/blend/lv_draw_sw_blend_to_i1.c ****                     src_argb.red = src_buf_rgb888[src_x + 2];
 6607              		.loc 1 917 39 is_stmt 0 view .LVU2089
 6608 03b2 0026     		movs	r6, #0
 917:Drivers/lvgl/src/draw/sw/blend/lv_draw_sw_blend_to_i1.c ****                     src_argb.red = src_buf_rgb888[src_x + 2];
 6609              		.loc 1 917 28 view .LVU2090
 6610 03b4 3446     		mov	r4, r6
 6611 03b6 0490     		str	r0, [sp, #16]
 6612 03b8 D9E7     		b	.L377
 6613              	.LVL701:
 6614              	.L342:
 917:Drivers/lvgl/src/draw/sw/blend/lv_draw_sw_blend_to_i1.c ****                     src_argb.red = src_buf_rgb888[src_x + 2];
 6615              		.loc 1 917 28 view .LVU2091
 6616              	.LBE774:
 932:Drivers/lvgl/src/draw/sw/blend/lv_draw_sw_blend_to_i1.c **** #endif
 6617              		.loc 1 932 1 view .LVU2092
 6618 03ba 0DB0     		add	sp, sp, #52
 6619              	.LCFI26:
 6620              		.cfi_def_cfa_offset 36
 6621              		@ sp needed
 6622 03bc BDE8F08F 		pop	{r4, r5, r6, r7, r8, r9, r10, fp, pc}
 932:Drivers/lvgl/src/draw/sw/blend/lv_draw_sw_blend_to_i1.c **** #endif
 6623              		.loc 1 932 1 view .LVU2093
ARM GAS  /tmp/cc9ag92L.s 			page 168


 6624              		.cfi_endproc
 6625              	.LFE192:
 6627              		.section	.text.lv_draw_sw_blend_color_to_i1,"ax",%progbits
 6628              		.align	1
 6629              		.global	lv_draw_sw_blend_color_to_i1
 6630              		.syntax unified
 6631              		.thumb
 6632              		.thumb_func
 6634              	lv_draw_sw_blend_color_to_i1:
 6635              	.LVL702:
 6636              	.LFB186:
 204:Drivers/lvgl/src/draw/sw/blend/lv_draw_sw_blend_to_i1.c ****     int32_t w = dsc->dest_w;
 6637              		.loc 1 204 1 is_stmt 1 view -0
 6638              		.cfi_startproc
 6639              		@ args = 0, pretend = 0, frame = 24
 6640              		@ frame_needed = 0, uses_anonymous_args = 0
 204:Drivers/lvgl/src/draw/sw/blend/lv_draw_sw_blend_to_i1.c ****     int32_t w = dsc->dest_w;
 6641              		.loc 1 204 1 is_stmt 0 view .LVU2095
 6642 0000 2DE9F04F 		push	{r4, r5, r6, r7, r8, r9, r10, fp, lr}
 6643              	.LCFI27:
 6644              		.cfi_def_cfa_offset 36
 6645              		.cfi_offset 4, -36
 6646              		.cfi_offset 5, -32
 6647              		.cfi_offset 6, -28
 6648              		.cfi_offset 7, -24
 6649              		.cfi_offset 8, -20
 6650              		.cfi_offset 9, -16
 6651              		.cfi_offset 10, -12
 6652              		.cfi_offset 11, -8
 6653              		.cfi_offset 14, -4
 6654 0004 87B0     		sub	sp, sp, #28
 6655              	.LCFI28:
 6656              		.cfi_def_cfa_offset 64
 6657 0006 0646     		mov	r6, r0
 205:Drivers/lvgl/src/draw/sw/blend/lv_draw_sw_blend_to_i1.c ****     int32_t h = dsc->dest_h;
 6658              		.loc 1 205 5 is_stmt 1 view .LVU2096
 205:Drivers/lvgl/src/draw/sw/blend/lv_draw_sw_blend_to_i1.c ****     int32_t h = dsc->dest_h;
 6659              		.loc 1 205 13 is_stmt 0 view .LVU2097
 6660 0008 4468     		ldr	r4, [r0, #4]
 6661              	.LVL703:
 206:Drivers/lvgl/src/draw/sw/blend/lv_draw_sw_blend_to_i1.c ****     lv_opa_t opa = dsc->opa;
 6662              		.loc 1 206 5 is_stmt 1 view .LVU2098
 206:Drivers/lvgl/src/draw/sw/blend/lv_draw_sw_blend_to_i1.c ****     lv_opa_t opa = dsc->opa;
 6663              		.loc 1 206 13 is_stmt 0 view .LVU2099
 6664 000a 8768     		ldr	r7, [r0, #8]
 6665              	.LVL704:
 207:Drivers/lvgl/src/draw/sw/blend/lv_draw_sw_blend_to_i1.c ****     const lv_opa_t * mask = dsc->mask_buf;
 6666              		.loc 1 207 5 is_stmt 1 view .LVU2100
 207:Drivers/lvgl/src/draw/sw/blend/lv_draw_sw_blend_to_i1.c ****     const lv_opa_t * mask = dsc->mask_buf;
 6667              		.loc 1 207 14 is_stmt 0 view .LVU2101
 6668 000c C57E     		ldrb	r5, [r0, #27]	@ zero_extendqisi2
 6669              	.LVL705:
 208:Drivers/lvgl/src/draw/sw/blend/lv_draw_sw_blend_to_i1.c ****     int32_t mask_stride = dsc->mask_stride;
 6670              		.loc 1 208 5 is_stmt 1 view .LVU2102
 208:Drivers/lvgl/src/draw/sw/blend/lv_draw_sw_blend_to_i1.c ****     int32_t mask_stride = dsc->mask_stride;
 6671              		.loc 1 208 22 is_stmt 0 view .LVU2103
 6672 000e D0F810B0 		ldr	fp, [r0, #16]
ARM GAS  /tmp/cc9ag92L.s 			page 169


 6673              	.LVL706:
 209:Drivers/lvgl/src/draw/sw/blend/lv_draw_sw_blend_to_i1.c ****     int32_t dest_stride = dsc->dest_stride;
 6674              		.loc 1 209 5 is_stmt 1 view .LVU2104
 209:Drivers/lvgl/src/draw/sw/blend/lv_draw_sw_blend_to_i1.c ****     int32_t dest_stride = dsc->dest_stride;
 6675              		.loc 1 209 13 is_stmt 0 view .LVU2105
 6676 0012 D0F81480 		ldr	r8, [r0, #20]
 6677              	.LVL707:
 210:Drivers/lvgl/src/draw/sw/blend/lv_draw_sw_blend_to_i1.c **** 
 6678              		.loc 1 210 5 is_stmt 1 view .LVU2106
 210:Drivers/lvgl/src/draw/sw/blend/lv_draw_sw_blend_to_i1.c **** 
 6679              		.loc 1 210 13 is_stmt 0 view .LVU2107
 6680 0016 D0F80CA0 		ldr	r10, [r0, #12]
 6681              	.LVL708:
 212:Drivers/lvgl/src/draw/sw/blend/lv_draw_sw_blend_to_i1.c ****     uint8_t * dest_buf = dsc->dest_buf;
 6682              		.loc 1 212 5 is_stmt 1 view .LVU2108
 212:Drivers/lvgl/src/draw/sw/blend/lv_draw_sw_blend_to_i1.c ****     uint8_t * dest_buf = dsc->dest_buf;
 6683              		.loc 1 212 25 is_stmt 0 view .LVU2109
 6684 001a 8069     		ldr	r0, [r0, #24]
 6685              	.LVL709:
 212:Drivers/lvgl/src/draw/sw/blend/lv_draw_sw_blend_to_i1.c ****     uint8_t * dest_buf = dsc->dest_buf;
 6686              		.loc 1 212 25 view .LVU2110
 6687 001c FFF7FEFF 		bl	lv_color_luminance
 6688              	.LVL710:
 212:Drivers/lvgl/src/draw/sw/blend/lv_draw_sw_blend_to_i1.c ****     uint8_t * dest_buf = dsc->dest_buf;
 6689              		.loc 1 212 13 discriminator 1 view .LVU2111
 6690 0020 C0F3C719 		ubfx	r9, r0, #7, #8
 6691              	.LVL711:
 213:Drivers/lvgl/src/draw/sw/blend/lv_draw_sw_blend_to_i1.c **** 
 6692              		.loc 1 213 5 is_stmt 1 view .LVU2112
 213:Drivers/lvgl/src/draw/sw/blend/lv_draw_sw_blend_to_i1.c **** 
 6693              		.loc 1 213 15 is_stmt 0 view .LVU2113
 6694 0024 3368     		ldr	r3, [r6]
 6695              	.LVL712:
 215:Drivers/lvgl/src/draw/sw/blend/lv_draw_sw_blend_to_i1.c **** 
 6696              		.loc 1 215 5 is_stmt 1 view .LVU2114
 215:Drivers/lvgl/src/draw/sw/blend/lv_draw_sw_blend_to_i1.c **** 
 6697              		.loc 1 215 41 is_stmt 0 view .LVU2115
 6698 0026 F169     		ldr	r1, [r6, #28]
 215:Drivers/lvgl/src/draw/sw/blend/lv_draw_sw_blend_to_i1.c **** 
 6699              		.loc 1 215 13 view .LVU2116
 6700 0028 4A42     		rsbs	r2, r1, #0
 6701 002a 01F0070C 		and	ip, r1, #7
 6702 002e 02F00702 		and	r2, r2, #7
 6703 0032 58BF     		it	pl
 6704 0034 C2F1000C 		rsbpl	ip, r2, #0
 6705              	.LVL713:
 218:Drivers/lvgl/src/draw/sw/blend/lv_draw_sw_blend_to_i1.c ****         if(LV_RESULT_INVALID == LV_DRAW_SW_COLOR_BLEND_TO_I1(dsc)) {
 6706              		.loc 1 218 5 is_stmt 1 view .LVU2117
 218:Drivers/lvgl/src/draw/sw/blend/lv_draw_sw_blend_to_i1.c ****         if(LV_RESULT_INVALID == LV_DRAW_SW_COLOR_BLEND_TO_I1(dsc)) {
 6707              		.loc 1 218 13 is_stmt 0 view .LVU2118
 6708 0038 BBFA8BF2 		clz	r2, fp
 6709 003c 5209     		lsrs	r2, r2, #5
 218:Drivers/lvgl/src/draw/sw/blend/lv_draw_sw_blend_to_i1.c ****         if(LV_RESULT_INVALID == LV_DRAW_SW_COLOR_BLEND_TO_I1(dsc)) {
 6710              		.loc 1 218 28 view .LVU2119
 6711 003e FC2D     		cmp	r5, #252
 6712 0040 94BF     		ite	ls
 6713 0042 0021     		movls	r1, #0
ARM GAS  /tmp/cc9ag92L.s 			page 170


 6714 0044 0121     		movhi	r1, #1
 218:Drivers/lvgl/src/draw/sw/blend/lv_draw_sw_blend_to_i1.c ****         if(LV_RESULT_INVALID == LV_DRAW_SW_COLOR_BLEND_TO_I1(dsc)) {
 6715              		.loc 1 218 7 view .LVU2120
 6716 0046 0A42     		tst	r2, r1
 6717 0048 60D1     		bne	.L438
 234:Drivers/lvgl/src/draw/sw/blend/lv_draw_sw_blend_to_i1.c ****         if(LV_RESULT_INVALID == LV_DRAW_SW_COLOR_BLEND_TO_I1_WITH_OPA(dsc)) {
 6718              		.loc 1 234 10 is_stmt 1 view .LVU2121
 234:Drivers/lvgl/src/draw/sw/blend/lv_draw_sw_blend_to_i1.c ****         if(LV_RESULT_INVALID == LV_DRAW_SW_COLOR_BLEND_TO_I1_WITH_OPA(dsc)) {
 6719              		.loc 1 234 26 is_stmt 0 view .LVU2122
 6720 004a FC2D     		cmp	r5, #252
 6721 004c 8CBF     		ite	hi
 6722 004e 0022     		movhi	r2, #0
 6723 0050 02F00102 		andls	r2, r2, #1
 234:Drivers/lvgl/src/draw/sw/blend/lv_draw_sw_blend_to_i1.c ****         if(LV_RESULT_INVALID == LV_DRAW_SW_COLOR_BLEND_TO_I1_WITH_OPA(dsc)) {
 6724              		.loc 1 234 12 view .LVU2123
 6725 0054 002A     		cmp	r2, #0
 6726 0056 40F0A080 		bne	.L440
 253:Drivers/lvgl/src/draw/sw/blend/lv_draw_sw_blend_to_i1.c ****         if(LV_RESULT_INVALID == LV_DRAW_SW_COLOR_BLEND_TO_I1_WITH_MASK(dsc)) {
 6727              		.loc 1 253 10 is_stmt 1 view .LVU2124
 253:Drivers/lvgl/src/draw/sw/blend/lv_draw_sw_blend_to_i1.c ****         if(LV_RESULT_INVALID == LV_DRAW_SW_COLOR_BLEND_TO_I1_WITH_MASK(dsc)) {
 6728              		.loc 1 253 18 is_stmt 0 view .LVU2125
 6729 005a BBF1000F 		cmp	fp, #0
 6730 005e 0CBF     		ite	eq
 6731 0060 0021     		moveq	r1, #0
 6732 0062 01F00101 		andne	r1, r1, #1
 253:Drivers/lvgl/src/draw/sw/blend/lv_draw_sw_blend_to_i1.c ****         if(LV_RESULT_INVALID == LV_DRAW_SW_COLOR_BLEND_TO_I1_WITH_MASK(dsc)) {
 6733              		.loc 1 253 12 view .LVU2126
 6734 0066 0029     		cmp	r1, #0
 6735 0068 40F01681 		bne	.L442
 6736 006c 0397     		str	r7, [sp, #12]
 6737 006e 0195     		str	r5, [sp, #4]
 6738 0070 CDF81080 		str	r8, [sp, #16]
 6739 0074 CDF814A0 		str	r10, [sp, #20]
 6740 0078 8A46     		mov	r10, r1
 6741              	.LVL714:
 253:Drivers/lvgl/src/draw/sw/blend/lv_draw_sw_blend_to_i1.c ****         if(LV_RESULT_INVALID == LV_DRAW_SW_COLOR_BLEND_TO_I1_WITH_MASK(dsc)) {
 6742              		.loc 1 253 12 view .LVU2127
 6743 007a 61E1     		b	.L423
 6744              	.LVL715:
 6745              	.L409:
 6746              	.LBB775:
 6747              	.LBB776:
 6748              	.LBB777:
 6749              	.LBB778:
1107:Drivers/lvgl/src/draw/sw/blend/lv_draw_sw_blend_to_i1.c **** }
 6750              		.loc 1 1107 17 view .LVU2128
 6751 007c F610     		asrs	r6, r6, #3
1107:Drivers/lvgl/src/draw/sw/blend/lv_draw_sw_blend_to_i1.c **** }
 6752              		.loc 1 1107 8 view .LVU2129
 6753 007e 13F806E0 		ldrb	lr, [r3, r6]	@ zero_extendqisi2
1107:Drivers/lvgl/src/draw/sw/blend/lv_draw_sw_blend_to_i1.c **** }
 6754              		.loc 1 1107 45 view .LVU2130
 6755 0082 D2F10008 		rsbs	r8, r2, #0
 6756 0086 02F00702 		and	r2, r2, #7
 6757              	.LVL716:
1107:Drivers/lvgl/src/draw/sw/blend/lv_draw_sw_blend_to_i1.c **** }
 6758              		.loc 1 1107 45 view .LVU2131
ARM GAS  /tmp/cc9ag92L.s 			page 171


 6759 008a 08F00708 		and	r8, r8, #7
 6760 008e 58BF     		it	pl
 6761 0090 C8F10002 		rsbpl	r2, r8, #0
1107:Drivers/lvgl/src/draw/sw/blend/lv_draw_sw_blend_to_i1.c **** }
 6762              		.loc 1 1107 34 view .LVU2132
 6763 0094 C2F10702 		rsb	r2, r2, #7
1107:Drivers/lvgl/src/draw/sw/blend/lv_draw_sw_blend_to_i1.c **** }
 6764              		.loc 1 1107 28 view .LVU2133
 6765 0098 4FF00108 		mov	r8, #1
 6766 009c 08FA02F2 		lsl	r2, r8, r2
1107:Drivers/lvgl/src/draw/sw/blend/lv_draw_sw_blend_to_i1.c **** }
 6767              		.loc 1 1107 22 view .LVU2134
 6768 00a0 4EEA0202 		orr	r2, lr, r2
 6769 00a4 9A55     		strb	r2, [r3, r6]
 6770              	.LVL717:
 6771              	.L410:
1107:Drivers/lvgl/src/draw/sw/blend/lv_draw_sw_blend_to_i1.c **** }
 6772              		.loc 1 1107 22 view .LVU2135
 6773              	.LBE778:
 6774              	.LBE777:
 221:Drivers/lvgl/src/draw/sw/blend/lv_draw_sw_blend_to_i1.c ****                     if(src_color) {
 6775              		.loc 1 221 44 is_stmt 1 discriminator 2 view .LVU2136
 6776 00a6 0131     		adds	r1, r1, #1
 6777              	.LVL718:
 6778              	.L413:
 221:Drivers/lvgl/src/draw/sw/blend/lv_draw_sw_blend_to_i1.c ****                     if(src_color) {
 6779              		.loc 1 221 38 discriminator 1 view .LVU2137
 6780 00a8 A142     		cmp	r1, r4
 6781 00aa 28DA     		bge	.L448
 222:Drivers/lvgl/src/draw/sw/blend/lv_draw_sw_blend_to_i1.c ****                         set_bit(dest_buf, x + bit_ofs);
 6782              		.loc 1 222 21 view .LVU2138
 222:Drivers/lvgl/src/draw/sw/blend/lv_draw_sw_blend_to_i1.c ****                         set_bit(dest_buf, x + bit_ofs);
 6783              		.loc 1 222 23 is_stmt 0 view .LVU2139
 6784 00ac 7F28     		cmp	r0, #127
 6785 00ae 06D9     		bls	.L408
 223:Drivers/lvgl/src/draw/sw/blend/lv_draw_sw_blend_to_i1.c ****                     }
 6786              		.loc 1 223 25 is_stmt 1 view .LVU2140
 6787 00b0 01EB0C02 		add	r2, r1, ip
 6788              	.LVL719:
 6789              	.LBB780:
 6790              	.LBI777:
1105:Drivers/lvgl/src/draw/sw/blend/lv_draw_sw_blend_to_i1.c **** {
 6791              		.loc 1 1105 42 view .LVU2141
 6792              	.LBB779:
1107:Drivers/lvgl/src/draw/sw/blend/lv_draw_sw_blend_to_i1.c **** }
 6793              		.loc 1 1107 5 view .LVU2142
1107:Drivers/lvgl/src/draw/sw/blend/lv_draw_sw_blend_to_i1.c **** }
 6794              		.loc 1 1107 17 is_stmt 0 view .LVU2143
 6795 00b4 1646     		mov	r6, r2
 6796 00b6 002A     		cmp	r2, #0
 6797 00b8 E0DA     		bge	.L409
1107:Drivers/lvgl/src/draw/sw/blend/lv_draw_sw_blend_to_i1.c **** }
 6798              		.loc 1 1107 17 view .LVU2144
 6799 00ba D61D     		adds	r6, r2, #7
 6800 00bc DEE7     		b	.L409
 6801              	.LVL720:
 6802              	.L408:
ARM GAS  /tmp/cc9ag92L.s 			page 172


1107:Drivers/lvgl/src/draw/sw/blend/lv_draw_sw_blend_to_i1.c **** }
 6803              		.loc 1 1107 17 view .LVU2145
 6804              	.LBE779:
 6805              	.LBE780:
 226:Drivers/lvgl/src/draw/sw/blend/lv_draw_sw_blend_to_i1.c ****                     }
 6806              		.loc 1 226 25 is_stmt 1 view .LVU2146
 6807 00be 01EB0C02 		add	r2, r1, ip
 6808              	.LVL721:
 6809              	.LBB781:
 6810              	.LBI781:
1110:Drivers/lvgl/src/draw/sw/blend/lv_draw_sw_blend_to_i1.c **** {
 6811              		.loc 1 1110 42 view .LVU2147
 6812              	.LBB782:
1112:Drivers/lvgl/src/draw/sw/blend/lv_draw_sw_blend_to_i1.c **** }
 6813              		.loc 1 1112 5 view .LVU2148
1112:Drivers/lvgl/src/draw/sw/blend/lv_draw_sw_blend_to_i1.c **** }
 6814              		.loc 1 1112 17 is_stmt 0 view .LVU2149
 6815 00c2 1646     		mov	r6, r2
 6816 00c4 002A     		cmp	r2, #0
 6817 00c6 18DB     		blt	.L449
 6818              	.L411:
1112:Drivers/lvgl/src/draw/sw/blend/lv_draw_sw_blend_to_i1.c **** }
 6819              		.loc 1 1112 17 view .LVU2150
 6820 00c8 F610     		asrs	r6, r6, #3
1112:Drivers/lvgl/src/draw/sw/blend/lv_draw_sw_blend_to_i1.c **** }
 6821              		.loc 1 1112 8 view .LVU2151
 6822 00ca 13F806E0 		ldrb	lr, [r3, r6]	@ zero_extendqisi2
1112:Drivers/lvgl/src/draw/sw/blend/lv_draw_sw_blend_to_i1.c **** }
 6823              		.loc 1 1112 46 view .LVU2152
 6824 00ce D2F10008 		rsbs	r8, r2, #0
 6825 00d2 02F00702 		and	r2, r2, #7
 6826              	.LVL722:
1112:Drivers/lvgl/src/draw/sw/blend/lv_draw_sw_blend_to_i1.c **** }
 6827              		.loc 1 1112 46 view .LVU2153
 6828 00d6 08F00708 		and	r8, r8, #7
 6829 00da 58BF     		it	pl
 6830 00dc C8F10002 		rsbpl	r2, r8, #0
1112:Drivers/lvgl/src/draw/sw/blend/lv_draw_sw_blend_to_i1.c **** }
 6831              		.loc 1 1112 35 view .LVU2154
 6832 00e0 C2F10702 		rsb	r2, r2, #7
1112:Drivers/lvgl/src/draw/sw/blend/lv_draw_sw_blend_to_i1.c **** }
 6833              		.loc 1 1112 29 view .LVU2155
 6834 00e4 4FF00108 		mov	r8, #1
 6835 00e8 08FA02F2 		lsl	r2, r8, r2
1112:Drivers/lvgl/src/draw/sw/blend/lv_draw_sw_blend_to_i1.c **** }
 6836              		.loc 1 1112 22 view .LVU2156
 6837 00ec D243     		mvns	r2, r2
 6838 00ee 52B2     		sxtb	r2, r2
 6839 00f0 0EEA020E 		and	lr, lr, r2
 6840 00f4 03F806E0 		strb	lr, [r3, r6]
 6841              	.LVL723:
1113:Drivers/lvgl/src/draw/sw/blend/lv_draw_sw_blend_to_i1.c **** 
 6842              		.loc 1 1113 1 view .LVU2157
 6843 00f8 D5E7     		b	.L410
 6844              	.LVL724:
 6845              	.L449:
1112:Drivers/lvgl/src/draw/sw/blend/lv_draw_sw_blend_to_i1.c **** }
ARM GAS  /tmp/cc9ag92L.s 			page 173


 6846              		.loc 1 1112 17 view .LVU2158
 6847 00fa D61D     		adds	r6, r2, #7
 6848 00fc E4E7     		b	.L411
 6849              	.LVL725:
 6850              	.L448:
1112:Drivers/lvgl/src/draw/sw/blend/lv_draw_sw_blend_to_i1.c **** }
 6851              		.loc 1 1112 17 view .LVU2159
 6852              	.LBE782:
 6853              	.LBE781:
 6854              	.LBE776:
 229:Drivers/lvgl/src/draw/sw/blend/lv_draw_sw_blend_to_i1.c ****             }
 6855              		.loc 1 229 17 is_stmt 1 view .LVU2160
 6856              	.LBB783:
 6857              	.LBI783:
1100:Drivers/lvgl/src/draw/sw/blend/lv_draw_sw_blend_to_i1.c **** {
 6858              		.loc 1 1100 44 view .LVU2161
 6859              	.LBB784:
1102:Drivers/lvgl/src/draw/sw/blend/lv_draw_sw_blend_to_i1.c **** }
 6860              		.loc 1 1102 5 view .LVU2162
1102:Drivers/lvgl/src/draw/sw/blend/lv_draw_sw_blend_to_i1.c **** }
 6861              		.loc 1 1102 12 is_stmt 0 view .LVU2163
 6862 00fe 5344     		add	r3, r3, r10
 6863              	.LVL726:
1102:Drivers/lvgl/src/draw/sw/blend/lv_draw_sw_blend_to_i1.c **** }
 6864              		.loc 1 1102 12 view .LVU2164
 6865              	.LBE784:
 6866              	.LBE783:
 220:Drivers/lvgl/src/draw/sw/blend/lv_draw_sw_blend_to_i1.c ****                 for(int32_t x = 0; x < w; x++) {
 6867              		.loc 1 220 40 is_stmt 1 discriminator 2 view .LVU2165
 6868 0100 0135     		adds	r5, r5, #1
 6869              	.LVL727:
 6870              	.L406:
 220:Drivers/lvgl/src/draw/sw/blend/lv_draw_sw_blend_to_i1.c ****                 for(int32_t x = 0; x < w; x++) {
 6871              		.loc 1 220 34 discriminator 1 view .LVU2166
 6872 0102 BD42     		cmp	r5, r7
 6873 0104 80F22381 		bge	.L405
 6874              	.LBB785:
 221:Drivers/lvgl/src/draw/sw/blend/lv_draw_sw_blend_to_i1.c ****                     if(src_color) {
 6875              		.loc 1 221 29 is_stmt 0 view .LVU2167
 6876 0108 0021     		movs	r1, #0
 6877 010a CDE7     		b	.L413
 6878              	.LVL728:
 6879              	.L438:
 221:Drivers/lvgl/src/draw/sw/blend/lv_draw_sw_blend_to_i1.c ****                     if(src_color) {
 6880              		.loc 1 221 29 view .LVU2168
 6881              	.LBE785:
 220:Drivers/lvgl/src/draw/sw/blend/lv_draw_sw_blend_to_i1.c ****                 for(int32_t x = 0; x < w; x++) {
 6882              		.loc 1 220 25 view .LVU2169
 6883 010c 0025     		movs	r5, #0
 6884              	.LVL729:
 220:Drivers/lvgl/src/draw/sw/blend/lv_draw_sw_blend_to_i1.c ****                 for(int32_t x = 0; x < w; x++) {
 6885              		.loc 1 220 25 view .LVU2170
 6886 010e F8E7     		b	.L406
 6887              	.LVL730:
 6888              	.L451:
 220:Drivers/lvgl/src/draw/sw/blend/lv_draw_sw_blend_to_i1.c ****                 for(int32_t x = 0; x < w; x++) {
 6889              		.loc 1 220 25 view .LVU2171
ARM GAS  /tmp/cc9ag92L.s 			page 174


 6890              	.LBE775:
 6891              	.LBB786:
 6892              	.LBB787:
 6893              	.LBB788:
 238:Drivers/lvgl/src/draw/sw/blend/lv_draw_sw_blend_to_i1.c ****                     uint8_t current_bit = (*dest_bit >> (7 - ((x + bit_ofs) % 8))) & 0x01;
 6894              		.loc 1 238 66 view .LVU2172
 6895 0110 C81D     		adds	r0, r1, #7
 6896 0112 0FE0     		b	.L417
 6897              	.LVL731:
 6898              	.L418:
 245:Drivers/lvgl/src/draw/sw/blend/lv_draw_sw_blend_to_i1.c ****                     }
 6899              		.loc 1 245 25 is_stmt 1 view .LVU2173
 6900              	.LBB789:
 6901              	.LBI789:
1110:Drivers/lvgl/src/draw/sw/blend/lv_draw_sw_blend_to_i1.c **** {
 6902              		.loc 1 1110 42 view .LVU2174
 6903              	.LBB790:
1112:Drivers/lvgl/src/draw/sw/blend/lv_draw_sw_blend_to_i1.c **** }
 6904              		.loc 1 1112 5 view .LVU2175
1112:Drivers/lvgl/src/draw/sw/blend/lv_draw_sw_blend_to_i1.c **** }
 6905              		.loc 1 1112 29 is_stmt 0 view .LVU2176
 6906 0114 0122     		movs	r2, #1
 6907              	.LVL732:
1112:Drivers/lvgl/src/draw/sw/blend/lv_draw_sw_blend_to_i1.c **** }
 6908              		.loc 1 1112 29 view .LVU2177
 6909 0116 8A40     		lsls	r2, r2, r1
1112:Drivers/lvgl/src/draw/sw/blend/lv_draw_sw_blend_to_i1.c **** }
 6910              		.loc 1 1112 22 view .LVU2178
 6911 0118 D243     		mvns	r2, r2
 6912 011a 52B2     		sxtb	r2, r2
 6913 011c 0AEA020A 		and	r10, r10, r2
 6914              	.LVL733:
1112:Drivers/lvgl/src/draw/sw/blend/lv_draw_sw_blend_to_i1.c **** }
 6915              		.loc 1 1112 22 view .LVU2179
 6916 0120 03F800A0 		strb	r10, [r3, r0]
 6917              	.LVL734:
 6918              	.L419:
1112:Drivers/lvgl/src/draw/sw/blend/lv_draw_sw_blend_to_i1.c **** }
 6919              		.loc 1 1112 22 view .LVU2180
 6920              	.LBE790:
 6921              	.LBE789:
 6922              	.LBE788:
 237:Drivers/lvgl/src/draw/sw/blend/lv_draw_sw_blend_to_i1.c ****                     uint8_t * dest_bit = &dest_buf[(x + bit_ofs) / 8];
 6923              		.loc 1 237 44 is_stmt 1 discriminator 2 view .LVU2181
 6924 0124 0136     		adds	r6, r6, #1
 6925              	.LVL735:
 6926              	.L421:
 237:Drivers/lvgl/src/draw/sw/blend/lv_draw_sw_blend_to_i1.c ****                     uint8_t * dest_bit = &dest_buf[(x + bit_ofs) / 8];
 6927              		.loc 1 237 38 discriminator 1 view .LVU2182
 6928 0126 A642     		cmp	r6, r4
 6929 0128 2BDA     		bge	.L450
 6930              	.LBB793:
 238:Drivers/lvgl/src/draw/sw/blend/lv_draw_sw_blend_to_i1.c ****                     uint8_t current_bit = (*dest_bit >> (7 - ((x + bit_ofs) % 8))) & 0x01;
 6931              		.loc 1 238 21 view .LVU2183
 238:Drivers/lvgl/src/draw/sw/blend/lv_draw_sw_blend_to_i1.c ****                     uint8_t current_bit = (*dest_bit >> (7 - ((x + bit_ofs) % 8))) & 0x01;
 6932              		.loc 1 238 55 is_stmt 0 view .LVU2184
 6933 012a 06EB0C01 		add	r1, r6, ip
ARM GAS  /tmp/cc9ag92L.s 			page 175


 238:Drivers/lvgl/src/draw/sw/blend/lv_draw_sw_blend_to_i1.c ****                     uint8_t current_bit = (*dest_bit >> (7 - ((x + bit_ofs) % 8))) & 0x01;
 6934              		.loc 1 238 66 view .LVU2185
 6935 012e 0846     		mov	r0, r1
 6936 0130 0029     		cmp	r1, #0
 6937 0132 EDDB     		blt	.L451
 6938              	.L417:
 6939 0134 C010     		asrs	r0, r0, #3
 6940              	.LVL736:
 239:Drivers/lvgl/src/draw/sw/blend/lv_draw_sw_blend_to_i1.c ****                     uint8_t new_bit = (opa * src_color + (255 - opa) * current_bit) / 255;
 6941              		.loc 1 239 21 is_stmt 1 view .LVU2186
 239:Drivers/lvgl/src/draw/sw/blend/lv_draw_sw_blend_to_i1.c ****                     uint8_t new_bit = (opa * src_color + (255 - opa) * current_bit) / 255;
 6942              		.loc 1 239 44 is_stmt 0 view .LVU2187
 6943 0136 13F800A0 		ldrb	r10, [r3, r0]	@ zero_extendqisi2
 239:Drivers/lvgl/src/draw/sw/blend/lv_draw_sw_blend_to_i1.c ****                     uint8_t new_bit = (opa * src_color + (255 - opa) * current_bit) / 255;
 6944              		.loc 1 239 77 view .LVU2188
 6945 013a 4A42     		rsbs	r2, r1, #0
 6946 013c 01F00701 		and	r1, r1, #7
 6947 0140 02F00702 		and	r2, r2, #7
 6948 0144 58BF     		it	pl
 6949 0146 5142     		rsbpl	r1, r2, #0
 239:Drivers/lvgl/src/draw/sw/blend/lv_draw_sw_blend_to_i1.c ****                     uint8_t new_bit = (opa * src_color + (255 - opa) * current_bit) / 255;
 6950              		.loc 1 239 60 view .LVU2189
 6951 0148 C1F10701 		rsb	r1, r1, #7
 239:Drivers/lvgl/src/draw/sw/blend/lv_draw_sw_blend_to_i1.c ****                     uint8_t new_bit = (opa * src_color + (255 - opa) * current_bit) / 255;
 6952              		.loc 1 239 54 view .LVU2190
 6953 014c 4AFA01F2 		asr	r2, r10, r1
 239:Drivers/lvgl/src/draw/sw/blend/lv_draw_sw_blend_to_i1.c ****                     uint8_t new_bit = (opa * src_color + (255 - opa) * current_bit) / 255;
 6954              		.loc 1 239 29 view .LVU2191
 6955 0150 02F00102 		and	r2, r2, #1
 6956              	.LVL737:
 240:Drivers/lvgl/src/draw/sw/blend/lv_draw_sw_blend_to_i1.c ****                     if(new_bit) {
 6957              		.loc 1 240 21 is_stmt 1 view .LVU2192
 240:Drivers/lvgl/src/draw/sw/blend/lv_draw_sw_blend_to_i1.c ****                     if(new_bit) {
 6958              		.loc 1 240 63 is_stmt 0 view .LVU2193
 6959 0154 C5F1FF0E 		rsb	lr, r5, #255
 240:Drivers/lvgl/src/draw/sw/blend/lv_draw_sw_blend_to_i1.c ****                     if(new_bit) {
 6960              		.loc 1 240 70 view .LVU2194
 6961 0158 0EFB02F2 		mul	r2, lr, r2
 6962              	.LVL738:
 240:Drivers/lvgl/src/draw/sw/blend/lv_draw_sw_blend_to_i1.c ****                     if(new_bit) {
 6963              		.loc 1 240 56 view .LVU2195
 6964 015c 05FB0922 		mla	r2, r5, r9, r2
 240:Drivers/lvgl/src/draw/sw/blend/lv_draw_sw_blend_to_i1.c ****                     if(new_bit) {
 6965              		.loc 1 240 85 view .LVU2196
 6966 0160 DFF8F0B1 		ldr	fp, .L459
 6967 0164 8BFB02BE 		smull	fp, lr, fp, r2
 6968 0168 9644     		add	lr, lr, r2
 6969 016a D217     		asrs	r2, r2, #31
 6970 016c C2EBEE12 		rsb	r2, r2, lr, asr #7
 6971              	.LVL739:
 241:Drivers/lvgl/src/draw/sw/blend/lv_draw_sw_blend_to_i1.c ****                         set_bit(dest_buf, x + bit_ofs);
 6972              		.loc 1 241 21 is_stmt 1 view .LVU2197
 241:Drivers/lvgl/src/draw/sw/blend/lv_draw_sw_blend_to_i1.c ****                         set_bit(dest_buf, x + bit_ofs);
 6973              		.loc 1 241 23 is_stmt 0 view .LVU2198
 6974 0170 12F0FF0F 		tst	r2, #255
 6975 0174 CED0     		beq	.L418
 242:Drivers/lvgl/src/draw/sw/blend/lv_draw_sw_blend_to_i1.c ****                     }
ARM GAS  /tmp/cc9ag92L.s 			page 176


 6976              		.loc 1 242 25 is_stmt 1 view .LVU2199
 6977              	.LVL740:
 6978              	.LBB791:
 6979              	.LBI791:
1105:Drivers/lvgl/src/draw/sw/blend/lv_draw_sw_blend_to_i1.c **** {
 6980              		.loc 1 1105 42 view .LVU2200
 6981              	.LBB792:
1107:Drivers/lvgl/src/draw/sw/blend/lv_draw_sw_blend_to_i1.c **** }
 6982              		.loc 1 1107 5 view .LVU2201
1107:Drivers/lvgl/src/draw/sw/blend/lv_draw_sw_blend_to_i1.c **** }
 6983              		.loc 1 1107 28 is_stmt 0 view .LVU2202
 6984 0176 0122     		movs	r2, #1
 6985              	.LVL741:
1107:Drivers/lvgl/src/draw/sw/blend/lv_draw_sw_blend_to_i1.c **** }
 6986              		.loc 1 1107 28 view .LVU2203
 6987 0178 8A40     		lsls	r2, r2, r1
1107:Drivers/lvgl/src/draw/sw/blend/lv_draw_sw_blend_to_i1.c **** }
 6988              		.loc 1 1107 22 view .LVU2204
 6989 017a 4AEA0202 		orr	r2, r10, r2
 6990 017e 1A54     		strb	r2, [r3, r0]
 6991              	.LVL742:
1108:Drivers/lvgl/src/draw/sw/blend/lv_draw_sw_blend_to_i1.c **** 
 6992              		.loc 1 1108 1 view .LVU2205
 6993 0180 D0E7     		b	.L419
 6994              	.LVL743:
 6995              	.L450:
1108:Drivers/lvgl/src/draw/sw/blend/lv_draw_sw_blend_to_i1.c **** 
 6996              		.loc 1 1108 1 view .LVU2206
 6997              	.LBE792:
 6998              	.LBE791:
 6999              	.LBE793:
 7000              	.LBE787:
 7001              	.LBB794:
 7002              	.LBB795:
1102:Drivers/lvgl/src/draw/sw/blend/lv_draw_sw_blend_to_i1.c **** }
 7003              		.loc 1 1102 12 view .LVU2207
 7004 0182 DDF804B0 		ldr	fp, [sp, #4]
 7005              	.LBE795:
 7006              	.LBE794:
 248:Drivers/lvgl/src/draw/sw/blend/lv_draw_sw_blend_to_i1.c ****             }
 7007              		.loc 1 248 17 is_stmt 1 view .LVU2208
 7008              	.LVL744:
 7009              	.LBB797:
 7010              	.LBI794:
1100:Drivers/lvgl/src/draw/sw/blend/lv_draw_sw_blend_to_i1.c **** {
 7011              		.loc 1 1100 44 view .LVU2209
 7012              	.LBB796:
1102:Drivers/lvgl/src/draw/sw/blend/lv_draw_sw_blend_to_i1.c **** }
 7013              		.loc 1 1102 5 view .LVU2210
1102:Drivers/lvgl/src/draw/sw/blend/lv_draw_sw_blend_to_i1.c **** }
 7014              		.loc 1 1102 12 is_stmt 0 view .LVU2211
 7015 0186 4344     		add	r3, r3, r8
 7016              	.LVL745:
1102:Drivers/lvgl/src/draw/sw/blend/lv_draw_sw_blend_to_i1.c **** }
 7017              		.loc 1 1102 12 view .LVU2212
 7018              	.LBE796:
 7019              	.LBE797:
ARM GAS  /tmp/cc9ag92L.s 			page 177


 236:Drivers/lvgl/src/draw/sw/blend/lv_draw_sw_blend_to_i1.c ****                 for(int32_t x = 0; x < w; x++) {
 7020              		.loc 1 236 40 is_stmt 1 discriminator 2 view .LVU2213
 7021 0188 0BF1010B 		add	fp, fp, #1
 7022              	.LVL746:
 7023              	.L415:
 236:Drivers/lvgl/src/draw/sw/blend/lv_draw_sw_blend_to_i1.c ****                 for(int32_t x = 0; x < w; x++) {
 7024              		.loc 1 236 34 discriminator 1 view .LVU2214
 7025 018c BB45     		cmp	fp, r7
 7026 018e 80F2DE80 		bge	.L405
 7027              	.LBB798:
 237:Drivers/lvgl/src/draw/sw/blend/lv_draw_sw_blend_to_i1.c ****                     uint8_t * dest_bit = &dest_buf[(x + bit_ofs) / 8];
 7028              		.loc 1 237 29 is_stmt 0 view .LVU2215
 7029 0192 0026     		movs	r6, #0
 7030 0194 CDF804B0 		str	fp, [sp, #4]
 7031 0198 C5E7     		b	.L421
 7032              	.LVL747:
 7033              	.L440:
 237:Drivers/lvgl/src/draw/sw/blend/lv_draw_sw_blend_to_i1.c ****                     uint8_t * dest_bit = &dest_buf[(x + bit_ofs) / 8];
 7034              		.loc 1 237 29 view .LVU2216
 7035              	.LBE798:
 236:Drivers/lvgl/src/draw/sw/blend/lv_draw_sw_blend_to_i1.c ****                 for(int32_t x = 0; x < w; x++) {
 7036              		.loc 1 236 25 view .LVU2217
 7037 019a 4FF0000B 		mov	fp, #0
 7038              	.LVL748:
 236:Drivers/lvgl/src/draw/sw/blend/lv_draw_sw_blend_to_i1.c ****                 for(int32_t x = 0; x < w; x++) {
 7039              		.loc 1 236 25 view .LVU2218
 7040 019e D046     		mov	r8, r10
 7041              	.LVL749:
 236:Drivers/lvgl/src/draw/sw/blend/lv_draw_sw_blend_to_i1.c ****                 for(int32_t x = 0; x < w; x++) {
 7042              		.loc 1 236 25 view .LVU2219
 7043 01a0 F4E7     		b	.L415
 7044              	.LVL750:
 7045              	.L455:
 236:Drivers/lvgl/src/draw/sw/blend/lv_draw_sw_blend_to_i1.c ****                 for(int32_t x = 0; x < w; x++) {
 7046              		.loc 1 236 25 view .LVU2220
 7047              	.LBE786:
 7048              	.LBB799:
 7049              	.LBB800:
 7050              	.LBB801:
 260:Drivers/lvgl/src/draw/sw/blend/lv_draw_sw_blend_to_i1.c ****                             set_bit(dest_buf, x + bit_ofs);
 7051              		.loc 1 260 25 is_stmt 1 view .LVU2221
 260:Drivers/lvgl/src/draw/sw/blend/lv_draw_sw_blend_to_i1.c ****                             set_bit(dest_buf, x + bit_ofs);
 7052              		.loc 1 260 27 is_stmt 0 view .LVU2222
 7053 01a2 7F28     		cmp	r0, #127
 7054 01a4 16D9     		bls	.L426
 261:Drivers/lvgl/src/draw/sw/blend/lv_draw_sw_blend_to_i1.c ****                         }
 7055              		.loc 1 261 29 is_stmt 1 view .LVU2223
 7056 01a6 06EB0C02 		add	r2, r6, ip
 7057              	.LVL751:
 7058              	.LBB802:
 7059              	.LBI802:
1105:Drivers/lvgl/src/draw/sw/blend/lv_draw_sw_blend_to_i1.c **** {
 7060              		.loc 1 1105 42 view .LVU2224
 7061              	.LBB803:
1107:Drivers/lvgl/src/draw/sw/blend/lv_draw_sw_blend_to_i1.c **** }
 7062              		.loc 1 1107 5 view .LVU2225
1107:Drivers/lvgl/src/draw/sw/blend/lv_draw_sw_blend_to_i1.c **** }
ARM GAS  /tmp/cc9ag92L.s 			page 178


 7063              		.loc 1 1107 17 is_stmt 0 view .LVU2226
 7064 01aa 1146     		mov	r1, r2
 7065 01ac 002A     		cmp	r2, #0
 7066 01ae 0FDB     		blt	.L452
 7067              	.L427:
1107:Drivers/lvgl/src/draw/sw/blend/lv_draw_sw_blend_to_i1.c **** }
 7068              		.loc 1 1107 17 view .LVU2227
 7069 01b0 C910     		asrs	r1, r1, #3
1107:Drivers/lvgl/src/draw/sw/blend/lv_draw_sw_blend_to_i1.c **** }
 7070              		.loc 1 1107 8 view .LVU2228
 7071 01b2 5D5C     		ldrb	r5, [r3, r1]	@ zero_extendqisi2
 7072              	.LVL752:
1107:Drivers/lvgl/src/draw/sw/blend/lv_draw_sw_blend_to_i1.c **** }
 7073              		.loc 1 1107 45 view .LVU2229
 7074 01b4 5742     		rsbs	r7, r2, #0
 7075 01b6 02F00702 		and	r2, r2, #7
 7076              	.LVL753:
1107:Drivers/lvgl/src/draw/sw/blend/lv_draw_sw_blend_to_i1.c **** }
 7077              		.loc 1 1107 45 view .LVU2230
 7078 01ba 07F00707 		and	r7, r7, #7
 7079 01be 58BF     		it	pl
 7080 01c0 7A42     		rsbpl	r2, r7, #0
1107:Drivers/lvgl/src/draw/sw/blend/lv_draw_sw_blend_to_i1.c **** }
 7081              		.loc 1 1107 34 view .LVU2231
 7082 01c2 C2F10702 		rsb	r2, r2, #7
1107:Drivers/lvgl/src/draw/sw/blend/lv_draw_sw_blend_to_i1.c **** }
 7083              		.loc 1 1107 28 view .LVU2232
 7084 01c6 0127     		movs	r7, #1
 7085 01c8 9740     		lsls	r7, r7, r2
1107:Drivers/lvgl/src/draw/sw/blend/lv_draw_sw_blend_to_i1.c **** }
 7086              		.loc 1 1107 22 view .LVU2233
 7087 01ca 3D43     		orrs	r5, r5, r7
 7088 01cc 5D54     		strb	r5, [r3, r1]
 7089              	.LVL754:
1108:Drivers/lvgl/src/draw/sw/blend/lv_draw_sw_blend_to_i1.c **** 
 7090              		.loc 1 1108 1 view .LVU2234
 7091 01ce 24E0     		b	.L424
 7092              	.LVL755:
 7093              	.L452:
1107:Drivers/lvgl/src/draw/sw/blend/lv_draw_sw_blend_to_i1.c **** }
 7094              		.loc 1 1107 17 view .LVU2235
 7095 01d0 D11D     		adds	r1, r2, #7
 7096              	.LVL756:
1107:Drivers/lvgl/src/draw/sw/blend/lv_draw_sw_blend_to_i1.c **** }
 7097              		.loc 1 1107 17 view .LVU2236
 7098 01d2 EDE7     		b	.L427
 7099              	.LVL757:
 7100              	.L426:
1107:Drivers/lvgl/src/draw/sw/blend/lv_draw_sw_blend_to_i1.c **** }
 7101              		.loc 1 1107 17 view .LVU2237
 7102              	.LBE803:
 7103              	.LBE802:
 264:Drivers/lvgl/src/draw/sw/blend/lv_draw_sw_blend_to_i1.c ****                         }
 7104              		.loc 1 264 29 is_stmt 1 view .LVU2238
 7105 01d4 06EB0C02 		add	r2, r6, ip
 7106              	.LVL758:
 7107              	.LBB804:
ARM GAS  /tmp/cc9ag92L.s 			page 179


 7108              	.LBI804:
1110:Drivers/lvgl/src/draw/sw/blend/lv_draw_sw_blend_to_i1.c **** {
 7109              		.loc 1 1110 42 view .LVU2239
 7110              	.LBB805:
1112:Drivers/lvgl/src/draw/sw/blend/lv_draw_sw_blend_to_i1.c **** }
 7111              		.loc 1 1112 5 view .LVU2240
1112:Drivers/lvgl/src/draw/sw/blend/lv_draw_sw_blend_to_i1.c **** }
 7112              		.loc 1 1112 17 is_stmt 0 view .LVU2241
 7113 01d8 1146     		mov	r1, r2
 7114 01da 002A     		cmp	r2, #0
 7115 01dc 11DB     		blt	.L453
 7116              	.L428:
1112:Drivers/lvgl/src/draw/sw/blend/lv_draw_sw_blend_to_i1.c **** }
 7117              		.loc 1 1112 17 view .LVU2242
 7118 01de C910     		asrs	r1, r1, #3
1112:Drivers/lvgl/src/draw/sw/blend/lv_draw_sw_blend_to_i1.c **** }
 7119              		.loc 1 1112 8 view .LVU2243
 7120 01e0 5D5C     		ldrb	r5, [r3, r1]	@ zero_extendqisi2
 7121              	.LVL759:
1112:Drivers/lvgl/src/draw/sw/blend/lv_draw_sw_blend_to_i1.c **** }
 7122              		.loc 1 1112 46 view .LVU2244
 7123 01e2 5742     		rsbs	r7, r2, #0
 7124 01e4 02F00702 		and	r2, r2, #7
 7125              	.LVL760:
1112:Drivers/lvgl/src/draw/sw/blend/lv_draw_sw_blend_to_i1.c **** }
 7126              		.loc 1 1112 46 view .LVU2245
 7127 01e8 07F00707 		and	r7, r7, #7
 7128 01ec 58BF     		it	pl
 7129 01ee 7A42     		rsbpl	r2, r7, #0
1112:Drivers/lvgl/src/draw/sw/blend/lv_draw_sw_blend_to_i1.c **** }
 7130              		.loc 1 1112 35 view .LVU2246
 7131 01f0 C2F10707 		rsb	r7, r2, #7
1112:Drivers/lvgl/src/draw/sw/blend/lv_draw_sw_blend_to_i1.c **** }
 7132              		.loc 1 1112 29 view .LVU2247
 7133 01f4 0122     		movs	r2, #1
 7134 01f6 BA40     		lsls	r2, r2, r7
1112:Drivers/lvgl/src/draw/sw/blend/lv_draw_sw_blend_to_i1.c **** }
 7135              		.loc 1 1112 22 view .LVU2248
 7136 01f8 D243     		mvns	r2, r2
 7137 01fa 52B2     		sxtb	r2, r2
 7138 01fc 1540     		ands	r5, r5, r2
 7139 01fe 5D54     		strb	r5, [r3, r1]
 7140              	.LVL761:
1113:Drivers/lvgl/src/draw/sw/blend/lv_draw_sw_blend_to_i1.c **** 
 7141              		.loc 1 1113 1 view .LVU2249
 7142 0200 0BE0     		b	.L424
 7143              	.LVL762:
 7144              	.L453:
1112:Drivers/lvgl/src/draw/sw/blend/lv_draw_sw_blend_to_i1.c **** }
 7145              		.loc 1 1112 17 view .LVU2250
 7146 0202 D11D     		adds	r1, r2, #7
 7147              	.LVL763:
1112:Drivers/lvgl/src/draw/sw/blend/lv_draw_sw_blend_to_i1.c **** }
 7148              		.loc 1 1112 17 view .LVU2251
 7149 0204 EBE7     		b	.L428
 7150              	.LVL764:
 7151              	.L456:
ARM GAS  /tmp/cc9ag92L.s 			page 180


1112:Drivers/lvgl/src/draw/sw/blend/lv_draw_sw_blend_to_i1.c **** }
 7152              		.loc 1 1112 17 view .LVU2252
 7153              	.LBE805:
 7154              	.LBE804:
 7155              	.LBB806:
 268:Drivers/lvgl/src/draw/sw/blend/lv_draw_sw_blend_to_i1.c ****                         uint8_t current_bit = (*dest_bit >> (7 - ((x + bit_ofs) % 8))) & 0x01;
 7156              		.loc 1 268 70 view .LVU2253
 7157 0206 CF1D     		adds	r7, r1, #7
 7158 0208 15E0     		b	.L429
 7159              	.LVL765:
 7160              	.L430:
 275:Drivers/lvgl/src/draw/sw/blend/lv_draw_sw_blend_to_i1.c ****                         }
 7161              		.loc 1 275 29 is_stmt 1 view .LVU2254
 7162              	.LBB807:
 7163              	.LBI807:
1110:Drivers/lvgl/src/draw/sw/blend/lv_draw_sw_blend_to_i1.c **** {
 7164              		.loc 1 1110 42 view .LVU2255
 7165              	.LBB808:
1112:Drivers/lvgl/src/draw/sw/blend/lv_draw_sw_blend_to_i1.c **** }
 7166              		.loc 1 1112 5 view .LVU2256
1112:Drivers/lvgl/src/draw/sw/blend/lv_draw_sw_blend_to_i1.c **** }
 7167              		.loc 1 1112 29 is_stmt 0 view .LVU2257
 7168 020a 0122     		movs	r2, #1
 7169              	.LVL766:
1112:Drivers/lvgl/src/draw/sw/blend/lv_draw_sw_blend_to_i1.c **** }
 7170              		.loc 1 1112 29 view .LVU2258
 7171 020c 8A40     		lsls	r2, r2, r1
1112:Drivers/lvgl/src/draw/sw/blend/lv_draw_sw_blend_to_i1.c **** }
 7172              		.loc 1 1112 22 view .LVU2259
 7173 020e D243     		mvns	r2, r2
 7174 0210 52B2     		sxtb	r2, r2
 7175 0212 0EEA020E 		and	lr, lr, r2
 7176              	.LVL767:
1112:Drivers/lvgl/src/draw/sw/blend/lv_draw_sw_blend_to_i1.c **** }
 7177              		.loc 1 1112 22 view .LVU2260
 7178 0216 03F807E0 		strb	lr, [r3, r7]
 7179              	.LVL768:
 7180              	.L424:
1112:Drivers/lvgl/src/draw/sw/blend/lv_draw_sw_blend_to_i1.c **** }
 7181              		.loc 1 1112 22 view .LVU2261
 7182              	.LBE808:
 7183              	.LBE807:
 7184              	.LBE806:
 7185              	.LBE801:
 256:Drivers/lvgl/src/draw/sw/blend/lv_draw_sw_blend_to_i1.c ****                     uint8_t mask_val = mask[x];
 7186              		.loc 1 256 44 is_stmt 1 discriminator 2 view .LVU2262
 7187 021a 0136     		adds	r6, r6, #1
 7188              	.LVL769:
 7189              	.L432:
 256:Drivers/lvgl/src/draw/sw/blend/lv_draw_sw_blend_to_i1.c ****                     uint8_t mask_val = mask[x];
 7190              		.loc 1 256 38 discriminator 1 view .LVU2263
 7191 021c A642     		cmp	r6, r4
 7192 021e 30DA     		bge	.L454
 7193              	.LBB812:
 257:Drivers/lvgl/src/draw/sw/blend/lv_draw_sw_blend_to_i1.c ****                     if(mask_val == LV_OPA_TRANSP) continue;
 7194              		.loc 1 257 21 view .LVU2264
 257:Drivers/lvgl/src/draw/sw/blend/lv_draw_sw_blend_to_i1.c ****                     if(mask_val == LV_OPA_TRANSP) continue;
ARM GAS  /tmp/cc9ag92L.s 			page 181


 7195              		.loc 1 257 29 is_stmt 0 view .LVU2265
 7196 0220 1BF80650 		ldrb	r5, [fp, r6]	@ zero_extendqisi2
 7197              	.LVL770:
 258:Drivers/lvgl/src/draw/sw/blend/lv_draw_sw_blend_to_i1.c ****                     if(mask_val == LV_OPA_COVER) {
 7198              		.loc 1 258 21 is_stmt 1 view .LVU2266
 258:Drivers/lvgl/src/draw/sw/blend/lv_draw_sw_blend_to_i1.c ****                     if(mask_val == LV_OPA_COVER) {
 7199              		.loc 1 258 23 is_stmt 0 view .LVU2267
 7200 0224 002D     		cmp	r5, #0
 7201 0226 F8D0     		beq	.L424
 259:Drivers/lvgl/src/draw/sw/blend/lv_draw_sw_blend_to_i1.c ****                         if(src_color) {
 7202              		.loc 1 259 21 is_stmt 1 view .LVU2268
 259:Drivers/lvgl/src/draw/sw/blend/lv_draw_sw_blend_to_i1.c ****                         if(src_color) {
 7203              		.loc 1 259 23 is_stmt 0 view .LVU2269
 7204 0228 FF2D     		cmp	r5, #255
 7205 022a BAD0     		beq	.L455
 7206              	.LBB811:
 268:Drivers/lvgl/src/draw/sw/blend/lv_draw_sw_blend_to_i1.c ****                         uint8_t current_bit = (*dest_bit >> (7 - ((x + bit_ofs) % 8))) & 0x01;
 7207              		.loc 1 268 25 is_stmt 1 view .LVU2270
 268:Drivers/lvgl/src/draw/sw/blend/lv_draw_sw_blend_to_i1.c ****                         uint8_t current_bit = (*dest_bit >> (7 - ((x + bit_ofs) % 8))) & 0x01;
 7208              		.loc 1 268 59 is_stmt 0 view .LVU2271
 7209 022c 06EB0C01 		add	r1, r6, ip
 268:Drivers/lvgl/src/draw/sw/blend/lv_draw_sw_blend_to_i1.c ****                         uint8_t current_bit = (*dest_bit >> (7 - ((x + bit_ofs) % 8))) & 0x01;
 7210              		.loc 1 268 70 view .LVU2272
 7211 0230 0F46     		mov	r7, r1
 7212 0232 0029     		cmp	r1, #0
 7213 0234 E7DB     		blt	.L456
 7214              	.L429:
 268:Drivers/lvgl/src/draw/sw/blend/lv_draw_sw_blend_to_i1.c ****                         uint8_t current_bit = (*dest_bit >> (7 - ((x + bit_ofs) % 8))) & 0x01;
 7215              		.loc 1 268 70 view .LVU2273
 7216 0236 FF10     		asrs	r7, r7, #3
 7217              	.LVL771:
 269:Drivers/lvgl/src/draw/sw/blend/lv_draw_sw_blend_to_i1.c ****                         uint8_t new_bit = (mask_val * src_color + (255 - mask_val) * current_bit) /
 7218              		.loc 1 269 25 is_stmt 1 view .LVU2274
 269:Drivers/lvgl/src/draw/sw/blend/lv_draw_sw_blend_to_i1.c ****                         uint8_t new_bit = (mask_val * src_color + (255 - mask_val) * current_bit) /
 7219              		.loc 1 269 48 is_stmt 0 view .LVU2275
 7220 0238 13F807E0 		ldrb	lr, [r3, r7]	@ zero_extendqisi2
 269:Drivers/lvgl/src/draw/sw/blend/lv_draw_sw_blend_to_i1.c ****                         uint8_t new_bit = (mask_val * src_color + (255 - mask_val) * current_bit) /
 7221              		.loc 1 269 81 view .LVU2276
 7222 023c 4A42     		rsbs	r2, r1, #0
 7223 023e 01F00701 		and	r1, r1, #7
 7224 0242 02F00702 		and	r2, r2, #7
 7225 0246 58BF     		it	pl
 7226 0248 5142     		rsbpl	r1, r2, #0
 269:Drivers/lvgl/src/draw/sw/blend/lv_draw_sw_blend_to_i1.c ****                         uint8_t new_bit = (mask_val * src_color + (255 - mask_val) * current_bit) /
 7227              		.loc 1 269 64 view .LVU2277
 7228 024a C1F10701 		rsb	r1, r1, #7
 269:Drivers/lvgl/src/draw/sw/blend/lv_draw_sw_blend_to_i1.c ****                         uint8_t new_bit = (mask_val * src_color + (255 - mask_val) * current_bit) /
 7229              		.loc 1 269 58 view .LVU2278
 7230 024e 4EFA01F2 		asr	r2, lr, r1
 269:Drivers/lvgl/src/draw/sw/blend/lv_draw_sw_blend_to_i1.c ****                         uint8_t new_bit = (mask_val * src_color + (255 - mask_val) * current_bit) /
 7231              		.loc 1 269 33 view .LVU2279
 7232 0252 02F00102 		and	r2, r2, #1
 7233              	.LVL772:
 270:Drivers/lvgl/src/draw/sw/blend/lv_draw_sw_blend_to_i1.c ****                         if(new_bit) {
 7234              		.loc 1 270 25 is_stmt 1 view .LVU2280
 270:Drivers/lvgl/src/draw/sw/blend/lv_draw_sw_blend_to_i1.c ****                         if(new_bit) {
 7235              		.loc 1 270 72 is_stmt 0 view .LVU2281
ARM GAS  /tmp/cc9ag92L.s 			page 182


 7236 0256 C5F1FF08 		rsb	r8, r5, #255
 270:Drivers/lvgl/src/draw/sw/blend/lv_draw_sw_blend_to_i1.c ****                         if(new_bit) {
 7237              		.loc 1 270 84 view .LVU2282
 7238 025a 08FB02F2 		mul	r2, r8, r2
 7239              	.LVL773:
 270:Drivers/lvgl/src/draw/sw/blend/lv_draw_sw_blend_to_i1.c ****                         if(new_bit) {
 7240              		.loc 1 270 65 view .LVU2283
 7241 025e 05FB0922 		mla	r2, r5, r9, r2
 270:Drivers/lvgl/src/draw/sw/blend/lv_draw_sw_blend_to_i1.c ****                         if(new_bit) {
 7242              		.loc 1 270 99 view .LVU2284
 7243 0262 3C4D     		ldr	r5, .L459
 7244              	.LVL774:
 270:Drivers/lvgl/src/draw/sw/blend/lv_draw_sw_blend_to_i1.c ****                         if(new_bit) {
 7245              		.loc 1 270 99 view .LVU2285
 7246 0264 85FB0285 		smull	r8, r5, r5, r2
 7247 0268 1544     		add	r5, r5, r2
 7248 026a D217     		asrs	r2, r2, #31
 7249 026c C2EBE512 		rsb	r2, r2, r5, asr #7
 7250              	.LVL775:
 271:Drivers/lvgl/src/draw/sw/blend/lv_draw_sw_blend_to_i1.c ****                             set_bit(dest_buf, x + bit_ofs);
 7251              		.loc 1 271 25 is_stmt 1 view .LVU2286
 271:Drivers/lvgl/src/draw/sw/blend/lv_draw_sw_blend_to_i1.c ****                             set_bit(dest_buf, x + bit_ofs);
 7252              		.loc 1 271 27 is_stmt 0 view .LVU2287
 7253 0270 12F0FF0F 		tst	r2, #255
 7254 0274 C9D0     		beq	.L430
 272:Drivers/lvgl/src/draw/sw/blend/lv_draw_sw_blend_to_i1.c ****                         }
 7255              		.loc 1 272 29 is_stmt 1 view .LVU2288
 7256              	.LVL776:
 7257              	.LBB809:
 7258              	.LBI809:
1105:Drivers/lvgl/src/draw/sw/blend/lv_draw_sw_blend_to_i1.c **** {
 7259              		.loc 1 1105 42 view .LVU2289
 7260              	.LBB810:
1107:Drivers/lvgl/src/draw/sw/blend/lv_draw_sw_blend_to_i1.c **** }
 7261              		.loc 1 1107 5 view .LVU2290
1107:Drivers/lvgl/src/draw/sw/blend/lv_draw_sw_blend_to_i1.c **** }
 7262              		.loc 1 1107 28 is_stmt 0 view .LVU2291
 7263 0276 0122     		movs	r2, #1
 7264              	.LVL777:
1107:Drivers/lvgl/src/draw/sw/blend/lv_draw_sw_blend_to_i1.c **** }
 7265              		.loc 1 1107 28 view .LVU2292
 7266 0278 8A40     		lsls	r2, r2, r1
1107:Drivers/lvgl/src/draw/sw/blend/lv_draw_sw_blend_to_i1.c **** }
 7267              		.loc 1 1107 22 view .LVU2293
 7268 027a 4EEA0202 		orr	r2, lr, r2
 7269 027e DA55     		strb	r2, [r3, r7]
 7270              	.LVL778:
1108:Drivers/lvgl/src/draw/sw/blend/lv_draw_sw_blend_to_i1.c **** 
 7271              		.loc 1 1108 1 view .LVU2294
 7272 0280 CBE7     		b	.L424
 7273              	.LVL779:
 7274              	.L454:
1108:Drivers/lvgl/src/draw/sw/blend/lv_draw_sw_blend_to_i1.c **** 
 7275              		.loc 1 1108 1 view .LVU2295
 7276              	.LBE810:
 7277              	.LBE809:
 7278              	.LBE811:
ARM GAS  /tmp/cc9ag92L.s 			page 183


 7279              	.LBE812:
 7280              	.LBE800:
 7281              	.LBB813:
 7282              	.LBB814:
1102:Drivers/lvgl/src/draw/sw/blend/lv_draw_sw_blend_to_i1.c **** }
 7283              		.loc 1 1102 12 view .LVU2296
 7284 0282 019D     		ldr	r5, [sp, #4]
 7285              	.LBE814:
 7286              	.LBE813:
 279:Drivers/lvgl/src/draw/sw/blend/lv_draw_sw_blend_to_i1.c ****                 mask += mask_stride;
 7287              		.loc 1 279 17 is_stmt 1 view .LVU2297
 7288              	.LVL780:
 7289              	.LBB816:
 7290              	.LBI813:
1100:Drivers/lvgl/src/draw/sw/blend/lv_draw_sw_blend_to_i1.c **** {
 7291              		.loc 1 1100 44 view .LVU2298
 7292              	.LBB815:
1102:Drivers/lvgl/src/draw/sw/blend/lv_draw_sw_blend_to_i1.c **** }
 7293              		.loc 1 1102 5 view .LVU2299
1102:Drivers/lvgl/src/draw/sw/blend/lv_draw_sw_blend_to_i1.c **** }
 7294              		.loc 1 1102 12 is_stmt 0 view .LVU2300
 7295 0284 5344     		add	r3, r3, r10
 7296              	.LVL781:
1102:Drivers/lvgl/src/draw/sw/blend/lv_draw_sw_blend_to_i1.c **** }
 7297              		.loc 1 1102 12 view .LVU2301
 7298              	.LBE815:
 7299              	.LBE816:
 280:Drivers/lvgl/src/draw/sw/blend/lv_draw_sw_blend_to_i1.c ****             }
 7300              		.loc 1 280 17 is_stmt 1 view .LVU2302
 280:Drivers/lvgl/src/draw/sw/blend/lv_draw_sw_blend_to_i1.c ****             }
 7301              		.loc 1 280 22 is_stmt 0 view .LVU2303
 7302 0286 039A     		ldr	r2, [sp, #12]
 7303 0288 9344     		add	fp, fp, r2
 7304              	.LVL782:
 255:Drivers/lvgl/src/draw/sw/blend/lv_draw_sw_blend_to_i1.c ****                 for(int32_t x = 0; x < w; x++) {
 7305              		.loc 1 255 40 is_stmt 1 discriminator 2 view .LVU2304
 7306 028a 0135     		adds	r5, r5, #1
 7307              	.LVL783:
 7308              	.L422:
 255:Drivers/lvgl/src/draw/sw/blend/lv_draw_sw_blend_to_i1.c ****                 for(int32_t x = 0; x < w; x++) {
 7309              		.loc 1 255 34 discriminator 1 view .LVU2305
 7310 028c 029A     		ldr	r2, [sp, #8]
 7311 028e 9542     		cmp	r5, r2
 7312 0290 5DDA     		bge	.L405
 7313              	.LBB817:
 256:Drivers/lvgl/src/draw/sw/blend/lv_draw_sw_blend_to_i1.c ****                     uint8_t mask_val = mask[x];
 7314              		.loc 1 256 29 is_stmt 0 view .LVU2306
 7315 0292 0026     		movs	r6, #0
 7316 0294 0195     		str	r5, [sp, #4]
 7317 0296 C1E7     		b	.L432
 7318              	.LVL784:
 7319              	.L442:
 256:Drivers/lvgl/src/draw/sw/blend/lv_draw_sw_blend_to_i1.c ****                     uint8_t mask_val = mask[x];
 7320              		.loc 1 256 29 view .LVU2307
 7321              	.LBE817:
 255:Drivers/lvgl/src/draw/sw/blend/lv_draw_sw_blend_to_i1.c ****                 for(int32_t x = 0; x < w; x++) {
 7322              		.loc 1 255 25 view .LVU2308
ARM GAS  /tmp/cc9ag92L.s 			page 184


 7323 0298 0025     		movs	r5, #0
 7324              	.LVL785:
 255:Drivers/lvgl/src/draw/sw/blend/lv_draw_sw_blend_to_i1.c ****                 for(int32_t x = 0; x < w; x++) {
 7325              		.loc 1 255 25 view .LVU2309
 7326 029a 0297     		str	r7, [sp, #8]
 7327 029c CDF80C80 		str	r8, [sp, #12]
 7328 02a0 F4E7     		b	.L422
 7329              	.LVL786:
 7330              	.L458:
 255:Drivers/lvgl/src/draw/sw/blend/lv_draw_sw_blend_to_i1.c ****                 for(int32_t x = 0; x < w; x++) {
 7331              		.loc 1 255 25 view .LVU2310
 7332              	.LBE799:
 7333              	.LBB818:
 7334              	.LBB819:
 7335              	.LBB820:
 291:Drivers/lvgl/src/draw/sw/blend/lv_draw_sw_blend_to_i1.c ****                     uint8_t current_bit = (*dest_bit >> (7 - ((x  + bit_ofs) % 8))) & 0x01;
 7336              		.loc 1 291 66 view .LVU2311
 7337 02a2 01F1070E 		add	lr, r1, #7
 7338 02a6 13E0     		b	.L434
 7339              	.LVL787:
 7340              	.L435:
 299:Drivers/lvgl/src/draw/sw/blend/lv_draw_sw_blend_to_i1.c ****                     }
 7341              		.loc 1 299 25 is_stmt 1 view .LVU2312
 7342              	.LBB821:
 7343              	.LBI821:
1110:Drivers/lvgl/src/draw/sw/blend/lv_draw_sw_blend_to_i1.c **** {
 7344              		.loc 1 1110 42 view .LVU2313
 7345              	.LBB822:
1112:Drivers/lvgl/src/draw/sw/blend/lv_draw_sw_blend_to_i1.c **** }
 7346              		.loc 1 1112 5 view .LVU2314
1112:Drivers/lvgl/src/draw/sw/blend/lv_draw_sw_blend_to_i1.c **** }
 7347              		.loc 1 1112 29 is_stmt 0 view .LVU2315
 7348 02a8 0122     		movs	r2, #1
 7349              	.LVL788:
1112:Drivers/lvgl/src/draw/sw/blend/lv_draw_sw_blend_to_i1.c **** }
 7350              		.loc 1 1112 29 view .LVU2316
 7351 02aa 8A40     		lsls	r2, r2, r1
1112:Drivers/lvgl/src/draw/sw/blend/lv_draw_sw_blend_to_i1.c **** }
 7352              		.loc 1 1112 22 view .LVU2317
 7353 02ac D243     		mvns	r2, r2
 7354 02ae 52B2     		sxtb	r2, r2
 7355 02b0 08EA0208 		and	r8, r8, r2
 7356              	.LVL789:
1112:Drivers/lvgl/src/draw/sw/blend/lv_draw_sw_blend_to_i1.c **** }
 7357              		.loc 1 1112 22 view .LVU2318
 7358 02b4 03F80E80 		strb	r8, [r3, lr]
 7359              	.LVL790:
 7360              	.L433:
1112:Drivers/lvgl/src/draw/sw/blend/lv_draw_sw_blend_to_i1.c **** }
 7361              		.loc 1 1112 22 view .LVU2319
 7362              	.LBE822:
 7363              	.LBE821:
 7364              	.LBE820:
 288:Drivers/lvgl/src/draw/sw/blend/lv_draw_sw_blend_to_i1.c ****                     uint8_t mask_val = mask[x];
 7365              		.loc 1 288 44 is_stmt 1 discriminator 2 view .LVU2320
 7366 02b8 0130     		adds	r0, r0, #1
 7367              	.LVL791:
ARM GAS  /tmp/cc9ag92L.s 			page 185


 7368              	.L437:
 288:Drivers/lvgl/src/draw/sw/blend/lv_draw_sw_blend_to_i1.c ****                     uint8_t mask_val = mask[x];
 7369              		.loc 1 288 38 discriminator 1 view .LVU2321
 7370 02ba A042     		cmp	r0, r4
 7371 02bc 38DA     		bge	.L457
 7372              	.LBB825:
 289:Drivers/lvgl/src/draw/sw/blend/lv_draw_sw_blend_to_i1.c ****                     if(mask_val == LV_OPA_TRANSP) continue;
 7373              		.loc 1 289 21 view .LVU2322
 289:Drivers/lvgl/src/draw/sw/blend/lv_draw_sw_blend_to_i1.c ****                     if(mask_val == LV_OPA_TRANSP) continue;
 7374              		.loc 1 289 29 is_stmt 0 view .LVU2323
 7375 02be 1BF80070 		ldrb	r7, [fp, r0]	@ zero_extendqisi2
 7376              	.LVL792:
 290:Drivers/lvgl/src/draw/sw/blend/lv_draw_sw_blend_to_i1.c ****                     uint8_t * dest_bit = &dest_buf[(x + bit_ofs) / 8];
 7377              		.loc 1 290 21 is_stmt 1 view .LVU2324
 290:Drivers/lvgl/src/draw/sw/blend/lv_draw_sw_blend_to_i1.c ****                     uint8_t * dest_bit = &dest_buf[(x + bit_ofs) / 8];
 7378              		.loc 1 290 23 is_stmt 0 view .LVU2325
 7379 02c2 002F     		cmp	r7, #0
 7380 02c4 F8D0     		beq	.L433
 291:Drivers/lvgl/src/draw/sw/blend/lv_draw_sw_blend_to_i1.c ****                     uint8_t current_bit = (*dest_bit >> (7 - ((x  + bit_ofs) % 8))) & 0x01;
 7381              		.loc 1 291 21 is_stmt 1 view .LVU2326
 291:Drivers/lvgl/src/draw/sw/blend/lv_draw_sw_blend_to_i1.c ****                     uint8_t current_bit = (*dest_bit >> (7 - ((x  + bit_ofs) % 8))) & 0x01;
 7382              		.loc 1 291 55 is_stmt 0 view .LVU2327
 7383 02c6 00EB0C01 		add	r1, r0, ip
 291:Drivers/lvgl/src/draw/sw/blend/lv_draw_sw_blend_to_i1.c ****                     uint8_t current_bit = (*dest_bit >> (7 - ((x  + bit_ofs) % 8))) & 0x01;
 7384              		.loc 1 291 66 view .LVU2328
 7385 02ca 8E46     		mov	lr, r1
 7386 02cc 0029     		cmp	r1, #0
 7387 02ce E8DB     		blt	.L458
 7388              	.L434:
 291:Drivers/lvgl/src/draw/sw/blend/lv_draw_sw_blend_to_i1.c ****                     uint8_t current_bit = (*dest_bit >> (7 - ((x  + bit_ofs) % 8))) & 0x01;
 7389              		.loc 1 291 66 view .LVU2329
 7390 02d0 4FEAEE0E 		asr	lr, lr, #3
 7391              	.LVL793:
 292:Drivers/lvgl/src/draw/sw/blend/lv_draw_sw_blend_to_i1.c ****                     uint8_t blended_opa = (mask_val * opa) / 255;
 7392              		.loc 1 292 21 is_stmt 1 view .LVU2330
 292:Drivers/lvgl/src/draw/sw/blend/lv_draw_sw_blend_to_i1.c ****                     uint8_t blended_opa = (mask_val * opa) / 255;
 7393              		.loc 1 292 44 is_stmt 0 view .LVU2331
 7394 02d4 13F80E80 		ldrb	r8, [r3, lr]	@ zero_extendqisi2
 292:Drivers/lvgl/src/draw/sw/blend/lv_draw_sw_blend_to_i1.c ****                     uint8_t blended_opa = (mask_val * opa) / 255;
 7395              		.loc 1 292 78 view .LVU2332
 7396 02d8 4A42     		rsbs	r2, r1, #0
 7397 02da 01F00701 		and	r1, r1, #7
 7398 02de 02F00702 		and	r2, r2, #7
 7399 02e2 58BF     		it	pl
 7400 02e4 5142     		rsbpl	r1, r2, #0
 292:Drivers/lvgl/src/draw/sw/blend/lv_draw_sw_blend_to_i1.c ****                     uint8_t blended_opa = (mask_val * opa) / 255;
 7401              		.loc 1 292 60 view .LVU2333
 7402 02e6 C1F10701 		rsb	r1, r1, #7
 292:Drivers/lvgl/src/draw/sw/blend/lv_draw_sw_blend_to_i1.c ****                     uint8_t blended_opa = (mask_val * opa) / 255;
 7403              		.loc 1 292 54 view .LVU2334
 7404 02ea 48FA01F2 		asr	r2, r8, r1
 292:Drivers/lvgl/src/draw/sw/blend/lv_draw_sw_blend_to_i1.c ****                     uint8_t blended_opa = (mask_val * opa) / 255;
 7405              		.loc 1 292 29 view .LVU2335
 7406 02ee 02F00102 		and	r2, r2, #1
 7407              	.LVL794:
 293:Drivers/lvgl/src/draw/sw/blend/lv_draw_sw_blend_to_i1.c ****                     uint8_t new_bit = (blended_opa * src_color + (255 - blended_opa) * current_bit)
 7408              		.loc 1 293 21 is_stmt 1 view .LVU2336
ARM GAS  /tmp/cc9ag92L.s 			page 186


 293:Drivers/lvgl/src/draw/sw/blend/lv_draw_sw_blend_to_i1.c ****                     uint8_t new_bit = (blended_opa * src_color + (255 - blended_opa) * current_bit)
 7409              		.loc 1 293 53 is_stmt 0 view .LVU2337
 7410 02f2 019D     		ldr	r5, [sp, #4]
 7411 02f4 05FB07F7 		mul	r7, r5, r7
 7412              	.LVL795:
 293:Drivers/lvgl/src/draw/sw/blend/lv_draw_sw_blend_to_i1.c ****                     uint8_t new_bit = (blended_opa * src_color + (255 - blended_opa) * current_bit)
 7413              		.loc 1 293 60 view .LVU2338
 7414 02f8 164D     		ldr	r5, .L459
 7415 02fa 85FB07A6 		smull	r10, r6, r5, r7
 7416 02fe 3E44     		add	r6, r6, r7
 7417              	.LVL796:
 294:Drivers/lvgl/src/draw/sw/blend/lv_draw_sw_blend_to_i1.c ****                     if(new_bit) {
 7418              		.loc 1 294 21 is_stmt 1 view .LVU2339
 7419 0300 C6F3C716 		ubfx	r6, r6, #7, #8
 7420              	.LVL797:
 294:Drivers/lvgl/src/draw/sw/blend/lv_draw_sw_blend_to_i1.c ****                     if(new_bit) {
 7421              		.loc 1 294 71 is_stmt 0 view .LVU2340
 7422 0304 C6F1FF07 		rsb	r7, r6, #255
 7423              	.LVL798:
 294:Drivers/lvgl/src/draw/sw/blend/lv_draw_sw_blend_to_i1.c ****                     if(new_bit) {
 7424              		.loc 1 294 86 view .LVU2341
 7425 0308 07FB02F2 		mul	r2, r7, r2
 7426              	.LVL799:
 294:Drivers/lvgl/src/draw/sw/blend/lv_draw_sw_blend_to_i1.c ****                     if(new_bit) {
 7427              		.loc 1 294 64 view .LVU2342
 7428 030c 06FB0922 		mla	r2, r6, r9, r2
 294:Drivers/lvgl/src/draw/sw/blend/lv_draw_sw_blend_to_i1.c ****                     if(new_bit) {
 7429              		.loc 1 294 101 view .LVU2343
 7430 0310 85FB0265 		smull	r6, r5, r5, r2
 7431              	.LVL800:
 294:Drivers/lvgl/src/draw/sw/blend/lv_draw_sw_blend_to_i1.c ****                     if(new_bit) {
 7432              		.loc 1 294 101 view .LVU2344
 7433 0314 1544     		add	r5, r5, r2
 7434 0316 D217     		asrs	r2, r2, #31
 7435 0318 C2EBE512 		rsb	r2, r2, r5, asr #7
 7436              	.LVL801:
 295:Drivers/lvgl/src/draw/sw/blend/lv_draw_sw_blend_to_i1.c ****                         set_bit(dest_buf, x + bit_ofs);
 7437              		.loc 1 295 21 is_stmt 1 view .LVU2345
 295:Drivers/lvgl/src/draw/sw/blend/lv_draw_sw_blend_to_i1.c ****                         set_bit(dest_buf, x + bit_ofs);
 7438              		.loc 1 295 23 is_stmt 0 view .LVU2346
 7439 031c 12F0FF0F 		tst	r2, #255
 7440 0320 C2D0     		beq	.L435
 296:Drivers/lvgl/src/draw/sw/blend/lv_draw_sw_blend_to_i1.c ****                     }
 7441              		.loc 1 296 25 is_stmt 1 view .LVU2347
 7442              	.LVL802:
 7443              	.LBB823:
 7444              	.LBI823:
1105:Drivers/lvgl/src/draw/sw/blend/lv_draw_sw_blend_to_i1.c **** {
 7445              		.loc 1 1105 42 view .LVU2348
 7446              	.LBB824:
1107:Drivers/lvgl/src/draw/sw/blend/lv_draw_sw_blend_to_i1.c **** }
 7447              		.loc 1 1107 5 view .LVU2349
1107:Drivers/lvgl/src/draw/sw/blend/lv_draw_sw_blend_to_i1.c **** }
 7448              		.loc 1 1107 28 is_stmt 0 view .LVU2350
 7449 0322 0122     		movs	r2, #1
 7450              	.LVL803:
1107:Drivers/lvgl/src/draw/sw/blend/lv_draw_sw_blend_to_i1.c **** }
ARM GAS  /tmp/cc9ag92L.s 			page 187


 7451              		.loc 1 1107 28 view .LVU2351
 7452 0324 8A40     		lsls	r2, r2, r1
1107:Drivers/lvgl/src/draw/sw/blend/lv_draw_sw_blend_to_i1.c **** }
 7453              		.loc 1 1107 22 view .LVU2352
 7454 0326 48EA0202 		orr	r2, r8, r2
 7455 032a 03F80E20 		strb	r2, [r3, lr]
 7456              	.LVL804:
1108:Drivers/lvgl/src/draw/sw/blend/lv_draw_sw_blend_to_i1.c **** 
 7457              		.loc 1 1108 1 view .LVU2353
 7458 032e C3E7     		b	.L433
 7459              	.LVL805:
 7460              	.L457:
1108:Drivers/lvgl/src/draw/sw/blend/lv_draw_sw_blend_to_i1.c **** 
 7461              		.loc 1 1108 1 view .LVU2354
 7462              	.LBE824:
 7463              	.LBE823:
 7464              	.LBE825:
 7465              	.LBE819:
 7466              	.LBB826:
 7467              	.LBB827:
1102:Drivers/lvgl/src/draw/sw/blend/lv_draw_sw_blend_to_i1.c **** }
 7468              		.loc 1 1102 12 view .LVU2355
 7469 0330 DDF808A0 		ldr	r10, [sp, #8]
 7470              	.LBE827:
 7471              	.LBE826:
 302:Drivers/lvgl/src/draw/sw/blend/lv_draw_sw_blend_to_i1.c ****                 mask += mask_stride;
 7472              		.loc 1 302 17 is_stmt 1 view .LVU2356
 7473              	.LVL806:
 7474              	.LBB829:
 7475              	.LBI826:
1100:Drivers/lvgl/src/draw/sw/blend/lv_draw_sw_blend_to_i1.c **** {
 7476              		.loc 1 1100 44 view .LVU2357
 7477              	.LBB828:
1102:Drivers/lvgl/src/draw/sw/blend/lv_draw_sw_blend_to_i1.c **** }
 7478              		.loc 1 1102 5 view .LVU2358
1102:Drivers/lvgl/src/draw/sw/blend/lv_draw_sw_blend_to_i1.c **** }
 7479              		.loc 1 1102 12 is_stmt 0 view .LVU2359
 7480 0334 059A     		ldr	r2, [sp, #20]
 7481 0336 1344     		add	r3, r3, r2
 7482              	.LVL807:
1102:Drivers/lvgl/src/draw/sw/blend/lv_draw_sw_blend_to_i1.c **** }
 7483              		.loc 1 1102 12 view .LVU2360
 7484              	.LBE828:
 7485              	.LBE829:
 303:Drivers/lvgl/src/draw/sw/blend/lv_draw_sw_blend_to_i1.c ****             }
 7486              		.loc 1 303 17 is_stmt 1 view .LVU2361
 303:Drivers/lvgl/src/draw/sw/blend/lv_draw_sw_blend_to_i1.c ****             }
 7487              		.loc 1 303 22 is_stmt 0 view .LVU2362
 7488 0338 049A     		ldr	r2, [sp, #16]
 7489 033a 9344     		add	fp, fp, r2
 7490              	.LVL808:
 287:Drivers/lvgl/src/draw/sw/blend/lv_draw_sw_blend_to_i1.c ****                 for(int32_t x = 0; x < w; x++) {
 7491              		.loc 1 287 40 is_stmt 1 discriminator 2 view .LVU2363
 7492 033c 0AF1010A 		add	r10, r10, #1
 7493              	.LVL809:
 7494              	.L423:
 287:Drivers/lvgl/src/draw/sw/blend/lv_draw_sw_blend_to_i1.c ****                 for(int32_t x = 0; x < w; x++) {
ARM GAS  /tmp/cc9ag92L.s 			page 188


 7495              		.loc 1 287 34 discriminator 1 view .LVU2364
 7496 0340 039A     		ldr	r2, [sp, #12]
 7497 0342 9245     		cmp	r10, r2
 7498 0344 03DA     		bge	.L405
 7499              	.LBB830:
 288:Drivers/lvgl/src/draw/sw/blend/lv_draw_sw_blend_to_i1.c ****                     uint8_t mask_val = mask[x];
 7500              		.loc 1 288 29 is_stmt 0 view .LVU2365
 7501 0346 0020     		movs	r0, #0
 7502 0348 CDF808A0 		str	r10, [sp, #8]
 7503 034c B5E7     		b	.L437
 7504              	.LVL810:
 7505              	.L405:
 288:Drivers/lvgl/src/draw/sw/blend/lv_draw_sw_blend_to_i1.c ****                     uint8_t mask_val = mask[x];
 7506              		.loc 1 288 29 view .LVU2366
 7507              	.LBE830:
 7508              	.LBE818:
 307:Drivers/lvgl/src/draw/sw/blend/lv_draw_sw_blend_to_i1.c **** 
 7509              		.loc 1 307 1 view .LVU2367
 7510 034e 07B0     		add	sp, sp, #28
 7511              	.LCFI29:
 7512              		.cfi_def_cfa_offset 36
 7513              		@ sp needed
 7514 0350 BDE8F08F 		pop	{r4, r5, r6, r7, r8, r9, r10, fp, pc}
 7515              	.LVL811:
 7516              	.L460:
 307:Drivers/lvgl/src/draw/sw/blend/lv_draw_sw_blend_to_i1.c **** 
 7517              		.loc 1 307 1 view .LVU2368
 7518              		.align	2
 7519              	.L459:
 7520 0354 81808080 		.word	-2139062143
 7521              		.cfi_endproc
 7522              	.LFE186:
 7524              		.section	.text.lv_draw_sw_blend_image_to_i1,"ax",%progbits
 7525              		.align	1
 7526              		.global	lv_draw_sw_blend_image_to_i1
 7527              		.syntax unified
 7528              		.thumb
 7529              		.thumb_func
 7531              	lv_draw_sw_blend_image_to_i1:
 7532              	.LVL812:
 7533              	.LFB187:
 310:Drivers/lvgl/src/draw/sw/blend/lv_draw_sw_blend_to_i1.c ****     switch(dsc->src_color_format) {
 7534              		.loc 1 310 1 is_stmt 1 view -0
 7535              		.cfi_startproc
 7536              		@ args = 0, pretend = 0, frame = 0
 7537              		@ frame_needed = 0, uses_anonymous_args = 0
 310:Drivers/lvgl/src/draw/sw/blend/lv_draw_sw_blend_to_i1.c ****     switch(dsc->src_color_format) {
 7538              		.loc 1 310 1 is_stmt 0 view .LVU2370
 7539 0000 08B5     		push	{r3, lr}
 7540              	.LCFI30:
 7541              		.cfi_def_cfa_offset 8
 7542              		.cfi_offset 3, -8
 7543              		.cfi_offset 14, -4
 311:Drivers/lvgl/src/draw/sw/blend/lv_draw_sw_blend_to_i1.c **** #if LV_DRAW_SW_SUPPORT_RGB565
 7544              		.loc 1 311 5 is_stmt 1 view .LVU2371
 311:Drivers/lvgl/src/draw/sw/blend/lv_draw_sw_blend_to_i1.c **** #if LV_DRAW_SW_SUPPORT_RGB565
 7545              		.loc 1 311 15 is_stmt 0 view .LVU2372
ARM GAS  /tmp/cc9ag92L.s 			page 189


 7546 0002 90F82030 		ldrb	r3, [r0, #32]	@ zero_extendqisi2
 311:Drivers/lvgl/src/draw/sw/blend/lv_draw_sw_blend_to_i1.c **** #if LV_DRAW_SW_SUPPORT_RGB565
 7547              		.loc 1 311 5 view .LVU2373
 7548 0006 063B     		subs	r3, r3, #6
 7549 0008 0F2B     		cmp	r3, #15
 7550 000a 0BD8     		bhi	.L461
 7551 000c DFE803F0 		tbb	[pc, r3]
 7552              	.L464:
 7553 0010 16       		.byte	(.L470-.L464)/2
 7554 0011 1C       		.byte	(.L469-.L464)/2
 7555 0012 0A       		.byte	(.L461-.L464)/2
 7556 0013 0A       		.byte	(.L461-.L464)/2
 7557 0014 0A       		.byte	(.L461-.L464)/2
 7558 0015 0A       		.byte	(.L461-.L464)/2
 7559 0016 0A       		.byte	(.L461-.L464)/2
 7560 0017 0A       		.byte	(.L461-.L464)/2
 7561 0018 0A       		.byte	(.L461-.L464)/2
 7562 0019 0B       		.byte	(.L468-.L464)/2
 7563 001a 13       		.byte	(.L467-.L464)/2
 7564 001b 0F       		.byte	(.L466-.L464)/2
 7565 001c 08       		.byte	(.L465-.L464)/2
 7566 001d 0A       		.byte	(.L461-.L464)/2
 7567 001e 0A       		.byte	(.L461-.L464)/2
 7568 001f 19       		.byte	(.L463-.L464)/2
 7569              		.p2align 1
 7570              	.L465:
 314:Drivers/lvgl/src/draw/sw/blend/lv_draw_sw_blend_to_i1.c ****             break;
 7571              		.loc 1 314 13 is_stmt 1 view .LVU2374
 7572 0020 FFF7FEFF 		bl	rgb565_image_blend
 7573              	.LVL813:
 315:Drivers/lvgl/src/draw/sw/blend/lv_draw_sw_blend_to_i1.c **** #endif
 7574              		.loc 1 315 13 view .LVU2375
 7575              	.L461:
 349:Drivers/lvgl/src/draw/sw/blend/lv_draw_sw_blend_to_i1.c **** 
 7576              		.loc 1 349 1 is_stmt 0 view .LVU2376
 7577 0024 08BD     		pop	{r3, pc}
 7578              	.LVL814:
 7579              	.L468:
 319:Drivers/lvgl/src/draw/sw/blend/lv_draw_sw_blend_to_i1.c ****             break;
 7580              		.loc 1 319 13 is_stmt 1 view .LVU2377
 7581 0026 0321     		movs	r1, #3
 7582 0028 FFF7FEFF 		bl	rgb888_image_blend
 7583              	.LVL815:
 320:Drivers/lvgl/src/draw/sw/blend/lv_draw_sw_blend_to_i1.c **** #endif
 7584              		.loc 1 320 13 view .LVU2378
 7585 002c FAE7     		b	.L461
 7586              	.LVL816:
 7587              	.L466:
 324:Drivers/lvgl/src/draw/sw/blend/lv_draw_sw_blend_to_i1.c ****             break;
 7588              		.loc 1 324 13 view .LVU2379
 7589 002e 0421     		movs	r1, #4
 7590 0030 FFF7FEFF 		bl	rgb888_image_blend
 7591              	.LVL817:
 325:Drivers/lvgl/src/draw/sw/blend/lv_draw_sw_blend_to_i1.c **** #endif
 7592              		.loc 1 325 13 view .LVU2380
 7593 0034 F6E7     		b	.L461
 7594              	.LVL818:
ARM GAS  /tmp/cc9ag92L.s 			page 190


 7595              	.L467:
 329:Drivers/lvgl/src/draw/sw/blend/lv_draw_sw_blend_to_i1.c ****             break;
 7596              		.loc 1 329 13 view .LVU2381
 7597 0036 FFF7FEFF 		bl	argb8888_image_blend
 7598              	.LVL819:
 330:Drivers/lvgl/src/draw/sw/blend/lv_draw_sw_blend_to_i1.c **** #endif
 7599              		.loc 1 330 13 view .LVU2382
 7600 003a F3E7     		b	.L461
 7601              	.LVL820:
 7602              	.L470:
 334:Drivers/lvgl/src/draw/sw/blend/lv_draw_sw_blend_to_i1.c ****             break;
 7603              		.loc 1 334 13 view .LVU2383
 7604 003c FFF7FEFF 		bl	l8_image_blend
 7605              	.LVL821:
 335:Drivers/lvgl/src/draw/sw/blend/lv_draw_sw_blend_to_i1.c **** #endif
 7606              		.loc 1 335 13 view .LVU2384
 7607 0040 F0E7     		b	.L461
 7608              	.LVL822:
 7609              	.L463:
 339:Drivers/lvgl/src/draw/sw/blend/lv_draw_sw_blend_to_i1.c ****             break;
 7610              		.loc 1 339 13 view .LVU2385
 7611 0042 FFF7FEFF 		bl	al88_image_blend
 7612              	.LVL823:
 340:Drivers/lvgl/src/draw/sw/blend/lv_draw_sw_blend_to_i1.c **** #endif
 7613              		.loc 1 340 13 view .LVU2386
 7614 0046 EDE7     		b	.L461
 7615              	.LVL824:
 7616              	.L469:
 343:Drivers/lvgl/src/draw/sw/blend/lv_draw_sw_blend_to_i1.c ****             break;
 7617              		.loc 1 343 13 view .LVU2387
 7618 0048 FFF7FEFF 		bl	i1_image_blend
 7619              	.LVL825:
 344:Drivers/lvgl/src/draw/sw/blend/lv_draw_sw_blend_to_i1.c ****         default:
 7620              		.loc 1 344 13 view .LVU2388
 349:Drivers/lvgl/src/draw/sw/blend/lv_draw_sw_blend_to_i1.c **** 
 7621              		.loc 1 349 1 is_stmt 0 view .LVU2389
 7622 004c EAE7     		b	.L461
 7623              		.cfi_endproc
 7624              	.LFE187:
 7626              		.text
 7627              	.Letext0:
 7628              		.file 2 "/usr/arm-none-eabi/include/machine/_default_types.h"
 7629              		.file 3 "/usr/arm-none-eabi/include/sys/_stdint.h"
 7630              		.file 4 "Drivers/lvgl/src/draw/sw/blend/../../../misc/lv_types.h"
 7631              		.file 5 "Drivers/lvgl/src/draw/sw/blend/lv_draw_sw_blend_private.h"
 7632              		.file 6 "Drivers/lvgl/src/draw/sw/blend/../../../misc/../font/../draw/../misc/lv_area.h"
 7633              		.file 7 "Drivers/lvgl/src/draw/sw/blend/../../../misc/../font/../draw/../misc/lv_color.h"
 7634              		.file 8 "Drivers/lvgl/src/draw/sw/blend/../../../misc/lv_style.h"
ARM GAS  /tmp/cc9ag92L.s 			page 191


DEFINED SYMBOLS
                            *ABS*:00000000 lv_draw_sw_blend_to_i1.c
     /tmp/cc9ag92L.s:21     .text.lv_color_8_8_mix:00000000 $t
     /tmp/cc9ag92L.s:26     .text.lv_color_8_8_mix:00000000 lv_color_8_8_mix
     /tmp/cc9ag92L.s:76     .text.blend_non_normal_pixel:00000000 $t
     /tmp/cc9ag92L.s:81     .text.blend_non_normal_pixel:00000000 blend_non_normal_pixel
     /tmp/cc9ag92L.s:155    .text.blend_non_normal_pixel:00000044 $d
     /tmp/cc9ag92L.s:160    .text.blend_non_normal_pixel:00000048 $t
     /tmp/cc9ag92L.s:292    .text.rgb565_image_blend:00000000 $t
     /tmp/cc9ag92L.s:297    .text.rgb565_image_blend:00000000 rgb565_image_blend
     /tmp/cc9ag92L.s:1352   .text.l8_image_blend:00000000 $t
     /tmp/cc9ag92L.s:1357   .text.l8_image_blend:00000000 l8_image_blend
     /tmp/cc9ag92L.s:2352   .text.al88_image_blend:00000000 $t
     /tmp/cc9ag92L.s:2357   .text.al88_image_blend:00000000 al88_image_blend
     /tmp/cc9ag92L.s:3365   .text.i1_image_blend:00000000 $t
     /tmp/cc9ag92L.s:3370   .text.i1_image_blend:00000000 i1_image_blend
     /tmp/cc9ag92L.s:4550   .text.argb8888_image_blend:00000000 $t
     /tmp/cc9ag92L.s:4555   .text.argb8888_image_blend:00000000 argb8888_image_blend
     /tmp/cc9ag92L.s:5573   .text.rgb888_image_blend:00000000 $t
     /tmp/cc9ag92L.s:5578   .text.rgb888_image_blend:00000000 rgb888_image_blend
     /tmp/cc9ag92L.s:6628   .text.lv_draw_sw_blend_color_to_i1:00000000 $t
     /tmp/cc9ag92L.s:6634   .text.lv_draw_sw_blend_color_to_i1:00000000 lv_draw_sw_blend_color_to_i1
     /tmp/cc9ag92L.s:7520   .text.lv_draw_sw_blend_color_to_i1:00000354 $d
     /tmp/cc9ag92L.s:7525   .text.lv_draw_sw_blend_image_to_i1:00000000 $t
     /tmp/cc9ag92L.s:7531   .text.lv_draw_sw_blend_image_to_i1:00000000 lv_draw_sw_blend_image_to_i1
     /tmp/cc9ag92L.s:7553   .text.lv_draw_sw_blend_image_to_i1:00000010 $d
     /tmp/cc9ag92L.s:7569   .text.lv_draw_sw_blend_image_to_i1:00000020 $t

UNDEFINED SYMBOLS
lv_color32_luminance
lv_color16_luminance
lv_color24_luminance
lv_color_luminance
