ARM GAS  /tmp/ccoHqXX1.s 			page 1


   1              		.cpu cortex-m7
   2              		.arch armv7e-m
   3              		.fpu fpv5-sp-d16
   4              		.eabi_attribute 27, 1
   5              		.eabi_attribute 28, 1
   6              		.eabi_attribute 20, 1
   7              		.eabi_attribute 21, 1
   8              		.eabi_attribute 23, 3
   9              		.eabi_attribute 24, 1
  10              		.eabi_attribute 25, 1
  11              		.eabi_attribute 26, 1
  12              		.eabi_attribute 30, 1
  13              		.eabi_attribute 34, 1
  14              		.eabi_attribute 18, 4
  15              		.file	"lv_draw_sw_blend.c"
  16              		.text
  17              	.Ltext0:
  18              		.cfi_sections	.debug_frame
  19              		.file 1 "Drivers/lvgl/src/draw/sw/blend/lv_draw_sw_blend.c"
  20              		.section	.text.lv_draw_sw_blend_color,"ax",%progbits
  21              		.align	1
  22              		.syntax unified
  23              		.thumb
  24              		.thumb_func
  26              	lv_draw_sw_blend_color:
  27              	.LVL0:
  28              	.LFB41:
   1:Drivers/lvgl/src/draw/sw/blend/lv_draw_sw_blend.c **** /**
   2:Drivers/lvgl/src/draw/sw/blend/lv_draw_sw_blend.c ****  * @file lv_draw_sw_blend.c
   3:Drivers/lvgl/src/draw/sw/blend/lv_draw_sw_blend.c ****  *
   4:Drivers/lvgl/src/draw/sw/blend/lv_draw_sw_blend.c ****  */
   5:Drivers/lvgl/src/draw/sw/blend/lv_draw_sw_blend.c **** 
   6:Drivers/lvgl/src/draw/sw/blend/lv_draw_sw_blend.c **** /*********************
   7:Drivers/lvgl/src/draw/sw/blend/lv_draw_sw_blend.c ****  *      INCLUDES
   8:Drivers/lvgl/src/draw/sw/blend/lv_draw_sw_blend.c ****  *********************/
   9:Drivers/lvgl/src/draw/sw/blend/lv_draw_sw_blend.c **** #include "../../../misc/lv_area_private.h"
  10:Drivers/lvgl/src/draw/sw/blend/lv_draw_sw_blend.c **** #include "lv_draw_sw_blend_private.h"
  11:Drivers/lvgl/src/draw/sw/blend/lv_draw_sw_blend.c **** #include "../../lv_draw_private.h"
  12:Drivers/lvgl/src/draw/sw/blend/lv_draw_sw_blend.c **** #include "../lv_draw_sw.h"
  13:Drivers/lvgl/src/draw/sw/blend/lv_draw_sw_blend.c **** #if LV_DRAW_SW_SUPPORT_L8
  14:Drivers/lvgl/src/draw/sw/blend/lv_draw_sw_blend.c ****     #include "lv_draw_sw_blend_to_l8.h"
  15:Drivers/lvgl/src/draw/sw/blend/lv_draw_sw_blend.c **** #endif
  16:Drivers/lvgl/src/draw/sw/blend/lv_draw_sw_blend.c **** #if LV_DRAW_SW_SUPPORT_AL88
  17:Drivers/lvgl/src/draw/sw/blend/lv_draw_sw_blend.c ****     #include "lv_draw_sw_blend_to_al88.h"
  18:Drivers/lvgl/src/draw/sw/blend/lv_draw_sw_blend.c **** #endif
  19:Drivers/lvgl/src/draw/sw/blend/lv_draw_sw_blend.c **** #if LV_DRAW_SW_SUPPORT_RGB565
  20:Drivers/lvgl/src/draw/sw/blend/lv_draw_sw_blend.c ****     #include "lv_draw_sw_blend_to_rgb565.h"
  21:Drivers/lvgl/src/draw/sw/blend/lv_draw_sw_blend.c **** #endif
  22:Drivers/lvgl/src/draw/sw/blend/lv_draw_sw_blend.c **** #if LV_DRAW_SW_SUPPORT_ARGB8888
  23:Drivers/lvgl/src/draw/sw/blend/lv_draw_sw_blend.c ****     #include "lv_draw_sw_blend_to_argb8888.h"
  24:Drivers/lvgl/src/draw/sw/blend/lv_draw_sw_blend.c **** #endif
  25:Drivers/lvgl/src/draw/sw/blend/lv_draw_sw_blend.c **** #if LV_DRAW_SW_SUPPORT_ARGB8888_PREMULTIPLIED
  26:Drivers/lvgl/src/draw/sw/blend/lv_draw_sw_blend.c ****     #include "lv_draw_sw_blend_to_argb8888_premultiplied.h"
  27:Drivers/lvgl/src/draw/sw/blend/lv_draw_sw_blend.c **** #endif
  28:Drivers/lvgl/src/draw/sw/blend/lv_draw_sw_blend.c **** #if LV_DRAW_SW_SUPPORT_RGB888 || LV_DRAW_SW_SUPPORT_XRGB8888
  29:Drivers/lvgl/src/draw/sw/blend/lv_draw_sw_blend.c ****     #include "lv_draw_sw_blend_to_rgb888.h"
  30:Drivers/lvgl/src/draw/sw/blend/lv_draw_sw_blend.c **** #endif
ARM GAS  /tmp/ccoHqXX1.s 			page 2


  31:Drivers/lvgl/src/draw/sw/blend/lv_draw_sw_blend.c **** #if LV_DRAW_SW_SUPPORT_I1
  32:Drivers/lvgl/src/draw/sw/blend/lv_draw_sw_blend.c ****     #include "lv_draw_sw_blend_to_i1.h"
  33:Drivers/lvgl/src/draw/sw/blend/lv_draw_sw_blend.c **** #endif
  34:Drivers/lvgl/src/draw/sw/blend/lv_draw_sw_blend.c **** #if LV_USE_DRAW_SW
  35:Drivers/lvgl/src/draw/sw/blend/lv_draw_sw_blend.c **** 
  36:Drivers/lvgl/src/draw/sw/blend/lv_draw_sw_blend.c **** /*********************
  37:Drivers/lvgl/src/draw/sw/blend/lv_draw_sw_blend.c ****  *      DEFINES
  38:Drivers/lvgl/src/draw/sw/blend/lv_draw_sw_blend.c ****  *********************/
  39:Drivers/lvgl/src/draw/sw/blend/lv_draw_sw_blend.c **** 
  40:Drivers/lvgl/src/draw/sw/blend/lv_draw_sw_blend.c **** /**********************
  41:Drivers/lvgl/src/draw/sw/blend/lv_draw_sw_blend.c ****  *      TYPEDEFS
  42:Drivers/lvgl/src/draw/sw/blend/lv_draw_sw_blend.c ****  **********************/
  43:Drivers/lvgl/src/draw/sw/blend/lv_draw_sw_blend.c **** 
  44:Drivers/lvgl/src/draw/sw/blend/lv_draw_sw_blend.c **** /**********************
  45:Drivers/lvgl/src/draw/sw/blend/lv_draw_sw_blend.c ****  *  STATIC PROTOTYPES
  46:Drivers/lvgl/src/draw/sw/blend/lv_draw_sw_blend.c ****  **********************/
  47:Drivers/lvgl/src/draw/sw/blend/lv_draw_sw_blend.c **** 
  48:Drivers/lvgl/src/draw/sw/blend/lv_draw_sw_blend.c **** static inline void /* LV_ATTRIBUTE_FAST_MEM */ lv_draw_sw_blend_color(lv_color_format_t layer_cf,
  49:Drivers/lvgl/src/draw/sw/blend/lv_draw_sw_blend.c ****                                                                       lv_draw_sw_blend_fill_dsc_t *
  50:Drivers/lvgl/src/draw/sw/blend/lv_draw_sw_blend.c **** 
  51:Drivers/lvgl/src/draw/sw/blend/lv_draw_sw_blend.c **** static inline void /* LV_ATTRIBUTE_FAST_MEM */ lv_draw_sw_blend_image(lv_color_format_t layer_cf,
  52:Drivers/lvgl/src/draw/sw/blend/lv_draw_sw_blend.c ****                                                                       lv_draw_sw_blend_image_dsc_t 
  53:Drivers/lvgl/src/draw/sw/blend/lv_draw_sw_blend.c **** 
  54:Drivers/lvgl/src/draw/sw/blend/lv_draw_sw_blend.c **** 
  55:Drivers/lvgl/src/draw/sw/blend/lv_draw_sw_blend.c **** /**********************
  56:Drivers/lvgl/src/draw/sw/blend/lv_draw_sw_blend.c ****  *  STATIC VARIABLES
  57:Drivers/lvgl/src/draw/sw/blend/lv_draw_sw_blend.c ****  **********************/
  58:Drivers/lvgl/src/draw/sw/blend/lv_draw_sw_blend.c **** 
  59:Drivers/lvgl/src/draw/sw/blend/lv_draw_sw_blend.c **** /**********************
  60:Drivers/lvgl/src/draw/sw/blend/lv_draw_sw_blend.c ****  *      MACROS
  61:Drivers/lvgl/src/draw/sw/blend/lv_draw_sw_blend.c ****  **********************/
  62:Drivers/lvgl/src/draw/sw/blend/lv_draw_sw_blend.c **** 
  63:Drivers/lvgl/src/draw/sw/blend/lv_draw_sw_blend.c **** /**********************
  64:Drivers/lvgl/src/draw/sw/blend/lv_draw_sw_blend.c ****  *   GLOBAL FUNCTIONS
  65:Drivers/lvgl/src/draw/sw/blend/lv_draw_sw_blend.c ****  **********************/
  66:Drivers/lvgl/src/draw/sw/blend/lv_draw_sw_blend.c **** 
  67:Drivers/lvgl/src/draw/sw/blend/lv_draw_sw_blend.c **** void lv_draw_sw_blend(lv_draw_task_t * t, const lv_draw_sw_blend_dsc_t * blend_dsc)
  68:Drivers/lvgl/src/draw/sw/blend/lv_draw_sw_blend.c **** {
  69:Drivers/lvgl/src/draw/sw/blend/lv_draw_sw_blend.c ****     /*Do not draw transparent things*/
  70:Drivers/lvgl/src/draw/sw/blend/lv_draw_sw_blend.c ****     if(blend_dsc->opa <= LV_OPA_MIN) return;
  71:Drivers/lvgl/src/draw/sw/blend/lv_draw_sw_blend.c ****     if(blend_dsc->mask_buf && blend_dsc->mask_res == LV_DRAW_SW_MASK_RES_TRANSP) return;
  72:Drivers/lvgl/src/draw/sw/blend/lv_draw_sw_blend.c **** 
  73:Drivers/lvgl/src/draw/sw/blend/lv_draw_sw_blend.c ****     lv_area_t blend_area;
  74:Drivers/lvgl/src/draw/sw/blend/lv_draw_sw_blend.c ****     if(!lv_area_intersect(&blend_area, blend_dsc->blend_area, &t->clip_area)) return;
  75:Drivers/lvgl/src/draw/sw/blend/lv_draw_sw_blend.c **** 
  76:Drivers/lvgl/src/draw/sw/blend/lv_draw_sw_blend.c ****     LV_PROFILER_DRAW_BEGIN;
  77:Drivers/lvgl/src/draw/sw/blend/lv_draw_sw_blend.c ****     lv_layer_t * layer = t->target_layer;
  78:Drivers/lvgl/src/draw/sw/blend/lv_draw_sw_blend.c ****     uint32_t layer_stride_byte = layer->draw_buf->header.stride;
  79:Drivers/lvgl/src/draw/sw/blend/lv_draw_sw_blend.c **** 
  80:Drivers/lvgl/src/draw/sw/blend/lv_draw_sw_blend.c ****     lv_draw_sw_blend_handler_t handler = lv_draw_sw_get_blend_handler(layer->color_format);
  81:Drivers/lvgl/src/draw/sw/blend/lv_draw_sw_blend.c ****     if(handler) {
  82:Drivers/lvgl/src/draw/sw/blend/lv_draw_sw_blend.c ****         handler(t, blend_dsc);
  83:Drivers/lvgl/src/draw/sw/blend/lv_draw_sw_blend.c ****         LV_PROFILER_DRAW_END;
  84:Drivers/lvgl/src/draw/sw/blend/lv_draw_sw_blend.c ****         return;
  85:Drivers/lvgl/src/draw/sw/blend/lv_draw_sw_blend.c ****     }
  86:Drivers/lvgl/src/draw/sw/blend/lv_draw_sw_blend.c **** 
  87:Drivers/lvgl/src/draw/sw/blend/lv_draw_sw_blend.c ****     if(blend_dsc->src_buf == NULL) {
ARM GAS  /tmp/ccoHqXX1.s 			page 3


  88:Drivers/lvgl/src/draw/sw/blend/lv_draw_sw_blend.c ****         lv_draw_sw_blend_fill_dsc_t fill_dsc;
  89:Drivers/lvgl/src/draw/sw/blend/lv_draw_sw_blend.c ****         fill_dsc.dest_w = lv_area_get_width(&blend_area);
  90:Drivers/lvgl/src/draw/sw/blend/lv_draw_sw_blend.c ****         fill_dsc.dest_h = lv_area_get_height(&blend_area);
  91:Drivers/lvgl/src/draw/sw/blend/lv_draw_sw_blend.c ****         fill_dsc.dest_stride = layer_stride_byte;
  92:Drivers/lvgl/src/draw/sw/blend/lv_draw_sw_blend.c ****         fill_dsc.opa = blend_dsc->opa;
  93:Drivers/lvgl/src/draw/sw/blend/lv_draw_sw_blend.c ****         fill_dsc.color = blend_dsc->color;
  94:Drivers/lvgl/src/draw/sw/blend/lv_draw_sw_blend.c ****         fill_dsc.mask_stride = 0;
  95:Drivers/lvgl/src/draw/sw/blend/lv_draw_sw_blend.c **** 
  96:Drivers/lvgl/src/draw/sw/blend/lv_draw_sw_blend.c ****         if(blend_dsc->mask_buf == NULL) fill_dsc.mask_buf = NULL;
  97:Drivers/lvgl/src/draw/sw/blend/lv_draw_sw_blend.c ****         else if(blend_dsc->mask_res == LV_DRAW_SW_MASK_RES_FULL_COVER) fill_dsc.mask_buf = NULL;
  98:Drivers/lvgl/src/draw/sw/blend/lv_draw_sw_blend.c ****         else fill_dsc.mask_buf = blend_dsc->mask_buf;
  99:Drivers/lvgl/src/draw/sw/blend/lv_draw_sw_blend.c **** 
 100:Drivers/lvgl/src/draw/sw/blend/lv_draw_sw_blend.c **** 
 101:Drivers/lvgl/src/draw/sw/blend/lv_draw_sw_blend.c ****         fill_dsc.relative_area  = blend_area;
 102:Drivers/lvgl/src/draw/sw/blend/lv_draw_sw_blend.c ****         lv_area_move(&fill_dsc.relative_area, -layer->buf_area.x1, -layer->buf_area.y1);
 103:Drivers/lvgl/src/draw/sw/blend/lv_draw_sw_blend.c ****         fill_dsc.dest_buf = lv_draw_layer_go_to_xy(layer, blend_area.x1 - layer->buf_area.x1,
 104:Drivers/lvgl/src/draw/sw/blend/lv_draw_sw_blend.c ****                                                    blend_area.y1 - layer->buf_area.y1);
 105:Drivers/lvgl/src/draw/sw/blend/lv_draw_sw_blend.c ****         if(fill_dsc.mask_buf) {
 106:Drivers/lvgl/src/draw/sw/blend/lv_draw_sw_blend.c ****             fill_dsc.mask_stride = blend_dsc->mask_stride == 0  ? lv_area_get_width(blend_dsc->mask
 107:Drivers/lvgl/src/draw/sw/blend/lv_draw_sw_blend.c ****             fill_dsc.mask_buf += fill_dsc.mask_stride * (blend_area.y1 - blend_dsc->mask_area->y1) 
 108:Drivers/lvgl/src/draw/sw/blend/lv_draw_sw_blend.c ****                                  (blend_area.x1 - blend_dsc->mask_area->x1);
 109:Drivers/lvgl/src/draw/sw/blend/lv_draw_sw_blend.c ****         }
 110:Drivers/lvgl/src/draw/sw/blend/lv_draw_sw_blend.c **** 
 111:Drivers/lvgl/src/draw/sw/blend/lv_draw_sw_blend.c ****         lv_draw_sw_blend_color(layer->color_format, &fill_dsc);
 112:Drivers/lvgl/src/draw/sw/blend/lv_draw_sw_blend.c ****     }
 113:Drivers/lvgl/src/draw/sw/blend/lv_draw_sw_blend.c ****     else {
 114:Drivers/lvgl/src/draw/sw/blend/lv_draw_sw_blend.c ****         if(!lv_area_intersect(&blend_area, &blend_area, blend_dsc->src_area)) {
 115:Drivers/lvgl/src/draw/sw/blend/lv_draw_sw_blend.c ****             LV_PROFILER_DRAW_END;
 116:Drivers/lvgl/src/draw/sw/blend/lv_draw_sw_blend.c ****             return;
 117:Drivers/lvgl/src/draw/sw/blend/lv_draw_sw_blend.c ****         }
 118:Drivers/lvgl/src/draw/sw/blend/lv_draw_sw_blend.c **** 
 119:Drivers/lvgl/src/draw/sw/blend/lv_draw_sw_blend.c ****         if(blend_dsc->mask_area && !lv_area_intersect(&blend_area, &blend_area, blend_dsc->mask_are
 120:Drivers/lvgl/src/draw/sw/blend/lv_draw_sw_blend.c ****             LV_PROFILER_DRAW_END;
 121:Drivers/lvgl/src/draw/sw/blend/lv_draw_sw_blend.c ****             return;
 122:Drivers/lvgl/src/draw/sw/blend/lv_draw_sw_blend.c ****         }
 123:Drivers/lvgl/src/draw/sw/blend/lv_draw_sw_blend.c **** 
 124:Drivers/lvgl/src/draw/sw/blend/lv_draw_sw_blend.c ****         lv_draw_sw_blend_image_dsc_t image_dsc;
 125:Drivers/lvgl/src/draw/sw/blend/lv_draw_sw_blend.c ****         image_dsc.dest_w = lv_area_get_width(&blend_area);
 126:Drivers/lvgl/src/draw/sw/blend/lv_draw_sw_blend.c ****         image_dsc.dest_h = lv_area_get_height(&blend_area);
 127:Drivers/lvgl/src/draw/sw/blend/lv_draw_sw_blend.c ****         image_dsc.dest_stride = layer_stride_byte;
 128:Drivers/lvgl/src/draw/sw/blend/lv_draw_sw_blend.c **** 
 129:Drivers/lvgl/src/draw/sw/blend/lv_draw_sw_blend.c ****         image_dsc.opa = blend_dsc->opa;
 130:Drivers/lvgl/src/draw/sw/blend/lv_draw_sw_blend.c ****         image_dsc.blend_mode = blend_dsc->blend_mode;
 131:Drivers/lvgl/src/draw/sw/blend/lv_draw_sw_blend.c ****         image_dsc.src_stride = blend_dsc->src_stride;
 132:Drivers/lvgl/src/draw/sw/blend/lv_draw_sw_blend.c ****         image_dsc.src_color_format = blend_dsc->src_color_format;
 133:Drivers/lvgl/src/draw/sw/blend/lv_draw_sw_blend.c **** 
 134:Drivers/lvgl/src/draw/sw/blend/lv_draw_sw_blend.c ****         const uint8_t * src_buf = blend_dsc->src_buf;
 135:Drivers/lvgl/src/draw/sw/blend/lv_draw_sw_blend.c ****         uint32_t src_px_size = lv_color_format_get_bpp(blend_dsc->src_color_format);
 136:Drivers/lvgl/src/draw/sw/blend/lv_draw_sw_blend.c ****         src_buf += image_dsc.src_stride * (blend_area.y1 - blend_dsc->src_area->y1);
 137:Drivers/lvgl/src/draw/sw/blend/lv_draw_sw_blend.c ****         src_buf += ((blend_area.x1 - blend_dsc->src_area->x1) * src_px_size) >> 3;
 138:Drivers/lvgl/src/draw/sw/blend/lv_draw_sw_blend.c ****         image_dsc.src_buf = src_buf;
 139:Drivers/lvgl/src/draw/sw/blend/lv_draw_sw_blend.c ****         image_dsc.mask_stride = 0;
 140:Drivers/lvgl/src/draw/sw/blend/lv_draw_sw_blend.c **** 
 141:Drivers/lvgl/src/draw/sw/blend/lv_draw_sw_blend.c ****         if(blend_dsc->mask_buf == NULL) image_dsc.mask_buf = NULL;
 142:Drivers/lvgl/src/draw/sw/blend/lv_draw_sw_blend.c ****         else if(blend_dsc->mask_res == LV_DRAW_SW_MASK_RES_FULL_COVER) image_dsc.mask_buf = NULL;
 143:Drivers/lvgl/src/draw/sw/blend/lv_draw_sw_blend.c ****         else image_dsc.mask_buf = blend_dsc->mask_buf;
 144:Drivers/lvgl/src/draw/sw/blend/lv_draw_sw_blend.c **** 
ARM GAS  /tmp/ccoHqXX1.s 			page 4


 145:Drivers/lvgl/src/draw/sw/blend/lv_draw_sw_blend.c ****         if(image_dsc.mask_buf) {
 146:Drivers/lvgl/src/draw/sw/blend/lv_draw_sw_blend.c ****             LV_ASSERT_NULL(blend_dsc->mask_area);
 147:Drivers/lvgl/src/draw/sw/blend/lv_draw_sw_blend.c ****             image_dsc.mask_buf = blend_dsc->mask_buf;
 148:Drivers/lvgl/src/draw/sw/blend/lv_draw_sw_blend.c ****             image_dsc.mask_stride = blend_dsc->mask_stride ? blend_dsc->mask_stride : lv_area_get_w
 149:Drivers/lvgl/src/draw/sw/blend/lv_draw_sw_blend.c ****             image_dsc.mask_buf += image_dsc.mask_stride * (blend_area.y1 - blend_dsc->mask_area->y1
 150:Drivers/lvgl/src/draw/sw/blend/lv_draw_sw_blend.c ****                                   (blend_area.x1 - blend_dsc->mask_area->x1);
 151:Drivers/lvgl/src/draw/sw/blend/lv_draw_sw_blend.c ****         }
 152:Drivers/lvgl/src/draw/sw/blend/lv_draw_sw_blend.c **** 
 153:Drivers/lvgl/src/draw/sw/blend/lv_draw_sw_blend.c ****         image_dsc.relative_area  = blend_area;
 154:Drivers/lvgl/src/draw/sw/blend/lv_draw_sw_blend.c ****         lv_area_move(&image_dsc.relative_area, -layer->buf_area.x1, -layer->buf_area.y1);
 155:Drivers/lvgl/src/draw/sw/blend/lv_draw_sw_blend.c **** 
 156:Drivers/lvgl/src/draw/sw/blend/lv_draw_sw_blend.c ****         image_dsc.src_area  = *blend_dsc->src_area;
 157:Drivers/lvgl/src/draw/sw/blend/lv_draw_sw_blend.c ****         lv_area_move(&image_dsc.src_area, -layer->buf_area.x1, -layer->buf_area.y1);
 158:Drivers/lvgl/src/draw/sw/blend/lv_draw_sw_blend.c **** 
 159:Drivers/lvgl/src/draw/sw/blend/lv_draw_sw_blend.c ****         image_dsc.dest_buf = lv_draw_layer_go_to_xy(layer, blend_area.x1 - layer->buf_area.x1,
 160:Drivers/lvgl/src/draw/sw/blend/lv_draw_sw_blend.c ****                                                     blend_area.y1 - layer->buf_area.y1);
 161:Drivers/lvgl/src/draw/sw/blend/lv_draw_sw_blend.c **** 
 162:Drivers/lvgl/src/draw/sw/blend/lv_draw_sw_blend.c ****         lv_draw_sw_blend_image(layer->color_format, &image_dsc);
 163:Drivers/lvgl/src/draw/sw/blend/lv_draw_sw_blend.c ****     }
 164:Drivers/lvgl/src/draw/sw/blend/lv_draw_sw_blend.c ****     LV_PROFILER_DRAW_END;
 165:Drivers/lvgl/src/draw/sw/blend/lv_draw_sw_blend.c **** }
 166:Drivers/lvgl/src/draw/sw/blend/lv_draw_sw_blend.c **** 
 167:Drivers/lvgl/src/draw/sw/blend/lv_draw_sw_blend.c **** /**********************
 168:Drivers/lvgl/src/draw/sw/blend/lv_draw_sw_blend.c ****  *   STATIC FUNCTIONS
 169:Drivers/lvgl/src/draw/sw/blend/lv_draw_sw_blend.c ****  **********************/
 170:Drivers/lvgl/src/draw/sw/blend/lv_draw_sw_blend.c **** 
 171:Drivers/lvgl/src/draw/sw/blend/lv_draw_sw_blend.c **** static inline void LV_ATTRIBUTE_FAST_MEM lv_draw_sw_blend_color(lv_color_format_t layer_cf,
 172:Drivers/lvgl/src/draw/sw/blend/lv_draw_sw_blend.c ****                                                                 lv_draw_sw_blend_fill_dsc_t * fill_
 173:Drivers/lvgl/src/draw/sw/blend/lv_draw_sw_blend.c **** {
  29              		.loc 1 173 1 view -0
  30              		.cfi_startproc
  31              		@ args = 0, pretend = 0, frame = 0
  32              		@ frame_needed = 0, uses_anonymous_args = 0
  33              		.loc 1 173 1 is_stmt 0 view .LVU1
  34 0000 08B5     		push	{r3, lr}
  35              	.LCFI0:
  36              		.cfi_def_cfa_offset 8
  37              		.cfi_offset 3, -8
  38              		.cfi_offset 14, -4
  39 0002 0A46     		mov	r2, r1
 174:Drivers/lvgl/src/draw/sw/blend/lv_draw_sw_blend.c ****     switch(layer_cf) {
  40              		.loc 1 174 5 is_stmt 1 view .LVU2
  41 0004 831F     		subs	r3, r0, #6
  42 0006 142B     		cmp	r3, #20
  43 0008 0FD8     		bhi	.L1
  44 000a DFE803F0 		tbb	[pc, r3]
  45              	.LVL1:
  46              	.L4:
  47 000e 21       		.byte	(.L11-.L4)/2
  48 000f 29       		.byte	(.L10-.L4)/2
  49 0010 0E       		.byte	(.L1-.L4)/2
  50 0011 0E       		.byte	(.L1-.L4)/2
  51 0012 0E       		.byte	(.L1-.L4)/2
  52 0013 0E       		.byte	(.L1-.L4)/2
  53 0014 0E       		.byte	(.L1-.L4)/2
  54 0015 0E       		.byte	(.L1-.L4)/2
  55 0016 0E       		.byte	(.L1-.L4)/2
ARM GAS  /tmp/ccoHqXX1.s 			page 5


  56 0017 13       		.byte	(.L9-.L4)/2
  57 0018 0F       		.byte	(.L8-.L4)/2
  58 0019 18       		.byte	(.L7-.L4)/2
  59 001a 0B       		.byte	(.L6-.L4)/2
  60 001b 0E       		.byte	(.L1-.L4)/2
  61 001c 0E       		.byte	(.L1-.L4)/2
  62 001d 25       		.byte	(.L5-.L4)/2
  63 001e 0E       		.byte	(.L1-.L4)/2
  64 001f 0E       		.byte	(.L1-.L4)/2
  65 0020 0E       		.byte	(.L1-.L4)/2
  66 0021 0E       		.byte	(.L1-.L4)/2
  67 0022 1D       		.byte	(.L3-.L4)/2
  68 0023 00       		.p2align 1
  69              	.L6:
 175:Drivers/lvgl/src/draw/sw/blend/lv_draw_sw_blend.c **** #if LV_DRAW_SW_SUPPORT_RGB565
 176:Drivers/lvgl/src/draw/sw/blend/lv_draw_sw_blend.c ****         case LV_COLOR_FORMAT_RGB565:
 177:Drivers/lvgl/src/draw/sw/blend/lv_draw_sw_blend.c ****             lv_draw_sw_blend_color_to_rgb565(fill_dsc);
  70              		.loc 1 177 13 view .LVU3
  71 0024 1046     		mov	r0, r2
  72              	.LVL2:
  73              		.loc 1 177 13 is_stmt 0 view .LVU4
  74 0026 FFF7FEFF 		bl	lv_draw_sw_blend_color_to_rgb565
  75              	.LVL3:
 178:Drivers/lvgl/src/draw/sw/blend/lv_draw_sw_blend.c ****             break;
  76              		.loc 1 178 13 is_stmt 1 view .LVU5
  77              	.L1:
 179:Drivers/lvgl/src/draw/sw/blend/lv_draw_sw_blend.c **** #endif
 180:Drivers/lvgl/src/draw/sw/blend/lv_draw_sw_blend.c **** #if LV_DRAW_SW_SUPPORT_ARGB8888
 181:Drivers/lvgl/src/draw/sw/blend/lv_draw_sw_blend.c ****         case LV_COLOR_FORMAT_ARGB8888:
 182:Drivers/lvgl/src/draw/sw/blend/lv_draw_sw_blend.c ****             lv_draw_sw_blend_color_to_argb8888(fill_dsc);
 183:Drivers/lvgl/src/draw/sw/blend/lv_draw_sw_blend.c ****             break;
 184:Drivers/lvgl/src/draw/sw/blend/lv_draw_sw_blend.c **** #endif
 185:Drivers/lvgl/src/draw/sw/blend/lv_draw_sw_blend.c **** #if LV_DRAW_SW_SUPPORT_RGB888
 186:Drivers/lvgl/src/draw/sw/blend/lv_draw_sw_blend.c ****         case LV_COLOR_FORMAT_RGB888:
 187:Drivers/lvgl/src/draw/sw/blend/lv_draw_sw_blend.c ****             lv_draw_sw_blend_color_to_rgb888(fill_dsc, 3);
 188:Drivers/lvgl/src/draw/sw/blend/lv_draw_sw_blend.c ****             break;
 189:Drivers/lvgl/src/draw/sw/blend/lv_draw_sw_blend.c **** #endif
 190:Drivers/lvgl/src/draw/sw/blend/lv_draw_sw_blend.c **** #if LV_DRAW_SW_SUPPORT_XRGB8888
 191:Drivers/lvgl/src/draw/sw/blend/lv_draw_sw_blend.c ****         case LV_COLOR_FORMAT_XRGB8888:
 192:Drivers/lvgl/src/draw/sw/blend/lv_draw_sw_blend.c ****             lv_draw_sw_blend_color_to_rgb888(fill_dsc, 4);
 193:Drivers/lvgl/src/draw/sw/blend/lv_draw_sw_blend.c ****             break;
 194:Drivers/lvgl/src/draw/sw/blend/lv_draw_sw_blend.c **** #endif
 195:Drivers/lvgl/src/draw/sw/blend/lv_draw_sw_blend.c **** #if LV_DRAW_SW_SUPPORT_ARGB8888_PREMULTIPLIED
 196:Drivers/lvgl/src/draw/sw/blend/lv_draw_sw_blend.c ****         case LV_COLOR_FORMAT_ARGB8888_PREMULTIPLIED:
 197:Drivers/lvgl/src/draw/sw/blend/lv_draw_sw_blend.c ****             lv_draw_sw_blend_color_to_argb8888_premultiplied(fill_dsc);
 198:Drivers/lvgl/src/draw/sw/blend/lv_draw_sw_blend.c ****             break;
 199:Drivers/lvgl/src/draw/sw/blend/lv_draw_sw_blend.c **** #endif
 200:Drivers/lvgl/src/draw/sw/blend/lv_draw_sw_blend.c **** #if LV_DRAW_SW_SUPPORT_L8
 201:Drivers/lvgl/src/draw/sw/blend/lv_draw_sw_blend.c ****         case LV_COLOR_FORMAT_L8:
 202:Drivers/lvgl/src/draw/sw/blend/lv_draw_sw_blend.c ****             lv_draw_sw_blend_color_to_l8(fill_dsc);
 203:Drivers/lvgl/src/draw/sw/blend/lv_draw_sw_blend.c ****             break;
 204:Drivers/lvgl/src/draw/sw/blend/lv_draw_sw_blend.c **** #endif
 205:Drivers/lvgl/src/draw/sw/blend/lv_draw_sw_blend.c **** #if LV_DRAW_SW_SUPPORT_AL88
 206:Drivers/lvgl/src/draw/sw/blend/lv_draw_sw_blend.c ****         case LV_COLOR_FORMAT_AL88:
 207:Drivers/lvgl/src/draw/sw/blend/lv_draw_sw_blend.c ****             lv_draw_sw_blend_color_to_al88(fill_dsc);
 208:Drivers/lvgl/src/draw/sw/blend/lv_draw_sw_blend.c ****             break;
 209:Drivers/lvgl/src/draw/sw/blend/lv_draw_sw_blend.c **** #endif
ARM GAS  /tmp/ccoHqXX1.s 			page 6


 210:Drivers/lvgl/src/draw/sw/blend/lv_draw_sw_blend.c **** #if LV_DRAW_SW_SUPPORT_I1
 211:Drivers/lvgl/src/draw/sw/blend/lv_draw_sw_blend.c ****         case LV_COLOR_FORMAT_I1:
 212:Drivers/lvgl/src/draw/sw/blend/lv_draw_sw_blend.c ****             lv_draw_sw_blend_color_to_i1(fill_dsc);
 213:Drivers/lvgl/src/draw/sw/blend/lv_draw_sw_blend.c ****             break;
 214:Drivers/lvgl/src/draw/sw/blend/lv_draw_sw_blend.c **** #endif
 215:Drivers/lvgl/src/draw/sw/blend/lv_draw_sw_blend.c ****         default:
 216:Drivers/lvgl/src/draw/sw/blend/lv_draw_sw_blend.c ****             break;
 217:Drivers/lvgl/src/draw/sw/blend/lv_draw_sw_blend.c ****     }
 218:Drivers/lvgl/src/draw/sw/blend/lv_draw_sw_blend.c **** }
  78              		.loc 1 218 1 is_stmt 0 view .LVU6
  79 002a 08BD     		pop	{r3, pc}
  80              	.LVL4:
  81              	.L8:
 182:Drivers/lvgl/src/draw/sw/blend/lv_draw_sw_blend.c ****             break;
  82              		.loc 1 182 13 is_stmt 1 view .LVU7
  83 002c 1046     		mov	r0, r2
  84              	.LVL5:
 182:Drivers/lvgl/src/draw/sw/blend/lv_draw_sw_blend.c ****             break;
  85              		.loc 1 182 13 is_stmt 0 view .LVU8
  86 002e FFF7FEFF 		bl	lv_draw_sw_blend_color_to_argb8888
  87              	.LVL6:
 183:Drivers/lvgl/src/draw/sw/blend/lv_draw_sw_blend.c **** #endif
  88              		.loc 1 183 13 is_stmt 1 view .LVU9
  89 0032 FAE7     		b	.L1
  90              	.LVL7:
  91              	.L9:
 187:Drivers/lvgl/src/draw/sw/blend/lv_draw_sw_blend.c ****             break;
  92              		.loc 1 187 13 view .LVU10
  93 0034 0321     		movs	r1, #3
  94 0036 1046     		mov	r0, r2
  95              	.LVL8:
 187:Drivers/lvgl/src/draw/sw/blend/lv_draw_sw_blend.c ****             break;
  96              		.loc 1 187 13 is_stmt 0 view .LVU11
  97 0038 FFF7FEFF 		bl	lv_draw_sw_blend_color_to_rgb888
  98              	.LVL9:
 188:Drivers/lvgl/src/draw/sw/blend/lv_draw_sw_blend.c **** #endif
  99              		.loc 1 188 13 is_stmt 1 view .LVU12
 100 003c F5E7     		b	.L1
 101              	.LVL10:
 102              	.L7:
 192:Drivers/lvgl/src/draw/sw/blend/lv_draw_sw_blend.c ****             break;
 103              		.loc 1 192 13 view .LVU13
 104 003e 0421     		movs	r1, #4
 105 0040 1046     		mov	r0, r2
 106              	.LVL11:
 192:Drivers/lvgl/src/draw/sw/blend/lv_draw_sw_blend.c ****             break;
 107              		.loc 1 192 13 is_stmt 0 view .LVU14
 108 0042 FFF7FEFF 		bl	lv_draw_sw_blend_color_to_rgb888
 109              	.LVL12:
 193:Drivers/lvgl/src/draw/sw/blend/lv_draw_sw_blend.c **** #endif
 110              		.loc 1 193 13 is_stmt 1 view .LVU15
 111 0046 F0E7     		b	.L1
 112              	.LVL13:
 113              	.L3:
 197:Drivers/lvgl/src/draw/sw/blend/lv_draw_sw_blend.c ****             break;
 114              		.loc 1 197 13 view .LVU16
 115 0048 1046     		mov	r0, r2
ARM GAS  /tmp/ccoHqXX1.s 			page 7


 116              	.LVL14:
 197:Drivers/lvgl/src/draw/sw/blend/lv_draw_sw_blend.c ****             break;
 117              		.loc 1 197 13 is_stmt 0 view .LVU17
 118 004a FFF7FEFF 		bl	lv_draw_sw_blend_color_to_argb8888_premultiplied
 119              	.LVL15:
 198:Drivers/lvgl/src/draw/sw/blend/lv_draw_sw_blend.c **** #endif
 120              		.loc 1 198 13 is_stmt 1 view .LVU18
 121 004e ECE7     		b	.L1
 122              	.LVL16:
 123              	.L11:
 202:Drivers/lvgl/src/draw/sw/blend/lv_draw_sw_blend.c ****             break;
 124              		.loc 1 202 13 view .LVU19
 125 0050 1046     		mov	r0, r2
 126              	.LVL17:
 202:Drivers/lvgl/src/draw/sw/blend/lv_draw_sw_blend.c ****             break;
 127              		.loc 1 202 13 is_stmt 0 view .LVU20
 128 0052 FFF7FEFF 		bl	lv_draw_sw_blend_color_to_l8
 129              	.LVL18:
 203:Drivers/lvgl/src/draw/sw/blend/lv_draw_sw_blend.c **** #endif
 130              		.loc 1 203 13 is_stmt 1 view .LVU21
 131 0056 E8E7     		b	.L1
 132              	.LVL19:
 133              	.L5:
 207:Drivers/lvgl/src/draw/sw/blend/lv_draw_sw_blend.c ****             break;
 134              		.loc 1 207 13 view .LVU22
 135 0058 1046     		mov	r0, r2
 136              	.LVL20:
 207:Drivers/lvgl/src/draw/sw/blend/lv_draw_sw_blend.c ****             break;
 137              		.loc 1 207 13 is_stmt 0 view .LVU23
 138 005a FFF7FEFF 		bl	lv_draw_sw_blend_color_to_al88
 139              	.LVL21:
 208:Drivers/lvgl/src/draw/sw/blend/lv_draw_sw_blend.c **** #endif
 140              		.loc 1 208 13 is_stmt 1 view .LVU24
 141 005e E4E7     		b	.L1
 142              	.LVL22:
 143              	.L10:
 212:Drivers/lvgl/src/draw/sw/blend/lv_draw_sw_blend.c ****             break;
 144              		.loc 1 212 13 view .LVU25
 145 0060 1046     		mov	r0, r2
 146              	.LVL23:
 212:Drivers/lvgl/src/draw/sw/blend/lv_draw_sw_blend.c ****             break;
 147              		.loc 1 212 13 is_stmt 0 view .LVU26
 148 0062 FFF7FEFF 		bl	lv_draw_sw_blend_color_to_i1
 149              	.LVL24:
 213:Drivers/lvgl/src/draw/sw/blend/lv_draw_sw_blend.c **** #endif
 150              		.loc 1 213 13 is_stmt 1 view .LVU27
 151              		.loc 1 218 1 is_stmt 0 view .LVU28
 152 0066 E0E7     		b	.L1
 153              		.cfi_endproc
 154              	.LFE41:
 156              		.section	.text.lv_draw_sw_blend_image,"ax",%progbits
 157              		.align	1
 158              		.syntax unified
 159              		.thumb
 160              		.thumb_func
 162              	lv_draw_sw_blend_image:
 163              	.LVL25:
ARM GAS  /tmp/ccoHqXX1.s 			page 8


 164              	.LFB42:
 219:Drivers/lvgl/src/draw/sw/blend/lv_draw_sw_blend.c **** 
 220:Drivers/lvgl/src/draw/sw/blend/lv_draw_sw_blend.c **** static inline void LV_ATTRIBUTE_FAST_MEM lv_draw_sw_blend_image(lv_color_format_t layer_cf,
 221:Drivers/lvgl/src/draw/sw/blend/lv_draw_sw_blend.c ****                                                                 lv_draw_sw_blend_image_dsc_t * imag
 222:Drivers/lvgl/src/draw/sw/blend/lv_draw_sw_blend.c **** {
 165              		.loc 1 222 1 is_stmt 1 view -0
 166              		.cfi_startproc
 167              		@ args = 0, pretend = 0, frame = 0
 168              		@ frame_needed = 0, uses_anonymous_args = 0
 169              		.loc 1 222 1 is_stmt 0 view .LVU30
 170 0000 08B5     		push	{r3, lr}
 171              	.LCFI1:
 172              		.cfi_def_cfa_offset 8
 173              		.cfi_offset 3, -8
 174              		.cfi_offset 14, -4
 175 0002 0A46     		mov	r2, r1
 223:Drivers/lvgl/src/draw/sw/blend/lv_draw_sw_blend.c ****     switch(layer_cf) {
 176              		.loc 1 223 5 is_stmt 1 view .LVU31
 177 0004 831F     		subs	r3, r0, #6
 178 0006 142B     		cmp	r3, #20
 179 0008 0FD8     		bhi	.L14
 180 000a DFE803F0 		tbb	[pc, r3]
 181              	.LVL26:
 182              	.L17:
 183 000e 21       		.byte	(.L24-.L17)/2
 184 000f 29       		.byte	(.L23-.L17)/2
 185 0010 0E       		.byte	(.L14-.L17)/2
 186 0011 0E       		.byte	(.L14-.L17)/2
 187 0012 0E       		.byte	(.L14-.L17)/2
 188 0013 0E       		.byte	(.L14-.L17)/2
 189 0014 0E       		.byte	(.L14-.L17)/2
 190 0015 0E       		.byte	(.L14-.L17)/2
 191 0016 0E       		.byte	(.L14-.L17)/2
 192 0017 13       		.byte	(.L22-.L17)/2
 193 0018 0F       		.byte	(.L21-.L17)/2
 194 0019 18       		.byte	(.L20-.L17)/2
 195 001a 0B       		.byte	(.L19-.L17)/2
 196 001b 0E       		.byte	(.L14-.L17)/2
 197 001c 0B       		.byte	(.L19-.L17)/2
 198 001d 25       		.byte	(.L18-.L17)/2
 199 001e 0E       		.byte	(.L14-.L17)/2
 200 001f 0E       		.byte	(.L14-.L17)/2
 201 0020 0E       		.byte	(.L14-.L17)/2
 202 0021 0E       		.byte	(.L14-.L17)/2
 203 0022 1D       		.byte	(.L16-.L17)/2
 204 0023 00       		.p2align 1
 205              	.L19:
 224:Drivers/lvgl/src/draw/sw/blend/lv_draw_sw_blend.c **** #if LV_DRAW_SW_SUPPORT_RGB565
 225:Drivers/lvgl/src/draw/sw/blend/lv_draw_sw_blend.c ****         case LV_COLOR_FORMAT_RGB565:
 226:Drivers/lvgl/src/draw/sw/blend/lv_draw_sw_blend.c ****         case LV_COLOR_FORMAT_RGB565A8:
 227:Drivers/lvgl/src/draw/sw/blend/lv_draw_sw_blend.c ****             lv_draw_sw_blend_image_to_rgb565(image_dsc);
 206              		.loc 1 227 13 view .LVU32
 207 0024 1046     		mov	r0, r2
 208              	.LVL27:
 209              		.loc 1 227 13 is_stmt 0 view .LVU33
 210 0026 FFF7FEFF 		bl	lv_draw_sw_blend_image_to_rgb565
 211              	.LVL28:
ARM GAS  /tmp/ccoHqXX1.s 			page 9


 228:Drivers/lvgl/src/draw/sw/blend/lv_draw_sw_blend.c ****             break;
 212              		.loc 1 228 13 is_stmt 1 view .LVU34
 213              	.L14:
 229:Drivers/lvgl/src/draw/sw/blend/lv_draw_sw_blend.c **** #endif
 230:Drivers/lvgl/src/draw/sw/blend/lv_draw_sw_blend.c **** #if LV_DRAW_SW_SUPPORT_ARGB8888
 231:Drivers/lvgl/src/draw/sw/blend/lv_draw_sw_blend.c ****         case LV_COLOR_FORMAT_ARGB8888:
 232:Drivers/lvgl/src/draw/sw/blend/lv_draw_sw_blend.c ****             lv_draw_sw_blend_image_to_argb8888(image_dsc);
 233:Drivers/lvgl/src/draw/sw/blend/lv_draw_sw_blend.c ****             break;
 234:Drivers/lvgl/src/draw/sw/blend/lv_draw_sw_blend.c **** #endif
 235:Drivers/lvgl/src/draw/sw/blend/lv_draw_sw_blend.c **** #if LV_DRAW_SW_SUPPORT_RGB888
 236:Drivers/lvgl/src/draw/sw/blend/lv_draw_sw_blend.c ****         case LV_COLOR_FORMAT_RGB888:
 237:Drivers/lvgl/src/draw/sw/blend/lv_draw_sw_blend.c ****             lv_draw_sw_blend_image_to_rgb888(image_dsc, 3);
 238:Drivers/lvgl/src/draw/sw/blend/lv_draw_sw_blend.c ****             break;
 239:Drivers/lvgl/src/draw/sw/blend/lv_draw_sw_blend.c **** #endif
 240:Drivers/lvgl/src/draw/sw/blend/lv_draw_sw_blend.c **** #if LV_DRAW_SW_SUPPORT_XRGB8888
 241:Drivers/lvgl/src/draw/sw/blend/lv_draw_sw_blend.c ****         case LV_COLOR_FORMAT_XRGB8888:
 242:Drivers/lvgl/src/draw/sw/blend/lv_draw_sw_blend.c ****             lv_draw_sw_blend_image_to_rgb888(image_dsc, 4);
 243:Drivers/lvgl/src/draw/sw/blend/lv_draw_sw_blend.c ****             break;
 244:Drivers/lvgl/src/draw/sw/blend/lv_draw_sw_blend.c **** #endif
 245:Drivers/lvgl/src/draw/sw/blend/lv_draw_sw_blend.c **** #if LV_DRAW_SW_SUPPORT_ARGB8888_PREMULTIPLIED
 246:Drivers/lvgl/src/draw/sw/blend/lv_draw_sw_blend.c ****         case LV_COLOR_FORMAT_ARGB8888_PREMULTIPLIED:
 247:Drivers/lvgl/src/draw/sw/blend/lv_draw_sw_blend.c ****             lv_draw_sw_blend_image_to_argb8888_premultiplied(image_dsc);
 248:Drivers/lvgl/src/draw/sw/blend/lv_draw_sw_blend.c ****             break;
 249:Drivers/lvgl/src/draw/sw/blend/lv_draw_sw_blend.c **** #endif
 250:Drivers/lvgl/src/draw/sw/blend/lv_draw_sw_blend.c **** #if LV_DRAW_SW_SUPPORT_L8
 251:Drivers/lvgl/src/draw/sw/blend/lv_draw_sw_blend.c ****         case LV_COLOR_FORMAT_L8:
 252:Drivers/lvgl/src/draw/sw/blend/lv_draw_sw_blend.c ****             lv_draw_sw_blend_image_to_l8(image_dsc);
 253:Drivers/lvgl/src/draw/sw/blend/lv_draw_sw_blend.c ****             break;
 254:Drivers/lvgl/src/draw/sw/blend/lv_draw_sw_blend.c **** #endif
 255:Drivers/lvgl/src/draw/sw/blend/lv_draw_sw_blend.c **** #if LV_DRAW_SW_SUPPORT_AL88
 256:Drivers/lvgl/src/draw/sw/blend/lv_draw_sw_blend.c ****         case LV_COLOR_FORMAT_AL88:
 257:Drivers/lvgl/src/draw/sw/blend/lv_draw_sw_blend.c ****             lv_draw_sw_blend_image_to_al88(image_dsc);
 258:Drivers/lvgl/src/draw/sw/blend/lv_draw_sw_blend.c ****             break;
 259:Drivers/lvgl/src/draw/sw/blend/lv_draw_sw_blend.c **** #endif
 260:Drivers/lvgl/src/draw/sw/blend/lv_draw_sw_blend.c **** #if LV_DRAW_SW_SUPPORT_I1
 261:Drivers/lvgl/src/draw/sw/blend/lv_draw_sw_blend.c ****         case LV_COLOR_FORMAT_I1:
 262:Drivers/lvgl/src/draw/sw/blend/lv_draw_sw_blend.c ****             lv_draw_sw_blend_image_to_i1(image_dsc);
 263:Drivers/lvgl/src/draw/sw/blend/lv_draw_sw_blend.c ****             break;
 264:Drivers/lvgl/src/draw/sw/blend/lv_draw_sw_blend.c **** #endif
 265:Drivers/lvgl/src/draw/sw/blend/lv_draw_sw_blend.c ****         default:
 266:Drivers/lvgl/src/draw/sw/blend/lv_draw_sw_blend.c ****             break;
 267:Drivers/lvgl/src/draw/sw/blend/lv_draw_sw_blend.c ****     }
 268:Drivers/lvgl/src/draw/sw/blend/lv_draw_sw_blend.c **** }
 214              		.loc 1 268 1 is_stmt 0 view .LVU35
 215 002a 08BD     		pop	{r3, pc}
 216              	.LVL29:
 217              	.L21:
 232:Drivers/lvgl/src/draw/sw/blend/lv_draw_sw_blend.c ****             break;
 218              		.loc 1 232 13 is_stmt 1 view .LVU36
 219 002c 1046     		mov	r0, r2
 220              	.LVL30:
 232:Drivers/lvgl/src/draw/sw/blend/lv_draw_sw_blend.c ****             break;
 221              		.loc 1 232 13 is_stmt 0 view .LVU37
 222 002e FFF7FEFF 		bl	lv_draw_sw_blend_image_to_argb8888
 223              	.LVL31:
 233:Drivers/lvgl/src/draw/sw/blend/lv_draw_sw_blend.c **** #endif
 224              		.loc 1 233 13 is_stmt 1 view .LVU38
ARM GAS  /tmp/ccoHqXX1.s 			page 10


 225 0032 FAE7     		b	.L14
 226              	.LVL32:
 227              	.L22:
 237:Drivers/lvgl/src/draw/sw/blend/lv_draw_sw_blend.c ****             break;
 228              		.loc 1 237 13 view .LVU39
 229 0034 0321     		movs	r1, #3
 230 0036 1046     		mov	r0, r2
 231              	.LVL33:
 237:Drivers/lvgl/src/draw/sw/blend/lv_draw_sw_blend.c ****             break;
 232              		.loc 1 237 13 is_stmt 0 view .LVU40
 233 0038 FFF7FEFF 		bl	lv_draw_sw_blend_image_to_rgb888
 234              	.LVL34:
 238:Drivers/lvgl/src/draw/sw/blend/lv_draw_sw_blend.c **** #endif
 235              		.loc 1 238 13 is_stmt 1 view .LVU41
 236 003c F5E7     		b	.L14
 237              	.LVL35:
 238              	.L20:
 242:Drivers/lvgl/src/draw/sw/blend/lv_draw_sw_blend.c ****             break;
 239              		.loc 1 242 13 view .LVU42
 240 003e 0421     		movs	r1, #4
 241 0040 1046     		mov	r0, r2
 242              	.LVL36:
 242:Drivers/lvgl/src/draw/sw/blend/lv_draw_sw_blend.c ****             break;
 243              		.loc 1 242 13 is_stmt 0 view .LVU43
 244 0042 FFF7FEFF 		bl	lv_draw_sw_blend_image_to_rgb888
 245              	.LVL37:
 243:Drivers/lvgl/src/draw/sw/blend/lv_draw_sw_blend.c **** #endif
 246              		.loc 1 243 13 is_stmt 1 view .LVU44
 247 0046 F0E7     		b	.L14
 248              	.LVL38:
 249              	.L16:
 247:Drivers/lvgl/src/draw/sw/blend/lv_draw_sw_blend.c ****             break;
 250              		.loc 1 247 13 view .LVU45
 251 0048 1046     		mov	r0, r2
 252              	.LVL39:
 247:Drivers/lvgl/src/draw/sw/blend/lv_draw_sw_blend.c ****             break;
 253              		.loc 1 247 13 is_stmt 0 view .LVU46
 254 004a FFF7FEFF 		bl	lv_draw_sw_blend_image_to_argb8888_premultiplied
 255              	.LVL40:
 248:Drivers/lvgl/src/draw/sw/blend/lv_draw_sw_blend.c **** #endif
 256              		.loc 1 248 13 is_stmt 1 view .LVU47
 257 004e ECE7     		b	.L14
 258              	.LVL41:
 259              	.L24:
 252:Drivers/lvgl/src/draw/sw/blend/lv_draw_sw_blend.c ****             break;
 260              		.loc 1 252 13 view .LVU48
 261 0050 1046     		mov	r0, r2
 262              	.LVL42:
 252:Drivers/lvgl/src/draw/sw/blend/lv_draw_sw_blend.c ****             break;
 263              		.loc 1 252 13 is_stmt 0 view .LVU49
 264 0052 FFF7FEFF 		bl	lv_draw_sw_blend_image_to_l8
 265              	.LVL43:
 253:Drivers/lvgl/src/draw/sw/blend/lv_draw_sw_blend.c **** #endif
 266              		.loc 1 253 13 is_stmt 1 view .LVU50
 267 0056 E8E7     		b	.L14
 268              	.LVL44:
 269              	.L18:
ARM GAS  /tmp/ccoHqXX1.s 			page 11


 257:Drivers/lvgl/src/draw/sw/blend/lv_draw_sw_blend.c ****             break;
 270              		.loc 1 257 13 view .LVU51
 271 0058 1046     		mov	r0, r2
 272              	.LVL45:
 257:Drivers/lvgl/src/draw/sw/blend/lv_draw_sw_blend.c ****             break;
 273              		.loc 1 257 13 is_stmt 0 view .LVU52
 274 005a FFF7FEFF 		bl	lv_draw_sw_blend_image_to_al88
 275              	.LVL46:
 258:Drivers/lvgl/src/draw/sw/blend/lv_draw_sw_blend.c **** #endif
 276              		.loc 1 258 13 is_stmt 1 view .LVU53
 277 005e E4E7     		b	.L14
 278              	.LVL47:
 279              	.L23:
 262:Drivers/lvgl/src/draw/sw/blend/lv_draw_sw_blend.c ****             break;
 280              		.loc 1 262 13 view .LVU54
 281 0060 1046     		mov	r0, r2
 282              	.LVL48:
 262:Drivers/lvgl/src/draw/sw/blend/lv_draw_sw_blend.c ****             break;
 283              		.loc 1 262 13 is_stmt 0 view .LVU55
 284 0062 FFF7FEFF 		bl	lv_draw_sw_blend_image_to_i1
 285              	.LVL49:
 263:Drivers/lvgl/src/draw/sw/blend/lv_draw_sw_blend.c **** #endif
 286              		.loc 1 263 13 is_stmt 1 view .LVU56
 287              		.loc 1 268 1 is_stmt 0 view .LVU57
 288 0066 E0E7     		b	.L14
 289              		.cfi_endproc
 290              	.LFE42:
 292              		.section	.text.lv_draw_sw_blend,"ax",%progbits
 293              		.align	1
 294              		.global	lv_draw_sw_blend
 295              		.syntax unified
 296              		.thumb
 297              		.thumb_func
 299              	lv_draw_sw_blend:
 300              	.LVL50:
 301              	.LFB40:
  68:Drivers/lvgl/src/draw/sw/blend/lv_draw_sw_blend.c ****     /*Do not draw transparent things*/
 302              		.loc 1 68 1 is_stmt 1 view -0
 303              		.cfi_startproc
 304              		@ args = 0, pretend = 0, frame = 88
 305              		@ frame_needed = 0, uses_anonymous_args = 0
  70:Drivers/lvgl/src/draw/sw/blend/lv_draw_sw_blend.c ****     if(blend_dsc->mask_buf && blend_dsc->mask_res == LV_DRAW_SW_MASK_RES_TRANSP) return;
 306              		.loc 1 70 5 view .LVU59
  70:Drivers/lvgl/src/draw/sw/blend/lv_draw_sw_blend.c ****     if(blend_dsc->mask_buf && blend_dsc->mask_res == LV_DRAW_SW_MASK_RES_TRANSP) return;
 307              		.loc 1 70 17 is_stmt 0 view .LVU60
 308 0000 0B7D     		ldrb	r3, [r1, #20]	@ zero_extendqisi2
  70:Drivers/lvgl/src/draw/sw/blend/lv_draw_sw_blend.c ****     if(blend_dsc->mask_buf && blend_dsc->mask_res == LV_DRAW_SW_MASK_RES_TRANSP) return;
 309              		.loc 1 70 7 view .LVU61
 310 0002 022B     		cmp	r3, #2
 311 0004 40F20181 		bls	.L49
  68:Drivers/lvgl/src/draw/sw/blend/lv_draw_sw_blend.c ****     /*Do not draw transparent things*/
 312              		.loc 1 68 1 view .LVU62
 313 0008 F0B5     		push	{r4, r5, r6, r7, lr}
 314              	.LCFI2:
 315              		.cfi_def_cfa_offset 20
 316              		.cfi_offset 4, -20
 317              		.cfi_offset 5, -16
ARM GAS  /tmp/ccoHqXX1.s 			page 12


 318              		.cfi_offset 6, -12
 319              		.cfi_offset 7, -8
 320              		.cfi_offset 14, -4
 321 000a 97B0     		sub	sp, sp, #92
 322              	.LCFI3:
 323              		.cfi_def_cfa_offset 112
 324 000c 0546     		mov	r5, r0
 325 000e 0C46     		mov	r4, r1
  71:Drivers/lvgl/src/draw/sw/blend/lv_draw_sw_blend.c **** 
 326              		.loc 1 71 5 is_stmt 1 view .LVU63
  71:Drivers/lvgl/src/draw/sw/blend/lv_draw_sw_blend.c **** 
 327              		.loc 1 71 17 is_stmt 0 view .LVU64
 328 0010 8B69     		ldr	r3, [r1, #24]
  71:Drivers/lvgl/src/draw/sw/blend/lv_draw_sw_blend.c **** 
 329              		.loc 1 71 7 view .LVU65
 330 0012 0BB1     		cbz	r3, .L29
  71:Drivers/lvgl/src/draw/sw/blend/lv_draw_sw_blend.c **** 
 331              		.loc 1 71 40 discriminator 1 view .LVU66
 332 0014 0B7F     		ldrb	r3, [r1, #28]	@ zero_extendqisi2
  71:Drivers/lvgl/src/draw/sw/blend/lv_draw_sw_blend.c **** 
 333              		.loc 1 71 28 discriminator 1 view .LVU67
 334 0016 33B1     		cbz	r3, .L27
 335              	.L29:
  73:Drivers/lvgl/src/draw/sw/blend/lv_draw_sw_blend.c ****     if(!lv_area_intersect(&blend_area, blend_dsc->blend_area, &t->clip_area)) return;
 336              		.loc 1 73 5 is_stmt 1 view .LVU68
  74:Drivers/lvgl/src/draw/sw/blend/lv_draw_sw_blend.c **** 
 337              		.loc 1 74 5 view .LVU69
  74:Drivers/lvgl/src/draw/sw/blend/lv_draw_sw_blend.c **** 
 338              		.loc 1 74 9 is_stmt 0 view .LVU70
 339 0018 05F13802 		add	r2, r5, #56
 340 001c 2168     		ldr	r1, [r4]
 341              	.LVL51:
  74:Drivers/lvgl/src/draw/sw/blend/lv_draw_sw_blend.c **** 
 342              		.loc 1 74 9 view .LVU71
 343 001e 12A8     		add	r0, sp, #72
 344              	.LVL52:
  74:Drivers/lvgl/src/draw/sw/blend/lv_draw_sw_blend.c **** 
 345              		.loc 1 74 9 view .LVU72
 346 0020 FFF7FEFF 		bl	lv_area_intersect
 347              	.LVL53:
  74:Drivers/lvgl/src/draw/sw/blend/lv_draw_sw_blend.c **** 
 348              		.loc 1 74 7 discriminator 1 view .LVU73
 349 0024 08B9     		cbnz	r0, .L52
 350              	.LVL54:
 351              	.L27:
 165:Drivers/lvgl/src/draw/sw/blend/lv_draw_sw_blend.c **** 
 352              		.loc 1 165 1 view .LVU74
 353 0026 17B0     		add	sp, sp, #92
 354              	.LCFI4:
 355              		.cfi_remember_state
 356              		.cfi_def_cfa_offset 20
 357              		@ sp needed
 358 0028 F0BD     		pop	{r4, r5, r6, r7, pc}
 359              	.LVL55:
 360              	.L52:
 361              	.LCFI5:
 362              		.cfi_restore_state
ARM GAS  /tmp/ccoHqXX1.s 			page 13


  76:Drivers/lvgl/src/draw/sw/blend/lv_draw_sw_blend.c ****     lv_layer_t * layer = t->target_layer;
 363              		.loc 1 76 27 is_stmt 1 view .LVU75
  77:Drivers/lvgl/src/draw/sw/blend/lv_draw_sw_blend.c ****     uint32_t layer_stride_byte = layer->draw_buf->header.stride;
 364              		.loc 1 77 5 view .LVU76
  77:Drivers/lvgl/src/draw/sw/blend/lv_draw_sw_blend.c ****     uint32_t layer_stride_byte = layer->draw_buf->header.stride;
 365              		.loc 1 77 18 is_stmt 0 view .LVU77
 366 002a AE6C     		ldr	r6, [r5, #72]
 367              	.LVL56:
  78:Drivers/lvgl/src/draw/sw/blend/lv_draw_sw_blend.c **** 
 368              		.loc 1 78 5 is_stmt 1 view .LVU78
  78:Drivers/lvgl/src/draw/sw/blend/lv_draw_sw_blend.c **** 
 369              		.loc 1 78 39 is_stmt 0 view .LVU79
 370 002c 3368     		ldr	r3, [r6]
  78:Drivers/lvgl/src/draw/sw/blend/lv_draw_sw_blend.c **** 
 371              		.loc 1 78 57 view .LVU80
 372 002e 1F89     		ldrh	r7, [r3, #8]
 373              	.LVL57:
  80:Drivers/lvgl/src/draw/sw/blend/lv_draw_sw_blend.c ****     if(handler) {
 374              		.loc 1 80 5 is_stmt 1 view .LVU81
  80:Drivers/lvgl/src/draw/sw/blend/lv_draw_sw_blend.c ****     if(handler) {
 375              		.loc 1 80 42 is_stmt 0 view .LVU82
 376 0030 307D     		ldrb	r0, [r6, #20]	@ zero_extendqisi2
 377 0032 FFF7FEFF 		bl	lv_draw_sw_get_blend_handler
 378              	.LVL58:
  81:Drivers/lvgl/src/draw/sw/blend/lv_draw_sw_blend.c ****         handler(t, blend_dsc);
 379              		.loc 1 81 5 is_stmt 1 view .LVU83
  81:Drivers/lvgl/src/draw/sw/blend/lv_draw_sw_blend.c ****         handler(t, blend_dsc);
 380              		.loc 1 81 7 is_stmt 0 view .LVU84
 381 0036 0346     		mov	r3, r0
 382 0038 18B1     		cbz	r0, .L30
  82:Drivers/lvgl/src/draw/sw/blend/lv_draw_sw_blend.c ****         LV_PROFILER_DRAW_END;
 383              		.loc 1 82 9 is_stmt 1 view .LVU85
 384 003a 2146     		mov	r1, r4
 385 003c 2846     		mov	r0, r5
 386              	.LVL59:
  82:Drivers/lvgl/src/draw/sw/blend/lv_draw_sw_blend.c ****         LV_PROFILER_DRAW_END;
 387              		.loc 1 82 9 is_stmt 0 view .LVU86
 388 003e 9847     		blx	r3
 389              	.LVL60:
  83:Drivers/lvgl/src/draw/sw/blend/lv_draw_sw_blend.c ****         return;
 390              		.loc 1 83 29 is_stmt 1 view .LVU87
  84:Drivers/lvgl/src/draw/sw/blend/lv_draw_sw_blend.c ****     }
 391              		.loc 1 84 9 view .LVU88
 392 0040 F1E7     		b	.L27
 393              	.LVL61:
 394              	.L30:
  87:Drivers/lvgl/src/draw/sw/blend/lv_draw_sw_blend.c ****         lv_draw_sw_blend_fill_dsc_t fill_dsc;
 395              		.loc 1 87 5 view .LVU89
  87:Drivers/lvgl/src/draw/sw/blend/lv_draw_sw_blend.c ****         lv_draw_sw_blend_fill_dsc_t fill_dsc;
 396              		.loc 1 87 17 is_stmt 0 view .LVU90
 397 0042 6368     		ldr	r3, [r4, #4]
  87:Drivers/lvgl/src/draw/sw/blend/lv_draw_sw_blend.c ****         lv_draw_sw_blend_fill_dsc_t fill_dsc;
 398              		.loc 1 87 7 view .LVU91
 399 0044 002B     		cmp	r3, #0
 400 0046 00F08280 		beq	.L53
 401              	.LBB2:
 114:Drivers/lvgl/src/draw/sw/blend/lv_draw_sw_blend.c ****             LV_PROFILER_DRAW_END;
ARM GAS  /tmp/ccoHqXX1.s 			page 14


 402              		.loc 1 114 9 is_stmt 1 view .LVU92
 114:Drivers/lvgl/src/draw/sw/blend/lv_draw_sw_blend.c ****             LV_PROFILER_DRAW_END;
 403              		.loc 1 114 13 is_stmt 0 view .LVU93
 404 004a 12A8     		add	r0, sp, #72
 405              	.LVL62:
 114:Drivers/lvgl/src/draw/sw/blend/lv_draw_sw_blend.c ****             LV_PROFILER_DRAW_END;
 406              		.loc 1 114 13 view .LVU94
 407 004c 2269     		ldr	r2, [r4, #16]
 408 004e 0146     		mov	r1, r0
 409 0050 FFF7FEFF 		bl	lv_area_intersect
 410              	.LVL63:
 114:Drivers/lvgl/src/draw/sw/blend/lv_draw_sw_blend.c ****             LV_PROFILER_DRAW_END;
 411              		.loc 1 114 11 discriminator 1 view .LVU95
 412 0054 0028     		cmp	r0, #0
 413 0056 E6D0     		beq	.L27
 119:Drivers/lvgl/src/draw/sw/blend/lv_draw_sw_blend.c ****             LV_PROFILER_DRAW_END;
 414              		.loc 1 119 9 is_stmt 1 view .LVU96
 119:Drivers/lvgl/src/draw/sw/blend/lv_draw_sw_blend.c ****             LV_PROFILER_DRAW_END;
 415              		.loc 1 119 21 is_stmt 0 view .LVU97
 416 0058 226A     		ldr	r2, [r4, #32]
 119:Drivers/lvgl/src/draw/sw/blend/lv_draw_sw_blend.c ****             LV_PROFILER_DRAW_END;
 417              		.loc 1 119 11 view .LVU98
 418 005a 2AB1     		cbz	r2, .L39
 119:Drivers/lvgl/src/draw/sw/blend/lv_draw_sw_blend.c ****             LV_PROFILER_DRAW_END;
 419              		.loc 1 119 37 discriminator 1 view .LVU99
 420 005c 12A8     		add	r0, sp, #72
 421 005e 0146     		mov	r1, r0
 422 0060 FFF7FEFF 		bl	lv_area_intersect
 423              	.LVL64:
 119:Drivers/lvgl/src/draw/sw/blend/lv_draw_sw_blend.c ****             LV_PROFILER_DRAW_END;
 424              		.loc 1 119 33 discriminator 1 view .LVU100
 425 0064 0028     		cmp	r0, #0
 426 0066 DED0     		beq	.L27
 427              	.L39:
 124:Drivers/lvgl/src/draw/sw/blend/lv_draw_sw_blend.c ****         image_dsc.dest_w = lv_area_get_width(&blend_area);
 428              		.loc 1 124 9 is_stmt 1 view .LVU101
 125:Drivers/lvgl/src/draw/sw/blend/lv_draw_sw_blend.c ****         image_dsc.dest_h = lv_area_get_height(&blend_area);
 429              		.loc 1 125 9 view .LVU102
 125:Drivers/lvgl/src/draw/sw/blend/lv_draw_sw_blend.c ****         image_dsc.dest_h = lv_area_get_height(&blend_area);
 430              		.loc 1 125 28 is_stmt 0 view .LVU103
 431 0068 12AD     		add	r5, sp, #72
 432              	.LVL65:
 125:Drivers/lvgl/src/draw/sw/blend/lv_draw_sw_blend.c ****         image_dsc.dest_h = lv_area_get_height(&blend_area);
 433              		.loc 1 125 28 view .LVU104
 434 006a 2846     		mov	r0, r5
 435 006c FFF7FEFF 		bl	lv_area_get_width
 436              	.LVL66:
 125:Drivers/lvgl/src/draw/sw/blend/lv_draw_sw_blend.c ****         image_dsc.dest_h = lv_area_get_height(&blend_area);
 437              		.loc 1 125 26 discriminator 1 view .LVU105
 438 0070 0290     		str	r0, [sp, #8]
 126:Drivers/lvgl/src/draw/sw/blend/lv_draw_sw_blend.c ****         image_dsc.dest_stride = layer_stride_byte;
 439              		.loc 1 126 9 is_stmt 1 view .LVU106
 126:Drivers/lvgl/src/draw/sw/blend/lv_draw_sw_blend.c ****         image_dsc.dest_stride = layer_stride_byte;
 440              		.loc 1 126 28 is_stmt 0 view .LVU107
 441 0072 2846     		mov	r0, r5
 442 0074 FFF7FEFF 		bl	lv_area_get_height
 443              	.LVL67:
ARM GAS  /tmp/ccoHqXX1.s 			page 15


 126:Drivers/lvgl/src/draw/sw/blend/lv_draw_sw_blend.c ****         image_dsc.dest_stride = layer_stride_byte;
 444              		.loc 1 126 26 discriminator 1 view .LVU108
 445 0078 0390     		str	r0, [sp, #12]
 127:Drivers/lvgl/src/draw/sw/blend/lv_draw_sw_blend.c **** 
 446              		.loc 1 127 9 is_stmt 1 view .LVU109
 127:Drivers/lvgl/src/draw/sw/blend/lv_draw_sw_blend.c **** 
 447              		.loc 1 127 31 is_stmt 0 view .LVU110
 448 007a 0497     		str	r7, [sp, #16]
 129:Drivers/lvgl/src/draw/sw/blend/lv_draw_sw_blend.c ****         image_dsc.blend_mode = blend_dsc->blend_mode;
 449              		.loc 1 129 9 is_stmt 1 view .LVU111
 129:Drivers/lvgl/src/draw/sw/blend/lv_draw_sw_blend.c ****         image_dsc.blend_mode = blend_dsc->blend_mode;
 450              		.loc 1 129 34 is_stmt 0 view .LVU112
 451 007c 237D     		ldrb	r3, [r4, #20]	@ zero_extendqisi2
 129:Drivers/lvgl/src/draw/sw/blend/lv_draw_sw_blend.c ****         image_dsc.blend_mode = blend_dsc->blend_mode;
 452              		.loc 1 129 23 view .LVU113
 453 007e 8DF82530 		strb	r3, [sp, #37]
 130:Drivers/lvgl/src/draw/sw/blend/lv_draw_sw_blend.c ****         image_dsc.src_stride = blend_dsc->src_stride;
 454              		.loc 1 130 9 is_stmt 1 view .LVU114
 130:Drivers/lvgl/src/draw/sw/blend/lv_draw_sw_blend.c ****         image_dsc.src_stride = blend_dsc->src_stride;
 455              		.loc 1 130 41 is_stmt 0 view .LVU115
 456 0082 94F82830 		ldrb	r3, [r4, #40]	@ zero_extendqisi2
 130:Drivers/lvgl/src/draw/sw/blend/lv_draw_sw_blend.c ****         image_dsc.src_stride = blend_dsc->src_stride;
 457              		.loc 1 130 30 view .LVU116
 458 0086 8DF82630 		strb	r3, [sp, #38]
 131:Drivers/lvgl/src/draw/sw/blend/lv_draw_sw_blend.c ****         image_dsc.src_color_format = blend_dsc->src_color_format;
 459              		.loc 1 131 9 is_stmt 1 view .LVU117
 131:Drivers/lvgl/src/draw/sw/blend/lv_draw_sw_blend.c ****         image_dsc.src_color_format = blend_dsc->src_color_format;
 460              		.loc 1 131 41 is_stmt 0 view .LVU118
 461 008a A368     		ldr	r3, [r4, #8]
 131:Drivers/lvgl/src/draw/sw/blend/lv_draw_sw_blend.c ****         image_dsc.src_color_format = blend_dsc->src_color_format;
 462              		.loc 1 131 30 view .LVU119
 463 008c 0893     		str	r3, [sp, #32]
 132:Drivers/lvgl/src/draw/sw/blend/lv_draw_sw_blend.c **** 
 464              		.loc 1 132 9 is_stmt 1 view .LVU120
 132:Drivers/lvgl/src/draw/sw/blend/lv_draw_sw_blend.c **** 
 465              		.loc 1 132 47 is_stmt 0 view .LVU121
 466 008e 207B     		ldrb	r0, [r4, #12]	@ zero_extendqisi2
 132:Drivers/lvgl/src/draw/sw/blend/lv_draw_sw_blend.c **** 
 467              		.loc 1 132 36 view .LVU122
 468 0090 8DF82400 		strb	r0, [sp, #36]
 134:Drivers/lvgl/src/draw/sw/blend/lv_draw_sw_blend.c ****         uint32_t src_px_size = lv_color_format_get_bpp(blend_dsc->src_color_format);
 469              		.loc 1 134 9 is_stmt 1 view .LVU123
 134:Drivers/lvgl/src/draw/sw/blend/lv_draw_sw_blend.c ****         uint32_t src_px_size = lv_color_format_get_bpp(blend_dsc->src_color_format);
 470              		.loc 1 134 25 is_stmt 0 view .LVU124
 471 0094 6568     		ldr	r5, [r4, #4]
 472              	.LVL68:
 135:Drivers/lvgl/src/draw/sw/blend/lv_draw_sw_blend.c ****         src_buf += image_dsc.src_stride * (blend_area.y1 - blend_dsc->src_area->y1);
 473              		.loc 1 135 9 is_stmt 1 view .LVU125
 135:Drivers/lvgl/src/draw/sw/blend/lv_draw_sw_blend.c ****         src_buf += image_dsc.src_stride * (blend_area.y1 - blend_dsc->src_area->y1);
 474              		.loc 1 135 32 is_stmt 0 view .LVU126
 475 0096 FFF7FEFF 		bl	lv_color_format_get_bpp
 476              	.LVL69:
 136:Drivers/lvgl/src/draw/sw/blend/lv_draw_sw_blend.c ****         src_buf += ((blend_area.x1 - blend_dsc->src_area->x1) * src_px_size) >> 3;
 477              		.loc 1 136 9 is_stmt 1 view .LVU127
 136:Drivers/lvgl/src/draw/sw/blend/lv_draw_sw_blend.c ****         src_buf += ((blend_area.x1 - blend_dsc->src_area->x1) * src_px_size) >> 3;
 478              		.loc 1 136 69 is_stmt 0 view .LVU128
 479 009a 2169     		ldr	r1, [r4, #16]
ARM GAS  /tmp/ccoHqXX1.s 			page 16


 136:Drivers/lvgl/src/draw/sw/blend/lv_draw_sw_blend.c ****         src_buf += ((blend_area.x1 - blend_dsc->src_area->x1) * src_px_size) >> 3;
 480              		.loc 1 136 79 view .LVU129
 481 009c 4A68     		ldr	r2, [r1, #4]
 136:Drivers/lvgl/src/draw/sw/blend/lv_draw_sw_blend.c ****         src_buf += ((blend_area.x1 - blend_dsc->src_area->x1) * src_px_size) >> 3;
 482              		.loc 1 136 58 view .LVU130
 483 009e 139B     		ldr	r3, [sp, #76]
 484 00a0 9A1A     		subs	r2, r3, r2
 485              	.LVL70:
 137:Drivers/lvgl/src/draw/sw/blend/lv_draw_sw_blend.c ****         image_dsc.src_buf = src_buf;
 486              		.loc 1 137 9 is_stmt 1 view .LVU131
 137:Drivers/lvgl/src/draw/sw/blend/lv_draw_sw_blend.c ****         image_dsc.src_buf = src_buf;
 487              		.loc 1 137 57 is_stmt 0 view .LVU132
 488 00a2 0968     		ldr	r1, [r1]
 137:Drivers/lvgl/src/draw/sw/blend/lv_draw_sw_blend.c ****         image_dsc.src_buf = src_buf;
 489              		.loc 1 137 36 view .LVU133
 490 00a4 129B     		ldr	r3, [sp, #72]
 491 00a6 5B1A     		subs	r3, r3, r1
 137:Drivers/lvgl/src/draw/sw/blend/lv_draw_sw_blend.c ****         image_dsc.src_buf = src_buf;
 492              		.loc 1 137 63 view .LVU134
 493 00a8 00FB03F3 		mul	r3, r0, r3
 137:Drivers/lvgl/src/draw/sw/blend/lv_draw_sw_blend.c ****         image_dsc.src_buf = src_buf;
 494              		.loc 1 137 78 view .LVU135
 495 00ac DB08     		lsrs	r3, r3, #3
 137:Drivers/lvgl/src/draw/sw/blend/lv_draw_sw_blend.c ****         image_dsc.src_buf = src_buf;
 496              		.loc 1 137 17 view .LVU136
 497 00ae 0899     		ldr	r1, [sp, #32]
 498 00b0 02FB0133 		mla	r3, r2, r1, r3
 499 00b4 1D44     		add	r5, r5, r3
 500              	.LVL71:
 138:Drivers/lvgl/src/draw/sw/blend/lv_draw_sw_blend.c ****         image_dsc.mask_stride = 0;
 501              		.loc 1 138 9 is_stmt 1 view .LVU137
 138:Drivers/lvgl/src/draw/sw/blend/lv_draw_sw_blend.c ****         image_dsc.mask_stride = 0;
 502              		.loc 1 138 27 is_stmt 0 view .LVU138
 503 00b6 0795     		str	r5, [sp, #28]
 139:Drivers/lvgl/src/draw/sw/blend/lv_draw_sw_blend.c **** 
 504              		.loc 1 139 9 is_stmt 1 view .LVU139
 139:Drivers/lvgl/src/draw/sw/blend/lv_draw_sw_blend.c **** 
 505              		.loc 1 139 31 is_stmt 0 view .LVU140
 506 00b8 0023     		movs	r3, #0
 507 00ba 0693     		str	r3, [sp, #24]
 141:Drivers/lvgl/src/draw/sw/blend/lv_draw_sw_blend.c ****         else if(blend_dsc->mask_res == LV_DRAW_SW_MASK_RES_FULL_COVER) image_dsc.mask_buf = NULL;
 508              		.loc 1 141 9 is_stmt 1 view .LVU141
 141:Drivers/lvgl/src/draw/sw/blend/lv_draw_sw_blend.c ****         else if(blend_dsc->mask_res == LV_DRAW_SW_MASK_RES_FULL_COVER) image_dsc.mask_buf = NULL;
 509              		.loc 1 141 21 is_stmt 0 view .LVU142
 510 00bc A369     		ldr	r3, [r4, #24]
 141:Drivers/lvgl/src/draw/sw/blend/lv_draw_sw_blend.c ****         else if(blend_dsc->mask_res == LV_DRAW_SW_MASK_RES_FULL_COVER) image_dsc.mask_buf = NULL;
 511              		.loc 1 141 11 view .LVU143
 512 00be 002B     		cmp	r3, #0
 513 00c0 00F09880 		beq	.L54
 142:Drivers/lvgl/src/draw/sw/blend/lv_draw_sw_blend.c ****         else image_dsc.mask_buf = blend_dsc->mask_buf;
 514              		.loc 1 142 14 is_stmt 1 view .LVU144
 142:Drivers/lvgl/src/draw/sw/blend/lv_draw_sw_blend.c ****         else image_dsc.mask_buf = blend_dsc->mask_buf;
 515              		.loc 1 142 26 is_stmt 0 view .LVU145
 516 00c4 227F     		ldrb	r2, [r4, #28]	@ zero_extendqisi2
 142:Drivers/lvgl/src/draw/sw/blend/lv_draw_sw_blend.c ****         else image_dsc.mask_buf = blend_dsc->mask_buf;
 517              		.loc 1 142 16 view .LVU146
 518 00c6 012A     		cmp	r2, #1
ARM GAS  /tmp/ccoHqXX1.s 			page 17


 519 00c8 00F09780 		beq	.L55
 143:Drivers/lvgl/src/draw/sw/blend/lv_draw_sw_blend.c **** 
 520              		.loc 1 143 14 is_stmt 1 view .LVU147
 143:Drivers/lvgl/src/draw/sw/blend/lv_draw_sw_blend.c **** 
 521              		.loc 1 143 33 is_stmt 0 view .LVU148
 522 00cc 0593     		str	r3, [sp, #20]
 523              	.L41:
 145:Drivers/lvgl/src/draw/sw/blend/lv_draw_sw_blend.c ****             LV_ASSERT_NULL(blend_dsc->mask_area);
 524              		.loc 1 145 9 is_stmt 1 view .LVU149
 145:Drivers/lvgl/src/draw/sw/blend/lv_draw_sw_blend.c ****             LV_ASSERT_NULL(blend_dsc->mask_area);
 525              		.loc 1 145 21 is_stmt 0 view .LVU150
 526 00ce 059A     		ldr	r2, [sp, #20]
 145:Drivers/lvgl/src/draw/sw/blend/lv_draw_sw_blend.c ****             LV_ASSERT_NULL(blend_dsc->mask_area);
 527              		.loc 1 145 11 view .LVU151
 528 00d0 AAB1     		cbz	r2, .L43
 146:Drivers/lvgl/src/draw/sw/blend/lv_draw_sw_blend.c ****             image_dsc.mask_buf = blend_dsc->mask_buf;
 529              		.loc 1 146 13 is_stmt 1 view .LVU152
 146:Drivers/lvgl/src/draw/sw/blend/lv_draw_sw_blend.c ****             image_dsc.mask_buf = blend_dsc->mask_buf;
 530              		.loc 1 146 13 view .LVU153
 531 00d2 206A     		ldr	r0, [r4, #32]
 532              	.LVL72:
 146:Drivers/lvgl/src/draw/sw/blend/lv_draw_sw_blend.c ****             image_dsc.mask_buf = blend_dsc->mask_buf;
 533              		.loc 1 146 13 is_stmt 0 view .LVU154
 534 00d4 0028     		cmp	r0, #0
 535 00d6 00F09380 		beq	.L45
 146:Drivers/lvgl/src/draw/sw/blend/lv_draw_sw_blend.c ****             image_dsc.mask_buf = blend_dsc->mask_buf;
 536              		.loc 1 146 13 is_stmt 1 discriminator 2 view .LVU155
 146:Drivers/lvgl/src/draw/sw/blend/lv_draw_sw_blend.c ****             image_dsc.mask_buf = blend_dsc->mask_buf;
 537              		.loc 1 146 49 discriminator 2 view .LVU156
 147:Drivers/lvgl/src/draw/sw/blend/lv_draw_sw_blend.c ****             image_dsc.mask_stride = blend_dsc->mask_stride ? blend_dsc->mask_stride : lv_area_get_w
 538              		.loc 1 147 13 view .LVU157
 147:Drivers/lvgl/src/draw/sw/blend/lv_draw_sw_blend.c ****             image_dsc.mask_stride = blend_dsc->mask_stride ? blend_dsc->mask_stride : lv_area_get_w
 539              		.loc 1 147 32 is_stmt 0 view .LVU158
 540 00da 0593     		str	r3, [sp, #20]
 148:Drivers/lvgl/src/draw/sw/blend/lv_draw_sw_blend.c ****             image_dsc.mask_buf += image_dsc.mask_stride * (blend_area.y1 - blend_dsc->mask_area->y1
 541              		.loc 1 148 13 is_stmt 1 view .LVU159
 148:Drivers/lvgl/src/draw/sw/blend/lv_draw_sw_blend.c ****             image_dsc.mask_buf += image_dsc.mask_stride * (blend_area.y1 - blend_dsc->mask_area->y1
 542              		.loc 1 148 46 is_stmt 0 view .LVU160
 543 00dc 626A     		ldr	r2, [r4, #36]
 148:Drivers/lvgl/src/draw/sw/blend/lv_draw_sw_blend.c ****             image_dsc.mask_buf += image_dsc.mask_stride * (blend_area.y1 - blend_dsc->mask_area->y1
 544              		.loc 1 148 85 view .LVU161
 545 00de 002A     		cmp	r2, #0
 546 00e0 00F08F80 		beq	.L56
 547              	.L46:
 148:Drivers/lvgl/src/draw/sw/blend/lv_draw_sw_blend.c ****             image_dsc.mask_buf += image_dsc.mask_stride * (blend_area.y1 - blend_dsc->mask_area->y1
 548              		.loc 1 148 35 discriminator 4 view .LVU162
 549 00e4 0692     		str	r2, [sp, #24]
 149:Drivers/lvgl/src/draw/sw/blend/lv_draw_sw_blend.c ****                                   (blend_area.x1 - blend_dsc->mask_area->x1);
 550              		.loc 1 149 13 is_stmt 1 view .LVU163
 149:Drivers/lvgl/src/draw/sw/blend/lv_draw_sw_blend.c ****                                   (blend_area.x1 - blend_dsc->mask_area->x1);
 551              		.loc 1 149 85 is_stmt 0 view .LVU164
 552 00e6 206A     		ldr	r0, [r4, #32]
 149:Drivers/lvgl/src/draw/sw/blend/lv_draw_sw_blend.c ****                                   (blend_area.x1 - blend_dsc->mask_area->x1);
 553              		.loc 1 149 96 view .LVU165
 554 00e8 4168     		ldr	r1, [r0, #4]
 149:Drivers/lvgl/src/draw/sw/blend/lv_draw_sw_blend.c ****                                   (blend_area.x1 - blend_dsc->mask_area->x1);
 555              		.loc 1 149 74 view .LVU166
ARM GAS  /tmp/ccoHqXX1.s 			page 18


 556 00ea 139B     		ldr	r3, [sp, #76]
 557 00ec 591A     		subs	r1, r3, r1
 150:Drivers/lvgl/src/draw/sw/blend/lv_draw_sw_blend.c ****         }
 558              		.loc 1 150 72 view .LVU167
 559 00ee 0068     		ldr	r0, [r0]
 150:Drivers/lvgl/src/draw/sw/blend/lv_draw_sw_blend.c ****         }
 560              		.loc 1 150 50 view .LVU168
 561 00f0 129B     		ldr	r3, [sp, #72]
 562 00f2 1B1A     		subs	r3, r3, r0
 149:Drivers/lvgl/src/draw/sw/blend/lv_draw_sw_blend.c ****                                   (blend_area.x1 - blend_dsc->mask_area->x1);
 563              		.loc 1 149 102 view .LVU169
 564 00f4 02FB0133 		mla	r3, r2, r1, r3
 149:Drivers/lvgl/src/draw/sw/blend/lv_draw_sw_blend.c ****                                   (blend_area.x1 - blend_dsc->mask_area->x1);
 565              		.loc 1 149 32 view .LVU170
 566 00f8 059A     		ldr	r2, [sp, #20]
 567 00fa 1A44     		add	r2, r2, r3
 568 00fc 0592     		str	r2, [sp, #20]
 569              	.L43:
 153:Drivers/lvgl/src/draw/sw/blend/lv_draw_sw_blend.c ****         lv_area_move(&image_dsc.relative_area, -layer->buf_area.x1, -layer->buf_area.y1);
 570              		.loc 1 153 9 is_stmt 1 view .LVU171
 153:Drivers/lvgl/src/draw/sw/blend/lv_draw_sw_blend.c ****         lv_area_move(&image_dsc.relative_area, -layer->buf_area.x1, -layer->buf_area.y1);
 571              		.loc 1 153 34 is_stmt 0 view .LVU172
 572 00fe 0AAD     		add	r5, sp, #40
 573              	.LVL73:
 153:Drivers/lvgl/src/draw/sw/blend/lv_draw_sw_blend.c ****         lv_area_move(&image_dsc.relative_area, -layer->buf_area.x1, -layer->buf_area.y1);
 574              		.loc 1 153 34 view .LVU173
 575 0100 16AB     		add	r3, sp, #88
 576 0102 13E90F00 		ldmdb	r3, {r0, r1, r2, r3}
 577 0106 85E80F00 		stm	r5, {r0, r1, r2, r3}
 154:Drivers/lvgl/src/draw/sw/blend/lv_draw_sw_blend.c **** 
 578              		.loc 1 154 9 is_stmt 1 view .LVU174
 154:Drivers/lvgl/src/draw/sw/blend/lv_draw_sw_blend.c **** 
 579              		.loc 1 154 64 is_stmt 0 view .LVU175
 580 010a 7168     		ldr	r1, [r6, #4]
 154:Drivers/lvgl/src/draw/sw/blend/lv_draw_sw_blend.c **** 
 581              		.loc 1 154 85 view .LVU176
 582 010c B268     		ldr	r2, [r6, #8]
 154:Drivers/lvgl/src/draw/sw/blend/lv_draw_sw_blend.c **** 
 583              		.loc 1 154 9 view .LVU177
 584 010e 5242     		rsbs	r2, r2, #0
 585 0110 4942     		rsbs	r1, r1, #0
 586 0112 2846     		mov	r0, r5
 587 0114 FFF7FEFF 		bl	lv_area_move
 588              	.LVL74:
 156:Drivers/lvgl/src/draw/sw/blend/lv_draw_sw_blend.c ****         lv_area_move(&image_dsc.src_area, -layer->buf_area.x1, -layer->buf_area.y1);
 589              		.loc 1 156 9 is_stmt 1 view .LVU178
 156:Drivers/lvgl/src/draw/sw/blend/lv_draw_sw_blend.c ****         lv_area_move(&image_dsc.src_area, -layer->buf_area.x1, -layer->buf_area.y1);
 590              		.loc 1 156 41 is_stmt 0 view .LVU179
 591 0118 2369     		ldr	r3, [r4, #16]
 156:Drivers/lvgl/src/draw/sw/blend/lv_draw_sw_blend.c ****         lv_area_move(&image_dsc.src_area, -layer->buf_area.x1, -layer->buf_area.y1);
 592              		.loc 1 156 29 view .LVU180
 593 011a 0EAC     		add	r4, sp, #56
 594              	.LVL75:
 156:Drivers/lvgl/src/draw/sw/blend/lv_draw_sw_blend.c ****         lv_area_move(&image_dsc.src_area, -layer->buf_area.x1, -layer->buf_area.y1);
 595              		.loc 1 156 29 view .LVU181
 596 011c 0FCB     		ldm	r3, {r0, r1, r2, r3}
 597 011e 84E80F00 		stm	r4, {r0, r1, r2, r3}
ARM GAS  /tmp/ccoHqXX1.s 			page 19


 157:Drivers/lvgl/src/draw/sw/blend/lv_draw_sw_blend.c **** 
 598              		.loc 1 157 9 is_stmt 1 view .LVU182
 157:Drivers/lvgl/src/draw/sw/blend/lv_draw_sw_blend.c **** 
 599              		.loc 1 157 59 is_stmt 0 view .LVU183
 600 0122 7168     		ldr	r1, [r6, #4]
 157:Drivers/lvgl/src/draw/sw/blend/lv_draw_sw_blend.c **** 
 601              		.loc 1 157 80 view .LVU184
 602 0124 B268     		ldr	r2, [r6, #8]
 157:Drivers/lvgl/src/draw/sw/blend/lv_draw_sw_blend.c **** 
 603              		.loc 1 157 9 view .LVU185
 604 0126 5242     		rsbs	r2, r2, #0
 605 0128 4942     		rsbs	r1, r1, #0
 606 012a 2046     		mov	r0, r4
 607 012c FFF7FEFF 		bl	lv_area_move
 608              	.LVL76:
 159:Drivers/lvgl/src/draw/sw/blend/lv_draw_sw_blend.c ****                                                     blend_area.y1 - layer->buf_area.y1);
 609              		.loc 1 159 9 is_stmt 1 view .LVU186
 159:Drivers/lvgl/src/draw/sw/blend/lv_draw_sw_blend.c ****                                                     blend_area.y1 - layer->buf_area.y1);
 610              		.loc 1 159 91 is_stmt 0 view .LVU187
 611 0130 7368     		ldr	r3, [r6, #4]
 160:Drivers/lvgl/src/draw/sw/blend/lv_draw_sw_blend.c **** 
 612              		.loc 1 160 84 view .LVU188
 613 0132 B268     		ldr	r2, [r6, #8]
 159:Drivers/lvgl/src/draw/sw/blend/lv_draw_sw_blend.c ****                                                     blend_area.y1 - layer->buf_area.y1);
 614              		.loc 1 159 30 view .LVU189
 615 0134 1399     		ldr	r1, [sp, #76]
 616 0136 8A1A     		subs	r2, r1, r2
 617 0138 1299     		ldr	r1, [sp, #72]
 618 013a C91A     		subs	r1, r1, r3
 619 013c 3046     		mov	r0, r6
 620 013e FFF7FEFF 		bl	lv_draw_layer_go_to_xy
 621              	.LVL77:
 159:Drivers/lvgl/src/draw/sw/blend/lv_draw_sw_blend.c ****                                                     blend_area.y1 - layer->buf_area.y1);
 622              		.loc 1 159 28 discriminator 1 view .LVU190
 623 0142 0190     		str	r0, [sp, #4]
 162:Drivers/lvgl/src/draw/sw/blend/lv_draw_sw_blend.c ****     }
 624              		.loc 1 162 9 is_stmt 1 view .LVU191
 625 0144 01A9     		add	r1, sp, #4
 626 0146 307D     		ldrb	r0, [r6, #20]	@ zero_extendqisi2
 627 0148 FFF7FEFF 		bl	lv_draw_sw_blend_image
 628              	.LVL78:
 629 014c 6BE7     		b	.L27
 630              	.LVL79:
 631              	.L53:
 162:Drivers/lvgl/src/draw/sw/blend/lv_draw_sw_blend.c ****     }
 632              		.loc 1 162 9 is_stmt 0 view .LVU192
 633              	.LBE2:
 634              	.LBB3:
  88:Drivers/lvgl/src/draw/sw/blend/lv_draw_sw_blend.c ****         fill_dsc.dest_w = lv_area_get_width(&blend_area);
 635              		.loc 1 88 9 is_stmt 1 view .LVU193
  89:Drivers/lvgl/src/draw/sw/blend/lv_draw_sw_blend.c ****         fill_dsc.dest_h = lv_area_get_height(&blend_area);
 636              		.loc 1 89 9 view .LVU194
  89:Drivers/lvgl/src/draw/sw/blend/lv_draw_sw_blend.c ****         fill_dsc.dest_h = lv_area_get_height(&blend_area);
 637              		.loc 1 89 27 is_stmt 0 view .LVU195
 638 014e 12AD     		add	r5, sp, #72
 639              	.LVL80:
  89:Drivers/lvgl/src/draw/sw/blend/lv_draw_sw_blend.c ****         fill_dsc.dest_h = lv_area_get_height(&blend_area);
ARM GAS  /tmp/ccoHqXX1.s 			page 20


 640              		.loc 1 89 27 view .LVU196
 641 0150 2846     		mov	r0, r5
 642              	.LVL81:
  89:Drivers/lvgl/src/draw/sw/blend/lv_draw_sw_blend.c ****         fill_dsc.dest_h = lv_area_get_height(&blend_area);
 643              		.loc 1 89 27 view .LVU197
 644 0152 FFF7FEFF 		bl	lv_area_get_width
 645              	.LVL82:
  89:Drivers/lvgl/src/draw/sw/blend/lv_draw_sw_blend.c ****         fill_dsc.dest_h = lv_area_get_height(&blend_area);
 646              		.loc 1 89 25 discriminator 1 view .LVU198
 647 0156 0290     		str	r0, [sp, #8]
  90:Drivers/lvgl/src/draw/sw/blend/lv_draw_sw_blend.c ****         fill_dsc.dest_stride = layer_stride_byte;
 648              		.loc 1 90 9 is_stmt 1 view .LVU199
  90:Drivers/lvgl/src/draw/sw/blend/lv_draw_sw_blend.c ****         fill_dsc.dest_stride = layer_stride_byte;
 649              		.loc 1 90 27 is_stmt 0 view .LVU200
 650 0158 2846     		mov	r0, r5
 651 015a FFF7FEFF 		bl	lv_area_get_height
 652              	.LVL83:
  90:Drivers/lvgl/src/draw/sw/blend/lv_draw_sw_blend.c ****         fill_dsc.dest_stride = layer_stride_byte;
 653              		.loc 1 90 25 discriminator 1 view .LVU201
 654 015e 0390     		str	r0, [sp, #12]
  91:Drivers/lvgl/src/draw/sw/blend/lv_draw_sw_blend.c ****         fill_dsc.opa = blend_dsc->opa;
 655              		.loc 1 91 9 is_stmt 1 view .LVU202
  91:Drivers/lvgl/src/draw/sw/blend/lv_draw_sw_blend.c ****         fill_dsc.opa = blend_dsc->opa;
 656              		.loc 1 91 30 is_stmt 0 view .LVU203
 657 0160 0497     		str	r7, [sp, #16]
  92:Drivers/lvgl/src/draw/sw/blend/lv_draw_sw_blend.c ****         fill_dsc.color = blend_dsc->color;
 658              		.loc 1 92 9 is_stmt 1 view .LVU204
  92:Drivers/lvgl/src/draw/sw/blend/lv_draw_sw_blend.c ****         fill_dsc.color = blend_dsc->color;
 659              		.loc 1 92 33 is_stmt 0 view .LVU205
 660 0162 237D     		ldrb	r3, [r4, #20]	@ zero_extendqisi2
  92:Drivers/lvgl/src/draw/sw/blend/lv_draw_sw_blend.c ****         fill_dsc.color = blend_dsc->color;
 661              		.loc 1 92 22 view .LVU206
 662 0164 8DF81F30 		strb	r3, [sp, #31]
  93:Drivers/lvgl/src/draw/sw/blend/lv_draw_sw_blend.c ****         fill_dsc.mask_stride = 0;
 663              		.loc 1 93 9 is_stmt 1 view .LVU207
  93:Drivers/lvgl/src/draw/sw/blend/lv_draw_sw_blend.c ****         fill_dsc.mask_stride = 0;
 664              		.loc 1 93 24 is_stmt 0 view .LVU208
 665 0168 B4F81520 		ldrh	r2, [r4, #21]	@ unaligned
 666 016c E37D     		ldrb	r3, [r4, #23]	@ zero_extendqisi2
 667 016e ADF81C20 		strh	r2, [sp, #28]	@ unaligned
 668 0172 8DF81E30 		strb	r3, [sp, #30]
  94:Drivers/lvgl/src/draw/sw/blend/lv_draw_sw_blend.c **** 
 669              		.loc 1 94 9 is_stmt 1 view .LVU209
  94:Drivers/lvgl/src/draw/sw/blend/lv_draw_sw_blend.c **** 
 670              		.loc 1 94 30 is_stmt 0 view .LVU210
 671 0176 0023     		movs	r3, #0
 672 0178 0693     		str	r3, [sp, #24]
  96:Drivers/lvgl/src/draw/sw/blend/lv_draw_sw_blend.c ****         else if(blend_dsc->mask_res == LV_DRAW_SW_MASK_RES_FULL_COVER) fill_dsc.mask_buf = NULL;
 673              		.loc 1 96 9 is_stmt 1 view .LVU211
  96:Drivers/lvgl/src/draw/sw/blend/lv_draw_sw_blend.c ****         else if(blend_dsc->mask_res == LV_DRAW_SW_MASK_RES_FULL_COVER) fill_dsc.mask_buf = NULL;
 674              		.loc 1 96 21 is_stmt 0 view .LVU212
 675 017a A369     		ldr	r3, [r4, #24]
  96:Drivers/lvgl/src/draw/sw/blend/lv_draw_sw_blend.c ****         else if(blend_dsc->mask_res == LV_DRAW_SW_MASK_RES_FULL_COVER) fill_dsc.mask_buf = NULL;
 676              		.loc 1 96 11 view .LVU213
 677 017c 002B     		cmp	r3, #0
 678 017e 30D0     		beq	.L57
  97:Drivers/lvgl/src/draw/sw/blend/lv_draw_sw_blend.c ****         else fill_dsc.mask_buf = blend_dsc->mask_buf;
ARM GAS  /tmp/ccoHqXX1.s 			page 21


 679              		.loc 1 97 14 is_stmt 1 view .LVU214
  97:Drivers/lvgl/src/draw/sw/blend/lv_draw_sw_blend.c ****         else fill_dsc.mask_buf = blend_dsc->mask_buf;
 680              		.loc 1 97 26 is_stmt 0 view .LVU215
 681 0180 227F     		ldrb	r2, [r4, #28]	@ zero_extendqisi2
  97:Drivers/lvgl/src/draw/sw/blend/lv_draw_sw_blend.c ****         else fill_dsc.mask_buf = blend_dsc->mask_buf;
 682              		.loc 1 97 16 view .LVU216
 683 0182 012A     		cmp	r2, #1
 684 0184 2FD0     		beq	.L58
  98:Drivers/lvgl/src/draw/sw/blend/lv_draw_sw_blend.c **** 
 685              		.loc 1 98 14 is_stmt 1 view .LVU217
  98:Drivers/lvgl/src/draw/sw/blend/lv_draw_sw_blend.c **** 
 686              		.loc 1 98 32 is_stmt 0 view .LVU218
 687 0186 0593     		str	r3, [sp, #20]
 688              	.L33:
 101:Drivers/lvgl/src/draw/sw/blend/lv_draw_sw_blend.c ****         lv_area_move(&fill_dsc.relative_area, -layer->buf_area.x1, -layer->buf_area.y1);
 689              		.loc 1 101 9 is_stmt 1 view .LVU219
 101:Drivers/lvgl/src/draw/sw/blend/lv_draw_sw_blend.c ****         lv_area_move(&fill_dsc.relative_area, -layer->buf_area.x1, -layer->buf_area.y1);
 690              		.loc 1 101 33 is_stmt 0 view .LVU220
 691 0188 08AD     		add	r5, sp, #32
 692 018a 16AB     		add	r3, sp, #88
 693 018c 13E90F00 		ldmdb	r3, {r0, r1, r2, r3}
 694 0190 85E80F00 		stm	r5, {r0, r1, r2, r3}
 102:Drivers/lvgl/src/draw/sw/blend/lv_draw_sw_blend.c ****         fill_dsc.dest_buf = lv_draw_layer_go_to_xy(layer, blend_area.x1 - layer->buf_area.x1,
 695              		.loc 1 102 9 is_stmt 1 view .LVU221
 102:Drivers/lvgl/src/draw/sw/blend/lv_draw_sw_blend.c ****         fill_dsc.dest_buf = lv_draw_layer_go_to_xy(layer, blend_area.x1 - layer->buf_area.x1,
 696              		.loc 1 102 63 is_stmt 0 view .LVU222
 697 0194 7168     		ldr	r1, [r6, #4]
 102:Drivers/lvgl/src/draw/sw/blend/lv_draw_sw_blend.c ****         fill_dsc.dest_buf = lv_draw_layer_go_to_xy(layer, blend_area.x1 - layer->buf_area.x1,
 698              		.loc 1 102 84 view .LVU223
 699 0196 B268     		ldr	r2, [r6, #8]
 102:Drivers/lvgl/src/draw/sw/blend/lv_draw_sw_blend.c ****         fill_dsc.dest_buf = lv_draw_layer_go_to_xy(layer, blend_area.x1 - layer->buf_area.x1,
 700              		.loc 1 102 9 view .LVU224
 701 0198 5242     		rsbs	r2, r2, #0
 702 019a 4942     		rsbs	r1, r1, #0
 703 019c 2846     		mov	r0, r5
 704 019e FFF7FEFF 		bl	lv_area_move
 705              	.LVL84:
 103:Drivers/lvgl/src/draw/sw/blend/lv_draw_sw_blend.c ****                                                    blend_area.y1 - layer->buf_area.y1);
 706              		.loc 1 103 9 is_stmt 1 view .LVU225
 103:Drivers/lvgl/src/draw/sw/blend/lv_draw_sw_blend.c ****                                                    blend_area.y1 - layer->buf_area.y1);
 707              		.loc 1 103 90 is_stmt 0 view .LVU226
 708 01a2 7368     		ldr	r3, [r6, #4]
 104:Drivers/lvgl/src/draw/sw/blend/lv_draw_sw_blend.c ****         if(fill_dsc.mask_buf) {
 709              		.loc 1 104 83 view .LVU227
 710 01a4 B268     		ldr	r2, [r6, #8]
 103:Drivers/lvgl/src/draw/sw/blend/lv_draw_sw_blend.c ****                                                    blend_area.y1 - layer->buf_area.y1);
 711              		.loc 1 103 29 view .LVU228
 712 01a6 1399     		ldr	r1, [sp, #76]
 713 01a8 8A1A     		subs	r2, r1, r2
 714 01aa 1299     		ldr	r1, [sp, #72]
 715 01ac C91A     		subs	r1, r1, r3
 716 01ae 3046     		mov	r0, r6
 717 01b0 FFF7FEFF 		bl	lv_draw_layer_go_to_xy
 718              	.LVL85:
 103:Drivers/lvgl/src/draw/sw/blend/lv_draw_sw_blend.c ****                                                    blend_area.y1 - layer->buf_area.y1);
 719              		.loc 1 103 27 discriminator 1 view .LVU229
 720 01b4 0190     		str	r0, [sp, #4]
ARM GAS  /tmp/ccoHqXX1.s 			page 22


 105:Drivers/lvgl/src/draw/sw/blend/lv_draw_sw_blend.c ****             fill_dsc.mask_stride = blend_dsc->mask_stride == 0  ? lv_area_get_width(blend_dsc->mask
 721              		.loc 1 105 9 is_stmt 1 view .LVU230
 105:Drivers/lvgl/src/draw/sw/blend/lv_draw_sw_blend.c ****             fill_dsc.mask_stride = blend_dsc->mask_stride == 0  ? lv_area_get_width(blend_dsc->mask
 722              		.loc 1 105 20 is_stmt 0 view .LVU231
 723 01b6 059B     		ldr	r3, [sp, #20]
 105:Drivers/lvgl/src/draw/sw/blend/lv_draw_sw_blend.c ****             fill_dsc.mask_stride = blend_dsc->mask_stride == 0  ? lv_area_get_width(blend_dsc->mask
 724              		.loc 1 105 11 view .LVU232
 725 01b8 73B1     		cbz	r3, .L35
 106:Drivers/lvgl/src/draw/sw/blend/lv_draw_sw_blend.c ****             fill_dsc.mask_buf += fill_dsc.mask_stride * (blend_area.y1 - blend_dsc->mask_area->y1) 
 726              		.loc 1 106 13 is_stmt 1 view .LVU233
 106:Drivers/lvgl/src/draw/sw/blend/lv_draw_sw_blend.c ****             fill_dsc.mask_buf += fill_dsc.mask_stride * (blend_area.y1 - blend_dsc->mask_area->y1) 
 727              		.loc 1 106 45 is_stmt 0 view .LVU234
 728 01ba 606A     		ldr	r0, [r4, #36]
 106:Drivers/lvgl/src/draw/sw/blend/lv_draw_sw_blend.c ****             fill_dsc.mask_buf += fill_dsc.mask_stride * (blend_area.y1 - blend_dsc->mask_area->y1) 
 729              		.loc 1 106 107 view .LVU235
 730 01bc B0B1     		cbz	r0, .L59
 731              	.L36:
 106:Drivers/lvgl/src/draw/sw/blend/lv_draw_sw_blend.c ****             fill_dsc.mask_buf += fill_dsc.mask_stride * (blend_area.y1 - blend_dsc->mask_area->y1) 
 732              		.loc 1 106 34 discriminator 4 view .LVU236
 733 01be 0690     		str	r0, [sp, #24]
 107:Drivers/lvgl/src/draw/sw/blend/lv_draw_sw_blend.c ****                                  (blend_area.x1 - blend_dsc->mask_area->x1);
 734              		.loc 1 107 13 is_stmt 1 view .LVU237
 107:Drivers/lvgl/src/draw/sw/blend/lv_draw_sw_blend.c ****                                  (blend_area.x1 - blend_dsc->mask_area->x1);
 735              		.loc 1 107 83 is_stmt 0 view .LVU238
 736 01c0 216A     		ldr	r1, [r4, #32]
 107:Drivers/lvgl/src/draw/sw/blend/lv_draw_sw_blend.c ****                                  (blend_area.x1 - blend_dsc->mask_area->x1);
 737              		.loc 1 107 94 view .LVU239
 738 01c2 4A68     		ldr	r2, [r1, #4]
 107:Drivers/lvgl/src/draw/sw/blend/lv_draw_sw_blend.c ****                                  (blend_area.x1 - blend_dsc->mask_area->x1);
 739              		.loc 1 107 72 view .LVU240
 740 01c4 139B     		ldr	r3, [sp, #76]
 741 01c6 9A1A     		subs	r2, r3, r2
 108:Drivers/lvgl/src/draw/sw/blend/lv_draw_sw_blend.c ****         }
 742              		.loc 1 108 71 view .LVU241
 743 01c8 0968     		ldr	r1, [r1]
 108:Drivers/lvgl/src/draw/sw/blend/lv_draw_sw_blend.c ****         }
 744              		.loc 1 108 49 view .LVU242
 745 01ca 129B     		ldr	r3, [sp, #72]
 746 01cc 5B1A     		subs	r3, r3, r1
 107:Drivers/lvgl/src/draw/sw/blend/lv_draw_sw_blend.c ****                                  (blend_area.x1 - blend_dsc->mask_area->x1);
 747              		.loc 1 107 100 view .LVU243
 748 01ce 00FB0233 		mla	r3, r0, r2, r3
 107:Drivers/lvgl/src/draw/sw/blend/lv_draw_sw_blend.c ****                                  (blend_area.x1 - blend_dsc->mask_area->x1);
 749              		.loc 1 107 31 view .LVU244
 750 01d2 059A     		ldr	r2, [sp, #20]
 751 01d4 1A44     		add	r2, r2, r3
 752 01d6 0592     		str	r2, [sp, #20]
 753              	.L35:
 111:Drivers/lvgl/src/draw/sw/blend/lv_draw_sw_blend.c ****     }
 754              		.loc 1 111 9 is_stmt 1 view .LVU245
 755 01d8 01A9     		add	r1, sp, #4
 756 01da 307D     		ldrb	r0, [r6, #20]	@ zero_extendqisi2
 757 01dc FFF7FEFF 		bl	lv_draw_sw_blend_color
 758              	.LVL86:
 759              	.LBE3:
 760 01e0 21E7     		b	.L27
 761              	.L57:
ARM GAS  /tmp/ccoHqXX1.s 			page 23


 762              	.LBB4:
  96:Drivers/lvgl/src/draw/sw/blend/lv_draw_sw_blend.c ****         else if(blend_dsc->mask_res == LV_DRAW_SW_MASK_RES_FULL_COVER) fill_dsc.mask_buf = NULL;
 763              		.loc 1 96 41 discriminator 1 view .LVU246
  96:Drivers/lvgl/src/draw/sw/blend/lv_draw_sw_blend.c ****         else if(blend_dsc->mask_res == LV_DRAW_SW_MASK_RES_FULL_COVER) fill_dsc.mask_buf = NULL;
 764              		.loc 1 96 59 is_stmt 0 discriminator 1 view .LVU247
 765 01e2 0593     		str	r3, [sp, #20]
 766 01e4 D0E7     		b	.L33
 767              	.L58:
  97:Drivers/lvgl/src/draw/sw/blend/lv_draw_sw_blend.c ****         else fill_dsc.mask_buf = blend_dsc->mask_buf;
 768              		.loc 1 97 72 is_stmt 1 discriminator 1 view .LVU248
  97:Drivers/lvgl/src/draw/sw/blend/lv_draw_sw_blend.c ****         else fill_dsc.mask_buf = blend_dsc->mask_buf;
 769              		.loc 1 97 90 is_stmt 0 discriminator 1 view .LVU249
 770 01e6 0023     		movs	r3, #0
 771 01e8 0593     		str	r3, [sp, #20]
 772 01ea CDE7     		b	.L33
 773              	.L59:
 106:Drivers/lvgl/src/draw/sw/blend/lv_draw_sw_blend.c ****             fill_dsc.mask_buf += fill_dsc.mask_stride * (blend_area.y1 - blend_dsc->mask_area->y1) 
 774              		.loc 1 106 67 discriminator 1 view .LVU250
 775 01ec 206A     		ldr	r0, [r4, #32]
 776 01ee FFF7FEFF 		bl	lv_area_get_width
 777              	.LVL87:
 778 01f2 E4E7     		b	.L36
 779              	.LVL88:
 780              	.L54:
 106:Drivers/lvgl/src/draw/sw/blend/lv_draw_sw_blend.c ****             fill_dsc.mask_buf += fill_dsc.mask_stride * (blend_area.y1 - blend_dsc->mask_area->y1) 
 781              		.loc 1 106 67 discriminator 1 view .LVU251
 782              	.LBE4:
 783              	.LBB5:
 141:Drivers/lvgl/src/draw/sw/blend/lv_draw_sw_blend.c ****         else if(blend_dsc->mask_res == LV_DRAW_SW_MASK_RES_FULL_COVER) image_dsc.mask_buf = NULL;
 784              		.loc 1 141 41 is_stmt 1 discriminator 1 view .LVU252
 141:Drivers/lvgl/src/draw/sw/blend/lv_draw_sw_blend.c ****         else if(blend_dsc->mask_res == LV_DRAW_SW_MASK_RES_FULL_COVER) image_dsc.mask_buf = NULL;
 785              		.loc 1 141 60 is_stmt 0 discriminator 1 view .LVU253
 786 01f4 0022     		movs	r2, #0
 787 01f6 0592     		str	r2, [sp, #20]
 788 01f8 69E7     		b	.L41
 789              	.L55:
 142:Drivers/lvgl/src/draw/sw/blend/lv_draw_sw_blend.c ****         else image_dsc.mask_buf = blend_dsc->mask_buf;
 790              		.loc 1 142 72 is_stmt 1 discriminator 1 view .LVU254
 142:Drivers/lvgl/src/draw/sw/blend/lv_draw_sw_blend.c ****         else image_dsc.mask_buf = blend_dsc->mask_buf;
 791              		.loc 1 142 91 is_stmt 0 discriminator 1 view .LVU255
 792 01fa 0022     		movs	r2, #0
 793 01fc 0592     		str	r2, [sp, #20]
 794 01fe 66E7     		b	.L41
 795              	.LVL89:
 796              	.L45:
 146:Drivers/lvgl/src/draw/sw/blend/lv_draw_sw_blend.c ****             image_dsc.mask_buf = blend_dsc->mask_buf;
 797              		.loc 1 146 13 is_stmt 1 discriminator 1 view .LVU256
 146:Drivers/lvgl/src/draw/sw/blend/lv_draw_sw_blend.c ****             image_dsc.mask_buf = blend_dsc->mask_buf;
 798              		.loc 1 146 13 discriminator 1 view .LVU257
 146:Drivers/lvgl/src/draw/sw/blend/lv_draw_sw_blend.c ****             image_dsc.mask_buf = blend_dsc->mask_buf;
 799              		.loc 1 146 13 discriminator 1 view .LVU258
 146:Drivers/lvgl/src/draw/sw/blend/lv_draw_sw_blend.c ****             image_dsc.mask_buf = blend_dsc->mask_buf;
 800              		.loc 1 146 13 discriminator 1 view .LVU259
 146:Drivers/lvgl/src/draw/sw/blend/lv_draw_sw_blend.c ****             image_dsc.mask_buf = blend_dsc->mask_buf;
 801              		.loc 1 146 13 discriminator 1 view .LVU260
 802 0200 FEE7     		b	.L45
 803              	.L56:
ARM GAS  /tmp/ccoHqXX1.s 			page 24


 148:Drivers/lvgl/src/draw/sw/blend/lv_draw_sw_blend.c ****             image_dsc.mask_buf += image_dsc.mask_stride * (blend_area.y1 - blend_dsc->mask_area->y1
 804              		.loc 1 148 87 is_stmt 0 discriminator 2 view .LVU261
 805 0202 FFF7FEFF 		bl	lv_area_get_width
 806              	.LVL90:
 807 0206 0246     		mov	r2, r0
 808 0208 6CE7     		b	.L46
 809              	.LVL91:
 810              	.L49:
 811              	.LCFI6:
 812              		.cfi_def_cfa_offset 0
 813              		.cfi_restore 4
 814              		.cfi_restore 5
 815              		.cfi_restore 6
 816              		.cfi_restore 7
 817              		.cfi_restore 14
 148:Drivers/lvgl/src/draw/sw/blend/lv_draw_sw_blend.c ****             image_dsc.mask_buf += image_dsc.mask_stride * (blend_area.y1 - blend_dsc->mask_area->y1
 818              		.loc 1 148 87 discriminator 2 view .LVU262
 819 020a 7047     		bx	lr
 820              	.LBE5:
 821              		.cfi_endproc
 822              	.LFE40:
 824              		.text
 825              	.Letext0:
 826              		.file 2 "/usr/arm-none-eabi/include/machine/_default_types.h"
 827              		.file 3 "/usr/arm-none-eabi/include/sys/_stdint.h"
 828              		.file 4 "Drivers/lvgl/src/draw/sw/blend/../../../misc/lv_types.h"
 829              		.file 5 "Drivers/lvgl/src/draw/sw/blend/../../lv_draw.h"
 830              		.file 6 "Drivers/lvgl/src/draw/sw/blend/../../lv_draw_private.h"
 831              		.file 7 "Drivers/lvgl/src/draw/sw/blend/lv_draw_sw_blend_private.h"
 832              		.file 8 "Drivers/lvgl/src/draw/sw/blend/../../../misc/../font/../draw/lv_draw_buf.h"
 833              		.file 9 "Drivers/lvgl/src/draw/sw/blend/../../../misc/lv_area.h"
 834              		.file 10 "Drivers/lvgl/src/draw/sw/blend/../../../misc/lv_color.h"
 835              		.file 11 "Drivers/lvgl/src/draw/sw/blend/../lv_draw_sw_mask.h"
 836              		.file 12 "Drivers/lvgl/src/draw/sw/blend/../../../misc/../font/../draw/lv_image_dsc.h"
 837              		.file 13 "Drivers/lvgl/src/draw/sw/blend/../../../misc/lv_style.h"
 838              		.file 14 "Drivers/lvgl/src/draw/sw/blend/lv_draw_sw_blend.h"
 839              		.file 15 "Drivers/lvgl/src/draw/sw/blend/lv_draw_sw_blend_to_i1.h"
 840              		.file 16 "Drivers/lvgl/src/draw/sw/blend/lv_draw_sw_blend_to_al88.h"
 841              		.file 17 "Drivers/lvgl/src/draw/sw/blend/lv_draw_sw_blend_to_l8.h"
 842              		.file 18 "Drivers/lvgl/src/draw/sw/blend/lv_draw_sw_blend_to_argb8888_premultiplied.h"
 843              		.file 19 "Drivers/lvgl/src/draw/sw/blend/lv_draw_sw_blend_to_rgb888.h"
 844              		.file 20 "Drivers/lvgl/src/draw/sw/blend/lv_draw_sw_blend_to_argb8888.h"
 845              		.file 21 "Drivers/lvgl/src/draw/sw/blend/lv_draw_sw_blend_to_rgb565.h"
 846              		.file 22 "Drivers/lvgl/src/draw/sw/blend/../lv_draw_sw.h"
 847              		.file 23 "Drivers/lvgl/src/draw/sw/blend/../../../misc/lv_area_private.h"
ARM GAS  /tmp/ccoHqXX1.s 			page 25

