ARM GAS  /tmp/ccARp3x3.s 			page 1


   1              		.cpu cortex-m7
   2              		.arch armv7e-m
   3              		.fpu fpv5-sp-d16
   4              		.eabi_attribute 27, 1
   5              		.eabi_attribute 28, 1
   6              		.eabi_attribute 20, 1
   7              		.eabi_attribute 21, 1
   8              		.eabi_attribute 23, 3
   9              		.eabi_attribute 24, 1
  10              		.eabi_attribute 25, 1
  11              		.eabi_attribute 26, 1
  12              		.eabi_attribute 30, 1
  13              		.eabi_attribute 34, 1
  14              		.eabi_attribute 18, 4
  15              		.file	"lv_draw_sw.c"
  16              		.text
  17              	.Ltext0:
  18              		.cfi_sections	.debug_frame
  19              		.file 1 "Drivers/lvgl/src/draw/sw/lv_draw_sw.c"
  20              		.section	.text.evaluate,"ax",%progbits
  21              		.align	1
  22              		.syntax unified
  23              		.thumb
  24              		.thumb_func
  26              	evaluate:
  27              	.LVL0:
  28              	.LFB192:
   1:Drivers/lvgl/src/draw/sw/lv_draw_sw.c **** /**
   2:Drivers/lvgl/src/draw/sw/lv_draw_sw.c ****  * @file lv_draw_sw.c
   3:Drivers/lvgl/src/draw/sw/lv_draw_sw.c ****  *
   4:Drivers/lvgl/src/draw/sw/lv_draw_sw.c ****  */
   5:Drivers/lvgl/src/draw/sw/lv_draw_sw.c **** 
   6:Drivers/lvgl/src/draw/sw/lv_draw_sw.c **** /*********************
   7:Drivers/lvgl/src/draw/sw/lv_draw_sw.c ****  *      INCLUDES
   8:Drivers/lvgl/src/draw/sw/lv_draw_sw.c ****  *********************/
   9:Drivers/lvgl/src/draw/sw/lv_draw_sw.c **** #include "lv_draw_sw_private.h"
  10:Drivers/lvgl/src/draw/sw/lv_draw_sw.c **** #include "../lv_draw_private.h"
  11:Drivers/lvgl/src/draw/sw/lv_draw_sw.c **** #if LV_USE_DRAW_SW
  12:Drivers/lvgl/src/draw/sw/lv_draw_sw.c **** 
  13:Drivers/lvgl/src/draw/sw/lv_draw_sw.c **** #include "../../core/lv_refr.h"
  14:Drivers/lvgl/src/draw/sw/lv_draw_sw.c **** #include "../../display/lv_display_private.h"
  15:Drivers/lvgl/src/draw/sw/lv_draw_sw.c **** #include "../../stdlib/lv_string.h"
  16:Drivers/lvgl/src/draw/sw/lv_draw_sw.c **** #include "../../core/lv_global.h"
  17:Drivers/lvgl/src/draw/sw/lv_draw_sw.c **** 
  18:Drivers/lvgl/src/draw/sw/lv_draw_sw.c **** #if LV_USE_VECTOR_GRAPHIC && LV_USE_THORVG
  19:Drivers/lvgl/src/draw/sw/lv_draw_sw.c ****     #if LV_USE_THORVG_EXTERNAL
  20:Drivers/lvgl/src/draw/sw/lv_draw_sw.c ****         #include <thorvg_capi.h>
  21:Drivers/lvgl/src/draw/sw/lv_draw_sw.c ****     #else
  22:Drivers/lvgl/src/draw/sw/lv_draw_sw.c ****         #include "../../libs/thorvg/thorvg_capi.h"
  23:Drivers/lvgl/src/draw/sw/lv_draw_sw.c ****     #endif
  24:Drivers/lvgl/src/draw/sw/lv_draw_sw.c **** #endif
  25:Drivers/lvgl/src/draw/sw/lv_draw_sw.c **** 
  26:Drivers/lvgl/src/draw/sw/lv_draw_sw.c **** #if LV_USE_DRAW_SW_ASM == LV_DRAW_SW_ASM_HELIUM
  27:Drivers/lvgl/src/draw/sw/lv_draw_sw.c ****     #include "arm2d/lv_draw_sw_helium.h"
  28:Drivers/lvgl/src/draw/sw/lv_draw_sw.c **** #elif LV_USE_DRAW_SW_ASM == LV_DRAW_SW_ASM_CUSTOM
  29:Drivers/lvgl/src/draw/sw/lv_draw_sw.c ****     #include LV_DRAW_SW_ASM_CUSTOM_INCLUDE
  30:Drivers/lvgl/src/draw/sw/lv_draw_sw.c **** #endif
ARM GAS  /tmp/ccARp3x3.s 			page 2


  31:Drivers/lvgl/src/draw/sw/lv_draw_sw.c **** 
  32:Drivers/lvgl/src/draw/sw/lv_draw_sw.c **** #if LV_DRAW_SW_DRAW_UNIT_CNT > 1 && LV_USE_OS == LV_OS_NONE
  33:Drivers/lvgl/src/draw/sw/lv_draw_sw.c ****     #error "OS support is required when more than one SW rendering units are enabled"
  34:Drivers/lvgl/src/draw/sw/lv_draw_sw.c **** #endif
  35:Drivers/lvgl/src/draw/sw/lv_draw_sw.c **** 
  36:Drivers/lvgl/src/draw/sw/lv_draw_sw.c **** /*********************
  37:Drivers/lvgl/src/draw/sw/lv_draw_sw.c ****  *      DEFINES
  38:Drivers/lvgl/src/draw/sw/lv_draw_sw.c ****  *********************/
  39:Drivers/lvgl/src/draw/sw/lv_draw_sw.c **** #define DRAW_UNIT_ID_SW     1
  40:Drivers/lvgl/src/draw/sw/lv_draw_sw.c **** 
  41:Drivers/lvgl/src/draw/sw/lv_draw_sw.c **** /**********************
  42:Drivers/lvgl/src/draw/sw/lv_draw_sw.c ****  *      TYPEDEFS
  43:Drivers/lvgl/src/draw/sw/lv_draw_sw.c ****  **********************/
  44:Drivers/lvgl/src/draw/sw/lv_draw_sw.c **** 
  45:Drivers/lvgl/src/draw/sw/lv_draw_sw.c **** /**********************
  46:Drivers/lvgl/src/draw/sw/lv_draw_sw.c ****  *  STATIC PROTOTYPES
  47:Drivers/lvgl/src/draw/sw/lv_draw_sw.c ****  **********************/
  48:Drivers/lvgl/src/draw/sw/lv_draw_sw.c **** #if LV_USE_OS
  49:Drivers/lvgl/src/draw/sw/lv_draw_sw.c ****     static void render_thread_cb(void * ptr);
  50:Drivers/lvgl/src/draw/sw/lv_draw_sw.c **** #endif
  51:Drivers/lvgl/src/draw/sw/lv_draw_sw.c **** 
  52:Drivers/lvgl/src/draw/sw/lv_draw_sw.c **** static void execute_drawing(lv_draw_task_t * t);
  53:Drivers/lvgl/src/draw/sw/lv_draw_sw.c **** 
  54:Drivers/lvgl/src/draw/sw/lv_draw_sw.c **** static int32_t dispatch(lv_draw_unit_t * draw_unit, lv_layer_t * layer);
  55:Drivers/lvgl/src/draw/sw/lv_draw_sw.c **** static int32_t evaluate(lv_draw_unit_t * draw_unit, lv_draw_task_t * task);
  56:Drivers/lvgl/src/draw/sw/lv_draw_sw.c **** static int32_t lv_draw_sw_delete(lv_draw_unit_t * draw_unit);
  57:Drivers/lvgl/src/draw/sw/lv_draw_sw.c **** #if LV_USE_PARALLEL_DRAW_DEBUG
  58:Drivers/lvgl/src/draw/sw/lv_draw_sw.c ****     static void parallel_debug_draw(lv_draw_task_t * t, uint32_t idx);
  59:Drivers/lvgl/src/draw/sw/lv_draw_sw.c **** #endif
  60:Drivers/lvgl/src/draw/sw/lv_draw_sw.c **** 
  61:Drivers/lvgl/src/draw/sw/lv_draw_sw.c **** /**********************
  62:Drivers/lvgl/src/draw/sw/lv_draw_sw.c ****  *  STATIC VARIABLES
  63:Drivers/lvgl/src/draw/sw/lv_draw_sw.c ****  **********************/
  64:Drivers/lvgl/src/draw/sw/lv_draw_sw.c **** #define _draw_info LV_GLOBAL_DEFAULT()->draw_info
  65:Drivers/lvgl/src/draw/sw/lv_draw_sw.c **** 
  66:Drivers/lvgl/src/draw/sw/lv_draw_sw.c **** /**********************
  67:Drivers/lvgl/src/draw/sw/lv_draw_sw.c ****  *      MACROS
  68:Drivers/lvgl/src/draw/sw/lv_draw_sw.c ****  **********************/
  69:Drivers/lvgl/src/draw/sw/lv_draw_sw.c **** 
  70:Drivers/lvgl/src/draw/sw/lv_draw_sw.c **** /**********************
  71:Drivers/lvgl/src/draw/sw/lv_draw_sw.c ****  *   GLOBAL FUNCTIONS
  72:Drivers/lvgl/src/draw/sw/lv_draw_sw.c ****  **********************/
  73:Drivers/lvgl/src/draw/sw/lv_draw_sw.c **** 
  74:Drivers/lvgl/src/draw/sw/lv_draw_sw.c **** void lv_draw_sw_init(void)
  75:Drivers/lvgl/src/draw/sw/lv_draw_sw.c **** {
  76:Drivers/lvgl/src/draw/sw/lv_draw_sw.c **** 
  77:Drivers/lvgl/src/draw/sw/lv_draw_sw.c **** #if LV_DRAW_SW_COMPLEX == 1
  78:Drivers/lvgl/src/draw/sw/lv_draw_sw.c ****     lv_draw_sw_mask_init();
  79:Drivers/lvgl/src/draw/sw/lv_draw_sw.c **** #endif
  80:Drivers/lvgl/src/draw/sw/lv_draw_sw.c **** 
  81:Drivers/lvgl/src/draw/sw/lv_draw_sw.c ****     lv_draw_sw_unit_t * draw_sw_unit = lv_draw_create_unit(sizeof(lv_draw_sw_unit_t));
  82:Drivers/lvgl/src/draw/sw/lv_draw_sw.c ****     draw_sw_unit->base_unit.dispatch_cb = dispatch;
  83:Drivers/lvgl/src/draw/sw/lv_draw_sw.c ****     draw_sw_unit->base_unit.evaluate_cb = evaluate;
  84:Drivers/lvgl/src/draw/sw/lv_draw_sw.c ****     draw_sw_unit->base_unit.delete_cb = LV_USE_OS ? lv_draw_sw_delete : NULL;
  85:Drivers/lvgl/src/draw/sw/lv_draw_sw.c ****     draw_sw_unit->base_unit.name = "SW";
  86:Drivers/lvgl/src/draw/sw/lv_draw_sw.c **** 
  87:Drivers/lvgl/src/draw/sw/lv_draw_sw.c **** #if LV_USE_OS
ARM GAS  /tmp/ccARp3x3.s 			page 3


  88:Drivers/lvgl/src/draw/sw/lv_draw_sw.c ****     uint32_t i;
  89:Drivers/lvgl/src/draw/sw/lv_draw_sw.c ****     for(i = 0; i < LV_DRAW_SW_DRAW_UNIT_CNT; i++) {
  90:Drivers/lvgl/src/draw/sw/lv_draw_sw.c ****         lv_draw_sw_thread_dsc_t * thread_dsc = &draw_sw_unit->thread_dscs[i];
  91:Drivers/lvgl/src/draw/sw/lv_draw_sw.c ****         thread_dsc->idx = i;
  92:Drivers/lvgl/src/draw/sw/lv_draw_sw.c ****         thread_dsc->draw_unit = (void *) draw_sw_unit;
  93:Drivers/lvgl/src/draw/sw/lv_draw_sw.c ****         lv_thread_init(&thread_dsc->thread, "swdraw", LV_THREAD_PRIO_HIGH, render_thread_cb,
  94:Drivers/lvgl/src/draw/sw/lv_draw_sw.c ****                        LV_DRAW_THREAD_STACK_SIZE, thread_dsc);
  95:Drivers/lvgl/src/draw/sw/lv_draw_sw.c ****     }
  96:Drivers/lvgl/src/draw/sw/lv_draw_sw.c **** #endif
  97:Drivers/lvgl/src/draw/sw/lv_draw_sw.c **** 
  98:Drivers/lvgl/src/draw/sw/lv_draw_sw.c **** #if LV_USE_VECTOR_GRAPHIC && LV_USE_THORVG
  99:Drivers/lvgl/src/draw/sw/lv_draw_sw.c ****     if(LV_DRAW_SW_DRAW_UNIT_CNT > 1) {
 100:Drivers/lvgl/src/draw/sw/lv_draw_sw.c ****         tvg_engine_init(TVG_ENGINE_SW, LV_DRAW_SW_DRAW_UNIT_CNT);
 101:Drivers/lvgl/src/draw/sw/lv_draw_sw.c ****     }
 102:Drivers/lvgl/src/draw/sw/lv_draw_sw.c ****     else {
 103:Drivers/lvgl/src/draw/sw/lv_draw_sw.c ****         tvg_engine_init(TVG_ENGINE_SW, 0);
 104:Drivers/lvgl/src/draw/sw/lv_draw_sw.c ****     }
 105:Drivers/lvgl/src/draw/sw/lv_draw_sw.c **** #endif
 106:Drivers/lvgl/src/draw/sw/lv_draw_sw.c **** 
 107:Drivers/lvgl/src/draw/sw/lv_draw_sw.c ****     lv_ll_init(&LV_GLOBAL_DEFAULT()->draw_sw_blend_handler_ll, sizeof(lv_draw_sw_custom_blend_handl
 108:Drivers/lvgl/src/draw/sw/lv_draw_sw.c **** }
 109:Drivers/lvgl/src/draw/sw/lv_draw_sw.c **** 
 110:Drivers/lvgl/src/draw/sw/lv_draw_sw.c **** void lv_draw_sw_deinit(void)
 111:Drivers/lvgl/src/draw/sw/lv_draw_sw.c **** {
 112:Drivers/lvgl/src/draw/sw/lv_draw_sw.c **** #if LV_USE_VECTOR_GRAPHIC && LV_USE_THORVG
 113:Drivers/lvgl/src/draw/sw/lv_draw_sw.c ****     tvg_engine_term(TVG_ENGINE_SW);
 114:Drivers/lvgl/src/draw/sw/lv_draw_sw.c **** #endif
 115:Drivers/lvgl/src/draw/sw/lv_draw_sw.c **** 
 116:Drivers/lvgl/src/draw/sw/lv_draw_sw.c **** #if LV_DRAW_SW_COMPLEX == 1
 117:Drivers/lvgl/src/draw/sw/lv_draw_sw.c ****     lv_draw_sw_mask_deinit();
 118:Drivers/lvgl/src/draw/sw/lv_draw_sw.c **** #endif
 119:Drivers/lvgl/src/draw/sw/lv_draw_sw.c **** }
 120:Drivers/lvgl/src/draw/sw/lv_draw_sw.c **** 
 121:Drivers/lvgl/src/draw/sw/lv_draw_sw.c **** static int32_t lv_draw_sw_delete(lv_draw_unit_t * draw_unit)
 122:Drivers/lvgl/src/draw/sw/lv_draw_sw.c **** {
 123:Drivers/lvgl/src/draw/sw/lv_draw_sw.c **** #if LV_USE_OS
 124:Drivers/lvgl/src/draw/sw/lv_draw_sw.c ****     lv_draw_sw_unit_t * draw_sw_unit = (lv_draw_sw_unit_t *) draw_unit;
 125:Drivers/lvgl/src/draw/sw/lv_draw_sw.c **** 
 126:Drivers/lvgl/src/draw/sw/lv_draw_sw.c ****     uint32_t i;
 127:Drivers/lvgl/src/draw/sw/lv_draw_sw.c ****     for(i = 0; i < LV_DRAW_SW_DRAW_UNIT_CNT; i++) {
 128:Drivers/lvgl/src/draw/sw/lv_draw_sw.c ****         lv_draw_sw_thread_dsc_t * thread_dsc = &draw_sw_unit->thread_dscs[i];
 129:Drivers/lvgl/src/draw/sw/lv_draw_sw.c **** 
 130:Drivers/lvgl/src/draw/sw/lv_draw_sw.c ****         LV_LOG_INFO("cancel software rendering thread");
 131:Drivers/lvgl/src/draw/sw/lv_draw_sw.c ****         thread_dsc->exit_status = true;
 132:Drivers/lvgl/src/draw/sw/lv_draw_sw.c **** 
 133:Drivers/lvgl/src/draw/sw/lv_draw_sw.c ****         if(thread_dsc->inited) {
 134:Drivers/lvgl/src/draw/sw/lv_draw_sw.c ****             lv_thread_sync_signal(&thread_dsc->sync);
 135:Drivers/lvgl/src/draw/sw/lv_draw_sw.c ****         }
 136:Drivers/lvgl/src/draw/sw/lv_draw_sw.c ****         lv_thread_delete(&thread_dsc->thread);
 137:Drivers/lvgl/src/draw/sw/lv_draw_sw.c ****     }
 138:Drivers/lvgl/src/draw/sw/lv_draw_sw.c **** 
 139:Drivers/lvgl/src/draw/sw/lv_draw_sw.c ****     return 0;
 140:Drivers/lvgl/src/draw/sw/lv_draw_sw.c **** #else
 141:Drivers/lvgl/src/draw/sw/lv_draw_sw.c ****     LV_UNUSED(draw_unit);
 142:Drivers/lvgl/src/draw/sw/lv_draw_sw.c ****     return 0;
 143:Drivers/lvgl/src/draw/sw/lv_draw_sw.c **** #endif
 144:Drivers/lvgl/src/draw/sw/lv_draw_sw.c **** }
ARM GAS  /tmp/ccARp3x3.s 			page 4


 145:Drivers/lvgl/src/draw/sw/lv_draw_sw.c **** 
 146:Drivers/lvgl/src/draw/sw/lv_draw_sw.c **** bool lv_draw_sw_register_blend_handler(lv_draw_sw_custom_blend_handler_t * handler)
 147:Drivers/lvgl/src/draw/sw/lv_draw_sw.c **** {
 148:Drivers/lvgl/src/draw/sw/lv_draw_sw.c ****     lv_draw_sw_custom_blend_handler_t * existing_handler = NULL;
 149:Drivers/lvgl/src/draw/sw/lv_draw_sw.c ****     lv_draw_sw_custom_blend_handler_t * new_handler = NULL;
 150:Drivers/lvgl/src/draw/sw/lv_draw_sw.c **** 
 151:Drivers/lvgl/src/draw/sw/lv_draw_sw.c ****     // Check if a handler is already registered for the color format
 152:Drivers/lvgl/src/draw/sw/lv_draw_sw.c ****     LV_LL_READ(&LV_GLOBAL_DEFAULT()->draw_sw_blend_handler_ll, existing_handler) {
 153:Drivers/lvgl/src/draw/sw/lv_draw_sw.c ****         if(existing_handler->dest_cf == handler->dest_cf) {
 154:Drivers/lvgl/src/draw/sw/lv_draw_sw.c ****             new_handler = existing_handler;
 155:Drivers/lvgl/src/draw/sw/lv_draw_sw.c ****             break;
 156:Drivers/lvgl/src/draw/sw/lv_draw_sw.c ****         }
 157:Drivers/lvgl/src/draw/sw/lv_draw_sw.c ****     }
 158:Drivers/lvgl/src/draw/sw/lv_draw_sw.c **** 
 159:Drivers/lvgl/src/draw/sw/lv_draw_sw.c ****     if(new_handler == NULL) {
 160:Drivers/lvgl/src/draw/sw/lv_draw_sw.c ****         new_handler = lv_ll_ins_head(&LV_GLOBAL_DEFAULT()->draw_sw_blend_handler_ll);
 161:Drivers/lvgl/src/draw/sw/lv_draw_sw.c ****         if(new_handler == NULL) {
 162:Drivers/lvgl/src/draw/sw/lv_draw_sw.c ****             LV_ASSERT_MALLOC(new_handler);
 163:Drivers/lvgl/src/draw/sw/lv_draw_sw.c ****             return false;
 164:Drivers/lvgl/src/draw/sw/lv_draw_sw.c ****         }
 165:Drivers/lvgl/src/draw/sw/lv_draw_sw.c ****     }
 166:Drivers/lvgl/src/draw/sw/lv_draw_sw.c **** 
 167:Drivers/lvgl/src/draw/sw/lv_draw_sw.c ****     lv_memcpy(new_handler, handler, sizeof(lv_draw_sw_custom_blend_handler_t));
 168:Drivers/lvgl/src/draw/sw/lv_draw_sw.c ****     return true;
 169:Drivers/lvgl/src/draw/sw/lv_draw_sw.c **** }
 170:Drivers/lvgl/src/draw/sw/lv_draw_sw.c **** 
 171:Drivers/lvgl/src/draw/sw/lv_draw_sw.c **** bool lv_draw_sw_unregister_blend_handler(lv_color_format_t dest_cf)
 172:Drivers/lvgl/src/draw/sw/lv_draw_sw.c **** {
 173:Drivers/lvgl/src/draw/sw/lv_draw_sw.c ****     lv_draw_sw_custom_blend_handler_t * handler;
 174:Drivers/lvgl/src/draw/sw/lv_draw_sw.c **** 
 175:Drivers/lvgl/src/draw/sw/lv_draw_sw.c ****     LV_LL_READ(&LV_GLOBAL_DEFAULT()->draw_sw_blend_handler_ll, handler) {
 176:Drivers/lvgl/src/draw/sw/lv_draw_sw.c ****         if(handler->dest_cf == dest_cf) {
 177:Drivers/lvgl/src/draw/sw/lv_draw_sw.c ****             lv_ll_remove(&LV_GLOBAL_DEFAULT()->draw_sw_blend_handler_ll, handler);
 178:Drivers/lvgl/src/draw/sw/lv_draw_sw.c ****             lv_free(handler);
 179:Drivers/lvgl/src/draw/sw/lv_draw_sw.c ****             return true;
 180:Drivers/lvgl/src/draw/sw/lv_draw_sw.c ****         }
 181:Drivers/lvgl/src/draw/sw/lv_draw_sw.c ****     }
 182:Drivers/lvgl/src/draw/sw/lv_draw_sw.c **** 
 183:Drivers/lvgl/src/draw/sw/lv_draw_sw.c ****     return false;
 184:Drivers/lvgl/src/draw/sw/lv_draw_sw.c **** }
 185:Drivers/lvgl/src/draw/sw/lv_draw_sw.c **** 
 186:Drivers/lvgl/src/draw/sw/lv_draw_sw.c **** lv_draw_sw_blend_handler_t lv_draw_sw_get_blend_handler(lv_color_format_t dest_cf)
 187:Drivers/lvgl/src/draw/sw/lv_draw_sw.c **** {
 188:Drivers/lvgl/src/draw/sw/lv_draw_sw.c ****     lv_draw_sw_custom_blend_handler_t * handler;
 189:Drivers/lvgl/src/draw/sw/lv_draw_sw.c **** 
 190:Drivers/lvgl/src/draw/sw/lv_draw_sw.c ****     LV_LL_READ(&LV_GLOBAL_DEFAULT()->draw_sw_blend_handler_ll, handler) {
 191:Drivers/lvgl/src/draw/sw/lv_draw_sw.c ****         if(handler->dest_cf == dest_cf) {
 192:Drivers/lvgl/src/draw/sw/lv_draw_sw.c ****             return handler->handler;
 193:Drivers/lvgl/src/draw/sw/lv_draw_sw.c ****         }
 194:Drivers/lvgl/src/draw/sw/lv_draw_sw.c ****     }
 195:Drivers/lvgl/src/draw/sw/lv_draw_sw.c **** 
 196:Drivers/lvgl/src/draw/sw/lv_draw_sw.c ****     return NULL;
 197:Drivers/lvgl/src/draw/sw/lv_draw_sw.c **** }
 198:Drivers/lvgl/src/draw/sw/lv_draw_sw.c **** 
 199:Drivers/lvgl/src/draw/sw/lv_draw_sw.c **** /**********************
 200:Drivers/lvgl/src/draw/sw/lv_draw_sw.c ****  *   STATIC FUNCTIONS
 201:Drivers/lvgl/src/draw/sw/lv_draw_sw.c ****  **********************/
ARM GAS  /tmp/ccARp3x3.s 			page 5


 202:Drivers/lvgl/src/draw/sw/lv_draw_sw.c **** 
 203:Drivers/lvgl/src/draw/sw/lv_draw_sw.c **** static int32_t evaluate(lv_draw_unit_t * draw_unit, lv_draw_task_t * task)
 204:Drivers/lvgl/src/draw/sw/lv_draw_sw.c **** {
  29              		.loc 1 204 1 view -0
  30              		.cfi_startproc
  31              		@ args = 0, pretend = 0, frame = 0
  32              		@ frame_needed = 0, uses_anonymous_args = 0
  33              		@ link register save eliminated.
 205:Drivers/lvgl/src/draw/sw/lv_draw_sw.c ****     LV_UNUSED(draw_unit);
  34              		.loc 1 205 5 view .LVU1
 206:Drivers/lvgl/src/draw/sw/lv_draw_sw.c **** 
 207:Drivers/lvgl/src/draw/sw/lv_draw_sw.c ****     switch(task->type) {
  35              		.loc 1 207 5 view .LVU2
  36              		.loc 1 207 16 is_stmt 0 view .LVU3
  37 0000 0B79     		ldrb	r3, [r1, #4]	@ zero_extendqisi2
  38              		.loc 1 207 5 view .LVU4
  39 0002 063B     		subs	r3, r3, #6
  40 0004 012B     		cmp	r3, #1
  41 0006 0BD9     		bls	.L5
  42              	.L2:
 208:Drivers/lvgl/src/draw/sw/lv_draw_sw.c ****         case LV_DRAW_TASK_TYPE_IMAGE:
 209:Drivers/lvgl/src/draw/sw/lv_draw_sw.c ****         case LV_DRAW_TASK_TYPE_LAYER: {
 210:Drivers/lvgl/src/draw/sw/lv_draw_sw.c ****                 lv_draw_image_dsc_t * draw_dsc = task->draw_dsc;
 211:Drivers/lvgl/src/draw/sw/lv_draw_sw.c **** 
 212:Drivers/lvgl/src/draw/sw/lv_draw_sw.c ****                 /* not support skew */
 213:Drivers/lvgl/src/draw/sw/lv_draw_sw.c ****                 if(draw_dsc->skew_x != 0 || draw_dsc->skew_y != 0) {
 214:Drivers/lvgl/src/draw/sw/lv_draw_sw.c ****                     return 0;
 215:Drivers/lvgl/src/draw/sw/lv_draw_sw.c ****                 }
 216:Drivers/lvgl/src/draw/sw/lv_draw_sw.c **** 
 217:Drivers/lvgl/src/draw/sw/lv_draw_sw.c ****                 bool masked = draw_dsc->bitmap_mask_src != NULL;
 218:Drivers/lvgl/src/draw/sw/lv_draw_sw.c **** 
 219:Drivers/lvgl/src/draw/sw/lv_draw_sw.c ****                 lv_color_format_t cf = draw_dsc->header.cf;
 220:Drivers/lvgl/src/draw/sw/lv_draw_sw.c ****                 if(masked && (cf == LV_COLOR_FORMAT_A8 || cf == LV_COLOR_FORMAT_RGB565A8)) {
 221:Drivers/lvgl/src/draw/sw/lv_draw_sw.c ****                     return 0;
 222:Drivers/lvgl/src/draw/sw/lv_draw_sw.c ****                 }
 223:Drivers/lvgl/src/draw/sw/lv_draw_sw.c **** 
 224:Drivers/lvgl/src/draw/sw/lv_draw_sw.c ****                 if(cf >= LV_COLOR_FORMAT_PROPRIETARY_START) {
 225:Drivers/lvgl/src/draw/sw/lv_draw_sw.c ****                     return 0;
 226:Drivers/lvgl/src/draw/sw/lv_draw_sw.c ****                 }
 227:Drivers/lvgl/src/draw/sw/lv_draw_sw.c ****             }
 228:Drivers/lvgl/src/draw/sw/lv_draw_sw.c ****             break;
 229:Drivers/lvgl/src/draw/sw/lv_draw_sw.c ****         default:
 230:Drivers/lvgl/src/draw/sw/lv_draw_sw.c ****             break;
 231:Drivers/lvgl/src/draw/sw/lv_draw_sw.c ****     }
 232:Drivers/lvgl/src/draw/sw/lv_draw_sw.c **** 
 233:Drivers/lvgl/src/draw/sw/lv_draw_sw.c ****     if(task->preference_score >= 100) {
  43              		.loc 1 233 5 is_stmt 1 view .LVU5
  44              		.loc 1 233 12 is_stmt 0 view .LVU6
  45 0008 91F85930 		ldrb	r3, [r1, #89]	@ zero_extendqisi2
  46              		.loc 1 233 7 view .LVU7
  47 000c 632B     		cmp	r3, #99
  48 000e 05D9     		bls	.L3
 234:Drivers/lvgl/src/draw/sw/lv_draw_sw.c ****         task->preference_score = 100;
  49              		.loc 1 234 9 is_stmt 1 view .LVU8
  50              		.loc 1 234 32 is_stmt 0 view .LVU9
  51 0010 6423     		movs	r3, #100
  52 0012 81F85930 		strb	r3, [r1, #89]
ARM GAS  /tmp/ccARp3x3.s 			page 6


 235:Drivers/lvgl/src/draw/sw/lv_draw_sw.c ****         task->preferred_draw_unit_id = DRAW_UNIT_ID_SW;
  53              		.loc 1 235 9 is_stmt 1 view .LVU10
  54              		.loc 1 235 38 is_stmt 0 view .LVU11
  55 0016 0123     		movs	r3, #1
  56 0018 81F85830 		strb	r3, [r1, #88]
  57              	.L3:
 236:Drivers/lvgl/src/draw/sw/lv_draw_sw.c ****     }
 237:Drivers/lvgl/src/draw/sw/lv_draw_sw.c **** 
 238:Drivers/lvgl/src/draw/sw/lv_draw_sw.c ****     return 0;
 239:Drivers/lvgl/src/draw/sw/lv_draw_sw.c **** }
  58              		.loc 1 239 1 view .LVU12
  59 001c 0020     		movs	r0, #0
  60              	.LVL1:
  61              		.loc 1 239 1 view .LVU13
  62 001e 7047     		bx	lr
  63              	.LVL2:
  64              	.L5:
  65              	.LBB2:
 210:Drivers/lvgl/src/draw/sw/lv_draw_sw.c **** 
  66              		.loc 1 210 17 is_stmt 1 view .LVU14
 210:Drivers/lvgl/src/draw/sw/lv_draw_sw.c **** 
  67              		.loc 1 210 39 is_stmt 0 view .LVU15
  68 0020 4B6D     		ldr	r3, [r1, #84]
  69              	.LVL3:
 213:Drivers/lvgl/src/draw/sw/lv_draw_sw.c ****                     return 0;
  70              		.loc 1 213 17 is_stmt 1 view .LVU16
 213:Drivers/lvgl/src/draw/sw/lv_draw_sw.c ****                     return 0;
  71              		.loc 1 213 28 is_stmt 0 view .LVU17
  72 0022 DA6B     		ldr	r2, [r3, #60]
 213:Drivers/lvgl/src/draw/sw/lv_draw_sw.c ****                     return 0;
  73              		.loc 1 213 19 view .LVU18
  74 0024 002A     		cmp	r2, #0
  75 0026 F9D1     		bne	.L3
 213:Drivers/lvgl/src/draw/sw/lv_draw_sw.c ****                     return 0;
  76              		.loc 1 213 53 discriminator 1 view .LVU19
  77 0028 1A6C     		ldr	r2, [r3, #64]
 213:Drivers/lvgl/src/draw/sw/lv_draw_sw.c ****                     return 0;
  78              		.loc 1 213 42 discriminator 1 view .LVU20
  79 002a 002A     		cmp	r2, #0
  80 002c F6D1     		bne	.L3
 217:Drivers/lvgl/src/draw/sw/lv_draw_sw.c **** 
  81              		.loc 1 217 17 is_stmt 1 view .LVU21
 217:Drivers/lvgl/src/draw/sw/lv_draw_sw.c **** 
  82              		.loc 1 217 39 is_stmt 0 view .LVU22
  83 002e 9A6E     		ldr	r2, [r3, #104]
  84              	.LVL4:
 219:Drivers/lvgl/src/draw/sw/lv_draw_sw.c ****                 if(masked && (cf == LV_COLOR_FORMAT_A8 || cf == LV_COLOR_FORMAT_RGB565A8)) {
  85              		.loc 1 219 17 is_stmt 1 view .LVU23
 219:Drivers/lvgl/src/draw/sw/lv_draw_sw.c ****                 if(masked && (cf == LV_COLOR_FORMAT_A8 || cf == LV_COLOR_FORMAT_RGB565A8)) {
  86              		.loc 1 219 35 is_stmt 0 view .LVU24
  87 0030 93F82130 		ldrb	r3, [r3, #33]	@ zero_extendqisi2
  88              	.LVL5:
 220:Drivers/lvgl/src/draw/sw/lv_draw_sw.c ****                     return 0;
  89              		.loc 1 220 17 is_stmt 1 view .LVU25
 220:Drivers/lvgl/src/draw/sw/lv_draw_sw.c ****                     return 0;
  90              		.loc 1 220 19 is_stmt 0 view .LVU26
  91 0034 1AB1     		cbz	r2, .L4
ARM GAS  /tmp/ccARp3x3.s 			page 7


 220:Drivers/lvgl/src/draw/sw/lv_draw_sw.c ****                     return 0;
  92              		.loc 1 220 27 discriminator 1 view .LVU27
  93 0036 142B     		cmp	r3, #20
  94 0038 18BF     		it	ne
  95 003a 0E2B     		cmpne	r3, #14
  96 003c EED0     		beq	.L3
  97              	.L4:
 224:Drivers/lvgl/src/draw/sw/lv_draw_sw.c ****                     return 0;
  98              		.loc 1 224 17 is_stmt 1 view .LVU28
 224:Drivers/lvgl/src/draw/sw/lv_draw_sw.c ****                     return 0;
  99              		.loc 1 224 19 is_stmt 0 view .LVU29
 100 003e 2F2B     		cmp	r3, #47
 101 0040 E2D9     		bls	.L2
 102 0042 EBE7     		b	.L3
 103              	.LBE2:
 104              		.cfi_endproc
 105              	.LFE192:
 107              		.section	.text.execute_drawing,"ax",%progbits
 108              		.align	1
 109              		.syntax unified
 110              		.thumb
 111              		.thumb_func
 113              	execute_drawing:
 114              	.LVL6:
 115              	.LFB194:
 240:Drivers/lvgl/src/draw/sw/lv_draw_sw.c **** 
 241:Drivers/lvgl/src/draw/sw/lv_draw_sw.c **** static int32_t dispatch(lv_draw_unit_t * draw_unit, lv_layer_t * layer)
 242:Drivers/lvgl/src/draw/sw/lv_draw_sw.c **** {
 243:Drivers/lvgl/src/draw/sw/lv_draw_sw.c ****     LV_PROFILER_DRAW_BEGIN;
 244:Drivers/lvgl/src/draw/sw/lv_draw_sw.c ****     lv_draw_sw_unit_t * draw_sw_unit = (lv_draw_sw_unit_t *) draw_unit;
 245:Drivers/lvgl/src/draw/sw/lv_draw_sw.c **** 
 246:Drivers/lvgl/src/draw/sw/lv_draw_sw.c **** #if LV_USE_OS
 247:Drivers/lvgl/src/draw/sw/lv_draw_sw.c ****     uint32_t i;
 248:Drivers/lvgl/src/draw/sw/lv_draw_sw.c ****     uint32_t taken_cnt = 0;
 249:Drivers/lvgl/src/draw/sw/lv_draw_sw.c ****     /* All idle (couldn't take any tasks): return LV_DRAW_UNIT_IDLE;
 250:Drivers/lvgl/src/draw/sw/lv_draw_sw.c ****      * All busy: return 0; as 0 tasks were taken
 251:Drivers/lvgl/src/draw/sw/lv_draw_sw.c ****      * Otherwise return taken_cnt;
 252:Drivers/lvgl/src/draw/sw/lv_draw_sw.c ****      */
 253:Drivers/lvgl/src/draw/sw/lv_draw_sw.c **** 
 254:Drivers/lvgl/src/draw/sw/lv_draw_sw.c ****     /*If at least one is busy, it's not all idle*/
 255:Drivers/lvgl/src/draw/sw/lv_draw_sw.c ****     bool all_idle = true;
 256:Drivers/lvgl/src/draw/sw/lv_draw_sw.c ****     for(i = 0; i < LV_DRAW_SW_DRAW_UNIT_CNT; i++) {
 257:Drivers/lvgl/src/draw/sw/lv_draw_sw.c ****         if(draw_sw_unit->thread_dscs[i].task_act) {
 258:Drivers/lvgl/src/draw/sw/lv_draw_sw.c ****             all_idle = false;
 259:Drivers/lvgl/src/draw/sw/lv_draw_sw.c ****             break;
 260:Drivers/lvgl/src/draw/sw/lv_draw_sw.c ****         }
 261:Drivers/lvgl/src/draw/sw/lv_draw_sw.c ****     }
 262:Drivers/lvgl/src/draw/sw/lv_draw_sw.c **** 
 263:Drivers/lvgl/src/draw/sw/lv_draw_sw.c ****     lv_draw_task_t * t = NULL;
 264:Drivers/lvgl/src/draw/sw/lv_draw_sw.c ****     for(i = 0; i < LV_DRAW_SW_DRAW_UNIT_CNT; i++) {
 265:Drivers/lvgl/src/draw/sw/lv_draw_sw.c ****         lv_draw_sw_thread_dsc_t * thread_dsc = &draw_sw_unit->thread_dscs[i];
 266:Drivers/lvgl/src/draw/sw/lv_draw_sw.c **** 
 267:Drivers/lvgl/src/draw/sw/lv_draw_sw.c ****         /*Do nothing if busy*/
 268:Drivers/lvgl/src/draw/sw/lv_draw_sw.c ****         if(thread_dsc->task_act) continue;
 269:Drivers/lvgl/src/draw/sw/lv_draw_sw.c **** 
 270:Drivers/lvgl/src/draw/sw/lv_draw_sw.c ****         /*Find an available task. Start from the previously taken task.*/
 271:Drivers/lvgl/src/draw/sw/lv_draw_sw.c ****         t = lv_draw_get_next_available_task(layer, t, DRAW_UNIT_ID_SW);
ARM GAS  /tmp/ccARp3x3.s 			page 8


 272:Drivers/lvgl/src/draw/sw/lv_draw_sw.c **** 
 273:Drivers/lvgl/src/draw/sw/lv_draw_sw.c ****         /*If there is not available task don't try other threads as there won't be available
 274:Drivers/lvgl/src/draw/sw/lv_draw_sw.c ****          *tasks for then either*/
 275:Drivers/lvgl/src/draw/sw/lv_draw_sw.c ****         if(t == NULL) {
 276:Drivers/lvgl/src/draw/sw/lv_draw_sw.c ****             LV_PROFILER_DRAW_END;
 277:Drivers/lvgl/src/draw/sw/lv_draw_sw.c ****             if(all_idle) return LV_DRAW_UNIT_IDLE;  /*Couldn't start rendering*/
 278:Drivers/lvgl/src/draw/sw/lv_draw_sw.c ****             else return taken_cnt;
 279:Drivers/lvgl/src/draw/sw/lv_draw_sw.c ****         }
 280:Drivers/lvgl/src/draw/sw/lv_draw_sw.c **** 
 281:Drivers/lvgl/src/draw/sw/lv_draw_sw.c ****         /*Allocate a buffer if not done yet.*/
 282:Drivers/lvgl/src/draw/sw/lv_draw_sw.c ****         void * buf = lv_draw_layer_alloc_buf(layer);
 283:Drivers/lvgl/src/draw/sw/lv_draw_sw.c ****         /*Do not return is failed. The other thread might already have a buffer can do something. *
 284:Drivers/lvgl/src/draw/sw/lv_draw_sw.c ****         if(buf == NULL) continue;
 285:Drivers/lvgl/src/draw/sw/lv_draw_sw.c **** 
 286:Drivers/lvgl/src/draw/sw/lv_draw_sw.c ****         /*Take the task*/
 287:Drivers/lvgl/src/draw/sw/lv_draw_sw.c ****         all_idle = false;
 288:Drivers/lvgl/src/draw/sw/lv_draw_sw.c ****         taken_cnt++;
 289:Drivers/lvgl/src/draw/sw/lv_draw_sw.c ****         t->state = LV_DRAW_TASK_STATE_IN_PROGRESS;
 290:Drivers/lvgl/src/draw/sw/lv_draw_sw.c ****         thread_dsc->task_act = t;
 291:Drivers/lvgl/src/draw/sw/lv_draw_sw.c **** 
 292:Drivers/lvgl/src/draw/sw/lv_draw_sw.c ****         /*Let the render thread work*/
 293:Drivers/lvgl/src/draw/sw/lv_draw_sw.c ****         if(thread_dsc->inited) lv_thread_sync_signal(&thread_dsc->sync);
 294:Drivers/lvgl/src/draw/sw/lv_draw_sw.c ****     }
 295:Drivers/lvgl/src/draw/sw/lv_draw_sw.c **** 
 296:Drivers/lvgl/src/draw/sw/lv_draw_sw.c ****     if(all_idle) return LV_DRAW_UNIT_IDLE;  /*Couldn't start rendering*/
 297:Drivers/lvgl/src/draw/sw/lv_draw_sw.c ****     else return taken_cnt;
 298:Drivers/lvgl/src/draw/sw/lv_draw_sw.c **** 
 299:Drivers/lvgl/src/draw/sw/lv_draw_sw.c **** #else
 300:Drivers/lvgl/src/draw/sw/lv_draw_sw.c ****     /*Return immediately if it's busy with draw task*/
 301:Drivers/lvgl/src/draw/sw/lv_draw_sw.c ****     if(draw_sw_unit->task_act) {
 302:Drivers/lvgl/src/draw/sw/lv_draw_sw.c ****         LV_PROFILER_DRAW_END;
 303:Drivers/lvgl/src/draw/sw/lv_draw_sw.c ****         return 0;
 304:Drivers/lvgl/src/draw/sw/lv_draw_sw.c ****     }
 305:Drivers/lvgl/src/draw/sw/lv_draw_sw.c **** 
 306:Drivers/lvgl/src/draw/sw/lv_draw_sw.c ****     lv_draw_task_t * t = NULL;
 307:Drivers/lvgl/src/draw/sw/lv_draw_sw.c ****     t = lv_draw_get_available_task(layer, NULL, DRAW_UNIT_ID_SW);
 308:Drivers/lvgl/src/draw/sw/lv_draw_sw.c ****     if(t == NULL) {
 309:Drivers/lvgl/src/draw/sw/lv_draw_sw.c ****         LV_PROFILER_DRAW_END;
 310:Drivers/lvgl/src/draw/sw/lv_draw_sw.c ****         return LV_DRAW_UNIT_IDLE;  /*Couldn't start rendering*/
 311:Drivers/lvgl/src/draw/sw/lv_draw_sw.c ****     }
 312:Drivers/lvgl/src/draw/sw/lv_draw_sw.c **** 
 313:Drivers/lvgl/src/draw/sw/lv_draw_sw.c ****     void * buf = lv_draw_layer_alloc_buf(layer);
 314:Drivers/lvgl/src/draw/sw/lv_draw_sw.c ****     if(buf == NULL) {
 315:Drivers/lvgl/src/draw/sw/lv_draw_sw.c ****         LV_PROFILER_DRAW_END;
 316:Drivers/lvgl/src/draw/sw/lv_draw_sw.c ****         return LV_DRAW_UNIT_IDLE;  /*Couldn't start rendering*/
 317:Drivers/lvgl/src/draw/sw/lv_draw_sw.c ****     }
 318:Drivers/lvgl/src/draw/sw/lv_draw_sw.c **** 
 319:Drivers/lvgl/src/draw/sw/lv_draw_sw.c ****     t->state = LV_DRAW_TASK_STATE_IN_PROGRESS;
 320:Drivers/lvgl/src/draw/sw/lv_draw_sw.c ****     draw_sw_unit->task_act = t;
 321:Drivers/lvgl/src/draw/sw/lv_draw_sw.c **** 
 322:Drivers/lvgl/src/draw/sw/lv_draw_sw.c ****     execute_drawing(t);
 323:Drivers/lvgl/src/draw/sw/lv_draw_sw.c ****     draw_sw_unit->task_act->state = LV_DRAW_TASK_STATE_READY;
 324:Drivers/lvgl/src/draw/sw/lv_draw_sw.c ****     draw_sw_unit->task_act = NULL;
 325:Drivers/lvgl/src/draw/sw/lv_draw_sw.c **** 
 326:Drivers/lvgl/src/draw/sw/lv_draw_sw.c ****     /*The draw unit is free now. Request a new dispatching as it can get a new task*/
 327:Drivers/lvgl/src/draw/sw/lv_draw_sw.c ****     lv_draw_dispatch_request();
 328:Drivers/lvgl/src/draw/sw/lv_draw_sw.c **** 
ARM GAS  /tmp/ccARp3x3.s 			page 9


 329:Drivers/lvgl/src/draw/sw/lv_draw_sw.c ****     LV_PROFILER_DRAW_END;
 330:Drivers/lvgl/src/draw/sw/lv_draw_sw.c ****     return 1;
 331:Drivers/lvgl/src/draw/sw/lv_draw_sw.c **** #endif
 332:Drivers/lvgl/src/draw/sw/lv_draw_sw.c **** 
 333:Drivers/lvgl/src/draw/sw/lv_draw_sw.c **** }
 334:Drivers/lvgl/src/draw/sw/lv_draw_sw.c **** 
 335:Drivers/lvgl/src/draw/sw/lv_draw_sw.c **** #if LV_USE_OS
 336:Drivers/lvgl/src/draw/sw/lv_draw_sw.c **** static void render_thread_cb(void * ptr)
 337:Drivers/lvgl/src/draw/sw/lv_draw_sw.c **** {
 338:Drivers/lvgl/src/draw/sw/lv_draw_sw.c ****     lv_draw_sw_thread_dsc_t * thread_dsc = ptr;
 339:Drivers/lvgl/src/draw/sw/lv_draw_sw.c **** 
 340:Drivers/lvgl/src/draw/sw/lv_draw_sw.c ****     lv_thread_sync_init(&thread_dsc->sync);
 341:Drivers/lvgl/src/draw/sw/lv_draw_sw.c ****     thread_dsc->inited = true;
 342:Drivers/lvgl/src/draw/sw/lv_draw_sw.c **** 
 343:Drivers/lvgl/src/draw/sw/lv_draw_sw.c ****     while(1) {
 344:Drivers/lvgl/src/draw/sw/lv_draw_sw.c ****         while(thread_dsc->task_act == NULL) {
 345:Drivers/lvgl/src/draw/sw/lv_draw_sw.c ****             if(thread_dsc->exit_status) {
 346:Drivers/lvgl/src/draw/sw/lv_draw_sw.c ****                 break;
 347:Drivers/lvgl/src/draw/sw/lv_draw_sw.c ****             }
 348:Drivers/lvgl/src/draw/sw/lv_draw_sw.c ****             lv_thread_sync_wait(&thread_dsc->sync);
 349:Drivers/lvgl/src/draw/sw/lv_draw_sw.c ****         }
 350:Drivers/lvgl/src/draw/sw/lv_draw_sw.c **** 
 351:Drivers/lvgl/src/draw/sw/lv_draw_sw.c ****         if(thread_dsc->exit_status) {
 352:Drivers/lvgl/src/draw/sw/lv_draw_sw.c ****             LV_LOG_INFO("ready to exit software rendering thread");
 353:Drivers/lvgl/src/draw/sw/lv_draw_sw.c ****             break;
 354:Drivers/lvgl/src/draw/sw/lv_draw_sw.c ****         }
 355:Drivers/lvgl/src/draw/sw/lv_draw_sw.c **** 
 356:Drivers/lvgl/src/draw/sw/lv_draw_sw.c ****         execute_drawing(thread_dsc->task_act);
 357:Drivers/lvgl/src/draw/sw/lv_draw_sw.c **** #if LV_USE_PARALLEL_DRAW_DEBUG
 358:Drivers/lvgl/src/draw/sw/lv_draw_sw.c ****         parallel_debug_draw(thread_dsc->task_act, thread_dsc->idx);
 359:Drivers/lvgl/src/draw/sw/lv_draw_sw.c **** #endif
 360:Drivers/lvgl/src/draw/sw/lv_draw_sw.c ****         thread_dsc->task_act->state = LV_DRAW_TASK_STATE_READY;
 361:Drivers/lvgl/src/draw/sw/lv_draw_sw.c ****         thread_dsc->task_act = NULL;
 362:Drivers/lvgl/src/draw/sw/lv_draw_sw.c **** 
 363:Drivers/lvgl/src/draw/sw/lv_draw_sw.c ****         /*The draw unit is free now. Request a new dispatching as it can get a new task*/
 364:Drivers/lvgl/src/draw/sw/lv_draw_sw.c ****         lv_draw_dispatch_request();
 365:Drivers/lvgl/src/draw/sw/lv_draw_sw.c **** 
 366:Drivers/lvgl/src/draw/sw/lv_draw_sw.c ****     }
 367:Drivers/lvgl/src/draw/sw/lv_draw_sw.c **** 
 368:Drivers/lvgl/src/draw/sw/lv_draw_sw.c ****     thread_dsc->inited = false;
 369:Drivers/lvgl/src/draw/sw/lv_draw_sw.c ****     lv_thread_sync_delete(&thread_dsc->sync);
 370:Drivers/lvgl/src/draw/sw/lv_draw_sw.c ****     LV_LOG_INFO("exit software rendering thread");
 371:Drivers/lvgl/src/draw/sw/lv_draw_sw.c **** }
 372:Drivers/lvgl/src/draw/sw/lv_draw_sw.c **** #endif
 373:Drivers/lvgl/src/draw/sw/lv_draw_sw.c **** 
 374:Drivers/lvgl/src/draw/sw/lv_draw_sw.c **** static void execute_drawing(lv_draw_task_t * t)
 375:Drivers/lvgl/src/draw/sw/lv_draw_sw.c **** {
 116              		.loc 1 375 1 is_stmt 1 view -0
 117              		.cfi_startproc
 118              		@ args = 0, pretend = 0, frame = 0
 119              		@ frame_needed = 0, uses_anonymous_args = 0
 120              		.loc 1 375 1 is_stmt 0 view .LVU31
 121 0000 08B5     		push	{r3, lr}
 122              	.LCFI0:
 123              		.cfi_def_cfa_offset 8
 124              		.cfi_offset 3, -8
 125              		.cfi_offset 14, -4
ARM GAS  /tmp/ccARp3x3.s 			page 10


 376:Drivers/lvgl/src/draw/sw/lv_draw_sw.c ****     LV_PROFILER_DRAW_BEGIN;
 126              		.loc 1 376 27 is_stmt 1 view .LVU32
 377:Drivers/lvgl/src/draw/sw/lv_draw_sw.c ****     /*Render the draw task*/
 378:Drivers/lvgl/src/draw/sw/lv_draw_sw.c ****     switch(t->type) {
 127              		.loc 1 378 5 view .LVU33
 128              		.loc 1 378 13 is_stmt 0 view .LVU34
 129 0002 0379     		ldrb	r3, [r0, #4]	@ zero_extendqisi2
 130              		.loc 1 378 5 view .LVU35
 131 0004 013B     		subs	r3, r3, #1
 132 0006 0A2B     		cmp	r3, #10
 133 0008 0CD8     		bhi	.L6
 134 000a DFE803F0 		tbb	[pc, r3]
 135              	.L9:
 136 000e 06       		.byte	(.L19-.L9)/2
 137 000f 0C       		.byte	(.L18-.L9)/2
 138 0010 12       		.byte	(.L17-.L9)/2
 139 0011 18       		.byte	(.L16-.L9)/2
 140 0012 1E       		.byte	(.L15-.L9)/2
 141 0013 24       		.byte	(.L14-.L9)/2
 142 0014 38       		.byte	(.L13-.L9)/2
 143 0015 30       		.byte	(.L12-.L9)/2
 144 0016 2A       		.byte	(.L11-.L9)/2
 145 0017 34       		.byte	(.L10-.L9)/2
 146 0018 3E       		.byte	(.L8-.L9)/2
 147 0019 00       		.p2align 1
 148              	.L19:
 379:Drivers/lvgl/src/draw/sw/lv_draw_sw.c ****         case LV_DRAW_TASK_TYPE_FILL:
 380:Drivers/lvgl/src/draw/sw/lv_draw_sw.c ****             lv_draw_sw_fill(t, t->draw_dsc, &t->area);
 149              		.loc 1 380 13 is_stmt 1 view .LVU36
 150 001a 00F10802 		add	r2, r0, #8
 151 001e 416D     		ldr	r1, [r0, #84]
 152 0020 FFF7FEFF 		bl	lv_draw_sw_fill
 153              	.LVL7:
 381:Drivers/lvgl/src/draw/sw/lv_draw_sw.c ****             break;
 154              		.loc 1 381 13 view .LVU37
 155              	.L6:
 382:Drivers/lvgl/src/draw/sw/lv_draw_sw.c ****         case LV_DRAW_TASK_TYPE_BORDER:
 383:Drivers/lvgl/src/draw/sw/lv_draw_sw.c ****             lv_draw_sw_border(t, t->draw_dsc, &t->area);
 384:Drivers/lvgl/src/draw/sw/lv_draw_sw.c ****             break;
 385:Drivers/lvgl/src/draw/sw/lv_draw_sw.c ****         case LV_DRAW_TASK_TYPE_BOX_SHADOW:
 386:Drivers/lvgl/src/draw/sw/lv_draw_sw.c ****             lv_draw_sw_box_shadow(t, t->draw_dsc, &t->area);
 387:Drivers/lvgl/src/draw/sw/lv_draw_sw.c ****             break;
 388:Drivers/lvgl/src/draw/sw/lv_draw_sw.c ****         case LV_DRAW_TASK_TYPE_LETTER:
 389:Drivers/lvgl/src/draw/sw/lv_draw_sw.c ****             lv_draw_sw_letter(t, t->draw_dsc, &t->area);
 390:Drivers/lvgl/src/draw/sw/lv_draw_sw.c ****             break;
 391:Drivers/lvgl/src/draw/sw/lv_draw_sw.c ****         case LV_DRAW_TASK_TYPE_LABEL:
 392:Drivers/lvgl/src/draw/sw/lv_draw_sw.c ****             lv_draw_sw_label(t, t->draw_dsc, &t->area);
 393:Drivers/lvgl/src/draw/sw/lv_draw_sw.c ****             break;
 394:Drivers/lvgl/src/draw/sw/lv_draw_sw.c ****         case LV_DRAW_TASK_TYPE_IMAGE:
 395:Drivers/lvgl/src/draw/sw/lv_draw_sw.c ****             lv_draw_sw_image(t, t->draw_dsc, &t->area);
 396:Drivers/lvgl/src/draw/sw/lv_draw_sw.c ****             break;
 397:Drivers/lvgl/src/draw/sw/lv_draw_sw.c ****         case LV_DRAW_TASK_TYPE_ARC:
 398:Drivers/lvgl/src/draw/sw/lv_draw_sw.c ****             lv_draw_sw_arc(t, t->draw_dsc, &t->area);
 399:Drivers/lvgl/src/draw/sw/lv_draw_sw.c ****             break;
 400:Drivers/lvgl/src/draw/sw/lv_draw_sw.c ****         case LV_DRAW_TASK_TYPE_LINE:
 401:Drivers/lvgl/src/draw/sw/lv_draw_sw.c ****             lv_draw_sw_line(t, t->draw_dsc);
 402:Drivers/lvgl/src/draw/sw/lv_draw_sw.c ****             break;
ARM GAS  /tmp/ccARp3x3.s 			page 11


 403:Drivers/lvgl/src/draw/sw/lv_draw_sw.c ****         case LV_DRAW_TASK_TYPE_TRIANGLE:
 404:Drivers/lvgl/src/draw/sw/lv_draw_sw.c ****             lv_draw_sw_triangle(t, t->draw_dsc);
 405:Drivers/lvgl/src/draw/sw/lv_draw_sw.c ****             break;
 406:Drivers/lvgl/src/draw/sw/lv_draw_sw.c ****         case LV_DRAW_TASK_TYPE_LAYER:
 407:Drivers/lvgl/src/draw/sw/lv_draw_sw.c ****             lv_draw_sw_layer(t, t->draw_dsc, &t->area);
 408:Drivers/lvgl/src/draw/sw/lv_draw_sw.c ****             break;
 409:Drivers/lvgl/src/draw/sw/lv_draw_sw.c ****         case LV_DRAW_TASK_TYPE_MASK_RECTANGLE:
 410:Drivers/lvgl/src/draw/sw/lv_draw_sw.c ****             lv_draw_sw_mask_rect(t, t->draw_dsc);
 411:Drivers/lvgl/src/draw/sw/lv_draw_sw.c ****             break;
 412:Drivers/lvgl/src/draw/sw/lv_draw_sw.c **** #if LV_USE_VECTOR_GRAPHIC && LV_USE_THORVG
 413:Drivers/lvgl/src/draw/sw/lv_draw_sw.c ****         case LV_DRAW_TASK_TYPE_VECTOR:
 414:Drivers/lvgl/src/draw/sw/lv_draw_sw.c ****             lv_draw_sw_vector(t, t->draw_dsc);
 415:Drivers/lvgl/src/draw/sw/lv_draw_sw.c ****             break;
 416:Drivers/lvgl/src/draw/sw/lv_draw_sw.c **** #endif
 417:Drivers/lvgl/src/draw/sw/lv_draw_sw.c ****         default:
 418:Drivers/lvgl/src/draw/sw/lv_draw_sw.c ****             break;
 419:Drivers/lvgl/src/draw/sw/lv_draw_sw.c ****     }
 420:Drivers/lvgl/src/draw/sw/lv_draw_sw.c **** 
 421:Drivers/lvgl/src/draw/sw/lv_draw_sw.c **** 
 422:Drivers/lvgl/src/draw/sw/lv_draw_sw.c ****     LV_PROFILER_DRAW_END;
 423:Drivers/lvgl/src/draw/sw/lv_draw_sw.c **** }
 156              		.loc 1 423 1 is_stmt 0 view .LVU38
 157 0024 08BD     		pop	{r3, pc}
 158              	.LVL8:
 159              	.L18:
 383:Drivers/lvgl/src/draw/sw/lv_draw_sw.c ****             break;
 160              		.loc 1 383 13 is_stmt 1 view .LVU39
 161 0026 00F10802 		add	r2, r0, #8
 162 002a 416D     		ldr	r1, [r0, #84]
 163 002c FFF7FEFF 		bl	lv_draw_sw_border
 164              	.LVL9:
 384:Drivers/lvgl/src/draw/sw/lv_draw_sw.c ****         case LV_DRAW_TASK_TYPE_BOX_SHADOW:
 165              		.loc 1 384 13 view .LVU40
 166 0030 F8E7     		b	.L6
 167              	.LVL10:
 168              	.L17:
 386:Drivers/lvgl/src/draw/sw/lv_draw_sw.c ****             break;
 169              		.loc 1 386 13 view .LVU41
 170 0032 00F10802 		add	r2, r0, #8
 171 0036 416D     		ldr	r1, [r0, #84]
 172 0038 FFF7FEFF 		bl	lv_draw_sw_box_shadow
 173              	.LVL11:
 387:Drivers/lvgl/src/draw/sw/lv_draw_sw.c ****         case LV_DRAW_TASK_TYPE_LETTER:
 174              		.loc 1 387 13 view .LVU42
 175 003c F2E7     		b	.L6
 176              	.LVL12:
 177              	.L16:
 389:Drivers/lvgl/src/draw/sw/lv_draw_sw.c ****             break;
 178              		.loc 1 389 13 view .LVU43
 179 003e 00F10802 		add	r2, r0, #8
 180 0042 416D     		ldr	r1, [r0, #84]
 181 0044 FFF7FEFF 		bl	lv_draw_sw_letter
 182              	.LVL13:
 390:Drivers/lvgl/src/draw/sw/lv_draw_sw.c ****         case LV_DRAW_TASK_TYPE_LABEL:
 183              		.loc 1 390 13 view .LVU44
 184 0048 ECE7     		b	.L6
 185              	.LVL14:
ARM GAS  /tmp/ccARp3x3.s 			page 12


 186              	.L15:
 392:Drivers/lvgl/src/draw/sw/lv_draw_sw.c ****             break;
 187              		.loc 1 392 13 view .LVU45
 188 004a 00F10802 		add	r2, r0, #8
 189 004e 416D     		ldr	r1, [r0, #84]
 190 0050 FFF7FEFF 		bl	lv_draw_sw_label
 191              	.LVL15:
 393:Drivers/lvgl/src/draw/sw/lv_draw_sw.c ****         case LV_DRAW_TASK_TYPE_IMAGE:
 192              		.loc 1 393 13 view .LVU46
 193 0054 E6E7     		b	.L6
 194              	.LVL16:
 195              	.L14:
 395:Drivers/lvgl/src/draw/sw/lv_draw_sw.c ****             break;
 196              		.loc 1 395 13 view .LVU47
 197 0056 00F10802 		add	r2, r0, #8
 198 005a 416D     		ldr	r1, [r0, #84]
 199 005c FFF7FEFF 		bl	lv_draw_sw_image
 200              	.LVL17:
 396:Drivers/lvgl/src/draw/sw/lv_draw_sw.c ****         case LV_DRAW_TASK_TYPE_ARC:
 201              		.loc 1 396 13 view .LVU48
 202 0060 E0E7     		b	.L6
 203              	.LVL18:
 204              	.L11:
 398:Drivers/lvgl/src/draw/sw/lv_draw_sw.c ****             break;
 205              		.loc 1 398 13 view .LVU49
 206 0062 00F10802 		add	r2, r0, #8
 207 0066 416D     		ldr	r1, [r0, #84]
 208 0068 FFF7FEFF 		bl	lv_draw_sw_arc
 209              	.LVL19:
 399:Drivers/lvgl/src/draw/sw/lv_draw_sw.c ****         case LV_DRAW_TASK_TYPE_LINE:
 210              		.loc 1 399 13 view .LVU50
 211 006c DAE7     		b	.L6
 212              	.LVL20:
 213              	.L12:
 401:Drivers/lvgl/src/draw/sw/lv_draw_sw.c ****             break;
 214              		.loc 1 401 13 view .LVU51
 215 006e 416D     		ldr	r1, [r0, #84]
 216 0070 FFF7FEFF 		bl	lv_draw_sw_line
 217              	.LVL21:
 402:Drivers/lvgl/src/draw/sw/lv_draw_sw.c ****         case LV_DRAW_TASK_TYPE_TRIANGLE:
 218              		.loc 1 402 13 view .LVU52
 219 0074 D6E7     		b	.L6
 220              	.LVL22:
 221              	.L10:
 404:Drivers/lvgl/src/draw/sw/lv_draw_sw.c ****             break;
 222              		.loc 1 404 13 view .LVU53
 223 0076 416D     		ldr	r1, [r0, #84]
 224 0078 FFF7FEFF 		bl	lv_draw_sw_triangle
 225              	.LVL23:
 405:Drivers/lvgl/src/draw/sw/lv_draw_sw.c ****         case LV_DRAW_TASK_TYPE_LAYER:
 226              		.loc 1 405 13 view .LVU54
 227 007c D2E7     		b	.L6
 228              	.LVL24:
 229              	.L13:
 407:Drivers/lvgl/src/draw/sw/lv_draw_sw.c ****             break;
 230              		.loc 1 407 13 view .LVU55
 231 007e 00F10802 		add	r2, r0, #8
ARM GAS  /tmp/ccARp3x3.s 			page 13


 232 0082 416D     		ldr	r1, [r0, #84]
 233 0084 FFF7FEFF 		bl	lv_draw_sw_layer
 234              	.LVL25:
 408:Drivers/lvgl/src/draw/sw/lv_draw_sw.c ****         case LV_DRAW_TASK_TYPE_MASK_RECTANGLE:
 235              		.loc 1 408 13 view .LVU56
 236 0088 CCE7     		b	.L6
 237              	.LVL26:
 238              	.L8:
 410:Drivers/lvgl/src/draw/sw/lv_draw_sw.c ****             break;
 239              		.loc 1 410 13 view .LVU57
 240 008a 416D     		ldr	r1, [r0, #84]
 241 008c FFF7FEFF 		bl	lv_draw_sw_mask_rect
 242              	.LVL27:
 411:Drivers/lvgl/src/draw/sw/lv_draw_sw.c **** #if LV_USE_VECTOR_GRAPHIC && LV_USE_THORVG
 243              		.loc 1 411 13 view .LVU58
 422:Drivers/lvgl/src/draw/sw/lv_draw_sw.c **** }
 244              		.loc 1 422 25 view .LVU59
 245              		.loc 1 423 1 is_stmt 0 view .LVU60
 246 0090 C8E7     		b	.L6
 247              		.cfi_endproc
 248              	.LFE194:
 250              		.section	.text.dispatch,"ax",%progbits
 251              		.align	1
 252              		.syntax unified
 253              		.thumb
 254              		.thumb_func
 256              	dispatch:
 257              	.LVL28:
 258              	.LFB193:
 242:Drivers/lvgl/src/draw/sw/lv_draw_sw.c ****     LV_PROFILER_DRAW_BEGIN;
 259              		.loc 1 242 1 is_stmt 1 view -0
 260              		.cfi_startproc
 261              		@ args = 0, pretend = 0, frame = 0
 262              		@ frame_needed = 0, uses_anonymous_args = 0
 243:Drivers/lvgl/src/draw/sw/lv_draw_sw.c ****     lv_draw_sw_unit_t * draw_sw_unit = (lv_draw_sw_unit_t *) draw_unit;
 263              		.loc 1 243 27 view .LVU62
 244:Drivers/lvgl/src/draw/sw/lv_draw_sw.c **** 
 264              		.loc 1 244 5 view .LVU63
 301:Drivers/lvgl/src/draw/sw/lv_draw_sw.c ****         LV_PROFILER_DRAW_END;
 265              		.loc 1 301 5 view .LVU64
 301:Drivers/lvgl/src/draw/sw/lv_draw_sw.c ****         LV_PROFILER_DRAW_END;
 266              		.loc 1 301 20 is_stmt 0 view .LVU65
 267 0000 C369     		ldr	r3, [r0, #28]
 301:Drivers/lvgl/src/draw/sw/lv_draw_sw.c ****         LV_PROFILER_DRAW_END;
 268              		.loc 1 301 7 view .LVU66
 269 0002 0BB1     		cbz	r3, .L31
 303:Drivers/lvgl/src/draw/sw/lv_draw_sw.c ****     }
 270              		.loc 1 303 16 view .LVU67
 271 0004 0020     		movs	r0, #0
 272              	.LVL29:
 333:Drivers/lvgl/src/draw/sw/lv_draw_sw.c **** 
 273              		.loc 1 333 1 view .LVU68
 274 0006 7047     		bx	lr
 275              	.LVL30:
 276              	.L31:
 242:Drivers/lvgl/src/draw/sw/lv_draw_sw.c ****     LV_PROFILER_DRAW_BEGIN;
 277              		.loc 1 242 1 view .LVU69
ARM GAS  /tmp/ccARp3x3.s 			page 14


 278 0008 70B5     		push	{r4, r5, r6, lr}
 279              	.LCFI1:
 280              		.cfi_def_cfa_offset 16
 281              		.cfi_offset 4, -16
 282              		.cfi_offset 5, -12
 283              		.cfi_offset 6, -8
 284              		.cfi_offset 14, -4
 285 000a 0446     		mov	r4, r0
 286 000c 0D46     		mov	r5, r1
 306:Drivers/lvgl/src/draw/sw/lv_draw_sw.c ****     t = lv_draw_get_available_task(layer, NULL, DRAW_UNIT_ID_SW);
 287              		.loc 1 306 5 is_stmt 1 view .LVU70
 288              	.LVL31:
 307:Drivers/lvgl/src/draw/sw/lv_draw_sw.c ****     if(t == NULL) {
 289              		.loc 1 307 5 view .LVU71
 307:Drivers/lvgl/src/draw/sw/lv_draw_sw.c ****     if(t == NULL) {
 290              		.loc 1 307 9 is_stmt 0 view .LVU72
 291 000e 0122     		movs	r2, #1
 292 0010 0021     		movs	r1, #0
 293              	.LVL32:
 307:Drivers/lvgl/src/draw/sw/lv_draw_sw.c ****     if(t == NULL) {
 294              		.loc 1 307 9 view .LVU73
 295 0012 2846     		mov	r0, r5
 296              	.LVL33:
 307:Drivers/lvgl/src/draw/sw/lv_draw_sw.c ****     if(t == NULL) {
 297              		.loc 1 307 9 view .LVU74
 298 0014 FFF7FEFF 		bl	lv_draw_get_available_task
 299              	.LVL34:
 308:Drivers/lvgl/src/draw/sw/lv_draw_sw.c ****         LV_PROFILER_DRAW_END;
 300              		.loc 1 308 5 is_stmt 1 view .LVU75
 308:Drivers/lvgl/src/draw/sw/lv_draw_sw.c ****         LV_PROFILER_DRAW_END;
 301              		.loc 1 308 7 is_stmt 0 view .LVU76
 302 0018 0646     		mov	r6, r0
 303 001a 90B1     		cbz	r0, .L25
 313:Drivers/lvgl/src/draw/sw/lv_draw_sw.c ****     if(buf == NULL) {
 304              		.loc 1 313 5 is_stmt 1 view .LVU77
 313:Drivers/lvgl/src/draw/sw/lv_draw_sw.c ****     if(buf == NULL) {
 305              		.loc 1 313 18 is_stmt 0 view .LVU78
 306 001c 2846     		mov	r0, r5
 307              	.LVL35:
 313:Drivers/lvgl/src/draw/sw/lv_draw_sw.c ****     if(buf == NULL) {
 308              		.loc 1 313 18 view .LVU79
 309 001e FFF7FEFF 		bl	lv_draw_layer_alloc_buf
 310              	.LVL36:
 314:Drivers/lvgl/src/draw/sw/lv_draw_sw.c ****         LV_PROFILER_DRAW_END;
 311              		.loc 1 314 5 is_stmt 1 view .LVU80
 314:Drivers/lvgl/src/draw/sw/lv_draw_sw.c ****         LV_PROFILER_DRAW_END;
 312              		.loc 1 314 7 is_stmt 0 view .LVU81
 313 0022 88B1     		cbz	r0, .L26
 319:Drivers/lvgl/src/draw/sw/lv_draw_sw.c ****     draw_sw_unit->task_act = t;
 314              		.loc 1 319 5 is_stmt 1 view .LVU82
 319:Drivers/lvgl/src/draw/sw/lv_draw_sw.c ****     draw_sw_unit->task_act = t;
 315              		.loc 1 319 14 is_stmt 0 view .LVU83
 316 0024 0223     		movs	r3, #2
 317 0026 3365     		str	r3, [r6, #80]
 320:Drivers/lvgl/src/draw/sw/lv_draw_sw.c **** 
 318              		.loc 1 320 5 is_stmt 1 view .LVU84
 320:Drivers/lvgl/src/draw/sw/lv_draw_sw.c **** 
ARM GAS  /tmp/ccARp3x3.s 			page 15


 319              		.loc 1 320 28 is_stmt 0 view .LVU85
 320 0028 E661     		str	r6, [r4, #28]
 322:Drivers/lvgl/src/draw/sw/lv_draw_sw.c ****     draw_sw_unit->task_act->state = LV_DRAW_TASK_STATE_READY;
 321              		.loc 1 322 5 is_stmt 1 view .LVU86
 322 002a 3046     		mov	r0, r6
 323              	.LVL37:
 322:Drivers/lvgl/src/draw/sw/lv_draw_sw.c ****     draw_sw_unit->task_act->state = LV_DRAW_TASK_STATE_READY;
 324              		.loc 1 322 5 is_stmt 0 view .LVU87
 325 002c FFF7FEFF 		bl	execute_drawing
 326              	.LVL38:
 323:Drivers/lvgl/src/draw/sw/lv_draw_sw.c ****     draw_sw_unit->task_act = NULL;
 327              		.loc 1 323 5 is_stmt 1 view .LVU88
 323:Drivers/lvgl/src/draw/sw/lv_draw_sw.c ****     draw_sw_unit->task_act = NULL;
 328              		.loc 1 323 17 is_stmt 0 view .LVU89
 329 0030 E369     		ldr	r3, [r4, #28]
 323:Drivers/lvgl/src/draw/sw/lv_draw_sw.c ****     draw_sw_unit->task_act = NULL;
 330              		.loc 1 323 35 view .LVU90
 331 0032 0322     		movs	r2, #3
 332 0034 1A65     		str	r2, [r3, #80]
 324:Drivers/lvgl/src/draw/sw/lv_draw_sw.c **** 
 333              		.loc 1 324 5 is_stmt 1 view .LVU91
 324:Drivers/lvgl/src/draw/sw/lv_draw_sw.c **** 
 334              		.loc 1 324 28 is_stmt 0 view .LVU92
 335 0036 0023     		movs	r3, #0
 336 0038 E361     		str	r3, [r4, #28]
 327:Drivers/lvgl/src/draw/sw/lv_draw_sw.c **** 
 337              		.loc 1 327 5 is_stmt 1 view .LVU93
 338 003a FFF7FEFF 		bl	lv_draw_dispatch_request
 339              	.LVL39:
 329:Drivers/lvgl/src/draw/sw/lv_draw_sw.c ****     return 1;
 340              		.loc 1 329 25 view .LVU94
 330:Drivers/lvgl/src/draw/sw/lv_draw_sw.c **** #endif
 341              		.loc 1 330 5 view .LVU95
 330:Drivers/lvgl/src/draw/sw/lv_draw_sw.c **** #endif
 342              		.loc 1 330 12 is_stmt 0 view .LVU96
 343 003e 0120     		movs	r0, #1
 344              	.LVL40:
 345              	.L22:
 333:Drivers/lvgl/src/draw/sw/lv_draw_sw.c **** 
 346              		.loc 1 333 1 view .LVU97
 347 0040 70BD     		pop	{r4, r5, r6, pc}
 348              	.LVL41:
 349              	.L25:
 310:Drivers/lvgl/src/draw/sw/lv_draw_sw.c ****     }
 350              		.loc 1 310 16 view .LVU98
 351 0042 4FF0FF30 		mov	r0, #-1
 352              	.LVL42:
 310:Drivers/lvgl/src/draw/sw/lv_draw_sw.c ****     }
 353              		.loc 1 310 16 view .LVU99
 354 0046 FBE7     		b	.L22
 355              	.LVL43:
 356              	.L26:
 316:Drivers/lvgl/src/draw/sw/lv_draw_sw.c ****     }
 357              		.loc 1 316 16 view .LVU100
 358 0048 4FF0FF30 		mov	r0, #-1
 359              	.LVL44:
 316:Drivers/lvgl/src/draw/sw/lv_draw_sw.c ****     }
ARM GAS  /tmp/ccARp3x3.s 			page 16


 360              		.loc 1 316 16 view .LVU101
 361 004c F8E7     		b	.L22
 362              		.cfi_endproc
 363              	.LFE193:
 365              		.section	.rodata.lv_draw_sw_init.str1.4,"aMS",%progbits,1
 366              		.align	2
 367              	.LC0:
 368 0000 535700   		.ascii	"SW\000"
 369              		.section	.text.lv_draw_sw_init,"ax",%progbits
 370              		.align	1
 371              		.global	lv_draw_sw_init
 372              		.syntax unified
 373              		.thumb
 374              		.thumb_func
 376              	lv_draw_sw_init:
 377              	.LFB186:
  75:Drivers/lvgl/src/draw/sw/lv_draw_sw.c **** 
 378              		.loc 1 75 1 is_stmt 1 view -0
 379              		.cfi_startproc
 380              		@ args = 0, pretend = 0, frame = 0
 381              		@ frame_needed = 0, uses_anonymous_args = 0
 382 0000 08B5     		push	{r3, lr}
 383              	.LCFI2:
 384              		.cfi_def_cfa_offset 8
 385              		.cfi_offset 3, -8
 386              		.cfi_offset 14, -4
  78:Drivers/lvgl/src/draw/sw/lv_draw_sw.c **** #endif
 387              		.loc 1 78 5 view .LVU103
 388 0002 FFF7FEFF 		bl	lv_draw_sw_mask_init
 389              	.LVL45:
  81:Drivers/lvgl/src/draw/sw/lv_draw_sw.c ****     draw_sw_unit->base_unit.dispatch_cb = dispatch;
 390              		.loc 1 81 5 view .LVU104
  81:Drivers/lvgl/src/draw/sw/lv_draw_sw.c ****     draw_sw_unit->base_unit.dispatch_cb = dispatch;
 391              		.loc 1 81 40 is_stmt 0 view .LVU105
 392 0006 2020     		movs	r0, #32
 393 0008 FFF7FEFF 		bl	lv_draw_create_unit
 394              	.LVL46:
  82:Drivers/lvgl/src/draw/sw/lv_draw_sw.c ****     draw_sw_unit->base_unit.evaluate_cb = evaluate;
 395              		.loc 1 82 5 is_stmt 1 view .LVU106
  82:Drivers/lvgl/src/draw/sw/lv_draw_sw.c ****     draw_sw_unit->base_unit.evaluate_cb = evaluate;
 396              		.loc 1 82 41 is_stmt 0 view .LVU107
 397 000c 064B     		ldr	r3, .L34
 398 000e C360     		str	r3, [r0, #12]
  83:Drivers/lvgl/src/draw/sw/lv_draw_sw.c ****     draw_sw_unit->base_unit.delete_cb = LV_USE_OS ? lv_draw_sw_delete : NULL;
 399              		.loc 1 83 5 is_stmt 1 view .LVU108
  83:Drivers/lvgl/src/draw/sw/lv_draw_sw.c ****     draw_sw_unit->base_unit.delete_cb = LV_USE_OS ? lv_draw_sw_delete : NULL;
 400              		.loc 1 83 41 is_stmt 0 view .LVU109
 401 0010 064B     		ldr	r3, .L34+4
 402 0012 0361     		str	r3, [r0, #16]
  84:Drivers/lvgl/src/draw/sw/lv_draw_sw.c ****     draw_sw_unit->base_unit.name = "SW";
 403              		.loc 1 84 5 is_stmt 1 view .LVU110
  84:Drivers/lvgl/src/draw/sw/lv_draw_sw.c ****     draw_sw_unit->base_unit.name = "SW";
 404              		.loc 1 84 39 is_stmt 0 view .LVU111
 405 0014 0023     		movs	r3, #0
 406 0016 8361     		str	r3, [r0, #24]
  85:Drivers/lvgl/src/draw/sw/lv_draw_sw.c **** 
 407              		.loc 1 85 5 is_stmt 1 view .LVU112
ARM GAS  /tmp/ccARp3x3.s 			page 17


  85:Drivers/lvgl/src/draw/sw/lv_draw_sw.c **** 
 408              		.loc 1 85 34 is_stmt 0 view .LVU113
 409 0018 054B     		ldr	r3, .L34+8
 410 001a 4360     		str	r3, [r0, #4]
 107:Drivers/lvgl/src/draw/sw/lv_draw_sw.c **** }
 411              		.loc 1 107 5 is_stmt 1 view .LVU114
 412 001c 0821     		movs	r1, #8
 413 001e 0548     		ldr	r0, .L34+12
 414              	.LVL47:
 107:Drivers/lvgl/src/draw/sw/lv_draw_sw.c **** }
 415              		.loc 1 107 5 is_stmt 0 view .LVU115
 416 0020 FFF7FEFF 		bl	lv_ll_init
 417              	.LVL48:
 108:Drivers/lvgl/src/draw/sw/lv_draw_sw.c **** 
 418              		.loc 1 108 1 view .LVU116
 419 0024 08BD     		pop	{r3, pc}
 420              	.L35:
 421 0026 00BF     		.align	2
 422              	.L34:
 423 0028 00000000 		.word	dispatch
 424 002c 00000000 		.word	evaluate
 425 0030 00000000 		.word	.LC0
 426 0034 3C010000 		.word	lv_global+316
 427              		.cfi_endproc
 428              	.LFE186:
 430              		.section	.text.lv_draw_sw_deinit,"ax",%progbits
 431              		.align	1
 432              		.global	lv_draw_sw_deinit
 433              		.syntax unified
 434              		.thumb
 435              		.thumb_func
 437              	lv_draw_sw_deinit:
 438              	.LFB187:
 111:Drivers/lvgl/src/draw/sw/lv_draw_sw.c **** #if LV_USE_VECTOR_GRAPHIC && LV_USE_THORVG
 439              		.loc 1 111 1 is_stmt 1 view -0
 440              		.cfi_startproc
 441              		@ args = 0, pretend = 0, frame = 0
 442              		@ frame_needed = 0, uses_anonymous_args = 0
 443 0000 08B5     		push	{r3, lr}
 444              	.LCFI3:
 445              		.cfi_def_cfa_offset 8
 446              		.cfi_offset 3, -8
 447              		.cfi_offset 14, -4
 117:Drivers/lvgl/src/draw/sw/lv_draw_sw.c **** #endif
 448              		.loc 1 117 5 view .LVU118
 449 0002 FFF7FEFF 		bl	lv_draw_sw_mask_deinit
 450              	.LVL49:
 119:Drivers/lvgl/src/draw/sw/lv_draw_sw.c **** 
 451              		.loc 1 119 1 is_stmt 0 view .LVU119
 452 0006 08BD     		pop	{r3, pc}
 453              		.cfi_endproc
 454              	.LFE187:
 456              		.section	.text.lv_draw_sw_register_blend_handler,"ax",%progbits
 457              		.align	1
 458              		.global	lv_draw_sw_register_blend_handler
 459              		.syntax unified
 460              		.thumb
ARM GAS  /tmp/ccARp3x3.s 			page 18


 461              		.thumb_func
 463              	lv_draw_sw_register_blend_handler:
 464              	.LVL50:
 465              	.LFB189:
 147:Drivers/lvgl/src/draw/sw/lv_draw_sw.c ****     lv_draw_sw_custom_blend_handler_t * existing_handler = NULL;
 466              		.loc 1 147 1 is_stmt 1 view -0
 467              		.cfi_startproc
 468              		@ args = 0, pretend = 0, frame = 0
 469              		@ frame_needed = 0, uses_anonymous_args = 0
 147:Drivers/lvgl/src/draw/sw/lv_draw_sw.c ****     lv_draw_sw_custom_blend_handler_t * existing_handler = NULL;
 470              		.loc 1 147 1 is_stmt 0 view .LVU121
 471 0000 10B5     		push	{r4, lr}
 472              	.LCFI4:
 473              		.cfi_def_cfa_offset 8
 474              		.cfi_offset 4, -8
 475              		.cfi_offset 14, -4
 476 0002 0446     		mov	r4, r0
 148:Drivers/lvgl/src/draw/sw/lv_draw_sw.c ****     lv_draw_sw_custom_blend_handler_t * new_handler = NULL;
 477              		.loc 1 148 5 is_stmt 1 view .LVU122
 478              	.LVL51:
 149:Drivers/lvgl/src/draw/sw/lv_draw_sw.c **** 
 479              		.loc 1 149 5 view .LVU123
 152:Drivers/lvgl/src/draw/sw/lv_draw_sw.c ****         if(existing_handler->dest_cf == handler->dest_cf) {
 480              		.loc 1 152 5 view .LVU124
 481 0004 0C48     		ldr	r0, .L47
 482              	.LVL52:
 152:Drivers/lvgl/src/draw/sw/lv_draw_sw.c ****         if(existing_handler->dest_cf == handler->dest_cf) {
 483              		.loc 1 152 5 is_stmt 0 view .LVU125
 484 0006 FFF7FEFF 		bl	lv_ll_get_head
 485              	.LVL53:
 152:Drivers/lvgl/src/draw/sw/lv_draw_sw.c ****         if(existing_handler->dest_cf == handler->dest_cf) {
 486              		.loc 1 152 5 view .LVU126
 487 000a 03E0     		b	.L39
 488              	.L45:
 152:Drivers/lvgl/src/draw/sw/lv_draw_sw.c ****         if(existing_handler->dest_cf == handler->dest_cf) {
 489              		.loc 1 152 5 is_stmt 1 discriminator 2 view .LVU127
 490 000c 0146     		mov	r1, r0
 491 000e 0A48     		ldr	r0, .L47
 492              	.LVL54:
 152:Drivers/lvgl/src/draw/sw/lv_draw_sw.c ****         if(existing_handler->dest_cf == handler->dest_cf) {
 493              		.loc 1 152 5 is_stmt 0 discriminator 2 view .LVU128
 494 0010 FFF7FEFF 		bl	lv_ll_get_next
 495              	.LVL55:
 496              	.L39:
 152:Drivers/lvgl/src/draw/sw/lv_draw_sw.c ****         if(existing_handler->dest_cf == handler->dest_cf) {
 497              		.loc 1 152 5 is_stmt 1 discriminator 1 view .LVU129
 498 0014 18B1     		cbz	r0, .L40
 153:Drivers/lvgl/src/draw/sw/lv_draw_sw.c ****             new_handler = existing_handler;
 499              		.loc 1 153 9 view .LVU130
 153:Drivers/lvgl/src/draw/sw/lv_draw_sw.c ****             new_handler = existing_handler;
 500              		.loc 1 153 28 is_stmt 0 view .LVU131
 501 0016 0278     		ldrb	r2, [r0]	@ zero_extendqisi2
 153:Drivers/lvgl/src/draw/sw/lv_draw_sw.c ****             new_handler = existing_handler;
 502              		.loc 1 153 48 view .LVU132
 503 0018 2378     		ldrb	r3, [r4]	@ zero_extendqisi2
 153:Drivers/lvgl/src/draw/sw/lv_draw_sw.c ****             new_handler = existing_handler;
 504              		.loc 1 153 11 view .LVU133
ARM GAS  /tmp/ccARp3x3.s 			page 19


 505 001a 9A42     		cmp	r2, r3
 506 001c F6D1     		bne	.L45
 507              	.L40:
 508              	.LVL56:
 159:Drivers/lvgl/src/draw/sw/lv_draw_sw.c ****         new_handler = lv_ll_ins_head(&LV_GLOBAL_DEFAULT()->draw_sw_blend_handler_ll);
 509              		.loc 1 159 5 is_stmt 1 view .LVU134
 159:Drivers/lvgl/src/draw/sw/lv_draw_sw.c ****         new_handler = lv_ll_ins_head(&LV_GLOBAL_DEFAULT()->draw_sw_blend_handler_ll);
 510              		.loc 1 159 7 is_stmt 0 view .LVU135
 511 001e 28B1     		cbz	r0, .L46
 512              	.LVL57:
 513              	.L42:
 167:Drivers/lvgl/src/draw/sw/lv_draw_sw.c ****     return true;
 514              		.loc 1 167 5 is_stmt 1 view .LVU136
 515 0020 0822     		movs	r2, #8
 516 0022 2146     		mov	r1, r4
 517 0024 FFF7FEFF 		bl	lv_memcpy
 518              	.LVL58:
 168:Drivers/lvgl/src/draw/sw/lv_draw_sw.c **** }
 519              		.loc 1 168 5 view .LVU137
 169:Drivers/lvgl/src/draw/sw/lv_draw_sw.c **** 
 520              		.loc 1 169 1 is_stmt 0 view .LVU138
 521 0028 0120     		movs	r0, #1
 522 002a 10BD     		pop	{r4, pc}
 523              	.LVL59:
 524              	.L46:
 160:Drivers/lvgl/src/draw/sw/lv_draw_sw.c ****         if(new_handler == NULL) {
 525              		.loc 1 160 9 is_stmt 1 view .LVU139
 160:Drivers/lvgl/src/draw/sw/lv_draw_sw.c ****         if(new_handler == NULL) {
 526              		.loc 1 160 23 is_stmt 0 view .LVU140
 527 002c 0248     		ldr	r0, .L47
 528              	.LVL60:
 160:Drivers/lvgl/src/draw/sw/lv_draw_sw.c ****         if(new_handler == NULL) {
 529              		.loc 1 160 23 view .LVU141
 530 002e FFF7FEFF 		bl	lv_ll_ins_head
 531              	.LVL61:
 161:Drivers/lvgl/src/draw/sw/lv_draw_sw.c ****             LV_ASSERT_MALLOC(new_handler);
 532              		.loc 1 161 9 is_stmt 1 view .LVU142
 161:Drivers/lvgl/src/draw/sw/lv_draw_sw.c ****             LV_ASSERT_MALLOC(new_handler);
 533              		.loc 1 161 11 is_stmt 0 view .LVU143
 534 0032 0028     		cmp	r0, #0
 535 0034 F4D1     		bne	.L42
 536              	.L43:
 162:Drivers/lvgl/src/draw/sw/lv_draw_sw.c ****             return false;
 537              		.loc 1 162 13 is_stmt 1 discriminator 1 view .LVU144
 162:Drivers/lvgl/src/draw/sw/lv_draw_sw.c ****             return false;
 538              		.loc 1 162 13 discriminator 1 view .LVU145
 162:Drivers/lvgl/src/draw/sw/lv_draw_sw.c ****             return false;
 539              		.loc 1 162 13 discriminator 1 view .LVU146
 162:Drivers/lvgl/src/draw/sw/lv_draw_sw.c ****             return false;
 540              		.loc 1 162 13 discriminator 1 view .LVU147
 162:Drivers/lvgl/src/draw/sw/lv_draw_sw.c ****             return false;
 541              		.loc 1 162 13 discriminator 1 view .LVU148
 542 0036 FEE7     		b	.L43
 543              	.L48:
 544              		.align	2
 545              	.L47:
 546 0038 3C010000 		.word	lv_global+316
ARM GAS  /tmp/ccARp3x3.s 			page 20


 547              		.cfi_endproc
 548              	.LFE189:
 550              		.section	.text.lv_draw_sw_unregister_blend_handler,"ax",%progbits
 551              		.align	1
 552              		.global	lv_draw_sw_unregister_blend_handler
 553              		.syntax unified
 554              		.thumb
 555              		.thumb_func
 557              	lv_draw_sw_unregister_blend_handler:
 558              	.LVL62:
 559              	.LFB190:
 172:Drivers/lvgl/src/draw/sw/lv_draw_sw.c ****     lv_draw_sw_custom_blend_handler_t * handler;
 560              		.loc 1 172 1 view -0
 561              		.cfi_startproc
 562              		@ args = 0, pretend = 0, frame = 0
 563              		@ frame_needed = 0, uses_anonymous_args = 0
 172:Drivers/lvgl/src/draw/sw/lv_draw_sw.c ****     lv_draw_sw_custom_blend_handler_t * handler;
 564              		.loc 1 172 1 is_stmt 0 view .LVU150
 565 0000 38B5     		push	{r3, r4, r5, lr}
 566              	.LCFI5:
 567              		.cfi_def_cfa_offset 16
 568              		.cfi_offset 3, -16
 569              		.cfi_offset 4, -12
 570              		.cfi_offset 5, -8
 571              		.cfi_offset 14, -4
 572 0002 0546     		mov	r5, r0
 173:Drivers/lvgl/src/draw/sw/lv_draw_sw.c **** 
 573              		.loc 1 173 5 is_stmt 1 view .LVU151
 175:Drivers/lvgl/src/draw/sw/lv_draw_sw.c ****         if(handler->dest_cf == dest_cf) {
 574              		.loc 1 175 5 view .LVU152
 575 0004 0C48     		ldr	r0, .L56
 576              	.LVL63:
 175:Drivers/lvgl/src/draw/sw/lv_draw_sw.c ****         if(handler->dest_cf == dest_cf) {
 577              		.loc 1 175 5 is_stmt 0 view .LVU153
 578 0006 FFF7FEFF 		bl	lv_ll_get_head
 579              	.LVL64:
 580 000a 0446     		mov	r4, r0
 581              	.LVL65:
 175:Drivers/lvgl/src/draw/sw/lv_draw_sw.c ****         if(handler->dest_cf == dest_cf) {
 582              		.loc 1 175 5 view .LVU154
 583 000c 04E0     		b	.L50
 584              	.LVL66:
 585              	.L51:
 175:Drivers/lvgl/src/draw/sw/lv_draw_sw.c ****         if(handler->dest_cf == dest_cf) {
 586              		.loc 1 175 5 is_stmt 1 discriminator 2 view .LVU155
 587 000e 2146     		mov	r1, r4
 588 0010 0948     		ldr	r0, .L56
 589 0012 FFF7FEFF 		bl	lv_ll_get_next
 590              	.LVL67:
 591 0016 0446     		mov	r4, r0
 592              	.LVL68:
 593              	.L50:
 175:Drivers/lvgl/src/draw/sw/lv_draw_sw.c ****         if(handler->dest_cf == dest_cf) {
 594              		.loc 1 175 5 discriminator 1 view .LVU156
 595 0018 5CB1     		cbz	r4, .L55
 176:Drivers/lvgl/src/draw/sw/lv_draw_sw.c ****             lv_ll_remove(&LV_GLOBAL_DEFAULT()->draw_sw_blend_handler_ll, handler);
 596              		.loc 1 176 9 view .LVU157
ARM GAS  /tmp/ccARp3x3.s 			page 21


 176:Drivers/lvgl/src/draw/sw/lv_draw_sw.c ****             lv_ll_remove(&LV_GLOBAL_DEFAULT()->draw_sw_blend_handler_ll, handler);
 597              		.loc 1 176 19 is_stmt 0 view .LVU158
 598 001a 2378     		ldrb	r3, [r4]	@ zero_extendqisi2
 176:Drivers/lvgl/src/draw/sw/lv_draw_sw.c ****             lv_ll_remove(&LV_GLOBAL_DEFAULT()->draw_sw_blend_handler_ll, handler);
 599              		.loc 1 176 11 view .LVU159
 600 001c AB42     		cmp	r3, r5
 601 001e F6D1     		bne	.L51
 177:Drivers/lvgl/src/draw/sw/lv_draw_sw.c ****             lv_free(handler);
 602              		.loc 1 177 13 is_stmt 1 view .LVU160
 603 0020 2146     		mov	r1, r4
 604 0022 0548     		ldr	r0, .L56
 605 0024 FFF7FEFF 		bl	lv_ll_remove
 606              	.LVL69:
 178:Drivers/lvgl/src/draw/sw/lv_draw_sw.c ****             return true;
 607              		.loc 1 178 13 view .LVU161
 608 0028 2046     		mov	r0, r4
 609 002a FFF7FEFF 		bl	lv_free
 610              	.LVL70:
 179:Drivers/lvgl/src/draw/sw/lv_draw_sw.c ****         }
 611              		.loc 1 179 13 view .LVU162
 179:Drivers/lvgl/src/draw/sw/lv_draw_sw.c ****         }
 612              		.loc 1 179 20 is_stmt 0 view .LVU163
 613 002e 0120     		movs	r0, #1
 614 0030 00E0     		b	.L52
 615              	.L55:
 183:Drivers/lvgl/src/draw/sw/lv_draw_sw.c **** }
 616              		.loc 1 183 12 view .LVU164
 617 0032 0020     		movs	r0, #0
 618              	.L52:
 184:Drivers/lvgl/src/draw/sw/lv_draw_sw.c **** 
 619              		.loc 1 184 1 view .LVU165
 620 0034 38BD     		pop	{r3, r4, r5, pc}
 621              	.LVL71:
 622              	.L57:
 184:Drivers/lvgl/src/draw/sw/lv_draw_sw.c **** 
 623              		.loc 1 184 1 view .LVU166
 624 0036 00BF     		.align	2
 625              	.L56:
 626 0038 3C010000 		.word	lv_global+316
 627              		.cfi_endproc
 628              	.LFE190:
 630              		.section	.text.lv_draw_sw_get_blend_handler,"ax",%progbits
 631              		.align	1
 632              		.global	lv_draw_sw_get_blend_handler
 633              		.syntax unified
 634              		.thumb
 635              		.thumb_func
 637              	lv_draw_sw_get_blend_handler:
 638              	.LVL72:
 639              	.LFB191:
 187:Drivers/lvgl/src/draw/sw/lv_draw_sw.c ****     lv_draw_sw_custom_blend_handler_t * handler;
 640              		.loc 1 187 1 is_stmt 1 view -0
 641              		.cfi_startproc
 642              		@ args = 0, pretend = 0, frame = 0
 643              		@ frame_needed = 0, uses_anonymous_args = 0
 187:Drivers/lvgl/src/draw/sw/lv_draw_sw.c ****     lv_draw_sw_custom_blend_handler_t * handler;
 644              		.loc 1 187 1 is_stmt 0 view .LVU168
ARM GAS  /tmp/ccARp3x3.s 			page 22


 645 0000 10B5     		push	{r4, lr}
 646              	.LCFI6:
 647              		.cfi_def_cfa_offset 8
 648              		.cfi_offset 4, -8
 649              		.cfi_offset 14, -4
 650 0002 0446     		mov	r4, r0
 188:Drivers/lvgl/src/draw/sw/lv_draw_sw.c **** 
 651              		.loc 1 188 5 is_stmt 1 view .LVU169
 190:Drivers/lvgl/src/draw/sw/lv_draw_sw.c ****         if(handler->dest_cf == dest_cf) {
 652              		.loc 1 190 5 view .LVU170
 653 0004 0848     		ldr	r0, .L65
 654              	.LVL73:
 190:Drivers/lvgl/src/draw/sw/lv_draw_sw.c ****         if(handler->dest_cf == dest_cf) {
 655              		.loc 1 190 5 is_stmt 0 view .LVU171
 656 0006 FFF7FEFF 		bl	lv_ll_get_head
 657              	.LVL74:
 658 000a 0146     		mov	r1, r0
 659              	.LVL75:
 190:Drivers/lvgl/src/draw/sw/lv_draw_sw.c ****         if(handler->dest_cf == dest_cf) {
 660              		.loc 1 190 5 view .LVU172
 661 000c 03E0     		b	.L59
 662              	.LVL76:
 663              	.L60:
 190:Drivers/lvgl/src/draw/sw/lv_draw_sw.c ****         if(handler->dest_cf == dest_cf) {
 664              		.loc 1 190 5 is_stmt 1 discriminator 2 view .LVU173
 665 000e 0648     		ldr	r0, .L65
 666 0010 FFF7FEFF 		bl	lv_ll_get_next
 667              	.LVL77:
 190:Drivers/lvgl/src/draw/sw/lv_draw_sw.c ****         if(handler->dest_cf == dest_cf) {
 668              		.loc 1 190 5 is_stmt 0 discriminator 2 view .LVU174
 669 0014 0146     		mov	r1, r0
 670              	.LVL78:
 671              	.L59:
 190:Drivers/lvgl/src/draw/sw/lv_draw_sw.c ****         if(handler->dest_cf == dest_cf) {
 672              		.loc 1 190 5 is_stmt 1 discriminator 1 view .LVU175
 673 0016 21B1     		cbz	r1, .L64
 191:Drivers/lvgl/src/draw/sw/lv_draw_sw.c ****             return handler->handler;
 674              		.loc 1 191 9 view .LVU176
 191:Drivers/lvgl/src/draw/sw/lv_draw_sw.c ****             return handler->handler;
 675              		.loc 1 191 19 is_stmt 0 view .LVU177
 676 0018 0B78     		ldrb	r3, [r1]	@ zero_extendqisi2
 191:Drivers/lvgl/src/draw/sw/lv_draw_sw.c ****             return handler->handler;
 677              		.loc 1 191 11 view .LVU178
 678 001a A342     		cmp	r3, r4
 679 001c F7D1     		bne	.L60
 192:Drivers/lvgl/src/draw/sw/lv_draw_sw.c ****         }
 680              		.loc 1 192 13 is_stmt 1 view .LVU179
 192:Drivers/lvgl/src/draw/sw/lv_draw_sw.c ****         }
 681              		.loc 1 192 27 is_stmt 0 view .LVU180
 682 001e 4868     		ldr	r0, [r1, #4]
 683 0020 00E0     		b	.L58
 684              	.L64:
 196:Drivers/lvgl/src/draw/sw/lv_draw_sw.c **** }
 685              		.loc 1 196 12 view .LVU181
 686 0022 0020     		movs	r0, #0
 687              	.L58:
 197:Drivers/lvgl/src/draw/sw/lv_draw_sw.c **** 
ARM GAS  /tmp/ccARp3x3.s 			page 23


 688              		.loc 1 197 1 view .LVU182
 689 0024 10BD     		pop	{r4, pc}
 690              	.LVL79:
 691              	.L66:
 197:Drivers/lvgl/src/draw/sw/lv_draw_sw.c **** 
 692              		.loc 1 197 1 view .LVU183
 693 0026 00BF     		.align	2
 694              	.L65:
 695 0028 3C010000 		.word	lv_global+316
 696              		.cfi_endproc
 697              	.LFE191:
 699              		.text
 700              	.Letext0:
 701              		.file 2 "/usr/arm-none-eabi/include/machine/_default_types.h"
 702              		.file 3 "/usr/arm-none-eabi/include/sys/_stdint.h"
 703              		.file 4 "/usr/lib/gcc/arm-none-eabi/14.2.0/include/stddef.h"
 704              		.file 5 "Drivers/lvgl/src/draw/sw/../../misc/lv_types.h"
 705              		.file 6 "Drivers/lvgl/src/draw/sw/../../display/lv_display_private.h"
 706              		.file 7 "Drivers/lvgl/src/draw/sw/../lv_draw.h"
 707              		.file 8 "Drivers/lvgl/src/draw/sw/../lv_draw_private.h"
 708              		.file 9 "Drivers/lvgl/src/draw/sw/../../core/../misc/lv_timer_private.h"
 709              		.file 10 "Drivers/lvgl/src/draw/sw/../../misc/../font/lv_font.h"
 710              		.file 11 "Drivers/lvgl/src/draw/sw/../lv_draw_image.h"
 711              		.file 12 "Drivers/lvgl/src/draw/sw/../../misc/cache/lv_cache_private.h"
 712              		.file 13 "Drivers/lvgl/src/draw/sw/lv_draw_sw_private.h"
 713              		.file 14 "Drivers/lvgl/src/draw/sw/../../core/../draw/lv_draw_buf_private.h"
 714              		.file 15 "Drivers/lvgl/src/draw/sw/../../display/../misc/lv_array.h"
 715              		.file 16 "Drivers/lvgl/src/draw/sw/../../misc/../font/../draw/lv_draw_buf.h"
 716              		.file 17 "Drivers/lvgl/src/draw/sw/../../misc/../font/../draw/../misc/lv_area.h"
 717              		.file 18 "Drivers/lvgl/src/draw/sw/../../misc/../font/../draw/../misc/lv_color.h"
 718              		.file 19 "Drivers/lvgl/src/draw/sw/../../misc/../font/../draw/lv_image_dsc.h"
 719              		.file 20 "Drivers/lvgl/src/draw/sw/../../misc/../tick/lv_tick.h"
 720              		.file 21 "Drivers/lvgl/src/draw/sw/../../misc/lv_ll.h"
 721              		.file 22 "Drivers/lvgl/src/draw/sw/../../misc/lv_timer.h"
 722              		.file 23 "Drivers/lvgl/src/draw/sw/../../misc/lv_text.h"
 723              		.file 24 "Drivers/lvgl/src/draw/sw/../../misc/lv_bidi.h"
 724              		.file 25 "Drivers/lvgl/src/draw/sw/../../misc/lv_grad.h"
 725              		.file 26 "Drivers/lvgl/src/draw/sw/../../misc/../layouts/lv_layout.h"
 726              		.file 27 "Drivers/lvgl/src/draw/sw/../../misc/lv_style.h"
 727              		.file 28 "Drivers/lvgl/src/draw/sw/../../display/../misc/lv_event.h"
 728              		.file 29 "Drivers/lvgl/src/draw/sw/../../display/lv_display.h"
 729              		.file 30 "Drivers/lvgl/src/draw/sw/../../osal/lv_os_none.h"
 730              		.file 31 "Drivers/lvgl/src/draw/sw/../lv_draw_rect.h"
 731              		.file 32 "Drivers/lvgl/src/draw/sw/../lv_draw_triangle.h"
 732              		.file 33 "Drivers/lvgl/src/draw/sw/../lv_draw_label.h"
 733              		.file 34 "Drivers/lvgl/src/draw/sw/../lv_draw_line.h"
 734              		.file 35 "Drivers/lvgl/src/draw/sw/../lv_draw_arc.h"
 735              		.file 36 "Drivers/lvgl/src/draw/sw/blend/lv_draw_sw_blend.h"
 736              		.file 37 "Drivers/lvgl/src/draw/sw/../../core/../misc/lv_anim_private.h"
 737              		.file 38 "Drivers/lvgl/src/draw/sw/../../core/../tick/lv_tick_private.h"
 738              		.file 39 "Drivers/lvgl/src/draw/sw/../../core/../draw/sw/lv_draw_sw_mask_private.h"
 739              		.file 40 "Drivers/lvgl/src/draw/sw/../../core/../layouts/lv_layout_private.h"
 740              		.file 41 "Drivers/lvgl/src/draw/sw/../../core/lv_global.h"
 741              		.file 42 "Drivers/lvgl/src/draw/sw/../../misc/../font/../draw/../misc/../stdlib/lv_mem.h"
 742              		.file 43 "Drivers/lvgl/src/draw/sw/../../misc/../font/../draw/../misc/../stdlib/lv_string.h"
 743              		.file 44 "Drivers/lvgl/src/draw/sw/lv_draw_sw.h"
 744              		.file 45 "Drivers/lvgl/src/draw/sw/blend/../lv_draw_sw_mask.h"
ARM GAS  /tmp/ccARp3x3.s 			page 24


ARM GAS  /tmp/ccARp3x3.s 			page 25

