ARM GAS  /tmp/ccgnsg21.s 			page 1


   1              		.cpu cortex-m7
   2              		.arch armv7e-m
   3              		.fpu fpv5-sp-d16
   4              		.eabi_attribute 27, 1
   5              		.eabi_attribute 28, 1
   6              		.eabi_attribute 20, 1
   7              		.eabi_attribute 21, 1
   8              		.eabi_attribute 23, 3
   9              		.eabi_attribute 24, 1
  10              		.eabi_attribute 25, 1
  11              		.eabi_attribute 26, 1
  12              		.eabi_attribute 30, 1
  13              		.eabi_attribute 34, 1
  14              		.eabi_attribute 18, 4
  15              		.file	"lv_draw_sw_border.c"
  16              		.text
  17              	.Ltext0:
  18              		.cfi_sections	.debug_frame
  19              		.file 1 "Drivers/lvgl/src/draw/sw/lv_draw_sw_border.c"
  20              		.section	.text.draw_border_simple,"ax",%progbits
  21              		.align	1
  22              		.syntax unified
  23              		.thumb
  24              		.thumb_func
  26              	draw_border_simple:
  27              	.LVL0:
  28              	.LFB188:
   1:Drivers/lvgl/src/draw/sw/lv_draw_sw_border.c **** /**
   2:Drivers/lvgl/src/draw/sw/lv_draw_sw_border.c ****  * @file lv_draw_sw_border.c
   3:Drivers/lvgl/src/draw/sw/lv_draw_sw_border.c ****  *
   4:Drivers/lvgl/src/draw/sw/lv_draw_sw_border.c ****  */
   5:Drivers/lvgl/src/draw/sw/lv_draw_sw_border.c **** 
   6:Drivers/lvgl/src/draw/sw/lv_draw_sw_border.c **** /*********************
   7:Drivers/lvgl/src/draw/sw/lv_draw_sw_border.c ****  *      INCLUDES
   8:Drivers/lvgl/src/draw/sw/lv_draw_sw_border.c ****  *********************/
   9:Drivers/lvgl/src/draw/sw/lv_draw_sw_border.c **** #include "../../misc/lv_area_private.h"
  10:Drivers/lvgl/src/draw/sw/lv_draw_sw_border.c **** #include "lv_draw_sw_mask_private.h"
  11:Drivers/lvgl/src/draw/sw/lv_draw_sw_border.c **** #include "../lv_draw_private.h"
  12:Drivers/lvgl/src/draw/sw/lv_draw_sw_border.c **** #include "../lv_draw_private.h"
  13:Drivers/lvgl/src/draw/sw/lv_draw_sw_border.c **** #include "lv_draw_sw.h"
  14:Drivers/lvgl/src/draw/sw/lv_draw_sw_border.c **** #if LV_USE_DRAW_SW
  15:Drivers/lvgl/src/draw/sw/lv_draw_sw_border.c **** 
  16:Drivers/lvgl/src/draw/sw/lv_draw_sw_border.c **** #include "blend/lv_draw_sw_blend_private.h"
  17:Drivers/lvgl/src/draw/sw/lv_draw_sw_border.c **** #include "../../misc/lv_math.h"
  18:Drivers/lvgl/src/draw/sw/lv_draw_sw_border.c **** #include "../../misc/lv_text_ap.h"
  19:Drivers/lvgl/src/draw/sw/lv_draw_sw_border.c **** #include "../../core/lv_refr.h"
  20:Drivers/lvgl/src/draw/sw/lv_draw_sw_border.c **** #include "../../misc/lv_assert.h"
  21:Drivers/lvgl/src/draw/sw/lv_draw_sw_border.c **** #include "../../stdlib/lv_string.h"
  22:Drivers/lvgl/src/draw/sw/lv_draw_sw_border.c **** #include "../lv_draw_mask.h"
  23:Drivers/lvgl/src/draw/sw/lv_draw_sw_border.c **** 
  24:Drivers/lvgl/src/draw/sw/lv_draw_sw_border.c **** /*********************
  25:Drivers/lvgl/src/draw/sw/lv_draw_sw_border.c ****  *      DEFINES
  26:Drivers/lvgl/src/draw/sw/lv_draw_sw_border.c ****  *********************/
  27:Drivers/lvgl/src/draw/sw/lv_draw_sw_border.c **** #define SPLIT_LIMIT             50
  28:Drivers/lvgl/src/draw/sw/lv_draw_sw_border.c **** 
  29:Drivers/lvgl/src/draw/sw/lv_draw_sw_border.c **** /**********************
  30:Drivers/lvgl/src/draw/sw/lv_draw_sw_border.c ****  *      TYPEDEFS
ARM GAS  /tmp/ccgnsg21.s 			page 2


  31:Drivers/lvgl/src/draw/sw/lv_draw_sw_border.c ****  **********************/
  32:Drivers/lvgl/src/draw/sw/lv_draw_sw_border.c **** 
  33:Drivers/lvgl/src/draw/sw/lv_draw_sw_border.c **** /**********************
  34:Drivers/lvgl/src/draw/sw/lv_draw_sw_border.c ****  *  STATIC PROTOTYPES
  35:Drivers/lvgl/src/draw/sw/lv_draw_sw_border.c ****  **********************/
  36:Drivers/lvgl/src/draw/sw/lv_draw_sw_border.c **** static void draw_border_complex(lv_draw_task_t * t, const lv_area_t * outer_area, const lv_area_t *
  37:Drivers/lvgl/src/draw/sw/lv_draw_sw_border.c ****                                 int32_t rout, int32_t rin, lv_color_t color, lv_opa_t opa);
  38:Drivers/lvgl/src/draw/sw/lv_draw_sw_border.c **** 
  39:Drivers/lvgl/src/draw/sw/lv_draw_sw_border.c **** static void draw_border_simple(lv_draw_task_t * t, const lv_area_t * outer_area, const lv_area_t * 
  40:Drivers/lvgl/src/draw/sw/lv_draw_sw_border.c ****                                lv_color_t color, lv_opa_t opa);
  41:Drivers/lvgl/src/draw/sw/lv_draw_sw_border.c **** 
  42:Drivers/lvgl/src/draw/sw/lv_draw_sw_border.c **** /**********************
  43:Drivers/lvgl/src/draw/sw/lv_draw_sw_border.c ****  *  STATIC VARIABLES
  44:Drivers/lvgl/src/draw/sw/lv_draw_sw_border.c ****  **********************/
  45:Drivers/lvgl/src/draw/sw/lv_draw_sw_border.c **** 
  46:Drivers/lvgl/src/draw/sw/lv_draw_sw_border.c **** /**********************
  47:Drivers/lvgl/src/draw/sw/lv_draw_sw_border.c ****  *      MACROS
  48:Drivers/lvgl/src/draw/sw/lv_draw_sw_border.c ****  **********************/
  49:Drivers/lvgl/src/draw/sw/lv_draw_sw_border.c **** 
  50:Drivers/lvgl/src/draw/sw/lv_draw_sw_border.c **** /**********************
  51:Drivers/lvgl/src/draw/sw/lv_draw_sw_border.c ****  *   GLOBAL FUNCTIONS
  52:Drivers/lvgl/src/draw/sw/lv_draw_sw_border.c ****  **********************/
  53:Drivers/lvgl/src/draw/sw/lv_draw_sw_border.c **** 
  54:Drivers/lvgl/src/draw/sw/lv_draw_sw_border.c **** void lv_draw_sw_border(lv_draw_task_t * t, const lv_draw_border_dsc_t * dsc, const lv_area_t * coor
  55:Drivers/lvgl/src/draw/sw/lv_draw_sw_border.c **** {
  56:Drivers/lvgl/src/draw/sw/lv_draw_sw_border.c ****     if(dsc->opa <= LV_OPA_MIN) return;
  57:Drivers/lvgl/src/draw/sw/lv_draw_sw_border.c ****     if(dsc->width == 0) return;
  58:Drivers/lvgl/src/draw/sw/lv_draw_sw_border.c ****     if(dsc->side == LV_BORDER_SIDE_NONE) return;
  59:Drivers/lvgl/src/draw/sw/lv_draw_sw_border.c **** 
  60:Drivers/lvgl/src/draw/sw/lv_draw_sw_border.c ****     int32_t coords_w = lv_area_get_width(coords);
  61:Drivers/lvgl/src/draw/sw/lv_draw_sw_border.c ****     int32_t coords_h = lv_area_get_height(coords);
  62:Drivers/lvgl/src/draw/sw/lv_draw_sw_border.c ****     int32_t rout = dsc->radius;
  63:Drivers/lvgl/src/draw/sw/lv_draw_sw_border.c ****     int32_t short_side = LV_MIN(coords_w, coords_h);
  64:Drivers/lvgl/src/draw/sw/lv_draw_sw_border.c ****     if(rout > short_side >> 1) rout = short_side >> 1;
  65:Drivers/lvgl/src/draw/sw/lv_draw_sw_border.c **** 
  66:Drivers/lvgl/src/draw/sw/lv_draw_sw_border.c ****     /*Get the inner area*/
  67:Drivers/lvgl/src/draw/sw/lv_draw_sw_border.c ****     lv_area_t area_inner;
  68:Drivers/lvgl/src/draw/sw/lv_draw_sw_border.c ****     lv_area_copy(&area_inner, coords);
  69:Drivers/lvgl/src/draw/sw/lv_draw_sw_border.c ****     area_inner.x1 += ((dsc->side & LV_BORDER_SIDE_LEFT) ? dsc->width : - (dsc->width + rout));
  70:Drivers/lvgl/src/draw/sw/lv_draw_sw_border.c ****     area_inner.x2 -= ((dsc->side & LV_BORDER_SIDE_RIGHT) ? dsc->width : - (dsc->width + rout));
  71:Drivers/lvgl/src/draw/sw/lv_draw_sw_border.c ****     area_inner.y1 += ((dsc->side & LV_BORDER_SIDE_TOP) ? dsc->width : - (dsc->width + rout));
  72:Drivers/lvgl/src/draw/sw/lv_draw_sw_border.c ****     area_inner.y2 -= ((dsc->side & LV_BORDER_SIDE_BOTTOM) ? dsc->width : - (dsc->width + rout));
  73:Drivers/lvgl/src/draw/sw/lv_draw_sw_border.c **** 
  74:Drivers/lvgl/src/draw/sw/lv_draw_sw_border.c ****     int32_t rin = rout - dsc->width;
  75:Drivers/lvgl/src/draw/sw/lv_draw_sw_border.c ****     if(rin < 0) rin = 0;
  76:Drivers/lvgl/src/draw/sw/lv_draw_sw_border.c **** 
  77:Drivers/lvgl/src/draw/sw/lv_draw_sw_border.c ****     if(rout == 0 && rin == 0) {
  78:Drivers/lvgl/src/draw/sw/lv_draw_sw_border.c ****         draw_border_simple(t, coords, &area_inner, dsc->color, dsc->opa);
  79:Drivers/lvgl/src/draw/sw/lv_draw_sw_border.c ****     }
  80:Drivers/lvgl/src/draw/sw/lv_draw_sw_border.c ****     else {
  81:Drivers/lvgl/src/draw/sw/lv_draw_sw_border.c ****         draw_border_complex(t, coords, &area_inner, rout, rin, dsc->color, dsc->opa);
  82:Drivers/lvgl/src/draw/sw/lv_draw_sw_border.c ****     }
  83:Drivers/lvgl/src/draw/sw/lv_draw_sw_border.c **** 
  84:Drivers/lvgl/src/draw/sw/lv_draw_sw_border.c **** }
  85:Drivers/lvgl/src/draw/sw/lv_draw_sw_border.c **** 
  86:Drivers/lvgl/src/draw/sw/lv_draw_sw_border.c **** /**********************
  87:Drivers/lvgl/src/draw/sw/lv_draw_sw_border.c ****  *   STATIC FUNCTIONS
ARM GAS  /tmp/ccgnsg21.s 			page 3


  88:Drivers/lvgl/src/draw/sw/lv_draw_sw_border.c ****  **********************/
  89:Drivers/lvgl/src/draw/sw/lv_draw_sw_border.c **** 
  90:Drivers/lvgl/src/draw/sw/lv_draw_sw_border.c **** void draw_border_complex(lv_draw_task_t * t, const lv_area_t * outer_area, const lv_area_t * inner_
  91:Drivers/lvgl/src/draw/sw/lv_draw_sw_border.c ****                          int32_t rout, int32_t rin, lv_color_t color, lv_opa_t opa)
  92:Drivers/lvgl/src/draw/sw/lv_draw_sw_border.c **** {
  93:Drivers/lvgl/src/draw/sw/lv_draw_sw_border.c **** #if LV_DRAW_SW_COMPLEX
  94:Drivers/lvgl/src/draw/sw/lv_draw_sw_border.c ****     /*Get clipped draw area which is the real draw area.
  95:Drivers/lvgl/src/draw/sw/lv_draw_sw_border.c ****      *It is always the same or inside `coords`*/
  96:Drivers/lvgl/src/draw/sw/lv_draw_sw_border.c ****     lv_area_t draw_area;
  97:Drivers/lvgl/src/draw/sw/lv_draw_sw_border.c ****     if(!lv_area_intersect(&draw_area, outer_area, &t->clip_area)) return;
  98:Drivers/lvgl/src/draw/sw/lv_draw_sw_border.c ****     int32_t draw_area_w = lv_area_get_width(&draw_area);
  99:Drivers/lvgl/src/draw/sw/lv_draw_sw_border.c **** 
 100:Drivers/lvgl/src/draw/sw/lv_draw_sw_border.c ****     lv_draw_sw_blend_dsc_t blend_dsc;
 101:Drivers/lvgl/src/draw/sw/lv_draw_sw_border.c ****     lv_memzero(&blend_dsc, sizeof(blend_dsc));
 102:Drivers/lvgl/src/draw/sw/lv_draw_sw_border.c ****     lv_opa_t * mask_buf = lv_malloc(draw_area_w);
 103:Drivers/lvgl/src/draw/sw/lv_draw_sw_border.c ****     blend_dsc.mask_buf = mask_buf;
 104:Drivers/lvgl/src/draw/sw/lv_draw_sw_border.c **** 
 105:Drivers/lvgl/src/draw/sw/lv_draw_sw_border.c ****     void * mask_list[3] = {0};
 106:Drivers/lvgl/src/draw/sw/lv_draw_sw_border.c **** 
 107:Drivers/lvgl/src/draw/sw/lv_draw_sw_border.c ****     /*Create mask for the inner mask*/
 108:Drivers/lvgl/src/draw/sw/lv_draw_sw_border.c ****     lv_draw_sw_mask_radius_param_t mask_rin_param;
 109:Drivers/lvgl/src/draw/sw/lv_draw_sw_border.c ****     lv_draw_sw_mask_radius_init(&mask_rin_param, inner_area, rin, true);
 110:Drivers/lvgl/src/draw/sw/lv_draw_sw_border.c ****     mask_list[0] = &mask_rin_param;
 111:Drivers/lvgl/src/draw/sw/lv_draw_sw_border.c **** 
 112:Drivers/lvgl/src/draw/sw/lv_draw_sw_border.c ****     /*Create mask for the outer area*/
 113:Drivers/lvgl/src/draw/sw/lv_draw_sw_border.c ****     lv_draw_sw_mask_radius_param_t mask_rout_param;
 114:Drivers/lvgl/src/draw/sw/lv_draw_sw_border.c ****     if(rout > 0) {
 115:Drivers/lvgl/src/draw/sw/lv_draw_sw_border.c ****         lv_draw_sw_mask_radius_init(&mask_rout_param, outer_area, rout, false);
 116:Drivers/lvgl/src/draw/sw/lv_draw_sw_border.c ****         mask_list[1] = &mask_rout_param;
 117:Drivers/lvgl/src/draw/sw/lv_draw_sw_border.c ****     }
 118:Drivers/lvgl/src/draw/sw/lv_draw_sw_border.c **** 
 119:Drivers/lvgl/src/draw/sw/lv_draw_sw_border.c ****     int32_t h;
 120:Drivers/lvgl/src/draw/sw/lv_draw_sw_border.c ****     lv_area_t blend_area;
 121:Drivers/lvgl/src/draw/sw/lv_draw_sw_border.c ****     blend_dsc.blend_area = &blend_area;
 122:Drivers/lvgl/src/draw/sw/lv_draw_sw_border.c ****     blend_dsc.mask_area = &blend_area;
 123:Drivers/lvgl/src/draw/sw/lv_draw_sw_border.c ****     blend_dsc.color = color;
 124:Drivers/lvgl/src/draw/sw/lv_draw_sw_border.c ****     blend_dsc.opa = opa;
 125:Drivers/lvgl/src/draw/sw/lv_draw_sw_border.c **** 
 126:Drivers/lvgl/src/draw/sw/lv_draw_sw_border.c ****     /*Calculate the x and y coordinates where the straight parts area is*/
 127:Drivers/lvgl/src/draw/sw/lv_draw_sw_border.c ****     lv_area_t core_area;
 128:Drivers/lvgl/src/draw/sw/lv_draw_sw_border.c ****     core_area.x1 = LV_MAX(outer_area->x1 + rout, inner_area->x1);
 129:Drivers/lvgl/src/draw/sw/lv_draw_sw_border.c ****     core_area.x2 = LV_MIN(outer_area->x2 - rout, inner_area->x2);
 130:Drivers/lvgl/src/draw/sw/lv_draw_sw_border.c ****     core_area.y1 = LV_MAX(outer_area->y1 + rout, inner_area->y1);
 131:Drivers/lvgl/src/draw/sw/lv_draw_sw_border.c ****     core_area.y2 = LV_MIN(outer_area->y2 - rout, inner_area->y2);
 132:Drivers/lvgl/src/draw/sw/lv_draw_sw_border.c ****     int32_t core_w = lv_area_get_width(&core_area);
 133:Drivers/lvgl/src/draw/sw/lv_draw_sw_border.c **** 
 134:Drivers/lvgl/src/draw/sw/lv_draw_sw_border.c ****     bool top_side = outer_area->y1 <= inner_area->y1;
 135:Drivers/lvgl/src/draw/sw/lv_draw_sw_border.c ****     bool bottom_side = outer_area->y2 >= inner_area->y2;
 136:Drivers/lvgl/src/draw/sw/lv_draw_sw_border.c **** 
 137:Drivers/lvgl/src/draw/sw/lv_draw_sw_border.c ****     /*No masks*/
 138:Drivers/lvgl/src/draw/sw/lv_draw_sw_border.c ****     bool left_side = outer_area->x1 <= inner_area->x1;
 139:Drivers/lvgl/src/draw/sw/lv_draw_sw_border.c ****     bool right_side = outer_area->x2 >= inner_area->x2;
 140:Drivers/lvgl/src/draw/sw/lv_draw_sw_border.c **** 
 141:Drivers/lvgl/src/draw/sw/lv_draw_sw_border.c ****     bool split_hor = true;
 142:Drivers/lvgl/src/draw/sw/lv_draw_sw_border.c ****     if(left_side && right_side && top_side && bottom_side &&
 143:Drivers/lvgl/src/draw/sw/lv_draw_sw_border.c ****        core_w < SPLIT_LIMIT) {
 144:Drivers/lvgl/src/draw/sw/lv_draw_sw_border.c ****         split_hor = false;
ARM GAS  /tmp/ccgnsg21.s 			page 4


 145:Drivers/lvgl/src/draw/sw/lv_draw_sw_border.c ****     }
 146:Drivers/lvgl/src/draw/sw/lv_draw_sw_border.c **** 
 147:Drivers/lvgl/src/draw/sw/lv_draw_sw_border.c ****     blend_dsc.mask_res = LV_DRAW_SW_MASK_RES_FULL_COVER;
 148:Drivers/lvgl/src/draw/sw/lv_draw_sw_border.c ****     /*Draw the straight lines first if they are long enough*/
 149:Drivers/lvgl/src/draw/sw/lv_draw_sw_border.c ****     if(top_side && split_hor) {
 150:Drivers/lvgl/src/draw/sw/lv_draw_sw_border.c ****         blend_area.x1 = core_area.x1;
 151:Drivers/lvgl/src/draw/sw/lv_draw_sw_border.c ****         blend_area.x2 = core_area.x2;
 152:Drivers/lvgl/src/draw/sw/lv_draw_sw_border.c ****         blend_area.y1 = outer_area->y1;
 153:Drivers/lvgl/src/draw/sw/lv_draw_sw_border.c ****         blend_area.y2 = inner_area->y1 - 1;
 154:Drivers/lvgl/src/draw/sw/lv_draw_sw_border.c ****         lv_draw_sw_blend(t, &blend_dsc);
 155:Drivers/lvgl/src/draw/sw/lv_draw_sw_border.c ****     }
 156:Drivers/lvgl/src/draw/sw/lv_draw_sw_border.c **** 
 157:Drivers/lvgl/src/draw/sw/lv_draw_sw_border.c ****     if(bottom_side && split_hor) {
 158:Drivers/lvgl/src/draw/sw/lv_draw_sw_border.c ****         blend_area.x1 = core_area.x1;
 159:Drivers/lvgl/src/draw/sw/lv_draw_sw_border.c ****         blend_area.x2 = core_area.x2;
 160:Drivers/lvgl/src/draw/sw/lv_draw_sw_border.c ****         blend_area.y1 = inner_area->y2 + 1;
 161:Drivers/lvgl/src/draw/sw/lv_draw_sw_border.c ****         blend_area.y2 = outer_area->y2;
 162:Drivers/lvgl/src/draw/sw/lv_draw_sw_border.c ****         lv_draw_sw_blend(t, &blend_dsc);
 163:Drivers/lvgl/src/draw/sw/lv_draw_sw_border.c ****     }
 164:Drivers/lvgl/src/draw/sw/lv_draw_sw_border.c **** 
 165:Drivers/lvgl/src/draw/sw/lv_draw_sw_border.c ****     /*If the border is very thick and the vertical sides overlap horizontally draw a single rectang
 166:Drivers/lvgl/src/draw/sw/lv_draw_sw_border.c ****     if(inner_area->x1 >= inner_area->x2 && left_side && right_side) {
 167:Drivers/lvgl/src/draw/sw/lv_draw_sw_border.c ****         blend_area.x1 = outer_area->x1;
 168:Drivers/lvgl/src/draw/sw/lv_draw_sw_border.c ****         blend_area.x2 = outer_area->x2;
 169:Drivers/lvgl/src/draw/sw/lv_draw_sw_border.c ****         blend_area.y1 = core_area.y1;
 170:Drivers/lvgl/src/draw/sw/lv_draw_sw_border.c ****         blend_area.y2 = core_area.y2;
 171:Drivers/lvgl/src/draw/sw/lv_draw_sw_border.c ****         lv_draw_sw_blend(t, &blend_dsc);
 172:Drivers/lvgl/src/draw/sw/lv_draw_sw_border.c ****     }
 173:Drivers/lvgl/src/draw/sw/lv_draw_sw_border.c ****     else {
 174:Drivers/lvgl/src/draw/sw/lv_draw_sw_border.c ****         if(left_side) {
 175:Drivers/lvgl/src/draw/sw/lv_draw_sw_border.c ****             blend_area.x1 = outer_area->x1;
 176:Drivers/lvgl/src/draw/sw/lv_draw_sw_border.c ****             blend_area.x2 = inner_area->x1 - 1;
 177:Drivers/lvgl/src/draw/sw/lv_draw_sw_border.c ****             blend_area.y1 = core_area.y1;
 178:Drivers/lvgl/src/draw/sw/lv_draw_sw_border.c ****             blend_area.y2 = core_area.y2;
 179:Drivers/lvgl/src/draw/sw/lv_draw_sw_border.c ****             lv_draw_sw_blend(t, &blend_dsc);
 180:Drivers/lvgl/src/draw/sw/lv_draw_sw_border.c ****         }
 181:Drivers/lvgl/src/draw/sw/lv_draw_sw_border.c **** 
 182:Drivers/lvgl/src/draw/sw/lv_draw_sw_border.c ****         if(right_side) {
 183:Drivers/lvgl/src/draw/sw/lv_draw_sw_border.c ****             blend_area.x1 = inner_area->x2 + 1;
 184:Drivers/lvgl/src/draw/sw/lv_draw_sw_border.c ****             blend_area.x2 = outer_area->x2;
 185:Drivers/lvgl/src/draw/sw/lv_draw_sw_border.c ****             blend_area.y1 = core_area.y1;
 186:Drivers/lvgl/src/draw/sw/lv_draw_sw_border.c ****             blend_area.y2 = core_area.y2;
 187:Drivers/lvgl/src/draw/sw/lv_draw_sw_border.c ****             lv_draw_sw_blend(t, &blend_dsc);
 188:Drivers/lvgl/src/draw/sw/lv_draw_sw_border.c ****         }
 189:Drivers/lvgl/src/draw/sw/lv_draw_sw_border.c ****     }
 190:Drivers/lvgl/src/draw/sw/lv_draw_sw_border.c **** 
 191:Drivers/lvgl/src/draw/sw/lv_draw_sw_border.c ****     /*Draw the corners*/
 192:Drivers/lvgl/src/draw/sw/lv_draw_sw_border.c ****     int32_t blend_w;
 193:Drivers/lvgl/src/draw/sw/lv_draw_sw_border.c **** 
 194:Drivers/lvgl/src/draw/sw/lv_draw_sw_border.c ****     /*Left and right corner together if they are close to each other*/
 195:Drivers/lvgl/src/draw/sw/lv_draw_sw_border.c ****     if(!split_hor) {
 196:Drivers/lvgl/src/draw/sw/lv_draw_sw_border.c ****         /*Calculate the top corner and mirror it to the bottom*/
 197:Drivers/lvgl/src/draw/sw/lv_draw_sw_border.c ****         blend_area.x1 = draw_area.x1;
 198:Drivers/lvgl/src/draw/sw/lv_draw_sw_border.c ****         blend_area.x2 = draw_area.x2;
 199:Drivers/lvgl/src/draw/sw/lv_draw_sw_border.c ****         int32_t max_h = LV_MAX(rout, inner_area->y1 - outer_area->y1);
 200:Drivers/lvgl/src/draw/sw/lv_draw_sw_border.c ****         for(h = 0; h < max_h; h++) {
 201:Drivers/lvgl/src/draw/sw/lv_draw_sw_border.c ****             int32_t top_y = outer_area->y1 + h;
ARM GAS  /tmp/ccgnsg21.s 			page 5


 202:Drivers/lvgl/src/draw/sw/lv_draw_sw_border.c ****             int32_t bottom_y = outer_area->y2 - h;
 203:Drivers/lvgl/src/draw/sw/lv_draw_sw_border.c ****             if(top_y < draw_area.y1 && bottom_y > draw_area.y2) continue;   /*This line is clipped 
 204:Drivers/lvgl/src/draw/sw/lv_draw_sw_border.c **** 
 205:Drivers/lvgl/src/draw/sw/lv_draw_sw_border.c ****             lv_memset(mask_buf, 0xff, draw_area_w);
 206:Drivers/lvgl/src/draw/sw/lv_draw_sw_border.c ****             blend_dsc.mask_res = lv_draw_sw_mask_apply(mask_list, mask_buf, blend_area.x1, top_y, d
 207:Drivers/lvgl/src/draw/sw/lv_draw_sw_border.c **** 
 208:Drivers/lvgl/src/draw/sw/lv_draw_sw_border.c ****             if(top_y >= draw_area.y1) {
 209:Drivers/lvgl/src/draw/sw/lv_draw_sw_border.c ****                 blend_area.y1 = top_y;
 210:Drivers/lvgl/src/draw/sw/lv_draw_sw_border.c ****                 blend_area.y2 = top_y;
 211:Drivers/lvgl/src/draw/sw/lv_draw_sw_border.c ****                 lv_draw_sw_blend(t, &blend_dsc);
 212:Drivers/lvgl/src/draw/sw/lv_draw_sw_border.c ****             }
 213:Drivers/lvgl/src/draw/sw/lv_draw_sw_border.c **** 
 214:Drivers/lvgl/src/draw/sw/lv_draw_sw_border.c ****             if(bottom_y <= draw_area.y2) {
 215:Drivers/lvgl/src/draw/sw/lv_draw_sw_border.c ****                 blend_area.y1 = bottom_y;
 216:Drivers/lvgl/src/draw/sw/lv_draw_sw_border.c ****                 blend_area.y2 = bottom_y;
 217:Drivers/lvgl/src/draw/sw/lv_draw_sw_border.c ****                 lv_draw_sw_blend(t, &blend_dsc);
 218:Drivers/lvgl/src/draw/sw/lv_draw_sw_border.c ****             }
 219:Drivers/lvgl/src/draw/sw/lv_draw_sw_border.c ****         }
 220:Drivers/lvgl/src/draw/sw/lv_draw_sw_border.c ****     }
 221:Drivers/lvgl/src/draw/sw/lv_draw_sw_border.c ****     else {
 222:Drivers/lvgl/src/draw/sw/lv_draw_sw_border.c ****         /*Left corners*/
 223:Drivers/lvgl/src/draw/sw/lv_draw_sw_border.c ****         blend_area.x1 = draw_area.x1;
 224:Drivers/lvgl/src/draw/sw/lv_draw_sw_border.c ****         blend_area.x2 = LV_MIN(draw_area.x2, core_area.x1 - 1);
 225:Drivers/lvgl/src/draw/sw/lv_draw_sw_border.c ****         blend_w = lv_area_get_width(&blend_area);
 226:Drivers/lvgl/src/draw/sw/lv_draw_sw_border.c ****         if(blend_w > 0) {
 227:Drivers/lvgl/src/draw/sw/lv_draw_sw_border.c ****             if(left_side || top_side) {
 228:Drivers/lvgl/src/draw/sw/lv_draw_sw_border.c ****                 for(h = draw_area.y1; h < core_area.y1; h++) {
 229:Drivers/lvgl/src/draw/sw/lv_draw_sw_border.c ****                     blend_area.y1 = h;
 230:Drivers/lvgl/src/draw/sw/lv_draw_sw_border.c ****                     blend_area.y2 = h;
 231:Drivers/lvgl/src/draw/sw/lv_draw_sw_border.c **** 
 232:Drivers/lvgl/src/draw/sw/lv_draw_sw_border.c ****                     lv_memset(mask_buf, 0xff, blend_w);
 233:Drivers/lvgl/src/draw/sw/lv_draw_sw_border.c ****                     blend_dsc.mask_res = lv_draw_sw_mask_apply(mask_list, mask_buf, blend_area.x1, 
 234:Drivers/lvgl/src/draw/sw/lv_draw_sw_border.c ****                     lv_draw_sw_blend(t, &blend_dsc);
 235:Drivers/lvgl/src/draw/sw/lv_draw_sw_border.c ****                 }
 236:Drivers/lvgl/src/draw/sw/lv_draw_sw_border.c ****             }
 237:Drivers/lvgl/src/draw/sw/lv_draw_sw_border.c **** 
 238:Drivers/lvgl/src/draw/sw/lv_draw_sw_border.c ****             if(left_side || bottom_side) {
 239:Drivers/lvgl/src/draw/sw/lv_draw_sw_border.c ****                 for(h = core_area.y2 + 1; h <= draw_area.y2; h++) {
 240:Drivers/lvgl/src/draw/sw/lv_draw_sw_border.c ****                     blend_area.y1 = h;
 241:Drivers/lvgl/src/draw/sw/lv_draw_sw_border.c ****                     blend_area.y2 = h;
 242:Drivers/lvgl/src/draw/sw/lv_draw_sw_border.c **** 
 243:Drivers/lvgl/src/draw/sw/lv_draw_sw_border.c ****                     lv_memset(mask_buf, 0xff, blend_w);
 244:Drivers/lvgl/src/draw/sw/lv_draw_sw_border.c ****                     blend_dsc.mask_res = lv_draw_sw_mask_apply(mask_list, mask_buf, blend_area.x1, 
 245:Drivers/lvgl/src/draw/sw/lv_draw_sw_border.c ****                     lv_draw_sw_blend(t, &blend_dsc);
 246:Drivers/lvgl/src/draw/sw/lv_draw_sw_border.c ****                 }
 247:Drivers/lvgl/src/draw/sw/lv_draw_sw_border.c ****             }
 248:Drivers/lvgl/src/draw/sw/lv_draw_sw_border.c ****         }
 249:Drivers/lvgl/src/draw/sw/lv_draw_sw_border.c **** 
 250:Drivers/lvgl/src/draw/sw/lv_draw_sw_border.c ****         /*Right corners*/
 251:Drivers/lvgl/src/draw/sw/lv_draw_sw_border.c ****         blend_area.x1 = LV_MAX(draw_area.x1, blend_area.x2 + 1);    /*To not overlap with the left 
 252:Drivers/lvgl/src/draw/sw/lv_draw_sw_border.c ****         blend_area.x1 = LV_MAX(draw_area.x1, core_area.x2 + 1);
 253:Drivers/lvgl/src/draw/sw/lv_draw_sw_border.c **** 
 254:Drivers/lvgl/src/draw/sw/lv_draw_sw_border.c ****         blend_area.x2 = draw_area.x2;
 255:Drivers/lvgl/src/draw/sw/lv_draw_sw_border.c ****         blend_w = lv_area_get_width(&blend_area);
 256:Drivers/lvgl/src/draw/sw/lv_draw_sw_border.c **** 
 257:Drivers/lvgl/src/draw/sw/lv_draw_sw_border.c ****         if(blend_w > 0) {
 258:Drivers/lvgl/src/draw/sw/lv_draw_sw_border.c ****             if(right_side || top_side) {
ARM GAS  /tmp/ccgnsg21.s 			page 6


 259:Drivers/lvgl/src/draw/sw/lv_draw_sw_border.c ****                 for(h = draw_area.y1; h < core_area.y1; h++) {
 260:Drivers/lvgl/src/draw/sw/lv_draw_sw_border.c ****                     blend_area.y1 = h;
 261:Drivers/lvgl/src/draw/sw/lv_draw_sw_border.c ****                     blend_area.y2 = h;
 262:Drivers/lvgl/src/draw/sw/lv_draw_sw_border.c **** 
 263:Drivers/lvgl/src/draw/sw/lv_draw_sw_border.c ****                     lv_memset(mask_buf, 0xff, blend_w);
 264:Drivers/lvgl/src/draw/sw/lv_draw_sw_border.c ****                     blend_dsc.mask_res = lv_draw_sw_mask_apply(mask_list, mask_buf, blend_area.x1, 
 265:Drivers/lvgl/src/draw/sw/lv_draw_sw_border.c ****                     lv_draw_sw_blend(t, &blend_dsc);
 266:Drivers/lvgl/src/draw/sw/lv_draw_sw_border.c ****                 }
 267:Drivers/lvgl/src/draw/sw/lv_draw_sw_border.c ****             }
 268:Drivers/lvgl/src/draw/sw/lv_draw_sw_border.c **** 
 269:Drivers/lvgl/src/draw/sw/lv_draw_sw_border.c ****             if(right_side || bottom_side) {
 270:Drivers/lvgl/src/draw/sw/lv_draw_sw_border.c ****                 for(h = core_area.y2 + 1; h <= draw_area.y2; h++) {
 271:Drivers/lvgl/src/draw/sw/lv_draw_sw_border.c ****                     blend_area.y1 = h;
 272:Drivers/lvgl/src/draw/sw/lv_draw_sw_border.c ****                     blend_area.y2 = h;
 273:Drivers/lvgl/src/draw/sw/lv_draw_sw_border.c **** 
 274:Drivers/lvgl/src/draw/sw/lv_draw_sw_border.c ****                     lv_memset(mask_buf, 0xff, blend_w);
 275:Drivers/lvgl/src/draw/sw/lv_draw_sw_border.c ****                     blend_dsc.mask_res = lv_draw_sw_mask_apply(mask_list, mask_buf, blend_area.x1, 
 276:Drivers/lvgl/src/draw/sw/lv_draw_sw_border.c ****                     lv_draw_sw_blend(t, &blend_dsc);
 277:Drivers/lvgl/src/draw/sw/lv_draw_sw_border.c ****                 }
 278:Drivers/lvgl/src/draw/sw/lv_draw_sw_border.c ****             }
 279:Drivers/lvgl/src/draw/sw/lv_draw_sw_border.c ****         }
 280:Drivers/lvgl/src/draw/sw/lv_draw_sw_border.c ****     }
 281:Drivers/lvgl/src/draw/sw/lv_draw_sw_border.c **** 
 282:Drivers/lvgl/src/draw/sw/lv_draw_sw_border.c ****     lv_draw_sw_mask_free_param(&mask_rin_param);
 283:Drivers/lvgl/src/draw/sw/lv_draw_sw_border.c ****     if(rout > 0) lv_draw_sw_mask_free_param(&mask_rout_param);
 284:Drivers/lvgl/src/draw/sw/lv_draw_sw_border.c ****     lv_free(mask_buf);
 285:Drivers/lvgl/src/draw/sw/lv_draw_sw_border.c **** 
 286:Drivers/lvgl/src/draw/sw/lv_draw_sw_border.c **** #endif /*LV_DRAW_SW_COMPLEX*/
 287:Drivers/lvgl/src/draw/sw/lv_draw_sw_border.c **** }
 288:Drivers/lvgl/src/draw/sw/lv_draw_sw_border.c **** static void draw_border_simple(lv_draw_task_t * t, const lv_area_t * outer_area, const lv_area_t * 
 289:Drivers/lvgl/src/draw/sw/lv_draw_sw_border.c ****                                lv_color_t color, lv_opa_t opa)
 290:Drivers/lvgl/src/draw/sw/lv_draw_sw_border.c **** {
  29              		.loc 1 290 1 view -0
  30              		.cfi_startproc
  31              		@ args = 4, pretend = 0, frame = 80
  32              		@ frame_needed = 0, uses_anonymous_args = 0
  33              		.loc 1 290 1 is_stmt 0 view .LVU1
  34 0000 2DE9F04F 		push	{r4, r5, r6, r7, r8, r9, r10, fp, lr}
  35              	.LCFI0:
  36              		.cfi_def_cfa_offset 36
  37              		.cfi_offset 4, -36
  38              		.cfi_offset 5, -32
  39              		.cfi_offset 6, -28
  40              		.cfi_offset 7, -24
  41              		.cfi_offset 8, -20
  42              		.cfi_offset 9, -16
  43              		.cfi_offset 10, -12
  44              		.cfi_offset 11, -8
  45              		.cfi_offset 14, -4
  46 0004 95B0     		sub	sp, sp, #84
  47              	.LCFI1:
  48              		.cfi_def_cfa_offset 120
  49 0006 0090     		str	r0, [sp]
  50 0008 0C46     		mov	r4, r1
  51 000a 1546     		mov	r5, r2
  52 000c 0393     		str	r3, [sp, #12]
 291:Drivers/lvgl/src/draw/sw/lv_draw_sw_border.c ****     lv_area_t a;
ARM GAS  /tmp/ccgnsg21.s 			page 7


  53              		.loc 1 291 5 is_stmt 1 view .LVU2
 292:Drivers/lvgl/src/draw/sw/lv_draw_sw_border.c ****     lv_draw_sw_blend_dsc_t blend_dsc;
  54              		.loc 1 292 5 view .LVU3
 293:Drivers/lvgl/src/draw/sw/lv_draw_sw_border.c ****     lv_memzero(&blend_dsc, sizeof(lv_draw_sw_blend_dsc_t));
  55              		.loc 1 293 5 view .LVU4
  56              	.LVL1:
  57              	.LBB10:
  58              	.LBI10:
  59              		.file 2 "Drivers/lvgl/src/draw/sw/../../misc/../stdlib/lv_string.h"
   1:Drivers/lvgl/src/draw/sw/../../misc/../stdlib/lv_string.h **** /**
   2:Drivers/lvgl/src/draw/sw/../../misc/../stdlib/lv_string.h ****  * @file lv_string.h
   3:Drivers/lvgl/src/draw/sw/../../misc/../stdlib/lv_string.h ****  *
   4:Drivers/lvgl/src/draw/sw/../../misc/../stdlib/lv_string.h ****  */
   5:Drivers/lvgl/src/draw/sw/../../misc/../stdlib/lv_string.h **** 
   6:Drivers/lvgl/src/draw/sw/../../misc/../stdlib/lv_string.h **** #ifndef LV_STRING_H
   7:Drivers/lvgl/src/draw/sw/../../misc/../stdlib/lv_string.h **** #define LV_STRING_H
   8:Drivers/lvgl/src/draw/sw/../../misc/../stdlib/lv_string.h **** 
   9:Drivers/lvgl/src/draw/sw/../../misc/../stdlib/lv_string.h **** #ifdef __cplusplus
  10:Drivers/lvgl/src/draw/sw/../../misc/../stdlib/lv_string.h **** extern "C" {
  11:Drivers/lvgl/src/draw/sw/../../misc/../stdlib/lv_string.h **** #endif
  12:Drivers/lvgl/src/draw/sw/../../misc/../stdlib/lv_string.h **** 
  13:Drivers/lvgl/src/draw/sw/../../misc/../stdlib/lv_string.h **** /*********************
  14:Drivers/lvgl/src/draw/sw/../../misc/../stdlib/lv_string.h ****  *      INCLUDES
  15:Drivers/lvgl/src/draw/sw/../../misc/../stdlib/lv_string.h ****  *********************/
  16:Drivers/lvgl/src/draw/sw/../../misc/../stdlib/lv_string.h **** #include "../lv_conf_internal.h"
  17:Drivers/lvgl/src/draw/sw/../../misc/../stdlib/lv_string.h **** #include "../misc/lv_types.h"
  18:Drivers/lvgl/src/draw/sw/../../misc/../stdlib/lv_string.h **** 
  19:Drivers/lvgl/src/draw/sw/../../misc/../stdlib/lv_string.h **** /*********************
  20:Drivers/lvgl/src/draw/sw/../../misc/../stdlib/lv_string.h ****  *      DEFINES
  21:Drivers/lvgl/src/draw/sw/../../misc/../stdlib/lv_string.h ****  *********************/
  22:Drivers/lvgl/src/draw/sw/../../misc/../stdlib/lv_string.h **** 
  23:Drivers/lvgl/src/draw/sw/../../misc/../stdlib/lv_string.h **** /**********************
  24:Drivers/lvgl/src/draw/sw/../../misc/../stdlib/lv_string.h ****  *      TYPEDEFS
  25:Drivers/lvgl/src/draw/sw/../../misc/../stdlib/lv_string.h ****  **********************/
  26:Drivers/lvgl/src/draw/sw/../../misc/../stdlib/lv_string.h **** 
  27:Drivers/lvgl/src/draw/sw/../../misc/../stdlib/lv_string.h **** /**********************
  28:Drivers/lvgl/src/draw/sw/../../misc/../stdlib/lv_string.h ****  * GLOBAL PROTOTYPES
  29:Drivers/lvgl/src/draw/sw/../../misc/../stdlib/lv_string.h ****  **********************/
  30:Drivers/lvgl/src/draw/sw/../../misc/../stdlib/lv_string.h **** 
  31:Drivers/lvgl/src/draw/sw/../../misc/../stdlib/lv_string.h **** /**
  32:Drivers/lvgl/src/draw/sw/../../misc/../stdlib/lv_string.h ****  * @brief Copies a block of memory from a source address to a destination address.
  33:Drivers/lvgl/src/draw/sw/../../misc/../stdlib/lv_string.h ****  * @param dst Pointer to the destination array where the content is to be copied.
  34:Drivers/lvgl/src/draw/sw/../../misc/../stdlib/lv_string.h ****  * @param src Pointer to the source of data to be copied.
  35:Drivers/lvgl/src/draw/sw/../../misc/../stdlib/lv_string.h ****  * @param len Number of bytes to copy.
  36:Drivers/lvgl/src/draw/sw/../../misc/../stdlib/lv_string.h ****  * @return Pointer to the destination array.
  37:Drivers/lvgl/src/draw/sw/../../misc/../stdlib/lv_string.h ****  * @note The function does not check for any overlapping of the source and destination memory block
  38:Drivers/lvgl/src/draw/sw/../../misc/../stdlib/lv_string.h ****  */
  39:Drivers/lvgl/src/draw/sw/../../misc/../stdlib/lv_string.h **** void * lv_memcpy(void * dst, const void * src, size_t len);
  40:Drivers/lvgl/src/draw/sw/../../misc/../stdlib/lv_string.h **** 
  41:Drivers/lvgl/src/draw/sw/../../misc/../stdlib/lv_string.h **** /**
  42:Drivers/lvgl/src/draw/sw/../../misc/../stdlib/lv_string.h ****  * @brief Fills a block of memory with a specified value.
  43:Drivers/lvgl/src/draw/sw/../../misc/../stdlib/lv_string.h ****  * @param dst Pointer to the destination array to fill with the specified value.
  44:Drivers/lvgl/src/draw/sw/../../misc/../stdlib/lv_string.h ****  * @param v Value to be set. The value is passed as an int, but the function fills
  45:Drivers/lvgl/src/draw/sw/../../misc/../stdlib/lv_string.h ****  *          the block of memory using the unsigned char conversion of this value.
  46:Drivers/lvgl/src/draw/sw/../../misc/../stdlib/lv_string.h ****  * @param len Number of bytes to be set to the value.
  47:Drivers/lvgl/src/draw/sw/../../misc/../stdlib/lv_string.h ****  */
  48:Drivers/lvgl/src/draw/sw/../../misc/../stdlib/lv_string.h **** void lv_memset(void * dst, uint8_t v, size_t len);
ARM GAS  /tmp/ccgnsg21.s 			page 8


  49:Drivers/lvgl/src/draw/sw/../../misc/../stdlib/lv_string.h **** 
  50:Drivers/lvgl/src/draw/sw/../../misc/../stdlib/lv_string.h **** /**
  51:Drivers/lvgl/src/draw/sw/../../misc/../stdlib/lv_string.h ****  * @brief Move a block of memory from source to destination
  52:Drivers/lvgl/src/draw/sw/../../misc/../stdlib/lv_string.h ****  * @param dst Pointer to the destination array where the content is to be copied.
  53:Drivers/lvgl/src/draw/sw/../../misc/../stdlib/lv_string.h ****  * @param src Pointer to the source of data to be copied.
  54:Drivers/lvgl/src/draw/sw/../../misc/../stdlib/lv_string.h ****  * @param len Number of bytes to copy
  55:Drivers/lvgl/src/draw/sw/../../misc/../stdlib/lv_string.h ****  * @return Pointer to the destination array.
  56:Drivers/lvgl/src/draw/sw/../../misc/../stdlib/lv_string.h ****  */
  57:Drivers/lvgl/src/draw/sw/../../misc/../stdlib/lv_string.h **** void * lv_memmove(void * dst, const void * src, size_t len);
  58:Drivers/lvgl/src/draw/sw/../../misc/../stdlib/lv_string.h **** 
  59:Drivers/lvgl/src/draw/sw/../../misc/../stdlib/lv_string.h **** /**
  60:Drivers/lvgl/src/draw/sw/../../misc/../stdlib/lv_string.h ****  * @brief This function will compare two memory blocks
  61:Drivers/lvgl/src/draw/sw/../../misc/../stdlib/lv_string.h ****  * @param p1 Pointer to the first memory block
  62:Drivers/lvgl/src/draw/sw/../../misc/../stdlib/lv_string.h ****  * @param p2 Pointer to the second memory block
  63:Drivers/lvgl/src/draw/sw/../../misc/../stdlib/lv_string.h ****  * @param len Number of bytes to compare
  64:Drivers/lvgl/src/draw/sw/../../misc/../stdlib/lv_string.h ****  * @return The difference between the value of the first unmatching byte.
  65:Drivers/lvgl/src/draw/sw/../../misc/../stdlib/lv_string.h ****  */
  66:Drivers/lvgl/src/draw/sw/../../misc/../stdlib/lv_string.h **** int lv_memcmp(const void * p1, const void * p2, size_t len);
  67:Drivers/lvgl/src/draw/sw/../../misc/../stdlib/lv_string.h **** 
  68:Drivers/lvgl/src/draw/sw/../../misc/../stdlib/lv_string.h **** /**
  69:Drivers/lvgl/src/draw/sw/../../misc/../stdlib/lv_string.h ****  * Same as `memset(dst, 0x00, len)`.
  70:Drivers/lvgl/src/draw/sw/../../misc/../stdlib/lv_string.h ****  * @param dst pointer to the destination buffer
  71:Drivers/lvgl/src/draw/sw/../../misc/../stdlib/lv_string.h ****  * @param len number of byte to set
  72:Drivers/lvgl/src/draw/sw/../../misc/../stdlib/lv_string.h ****  */
  73:Drivers/lvgl/src/draw/sw/../../misc/../stdlib/lv_string.h **** static inline void lv_memzero(void * dst, size_t len)
  60              		.loc 2 73 20 view .LVU5
  61              	.LBB11:
  74:Drivers/lvgl/src/draw/sw/../../misc/../stdlib/lv_string.h **** {
  75:Drivers/lvgl/src/draw/sw/../../misc/../stdlib/lv_string.h ****     lv_memset(dst, 0x00, len);
  62              		.loc 2 75 5 view .LVU6
  63 000e 2C22     		movs	r2, #44
  64              	.LVL2:
  65              		.loc 2 75 5 is_stmt 0 view .LVU7
  66 0010 0021     		movs	r1, #0
  67              	.LVL3:
  68              		.loc 2 75 5 view .LVU8
  69 0012 05A8     		add	r0, sp, #20
  70              	.LVL4:
  71              		.loc 2 75 5 view .LVU9
  72 0014 FFF7FEFF 		bl	lv_memset
  73              	.LVL5:
  74              		.loc 2 75 5 view .LVU10
  75              	.LBE11:
  76              	.LBE10:
 294:Drivers/lvgl/src/draw/sw/lv_draw_sw_border.c ****     blend_dsc.blend_area = &a;
  77              		.loc 1 294 5 is_stmt 1 view .LVU11
  78              		.loc 1 294 26 is_stmt 0 view .LVU12
  79 0018 10AB     		add	r3, sp, #64
  80 001a 0593     		str	r3, [sp, #20]
 295:Drivers/lvgl/src/draw/sw/lv_draw_sw_border.c ****     blend_dsc.color = color;
  81              		.loc 1 295 5 is_stmt 1 view .LVU13
  82              		.loc 1 295 21 is_stmt 0 view .LVU14
  83 001c BDF80C20 		ldrh	r2, [sp, #12]	@ unaligned
  84 0020 9DF80E30 		ldrb	r3, [sp, #14]	@ zero_extendqisi2
  85 0024 ADF82920 		strh	r2, [sp, #41]	@ unaligned
  86 0028 8DF82B30 		strb	r3, [sp, #43]
 296:Drivers/lvgl/src/draw/sw/lv_draw_sw_border.c ****     blend_dsc.opa = opa;
ARM GAS  /tmp/ccgnsg21.s 			page 9


  87              		.loc 1 296 5 is_stmt 1 view .LVU15
  88              		.loc 1 296 19 is_stmt 0 view .LVU16
  89 002c 9DF87830 		ldrb	r3, [sp, #120]	@ zero_extendqisi2
  90 0030 8DF82830 		strb	r3, [sp, #40]
 297:Drivers/lvgl/src/draw/sw/lv_draw_sw_border.c **** 
 298:Drivers/lvgl/src/draw/sw/lv_draw_sw_border.c ****     bool top_side = outer_area->y1 <= inner_area->y1;
  91              		.loc 1 298 5 is_stmt 1 view .LVU17
  92              		.loc 1 298 31 is_stmt 0 view .LVU18
  93 0034 6768     		ldr	r7, [r4, #4]
  94              		.loc 1 298 49 view .LVU19
  95 0036 6E68     		ldr	r6, [r5, #4]
  96              	.LVL6:
 299:Drivers/lvgl/src/draw/sw/lv_draw_sw_border.c ****     bool bottom_side = outer_area->y2 >= inner_area->y2;
  97              		.loc 1 299 5 is_stmt 1 view .LVU20
  98              		.loc 1 299 34 is_stmt 0 view .LVU21
  99 0038 D4F80CB0 		ldr	fp, [r4, #12]
 100              		.loc 1 299 52 view .LVU22
 101 003c D5F80CA0 		ldr	r10, [r5, #12]
 102              	.LVL7:
 300:Drivers/lvgl/src/draw/sw/lv_draw_sw_border.c ****     bool left_side = outer_area->x1 <= inner_area->x1;
 103              		.loc 1 300 5 is_stmt 1 view .LVU23
 104              		.loc 1 300 32 is_stmt 0 view .LVU24
 105 0040 D4F80090 		ldr	r9, [r4]
 106              		.loc 1 300 50 view .LVU25
 107 0044 2B68     		ldr	r3, [r5]
 108 0046 0193     		str	r3, [sp, #4]
 109              	.LVL8:
 301:Drivers/lvgl/src/draw/sw/lv_draw_sw_border.c ****     bool right_side = outer_area->x2 >= inner_area->x2;
 110              		.loc 1 301 5 is_stmt 1 view .LVU26
 111              		.loc 1 301 33 is_stmt 0 view .LVU27
 112 0048 D4F80880 		ldr	r8, [r4, #8]
 113              		.loc 1 301 51 view .LVU28
 114 004c AB68     		ldr	r3, [r5, #8]
 115              	.LVL9:
 116              		.loc 1 301 51 view .LVU29
 117 004e 0293     		str	r3, [sp, #8]
 118              	.LVL10:
 302:Drivers/lvgl/src/draw/sw/lv_draw_sw_border.c **** 
 303:Drivers/lvgl/src/draw/sw/lv_draw_sw_border.c ****     /*Top*/
 304:Drivers/lvgl/src/draw/sw/lv_draw_sw_border.c ****     a.x1 = outer_area->x1;
 119              		.loc 1 304 5 is_stmt 1 view .LVU30
 120              		.loc 1 304 10 is_stmt 0 view .LVU31
 121 0050 CDF84090 		str	r9, [sp, #64]
 122              	.LVL11:
 305:Drivers/lvgl/src/draw/sw/lv_draw_sw_border.c ****     a.x2 = outer_area->x2;
 123              		.loc 1 305 5 is_stmt 1 view .LVU32
 124              		.loc 1 305 10 is_stmt 0 view .LVU33
 125 0054 CDF84880 		str	r8, [sp, #72]
 306:Drivers/lvgl/src/draw/sw/lv_draw_sw_border.c ****     a.y1 = outer_area->y1;
 126              		.loc 1 306 5 is_stmt 1 view .LVU34
 127              		.loc 1 306 10 is_stmt 0 view .LVU35
 128 0058 1197     		str	r7, [sp, #68]
 307:Drivers/lvgl/src/draw/sw/lv_draw_sw_border.c ****     a.y2 = inner_area->y1 - 1;
 129              		.loc 1 307 5 is_stmt 1 view .LVU36
 130              		.loc 1 307 27 is_stmt 0 view .LVU37
 131 005a 731E     		subs	r3, r6, #1
 132              	.LVL12:
ARM GAS  /tmp/ccgnsg21.s 			page 10


 133              		.loc 1 307 10 view .LVU38
 134 005c 1393     		str	r3, [sp, #76]
 308:Drivers/lvgl/src/draw/sw/lv_draw_sw_border.c ****     if(top_side) {
 135              		.loc 1 308 5 is_stmt 1 view .LVU39
 136              		.loc 1 308 7 is_stmt 0 view .LVU40
 137 005e B742     		cmp	r7, r6
 138 0060 21DD     		ble	.L11
 139              	.L2:
 309:Drivers/lvgl/src/draw/sw/lv_draw_sw_border.c ****         lv_draw_sw_blend(t, &blend_dsc);
 310:Drivers/lvgl/src/draw/sw/lv_draw_sw_border.c ****     }
 311:Drivers/lvgl/src/draw/sw/lv_draw_sw_border.c **** 
 312:Drivers/lvgl/src/draw/sw/lv_draw_sw_border.c ****     /*Bottom*/
 313:Drivers/lvgl/src/draw/sw/lv_draw_sw_border.c ****     a.y1 = inner_area->y2 + 1;
 140              		.loc 1 313 5 is_stmt 1 view .LVU41
 141              		.loc 1 313 22 is_stmt 0 view .LVU42
 142 0062 EB68     		ldr	r3, [r5, #12]
 143              		.loc 1 313 27 view .LVU43
 144 0064 0133     		adds	r3, r3, #1
 145              		.loc 1 313 10 view .LVU44
 146 0066 1193     		str	r3, [sp, #68]
 314:Drivers/lvgl/src/draw/sw/lv_draw_sw_border.c ****     a.y2 = outer_area->y2;
 147              		.loc 1 314 5 is_stmt 1 view .LVU45
 148              		.loc 1 314 22 is_stmt 0 view .LVU46
 149 0068 E368     		ldr	r3, [r4, #12]
 150              		.loc 1 314 10 view .LVU47
 151 006a 1393     		str	r3, [sp, #76]
 315:Drivers/lvgl/src/draw/sw/lv_draw_sw_border.c ****     if(bottom_side) {
 152              		.loc 1 315 5 is_stmt 1 view .LVU48
 153              		.loc 1 315 7 is_stmt 0 view .LVU49
 154 006c D345     		cmp	fp, r10
 155 006e 1FDA     		bge	.L12
 156              	.L3:
 316:Drivers/lvgl/src/draw/sw/lv_draw_sw_border.c ****         lv_draw_sw_blend(t, &blend_dsc);
 317:Drivers/lvgl/src/draw/sw/lv_draw_sw_border.c ****     }
 318:Drivers/lvgl/src/draw/sw/lv_draw_sw_border.c **** 
 319:Drivers/lvgl/src/draw/sw/lv_draw_sw_border.c ****     /*Left*/
 320:Drivers/lvgl/src/draw/sw/lv_draw_sw_border.c ****     a.x1 = outer_area->x1;
 157              		.loc 1 320 5 is_stmt 1 view .LVU50
 158              		.loc 1 320 22 is_stmt 0 view .LVU51
 159 0070 2368     		ldr	r3, [r4]
 160              		.loc 1 320 10 view .LVU52
 161 0072 1093     		str	r3, [sp, #64]
 321:Drivers/lvgl/src/draw/sw/lv_draw_sw_border.c ****     a.x2 = inner_area->x1 - 1;
 162              		.loc 1 321 5 is_stmt 1 view .LVU53
 163              		.loc 1 321 22 is_stmt 0 view .LVU54
 164 0074 2B68     		ldr	r3, [r5]
 165              		.loc 1 321 27 view .LVU55
 166 0076 013B     		subs	r3, r3, #1
 167              		.loc 1 321 10 view .LVU56
 168 0078 1293     		str	r3, [sp, #72]
 322:Drivers/lvgl/src/draw/sw/lv_draw_sw_border.c ****     a.y1 = (top_side) ? inner_area->y1 : outer_area->y1;
 169              		.loc 1 322 5 is_stmt 1 view .LVU57
 170              		.loc 1 322 40 is_stmt 0 view .LVU58
 171 007a B742     		cmp	r7, r6
 172 007c 1DDC     		bgt	.L4
 173              		.loc 1 322 40 discriminator 1 view .LVU59
 174 007e 6B68     		ldr	r3, [r5, #4]
ARM GAS  /tmp/ccgnsg21.s 			page 11


 175              	.L5:
 176              		.loc 1 322 10 discriminator 4 view .LVU60
 177 0080 1193     		str	r3, [sp, #68]
 323:Drivers/lvgl/src/draw/sw/lv_draw_sw_border.c ****     a.y2 = (bottom_side) ? inner_area->y2 : outer_area->y2;
 178              		.loc 1 323 5 is_stmt 1 view .LVU61
 179              		.loc 1 323 43 is_stmt 0 view .LVU62
 180 0082 D345     		cmp	fp, r10
 181 0084 1BDB     		blt	.L6
 182              		.loc 1 323 43 discriminator 1 view .LVU63
 183 0086 EB68     		ldr	r3, [r5, #12]
 184              	.L7:
 185              		.loc 1 323 10 discriminator 4 view .LVU64
 186 0088 1393     		str	r3, [sp, #76]
 324:Drivers/lvgl/src/draw/sw/lv_draw_sw_border.c ****     if(left_side) {
 187              		.loc 1 324 5 is_stmt 1 view .LVU65
 188              		.loc 1 324 7 is_stmt 0 view .LVU66
 189 008a 019B     		ldr	r3, [sp, #4]
 190 008c 9945     		cmp	r9, r3
 191 008e 18DD     		ble	.L13
 192              	.L8:
 325:Drivers/lvgl/src/draw/sw/lv_draw_sw_border.c ****         lv_draw_sw_blend(t, &blend_dsc);
 326:Drivers/lvgl/src/draw/sw/lv_draw_sw_border.c ****     }
 327:Drivers/lvgl/src/draw/sw/lv_draw_sw_border.c **** 
 328:Drivers/lvgl/src/draw/sw/lv_draw_sw_border.c ****     /*Right*/
 329:Drivers/lvgl/src/draw/sw/lv_draw_sw_border.c ****     a.x1 = inner_area->x2 + 1;
 193              		.loc 1 329 5 is_stmt 1 view .LVU67
 194              		.loc 1 329 22 is_stmt 0 view .LVU68
 195 0090 AB68     		ldr	r3, [r5, #8]
 196              		.loc 1 329 27 view .LVU69
 197 0092 0133     		adds	r3, r3, #1
 198              		.loc 1 329 10 view .LVU70
 199 0094 1093     		str	r3, [sp, #64]
 330:Drivers/lvgl/src/draw/sw/lv_draw_sw_border.c ****     a.x2 = outer_area->x2;
 200              		.loc 1 330 5 is_stmt 1 view .LVU71
 201              		.loc 1 330 22 is_stmt 0 view .LVU72
 202 0096 A368     		ldr	r3, [r4, #8]
 203              		.loc 1 330 10 view .LVU73
 204 0098 1293     		str	r3, [sp, #72]
 331:Drivers/lvgl/src/draw/sw/lv_draw_sw_border.c ****     if(right_side) {
 205              		.loc 1 331 5 is_stmt 1 view .LVU74
 206              		.loc 1 331 7 is_stmt 0 view .LVU75
 207 009a 029B     		ldr	r3, [sp, #8]
 208 009c 9845     		cmp	r8, r3
 209 009e 15DA     		bge	.L14
 210              	.L1:
 332:Drivers/lvgl/src/draw/sw/lv_draw_sw_border.c ****         lv_draw_sw_blend(t, &blend_dsc);
 333:Drivers/lvgl/src/draw/sw/lv_draw_sw_border.c ****     }
 334:Drivers/lvgl/src/draw/sw/lv_draw_sw_border.c **** }
 211              		.loc 1 334 1 view .LVU76
 212 00a0 15B0     		add	sp, sp, #84
 213              	.LCFI2:
 214              		.cfi_remember_state
 215              		.cfi_def_cfa_offset 36
 216              	.LVL13:
 217              		.loc 1 334 1 view .LVU77
 218              		@ sp needed
 219 00a2 BDE8F08F 		pop	{r4, r5, r6, r7, r8, r9, r10, fp, pc}
ARM GAS  /tmp/ccgnsg21.s 			page 12


 220              	.LVL14:
 221              	.L11:
 222              	.LCFI3:
 223              		.cfi_restore_state
 309:Drivers/lvgl/src/draw/sw/lv_draw_sw_border.c ****     }
 224              		.loc 1 309 9 is_stmt 1 view .LVU78
 225 00a6 05A9     		add	r1, sp, #20
 226 00a8 0098     		ldr	r0, [sp]
 227 00aa FFF7FEFF 		bl	lv_draw_sw_blend
 228              	.LVL15:
 229 00ae D8E7     		b	.L2
 230              	.L12:
 316:Drivers/lvgl/src/draw/sw/lv_draw_sw_border.c ****     }
 231              		.loc 1 316 9 view .LVU79
 232 00b0 05A9     		add	r1, sp, #20
 233 00b2 0098     		ldr	r0, [sp]
 234 00b4 FFF7FEFF 		bl	lv_draw_sw_blend
 235              	.LVL16:
 236 00b8 DAE7     		b	.L3
 237              	.L4:
 322:Drivers/lvgl/src/draw/sw/lv_draw_sw_border.c ****     a.y2 = (bottom_side) ? inner_area->y2 : outer_area->y2;
 238              		.loc 1 322 40 is_stmt 0 discriminator 2 view .LVU80
 239 00ba 6368     		ldr	r3, [r4, #4]
 240 00bc E0E7     		b	.L5
 241              	.L6:
 323:Drivers/lvgl/src/draw/sw/lv_draw_sw_border.c ****     if(left_side) {
 242              		.loc 1 323 43 discriminator 2 view .LVU81
 243 00be E368     		ldr	r3, [r4, #12]
 244 00c0 E2E7     		b	.L7
 245              	.L13:
 325:Drivers/lvgl/src/draw/sw/lv_draw_sw_border.c ****     }
 246              		.loc 1 325 9 is_stmt 1 view .LVU82
 247 00c2 05A9     		add	r1, sp, #20
 248 00c4 0098     		ldr	r0, [sp]
 249 00c6 FFF7FEFF 		bl	lv_draw_sw_blend
 250              	.LVL17:
 251 00ca E1E7     		b	.L8
 252              	.L14:
 332:Drivers/lvgl/src/draw/sw/lv_draw_sw_border.c ****     }
 253              		.loc 1 332 9 view .LVU83
 254 00cc 05A9     		add	r1, sp, #20
 255 00ce 0098     		ldr	r0, [sp]
 256 00d0 FFF7FEFF 		bl	lv_draw_sw_blend
 257              	.LVL18:
 258              		.loc 1 334 1 is_stmt 0 view .LVU84
 259 00d4 E4E7     		b	.L1
 260              		.cfi_endproc
 261              	.LFE188:
 263              		.section	.text.draw_border_complex,"ax",%progbits
 264              		.align	1
 265              		.syntax unified
 266              		.thumb
 267              		.thumb_func
 269              	draw_border_complex:
 270              	.LVL19:
 271              	.LFB187:
  92:Drivers/lvgl/src/draw/sw/lv_draw_sw_border.c **** #if LV_DRAW_SW_COMPLEX
ARM GAS  /tmp/ccgnsg21.s 			page 13


 272              		.loc 1 92 1 is_stmt 1 view -0
 273              		.cfi_startproc
 274              		@ args = 12, pretend = 0, frame = 208
 275              		@ frame_needed = 0, uses_anonymous_args = 0
  92:Drivers/lvgl/src/draw/sw/lv_draw_sw_border.c **** #if LV_DRAW_SW_COMPLEX
 276              		.loc 1 92 1 is_stmt 0 view .LVU86
 277 0000 2DE9F04F 		push	{r4, r5, r6, r7, r8, r9, r10, fp, lr}
 278              	.LCFI4:
 279              		.cfi_def_cfa_offset 36
 280              		.cfi_offset 4, -36
 281              		.cfi_offset 5, -32
 282              		.cfi_offset 6, -28
 283              		.cfi_offset 7, -24
 284              		.cfi_offset 8, -20
 285              		.cfi_offset 9, -16
 286              		.cfi_offset 10, -12
 287              		.cfi_offset 11, -8
 288              		.cfi_offset 14, -4
 289 0004 B7B0     		sub	sp, sp, #220
 290              	.LCFI5:
 291              		.cfi_def_cfa_offset 256
 292 0006 8146     		mov	r9, r0
 293 0008 0E46     		mov	r6, r1
 294 000a 1446     		mov	r4, r2
 295 000c 1F46     		mov	r7, r3
  96:Drivers/lvgl/src/draw/sw/lv_draw_sw_border.c ****     if(!lv_area_intersect(&draw_area, outer_area, &t->clip_area)) return;
 296              		.loc 1 96 5 is_stmt 1 view .LVU87
  97:Drivers/lvgl/src/draw/sw/lv_draw_sw_border.c ****     int32_t draw_area_w = lv_area_get_width(&draw_area);
 297              		.loc 1 97 5 view .LVU88
  97:Drivers/lvgl/src/draw/sw/lv_draw_sw_border.c ****     int32_t draw_area_w = lv_area_get_width(&draw_area);
 298              		.loc 1 97 9 is_stmt 0 view .LVU89
 299 000e 00F13802 		add	r2, r0, #56
 300              	.LVL20:
  97:Drivers/lvgl/src/draw/sw/lv_draw_sw_border.c ****     int32_t draw_area_w = lv_area_get_width(&draw_area);
 301              		.loc 1 97 9 view .LVU90
 302 0012 32A8     		add	r0, sp, #200
 303              	.LVL21:
  97:Drivers/lvgl/src/draw/sw/lv_draw_sw_border.c ****     int32_t draw_area_w = lv_area_get_width(&draw_area);
 304              		.loc 1 97 9 view .LVU91
 305 0014 FFF7FEFF 		bl	lv_area_intersect
 306              	.LVL22:
  97:Drivers/lvgl/src/draw/sw/lv_draw_sw_border.c ****     int32_t draw_area_w = lv_area_get_width(&draw_area);
 307              		.loc 1 97 7 discriminator 1 view .LVU92
 308 0018 10B9     		cbnz	r0, .L47
 309              	.LVL23:
 310              	.L15:
 287:Drivers/lvgl/src/draw/sw/lv_draw_sw_border.c **** static void draw_border_simple(lv_draw_task_t * t, const lv_area_t * outer_area, const lv_area_t * 
 311              		.loc 1 287 1 view .LVU93
 312 001a 37B0     		add	sp, sp, #220
 313              	.LCFI6:
 314              		.cfi_remember_state
 315              		.cfi_def_cfa_offset 36
 316              		@ sp needed
 317 001c BDE8F08F 		pop	{r4, r5, r6, r7, r8, r9, r10, fp, pc}
 318              	.LVL24:
 319              	.L47:
 320              	.LCFI7:
ARM GAS  /tmp/ccgnsg21.s 			page 14


 321              		.cfi_restore_state
 287:Drivers/lvgl/src/draw/sw/lv_draw_sw_border.c **** static void draw_border_simple(lv_draw_task_t * t, const lv_area_t * outer_area, const lv_area_t * 
 322              		.loc 1 287 1 view .LVU94
 323 0020 0546     		mov	r5, r0
  98:Drivers/lvgl/src/draw/sw/lv_draw_sw_border.c **** 
 324              		.loc 1 98 5 is_stmt 1 view .LVU95
  98:Drivers/lvgl/src/draw/sw/lv_draw_sw_border.c **** 
 325              		.loc 1 98 27 is_stmt 0 view .LVU96
 326 0022 32A8     		add	r0, sp, #200
 327 0024 FFF7FEFF 		bl	lv_area_get_width
 328              	.LVL25:
 329 0028 8246     		mov	r10, r0
 330              	.LVL26:
 100:Drivers/lvgl/src/draw/sw/lv_draw_sw_border.c ****     lv_memzero(&blend_dsc, sizeof(blend_dsc));
 331              		.loc 1 100 5 is_stmt 1 view .LVU97
 101:Drivers/lvgl/src/draw/sw/lv_draw_sw_border.c ****     lv_opa_t * mask_buf = lv_malloc(draw_area_w);
 332              		.loc 1 101 5 view .LVU98
 333              	.LBB12:
 334              	.LBI12:
  73:Drivers/lvgl/src/draw/sw/../../misc/../stdlib/lv_string.h **** {
 335              		.loc 2 73 20 view .LVU99
 336              	.LBB13:
 337              		.loc 2 75 5 view .LVU100
 338 002a 2C22     		movs	r2, #44
 339 002c 0021     		movs	r1, #0
 340 002e 27A8     		add	r0, sp, #156
 341              	.LVL27:
 342              		.loc 2 75 5 is_stmt 0 view .LVU101
 343 0030 FFF7FEFF 		bl	lv_memset
 344              	.LVL28:
 345              		.loc 2 75 5 view .LVU102
 346              	.LBE13:
 347              	.LBE12:
 102:Drivers/lvgl/src/draw/sw/lv_draw_sw_border.c ****     blend_dsc.mask_buf = mask_buf;
 348              		.loc 1 102 5 is_stmt 1 view .LVU103
 102:Drivers/lvgl/src/draw/sw/lv_draw_sw_border.c ****     blend_dsc.mask_buf = mask_buf;
 349              		.loc 1 102 27 is_stmt 0 view .LVU104
 350 0034 5046     		mov	r0, r10
 351 0036 FFF7FEFF 		bl	lv_malloc
 352              	.LVL29:
 353 003a 8046     		mov	r8, r0
 354              	.LVL30:
 103:Drivers/lvgl/src/draw/sw/lv_draw_sw_border.c **** 
 355              		.loc 1 103 5 is_stmt 1 view .LVU105
 103:Drivers/lvgl/src/draw/sw/lv_draw_sw_border.c **** 
 356              		.loc 1 103 24 is_stmt 0 view .LVU106
 357 003c 2D90     		str	r0, [sp, #180]
 105:Drivers/lvgl/src/draw/sw/lv_draw_sw_border.c **** 
 358              		.loc 1 105 5 is_stmt 1 view .LVU107
 105:Drivers/lvgl/src/draw/sw/lv_draw_sw_border.c **** 
 359              		.loc 1 105 12 is_stmt 0 view .LVU108
 360 003e 0023     		movs	r3, #0
 361 0040 2493     		str	r3, [sp, #144]
 362 0042 2593     		str	r3, [sp, #148]
 363 0044 2693     		str	r3, [sp, #152]
 108:Drivers/lvgl/src/draw/sw/lv_draw_sw_border.c ****     lv_draw_sw_mask_radius_init(&mask_rin_param, inner_area, rin, true);
 364              		.loc 1 108 5 is_stmt 1 view .LVU109
ARM GAS  /tmp/ccgnsg21.s 			page 15


 109:Drivers/lvgl/src/draw/sw/lv_draw_sw_border.c ****     mask_list[0] = &mask_rin_param;
 365              		.loc 1 109 5 view .LVU110
 366 0046 0DF16C0B 		add	fp, sp, #108
 367 004a 0123     		movs	r3, #1
 368 004c 409A     		ldr	r2, [sp, #256]
 369 004e 2146     		mov	r1, r4
 370 0050 5846     		mov	r0, fp
 371              	.LVL31:
 109:Drivers/lvgl/src/draw/sw/lv_draw_sw_border.c ****     mask_list[0] = &mask_rin_param;
 372              		.loc 1 109 5 is_stmt 0 view .LVU111
 373 0052 FFF7FEFF 		bl	lv_draw_sw_mask_radius_init
 374              	.LVL32:
 110:Drivers/lvgl/src/draw/sw/lv_draw_sw_border.c **** 
 375              		.loc 1 110 5 is_stmt 1 view .LVU112
 110:Drivers/lvgl/src/draw/sw/lv_draw_sw_border.c **** 
 376              		.loc 1 110 18 is_stmt 0 view .LVU113
 377 0056 CDF890B0 		str	fp, [sp, #144]
 113:Drivers/lvgl/src/draw/sw/lv_draw_sw_border.c ****     if(rout > 0) {
 378              		.loc 1 113 5 is_stmt 1 view .LVU114
 114:Drivers/lvgl/src/draw/sw/lv_draw_sw_border.c ****         lv_draw_sw_mask_radius_init(&mask_rout_param, outer_area, rout, false);
 379              		.loc 1 114 5 view .LVU115
 114:Drivers/lvgl/src/draw/sw/lv_draw_sw_border.c ****         lv_draw_sw_mask_radius_init(&mask_rout_param, outer_area, rout, false);
 380              		.loc 1 114 7 is_stmt 0 view .LVU116
 381 005a 002F     		cmp	r7, #0
 382 005c 59DC     		bgt	.L48
 383              	.L18:
 119:Drivers/lvgl/src/draw/sw/lv_draw_sw_border.c ****     lv_area_t blend_area;
 384              		.loc 1 119 5 is_stmt 1 view .LVU117
 120:Drivers/lvgl/src/draw/sw/lv_draw_sw_border.c ****     blend_dsc.blend_area = &blend_area;
 385              		.loc 1 120 5 view .LVU118
 121:Drivers/lvgl/src/draw/sw/lv_draw_sw_border.c ****     blend_dsc.mask_area = &blend_area;
 386              		.loc 1 121 5 view .LVU119
 121:Drivers/lvgl/src/draw/sw/lv_draw_sw_border.c ****     blend_dsc.mask_area = &blend_area;
 387              		.loc 1 121 26 is_stmt 0 view .LVU120
 388 005e 0EAB     		add	r3, sp, #56
 389 0060 2793     		str	r3, [sp, #156]
 122:Drivers/lvgl/src/draw/sw/lv_draw_sw_border.c ****     blend_dsc.color = color;
 390              		.loc 1 122 5 is_stmt 1 view .LVU121
 122:Drivers/lvgl/src/draw/sw/lv_draw_sw_border.c ****     blend_dsc.color = color;
 391              		.loc 1 122 25 is_stmt 0 view .LVU122
 392 0062 2F93     		str	r3, [sp, #188]
 123:Drivers/lvgl/src/draw/sw/lv_draw_sw_border.c ****     blend_dsc.opa = opa;
 393              		.loc 1 123 5 is_stmt 1 view .LVU123
 123:Drivers/lvgl/src/draw/sw/lv_draw_sw_border.c ****     blend_dsc.opa = opa;
 394              		.loc 1 123 21 is_stmt 0 view .LVU124
 395 0064 BDF80421 		ldrh	r2, [sp, #260]	@ unaligned
 396 0068 9DF80631 		ldrb	r3, [sp, #262]	@ zero_extendqisi2
 397 006c ADF8B120 		strh	r2, [sp, #177]	@ unaligned
 398 0070 8DF8B330 		strb	r3, [sp, #179]
 124:Drivers/lvgl/src/draw/sw/lv_draw_sw_border.c **** 
 399              		.loc 1 124 5 is_stmt 1 view .LVU125
 124:Drivers/lvgl/src/draw/sw/lv_draw_sw_border.c **** 
 400              		.loc 1 124 19 is_stmt 0 view .LVU126
 401 0074 9DF80831 		ldrb	r3, [sp, #264]	@ zero_extendqisi2
 402 0078 8DF8B030 		strb	r3, [sp, #176]
 127:Drivers/lvgl/src/draw/sw/lv_draw_sw_border.c ****     core_area.x1 = LV_MAX(outer_area->x1 + rout, inner_area->x1);
 403              		.loc 1 127 5 is_stmt 1 view .LVU127
ARM GAS  /tmp/ccgnsg21.s 			page 16


 128:Drivers/lvgl/src/draw/sw/lv_draw_sw_border.c ****     core_area.x2 = LV_MIN(outer_area->x2 - rout, inner_area->x2);
 404              		.loc 1 128 5 view .LVU128
 128:Drivers/lvgl/src/draw/sw/lv_draw_sw_border.c ****     core_area.x2 = LV_MIN(outer_area->x2 - rout, inner_area->x2);
 405              		.loc 1 128 20 is_stmt 0 view .LVU129
 406 007c 2268     		ldr	r2, [r4]
 407 007e 3368     		ldr	r3, [r6]
 408 0080 3B44     		add	r3, r3, r7
 409 0082 9342     		cmp	r3, r2
 410 0084 B8BF     		it	lt
 411 0086 1346     		movlt	r3, r2
 128:Drivers/lvgl/src/draw/sw/lv_draw_sw_border.c ****     core_area.x2 = LV_MIN(outer_area->x2 - rout, inner_area->x2);
 412              		.loc 1 128 18 view .LVU130
 413 0088 0A93     		str	r3, [sp, #40]
 129:Drivers/lvgl/src/draw/sw/lv_draw_sw_border.c ****     core_area.y1 = LV_MAX(outer_area->y1 + rout, inner_area->y1);
 414              		.loc 1 129 5 is_stmt 1 view .LVU131
 129:Drivers/lvgl/src/draw/sw/lv_draw_sw_border.c ****     core_area.y1 = LV_MAX(outer_area->y1 + rout, inner_area->y1);
 415              		.loc 1 129 20 is_stmt 0 view .LVU132
 416 008a A268     		ldr	r2, [r4, #8]
 417 008c B368     		ldr	r3, [r6, #8]
 418 008e DB1B     		subs	r3, r3, r7
 419 0090 9342     		cmp	r3, r2
 420 0092 A8BF     		it	ge
 421 0094 1346     		movge	r3, r2
 129:Drivers/lvgl/src/draw/sw/lv_draw_sw_border.c ****     core_area.y1 = LV_MAX(outer_area->y1 + rout, inner_area->y1);
 422              		.loc 1 129 18 view .LVU133
 423 0096 0C93     		str	r3, [sp, #48]
 130:Drivers/lvgl/src/draw/sw/lv_draw_sw_border.c ****     core_area.y2 = LV_MIN(outer_area->y2 - rout, inner_area->y2);
 424              		.loc 1 130 5 is_stmt 1 view .LVU134
 130:Drivers/lvgl/src/draw/sw/lv_draw_sw_border.c ****     core_area.y2 = LV_MIN(outer_area->y2 - rout, inner_area->y2);
 425              		.loc 1 130 20 is_stmt 0 view .LVU135
 426 0098 6268     		ldr	r2, [r4, #4]
 427 009a 7368     		ldr	r3, [r6, #4]
 428 009c 3B44     		add	r3, r3, r7
 429 009e 9342     		cmp	r3, r2
 430 00a0 B8BF     		it	lt
 431 00a2 1346     		movlt	r3, r2
 130:Drivers/lvgl/src/draw/sw/lv_draw_sw_border.c ****     core_area.y2 = LV_MIN(outer_area->y2 - rout, inner_area->y2);
 432              		.loc 1 130 18 view .LVU136
 433 00a4 0B93     		str	r3, [sp, #44]
 131:Drivers/lvgl/src/draw/sw/lv_draw_sw_border.c ****     int32_t core_w = lv_area_get_width(&core_area);
 434              		.loc 1 131 5 is_stmt 1 view .LVU137
 131:Drivers/lvgl/src/draw/sw/lv_draw_sw_border.c ****     int32_t core_w = lv_area_get_width(&core_area);
 435              		.loc 1 131 20 is_stmt 0 view .LVU138
 436 00a6 E268     		ldr	r2, [r4, #12]
 437 00a8 F368     		ldr	r3, [r6, #12]
 438 00aa DB1B     		subs	r3, r3, r7
 439 00ac 9342     		cmp	r3, r2
 440 00ae A8BF     		it	ge
 441 00b0 1346     		movge	r3, r2
 131:Drivers/lvgl/src/draw/sw/lv_draw_sw_border.c ****     int32_t core_w = lv_area_get_width(&core_area);
 442              		.loc 1 131 18 view .LVU139
 443 00b2 0D93     		str	r3, [sp, #52]
 132:Drivers/lvgl/src/draw/sw/lv_draw_sw_border.c **** 
 444              		.loc 1 132 5 is_stmt 1 view .LVU140
 132:Drivers/lvgl/src/draw/sw/lv_draw_sw_border.c **** 
 445              		.loc 1 132 22 is_stmt 0 view .LVU141
 446 00b4 0AA8     		add	r0, sp, #40
ARM GAS  /tmp/ccgnsg21.s 			page 17


 447 00b6 FFF7FEFF 		bl	lv_area_get_width
 448              	.LVL33:
 134:Drivers/lvgl/src/draw/sw/lv_draw_sw_border.c ****     bool bottom_side = outer_area->y2 >= inner_area->y2;
 449              		.loc 1 134 5 is_stmt 1 view .LVU142
 134:Drivers/lvgl/src/draw/sw/lv_draw_sw_border.c ****     bool bottom_side = outer_area->y2 >= inner_area->y2;
 450              		.loc 1 134 31 is_stmt 0 view .LVU143
 451 00ba 7268     		ldr	r2, [r6, #4]
 134:Drivers/lvgl/src/draw/sw/lv_draw_sw_border.c ****     bool bottom_side = outer_area->y2 >= inner_area->y2;
 452              		.loc 1 134 49 view .LVU144
 453 00bc 6368     		ldr	r3, [r4, #4]
 134:Drivers/lvgl/src/draw/sw/lv_draw_sw_border.c ****     bool bottom_side = outer_area->y2 >= inner_area->y2;
 454              		.loc 1 134 10 view .LVU145
 455 00be 9A42     		cmp	r2, r3
 456 00c0 CCBF     		ite	gt
 457 00c2 0023     		movgt	r3, #0
 458 00c4 0123     		movle	r3, #1
 459 00c6 0293     		str	r3, [sp, #8]
 460              	.LVL34:
 135:Drivers/lvgl/src/draw/sw/lv_draw_sw_border.c **** 
 461              		.loc 1 135 5 is_stmt 1 view .LVU146
 135:Drivers/lvgl/src/draw/sw/lv_draw_sw_border.c **** 
 462              		.loc 1 135 34 is_stmt 0 view .LVU147
 463 00c8 F268     		ldr	r2, [r6, #12]
 135:Drivers/lvgl/src/draw/sw/lv_draw_sw_border.c **** 
 464              		.loc 1 135 52 view .LVU148
 465 00ca E368     		ldr	r3, [r4, #12]
 135:Drivers/lvgl/src/draw/sw/lv_draw_sw_border.c **** 
 466              		.loc 1 135 10 view .LVU149
 467 00cc 9A42     		cmp	r2, r3
 468 00ce B4BF     		ite	lt
 469 00d0 4FF0000B 		movlt	fp, #0
 470 00d4 4FF0010B 		movge	fp, #1
 471              	.LVL35:
 138:Drivers/lvgl/src/draw/sw/lv_draw_sw_border.c ****     bool right_side = outer_area->x2 >= inner_area->x2;
 472              		.loc 1 138 5 is_stmt 1 view .LVU150
 138:Drivers/lvgl/src/draw/sw/lv_draw_sw_border.c ****     bool right_side = outer_area->x2 >= inner_area->x2;
 473              		.loc 1 138 32 is_stmt 0 view .LVU151
 474 00d8 3368     		ldr	r3, [r6]
 475 00da 0393     		str	r3, [sp, #12]
 138:Drivers/lvgl/src/draw/sw/lv_draw_sw_border.c ****     bool right_side = outer_area->x2 >= inner_area->x2;
 476              		.loc 1 138 50 view .LVU152
 477 00dc 2268     		ldr	r2, [r4]
 478 00de 0492     		str	r2, [sp, #16]
 138:Drivers/lvgl/src/draw/sw/lv_draw_sw_border.c ****     bool right_side = outer_area->x2 >= inner_area->x2;
 479              		.loc 1 138 10 view .LVU153
 480 00e0 9342     		cmp	r3, r2
 481 00e2 CCBF     		ite	gt
 482 00e4 0023     		movgt	r3, #0
 483 00e6 0123     		movle	r3, #1
 484 00e8 0893     		str	r3, [sp, #32]
 485              	.LVL36:
 139:Drivers/lvgl/src/draw/sw/lv_draw_sw_border.c **** 
 486              		.loc 1 139 5 is_stmt 1 view .LVU154
 139:Drivers/lvgl/src/draw/sw/lv_draw_sw_border.c **** 
 487              		.loc 1 139 33 is_stmt 0 view .LVU155
 488 00ea B268     		ldr	r2, [r6, #8]
 489 00ec 0592     		str	r2, [sp, #20]
ARM GAS  /tmp/ccgnsg21.s 			page 18


 139:Drivers/lvgl/src/draw/sw/lv_draw_sw_border.c **** 
 490              		.loc 1 139 51 view .LVU156
 491 00ee A168     		ldr	r1, [r4, #8]
 492 00f0 0691     		str	r1, [sp, #24]
 139:Drivers/lvgl/src/draw/sw/lv_draw_sw_border.c **** 
 493              		.loc 1 139 10 view .LVU157
 494 00f2 8A42     		cmp	r2, r1
 495 00f4 B4BF     		ite	lt
 496 00f6 0022     		movlt	r2, #0
 497 00f8 0122     		movge	r2, #1
 498 00fa 0992     		str	r2, [sp, #36]
 499              	.LVL37:
 141:Drivers/lvgl/src/draw/sw/lv_draw_sw_border.c ****     if(left_side && right_side && top_side && bottom_side &&
 500              		.loc 1 141 5 is_stmt 1 view .LVU158
 142:Drivers/lvgl/src/draw/sw/lv_draw_sw_border.c ****        core_w < SPLIT_LIMIT) {
 501              		.loc 1 142 5 view .LVU159
 142:Drivers/lvgl/src/draw/sw/lv_draw_sw_border.c ****        core_w < SPLIT_LIMIT) {
 502              		.loc 1 142 7 is_stmt 0 view .LVU160
 503 00fc 1A40     		ands	r2, r3, r2
 504              	.LVL38:
 142:Drivers/lvgl/src/draw/sw/lv_draw_sw_border.c ****        core_w < SPLIT_LIMIT) {
 505              		.loc 1 142 7 view .LVU161
 506 00fe 0792     		str	r2, [sp, #28]
 507 0100 13D0     		beq	.L19
 142:Drivers/lvgl/src/draw/sw/lv_draw_sw_border.c ****        core_w < SPLIT_LIMIT) {
 508              		.loc 1 142 44 discriminator 1 view .LVU162
 509 0102 029B     		ldr	r3, [sp, #8]
 510              	.LVL39:
 142:Drivers/lvgl/src/draw/sw/lv_draw_sw_border.c ****        core_w < SPLIT_LIMIT) {
 511              		.loc 1 142 44 discriminator 1 view .LVU163
 512 0104 13EA0B05 		ands	r5, r3, fp
 513 0108 0ED0     		beq	.L44
 142:Drivers/lvgl/src/draw/sw/lv_draw_sw_border.c ****        core_w < SPLIT_LIMIT) {
 514              		.loc 1 142 59 discriminator 2 view .LVU164
 515 010a 3128     		cmp	r0, #49
 516 010c 0DDC     		bgt	.L19
 144:Drivers/lvgl/src/draw/sw/lv_draw_sw_border.c ****     }
 517              		.loc 1 144 19 view .LVU165
 518 010e 0025     		movs	r5, #0
 519 0110 0BE0     		b	.L19
 520              	.LVL40:
 521              	.L48:
 115:Drivers/lvgl/src/draw/sw/lv_draw_sw_border.c ****         mask_list[1] = &mask_rout_param;
 522              		.loc 1 115 9 is_stmt 1 view .LVU166
 523 0112 0DF1480B 		add	fp, sp, #72
 524 0116 0023     		movs	r3, #0
 525 0118 3A46     		mov	r2, r7
 526 011a 3146     		mov	r1, r6
 527 011c 5846     		mov	r0, fp
 528 011e FFF7FEFF 		bl	lv_draw_sw_mask_radius_init
 529              	.LVL41:
 116:Drivers/lvgl/src/draw/sw/lv_draw_sw_border.c ****     }
 530              		.loc 1 116 9 view .LVU167
 116:Drivers/lvgl/src/draw/sw/lv_draw_sw_border.c ****     }
 531              		.loc 1 116 22 is_stmt 0 view .LVU168
 532 0122 CDF894B0 		str	fp, [sp, #148]
 533 0126 9AE7     		b	.L18
ARM GAS  /tmp/ccgnsg21.s 			page 19


 534              	.LVL42:
 535              	.L44:
 141:Drivers/lvgl/src/draw/sw/lv_draw_sw_border.c ****     if(left_side && right_side && top_side && bottom_side &&
 536              		.loc 1 141 10 view .LVU169
 537 0128 079D     		ldr	r5, [sp, #28]
 538              	.L19:
 539              	.LVL43:
 147:Drivers/lvgl/src/draw/sw/lv_draw_sw_border.c ****     /*Draw the straight lines first if they are long enough*/
 540              		.loc 1 147 5 is_stmt 1 view .LVU170
 147:Drivers/lvgl/src/draw/sw/lv_draw_sw_border.c ****     /*Draw the straight lines first if they are long enough*/
 541              		.loc 1 147 24 is_stmt 0 view .LVU171
 542 012a 0123     		movs	r3, #1
 543 012c 8DF8B830 		strb	r3, [sp, #184]
 149:Drivers/lvgl/src/draw/sw/lv_draw_sw_border.c ****         blend_area.x1 = core_area.x1;
 544              		.loc 1 149 5 is_stmt 1 view .LVU172
 149:Drivers/lvgl/src/draw/sw/lv_draw_sw_border.c ****         blend_area.x1 = core_area.x1;
 545              		.loc 1 149 7 is_stmt 0 view .LVU173
 546 0130 029B     		ldr	r3, [sp, #8]
 547 0132 1D42     		tst	r5, r3
 548 0134 21D1     		bne	.L49
 549              	.LVL44:
 550              	.L20:
 157:Drivers/lvgl/src/draw/sw/lv_draw_sw_border.c ****         blend_area.x1 = core_area.x1;
 551              		.loc 1 157 5 is_stmt 1 view .LVU174
 157:Drivers/lvgl/src/draw/sw/lv_draw_sw_border.c ****         blend_area.x1 = core_area.x1;
 552              		.loc 1 157 7 is_stmt 0 view .LVU175
 553 0136 15EA0B0F 		tst	r5, fp
 554 013a 2CD1     		bne	.L50
 555              	.L21:
 166:Drivers/lvgl/src/draw/sw/lv_draw_sw_border.c ****         blend_area.x1 = outer_area->x1;
 556              		.loc 1 166 5 is_stmt 1 view .LVU176
 166:Drivers/lvgl/src/draw/sw/lv_draw_sw_border.c ****         blend_area.x1 = outer_area->x1;
 557              		.loc 1 166 18 is_stmt 0 view .LVU177
 558 013c 2268     		ldr	r2, [r4]
 166:Drivers/lvgl/src/draw/sw/lv_draw_sw_border.c ****         blend_area.x1 = outer_area->x1;
 559              		.loc 1 166 36 view .LVU178
 560 013e A368     		ldr	r3, [r4, #8]
 166:Drivers/lvgl/src/draw/sw/lv_draw_sw_border.c ****         blend_area.x1 = outer_area->x1;
 561              		.loc 1 166 7 view .LVU179
 562 0140 9A42     		cmp	r2, r3
 563 0142 02DB     		blt	.L22
 166:Drivers/lvgl/src/draw/sw/lv_draw_sw_border.c ****         blend_area.x1 = outer_area->x1;
 564              		.loc 1 166 54 discriminator 1 view .LVU180
 565 0144 079B     		ldr	r3, [sp, #28]
 566 0146 002B     		cmp	r3, #0
 567 0148 33D1     		bne	.L51
 568              	.L22:
 174:Drivers/lvgl/src/draw/sw/lv_draw_sw_border.c ****             blend_area.x1 = outer_area->x1;
 569              		.loc 1 174 9 is_stmt 1 view .LVU181
 174:Drivers/lvgl/src/draw/sw/lv_draw_sw_border.c ****             blend_area.x1 = outer_area->x1;
 570              		.loc 1 174 11 is_stmt 0 view .LVU182
 571 014a 039B     		ldr	r3, [sp, #12]
 572 014c 049A     		ldr	r2, [sp, #16]
 573 014e 9342     		cmp	r3, r2
 574 0150 3CDD     		ble	.L52
 575              	.L24:
 182:Drivers/lvgl/src/draw/sw/lv_draw_sw_border.c ****             blend_area.x1 = inner_area->x2 + 1;
ARM GAS  /tmp/ccgnsg21.s 			page 20


 576              		.loc 1 182 9 is_stmt 1 view .LVU183
 182:Drivers/lvgl/src/draw/sw/lv_draw_sw_border.c ****             blend_area.x1 = inner_area->x2 + 1;
 577              		.loc 1 182 11 is_stmt 0 view .LVU184
 578 0152 059B     		ldr	r3, [sp, #20]
 579 0154 069A     		ldr	r2, [sp, #24]
 580 0156 9342     		cmp	r3, r2
 581 0158 46DA     		bge	.L53
 582              	.L23:
 192:Drivers/lvgl/src/draw/sw/lv_draw_sw_border.c **** 
 583              		.loc 1 192 5 is_stmt 1 view .LVU185
 195:Drivers/lvgl/src/draw/sw/lv_draw_sw_border.c ****         /*Calculate the top corner and mirror it to the bottom*/
 584              		.loc 1 195 5 view .LVU186
 195:Drivers/lvgl/src/draw/sw/lv_draw_sw_border.c ****         /*Calculate the top corner and mirror it to the bottom*/
 585              		.loc 1 195 7 is_stmt 0 view .LVU187
 586 015a 002D     		cmp	r5, #0
 587 015c 40F08E80 		bne	.L25
 588              	.LBB14:
 197:Drivers/lvgl/src/draw/sw/lv_draw_sw_border.c ****         blend_area.x2 = draw_area.x2;
 589              		.loc 1 197 9 is_stmt 1 view .LVU188
 197:Drivers/lvgl/src/draw/sw/lv_draw_sw_border.c ****         blend_area.x2 = draw_area.x2;
 590              		.loc 1 197 34 is_stmt 0 view .LVU189
 591 0160 329B     		ldr	r3, [sp, #200]
 197:Drivers/lvgl/src/draw/sw/lv_draw_sw_border.c ****         blend_area.x2 = draw_area.x2;
 592              		.loc 1 197 23 view .LVU190
 593 0162 0E93     		str	r3, [sp, #56]
 198:Drivers/lvgl/src/draw/sw/lv_draw_sw_border.c ****         int32_t max_h = LV_MAX(rout, inner_area->y1 - outer_area->y1);
 594              		.loc 1 198 9 is_stmt 1 view .LVU191
 198:Drivers/lvgl/src/draw/sw/lv_draw_sw_border.c ****         int32_t max_h = LV_MAX(rout, inner_area->y1 - outer_area->y1);
 595              		.loc 1 198 34 is_stmt 0 view .LVU192
 596 0164 349B     		ldr	r3, [sp, #208]
 198:Drivers/lvgl/src/draw/sw/lv_draw_sw_border.c ****         int32_t max_h = LV_MAX(rout, inner_area->y1 - outer_area->y1);
 597              		.loc 1 198 23 view .LVU193
 598 0166 1093     		str	r3, [sp, #64]
 199:Drivers/lvgl/src/draw/sw/lv_draw_sw_border.c ****         for(h = 0; h < max_h; h++) {
 599              		.loc 1 199 9 is_stmt 1 view .LVU194
 199:Drivers/lvgl/src/draw/sw/lv_draw_sw_border.c ****         for(h = 0; h < max_h; h++) {
 600              		.loc 1 199 25 is_stmt 0 view .LVU195
 601 0168 6368     		ldr	r3, [r4, #4]
 602 016a 7268     		ldr	r2, [r6, #4]
 603 016c A3EB020B 		sub	fp, r3, r2
 604              	.LVL45:
 199:Drivers/lvgl/src/draw/sw/lv_draw_sw_border.c ****         for(h = 0; h < max_h; h++) {
 605              		.loc 1 199 17 view .LVU196
 606 0170 BB45     		cmp	fp, r7
 607 0172 B8BF     		it	lt
 608 0174 BB46     		movlt	fp, r7
 609              	.LVL46:
 200:Drivers/lvgl/src/draw/sw/lv_draw_sw_border.c ****             int32_t top_y = outer_area->y1 + h;
 610              		.loc 1 200 9 is_stmt 1 view .LVU197
 200:Drivers/lvgl/src/draw/sw/lv_draw_sw_border.c ****             int32_t top_y = outer_area->y1 + h;
 611              		.loc 1 200 9 is_stmt 0 view .LVU198
 612 0176 0297     		str	r7, [sp, #8]
 613              	.LVL47:
 200:Drivers/lvgl/src/draw/sw/lv_draw_sw_border.c ****             int32_t top_y = outer_area->y1 + h;
 614              		.loc 1 200 9 view .LVU199
 615 0178 5AE0     		b	.L26
 616              	.LVL48:
ARM GAS  /tmp/ccgnsg21.s 			page 21


 617              	.L49:
 200:Drivers/lvgl/src/draw/sw/lv_draw_sw_border.c ****             int32_t top_y = outer_area->y1 + h;
 618              		.loc 1 200 9 view .LVU200
 619              	.LBE14:
 150:Drivers/lvgl/src/draw/sw/lv_draw_sw_border.c ****         blend_area.x2 = core_area.x2;
 620              		.loc 1 150 9 is_stmt 1 view .LVU201
 150:Drivers/lvgl/src/draw/sw/lv_draw_sw_border.c ****         blend_area.x2 = core_area.x2;
 621              		.loc 1 150 34 is_stmt 0 view .LVU202
 622 017a 0A9B     		ldr	r3, [sp, #40]
 150:Drivers/lvgl/src/draw/sw/lv_draw_sw_border.c ****         blend_area.x2 = core_area.x2;
 623              		.loc 1 150 23 view .LVU203
 624 017c 0E93     		str	r3, [sp, #56]
 151:Drivers/lvgl/src/draw/sw/lv_draw_sw_border.c ****         blend_area.y1 = outer_area->y1;
 625              		.loc 1 151 9 is_stmt 1 view .LVU204
 151:Drivers/lvgl/src/draw/sw/lv_draw_sw_border.c ****         blend_area.y1 = outer_area->y1;
 626              		.loc 1 151 34 is_stmt 0 view .LVU205
 627 017e 0C9B     		ldr	r3, [sp, #48]
 151:Drivers/lvgl/src/draw/sw/lv_draw_sw_border.c ****         blend_area.y1 = outer_area->y1;
 628              		.loc 1 151 23 view .LVU206
 629 0180 1093     		str	r3, [sp, #64]
 152:Drivers/lvgl/src/draw/sw/lv_draw_sw_border.c ****         blend_area.y2 = inner_area->y1 - 1;
 630              		.loc 1 152 9 is_stmt 1 view .LVU207
 152:Drivers/lvgl/src/draw/sw/lv_draw_sw_border.c ****         blend_area.y2 = inner_area->y1 - 1;
 631              		.loc 1 152 35 is_stmt 0 view .LVU208
 632 0182 7368     		ldr	r3, [r6, #4]
 152:Drivers/lvgl/src/draw/sw/lv_draw_sw_border.c ****         blend_area.y2 = inner_area->y1 - 1;
 633              		.loc 1 152 23 view .LVU209
 634 0184 0F93     		str	r3, [sp, #60]
 153:Drivers/lvgl/src/draw/sw/lv_draw_sw_border.c ****         lv_draw_sw_blend(t, &blend_dsc);
 635              		.loc 1 153 9 is_stmt 1 view .LVU210
 153:Drivers/lvgl/src/draw/sw/lv_draw_sw_border.c ****         lv_draw_sw_blend(t, &blend_dsc);
 636              		.loc 1 153 35 is_stmt 0 view .LVU211
 637 0186 6368     		ldr	r3, [r4, #4]
 153:Drivers/lvgl/src/draw/sw/lv_draw_sw_border.c ****         lv_draw_sw_blend(t, &blend_dsc);
 638              		.loc 1 153 40 view .LVU212
 639 0188 013B     		subs	r3, r3, #1
 153:Drivers/lvgl/src/draw/sw/lv_draw_sw_border.c ****         lv_draw_sw_blend(t, &blend_dsc);
 640              		.loc 1 153 23 view .LVU213
 641 018a 1193     		str	r3, [sp, #68]
 154:Drivers/lvgl/src/draw/sw/lv_draw_sw_border.c ****     }
 642              		.loc 1 154 9 is_stmt 1 view .LVU214
 643 018c 27A9     		add	r1, sp, #156
 644 018e 4846     		mov	r0, r9
 645              	.LVL49:
 154:Drivers/lvgl/src/draw/sw/lv_draw_sw_border.c ****     }
 646              		.loc 1 154 9 is_stmt 0 view .LVU215
 647 0190 FFF7FEFF 		bl	lv_draw_sw_blend
 648              	.LVL50:
 649 0194 CFE7     		b	.L20
 650              	.L50:
 158:Drivers/lvgl/src/draw/sw/lv_draw_sw_border.c ****         blend_area.x2 = core_area.x2;
 651              		.loc 1 158 9 is_stmt 1 view .LVU216
 158:Drivers/lvgl/src/draw/sw/lv_draw_sw_border.c ****         blend_area.x2 = core_area.x2;
 652              		.loc 1 158 34 is_stmt 0 view .LVU217
 653 0196 0A9B     		ldr	r3, [sp, #40]
 158:Drivers/lvgl/src/draw/sw/lv_draw_sw_border.c ****         blend_area.x2 = core_area.x2;
 654              		.loc 1 158 23 view .LVU218
ARM GAS  /tmp/ccgnsg21.s 			page 22


 655 0198 0E93     		str	r3, [sp, #56]
 159:Drivers/lvgl/src/draw/sw/lv_draw_sw_border.c ****         blend_area.y1 = inner_area->y2 + 1;
 656              		.loc 1 159 9 is_stmt 1 view .LVU219
 159:Drivers/lvgl/src/draw/sw/lv_draw_sw_border.c ****         blend_area.y1 = inner_area->y2 + 1;
 657              		.loc 1 159 34 is_stmt 0 view .LVU220
 658 019a 0C9B     		ldr	r3, [sp, #48]
 159:Drivers/lvgl/src/draw/sw/lv_draw_sw_border.c ****         blend_area.y1 = inner_area->y2 + 1;
 659              		.loc 1 159 23 view .LVU221
 660 019c 1093     		str	r3, [sp, #64]
 160:Drivers/lvgl/src/draw/sw/lv_draw_sw_border.c ****         blend_area.y2 = outer_area->y2;
 661              		.loc 1 160 9 is_stmt 1 view .LVU222
 160:Drivers/lvgl/src/draw/sw/lv_draw_sw_border.c ****         blend_area.y2 = outer_area->y2;
 662              		.loc 1 160 35 is_stmt 0 view .LVU223
 663 019e E368     		ldr	r3, [r4, #12]
 160:Drivers/lvgl/src/draw/sw/lv_draw_sw_border.c ****         blend_area.y2 = outer_area->y2;
 664              		.loc 1 160 40 view .LVU224
 665 01a0 0133     		adds	r3, r3, #1
 160:Drivers/lvgl/src/draw/sw/lv_draw_sw_border.c ****         blend_area.y2 = outer_area->y2;
 666              		.loc 1 160 23 view .LVU225
 667 01a2 0F93     		str	r3, [sp, #60]
 161:Drivers/lvgl/src/draw/sw/lv_draw_sw_border.c ****         lv_draw_sw_blend(t, &blend_dsc);
 668              		.loc 1 161 9 is_stmt 1 view .LVU226
 161:Drivers/lvgl/src/draw/sw/lv_draw_sw_border.c ****         lv_draw_sw_blend(t, &blend_dsc);
 669              		.loc 1 161 35 is_stmt 0 view .LVU227
 670 01a4 F368     		ldr	r3, [r6, #12]
 161:Drivers/lvgl/src/draw/sw/lv_draw_sw_border.c ****         lv_draw_sw_blend(t, &blend_dsc);
 671              		.loc 1 161 23 view .LVU228
 672 01a6 1193     		str	r3, [sp, #68]
 162:Drivers/lvgl/src/draw/sw/lv_draw_sw_border.c ****     }
 673              		.loc 1 162 9 is_stmt 1 view .LVU229
 674 01a8 27A9     		add	r1, sp, #156
 675 01aa 4846     		mov	r0, r9
 676 01ac FFF7FEFF 		bl	lv_draw_sw_blend
 677              	.LVL51:
 678 01b0 C4E7     		b	.L21
 679              	.L51:
 167:Drivers/lvgl/src/draw/sw/lv_draw_sw_border.c ****         blend_area.x2 = outer_area->x2;
 680              		.loc 1 167 9 view .LVU230
 167:Drivers/lvgl/src/draw/sw/lv_draw_sw_border.c ****         blend_area.x2 = outer_area->x2;
 681              		.loc 1 167 35 is_stmt 0 view .LVU231
 682 01b2 3368     		ldr	r3, [r6]
 167:Drivers/lvgl/src/draw/sw/lv_draw_sw_border.c ****         blend_area.x2 = outer_area->x2;
 683              		.loc 1 167 23 view .LVU232
 684 01b4 0E93     		str	r3, [sp, #56]
 168:Drivers/lvgl/src/draw/sw/lv_draw_sw_border.c ****         blend_area.y1 = core_area.y1;
 685              		.loc 1 168 9 is_stmt 1 view .LVU233
 168:Drivers/lvgl/src/draw/sw/lv_draw_sw_border.c ****         blend_area.y1 = core_area.y1;
 686              		.loc 1 168 35 is_stmt 0 view .LVU234
 687 01b6 B368     		ldr	r3, [r6, #8]
 168:Drivers/lvgl/src/draw/sw/lv_draw_sw_border.c ****         blend_area.y1 = core_area.y1;
 688              		.loc 1 168 23 view .LVU235
 689 01b8 1093     		str	r3, [sp, #64]
 169:Drivers/lvgl/src/draw/sw/lv_draw_sw_border.c ****         blend_area.y2 = core_area.y2;
 690              		.loc 1 169 9 is_stmt 1 view .LVU236
 169:Drivers/lvgl/src/draw/sw/lv_draw_sw_border.c ****         blend_area.y2 = core_area.y2;
 691              		.loc 1 169 34 is_stmt 0 view .LVU237
 692 01ba 0B9B     		ldr	r3, [sp, #44]
ARM GAS  /tmp/ccgnsg21.s 			page 23


 169:Drivers/lvgl/src/draw/sw/lv_draw_sw_border.c ****         blend_area.y2 = core_area.y2;
 693              		.loc 1 169 23 view .LVU238
 694 01bc 0F93     		str	r3, [sp, #60]
 170:Drivers/lvgl/src/draw/sw/lv_draw_sw_border.c ****         lv_draw_sw_blend(t, &blend_dsc);
 695              		.loc 1 170 9 is_stmt 1 view .LVU239
 170:Drivers/lvgl/src/draw/sw/lv_draw_sw_border.c ****         lv_draw_sw_blend(t, &blend_dsc);
 696              		.loc 1 170 34 is_stmt 0 view .LVU240
 697 01be 0D9B     		ldr	r3, [sp, #52]
 170:Drivers/lvgl/src/draw/sw/lv_draw_sw_border.c ****         lv_draw_sw_blend(t, &blend_dsc);
 698              		.loc 1 170 23 view .LVU241
 699 01c0 1193     		str	r3, [sp, #68]
 171:Drivers/lvgl/src/draw/sw/lv_draw_sw_border.c ****     }
 700              		.loc 1 171 9 is_stmt 1 view .LVU242
 701 01c2 27A9     		add	r1, sp, #156
 702 01c4 4846     		mov	r0, r9
 703 01c6 FFF7FEFF 		bl	lv_draw_sw_blend
 704              	.LVL52:
 705 01ca C6E7     		b	.L23
 706              	.L52:
 175:Drivers/lvgl/src/draw/sw/lv_draw_sw_border.c ****             blend_area.x2 = inner_area->x1 - 1;
 707              		.loc 1 175 13 view .LVU243
 175:Drivers/lvgl/src/draw/sw/lv_draw_sw_border.c ****             blend_area.x2 = inner_area->x1 - 1;
 708              		.loc 1 175 39 is_stmt 0 view .LVU244
 709 01cc 3368     		ldr	r3, [r6]
 175:Drivers/lvgl/src/draw/sw/lv_draw_sw_border.c ****             blend_area.x2 = inner_area->x1 - 1;
 710              		.loc 1 175 27 view .LVU245
 711 01ce 0E93     		str	r3, [sp, #56]
 176:Drivers/lvgl/src/draw/sw/lv_draw_sw_border.c ****             blend_area.y1 = core_area.y1;
 712              		.loc 1 176 13 is_stmt 1 view .LVU246
 176:Drivers/lvgl/src/draw/sw/lv_draw_sw_border.c ****             blend_area.y1 = core_area.y1;
 713              		.loc 1 176 39 is_stmt 0 view .LVU247
 714 01d0 2368     		ldr	r3, [r4]
 176:Drivers/lvgl/src/draw/sw/lv_draw_sw_border.c ****             blend_area.y1 = core_area.y1;
 715              		.loc 1 176 44 view .LVU248
 716 01d2 013B     		subs	r3, r3, #1
 176:Drivers/lvgl/src/draw/sw/lv_draw_sw_border.c ****             blend_area.y1 = core_area.y1;
 717              		.loc 1 176 27 view .LVU249
 718 01d4 1093     		str	r3, [sp, #64]
 177:Drivers/lvgl/src/draw/sw/lv_draw_sw_border.c ****             blend_area.y2 = core_area.y2;
 719              		.loc 1 177 13 is_stmt 1 view .LVU250
 177:Drivers/lvgl/src/draw/sw/lv_draw_sw_border.c ****             blend_area.y2 = core_area.y2;
 720              		.loc 1 177 38 is_stmt 0 view .LVU251
 721 01d6 0B9B     		ldr	r3, [sp, #44]
 177:Drivers/lvgl/src/draw/sw/lv_draw_sw_border.c ****             blend_area.y2 = core_area.y2;
 722              		.loc 1 177 27 view .LVU252
 723 01d8 0F93     		str	r3, [sp, #60]
 178:Drivers/lvgl/src/draw/sw/lv_draw_sw_border.c ****             lv_draw_sw_blend(t, &blend_dsc);
 724              		.loc 1 178 13 is_stmt 1 view .LVU253
 178:Drivers/lvgl/src/draw/sw/lv_draw_sw_border.c ****             lv_draw_sw_blend(t, &blend_dsc);
 725              		.loc 1 178 38 is_stmt 0 view .LVU254
 726 01da 0D9B     		ldr	r3, [sp, #52]
 178:Drivers/lvgl/src/draw/sw/lv_draw_sw_border.c ****             lv_draw_sw_blend(t, &blend_dsc);
 727              		.loc 1 178 27 view .LVU255
 728 01dc 1193     		str	r3, [sp, #68]
 179:Drivers/lvgl/src/draw/sw/lv_draw_sw_border.c ****         }
 729              		.loc 1 179 13 is_stmt 1 view .LVU256
 730 01de 27A9     		add	r1, sp, #156
ARM GAS  /tmp/ccgnsg21.s 			page 24


 731 01e0 4846     		mov	r0, r9
 732 01e2 FFF7FEFF 		bl	lv_draw_sw_blend
 733              	.LVL53:
 734 01e6 B4E7     		b	.L24
 735              	.L53:
 183:Drivers/lvgl/src/draw/sw/lv_draw_sw_border.c ****             blend_area.x2 = outer_area->x2;
 736              		.loc 1 183 13 view .LVU257
 183:Drivers/lvgl/src/draw/sw/lv_draw_sw_border.c ****             blend_area.x2 = outer_area->x2;
 737              		.loc 1 183 39 is_stmt 0 view .LVU258
 738 01e8 A368     		ldr	r3, [r4, #8]
 183:Drivers/lvgl/src/draw/sw/lv_draw_sw_border.c ****             blend_area.x2 = outer_area->x2;
 739              		.loc 1 183 44 view .LVU259
 740 01ea 0133     		adds	r3, r3, #1
 183:Drivers/lvgl/src/draw/sw/lv_draw_sw_border.c ****             blend_area.x2 = outer_area->x2;
 741              		.loc 1 183 27 view .LVU260
 742 01ec 0E93     		str	r3, [sp, #56]
 184:Drivers/lvgl/src/draw/sw/lv_draw_sw_border.c ****             blend_area.y1 = core_area.y1;
 743              		.loc 1 184 13 is_stmt 1 view .LVU261
 184:Drivers/lvgl/src/draw/sw/lv_draw_sw_border.c ****             blend_area.y1 = core_area.y1;
 744              		.loc 1 184 39 is_stmt 0 view .LVU262
 745 01ee B368     		ldr	r3, [r6, #8]
 184:Drivers/lvgl/src/draw/sw/lv_draw_sw_border.c ****             blend_area.y1 = core_area.y1;
 746              		.loc 1 184 27 view .LVU263
 747 01f0 1093     		str	r3, [sp, #64]
 185:Drivers/lvgl/src/draw/sw/lv_draw_sw_border.c ****             blend_area.y2 = core_area.y2;
 748              		.loc 1 185 13 is_stmt 1 view .LVU264
 185:Drivers/lvgl/src/draw/sw/lv_draw_sw_border.c ****             blend_area.y2 = core_area.y2;
 749              		.loc 1 185 38 is_stmt 0 view .LVU265
 750 01f2 0B9B     		ldr	r3, [sp, #44]
 185:Drivers/lvgl/src/draw/sw/lv_draw_sw_border.c ****             blend_area.y2 = core_area.y2;
 751              		.loc 1 185 27 view .LVU266
 752 01f4 0F93     		str	r3, [sp, #60]
 186:Drivers/lvgl/src/draw/sw/lv_draw_sw_border.c ****             lv_draw_sw_blend(t, &blend_dsc);
 753              		.loc 1 186 13 is_stmt 1 view .LVU267
 186:Drivers/lvgl/src/draw/sw/lv_draw_sw_border.c ****             lv_draw_sw_blend(t, &blend_dsc);
 754              		.loc 1 186 38 is_stmt 0 view .LVU268
 755 01f6 0D9B     		ldr	r3, [sp, #52]
 186:Drivers/lvgl/src/draw/sw/lv_draw_sw_border.c ****             lv_draw_sw_blend(t, &blend_dsc);
 756              		.loc 1 186 27 view .LVU269
 757 01f8 1193     		str	r3, [sp, #68]
 187:Drivers/lvgl/src/draw/sw/lv_draw_sw_border.c ****         }
 758              		.loc 1 187 13 is_stmt 1 view .LVU270
 759 01fa 27A9     		add	r1, sp, #156
 760 01fc 4846     		mov	r0, r9
 761 01fe FFF7FEFF 		bl	lv_draw_sw_blend
 762              	.LVL54:
 763 0202 AAE7     		b	.L23
 764              	.LVL55:
 765              	.L27:
 766              	.LBB17:
 767              	.LBB15:
 205:Drivers/lvgl/src/draw/sw/lv_draw_sw_border.c ****             blend_dsc.mask_res = lv_draw_sw_mask_apply(mask_list, mask_buf, blend_area.x1, top_y, d
 768              		.loc 1 205 13 view .LVU271
 769 0204 5246     		mov	r2, r10
 770 0206 FF21     		movs	r1, #255
 771 0208 4046     		mov	r0, r8
 772 020a FFF7FEFF 		bl	lv_memset
ARM GAS  /tmp/ccgnsg21.s 			page 25


 773              	.LVL56:
 206:Drivers/lvgl/src/draw/sw/lv_draw_sw_border.c **** 
 774              		.loc 1 206 13 view .LVU272
 206:Drivers/lvgl/src/draw/sw/lv_draw_sw_border.c **** 
 775              		.loc 1 206 34 is_stmt 0 view .LVU273
 776 020e CDF800A0 		str	r10, [sp]
 777 0212 2346     		mov	r3, r4
 778 0214 0E9A     		ldr	r2, [sp, #56]
 779 0216 4146     		mov	r1, r8
 780 0218 24A8     		add	r0, sp, #144
 781 021a FFF7FEFF 		bl	lv_draw_sw_mask_apply
 782              	.LVL57:
 206:Drivers/lvgl/src/draw/sw/lv_draw_sw_border.c **** 
 783              		.loc 1 206 32 discriminator 1 view .LVU274
 784 021e 8DF8B800 		strb	r0, [sp, #184]
 208:Drivers/lvgl/src/draw/sw/lv_draw_sw_border.c ****                 blend_area.y1 = top_y;
 785              		.loc 1 208 13 is_stmt 1 view .LVU275
 208:Drivers/lvgl/src/draw/sw/lv_draw_sw_border.c ****                 blend_area.y1 = top_y;
 786              		.loc 1 208 34 is_stmt 0 view .LVU276
 787 0222 339B     		ldr	r3, [sp, #204]
 208:Drivers/lvgl/src/draw/sw/lv_draw_sw_border.c ****                 blend_area.y1 = top_y;
 788              		.loc 1 208 15 view .LVU277
 789 0224 A342     		cmp	r3, r4
 790 0226 10DD     		ble	.L54
 791              	.L29:
 214:Drivers/lvgl/src/draw/sw/lv_draw_sw_border.c ****                 blend_area.y1 = bottom_y;
 792              		.loc 1 214 13 is_stmt 1 view .LVU278
 214:Drivers/lvgl/src/draw/sw/lv_draw_sw_border.c ****                 blend_area.y1 = bottom_y;
 793              		.loc 1 214 37 is_stmt 0 view .LVU279
 794 0228 359B     		ldr	r3, [sp, #212]
 214:Drivers/lvgl/src/draw/sw/lv_draw_sw_border.c ****                 blend_area.y1 = bottom_y;
 795              		.loc 1 214 15 view .LVU280
 796 022a BB42     		cmp	r3, r7
 797 022c 14DA     		bge	.L55
 798              	.L28:
 214:Drivers/lvgl/src/draw/sw/lv_draw_sw_border.c ****                 blend_area.y1 = bottom_y;
 799              		.loc 1 214 15 view .LVU281
 800              	.LBE15:
 200:Drivers/lvgl/src/draw/sw/lv_draw_sw_border.c ****             int32_t top_y = outer_area->y1 + h;
 801              		.loc 1 200 32 is_stmt 1 discriminator 2 view .LVU282
 802 022e 0135     		adds	r5, r5, #1
 803              	.LVL58:
 804              	.L26:
 200:Drivers/lvgl/src/draw/sw/lv_draw_sw_border.c ****             int32_t top_y = outer_area->y1 + h;
 805              		.loc 1 200 22 discriminator 1 view .LVU283
 806 0230 5D45     		cmp	r5, fp
 807 0232 18DA     		bge	.L56
 808              	.LBB16:
 201:Drivers/lvgl/src/draw/sw/lv_draw_sw_border.c ****             int32_t bottom_y = outer_area->y2 - h;
 809              		.loc 1 201 13 view .LVU284
 201:Drivers/lvgl/src/draw/sw/lv_draw_sw_border.c ****             int32_t bottom_y = outer_area->y2 - h;
 810              		.loc 1 201 39 is_stmt 0 view .LVU285
 811 0234 7468     		ldr	r4, [r6, #4]
 201:Drivers/lvgl/src/draw/sw/lv_draw_sw_border.c ****             int32_t bottom_y = outer_area->y2 - h;
 812              		.loc 1 201 21 view .LVU286
 813 0236 2C44     		add	r4, r4, r5
 814              	.LVL59:
ARM GAS  /tmp/ccgnsg21.s 			page 26


 202:Drivers/lvgl/src/draw/sw/lv_draw_sw_border.c ****             if(top_y < draw_area.y1 && bottom_y > draw_area.y2) continue;   /*This line is clipped 
 815              		.loc 1 202 13 is_stmt 1 view .LVU287
 202:Drivers/lvgl/src/draw/sw/lv_draw_sw_border.c ****             if(top_y < draw_area.y1 && bottom_y > draw_area.y2) continue;   /*This line is clipped 
 816              		.loc 1 202 42 is_stmt 0 view .LVU288
 817 0238 F768     		ldr	r7, [r6, #12]
 202:Drivers/lvgl/src/draw/sw/lv_draw_sw_border.c ****             if(top_y < draw_area.y1 && bottom_y > draw_area.y2) continue;   /*This line is clipped 
 818              		.loc 1 202 21 view .LVU289
 819 023a 7F1B     		subs	r7, r7, r5
 820              	.LVL60:
 203:Drivers/lvgl/src/draw/sw/lv_draw_sw_border.c **** 
 821              		.loc 1 203 13 is_stmt 1 view .LVU290
 203:Drivers/lvgl/src/draw/sw/lv_draw_sw_border.c **** 
 822              		.loc 1 203 33 is_stmt 0 view .LVU291
 823 023c 339B     		ldr	r3, [sp, #204]
 203:Drivers/lvgl/src/draw/sw/lv_draw_sw_border.c **** 
 824              		.loc 1 203 15 view .LVU292
 825 023e A342     		cmp	r3, r4
 826 0240 E0DD     		ble	.L27
 203:Drivers/lvgl/src/draw/sw/lv_draw_sw_border.c **** 
 827              		.loc 1 203 60 discriminator 1 view .LVU293
 828 0242 359B     		ldr	r3, [sp, #212]
 203:Drivers/lvgl/src/draw/sw/lv_draw_sw_border.c **** 
 829              		.loc 1 203 37 discriminator 1 view .LVU294
 830 0244 BB42     		cmp	r3, r7
 831 0246 DDDA     		bge	.L27
 832 0248 F1E7     		b	.L28
 833              	.L54:
 209:Drivers/lvgl/src/draw/sw/lv_draw_sw_border.c ****                 blend_area.y2 = top_y;
 834              		.loc 1 209 17 is_stmt 1 view .LVU295
 209:Drivers/lvgl/src/draw/sw/lv_draw_sw_border.c ****                 blend_area.y2 = top_y;
 835              		.loc 1 209 31 is_stmt 0 view .LVU296
 836 024a 0F94     		str	r4, [sp, #60]
 210:Drivers/lvgl/src/draw/sw/lv_draw_sw_border.c ****                 lv_draw_sw_blend(t, &blend_dsc);
 837              		.loc 1 210 17 is_stmt 1 view .LVU297
 210:Drivers/lvgl/src/draw/sw/lv_draw_sw_border.c ****                 lv_draw_sw_blend(t, &blend_dsc);
 838              		.loc 1 210 31 is_stmt 0 view .LVU298
 839 024c 1194     		str	r4, [sp, #68]
 211:Drivers/lvgl/src/draw/sw/lv_draw_sw_border.c ****             }
 840              		.loc 1 211 17 is_stmt 1 view .LVU299
 841 024e 27A9     		add	r1, sp, #156
 842 0250 4846     		mov	r0, r9
 843 0252 FFF7FEFF 		bl	lv_draw_sw_blend
 844              	.LVL61:
 845 0256 E7E7     		b	.L29
 846              	.L55:
 215:Drivers/lvgl/src/draw/sw/lv_draw_sw_border.c ****                 blend_area.y2 = bottom_y;
 847              		.loc 1 215 17 view .LVU300
 215:Drivers/lvgl/src/draw/sw/lv_draw_sw_border.c ****                 blend_area.y2 = bottom_y;
 848              		.loc 1 215 31 is_stmt 0 view .LVU301
 849 0258 0F97     		str	r7, [sp, #60]
 216:Drivers/lvgl/src/draw/sw/lv_draw_sw_border.c ****                 lv_draw_sw_blend(t, &blend_dsc);
 850              		.loc 1 216 17 is_stmt 1 view .LVU302
 216:Drivers/lvgl/src/draw/sw/lv_draw_sw_border.c ****                 lv_draw_sw_blend(t, &blend_dsc);
 851              		.loc 1 216 31 is_stmt 0 view .LVU303
 852 025a 1197     		str	r7, [sp, #68]
 217:Drivers/lvgl/src/draw/sw/lv_draw_sw_border.c ****             }
 853              		.loc 1 217 17 is_stmt 1 view .LVU304
ARM GAS  /tmp/ccgnsg21.s 			page 27


 854 025c 27A9     		add	r1, sp, #156
 855 025e 4846     		mov	r0, r9
 856 0260 FFF7FEFF 		bl	lv_draw_sw_blend
 857              	.LVL62:
 858 0264 E3E7     		b	.L28
 859              	.LVL63:
 860              	.L56:
 217:Drivers/lvgl/src/draw/sw/lv_draw_sw_border.c ****             }
 861              		.loc 1 217 17 is_stmt 0 view .LVU305
 862              	.LBE16:
 863 0266 029F     		ldr	r7, [sp, #8]
 864              	.LVL64:
 865              	.L31:
 217:Drivers/lvgl/src/draw/sw/lv_draw_sw_border.c ****             }
 866              		.loc 1 217 17 view .LVU306
 867              	.LBE17:
 282:Drivers/lvgl/src/draw/sw/lv_draw_sw_border.c ****     if(rout > 0) lv_draw_sw_mask_free_param(&mask_rout_param);
 868              		.loc 1 282 5 is_stmt 1 view .LVU307
 869 0268 1BA8     		add	r0, sp, #108
 870 026a FFF7FEFF 		bl	lv_draw_sw_mask_free_param
 871              	.LVL65:
 283:Drivers/lvgl/src/draw/sw/lv_draw_sw_border.c ****     lv_free(mask_buf);
 872              		.loc 1 283 5 view .LVU308
 283:Drivers/lvgl/src/draw/sw/lv_draw_sw_border.c ****     lv_free(mask_buf);
 873              		.loc 1 283 7 is_stmt 0 view .LVU309
 874 026e 002F     		cmp	r7, #0
 875 0270 00F3A280 		bgt	.L57
 876              	.L43:
 284:Drivers/lvgl/src/draw/sw/lv_draw_sw_border.c **** 
 877              		.loc 1 284 5 is_stmt 1 view .LVU310
 878 0274 4046     		mov	r0, r8
 879 0276 FFF7FEFF 		bl	lv_free
 880              	.LVL66:
 881 027a CEE6     		b	.L15
 882              	.LVL67:
 883              	.L25:
 223:Drivers/lvgl/src/draw/sw/lv_draw_sw_border.c ****         blend_area.x2 = LV_MIN(draw_area.x2, core_area.x1 - 1);
 884              		.loc 1 223 9 view .LVU311
 223:Drivers/lvgl/src/draw/sw/lv_draw_sw_border.c ****         blend_area.x2 = LV_MIN(draw_area.x2, core_area.x1 - 1);
 885              		.loc 1 223 34 is_stmt 0 view .LVU312
 886 027c 329B     		ldr	r3, [sp, #200]
 223:Drivers/lvgl/src/draw/sw/lv_draw_sw_border.c ****         blend_area.x2 = LV_MIN(draw_area.x2, core_area.x1 - 1);
 887              		.loc 1 223 23 view .LVU313
 888 027e 0E93     		str	r3, [sp, #56]
 224:Drivers/lvgl/src/draw/sw/lv_draw_sw_border.c ****         blend_w = lv_area_get_width(&blend_area);
 889              		.loc 1 224 9 is_stmt 1 view .LVU314
 224:Drivers/lvgl/src/draw/sw/lv_draw_sw_border.c ****         blend_w = lv_area_get_width(&blend_area);
 890              		.loc 1 224 25 is_stmt 0 view .LVU315
 891 0280 0A9B     		ldr	r3, [sp, #40]
 892 0282 013B     		subs	r3, r3, #1
 893 0284 349A     		ldr	r2, [sp, #208]
 894 0286 9342     		cmp	r3, r2
 895 0288 A8BF     		it	ge
 896 028a 1346     		movge	r3, r2
 224:Drivers/lvgl/src/draw/sw/lv_draw_sw_border.c ****         blend_w = lv_area_get_width(&blend_area);
 897              		.loc 1 224 23 view .LVU316
 898 028c 1093     		str	r3, [sp, #64]
ARM GAS  /tmp/ccgnsg21.s 			page 28


 225:Drivers/lvgl/src/draw/sw/lv_draw_sw_border.c ****         if(blend_w > 0) {
 899              		.loc 1 225 9 is_stmt 1 view .LVU317
 225:Drivers/lvgl/src/draw/sw/lv_draw_sw_border.c ****         if(blend_w > 0) {
 900              		.loc 1 225 19 is_stmt 0 view .LVU318
 901 028e 0EA8     		add	r0, sp, #56
 902 0290 FFF7FEFF 		bl	lv_area_get_width
 903              	.LVL68:
 226:Drivers/lvgl/src/draw/sw/lv_draw_sw_border.c ****             if(left_side || top_side) {
 904              		.loc 1 226 9 is_stmt 1 view .LVU319
 226:Drivers/lvgl/src/draw/sw/lv_draw_sw_border.c ****             if(left_side || top_side) {
 905              		.loc 1 226 11 is_stmt 0 view .LVU320
 906 0294 051E     		subs	r5, r0, #0
 907              	.LVL69:
 226:Drivers/lvgl/src/draw/sw/lv_draw_sw_border.c ****             if(left_side || top_side) {
 908              		.loc 1 226 11 view .LVU321
 909 0296 3CDD     		ble	.L32
 227:Drivers/lvgl/src/draw/sw/lv_draw_sw_border.c ****                 for(h = draw_area.y1; h < core_area.y1; h++) {
 910              		.loc 1 227 13 is_stmt 1 view .LVU322
 227:Drivers/lvgl/src/draw/sw/lv_draw_sw_border.c ****                 for(h = draw_area.y1; h < core_area.y1; h++) {
 911              		.loc 1 227 15 is_stmt 0 view .LVU323
 912 0298 029B     		ldr	r3, [sp, #8]
 913 029a 089A     		ldr	r2, [sp, #32]
 914 029c 1343     		orrs	r3, r3, r2
 915 029e 19D0     		beq	.L33
 228:Drivers/lvgl/src/draw/sw/lv_draw_sw_border.c ****                     blend_area.y1 = h;
 916              		.loc 1 228 17 is_stmt 1 view .LVU324
 228:Drivers/lvgl/src/draw/sw/lv_draw_sw_border.c ****                     blend_area.y1 = h;
 917              		.loc 1 228 23 is_stmt 0 view .LVU325
 918 02a0 339C     		ldr	r4, [sp, #204]
 919              	.LVL70:
 228:Drivers/lvgl/src/draw/sw/lv_draw_sw_border.c ****                     blend_area.y1 = h;
 920              		.loc 1 228 17 view .LVU326
 921 02a2 14E0     		b	.L34
 922              	.LVL71:
 923              	.L35:
 229:Drivers/lvgl/src/draw/sw/lv_draw_sw_border.c ****                     blend_area.y2 = h;
 924              		.loc 1 229 21 is_stmt 1 view .LVU327
 229:Drivers/lvgl/src/draw/sw/lv_draw_sw_border.c ****                     blend_area.y2 = h;
 925              		.loc 1 229 35 is_stmt 0 view .LVU328
 926 02a4 0F94     		str	r4, [sp, #60]
 230:Drivers/lvgl/src/draw/sw/lv_draw_sw_border.c **** 
 927              		.loc 1 230 21 is_stmt 1 view .LVU329
 230:Drivers/lvgl/src/draw/sw/lv_draw_sw_border.c **** 
 928              		.loc 1 230 35 is_stmt 0 view .LVU330
 929 02a6 1194     		str	r4, [sp, #68]
 232:Drivers/lvgl/src/draw/sw/lv_draw_sw_border.c ****                     blend_dsc.mask_res = lv_draw_sw_mask_apply(mask_list, mask_buf, blend_area.x1, 
 930              		.loc 1 232 21 is_stmt 1 view .LVU331
 931 02a8 2A46     		mov	r2, r5
 932 02aa FF21     		movs	r1, #255
 933 02ac 4046     		mov	r0, r8
 934 02ae FFF7FEFF 		bl	lv_memset
 935              	.LVL72:
 233:Drivers/lvgl/src/draw/sw/lv_draw_sw_border.c ****                     lv_draw_sw_blend(t, &blend_dsc);
 936              		.loc 1 233 21 view .LVU332
 233:Drivers/lvgl/src/draw/sw/lv_draw_sw_border.c ****                     lv_draw_sw_blend(t, &blend_dsc);
 937              		.loc 1 233 42 is_stmt 0 view .LVU333
 938 02b2 0095     		str	r5, [sp]
ARM GAS  /tmp/ccgnsg21.s 			page 29


 939 02b4 2346     		mov	r3, r4
 940 02b6 0E9A     		ldr	r2, [sp, #56]
 941 02b8 4146     		mov	r1, r8
 942 02ba 24A8     		add	r0, sp, #144
 943 02bc FFF7FEFF 		bl	lv_draw_sw_mask_apply
 944              	.LVL73:
 233:Drivers/lvgl/src/draw/sw/lv_draw_sw_border.c ****                     lv_draw_sw_blend(t, &blend_dsc);
 945              		.loc 1 233 40 discriminator 1 view .LVU334
 946 02c0 8DF8B800 		strb	r0, [sp, #184]
 234:Drivers/lvgl/src/draw/sw/lv_draw_sw_border.c ****                 }
 947              		.loc 1 234 21 is_stmt 1 view .LVU335
 948 02c4 27A9     		add	r1, sp, #156
 949 02c6 4846     		mov	r0, r9
 950 02c8 FFF7FEFF 		bl	lv_draw_sw_blend
 951              	.LVL74:
 228:Drivers/lvgl/src/draw/sw/lv_draw_sw_border.c ****                     blend_area.y1 = h;
 952              		.loc 1 228 58 discriminator 3 view .LVU336
 953 02cc 0134     		adds	r4, r4, #1
 954              	.LVL75:
 955              	.L34:
 228:Drivers/lvgl/src/draw/sw/lv_draw_sw_border.c ****                     blend_area.y1 = h;
 956              		.loc 1 228 41 discriminator 1 view .LVU337
 228:Drivers/lvgl/src/draw/sw/lv_draw_sw_border.c ****                     blend_area.y1 = h;
 957              		.loc 1 228 52 is_stmt 0 discriminator 1 view .LVU338
 958 02ce 0B9B     		ldr	r3, [sp, #44]
 228:Drivers/lvgl/src/draw/sw/lv_draw_sw_border.c ****                     blend_area.y1 = h;
 959              		.loc 1 228 41 discriminator 1 view .LVU339
 960 02d0 A342     		cmp	r3, r4
 961 02d2 E7DC     		bgt	.L35
 962              	.LVL76:
 963              	.L33:
 238:Drivers/lvgl/src/draw/sw/lv_draw_sw_border.c ****                 for(h = core_area.y2 + 1; h <= draw_area.y2; h++) {
 964              		.loc 1 238 13 is_stmt 1 view .LVU340
 238:Drivers/lvgl/src/draw/sw/lv_draw_sw_border.c ****                 for(h = core_area.y2 + 1; h <= draw_area.y2; h++) {
 965              		.loc 1 238 15 is_stmt 0 view .LVU341
 966 02d4 089B     		ldr	r3, [sp, #32]
 967 02d6 5BEA0303 		orrs	r3, fp, r3
 968 02da 1AD0     		beq	.L32
 239:Drivers/lvgl/src/draw/sw/lv_draw_sw_border.c ****                     blend_area.y1 = h;
 969              		.loc 1 239 17 is_stmt 1 view .LVU342
 239:Drivers/lvgl/src/draw/sw/lv_draw_sw_border.c ****                     blend_area.y1 = h;
 970              		.loc 1 239 34 is_stmt 0 view .LVU343
 971 02dc 0D9C     		ldr	r4, [sp, #52]
 239:Drivers/lvgl/src/draw/sw/lv_draw_sw_border.c ****                     blend_area.y1 = h;
 972              		.loc 1 239 23 view .LVU344
 973 02de 0134     		adds	r4, r4, #1
 974              	.LVL77:
 239:Drivers/lvgl/src/draw/sw/lv_draw_sw_border.c ****                     blend_area.y1 = h;
 975              		.loc 1 239 17 view .LVU345
 976 02e0 14E0     		b	.L36
 977              	.L37:
 240:Drivers/lvgl/src/draw/sw/lv_draw_sw_border.c ****                     blend_area.y2 = h;
 978              		.loc 1 240 21 is_stmt 1 view .LVU346
 240:Drivers/lvgl/src/draw/sw/lv_draw_sw_border.c ****                     blend_area.y2 = h;
 979              		.loc 1 240 35 is_stmt 0 view .LVU347
 980 02e2 0F94     		str	r4, [sp, #60]
 241:Drivers/lvgl/src/draw/sw/lv_draw_sw_border.c **** 
ARM GAS  /tmp/ccgnsg21.s 			page 30


 981              		.loc 1 241 21 is_stmt 1 view .LVU348
 241:Drivers/lvgl/src/draw/sw/lv_draw_sw_border.c **** 
 982              		.loc 1 241 35 is_stmt 0 view .LVU349
 983 02e4 1194     		str	r4, [sp, #68]
 243:Drivers/lvgl/src/draw/sw/lv_draw_sw_border.c ****                     blend_dsc.mask_res = lv_draw_sw_mask_apply(mask_list, mask_buf, blend_area.x1, 
 984              		.loc 1 243 21 is_stmt 1 view .LVU350
 985 02e6 2A46     		mov	r2, r5
 986 02e8 FF21     		movs	r1, #255
 987 02ea 4046     		mov	r0, r8
 988 02ec FFF7FEFF 		bl	lv_memset
 989              	.LVL78:
 244:Drivers/lvgl/src/draw/sw/lv_draw_sw_border.c ****                     lv_draw_sw_blend(t, &blend_dsc);
 990              		.loc 1 244 21 view .LVU351
 244:Drivers/lvgl/src/draw/sw/lv_draw_sw_border.c ****                     lv_draw_sw_blend(t, &blend_dsc);
 991              		.loc 1 244 42 is_stmt 0 view .LVU352
 992 02f0 0095     		str	r5, [sp]
 993 02f2 2346     		mov	r3, r4
 994 02f4 0E9A     		ldr	r2, [sp, #56]
 995 02f6 4146     		mov	r1, r8
 996 02f8 24A8     		add	r0, sp, #144
 997 02fa FFF7FEFF 		bl	lv_draw_sw_mask_apply
 998              	.LVL79:
 244:Drivers/lvgl/src/draw/sw/lv_draw_sw_border.c ****                     lv_draw_sw_blend(t, &blend_dsc);
 999              		.loc 1 244 40 discriminator 1 view .LVU353
 1000 02fe 8DF8B800 		strb	r0, [sp, #184]
 245:Drivers/lvgl/src/draw/sw/lv_draw_sw_border.c ****                 }
 1001              		.loc 1 245 21 is_stmt 1 view .LVU354
 1002 0302 27A9     		add	r1, sp, #156
 1003 0304 4846     		mov	r0, r9
 1004 0306 FFF7FEFF 		bl	lv_draw_sw_blend
 1005              	.LVL80:
 239:Drivers/lvgl/src/draw/sw/lv_draw_sw_border.c ****                     blend_area.y1 = h;
 1006              		.loc 1 239 63 discriminator 3 view .LVU355
 1007 030a 0134     		adds	r4, r4, #1
 1008              	.LVL81:
 1009              	.L36:
 239:Drivers/lvgl/src/draw/sw/lv_draw_sw_border.c ****                     blend_area.y1 = h;
 1010              		.loc 1 239 45 discriminator 1 view .LVU356
 239:Drivers/lvgl/src/draw/sw/lv_draw_sw_border.c ****                     blend_area.y1 = h;
 1011              		.loc 1 239 57 is_stmt 0 discriminator 1 view .LVU357
 1012 030c 359B     		ldr	r3, [sp, #212]
 239:Drivers/lvgl/src/draw/sw/lv_draw_sw_border.c ****                     blend_area.y1 = h;
 1013              		.loc 1 239 45 discriminator 1 view .LVU358
 1014 030e A342     		cmp	r3, r4
 1015 0310 E7DA     		bge	.L37
 1016              	.LVL82:
 1017              	.L32:
 251:Drivers/lvgl/src/draw/sw/lv_draw_sw_border.c ****         blend_area.x1 = LV_MAX(draw_area.x1, core_area.x2 + 1);
 1018              		.loc 1 251 9 is_stmt 1 view .LVU359
 251:Drivers/lvgl/src/draw/sw/lv_draw_sw_border.c ****         blend_area.x1 = LV_MAX(draw_area.x1, core_area.x2 + 1);
 1019              		.loc 1 251 25 is_stmt 0 view .LVU360
 1020 0312 109B     		ldr	r3, [sp, #64]
 1021 0314 0133     		adds	r3, r3, #1
 1022 0316 329A     		ldr	r2, [sp, #200]
 1023 0318 9342     		cmp	r3, r2
 1024 031a B8BF     		it	lt
 1025 031c 1346     		movlt	r3, r2
ARM GAS  /tmp/ccgnsg21.s 			page 31


 251:Drivers/lvgl/src/draw/sw/lv_draw_sw_border.c ****         blend_area.x1 = LV_MAX(draw_area.x1, core_area.x2 + 1);
 1026              		.loc 1 251 23 view .LVU361
 1027 031e 0E93     		str	r3, [sp, #56]
 252:Drivers/lvgl/src/draw/sw/lv_draw_sw_border.c **** 
 1028              		.loc 1 252 9 is_stmt 1 view .LVU362
 252:Drivers/lvgl/src/draw/sw/lv_draw_sw_border.c **** 
 1029              		.loc 1 252 25 is_stmt 0 view .LVU363
 1030 0320 0C9B     		ldr	r3, [sp, #48]
 1031 0322 0133     		adds	r3, r3, #1
 1032 0324 9342     		cmp	r3, r2
 1033 0326 B8BF     		it	lt
 1034 0328 1346     		movlt	r3, r2
 252:Drivers/lvgl/src/draw/sw/lv_draw_sw_border.c **** 
 1035              		.loc 1 252 23 view .LVU364
 1036 032a 0E93     		str	r3, [sp, #56]
 254:Drivers/lvgl/src/draw/sw/lv_draw_sw_border.c ****         blend_w = lv_area_get_width(&blend_area);
 1037              		.loc 1 254 9 is_stmt 1 view .LVU365
 254:Drivers/lvgl/src/draw/sw/lv_draw_sw_border.c ****         blend_w = lv_area_get_width(&blend_area);
 1038              		.loc 1 254 34 is_stmt 0 view .LVU366
 1039 032c 349B     		ldr	r3, [sp, #208]
 254:Drivers/lvgl/src/draw/sw/lv_draw_sw_border.c ****         blend_w = lv_area_get_width(&blend_area);
 1040              		.loc 1 254 23 view .LVU367
 1041 032e 1093     		str	r3, [sp, #64]
 255:Drivers/lvgl/src/draw/sw/lv_draw_sw_border.c **** 
 1042              		.loc 1 255 9 is_stmt 1 view .LVU368
 255:Drivers/lvgl/src/draw/sw/lv_draw_sw_border.c **** 
 1043              		.loc 1 255 19 is_stmt 0 view .LVU369
 1044 0330 0EA8     		add	r0, sp, #56
 1045 0332 FFF7FEFF 		bl	lv_area_get_width
 1046              	.LVL83:
 257:Drivers/lvgl/src/draw/sw/lv_draw_sw_border.c ****             if(right_side || top_side) {
 1047              		.loc 1 257 9 is_stmt 1 view .LVU370
 257:Drivers/lvgl/src/draw/sw/lv_draw_sw_border.c ****             if(right_side || top_side) {
 1048              		.loc 1 257 11 is_stmt 0 view .LVU371
 1049 0336 051E     		subs	r5, r0, #0
 1050 0338 96DD     		ble	.L31
 258:Drivers/lvgl/src/draw/sw/lv_draw_sw_border.c ****                 for(h = draw_area.y1; h < core_area.y1; h++) {
 1051              		.loc 1 258 13 is_stmt 1 view .LVU372
 258:Drivers/lvgl/src/draw/sw/lv_draw_sw_border.c ****                 for(h = draw_area.y1; h < core_area.y1; h++) {
 1052              		.loc 1 258 15 is_stmt 0 view .LVU373
 1053 033a 029B     		ldr	r3, [sp, #8]
 1054 033c 099A     		ldr	r2, [sp, #36]
 1055 033e 1343     		orrs	r3, r3, r2
 1056              	.LVL84:
 258:Drivers/lvgl/src/draw/sw/lv_draw_sw_border.c ****                 for(h = draw_area.y1; h < core_area.y1; h++) {
 1057              		.loc 1 258 15 view .LVU374
 1058 0340 19D0     		beq	.L38
 259:Drivers/lvgl/src/draw/sw/lv_draw_sw_border.c ****                     blend_area.y1 = h;
 1059              		.loc 1 259 17 is_stmt 1 view .LVU375
 259:Drivers/lvgl/src/draw/sw/lv_draw_sw_border.c ****                     blend_area.y1 = h;
 1060              		.loc 1 259 23 is_stmt 0 view .LVU376
 1061 0342 339C     		ldr	r4, [sp, #204]
 1062              	.LVL85:
 259:Drivers/lvgl/src/draw/sw/lv_draw_sw_border.c ****                     blend_area.y1 = h;
 1063              		.loc 1 259 17 view .LVU377
 1064 0344 14E0     		b	.L39
 1065              	.LVL86:
ARM GAS  /tmp/ccgnsg21.s 			page 32


 1066              	.L40:
 260:Drivers/lvgl/src/draw/sw/lv_draw_sw_border.c ****                     blend_area.y2 = h;
 1067              		.loc 1 260 21 is_stmt 1 view .LVU378
 260:Drivers/lvgl/src/draw/sw/lv_draw_sw_border.c ****                     blend_area.y2 = h;
 1068              		.loc 1 260 35 is_stmt 0 view .LVU379
 1069 0346 0F94     		str	r4, [sp, #60]
 261:Drivers/lvgl/src/draw/sw/lv_draw_sw_border.c **** 
 1070              		.loc 1 261 21 is_stmt 1 view .LVU380
 261:Drivers/lvgl/src/draw/sw/lv_draw_sw_border.c **** 
 1071              		.loc 1 261 35 is_stmt 0 view .LVU381
 1072 0348 1194     		str	r4, [sp, #68]
 263:Drivers/lvgl/src/draw/sw/lv_draw_sw_border.c ****                     blend_dsc.mask_res = lv_draw_sw_mask_apply(mask_list, mask_buf, blend_area.x1, 
 1073              		.loc 1 263 21 is_stmt 1 view .LVU382
 1074 034a 2A46     		mov	r2, r5
 1075 034c FF21     		movs	r1, #255
 1076 034e 4046     		mov	r0, r8
 1077 0350 FFF7FEFF 		bl	lv_memset
 1078              	.LVL87:
 264:Drivers/lvgl/src/draw/sw/lv_draw_sw_border.c ****                     lv_draw_sw_blend(t, &blend_dsc);
 1079              		.loc 1 264 21 view .LVU383
 264:Drivers/lvgl/src/draw/sw/lv_draw_sw_border.c ****                     lv_draw_sw_blend(t, &blend_dsc);
 1080              		.loc 1 264 42 is_stmt 0 view .LVU384
 1081 0354 0095     		str	r5, [sp]
 1082 0356 2346     		mov	r3, r4
 1083 0358 0E9A     		ldr	r2, [sp, #56]
 1084 035a 4146     		mov	r1, r8
 1085 035c 24A8     		add	r0, sp, #144
 1086 035e FFF7FEFF 		bl	lv_draw_sw_mask_apply
 1087              	.LVL88:
 264:Drivers/lvgl/src/draw/sw/lv_draw_sw_border.c ****                     lv_draw_sw_blend(t, &blend_dsc);
 1088              		.loc 1 264 40 discriminator 1 view .LVU385
 1089 0362 8DF8B800 		strb	r0, [sp, #184]
 265:Drivers/lvgl/src/draw/sw/lv_draw_sw_border.c ****                 }
 1090              		.loc 1 265 21 is_stmt 1 view .LVU386
 1091 0366 27A9     		add	r1, sp, #156
 1092 0368 4846     		mov	r0, r9
 1093 036a FFF7FEFF 		bl	lv_draw_sw_blend
 1094              	.LVL89:
 259:Drivers/lvgl/src/draw/sw/lv_draw_sw_border.c ****                     blend_area.y1 = h;
 1095              		.loc 1 259 58 discriminator 3 view .LVU387
 1096 036e 0134     		adds	r4, r4, #1
 1097              	.LVL90:
 1098              	.L39:
 259:Drivers/lvgl/src/draw/sw/lv_draw_sw_border.c ****                     blend_area.y1 = h;
 1099              		.loc 1 259 41 discriminator 1 view .LVU388
 259:Drivers/lvgl/src/draw/sw/lv_draw_sw_border.c ****                     blend_area.y1 = h;
 1100              		.loc 1 259 52 is_stmt 0 discriminator 1 view .LVU389
 1101 0370 0B9B     		ldr	r3, [sp, #44]
 259:Drivers/lvgl/src/draw/sw/lv_draw_sw_border.c ****                     blend_area.y1 = h;
 1102              		.loc 1 259 41 discriminator 1 view .LVU390
 1103 0372 A342     		cmp	r3, r4
 1104 0374 E7DC     		bgt	.L40
 1105              	.LVL91:
 1106              	.L38:
 269:Drivers/lvgl/src/draw/sw/lv_draw_sw_border.c ****                 for(h = core_area.y2 + 1; h <= draw_area.y2; h++) {
 1107              		.loc 1 269 13 is_stmt 1 view .LVU391
 269:Drivers/lvgl/src/draw/sw/lv_draw_sw_border.c ****                 for(h = core_area.y2 + 1; h <= draw_area.y2; h++) {
ARM GAS  /tmp/ccgnsg21.s 			page 33


 1108              		.loc 1 269 15 is_stmt 0 view .LVU392
 1109 0376 099B     		ldr	r3, [sp, #36]
 1110 0378 5BEA0303 		orrs	r3, fp, r3
 1111 037c 3FF474AF 		beq	.L31
 270:Drivers/lvgl/src/draw/sw/lv_draw_sw_border.c ****                     blend_area.y1 = h;
 1112              		.loc 1 270 17 is_stmt 1 view .LVU393
 270:Drivers/lvgl/src/draw/sw/lv_draw_sw_border.c ****                     blend_area.y1 = h;
 1113              		.loc 1 270 34 is_stmt 0 view .LVU394
 1114 0380 0D9C     		ldr	r4, [sp, #52]
 270:Drivers/lvgl/src/draw/sw/lv_draw_sw_border.c ****                     blend_area.y1 = h;
 1115              		.loc 1 270 23 view .LVU395
 1116 0382 0134     		adds	r4, r4, #1
 1117              	.LVL92:
 270:Drivers/lvgl/src/draw/sw/lv_draw_sw_border.c ****                     blend_area.y1 = h;
 1118              		.loc 1 270 17 view .LVU396
 1119 0384 14E0     		b	.L41
 1120              	.L42:
 271:Drivers/lvgl/src/draw/sw/lv_draw_sw_border.c ****                     blend_area.y2 = h;
 1121              		.loc 1 271 21 is_stmt 1 view .LVU397
 271:Drivers/lvgl/src/draw/sw/lv_draw_sw_border.c ****                     blend_area.y2 = h;
 1122              		.loc 1 271 35 is_stmt 0 view .LVU398
 1123 0386 0F94     		str	r4, [sp, #60]
 272:Drivers/lvgl/src/draw/sw/lv_draw_sw_border.c **** 
 1124              		.loc 1 272 21 is_stmt 1 view .LVU399
 272:Drivers/lvgl/src/draw/sw/lv_draw_sw_border.c **** 
 1125              		.loc 1 272 35 is_stmt 0 view .LVU400
 1126 0388 1194     		str	r4, [sp, #68]
 274:Drivers/lvgl/src/draw/sw/lv_draw_sw_border.c ****                     blend_dsc.mask_res = lv_draw_sw_mask_apply(mask_list, mask_buf, blend_area.x1, 
 1127              		.loc 1 274 21 is_stmt 1 view .LVU401
 1128 038a 2A46     		mov	r2, r5
 1129 038c FF21     		movs	r1, #255
 1130 038e 4046     		mov	r0, r8
 1131 0390 FFF7FEFF 		bl	lv_memset
 1132              	.LVL93:
 275:Drivers/lvgl/src/draw/sw/lv_draw_sw_border.c ****                     lv_draw_sw_blend(t, &blend_dsc);
 1133              		.loc 1 275 21 view .LVU402
 275:Drivers/lvgl/src/draw/sw/lv_draw_sw_border.c ****                     lv_draw_sw_blend(t, &blend_dsc);
 1134              		.loc 1 275 42 is_stmt 0 view .LVU403
 1135 0394 0095     		str	r5, [sp]
 1136 0396 2346     		mov	r3, r4
 1137 0398 0E9A     		ldr	r2, [sp, #56]
 1138 039a 4146     		mov	r1, r8
 1139 039c 24A8     		add	r0, sp, #144
 1140 039e FFF7FEFF 		bl	lv_draw_sw_mask_apply
 1141              	.LVL94:
 275:Drivers/lvgl/src/draw/sw/lv_draw_sw_border.c ****                     lv_draw_sw_blend(t, &blend_dsc);
 1142              		.loc 1 275 40 discriminator 1 view .LVU404
 1143 03a2 8DF8B800 		strb	r0, [sp, #184]
 276:Drivers/lvgl/src/draw/sw/lv_draw_sw_border.c ****                 }
 1144              		.loc 1 276 21 is_stmt 1 view .LVU405
 1145 03a6 27A9     		add	r1, sp, #156
 1146 03a8 4846     		mov	r0, r9
 1147 03aa FFF7FEFF 		bl	lv_draw_sw_blend
 1148              	.LVL95:
 270:Drivers/lvgl/src/draw/sw/lv_draw_sw_border.c ****                     blend_area.y1 = h;
 1149              		.loc 1 270 63 discriminator 3 view .LVU406
 1150 03ae 0134     		adds	r4, r4, #1
ARM GAS  /tmp/ccgnsg21.s 			page 34


 1151              	.LVL96:
 1152              	.L41:
 270:Drivers/lvgl/src/draw/sw/lv_draw_sw_border.c ****                     blend_area.y1 = h;
 1153              		.loc 1 270 45 discriminator 1 view .LVU407
 270:Drivers/lvgl/src/draw/sw/lv_draw_sw_border.c ****                     blend_area.y1 = h;
 1154              		.loc 1 270 57 is_stmt 0 discriminator 1 view .LVU408
 1155 03b0 359B     		ldr	r3, [sp, #212]
 270:Drivers/lvgl/src/draw/sw/lv_draw_sw_border.c ****                     blend_area.y1 = h;
 1156              		.loc 1 270 45 discriminator 1 view .LVU409
 1157 03b2 A342     		cmp	r3, r4
 1158 03b4 E7DA     		bge	.L42
 1159 03b6 57E7     		b	.L31
 1160              	.LVL97:
 1161              	.L57:
 283:Drivers/lvgl/src/draw/sw/lv_draw_sw_border.c ****     lv_free(mask_buf);
 1162              		.loc 1 283 18 is_stmt 1 discriminator 1 view .LVU410
 1163 03b8 12A8     		add	r0, sp, #72
 1164 03ba FFF7FEFF 		bl	lv_draw_sw_mask_free_param
 1165              	.LVL98:
 1166 03be 59E7     		b	.L43
 1167              		.cfi_endproc
 1168              	.LFE187:
 1170              		.section	.text.lv_draw_sw_border,"ax",%progbits
 1171              		.align	1
 1172              		.global	lv_draw_sw_border
 1173              		.syntax unified
 1174              		.thumb
 1175              		.thumb_func
 1177              	lv_draw_sw_border:
 1178              	.LVL99:
 1179              	.LFB186:
  55:Drivers/lvgl/src/draw/sw/lv_draw_sw_border.c ****     if(dsc->opa <= LV_OPA_MIN) return;
 1180              		.loc 1 55 1 view -0
 1181              		.cfi_startproc
 1182              		@ args = 0, pretend = 0, frame = 16
 1183              		@ frame_needed = 0, uses_anonymous_args = 0
  56:Drivers/lvgl/src/draw/sw/lv_draw_sw_border.c ****     if(dsc->width == 0) return;
 1184              		.loc 1 56 5 view .LVU412
  56:Drivers/lvgl/src/draw/sw/lv_draw_sw_border.c ****     if(dsc->width == 0) return;
 1185              		.loc 1 56 11 is_stmt 0 view .LVU413
 1186 0000 91F82830 		ldrb	r3, [r1, #40]	@ zero_extendqisi2
  56:Drivers/lvgl/src/draw/sw/lv_draw_sw_border.c ****     if(dsc->width == 0) return;
 1187              		.loc 1 56 7 view .LVU414
 1188 0004 022B     		cmp	r3, #2
 1189 0006 78D9     		bls	.L75
  55:Drivers/lvgl/src/draw/sw/lv_draw_sw_border.c ****     if(dsc->opa <= LV_OPA_MIN) return;
 1190              		.loc 1 55 1 view .LVU415
 1191 0008 F0B5     		push	{r4, r5, r6, r7, lr}
 1192              	.LCFI8:
 1193              		.cfi_def_cfa_offset 20
 1194              		.cfi_offset 4, -20
 1195              		.cfi_offset 5, -16
 1196              		.cfi_offset 6, -12
 1197              		.cfi_offset 7, -8
 1198              		.cfi_offset 14, -4
 1199 000a 89B0     		sub	sp, sp, #36
 1200              	.LCFI9:
ARM GAS  /tmp/ccgnsg21.s 			page 35


 1201              		.cfi_def_cfa_offset 56
 1202 000c 0646     		mov	r6, r0
 1203 000e 0C46     		mov	r4, r1
 1204 0010 1546     		mov	r5, r2
  57:Drivers/lvgl/src/draw/sw/lv_draw_sw_border.c ****     if(dsc->side == LV_BORDER_SIDE_NONE) return;
 1205              		.loc 1 57 5 is_stmt 1 view .LVU416
  57:Drivers/lvgl/src/draw/sw/lv_draw_sw_border.c ****     if(dsc->side == LV_BORDER_SIDE_NONE) return;
 1206              		.loc 1 57 11 is_stmt 0 view .LVU417
 1207 0012 4B6A     		ldr	r3, [r1, #36]
  57:Drivers/lvgl/src/draw/sw/lv_draw_sw_border.c ****     if(dsc->side == LV_BORDER_SIDE_NONE) return;
 1208              		.loc 1 57 7 view .LVU418
 1209 0014 23B1     		cbz	r3, .L58
  58:Drivers/lvgl/src/draw/sw/lv_draw_sw_border.c **** 
 1210              		.loc 1 58 5 is_stmt 1 view .LVU419
  58:Drivers/lvgl/src/draw/sw/lv_draw_sw_border.c **** 
 1211              		.loc 1 58 18 is_stmt 0 view .LVU420
 1212 0016 91F82930 		ldrb	r3, [r1, #41]	@ zero_extendqisi2
  58:Drivers/lvgl/src/draw/sw/lv_draw_sw_border.c **** 
 1213              		.loc 1 58 7 view .LVU421
 1214 001a 13F01F0F 		tst	r3, #31
 1215 001e 01D1     		bne	.L78
 1216              	.LVL100:
 1217              	.L58:
  84:Drivers/lvgl/src/draw/sw/lv_draw_sw_border.c **** 
 1218              		.loc 1 84 1 view .LVU422
 1219 0020 09B0     		add	sp, sp, #36
 1220              	.LCFI10:
 1221              		.cfi_remember_state
 1222              		.cfi_def_cfa_offset 20
 1223              		@ sp needed
 1224 0022 F0BD     		pop	{r4, r5, r6, r7, pc}
 1225              	.LVL101:
 1226              	.L78:
 1227              	.LCFI11:
 1228              		.cfi_restore_state
  60:Drivers/lvgl/src/draw/sw/lv_draw_sw_border.c ****     int32_t coords_h = lv_area_get_height(coords);
 1229              		.loc 1 60 5 is_stmt 1 view .LVU423
  60:Drivers/lvgl/src/draw/sw/lv_draw_sw_border.c ****     int32_t coords_h = lv_area_get_height(coords);
 1230              		.loc 1 60 24 is_stmt 0 view .LVU424
 1231 0024 1046     		mov	r0, r2
 1232              	.LVL102:
  60:Drivers/lvgl/src/draw/sw/lv_draw_sw_border.c ****     int32_t coords_h = lv_area_get_height(coords);
 1233              		.loc 1 60 24 view .LVU425
 1234 0026 FFF7FEFF 		bl	lv_area_get_width
 1235              	.LVL103:
  60:Drivers/lvgl/src/draw/sw/lv_draw_sw_border.c ****     int32_t coords_h = lv_area_get_height(coords);
 1236              		.loc 1 60 24 view .LVU426
 1237 002a 0746     		mov	r7, r0
 1238              	.LVL104:
  61:Drivers/lvgl/src/draw/sw/lv_draw_sw_border.c ****     int32_t rout = dsc->radius;
 1239              		.loc 1 61 5 is_stmt 1 view .LVU427
  61:Drivers/lvgl/src/draw/sw/lv_draw_sw_border.c ****     int32_t rout = dsc->radius;
 1240              		.loc 1 61 24 is_stmt 0 view .LVU428
 1241 002c 2846     		mov	r0, r5
 1242              	.LVL105:
  61:Drivers/lvgl/src/draw/sw/lv_draw_sw_border.c ****     int32_t rout = dsc->radius;
 1243              		.loc 1 61 24 view .LVU429
ARM GAS  /tmp/ccgnsg21.s 			page 36


 1244 002e FFF7FEFF 		bl	lv_area_get_height
 1245              	.LVL106:
  62:Drivers/lvgl/src/draw/sw/lv_draw_sw_border.c ****     int32_t short_side = LV_MIN(coords_w, coords_h);
 1246              		.loc 1 62 5 is_stmt 1 view .LVU430
  62:Drivers/lvgl/src/draw/sw/lv_draw_sw_border.c ****     int32_t short_side = LV_MIN(coords_w, coords_h);
 1247              		.loc 1 62 13 is_stmt 0 view .LVU431
 1248 0032 E269     		ldr	r2, [r4, #28]
 1249              	.LVL107:
  63:Drivers/lvgl/src/draw/sw/lv_draw_sw_border.c ****     if(rout > short_side >> 1) rout = short_side >> 1;
 1250              		.loc 1 63 5 is_stmt 1 view .LVU432
  63:Drivers/lvgl/src/draw/sw/lv_draw_sw_border.c ****     if(rout > short_side >> 1) rout = short_side >> 1;
 1251              		.loc 1 63 13 is_stmt 0 view .LVU433
 1252 0034 B842     		cmp	r0, r7
 1253 0036 A8BF     		it	ge
 1254 0038 3846     		movge	r0, r7
 1255              	.LVL108:
  64:Drivers/lvgl/src/draw/sw/lv_draw_sw_border.c **** 
 1256              		.loc 1 64 5 is_stmt 1 view .LVU434
  64:Drivers/lvgl/src/draw/sw/lv_draw_sw_border.c **** 
 1257              		.loc 1 64 26 is_stmt 0 view .LVU435
 1258 003a 4310     		asrs	r3, r0, #1
  64:Drivers/lvgl/src/draw/sw/lv_draw_sw_border.c **** 
 1259              		.loc 1 64 7 view .LVU436
 1260 003c B2EB600F 		cmp	r2, r0, asr #1
 1261 0040 00DC     		bgt	.L60
  62:Drivers/lvgl/src/draw/sw/lv_draw_sw_border.c ****     int32_t short_side = LV_MIN(coords_w, coords_h);
 1262              		.loc 1 62 13 view .LVU437
 1263 0042 1346     		mov	r3, r2
 1264              	.L60:
 1265              	.LVL109:
  67:Drivers/lvgl/src/draw/sw/lv_draw_sw_border.c ****     lv_area_copy(&area_inner, coords);
 1266              		.loc 1 67 5 is_stmt 1 view .LVU438
  68:Drivers/lvgl/src/draw/sw/lv_draw_sw_border.c ****     area_inner.x1 += ((dsc->side & LV_BORDER_SIDE_LEFT) ? dsc->width : - (dsc->width + rout));
 1267              		.loc 1 68 5 view .LVU439
 1268              	.LBB18:
 1269              	.LBI18:
 1270              		.file 3 "Drivers/lvgl/src/draw/sw/../../misc/lv_area.h"
   1:Drivers/lvgl/src/draw/sw/../../misc/lv_area.h **** /**
   2:Drivers/lvgl/src/draw/sw/../../misc/lv_area.h ****  * @file lv_area.h
   3:Drivers/lvgl/src/draw/sw/../../misc/lv_area.h ****  *
   4:Drivers/lvgl/src/draw/sw/../../misc/lv_area.h ****  */
   5:Drivers/lvgl/src/draw/sw/../../misc/lv_area.h **** 
   6:Drivers/lvgl/src/draw/sw/../../misc/lv_area.h **** #ifndef LV_AREA_H
   7:Drivers/lvgl/src/draw/sw/../../misc/lv_area.h **** #define LV_AREA_H
   8:Drivers/lvgl/src/draw/sw/../../misc/lv_area.h **** 
   9:Drivers/lvgl/src/draw/sw/../../misc/lv_area.h **** #ifdef __cplusplus
  10:Drivers/lvgl/src/draw/sw/../../misc/lv_area.h **** extern "C" {
  11:Drivers/lvgl/src/draw/sw/../../misc/lv_area.h **** #endif
  12:Drivers/lvgl/src/draw/sw/../../misc/lv_area.h **** 
  13:Drivers/lvgl/src/draw/sw/../../misc/lv_area.h **** /*********************
  14:Drivers/lvgl/src/draw/sw/../../misc/lv_area.h ****  *      INCLUDES
  15:Drivers/lvgl/src/draw/sw/../../misc/lv_area.h ****  *********************/
  16:Drivers/lvgl/src/draw/sw/../../misc/lv_area.h **** #include "../lv_conf_internal.h"
  17:Drivers/lvgl/src/draw/sw/../../misc/lv_area.h **** #include "lv_types.h"
  18:Drivers/lvgl/src/draw/sw/../../misc/lv_area.h **** #include "lv_math.h"
  19:Drivers/lvgl/src/draw/sw/../../misc/lv_area.h **** 
  20:Drivers/lvgl/src/draw/sw/../../misc/lv_area.h **** /*********************
ARM GAS  /tmp/ccgnsg21.s 			page 37


  21:Drivers/lvgl/src/draw/sw/../../misc/lv_area.h ****  *      DEFINES
  22:Drivers/lvgl/src/draw/sw/../../misc/lv_area.h ****  *********************/
  23:Drivers/lvgl/src/draw/sw/../../misc/lv_area.h **** 
  24:Drivers/lvgl/src/draw/sw/../../misc/lv_area.h **** /**********************
  25:Drivers/lvgl/src/draw/sw/../../misc/lv_area.h ****  *      TYPEDEFS
  26:Drivers/lvgl/src/draw/sw/../../misc/lv_area.h ****  **********************/
  27:Drivers/lvgl/src/draw/sw/../../misc/lv_area.h **** 
  28:Drivers/lvgl/src/draw/sw/../../misc/lv_area.h **** /**
  29:Drivers/lvgl/src/draw/sw/../../misc/lv_area.h ****  * Represents a point on the screen.
  30:Drivers/lvgl/src/draw/sw/../../misc/lv_area.h ****  */
  31:Drivers/lvgl/src/draw/sw/../../misc/lv_area.h **** typedef struct {
  32:Drivers/lvgl/src/draw/sw/../../misc/lv_area.h ****     int32_t x;
  33:Drivers/lvgl/src/draw/sw/../../misc/lv_area.h ****     int32_t y;
  34:Drivers/lvgl/src/draw/sw/../../misc/lv_area.h **** } lv_point_t;
  35:Drivers/lvgl/src/draw/sw/../../misc/lv_area.h **** 
  36:Drivers/lvgl/src/draw/sw/../../misc/lv_area.h **** typedef struct {
  37:Drivers/lvgl/src/draw/sw/../../misc/lv_area.h ****     lv_value_precise_t x;
  38:Drivers/lvgl/src/draw/sw/../../misc/lv_area.h ****     lv_value_precise_t y;
  39:Drivers/lvgl/src/draw/sw/../../misc/lv_area.h **** } lv_point_precise_t;
  40:Drivers/lvgl/src/draw/sw/../../misc/lv_area.h **** 
  41:Drivers/lvgl/src/draw/sw/../../misc/lv_area.h **** /** Represents an area of the screen.*/
  42:Drivers/lvgl/src/draw/sw/../../misc/lv_area.h **** typedef struct {
  43:Drivers/lvgl/src/draw/sw/../../misc/lv_area.h ****     int32_t x1;
  44:Drivers/lvgl/src/draw/sw/../../misc/lv_area.h ****     int32_t y1;
  45:Drivers/lvgl/src/draw/sw/../../misc/lv_area.h ****     int32_t x2;
  46:Drivers/lvgl/src/draw/sw/../../misc/lv_area.h ****     int32_t y2;
  47:Drivers/lvgl/src/draw/sw/../../misc/lv_area.h **** } lv_area_t;
  48:Drivers/lvgl/src/draw/sw/../../misc/lv_area.h **** 
  49:Drivers/lvgl/src/draw/sw/../../misc/lv_area.h **** /** Alignments*/
  50:Drivers/lvgl/src/draw/sw/../../misc/lv_area.h **** 
  51:Drivers/lvgl/src/draw/sw/../../misc/lv_area.h **** typedef enum {
  52:Drivers/lvgl/src/draw/sw/../../misc/lv_area.h ****     LV_ALIGN_DEFAULT = 0,
  53:Drivers/lvgl/src/draw/sw/../../misc/lv_area.h ****     LV_ALIGN_TOP_LEFT,
  54:Drivers/lvgl/src/draw/sw/../../misc/lv_area.h ****     LV_ALIGN_TOP_MID,
  55:Drivers/lvgl/src/draw/sw/../../misc/lv_area.h ****     LV_ALIGN_TOP_RIGHT,
  56:Drivers/lvgl/src/draw/sw/../../misc/lv_area.h ****     LV_ALIGN_BOTTOM_LEFT,
  57:Drivers/lvgl/src/draw/sw/../../misc/lv_area.h ****     LV_ALIGN_BOTTOM_MID,
  58:Drivers/lvgl/src/draw/sw/../../misc/lv_area.h ****     LV_ALIGN_BOTTOM_RIGHT,
  59:Drivers/lvgl/src/draw/sw/../../misc/lv_area.h ****     LV_ALIGN_LEFT_MID,
  60:Drivers/lvgl/src/draw/sw/../../misc/lv_area.h ****     LV_ALIGN_RIGHT_MID,
  61:Drivers/lvgl/src/draw/sw/../../misc/lv_area.h ****     LV_ALIGN_CENTER,
  62:Drivers/lvgl/src/draw/sw/../../misc/lv_area.h **** 
  63:Drivers/lvgl/src/draw/sw/../../misc/lv_area.h ****     LV_ALIGN_OUT_TOP_LEFT,
  64:Drivers/lvgl/src/draw/sw/../../misc/lv_area.h ****     LV_ALIGN_OUT_TOP_MID,
  65:Drivers/lvgl/src/draw/sw/../../misc/lv_area.h ****     LV_ALIGN_OUT_TOP_RIGHT,
  66:Drivers/lvgl/src/draw/sw/../../misc/lv_area.h ****     LV_ALIGN_OUT_BOTTOM_LEFT,
  67:Drivers/lvgl/src/draw/sw/../../misc/lv_area.h ****     LV_ALIGN_OUT_BOTTOM_MID,
  68:Drivers/lvgl/src/draw/sw/../../misc/lv_area.h ****     LV_ALIGN_OUT_BOTTOM_RIGHT,
  69:Drivers/lvgl/src/draw/sw/../../misc/lv_area.h ****     LV_ALIGN_OUT_LEFT_TOP,
  70:Drivers/lvgl/src/draw/sw/../../misc/lv_area.h ****     LV_ALIGN_OUT_LEFT_MID,
  71:Drivers/lvgl/src/draw/sw/../../misc/lv_area.h ****     LV_ALIGN_OUT_LEFT_BOTTOM,
  72:Drivers/lvgl/src/draw/sw/../../misc/lv_area.h ****     LV_ALIGN_OUT_RIGHT_TOP,
  73:Drivers/lvgl/src/draw/sw/../../misc/lv_area.h ****     LV_ALIGN_OUT_RIGHT_MID,
  74:Drivers/lvgl/src/draw/sw/../../misc/lv_area.h ****     LV_ALIGN_OUT_RIGHT_BOTTOM,
  75:Drivers/lvgl/src/draw/sw/../../misc/lv_area.h **** } lv_align_t;
  76:Drivers/lvgl/src/draw/sw/../../misc/lv_area.h **** 
  77:Drivers/lvgl/src/draw/sw/../../misc/lv_area.h **** typedef enum {
ARM GAS  /tmp/ccgnsg21.s 			page 38


  78:Drivers/lvgl/src/draw/sw/../../misc/lv_area.h ****     LV_DIR_NONE     = 0x00,
  79:Drivers/lvgl/src/draw/sw/../../misc/lv_area.h ****     LV_DIR_LEFT     = (1 << 0),
  80:Drivers/lvgl/src/draw/sw/../../misc/lv_area.h ****     LV_DIR_RIGHT    = (1 << 1),
  81:Drivers/lvgl/src/draw/sw/../../misc/lv_area.h ****     LV_DIR_TOP      = (1 << 2),
  82:Drivers/lvgl/src/draw/sw/../../misc/lv_area.h ****     LV_DIR_BOTTOM   = (1 << 3),
  83:Drivers/lvgl/src/draw/sw/../../misc/lv_area.h ****     LV_DIR_HOR      = LV_DIR_LEFT | LV_DIR_RIGHT,
  84:Drivers/lvgl/src/draw/sw/../../misc/lv_area.h ****     LV_DIR_VER      = LV_DIR_TOP | LV_DIR_BOTTOM,
  85:Drivers/lvgl/src/draw/sw/../../misc/lv_area.h ****     LV_DIR_ALL      = LV_DIR_HOR | LV_DIR_VER,
  86:Drivers/lvgl/src/draw/sw/../../misc/lv_area.h **** } lv_dir_t;
  87:Drivers/lvgl/src/draw/sw/../../misc/lv_area.h **** 
  88:Drivers/lvgl/src/draw/sw/../../misc/lv_area.h **** /**********************
  89:Drivers/lvgl/src/draw/sw/../../misc/lv_area.h ****  * GLOBAL PROTOTYPES
  90:Drivers/lvgl/src/draw/sw/../../misc/lv_area.h ****  **********************/
  91:Drivers/lvgl/src/draw/sw/../../misc/lv_area.h **** 
  92:Drivers/lvgl/src/draw/sw/../../misc/lv_area.h **** /**
  93:Drivers/lvgl/src/draw/sw/../../misc/lv_area.h ****  * Initialize an area
  94:Drivers/lvgl/src/draw/sw/../../misc/lv_area.h ****  * @param area_p pointer to an area
  95:Drivers/lvgl/src/draw/sw/../../misc/lv_area.h ****  * @param x1 left coordinate of the area
  96:Drivers/lvgl/src/draw/sw/../../misc/lv_area.h ****  * @param y1 top coordinate of the area
  97:Drivers/lvgl/src/draw/sw/../../misc/lv_area.h ****  * @param x2 right coordinate of the area
  98:Drivers/lvgl/src/draw/sw/../../misc/lv_area.h ****  * @param y2 bottom coordinate of the area
  99:Drivers/lvgl/src/draw/sw/../../misc/lv_area.h ****  */
 100:Drivers/lvgl/src/draw/sw/../../misc/lv_area.h **** void lv_area_set(lv_area_t * area_p, int32_t x1, int32_t y1, int32_t x2, int32_t y2);
 101:Drivers/lvgl/src/draw/sw/../../misc/lv_area.h **** 
 102:Drivers/lvgl/src/draw/sw/../../misc/lv_area.h **** /**
 103:Drivers/lvgl/src/draw/sw/../../misc/lv_area.h ****  * Copy an area
 104:Drivers/lvgl/src/draw/sw/../../misc/lv_area.h ****  * @param dest pointer to the destination area
 105:Drivers/lvgl/src/draw/sw/../../misc/lv_area.h ****  * @param src pointer to the source area
 106:Drivers/lvgl/src/draw/sw/../../misc/lv_area.h ****  */
 107:Drivers/lvgl/src/draw/sw/../../misc/lv_area.h **** inline static void lv_area_copy(lv_area_t * dest, const lv_area_t * src)
 1271              		.loc 3 107 20 view .LVU440
 1272              	.LBB19:
 108:Drivers/lvgl/src/draw/sw/../../misc/lv_area.h **** {
 109:Drivers/lvgl/src/draw/sw/../../misc/lv_area.h ****     dest->x1 = src->x1;
 1273              		.loc 3 109 5 view .LVU441
 1274              		.loc 3 109 19 is_stmt 0 view .LVU442
 1275 0044 D5F800E0 		ldr	lr, [r5]
 1276              		.loc 3 109 14 view .LVU443
 1277 0048 CDF810E0 		str	lr, [sp, #16]
 110:Drivers/lvgl/src/draw/sw/../../misc/lv_area.h ****     dest->y1 = src->y1;
 1278              		.loc 3 110 5 is_stmt 1 view .LVU444
 1279              		.loc 3 110 19 is_stmt 0 view .LVU445
 1280 004c 6F68     		ldr	r7, [r5, #4]
 1281              	.LVL110:
 1282              		.loc 3 110 14 view .LVU446
 1283 004e 0597     		str	r7, [sp, #20]
 111:Drivers/lvgl/src/draw/sw/../../misc/lv_area.h ****     dest->x2 = src->x2;
 1284              		.loc 3 111 5 is_stmt 1 view .LVU447
 1285              		.loc 3 111 19 is_stmt 0 view .LVU448
 1286 0050 D5F808C0 		ldr	ip, [r5, #8]
 1287              		.loc 3 111 14 view .LVU449
 1288 0054 CDF818C0 		str	ip, [sp, #24]
 112:Drivers/lvgl/src/draw/sw/../../misc/lv_area.h ****     dest->y2 = src->y2;
 1289              		.loc 3 112 5 is_stmt 1 view .LVU450
 1290              		.loc 3 112 19 is_stmt 0 view .LVU451
 1291 0058 E968     		ldr	r1, [r5, #12]
 1292              		.loc 3 112 14 view .LVU452
ARM GAS  /tmp/ccgnsg21.s 			page 39


 1293 005a 0791     		str	r1, [sp, #28]
 1294              	.LVL111:
 1295              		.loc 3 112 14 view .LVU453
 1296              	.LBE19:
 1297              	.LBE18:
  69:Drivers/lvgl/src/draw/sw/lv_draw_sw_border.c ****     area_inner.x2 -= ((dsc->side & LV_BORDER_SIDE_RIGHT) ? dsc->width : - (dsc->width + rout));
 1298              		.loc 1 69 5 is_stmt 1 view .LVU454
  69:Drivers/lvgl/src/draw/sw/lv_draw_sw_border.c ****     area_inner.x2 -= ((dsc->side & LV_BORDER_SIDE_RIGHT) ? dsc->width : - (dsc->width + rout));
 1299              		.loc 1 69 27 is_stmt 0 view .LVU455
 1300 005c 94F82920 		ldrb	r2, [r4, #41]	@ zero_extendqisi2
 1301 0060 02F01F00 		and	r0, r2, #31
 1302              	.LVL112:
  69:Drivers/lvgl/src/draw/sw/lv_draw_sw_border.c ****     area_inner.x2 -= ((dsc->side & LV_BORDER_SIDE_RIGHT) ? dsc->width : - (dsc->width + rout));
 1303              		.loc 1 69 70 view .LVU456
 1304 0064 12F0040F 		tst	r2, #4
 1305 0068 25D0     		beq	.L61
  69:Drivers/lvgl/src/draw/sw/lv_draw_sw_border.c ****     area_inner.x2 -= ((dsc->side & LV_BORDER_SIDE_RIGHT) ? dsc->width : - (dsc->width + rout));
 1306              		.loc 1 69 70 discriminator 1 view .LVU457
 1307 006a 626A     		ldr	r2, [r4, #36]
 1308              	.L62:
  69:Drivers/lvgl/src/draw/sw/lv_draw_sw_border.c ****     area_inner.x2 -= ((dsc->side & LV_BORDER_SIDE_RIGHT) ? dsc->width : - (dsc->width + rout));
 1309              		.loc 1 69 19 discriminator 4 view .LVU458
 1310 006c 7244     		add	r2, r2, lr
 1311 006e 0492     		str	r2, [sp, #16]
  70:Drivers/lvgl/src/draw/sw/lv_draw_sw_border.c ****     area_inner.y1 += ((dsc->side & LV_BORDER_SIDE_TOP) ? dsc->width : - (dsc->width + rout));
 1312              		.loc 1 70 5 is_stmt 1 view .LVU459
  70:Drivers/lvgl/src/draw/sw/lv_draw_sw_border.c ****     area_inner.y1 += ((dsc->side & LV_BORDER_SIDE_TOP) ? dsc->width : - (dsc->width + rout));
 1313              		.loc 1 70 71 is_stmt 0 view .LVU460
 1314 0070 10F0080F 		tst	r0, #8
 1315 0074 23D0     		beq	.L63
  70:Drivers/lvgl/src/draw/sw/lv_draw_sw_border.c ****     area_inner.y1 += ((dsc->side & LV_BORDER_SIDE_TOP) ? dsc->width : - (dsc->width + rout));
 1316              		.loc 1 70 71 discriminator 1 view .LVU461
 1317 0076 626A     		ldr	r2, [r4, #36]
 1318              	.L64:
  70:Drivers/lvgl/src/draw/sw/lv_draw_sw_border.c ****     area_inner.y1 += ((dsc->side & LV_BORDER_SIDE_TOP) ? dsc->width : - (dsc->width + rout));
 1319              		.loc 1 70 19 discriminator 4 view .LVU462
 1320 0078 ACEB0202 		sub	r2, ip, r2
 1321 007c 0692     		str	r2, [sp, #24]
  71:Drivers/lvgl/src/draw/sw/lv_draw_sw_border.c ****     area_inner.y2 -= ((dsc->side & LV_BORDER_SIDE_BOTTOM) ? dsc->width : - (dsc->width + rout));
 1322              		.loc 1 71 5 is_stmt 1 view .LVU463
  71:Drivers/lvgl/src/draw/sw/lv_draw_sw_border.c ****     area_inner.y2 -= ((dsc->side & LV_BORDER_SIDE_BOTTOM) ? dsc->width : - (dsc->width + rout));
 1323              		.loc 1 71 69 is_stmt 0 view .LVU464
 1324 007e 10F0020F 		tst	r0, #2
 1325 0082 20D0     		beq	.L65
  71:Drivers/lvgl/src/draw/sw/lv_draw_sw_border.c ****     area_inner.y2 -= ((dsc->side & LV_BORDER_SIDE_BOTTOM) ? dsc->width : - (dsc->width + rout));
 1326              		.loc 1 71 69 discriminator 1 view .LVU465
 1327 0084 626A     		ldr	r2, [r4, #36]
 1328              	.L66:
  71:Drivers/lvgl/src/draw/sw/lv_draw_sw_border.c ****     area_inner.y2 -= ((dsc->side & LV_BORDER_SIDE_BOTTOM) ? dsc->width : - (dsc->width + rout));
 1329              		.loc 1 71 19 discriminator 4 view .LVU466
 1330 0086 3A44     		add	r2, r2, r7
 1331 0088 0592     		str	r2, [sp, #20]
  72:Drivers/lvgl/src/draw/sw/lv_draw_sw_border.c **** 
 1332              		.loc 1 72 5 is_stmt 1 view .LVU467
  72:Drivers/lvgl/src/draw/sw/lv_draw_sw_border.c **** 
 1333              		.loc 1 72 72 is_stmt 0 view .LVU468
 1334 008a 10F0010F 		tst	r0, #1
ARM GAS  /tmp/ccgnsg21.s 			page 40


 1335 008e 1ED0     		beq	.L67
  72:Drivers/lvgl/src/draw/sw/lv_draw_sw_border.c **** 
 1336              		.loc 1 72 72 discriminator 1 view .LVU469
 1337 0090 626A     		ldr	r2, [r4, #36]
 1338              	.L68:
  72:Drivers/lvgl/src/draw/sw/lv_draw_sw_border.c **** 
 1339              		.loc 1 72 19 discriminator 4 view .LVU470
 1340 0092 891A     		subs	r1, r1, r2
 1341 0094 0791     		str	r1, [sp, #28]
  74:Drivers/lvgl/src/draw/sw/lv_draw_sw_border.c ****     if(rin < 0) rin = 0;
 1342              		.loc 1 74 5 is_stmt 1 view .LVU471
  74:Drivers/lvgl/src/draw/sw/lv_draw_sw_border.c ****     if(rin < 0) rin = 0;
 1343              		.loc 1 74 29 is_stmt 0 view .LVU472
 1344 0096 626A     		ldr	r2, [r4, #36]
 1345              	.LVL113:
  75:Drivers/lvgl/src/draw/sw/lv_draw_sw_border.c **** 
 1346              		.loc 1 75 5 is_stmt 1 view .LVU473
  75:Drivers/lvgl/src/draw/sw/lv_draw_sw_border.c **** 
 1347              		.loc 1 75 7 is_stmt 0 view .LVU474
 1348 0098 9A1A     		subs	r2, r3, r2
 1349              	.LVL114:
  75:Drivers/lvgl/src/draw/sw/lv_draw_sw_border.c **** 
 1350              		.loc 1 75 7 view .LVU475
 1351 009a 1CD4     		bmi	.L79
 1352              	.LVL115:
 1353              	.L69:
  77:Drivers/lvgl/src/draw/sw/lv_draw_sw_border.c ****         draw_border_simple(t, coords, &area_inner, dsc->color, dsc->opa);
 1354              		.loc 1 77 5 is_stmt 1 view .LVU476
  77:Drivers/lvgl/src/draw/sw/lv_draw_sw_border.c ****         draw_border_simple(t, coords, &area_inner, dsc->color, dsc->opa);
 1355              		.loc 1 77 7 is_stmt 0 view .LVU477
 1356 009c 53EA0201 		orrs	r1, r3, r2
 1357 00a0 1BD1     		bne	.L70
  78:Drivers/lvgl/src/draw/sw/lv_draw_sw_border.c ****     }
 1358              		.loc 1 78 9 is_stmt 1 view .LVU478
  78:Drivers/lvgl/src/draw/sw/lv_draw_sw_border.c ****     }
 1359              		.loc 1 78 67 is_stmt 0 view .LVU479
 1360 00a2 94F82830 		ldrb	r3, [r4, #40]	@ zero_extendqisi2
 1361              	.LVL116:
  78:Drivers/lvgl/src/draw/sw/lv_draw_sw_border.c ****     }
 1362              		.loc 1 78 9 view .LVU480
 1363 00a6 0093     		str	r3, [sp]
 1364 00a8 236A     		ldr	r3, [r4, #32]
 1365 00aa 04AA     		add	r2, sp, #16
 1366              	.LVL117:
  78:Drivers/lvgl/src/draw/sw/lv_draw_sw_border.c ****     }
 1367              		.loc 1 78 9 view .LVU481
 1368 00ac 2946     		mov	r1, r5
 1369 00ae 3046     		mov	r0, r6
 1370 00b0 FFF7FEFF 		bl	draw_border_simple
 1371              	.LVL118:
 1372 00b4 B4E7     		b	.L58
 1373              	.LVL119:
 1374              	.L61:
  69:Drivers/lvgl/src/draw/sw/lv_draw_sw_border.c ****     area_inner.x2 -= ((dsc->side & LV_BORDER_SIDE_RIGHT) ? dsc->width : - (dsc->width + rout));
 1375              		.loc 1 69 78 discriminator 2 view .LVU482
 1376 00b6 626A     		ldr	r2, [r4, #36]
  69:Drivers/lvgl/src/draw/sw/lv_draw_sw_border.c ****     area_inner.x2 -= ((dsc->side & LV_BORDER_SIDE_RIGHT) ? dsc->width : - (dsc->width + rout));
ARM GAS  /tmp/ccgnsg21.s 			page 41


 1377              		.loc 1 69 86 discriminator 2 view .LVU483
 1378 00b8 1A44     		add	r2, r2, r3
  69:Drivers/lvgl/src/draw/sw/lv_draw_sw_border.c ****     area_inner.x2 -= ((dsc->side & LV_BORDER_SIDE_RIGHT) ? dsc->width : - (dsc->width + rout));
 1379              		.loc 1 69 70 discriminator 2 view .LVU484
 1380 00ba 5242     		rsbs	r2, r2, #0
 1381 00bc D6E7     		b	.L62
 1382              	.L63:
  70:Drivers/lvgl/src/draw/sw/lv_draw_sw_border.c ****     area_inner.y1 += ((dsc->side & LV_BORDER_SIDE_TOP) ? dsc->width : - (dsc->width + rout));
 1383              		.loc 1 70 79 discriminator 2 view .LVU485
 1384 00be 626A     		ldr	r2, [r4, #36]
  70:Drivers/lvgl/src/draw/sw/lv_draw_sw_border.c ****     area_inner.y1 += ((dsc->side & LV_BORDER_SIDE_TOP) ? dsc->width : - (dsc->width + rout));
 1385              		.loc 1 70 87 discriminator 2 view .LVU486
 1386 00c0 1A44     		add	r2, r2, r3
  70:Drivers/lvgl/src/draw/sw/lv_draw_sw_border.c ****     area_inner.y1 += ((dsc->side & LV_BORDER_SIDE_TOP) ? dsc->width : - (dsc->width + rout));
 1387              		.loc 1 70 71 discriminator 2 view .LVU487
 1388 00c2 5242     		rsbs	r2, r2, #0
 1389 00c4 D8E7     		b	.L64
 1390              	.L65:
  71:Drivers/lvgl/src/draw/sw/lv_draw_sw_border.c ****     area_inner.y2 -= ((dsc->side & LV_BORDER_SIDE_BOTTOM) ? dsc->width : - (dsc->width + rout));
 1391              		.loc 1 71 77 discriminator 2 view .LVU488
 1392 00c6 626A     		ldr	r2, [r4, #36]
  71:Drivers/lvgl/src/draw/sw/lv_draw_sw_border.c ****     area_inner.y2 -= ((dsc->side & LV_BORDER_SIDE_BOTTOM) ? dsc->width : - (dsc->width + rout));
 1393              		.loc 1 71 85 discriminator 2 view .LVU489
 1394 00c8 1A44     		add	r2, r2, r3
  71:Drivers/lvgl/src/draw/sw/lv_draw_sw_border.c ****     area_inner.y2 -= ((dsc->side & LV_BORDER_SIDE_BOTTOM) ? dsc->width : - (dsc->width + rout));
 1395              		.loc 1 71 69 discriminator 2 view .LVU490
 1396 00ca 5242     		rsbs	r2, r2, #0
 1397 00cc DBE7     		b	.L66
 1398              	.L67:
  72:Drivers/lvgl/src/draw/sw/lv_draw_sw_border.c **** 
 1399              		.loc 1 72 80 discriminator 2 view .LVU491
 1400 00ce 626A     		ldr	r2, [r4, #36]
  72:Drivers/lvgl/src/draw/sw/lv_draw_sw_border.c **** 
 1401              		.loc 1 72 88 discriminator 2 view .LVU492
 1402 00d0 1A44     		add	r2, r2, r3
  72:Drivers/lvgl/src/draw/sw/lv_draw_sw_border.c **** 
 1403              		.loc 1 72 72 discriminator 2 view .LVU493
 1404 00d2 5242     		rsbs	r2, r2, #0
 1405 00d4 DDE7     		b	.L68
 1406              	.LVL120:
 1407              	.L79:
  75:Drivers/lvgl/src/draw/sw/lv_draw_sw_border.c **** 
 1408              		.loc 1 75 21 discriminator 1 view .LVU494
 1409 00d6 0022     		movs	r2, #0
 1410              	.LVL121:
  75:Drivers/lvgl/src/draw/sw/lv_draw_sw_border.c **** 
 1411              		.loc 1 75 21 discriminator 1 view .LVU495
 1412 00d8 E0E7     		b	.L69
 1413              	.LVL122:
 1414              	.L70:
  81:Drivers/lvgl/src/draw/sw/lv_draw_sw_border.c ****     }
 1415              		.loc 1 81 9 is_stmt 1 view .LVU496
  81:Drivers/lvgl/src/draw/sw/lv_draw_sw_border.c ****     }
 1416              		.loc 1 81 79 is_stmt 0 view .LVU497
 1417 00da 94F82810 		ldrb	r1, [r4, #40]	@ zero_extendqisi2
  81:Drivers/lvgl/src/draw/sw/lv_draw_sw_border.c ****     }
 1418              		.loc 1 81 9 view .LVU498
ARM GAS  /tmp/ccgnsg21.s 			page 42


 1419 00de 0291     		str	r1, [sp, #8]
 1420 00e0 216A     		ldr	r1, [r4, #32]
 1421 00e2 ADF80410 		strh	r1, [sp, #4]	@ movhi
 1422 00e6 090C     		lsrs	r1, r1, #16
 1423 00e8 8DF80610 		strb	r1, [sp, #6]
 1424 00ec 0092     		str	r2, [sp]
 1425 00ee 04AA     		add	r2, sp, #16
 1426              	.LVL123:
  81:Drivers/lvgl/src/draw/sw/lv_draw_sw_border.c ****     }
 1427              		.loc 1 81 9 view .LVU499
 1428 00f0 2946     		mov	r1, r5
 1429 00f2 3046     		mov	r0, r6
 1430 00f4 FFF7FEFF 		bl	draw_border_complex
 1431              	.LVL124:
  81:Drivers/lvgl/src/draw/sw/lv_draw_sw_border.c ****     }
 1432              		.loc 1 81 9 view .LVU500
 1433 00f8 92E7     		b	.L58
 1434              	.LVL125:
 1435              	.L75:
 1436              	.LCFI12:
 1437              		.cfi_def_cfa_offset 0
 1438              		.cfi_restore 4
 1439              		.cfi_restore 5
 1440              		.cfi_restore 6
 1441              		.cfi_restore 7
 1442              		.cfi_restore 14
  81:Drivers/lvgl/src/draw/sw/lv_draw_sw_border.c ****     }
 1443              		.loc 1 81 9 view .LVU501
 1444 00fa 7047     		bx	lr
 1445              		.cfi_endproc
 1446              	.LFE186:
 1448              		.text
 1449              	.Letext0:
 1450              		.file 4 "/usr/arm-none-eabi/include/machine/_default_types.h"
 1451              		.file 5 "/usr/arm-none-eabi/include/sys/_stdint.h"
 1452              		.file 6 "/usr/lib/gcc/arm-none-eabi/14.2.0/include/stddef.h"
 1453              		.file 7 "Drivers/lvgl/src/draw/sw/../../misc/lv_types.h"
 1454              		.file 8 "Drivers/lvgl/src/draw/sw/../lv_draw.h"
 1455              		.file 9 "Drivers/lvgl/src/draw/sw/../lv_draw_private.h"
 1456              		.file 10 "Drivers/lvgl/src/draw/sw/lv_draw_sw_mask_private.h"
 1457              		.file 11 "Drivers/lvgl/src/draw/sw/blend/lv_draw_sw_blend_private.h"
 1458              		.file 12 "Drivers/lvgl/src/draw/sw/../../misc/../font/../draw/lv_draw_buf.h"
 1459              		.file 13 "Drivers/lvgl/src/draw/sw/../../misc/lv_color.h"
 1460              		.file 14 "Drivers/lvgl/src/draw/sw/lv_draw_sw_mask.h"
 1461              		.file 15 "Drivers/lvgl/src/draw/sw/../../misc/../font/../draw/lv_image_dsc.h"
 1462              		.file 16 "Drivers/lvgl/src/draw/sw/../../misc/lv_style.h"
 1463              		.file 17 "Drivers/lvgl/src/draw/sw/../lv_draw_rect.h"
 1464              		.file 18 "Drivers/lvgl/src/draw/sw/../../misc/../stdlib/lv_mem.h"
 1465              		.file 19 "Drivers/lvgl/src/draw/sw/../../misc/lv_area_private.h"
 1466              		.file 20 "Drivers/lvgl/src/draw/sw/blend/lv_draw_sw_blend.h"
ARM GAS  /tmp/ccgnsg21.s 			page 43

