ARM GAS  /tmp/ccme7qfW.s 			page 1


   1              		.cpu cortex-m7
   2              		.arch armv7e-m
   3              		.fpu fpv5-sp-d16
   4              		.eabi_attribute 27, 1
   5              		.eabi_attribute 28, 1
   6              		.eabi_attribute 20, 1
   7              		.eabi_attribute 21, 1
   8              		.eabi_attribute 23, 3
   9              		.eabi_attribute 24, 1
  10              		.eabi_attribute 25, 1
  11              		.eabi_attribute 26, 1
  12              		.eabi_attribute 30, 1
  13              		.eabi_attribute 34, 1
  14              		.eabi_attribute 18, 4
  15              		.file	"lv_draw_sw_line.c"
  16              		.text
  17              	.Ltext0:
  18              		.cfi_sections	.debug_frame
  19              		.file 1 "Drivers/lvgl/src/draw/sw/lv_draw_sw_line.c"
  20              		.section	.text.draw_line_hor,"ax",%progbits
  21              		.align	1
  22              		.syntax unified
  23              		.thumb
  24              		.thumb_func
  26              	draw_line_hor:
  27              	.LVL0:
  28              	.LFB187:
   1:Drivers/lvgl/src/draw/sw/lv_draw_sw_line.c **** /**
   2:Drivers/lvgl/src/draw/sw/lv_draw_sw_line.c ****  * @file lv_draw_sw_line.c
   3:Drivers/lvgl/src/draw/sw/lv_draw_sw_line.c ****  *
   4:Drivers/lvgl/src/draw/sw/lv_draw_sw_line.c ****  */
   5:Drivers/lvgl/src/draw/sw/lv_draw_sw_line.c **** 
   6:Drivers/lvgl/src/draw/sw/lv_draw_sw_line.c **** /*********************
   7:Drivers/lvgl/src/draw/sw/lv_draw_sw_line.c ****  *      INCLUDES
   8:Drivers/lvgl/src/draw/sw/lv_draw_sw_line.c ****  *********************/
   9:Drivers/lvgl/src/draw/sw/lv_draw_sw_line.c **** #include "../../misc/lv_area_private.h"
  10:Drivers/lvgl/src/draw/sw/lv_draw_sw_line.c **** #include "lv_draw_sw_mask_private.h"
  11:Drivers/lvgl/src/draw/sw/lv_draw_sw_line.c **** #include "blend/lv_draw_sw_blend_private.h"
  12:Drivers/lvgl/src/draw/sw/lv_draw_sw_line.c **** #include "../lv_draw_private.h"
  13:Drivers/lvgl/src/draw/sw/lv_draw_sw_line.c **** #include "lv_draw_sw.h"
  14:Drivers/lvgl/src/draw/sw/lv_draw_sw_line.c **** 
  15:Drivers/lvgl/src/draw/sw/lv_draw_sw_line.c **** #if LV_USE_DRAW_SW
  16:Drivers/lvgl/src/draw/sw/lv_draw_sw_line.c **** 
  17:Drivers/lvgl/src/draw/sw/lv_draw_sw_line.c **** #include "../../misc/lv_math.h"
  18:Drivers/lvgl/src/draw/sw/lv_draw_sw_line.c **** #include "../../misc/lv_types.h"
  19:Drivers/lvgl/src/draw/sw/lv_draw_sw_line.c **** #include "../../core/lv_refr_private.h"
  20:Drivers/lvgl/src/draw/sw/lv_draw_sw_line.c **** #include "../../stdlib/lv_string.h"
  21:Drivers/lvgl/src/draw/sw/lv_draw_sw_line.c **** 
  22:Drivers/lvgl/src/draw/sw/lv_draw_sw_line.c **** /*********************
  23:Drivers/lvgl/src/draw/sw/lv_draw_sw_line.c ****  *      DEFINES
  24:Drivers/lvgl/src/draw/sw/lv_draw_sw_line.c ****  *********************/
  25:Drivers/lvgl/src/draw/sw/lv_draw_sw_line.c **** 
  26:Drivers/lvgl/src/draw/sw/lv_draw_sw_line.c **** /**********************
  27:Drivers/lvgl/src/draw/sw/lv_draw_sw_line.c ****  *      TYPEDEFS
  28:Drivers/lvgl/src/draw/sw/lv_draw_sw_line.c ****  **********************/
  29:Drivers/lvgl/src/draw/sw/lv_draw_sw_line.c **** 
  30:Drivers/lvgl/src/draw/sw/lv_draw_sw_line.c **** /**********************
ARM GAS  /tmp/ccme7qfW.s 			page 2


  31:Drivers/lvgl/src/draw/sw/lv_draw_sw_line.c ****  *  STATIC PROTOTYPES
  32:Drivers/lvgl/src/draw/sw/lv_draw_sw_line.c ****  **********************/
  33:Drivers/lvgl/src/draw/sw/lv_draw_sw_line.c **** 
  34:Drivers/lvgl/src/draw/sw/lv_draw_sw_line.c **** static void /* LV_ATTRIBUTE_FAST_MEM */ draw_line_skew(lv_draw_task_t * t, const lv_draw_line_dsc_t
  35:Drivers/lvgl/src/draw/sw/lv_draw_sw_line.c **** static void /* LV_ATTRIBUTE_FAST_MEM */ draw_line_hor(lv_draw_task_t * t, const lv_draw_line_dsc_t 
  36:Drivers/lvgl/src/draw/sw/lv_draw_sw_line.c **** static void /* LV_ATTRIBUTE_FAST_MEM */ draw_line_ver(lv_draw_task_t * t, const lv_draw_line_dsc_t 
  37:Drivers/lvgl/src/draw/sw/lv_draw_sw_line.c **** 
  38:Drivers/lvgl/src/draw/sw/lv_draw_sw_line.c **** /**********************
  39:Drivers/lvgl/src/draw/sw/lv_draw_sw_line.c ****  *  STATIC VARIABLES
  40:Drivers/lvgl/src/draw/sw/lv_draw_sw_line.c ****  **********************/
  41:Drivers/lvgl/src/draw/sw/lv_draw_sw_line.c **** 
  42:Drivers/lvgl/src/draw/sw/lv_draw_sw_line.c **** /**********************
  43:Drivers/lvgl/src/draw/sw/lv_draw_sw_line.c ****  *      MACROS
  44:Drivers/lvgl/src/draw/sw/lv_draw_sw_line.c ****  **********************/
  45:Drivers/lvgl/src/draw/sw/lv_draw_sw_line.c **** 
  46:Drivers/lvgl/src/draw/sw/lv_draw_sw_line.c **** /**********************
  47:Drivers/lvgl/src/draw/sw/lv_draw_sw_line.c ****  *   GLOBAL FUNCTIONS
  48:Drivers/lvgl/src/draw/sw/lv_draw_sw_line.c ****  **********************/
  49:Drivers/lvgl/src/draw/sw/lv_draw_sw_line.c **** 
  50:Drivers/lvgl/src/draw/sw/lv_draw_sw_line.c **** void lv_draw_sw_line(lv_draw_task_t * t, const lv_draw_line_dsc_t * dsc)
  51:Drivers/lvgl/src/draw/sw/lv_draw_sw_line.c **** {
  52:Drivers/lvgl/src/draw/sw/lv_draw_sw_line.c ****     if(dsc->width == 0) return;
  53:Drivers/lvgl/src/draw/sw/lv_draw_sw_line.c ****     if(dsc->opa <= LV_OPA_MIN) return;
  54:Drivers/lvgl/src/draw/sw/lv_draw_sw_line.c **** 
  55:Drivers/lvgl/src/draw/sw/lv_draw_sw_line.c ****     if(dsc->p1.x == dsc->p2.x && dsc->p1.y == dsc->p2.y) return;
  56:Drivers/lvgl/src/draw/sw/lv_draw_sw_line.c **** 
  57:Drivers/lvgl/src/draw/sw/lv_draw_sw_line.c ****     lv_area_t clip_line;
  58:Drivers/lvgl/src/draw/sw/lv_draw_sw_line.c ****     clip_line.x1 = (int32_t)LV_MIN(dsc->p1.x, dsc->p2.x) - dsc->width / 2;
  59:Drivers/lvgl/src/draw/sw/lv_draw_sw_line.c ****     clip_line.x2 = (int32_t)LV_MAX(dsc->p1.x, dsc->p2.x) + dsc->width / 2;
  60:Drivers/lvgl/src/draw/sw/lv_draw_sw_line.c ****     clip_line.y1 = (int32_t)LV_MIN(dsc->p1.y, dsc->p2.y) - dsc->width / 2;
  61:Drivers/lvgl/src/draw/sw/lv_draw_sw_line.c ****     clip_line.y2 = (int32_t)LV_MAX(dsc->p1.y, dsc->p2.y) + dsc->width / 2;
  62:Drivers/lvgl/src/draw/sw/lv_draw_sw_line.c **** 
  63:Drivers/lvgl/src/draw/sw/lv_draw_sw_line.c ****     bool is_common;
  64:Drivers/lvgl/src/draw/sw/lv_draw_sw_line.c ****     is_common = lv_area_intersect(&clip_line, &clip_line, &t->clip_area);
  65:Drivers/lvgl/src/draw/sw/lv_draw_sw_line.c ****     if(!is_common) return;
  66:Drivers/lvgl/src/draw/sw/lv_draw_sw_line.c **** 
  67:Drivers/lvgl/src/draw/sw/lv_draw_sw_line.c ****     LV_PROFILER_DRAW_BEGIN;
  68:Drivers/lvgl/src/draw/sw/lv_draw_sw_line.c ****     if((int32_t)dsc->p1.y == (int32_t)dsc->p2.y) draw_line_hor(t, dsc);
  69:Drivers/lvgl/src/draw/sw/lv_draw_sw_line.c ****     else if((int32_t)dsc->p1.x == (int32_t)dsc->p2.x) draw_line_ver(t, dsc);
  70:Drivers/lvgl/src/draw/sw/lv_draw_sw_line.c ****     else draw_line_skew(t, dsc);
  71:Drivers/lvgl/src/draw/sw/lv_draw_sw_line.c **** 
  72:Drivers/lvgl/src/draw/sw/lv_draw_sw_line.c ****     if(dsc->round_end || dsc->round_start) {
  73:Drivers/lvgl/src/draw/sw/lv_draw_sw_line.c ****         lv_draw_fill_dsc_t cir_dsc;
  74:Drivers/lvgl/src/draw/sw/lv_draw_sw_line.c ****         lv_draw_fill_dsc_init(&cir_dsc);
  75:Drivers/lvgl/src/draw/sw/lv_draw_sw_line.c ****         cir_dsc.color = dsc->color;
  76:Drivers/lvgl/src/draw/sw/lv_draw_sw_line.c ****         cir_dsc.radius = LV_RADIUS_CIRCLE;
  77:Drivers/lvgl/src/draw/sw/lv_draw_sw_line.c ****         cir_dsc.opa = dsc->opa;
  78:Drivers/lvgl/src/draw/sw/lv_draw_sw_line.c **** 
  79:Drivers/lvgl/src/draw/sw/lv_draw_sw_line.c ****         int32_t r = (dsc->width >> 1);
  80:Drivers/lvgl/src/draw/sw/lv_draw_sw_line.c ****         int32_t r_corr = (dsc->width & 1) ? 0 : 1;
  81:Drivers/lvgl/src/draw/sw/lv_draw_sw_line.c ****         lv_area_t cir_area;
  82:Drivers/lvgl/src/draw/sw/lv_draw_sw_line.c **** 
  83:Drivers/lvgl/src/draw/sw/lv_draw_sw_line.c ****         if(dsc->round_start) {
  84:Drivers/lvgl/src/draw/sw/lv_draw_sw_line.c ****             cir_area.x1 = (int32_t)dsc->p1.x - r;
  85:Drivers/lvgl/src/draw/sw/lv_draw_sw_line.c ****             cir_area.y1 = (int32_t)dsc->p1.y - r;
  86:Drivers/lvgl/src/draw/sw/lv_draw_sw_line.c ****             cir_area.x2 = (int32_t)dsc->p1.x + r - r_corr;
  87:Drivers/lvgl/src/draw/sw/lv_draw_sw_line.c ****             cir_area.y2 = (int32_t)dsc->p1.y + r - r_corr ;
ARM GAS  /tmp/ccme7qfW.s 			page 3


  88:Drivers/lvgl/src/draw/sw/lv_draw_sw_line.c ****             lv_draw_sw_fill(t, &cir_dsc, &cir_area);
  89:Drivers/lvgl/src/draw/sw/lv_draw_sw_line.c ****         }
  90:Drivers/lvgl/src/draw/sw/lv_draw_sw_line.c **** 
  91:Drivers/lvgl/src/draw/sw/lv_draw_sw_line.c ****         if(dsc->round_end) {
  92:Drivers/lvgl/src/draw/sw/lv_draw_sw_line.c ****             cir_area.x1 = (int32_t)dsc->p2.x - r;
  93:Drivers/lvgl/src/draw/sw/lv_draw_sw_line.c ****             cir_area.y1 = (int32_t)dsc->p2.y - r;
  94:Drivers/lvgl/src/draw/sw/lv_draw_sw_line.c ****             cir_area.x2 = (int32_t)dsc->p2.x + r - r_corr;
  95:Drivers/lvgl/src/draw/sw/lv_draw_sw_line.c ****             cir_area.y2 = (int32_t)dsc->p2.y + r - r_corr ;
  96:Drivers/lvgl/src/draw/sw/lv_draw_sw_line.c ****             lv_draw_sw_fill(t, &cir_dsc, &cir_area);
  97:Drivers/lvgl/src/draw/sw/lv_draw_sw_line.c ****         }
  98:Drivers/lvgl/src/draw/sw/lv_draw_sw_line.c ****     }
  99:Drivers/lvgl/src/draw/sw/lv_draw_sw_line.c ****     LV_PROFILER_DRAW_END;
 100:Drivers/lvgl/src/draw/sw/lv_draw_sw_line.c **** }
 101:Drivers/lvgl/src/draw/sw/lv_draw_sw_line.c **** 
 102:Drivers/lvgl/src/draw/sw/lv_draw_sw_line.c **** /**********************
 103:Drivers/lvgl/src/draw/sw/lv_draw_sw_line.c ****  *   STATIC FUNCTIONS
 104:Drivers/lvgl/src/draw/sw/lv_draw_sw_line.c ****  **********************/
 105:Drivers/lvgl/src/draw/sw/lv_draw_sw_line.c **** static void LV_ATTRIBUTE_FAST_MEM draw_line_hor(lv_draw_task_t * t, const lv_draw_line_dsc_t * dsc)
 106:Drivers/lvgl/src/draw/sw/lv_draw_sw_line.c **** {
  29              		.loc 1 106 1 view -0
  30              		.cfi_startproc
  31              		@ args = 0, pretend = 0, frame = 64
  32              		@ frame_needed = 0, uses_anonymous_args = 0
  33              		.loc 1 106 1 is_stmt 0 view .LVU1
  34 0000 2DE9F047 		push	{r4, r5, r6, r7, r8, r9, r10, lr}
  35              	.LCFI0:
  36              		.cfi_def_cfa_offset 32
  37              		.cfi_offset 4, -32
  38              		.cfi_offset 5, -28
  39              		.cfi_offset 6, -24
  40              		.cfi_offset 7, -20
  41              		.cfi_offset 8, -16
  42              		.cfi_offset 9, -12
  43              		.cfi_offset 10, -8
  44              		.cfi_offset 14, -4
  45 0004 90B0     		sub	sp, sp, #64
  46              	.LCFI1:
  47              		.cfi_def_cfa_offset 96
  48 0006 8046     		mov	r8, r0
  49 0008 0C46     		mov	r4, r1
 107:Drivers/lvgl/src/draw/sw/lv_draw_sw_line.c ****     int32_t w = dsc->width - 1;
  50              		.loc 1 107 5 is_stmt 1 view .LVU2
  51              		.loc 1 107 20 is_stmt 0 view .LVU3
  52 000a 0A6B     		ldr	r2, [r1, #48]
  53              		.loc 1 107 13 view .LVU4
  54 000c 013A     		subs	r2, r2, #1
  55              	.LVL1:
 108:Drivers/lvgl/src/draw/sw/lv_draw_sw_line.c ****     int32_t w_half0 = w >> 1;
  56              		.loc 1 108 5 is_stmt 1 view .LVU5
 109:Drivers/lvgl/src/draw/sw/lv_draw_sw_line.c ****     int32_t w_half1 = w_half0 + (w & 0x1); /*Compensate rounding error*/
  57              		.loc 1 109 5 view .LVU6
  58              		.loc 1 109 36 is_stmt 0 view .LVU7
  59 000e 02F00103 		and	r3, r2, #1
  60              		.loc 1 109 13 view .LVU8
  61 0012 03EB6201 		add	r1, r3, r2, asr #1
  62              	.LVL2:
 110:Drivers/lvgl/src/draw/sw/lv_draw_sw_line.c **** 
ARM GAS  /tmp/ccme7qfW.s 			page 4


 111:Drivers/lvgl/src/draw/sw/lv_draw_sw_line.c ****     lv_area_t blend_area;
  63              		.loc 1 111 5 is_stmt 1 view .LVU9
 112:Drivers/lvgl/src/draw/sw/lv_draw_sw_line.c ****     blend_area.x1 = (int32_t)LV_MIN(dsc->p1.x, dsc->p2.x);
  64              		.loc 1 112 5 view .LVU10
  65              		.loc 1 112 30 is_stmt 0 view .LVU11
  66 0016 636A     		ldr	r3, [r4, #36]
  67 0018 E069     		ldr	r0, [r4, #28]
  68              	.LVL3:
  69              		.loc 1 112 21 view .LVU12
  70 001a 1D46     		mov	r5, r3
  71 001c 8342     		cmp	r3, r0
  72 001e A8BF     		it	ge
  73 0020 0546     		movge	r5, r0
  74              		.loc 1 112 19 view .LVU13
  75 0022 0C95     		str	r5, [sp, #48]
 113:Drivers/lvgl/src/draw/sw/lv_draw_sw_line.c ****     blend_area.x2 = (int32_t)LV_MAX(dsc->p1.x, dsc->p2.x)  - 1;
  76              		.loc 1 113 5 is_stmt 1 view .LVU14
  77              		.loc 1 113 21 is_stmt 0 view .LVU15
  78 0024 8342     		cmp	r3, r0
  79 0026 B8BF     		it	lt
  80 0028 0346     		movlt	r3, r0
  81              		.loc 1 113 60 view .LVU16
  82 002a 013B     		subs	r3, r3, #1
  83              		.loc 1 113 19 view .LVU17
  84 002c 0E93     		str	r3, [sp, #56]
 114:Drivers/lvgl/src/draw/sw/lv_draw_sw_line.c ****     blend_area.y1 = (int32_t)dsc->p1.y - w_half1;
  85              		.loc 1 114 5 is_stmt 1 view .LVU18
  86              		.loc 1 114 37 is_stmt 0 view .LVU19
  87 002e 206A     		ldr	r0, [r4, #32]
  88              		.loc 1 114 40 view .LVU20
  89 0030 411A     		subs	r1, r0, r1
  90              	.LVL4:
  91              		.loc 1 114 19 view .LVU21
  92 0032 0D91     		str	r1, [sp, #52]
 115:Drivers/lvgl/src/draw/sw/lv_draw_sw_line.c ****     blend_area.y2 = (int32_t)dsc->p1.y + w_half0;
  93              		.loc 1 115 5 is_stmt 1 view .LVU22
  94              		.loc 1 115 40 is_stmt 0 view .LVU23
  95 0034 00EB6200 		add	r0, r0, r2, asr #1
  96              		.loc 1 115 19 view .LVU24
  97 0038 0F90     		str	r0, [sp, #60]
 116:Drivers/lvgl/src/draw/sw/lv_draw_sw_line.c **** 
 117:Drivers/lvgl/src/draw/sw/lv_draw_sw_line.c ****     bool is_common;
  98              		.loc 1 117 5 is_stmt 1 view .LVU25
 118:Drivers/lvgl/src/draw/sw/lv_draw_sw_line.c ****     is_common = lv_area_intersect(&blend_area, &blend_area, &t->clip_area);
  99              		.loc 1 118 5 view .LVU26
 100              		.loc 1 118 17 is_stmt 0 view .LVU27
 101 003a 0CA8     		add	r0, sp, #48
 102 003c 08F13802 		add	r2, r8, #56
 103              	.LVL5:
 104              		.loc 1 118 17 view .LVU28
 105 0040 0146     		mov	r1, r0
 106 0042 FFF7FEFF 		bl	lv_area_intersect
 107              	.LVL6:
 119:Drivers/lvgl/src/draw/sw/lv_draw_sw_line.c ****     if(!is_common) return;
 108              		.loc 1 119 5 is_stmt 1 view .LVU29
 109              		.loc 1 119 7 is_stmt 0 view .LVU30
 110 0046 E8B1     		cbz	r0, .L1
ARM GAS  /tmp/ccme7qfW.s 			page 5


 120:Drivers/lvgl/src/draw/sw/lv_draw_sw_line.c **** 
 121:Drivers/lvgl/src/draw/sw/lv_draw_sw_line.c ****     bool dashed = dsc->dash_gap && dsc->dash_width;
 111              		.loc 1 121 5 is_stmt 1 view .LVU31
 112              		.loc 1 121 22 is_stmt 0 view .LVU32
 113 0048 A36B     		ldr	r3, [r4, #56]
 114              		.loc 1 121 33 view .LVU33
 115 004a 1BB1     		cbz	r3, .L13
 116              		.loc 1 121 39 discriminator 1 view .LVU34
 117 004c 636B     		ldr	r3, [r4, #52]
 118              		.loc 1 121 33 discriminator 1 view .LVU35
 119 004e E3B9     		cbnz	r3, .L14
 120              		.loc 1 121 33 discriminator 4 view .LVU36
 121 0050 0025     		movs	r5, #0
 122 0052 00E0     		b	.L4
 123              	.L13:
 124 0054 0025     		movs	r5, #0
 125              	.L4:
 126              	.LVL7:
 122:Drivers/lvgl/src/draw/sw/lv_draw_sw_line.c **** 
 123:Drivers/lvgl/src/draw/sw/lv_draw_sw_line.c ****     lv_draw_sw_blend_dsc_t blend_dsc;
 127              		.loc 1 123 5 is_stmt 1 view .LVU37
 124:Drivers/lvgl/src/draw/sw/lv_draw_sw_line.c ****     lv_memzero(&blend_dsc, sizeof(blend_dsc));
 128              		.loc 1 124 5 view .LVU38
 129              	.LBB14:
 130              	.LBI14:
 131              		.file 2 "Drivers/lvgl/src/draw/sw/../../misc/../stdlib/lv_string.h"
   1:Drivers/lvgl/src/draw/sw/../../misc/../stdlib/lv_string.h **** /**
   2:Drivers/lvgl/src/draw/sw/../../misc/../stdlib/lv_string.h ****  * @file lv_string.h
   3:Drivers/lvgl/src/draw/sw/../../misc/../stdlib/lv_string.h ****  *
   4:Drivers/lvgl/src/draw/sw/../../misc/../stdlib/lv_string.h ****  */
   5:Drivers/lvgl/src/draw/sw/../../misc/../stdlib/lv_string.h **** 
   6:Drivers/lvgl/src/draw/sw/../../misc/../stdlib/lv_string.h **** #ifndef LV_STRING_H
   7:Drivers/lvgl/src/draw/sw/../../misc/../stdlib/lv_string.h **** #define LV_STRING_H
   8:Drivers/lvgl/src/draw/sw/../../misc/../stdlib/lv_string.h **** 
   9:Drivers/lvgl/src/draw/sw/../../misc/../stdlib/lv_string.h **** #ifdef __cplusplus
  10:Drivers/lvgl/src/draw/sw/../../misc/../stdlib/lv_string.h **** extern "C" {
  11:Drivers/lvgl/src/draw/sw/../../misc/../stdlib/lv_string.h **** #endif
  12:Drivers/lvgl/src/draw/sw/../../misc/../stdlib/lv_string.h **** 
  13:Drivers/lvgl/src/draw/sw/../../misc/../stdlib/lv_string.h **** /*********************
  14:Drivers/lvgl/src/draw/sw/../../misc/../stdlib/lv_string.h ****  *      INCLUDES
  15:Drivers/lvgl/src/draw/sw/../../misc/../stdlib/lv_string.h ****  *********************/
  16:Drivers/lvgl/src/draw/sw/../../misc/../stdlib/lv_string.h **** #include "../lv_conf_internal.h"
  17:Drivers/lvgl/src/draw/sw/../../misc/../stdlib/lv_string.h **** #include "../misc/lv_types.h"
  18:Drivers/lvgl/src/draw/sw/../../misc/../stdlib/lv_string.h **** 
  19:Drivers/lvgl/src/draw/sw/../../misc/../stdlib/lv_string.h **** /*********************
  20:Drivers/lvgl/src/draw/sw/../../misc/../stdlib/lv_string.h ****  *      DEFINES
  21:Drivers/lvgl/src/draw/sw/../../misc/../stdlib/lv_string.h ****  *********************/
  22:Drivers/lvgl/src/draw/sw/../../misc/../stdlib/lv_string.h **** 
  23:Drivers/lvgl/src/draw/sw/../../misc/../stdlib/lv_string.h **** /**********************
  24:Drivers/lvgl/src/draw/sw/../../misc/../stdlib/lv_string.h ****  *      TYPEDEFS
  25:Drivers/lvgl/src/draw/sw/../../misc/../stdlib/lv_string.h ****  **********************/
  26:Drivers/lvgl/src/draw/sw/../../misc/../stdlib/lv_string.h **** 
  27:Drivers/lvgl/src/draw/sw/../../misc/../stdlib/lv_string.h **** /**********************
  28:Drivers/lvgl/src/draw/sw/../../misc/../stdlib/lv_string.h ****  * GLOBAL PROTOTYPES
  29:Drivers/lvgl/src/draw/sw/../../misc/../stdlib/lv_string.h ****  **********************/
  30:Drivers/lvgl/src/draw/sw/../../misc/../stdlib/lv_string.h **** 
  31:Drivers/lvgl/src/draw/sw/../../misc/../stdlib/lv_string.h **** /**
ARM GAS  /tmp/ccme7qfW.s 			page 6


  32:Drivers/lvgl/src/draw/sw/../../misc/../stdlib/lv_string.h ****  * @brief Copies a block of memory from a source address to a destination address.
  33:Drivers/lvgl/src/draw/sw/../../misc/../stdlib/lv_string.h ****  * @param dst Pointer to the destination array where the content is to be copied.
  34:Drivers/lvgl/src/draw/sw/../../misc/../stdlib/lv_string.h ****  * @param src Pointer to the source of data to be copied.
  35:Drivers/lvgl/src/draw/sw/../../misc/../stdlib/lv_string.h ****  * @param len Number of bytes to copy.
  36:Drivers/lvgl/src/draw/sw/../../misc/../stdlib/lv_string.h ****  * @return Pointer to the destination array.
  37:Drivers/lvgl/src/draw/sw/../../misc/../stdlib/lv_string.h ****  * @note The function does not check for any overlapping of the source and destination memory block
  38:Drivers/lvgl/src/draw/sw/../../misc/../stdlib/lv_string.h ****  */
  39:Drivers/lvgl/src/draw/sw/../../misc/../stdlib/lv_string.h **** void * lv_memcpy(void * dst, const void * src, size_t len);
  40:Drivers/lvgl/src/draw/sw/../../misc/../stdlib/lv_string.h **** 
  41:Drivers/lvgl/src/draw/sw/../../misc/../stdlib/lv_string.h **** /**
  42:Drivers/lvgl/src/draw/sw/../../misc/../stdlib/lv_string.h ****  * @brief Fills a block of memory with a specified value.
  43:Drivers/lvgl/src/draw/sw/../../misc/../stdlib/lv_string.h ****  * @param dst Pointer to the destination array to fill with the specified value.
  44:Drivers/lvgl/src/draw/sw/../../misc/../stdlib/lv_string.h ****  * @param v Value to be set. The value is passed as an int, but the function fills
  45:Drivers/lvgl/src/draw/sw/../../misc/../stdlib/lv_string.h ****  *          the block of memory using the unsigned char conversion of this value.
  46:Drivers/lvgl/src/draw/sw/../../misc/../stdlib/lv_string.h ****  * @param len Number of bytes to be set to the value.
  47:Drivers/lvgl/src/draw/sw/../../misc/../stdlib/lv_string.h ****  */
  48:Drivers/lvgl/src/draw/sw/../../misc/../stdlib/lv_string.h **** void lv_memset(void * dst, uint8_t v, size_t len);
  49:Drivers/lvgl/src/draw/sw/../../misc/../stdlib/lv_string.h **** 
  50:Drivers/lvgl/src/draw/sw/../../misc/../stdlib/lv_string.h **** /**
  51:Drivers/lvgl/src/draw/sw/../../misc/../stdlib/lv_string.h ****  * @brief Move a block of memory from source to destination
  52:Drivers/lvgl/src/draw/sw/../../misc/../stdlib/lv_string.h ****  * @param dst Pointer to the destination array where the content is to be copied.
  53:Drivers/lvgl/src/draw/sw/../../misc/../stdlib/lv_string.h ****  * @param src Pointer to the source of data to be copied.
  54:Drivers/lvgl/src/draw/sw/../../misc/../stdlib/lv_string.h ****  * @param len Number of bytes to copy
  55:Drivers/lvgl/src/draw/sw/../../misc/../stdlib/lv_string.h ****  * @return Pointer to the destination array.
  56:Drivers/lvgl/src/draw/sw/../../misc/../stdlib/lv_string.h ****  */
  57:Drivers/lvgl/src/draw/sw/../../misc/../stdlib/lv_string.h **** void * lv_memmove(void * dst, const void * src, size_t len);
  58:Drivers/lvgl/src/draw/sw/../../misc/../stdlib/lv_string.h **** 
  59:Drivers/lvgl/src/draw/sw/../../misc/../stdlib/lv_string.h **** /**
  60:Drivers/lvgl/src/draw/sw/../../misc/../stdlib/lv_string.h ****  * @brief This function will compare two memory blocks
  61:Drivers/lvgl/src/draw/sw/../../misc/../stdlib/lv_string.h ****  * @param p1 Pointer to the first memory block
  62:Drivers/lvgl/src/draw/sw/../../misc/../stdlib/lv_string.h ****  * @param p2 Pointer to the second memory block
  63:Drivers/lvgl/src/draw/sw/../../misc/../stdlib/lv_string.h ****  * @param len Number of bytes to compare
  64:Drivers/lvgl/src/draw/sw/../../misc/../stdlib/lv_string.h ****  * @return The difference between the value of the first unmatching byte.
  65:Drivers/lvgl/src/draw/sw/../../misc/../stdlib/lv_string.h ****  */
  66:Drivers/lvgl/src/draw/sw/../../misc/../stdlib/lv_string.h **** int lv_memcmp(const void * p1, const void * p2, size_t len);
  67:Drivers/lvgl/src/draw/sw/../../misc/../stdlib/lv_string.h **** 
  68:Drivers/lvgl/src/draw/sw/../../misc/../stdlib/lv_string.h **** /**
  69:Drivers/lvgl/src/draw/sw/../../misc/../stdlib/lv_string.h ****  * Same as `memset(dst, 0x00, len)`.
  70:Drivers/lvgl/src/draw/sw/../../misc/../stdlib/lv_string.h ****  * @param dst pointer to the destination buffer
  71:Drivers/lvgl/src/draw/sw/../../misc/../stdlib/lv_string.h ****  * @param len number of byte to set
  72:Drivers/lvgl/src/draw/sw/../../misc/../stdlib/lv_string.h ****  */
  73:Drivers/lvgl/src/draw/sw/../../misc/../stdlib/lv_string.h **** static inline void lv_memzero(void * dst, size_t len)
 132              		.loc 2 73 20 view .LVU39
 133              	.LBB15:
  74:Drivers/lvgl/src/draw/sw/../../misc/../stdlib/lv_string.h **** {
  75:Drivers/lvgl/src/draw/sw/../../misc/../stdlib/lv_string.h ****     lv_memset(dst, 0x00, len);
 134              		.loc 2 75 5 view .LVU40
 135 0056 2C22     		movs	r2, #44
 136 0058 0021     		movs	r1, #0
 137 005a 01A8     		add	r0, sp, #4
 138              	.LVL8:
 139              		.loc 2 75 5 is_stmt 0 view .LVU41
 140 005c FFF7FEFF 		bl	lv_memset
 141              	.LVL9:
 142              		.loc 2 75 5 view .LVU42
 143              	.LBE15:
 144              	.LBE14:
ARM GAS  /tmp/ccme7qfW.s 			page 7


 125:Drivers/lvgl/src/draw/sw/lv_draw_sw_line.c ****     blend_dsc.blend_area = &blend_area;
 145              		.loc 1 125 5 is_stmt 1 view .LVU43
 146              		.loc 1 125 26 is_stmt 0 view .LVU44
 147 0060 0CAB     		add	r3, sp, #48
 148 0062 0193     		str	r3, [sp, #4]
 126:Drivers/lvgl/src/draw/sw/lv_draw_sw_line.c ****     blend_dsc.color = dsc->color;
 149              		.loc 1 126 5 is_stmt 1 view .LVU45
 150              		.loc 1 126 21 is_stmt 0 view .LVU46
 151 0064 A28D     		ldrh	r2, [r4, #44]	@ unaligned
 152 0066 94F82E30 		ldrb	r3, [r4, #46]	@ zero_extendqisi2
 153 006a ADF81920 		strh	r2, [sp, #25]	@ unaligned
 154 006e 8DF81B30 		strb	r3, [sp, #27]
 127:Drivers/lvgl/src/draw/sw/lv_draw_sw_line.c ****     blend_dsc.opa = dsc->opa;
 155              		.loc 1 127 5 is_stmt 1 view .LVU47
 156              		.loc 1 127 24 is_stmt 0 view .LVU48
 157 0072 94F83C30 		ldrb	r3, [r4, #60]	@ zero_extendqisi2
 158              		.loc 1 127 19 view .LVU49
 159 0076 8DF81830 		strb	r3, [sp, #24]
 128:Drivers/lvgl/src/draw/sw/lv_draw_sw_line.c **** 
 129:Drivers/lvgl/src/draw/sw/lv_draw_sw_line.c ****     /*If there is no mask then simply draw a rectangle*/
 130:Drivers/lvgl/src/draw/sw/lv_draw_sw_line.c ****     if(!dashed) {
 160              		.loc 1 130 5 is_stmt 1 view .LVU50
 161              		.loc 1 130 7 is_stmt 0 view .LVU51
 162 007a 45B9     		cbnz	r5, .L5
 131:Drivers/lvgl/src/draw/sw/lv_draw_sw_line.c ****         lv_draw_sw_blend(t, &blend_dsc);
 163              		.loc 1 131 9 is_stmt 1 view .LVU52
 164 007c 01A9     		add	r1, sp, #4
 165 007e 4046     		mov	r0, r8
 166 0080 FFF7FEFF 		bl	lv_draw_sw_blend
 167              	.LVL10:
 168              	.L1:
 132:Drivers/lvgl/src/draw/sw/lv_draw_sw_line.c ****     }
 133:Drivers/lvgl/src/draw/sw/lv_draw_sw_line.c **** #if LV_DRAW_SW_COMPLEX
 134:Drivers/lvgl/src/draw/sw/lv_draw_sw_line.c ****     /*If there other mask apply it*/
 135:Drivers/lvgl/src/draw/sw/lv_draw_sw_line.c ****     else {
 136:Drivers/lvgl/src/draw/sw/lv_draw_sw_line.c **** 
 137:Drivers/lvgl/src/draw/sw/lv_draw_sw_line.c ****         int32_t blend_area_w = lv_area_get_width(&blend_area);
 138:Drivers/lvgl/src/draw/sw/lv_draw_sw_line.c **** 
 139:Drivers/lvgl/src/draw/sw/lv_draw_sw_line.c ****         int32_t y2 = blend_area.y2;
 140:Drivers/lvgl/src/draw/sw/lv_draw_sw_line.c ****         blend_area.y2 = blend_area.y1;
 141:Drivers/lvgl/src/draw/sw/lv_draw_sw_line.c **** 
 142:Drivers/lvgl/src/draw/sw/lv_draw_sw_line.c ****         int32_t dash_start = blend_area.x1 % (dsc->dash_gap + dsc->dash_width);
 143:Drivers/lvgl/src/draw/sw/lv_draw_sw_line.c **** 
 144:Drivers/lvgl/src/draw/sw/lv_draw_sw_line.c ****         lv_opa_t * mask_buf = lv_malloc(blend_area_w);
 145:Drivers/lvgl/src/draw/sw/lv_draw_sw_line.c ****         blend_dsc.mask_buf = mask_buf;
 146:Drivers/lvgl/src/draw/sw/lv_draw_sw_line.c ****         blend_dsc.mask_area = &blend_area;
 147:Drivers/lvgl/src/draw/sw/lv_draw_sw_line.c ****         blend_dsc.mask_res = LV_DRAW_SW_MASK_RES_CHANGED;
 148:Drivers/lvgl/src/draw/sw/lv_draw_sw_line.c ****         int32_t h;
 149:Drivers/lvgl/src/draw/sw/lv_draw_sw_line.c ****         for(h = blend_area.y1; h <= y2; h++) {
 150:Drivers/lvgl/src/draw/sw/lv_draw_sw_line.c ****             lv_memset(mask_buf, 0xff, blend_area_w);
 151:Drivers/lvgl/src/draw/sw/lv_draw_sw_line.c **** 
 152:Drivers/lvgl/src/draw/sw/lv_draw_sw_line.c ****             int32_t dash_cnt = dash_start;
 153:Drivers/lvgl/src/draw/sw/lv_draw_sw_line.c ****             int32_t i;
 154:Drivers/lvgl/src/draw/sw/lv_draw_sw_line.c ****             for(i = 0; i < blend_area_w; i++, dash_cnt++) {
 155:Drivers/lvgl/src/draw/sw/lv_draw_sw_line.c ****                 if(dash_cnt <= dsc->dash_width) {
 156:Drivers/lvgl/src/draw/sw/lv_draw_sw_line.c ****                     int16_t diff = dsc->dash_width - dash_cnt;
 157:Drivers/lvgl/src/draw/sw/lv_draw_sw_line.c ****                     i += diff;
ARM GAS  /tmp/ccme7qfW.s 			page 8


 158:Drivers/lvgl/src/draw/sw/lv_draw_sw_line.c ****                     dash_cnt += diff;
 159:Drivers/lvgl/src/draw/sw/lv_draw_sw_line.c ****                 }
 160:Drivers/lvgl/src/draw/sw/lv_draw_sw_line.c ****                 else if(dash_cnt > dsc->dash_gap + dsc->dash_width) {
 161:Drivers/lvgl/src/draw/sw/lv_draw_sw_line.c ****                     dash_cnt = 0;
 162:Drivers/lvgl/src/draw/sw/lv_draw_sw_line.c ****                 }
 163:Drivers/lvgl/src/draw/sw/lv_draw_sw_line.c ****                 else {
 164:Drivers/lvgl/src/draw/sw/lv_draw_sw_line.c ****                     mask_buf[i] = 0x00;
 165:Drivers/lvgl/src/draw/sw/lv_draw_sw_line.c ****                 }
 166:Drivers/lvgl/src/draw/sw/lv_draw_sw_line.c **** 
 167:Drivers/lvgl/src/draw/sw/lv_draw_sw_line.c ****                 blend_dsc.mask_res = LV_DRAW_SW_MASK_RES_CHANGED;
 168:Drivers/lvgl/src/draw/sw/lv_draw_sw_line.c ****             }
 169:Drivers/lvgl/src/draw/sw/lv_draw_sw_line.c **** 
 170:Drivers/lvgl/src/draw/sw/lv_draw_sw_line.c ****             lv_draw_sw_blend(t, &blend_dsc);
 171:Drivers/lvgl/src/draw/sw/lv_draw_sw_line.c **** 
 172:Drivers/lvgl/src/draw/sw/lv_draw_sw_line.c ****             blend_area.y1++;
 173:Drivers/lvgl/src/draw/sw/lv_draw_sw_line.c ****             blend_area.y2++;
 174:Drivers/lvgl/src/draw/sw/lv_draw_sw_line.c ****         }
 175:Drivers/lvgl/src/draw/sw/lv_draw_sw_line.c ****         lv_free(mask_buf);
 176:Drivers/lvgl/src/draw/sw/lv_draw_sw_line.c ****     }
 177:Drivers/lvgl/src/draw/sw/lv_draw_sw_line.c **** #endif /*LV_DRAW_SW_COMPLEX*/
 178:Drivers/lvgl/src/draw/sw/lv_draw_sw_line.c **** }
 169              		.loc 1 178 1 is_stmt 0 view .LVU53
 170 0084 10B0     		add	sp, sp, #64
 171              	.LCFI2:
 172              		.cfi_remember_state
 173              		.cfi_def_cfa_offset 32
 174              		@ sp needed
 175 0086 BDE8F087 		pop	{r4, r5, r6, r7, r8, r9, r10, pc}
 176              	.LVL11:
 177              	.L14:
 178              	.LCFI3:
 179              		.cfi_restore_state
 121:Drivers/lvgl/src/draw/sw/lv_draw_sw_line.c **** 
 180              		.loc 1 121 33 discriminator 3 view .LVU54
 181 008a 0125     		movs	r5, #1
 182 008c E3E7     		b	.L4
 183              	.LVL12:
 184              	.L5:
 185              	.LBB16:
 137:Drivers/lvgl/src/draw/sw/lv_draw_sw_line.c **** 
 186              		.loc 1 137 9 is_stmt 1 view .LVU55
 137:Drivers/lvgl/src/draw/sw/lv_draw_sw_line.c **** 
 187              		.loc 1 137 32 is_stmt 0 view .LVU56
 188 008e 0CAF     		add	r7, sp, #48
 189 0090 3846     		mov	r0, r7
 190 0092 FFF7FEFF 		bl	lv_area_get_width
 191              	.LVL13:
 192 0096 0546     		mov	r5, r0
 193              	.LVL14:
 139:Drivers/lvgl/src/draw/sw/lv_draw_sw_line.c ****         blend_area.y2 = blend_area.y1;
 194              		.loc 1 139 9 is_stmt 1 view .LVU57
 139:Drivers/lvgl/src/draw/sw/lv_draw_sw_line.c ****         blend_area.y2 = blend_area.y1;
 195              		.loc 1 139 17 is_stmt 0 view .LVU58
 196 0098 DDF83CA0 		ldr	r10, [sp, #60]
 197              	.LVL15:
 140:Drivers/lvgl/src/draw/sw/lv_draw_sw_line.c **** 
 198              		.loc 1 140 9 is_stmt 1 view .LVU59
ARM GAS  /tmp/ccme7qfW.s 			page 9


 140:Drivers/lvgl/src/draw/sw/lv_draw_sw_line.c **** 
 199              		.loc 1 140 35 is_stmt 0 view .LVU60
 200 009c 0D9B     		ldr	r3, [sp, #52]
 140:Drivers/lvgl/src/draw/sw/lv_draw_sw_line.c **** 
 201              		.loc 1 140 23 view .LVU61
 202 009e 0F93     		str	r3, [sp, #60]
 142:Drivers/lvgl/src/draw/sw/lv_draw_sw_line.c **** 
 203              		.loc 1 142 9 is_stmt 1 view .LVU62
 142:Drivers/lvgl/src/draw/sw/lv_draw_sw_line.c **** 
 204              		.loc 1 142 40 is_stmt 0 view .LVU63
 205 00a0 0C9A     		ldr	r2, [sp, #48]
 142:Drivers/lvgl/src/draw/sw/lv_draw_sw_line.c **** 
 206              		.loc 1 142 50 view .LVU64
 207 00a2 A36B     		ldr	r3, [r4, #56]
 142:Drivers/lvgl/src/draw/sw/lv_draw_sw_line.c **** 
 208              		.loc 1 142 66 view .LVU65
 209 00a4 616B     		ldr	r1, [r4, #52]
 142:Drivers/lvgl/src/draw/sw/lv_draw_sw_line.c **** 
 210              		.loc 1 142 61 view .LVU66
 211 00a6 0B44     		add	r3, r3, r1
 142:Drivers/lvgl/src/draw/sw/lv_draw_sw_line.c **** 
 212              		.loc 1 142 17 view .LVU67
 213 00a8 92FBF3F1 		sdiv	r1, r2, r3
 214 00ac 03FB1129 		mls	r9, r3, r1, r2
 215              	.LVL16:
 144:Drivers/lvgl/src/draw/sw/lv_draw_sw_line.c ****         blend_dsc.mask_buf = mask_buf;
 216              		.loc 1 144 9 is_stmt 1 view .LVU68
 144:Drivers/lvgl/src/draw/sw/lv_draw_sw_line.c ****         blend_dsc.mask_buf = mask_buf;
 217              		.loc 1 144 31 is_stmt 0 view .LVU69
 218 00b0 FFF7FEFF 		bl	lv_malloc
 219              	.LVL17:
 144:Drivers/lvgl/src/draw/sw/lv_draw_sw_line.c ****         blend_dsc.mask_buf = mask_buf;
 220              		.loc 1 144 31 view .LVU70
 221 00b4 0646     		mov	r6, r0
 222              	.LVL18:
 145:Drivers/lvgl/src/draw/sw/lv_draw_sw_line.c ****         blend_dsc.mask_area = &blend_area;
 223              		.loc 1 145 9 is_stmt 1 view .LVU71
 145:Drivers/lvgl/src/draw/sw/lv_draw_sw_line.c ****         blend_dsc.mask_area = &blend_area;
 224              		.loc 1 145 28 is_stmt 0 view .LVU72
 225 00b6 0790     		str	r0, [sp, #28]
 146:Drivers/lvgl/src/draw/sw/lv_draw_sw_line.c ****         blend_dsc.mask_res = LV_DRAW_SW_MASK_RES_CHANGED;
 226              		.loc 1 146 9 is_stmt 1 view .LVU73
 146:Drivers/lvgl/src/draw/sw/lv_draw_sw_line.c ****         blend_dsc.mask_res = LV_DRAW_SW_MASK_RES_CHANGED;
 227              		.loc 1 146 29 is_stmt 0 view .LVU74
 228 00b8 0997     		str	r7, [sp, #36]
 147:Drivers/lvgl/src/draw/sw/lv_draw_sw_line.c ****         int32_t h;
 229              		.loc 1 147 9 is_stmt 1 view .LVU75
 147:Drivers/lvgl/src/draw/sw/lv_draw_sw_line.c ****         int32_t h;
 230              		.loc 1 147 28 is_stmt 0 view .LVU76
 231 00ba 0223     		movs	r3, #2
 232 00bc 8DF82030 		strb	r3, [sp, #32]
 148:Drivers/lvgl/src/draw/sw/lv_draw_sw_line.c ****         for(h = blend_area.y1; h <= y2; h++) {
 233              		.loc 1 148 9 is_stmt 1 view .LVU77
 149:Drivers/lvgl/src/draw/sw/lv_draw_sw_line.c ****             lv_memset(mask_buf, 0xff, blend_area_w);
 234              		.loc 1 149 9 view .LVU78
 149:Drivers/lvgl/src/draw/sw/lv_draw_sw_line.c ****             lv_memset(mask_buf, 0xff, blend_area_w);
 235              		.loc 1 149 15 is_stmt 0 view .LVU79
ARM GAS  /tmp/ccme7qfW.s 			page 10


 236 00c0 0D9F     		ldr	r7, [sp, #52]
 237              	.LVL19:
 149:Drivers/lvgl/src/draw/sw/lv_draw_sw_line.c ****             lv_memset(mask_buf, 0xff, blend_area_w);
 238              		.loc 1 149 9 view .LVU80
 239 00c2 21E0     		b	.L7
 240              	.LVL20:
 241              	.L9:
 242              	.LBB17:
 160:Drivers/lvgl/src/draw/sw/lv_draw_sw_line.c ****                     dash_cnt = 0;
 243              		.loc 1 160 22 is_stmt 1 view .LVU81
 160:Drivers/lvgl/src/draw/sw/lv_draw_sw_line.c ****                     dash_cnt = 0;
 244              		.loc 1 160 39 is_stmt 0 view .LVU82
 245 00c4 A06B     		ldr	r0, [r4, #56]
 160:Drivers/lvgl/src/draw/sw/lv_draw_sw_line.c ****                     dash_cnt = 0;
 246              		.loc 1 160 50 view .LVU83
 247 00c6 0344     		add	r3, r3, r0
 160:Drivers/lvgl/src/draw/sw/lv_draw_sw_line.c ****                     dash_cnt = 0;
 248              		.loc 1 160 24 view .LVU84
 249 00c8 9342     		cmp	r3, r2
 250 00ca 10DB     		blt	.L15
 164:Drivers/lvgl/src/draw/sw/lv_draw_sw_line.c ****                 }
 251              		.loc 1 164 21 is_stmt 1 view .LVU85
 164:Drivers/lvgl/src/draw/sw/lv_draw_sw_line.c ****                 }
 252              		.loc 1 164 33 is_stmt 0 view .LVU86
 253 00cc 0023     		movs	r3, #0
 254 00ce 7354     		strb	r3, [r6, r1]
 255              	.LVL21:
 256              	.L10:
 167:Drivers/lvgl/src/draw/sw/lv_draw_sw_line.c ****             }
 257              		.loc 1 167 17 is_stmt 1 view .LVU87
 167:Drivers/lvgl/src/draw/sw/lv_draw_sw_line.c ****             }
 258              		.loc 1 167 36 is_stmt 0 view .LVU88
 259 00d0 0223     		movs	r3, #2
 260 00d2 8DF82030 		strb	r3, [sp, #32]
 154:Drivers/lvgl/src/draw/sw/lv_draw_sw_line.c ****                 if(dash_cnt <= dsc->dash_width) {
 261              		.loc 1 154 45 is_stmt 1 discriminator 2 view .LVU89
 154:Drivers/lvgl/src/draw/sw/lv_draw_sw_line.c ****                 if(dash_cnt <= dsc->dash_width) {
 262              		.loc 1 154 43 is_stmt 0 discriminator 2 view .LVU90
 263 00d6 0131     		adds	r1, r1, #1
 264              	.LVL22:
 154:Drivers/lvgl/src/draw/sw/lv_draw_sw_line.c ****                 if(dash_cnt <= dsc->dash_width) {
 265              		.loc 1 154 55 discriminator 2 view .LVU91
 266 00d8 0132     		adds	r2, r2, #1
 267              	.LVL23:
 268              	.L8:
 154:Drivers/lvgl/src/draw/sw/lv_draw_sw_line.c ****                 if(dash_cnt <= dsc->dash_width) {
 269              		.loc 1 154 26 is_stmt 1 discriminator 1 view .LVU92
 270 00da A942     		cmp	r1, r5
 271 00dc 09DA     		bge	.L17
 155:Drivers/lvgl/src/draw/sw/lv_draw_sw_line.c ****                     int16_t diff = dsc->dash_width - dash_cnt;
 272              		.loc 1 155 17 view .LVU93
 155:Drivers/lvgl/src/draw/sw/lv_draw_sw_line.c ****                     int16_t diff = dsc->dash_width - dash_cnt;
 273              		.loc 1 155 35 is_stmt 0 view .LVU94
 274 00de 636B     		ldr	r3, [r4, #52]
 155:Drivers/lvgl/src/draw/sw/lv_draw_sw_line.c ****                     int16_t diff = dsc->dash_width - dash_cnt;
 275              		.loc 1 155 19 view .LVU95
 276 00e0 9342     		cmp	r3, r2
ARM GAS  /tmp/ccme7qfW.s 			page 11


 277 00e2 EFDB     		blt	.L9
 278              	.LBB18:
 156:Drivers/lvgl/src/draw/sw/lv_draw_sw_line.c ****                     i += diff;
 279              		.loc 1 156 21 is_stmt 1 view .LVU96
 156:Drivers/lvgl/src/draw/sw/lv_draw_sw_line.c ****                     i += diff;
 280              		.loc 1 156 52 is_stmt 0 view .LVU97
 281 00e4 9B1A     		subs	r3, r3, r2
 156:Drivers/lvgl/src/draw/sw/lv_draw_sw_line.c ****                     i += diff;
 282              		.loc 1 156 29 view .LVU98
 283 00e6 1BB2     		sxth	r3, r3
 284              	.LVL24:
 157:Drivers/lvgl/src/draw/sw/lv_draw_sw_line.c ****                     dash_cnt += diff;
 285              		.loc 1 157 21 is_stmt 1 view .LVU99
 157:Drivers/lvgl/src/draw/sw/lv_draw_sw_line.c ****                     dash_cnt += diff;
 286              		.loc 1 157 23 is_stmt 0 view .LVU100
 287 00e8 1944     		add	r1, r1, r3
 288              	.LVL25:
 158:Drivers/lvgl/src/draw/sw/lv_draw_sw_line.c ****                 }
 289              		.loc 1 158 21 is_stmt 1 view .LVU101
 158:Drivers/lvgl/src/draw/sw/lv_draw_sw_line.c ****                 }
 290              		.loc 1 158 30 is_stmt 0 view .LVU102
 291 00ea 1A44     		add	r2, r2, r3
 292              	.LVL26:
 158:Drivers/lvgl/src/draw/sw/lv_draw_sw_line.c ****                 }
 293              		.loc 1 158 30 view .LVU103
 294              	.LBE18:
 295 00ec F0E7     		b	.L10
 296              	.LVL27:
 297              	.L15:
 161:Drivers/lvgl/src/draw/sw/lv_draw_sw_line.c ****                 }
 298              		.loc 1 161 30 view .LVU104
 299 00ee 0022     		movs	r2, #0
 300              	.LVL28:
 161:Drivers/lvgl/src/draw/sw/lv_draw_sw_line.c ****                 }
 301              		.loc 1 161 30 view .LVU105
 302 00f0 EEE7     		b	.L10
 303              	.LVL29:
 304              	.L17:
 170:Drivers/lvgl/src/draw/sw/lv_draw_sw_line.c **** 
 305              		.loc 1 170 13 is_stmt 1 view .LVU106
 306 00f2 01A9     		add	r1, sp, #4
 307              	.LVL30:
 170:Drivers/lvgl/src/draw/sw/lv_draw_sw_line.c **** 
 308              		.loc 1 170 13 is_stmt 0 view .LVU107
 309 00f4 4046     		mov	r0, r8
 310 00f6 FFF7FEFF 		bl	lv_draw_sw_blend
 311              	.LVL31:
 172:Drivers/lvgl/src/draw/sw/lv_draw_sw_line.c ****             blend_area.y2++;
 312              		.loc 1 172 13 is_stmt 1 view .LVU108
 172:Drivers/lvgl/src/draw/sw/lv_draw_sw_line.c ****             blend_area.y2++;
 313              		.loc 1 172 23 is_stmt 0 view .LVU109
 314 00fa 0D9B     		ldr	r3, [sp, #52]
 172:Drivers/lvgl/src/draw/sw/lv_draw_sw_line.c ****             blend_area.y2++;
 315              		.loc 1 172 26 view .LVU110
 316 00fc 0133     		adds	r3, r3, #1
 317 00fe 0D93     		str	r3, [sp, #52]
 173:Drivers/lvgl/src/draw/sw/lv_draw_sw_line.c ****         }
ARM GAS  /tmp/ccme7qfW.s 			page 12


 318              		.loc 1 173 13 is_stmt 1 view .LVU111
 173:Drivers/lvgl/src/draw/sw/lv_draw_sw_line.c ****         }
 319              		.loc 1 173 23 is_stmt 0 view .LVU112
 320 0100 0F9B     		ldr	r3, [sp, #60]
 173:Drivers/lvgl/src/draw/sw/lv_draw_sw_line.c ****         }
 321              		.loc 1 173 26 view .LVU113
 322 0102 0133     		adds	r3, r3, #1
 323 0104 0F93     		str	r3, [sp, #60]
 324              	.LBE17:
 149:Drivers/lvgl/src/draw/sw/lv_draw_sw_line.c ****             lv_memset(mask_buf, 0xff, blend_area_w);
 325              		.loc 1 149 42 is_stmt 1 discriminator 2 view .LVU114
 326 0106 0137     		adds	r7, r7, #1
 327              	.LVL32:
 328              	.L7:
 149:Drivers/lvgl/src/draw/sw/lv_draw_sw_line.c ****             lv_memset(mask_buf, 0xff, blend_area_w);
 329              		.loc 1 149 34 discriminator 1 view .LVU115
 330 0108 5745     		cmp	r7, r10
 331 010a 07DC     		bgt	.L18
 332              	.LBB19:
 150:Drivers/lvgl/src/draw/sw/lv_draw_sw_line.c **** 
 333              		.loc 1 150 13 view .LVU116
 334 010c 2A46     		mov	r2, r5
 335 010e FF21     		movs	r1, #255
 336 0110 3046     		mov	r0, r6
 337 0112 FFF7FEFF 		bl	lv_memset
 338              	.LVL33:
 152:Drivers/lvgl/src/draw/sw/lv_draw_sw_line.c ****             int32_t i;
 339              		.loc 1 152 13 view .LVU117
 153:Drivers/lvgl/src/draw/sw/lv_draw_sw_line.c ****             for(i = 0; i < blend_area_w; i++, dash_cnt++) {
 340              		.loc 1 153 13 view .LVU118
 154:Drivers/lvgl/src/draw/sw/lv_draw_sw_line.c ****                 if(dash_cnt <= dsc->dash_width) {
 341              		.loc 1 154 13 view .LVU119
 152:Drivers/lvgl/src/draw/sw/lv_draw_sw_line.c ****             int32_t i;
 342              		.loc 1 152 21 is_stmt 0 view .LVU120
 343 0116 4A46     		mov	r2, r9
 154:Drivers/lvgl/src/draw/sw/lv_draw_sw_line.c ****                 if(dash_cnt <= dsc->dash_width) {
 344              		.loc 1 154 19 view .LVU121
 345 0118 0021     		movs	r1, #0
 154:Drivers/lvgl/src/draw/sw/lv_draw_sw_line.c ****                 if(dash_cnt <= dsc->dash_width) {
 346              		.loc 1 154 13 view .LVU122
 347 011a DEE7     		b	.L8
 348              	.LVL34:
 349              	.L18:
 154:Drivers/lvgl/src/draw/sw/lv_draw_sw_line.c ****                 if(dash_cnt <= dsc->dash_width) {
 350              		.loc 1 154 13 view .LVU123
 351              	.LBE19:
 175:Drivers/lvgl/src/draw/sw/lv_draw_sw_line.c ****     }
 352              		.loc 1 175 9 is_stmt 1 view .LVU124
 353 011c 3046     		mov	r0, r6
 354 011e FFF7FEFF 		bl	lv_free
 355              	.LVL35:
 356 0122 AFE7     		b	.L1
 357              	.LBE16:
 358              		.cfi_endproc
 359              	.LFE187:
 361              		.section	.text.draw_line_ver,"ax",%progbits
 362              		.align	1
ARM GAS  /tmp/ccme7qfW.s 			page 13


 363              		.syntax unified
 364              		.thumb
 365              		.thumb_func
 367              	draw_line_ver:
 368              	.LVL36:
 369              	.LFB188:
 179:Drivers/lvgl/src/draw/sw/lv_draw_sw_line.c **** 
 180:Drivers/lvgl/src/draw/sw/lv_draw_sw_line.c **** static void LV_ATTRIBUTE_FAST_MEM draw_line_ver(lv_draw_task_t * t, const lv_draw_line_dsc_t * dsc)
 181:Drivers/lvgl/src/draw/sw/lv_draw_sw_line.c **** {
 370              		.loc 1 181 1 view -0
 371              		.cfi_startproc
 372              		@ args = 0, pretend = 0, frame = 64
 373              		@ frame_needed = 0, uses_anonymous_args = 0
 374              		.loc 1 181 1 is_stmt 0 view .LVU126
 375 0000 2DE9F047 		push	{r4, r5, r6, r7, r8, r9, r10, lr}
 376              	.LCFI4:
 377              		.cfi_def_cfa_offset 32
 378              		.cfi_offset 4, -32
 379              		.cfi_offset 5, -28
 380              		.cfi_offset 6, -24
 381              		.cfi_offset 7, -20
 382              		.cfi_offset 8, -16
 383              		.cfi_offset 9, -12
 384              		.cfi_offset 10, -8
 385              		.cfi_offset 14, -4
 386 0004 90B0     		sub	sp, sp, #64
 387              	.LCFI5:
 388              		.cfi_def_cfa_offset 96
 389 0006 0746     		mov	r7, r0
 390 0008 0C46     		mov	r4, r1
 182:Drivers/lvgl/src/draw/sw/lv_draw_sw_line.c ****     int32_t w = dsc->width - 1;
 391              		.loc 1 182 5 is_stmt 1 view .LVU127
 392              		.loc 1 182 20 is_stmt 0 view .LVU128
 393 000a 0B6B     		ldr	r3, [r1, #48]
 394              		.loc 1 182 13 view .LVU129
 395 000c 013B     		subs	r3, r3, #1
 396              	.LVL37:
 183:Drivers/lvgl/src/draw/sw/lv_draw_sw_line.c ****     int32_t w_half0 = w >> 1;
 397              		.loc 1 183 5 is_stmt 1 view .LVU130
 184:Drivers/lvgl/src/draw/sw/lv_draw_sw_line.c ****     int32_t w_half1 = w_half0 + (w & 0x1); /*Compensate rounding error*/
 398              		.loc 1 184 5 view .LVU131
 399              		.loc 1 184 36 is_stmt 0 view .LVU132
 400 000e 03F00102 		and	r2, r3, #1
 401              		.loc 1 184 13 view .LVU133
 402 0012 02EB6302 		add	r2, r2, r3, asr #1
 403              	.LVL38:
 185:Drivers/lvgl/src/draw/sw/lv_draw_sw_line.c **** 
 186:Drivers/lvgl/src/draw/sw/lv_draw_sw_line.c ****     lv_area_t blend_area;
 404              		.loc 1 186 5 is_stmt 1 view .LVU134
 187:Drivers/lvgl/src/draw/sw/lv_draw_sw_line.c ****     blend_area.x1 = (int32_t)dsc->p1.x - w_half1;
 405              		.loc 1 187 5 view .LVU135
 406              		.loc 1 187 37 is_stmt 0 view .LVU136
 407 0016 C969     		ldr	r1, [r1, #28]
 408              	.LVL39:
 409              		.loc 1 187 40 view .LVU137
 410 0018 8A1A     		subs	r2, r1, r2
 411              	.LVL40:
ARM GAS  /tmp/ccme7qfW.s 			page 14


 412              		.loc 1 187 19 view .LVU138
 413 001a 0C92     		str	r2, [sp, #48]
 188:Drivers/lvgl/src/draw/sw/lv_draw_sw_line.c ****     blend_area.x2 = (int32_t)dsc->p1.x + w_half0;
 414              		.loc 1 188 5 is_stmt 1 view .LVU139
 415              		.loc 1 188 40 is_stmt 0 view .LVU140
 416 001c 01EB6301 		add	r1, r1, r3, asr #1
 417              		.loc 1 188 19 view .LVU141
 418 0020 0E91     		str	r1, [sp, #56]
 189:Drivers/lvgl/src/draw/sw/lv_draw_sw_line.c ****     blend_area.y1 = (int32_t)LV_MIN(dsc->p1.y, dsc->p2.y);
 419              		.loc 1 189 5 is_stmt 1 view .LVU142
 420              		.loc 1 189 30 is_stmt 0 view .LVU143
 421 0022 A36A     		ldr	r3, [r4, #40]
 422              	.LVL41:
 423              		.loc 1 189 30 view .LVU144
 424 0024 226A     		ldr	r2, [r4, #32]
 425              		.loc 1 189 21 view .LVU145
 426 0026 1946     		mov	r1, r3
 427 0028 9342     		cmp	r3, r2
 428 002a A8BF     		it	ge
 429 002c 1146     		movge	r1, r2
 430              		.loc 1 189 19 view .LVU146
 431 002e 0D91     		str	r1, [sp, #52]
 190:Drivers/lvgl/src/draw/sw/lv_draw_sw_line.c ****     blend_area.y2 = (int32_t)LV_MAX(dsc->p1.y, dsc->p2.y) - 1;
 432              		.loc 1 190 5 is_stmt 1 view .LVU147
 433              		.loc 1 190 21 is_stmt 0 view .LVU148
 434 0030 9342     		cmp	r3, r2
 435 0032 B8BF     		it	lt
 436 0034 1346     		movlt	r3, r2
 437              		.loc 1 190 59 view .LVU149
 438 0036 013B     		subs	r3, r3, #1
 439              		.loc 1 190 19 view .LVU150
 440 0038 0F93     		str	r3, [sp, #60]
 191:Drivers/lvgl/src/draw/sw/lv_draw_sw_line.c **** 
 192:Drivers/lvgl/src/draw/sw/lv_draw_sw_line.c ****     bool is_common;
 441              		.loc 1 192 5 is_stmt 1 view .LVU151
 193:Drivers/lvgl/src/draw/sw/lv_draw_sw_line.c ****     is_common = lv_area_intersect(&blend_area, &blend_area, &t->clip_area);
 442              		.loc 1 193 5 view .LVU152
 443              		.loc 1 193 17 is_stmt 0 view .LVU153
 444 003a 0CA8     		add	r0, sp, #48
 445              	.LVL42:
 446              		.loc 1 193 17 view .LVU154
 447 003c 07F13802 		add	r2, r7, #56
 448 0040 0146     		mov	r1, r0
 449 0042 FFF7FEFF 		bl	lv_area_intersect
 450              	.LVL43:
 194:Drivers/lvgl/src/draw/sw/lv_draw_sw_line.c ****     if(!is_common) return;
 451              		.loc 1 194 5 is_stmt 1 view .LVU155
 452              		.loc 1 194 7 is_stmt 0 view .LVU156
 453 0046 E8B1     		cbz	r0, .L19
 195:Drivers/lvgl/src/draw/sw/lv_draw_sw_line.c **** 
 196:Drivers/lvgl/src/draw/sw/lv_draw_sw_line.c ****     bool dashed = dsc->dash_gap && dsc->dash_width;
 454              		.loc 1 196 5 is_stmt 1 view .LVU157
 455              		.loc 1 196 22 is_stmt 0 view .LVU158
 456 0048 A36B     		ldr	r3, [r4, #56]
 457              		.loc 1 196 33 view .LVU159
 458 004a 1BB1     		cbz	r3, .L30
 459              		.loc 1 196 39 discriminator 1 view .LVU160
ARM GAS  /tmp/ccme7qfW.s 			page 15


 460 004c 636B     		ldr	r3, [r4, #52]
 461              		.loc 1 196 33 discriminator 1 view .LVU161
 462 004e E3B9     		cbnz	r3, .L31
 463              		.loc 1 196 33 discriminator 4 view .LVU162
 464 0050 0025     		movs	r5, #0
 465 0052 00E0     		b	.L22
 466              	.L30:
 467 0054 0025     		movs	r5, #0
 468              	.L22:
 469              	.LVL44:
 197:Drivers/lvgl/src/draw/sw/lv_draw_sw_line.c **** 
 198:Drivers/lvgl/src/draw/sw/lv_draw_sw_line.c ****     lv_draw_sw_blend_dsc_t blend_dsc;
 470              		.loc 1 198 5 is_stmt 1 view .LVU163
 199:Drivers/lvgl/src/draw/sw/lv_draw_sw_line.c ****     lv_memzero(&blend_dsc, sizeof(blend_dsc));
 471              		.loc 1 199 5 view .LVU164
 472              	.LBB20:
 473              	.LBI20:
  73:Drivers/lvgl/src/draw/sw/../../misc/../stdlib/lv_string.h **** {
 474              		.loc 2 73 20 view .LVU165
 475              	.LBB21:
 476              		.loc 2 75 5 view .LVU166
 477 0056 2C22     		movs	r2, #44
 478 0058 0021     		movs	r1, #0
 479 005a 01A8     		add	r0, sp, #4
 480              	.LVL45:
 481              		.loc 2 75 5 is_stmt 0 view .LVU167
 482 005c FFF7FEFF 		bl	lv_memset
 483              	.LVL46:
 484              		.loc 2 75 5 view .LVU168
 485              	.LBE21:
 486              	.LBE20:
 200:Drivers/lvgl/src/draw/sw/lv_draw_sw_line.c ****     blend_dsc.blend_area = &blend_area;
 487              		.loc 1 200 5 is_stmt 1 view .LVU169
 488              		.loc 1 200 26 is_stmt 0 view .LVU170
 489 0060 0CAB     		add	r3, sp, #48
 490 0062 0193     		str	r3, [sp, #4]
 201:Drivers/lvgl/src/draw/sw/lv_draw_sw_line.c ****     blend_dsc.color = dsc->color;
 491              		.loc 1 201 5 is_stmt 1 view .LVU171
 492              		.loc 1 201 21 is_stmt 0 view .LVU172
 493 0064 A28D     		ldrh	r2, [r4, #44]	@ unaligned
 494 0066 94F82E30 		ldrb	r3, [r4, #46]	@ zero_extendqisi2
 495 006a ADF81920 		strh	r2, [sp, #25]	@ unaligned
 496 006e 8DF81B30 		strb	r3, [sp, #27]
 202:Drivers/lvgl/src/draw/sw/lv_draw_sw_line.c ****     blend_dsc.opa = dsc->opa;
 497              		.loc 1 202 5 is_stmt 1 view .LVU173
 498              		.loc 1 202 24 is_stmt 0 view .LVU174
 499 0072 94F83C30 		ldrb	r3, [r4, #60]	@ zero_extendqisi2
 500              		.loc 1 202 19 view .LVU175
 501 0076 8DF81830 		strb	r3, [sp, #24]
 203:Drivers/lvgl/src/draw/sw/lv_draw_sw_line.c **** 
 204:Drivers/lvgl/src/draw/sw/lv_draw_sw_line.c ****     /*If there is no mask then simply draw a rectangle*/
 205:Drivers/lvgl/src/draw/sw/lv_draw_sw_line.c ****     if(!dashed) {
 502              		.loc 1 205 5 is_stmt 1 view .LVU176
 503              		.loc 1 205 7 is_stmt 0 view .LVU177
 504 007a 45B9     		cbnz	r5, .L23
 206:Drivers/lvgl/src/draw/sw/lv_draw_sw_line.c ****         lv_draw_sw_blend(t, &blend_dsc);
 505              		.loc 1 206 9 is_stmt 1 view .LVU178
ARM GAS  /tmp/ccme7qfW.s 			page 16


 506 007c 01A9     		add	r1, sp, #4
 507 007e 3846     		mov	r0, r7
 508 0080 FFF7FEFF 		bl	lv_draw_sw_blend
 509              	.LVL47:
 510              	.L19:
 207:Drivers/lvgl/src/draw/sw/lv_draw_sw_line.c ****     }
 208:Drivers/lvgl/src/draw/sw/lv_draw_sw_line.c **** 
 209:Drivers/lvgl/src/draw/sw/lv_draw_sw_line.c **** #if LV_DRAW_SW_COMPLEX
 210:Drivers/lvgl/src/draw/sw/lv_draw_sw_line.c ****     /*If there other mask apply it*/
 211:Drivers/lvgl/src/draw/sw/lv_draw_sw_line.c ****     else {
 212:Drivers/lvgl/src/draw/sw/lv_draw_sw_line.c ****         int32_t draw_area_w = lv_area_get_width(&blend_area);
 213:Drivers/lvgl/src/draw/sw/lv_draw_sw_line.c **** 
 214:Drivers/lvgl/src/draw/sw/lv_draw_sw_line.c ****         int32_t y2 = blend_area.y2;
 215:Drivers/lvgl/src/draw/sw/lv_draw_sw_line.c ****         blend_area.y2 = blend_area.y1;
 216:Drivers/lvgl/src/draw/sw/lv_draw_sw_line.c **** 
 217:Drivers/lvgl/src/draw/sw/lv_draw_sw_line.c ****         lv_opa_t * mask_buf = lv_malloc(draw_area_w);
 218:Drivers/lvgl/src/draw/sw/lv_draw_sw_line.c ****         blend_dsc.mask_buf = mask_buf;
 219:Drivers/lvgl/src/draw/sw/lv_draw_sw_line.c ****         blend_dsc.mask_area = &blend_area;
 220:Drivers/lvgl/src/draw/sw/lv_draw_sw_line.c ****         blend_dsc.mask_res = LV_DRAW_SW_MASK_RES_CHANGED;
 221:Drivers/lvgl/src/draw/sw/lv_draw_sw_line.c ****         int32_t dash_start = (blend_area.y1) % (dsc->dash_gap + dsc->dash_width);
 222:Drivers/lvgl/src/draw/sw/lv_draw_sw_line.c **** 
 223:Drivers/lvgl/src/draw/sw/lv_draw_sw_line.c ****         int32_t dash_cnt = dash_start;
 224:Drivers/lvgl/src/draw/sw/lv_draw_sw_line.c **** 
 225:Drivers/lvgl/src/draw/sw/lv_draw_sw_line.c ****         int32_t h;
 226:Drivers/lvgl/src/draw/sw/lv_draw_sw_line.c ****         for(h = blend_area.y1; h <= y2; h++) {
 227:Drivers/lvgl/src/draw/sw/lv_draw_sw_line.c ****             lv_memset(mask_buf, 0xff, draw_area_w);
 228:Drivers/lvgl/src/draw/sw/lv_draw_sw_line.c **** 
 229:Drivers/lvgl/src/draw/sw/lv_draw_sw_line.c ****             if(dash_cnt > dsc->dash_width) {
 230:Drivers/lvgl/src/draw/sw/lv_draw_sw_line.c ****                 blend_dsc.mask_res = LV_DRAW_SW_MASK_RES_TRANSP;
 231:Drivers/lvgl/src/draw/sw/lv_draw_sw_line.c ****             }
 232:Drivers/lvgl/src/draw/sw/lv_draw_sw_line.c ****             else {
 233:Drivers/lvgl/src/draw/sw/lv_draw_sw_line.c ****                 blend_dsc.mask_res = LV_DRAW_SW_MASK_RES_FULL_COVER;
 234:Drivers/lvgl/src/draw/sw/lv_draw_sw_line.c ****             }
 235:Drivers/lvgl/src/draw/sw/lv_draw_sw_line.c **** 
 236:Drivers/lvgl/src/draw/sw/lv_draw_sw_line.c ****             if(dash_cnt >= dsc->dash_gap + dsc->dash_width) {
 237:Drivers/lvgl/src/draw/sw/lv_draw_sw_line.c ****                 dash_cnt = 0;
 238:Drivers/lvgl/src/draw/sw/lv_draw_sw_line.c ****             }
 239:Drivers/lvgl/src/draw/sw/lv_draw_sw_line.c ****             dash_cnt ++;
 240:Drivers/lvgl/src/draw/sw/lv_draw_sw_line.c **** 
 241:Drivers/lvgl/src/draw/sw/lv_draw_sw_line.c ****             lv_draw_sw_blend(t, &blend_dsc);
 242:Drivers/lvgl/src/draw/sw/lv_draw_sw_line.c **** 
 243:Drivers/lvgl/src/draw/sw/lv_draw_sw_line.c ****             blend_area.y1++;
 244:Drivers/lvgl/src/draw/sw/lv_draw_sw_line.c ****             blend_area.y2++;
 245:Drivers/lvgl/src/draw/sw/lv_draw_sw_line.c ****         }
 246:Drivers/lvgl/src/draw/sw/lv_draw_sw_line.c ****         lv_free(mask_buf);
 247:Drivers/lvgl/src/draw/sw/lv_draw_sw_line.c ****     }
 248:Drivers/lvgl/src/draw/sw/lv_draw_sw_line.c **** #endif /*LV_DRAW_SW_COMPLEX*/
 249:Drivers/lvgl/src/draw/sw/lv_draw_sw_line.c **** }
 511              		.loc 1 249 1 is_stmt 0 view .LVU179
 512 0084 10B0     		add	sp, sp, #64
 513              	.LCFI6:
 514              		.cfi_remember_state
 515              		.cfi_def_cfa_offset 32
 516              		@ sp needed
 517 0086 BDE8F087 		pop	{r4, r5, r6, r7, r8, r9, r10, pc}
 518              	.LVL48:
 519              	.L31:
ARM GAS  /tmp/ccme7qfW.s 			page 17


 520              	.LCFI7:
 521              		.cfi_restore_state
 196:Drivers/lvgl/src/draw/sw/lv_draw_sw_line.c **** 
 522              		.loc 1 196 33 discriminator 3 view .LVU180
 523 008a 0125     		movs	r5, #1
 524 008c E3E7     		b	.L22
 525              	.LVL49:
 526              	.L23:
 527              	.LBB22:
 212:Drivers/lvgl/src/draw/sw/lv_draw_sw_line.c **** 
 528              		.loc 1 212 9 is_stmt 1 view .LVU181
 212:Drivers/lvgl/src/draw/sw/lv_draw_sw_line.c **** 
 529              		.loc 1 212 31 is_stmt 0 view .LVU182
 530 008e 0CAD     		add	r5, sp, #48
 531              	.LVL50:
 212:Drivers/lvgl/src/draw/sw/lv_draw_sw_line.c **** 
 532              		.loc 1 212 31 view .LVU183
 533 0090 2846     		mov	r0, r5
 534 0092 FFF7FEFF 		bl	lv_area_get_width
 535              	.LVL51:
 536 0096 8146     		mov	r9, r0
 537              	.LVL52:
 214:Drivers/lvgl/src/draw/sw/lv_draw_sw_line.c ****         blend_area.y2 = blend_area.y1;
 538              		.loc 1 214 9 is_stmt 1 view .LVU184
 214:Drivers/lvgl/src/draw/sw/lv_draw_sw_line.c ****         blend_area.y2 = blend_area.y1;
 539              		.loc 1 214 17 is_stmt 0 view .LVU185
 540 0098 DDF83CA0 		ldr	r10, [sp, #60]
 541              	.LVL53:
 215:Drivers/lvgl/src/draw/sw/lv_draw_sw_line.c **** 
 542              		.loc 1 215 9 is_stmt 1 view .LVU186
 215:Drivers/lvgl/src/draw/sw/lv_draw_sw_line.c **** 
 543              		.loc 1 215 35 is_stmt 0 view .LVU187
 544 009c 0D9B     		ldr	r3, [sp, #52]
 215:Drivers/lvgl/src/draw/sw/lv_draw_sw_line.c **** 
 545              		.loc 1 215 23 view .LVU188
 546 009e 0F93     		str	r3, [sp, #60]
 217:Drivers/lvgl/src/draw/sw/lv_draw_sw_line.c ****         blend_dsc.mask_buf = mask_buf;
 547              		.loc 1 217 9 is_stmt 1 view .LVU189
 217:Drivers/lvgl/src/draw/sw/lv_draw_sw_line.c ****         blend_dsc.mask_buf = mask_buf;
 548              		.loc 1 217 31 is_stmt 0 view .LVU190
 549 00a0 FFF7FEFF 		bl	lv_malloc
 550              	.LVL54:
 217:Drivers/lvgl/src/draw/sw/lv_draw_sw_line.c ****         blend_dsc.mask_buf = mask_buf;
 551              		.loc 1 217 31 view .LVU191
 552 00a4 8046     		mov	r8, r0
 553              	.LVL55:
 218:Drivers/lvgl/src/draw/sw/lv_draw_sw_line.c ****         blend_dsc.mask_area = &blend_area;
 554              		.loc 1 218 9 is_stmt 1 view .LVU192
 218:Drivers/lvgl/src/draw/sw/lv_draw_sw_line.c ****         blend_dsc.mask_area = &blend_area;
 555              		.loc 1 218 28 is_stmt 0 view .LVU193
 556 00a6 0790     		str	r0, [sp, #28]
 219:Drivers/lvgl/src/draw/sw/lv_draw_sw_line.c ****         blend_dsc.mask_res = LV_DRAW_SW_MASK_RES_CHANGED;
 557              		.loc 1 219 9 is_stmt 1 view .LVU194
 219:Drivers/lvgl/src/draw/sw/lv_draw_sw_line.c ****         blend_dsc.mask_res = LV_DRAW_SW_MASK_RES_CHANGED;
 558              		.loc 1 219 29 is_stmt 0 view .LVU195
 559 00a8 0995     		str	r5, [sp, #36]
 220:Drivers/lvgl/src/draw/sw/lv_draw_sw_line.c ****         int32_t dash_start = (blend_area.y1) % (dsc->dash_gap + dsc->dash_width);
ARM GAS  /tmp/ccme7qfW.s 			page 18


 560              		.loc 1 220 9 is_stmt 1 view .LVU196
 220:Drivers/lvgl/src/draw/sw/lv_draw_sw_line.c ****         int32_t dash_start = (blend_area.y1) % (dsc->dash_gap + dsc->dash_width);
 561              		.loc 1 220 28 is_stmt 0 view .LVU197
 562 00aa 0223     		movs	r3, #2
 563 00ac 8DF82030 		strb	r3, [sp, #32]
 221:Drivers/lvgl/src/draw/sw/lv_draw_sw_line.c **** 
 564              		.loc 1 221 9 is_stmt 1 view .LVU198
 221:Drivers/lvgl/src/draw/sw/lv_draw_sw_line.c **** 
 565              		.loc 1 221 41 is_stmt 0 view .LVU199
 566 00b0 0D9E     		ldr	r6, [sp, #52]
 221:Drivers/lvgl/src/draw/sw/lv_draw_sw_line.c **** 
 567              		.loc 1 221 52 view .LVU200
 568 00b2 A36B     		ldr	r3, [r4, #56]
 221:Drivers/lvgl/src/draw/sw/lv_draw_sw_line.c **** 
 569              		.loc 1 221 68 view .LVU201
 570 00b4 626B     		ldr	r2, [r4, #52]
 221:Drivers/lvgl/src/draw/sw/lv_draw_sw_line.c **** 
 571              		.loc 1 221 63 view .LVU202
 572 00b6 1344     		add	r3, r3, r2
 221:Drivers/lvgl/src/draw/sw/lv_draw_sw_line.c **** 
 573              		.loc 1 221 17 view .LVU203
 574 00b8 96FBF3F5 		sdiv	r5, r6, r3
 575 00bc 03FB1565 		mls	r5, r3, r5, r6
 576              	.LVL56:
 223:Drivers/lvgl/src/draw/sw/lv_draw_sw_line.c **** 
 577              		.loc 1 223 9 is_stmt 1 view .LVU204
 225:Drivers/lvgl/src/draw/sw/lv_draw_sw_line.c ****         for(h = blend_area.y1; h <= y2; h++) {
 578              		.loc 1 225 9 view .LVU205
 226:Drivers/lvgl/src/draw/sw/lv_draw_sw_line.c ****             lv_memset(mask_buf, 0xff, draw_area_w);
 579              		.loc 1 226 9 view .LVU206
 226:Drivers/lvgl/src/draw/sw/lv_draw_sw_line.c ****             lv_memset(mask_buf, 0xff, draw_area_w);
 580              		.loc 1 226 9 is_stmt 0 view .LVU207
 581 00c0 0FE0     		b	.L25
 582              	.LVL57:
 583              	.L26:
 233:Drivers/lvgl/src/draw/sw/lv_draw_sw_line.c ****             }
 584              		.loc 1 233 17 is_stmt 1 view .LVU208
 233:Drivers/lvgl/src/draw/sw/lv_draw_sw_line.c ****             }
 585              		.loc 1 233 36 is_stmt 0 view .LVU209
 586 00c2 0122     		movs	r2, #1
 587 00c4 8DF82020 		strb	r2, [sp, #32]
 588 00c8 18E0     		b	.L27
 589              	.LVL58:
 590              	.L28:
 239:Drivers/lvgl/src/draw/sw/lv_draw_sw_line.c **** 
 591              		.loc 1 239 13 is_stmt 1 view .LVU210
 239:Drivers/lvgl/src/draw/sw/lv_draw_sw_line.c **** 
 592              		.loc 1 239 22 is_stmt 0 view .LVU211
 593 00ca 0135     		adds	r5, r5, #1
 594              	.LVL59:
 241:Drivers/lvgl/src/draw/sw/lv_draw_sw_line.c **** 
 595              		.loc 1 241 13 is_stmt 1 view .LVU212
 596 00cc 01A9     		add	r1, sp, #4
 597 00ce 3846     		mov	r0, r7
 598 00d0 FFF7FEFF 		bl	lv_draw_sw_blend
 599              	.LVL60:
 243:Drivers/lvgl/src/draw/sw/lv_draw_sw_line.c ****             blend_area.y2++;
ARM GAS  /tmp/ccme7qfW.s 			page 19


 600              		.loc 1 243 13 view .LVU213
 243:Drivers/lvgl/src/draw/sw/lv_draw_sw_line.c ****             blend_area.y2++;
 601              		.loc 1 243 23 is_stmt 0 view .LVU214
 602 00d4 0D9B     		ldr	r3, [sp, #52]
 243:Drivers/lvgl/src/draw/sw/lv_draw_sw_line.c ****             blend_area.y2++;
 603              		.loc 1 243 26 view .LVU215
 604 00d6 0133     		adds	r3, r3, #1
 605 00d8 0D93     		str	r3, [sp, #52]
 244:Drivers/lvgl/src/draw/sw/lv_draw_sw_line.c ****         }
 606              		.loc 1 244 13 is_stmt 1 view .LVU216
 244:Drivers/lvgl/src/draw/sw/lv_draw_sw_line.c ****         }
 607              		.loc 1 244 23 is_stmt 0 view .LVU217
 608 00da 0F9B     		ldr	r3, [sp, #60]
 244:Drivers/lvgl/src/draw/sw/lv_draw_sw_line.c ****         }
 609              		.loc 1 244 26 view .LVU218
 610 00dc 0133     		adds	r3, r3, #1
 611 00de 0F93     		str	r3, [sp, #60]
 226:Drivers/lvgl/src/draw/sw/lv_draw_sw_line.c ****             lv_memset(mask_buf, 0xff, draw_area_w);
 612              		.loc 1 226 42 is_stmt 1 discriminator 2 view .LVU219
 613 00e0 0136     		adds	r6, r6, #1
 614              	.LVL61:
 615              	.L25:
 226:Drivers/lvgl/src/draw/sw/lv_draw_sw_line.c ****             lv_memset(mask_buf, 0xff, draw_area_w);
 616              		.loc 1 226 34 discriminator 1 view .LVU220
 617 00e2 5645     		cmp	r6, r10
 618 00e4 10DC     		bgt	.L34
 227:Drivers/lvgl/src/draw/sw/lv_draw_sw_line.c **** 
 619              		.loc 1 227 13 view .LVU221
 620 00e6 4A46     		mov	r2, r9
 621 00e8 FF21     		movs	r1, #255
 622 00ea 4046     		mov	r0, r8
 623 00ec FFF7FEFF 		bl	lv_memset
 624              	.LVL62:
 229:Drivers/lvgl/src/draw/sw/lv_draw_sw_line.c ****                 blend_dsc.mask_res = LV_DRAW_SW_MASK_RES_TRANSP;
 625              		.loc 1 229 13 view .LVU222
 229:Drivers/lvgl/src/draw/sw/lv_draw_sw_line.c ****                 blend_dsc.mask_res = LV_DRAW_SW_MASK_RES_TRANSP;
 626              		.loc 1 229 30 is_stmt 0 view .LVU223
 627 00f0 636B     		ldr	r3, [r4, #52]
 229:Drivers/lvgl/src/draw/sw/lv_draw_sw_line.c ****                 blend_dsc.mask_res = LV_DRAW_SW_MASK_RES_TRANSP;
 628              		.loc 1 229 15 view .LVU224
 629 00f2 AB42     		cmp	r3, r5
 630 00f4 E5DA     		bge	.L26
 230:Drivers/lvgl/src/draw/sw/lv_draw_sw_line.c ****             }
 631              		.loc 1 230 17 is_stmt 1 view .LVU225
 230:Drivers/lvgl/src/draw/sw/lv_draw_sw_line.c ****             }
 632              		.loc 1 230 36 is_stmt 0 view .LVU226
 633 00f6 0022     		movs	r2, #0
 634 00f8 8DF82020 		strb	r2, [sp, #32]
 635              	.L27:
 236:Drivers/lvgl/src/draw/sw/lv_draw_sw_line.c ****                 dash_cnt = 0;
 636              		.loc 1 236 13 is_stmt 1 view .LVU227
 236:Drivers/lvgl/src/draw/sw/lv_draw_sw_line.c ****                 dash_cnt = 0;
 637              		.loc 1 236 31 is_stmt 0 view .LVU228
 638 00fc A26B     		ldr	r2, [r4, #56]
 236:Drivers/lvgl/src/draw/sw/lv_draw_sw_line.c ****                 dash_cnt = 0;
 639              		.loc 1 236 42 view .LVU229
 640 00fe 1344     		add	r3, r3, r2
ARM GAS  /tmp/ccme7qfW.s 			page 20


 236:Drivers/lvgl/src/draw/sw/lv_draw_sw_line.c ****                 dash_cnt = 0;
 641              		.loc 1 236 15 view .LVU230
 642 0100 AB42     		cmp	r3, r5
 643 0102 E2DC     		bgt	.L28
 237:Drivers/lvgl/src/draw/sw/lv_draw_sw_line.c ****             }
 644              		.loc 1 237 26 view .LVU231
 645 0104 0025     		movs	r5, #0
 646              	.LVL63:
 237:Drivers/lvgl/src/draw/sw/lv_draw_sw_line.c ****             }
 647              		.loc 1 237 26 view .LVU232
 648 0106 E0E7     		b	.L28
 649              	.LVL64:
 650              	.L34:
 246:Drivers/lvgl/src/draw/sw/lv_draw_sw_line.c ****     }
 651              		.loc 1 246 9 is_stmt 1 view .LVU233
 652 0108 4046     		mov	r0, r8
 653 010a FFF7FEFF 		bl	lv_free
 654              	.LVL65:
 655 010e B9E7     		b	.L19
 656              	.LBE22:
 657              		.cfi_endproc
 658              	.LFE188:
 660              		.section	.text.draw_line_skew,"ax",%progbits
 661              		.align	1
 662              		.syntax unified
 663              		.thumb
 664              		.thumb_func
 666              	draw_line_skew:
 667              	.LVL66:
 668              	.LFB189:
 250:Drivers/lvgl/src/draw/sw/lv_draw_sw_line.c **** 
 251:Drivers/lvgl/src/draw/sw/lv_draw_sw_line.c **** static void LV_ATTRIBUTE_FAST_MEM draw_line_skew(lv_draw_task_t * t, const lv_draw_line_dsc_t * dsc
 252:Drivers/lvgl/src/draw/sw/lv_draw_sw_line.c **** {
 669              		.loc 1 252 1 view -0
 670              		.cfi_startproc
 671              		@ args = 0, pretend = 0, frame = 344
 672              		@ frame_needed = 0, uses_anonymous_args = 0
 673              		.loc 1 252 1 is_stmt 0 view .LVU235
 674 0000 2DE9F04F 		push	{r4, r5, r6, r7, r8, r9, r10, fp, lr}
 675              	.LCFI8:
 676              		.cfi_def_cfa_offset 36
 677              		.cfi_offset 4, -36
 678              		.cfi_offset 5, -32
 679              		.cfi_offset 6, -28
 680              		.cfi_offset 7, -24
 681              		.cfi_offset 8, -20
 682              		.cfi_offset 9, -16
 683              		.cfi_offset 10, -12
 684              		.cfi_offset 11, -8
 685              		.cfi_offset 14, -4
 686 0004 D9B0     		sub	sp, sp, #356
 687              	.LCFI9:
 688              		.cfi_def_cfa_offset 392
 689 0006 0290     		str	r0, [sp, #8]
 690 0008 8946     		mov	r9, r1
 253:Drivers/lvgl/src/draw/sw/lv_draw_sw_line.c **** #if LV_DRAW_SW_COMPLEX
 254:Drivers/lvgl/src/draw/sw/lv_draw_sw_line.c ****     /*Keep the great y in p1*/
ARM GAS  /tmp/ccme7qfW.s 			page 21


 255:Drivers/lvgl/src/draw/sw/lv_draw_sw_line.c ****     lv_point_t p1;
 691              		.loc 1 255 5 is_stmt 1 view .LVU236
 256:Drivers/lvgl/src/draw/sw/lv_draw_sw_line.c ****     lv_point_t p2;
 692              		.loc 1 256 5 view .LVU237
 257:Drivers/lvgl/src/draw/sw/lv_draw_sw_line.c ****     if(dsc->p1.y < dsc->p2.y) {
 693              		.loc 1 257 5 view .LVU238
 694              		.loc 1 257 15 is_stmt 0 view .LVU239
 695 000a 0A6A     		ldr	r2, [r1, #32]
 696              		.loc 1 257 27 view .LVU240
 697 000c 8B6A     		ldr	r3, [r1, #40]
 698              		.loc 1 257 7 view .LVU241
 699 000e 9A42     		cmp	r2, r3
 700 0010 80F2B280 		bge	.L36
 258:Drivers/lvgl/src/draw/sw/lv_draw_sw_line.c ****         p1 = lv_point_from_precise(&dsc->p1);
 701              		.loc 1 258 9 is_stmt 1 view .LVU242
 702              		.loc 1 258 14 is_stmt 0 view .LVU243
 703 0014 1C31     		adds	r1, r1, #28
 704              	.LVL67:
 705              		.loc 1 258 14 view .LVU244
 706 0016 56A8     		add	r0, sp, #344
 707              	.LVL68:
 708              		.loc 1 258 14 view .LVU245
 709 0018 FFF7FEFF 		bl	lv_point_from_precise
 710              	.LVL69:
 259:Drivers/lvgl/src/draw/sw/lv_draw_sw_line.c ****         p2 = lv_point_from_precise(&dsc->p2);
 711              		.loc 1 259 9 is_stmt 1 view .LVU246
 712              		.loc 1 259 14 is_stmt 0 view .LVU247
 713 001c 09F12401 		add	r1, r9, #36
 714 0020 54A8     		add	r0, sp, #336
 715 0022 FFF7FEFF 		bl	lv_point_from_precise
 716              	.LVL70:
 717              	.L37:
 260:Drivers/lvgl/src/draw/sw/lv_draw_sw_line.c ****     }
 261:Drivers/lvgl/src/draw/sw/lv_draw_sw_line.c ****     else {
 262:Drivers/lvgl/src/draw/sw/lv_draw_sw_line.c ****         p1 = lv_point_from_precise(&dsc->p2);
 263:Drivers/lvgl/src/draw/sw/lv_draw_sw_line.c ****         p2 = lv_point_from_precise(&dsc->p1);
 264:Drivers/lvgl/src/draw/sw/lv_draw_sw_line.c ****     }
 265:Drivers/lvgl/src/draw/sw/lv_draw_sw_line.c **** 
 266:Drivers/lvgl/src/draw/sw/lv_draw_sw_line.c ****     int32_t xdiff = p2.x - p1.x;
 718              		.loc 1 266 5 is_stmt 1 view .LVU248
 719              		.loc 1 266 23 is_stmt 0 view .LVU249
 720 0026 549C     		ldr	r4, [sp, #336]
 721              		.loc 1 266 30 view .LVU250
 722 0028 569E     		ldr	r6, [sp, #344]
 723              		.loc 1 266 13 view .LVU251
 724 002a A31B     		subs	r3, r4, r6
 725 002c 0393     		str	r3, [sp, #12]
 726              	.LVL71:
 267:Drivers/lvgl/src/draw/sw/lv_draw_sw_line.c ****     int32_t ydiff = p2.y - p1.y;
 727              		.loc 1 267 5 is_stmt 1 view .LVU252
 728              		.loc 1 267 23 is_stmt 0 view .LVU253
 729 002e 559D     		ldr	r5, [sp, #340]
 730              		.loc 1 267 30 view .LVU254
 731 0030 579F     		ldr	r7, [sp, #348]
 732              		.loc 1 267 13 view .LVU255
 733 0032 EA1B     		subs	r2, r5, r7
 734 0034 0592     		str	r2, [sp, #20]
ARM GAS  /tmp/ccme7qfW.s 			page 22


 735              	.LVL72:
 268:Drivers/lvgl/src/draw/sw/lv_draw_sw_line.c ****     bool flat = LV_ABS(xdiff) > LV_ABS(ydiff);
 736              		.loc 1 268 5 is_stmt 1 view .LVU256
 737              		.loc 1 268 17 is_stmt 0 view .LVU257
 738 0036 83EAE37B 		eor	fp, r3, r3, asr #31
 739 003a ABEBE37B 		sub	fp, fp, r3, asr #31
 740              		.loc 1 268 33 view .LVU258
 741 003e 82EAE27A 		eor	r10, r2, r2, asr #31
 742 0042 AAEBE27A 		sub	r10, r10, r2, asr #31
 743              	.LVL73:
 269:Drivers/lvgl/src/draw/sw/lv_draw_sw_line.c **** 
 270:Drivers/lvgl/src/draw/sw/lv_draw_sw_line.c ****     static const uint8_t wcorr[] = {
 744              		.loc 1 270 5 is_stmt 1 view .LVU259
 271:Drivers/lvgl/src/draw/sw/lv_draw_sw_line.c ****         128, 128, 128, 129, 129, 130, 130, 131,
 272:Drivers/lvgl/src/draw/sw/lv_draw_sw_line.c ****         132, 133, 134, 135, 137, 138, 140, 141,
 273:Drivers/lvgl/src/draw/sw/lv_draw_sw_line.c ****         143, 145, 147, 149, 151, 153, 155, 158,
 274:Drivers/lvgl/src/draw/sw/lv_draw_sw_line.c ****         160, 162, 165, 167, 170, 173, 175, 178,
 275:Drivers/lvgl/src/draw/sw/lv_draw_sw_line.c ****         181,
 276:Drivers/lvgl/src/draw/sw/lv_draw_sw_line.c ****     };
 277:Drivers/lvgl/src/draw/sw/lv_draw_sw_line.c **** 
 278:Drivers/lvgl/src/draw/sw/lv_draw_sw_line.c ****     int32_t w = dsc->width;
 745              		.loc 1 278 5 view .LVU260
 746              		.loc 1 278 13 is_stmt 0 view .LVU261
 747 0046 D9F83020 		ldr	r2, [r9, #48]
 748              	.LVL74:
 279:Drivers/lvgl/src/draw/sw/lv_draw_sw_line.c ****     int32_t wcorr_i = 0;
 749              		.loc 1 279 5 is_stmt 1 view .LVU262
 280:Drivers/lvgl/src/draw/sw/lv_draw_sw_line.c ****     if(flat) wcorr_i = (LV_ABS(ydiff) << 5) / LV_ABS(xdiff);
 750              		.loc 1 280 5 view .LVU263
 751              		.loc 1 280 7 is_stmt 0 view .LVU264
 752 004a D345     		cmp	fp, r10
 753 004c 40F3A980 		ble	.L38
 754              		.loc 1 280 14 is_stmt 1 discriminator 1 view .LVU265
 755              		.loc 1 280 39 is_stmt 0 discriminator 1 view .LVU266
 756 0050 4FEA4A13 		lsl	r3, r10, #5
 757              	.LVL75:
 758              		.loc 1 280 22 discriminator 1 view .LVU267
 759 0054 93FBFBF3 		sdiv	r3, r3, fp
 760              	.LVL76:
 761              	.L39:
 281:Drivers/lvgl/src/draw/sw/lv_draw_sw_line.c ****     else wcorr_i = (LV_ABS(xdiff) << 5) / LV_ABS(ydiff);
 282:Drivers/lvgl/src/draw/sw/lv_draw_sw_line.c **** 
 283:Drivers/lvgl/src/draw/sw/lv_draw_sw_line.c ****     w = (w * wcorr[wcorr_i] + 63) >> 7;     /*+ 63 for rounding*/
 762              		.loc 1 283 5 is_stmt 1 view .LVU268
 763              		.loc 1 283 19 is_stmt 0 view .LVU269
 764 0058 A749     		ldr	r1, .L61
 765 005a CB5C     		ldrb	r3, [r1, r3]	@ zero_extendqisi2
 766              	.LVL77:
 767              		.loc 1 283 12 view .LVU270
 768 005c 02FB03F3 		mul	r3, r2, r3
 769              		.loc 1 283 29 view .LVU271
 770 0060 3F33     		adds	r3, r3, #63
 771              	.LVL78:
 284:Drivers/lvgl/src/draw/sw/lv_draw_sw_line.c ****     int32_t w_half0 = w >> 1;
 772              		.loc 1 284 5 is_stmt 1 view .LVU272
 773              		.loc 1 284 13 is_stmt 0 view .LVU273
 774 0062 1A12     		asrs	r2, r3, #8
ARM GAS  /tmp/ccme7qfW.s 			page 23


 775 0064 0492     		str	r2, [sp, #16]
 776              	.LVL79:
 285:Drivers/lvgl/src/draw/sw/lv_draw_sw_line.c ****     int32_t w_half1 = w_half0 + (w & 0x1); /*Compensate rounding error*/
 777              		.loc 1 285 5 is_stmt 1 view .LVU274
 778              		.loc 1 285 36 is_stmt 0 view .LVU275
 779 0066 C3F3C018 		ubfx	r8, r3, #7, #1
 780              		.loc 1 285 13 view .LVU276
 781 006a 08EB2328 		add	r8, r8, r3, asr #8
 782              	.LVL80:
 286:Drivers/lvgl/src/draw/sw/lv_draw_sw_line.c **** 
 287:Drivers/lvgl/src/draw/sw/lv_draw_sw_line.c ****     lv_area_t blend_area;
 783              		.loc 1 287 5 is_stmt 1 view .LVU277
 288:Drivers/lvgl/src/draw/sw/lv_draw_sw_line.c ****     blend_area.x1 = LV_MIN(p1.x, p2.x) - w;
 784              		.loc 1 288 5 view .LVU278
 785              		.loc 1 288 21 is_stmt 0 view .LVU279
 786 006e 2146     		mov	r1, r4
 787 0070 B442     		cmp	r4, r6
 788 0072 A8BF     		it	ge
 789 0074 3146     		movge	r1, r6
 790              		.loc 1 288 40 view .LVU280
 791 0076 A1EBE312 		sub	r2, r1, r3, asr #7
 792              	.LVL81:
 793              		.loc 1 288 19 view .LVU281
 794 007a 5092     		str	r2, [sp, #320]
 289:Drivers/lvgl/src/draw/sw/lv_draw_sw_line.c ****     blend_area.x2 = LV_MAX(p1.x, p2.x) + w;
 795              		.loc 1 289 5 is_stmt 1 view .LVU282
 796              		.loc 1 289 21 is_stmt 0 view .LVU283
 797 007c 2146     		mov	r1, r4
 798 007e B442     		cmp	r4, r6
 799 0080 B8BF     		it	lt
 800 0082 3146     		movlt	r1, r6
 801              		.loc 1 289 40 view .LVU284
 802 0084 01EBE312 		add	r2, r1, r3, asr #7
 803              		.loc 1 289 19 view .LVU285
 804 0088 5292     		str	r2, [sp, #328]
 290:Drivers/lvgl/src/draw/sw/lv_draw_sw_line.c ****     blend_area.y1 = LV_MIN(p1.y, p2.y) - w;
 805              		.loc 1 290 5 is_stmt 1 view .LVU286
 806              		.loc 1 290 21 is_stmt 0 view .LVU287
 807 008a 2946     		mov	r1, r5
 808 008c BD42     		cmp	r5, r7
 809 008e A8BF     		it	ge
 810 0090 3946     		movge	r1, r7
 811              		.loc 1 290 40 view .LVU288
 812 0092 A1EBE312 		sub	r2, r1, r3, asr #7
 813              		.loc 1 290 19 view .LVU289
 814 0096 5192     		str	r2, [sp, #324]
 291:Drivers/lvgl/src/draw/sw/lv_draw_sw_line.c ****     blend_area.y2 = LV_MAX(p1.y, p2.y) + w;
 815              		.loc 1 291 5 is_stmt 1 view .LVU290
 816              		.loc 1 291 21 is_stmt 0 view .LVU291
 817 0098 2946     		mov	r1, r5
 818 009a BD42     		cmp	r5, r7
 819 009c B8BF     		it	lt
 820 009e 3946     		movlt	r1, r7
 821              		.loc 1 291 40 view .LVU292
 822 00a0 01EBE313 		add	r3, r1, r3, asr #7
 823              	.LVL82:
 824              		.loc 1 291 19 view .LVU293
ARM GAS  /tmp/ccme7qfW.s 			page 24


 825 00a4 5393     		str	r3, [sp, #332]
 292:Drivers/lvgl/src/draw/sw/lv_draw_sw_line.c **** 
 293:Drivers/lvgl/src/draw/sw/lv_draw_sw_line.c ****     /*Get the union of `coords` and `clip`*/
 294:Drivers/lvgl/src/draw/sw/lv_draw_sw_line.c ****     /*`clip` is already truncated to the `draw_buf` size
 295:Drivers/lvgl/src/draw/sw/lv_draw_sw_line.c ****      *in 'lv_refr_area' function*/
 296:Drivers/lvgl/src/draw/sw/lv_draw_sw_line.c ****     bool is_common = lv_area_intersect(&blend_area, &blend_area, &t->clip_area);
 826              		.loc 1 296 5 is_stmt 1 view .LVU294
 827              		.loc 1 296 22 is_stmt 0 view .LVU295
 828 00a6 50A8     		add	r0, sp, #320
 829 00a8 029B     		ldr	r3, [sp, #8]
 830 00aa 03F13802 		add	r2, r3, #56
 831 00ae 0146     		mov	r1, r0
 832 00b0 FFF7FEFF 		bl	lv_area_intersect
 833              	.LVL83:
 297:Drivers/lvgl/src/draw/sw/lv_draw_sw_line.c ****     if(is_common == false) return;
 834              		.loc 1 297 5 is_stmt 1 view .LVU296
 835              		.loc 1 297 7 is_stmt 0 view .LVU297
 836 00b4 0028     		cmp	r0, #0
 837 00b6 00F00B81 		beq	.L35
 298:Drivers/lvgl/src/draw/sw/lv_draw_sw_line.c **** 
 299:Drivers/lvgl/src/draw/sw/lv_draw_sw_line.c ****     lv_draw_sw_mask_line_param_t mask_left_param;
 838              		.loc 1 299 5 is_stmt 1 view .LVU298
 300:Drivers/lvgl/src/draw/sw/lv_draw_sw_line.c ****     lv_draw_sw_mask_line_param_t mask_right_param;
 839              		.loc 1 300 5 view .LVU299
 301:Drivers/lvgl/src/draw/sw/lv_draw_sw_line.c ****     lv_draw_sw_mask_line_param_t mask_top_param;
 840              		.loc 1 301 5 view .LVU300
 302:Drivers/lvgl/src/draw/sw/lv_draw_sw_line.c ****     lv_draw_sw_mask_line_param_t mask_bottom_param;
 841              		.loc 1 302 5 view .LVU301
 303:Drivers/lvgl/src/draw/sw/lv_draw_sw_line.c **** 
 304:Drivers/lvgl/src/draw/sw/lv_draw_sw_line.c ****     void * masks[5] = {&mask_left_param, & mask_right_param, NULL, NULL, NULL};
 842              		.loc 1 304 5 view .LVU302
 843              		.loc 1 304 12 is_stmt 0 view .LVU303
 844 00ba 42AA     		add	r2, sp, #264
 845 00bc 1392     		str	r2, [sp, #76]
 846 00be 34AA     		add	r2, sp, #208
 847 00c0 1492     		str	r2, [sp, #80]
 848 00c2 0022     		movs	r2, #0
 849 00c4 1592     		str	r2, [sp, #84]
 850 00c6 1692     		str	r2, [sp, #88]
 851 00c8 1792     		str	r2, [sp, #92]
 305:Drivers/lvgl/src/draw/sw/lv_draw_sw_line.c **** 
 306:Drivers/lvgl/src/draw/sw/lv_draw_sw_line.c ****     if(flat) {
 852              		.loc 1 306 5 is_stmt 1 view .LVU304
 853              		.loc 1 306 7 is_stmt 0 view .LVU305
 854 00ca D345     		cmp	fp, r10
 855 00cc 40F38680 		ble	.L42
 307:Drivers/lvgl/src/draw/sw/lv_draw_sw_line.c ****         if(xdiff > 0) {
 856              		.loc 1 307 9 is_stmt 1 view .LVU306
 857              		.loc 1 307 11 is_stmt 0 view .LVU307
 858 00d0 039B     		ldr	r3, [sp, #12]
 859 00d2 9342     		cmp	r3, r2
 860 00d4 6ADD     		ble	.L43
 308:Drivers/lvgl/src/draw/sw/lv_draw_sw_line.c ****             lv_draw_sw_mask_line_points_init(&mask_left_param, p1.x, p1.y - w_half0, p2.x, p2.y - w
 861              		.loc 1 308 13 is_stmt 1 view .LVU308
 862 00d6 0192     		str	r2, [sp, #4]
 863 00d8 049A     		ldr	r2, [sp, #16]
 864 00da AB1A     		subs	r3, r5, r2
ARM GAS  /tmp/ccme7qfW.s 			page 25


 865 00dc 0093     		str	r3, [sp]
 866 00de 2346     		mov	r3, r4
 867 00e0 BA1A     		subs	r2, r7, r2
 868 00e2 3146     		mov	r1, r6
 869 00e4 42A8     		add	r0, sp, #264
 870              	.LVL84:
 871              		.loc 1 308 13 is_stmt 0 view .LVU309
 872 00e6 FFF7FEFF 		bl	lv_draw_sw_mask_line_points_init
 873              	.LVL85:
 309:Drivers/lvgl/src/draw/sw/lv_draw_sw_line.c ****                                              LV_DRAW_SW_MASK_LINE_SIDE_LEFT);
 310:Drivers/lvgl/src/draw/sw/lv_draw_sw_line.c ****             lv_draw_sw_mask_line_points_init(&mask_right_param, p1.x, p1.y + w_half1, p2.x, p2.y + 
 874              		.loc 1 310 13 is_stmt 1 view .LVU310
 875 00ea 0123     		movs	r3, #1
 876 00ec 0193     		str	r3, [sp, #4]
 877 00ee 05EB0803 		add	r3, r5, r8
 878 00f2 0093     		str	r3, [sp]
 879 00f4 2346     		mov	r3, r4
 880 00f6 07EB0802 		add	r2, r7, r8
 881 00fa 3146     		mov	r1, r6
 882 00fc 34A8     		add	r0, sp, #208
 883 00fe FFF7FEFF 		bl	lv_draw_sw_mask_line_points_init
 884              	.LVL86:
 885              	.L44:
 311:Drivers/lvgl/src/draw/sw/lv_draw_sw_line.c ****                                              LV_DRAW_SW_MASK_LINE_SIDE_RIGHT);
 312:Drivers/lvgl/src/draw/sw/lv_draw_sw_line.c ****         }
 313:Drivers/lvgl/src/draw/sw/lv_draw_sw_line.c ****         else {
 314:Drivers/lvgl/src/draw/sw/lv_draw_sw_line.c ****             lv_draw_sw_mask_line_points_init(&mask_left_param, p1.x, p1.y + w_half1, p2.x, p2.y + w
 315:Drivers/lvgl/src/draw/sw/lv_draw_sw_line.c ****                                              LV_DRAW_SW_MASK_LINE_SIDE_LEFT);
 316:Drivers/lvgl/src/draw/sw/lv_draw_sw_line.c ****             lv_draw_sw_mask_line_points_init(&mask_right_param, p1.x, p1.y - w_half0, p2.x, p2.y - 
 317:Drivers/lvgl/src/draw/sw/lv_draw_sw_line.c ****                                              LV_DRAW_SW_MASK_LINE_SIDE_RIGHT);
 318:Drivers/lvgl/src/draw/sw/lv_draw_sw_line.c ****         }
 319:Drivers/lvgl/src/draw/sw/lv_draw_sw_line.c ****     }
 320:Drivers/lvgl/src/draw/sw/lv_draw_sw_line.c ****     else {
 321:Drivers/lvgl/src/draw/sw/lv_draw_sw_line.c ****         lv_draw_sw_mask_line_points_init(&mask_left_param, p1.x + w_half1, p1.y, p2.x + w_half1, p2
 322:Drivers/lvgl/src/draw/sw/lv_draw_sw_line.c ****                                          LV_DRAW_SW_MASK_LINE_SIDE_LEFT);
 323:Drivers/lvgl/src/draw/sw/lv_draw_sw_line.c ****         lv_draw_sw_mask_line_points_init(&mask_right_param, p1.x - w_half0, p1.y, p2.x - w_half0, p
 324:Drivers/lvgl/src/draw/sw/lv_draw_sw_line.c ****                                          LV_DRAW_SW_MASK_LINE_SIDE_RIGHT);
 325:Drivers/lvgl/src/draw/sw/lv_draw_sw_line.c **** 
 326:Drivers/lvgl/src/draw/sw/lv_draw_sw_line.c ****     }
 327:Drivers/lvgl/src/draw/sw/lv_draw_sw_line.c **** 
 328:Drivers/lvgl/src/draw/sw/lv_draw_sw_line.c ****     /*Use the normal vector for the endings*/
 329:Drivers/lvgl/src/draw/sw/lv_draw_sw_line.c **** 
 330:Drivers/lvgl/src/draw/sw/lv_draw_sw_line.c ****     if(!dsc->raw_end) {
 886              		.loc 1 330 5 view .LVU311
 887              		.loc 1 330 8 is_stmt 0 view .LVU312
 888 0102 99F83D30 		ldrb	r3, [r9, #61]	@ zero_extendqisi2
 889              		.loc 1 330 7 view .LVU313
 890 0106 13F0040F 		tst	r3, #4
 891 010a 7DD0     		beq	.L55
 892              	.LVL87:
 893              	.L45:
 331:Drivers/lvgl/src/draw/sw/lv_draw_sw_line.c ****         lv_draw_sw_mask_line_points_init(&mask_top_param, p1.x, p1.y, p1.x - ydiff, p1.y + xdiff,
 332:Drivers/lvgl/src/draw/sw/lv_draw_sw_line.c ****                                          LV_DRAW_SW_MASK_LINE_SIDE_BOTTOM);
 333:Drivers/lvgl/src/draw/sw/lv_draw_sw_line.c ****         lv_draw_sw_mask_line_points_init(&mask_bottom_param, p2.x, p2.y, p2.x - ydiff, p2.y + xdiff
 334:Drivers/lvgl/src/draw/sw/lv_draw_sw_line.c ****                                          LV_DRAW_SW_MASK_LINE_SIDE_TOP);
 335:Drivers/lvgl/src/draw/sw/lv_draw_sw_line.c ****         masks[2] = &mask_top_param;
 336:Drivers/lvgl/src/draw/sw/lv_draw_sw_line.c ****         masks[3] = &mask_bottom_param;
ARM GAS  /tmp/ccme7qfW.s 			page 26


 337:Drivers/lvgl/src/draw/sw/lv_draw_sw_line.c ****     }
 338:Drivers/lvgl/src/draw/sw/lv_draw_sw_line.c **** 
 339:Drivers/lvgl/src/draw/sw/lv_draw_sw_line.c ****     /*The real draw area is around the line.
 340:Drivers/lvgl/src/draw/sw/lv_draw_sw_line.c ****      *It's easy to calculate with steep lines, but the area can be very wide with very flat lines.
 341:Drivers/lvgl/src/draw/sw/lv_draw_sw_line.c ****      *So deal with it only with steep lines.*/
 342:Drivers/lvgl/src/draw/sw/lv_draw_sw_line.c ****     int32_t draw_area_w = lv_area_get_width(&blend_area);
 894              		.loc 1 342 5 is_stmt 1 view .LVU314
 895              		.loc 1 342 27 is_stmt 0 view .LVU315
 896 010c 50AC     		add	r4, sp, #320
 897 010e 2046     		mov	r0, r4
 898 0110 FFF7FEFF 		bl	lv_area_get_width
 899              	.LVL88:
 900 0114 0646     		mov	r6, r0
 901              	.LVL89:
 343:Drivers/lvgl/src/draw/sw/lv_draw_sw_line.c **** 
 344:Drivers/lvgl/src/draw/sw/lv_draw_sw_line.c ****     /*Draw the background line by line*/
 345:Drivers/lvgl/src/draw/sw/lv_draw_sw_line.c ****     int32_t h;
 902              		.loc 1 345 5 is_stmt 1 view .LVU316
 346:Drivers/lvgl/src/draw/sw/lv_draw_sw_line.c ****     uint32_t hor_res = (uint32_t)lv_display_get_horizontal_resolution(lv_refr_get_disp_refreshing()
 903              		.loc 1 346 5 view .LVU317
 904              		.loc 1 346 71 is_stmt 0 view .LVU318
 905 0116 FFF7FEFF 		bl	lv_refr_get_disp_refreshing
 906              	.LVL90:
 907              		.loc 1 346 34 discriminator 1 view .LVU319
 908 011a FFF7FEFF 		bl	lv_display_get_horizontal_resolution
 909              	.LVL91:
 910 011e 8046     		mov	r8, r0
 911              	.LVL92:
 347:Drivers/lvgl/src/draw/sw/lv_draw_sw_line.c ****     size_t mask_buf_size = LV_MIN(lv_area_get_size(&blend_area), hor_res);
 912              		.loc 1 347 5 is_stmt 1 view .LVU320
 913              		.loc 1 347 28 is_stmt 0 view .LVU321
 914 0120 2046     		mov	r0, r4
 915              	.LVL93:
 916              		.loc 1 347 28 view .LVU322
 917 0122 FFF7FEFF 		bl	lv_area_get_size
 918              	.LVL94:
 919              		.loc 1 347 28 discriminator 1 view .LVU323
 920 0126 4045     		cmp	r0, r8
 921 0128 C0F08D80 		bcc	.L56
 922              	.LVL95:
 923              	.L46:
 348:Drivers/lvgl/src/draw/sw/lv_draw_sw_line.c ****     lv_opa_t * mask_buf = lv_malloc(mask_buf_size);
 924              		.loc 1 348 5 is_stmt 1 view .LVU324
 925              		.loc 1 348 27 is_stmt 0 view .LVU325
 926 012c 4046     		mov	r0, r8
 927 012e FFF7FEFF 		bl	lv_malloc
 928              	.LVL96:
 929 0132 8246     		mov	r10, r0
 930              	.LVL97:
 349:Drivers/lvgl/src/draw/sw/lv_draw_sw_line.c **** 
 350:Drivers/lvgl/src/draw/sw/lv_draw_sw_line.c ****     int32_t y2 = blend_area.y2;
 931              		.loc 1 350 5 is_stmt 1 view .LVU326
 932              		.loc 1 350 13 is_stmt 0 view .LVU327
 933 0134 DDF84CB1 		ldr	fp, [sp, #332]
 934              	.LVL98:
 351:Drivers/lvgl/src/draw/sw/lv_draw_sw_line.c ****     blend_area.y2 = blend_area.y1;
 935              		.loc 1 351 5 is_stmt 1 view .LVU328
ARM GAS  /tmp/ccme7qfW.s 			page 27


 936              		.loc 1 351 31 is_stmt 0 view .LVU329
 937 0138 519B     		ldr	r3, [sp, #324]
 938              		.loc 1 351 19 view .LVU330
 939 013a 5393     		str	r3, [sp, #332]
 352:Drivers/lvgl/src/draw/sw/lv_draw_sw_line.c **** 
 353:Drivers/lvgl/src/draw/sw/lv_draw_sw_line.c ****     uint32_t mask_p = 0;
 940              		.loc 1 353 5 is_stmt 1 view .LVU331
 941              	.LVL99:
 354:Drivers/lvgl/src/draw/sw/lv_draw_sw_line.c ****     lv_memset(mask_buf, 0xff, mask_buf_size);
 942              		.loc 1 354 5 view .LVU332
 943 013c 4246     		mov	r2, r8
 944 013e FF21     		movs	r1, #255
 945 0140 FFF7FEFF 		bl	lv_memset
 946              	.LVL100:
 355:Drivers/lvgl/src/draw/sw/lv_draw_sw_line.c **** 
 356:Drivers/lvgl/src/draw/sw/lv_draw_sw_line.c ****     lv_draw_sw_blend_dsc_t blend_dsc;
 947              		.loc 1 356 5 view .LVU333
 357:Drivers/lvgl/src/draw/sw/lv_draw_sw_line.c ****     lv_memzero(&blend_dsc, sizeof(blend_dsc));
 948              		.loc 1 357 5 view .LVU334
 949              	.LBB23:
 950              	.LBI23:
  73:Drivers/lvgl/src/draw/sw/../../misc/../stdlib/lv_string.h **** {
 951              		.loc 2 73 20 view .LVU335
 952              	.LBB24:
 953              		.loc 2 75 5 view .LVU336
 954 0144 08AC     		add	r4, sp, #32
 955              	.LVL101:
 956              		.loc 2 75 5 is_stmt 0 view .LVU337
 957 0146 2C22     		movs	r2, #44
 958 0148 0021     		movs	r1, #0
 959 014a 2046     		mov	r0, r4
 960 014c FFF7FEFF 		bl	lv_memset
 961              	.LVL102:
 962              		.loc 2 75 5 view .LVU338
 963              	.LBE24:
 964              	.LBE23:
 358:Drivers/lvgl/src/draw/sw/lv_draw_sw_line.c ****     blend_dsc.blend_area = &blend_area;
 965              		.loc 1 358 5 is_stmt 1 view .LVU339
 966              		.loc 1 358 26 is_stmt 0 view .LVU340
 967 0150 50AB     		add	r3, sp, #320
 968 0152 0893     		str	r3, [sp, #32]
 359:Drivers/lvgl/src/draw/sw/lv_draw_sw_line.c ****     blend_dsc.color = dsc->color;
 969              		.loc 1 359 5 is_stmt 1 view .LVU341
 970              		.loc 1 359 21 is_stmt 0 view .LVU342
 971 0154 B9F82C00 		ldrh	r0, [r9, #44]	@ unaligned
 972 0158 99F82E10 		ldrb	r1, [r9, #46]	@ zero_extendqisi2
 973 015c ADF83500 		strh	r0, [sp, #53]	@ unaligned
 974 0160 8DF83710 		strb	r1, [sp, #55]
 360:Drivers/lvgl/src/draw/sw/lv_draw_sw_line.c ****     blend_dsc.opa = dsc->opa;
 975              		.loc 1 360 5 is_stmt 1 view .LVU343
 976              		.loc 1 360 24 is_stmt 0 view .LVU344
 977 0164 99F83C20 		ldrb	r2, [r9, #60]	@ zero_extendqisi2
 978              		.loc 1 360 19 view .LVU345
 979 0168 8DF83420 		strb	r2, [sp, #52]
 361:Drivers/lvgl/src/draw/sw/lv_draw_sw_line.c ****     blend_dsc.mask_buf = mask_buf;
 980              		.loc 1 361 5 is_stmt 1 view .LVU346
 981              		.loc 1 361 24 is_stmt 0 view .LVU347
ARM GAS  /tmp/ccme7qfW.s 			page 28


 982 016c CDF838A0 		str	r10, [sp, #56]
 362:Drivers/lvgl/src/draw/sw/lv_draw_sw_line.c ****     blend_dsc.mask_area = &blend_area;
 983              		.loc 1 362 5 is_stmt 1 view .LVU348
 984              		.loc 1 362 25 is_stmt 0 view .LVU349
 985 0170 1093     		str	r3, [sp, #64]
 363:Drivers/lvgl/src/draw/sw/lv_draw_sw_line.c **** 
 364:Drivers/lvgl/src/draw/sw/lv_draw_sw_line.c ****     /*Fill the first row with 'color'*/
 365:Drivers/lvgl/src/draw/sw/lv_draw_sw_line.c ****     for(h = blend_area.y1; h <= y2; h++) {
 986              		.loc 1 365 5 is_stmt 1 view .LVU350
 987              		.loc 1 365 11 is_stmt 0 view .LVU351
 988 0172 519D     		ldr	r5, [sp, #324]
 989              	.LVL103:
 353:Drivers/lvgl/src/draw/sw/lv_draw_sw_line.c ****     lv_memset(mask_buf, 0xff, mask_buf_size);
 990              		.loc 1 353 14 view .LVU352
 991 0174 0024     		movs	r4, #0
 992              		.loc 1 365 5 view .LVU353
 993 0176 82E0     		b	.L47
 994              	.LVL104:
 995              	.L36:
 262:Drivers/lvgl/src/draw/sw/lv_draw_sw_line.c ****         p2 = lv_point_from_precise(&dsc->p1);
 996              		.loc 1 262 9 is_stmt 1 view .LVU354
 262:Drivers/lvgl/src/draw/sw/lv_draw_sw_line.c ****         p2 = lv_point_from_precise(&dsc->p1);
 997              		.loc 1 262 14 is_stmt 0 view .LVU355
 998 0178 06AC     		add	r4, sp, #24
 999 017a 2431     		adds	r1, r1, #36
 1000              	.LVL105:
 262:Drivers/lvgl/src/draw/sw/lv_draw_sw_line.c ****         p2 = lv_point_from_precise(&dsc->p1);
 1001              		.loc 1 262 14 view .LVU356
 1002 017c 2046     		mov	r0, r4
 1003              	.LVL106:
 262:Drivers/lvgl/src/draw/sw/lv_draw_sw_line.c ****         p2 = lv_point_from_precise(&dsc->p1);
 1004              		.loc 1 262 14 view .LVU357
 1005 017e FFF7FEFF 		bl	lv_point_from_precise
 1006              	.LVL107:
 1007 0182 94E80300 		ldm	r4, {r0, r1}
 1008 0186 58AB     		add	r3, sp, #352
 1009 0188 03E90300 		stmdb	r3, {r0, r1}
 263:Drivers/lvgl/src/draw/sw/lv_draw_sw_line.c ****     }
 1010              		.loc 1 263 9 is_stmt 1 view .LVU358
 263:Drivers/lvgl/src/draw/sw/lv_draw_sw_line.c ****     }
 1011              		.loc 1 263 14 is_stmt 0 view .LVU359
 1012 018c 09F11C01 		add	r1, r9, #28
 1013 0190 2046     		mov	r0, r4
 1014 0192 FFF7FEFF 		bl	lv_point_from_precise
 1015              	.LVL108:
 1016 0196 54AB     		add	r3, sp, #336
 1017 0198 94E80300 		ldm	r4, {r0, r1}
 1018 019c 83E80300 		stm	r3, {r0, r1}
 1019 01a0 41E7     		b	.L37
 1020              	.LVL109:
 1021              	.L38:
 281:Drivers/lvgl/src/draw/sw/lv_draw_sw_line.c **** 
 1022              		.loc 1 281 10 is_stmt 1 view .LVU360
 281:Drivers/lvgl/src/draw/sw/lv_draw_sw_line.c **** 
 1023              		.loc 1 281 35 is_stmt 0 view .LVU361
 1024 01a2 4FEA4B13 		lsl	r3, fp, #5
 1025              	.LVL110:
ARM GAS  /tmp/ccme7qfW.s 			page 29


 281:Drivers/lvgl/src/draw/sw/lv_draw_sw_line.c **** 
 1026              		.loc 1 281 18 view .LVU362
 1027 01a6 93FBFAF3 		sdiv	r3, r3, r10
 1028 01aa 55E7     		b	.L39
 1029              	.LVL111:
 1030              	.L43:
 314:Drivers/lvgl/src/draw/sw/lv_draw_sw_line.c ****                                              LV_DRAW_SW_MASK_LINE_SIDE_LEFT);
 1031              		.loc 1 314 13 is_stmt 1 view .LVU363
 1032 01ac 0023     		movs	r3, #0
 1033 01ae 0193     		str	r3, [sp, #4]
 1034 01b0 05EB0803 		add	r3, r5, r8
 1035 01b4 0093     		str	r3, [sp]
 1036 01b6 2346     		mov	r3, r4
 1037 01b8 07EB0802 		add	r2, r7, r8
 1038 01bc 3146     		mov	r1, r6
 1039 01be 42A8     		add	r0, sp, #264
 1040              	.LVL112:
 314:Drivers/lvgl/src/draw/sw/lv_draw_sw_line.c ****                                              LV_DRAW_SW_MASK_LINE_SIDE_LEFT);
 1041              		.loc 1 314 13 is_stmt 0 view .LVU364
 1042 01c0 FFF7FEFF 		bl	lv_draw_sw_mask_line_points_init
 1043              	.LVL113:
 316:Drivers/lvgl/src/draw/sw/lv_draw_sw_line.c ****                                              LV_DRAW_SW_MASK_LINE_SIDE_RIGHT);
 1044              		.loc 1 316 13 is_stmt 1 view .LVU365
 1045 01c4 0123     		movs	r3, #1
 1046 01c6 0193     		str	r3, [sp, #4]
 1047 01c8 049A     		ldr	r2, [sp, #16]
 1048 01ca AB1A     		subs	r3, r5, r2
 1049 01cc 0093     		str	r3, [sp]
 1050 01ce 2346     		mov	r3, r4
 1051 01d0 BA1A     		subs	r2, r7, r2
 1052 01d2 3146     		mov	r1, r6
 1053 01d4 34A8     		add	r0, sp, #208
 1054 01d6 FFF7FEFF 		bl	lv_draw_sw_mask_line_points_init
 1055              	.LVL114:
 1056 01da 92E7     		b	.L44
 1057              	.LVL115:
 1058              	.L42:
 321:Drivers/lvgl/src/draw/sw/lv_draw_sw_line.c ****                                          LV_DRAW_SW_MASK_LINE_SIDE_LEFT);
 1059              		.loc 1 321 9 view .LVU366
 1060 01dc 0023     		movs	r3, #0
 1061 01de 0193     		str	r3, [sp, #4]
 1062 01e0 0095     		str	r5, [sp]
 1063 01e2 04EB0803 		add	r3, r4, r8
 1064 01e6 3A46     		mov	r2, r7
 1065 01e8 06EB0801 		add	r1, r6, r8
 1066 01ec 42A8     		add	r0, sp, #264
 1067              	.LVL116:
 321:Drivers/lvgl/src/draw/sw/lv_draw_sw_line.c ****                                          LV_DRAW_SW_MASK_LINE_SIDE_LEFT);
 1068              		.loc 1 321 9 is_stmt 0 view .LVU367
 1069 01ee FFF7FEFF 		bl	lv_draw_sw_mask_line_points_init
 1070              	.LVL117:
 323:Drivers/lvgl/src/draw/sw/lv_draw_sw_line.c ****                                          LV_DRAW_SW_MASK_LINE_SIDE_RIGHT);
 1071              		.loc 1 323 9 is_stmt 1 view .LVU368
 1072 01f2 0123     		movs	r3, #1
 1073 01f4 0193     		str	r3, [sp, #4]
 1074 01f6 0095     		str	r5, [sp]
 1075 01f8 0499     		ldr	r1, [sp, #16]
ARM GAS  /tmp/ccme7qfW.s 			page 30


 1076 01fa 631A     		subs	r3, r4, r1
 1077 01fc 3A46     		mov	r2, r7
 1078 01fe 711A     		subs	r1, r6, r1
 1079 0200 34A8     		add	r0, sp, #208
 1080 0202 FFF7FEFF 		bl	lv_draw_sw_mask_line_points_init
 1081              	.LVL118:
 1082 0206 7CE7     		b	.L44
 1083              	.L55:
 331:Drivers/lvgl/src/draw/sw/lv_draw_sw_line.c ****                                          LV_DRAW_SW_MASK_LINE_SIDE_BOTTOM);
 1084              		.loc 1 331 9 view .LVU369
 1085 0208 0DF19808 		add	r8, sp, #152
 1086              	.LVL119:
 331:Drivers/lvgl/src/draw/sw/lv_draw_sw_line.c ****                                          LV_DRAW_SW_MASK_LINE_SIDE_BOTTOM);
 1087              		.loc 1 331 9 is_stmt 0 view .LVU370
 1088 020c 0323     		movs	r3, #3
 1089 020e 0193     		str	r3, [sp, #4]
 1090 0210 039B     		ldr	r3, [sp, #12]
 1091 0212 FB18     		adds	r3, r7, r3
 1092 0214 0093     		str	r3, [sp]
 1093 0216 059A     		ldr	r2, [sp, #20]
 1094 0218 B31A     		subs	r3, r6, r2
 1095 021a 3A46     		mov	r2, r7
 1096 021c 3146     		mov	r1, r6
 1097 021e 4046     		mov	r0, r8
 1098 0220 FFF7FEFF 		bl	lv_draw_sw_mask_line_points_init
 1099              	.LVL120:
 333:Drivers/lvgl/src/draw/sw/lv_draw_sw_line.c ****                                          LV_DRAW_SW_MASK_LINE_SIDE_TOP);
 1100              		.loc 1 333 9 is_stmt 1 view .LVU371
 1101 0224 18AE     		add	r6, sp, #96
 1102 0226 0223     		movs	r3, #2
 1103 0228 0193     		str	r3, [sp, #4]
 1104 022a 039B     		ldr	r3, [sp, #12]
 1105 022c EB18     		adds	r3, r5, r3
 1106 022e 0093     		str	r3, [sp]
 1107 0230 059A     		ldr	r2, [sp, #20]
 1108 0232 A31A     		subs	r3, r4, r2
 1109 0234 2A46     		mov	r2, r5
 1110 0236 2146     		mov	r1, r4
 1111 0238 3046     		mov	r0, r6
 1112 023a FFF7FEFF 		bl	lv_draw_sw_mask_line_points_init
 1113              	.LVL121:
 335:Drivers/lvgl/src/draw/sw/lv_draw_sw_line.c ****         masks[3] = &mask_bottom_param;
 1114              		.loc 1 335 9 view .LVU372
 335:Drivers/lvgl/src/draw/sw/lv_draw_sw_line.c ****         masks[3] = &mask_bottom_param;
 1115              		.loc 1 335 18 is_stmt 0 view .LVU373
 1116 023e CDF85480 		str	r8, [sp, #84]
 336:Drivers/lvgl/src/draw/sw/lv_draw_sw_line.c ****     }
 1117              		.loc 1 336 9 is_stmt 1 view .LVU374
 336:Drivers/lvgl/src/draw/sw/lv_draw_sw_line.c ****     }
 1118              		.loc 1 336 18 is_stmt 0 view .LVU375
 1119 0242 1696     		str	r6, [sp, #88]
 1120 0244 62E7     		b	.L45
 1121              	.LVL122:
 1122              	.L56:
 347:Drivers/lvgl/src/draw/sw/lv_draw_sw_line.c ****     lv_opa_t * mask_buf = lv_malloc(mask_buf_size);
 1123              		.loc 1 347 28 discriminator 1 view .LVU376
 1124 0246 2046     		mov	r0, r4
ARM GAS  /tmp/ccme7qfW.s 			page 31


 1125 0248 FFF7FEFF 		bl	lv_area_get_size
 1126              	.LVL123:
 1127 024c 8046     		mov	r8, r0
 1128              	.LVL124:
 347:Drivers/lvgl/src/draw/sw/lv_draw_sw_line.c ****     lv_opa_t * mask_buf = lv_malloc(mask_buf_size);
 1129              		.loc 1 347 28 discriminator 1 view .LVU377
 1130 024e 6DE7     		b	.L46
 1131              	.LVL125:
 1132              	.L58:
 366:Drivers/lvgl/src/draw/sw/lv_draw_sw_line.c ****         blend_dsc.mask_res = lv_draw_sw_mask_apply(masks, &mask_buf[mask_p], blend_area.x1, h, draw
 367:Drivers/lvgl/src/draw/sw/lv_draw_sw_line.c ****         if(blend_dsc.mask_res == LV_DRAW_SW_MASK_RES_TRANSP) {
 368:Drivers/lvgl/src/draw/sw/lv_draw_sw_line.c ****             lv_memzero(&mask_buf[mask_p], draw_area_w);
 1133              		.loc 1 368 13 is_stmt 1 view .LVU378
 1134              	.LBB25:
 1135              	.LBI25:
  73:Drivers/lvgl/src/draw/sw/../../misc/../stdlib/lv_string.h **** {
 1136              		.loc 2 73 20 view .LVU379
 1137              	.LBB26:
 1138              		.loc 2 75 5 view .LVU380
 1139 0250 3246     		mov	r2, r6
 1140 0252 0021     		movs	r1, #0
 1141 0254 3846     		mov	r0, r7
 1142 0256 FFF7FEFF 		bl	lv_memset
 1143              	.LVL126:
  76:Drivers/lvgl/src/draw/sw/../../misc/../stdlib/lv_string.h **** }
 1144              		.loc 2 76 1 is_stmt 0 view .LVU381
 1145 025a 1FE0     		b	.L48
 1146              	.L49:
 1147              		.loc 2 76 1 view .LVU382
 1148              	.LBE26:
 1149              	.LBE25:
 369:Drivers/lvgl/src/draw/sw/lv_draw_sw_line.c ****         }
 370:Drivers/lvgl/src/draw/sw/lv_draw_sw_line.c **** 
 371:Drivers/lvgl/src/draw/sw/lv_draw_sw_line.c ****         mask_p += draw_area_w;
 372:Drivers/lvgl/src/draw/sw/lv_draw_sw_line.c ****         if((uint32_t) mask_p + draw_area_w < mask_buf_size) {
 373:Drivers/lvgl/src/draw/sw/lv_draw_sw_line.c ****             blend_area.y2 ++;
 374:Drivers/lvgl/src/draw/sw/lv_draw_sw_line.c ****         }
 375:Drivers/lvgl/src/draw/sw/lv_draw_sw_line.c ****         else {
 376:Drivers/lvgl/src/draw/sw/lv_draw_sw_line.c ****             blend_dsc.mask_res = LV_DRAW_SW_MASK_RES_CHANGED;
 1150              		.loc 1 376 13 is_stmt 1 view .LVU383
 1151              		.loc 1 376 32 is_stmt 0 view .LVU384
 1152 025c 08A9     		add	r1, sp, #32
 1153 025e 0223     		movs	r3, #2
 1154 0260 0B77     		strb	r3, [r1, #28]
 377:Drivers/lvgl/src/draw/sw/lv_draw_sw_line.c ****             lv_draw_sw_blend(t, &blend_dsc);
 1155              		.loc 1 377 13 is_stmt 1 view .LVU385
 1156 0262 0298     		ldr	r0, [sp, #8]
 1157 0264 FFF7FEFF 		bl	lv_draw_sw_blend
 1158              	.LVL127:
 378:Drivers/lvgl/src/draw/sw/lv_draw_sw_line.c **** 
 379:Drivers/lvgl/src/draw/sw/lv_draw_sw_line.c ****             blend_area.y1 = blend_area.y2 + 1;
 1159              		.loc 1 379 13 view .LVU386
 1160              		.loc 1 379 39 is_stmt 0 view .LVU387
 1161 0268 539B     		ldr	r3, [sp, #332]
 1162              		.loc 1 379 43 view .LVU388
 1163 026a 0133     		adds	r3, r3, #1
 1164              		.loc 1 379 27 view .LVU389
ARM GAS  /tmp/ccme7qfW.s 			page 32


 1165 026c 5193     		str	r3, [sp, #324]
 380:Drivers/lvgl/src/draw/sw/lv_draw_sw_line.c ****             blend_area.y2 = blend_area.y1;
 1166              		.loc 1 380 13 is_stmt 1 view .LVU390
 1167              		.loc 1 380 27 is_stmt 0 view .LVU391
 1168 026e 5393     		str	r3, [sp, #332]
 381:Drivers/lvgl/src/draw/sw/lv_draw_sw_line.c ****             mask_p = 0;
 1169              		.loc 1 381 13 is_stmt 1 view .LVU392
 1170              	.LVL128:
 382:Drivers/lvgl/src/draw/sw/lv_draw_sw_line.c ****             lv_memset(mask_buf, 0xff, mask_buf_size);
 1171              		.loc 1 382 13 view .LVU393
 1172 0270 4246     		mov	r2, r8
 1173 0272 FF21     		movs	r1, #255
 1174 0274 5046     		mov	r0, r10
 1175 0276 FFF7FEFF 		bl	lv_memset
 1176              	.LVL129:
 381:Drivers/lvgl/src/draw/sw/lv_draw_sw_line.c ****             mask_p = 0;
 1177              		.loc 1 381 20 is_stmt 0 view .LVU394
 1178 027a 0024     		movs	r4, #0
 1179              	.LVL130:
 1180              	.L50:
 365:Drivers/lvgl/src/draw/sw/lv_draw_sw_line.c ****         blend_dsc.mask_res = lv_draw_sw_mask_apply(masks, &mask_buf[mask_p], blend_area.x1, h, draw
 1181              		.loc 1 365 38 is_stmt 1 discriminator 2 view .LVU395
 1182 027c 0135     		adds	r5, r5, #1
 1183              	.LVL131:
 1184              	.L47:
 365:Drivers/lvgl/src/draw/sw/lv_draw_sw_line.c ****         blend_dsc.mask_res = lv_draw_sw_mask_apply(masks, &mask_buf[mask_p], blend_area.x1, h, draw
 1185              		.loc 1 365 30 discriminator 1 view .LVU396
 1186 027e 5D45     		cmp	r5, fp
 1187 0280 14DC     		bgt	.L57
 366:Drivers/lvgl/src/draw/sw/lv_draw_sw_line.c ****         if(blend_dsc.mask_res == LV_DRAW_SW_MASK_RES_TRANSP) {
 1188              		.loc 1 366 9 view .LVU397
 366:Drivers/lvgl/src/draw/sw/lv_draw_sw_line.c ****         if(blend_dsc.mask_res == LV_DRAW_SW_MASK_RES_TRANSP) {
 1189              		.loc 1 366 30 is_stmt 0 view .LVU398
 1190 0282 0AEB0407 		add	r7, r10, r4
 1191 0286 0096     		str	r6, [sp]
 1192 0288 2B46     		mov	r3, r5
 1193 028a 509A     		ldr	r2, [sp, #320]
 1194 028c 3946     		mov	r1, r7
 1195 028e 13A8     		add	r0, sp, #76
 1196 0290 FFF7FEFF 		bl	lv_draw_sw_mask_apply
 1197              	.LVL132:
 366:Drivers/lvgl/src/draw/sw/lv_draw_sw_line.c ****         if(blend_dsc.mask_res == LV_DRAW_SW_MASK_RES_TRANSP) {
 1198              		.loc 1 366 28 discriminator 1 view .LVU399
 1199 0294 8DF83C00 		strb	r0, [sp, #60]
 367:Drivers/lvgl/src/draw/sw/lv_draw_sw_line.c ****             lv_memzero(&mask_buf[mask_p], draw_area_w);
 1200              		.loc 1 367 9 is_stmt 1 view .LVU400
 367:Drivers/lvgl/src/draw/sw/lv_draw_sw_line.c ****             lv_memzero(&mask_buf[mask_p], draw_area_w);
 1201              		.loc 1 367 11 is_stmt 0 view .LVU401
 1202 0298 0028     		cmp	r0, #0
 1203 029a D9D0     		beq	.L58
 1204              	.L48:
 371:Drivers/lvgl/src/draw/sw/lv_draw_sw_line.c ****         if((uint32_t) mask_p + draw_area_w < mask_buf_size) {
 1205              		.loc 1 371 9 is_stmt 1 view .LVU402
 371:Drivers/lvgl/src/draw/sw/lv_draw_sw_line.c ****         if((uint32_t) mask_p + draw_area_w < mask_buf_size) {
 1206              		.loc 1 371 16 is_stmt 0 view .LVU403
 1207 029c 3444     		add	r4, r4, r6
 1208              	.LVL133:
ARM GAS  /tmp/ccme7qfW.s 			page 33


 372:Drivers/lvgl/src/draw/sw/lv_draw_sw_line.c ****             blend_area.y2 ++;
 1209              		.loc 1 372 9 is_stmt 1 view .LVU404
 372:Drivers/lvgl/src/draw/sw/lv_draw_sw_line.c ****             blend_area.y2 ++;
 1210              		.loc 1 372 30 is_stmt 0 view .LVU405
 1211 029e 3319     		adds	r3, r6, r4
 372:Drivers/lvgl/src/draw/sw/lv_draw_sw_line.c ****             blend_area.y2 ++;
 1212              		.loc 1 372 11 view .LVU406
 1213 02a0 4345     		cmp	r3, r8
 1214 02a2 DBD2     		bcs	.L49
 373:Drivers/lvgl/src/draw/sw/lv_draw_sw_line.c ****         }
 1215              		.loc 1 373 13 is_stmt 1 view .LVU407
 373:Drivers/lvgl/src/draw/sw/lv_draw_sw_line.c ****         }
 1216              		.loc 1 373 23 is_stmt 0 view .LVU408
 1217 02a4 539B     		ldr	r3, [sp, #332]
 373:Drivers/lvgl/src/draw/sw/lv_draw_sw_line.c ****         }
 1218              		.loc 1 373 27 view .LVU409
 1219 02a6 0133     		adds	r3, r3, #1
 1220 02a8 5393     		str	r3, [sp, #332]
 1221 02aa E7E7     		b	.L50
 1222              	.L57:
 383:Drivers/lvgl/src/draw/sw/lv_draw_sw_line.c ****         }
 384:Drivers/lvgl/src/draw/sw/lv_draw_sw_line.c ****     }
 385:Drivers/lvgl/src/draw/sw/lv_draw_sw_line.c **** 
 386:Drivers/lvgl/src/draw/sw/lv_draw_sw_line.c ****     /*Flush the last part*/
 387:Drivers/lvgl/src/draw/sw/lv_draw_sw_line.c ****     if(blend_area.y1 != blend_area.y2) {
 1223              		.loc 1 387 5 is_stmt 1 view .LVU410
 1224              		.loc 1 387 35 is_stmt 0 view .LVU411
 1225 02ac 539B     		ldr	r3, [sp, #332]
 1226              		.loc 1 387 7 view .LVU412
 1227 02ae 519A     		ldr	r2, [sp, #324]
 1228 02b0 9A42     		cmp	r2, r3
 1229 02b2 10D1     		bne	.L59
 1230              	.L52:
 388:Drivers/lvgl/src/draw/sw/lv_draw_sw_line.c ****         blend_area.y2--;
 389:Drivers/lvgl/src/draw/sw/lv_draw_sw_line.c ****         blend_dsc.mask_res = LV_DRAW_SW_MASK_RES_CHANGED;
 390:Drivers/lvgl/src/draw/sw/lv_draw_sw_line.c ****         lv_draw_sw_blend(t, &blend_dsc);
 391:Drivers/lvgl/src/draw/sw/lv_draw_sw_line.c ****     }
 392:Drivers/lvgl/src/draw/sw/lv_draw_sw_line.c **** 
 393:Drivers/lvgl/src/draw/sw/lv_draw_sw_line.c ****     lv_free(mask_buf);
 1231              		.loc 1 393 5 is_stmt 1 view .LVU413
 1232 02b4 5046     		mov	r0, r10
 1233 02b6 FFF7FEFF 		bl	lv_free
 1234              	.LVL134:
 394:Drivers/lvgl/src/draw/sw/lv_draw_sw_line.c **** 
 395:Drivers/lvgl/src/draw/sw/lv_draw_sw_line.c ****     lv_draw_sw_mask_free_param(&mask_left_param);
 1235              		.loc 1 395 5 view .LVU414
 1236 02ba 42A8     		add	r0, sp, #264
 1237 02bc FFF7FEFF 		bl	lv_draw_sw_mask_free_param
 1238              	.LVL135:
 396:Drivers/lvgl/src/draw/sw/lv_draw_sw_line.c ****     lv_draw_sw_mask_free_param(&mask_right_param);
 1239              		.loc 1 396 5 view .LVU415
 1240 02c0 34A8     		add	r0, sp, #208
 1241 02c2 FFF7FEFF 		bl	lv_draw_sw_mask_free_param
 1242              	.LVL136:
 397:Drivers/lvgl/src/draw/sw/lv_draw_sw_line.c ****     if(!dsc->raw_end) {
 1243              		.loc 1 397 5 view .LVU416
 1244              		.loc 1 397 8 is_stmt 0 view .LVU417
ARM GAS  /tmp/ccme7qfW.s 			page 34


 1245 02c6 99F83D30 		ldrb	r3, [r9, #61]	@ zero_extendqisi2
 1246              		.loc 1 397 7 view .LVU418
 1247 02ca 13F0040F 		tst	r3, #4
 1248 02ce 0BD0     		beq	.L60
 1249              	.LVL137:
 1250              	.L35:
 398:Drivers/lvgl/src/draw/sw/lv_draw_sw_line.c ****         lv_draw_sw_mask_free_param(&mask_top_param);
 399:Drivers/lvgl/src/draw/sw/lv_draw_sw_line.c ****         lv_draw_sw_mask_free_param(&mask_bottom_param);
 400:Drivers/lvgl/src/draw/sw/lv_draw_sw_line.c ****     }
 401:Drivers/lvgl/src/draw/sw/lv_draw_sw_line.c **** #else
 402:Drivers/lvgl/src/draw/sw/lv_draw_sw_line.c ****     LV_UNUSED(draw_unit);
 403:Drivers/lvgl/src/draw/sw/lv_draw_sw_line.c ****     LV_UNUSED(dsc);
 404:Drivers/lvgl/src/draw/sw/lv_draw_sw_line.c ****     LV_LOG_WARN("Can't draw skewed line with LV_DRAW_SW_COMPLEX == 0");
 405:Drivers/lvgl/src/draw/sw/lv_draw_sw_line.c **** #endif /*LV_DRAW_SW_COMPLEX*/
 406:Drivers/lvgl/src/draw/sw/lv_draw_sw_line.c **** }
 1251              		.loc 1 406 1 view .LVU419
 1252 02d0 59B0     		add	sp, sp, #356
 1253              	.LCFI10:
 1254              		.cfi_remember_state
 1255              		.cfi_def_cfa_offset 36
 1256              		@ sp needed
 1257 02d2 BDE8F08F 		pop	{r4, r5, r6, r7, r8, r9, r10, fp, pc}
 1258              	.LVL138:
 1259              	.L59:
 1260              	.LCFI11:
 1261              		.cfi_restore_state
 388:Drivers/lvgl/src/draw/sw/lv_draw_sw_line.c ****         blend_dsc.mask_res = LV_DRAW_SW_MASK_RES_CHANGED;
 1262              		.loc 1 388 9 is_stmt 1 view .LVU420
 388:Drivers/lvgl/src/draw/sw/lv_draw_sw_line.c ****         blend_dsc.mask_res = LV_DRAW_SW_MASK_RES_CHANGED;
 1263              		.loc 1 388 22 is_stmt 0 view .LVU421
 1264 02d6 013B     		subs	r3, r3, #1
 1265 02d8 5393     		str	r3, [sp, #332]
 389:Drivers/lvgl/src/draw/sw/lv_draw_sw_line.c ****         lv_draw_sw_blend(t, &blend_dsc);
 1266              		.loc 1 389 9 is_stmt 1 view .LVU422
 389:Drivers/lvgl/src/draw/sw/lv_draw_sw_line.c ****         lv_draw_sw_blend(t, &blend_dsc);
 1267              		.loc 1 389 28 is_stmt 0 view .LVU423
 1268 02da 08A9     		add	r1, sp, #32
 1269 02dc 0223     		movs	r3, #2
 1270 02de 0B77     		strb	r3, [r1, #28]
 390:Drivers/lvgl/src/draw/sw/lv_draw_sw_line.c ****     }
 1271              		.loc 1 390 9 is_stmt 1 view .LVU424
 1272 02e0 0298     		ldr	r0, [sp, #8]
 1273 02e2 FFF7FEFF 		bl	lv_draw_sw_blend
 1274              	.LVL139:
 1275 02e6 E5E7     		b	.L52
 1276              	.L60:
 398:Drivers/lvgl/src/draw/sw/lv_draw_sw_line.c ****         lv_draw_sw_mask_free_param(&mask_bottom_param);
 1277              		.loc 1 398 9 view .LVU425
 1278 02e8 26A8     		add	r0, sp, #152
 1279 02ea FFF7FEFF 		bl	lv_draw_sw_mask_free_param
 1280              	.LVL140:
 399:Drivers/lvgl/src/draw/sw/lv_draw_sw_line.c ****     }
 1281              		.loc 1 399 9 view .LVU426
 1282 02ee 18A8     		add	r0, sp, #96
 1283 02f0 FFF7FEFF 		bl	lv_draw_sw_mask_free_param
 1284              	.LVL141:
 1285 02f4 ECE7     		b	.L35
ARM GAS  /tmp/ccme7qfW.s 			page 35


 1286              	.L62:
 1287 02f6 00BF     		.align	2
 1288              	.L61:
 1289 02f8 00000000 		.word	wcorr.0
 1290              		.cfi_endproc
 1291              	.LFE189:
 1293              		.section	.text.lv_draw_sw_line,"ax",%progbits
 1294              		.align	1
 1295              		.global	lv_draw_sw_line
 1296              		.syntax unified
 1297              		.thumb
 1298              		.thumb_func
 1300              	lv_draw_sw_line:
 1301              	.LVL142:
 1302              	.LFB186:
  51:Drivers/lvgl/src/draw/sw/lv_draw_sw_line.c ****     if(dsc->width == 0) return;
 1303              		.loc 1 51 1 view -0
 1304              		.cfi_startproc
 1305              		@ args = 0, pretend = 0, frame = 80
 1306              		@ frame_needed = 0, uses_anonymous_args = 0
  52:Drivers/lvgl/src/draw/sw/lv_draw_sw_line.c ****     if(dsc->opa <= LV_OPA_MIN) return;
 1307              		.loc 1 52 5 view .LVU428
  52:Drivers/lvgl/src/draw/sw/lv_draw_sw_line.c ****     if(dsc->opa <= LV_OPA_MIN) return;
 1308              		.loc 1 52 11 is_stmt 0 view .LVU429
 1309 0000 0A6B     		ldr	r2, [r1, #48]
  52:Drivers/lvgl/src/draw/sw/lv_draw_sw_line.c ****     if(dsc->opa <= LV_OPA_MIN) return;
 1310              		.loc 1 52 7 view .LVU430
 1311 0002 002A     		cmp	r2, #0
 1312 0004 00F09B80 		beq	.L75
  51:Drivers/lvgl/src/draw/sw/lv_draw_sw_line.c ****     if(dsc->width == 0) return;
 1313              		.loc 1 51 1 view .LVU431
 1314 0008 F0B5     		push	{r4, r5, r6, r7, lr}
 1315              	.LCFI12:
 1316              		.cfi_def_cfa_offset 20
 1317              		.cfi_offset 4, -20
 1318              		.cfi_offset 5, -16
 1319              		.cfi_offset 6, -12
 1320              		.cfi_offset 7, -8
 1321              		.cfi_offset 14, -4
 1322 000a 95B0     		sub	sp, sp, #84
 1323              	.LCFI13:
 1324              		.cfi_def_cfa_offset 104
 1325 000c 0546     		mov	r5, r0
 1326 000e 0C46     		mov	r4, r1
  53:Drivers/lvgl/src/draw/sw/lv_draw_sw_line.c **** 
 1327              		.loc 1 53 5 is_stmt 1 view .LVU432
  53:Drivers/lvgl/src/draw/sw/lv_draw_sw_line.c **** 
 1328              		.loc 1 53 11 is_stmt 0 view .LVU433
 1329 0010 91F83C30 		ldrb	r3, [r1, #60]	@ zero_extendqisi2
  53:Drivers/lvgl/src/draw/sw/lv_draw_sw_line.c **** 
 1330              		.loc 1 53 7 view .LVU434
 1331 0014 022B     		cmp	r3, #2
 1332 0016 40D9     		bls	.L63
  55:Drivers/lvgl/src/draw/sw/lv_draw_sw_line.c **** 
 1333              		.loc 1 55 5 is_stmt 1 view .LVU435
  55:Drivers/lvgl/src/draw/sw/lv_draw_sw_line.c **** 
 1334              		.loc 1 55 15 is_stmt 0 view .LVU436
ARM GAS  /tmp/ccme7qfW.s 			page 36


 1335 0018 C869     		ldr	r0, [r1, #28]
 1336              	.LVL143:
  55:Drivers/lvgl/src/draw/sw/lv_draw_sw_line.c **** 
 1337              		.loc 1 55 28 view .LVU437
 1338 001a 496A     		ldr	r1, [r1, #36]
 1339              	.LVL144:
  55:Drivers/lvgl/src/draw/sw/lv_draw_sw_line.c **** 
 1340              		.loc 1 55 7 view .LVU438
 1341 001c 8842     		cmp	r0, r1
 1342 001e 03D1     		bne	.L65
  55:Drivers/lvgl/src/draw/sw/lv_draw_sw_line.c **** 
 1343              		.loc 1 55 54 discriminator 1 view .LVU439
 1344 0020 A36A     		ldr	r3, [r4, #40]
  55:Drivers/lvgl/src/draw/sw/lv_draw_sw_line.c **** 
 1345              		.loc 1 55 31 discriminator 1 view .LVU440
 1346 0022 266A     		ldr	r6, [r4, #32]
 1347 0024 9E42     		cmp	r6, r3
 1348 0026 38D0     		beq	.L63
 1349              	.L65:
  57:Drivers/lvgl/src/draw/sw/lv_draw_sw_line.c ****     clip_line.x1 = (int32_t)LV_MIN(dsc->p1.x, dsc->p2.x) - dsc->width / 2;
 1350              		.loc 1 57 5 is_stmt 1 view .LVU441
  58:Drivers/lvgl/src/draw/sw/lv_draw_sw_line.c ****     clip_line.x2 = (int32_t)LV_MAX(dsc->p1.x, dsc->p2.x) + dsc->width / 2;
 1351              		.loc 1 58 5 view .LVU442
  58:Drivers/lvgl/src/draw/sw/lv_draw_sw_line.c ****     clip_line.x2 = (int32_t)LV_MAX(dsc->p1.x, dsc->p2.x) + dsc->width / 2;
 1352              		.loc 1 58 20 is_stmt 0 view .LVU443
 1353 0028 8446     		mov	ip, r0
 1354 002a 8842     		cmp	r0, r1
 1355 002c A8BF     		it	ge
 1356 002e 8C46     		movge	ip, r1
  58:Drivers/lvgl/src/draw/sw/lv_draw_sw_line.c ****     clip_line.x2 = (int32_t)LV_MAX(dsc->p1.x, dsc->p2.x) + dsc->width / 2;
 1357              		.loc 1 58 71 view .LVU444
 1358 0030 1346     		mov	r3, r2
 1359 0032 002A     		cmp	r2, #0
 1360 0034 33DB     		blt	.L78
 1361              	.L66:
 1362 0036 5B10     		asrs	r3, r3, #1
 1363 0038 5B42     		rsbs	r3, r3, #0
  58:Drivers/lvgl/src/draw/sw/lv_draw_sw_line.c ****     clip_line.x2 = (int32_t)LV_MAX(dsc->p1.x, dsc->p2.x) + dsc->width / 2;
 1364              		.loc 1 58 58 view .LVU445
 1365 003a 0CEB0302 		add	r2, ip, r3
  58:Drivers/lvgl/src/draw/sw/lv_draw_sw_line.c ****     clip_line.x2 = (int32_t)LV_MAX(dsc->p1.x, dsc->p2.x) + dsc->width / 2;
 1366              		.loc 1 58 18 view .LVU446
 1367 003e 1092     		str	r2, [sp, #64]
  59:Drivers/lvgl/src/draw/sw/lv_draw_sw_line.c ****     clip_line.y1 = (int32_t)LV_MIN(dsc->p1.y, dsc->p2.y) - dsc->width / 2;
 1368              		.loc 1 59 5 is_stmt 1 view .LVU447
  59:Drivers/lvgl/src/draw/sw/lv_draw_sw_line.c ****     clip_line.y1 = (int32_t)LV_MIN(dsc->p1.y, dsc->p2.y) - dsc->width / 2;
 1369              		.loc 1 59 18 is_stmt 0 view .LVU448
 1370 0040 8842     		cmp	r0, r1
 1371 0042 ACBF     		ite	ge
 1372 0044 C3EB0002 		rsbge	r2, r3, r0
 1373 0048 C3EB0102 		rsblt	r2, r3, r1
 1374 004c 1292     		str	r2, [sp, #72]
  60:Drivers/lvgl/src/draw/sw/lv_draw_sw_line.c ****     clip_line.y2 = (int32_t)LV_MAX(dsc->p1.y, dsc->p2.y) + dsc->width / 2;
 1375              		.loc 1 60 5 is_stmt 1 view .LVU449
  60:Drivers/lvgl/src/draw/sw/lv_draw_sw_line.c ****     clip_line.y2 = (int32_t)LV_MAX(dsc->p1.y, dsc->p2.y) + dsc->width / 2;
 1376              		.loc 1 60 29 is_stmt 0 view .LVU450
 1377 004e A16A     		ldr	r1, [r4, #40]
ARM GAS  /tmp/ccme7qfW.s 			page 37


 1378 0050 226A     		ldr	r2, [r4, #32]
  60:Drivers/lvgl/src/draw/sw/lv_draw_sw_line.c ****     clip_line.y2 = (int32_t)LV_MAX(dsc->p1.y, dsc->p2.y) + dsc->width / 2;
 1379              		.loc 1 60 58 view .LVU451
 1380 0052 9142     		cmp	r1, r2
 1381 0054 D4BF     		ite	le
 1382 0056 5818     		addle	r0, r3, r1
 1383 0058 9818     		addgt	r0, r3, r2
  60:Drivers/lvgl/src/draw/sw/lv_draw_sw_line.c ****     clip_line.y2 = (int32_t)LV_MAX(dsc->p1.y, dsc->p2.y) + dsc->width / 2;
 1384              		.loc 1 60 18 view .LVU452
 1385 005a 1190     		str	r0, [sp, #68]
  61:Drivers/lvgl/src/draw/sw/lv_draw_sw_line.c **** 
 1386              		.loc 1 61 5 is_stmt 1 view .LVU453
  61:Drivers/lvgl/src/draw/sw/lv_draw_sw_line.c **** 
 1387              		.loc 1 61 18 is_stmt 0 view .LVU454
 1388 005c 9142     		cmp	r1, r2
 1389 005e ACBF     		ite	ge
 1390 0060 C3EB0103 		rsbge	r3, r3, r1
 1391 0064 C3EB0203 		rsblt	r3, r3, r2
 1392 0068 1393     		str	r3, [sp, #76]
  63:Drivers/lvgl/src/draw/sw/lv_draw_sw_line.c ****     is_common = lv_area_intersect(&clip_line, &clip_line, &t->clip_area);
 1393              		.loc 1 63 5 is_stmt 1 view .LVU455
  64:Drivers/lvgl/src/draw/sw/lv_draw_sw_line.c ****     if(!is_common) return;
 1394              		.loc 1 64 5 view .LVU456
  64:Drivers/lvgl/src/draw/sw/lv_draw_sw_line.c ****     if(!is_common) return;
 1395              		.loc 1 64 17 is_stmt 0 view .LVU457
 1396 006a 10A8     		add	r0, sp, #64
 1397 006c 05F13802 		add	r2, r5, #56
 1398 0070 0146     		mov	r1, r0
 1399 0072 FFF7FEFF 		bl	lv_area_intersect
 1400              	.LVL145:
  65:Drivers/lvgl/src/draw/sw/lv_draw_sw_line.c **** 
 1401              		.loc 1 65 5 is_stmt 1 view .LVU458
  65:Drivers/lvgl/src/draw/sw/lv_draw_sw_line.c **** 
 1402              		.loc 1 65 7 is_stmt 0 view .LVU459
 1403 0076 80B1     		cbz	r0, .L63
  67:Drivers/lvgl/src/draw/sw/lv_draw_sw_line.c ****     if((int32_t)dsc->p1.y == (int32_t)dsc->p2.y) draw_line_hor(t, dsc);
 1404              		.loc 1 67 27 is_stmt 1 view .LVU460
  68:Drivers/lvgl/src/draw/sw/lv_draw_sw_line.c ****     else if((int32_t)dsc->p1.x == (int32_t)dsc->p2.x) draw_line_ver(t, dsc);
 1405              		.loc 1 68 5 view .LVU461
  68:Drivers/lvgl/src/draw/sw/lv_draw_sw_line.c ****     else if((int32_t)dsc->p1.x == (int32_t)dsc->p2.x) draw_line_ver(t, dsc);
 1406              		.loc 1 68 24 is_stmt 0 view .LVU462
 1407 0078 226A     		ldr	r2, [r4, #32]
  68:Drivers/lvgl/src/draw/sw/lv_draw_sw_line.c ****     else if((int32_t)dsc->p1.x == (int32_t)dsc->p2.x) draw_line_ver(t, dsc);
 1408              		.loc 1 68 46 view .LVU463
 1409 007a A36A     		ldr	r3, [r4, #40]
  68:Drivers/lvgl/src/draw/sw/lv_draw_sw_line.c ****     else if((int32_t)dsc->p1.x == (int32_t)dsc->p2.x) draw_line_ver(t, dsc);
 1410              		.loc 1 68 7 view .LVU464
 1411 007c 9A42     		cmp	r2, r3
 1412 007e 10D0     		beq	.L79
  69:Drivers/lvgl/src/draw/sw/lv_draw_sw_line.c ****     else draw_line_skew(t, dsc);
 1413              		.loc 1 69 10 is_stmt 1 view .LVU465
  69:Drivers/lvgl/src/draw/sw/lv_draw_sw_line.c ****     else draw_line_skew(t, dsc);
 1414              		.loc 1 69 29 is_stmt 0 view .LVU466
 1415 0080 E269     		ldr	r2, [r4, #28]
  69:Drivers/lvgl/src/draw/sw/lv_draw_sw_line.c ****     else draw_line_skew(t, dsc);
 1416              		.loc 1 69 51 view .LVU467
 1417 0082 636A     		ldr	r3, [r4, #36]
ARM GAS  /tmp/ccme7qfW.s 			page 38


  69:Drivers/lvgl/src/draw/sw/lv_draw_sw_line.c ****     else draw_line_skew(t, dsc);
 1418              		.loc 1 69 12 view .LVU468
 1419 0084 9A42     		cmp	r2, r3
 1420 0086 11D0     		beq	.L80
  70:Drivers/lvgl/src/draw/sw/lv_draw_sw_line.c **** 
 1421              		.loc 1 70 10 is_stmt 1 view .LVU469
 1422 0088 2146     		mov	r1, r4
 1423 008a 2846     		mov	r0, r5
 1424              	.LVL146:
  70:Drivers/lvgl/src/draw/sw/lv_draw_sw_line.c **** 
 1425              		.loc 1 70 10 is_stmt 0 view .LVU470
 1426 008c FFF7FEFF 		bl	draw_line_skew
 1427              	.LVL147:
 1428              	.L68:
  72:Drivers/lvgl/src/draw/sw/lv_draw_sw_line.c ****         lv_draw_fill_dsc_t cir_dsc;
 1429              		.loc 1 72 5 is_stmt 1 view .LVU471
  72:Drivers/lvgl/src/draw/sw/lv_draw_sw_line.c ****         lv_draw_fill_dsc_t cir_dsc;
 1430              		.loc 1 72 23 is_stmt 0 view .LVU472
 1431 0090 94F83D30 		ldrb	r3, [r4, #61]	@ zero_extendqisi2
  72:Drivers/lvgl/src/draw/sw/lv_draw_sw_line.c ****         lv_draw_fill_dsc_t cir_dsc;
 1432              		.loc 1 72 7 view .LVU473
 1433 0094 13F0030F 		tst	r3, #3
 1434 0098 0DD1     		bne	.L81
 1435              	.LVL148:
 1436              	.L63:
 100:Drivers/lvgl/src/draw/sw/lv_draw_sw_line.c **** 
 1437              		.loc 1 100 1 view .LVU474
 1438 009a 15B0     		add	sp, sp, #84
 1439              	.LCFI14:
 1440              		.cfi_remember_state
 1441              		.cfi_def_cfa_offset 20
 1442              		@ sp needed
 1443 009c F0BD     		pop	{r4, r5, r6, r7, pc}
 1444              	.LVL149:
 1445              	.L78:
 1446              	.LCFI15:
 1447              		.cfi_restore_state
  58:Drivers/lvgl/src/draw/sw/lv_draw_sw_line.c ****     clip_line.x2 = (int32_t)LV_MAX(dsc->p1.x, dsc->p2.x) + dsc->width / 2;
 1448              		.loc 1 58 71 view .LVU475
 1449 009e 531C     		adds	r3, r2, #1
 1450 00a0 C9E7     		b	.L66
 1451              	.LVL150:
 1452              	.L79:
  68:Drivers/lvgl/src/draw/sw/lv_draw_sw_line.c ****     else if((int32_t)dsc->p1.x == (int32_t)dsc->p2.x) draw_line_ver(t, dsc);
 1453              		.loc 1 68 50 is_stmt 1 discriminator 1 view .LVU476
 1454 00a2 2146     		mov	r1, r4
 1455 00a4 2846     		mov	r0, r5
 1456              	.LVL151:
  68:Drivers/lvgl/src/draw/sw/lv_draw_sw_line.c ****     else if((int32_t)dsc->p1.x == (int32_t)dsc->p2.x) draw_line_ver(t, dsc);
 1457              		.loc 1 68 50 is_stmt 0 discriminator 1 view .LVU477
 1458 00a6 FFF7FEFF 		bl	draw_line_hor
 1459              	.LVL152:
 1460 00aa F1E7     		b	.L68
 1461              	.LVL153:
 1462              	.L80:
  69:Drivers/lvgl/src/draw/sw/lv_draw_sw_line.c ****     else draw_line_skew(t, dsc);
 1463              		.loc 1 69 55 is_stmt 1 discriminator 1 view .LVU478
ARM GAS  /tmp/ccme7qfW.s 			page 39


 1464 00ac 2146     		mov	r1, r4
 1465 00ae 2846     		mov	r0, r5
 1466              	.LVL154:
  69:Drivers/lvgl/src/draw/sw/lv_draw_sw_line.c ****     else draw_line_skew(t, dsc);
 1467              		.loc 1 69 55 is_stmt 0 discriminator 1 view .LVU479
 1468 00b0 FFF7FEFF 		bl	draw_line_ver
 1469              	.LVL155:
 1470 00b4 ECE7     		b	.L68
 1471              	.L81:
 1472              	.LBB27:
  73:Drivers/lvgl/src/draw/sw/lv_draw_sw_line.c ****         lv_draw_fill_dsc_init(&cir_dsc);
 1473              		.loc 1 73 9 is_stmt 1 view .LVU480
  74:Drivers/lvgl/src/draw/sw/lv_draw_sw_line.c ****         cir_dsc.color = dsc->color;
 1474              		.loc 1 74 9 view .LVU481
 1475 00b6 04A8     		add	r0, sp, #16
 1476 00b8 FFF7FEFF 		bl	lv_draw_fill_dsc_init
 1477              	.LVL156:
  75:Drivers/lvgl/src/draw/sw/lv_draw_sw_line.c ****         cir_dsc.radius = LV_RADIUS_CIRCLE;
 1478              		.loc 1 75 9 view .LVU482
  75:Drivers/lvgl/src/draw/sw/lv_draw_sw_line.c ****         cir_dsc.radius = LV_RADIUS_CIRCLE;
 1479              		.loc 1 75 23 is_stmt 0 view .LVU483
 1480 00bc A28D     		ldrh	r2, [r4, #44]	@ unaligned
 1481 00be 94F82E30 		ldrb	r3, [r4, #46]	@ zero_extendqisi2
 1482 00c2 ADF83120 		strh	r2, [sp, #49]	@ unaligned
 1483 00c6 8DF83330 		strb	r3, [sp, #51]
  76:Drivers/lvgl/src/draw/sw/lv_draw_sw_line.c ****         cir_dsc.opa = dsc->opa;
 1484              		.loc 1 76 9 is_stmt 1 view .LVU484
  76:Drivers/lvgl/src/draw/sw/lv_draw_sw_line.c ****         cir_dsc.opa = dsc->opa;
 1485              		.loc 1 76 24 is_stmt 0 view .LVU485
 1486 00ca 47F6FF73 		movw	r3, #32767
 1487 00ce 0B93     		str	r3, [sp, #44]
  77:Drivers/lvgl/src/draw/sw/lv_draw_sw_line.c **** 
 1488              		.loc 1 77 9 is_stmt 1 view .LVU486
  77:Drivers/lvgl/src/draw/sw/lv_draw_sw_line.c **** 
 1489              		.loc 1 77 26 is_stmt 0 view .LVU487
 1490 00d0 94F83C30 		ldrb	r3, [r4, #60]	@ zero_extendqisi2
  77:Drivers/lvgl/src/draw/sw/lv_draw_sw_line.c **** 
 1491              		.loc 1 77 21 view .LVU488
 1492 00d4 8DF83030 		strb	r3, [sp, #48]
  79:Drivers/lvgl/src/draw/sw/lv_draw_sw_line.c ****         int32_t r_corr = (dsc->width & 1) ? 0 : 1;
 1493              		.loc 1 79 9 is_stmt 1 view .LVU489
  79:Drivers/lvgl/src/draw/sw/lv_draw_sw_line.c ****         int32_t r_corr = (dsc->width & 1) ? 0 : 1;
 1494              		.loc 1 79 25 is_stmt 0 view .LVU490
 1495 00d8 236B     		ldr	r3, [r4, #48]
  79:Drivers/lvgl/src/draw/sw/lv_draw_sw_line.c ****         int32_t r_corr = (dsc->width & 1) ? 0 : 1;
 1496              		.loc 1 79 17 view .LVU491
 1497 00da 5F10     		asrs	r7, r3, #1
 1498              	.LVL157:
  80:Drivers/lvgl/src/draw/sw/lv_draw_sw_line.c ****         lv_area_t cir_area;
 1499              		.loc 1 80 9 is_stmt 1 view .LVU492
  80:Drivers/lvgl/src/draw/sw/lv_draw_sw_line.c ****         lv_area_t cir_area;
 1500              		.loc 1 80 47 is_stmt 0 view .LVU493
 1501 00dc DB43     		mvns	r3, r3
  80:Drivers/lvgl/src/draw/sw/lv_draw_sw_line.c ****         lv_area_t cir_area;
 1502              		.loc 1 80 17 view .LVU494
 1503 00de 03F00106 		and	r6, r3, #1
 1504              	.LVL158:
ARM GAS  /tmp/ccme7qfW.s 			page 40


  81:Drivers/lvgl/src/draw/sw/lv_draw_sw_line.c **** 
 1505              		.loc 1 81 9 is_stmt 1 view .LVU495
  83:Drivers/lvgl/src/draw/sw/lv_draw_sw_line.c ****             cir_area.x1 = (int32_t)dsc->p1.x - r;
 1506              		.loc 1 83 9 view .LVU496
  83:Drivers/lvgl/src/draw/sw/lv_draw_sw_line.c ****             cir_area.x1 = (int32_t)dsc->p1.x - r;
 1507              		.loc 1 83 12 is_stmt 0 view .LVU497
 1508 00e2 94F83D30 		ldrb	r3, [r4, #61]	@ zero_extendqisi2
  83:Drivers/lvgl/src/draw/sw/lv_draw_sw_line.c ****             cir_area.x1 = (int32_t)dsc->p1.x - r;
 1509              		.loc 1 83 11 view .LVU498
 1510 00e6 13F0010F 		tst	r3, #1
 1511 00ea 16D1     		bne	.L82
 1512              	.L71:
  91:Drivers/lvgl/src/draw/sw/lv_draw_sw_line.c ****             cir_area.x1 = (int32_t)dsc->p2.x - r;
 1513              		.loc 1 91 9 is_stmt 1 view .LVU499
  91:Drivers/lvgl/src/draw/sw/lv_draw_sw_line.c ****             cir_area.x1 = (int32_t)dsc->p2.x - r;
 1514              		.loc 1 91 12 is_stmt 0 view .LVU500
 1515 00ec 94F83D30 		ldrb	r3, [r4, #61]	@ zero_extendqisi2
  91:Drivers/lvgl/src/draw/sw/lv_draw_sw_line.c ****             cir_area.x1 = (int32_t)dsc->p2.x - r;
 1516              		.loc 1 91 11 view .LVU501
 1517 00f0 13F0020F 		tst	r3, #2
 1518 00f4 D1D0     		beq	.L63
  92:Drivers/lvgl/src/draw/sw/lv_draw_sw_line.c ****             cir_area.y1 = (int32_t)dsc->p2.y - r;
 1519              		.loc 1 92 13 is_stmt 1 view .LVU502
  92:Drivers/lvgl/src/draw/sw/lv_draw_sw_line.c ****             cir_area.y1 = (int32_t)dsc->p2.y - r;
 1520              		.loc 1 92 43 is_stmt 0 view .LVU503
 1521 00f6 626A     		ldr	r2, [r4, #36]
  92:Drivers/lvgl/src/draw/sw/lv_draw_sw_line.c ****             cir_area.y1 = (int32_t)dsc->p2.y - r;
 1522              		.loc 1 92 46 view .LVU504
 1523 00f8 D31B     		subs	r3, r2, r7
  92:Drivers/lvgl/src/draw/sw/lv_draw_sw_line.c ****             cir_area.y1 = (int32_t)dsc->p2.y - r;
 1524              		.loc 1 92 25 view .LVU505
 1525 00fa 0093     		str	r3, [sp]
  93:Drivers/lvgl/src/draw/sw/lv_draw_sw_line.c ****             cir_area.x2 = (int32_t)dsc->p2.x + r - r_corr;
 1526              		.loc 1 93 13 is_stmt 1 view .LVU506
  93:Drivers/lvgl/src/draw/sw/lv_draw_sw_line.c ****             cir_area.x2 = (int32_t)dsc->p2.x + r - r_corr;
 1527              		.loc 1 93 43 is_stmt 0 view .LVU507
 1528 00fc A36A     		ldr	r3, [r4, #40]
  93:Drivers/lvgl/src/draw/sw/lv_draw_sw_line.c ****             cir_area.x2 = (int32_t)dsc->p2.x + r - r_corr;
 1529              		.loc 1 93 46 view .LVU508
 1530 00fe D91B     		subs	r1, r3, r7
  93:Drivers/lvgl/src/draw/sw/lv_draw_sw_line.c ****             cir_area.x2 = (int32_t)dsc->p2.x + r - r_corr;
 1531              		.loc 1 93 25 view .LVU509
 1532 0100 0191     		str	r1, [sp, #4]
  94:Drivers/lvgl/src/draw/sw/lv_draw_sw_line.c ****             cir_area.y2 = (int32_t)dsc->p2.y + r - r_corr ;
 1533              		.loc 1 94 13 is_stmt 1 view .LVU510
  94:Drivers/lvgl/src/draw/sw/lv_draw_sw_line.c ****             cir_area.y2 = (int32_t)dsc->p2.y + r - r_corr ;
 1534              		.loc 1 94 46 is_stmt 0 view .LVU511
 1535 0102 3A44     		add	r2, r2, r7
  94:Drivers/lvgl/src/draw/sw/lv_draw_sw_line.c ****             cir_area.y2 = (int32_t)dsc->p2.y + r - r_corr ;
 1536              		.loc 1 94 50 view .LVU512
 1537 0104 921B     		subs	r2, r2, r6
  94:Drivers/lvgl/src/draw/sw/lv_draw_sw_line.c ****             cir_area.y2 = (int32_t)dsc->p2.y + r - r_corr ;
 1538              		.loc 1 94 25 view .LVU513
 1539 0106 0292     		str	r2, [sp, #8]
  95:Drivers/lvgl/src/draw/sw/lv_draw_sw_line.c ****             lv_draw_sw_fill(t, &cir_dsc, &cir_area);
 1540              		.loc 1 95 13 is_stmt 1 view .LVU514
  95:Drivers/lvgl/src/draw/sw/lv_draw_sw_line.c ****             lv_draw_sw_fill(t, &cir_dsc, &cir_area);
ARM GAS  /tmp/ccme7qfW.s 			page 41


 1541              		.loc 1 95 46 is_stmt 0 view .LVU515
 1542 0108 3B44     		add	r3, r3, r7
  95:Drivers/lvgl/src/draw/sw/lv_draw_sw_line.c ****             lv_draw_sw_fill(t, &cir_dsc, &cir_area);
 1543              		.loc 1 95 50 view .LVU516
 1544 010a 9B1B     		subs	r3, r3, r6
  95:Drivers/lvgl/src/draw/sw/lv_draw_sw_line.c ****             lv_draw_sw_fill(t, &cir_dsc, &cir_area);
 1545              		.loc 1 95 25 view .LVU517
 1546 010c 0393     		str	r3, [sp, #12]
  96:Drivers/lvgl/src/draw/sw/lv_draw_sw_line.c ****         }
 1547              		.loc 1 96 13 is_stmt 1 view .LVU518
 1548 010e 6A46     		mov	r2, sp
 1549 0110 04A9     		add	r1, sp, #16
 1550 0112 2846     		mov	r0, r5
 1551 0114 FFF7FEFF 		bl	lv_draw_sw_fill
 1552              	.LVL159:
 1553              	.LBE27:
  99:Drivers/lvgl/src/draw/sw/lv_draw_sw_line.c **** }
 1554              		.loc 1 99 25 view .LVU519
 1555 0118 BFE7     		b	.L63
 1556              	.L82:
 1557              	.LBB28:
  84:Drivers/lvgl/src/draw/sw/lv_draw_sw_line.c ****             cir_area.y1 = (int32_t)dsc->p1.y - r;
 1558              		.loc 1 84 13 view .LVU520
  84:Drivers/lvgl/src/draw/sw/lv_draw_sw_line.c ****             cir_area.y1 = (int32_t)dsc->p1.y - r;
 1559              		.loc 1 84 43 is_stmt 0 view .LVU521
 1560 011a E269     		ldr	r2, [r4, #28]
  84:Drivers/lvgl/src/draw/sw/lv_draw_sw_line.c ****             cir_area.y1 = (int32_t)dsc->p1.y - r;
 1561              		.loc 1 84 46 view .LVU522
 1562 011c D31B     		subs	r3, r2, r7
  84:Drivers/lvgl/src/draw/sw/lv_draw_sw_line.c ****             cir_area.y1 = (int32_t)dsc->p1.y - r;
 1563              		.loc 1 84 25 view .LVU523
 1564 011e 0093     		str	r3, [sp]
  85:Drivers/lvgl/src/draw/sw/lv_draw_sw_line.c ****             cir_area.x2 = (int32_t)dsc->p1.x + r - r_corr;
 1565              		.loc 1 85 13 is_stmt 1 view .LVU524
  85:Drivers/lvgl/src/draw/sw/lv_draw_sw_line.c ****             cir_area.x2 = (int32_t)dsc->p1.x + r - r_corr;
 1566              		.loc 1 85 43 is_stmt 0 view .LVU525
 1567 0120 236A     		ldr	r3, [r4, #32]
  85:Drivers/lvgl/src/draw/sw/lv_draw_sw_line.c ****             cir_area.x2 = (int32_t)dsc->p1.x + r - r_corr;
 1568              		.loc 1 85 46 view .LVU526
 1569 0122 D91B     		subs	r1, r3, r7
  85:Drivers/lvgl/src/draw/sw/lv_draw_sw_line.c ****             cir_area.x2 = (int32_t)dsc->p1.x + r - r_corr;
 1570              		.loc 1 85 25 view .LVU527
 1571 0124 0191     		str	r1, [sp, #4]
  86:Drivers/lvgl/src/draw/sw/lv_draw_sw_line.c ****             cir_area.y2 = (int32_t)dsc->p1.y + r - r_corr ;
 1572              		.loc 1 86 13 is_stmt 1 view .LVU528
  86:Drivers/lvgl/src/draw/sw/lv_draw_sw_line.c ****             cir_area.y2 = (int32_t)dsc->p1.y + r - r_corr ;
 1573              		.loc 1 86 46 is_stmt 0 view .LVU529
 1574 0126 3A44     		add	r2, r2, r7
  86:Drivers/lvgl/src/draw/sw/lv_draw_sw_line.c ****             cir_area.y2 = (int32_t)dsc->p1.y + r - r_corr ;
 1575              		.loc 1 86 50 view .LVU530
 1576 0128 921B     		subs	r2, r2, r6
  86:Drivers/lvgl/src/draw/sw/lv_draw_sw_line.c ****             cir_area.y2 = (int32_t)dsc->p1.y + r - r_corr ;
 1577              		.loc 1 86 25 view .LVU531
 1578 012a 0292     		str	r2, [sp, #8]
  87:Drivers/lvgl/src/draw/sw/lv_draw_sw_line.c ****             lv_draw_sw_fill(t, &cir_dsc, &cir_area);
 1579              		.loc 1 87 13 is_stmt 1 view .LVU532
  87:Drivers/lvgl/src/draw/sw/lv_draw_sw_line.c ****             lv_draw_sw_fill(t, &cir_dsc, &cir_area);
ARM GAS  /tmp/ccme7qfW.s 			page 42


 1580              		.loc 1 87 46 is_stmt 0 view .LVU533
 1581 012c 3B44     		add	r3, r3, r7
  87:Drivers/lvgl/src/draw/sw/lv_draw_sw_line.c ****             lv_draw_sw_fill(t, &cir_dsc, &cir_area);
 1582              		.loc 1 87 50 view .LVU534
 1583 012e 9B1B     		subs	r3, r3, r6
  87:Drivers/lvgl/src/draw/sw/lv_draw_sw_line.c ****             lv_draw_sw_fill(t, &cir_dsc, &cir_area);
 1584              		.loc 1 87 25 view .LVU535
 1585 0130 0393     		str	r3, [sp, #12]
  88:Drivers/lvgl/src/draw/sw/lv_draw_sw_line.c ****         }
 1586              		.loc 1 88 13 is_stmt 1 view .LVU536
 1587 0132 6A46     		mov	r2, sp
 1588 0134 04A9     		add	r1, sp, #16
 1589 0136 2846     		mov	r0, r5
 1590 0138 FFF7FEFF 		bl	lv_draw_sw_fill
 1591              	.LVL160:
 1592 013c D6E7     		b	.L71
 1593              	.LVL161:
 1594              	.L75:
 1595              	.LCFI16:
 1596              		.cfi_def_cfa_offset 0
 1597              		.cfi_restore 4
 1598              		.cfi_restore 5
 1599              		.cfi_restore 6
 1600              		.cfi_restore 7
 1601              		.cfi_restore 14
  88:Drivers/lvgl/src/draw/sw/lv_draw_sw_line.c ****         }
 1602              		.loc 1 88 13 is_stmt 0 view .LVU537
 1603 013e 7047     		bx	lr
 1604              	.LBE28:
 1605              		.cfi_endproc
 1606              	.LFE186:
 1608              		.section	.rodata.wcorr.0,"a"
 1609              		.align	2
 1612              	wcorr.0:
 1613 0000 80808081 		.ascii	"\200\200\200\201\201\202\202\203\204\205\206\207\211"
 1613      81828283 
 1613      84858687 
 1613      89
 1614 000d 8A8C8D8F 		.ascii	"\212\214\215\217\221\223\225\227\231\233\236\240\242"
 1614      91939597 
 1614      999B9EA0 
 1614      A2
 1615 001a A5A7AAAD 		.ascii	"\245\247\252\255\257\262\265"
 1615      AFB2B5
 1616              		.text
 1617              	.Letext0:
 1618              		.file 3 "/usr/arm-none-eabi/include/machine/_default_types.h"
 1619              		.file 4 "/usr/arm-none-eabi/include/sys/_stdint.h"
 1620              		.file 5 "/usr/lib/gcc/arm-none-eabi/14.2.0/include/stddef.h"
 1621              		.file 6 "Drivers/lvgl/src/draw/sw/../../misc/lv_types.h"
 1622              		.file 7 "Drivers/lvgl/src/draw/sw/../lv_draw.h"
 1623              		.file 8 "Drivers/lvgl/src/draw/sw/../lv_draw_private.h"
 1624              		.file 9 "Drivers/lvgl/src/draw/sw/lv_draw_sw_mask_private.h"
 1625              		.file 10 "Drivers/lvgl/src/draw/sw/blend/lv_draw_sw_blend_private.h"
 1626              		.file 11 "Drivers/lvgl/src/draw/sw/blend/../../../misc/../font/../draw/lv_draw_buf.h"
 1627              		.file 12 "Drivers/lvgl/src/draw/sw/../../misc/lv_area.h"
 1628              		.file 13 "Drivers/lvgl/src/draw/sw/../../misc/lv_color.h"
ARM GAS  /tmp/ccme7qfW.s 			page 43


 1629              		.file 14 "Drivers/lvgl/src/draw/sw/lv_draw_sw_mask.h"
 1630              		.file 15 "Drivers/lvgl/src/draw/sw/blend/../../../misc/../font/../draw/lv_image_dsc.h"
 1631              		.file 16 "Drivers/lvgl/src/draw/sw/blend/../../../misc/lv_grad.h"
 1632              		.file 17 "Drivers/lvgl/src/draw/sw/blend/../../../misc/lv_style.h"
 1633              		.file 18 "Drivers/lvgl/src/draw/sw/../lv_draw_rect.h"
 1634              		.file 19 "Drivers/lvgl/src/draw/sw/../lv_draw_line.h"
 1635              		.file 20 "Drivers/lvgl/src/draw/sw/../../display/lv_display.h"
 1636              		.file 21 "Drivers/lvgl/src/draw/sw/../../misc/../stdlib/lv_mem.h"
 1637              		.file 22 "Drivers/lvgl/src/draw/sw/blend/lv_draw_sw_blend.h"
 1638              		.file 23 "Drivers/lvgl/src/draw/sw/lv_draw_sw.h"
 1639              		.file 24 "Drivers/lvgl/src/draw/sw/../../misc/lv_area_private.h"
 1640              		.file 25 "Drivers/lvgl/src/draw/sw/../../core/lv_refr_private.h"
ARM GAS  /tmp/ccme7qfW.s 			page 44

