ARM GAS  /tmp/ccrMvAjz.s 			page 1


   1              		.cpu cortex-m7
   2              		.arch armv7e-m
   3              		.fpu fpv5-sp-d16
   4              		.eabi_attribute 27, 1
   5              		.eabi_attribute 28, 1
   6              		.eabi_attribute 20, 1
   7              		.eabi_attribute 21, 1
   8              		.eabi_attribute 23, 3
   9              		.eabi_attribute 24, 1
  10              		.eabi_attribute 25, 1
  11              		.eabi_attribute 26, 1
  12              		.eabi_attribute 30, 1
  13              		.eabi_attribute 34, 1
  14              		.eabi_attribute 18, 4
  15              		.file	"lv_draw_buf.c"
  16              		.text
  17              	.Ltext0:
  18              		.cfi_sections	.debug_frame
  19              		.file 1 "Drivers/lvgl/src/draw/lv_draw_buf.c"
  20              		.section	.text.buf_align,"ax",%progbits
  21              		.align	1
  22              		.syntax unified
  23              		.thumb
  24              		.thumb_func
  26              	buf_align:
  27              	.LVL0:
  28              	.LFB220:
   1:Drivers/lvgl/src/draw/lv_draw_buf.c **** /**
   2:Drivers/lvgl/src/draw/lv_draw_buf.c ****  * @file lv_draw_buf.c
   3:Drivers/lvgl/src/draw/lv_draw_buf.c ****  *
   4:Drivers/lvgl/src/draw/lv_draw_buf.c ****  */
   5:Drivers/lvgl/src/draw/lv_draw_buf.c **** 
   6:Drivers/lvgl/src/draw/lv_draw_buf.c **** /*********************
   7:Drivers/lvgl/src/draw/lv_draw_buf.c ****  *      INCLUDES
   8:Drivers/lvgl/src/draw/lv_draw_buf.c ****  *********************/
   9:Drivers/lvgl/src/draw/lv_draw_buf.c **** #include "lv_draw_buf_private.h"
  10:Drivers/lvgl/src/draw/lv_draw_buf.c **** #include "../misc/lv_types.h"
  11:Drivers/lvgl/src/draw/lv_draw_buf.c **** #include "../stdlib/lv_string.h"
  12:Drivers/lvgl/src/draw/lv_draw_buf.c **** #include "../core/lv_global.h"
  13:Drivers/lvgl/src/draw/lv_draw_buf.c **** #include "../misc/lv_math.h"
  14:Drivers/lvgl/src/draw/lv_draw_buf.c **** #include "../misc/lv_area_private.h"
  15:Drivers/lvgl/src/draw/lv_draw_buf.c **** 
  16:Drivers/lvgl/src/draw/lv_draw_buf.c **** /*********************
  17:Drivers/lvgl/src/draw/lv_draw_buf.c ****  *      DEFINES
  18:Drivers/lvgl/src/draw/lv_draw_buf.c ****  *********************/
  19:Drivers/lvgl/src/draw/lv_draw_buf.c **** #define default_handlers LV_GLOBAL_DEFAULT()->draw_buf_handlers
  20:Drivers/lvgl/src/draw/lv_draw_buf.c **** #define font_draw_buf_handlers LV_GLOBAL_DEFAULT()->font_draw_buf_handlers
  21:Drivers/lvgl/src/draw/lv_draw_buf.c **** #define image_cache_draw_buf_handlers LV_GLOBAL_DEFAULT()->image_cache_draw_buf_handlers
  22:Drivers/lvgl/src/draw/lv_draw_buf.c **** 
  23:Drivers/lvgl/src/draw/lv_draw_buf.c **** /**********************
  24:Drivers/lvgl/src/draw/lv_draw_buf.c ****  *      TYPEDEFS
  25:Drivers/lvgl/src/draw/lv_draw_buf.c ****  **********************/
  26:Drivers/lvgl/src/draw/lv_draw_buf.c **** 
  27:Drivers/lvgl/src/draw/lv_draw_buf.c **** /**********************
  28:Drivers/lvgl/src/draw/lv_draw_buf.c ****  *  STATIC PROTOTYPES
  29:Drivers/lvgl/src/draw/lv_draw_buf.c ****  **********************/
  30:Drivers/lvgl/src/draw/lv_draw_buf.c **** static void * buf_malloc(size_t size, lv_color_format_t color_format);
ARM GAS  /tmp/ccrMvAjz.s 			page 2


  31:Drivers/lvgl/src/draw/lv_draw_buf.c **** static void buf_free(void * buf);
  32:Drivers/lvgl/src/draw/lv_draw_buf.c **** static void * buf_align(void * buf, lv_color_format_t color_format);
  33:Drivers/lvgl/src/draw/lv_draw_buf.c **** static void * draw_buf_malloc(const lv_draw_buf_handlers_t * handler, size_t size_bytes,
  34:Drivers/lvgl/src/draw/lv_draw_buf.c ****                               lv_color_format_t color_format);
  35:Drivers/lvgl/src/draw/lv_draw_buf.c **** static void draw_buf_free(const lv_draw_buf_handlers_t * handler, void * buf);
  36:Drivers/lvgl/src/draw/lv_draw_buf.c **** static uint32_t width_to_stride(uint32_t w, lv_color_format_t color_format);
  37:Drivers/lvgl/src/draw/lv_draw_buf.c **** static uint32_t _calculate_draw_buf_size(uint32_t w, uint32_t h, lv_color_format_t cf, uint32_t str
  38:Drivers/lvgl/src/draw/lv_draw_buf.c **** static void draw_buf_get_full_area(const lv_draw_buf_t * draw_buf, lv_area_t * full_area);
  39:Drivers/lvgl/src/draw/lv_draw_buf.c **** 
  40:Drivers/lvgl/src/draw/lv_draw_buf.c **** /**********************
  41:Drivers/lvgl/src/draw/lv_draw_buf.c ****  *  STATIC VARIABLES
  42:Drivers/lvgl/src/draw/lv_draw_buf.c ****  **********************/
  43:Drivers/lvgl/src/draw/lv_draw_buf.c **** 
  44:Drivers/lvgl/src/draw/lv_draw_buf.c **** /**********************
  45:Drivers/lvgl/src/draw/lv_draw_buf.c ****  *      MACROS
  46:Drivers/lvgl/src/draw/lv_draw_buf.c ****  **********************/
  47:Drivers/lvgl/src/draw/lv_draw_buf.c **** 
  48:Drivers/lvgl/src/draw/lv_draw_buf.c **** /**********************
  49:Drivers/lvgl/src/draw/lv_draw_buf.c ****  *   GLOBAL FUNCTIONS
  50:Drivers/lvgl/src/draw/lv_draw_buf.c ****  **********************/
  51:Drivers/lvgl/src/draw/lv_draw_buf.c **** 
  52:Drivers/lvgl/src/draw/lv_draw_buf.c **** void lv_draw_buf_init_handlers(void)
  53:Drivers/lvgl/src/draw/lv_draw_buf.c **** {
  54:Drivers/lvgl/src/draw/lv_draw_buf.c ****     lv_draw_buf_init_with_default_handlers(&default_handlers);
  55:Drivers/lvgl/src/draw/lv_draw_buf.c ****     lv_draw_buf_init_with_default_handlers(&font_draw_buf_handlers);
  56:Drivers/lvgl/src/draw/lv_draw_buf.c ****     lv_draw_buf_init_with_default_handlers(&image_cache_draw_buf_handlers);
  57:Drivers/lvgl/src/draw/lv_draw_buf.c **** }
  58:Drivers/lvgl/src/draw/lv_draw_buf.c **** 
  59:Drivers/lvgl/src/draw/lv_draw_buf.c **** void lv_draw_buf_init_with_default_handlers(lv_draw_buf_handlers_t * handlers)
  60:Drivers/lvgl/src/draw/lv_draw_buf.c **** {
  61:Drivers/lvgl/src/draw/lv_draw_buf.c ****     lv_draw_buf_handlers_init(handlers, buf_malloc, buf_free, buf_align, NULL, NULL, width_to_strid
  62:Drivers/lvgl/src/draw/lv_draw_buf.c **** }
  63:Drivers/lvgl/src/draw/lv_draw_buf.c **** 
  64:Drivers/lvgl/src/draw/lv_draw_buf.c **** void lv_draw_buf_handlers_init(lv_draw_buf_handlers_t * handlers,
  65:Drivers/lvgl/src/draw/lv_draw_buf.c ****                                lv_draw_buf_malloc_cb buf_malloc_cb,
  66:Drivers/lvgl/src/draw/lv_draw_buf.c ****                                lv_draw_buf_free_cb buf_free_cb,
  67:Drivers/lvgl/src/draw/lv_draw_buf.c ****                                lv_draw_buf_align_cb align_pointer_cb,
  68:Drivers/lvgl/src/draw/lv_draw_buf.c ****                                lv_draw_buf_cache_operation_cb invalidate_cache_cb,
  69:Drivers/lvgl/src/draw/lv_draw_buf.c ****                                lv_draw_buf_cache_operation_cb flush_cache_cb,
  70:Drivers/lvgl/src/draw/lv_draw_buf.c ****                                lv_draw_buf_width_to_stride_cb width_to_stride_cb)
  71:Drivers/lvgl/src/draw/lv_draw_buf.c **** {
  72:Drivers/lvgl/src/draw/lv_draw_buf.c ****     lv_memzero(handlers, sizeof(lv_draw_buf_handlers_t));
  73:Drivers/lvgl/src/draw/lv_draw_buf.c ****     handlers->buf_malloc_cb = buf_malloc_cb;
  74:Drivers/lvgl/src/draw/lv_draw_buf.c ****     handlers->buf_free_cb = buf_free_cb;
  75:Drivers/lvgl/src/draw/lv_draw_buf.c ****     handlers->align_pointer_cb = align_pointer_cb;
  76:Drivers/lvgl/src/draw/lv_draw_buf.c ****     handlers->invalidate_cache_cb = invalidate_cache_cb;
  77:Drivers/lvgl/src/draw/lv_draw_buf.c ****     handlers->flush_cache_cb = flush_cache_cb;
  78:Drivers/lvgl/src/draw/lv_draw_buf.c ****     handlers->width_to_stride_cb = width_to_stride_cb;
  79:Drivers/lvgl/src/draw/lv_draw_buf.c **** }
  80:Drivers/lvgl/src/draw/lv_draw_buf.c **** 
  81:Drivers/lvgl/src/draw/lv_draw_buf.c **** lv_draw_buf_handlers_t * lv_draw_buf_get_handlers(void)
  82:Drivers/lvgl/src/draw/lv_draw_buf.c **** {
  83:Drivers/lvgl/src/draw/lv_draw_buf.c ****     return &default_handlers;
  84:Drivers/lvgl/src/draw/lv_draw_buf.c **** }
  85:Drivers/lvgl/src/draw/lv_draw_buf.c **** 
  86:Drivers/lvgl/src/draw/lv_draw_buf.c **** lv_draw_buf_handlers_t * lv_draw_buf_get_font_handlers(void)
  87:Drivers/lvgl/src/draw/lv_draw_buf.c **** {
ARM GAS  /tmp/ccrMvAjz.s 			page 3


  88:Drivers/lvgl/src/draw/lv_draw_buf.c ****     return &font_draw_buf_handlers;
  89:Drivers/lvgl/src/draw/lv_draw_buf.c **** }
  90:Drivers/lvgl/src/draw/lv_draw_buf.c **** 
  91:Drivers/lvgl/src/draw/lv_draw_buf.c **** lv_draw_buf_handlers_t * lv_draw_buf_get_image_handlers(void)
  92:Drivers/lvgl/src/draw/lv_draw_buf.c **** {
  93:Drivers/lvgl/src/draw/lv_draw_buf.c ****     return &image_cache_draw_buf_handlers;
  94:Drivers/lvgl/src/draw/lv_draw_buf.c **** }
  95:Drivers/lvgl/src/draw/lv_draw_buf.c **** 
  96:Drivers/lvgl/src/draw/lv_draw_buf.c **** uint32_t lv_draw_buf_width_to_stride(uint32_t w, lv_color_format_t color_format)
  97:Drivers/lvgl/src/draw/lv_draw_buf.c **** {
  98:Drivers/lvgl/src/draw/lv_draw_buf.c ****     return lv_draw_buf_width_to_stride_ex(&default_handlers, w, color_format);
  99:Drivers/lvgl/src/draw/lv_draw_buf.c **** }
 100:Drivers/lvgl/src/draw/lv_draw_buf.c **** 
 101:Drivers/lvgl/src/draw/lv_draw_buf.c **** uint32_t lv_draw_buf_width_to_stride_ex(const lv_draw_buf_handlers_t * handlers, uint32_t w,
 102:Drivers/lvgl/src/draw/lv_draw_buf.c ****                                         lv_color_format_t color_format)
 103:Drivers/lvgl/src/draw/lv_draw_buf.c **** {
 104:Drivers/lvgl/src/draw/lv_draw_buf.c ****     if(handlers->width_to_stride_cb) return handlers->width_to_stride_cb(w, color_format);
 105:Drivers/lvgl/src/draw/lv_draw_buf.c ****     else return 0;
 106:Drivers/lvgl/src/draw/lv_draw_buf.c **** }
 107:Drivers/lvgl/src/draw/lv_draw_buf.c **** 
 108:Drivers/lvgl/src/draw/lv_draw_buf.c **** void * lv_draw_buf_align(void * data, lv_color_format_t color_format)
 109:Drivers/lvgl/src/draw/lv_draw_buf.c **** {
 110:Drivers/lvgl/src/draw/lv_draw_buf.c ****     return lv_draw_buf_align_ex(&default_handlers, data, color_format);
 111:Drivers/lvgl/src/draw/lv_draw_buf.c **** }
 112:Drivers/lvgl/src/draw/lv_draw_buf.c **** 
 113:Drivers/lvgl/src/draw/lv_draw_buf.c **** void * lv_draw_buf_align_ex(const lv_draw_buf_handlers_t * handlers, void * data, lv_color_format_t
 114:Drivers/lvgl/src/draw/lv_draw_buf.c **** {
 115:Drivers/lvgl/src/draw/lv_draw_buf.c ****     if(handlers->align_pointer_cb) return handlers->align_pointer_cb(data, color_format);
 116:Drivers/lvgl/src/draw/lv_draw_buf.c ****     else return NULL;
 117:Drivers/lvgl/src/draw/lv_draw_buf.c **** }
 118:Drivers/lvgl/src/draw/lv_draw_buf.c **** 
 119:Drivers/lvgl/src/draw/lv_draw_buf.c **** void lv_draw_buf_invalidate_cache(const lv_draw_buf_t * draw_buf, const lv_area_t * area)
 120:Drivers/lvgl/src/draw/lv_draw_buf.c **** {
 121:Drivers/lvgl/src/draw/lv_draw_buf.c ****     LV_ASSERT_NULL(draw_buf);
 122:Drivers/lvgl/src/draw/lv_draw_buf.c ****     LV_ASSERT_NULL(draw_buf->handlers);
 123:Drivers/lvgl/src/draw/lv_draw_buf.c **** 
 124:Drivers/lvgl/src/draw/lv_draw_buf.c ****     const lv_draw_buf_handlers_t * handlers = draw_buf->handlers;
 125:Drivers/lvgl/src/draw/lv_draw_buf.c ****     if(!handlers->invalidate_cache_cb) {
 126:Drivers/lvgl/src/draw/lv_draw_buf.c ****         return;
 127:Drivers/lvgl/src/draw/lv_draw_buf.c ****     }
 128:Drivers/lvgl/src/draw/lv_draw_buf.c **** 
 129:Drivers/lvgl/src/draw/lv_draw_buf.c ****     LV_PROFILER_DRAW_BEGIN;
 130:Drivers/lvgl/src/draw/lv_draw_buf.c **** 
 131:Drivers/lvgl/src/draw/lv_draw_buf.c ****     lv_area_t full;
 132:Drivers/lvgl/src/draw/lv_draw_buf.c ****     if(area == NULL) {
 133:Drivers/lvgl/src/draw/lv_draw_buf.c ****         draw_buf_get_full_area(draw_buf, &full);
 134:Drivers/lvgl/src/draw/lv_draw_buf.c ****         area = &full;
 135:Drivers/lvgl/src/draw/lv_draw_buf.c ****     }
 136:Drivers/lvgl/src/draw/lv_draw_buf.c **** 
 137:Drivers/lvgl/src/draw/lv_draw_buf.c ****     handlers->invalidate_cache_cb(draw_buf, area);
 138:Drivers/lvgl/src/draw/lv_draw_buf.c ****     LV_PROFILER_DRAW_END;
 139:Drivers/lvgl/src/draw/lv_draw_buf.c **** }
 140:Drivers/lvgl/src/draw/lv_draw_buf.c **** 
 141:Drivers/lvgl/src/draw/lv_draw_buf.c **** void lv_draw_buf_flush_cache(const lv_draw_buf_t * draw_buf, const lv_area_t * area)
 142:Drivers/lvgl/src/draw/lv_draw_buf.c **** {
 143:Drivers/lvgl/src/draw/lv_draw_buf.c ****     LV_ASSERT_NULL(draw_buf);
 144:Drivers/lvgl/src/draw/lv_draw_buf.c ****     LV_ASSERT_NULL(draw_buf->handlers);
ARM GAS  /tmp/ccrMvAjz.s 			page 4


 145:Drivers/lvgl/src/draw/lv_draw_buf.c **** 
 146:Drivers/lvgl/src/draw/lv_draw_buf.c ****     const lv_draw_buf_handlers_t * handlers = draw_buf->handlers;
 147:Drivers/lvgl/src/draw/lv_draw_buf.c ****     if(!handlers->flush_cache_cb) {
 148:Drivers/lvgl/src/draw/lv_draw_buf.c ****         return;
 149:Drivers/lvgl/src/draw/lv_draw_buf.c ****     }
 150:Drivers/lvgl/src/draw/lv_draw_buf.c **** 
 151:Drivers/lvgl/src/draw/lv_draw_buf.c ****     LV_PROFILER_DRAW_BEGIN;
 152:Drivers/lvgl/src/draw/lv_draw_buf.c **** 
 153:Drivers/lvgl/src/draw/lv_draw_buf.c ****     lv_area_t full;
 154:Drivers/lvgl/src/draw/lv_draw_buf.c ****     if(area == NULL) {
 155:Drivers/lvgl/src/draw/lv_draw_buf.c ****         draw_buf_get_full_area(draw_buf, &full);
 156:Drivers/lvgl/src/draw/lv_draw_buf.c ****         area = &full;
 157:Drivers/lvgl/src/draw/lv_draw_buf.c ****     }
 158:Drivers/lvgl/src/draw/lv_draw_buf.c **** 
 159:Drivers/lvgl/src/draw/lv_draw_buf.c ****     handlers->flush_cache_cb(draw_buf, area);
 160:Drivers/lvgl/src/draw/lv_draw_buf.c ****     LV_PROFILER_DRAW_END;
 161:Drivers/lvgl/src/draw/lv_draw_buf.c **** }
 162:Drivers/lvgl/src/draw/lv_draw_buf.c **** 
 163:Drivers/lvgl/src/draw/lv_draw_buf.c **** void lv_draw_buf_clear(lv_draw_buf_t * draw_buf, const lv_area_t * a)
 164:Drivers/lvgl/src/draw/lv_draw_buf.c **** {
 165:Drivers/lvgl/src/draw/lv_draw_buf.c ****     LV_ASSERT_NULL(draw_buf);
 166:Drivers/lvgl/src/draw/lv_draw_buf.c ****     LV_PROFILER_DRAW_BEGIN;
 167:Drivers/lvgl/src/draw/lv_draw_buf.c **** 
 168:Drivers/lvgl/src/draw/lv_draw_buf.c ****     const lv_image_header_t * header = &draw_buf->header;
 169:Drivers/lvgl/src/draw/lv_draw_buf.c ****     uint32_t stride = header->stride;
 170:Drivers/lvgl/src/draw/lv_draw_buf.c **** 
 171:Drivers/lvgl/src/draw/lv_draw_buf.c ****     if(a == NULL) {
 172:Drivers/lvgl/src/draw/lv_draw_buf.c ****         uint8_t * buf = lv_draw_buf_goto_xy(draw_buf, 0, 0);
 173:Drivers/lvgl/src/draw/lv_draw_buf.c ****         lv_memzero(buf, header->h * stride);
 174:Drivers/lvgl/src/draw/lv_draw_buf.c ****         lv_draw_buf_flush_cache(draw_buf, a);
 175:Drivers/lvgl/src/draw/lv_draw_buf.c ****         LV_PROFILER_DRAW_END;
 176:Drivers/lvgl/src/draw/lv_draw_buf.c ****         return;
 177:Drivers/lvgl/src/draw/lv_draw_buf.c ****     }
 178:Drivers/lvgl/src/draw/lv_draw_buf.c **** 
 179:Drivers/lvgl/src/draw/lv_draw_buf.c ****     lv_area_t a_draw_buf;
 180:Drivers/lvgl/src/draw/lv_draw_buf.c ****     a_draw_buf.x1 = 0;
 181:Drivers/lvgl/src/draw/lv_draw_buf.c ****     a_draw_buf.y1 = 0;
 182:Drivers/lvgl/src/draw/lv_draw_buf.c ****     a_draw_buf.x2 = draw_buf->header.w - 1;
 183:Drivers/lvgl/src/draw/lv_draw_buf.c ****     a_draw_buf.y2 = draw_buf->header.h - 1;
 184:Drivers/lvgl/src/draw/lv_draw_buf.c **** 
 185:Drivers/lvgl/src/draw/lv_draw_buf.c ****     lv_area_t a_clipped;
 186:Drivers/lvgl/src/draw/lv_draw_buf.c ****     if(!lv_area_intersect(&a_clipped, a, &a_draw_buf)) {
 187:Drivers/lvgl/src/draw/lv_draw_buf.c ****         LV_PROFILER_DRAW_END;
 188:Drivers/lvgl/src/draw/lv_draw_buf.c ****         return;
 189:Drivers/lvgl/src/draw/lv_draw_buf.c ****     }
 190:Drivers/lvgl/src/draw/lv_draw_buf.c **** 
 191:Drivers/lvgl/src/draw/lv_draw_buf.c ****     if(lv_area_get_width(&a_clipped) <= 0) {
 192:Drivers/lvgl/src/draw/lv_draw_buf.c ****         LV_PROFILER_DRAW_END;
 193:Drivers/lvgl/src/draw/lv_draw_buf.c ****         return;
 194:Drivers/lvgl/src/draw/lv_draw_buf.c ****     }
 195:Drivers/lvgl/src/draw/lv_draw_buf.c **** 
 196:Drivers/lvgl/src/draw/lv_draw_buf.c ****     if(lv_area_get_height(&a_clipped) <= 0) {
 197:Drivers/lvgl/src/draw/lv_draw_buf.c ****         LV_PROFILER_DRAW_END;
 198:Drivers/lvgl/src/draw/lv_draw_buf.c ****         return;
 199:Drivers/lvgl/src/draw/lv_draw_buf.c ****     }
 200:Drivers/lvgl/src/draw/lv_draw_buf.c **** 
 201:Drivers/lvgl/src/draw/lv_draw_buf.c ****     uint8_t * buf = lv_draw_buf_goto_xy(draw_buf, a_clipped.x1, a_clipped.y1);
ARM GAS  /tmp/ccrMvAjz.s 			page 5


 202:Drivers/lvgl/src/draw/lv_draw_buf.c ****     uint8_t bpp = lv_color_format_get_bpp(header->cf);
 203:Drivers/lvgl/src/draw/lv_draw_buf.c ****     uint32_t line_length = (lv_area_get_width(&a_clipped) * bpp + 7) >> 3;
 204:Drivers/lvgl/src/draw/lv_draw_buf.c ****     int32_t y;
 205:Drivers/lvgl/src/draw/lv_draw_buf.c ****     for(y = a_clipped.y1; y <= a_clipped.y2; y++) {
 206:Drivers/lvgl/src/draw/lv_draw_buf.c ****         lv_memzero(buf, line_length);
 207:Drivers/lvgl/src/draw/lv_draw_buf.c ****         buf += stride;
 208:Drivers/lvgl/src/draw/lv_draw_buf.c ****     }
 209:Drivers/lvgl/src/draw/lv_draw_buf.c ****     lv_draw_buf_flush_cache(draw_buf, a);
 210:Drivers/lvgl/src/draw/lv_draw_buf.c ****     LV_PROFILER_DRAW_END;
 211:Drivers/lvgl/src/draw/lv_draw_buf.c **** }
 212:Drivers/lvgl/src/draw/lv_draw_buf.c **** 
 213:Drivers/lvgl/src/draw/lv_draw_buf.c **** void lv_draw_buf_copy(lv_draw_buf_t * dest, const lv_area_t * dest_area,
 214:Drivers/lvgl/src/draw/lv_draw_buf.c ****                       const lv_draw_buf_t * src, const lv_area_t * src_area)
 215:Drivers/lvgl/src/draw/lv_draw_buf.c **** {
 216:Drivers/lvgl/src/draw/lv_draw_buf.c ****     LV_PROFILER_DRAW_BEGIN;
 217:Drivers/lvgl/src/draw/lv_draw_buf.c ****     uint8_t * dest_bufc;
 218:Drivers/lvgl/src/draw/lv_draw_buf.c ****     uint8_t * src_bufc;
 219:Drivers/lvgl/src/draw/lv_draw_buf.c ****     int32_t line_width;
 220:Drivers/lvgl/src/draw/lv_draw_buf.c **** 
 221:Drivers/lvgl/src/draw/lv_draw_buf.c ****     /*Source and dest color format must be same. Color conversion is not supported yet.*/
 222:Drivers/lvgl/src/draw/lv_draw_buf.c ****     LV_ASSERT_FORMAT_MSG(dest->header.cf == src->header.cf, "Color format mismatch: %d != %d",
 223:Drivers/lvgl/src/draw/lv_draw_buf.c ****                          dest->header.cf, src->header.cf);
 224:Drivers/lvgl/src/draw/lv_draw_buf.c **** 
 225:Drivers/lvgl/src/draw/lv_draw_buf.c ****     if(dest_area == NULL) line_width = dest->header.w;
 226:Drivers/lvgl/src/draw/lv_draw_buf.c ****     else line_width = lv_area_get_width(dest_area);
 227:Drivers/lvgl/src/draw/lv_draw_buf.c **** 
 228:Drivers/lvgl/src/draw/lv_draw_buf.c ****     /* For indexed image, copy the palette if we are copying full image area*/
 229:Drivers/lvgl/src/draw/lv_draw_buf.c ****     if(dest_area == NULL || src_area == NULL) {
 230:Drivers/lvgl/src/draw/lv_draw_buf.c ****         if(LV_COLOR_FORMAT_IS_INDEXED(dest->header.cf)) {
 231:Drivers/lvgl/src/draw/lv_draw_buf.c ****             lv_memcpy(dest->data, src->data, LV_COLOR_INDEXED_PALETTE_SIZE(dest->header.cf) * sizeo
 232:Drivers/lvgl/src/draw/lv_draw_buf.c ****         }
 233:Drivers/lvgl/src/draw/lv_draw_buf.c ****     }
 234:Drivers/lvgl/src/draw/lv_draw_buf.c **** 
 235:Drivers/lvgl/src/draw/lv_draw_buf.c ****     /*Check source and dest area have same width*/
 236:Drivers/lvgl/src/draw/lv_draw_buf.c ****     if((src_area == NULL && line_width != src->header.w) || \
 237:Drivers/lvgl/src/draw/lv_draw_buf.c ****        (src_area != NULL && line_width != lv_area_get_width(src_area))) {
 238:Drivers/lvgl/src/draw/lv_draw_buf.c ****         LV_ASSERT_MSG(0, "Source and destination areas have different width");
 239:Drivers/lvgl/src/draw/lv_draw_buf.c ****         LV_PROFILER_DRAW_END;
 240:Drivers/lvgl/src/draw/lv_draw_buf.c ****         return;
 241:Drivers/lvgl/src/draw/lv_draw_buf.c ****     }
 242:Drivers/lvgl/src/draw/lv_draw_buf.c **** 
 243:Drivers/lvgl/src/draw/lv_draw_buf.c ****     if(src_area) src_bufc = lv_draw_buf_goto_xy(src, src_area->x1, src_area->y1);
 244:Drivers/lvgl/src/draw/lv_draw_buf.c ****     else src_bufc = lv_draw_buf_goto_xy(src, 0, 0);
 245:Drivers/lvgl/src/draw/lv_draw_buf.c **** 
 246:Drivers/lvgl/src/draw/lv_draw_buf.c ****     if(dest_area) dest_bufc = lv_draw_buf_goto_xy(dest, dest_area->x1, dest_area->y1);
 247:Drivers/lvgl/src/draw/lv_draw_buf.c ****     else dest_bufc = lv_draw_buf_goto_xy(dest, 0, 0);
 248:Drivers/lvgl/src/draw/lv_draw_buf.c **** 
 249:Drivers/lvgl/src/draw/lv_draw_buf.c ****     int32_t start_y, end_y;
 250:Drivers/lvgl/src/draw/lv_draw_buf.c ****     if(dest_area) {
 251:Drivers/lvgl/src/draw/lv_draw_buf.c ****         start_y = dest_area->y1;
 252:Drivers/lvgl/src/draw/lv_draw_buf.c ****         end_y = dest_area->y2;
 253:Drivers/lvgl/src/draw/lv_draw_buf.c ****     }
 254:Drivers/lvgl/src/draw/lv_draw_buf.c ****     else {
 255:Drivers/lvgl/src/draw/lv_draw_buf.c ****         start_y = 0;
 256:Drivers/lvgl/src/draw/lv_draw_buf.c ****         end_y = dest->header.h - 1;
 257:Drivers/lvgl/src/draw/lv_draw_buf.c ****     }
 258:Drivers/lvgl/src/draw/lv_draw_buf.c **** 
ARM GAS  /tmp/ccrMvAjz.s 			page 6


 259:Drivers/lvgl/src/draw/lv_draw_buf.c ****     uint32_t dest_stride = dest->header.stride;
 260:Drivers/lvgl/src/draw/lv_draw_buf.c ****     uint32_t src_stride = src->header.stride;
 261:Drivers/lvgl/src/draw/lv_draw_buf.c ****     uint32_t line_bytes = (line_width * lv_color_format_get_bpp(dest->header.cf) + 7) >> 3;
 262:Drivers/lvgl/src/draw/lv_draw_buf.c **** 
 263:Drivers/lvgl/src/draw/lv_draw_buf.c ****     for(; start_y <= end_y; start_y++) {
 264:Drivers/lvgl/src/draw/lv_draw_buf.c ****         lv_memcpy(dest_bufc, src_bufc, line_bytes);
 265:Drivers/lvgl/src/draw/lv_draw_buf.c ****         dest_bufc += dest_stride;
 266:Drivers/lvgl/src/draw/lv_draw_buf.c ****         src_bufc += src_stride;
 267:Drivers/lvgl/src/draw/lv_draw_buf.c ****     }
 268:Drivers/lvgl/src/draw/lv_draw_buf.c ****     LV_PROFILER_DRAW_END;
 269:Drivers/lvgl/src/draw/lv_draw_buf.c **** }
 270:Drivers/lvgl/src/draw/lv_draw_buf.c **** 
 271:Drivers/lvgl/src/draw/lv_draw_buf.c **** lv_result_t lv_draw_buf_init(lv_draw_buf_t * draw_buf, uint32_t w, uint32_t h, lv_color_format_t cf
 272:Drivers/lvgl/src/draw/lv_draw_buf.c ****                              void * data, uint32_t data_size)
 273:Drivers/lvgl/src/draw/lv_draw_buf.c **** {
 274:Drivers/lvgl/src/draw/lv_draw_buf.c ****     LV_ASSERT_NULL(draw_buf);
 275:Drivers/lvgl/src/draw/lv_draw_buf.c ****     if(draw_buf == NULL) return LV_RESULT_INVALID;
 276:Drivers/lvgl/src/draw/lv_draw_buf.c **** 
 277:Drivers/lvgl/src/draw/lv_draw_buf.c ****     lv_memzero(draw_buf, sizeof(lv_draw_buf_t));
 278:Drivers/lvgl/src/draw/lv_draw_buf.c ****     if(stride == 0) stride = lv_draw_buf_width_to_stride(w, cf);
 279:Drivers/lvgl/src/draw/lv_draw_buf.c ****     if(stride * h > data_size) {
 280:Drivers/lvgl/src/draw/lv_draw_buf.c ****         LV_LOG_WARN("Data size too small, required: %" LV_PRId32 ", provided: %" LV_PRId32, stride 
 281:Drivers/lvgl/src/draw/lv_draw_buf.c ****                     data_size);
 282:Drivers/lvgl/src/draw/lv_draw_buf.c ****         return LV_RESULT_INVALID;
 283:Drivers/lvgl/src/draw/lv_draw_buf.c ****     }
 284:Drivers/lvgl/src/draw/lv_draw_buf.c **** 
 285:Drivers/lvgl/src/draw/lv_draw_buf.c ****     lv_image_header_t * header = &draw_buf->header;
 286:Drivers/lvgl/src/draw/lv_draw_buf.c ****     header->w = w;
 287:Drivers/lvgl/src/draw/lv_draw_buf.c ****     header->h = h;
 288:Drivers/lvgl/src/draw/lv_draw_buf.c ****     header->cf = cf;
 289:Drivers/lvgl/src/draw/lv_draw_buf.c ****     header->stride = stride;
 290:Drivers/lvgl/src/draw/lv_draw_buf.c ****     header->flags = 0;
 291:Drivers/lvgl/src/draw/lv_draw_buf.c ****     header->magic = LV_IMAGE_HEADER_MAGIC;
 292:Drivers/lvgl/src/draw/lv_draw_buf.c **** 
 293:Drivers/lvgl/src/draw/lv_draw_buf.c ****     draw_buf->data = data;
 294:Drivers/lvgl/src/draw/lv_draw_buf.c ****     draw_buf->unaligned_data = data;
 295:Drivers/lvgl/src/draw/lv_draw_buf.c ****     draw_buf->handlers = &default_handlers;
 296:Drivers/lvgl/src/draw/lv_draw_buf.c ****     draw_buf->data_size = data_size;
 297:Drivers/lvgl/src/draw/lv_draw_buf.c ****     if(lv_draw_buf_align(data, cf) != draw_buf->unaligned_data) {
 298:Drivers/lvgl/src/draw/lv_draw_buf.c ****         LV_LOG_WARN("Data is not aligned, ignored");
 299:Drivers/lvgl/src/draw/lv_draw_buf.c ****     }
 300:Drivers/lvgl/src/draw/lv_draw_buf.c ****     return LV_RESULT_OK;
 301:Drivers/lvgl/src/draw/lv_draw_buf.c **** }
 302:Drivers/lvgl/src/draw/lv_draw_buf.c **** 
 303:Drivers/lvgl/src/draw/lv_draw_buf.c **** lv_draw_buf_t * lv_draw_buf_create(uint32_t w, uint32_t h, lv_color_format_t cf, uint32_t stride)
 304:Drivers/lvgl/src/draw/lv_draw_buf.c **** {
 305:Drivers/lvgl/src/draw/lv_draw_buf.c ****     return lv_draw_buf_create_ex(&default_handlers, w, h, cf, stride);
 306:Drivers/lvgl/src/draw/lv_draw_buf.c **** }
 307:Drivers/lvgl/src/draw/lv_draw_buf.c **** 
 308:Drivers/lvgl/src/draw/lv_draw_buf.c **** lv_draw_buf_t * lv_draw_buf_create_ex(const lv_draw_buf_handlers_t * handlers, uint32_t w, uint32_t
 309:Drivers/lvgl/src/draw/lv_draw_buf.c ****                                       lv_color_format_t cf, uint32_t stride)
 310:Drivers/lvgl/src/draw/lv_draw_buf.c **** {
 311:Drivers/lvgl/src/draw/lv_draw_buf.c ****     LV_PROFILER_DRAW_BEGIN;
 312:Drivers/lvgl/src/draw/lv_draw_buf.c ****     lv_draw_buf_t * draw_buf = lv_malloc_zeroed(sizeof(lv_draw_buf_t));
 313:Drivers/lvgl/src/draw/lv_draw_buf.c ****     LV_ASSERT_MALLOC(draw_buf);
 314:Drivers/lvgl/src/draw/lv_draw_buf.c ****     if(draw_buf == NULL) {
 315:Drivers/lvgl/src/draw/lv_draw_buf.c ****         LV_PROFILER_DRAW_END;
ARM GAS  /tmp/ccrMvAjz.s 			page 7


 316:Drivers/lvgl/src/draw/lv_draw_buf.c ****         return NULL;
 317:Drivers/lvgl/src/draw/lv_draw_buf.c ****     }
 318:Drivers/lvgl/src/draw/lv_draw_buf.c ****     if(stride == 0) stride = lv_draw_buf_width_to_stride(w, cf);
 319:Drivers/lvgl/src/draw/lv_draw_buf.c **** 
 320:Drivers/lvgl/src/draw/lv_draw_buf.c ****     uint32_t size = _calculate_draw_buf_size(w, h, cf, stride);
 321:Drivers/lvgl/src/draw/lv_draw_buf.c **** 
 322:Drivers/lvgl/src/draw/lv_draw_buf.c ****     void * buf = draw_buf_malloc(handlers, size, cf);
 323:Drivers/lvgl/src/draw/lv_draw_buf.c ****     /*Do not assert here as LVGL or the app might just want to try creating a draw_buf*/
 324:Drivers/lvgl/src/draw/lv_draw_buf.c ****     if(buf == NULL) {
 325:Drivers/lvgl/src/draw/lv_draw_buf.c ****         LV_LOG_WARN("No memory: %"LV_PRIu32"x%"LV_PRIu32", cf: %d, stride: %"LV_PRIu32", %"LV_PRIu3
 326:Drivers/lvgl/src/draw/lv_draw_buf.c ****                     w, h, cf, stride, size);
 327:Drivers/lvgl/src/draw/lv_draw_buf.c ****         lv_free(draw_buf);
 328:Drivers/lvgl/src/draw/lv_draw_buf.c ****         LV_PROFILER_DRAW_END;
 329:Drivers/lvgl/src/draw/lv_draw_buf.c ****         return NULL;
 330:Drivers/lvgl/src/draw/lv_draw_buf.c ****     }
 331:Drivers/lvgl/src/draw/lv_draw_buf.c **** 
 332:Drivers/lvgl/src/draw/lv_draw_buf.c ****     draw_buf->header.w = w;
 333:Drivers/lvgl/src/draw/lv_draw_buf.c ****     draw_buf->header.h = h;
 334:Drivers/lvgl/src/draw/lv_draw_buf.c ****     draw_buf->header.cf = cf;
 335:Drivers/lvgl/src/draw/lv_draw_buf.c ****     draw_buf->header.flags = LV_IMAGE_FLAGS_MODIFIABLE | LV_IMAGE_FLAGS_ALLOCATED;
 336:Drivers/lvgl/src/draw/lv_draw_buf.c ****     draw_buf->header.stride = stride;
 337:Drivers/lvgl/src/draw/lv_draw_buf.c ****     draw_buf->header.magic = LV_IMAGE_HEADER_MAGIC;
 338:Drivers/lvgl/src/draw/lv_draw_buf.c ****     draw_buf->data = lv_draw_buf_align(buf, cf);
 339:Drivers/lvgl/src/draw/lv_draw_buf.c ****     draw_buf->unaligned_data = buf;
 340:Drivers/lvgl/src/draw/lv_draw_buf.c ****     draw_buf->data_size = size;
 341:Drivers/lvgl/src/draw/lv_draw_buf.c ****     draw_buf->handlers = handlers;
 342:Drivers/lvgl/src/draw/lv_draw_buf.c ****     LV_PROFILER_DRAW_END;
 343:Drivers/lvgl/src/draw/lv_draw_buf.c ****     return draw_buf;
 344:Drivers/lvgl/src/draw/lv_draw_buf.c **** }
 345:Drivers/lvgl/src/draw/lv_draw_buf.c **** 
 346:Drivers/lvgl/src/draw/lv_draw_buf.c **** lv_draw_buf_t * lv_draw_buf_dup(const lv_draw_buf_t * draw_buf)
 347:Drivers/lvgl/src/draw/lv_draw_buf.c **** {
 348:Drivers/lvgl/src/draw/lv_draw_buf.c ****     return lv_draw_buf_dup_ex(&default_handlers, draw_buf);
 349:Drivers/lvgl/src/draw/lv_draw_buf.c **** }
 350:Drivers/lvgl/src/draw/lv_draw_buf.c **** 
 351:Drivers/lvgl/src/draw/lv_draw_buf.c **** lv_draw_buf_t * lv_draw_buf_dup_ex(const lv_draw_buf_handlers_t * handlers, const lv_draw_buf_t * d
 352:Drivers/lvgl/src/draw/lv_draw_buf.c **** {
 353:Drivers/lvgl/src/draw/lv_draw_buf.c ****     LV_PROFILER_DRAW_BEGIN;
 354:Drivers/lvgl/src/draw/lv_draw_buf.c ****     const lv_image_header_t * header = &draw_buf->header;
 355:Drivers/lvgl/src/draw/lv_draw_buf.c ****     lv_draw_buf_t * new_buf = lv_draw_buf_create_ex(handlers, header->w, header->h, header->cf, hea
 356:Drivers/lvgl/src/draw/lv_draw_buf.c ****     if(new_buf == NULL) {
 357:Drivers/lvgl/src/draw/lv_draw_buf.c ****         LV_PROFILER_DRAW_END;
 358:Drivers/lvgl/src/draw/lv_draw_buf.c ****         return NULL;
 359:Drivers/lvgl/src/draw/lv_draw_buf.c ****     }
 360:Drivers/lvgl/src/draw/lv_draw_buf.c **** 
 361:Drivers/lvgl/src/draw/lv_draw_buf.c ****     new_buf->header.flags = draw_buf->header.flags;
 362:Drivers/lvgl/src/draw/lv_draw_buf.c ****     new_buf->header.flags |= LV_IMAGE_FLAGS_MODIFIABLE | LV_IMAGE_FLAGS_ALLOCATED;
 363:Drivers/lvgl/src/draw/lv_draw_buf.c **** 
 364:Drivers/lvgl/src/draw/lv_draw_buf.c ****     /*Choose the smaller size to copy*/
 365:Drivers/lvgl/src/draw/lv_draw_buf.c ****     uint32_t size = LV_MIN(draw_buf->data_size, new_buf->data_size);
 366:Drivers/lvgl/src/draw/lv_draw_buf.c **** 
 367:Drivers/lvgl/src/draw/lv_draw_buf.c ****     /*Copy image data*/
 368:Drivers/lvgl/src/draw/lv_draw_buf.c ****     lv_memcpy(new_buf->data, draw_buf->data, size);
 369:Drivers/lvgl/src/draw/lv_draw_buf.c ****     LV_PROFILER_DRAW_END;
 370:Drivers/lvgl/src/draw/lv_draw_buf.c ****     return new_buf;
 371:Drivers/lvgl/src/draw/lv_draw_buf.c **** }
 372:Drivers/lvgl/src/draw/lv_draw_buf.c **** 
ARM GAS  /tmp/ccrMvAjz.s 			page 8


 373:Drivers/lvgl/src/draw/lv_draw_buf.c **** lv_draw_buf_t * lv_draw_buf_reshape(lv_draw_buf_t * draw_buf, lv_color_format_t cf, uint32_t w, uin
 374:Drivers/lvgl/src/draw/lv_draw_buf.c ****                                     uint32_t stride)
 375:Drivers/lvgl/src/draw/lv_draw_buf.c **** {
 376:Drivers/lvgl/src/draw/lv_draw_buf.c ****     if(draw_buf == NULL) return NULL;
 377:Drivers/lvgl/src/draw/lv_draw_buf.c ****     LV_PROFILER_DRAW_BEGIN;
 378:Drivers/lvgl/src/draw/lv_draw_buf.c **** 
 379:Drivers/lvgl/src/draw/lv_draw_buf.c ****     /*If color format is unknown, keep using the original color format.*/
 380:Drivers/lvgl/src/draw/lv_draw_buf.c ****     if(cf == LV_COLOR_FORMAT_UNKNOWN) cf = draw_buf->header.cf;
 381:Drivers/lvgl/src/draw/lv_draw_buf.c ****     if(stride == 0) stride = lv_draw_buf_width_to_stride(w, cf);
 382:Drivers/lvgl/src/draw/lv_draw_buf.c **** 
 383:Drivers/lvgl/src/draw/lv_draw_buf.c ****     uint32_t size = _calculate_draw_buf_size(w, h, cf, stride);
 384:Drivers/lvgl/src/draw/lv_draw_buf.c **** 
 385:Drivers/lvgl/src/draw/lv_draw_buf.c ****     if(size > draw_buf->data_size) {
 386:Drivers/lvgl/src/draw/lv_draw_buf.c ****         LV_LOG_TRACE("Draw buf too small for new shape");
 387:Drivers/lvgl/src/draw/lv_draw_buf.c ****         LV_PROFILER_DRAW_END;
 388:Drivers/lvgl/src/draw/lv_draw_buf.c ****         return NULL;
 389:Drivers/lvgl/src/draw/lv_draw_buf.c ****     }
 390:Drivers/lvgl/src/draw/lv_draw_buf.c **** 
 391:Drivers/lvgl/src/draw/lv_draw_buf.c ****     draw_buf->header.cf = cf;
 392:Drivers/lvgl/src/draw/lv_draw_buf.c ****     draw_buf->header.w = w;
 393:Drivers/lvgl/src/draw/lv_draw_buf.c ****     draw_buf->header.h = h;
 394:Drivers/lvgl/src/draw/lv_draw_buf.c ****     draw_buf->header.stride = stride;
 395:Drivers/lvgl/src/draw/lv_draw_buf.c **** 
 396:Drivers/lvgl/src/draw/lv_draw_buf.c ****     LV_PROFILER_DRAW_END;
 397:Drivers/lvgl/src/draw/lv_draw_buf.c ****     return draw_buf;
 398:Drivers/lvgl/src/draw/lv_draw_buf.c **** }
 399:Drivers/lvgl/src/draw/lv_draw_buf.c **** 
 400:Drivers/lvgl/src/draw/lv_draw_buf.c **** void lv_draw_buf_destroy(lv_draw_buf_t * draw_buf)
 401:Drivers/lvgl/src/draw/lv_draw_buf.c **** {
 402:Drivers/lvgl/src/draw/lv_draw_buf.c ****     LV_ASSERT_NULL(draw_buf);
 403:Drivers/lvgl/src/draw/lv_draw_buf.c ****     if(draw_buf == NULL) return;
 404:Drivers/lvgl/src/draw/lv_draw_buf.c ****     LV_PROFILER_DRAW_BEGIN;
 405:Drivers/lvgl/src/draw/lv_draw_buf.c **** 
 406:Drivers/lvgl/src/draw/lv_draw_buf.c ****     if(draw_buf->header.flags & LV_IMAGE_FLAGS_ALLOCATED) {
 407:Drivers/lvgl/src/draw/lv_draw_buf.c ****         LV_ASSERT_NULL(draw_buf->handlers);
 408:Drivers/lvgl/src/draw/lv_draw_buf.c **** 
 409:Drivers/lvgl/src/draw/lv_draw_buf.c ****         const lv_draw_buf_handlers_t * handlers = draw_buf->handlers;
 410:Drivers/lvgl/src/draw/lv_draw_buf.c ****         draw_buf_free(handlers, draw_buf->unaligned_data);
 411:Drivers/lvgl/src/draw/lv_draw_buf.c ****         lv_free(draw_buf);
 412:Drivers/lvgl/src/draw/lv_draw_buf.c ****     }
 413:Drivers/lvgl/src/draw/lv_draw_buf.c ****     else {
 414:Drivers/lvgl/src/draw/lv_draw_buf.c ****         LV_LOG_ERROR("draw buffer is not allocated, ignored");
 415:Drivers/lvgl/src/draw/lv_draw_buf.c ****     }
 416:Drivers/lvgl/src/draw/lv_draw_buf.c ****     LV_PROFILER_DRAW_END;
 417:Drivers/lvgl/src/draw/lv_draw_buf.c **** }
 418:Drivers/lvgl/src/draw/lv_draw_buf.c **** 
 419:Drivers/lvgl/src/draw/lv_draw_buf.c **** void * lv_draw_buf_goto_xy(const lv_draw_buf_t * buf, uint32_t x, uint32_t y)
 420:Drivers/lvgl/src/draw/lv_draw_buf.c **** {
 421:Drivers/lvgl/src/draw/lv_draw_buf.c ****     LV_ASSERT_NULL(buf);
 422:Drivers/lvgl/src/draw/lv_draw_buf.c ****     if(buf == NULL) return NULL;
 423:Drivers/lvgl/src/draw/lv_draw_buf.c **** 
 424:Drivers/lvgl/src/draw/lv_draw_buf.c ****     uint8_t * data = buf->data;
 425:Drivers/lvgl/src/draw/lv_draw_buf.c **** 
 426:Drivers/lvgl/src/draw/lv_draw_buf.c ****     /*Skip palette*/
 427:Drivers/lvgl/src/draw/lv_draw_buf.c ****     data += LV_COLOR_INDEXED_PALETTE_SIZE(buf->header.cf) * sizeof(lv_color32_t);
 428:Drivers/lvgl/src/draw/lv_draw_buf.c ****     data += buf->header.stride * y;
 429:Drivers/lvgl/src/draw/lv_draw_buf.c **** 
ARM GAS  /tmp/ccrMvAjz.s 			page 9


 430:Drivers/lvgl/src/draw/lv_draw_buf.c ****     if(x == 0) return data;
 431:Drivers/lvgl/src/draw/lv_draw_buf.c **** 
 432:Drivers/lvgl/src/draw/lv_draw_buf.c ****     return data + x * lv_color_format_get_bpp(buf->header.cf) / 8;
 433:Drivers/lvgl/src/draw/lv_draw_buf.c **** }
 434:Drivers/lvgl/src/draw/lv_draw_buf.c **** 
 435:Drivers/lvgl/src/draw/lv_draw_buf.c **** lv_result_t lv_draw_buf_adjust_stride(lv_draw_buf_t * src, uint32_t stride)
 436:Drivers/lvgl/src/draw/lv_draw_buf.c **** {
 437:Drivers/lvgl/src/draw/lv_draw_buf.c ****     LV_ASSERT_NULL(src);
 438:Drivers/lvgl/src/draw/lv_draw_buf.c ****     LV_ASSERT_NULL(src->data);
 439:Drivers/lvgl/src/draw/lv_draw_buf.c ****     if(src == NULL) return LV_RESULT_INVALID;
 440:Drivers/lvgl/src/draw/lv_draw_buf.c ****     if(src->data == NULL) return LV_RESULT_INVALID;
 441:Drivers/lvgl/src/draw/lv_draw_buf.c ****     LV_PROFILER_DRAW_BEGIN;
 442:Drivers/lvgl/src/draw/lv_draw_buf.c **** 
 443:Drivers/lvgl/src/draw/lv_draw_buf.c ****     const lv_image_header_t * header = &src->header;
 444:Drivers/lvgl/src/draw/lv_draw_buf.c ****     uint32_t w = header->w;
 445:Drivers/lvgl/src/draw/lv_draw_buf.c ****     uint32_t h = header->h;
 446:Drivers/lvgl/src/draw/lv_draw_buf.c **** 
 447:Drivers/lvgl/src/draw/lv_draw_buf.c ****     if(!lv_draw_buf_has_flag(src, LV_IMAGE_FLAGS_MODIFIABLE)) {
 448:Drivers/lvgl/src/draw/lv_draw_buf.c ****         LV_PROFILER_DRAW_END;
 449:Drivers/lvgl/src/draw/lv_draw_buf.c ****         return LV_RESULT_INVALID;
 450:Drivers/lvgl/src/draw/lv_draw_buf.c ****     }
 451:Drivers/lvgl/src/draw/lv_draw_buf.c **** 
 452:Drivers/lvgl/src/draw/lv_draw_buf.c ****     /*Use global stride*/
 453:Drivers/lvgl/src/draw/lv_draw_buf.c ****     if(stride == 0) stride = lv_draw_buf_width_to_stride(w, header->cf);
 454:Drivers/lvgl/src/draw/lv_draw_buf.c **** 
 455:Drivers/lvgl/src/draw/lv_draw_buf.c ****     /*Check if stride already match*/
 456:Drivers/lvgl/src/draw/lv_draw_buf.c ****     if(header->stride == stride) {
 457:Drivers/lvgl/src/draw/lv_draw_buf.c ****         LV_PROFILER_DRAW_END;
 458:Drivers/lvgl/src/draw/lv_draw_buf.c ****         return LV_RESULT_OK;
 459:Drivers/lvgl/src/draw/lv_draw_buf.c ****     }
 460:Drivers/lvgl/src/draw/lv_draw_buf.c **** 
 461:Drivers/lvgl/src/draw/lv_draw_buf.c ****     /*Calculate the minimal stride allowed from bpp*/
 462:Drivers/lvgl/src/draw/lv_draw_buf.c ****     uint32_t bpp = lv_color_format_get_bpp(header->cf);
 463:Drivers/lvgl/src/draw/lv_draw_buf.c ****     uint32_t min_stride = (w * bpp + 7) >> 3;
 464:Drivers/lvgl/src/draw/lv_draw_buf.c ****     if(stride < min_stride) {
 465:Drivers/lvgl/src/draw/lv_draw_buf.c ****         LV_LOG_WARN("New stride is too small. min: %" LV_PRId32, min_stride);
 466:Drivers/lvgl/src/draw/lv_draw_buf.c ****         LV_PROFILER_DRAW_END;
 467:Drivers/lvgl/src/draw/lv_draw_buf.c ****         return LV_RESULT_INVALID;
 468:Drivers/lvgl/src/draw/lv_draw_buf.c ****     }
 469:Drivers/lvgl/src/draw/lv_draw_buf.c **** 
 470:Drivers/lvgl/src/draw/lv_draw_buf.c ****     /*Check if buffer has enough space. */
 471:Drivers/lvgl/src/draw/lv_draw_buf.c ****     uint32_t new_size = _calculate_draw_buf_size(w, h, header->cf, stride);
 472:Drivers/lvgl/src/draw/lv_draw_buf.c ****     if(new_size > src->data_size) {
 473:Drivers/lvgl/src/draw/lv_draw_buf.c ****         LV_PROFILER_DRAW_END;
 474:Drivers/lvgl/src/draw/lv_draw_buf.c ****         return LV_RESULT_INVALID;
 475:Drivers/lvgl/src/draw/lv_draw_buf.c ****     }
 476:Drivers/lvgl/src/draw/lv_draw_buf.c **** 
 477:Drivers/lvgl/src/draw/lv_draw_buf.c ****     uint32_t offset = LV_COLOR_INDEXED_PALETTE_SIZE(header->cf) * 4;
 478:Drivers/lvgl/src/draw/lv_draw_buf.c **** 
 479:Drivers/lvgl/src/draw/lv_draw_buf.c ****     if(stride > header->stride) {
 480:Drivers/lvgl/src/draw/lv_draw_buf.c ****         /*Copy from the last line to the first*/
 481:Drivers/lvgl/src/draw/lv_draw_buf.c ****         uint8_t * src_data = src->data + offset + header->stride * (h - 1);
 482:Drivers/lvgl/src/draw/lv_draw_buf.c ****         uint8_t * dst_data = src->data + offset + stride * (h - 1);
 483:Drivers/lvgl/src/draw/lv_draw_buf.c ****         for(uint32_t y = 0; y < h; y++) {
 484:Drivers/lvgl/src/draw/lv_draw_buf.c ****             lv_memmove(dst_data, src_data, min_stride);
 485:Drivers/lvgl/src/draw/lv_draw_buf.c ****             src_data -= header->stride;
 486:Drivers/lvgl/src/draw/lv_draw_buf.c ****             dst_data -= stride;
ARM GAS  /tmp/ccrMvAjz.s 			page 10


 487:Drivers/lvgl/src/draw/lv_draw_buf.c ****         }
 488:Drivers/lvgl/src/draw/lv_draw_buf.c ****     }
 489:Drivers/lvgl/src/draw/lv_draw_buf.c ****     else {
 490:Drivers/lvgl/src/draw/lv_draw_buf.c ****         /*Copy from the first line to the last*/
 491:Drivers/lvgl/src/draw/lv_draw_buf.c ****         uint8_t * src_data = src->data + offset;
 492:Drivers/lvgl/src/draw/lv_draw_buf.c ****         uint8_t * dst_data = src->data + offset;
 493:Drivers/lvgl/src/draw/lv_draw_buf.c ****         for(uint32_t y = 0; y < h; y++) {
 494:Drivers/lvgl/src/draw/lv_draw_buf.c ****             lv_memmove(dst_data, src_data, min_stride);
 495:Drivers/lvgl/src/draw/lv_draw_buf.c ****             src_data += header->stride;
 496:Drivers/lvgl/src/draw/lv_draw_buf.c ****             dst_data += stride;
 497:Drivers/lvgl/src/draw/lv_draw_buf.c ****         }
 498:Drivers/lvgl/src/draw/lv_draw_buf.c ****     }
 499:Drivers/lvgl/src/draw/lv_draw_buf.c **** 
 500:Drivers/lvgl/src/draw/lv_draw_buf.c ****     src->header.stride = stride;
 501:Drivers/lvgl/src/draw/lv_draw_buf.c **** 
 502:Drivers/lvgl/src/draw/lv_draw_buf.c ****     LV_PROFILER_DRAW_END;
 503:Drivers/lvgl/src/draw/lv_draw_buf.c ****     return LV_RESULT_OK;
 504:Drivers/lvgl/src/draw/lv_draw_buf.c **** }
 505:Drivers/lvgl/src/draw/lv_draw_buf.c **** 
 506:Drivers/lvgl/src/draw/lv_draw_buf.c **** lv_result_t lv_draw_buf_premultiply(lv_draw_buf_t * draw_buf)
 507:Drivers/lvgl/src/draw/lv_draw_buf.c **** {
 508:Drivers/lvgl/src/draw/lv_draw_buf.c ****     LV_ASSERT_NULL(draw_buf);
 509:Drivers/lvgl/src/draw/lv_draw_buf.c ****     if(draw_buf == NULL) return LV_RESULT_INVALID;
 510:Drivers/lvgl/src/draw/lv_draw_buf.c **** 
 511:Drivers/lvgl/src/draw/lv_draw_buf.c ****     if(draw_buf->header.flags & LV_IMAGE_FLAGS_PREMULTIPLIED) return LV_RESULT_INVALID;
 512:Drivers/lvgl/src/draw/lv_draw_buf.c ****     if((draw_buf->header.flags & LV_IMAGE_FLAGS_MODIFIABLE) == 0) {
 513:Drivers/lvgl/src/draw/lv_draw_buf.c ****         LV_LOG_WARN("draw buf is not modifiable: 0x%04x", draw_buf->header.flags);
 514:Drivers/lvgl/src/draw/lv_draw_buf.c ****         return LV_RESULT_INVALID;
 515:Drivers/lvgl/src/draw/lv_draw_buf.c ****     }
 516:Drivers/lvgl/src/draw/lv_draw_buf.c ****     LV_PROFILER_DRAW_BEGIN;
 517:Drivers/lvgl/src/draw/lv_draw_buf.c **** 
 518:Drivers/lvgl/src/draw/lv_draw_buf.c ****     /*Premultiply color with alpha, do case by case by judging color format*/
 519:Drivers/lvgl/src/draw/lv_draw_buf.c ****     lv_color_format_t cf = draw_buf->header.cf;
 520:Drivers/lvgl/src/draw/lv_draw_buf.c ****     if(LV_COLOR_FORMAT_IS_INDEXED(cf)) {
 521:Drivers/lvgl/src/draw/lv_draw_buf.c ****         int size = LV_COLOR_INDEXED_PALETTE_SIZE(cf);
 522:Drivers/lvgl/src/draw/lv_draw_buf.c ****         lv_color32_t * palette = (lv_color32_t *)draw_buf->data;
 523:Drivers/lvgl/src/draw/lv_draw_buf.c ****         for(int i = 0; i < size; i++) {
 524:Drivers/lvgl/src/draw/lv_draw_buf.c ****             lv_color_premultiply(&palette[i]);
 525:Drivers/lvgl/src/draw/lv_draw_buf.c ****         }
 526:Drivers/lvgl/src/draw/lv_draw_buf.c ****     }
 527:Drivers/lvgl/src/draw/lv_draw_buf.c ****     else if(cf == LV_COLOR_FORMAT_ARGB8888) {
 528:Drivers/lvgl/src/draw/lv_draw_buf.c ****         uint32_t h = draw_buf->header.h;
 529:Drivers/lvgl/src/draw/lv_draw_buf.c ****         uint32_t w = draw_buf->header.w;
 530:Drivers/lvgl/src/draw/lv_draw_buf.c ****         uint32_t stride = draw_buf->header.stride;
 531:Drivers/lvgl/src/draw/lv_draw_buf.c ****         uint8_t * line = (uint8_t *)draw_buf->data;
 532:Drivers/lvgl/src/draw/lv_draw_buf.c ****         for(uint32_t y = 0; y < h; y++) {
 533:Drivers/lvgl/src/draw/lv_draw_buf.c ****             lv_color32_t * pixel = (lv_color32_t *)line;
 534:Drivers/lvgl/src/draw/lv_draw_buf.c ****             for(uint32_t x = 0; x < w; x++) {
 535:Drivers/lvgl/src/draw/lv_draw_buf.c ****                 lv_color_premultiply(pixel);
 536:Drivers/lvgl/src/draw/lv_draw_buf.c ****                 pixel++;
 537:Drivers/lvgl/src/draw/lv_draw_buf.c ****             }
 538:Drivers/lvgl/src/draw/lv_draw_buf.c ****             line += stride;
 539:Drivers/lvgl/src/draw/lv_draw_buf.c ****         }
 540:Drivers/lvgl/src/draw/lv_draw_buf.c ****     }
 541:Drivers/lvgl/src/draw/lv_draw_buf.c ****     else if(cf == LV_COLOR_FORMAT_RGB565A8) {
 542:Drivers/lvgl/src/draw/lv_draw_buf.c ****         uint32_t h = draw_buf->header.h;
 543:Drivers/lvgl/src/draw/lv_draw_buf.c ****         uint32_t w = draw_buf->header.w;
ARM GAS  /tmp/ccrMvAjz.s 			page 11


 544:Drivers/lvgl/src/draw/lv_draw_buf.c ****         uint32_t stride = draw_buf->header.stride;
 545:Drivers/lvgl/src/draw/lv_draw_buf.c ****         uint32_t alpha_stride = stride / 2;
 546:Drivers/lvgl/src/draw/lv_draw_buf.c ****         uint8_t * line = (uint8_t *)draw_buf->data;
 547:Drivers/lvgl/src/draw/lv_draw_buf.c ****         lv_opa_t * alpha = (lv_opa_t *)(line + stride * h);
 548:Drivers/lvgl/src/draw/lv_draw_buf.c ****         for(uint32_t y = 0; y < h; y++) {
 549:Drivers/lvgl/src/draw/lv_draw_buf.c ****             lv_color16_t * pixel = (lv_color16_t *)line;
 550:Drivers/lvgl/src/draw/lv_draw_buf.c ****             for(uint32_t x = 0; x < w; x++) {
 551:Drivers/lvgl/src/draw/lv_draw_buf.c ****                 lv_color16_premultiply(pixel, alpha[x]);
 552:Drivers/lvgl/src/draw/lv_draw_buf.c ****                 pixel++;
 553:Drivers/lvgl/src/draw/lv_draw_buf.c ****             }
 554:Drivers/lvgl/src/draw/lv_draw_buf.c ****             line += stride;
 555:Drivers/lvgl/src/draw/lv_draw_buf.c ****             alpha += alpha_stride;
 556:Drivers/lvgl/src/draw/lv_draw_buf.c ****         }
 557:Drivers/lvgl/src/draw/lv_draw_buf.c ****     }
 558:Drivers/lvgl/src/draw/lv_draw_buf.c ****     else if(cf == LV_COLOR_FORMAT_ARGB8565) {
 559:Drivers/lvgl/src/draw/lv_draw_buf.c ****         uint32_t h = draw_buf->header.h;
 560:Drivers/lvgl/src/draw/lv_draw_buf.c ****         uint32_t w = draw_buf->header.w;
 561:Drivers/lvgl/src/draw/lv_draw_buf.c ****         uint32_t stride = draw_buf->header.stride;
 562:Drivers/lvgl/src/draw/lv_draw_buf.c ****         uint8_t * line = (uint8_t *)draw_buf->data;
 563:Drivers/lvgl/src/draw/lv_draw_buf.c ****         for(uint32_t y = 0; y < h; y++) {
 564:Drivers/lvgl/src/draw/lv_draw_buf.c ****             uint8_t * pixel = line;
 565:Drivers/lvgl/src/draw/lv_draw_buf.c ****             for(uint32_t x = 0; x < w; x++) {
 566:Drivers/lvgl/src/draw/lv_draw_buf.c ****                 uint8_t alpha = pixel[2];
 567:Drivers/lvgl/src/draw/lv_draw_buf.c ****                 lv_color16_premultiply((lv_color16_t *)pixel, alpha);
 568:Drivers/lvgl/src/draw/lv_draw_buf.c ****                 pixel += 3;
 569:Drivers/lvgl/src/draw/lv_draw_buf.c ****             }
 570:Drivers/lvgl/src/draw/lv_draw_buf.c ****             line += stride;
 571:Drivers/lvgl/src/draw/lv_draw_buf.c ****         }
 572:Drivers/lvgl/src/draw/lv_draw_buf.c ****     }
 573:Drivers/lvgl/src/draw/lv_draw_buf.c ****     else if(LV_COLOR_FORMAT_IS_ALPHA_ONLY(cf)) {
 574:Drivers/lvgl/src/draw/lv_draw_buf.c ****         /*Pass*/
 575:Drivers/lvgl/src/draw/lv_draw_buf.c ****     }
 576:Drivers/lvgl/src/draw/lv_draw_buf.c ****     else {
 577:Drivers/lvgl/src/draw/lv_draw_buf.c ****         LV_LOG_WARN("draw buf has no alpha, cf: %d", cf);
 578:Drivers/lvgl/src/draw/lv_draw_buf.c ****     }
 579:Drivers/lvgl/src/draw/lv_draw_buf.c **** 
 580:Drivers/lvgl/src/draw/lv_draw_buf.c ****     draw_buf->header.flags |= LV_IMAGE_FLAGS_PREMULTIPLIED;
 581:Drivers/lvgl/src/draw/lv_draw_buf.c **** 
 582:Drivers/lvgl/src/draw/lv_draw_buf.c ****     LV_PROFILER_DRAW_END;
 583:Drivers/lvgl/src/draw/lv_draw_buf.c ****     return LV_RESULT_OK;
 584:Drivers/lvgl/src/draw/lv_draw_buf.c **** }
 585:Drivers/lvgl/src/draw/lv_draw_buf.c **** 
 586:Drivers/lvgl/src/draw/lv_draw_buf.c **** void lv_draw_buf_set_palette(lv_draw_buf_t * draw_buf, uint8_t index, lv_color32_t color)
 587:Drivers/lvgl/src/draw/lv_draw_buf.c **** {
 588:Drivers/lvgl/src/draw/lv_draw_buf.c ****     LV_ASSERT_NULL(draw_buf);
 589:Drivers/lvgl/src/draw/lv_draw_buf.c ****     if(draw_buf == NULL) return;
 590:Drivers/lvgl/src/draw/lv_draw_buf.c **** 
 591:Drivers/lvgl/src/draw/lv_draw_buf.c ****     if(!LV_COLOR_FORMAT_IS_INDEXED(draw_buf->header.cf)) {
 592:Drivers/lvgl/src/draw/lv_draw_buf.c ****         LV_LOG_WARN("Not indexed color format");
 593:Drivers/lvgl/src/draw/lv_draw_buf.c ****         return;
 594:Drivers/lvgl/src/draw/lv_draw_buf.c ****     }
 595:Drivers/lvgl/src/draw/lv_draw_buf.c **** 
 596:Drivers/lvgl/src/draw/lv_draw_buf.c ****     lv_color32_t * palette = (lv_color32_t *)draw_buf->data;
 597:Drivers/lvgl/src/draw/lv_draw_buf.c ****     palette[index] = color;
 598:Drivers/lvgl/src/draw/lv_draw_buf.c **** }
 599:Drivers/lvgl/src/draw/lv_draw_buf.c **** 
 600:Drivers/lvgl/src/draw/lv_draw_buf.c **** bool lv_draw_buf_has_flag(const lv_draw_buf_t * draw_buf, lv_image_flags_t flag)
ARM GAS  /tmp/ccrMvAjz.s 			page 12


 601:Drivers/lvgl/src/draw/lv_draw_buf.c **** {
 602:Drivers/lvgl/src/draw/lv_draw_buf.c ****     return draw_buf->header.flags & flag;
 603:Drivers/lvgl/src/draw/lv_draw_buf.c **** }
 604:Drivers/lvgl/src/draw/lv_draw_buf.c **** 
 605:Drivers/lvgl/src/draw/lv_draw_buf.c **** void lv_draw_buf_set_flag(lv_draw_buf_t * draw_buf, lv_image_flags_t flag)
 606:Drivers/lvgl/src/draw/lv_draw_buf.c **** {
 607:Drivers/lvgl/src/draw/lv_draw_buf.c ****     draw_buf->header.flags |= flag;
 608:Drivers/lvgl/src/draw/lv_draw_buf.c **** }
 609:Drivers/lvgl/src/draw/lv_draw_buf.c **** 
 610:Drivers/lvgl/src/draw/lv_draw_buf.c **** void lv_draw_buf_clear_flag(lv_draw_buf_t * draw_buf, lv_image_flags_t flag)
 611:Drivers/lvgl/src/draw/lv_draw_buf.c **** {
 612:Drivers/lvgl/src/draw/lv_draw_buf.c ****     draw_buf->header.flags &= ~flag;
 613:Drivers/lvgl/src/draw/lv_draw_buf.c **** }
 614:Drivers/lvgl/src/draw/lv_draw_buf.c **** 
 615:Drivers/lvgl/src/draw/lv_draw_buf.c **** lv_result_t lv_draw_buf_from_image(lv_draw_buf_t * buf, const lv_image_dsc_t * img)
 616:Drivers/lvgl/src/draw/lv_draw_buf.c **** {
 617:Drivers/lvgl/src/draw/lv_draw_buf.c ****     const lv_result_t res = lv_draw_buf_init(buf, img->header.w, img->header.h, img->header.cf, img
 618:Drivers/lvgl/src/draw/lv_draw_buf.c ****                                              (void *)img->data, img->data_size);
 619:Drivers/lvgl/src/draw/lv_draw_buf.c ****     if(res != LV_RESULT_OK) {
 620:Drivers/lvgl/src/draw/lv_draw_buf.c ****         return res;
 621:Drivers/lvgl/src/draw/lv_draw_buf.c ****     }
 622:Drivers/lvgl/src/draw/lv_draw_buf.c **** 
 623:Drivers/lvgl/src/draw/lv_draw_buf.c ****     buf->header.flags = img->header.flags;
 624:Drivers/lvgl/src/draw/lv_draw_buf.c ****     return res;
 625:Drivers/lvgl/src/draw/lv_draw_buf.c **** }
 626:Drivers/lvgl/src/draw/lv_draw_buf.c **** 
 627:Drivers/lvgl/src/draw/lv_draw_buf.c **** void lv_draw_buf_to_image(const lv_draw_buf_t * buf, lv_image_dsc_t * img)
 628:Drivers/lvgl/src/draw/lv_draw_buf.c **** {
 629:Drivers/lvgl/src/draw/lv_draw_buf.c ****     lv_memcpy((void *)img, buf, sizeof(lv_image_dsc_t));
 630:Drivers/lvgl/src/draw/lv_draw_buf.c **** }
 631:Drivers/lvgl/src/draw/lv_draw_buf.c **** 
 632:Drivers/lvgl/src/draw/lv_draw_buf.c **** void lv_image_buf_set_palette(lv_image_dsc_t * dsc, uint8_t id, lv_color32_t c)
 633:Drivers/lvgl/src/draw/lv_draw_buf.c **** {
 634:Drivers/lvgl/src/draw/lv_draw_buf.c ****     LV_LOG_WARN("Deprecated API, use lv_draw_buf_set_palette instead.");
 635:Drivers/lvgl/src/draw/lv_draw_buf.c ****     lv_draw_buf_set_palette((lv_draw_buf_t *)dsc, id, c);
 636:Drivers/lvgl/src/draw/lv_draw_buf.c **** }
 637:Drivers/lvgl/src/draw/lv_draw_buf.c **** 
 638:Drivers/lvgl/src/draw/lv_draw_buf.c **** void lv_image_buf_free(lv_image_dsc_t * dsc)
 639:Drivers/lvgl/src/draw/lv_draw_buf.c **** {
 640:Drivers/lvgl/src/draw/lv_draw_buf.c ****     LV_LOG_WARN("Deprecated API, use lv_draw_buf_destroy instead.");
 641:Drivers/lvgl/src/draw/lv_draw_buf.c ****     if(dsc != NULL) {
 642:Drivers/lvgl/src/draw/lv_draw_buf.c ****         if(dsc->data != NULL)
 643:Drivers/lvgl/src/draw/lv_draw_buf.c ****             lv_free((void *)dsc->data);
 644:Drivers/lvgl/src/draw/lv_draw_buf.c **** 
 645:Drivers/lvgl/src/draw/lv_draw_buf.c ****         lv_free((void *)dsc);
 646:Drivers/lvgl/src/draw/lv_draw_buf.c ****     }
 647:Drivers/lvgl/src/draw/lv_draw_buf.c **** }
 648:Drivers/lvgl/src/draw/lv_draw_buf.c **** 
 649:Drivers/lvgl/src/draw/lv_draw_buf.c **** /**********************
 650:Drivers/lvgl/src/draw/lv_draw_buf.c ****  *   STATIC FUNCTIONS
 651:Drivers/lvgl/src/draw/lv_draw_buf.c ****  **********************/
 652:Drivers/lvgl/src/draw/lv_draw_buf.c **** 
 653:Drivers/lvgl/src/draw/lv_draw_buf.c **** static void * buf_malloc(size_t size_bytes, lv_color_format_t color_format)
 654:Drivers/lvgl/src/draw/lv_draw_buf.c **** {
 655:Drivers/lvgl/src/draw/lv_draw_buf.c ****     LV_UNUSED(color_format);
 656:Drivers/lvgl/src/draw/lv_draw_buf.c **** 
 657:Drivers/lvgl/src/draw/lv_draw_buf.c ****     /*Allocate larger memory to be sure it can be aligned as needed*/
ARM GAS  /tmp/ccrMvAjz.s 			page 13


 658:Drivers/lvgl/src/draw/lv_draw_buf.c ****     size_bytes += LV_DRAW_BUF_ALIGN - 1;
 659:Drivers/lvgl/src/draw/lv_draw_buf.c ****     return lv_malloc(size_bytes);
 660:Drivers/lvgl/src/draw/lv_draw_buf.c **** }
 661:Drivers/lvgl/src/draw/lv_draw_buf.c **** 
 662:Drivers/lvgl/src/draw/lv_draw_buf.c **** static void buf_free(void * buf)
 663:Drivers/lvgl/src/draw/lv_draw_buf.c **** {
 664:Drivers/lvgl/src/draw/lv_draw_buf.c ****     lv_free(buf);
 665:Drivers/lvgl/src/draw/lv_draw_buf.c **** }
 666:Drivers/lvgl/src/draw/lv_draw_buf.c **** 
 667:Drivers/lvgl/src/draw/lv_draw_buf.c **** static void * buf_align(void * buf, lv_color_format_t color_format)
 668:Drivers/lvgl/src/draw/lv_draw_buf.c **** {
  29              		.loc 1 668 1 view -0
  30              		.cfi_startproc
  31              		@ args = 0, pretend = 0, frame = 0
  32              		@ frame_needed = 0, uses_anonymous_args = 0
  33              		@ link register save eliminated.
 669:Drivers/lvgl/src/draw/lv_draw_buf.c ****     LV_UNUSED(color_format);
  34              		.loc 1 669 5 view .LVU1
 670:Drivers/lvgl/src/draw/lv_draw_buf.c **** 
 671:Drivers/lvgl/src/draw/lv_draw_buf.c ****     uint8_t * buf_u8 = buf;
  35              		.loc 1 671 5 view .LVU2
 672:Drivers/lvgl/src/draw/lv_draw_buf.c ****     if(buf_u8) {
  36              		.loc 1 672 5 view .LVU3
  37              		.loc 1 672 7 is_stmt 0 view .LVU4
  38 0000 0346     		mov	r3, r0
  39 0002 18B1     		cbz	r0, .L3
 673:Drivers/lvgl/src/draw/lv_draw_buf.c ****         buf_u8 = (uint8_t *)LV_ROUND_UP((lv_uintptr_t)buf_u8, LV_DRAW_BUF_ALIGN);
  40              		.loc 1 673 9 is_stmt 1 view .LVU5
  41              		.loc 1 673 29 is_stmt 0 view .LVU6
  42 0004 0333     		adds	r3, r3, #3
  43 0006 23F00300 		bic	r0, r3, #3
  44              	.LVL1:
  45              		.loc 1 673 29 view .LVU7
  46 000a 7047     		bx	lr
  47              	.LVL2:
  48              	.L3:
 674:Drivers/lvgl/src/draw/lv_draw_buf.c ****     }
 675:Drivers/lvgl/src/draw/lv_draw_buf.c ****     return buf_u8;
  49              		.loc 1 675 5 is_stmt 1 view .LVU8
 676:Drivers/lvgl/src/draw/lv_draw_buf.c **** }
  50              		.loc 1 676 1 is_stmt 0 view .LVU9
  51 000c 7047     		bx	lr
  52              		.cfi_endproc
  53              	.LFE220:
  55              		.section	.text.draw_buf_malloc,"ax",%progbits
  56              		.align	1
  57              		.syntax unified
  58              		.thumb
  59              		.thumb_func
  61              	draw_buf_malloc:
  62              	.LVL3:
  63              	.LFB222:
 677:Drivers/lvgl/src/draw/lv_draw_buf.c **** 
 678:Drivers/lvgl/src/draw/lv_draw_buf.c **** static uint32_t width_to_stride(uint32_t w, lv_color_format_t color_format)
 679:Drivers/lvgl/src/draw/lv_draw_buf.c **** {
 680:Drivers/lvgl/src/draw/lv_draw_buf.c ****     uint32_t width_byte;
 681:Drivers/lvgl/src/draw/lv_draw_buf.c ****     width_byte = w * lv_color_format_get_bpp(color_format);
ARM GAS  /tmp/ccrMvAjz.s 			page 14


 682:Drivers/lvgl/src/draw/lv_draw_buf.c ****     width_byte = (width_byte + 7) >> 3; /*Round up*/
 683:Drivers/lvgl/src/draw/lv_draw_buf.c **** 
 684:Drivers/lvgl/src/draw/lv_draw_buf.c ****     return LV_ROUND_UP(width_byte, LV_DRAW_BUF_STRIDE_ALIGN);
 685:Drivers/lvgl/src/draw/lv_draw_buf.c **** }
 686:Drivers/lvgl/src/draw/lv_draw_buf.c **** 
 687:Drivers/lvgl/src/draw/lv_draw_buf.c **** static void * draw_buf_malloc(const lv_draw_buf_handlers_t * handlers, size_t size_bytes,
 688:Drivers/lvgl/src/draw/lv_draw_buf.c ****                               lv_color_format_t color_format)
 689:Drivers/lvgl/src/draw/lv_draw_buf.c **** {
  64              		.loc 1 689 1 is_stmt 1 view -0
  65              		.cfi_startproc
  66              		@ args = 0, pretend = 0, frame = 0
  67              		@ frame_needed = 0, uses_anonymous_args = 0
  68              		.loc 1 689 1 is_stmt 0 view .LVU11
  69 0000 08B5     		push	{r3, lr}
  70              	.LCFI0:
  71              		.cfi_def_cfa_offset 8
  72              		.cfi_offset 3, -8
  73              		.cfi_offset 14, -4
  74 0002 0B46     		mov	r3, r1
  75 0004 1146     		mov	r1, r2
  76              	.LVL4:
 690:Drivers/lvgl/src/draw/lv_draw_buf.c ****     if(handlers->buf_malloc_cb) return handlers->buf_malloc_cb(size_bytes, color_format);
  77              		.loc 1 690 5 is_stmt 1 view .LVU12
  78              		.loc 1 690 16 is_stmt 0 view .LVU13
  79 0006 0268     		ldr	r2, [r0]
  80              	.LVL5:
  81              		.loc 1 690 7 view .LVU14
  82 0008 12B1     		cbz	r2, .L6
  83              		.loc 1 690 33 is_stmt 1 discriminator 1 view .LVU15
  84              		.loc 1 690 40 is_stmt 0 discriminator 1 view .LVU16
  85 000a 1846     		mov	r0, r3
  86              	.LVL6:
  87              		.loc 1 690 40 discriminator 1 view .LVU17
  88 000c 9047     		blx	r2
  89              	.LVL7:
  90              	.L4:
 691:Drivers/lvgl/src/draw/lv_draw_buf.c ****     else return NULL;
 692:Drivers/lvgl/src/draw/lv_draw_buf.c **** }
  91              		.loc 1 692 1 view .LVU18
  92 000e 08BD     		pop	{r3, pc}
  93              	.LVL8:
  94              	.L6:
 691:Drivers/lvgl/src/draw/lv_draw_buf.c ****     else return NULL;
  95              		.loc 1 691 17 view .LVU19
  96 0010 0020     		movs	r0, #0
  97              	.LVL9:
 691:Drivers/lvgl/src/draw/lv_draw_buf.c ****     else return NULL;
  98              		.loc 1 691 17 view .LVU20
  99 0012 FCE7     		b	.L4
 100              		.cfi_endproc
 101              	.LFE222:
 103              		.section	.text.draw_buf_free,"ax",%progbits
 104              		.align	1
 105              		.syntax unified
 106              		.thumb
 107              		.thumb_func
 109              	draw_buf_free:
ARM GAS  /tmp/ccrMvAjz.s 			page 15


 110              	.LVL10:
 111              	.LFB223:
 693:Drivers/lvgl/src/draw/lv_draw_buf.c **** 
 694:Drivers/lvgl/src/draw/lv_draw_buf.c **** static void draw_buf_free(const lv_draw_buf_handlers_t * handlers, void * buf)
 695:Drivers/lvgl/src/draw/lv_draw_buf.c **** {
 112              		.loc 1 695 1 is_stmt 1 view -0
 113              		.cfi_startproc
 114              		@ args = 0, pretend = 0, frame = 0
 115              		@ frame_needed = 0, uses_anonymous_args = 0
 116              		.loc 1 695 1 is_stmt 0 view .LVU22
 117 0000 08B5     		push	{r3, lr}
 118              	.LCFI1:
 119              		.cfi_def_cfa_offset 8
 120              		.cfi_offset 3, -8
 121              		.cfi_offset 14, -4
 696:Drivers/lvgl/src/draw/lv_draw_buf.c ****     if(handlers->buf_free_cb)
 122              		.loc 1 696 5 is_stmt 1 view .LVU23
 123              		.loc 1 696 16 is_stmt 0 view .LVU24
 124 0002 4368     		ldr	r3, [r0, #4]
 125              		.loc 1 696 7 view .LVU25
 126 0004 0BB1     		cbz	r3, .L8
 697:Drivers/lvgl/src/draw/lv_draw_buf.c ****         handlers->buf_free_cb(buf);
 127              		.loc 1 697 9 is_stmt 1 view .LVU26
 128 0006 0846     		mov	r0, r1
 129              	.LVL11:
 130              		.loc 1 697 9 is_stmt 0 view .LVU27
 131 0008 9847     		blx	r3
 132              	.LVL12:
 133              	.L8:
 698:Drivers/lvgl/src/draw/lv_draw_buf.c **** }
 134              		.loc 1 698 1 view .LVU28
 135 000a 08BD     		pop	{r3, pc}
 136              		.cfi_endproc
 137              	.LFE223:
 139              		.section	.text.width_to_stride,"ax",%progbits
 140              		.align	1
 141              		.syntax unified
 142              		.thumb
 143              		.thumb_func
 145              	width_to_stride:
 146              	.LVL13:
 147              	.LFB221:
 679:Drivers/lvgl/src/draw/lv_draw_buf.c ****     uint32_t width_byte;
 148              		.loc 1 679 1 is_stmt 1 view -0
 149              		.cfi_startproc
 150              		@ args = 0, pretend = 0, frame = 0
 151              		@ frame_needed = 0, uses_anonymous_args = 0
 679:Drivers/lvgl/src/draw/lv_draw_buf.c ****     uint32_t width_byte;
 152              		.loc 1 679 1 is_stmt 0 view .LVU30
 153 0000 10B5     		push	{r4, lr}
 154              	.LCFI2:
 155              		.cfi_def_cfa_offset 8
 156              		.cfi_offset 4, -8
 157              		.cfi_offset 14, -4
 158 0002 0446     		mov	r4, r0
 680:Drivers/lvgl/src/draw/lv_draw_buf.c ****     width_byte = w * lv_color_format_get_bpp(color_format);
 159              		.loc 1 680 5 is_stmt 1 view .LVU31
ARM GAS  /tmp/ccrMvAjz.s 			page 16


 681:Drivers/lvgl/src/draw/lv_draw_buf.c ****     width_byte = (width_byte + 7) >> 3; /*Round up*/
 160              		.loc 1 681 5 view .LVU32
 681:Drivers/lvgl/src/draw/lv_draw_buf.c ****     width_byte = (width_byte + 7) >> 3; /*Round up*/
 161              		.loc 1 681 22 is_stmt 0 view .LVU33
 162 0004 0846     		mov	r0, r1
 163              	.LVL14:
 681:Drivers/lvgl/src/draw/lv_draw_buf.c ****     width_byte = (width_byte + 7) >> 3; /*Round up*/
 164              		.loc 1 681 22 view .LVU34
 165 0006 FFF7FEFF 		bl	lv_color_format_get_bpp
 166              	.LVL15:
 681:Drivers/lvgl/src/draw/lv_draw_buf.c ****     width_byte = (width_byte + 7) >> 3; /*Round up*/
 167              		.loc 1 681 16 discriminator 1 view .LVU35
 168 000a 04FB00F0 		mul	r0, r4, r0
 169              	.LVL16:
 682:Drivers/lvgl/src/draw/lv_draw_buf.c **** 
 170              		.loc 1 682 5 is_stmt 1 view .LVU36
 682:Drivers/lvgl/src/draw/lv_draw_buf.c **** 
 171              		.loc 1 682 30 is_stmt 0 view .LVU37
 172 000e 0730     		adds	r0, r0, #7
 173              	.LVL17:
 684:Drivers/lvgl/src/draw/lv_draw_buf.c **** }
 174              		.loc 1 684 5 is_stmt 1 view .LVU38
 685:Drivers/lvgl/src/draw/lv_draw_buf.c **** 
 175              		.loc 1 685 1 is_stmt 0 view .LVU39
 176 0010 C008     		lsrs	r0, r0, #3
 177              	.LVL18:
 685:Drivers/lvgl/src/draw/lv_draw_buf.c **** 
 178              		.loc 1 685 1 view .LVU40
 179 0012 10BD     		pop	{r4, pc}
 685:Drivers/lvgl/src/draw/lv_draw_buf.c **** 
 180              		.loc 1 685 1 view .LVU41
 181              		.cfi_endproc
 182              	.LFE221:
 184              		.section	.text.buf_free,"ax",%progbits
 185              		.align	1
 186              		.syntax unified
 187              		.thumb
 188              		.thumb_func
 190              	buf_free:
 191              	.LVL19:
 192              	.LFB219:
 663:Drivers/lvgl/src/draw/lv_draw_buf.c ****     lv_free(buf);
 193              		.loc 1 663 1 is_stmt 1 view -0
 194              		.cfi_startproc
 195              		@ args = 0, pretend = 0, frame = 0
 196              		@ frame_needed = 0, uses_anonymous_args = 0
 663:Drivers/lvgl/src/draw/lv_draw_buf.c ****     lv_free(buf);
 197              		.loc 1 663 1 is_stmt 0 view .LVU43
 198 0000 08B5     		push	{r3, lr}
 199              	.LCFI3:
 200              		.cfi_def_cfa_offset 8
 201              		.cfi_offset 3, -8
 202              		.cfi_offset 14, -4
 664:Drivers/lvgl/src/draw/lv_draw_buf.c **** }
 203              		.loc 1 664 5 is_stmt 1 view .LVU44
 204 0002 FFF7FEFF 		bl	lv_free
 205              	.LVL20:
ARM GAS  /tmp/ccrMvAjz.s 			page 17


 665:Drivers/lvgl/src/draw/lv_draw_buf.c **** 
 206              		.loc 1 665 1 is_stmt 0 view .LVU45
 207 0006 08BD     		pop	{r3, pc}
 208              		.cfi_endproc
 209              	.LFE219:
 211              		.section	.text.buf_malloc,"ax",%progbits
 212              		.align	1
 213              		.syntax unified
 214              		.thumb
 215              		.thumb_func
 217              	buf_malloc:
 218              	.LVL21:
 219              	.LFB218:
 654:Drivers/lvgl/src/draw/lv_draw_buf.c ****     LV_UNUSED(color_format);
 220              		.loc 1 654 1 is_stmt 1 view -0
 221              		.cfi_startproc
 222              		@ args = 0, pretend = 0, frame = 0
 223              		@ frame_needed = 0, uses_anonymous_args = 0
 654:Drivers/lvgl/src/draw/lv_draw_buf.c ****     LV_UNUSED(color_format);
 224              		.loc 1 654 1 is_stmt 0 view .LVU47
 225 0000 08B5     		push	{r3, lr}
 226              	.LCFI4:
 227              		.cfi_def_cfa_offset 8
 228              		.cfi_offset 3, -8
 229              		.cfi_offset 14, -4
 655:Drivers/lvgl/src/draw/lv_draw_buf.c **** 
 230              		.loc 1 655 5 is_stmt 1 view .LVU48
 658:Drivers/lvgl/src/draw/lv_draw_buf.c ****     return lv_malloc(size_bytes);
 231              		.loc 1 658 5 view .LVU49
 232              	.LVL22:
 659:Drivers/lvgl/src/draw/lv_draw_buf.c **** }
 233              		.loc 1 659 5 view .LVU50
 659:Drivers/lvgl/src/draw/lv_draw_buf.c **** }
 234              		.loc 1 659 12 is_stmt 0 view .LVU51
 235 0002 0330     		adds	r0, r0, #3
 236              	.LVL23:
 659:Drivers/lvgl/src/draw/lv_draw_buf.c **** }
 237              		.loc 1 659 12 view .LVU52
 238 0004 FFF7FEFF 		bl	lv_malloc
 239              	.LVL24:
 660:Drivers/lvgl/src/draw/lv_draw_buf.c **** 
 240              		.loc 1 660 1 view .LVU53
 241 0008 08BD     		pop	{r3, pc}
 242              		.cfi_endproc
 243              	.LFE218:
 245              		.section	.text.draw_buf_get_full_area,"ax",%progbits
 246              		.align	1
 247              		.syntax unified
 248              		.thumb
 249              		.thumb_func
 251              	draw_buf_get_full_area:
 252              	.LVL25:
 253              	.LFB225:
 699:Drivers/lvgl/src/draw/lv_draw_buf.c **** 
 700:Drivers/lvgl/src/draw/lv_draw_buf.c **** /**
 701:Drivers/lvgl/src/draw/lv_draw_buf.c ****  * For given width, height, color format, and stride, calculate the size needed for a new draw buff
 702:Drivers/lvgl/src/draw/lv_draw_buf.c ****  */
ARM GAS  /tmp/ccrMvAjz.s 			page 18


 703:Drivers/lvgl/src/draw/lv_draw_buf.c **** static uint32_t _calculate_draw_buf_size(uint32_t w, uint32_t h, lv_color_format_t cf, uint32_t str
 704:Drivers/lvgl/src/draw/lv_draw_buf.c **** {
 705:Drivers/lvgl/src/draw/lv_draw_buf.c ****     uint32_t size;
 706:Drivers/lvgl/src/draw/lv_draw_buf.c **** 
 707:Drivers/lvgl/src/draw/lv_draw_buf.c ****     if(stride == 0) stride = lv_draw_buf_width_to_stride(w, cf);
 708:Drivers/lvgl/src/draw/lv_draw_buf.c **** 
 709:Drivers/lvgl/src/draw/lv_draw_buf.c ****     size = stride * h;
 710:Drivers/lvgl/src/draw/lv_draw_buf.c ****     if(cf == LV_COLOR_FORMAT_RGB565A8) {
 711:Drivers/lvgl/src/draw/lv_draw_buf.c ****         size += (stride / 2) * h; /*A8 mask*/
 712:Drivers/lvgl/src/draw/lv_draw_buf.c ****     }
 713:Drivers/lvgl/src/draw/lv_draw_buf.c ****     else if(LV_COLOR_FORMAT_IS_INDEXED(cf)) {
 714:Drivers/lvgl/src/draw/lv_draw_buf.c ****         /*@todo we have to include palette right before image data*/
 715:Drivers/lvgl/src/draw/lv_draw_buf.c ****         size += LV_COLOR_INDEXED_PALETTE_SIZE(cf) * 4;
 716:Drivers/lvgl/src/draw/lv_draw_buf.c ****     }
 717:Drivers/lvgl/src/draw/lv_draw_buf.c **** 
 718:Drivers/lvgl/src/draw/lv_draw_buf.c ****     return size;
 719:Drivers/lvgl/src/draw/lv_draw_buf.c **** }
 720:Drivers/lvgl/src/draw/lv_draw_buf.c **** 
 721:Drivers/lvgl/src/draw/lv_draw_buf.c **** static void draw_buf_get_full_area(const lv_draw_buf_t * draw_buf, lv_area_t * full_area)
 722:Drivers/lvgl/src/draw/lv_draw_buf.c **** {
 254              		.loc 1 722 1 is_stmt 1 view -0
 255              		.cfi_startproc
 256              		@ args = 0, pretend = 0, frame = 0
 257              		@ frame_needed = 0, uses_anonymous_args = 0
 258              		.loc 1 722 1 is_stmt 0 view .LVU55
 259 0000 00B5     		push	{lr}
 260              	.LCFI5:
 261              		.cfi_def_cfa_offset 4
 262              		.cfi_offset 14, -4
 263 0002 83B0     		sub	sp, sp, #12
 264              	.LCFI6:
 265              		.cfi_def_cfa_offset 16
 266 0004 0246     		mov	r2, r0
 267 0006 0846     		mov	r0, r1
 268              	.LVL26:
 723:Drivers/lvgl/src/draw/lv_draw_buf.c ****     const lv_image_header_t * header = &draw_buf->header;
 269              		.loc 1 723 5 is_stmt 1 view .LVU56
 724:Drivers/lvgl/src/draw/lv_draw_buf.c ****     lv_area_set(full_area, 0, 0, header->w - 1, header->h - 1);
 270              		.loc 1 724 5 view .LVU57
 271              		.loc 1 724 40 is_stmt 0 view .LVU58
 272 0008 9388     		ldrh	r3, [r2, #4]
 273              		.loc 1 724 55 view .LVU59
 274 000a D288     		ldrh	r2, [r2, #6]
 275              	.LVL27:
 276              		.loc 1 724 59 view .LVU60
 277 000c 013A     		subs	r2, r2, #1
 278              		.loc 1 724 5 view .LVU61
 279 000e 0092     		str	r2, [sp]
 280 0010 013B     		subs	r3, r3, #1
 281 0012 0022     		movs	r2, #0
 282 0014 1146     		mov	r1, r2
 283              	.LVL28:
 284              		.loc 1 724 5 view .LVU62
 285 0016 FFF7FEFF 		bl	lv_area_set
 286              	.LVL29:
 725:Drivers/lvgl/src/draw/lv_draw_buf.c **** }
 287              		.loc 1 725 1 view .LVU63
ARM GAS  /tmp/ccrMvAjz.s 			page 19


 288 001a 03B0     		add	sp, sp, #12
 289              	.LCFI7:
 290              		.cfi_def_cfa_offset 4
 291              		@ sp needed
 292 001c 5DF804FB 		ldr	pc, [sp], #4
 293              		.cfi_endproc
 294              	.LFE225:
 296              		.section	.text.lv_draw_buf_handlers_init,"ax",%progbits
 297              		.align	1
 298              		.global	lv_draw_buf_handlers_init
 299              		.syntax unified
 300              		.thumb
 301              		.thumb_func
 303              	lv_draw_buf_handlers_init:
 304              	.LVL30:
 305              	.LFB188:
  71:Drivers/lvgl/src/draw/lv_draw_buf.c ****     lv_memzero(handlers, sizeof(lv_draw_buf_handlers_t));
 306              		.loc 1 71 1 is_stmt 1 view -0
 307              		.cfi_startproc
 308              		@ args = 12, pretend = 0, frame = 0
 309              		@ frame_needed = 0, uses_anonymous_args = 0
  71:Drivers/lvgl/src/draw/lv_draw_buf.c ****     lv_memzero(handlers, sizeof(lv_draw_buf_handlers_t));
 310              		.loc 1 71 1 is_stmt 0 view .LVU65
 311 0000 F8B5     		push	{r3, r4, r5, r6, r7, lr}
 312              	.LCFI8:
 313              		.cfi_def_cfa_offset 24
 314              		.cfi_offset 3, -24
 315              		.cfi_offset 4, -20
 316              		.cfi_offset 5, -16
 317              		.cfi_offset 6, -12
 318              		.cfi_offset 7, -8
 319              		.cfi_offset 14, -4
 320 0002 0446     		mov	r4, r0
 321 0004 0F46     		mov	r7, r1
 322 0006 1646     		mov	r6, r2
 323 0008 1D46     		mov	r5, r3
  72:Drivers/lvgl/src/draw/lv_draw_buf.c ****     handlers->buf_malloc_cb = buf_malloc_cb;
 324              		.loc 1 72 5 is_stmt 1 view .LVU66
 325              	.LVL31:
 326              	.LBB11:
 327              	.LBI11:
 328              		.file 2 "Drivers/lvgl/src/draw/../misc/../stdlib/lv_string.h"
   1:Drivers/lvgl/src/draw/../misc/../stdlib/lv_string.h **** /**
   2:Drivers/lvgl/src/draw/../misc/../stdlib/lv_string.h ****  * @file lv_string.h
   3:Drivers/lvgl/src/draw/../misc/../stdlib/lv_string.h ****  *
   4:Drivers/lvgl/src/draw/../misc/../stdlib/lv_string.h ****  */
   5:Drivers/lvgl/src/draw/../misc/../stdlib/lv_string.h **** 
   6:Drivers/lvgl/src/draw/../misc/../stdlib/lv_string.h **** #ifndef LV_STRING_H
   7:Drivers/lvgl/src/draw/../misc/../stdlib/lv_string.h **** #define LV_STRING_H
   8:Drivers/lvgl/src/draw/../misc/../stdlib/lv_string.h **** 
   9:Drivers/lvgl/src/draw/../misc/../stdlib/lv_string.h **** #ifdef __cplusplus
  10:Drivers/lvgl/src/draw/../misc/../stdlib/lv_string.h **** extern "C" {
  11:Drivers/lvgl/src/draw/../misc/../stdlib/lv_string.h **** #endif
  12:Drivers/lvgl/src/draw/../misc/../stdlib/lv_string.h **** 
  13:Drivers/lvgl/src/draw/../misc/../stdlib/lv_string.h **** /*********************
  14:Drivers/lvgl/src/draw/../misc/../stdlib/lv_string.h ****  *      INCLUDES
  15:Drivers/lvgl/src/draw/../misc/../stdlib/lv_string.h ****  *********************/
ARM GAS  /tmp/ccrMvAjz.s 			page 20


  16:Drivers/lvgl/src/draw/../misc/../stdlib/lv_string.h **** #include "../lv_conf_internal.h"
  17:Drivers/lvgl/src/draw/../misc/../stdlib/lv_string.h **** #include "../misc/lv_types.h"
  18:Drivers/lvgl/src/draw/../misc/../stdlib/lv_string.h **** 
  19:Drivers/lvgl/src/draw/../misc/../stdlib/lv_string.h **** /*********************
  20:Drivers/lvgl/src/draw/../misc/../stdlib/lv_string.h ****  *      DEFINES
  21:Drivers/lvgl/src/draw/../misc/../stdlib/lv_string.h ****  *********************/
  22:Drivers/lvgl/src/draw/../misc/../stdlib/lv_string.h **** 
  23:Drivers/lvgl/src/draw/../misc/../stdlib/lv_string.h **** /**********************
  24:Drivers/lvgl/src/draw/../misc/../stdlib/lv_string.h ****  *      TYPEDEFS
  25:Drivers/lvgl/src/draw/../misc/../stdlib/lv_string.h ****  **********************/
  26:Drivers/lvgl/src/draw/../misc/../stdlib/lv_string.h **** 
  27:Drivers/lvgl/src/draw/../misc/../stdlib/lv_string.h **** /**********************
  28:Drivers/lvgl/src/draw/../misc/../stdlib/lv_string.h ****  * GLOBAL PROTOTYPES
  29:Drivers/lvgl/src/draw/../misc/../stdlib/lv_string.h ****  **********************/
  30:Drivers/lvgl/src/draw/../misc/../stdlib/lv_string.h **** 
  31:Drivers/lvgl/src/draw/../misc/../stdlib/lv_string.h **** /**
  32:Drivers/lvgl/src/draw/../misc/../stdlib/lv_string.h ****  * @brief Copies a block of memory from a source address to a destination address.
  33:Drivers/lvgl/src/draw/../misc/../stdlib/lv_string.h ****  * @param dst Pointer to the destination array where the content is to be copied.
  34:Drivers/lvgl/src/draw/../misc/../stdlib/lv_string.h ****  * @param src Pointer to the source of data to be copied.
  35:Drivers/lvgl/src/draw/../misc/../stdlib/lv_string.h ****  * @param len Number of bytes to copy.
  36:Drivers/lvgl/src/draw/../misc/../stdlib/lv_string.h ****  * @return Pointer to the destination array.
  37:Drivers/lvgl/src/draw/../misc/../stdlib/lv_string.h ****  * @note The function does not check for any overlapping of the source and destination memory block
  38:Drivers/lvgl/src/draw/../misc/../stdlib/lv_string.h ****  */
  39:Drivers/lvgl/src/draw/../misc/../stdlib/lv_string.h **** void * lv_memcpy(void * dst, const void * src, size_t len);
  40:Drivers/lvgl/src/draw/../misc/../stdlib/lv_string.h **** 
  41:Drivers/lvgl/src/draw/../misc/../stdlib/lv_string.h **** /**
  42:Drivers/lvgl/src/draw/../misc/../stdlib/lv_string.h ****  * @brief Fills a block of memory with a specified value.
  43:Drivers/lvgl/src/draw/../misc/../stdlib/lv_string.h ****  * @param dst Pointer to the destination array to fill with the specified value.
  44:Drivers/lvgl/src/draw/../misc/../stdlib/lv_string.h ****  * @param v Value to be set. The value is passed as an int, but the function fills
  45:Drivers/lvgl/src/draw/../misc/../stdlib/lv_string.h ****  *          the block of memory using the unsigned char conversion of this value.
  46:Drivers/lvgl/src/draw/../misc/../stdlib/lv_string.h ****  * @param len Number of bytes to be set to the value.
  47:Drivers/lvgl/src/draw/../misc/../stdlib/lv_string.h ****  */
  48:Drivers/lvgl/src/draw/../misc/../stdlib/lv_string.h **** void lv_memset(void * dst, uint8_t v, size_t len);
  49:Drivers/lvgl/src/draw/../misc/../stdlib/lv_string.h **** 
  50:Drivers/lvgl/src/draw/../misc/../stdlib/lv_string.h **** /**
  51:Drivers/lvgl/src/draw/../misc/../stdlib/lv_string.h ****  * @brief Move a block of memory from source to destination
  52:Drivers/lvgl/src/draw/../misc/../stdlib/lv_string.h ****  * @param dst Pointer to the destination array where the content is to be copied.
  53:Drivers/lvgl/src/draw/../misc/../stdlib/lv_string.h ****  * @param src Pointer to the source of data to be copied.
  54:Drivers/lvgl/src/draw/../misc/../stdlib/lv_string.h ****  * @param len Number of bytes to copy
  55:Drivers/lvgl/src/draw/../misc/../stdlib/lv_string.h ****  * @return Pointer to the destination array.
  56:Drivers/lvgl/src/draw/../misc/../stdlib/lv_string.h ****  */
  57:Drivers/lvgl/src/draw/../misc/../stdlib/lv_string.h **** void * lv_memmove(void * dst, const void * src, size_t len);
  58:Drivers/lvgl/src/draw/../misc/../stdlib/lv_string.h **** 
  59:Drivers/lvgl/src/draw/../misc/../stdlib/lv_string.h **** /**
  60:Drivers/lvgl/src/draw/../misc/../stdlib/lv_string.h ****  * @brief This function will compare two memory blocks
  61:Drivers/lvgl/src/draw/../misc/../stdlib/lv_string.h ****  * @param p1 Pointer to the first memory block
  62:Drivers/lvgl/src/draw/../misc/../stdlib/lv_string.h ****  * @param p2 Pointer to the second memory block
  63:Drivers/lvgl/src/draw/../misc/../stdlib/lv_string.h ****  * @param len Number of bytes to compare
  64:Drivers/lvgl/src/draw/../misc/../stdlib/lv_string.h ****  * @return The difference between the value of the first unmatching byte.
  65:Drivers/lvgl/src/draw/../misc/../stdlib/lv_string.h ****  */
  66:Drivers/lvgl/src/draw/../misc/../stdlib/lv_string.h **** int lv_memcmp(const void * p1, const void * p2, size_t len);
  67:Drivers/lvgl/src/draw/../misc/../stdlib/lv_string.h **** 
  68:Drivers/lvgl/src/draw/../misc/../stdlib/lv_string.h **** /**
  69:Drivers/lvgl/src/draw/../misc/../stdlib/lv_string.h ****  * Same as `memset(dst, 0x00, len)`.
  70:Drivers/lvgl/src/draw/../misc/../stdlib/lv_string.h ****  * @param dst pointer to the destination buffer
  71:Drivers/lvgl/src/draw/../misc/../stdlib/lv_string.h ****  * @param len number of byte to set
  72:Drivers/lvgl/src/draw/../misc/../stdlib/lv_string.h ****  */
ARM GAS  /tmp/ccrMvAjz.s 			page 21


  73:Drivers/lvgl/src/draw/../misc/../stdlib/lv_string.h **** static inline void lv_memzero(void * dst, size_t len)
 329              		.loc 2 73 20 view .LVU67
 330              	.LBB12:
  74:Drivers/lvgl/src/draw/../misc/../stdlib/lv_string.h **** {
  75:Drivers/lvgl/src/draw/../misc/../stdlib/lv_string.h ****     lv_memset(dst, 0x00, len);
 331              		.loc 2 75 5 view .LVU68
 332 000a 1822     		movs	r2, #24
 333              	.LVL32:
 334              		.loc 2 75 5 is_stmt 0 view .LVU69
 335 000c 0021     		movs	r1, #0
 336              	.LVL33:
 337              		.loc 2 75 5 view .LVU70
 338 000e FFF7FEFF 		bl	lv_memset
 339              	.LVL34:
 340              		.loc 2 75 5 view .LVU71
 341              	.LBE12:
 342              	.LBE11:
  73:Drivers/lvgl/src/draw/lv_draw_buf.c ****     handlers->buf_free_cb = buf_free_cb;
 343              		.loc 1 73 5 is_stmt 1 view .LVU72
  73:Drivers/lvgl/src/draw/lv_draw_buf.c ****     handlers->buf_free_cb = buf_free_cb;
 344              		.loc 1 73 29 is_stmt 0 view .LVU73
 345 0012 2760     		str	r7, [r4]
  74:Drivers/lvgl/src/draw/lv_draw_buf.c ****     handlers->align_pointer_cb = align_pointer_cb;
 346              		.loc 1 74 5 is_stmt 1 view .LVU74
  74:Drivers/lvgl/src/draw/lv_draw_buf.c ****     handlers->align_pointer_cb = align_pointer_cb;
 347              		.loc 1 74 27 is_stmt 0 view .LVU75
 348 0014 6660     		str	r6, [r4, #4]
  75:Drivers/lvgl/src/draw/lv_draw_buf.c ****     handlers->invalidate_cache_cb = invalidate_cache_cb;
 349              		.loc 1 75 5 is_stmt 1 view .LVU76
  75:Drivers/lvgl/src/draw/lv_draw_buf.c ****     handlers->invalidate_cache_cb = invalidate_cache_cb;
 350              		.loc 1 75 32 is_stmt 0 view .LVU77
 351 0016 A560     		str	r5, [r4, #8]
  76:Drivers/lvgl/src/draw/lv_draw_buf.c ****     handlers->flush_cache_cb = flush_cache_cb;
 352              		.loc 1 76 5 is_stmt 1 view .LVU78
  76:Drivers/lvgl/src/draw/lv_draw_buf.c ****     handlers->flush_cache_cb = flush_cache_cb;
 353              		.loc 1 76 35 is_stmt 0 view .LVU79
 354 0018 069B     		ldr	r3, [sp, #24]
 355 001a E360     		str	r3, [r4, #12]
  77:Drivers/lvgl/src/draw/lv_draw_buf.c ****     handlers->width_to_stride_cb = width_to_stride_cb;
 356              		.loc 1 77 5 is_stmt 1 view .LVU80
  77:Drivers/lvgl/src/draw/lv_draw_buf.c ****     handlers->width_to_stride_cb = width_to_stride_cb;
 357              		.loc 1 77 30 is_stmt 0 view .LVU81
 358 001c 079B     		ldr	r3, [sp, #28]
 359 001e 2361     		str	r3, [r4, #16]
  78:Drivers/lvgl/src/draw/lv_draw_buf.c **** }
 360              		.loc 1 78 5 is_stmt 1 view .LVU82
  78:Drivers/lvgl/src/draw/lv_draw_buf.c **** }
 361              		.loc 1 78 34 is_stmt 0 view .LVU83
 362 0020 089B     		ldr	r3, [sp, #32]
 363 0022 6361     		str	r3, [r4, #20]
  79:Drivers/lvgl/src/draw/lv_draw_buf.c **** 
 364              		.loc 1 79 1 view .LVU84
 365 0024 F8BD     		pop	{r3, r4, r5, r6, r7, pc}
  79:Drivers/lvgl/src/draw/lv_draw_buf.c **** 
 366              		.loc 1 79 1 view .LVU85
 367              		.cfi_endproc
 368              	.LFE188:
ARM GAS  /tmp/ccrMvAjz.s 			page 22


 370              		.section	.text.lv_draw_buf_init_with_default_handlers,"ax",%progbits
 371              		.align	1
 372              		.global	lv_draw_buf_init_with_default_handlers
 373              		.syntax unified
 374              		.thumb
 375              		.thumb_func
 377              	lv_draw_buf_init_with_default_handlers:
 378              	.LVL35:
 379              	.LFB187:
  60:Drivers/lvgl/src/draw/lv_draw_buf.c ****     lv_draw_buf_handlers_init(handlers, buf_malloc, buf_free, buf_align, NULL, NULL, width_to_strid
 380              		.loc 1 60 1 is_stmt 1 view -0
 381              		.cfi_startproc
 382              		@ args = 0, pretend = 0, frame = 0
 383              		@ frame_needed = 0, uses_anonymous_args = 0
  60:Drivers/lvgl/src/draw/lv_draw_buf.c ****     lv_draw_buf_handlers_init(handlers, buf_malloc, buf_free, buf_align, NULL, NULL, width_to_strid
 384              		.loc 1 60 1 is_stmt 0 view .LVU87
 385 0000 00B5     		push	{lr}
 386              	.LCFI9:
 387              		.cfi_def_cfa_offset 4
 388              		.cfi_offset 14, -4
 389 0002 85B0     		sub	sp, sp, #20
 390              	.LCFI10:
 391              		.cfi_def_cfa_offset 24
  61:Drivers/lvgl/src/draw/lv_draw_buf.c **** }
 392              		.loc 1 61 5 is_stmt 1 view .LVU88
 393 0004 064B     		ldr	r3, .L23
 394 0006 0293     		str	r3, [sp, #8]
 395 0008 0023     		movs	r3, #0
 396 000a 0193     		str	r3, [sp, #4]
 397 000c 0093     		str	r3, [sp]
 398 000e 054B     		ldr	r3, .L23+4
 399 0010 054A     		ldr	r2, .L23+8
 400 0012 0649     		ldr	r1, .L23+12
 401 0014 FFF7FEFF 		bl	lv_draw_buf_handlers_init
 402              	.LVL36:
  62:Drivers/lvgl/src/draw/lv_draw_buf.c **** 
 403              		.loc 1 62 1 is_stmt 0 view .LVU89
 404 0018 05B0     		add	sp, sp, #20
 405              	.LCFI11:
 406              		.cfi_def_cfa_offset 4
 407              		@ sp needed
 408 001a 5DF804FB 		ldr	pc, [sp], #4
 409              	.L24:
 410 001e 00BF     		.align	2
 411              	.L23:
 412 0020 00000000 		.word	width_to_stride
 413 0024 00000000 		.word	buf_align
 414 0028 00000000 		.word	buf_free
 415 002c 00000000 		.word	buf_malloc
 416              		.cfi_endproc
 417              	.LFE187:
 419              		.section	.text.lv_draw_buf_init_handlers,"ax",%progbits
 420              		.align	1
 421              		.global	lv_draw_buf_init_handlers
 422              		.syntax unified
 423              		.thumb
 424              		.thumb_func
ARM GAS  /tmp/ccrMvAjz.s 			page 23


 426              	lv_draw_buf_init_handlers:
 427              	.LFB186:
  53:Drivers/lvgl/src/draw/lv_draw_buf.c ****     lv_draw_buf_init_with_default_handlers(&default_handlers);
 428              		.loc 1 53 1 is_stmt 1 view -0
 429              		.cfi_startproc
 430              		@ args = 0, pretend = 0, frame = 0
 431              		@ frame_needed = 0, uses_anonymous_args = 0
 432 0000 10B5     		push	{r4, lr}
 433              	.LCFI12:
 434              		.cfi_def_cfa_offset 8
 435              		.cfi_offset 4, -8
 436              		.cfi_offset 14, -4
  54:Drivers/lvgl/src/draw/lv_draw_buf.c ****     lv_draw_buf_init_with_default_handlers(&font_draw_buf_handlers);
 437              		.loc 1 54 5 view .LVU91
 438 0002 064C     		ldr	r4, .L27
 439 0004 2046     		mov	r0, r4
 440 0006 FFF7FEFF 		bl	lv_draw_buf_init_with_default_handlers
 441              	.LVL37:
  55:Drivers/lvgl/src/draw/lv_draw_buf.c ****     lv_draw_buf_init_with_default_handlers(&image_cache_draw_buf_handlers);
 442              		.loc 1 55 5 view .LVU92
 443 000a 04F11800 		add	r0, r4, #24
 444 000e FFF7FEFF 		bl	lv_draw_buf_init_with_default_handlers
 445              	.LVL38:
  56:Drivers/lvgl/src/draw/lv_draw_buf.c **** }
 446              		.loc 1 56 5 view .LVU93
 447 0012 04F13000 		add	r0, r4, #48
 448 0016 FFF7FEFF 		bl	lv_draw_buf_init_with_default_handlers
 449              	.LVL39:
  57:Drivers/lvgl/src/draw/lv_draw_buf.c **** 
 450              		.loc 1 57 1 is_stmt 0 view .LVU94
 451 001a 10BD     		pop	{r4, pc}
 452              	.L28:
 453              		.align	2
 454              	.L27:
 455 001c C8000000 		.word	lv_global+200
 456              		.cfi_endproc
 457              	.LFE186:
 459              		.section	.text.lv_draw_buf_get_handlers,"ax",%progbits
 460              		.align	1
 461              		.global	lv_draw_buf_get_handlers
 462              		.syntax unified
 463              		.thumb
 464              		.thumb_func
 466              	lv_draw_buf_get_handlers:
 467              	.LFB189:
  82:Drivers/lvgl/src/draw/lv_draw_buf.c ****     return &default_handlers;
 468              		.loc 1 82 1 is_stmt 1 view -0
 469              		.cfi_startproc
 470              		@ args = 0, pretend = 0, frame = 0
 471              		@ frame_needed = 0, uses_anonymous_args = 0
 472              		@ link register save eliminated.
  83:Drivers/lvgl/src/draw/lv_draw_buf.c **** }
 473              		.loc 1 83 5 view .LVU96
  84:Drivers/lvgl/src/draw/lv_draw_buf.c **** 
 474              		.loc 1 84 1 is_stmt 0 view .LVU97
 475 0000 0048     		ldr	r0, .L30
 476 0002 7047     		bx	lr
ARM GAS  /tmp/ccrMvAjz.s 			page 24


 477              	.L31:
 478              		.align	2
 479              	.L30:
 480 0004 C8000000 		.word	lv_global+200
 481              		.cfi_endproc
 482              	.LFE189:
 484              		.section	.text.lv_draw_buf_get_font_handlers,"ax",%progbits
 485              		.align	1
 486              		.global	lv_draw_buf_get_font_handlers
 487              		.syntax unified
 488              		.thumb
 489              		.thumb_func
 491              	lv_draw_buf_get_font_handlers:
 492              	.LFB190:
  87:Drivers/lvgl/src/draw/lv_draw_buf.c ****     return &font_draw_buf_handlers;
 493              		.loc 1 87 1 is_stmt 1 view -0
 494              		.cfi_startproc
 495              		@ args = 0, pretend = 0, frame = 0
 496              		@ frame_needed = 0, uses_anonymous_args = 0
 497              		@ link register save eliminated.
  88:Drivers/lvgl/src/draw/lv_draw_buf.c **** }
 498              		.loc 1 88 5 view .LVU99
  89:Drivers/lvgl/src/draw/lv_draw_buf.c **** 
 499              		.loc 1 89 1 is_stmt 0 view .LVU100
 500 0000 0048     		ldr	r0, .L33
 501 0002 7047     		bx	lr
 502              	.L34:
 503              		.align	2
 504              	.L33:
 505 0004 E0000000 		.word	lv_global+224
 506              		.cfi_endproc
 507              	.LFE190:
 509              		.section	.text.lv_draw_buf_get_image_handlers,"ax",%progbits
 510              		.align	1
 511              		.global	lv_draw_buf_get_image_handlers
 512              		.syntax unified
 513              		.thumb
 514              		.thumb_func
 516              	lv_draw_buf_get_image_handlers:
 517              	.LFB191:
  92:Drivers/lvgl/src/draw/lv_draw_buf.c ****     return &image_cache_draw_buf_handlers;
 518              		.loc 1 92 1 is_stmt 1 view -0
 519              		.cfi_startproc
 520              		@ args = 0, pretend = 0, frame = 0
 521              		@ frame_needed = 0, uses_anonymous_args = 0
 522              		@ link register save eliminated.
  93:Drivers/lvgl/src/draw/lv_draw_buf.c **** }
 523              		.loc 1 93 5 view .LVU102
  94:Drivers/lvgl/src/draw/lv_draw_buf.c **** 
 524              		.loc 1 94 1 is_stmt 0 view .LVU103
 525 0000 0048     		ldr	r0, .L36
 526 0002 7047     		bx	lr
 527              	.L37:
 528              		.align	2
 529              	.L36:
 530 0004 F8000000 		.word	lv_global+248
 531              		.cfi_endproc
ARM GAS  /tmp/ccrMvAjz.s 			page 25


 532              	.LFE191:
 534              		.section	.text.lv_draw_buf_width_to_stride_ex,"ax",%progbits
 535              		.align	1
 536              		.global	lv_draw_buf_width_to_stride_ex
 537              		.syntax unified
 538              		.thumb
 539              		.thumb_func
 541              	lv_draw_buf_width_to_stride_ex:
 542              	.LVL40:
 543              	.LFB193:
 103:Drivers/lvgl/src/draw/lv_draw_buf.c ****     if(handlers->width_to_stride_cb) return handlers->width_to_stride_cb(w, color_format);
 544              		.loc 1 103 1 is_stmt 1 view -0
 545              		.cfi_startproc
 546              		@ args = 0, pretend = 0, frame = 0
 547              		@ frame_needed = 0, uses_anonymous_args = 0
 103:Drivers/lvgl/src/draw/lv_draw_buf.c ****     if(handlers->width_to_stride_cb) return handlers->width_to_stride_cb(w, color_format);
 548              		.loc 1 103 1 is_stmt 0 view .LVU105
 549 0000 08B5     		push	{r3, lr}
 550              	.LCFI13:
 551              		.cfi_def_cfa_offset 8
 552              		.cfi_offset 3, -8
 553              		.cfi_offset 14, -4
 554 0002 0B46     		mov	r3, r1
 555 0004 1146     		mov	r1, r2
 556              	.LVL41:
 104:Drivers/lvgl/src/draw/lv_draw_buf.c ****     else return 0;
 557              		.loc 1 104 5 is_stmt 1 view .LVU106
 104:Drivers/lvgl/src/draw/lv_draw_buf.c ****     else return 0;
 558              		.loc 1 104 16 is_stmt 0 view .LVU107
 559 0006 4269     		ldr	r2, [r0, #20]
 560              	.LVL42:
 104:Drivers/lvgl/src/draw/lv_draw_buf.c ****     else return 0;
 561              		.loc 1 104 7 view .LVU108
 562 0008 12B1     		cbz	r2, .L40
 104:Drivers/lvgl/src/draw/lv_draw_buf.c ****     else return 0;
 563              		.loc 1 104 38 is_stmt 1 discriminator 1 view .LVU109
 104:Drivers/lvgl/src/draw/lv_draw_buf.c ****     else return 0;
 564              		.loc 1 104 45 is_stmt 0 discriminator 1 view .LVU110
 565 000a 1846     		mov	r0, r3
 566              	.LVL43:
 104:Drivers/lvgl/src/draw/lv_draw_buf.c ****     else return 0;
 567              		.loc 1 104 45 discriminator 1 view .LVU111
 568 000c 9047     		blx	r2
 569              	.LVL44:
 570              	.L38:
 106:Drivers/lvgl/src/draw/lv_draw_buf.c **** 
 571              		.loc 1 106 1 view .LVU112
 572 000e 08BD     		pop	{r3, pc}
 573              	.LVL45:
 574              	.L40:
 105:Drivers/lvgl/src/draw/lv_draw_buf.c **** }
 575              		.loc 1 105 17 view .LVU113
 576 0010 0020     		movs	r0, #0
 577              	.LVL46:
 105:Drivers/lvgl/src/draw/lv_draw_buf.c **** }
 578              		.loc 1 105 17 view .LVU114
 579 0012 FCE7     		b	.L38
ARM GAS  /tmp/ccrMvAjz.s 			page 26


 580              		.cfi_endproc
 581              	.LFE193:
 583              		.section	.text.lv_draw_buf_width_to_stride,"ax",%progbits
 584              		.align	1
 585              		.global	lv_draw_buf_width_to_stride
 586              		.syntax unified
 587              		.thumb
 588              		.thumb_func
 590              	lv_draw_buf_width_to_stride:
 591              	.LVL47:
 592              	.LFB192:
  97:Drivers/lvgl/src/draw/lv_draw_buf.c ****     return lv_draw_buf_width_to_stride_ex(&default_handlers, w, color_format);
 593              		.loc 1 97 1 is_stmt 1 view -0
 594              		.cfi_startproc
 595              		@ args = 0, pretend = 0, frame = 0
 596              		@ frame_needed = 0, uses_anonymous_args = 0
  97:Drivers/lvgl/src/draw/lv_draw_buf.c ****     return lv_draw_buf_width_to_stride_ex(&default_handlers, w, color_format);
 597              		.loc 1 97 1 is_stmt 0 view .LVU116
 598 0000 08B5     		push	{r3, lr}
 599              	.LCFI14:
 600              		.cfi_def_cfa_offset 8
 601              		.cfi_offset 3, -8
 602              		.cfi_offset 14, -4
 603 0002 0A46     		mov	r2, r1
  98:Drivers/lvgl/src/draw/lv_draw_buf.c **** }
 604              		.loc 1 98 5 is_stmt 1 view .LVU117
  98:Drivers/lvgl/src/draw/lv_draw_buf.c **** }
 605              		.loc 1 98 12 is_stmt 0 view .LVU118
 606 0004 0146     		mov	r1, r0
 607              	.LVL48:
  98:Drivers/lvgl/src/draw/lv_draw_buf.c **** }
 608              		.loc 1 98 12 view .LVU119
 609 0006 0248     		ldr	r0, .L44
 610              	.LVL49:
  98:Drivers/lvgl/src/draw/lv_draw_buf.c **** }
 611              		.loc 1 98 12 view .LVU120
 612 0008 FFF7FEFF 		bl	lv_draw_buf_width_to_stride_ex
 613              	.LVL50:
  99:Drivers/lvgl/src/draw/lv_draw_buf.c **** 
 614              		.loc 1 99 1 view .LVU121
 615 000c 08BD     		pop	{r3, pc}
 616              	.L45:
 617 000e 00BF     		.align	2
 618              	.L44:
 619 0010 C8000000 		.word	lv_global+200
 620              		.cfi_endproc
 621              	.LFE192:
 623              		.section	.text._calculate_draw_buf_size,"ax",%progbits
 624              		.align	1
 625              		.syntax unified
 626              		.thumb
 627              		.thumb_func
 629              	_calculate_draw_buf_size:
 630              	.LVL51:
 631              	.LFB224:
 704:Drivers/lvgl/src/draw/lv_draw_buf.c ****     uint32_t size;
 632              		.loc 1 704 1 is_stmt 1 view -0
ARM GAS  /tmp/ccrMvAjz.s 			page 27


 633              		.cfi_startproc
 634              		@ args = 0, pretend = 0, frame = 0
 635              		@ frame_needed = 0, uses_anonymous_args = 0
 704:Drivers/lvgl/src/draw/lv_draw_buf.c ****     uint32_t size;
 636              		.loc 1 704 1 is_stmt 0 view .LVU123
 637 0000 38B5     		push	{r3, r4, r5, lr}
 638              	.LCFI15:
 639              		.cfi_def_cfa_offset 16
 640              		.cfi_offset 3, -16
 641              		.cfi_offset 4, -12
 642              		.cfi_offset 5, -8
 643              		.cfi_offset 14, -4
 644 0002 0D46     		mov	r5, r1
 645 0004 1446     		mov	r4, r2
 705:Drivers/lvgl/src/draw/lv_draw_buf.c **** 
 646              		.loc 1 705 5 is_stmt 1 view .LVU124
 707:Drivers/lvgl/src/draw/lv_draw_buf.c **** 
 647              		.loc 1 707 5 view .LVU125
 707:Drivers/lvgl/src/draw/lv_draw_buf.c **** 
 648              		.loc 1 707 7 is_stmt 0 view .LVU126
 649 0006 1A46     		mov	r2, r3
 650              	.LVL52:
 707:Drivers/lvgl/src/draw/lv_draw_buf.c **** 
 651              		.loc 1 707 7 view .LVU127
 652 0008 73B1     		cbz	r3, .L58
 653              	.LVL53:
 654              	.L47:
 709:Drivers/lvgl/src/draw/lv_draw_buf.c ****     if(cf == LV_COLOR_FORMAT_RGB565A8) {
 655              		.loc 1 709 5 is_stmt 1 view .LVU128
 709:Drivers/lvgl/src/draw/lv_draw_buf.c ****     if(cf == LV_COLOR_FORMAT_RGB565A8) {
 656              		.loc 1 709 10 is_stmt 0 view .LVU129
 657 000a 05FB02F0 		mul	r0, r5, r2
 658              	.LVL54:
 710:Drivers/lvgl/src/draw/lv_draw_buf.c ****         size += (stride / 2) * h; /*A8 mask*/
 659              		.loc 1 710 5 is_stmt 1 view .LVU130
 710:Drivers/lvgl/src/draw/lv_draw_buf.c ****         size += (stride / 2) * h; /*A8 mask*/
 660              		.loc 1 710 7 is_stmt 0 view .LVU131
 661 000e 142C     		cmp	r4, #20
 662 0010 0FD0     		beq	.L59
 713:Drivers/lvgl/src/draw/lv_draw_buf.c ****         /*@todo we have to include palette right before image data*/
 663              		.loc 1 713 10 is_stmt 1 view .LVU132
 713:Drivers/lvgl/src/draw/lv_draw_buf.c ****         /*@todo we have to include palette right before image data*/
 664              		.loc 1 713 13 is_stmt 0 view .LVU133
 665 0012 E31F     		subs	r3, r4, #7
 666 0014 DBB2     		uxtb	r3, r3
 713:Drivers/lvgl/src/draw/lv_draw_buf.c ****         /*@todo we have to include palette right before image data*/
 667              		.loc 1 713 12 view .LVU134
 668 0016 032B     		cmp	r3, #3
 669 0018 0ED8     		bhi	.L46
 715:Drivers/lvgl/src/draw/lv_draw_buf.c ****     }
 670              		.loc 1 715 9 is_stmt 1 view .LVU135
 671 001a 073C     		subs	r4, r4, #7
 672              	.LVL55:
 715:Drivers/lvgl/src/draw/lv_draw_buf.c ****     }
 673              		.loc 1 715 9 is_stmt 0 view .LVU136
 674 001c 032C     		cmp	r4, #3
 675 001e 0CD8     		bhi	.L50
ARM GAS  /tmp/ccrMvAjz.s 			page 28


 676 0020 DFE804F0 		tbb	[pc, r4]
 677              	.L52:
 678 0024 15       		.byte	(.L56-.L52)/2
 679 0025 0D       		.byte	(.L54-.L52)/2
 680 0026 10       		.byte	(.L53-.L52)/2
 681 0027 12       		.byte	(.L51-.L52)/2
 682              	.LVL56:
 683              		.p2align 1
 684              	.L58:
 707:Drivers/lvgl/src/draw/lv_draw_buf.c **** 
 685              		.loc 1 707 21 is_stmt 1 discriminator 1 view .LVU137
 707:Drivers/lvgl/src/draw/lv_draw_buf.c **** 
 686              		.loc 1 707 30 is_stmt 0 discriminator 1 view .LVU138
 687 0028 2146     		mov	r1, r4
 688              	.LVL57:
 707:Drivers/lvgl/src/draw/lv_draw_buf.c **** 
 689              		.loc 1 707 30 discriminator 1 view .LVU139
 690 002a FFF7FEFF 		bl	lv_draw_buf_width_to_stride
 691              	.LVL58:
 707:Drivers/lvgl/src/draw/lv_draw_buf.c **** 
 692              		.loc 1 707 30 discriminator 1 view .LVU140
 693 002e 0246     		mov	r2, r0
 694 0030 EBE7     		b	.L47
 695              	.LVL59:
 696              	.L59:
 711:Drivers/lvgl/src/draw/lv_draw_buf.c ****     }
 697              		.loc 1 711 9 is_stmt 1 view .LVU141
 711:Drivers/lvgl/src/draw/lv_draw_buf.c ****     }
 698              		.loc 1 711 25 is_stmt 0 view .LVU142
 699 0032 5208     		lsrs	r2, r2, #1
 700              	.LVL60:
 711:Drivers/lvgl/src/draw/lv_draw_buf.c ****     }
 701              		.loc 1 711 14 view .LVU143
 702 0034 05FB0200 		mla	r0, r5, r2, r0
 703              	.LVL61:
 704              	.L46:
 719:Drivers/lvgl/src/draw/lv_draw_buf.c **** 
 705              		.loc 1 719 1 view .LVU144
 706 0038 38BD     		pop	{r3, r4, r5, pc}
 707              	.LVL62:
 708              	.L50:
 713:Drivers/lvgl/src/draw/lv_draw_buf.c ****         /*@todo we have to include palette right before image data*/
 709              		.loc 1 713 12 view .LVU145
 710 003a 0023     		movs	r3, #0
 711 003c 00E0     		b	.L55
 712              	.L54:
 713 003e 1023     		movs	r3, #16
 714              	.L55:
 715:Drivers/lvgl/src/draw/lv_draw_buf.c ****     }
 715              		.loc 1 715 14 discriminator 16 view .LVU146
 716 0040 1844     		add	r0, r0, r3
 717              	.LVL63:
 718:Drivers/lvgl/src/draw/lv_draw_buf.c **** }
 718              		.loc 1 718 5 is_stmt 1 view .LVU147
 718:Drivers/lvgl/src/draw/lv_draw_buf.c **** }
 719              		.loc 1 718 12 is_stmt 0 view .LVU148
 720 0042 F9E7     		b	.L46
ARM GAS  /tmp/ccrMvAjz.s 			page 29


 721              	.L53:
 713:Drivers/lvgl/src/draw/lv_draw_buf.c ****         /*@todo we have to include palette right before image data*/
 722              		.loc 1 713 12 view .LVU149
 723 0044 4023     		movs	r3, #64
 724 0046 FBE7     		b	.L55
 725              	.L51:
 726 0048 4FF48063 		mov	r3, #1024
 727 004c F8E7     		b	.L55
 728              	.L56:
 729 004e 0823     		movs	r3, #8
 730 0050 F6E7     		b	.L55
 731              		.cfi_endproc
 732              	.LFE224:
 734              		.section	.text.lv_draw_buf_align_ex,"ax",%progbits
 735              		.align	1
 736              		.global	lv_draw_buf_align_ex
 737              		.syntax unified
 738              		.thumb
 739              		.thumb_func
 741              	lv_draw_buf_align_ex:
 742              	.LVL64:
 743              	.LFB195:
 114:Drivers/lvgl/src/draw/lv_draw_buf.c ****     if(handlers->align_pointer_cb) return handlers->align_pointer_cb(data, color_format);
 744              		.loc 1 114 1 is_stmt 1 view -0
 745              		.cfi_startproc
 746              		@ args = 0, pretend = 0, frame = 0
 747              		@ frame_needed = 0, uses_anonymous_args = 0
 114:Drivers/lvgl/src/draw/lv_draw_buf.c ****     if(handlers->align_pointer_cb) return handlers->align_pointer_cb(data, color_format);
 748              		.loc 1 114 1 is_stmt 0 view .LVU151
 749 0000 08B5     		push	{r3, lr}
 750              	.LCFI16:
 751              		.cfi_def_cfa_offset 8
 752              		.cfi_offset 3, -8
 753              		.cfi_offset 14, -4
 754 0002 0B46     		mov	r3, r1
 755 0004 1146     		mov	r1, r2
 756              	.LVL65:
 115:Drivers/lvgl/src/draw/lv_draw_buf.c ****     else return NULL;
 757              		.loc 1 115 5 is_stmt 1 view .LVU152
 115:Drivers/lvgl/src/draw/lv_draw_buf.c ****     else return NULL;
 758              		.loc 1 115 16 is_stmt 0 view .LVU153
 759 0006 8268     		ldr	r2, [r0, #8]
 760              	.LVL66:
 115:Drivers/lvgl/src/draw/lv_draw_buf.c ****     else return NULL;
 761              		.loc 1 115 7 view .LVU154
 762 0008 12B1     		cbz	r2, .L62
 115:Drivers/lvgl/src/draw/lv_draw_buf.c ****     else return NULL;
 763              		.loc 1 115 36 is_stmt 1 discriminator 1 view .LVU155
 115:Drivers/lvgl/src/draw/lv_draw_buf.c ****     else return NULL;
 764              		.loc 1 115 43 is_stmt 0 discriminator 1 view .LVU156
 765 000a 1846     		mov	r0, r3
 766              	.LVL67:
 115:Drivers/lvgl/src/draw/lv_draw_buf.c ****     else return NULL;
 767              		.loc 1 115 43 discriminator 1 view .LVU157
 768 000c 9047     		blx	r2
 769              	.LVL68:
 770              	.L60:
ARM GAS  /tmp/ccrMvAjz.s 			page 30


 117:Drivers/lvgl/src/draw/lv_draw_buf.c **** 
 771              		.loc 1 117 1 view .LVU158
 772 000e 08BD     		pop	{r3, pc}
 773              	.LVL69:
 774              	.L62:
 116:Drivers/lvgl/src/draw/lv_draw_buf.c **** }
 775              		.loc 1 116 17 view .LVU159
 776 0010 0020     		movs	r0, #0
 777              	.LVL70:
 116:Drivers/lvgl/src/draw/lv_draw_buf.c **** }
 778              		.loc 1 116 17 view .LVU160
 779 0012 FCE7     		b	.L60
 780              		.cfi_endproc
 781              	.LFE195:
 783              		.section	.text.lv_draw_buf_align,"ax",%progbits
 784              		.align	1
 785              		.global	lv_draw_buf_align
 786              		.syntax unified
 787              		.thumb
 788              		.thumb_func
 790              	lv_draw_buf_align:
 791              	.LVL71:
 792              	.LFB194:
 109:Drivers/lvgl/src/draw/lv_draw_buf.c ****     return lv_draw_buf_align_ex(&default_handlers, data, color_format);
 793              		.loc 1 109 1 is_stmt 1 view -0
 794              		.cfi_startproc
 795              		@ args = 0, pretend = 0, frame = 0
 796              		@ frame_needed = 0, uses_anonymous_args = 0
 109:Drivers/lvgl/src/draw/lv_draw_buf.c ****     return lv_draw_buf_align_ex(&default_handlers, data, color_format);
 797              		.loc 1 109 1 is_stmt 0 view .LVU162
 798 0000 08B5     		push	{r3, lr}
 799              	.LCFI17:
 800              		.cfi_def_cfa_offset 8
 801              		.cfi_offset 3, -8
 802              		.cfi_offset 14, -4
 803 0002 0A46     		mov	r2, r1
 110:Drivers/lvgl/src/draw/lv_draw_buf.c **** }
 804              		.loc 1 110 5 is_stmt 1 view .LVU163
 110:Drivers/lvgl/src/draw/lv_draw_buf.c **** }
 805              		.loc 1 110 12 is_stmt 0 view .LVU164
 806 0004 0146     		mov	r1, r0
 807              	.LVL72:
 110:Drivers/lvgl/src/draw/lv_draw_buf.c **** }
 808              		.loc 1 110 12 view .LVU165
 809 0006 0248     		ldr	r0, .L66
 810              	.LVL73:
 110:Drivers/lvgl/src/draw/lv_draw_buf.c **** }
 811              		.loc 1 110 12 view .LVU166
 812 0008 FFF7FEFF 		bl	lv_draw_buf_align_ex
 813              	.LVL74:
 111:Drivers/lvgl/src/draw/lv_draw_buf.c **** 
 814              		.loc 1 111 1 view .LVU167
 815 000c 08BD     		pop	{r3, pc}
 816              	.L67:
 817 000e 00BF     		.align	2
 818              	.L66:
 819 0010 C8000000 		.word	lv_global+200
ARM GAS  /tmp/ccrMvAjz.s 			page 31


 820              		.cfi_endproc
 821              	.LFE194:
 823              		.section	.text.lv_draw_buf_invalidate_cache,"ax",%progbits
 824              		.align	1
 825              		.global	lv_draw_buf_invalidate_cache
 826              		.syntax unified
 827              		.thumb
 828              		.thumb_func
 830              	lv_draw_buf_invalidate_cache:
 831              	.LVL75:
 832              	.LFB196:
 120:Drivers/lvgl/src/draw/lv_draw_buf.c ****     LV_ASSERT_NULL(draw_buf);
 833              		.loc 1 120 1 is_stmt 1 view -0
 834              		.cfi_startproc
 835              		@ args = 0, pretend = 0, frame = 16
 836              		@ frame_needed = 0, uses_anonymous_args = 0
 121:Drivers/lvgl/src/draw/lv_draw_buf.c ****     LV_ASSERT_NULL(draw_buf->handlers);
 837              		.loc 1 121 5 view .LVU169
 121:Drivers/lvgl/src/draw/lv_draw_buf.c ****     LV_ASSERT_NULL(draw_buf->handlers);
 838              		.loc 1 121 5 view .LVU170
 839 0000 60B1     		cbz	r0, .L70
 120:Drivers/lvgl/src/draw/lv_draw_buf.c ****     LV_ASSERT_NULL(draw_buf);
 840              		.loc 1 120 1 is_stmt 0 view .LVU171
 841 0002 70B5     		push	{r4, r5, r6, lr}
 842              	.LCFI18:
 843              		.cfi_def_cfa_offset 16
 844              		.cfi_offset 4, -16
 845              		.cfi_offset 5, -12
 846              		.cfi_offset 6, -8
 847              		.cfi_offset 14, -4
 848 0004 84B0     		sub	sp, sp, #16
 849              	.LCFI19:
 850              		.cfi_def_cfa_offset 32
 851 0006 0646     		mov	r6, r0
 121:Drivers/lvgl/src/draw/lv_draw_buf.c ****     LV_ASSERT_NULL(draw_buf->handlers);
 852              		.loc 1 121 5 is_stmt 1 discriminator 2 view .LVU172
 121:Drivers/lvgl/src/draw/lv_draw_buf.c ****     LV_ASSERT_NULL(draw_buf->handlers);
 853              		.loc 1 121 29 discriminator 2 view .LVU173
 122:Drivers/lvgl/src/draw/lv_draw_buf.c **** 
 854              		.loc 1 122 5 view .LVU174
 122:Drivers/lvgl/src/draw/lv_draw_buf.c **** 
 855              		.loc 1 122 5 view .LVU175
 856 0008 8569     		ldr	r5, [r0, #24]
 857 000a 45B1     		cbz	r5, .L72
 122:Drivers/lvgl/src/draw/lv_draw_buf.c **** 
 858              		.loc 1 122 5 discriminator 2 view .LVU176
 122:Drivers/lvgl/src/draw/lv_draw_buf.c **** 
 859              		.loc 1 122 39 discriminator 2 view .LVU177
 124:Drivers/lvgl/src/draw/lv_draw_buf.c ****     if(!handlers->invalidate_cache_cb) {
 860              		.loc 1 124 5 view .LVU178
 861              	.LVL76:
 125:Drivers/lvgl/src/draw/lv_draw_buf.c ****         return;
 862              		.loc 1 125 5 view .LVU179
 125:Drivers/lvgl/src/draw/lv_draw_buf.c ****         return;
 863              		.loc 1 125 17 is_stmt 0 view .LVU180
 864 000c EB68     		ldr	r3, [r5, #12]
 125:Drivers/lvgl/src/draw/lv_draw_buf.c ****         return;
ARM GAS  /tmp/ccrMvAjz.s 			page 32


 865              		.loc 1 125 7 view .LVU181
 866 000e 1BB1     		cbz	r3, .L68
 129:Drivers/lvgl/src/draw/lv_draw_buf.c **** 
 867              		.loc 1 129 27 is_stmt 1 view .LVU182
 131:Drivers/lvgl/src/draw/lv_draw_buf.c ****     if(area == NULL) {
 868              		.loc 1 131 5 view .LVU183
 132:Drivers/lvgl/src/draw/lv_draw_buf.c ****         draw_buf_get_full_area(draw_buf, &full);
 869              		.loc 1 132 5 view .LVU184
 132:Drivers/lvgl/src/draw/lv_draw_buf.c ****         draw_buf_get_full_area(draw_buf, &full);
 870              		.loc 1 132 7 is_stmt 0 view .LVU185
 871 0010 31B1     		cbz	r1, .L78
 872              	.LVL77:
 873              	.L75:
 137:Drivers/lvgl/src/draw/lv_draw_buf.c ****     LV_PROFILER_DRAW_END;
 874              		.loc 1 137 5 is_stmt 1 view .LVU186
 137:Drivers/lvgl/src/draw/lv_draw_buf.c ****     LV_PROFILER_DRAW_END;
 875              		.loc 1 137 13 is_stmt 0 view .LVU187
 876 0012 EB68     		ldr	r3, [r5, #12]
 137:Drivers/lvgl/src/draw/lv_draw_buf.c ****     LV_PROFILER_DRAW_END;
 877              		.loc 1 137 5 view .LVU188
 878 0014 3046     		mov	r0, r6
 879 0016 9847     		blx	r3
 880              	.LVL78:
 138:Drivers/lvgl/src/draw/lv_draw_buf.c **** }
 881              		.loc 1 138 25 is_stmt 1 view .LVU189
 882              	.L68:
 139:Drivers/lvgl/src/draw/lv_draw_buf.c **** 
 883              		.loc 1 139 1 is_stmt 0 view .LVU190
 884 0018 04B0     		add	sp, sp, #16
 885              	.LCFI20:
 886              		.cfi_def_cfa_offset 16
 887              		@ sp needed
 888 001a 70BD     		pop	{r4, r5, r6, pc}
 889              	.LVL79:
 890              	.L70:
 891              	.LCFI21:
 892              		.cfi_def_cfa_offset 0
 893              		.cfi_restore 4
 894              		.cfi_restore 5
 895              		.cfi_restore 6
 896              		.cfi_restore 14
 121:Drivers/lvgl/src/draw/lv_draw_buf.c ****     LV_ASSERT_NULL(draw_buf->handlers);
 897              		.loc 1 121 5 is_stmt 1 discriminator 1 view .LVU191
 121:Drivers/lvgl/src/draw/lv_draw_buf.c ****     LV_ASSERT_NULL(draw_buf->handlers);
 898              		.loc 1 121 5 discriminator 1 view .LVU192
 121:Drivers/lvgl/src/draw/lv_draw_buf.c ****     LV_ASSERT_NULL(draw_buf->handlers);
 899              		.loc 1 121 5 discriminator 1 view .LVU193
 121:Drivers/lvgl/src/draw/lv_draw_buf.c ****     LV_ASSERT_NULL(draw_buf->handlers);
 900              		.loc 1 121 5 discriminator 1 view .LVU194
 121:Drivers/lvgl/src/draw/lv_draw_buf.c ****     LV_ASSERT_NULL(draw_buf->handlers);
 901              		.loc 1 121 5 discriminator 1 view .LVU195
 902 001c FEE7     		b	.L70
 903              	.L72:
 904              	.LCFI22:
 905              		.cfi_def_cfa_offset 32
 906              		.cfi_offset 4, -16
 907              		.cfi_offset 5, -12
ARM GAS  /tmp/ccrMvAjz.s 			page 33


 908              		.cfi_offset 6, -8
 909              		.cfi_offset 14, -4
 122:Drivers/lvgl/src/draw/lv_draw_buf.c **** 
 910              		.loc 1 122 5 discriminator 1 view .LVU196
 122:Drivers/lvgl/src/draw/lv_draw_buf.c **** 
 911              		.loc 1 122 5 discriminator 1 view .LVU197
 122:Drivers/lvgl/src/draw/lv_draw_buf.c **** 
 912              		.loc 1 122 5 discriminator 1 view .LVU198
 122:Drivers/lvgl/src/draw/lv_draw_buf.c **** 
 913              		.loc 1 122 5 discriminator 1 view .LVU199
 122:Drivers/lvgl/src/draw/lv_draw_buf.c **** 
 914              		.loc 1 122 5 discriminator 1 view .LVU200
 915 001e FEE7     		b	.L72
 916              	.LVL80:
 917              	.L78:
 133:Drivers/lvgl/src/draw/lv_draw_buf.c ****         area = &full;
 918              		.loc 1 133 9 view .LVU201
 919 0020 6946     		mov	r1, sp
 920              	.LVL81:
 133:Drivers/lvgl/src/draw/lv_draw_buf.c ****         area = &full;
 921              		.loc 1 133 9 is_stmt 0 view .LVU202
 922 0022 FFF7FEFF 		bl	draw_buf_get_full_area
 923              	.LVL82:
 134:Drivers/lvgl/src/draw/lv_draw_buf.c ****     }
 924              		.loc 1 134 9 is_stmt 1 view .LVU203
 134:Drivers/lvgl/src/draw/lv_draw_buf.c ****     }
 925              		.loc 1 134 14 is_stmt 0 view .LVU204
 926 0026 6946     		mov	r1, sp
 927 0028 F3E7     		b	.L75
 928              		.cfi_endproc
 929              	.LFE196:
 931              		.section	.text.lv_draw_buf_flush_cache,"ax",%progbits
 932              		.align	1
 933              		.global	lv_draw_buf_flush_cache
 934              		.syntax unified
 935              		.thumb
 936              		.thumb_func
 938              	lv_draw_buf_flush_cache:
 939              	.LVL83:
 940              	.LFB197:
 142:Drivers/lvgl/src/draw/lv_draw_buf.c ****     LV_ASSERT_NULL(draw_buf);
 941              		.loc 1 142 1 is_stmt 1 view -0
 942              		.cfi_startproc
 943              		@ args = 0, pretend = 0, frame = 16
 944              		@ frame_needed = 0, uses_anonymous_args = 0
 143:Drivers/lvgl/src/draw/lv_draw_buf.c ****     LV_ASSERT_NULL(draw_buf->handlers);
 945              		.loc 1 143 5 view .LVU206
 143:Drivers/lvgl/src/draw/lv_draw_buf.c ****     LV_ASSERT_NULL(draw_buf->handlers);
 946              		.loc 1 143 5 view .LVU207
 947 0000 60B1     		cbz	r0, .L81
 142:Drivers/lvgl/src/draw/lv_draw_buf.c ****     LV_ASSERT_NULL(draw_buf);
 948              		.loc 1 142 1 is_stmt 0 view .LVU208
 949 0002 70B5     		push	{r4, r5, r6, lr}
 950              	.LCFI23:
 951              		.cfi_def_cfa_offset 16
 952              		.cfi_offset 4, -16
 953              		.cfi_offset 5, -12
ARM GAS  /tmp/ccrMvAjz.s 			page 34


 954              		.cfi_offset 6, -8
 955              		.cfi_offset 14, -4
 956 0004 84B0     		sub	sp, sp, #16
 957              	.LCFI24:
 958              		.cfi_def_cfa_offset 32
 959 0006 0646     		mov	r6, r0
 143:Drivers/lvgl/src/draw/lv_draw_buf.c ****     LV_ASSERT_NULL(draw_buf->handlers);
 960              		.loc 1 143 5 is_stmt 1 discriminator 2 view .LVU209
 143:Drivers/lvgl/src/draw/lv_draw_buf.c ****     LV_ASSERT_NULL(draw_buf->handlers);
 961              		.loc 1 143 29 discriminator 2 view .LVU210
 144:Drivers/lvgl/src/draw/lv_draw_buf.c **** 
 962              		.loc 1 144 5 view .LVU211
 144:Drivers/lvgl/src/draw/lv_draw_buf.c **** 
 963              		.loc 1 144 5 view .LVU212
 964 0008 8569     		ldr	r5, [r0, #24]
 965 000a 45B1     		cbz	r5, .L83
 144:Drivers/lvgl/src/draw/lv_draw_buf.c **** 
 966              		.loc 1 144 5 discriminator 2 view .LVU213
 144:Drivers/lvgl/src/draw/lv_draw_buf.c **** 
 967              		.loc 1 144 39 discriminator 2 view .LVU214
 146:Drivers/lvgl/src/draw/lv_draw_buf.c ****     if(!handlers->flush_cache_cb) {
 968              		.loc 1 146 5 view .LVU215
 969              	.LVL84:
 147:Drivers/lvgl/src/draw/lv_draw_buf.c ****         return;
 970              		.loc 1 147 5 view .LVU216
 147:Drivers/lvgl/src/draw/lv_draw_buf.c ****         return;
 971              		.loc 1 147 17 is_stmt 0 view .LVU217
 972 000c 2B69     		ldr	r3, [r5, #16]
 147:Drivers/lvgl/src/draw/lv_draw_buf.c ****         return;
 973              		.loc 1 147 7 view .LVU218
 974 000e 1BB1     		cbz	r3, .L79
 151:Drivers/lvgl/src/draw/lv_draw_buf.c **** 
 975              		.loc 1 151 27 is_stmt 1 view .LVU219
 153:Drivers/lvgl/src/draw/lv_draw_buf.c ****     if(area == NULL) {
 976              		.loc 1 153 5 view .LVU220
 154:Drivers/lvgl/src/draw/lv_draw_buf.c ****         draw_buf_get_full_area(draw_buf, &full);
 977              		.loc 1 154 5 view .LVU221
 154:Drivers/lvgl/src/draw/lv_draw_buf.c ****         draw_buf_get_full_area(draw_buf, &full);
 978              		.loc 1 154 7 is_stmt 0 view .LVU222
 979 0010 31B1     		cbz	r1, .L89
 980              	.LVL85:
 981              	.L86:
 159:Drivers/lvgl/src/draw/lv_draw_buf.c ****     LV_PROFILER_DRAW_END;
 982              		.loc 1 159 5 is_stmt 1 view .LVU223
 159:Drivers/lvgl/src/draw/lv_draw_buf.c ****     LV_PROFILER_DRAW_END;
 983              		.loc 1 159 13 is_stmt 0 view .LVU224
 984 0012 2B69     		ldr	r3, [r5, #16]
 159:Drivers/lvgl/src/draw/lv_draw_buf.c ****     LV_PROFILER_DRAW_END;
 985              		.loc 1 159 5 view .LVU225
 986 0014 3046     		mov	r0, r6
 987 0016 9847     		blx	r3
 988              	.LVL86:
 160:Drivers/lvgl/src/draw/lv_draw_buf.c **** }
 989              		.loc 1 160 25 is_stmt 1 view .LVU226
 990              	.L79:
 161:Drivers/lvgl/src/draw/lv_draw_buf.c **** 
 991              		.loc 1 161 1 is_stmt 0 view .LVU227
ARM GAS  /tmp/ccrMvAjz.s 			page 35


 992 0018 04B0     		add	sp, sp, #16
 993              	.LCFI25:
 994              		.cfi_def_cfa_offset 16
 995              		@ sp needed
 996 001a 70BD     		pop	{r4, r5, r6, pc}
 997              	.LVL87:
 998              	.L81:
 999              	.LCFI26:
 1000              		.cfi_def_cfa_offset 0
 1001              		.cfi_restore 4
 1002              		.cfi_restore 5
 1003              		.cfi_restore 6
 1004              		.cfi_restore 14
 143:Drivers/lvgl/src/draw/lv_draw_buf.c ****     LV_ASSERT_NULL(draw_buf->handlers);
 1005              		.loc 1 143 5 is_stmt 1 discriminator 1 view .LVU228
 143:Drivers/lvgl/src/draw/lv_draw_buf.c ****     LV_ASSERT_NULL(draw_buf->handlers);
 1006              		.loc 1 143 5 discriminator 1 view .LVU229
 143:Drivers/lvgl/src/draw/lv_draw_buf.c ****     LV_ASSERT_NULL(draw_buf->handlers);
 1007              		.loc 1 143 5 discriminator 1 view .LVU230
 143:Drivers/lvgl/src/draw/lv_draw_buf.c ****     LV_ASSERT_NULL(draw_buf->handlers);
 1008              		.loc 1 143 5 discriminator 1 view .LVU231
 143:Drivers/lvgl/src/draw/lv_draw_buf.c ****     LV_ASSERT_NULL(draw_buf->handlers);
 1009              		.loc 1 143 5 discriminator 1 view .LVU232
 1010 001c FEE7     		b	.L81
 1011              	.L83:
 1012              	.LCFI27:
 1013              		.cfi_def_cfa_offset 32
 1014              		.cfi_offset 4, -16
 1015              		.cfi_offset 5, -12
 1016              		.cfi_offset 6, -8
 1017              		.cfi_offset 14, -4
 144:Drivers/lvgl/src/draw/lv_draw_buf.c **** 
 1018              		.loc 1 144 5 discriminator 1 view .LVU233
 144:Drivers/lvgl/src/draw/lv_draw_buf.c **** 
 1019              		.loc 1 144 5 discriminator 1 view .LVU234
 144:Drivers/lvgl/src/draw/lv_draw_buf.c **** 
 1020              		.loc 1 144 5 discriminator 1 view .LVU235
 144:Drivers/lvgl/src/draw/lv_draw_buf.c **** 
 1021              		.loc 1 144 5 discriminator 1 view .LVU236
 144:Drivers/lvgl/src/draw/lv_draw_buf.c **** 
 1022              		.loc 1 144 5 discriminator 1 view .LVU237
 1023 001e FEE7     		b	.L83
 1024              	.LVL88:
 1025              	.L89:
 155:Drivers/lvgl/src/draw/lv_draw_buf.c ****         area = &full;
 1026              		.loc 1 155 9 view .LVU238
 1027 0020 6946     		mov	r1, sp
 1028              	.LVL89:
 155:Drivers/lvgl/src/draw/lv_draw_buf.c ****         area = &full;
 1029              		.loc 1 155 9 is_stmt 0 view .LVU239
 1030 0022 FFF7FEFF 		bl	draw_buf_get_full_area
 1031              	.LVL90:
 156:Drivers/lvgl/src/draw/lv_draw_buf.c ****     }
 1032              		.loc 1 156 9 is_stmt 1 view .LVU240
 156:Drivers/lvgl/src/draw/lv_draw_buf.c ****     }
 1033              		.loc 1 156 14 is_stmt 0 view .LVU241
 1034 0026 6946     		mov	r1, sp
ARM GAS  /tmp/ccrMvAjz.s 			page 36


 1035 0028 F3E7     		b	.L86
 1036              		.cfi_endproc
 1037              	.LFE197:
 1039              		.section	.text.lv_draw_buf_init,"ax",%progbits
 1040              		.align	1
 1041              		.global	lv_draw_buf_init
 1042              		.syntax unified
 1043              		.thumb
 1044              		.thumb_func
 1046              	lv_draw_buf_init:
 1047              	.LVL91:
 1048              	.LFB200:
 273:Drivers/lvgl/src/draw/lv_draw_buf.c ****     LV_ASSERT_NULL(draw_buf);
 1049              		.loc 1 273 1 is_stmt 1 view -0
 1050              		.cfi_startproc
 1051              		@ args = 12, pretend = 0, frame = 0
 1052              		@ frame_needed = 0, uses_anonymous_args = 0
 273:Drivers/lvgl/src/draw/lv_draw_buf.c ****     LV_ASSERT_NULL(draw_buf);
 1053              		.loc 1 273 1 is_stmt 0 view .LVU243
 1054 0000 2DE9F041 		push	{r4, r5, r6, r7, r8, lr}
 1055              	.LCFI28:
 1056              		.cfi_def_cfa_offset 24
 1057              		.cfi_offset 4, -24
 1058              		.cfi_offset 5, -20
 1059              		.cfi_offset 6, -16
 1060              		.cfi_offset 7, -12
 1061              		.cfi_offset 8, -8
 1062              		.cfi_offset 14, -4
 1063 0004 069E     		ldr	r6, [sp, #24]
 274:Drivers/lvgl/src/draw/lv_draw_buf.c ****     if(draw_buf == NULL) return LV_RESULT_INVALID;
 1064              		.loc 1 274 5 is_stmt 1 view .LVU244
 274:Drivers/lvgl/src/draw/lv_draw_buf.c ****     if(draw_buf == NULL) return LV_RESULT_INVALID;
 1065              		.loc 1 274 5 view .LVU245
 1066 0006 80B1     		cbz	r0, .L92
 1067 0008 8846     		mov	r8, r1
 1068 000a 1546     		mov	r5, r2
 1069 000c 1F46     		mov	r7, r3
 1070 000e 0446     		mov	r4, r0
 274:Drivers/lvgl/src/draw/lv_draw_buf.c ****     if(draw_buf == NULL) return LV_RESULT_INVALID;
 1071              		.loc 1 274 5 discriminator 2 view .LVU246
 274:Drivers/lvgl/src/draw/lv_draw_buf.c ****     if(draw_buf == NULL) return LV_RESULT_INVALID;
 1072              		.loc 1 274 29 discriminator 2 view .LVU247
 275:Drivers/lvgl/src/draw/lv_draw_buf.c **** 
 1073              		.loc 1 275 5 view .LVU248
 277:Drivers/lvgl/src/draw/lv_draw_buf.c ****     if(stride == 0) stride = lv_draw_buf_width_to_stride(w, cf);
 1074              		.loc 1 277 5 view .LVU249
 1075              	.LVL92:
 1076              	.LBB13:
 1077              	.LBI13:
  73:Drivers/lvgl/src/draw/../misc/../stdlib/lv_string.h **** {
 1078              		.loc 2 73 20 view .LVU250
 1079              	.LBB14:
 1080              		.loc 2 75 5 view .LVU251
 1081 0010 1C22     		movs	r2, #28
 1082              	.LVL93:
 1083              		.loc 2 75 5 is_stmt 0 view .LVU252
 1084 0012 0021     		movs	r1, #0
ARM GAS  /tmp/ccrMvAjz.s 			page 37


 1085              	.LVL94:
 1086              		.loc 2 75 5 view .LVU253
 1087 0014 FFF7FEFF 		bl	lv_memset
 1088              	.LVL95:
 1089              		.loc 2 75 5 view .LVU254
 1090              	.LBE14:
 1091              	.LBE13:
 278:Drivers/lvgl/src/draw/lv_draw_buf.c ****     if(stride * h > data_size) {
 1092              		.loc 1 278 5 is_stmt 1 view .LVU255
 278:Drivers/lvgl/src/draw/lv_draw_buf.c ****     if(stride * h > data_size) {
 1093              		.loc 1 278 7 is_stmt 0 view .LVU256
 1094 0018 46B1     		cbz	r6, .L97
 1095              	.L93:
 1096              	.LVL96:
 279:Drivers/lvgl/src/draw/lv_draw_buf.c ****         LV_LOG_WARN("Data size too small, required: %" LV_PRId32 ", provided: %" LV_PRId32, stride 
 1097              		.loc 1 279 5 is_stmt 1 view .LVU257
 279:Drivers/lvgl/src/draw/lv_draw_buf.c ****         LV_LOG_WARN("Data size too small, required: %" LV_PRId32 ", provided: %" LV_PRId32, stride 
 1098              		.loc 1 279 15 is_stmt 0 view .LVU258
 1099 001a 05FB06F3 		mul	r3, r5, r6
 279:Drivers/lvgl/src/draw/lv_draw_buf.c ****         LV_LOG_WARN("Data size too small, required: %" LV_PRId32 ", provided: %" LV_PRId32, stride 
 1100              		.loc 1 279 7 view .LVU259
 1101 001e 089A     		ldr	r2, [sp, #32]
 1102 0020 9342     		cmp	r3, r2
 1103 0022 09D9     		bls	.L98
 282:Drivers/lvgl/src/draw/lv_draw_buf.c ****     }
 1104              		.loc 1 282 16 view .LVU260
 1105 0024 0020     		movs	r0, #0
 1106              	.L94:
 301:Drivers/lvgl/src/draw/lv_draw_buf.c **** 
 1107              		.loc 1 301 1 view .LVU261
 1108 0026 BDE8F081 		pop	{r4, r5, r6, r7, r8, pc}
 1109              	.LVL97:
 1110              	.L92:
 274:Drivers/lvgl/src/draw/lv_draw_buf.c ****     if(draw_buf == NULL) return LV_RESULT_INVALID;
 1111              		.loc 1 274 5 is_stmt 1 discriminator 1 view .LVU262
 274:Drivers/lvgl/src/draw/lv_draw_buf.c ****     if(draw_buf == NULL) return LV_RESULT_INVALID;
 1112              		.loc 1 274 5 discriminator 1 view .LVU263
 274:Drivers/lvgl/src/draw/lv_draw_buf.c ****     if(draw_buf == NULL) return LV_RESULT_INVALID;
 1113              		.loc 1 274 5 discriminator 1 view .LVU264
 274:Drivers/lvgl/src/draw/lv_draw_buf.c ****     if(draw_buf == NULL) return LV_RESULT_INVALID;
 1114              		.loc 1 274 5 discriminator 1 view .LVU265
 274:Drivers/lvgl/src/draw/lv_draw_buf.c ****     if(draw_buf == NULL) return LV_RESULT_INVALID;
 1115              		.loc 1 274 5 discriminator 1 view .LVU266
 1116 002a FEE7     		b	.L92
 1117              	.LVL98:
 1118              	.L97:
 278:Drivers/lvgl/src/draw/lv_draw_buf.c ****     if(stride * h > data_size) {
 1119              		.loc 1 278 21 discriminator 1 view .LVU267
 278:Drivers/lvgl/src/draw/lv_draw_buf.c ****     if(stride * h > data_size) {
 1120              		.loc 1 278 30 is_stmt 0 discriminator 1 view .LVU268
 1121 002c 3946     		mov	r1, r7
 1122 002e 4046     		mov	r0, r8
 1123 0030 FFF7FEFF 		bl	lv_draw_buf_width_to_stride
 1124              	.LVL99:
 1125 0034 0646     		mov	r6, r0
 1126 0036 F0E7     		b	.L93
 1127              	.LVL100:
ARM GAS  /tmp/ccrMvAjz.s 			page 38


 1128              	.L98:
 285:Drivers/lvgl/src/draw/lv_draw_buf.c ****     header->w = w;
 1129              		.loc 1 285 5 is_stmt 1 view .LVU269
 286:Drivers/lvgl/src/draw/lv_draw_buf.c ****     header->h = h;
 1130              		.loc 1 286 5 view .LVU270
 286:Drivers/lvgl/src/draw/lv_draw_buf.c ****     header->h = h;
 1131              		.loc 1 286 15 is_stmt 0 view .LVU271
 1132 0038 A4F80480 		strh	r8, [r4, #4]	@ movhi
 287:Drivers/lvgl/src/draw/lv_draw_buf.c ****     header->cf = cf;
 1133              		.loc 1 287 5 is_stmt 1 view .LVU272
 287:Drivers/lvgl/src/draw/lv_draw_buf.c ****     header->cf = cf;
 1134              		.loc 1 287 15 is_stmt 0 view .LVU273
 1135 003c E580     		strh	r5, [r4, #6]	@ movhi
 288:Drivers/lvgl/src/draw/lv_draw_buf.c ****     header->stride = stride;
 1136              		.loc 1 288 5 is_stmt 1 view .LVU274
 288:Drivers/lvgl/src/draw/lv_draw_buf.c ****     header->stride = stride;
 1137              		.loc 1 288 16 is_stmt 0 view .LVU275
 1138 003e 6770     		strb	r7, [r4, #1]
 289:Drivers/lvgl/src/draw/lv_draw_buf.c ****     header->flags = 0;
 1139              		.loc 1 289 5 is_stmt 1 view .LVU276
 289:Drivers/lvgl/src/draw/lv_draw_buf.c ****     header->flags = 0;
 1140              		.loc 1 289 20 is_stmt 0 view .LVU277
 1141 0040 2681     		strh	r6, [r4, #8]	@ movhi
 290:Drivers/lvgl/src/draw/lv_draw_buf.c ****     header->magic = LV_IMAGE_HEADER_MAGIC;
 1142              		.loc 1 290 5 is_stmt 1 view .LVU278
 290:Drivers/lvgl/src/draw/lv_draw_buf.c ****     header->magic = LV_IMAGE_HEADER_MAGIC;
 1143              		.loc 1 290 19 is_stmt 0 view .LVU279
 1144 0042 0023     		movs	r3, #0
 1145 0044 6380     		strh	r3, [r4, #2]	@ movhi
 291:Drivers/lvgl/src/draw/lv_draw_buf.c **** 
 1146              		.loc 1 291 5 is_stmt 1 view .LVU280
 291:Drivers/lvgl/src/draw/lv_draw_buf.c **** 
 1147              		.loc 1 291 19 is_stmt 0 view .LVU281
 1148 0046 1923     		movs	r3, #25
 1149 0048 2370     		strb	r3, [r4]
 293:Drivers/lvgl/src/draw/lv_draw_buf.c ****     draw_buf->unaligned_data = data;
 1150              		.loc 1 293 5 is_stmt 1 view .LVU282
 293:Drivers/lvgl/src/draw/lv_draw_buf.c ****     draw_buf->unaligned_data = data;
 1151              		.loc 1 293 20 is_stmt 0 view .LVU283
 1152 004a 079B     		ldr	r3, [sp, #28]
 1153 004c 2361     		str	r3, [r4, #16]
 294:Drivers/lvgl/src/draw/lv_draw_buf.c ****     draw_buf->handlers = &default_handlers;
 1154              		.loc 1 294 5 is_stmt 1 view .LVU284
 294:Drivers/lvgl/src/draw/lv_draw_buf.c ****     draw_buf->handlers = &default_handlers;
 1155              		.loc 1 294 30 is_stmt 0 view .LVU285
 1156 004e 6361     		str	r3, [r4, #20]
 295:Drivers/lvgl/src/draw/lv_draw_buf.c ****     draw_buf->data_size = data_size;
 1157              		.loc 1 295 5 is_stmt 1 view .LVU286
 295:Drivers/lvgl/src/draw/lv_draw_buf.c ****     draw_buf->data_size = data_size;
 1158              		.loc 1 295 24 is_stmt 0 view .LVU287
 1159 0050 044B     		ldr	r3, .L99
 1160 0052 A361     		str	r3, [r4, #24]
 296:Drivers/lvgl/src/draw/lv_draw_buf.c ****     if(lv_draw_buf_align(data, cf) != draw_buf->unaligned_data) {
 1161              		.loc 1 296 5 is_stmt 1 view .LVU288
 296:Drivers/lvgl/src/draw/lv_draw_buf.c ****     if(lv_draw_buf_align(data, cf) != draw_buf->unaligned_data) {
 1162              		.loc 1 296 25 is_stmt 0 view .LVU289
 1163 0054 E260     		str	r2, [r4, #12]
ARM GAS  /tmp/ccrMvAjz.s 			page 39


 297:Drivers/lvgl/src/draw/lv_draw_buf.c ****         LV_LOG_WARN("Data is not aligned, ignored");
 1164              		.loc 1 297 5 is_stmt 1 view .LVU290
 297:Drivers/lvgl/src/draw/lv_draw_buf.c ****         LV_LOG_WARN("Data is not aligned, ignored");
 1165              		.loc 1 297 8 is_stmt 0 view .LVU291
 1166 0056 3946     		mov	r1, r7
 1167 0058 0798     		ldr	r0, [sp, #28]
 1168 005a FFF7FEFF 		bl	lv_draw_buf_align
 1169              	.LVL101:
 298:Drivers/lvgl/src/draw/lv_draw_buf.c ****     }
 1170              		.loc 1 298 9 is_stmt 1 view .LVU292
 298:Drivers/lvgl/src/draw/lv_draw_buf.c ****     }
 1171              		.loc 1 298 9 view .LVU293
 298:Drivers/lvgl/src/draw/lv_draw_buf.c ****     }
 1172              		.loc 1 298 9 view .LVU294
 300:Drivers/lvgl/src/draw/lv_draw_buf.c **** }
 1173              		.loc 1 300 5 view .LVU295
 300:Drivers/lvgl/src/draw/lv_draw_buf.c **** }
 1174              		.loc 1 300 12 is_stmt 0 view .LVU296
 1175 005e 0120     		movs	r0, #1
 1176 0060 E1E7     		b	.L94
 1177              	.L100:
 1178 0062 00BF     		.align	2
 1179              	.L99:
 1180 0064 C8000000 		.word	lv_global+200
 1181              		.cfi_endproc
 1182              	.LFE200:
 1184              		.section	.text.lv_draw_buf_create_ex,"ax",%progbits
 1185              		.align	1
 1186              		.global	lv_draw_buf_create_ex
 1187              		.syntax unified
 1188              		.thumb
 1189              		.thumb_func
 1191              	lv_draw_buf_create_ex:
 1192              	.LVL102:
 1193              	.LFB202:
 310:Drivers/lvgl/src/draw/lv_draw_buf.c ****     LV_PROFILER_DRAW_BEGIN;
 1194              		.loc 1 310 1 is_stmt 1 view -0
 1195              		.cfi_startproc
 1196              		@ args = 4, pretend = 0, frame = 0
 1197              		@ frame_needed = 0, uses_anonymous_args = 0
 310:Drivers/lvgl/src/draw/lv_draw_buf.c ****     LV_PROFILER_DRAW_BEGIN;
 1198              		.loc 1 310 1 is_stmt 0 view .LVU298
 1199 0000 2DE9F84F 		push	{r3, r4, r5, r6, r7, r8, r9, r10, fp, lr}
 1200              	.LCFI29:
 1201              		.cfi_def_cfa_offset 40
 1202              		.cfi_offset 3, -40
 1203              		.cfi_offset 4, -36
 1204              		.cfi_offset 5, -32
 1205              		.cfi_offset 6, -28
 1206              		.cfi_offset 7, -24
 1207              		.cfi_offset 8, -20
 1208              		.cfi_offset 9, -16
 1209              		.cfi_offset 10, -12
 1210              		.cfi_offset 11, -8
 1211              		.cfi_offset 14, -4
 1212 0004 0746     		mov	r7, r0
 1213 0006 0E46     		mov	r6, r1
ARM GAS  /tmp/ccrMvAjz.s 			page 40


 1214 0008 9046     		mov	r8, r2
 1215 000a 1D46     		mov	r5, r3
 1216 000c DDF82890 		ldr	r9, [sp, #40]
 311:Drivers/lvgl/src/draw/lv_draw_buf.c ****     lv_draw_buf_t * draw_buf = lv_malloc_zeroed(sizeof(lv_draw_buf_t));
 1217              		.loc 1 311 27 is_stmt 1 view .LVU299
 312:Drivers/lvgl/src/draw/lv_draw_buf.c ****     LV_ASSERT_MALLOC(draw_buf);
 1218              		.loc 1 312 5 view .LVU300
 312:Drivers/lvgl/src/draw/lv_draw_buf.c ****     LV_ASSERT_MALLOC(draw_buf);
 1219              		.loc 1 312 32 is_stmt 0 view .LVU301
 1220 0010 1C20     		movs	r0, #28
 1221              	.LVL103:
 312:Drivers/lvgl/src/draw/lv_draw_buf.c ****     LV_ASSERT_MALLOC(draw_buf);
 1222              		.loc 1 312 32 view .LVU302
 1223 0012 FFF7FEFF 		bl	lv_malloc_zeroed
 1224              	.LVL104:
 313:Drivers/lvgl/src/draw/lv_draw_buf.c ****     if(draw_buf == NULL) {
 1225              		.loc 1 313 5 is_stmt 1 view .LVU303
 313:Drivers/lvgl/src/draw/lv_draw_buf.c ****     if(draw_buf == NULL) {
 1226              		.loc 1 313 5 view .LVU304
 1227 0016 38B3     		cbz	r0, .L103
 1228 0018 0446     		mov	r4, r0
 313:Drivers/lvgl/src/draw/lv_draw_buf.c ****     if(draw_buf == NULL) {
 1229              		.loc 1 313 5 discriminator 2 view .LVU305
 313:Drivers/lvgl/src/draw/lv_draw_buf.c ****     if(draw_buf == NULL) {
 1230              		.loc 1 313 31 discriminator 2 view .LVU306
 314:Drivers/lvgl/src/draw/lv_draw_buf.c ****         LV_PROFILER_DRAW_END;
 1231              		.loc 1 314 5 view .LVU307
 318:Drivers/lvgl/src/draw/lv_draw_buf.c **** 
 1232              		.loc 1 318 5 view .LVU308
 318:Drivers/lvgl/src/draw/lv_draw_buf.c **** 
 1233              		.loc 1 318 7 is_stmt 0 view .LVU309
 1234 001a B9F1000F 		cmp	r9, #0
 1235 001e 24D0     		beq	.L108
 1236              	.LVL105:
 1237              	.L104:
 320:Drivers/lvgl/src/draw/lv_draw_buf.c **** 
 1238              		.loc 1 320 5 is_stmt 1 view .LVU310
 320:Drivers/lvgl/src/draw/lv_draw_buf.c **** 
 1239              		.loc 1 320 21 is_stmt 0 view .LVU311
 1240 0020 4B46     		mov	r3, r9
 1241 0022 2A46     		mov	r2, r5
 1242 0024 4146     		mov	r1, r8
 1243 0026 3046     		mov	r0, r6
 1244 0028 FFF7FEFF 		bl	_calculate_draw_buf_size
 1245              	.LVL106:
 1246 002c 8246     		mov	r10, r0
 1247              	.LVL107:
 322:Drivers/lvgl/src/draw/lv_draw_buf.c ****     /*Do not assert here as LVGL or the app might just want to try creating a draw_buf*/
 1248              		.loc 1 322 5 is_stmt 1 view .LVU312
 322:Drivers/lvgl/src/draw/lv_draw_buf.c ****     /*Do not assert here as LVGL or the app might just want to try creating a draw_buf*/
 1249              		.loc 1 322 18 is_stmt 0 view .LVU313
 1250 002e 2A46     		mov	r2, r5
 1251 0030 0146     		mov	r1, r0
 1252 0032 3846     		mov	r0, r7
 1253              	.LVL108:
 322:Drivers/lvgl/src/draw/lv_draw_buf.c ****     /*Do not assert here as LVGL or the app might just want to try creating a draw_buf*/
 1254              		.loc 1 322 18 view .LVU314
ARM GAS  /tmp/ccrMvAjz.s 			page 41


 1255 0034 FFF7FEFF 		bl	draw_buf_malloc
 1256              	.LVL109:
 324:Drivers/lvgl/src/draw/lv_draw_buf.c ****         LV_LOG_WARN("No memory: %"LV_PRIu32"x%"LV_PRIu32", cf: %d, stride: %"LV_PRIu32", %"LV_PRIu3
 1257              		.loc 1 324 5 is_stmt 1 view .LVU315
 324:Drivers/lvgl/src/draw/lv_draw_buf.c ****         LV_LOG_WARN("No memory: %"LV_PRIu32"x%"LV_PRIu32", cf: %d, stride: %"LV_PRIu32", %"LV_PRIu3
 1258              		.loc 1 324 7 is_stmt 0 view .LVU316
 1259 0038 8346     		mov	fp, r0
 1260 003a E0B1     		cbz	r0, .L109
 332:Drivers/lvgl/src/draw/lv_draw_buf.c ****     draw_buf->header.h = h;
 1261              		.loc 1 332 5 is_stmt 1 view .LVU317
 332:Drivers/lvgl/src/draw/lv_draw_buf.c ****     draw_buf->header.h = h;
 1262              		.loc 1 332 24 is_stmt 0 view .LVU318
 1263 003c A680     		strh	r6, [r4, #4]	@ movhi
 333:Drivers/lvgl/src/draw/lv_draw_buf.c ****     draw_buf->header.cf = cf;
 1264              		.loc 1 333 5 is_stmt 1 view .LVU319
 333:Drivers/lvgl/src/draw/lv_draw_buf.c ****     draw_buf->header.cf = cf;
 1265              		.loc 1 333 24 is_stmt 0 view .LVU320
 1266 003e A4F80680 		strh	r8, [r4, #6]	@ movhi
 334:Drivers/lvgl/src/draw/lv_draw_buf.c ****     draw_buf->header.flags = LV_IMAGE_FLAGS_MODIFIABLE | LV_IMAGE_FLAGS_ALLOCATED;
 1267              		.loc 1 334 5 is_stmt 1 view .LVU321
 334:Drivers/lvgl/src/draw/lv_draw_buf.c ****     draw_buf->header.flags = LV_IMAGE_FLAGS_MODIFIABLE | LV_IMAGE_FLAGS_ALLOCATED;
 1268              		.loc 1 334 25 is_stmt 0 view .LVU322
 1269 0042 6570     		strb	r5, [r4, #1]
 335:Drivers/lvgl/src/draw/lv_draw_buf.c ****     draw_buf->header.stride = stride;
 1270              		.loc 1 335 5 is_stmt 1 view .LVU323
 335:Drivers/lvgl/src/draw/lv_draw_buf.c ****     draw_buf->header.stride = stride;
 1271              		.loc 1 335 28 is_stmt 0 view .LVU324
 1272 0044 3023     		movs	r3, #48
 1273 0046 6380     		strh	r3, [r4, #2]	@ movhi
 336:Drivers/lvgl/src/draw/lv_draw_buf.c ****     draw_buf->header.magic = LV_IMAGE_HEADER_MAGIC;
 1274              		.loc 1 336 5 is_stmt 1 view .LVU325
 336:Drivers/lvgl/src/draw/lv_draw_buf.c ****     draw_buf->header.magic = LV_IMAGE_HEADER_MAGIC;
 1275              		.loc 1 336 29 is_stmt 0 view .LVU326
 1276 0048 A4F80890 		strh	r9, [r4, #8]	@ movhi
 337:Drivers/lvgl/src/draw/lv_draw_buf.c ****     draw_buf->data = lv_draw_buf_align(buf, cf);
 1277              		.loc 1 337 5 is_stmt 1 view .LVU327
 337:Drivers/lvgl/src/draw/lv_draw_buf.c ****     draw_buf->data = lv_draw_buf_align(buf, cf);
 1278              		.loc 1 337 28 is_stmt 0 view .LVU328
 1279 004c 1923     		movs	r3, #25
 1280 004e 2370     		strb	r3, [r4]
 338:Drivers/lvgl/src/draw/lv_draw_buf.c ****     draw_buf->unaligned_data = buf;
 1281              		.loc 1 338 5 is_stmt 1 view .LVU329
 338:Drivers/lvgl/src/draw/lv_draw_buf.c ****     draw_buf->unaligned_data = buf;
 1282              		.loc 1 338 22 is_stmt 0 view .LVU330
 1283 0050 2946     		mov	r1, r5
 1284 0052 FFF7FEFF 		bl	lv_draw_buf_align
 1285              	.LVL110:
 338:Drivers/lvgl/src/draw/lv_draw_buf.c ****     draw_buf->unaligned_data = buf;
 1286              		.loc 1 338 20 discriminator 1 view .LVU331
 1287 0056 2061     		str	r0, [r4, #16]
 339:Drivers/lvgl/src/draw/lv_draw_buf.c ****     draw_buf->data_size = size;
 1288              		.loc 1 339 5 is_stmt 1 view .LVU332
 339:Drivers/lvgl/src/draw/lv_draw_buf.c ****     draw_buf->data_size = size;
 1289              		.loc 1 339 30 is_stmt 0 view .LVU333
 1290 0058 C4F814B0 		str	fp, [r4, #20]
 340:Drivers/lvgl/src/draw/lv_draw_buf.c ****     draw_buf->handlers = handlers;
 1291              		.loc 1 340 5 is_stmt 1 view .LVU334
ARM GAS  /tmp/ccrMvAjz.s 			page 42


 340:Drivers/lvgl/src/draw/lv_draw_buf.c ****     draw_buf->handlers = handlers;
 1292              		.loc 1 340 25 is_stmt 0 view .LVU335
 1293 005c C4F80CA0 		str	r10, [r4, #12]
 341:Drivers/lvgl/src/draw/lv_draw_buf.c ****     LV_PROFILER_DRAW_END;
 1294              		.loc 1 341 5 is_stmt 1 view .LVU336
 341:Drivers/lvgl/src/draw/lv_draw_buf.c ****     LV_PROFILER_DRAW_END;
 1295              		.loc 1 341 24 is_stmt 0 view .LVU337
 1296 0060 A761     		str	r7, [r4, #24]
 342:Drivers/lvgl/src/draw/lv_draw_buf.c ****     return draw_buf;
 1297              		.loc 1 342 25 is_stmt 1 view .LVU338
 343:Drivers/lvgl/src/draw/lv_draw_buf.c **** }
 1298              		.loc 1 343 5 view .LVU339
 1299              	.LVL111:
 1300              	.L101:
 344:Drivers/lvgl/src/draw/lv_draw_buf.c **** 
 1301              		.loc 1 344 1 is_stmt 0 view .LVU340
 1302 0062 2046     		mov	r0, r4
 1303 0064 BDE8F88F 		pop	{r3, r4, r5, r6, r7, r8, r9, r10, fp, pc}
 1304              	.LVL112:
 1305              	.L103:
 313:Drivers/lvgl/src/draw/lv_draw_buf.c ****     if(draw_buf == NULL) {
 1306              		.loc 1 313 5 is_stmt 1 discriminator 1 view .LVU341
 313:Drivers/lvgl/src/draw/lv_draw_buf.c ****     if(draw_buf == NULL) {
 1307              		.loc 1 313 5 discriminator 1 view .LVU342
 313:Drivers/lvgl/src/draw/lv_draw_buf.c ****     if(draw_buf == NULL) {
 1308              		.loc 1 313 5 discriminator 1 view .LVU343
 313:Drivers/lvgl/src/draw/lv_draw_buf.c ****     if(draw_buf == NULL) {
 1309              		.loc 1 313 5 discriminator 1 view .LVU344
 313:Drivers/lvgl/src/draw/lv_draw_buf.c ****     if(draw_buf == NULL) {
 1310              		.loc 1 313 5 discriminator 1 view .LVU345
 1311 0068 FEE7     		b	.L103
 1312              	.L108:
 318:Drivers/lvgl/src/draw/lv_draw_buf.c **** 
 1313              		.loc 1 318 21 discriminator 1 view .LVU346
 318:Drivers/lvgl/src/draw/lv_draw_buf.c **** 
 1314              		.loc 1 318 30 is_stmt 0 discriminator 1 view .LVU347
 1315 006a 2946     		mov	r1, r5
 1316 006c 3046     		mov	r0, r6
 1317              	.LVL113:
 318:Drivers/lvgl/src/draw/lv_draw_buf.c **** 
 1318              		.loc 1 318 30 discriminator 1 view .LVU348
 1319 006e FFF7FEFF 		bl	lv_draw_buf_width_to_stride
 1320              	.LVL114:
 1321 0072 8146     		mov	r9, r0
 1322 0074 D4E7     		b	.L104
 1323              	.LVL115:
 1324              	.L109:
 325:Drivers/lvgl/src/draw/lv_draw_buf.c ****                     w, h, cf, stride, size);
 1325              		.loc 1 325 9 is_stmt 1 view .LVU349
 325:Drivers/lvgl/src/draw/lv_draw_buf.c ****                     w, h, cf, stride, size);
 1326              		.loc 1 325 9 view .LVU350
 325:Drivers/lvgl/src/draw/lv_draw_buf.c ****                     w, h, cf, stride, size);
 1327              		.loc 1 325 9 view .LVU351
 327:Drivers/lvgl/src/draw/lv_draw_buf.c ****         LV_PROFILER_DRAW_END;
 1328              		.loc 1 327 9 view .LVU352
 1329 0076 2046     		mov	r0, r4
 1330              	.LVL116:
ARM GAS  /tmp/ccrMvAjz.s 			page 43


 327:Drivers/lvgl/src/draw/lv_draw_buf.c ****         LV_PROFILER_DRAW_END;
 1331              		.loc 1 327 9 is_stmt 0 view .LVU353
 1332 0078 FFF7FEFF 		bl	lv_free
 1333              	.LVL117:
 328:Drivers/lvgl/src/draw/lv_draw_buf.c ****         return NULL;
 1334              		.loc 1 328 29 is_stmt 1 view .LVU354
 329:Drivers/lvgl/src/draw/lv_draw_buf.c ****     }
 1335              		.loc 1 329 9 view .LVU355
 329:Drivers/lvgl/src/draw/lv_draw_buf.c ****     }
 1336              		.loc 1 329 16 is_stmt 0 view .LVU356
 1337 007c 5C46     		mov	r4, fp
 1338              	.LVL118:
 329:Drivers/lvgl/src/draw/lv_draw_buf.c ****     }
 1339              		.loc 1 329 16 view .LVU357
 1340 007e F0E7     		b	.L101
 1341              		.cfi_endproc
 1342              	.LFE202:
 1344              		.section	.text.lv_draw_buf_create,"ax",%progbits
 1345              		.align	1
 1346              		.global	lv_draw_buf_create
 1347              		.syntax unified
 1348              		.thumb
 1349              		.thumb_func
 1351              	lv_draw_buf_create:
 1352              	.LVL119:
 1353              	.LFB201:
 304:Drivers/lvgl/src/draw/lv_draw_buf.c ****     return lv_draw_buf_create_ex(&default_handlers, w, h, cf, stride);
 1354              		.loc 1 304 1 is_stmt 1 view -0
 1355              		.cfi_startproc
 1356              		@ args = 0, pretend = 0, frame = 0
 1357              		@ frame_needed = 0, uses_anonymous_args = 0
 304:Drivers/lvgl/src/draw/lv_draw_buf.c ****     return lv_draw_buf_create_ex(&default_handlers, w, h, cf, stride);
 1358              		.loc 1 304 1 is_stmt 0 view .LVU359
 1359 0000 00B5     		push	{lr}
 1360              	.LCFI30:
 1361              		.cfi_def_cfa_offset 4
 1362              		.cfi_offset 14, -4
 1363 0002 83B0     		sub	sp, sp, #12
 1364              	.LCFI31:
 1365              		.cfi_def_cfa_offset 16
 305:Drivers/lvgl/src/draw/lv_draw_buf.c **** }
 1366              		.loc 1 305 5 is_stmt 1 view .LVU360
 305:Drivers/lvgl/src/draw/lv_draw_buf.c **** }
 1367              		.loc 1 305 12 is_stmt 0 view .LVU361
 1368 0004 0093     		str	r3, [sp]
 1369 0006 1346     		mov	r3, r2
 1370              	.LVL120:
 305:Drivers/lvgl/src/draw/lv_draw_buf.c **** }
 1371              		.loc 1 305 12 view .LVU362
 1372 0008 0A46     		mov	r2, r1
 1373              	.LVL121:
 305:Drivers/lvgl/src/draw/lv_draw_buf.c **** }
 1374              		.loc 1 305 12 view .LVU363
 1375 000a 0146     		mov	r1, r0
 1376              	.LVL122:
 305:Drivers/lvgl/src/draw/lv_draw_buf.c **** }
 1377              		.loc 1 305 12 view .LVU364
ARM GAS  /tmp/ccrMvAjz.s 			page 44


 1378 000c 0248     		ldr	r0, .L112
 1379              	.LVL123:
 305:Drivers/lvgl/src/draw/lv_draw_buf.c **** }
 1380              		.loc 1 305 12 view .LVU365
 1381 000e FFF7FEFF 		bl	lv_draw_buf_create_ex
 1382              	.LVL124:
 306:Drivers/lvgl/src/draw/lv_draw_buf.c **** 
 1383              		.loc 1 306 1 view .LVU366
 1384 0012 03B0     		add	sp, sp, #12
 1385              	.LCFI32:
 1386              		.cfi_def_cfa_offset 4
 1387              		@ sp needed
 1388 0014 5DF804FB 		ldr	pc, [sp], #4
 1389              	.L113:
 1390              		.align	2
 1391              	.L112:
 1392 0018 C8000000 		.word	lv_global+200
 1393              		.cfi_endproc
 1394              	.LFE201:
 1396              		.section	.text.lv_draw_buf_dup_ex,"ax",%progbits
 1397              		.align	1
 1398              		.global	lv_draw_buf_dup_ex
 1399              		.syntax unified
 1400              		.thumb
 1401              		.thumb_func
 1403              	lv_draw_buf_dup_ex:
 1404              	.LVL125:
 1405              	.LFB204:
 352:Drivers/lvgl/src/draw/lv_draw_buf.c ****     LV_PROFILER_DRAW_BEGIN;
 1406              		.loc 1 352 1 is_stmt 1 view -0
 1407              		.cfi_startproc
 1408              		@ args = 0, pretend = 0, frame = 0
 1409              		@ frame_needed = 0, uses_anonymous_args = 0
 352:Drivers/lvgl/src/draw/lv_draw_buf.c ****     LV_PROFILER_DRAW_BEGIN;
 1410              		.loc 1 352 1 is_stmt 0 view .LVU368
 1411 0000 30B5     		push	{r4, r5, lr}
 1412              	.LCFI33:
 1413              		.cfi_def_cfa_offset 12
 1414              		.cfi_offset 4, -12
 1415              		.cfi_offset 5, -8
 1416              		.cfi_offset 14, -4
 1417 0002 83B0     		sub	sp, sp, #12
 1418              	.LCFI34:
 1419              		.cfi_def_cfa_offset 24
 1420 0004 0C46     		mov	r4, r1
 353:Drivers/lvgl/src/draw/lv_draw_buf.c ****     const lv_image_header_t * header = &draw_buf->header;
 1421              		.loc 1 353 27 is_stmt 1 view .LVU369
 354:Drivers/lvgl/src/draw/lv_draw_buf.c ****     lv_draw_buf_t * new_buf = lv_draw_buf_create_ex(handlers, header->w, header->h, header->cf, hea
 1422              		.loc 1 354 5 view .LVU370
 1423              	.LVL126:
 355:Drivers/lvgl/src/draw/lv_draw_buf.c ****     if(new_buf == NULL) {
 1424              		.loc 1 355 5 view .LVU371
 355:Drivers/lvgl/src/draw/lv_draw_buf.c ****     if(new_buf == NULL) {
 1425              		.loc 1 355 103 is_stmt 0 view .LVU372
 1426 0006 0B89     		ldrh	r3, [r1, #8]
 355:Drivers/lvgl/src/draw/lv_draw_buf.c ****     if(new_buf == NULL) {
 1427              		.loc 1 355 31 view .LVU373
ARM GAS  /tmp/ccrMvAjz.s 			page 45


 1428 0008 0093     		str	r3, [sp]
 1429 000a 4B78     		ldrb	r3, [r1, #1]	@ zero_extendqisi2
 1430 000c CA88     		ldrh	r2, [r1, #6]
 1431 000e 8988     		ldrh	r1, [r1, #4]
 1432              	.LVL127:
 355:Drivers/lvgl/src/draw/lv_draw_buf.c ****     if(new_buf == NULL) {
 1433              		.loc 1 355 31 view .LVU374
 1434 0010 FFF7FEFF 		bl	lv_draw_buf_create_ex
 1435              	.LVL128:
 356:Drivers/lvgl/src/draw/lv_draw_buf.c ****         LV_PROFILER_DRAW_END;
 1436              		.loc 1 356 5 is_stmt 1 view .LVU375
 356:Drivers/lvgl/src/draw/lv_draw_buf.c ****         LV_PROFILER_DRAW_END;
 1437              		.loc 1 356 7 is_stmt 0 view .LVU376
 1438 0014 0546     		mov	r5, r0
 1439 0016 68B1     		cbz	r0, .L114
 361:Drivers/lvgl/src/draw/lv_draw_buf.c ****     new_buf->header.flags |= LV_IMAGE_FLAGS_MODIFIABLE | LV_IMAGE_FLAGS_ALLOCATED;
 1440              		.loc 1 361 5 is_stmt 1 view .LVU377
 361:Drivers/lvgl/src/draw/lv_draw_buf.c ****     new_buf->header.flags |= LV_IMAGE_FLAGS_MODIFIABLE | LV_IMAGE_FLAGS_ALLOCATED;
 1441              		.loc 1 361 45 is_stmt 0 view .LVU378
 1442 0018 6388     		ldrh	r3, [r4, #2]
 361:Drivers/lvgl/src/draw/lv_draw_buf.c ****     new_buf->header.flags |= LV_IMAGE_FLAGS_MODIFIABLE | LV_IMAGE_FLAGS_ALLOCATED;
 1443              		.loc 1 361 27 view .LVU379
 1444 001a 4380     		strh	r3, [r0, #2]	@ movhi
 362:Drivers/lvgl/src/draw/lv_draw_buf.c **** 
 1445              		.loc 1 362 5 is_stmt 1 view .LVU380
 362:Drivers/lvgl/src/draw/lv_draw_buf.c **** 
 1446              		.loc 1 362 27 is_stmt 0 view .LVU381
 1447 001c 43F03003 		orr	r3, r3, #48
 1448 0020 4380     		strh	r3, [r0, #2]	@ movhi
 365:Drivers/lvgl/src/draw/lv_draw_buf.c **** 
 1449              		.loc 1 365 5 is_stmt 1 view .LVU382
 365:Drivers/lvgl/src/draw/lv_draw_buf.c **** 
 1450              		.loc 1 365 21 is_stmt 0 view .LVU383
 1451 0022 C268     		ldr	r2, [r0, #12]
 1452 0024 E368     		ldr	r3, [r4, #12]
 1453              	.LVL129:
 368:Drivers/lvgl/src/draw/lv_draw_buf.c ****     LV_PROFILER_DRAW_END;
 1454              		.loc 1 368 5 is_stmt 1 view .LVU384
 1455 0026 9A42     		cmp	r2, r3
 1456 0028 28BF     		it	cs
 1457 002a 1A46     		movcs	r2, r3
 1458              	.LVL130:
 368:Drivers/lvgl/src/draw/lv_draw_buf.c ****     LV_PROFILER_DRAW_END;
 1459              		.loc 1 368 5 is_stmt 0 view .LVU385
 1460 002c 2169     		ldr	r1, [r4, #16]
 1461 002e 0069     		ldr	r0, [r0, #16]
 1462              	.LVL131:
 368:Drivers/lvgl/src/draw/lv_draw_buf.c ****     LV_PROFILER_DRAW_END;
 1463              		.loc 1 368 5 view .LVU386
 1464 0030 FFF7FEFF 		bl	lv_memcpy
 1465              	.LVL132:
 369:Drivers/lvgl/src/draw/lv_draw_buf.c ****     return new_buf;
 1466              		.loc 1 369 25 is_stmt 1 view .LVU387
 370:Drivers/lvgl/src/draw/lv_draw_buf.c **** }
 1467              		.loc 1 370 5 view .LVU388
 1468              	.L114:
 371:Drivers/lvgl/src/draw/lv_draw_buf.c **** 
ARM GAS  /tmp/ccrMvAjz.s 			page 46


 1469              		.loc 1 371 1 is_stmt 0 view .LVU389
 1470 0034 2846     		mov	r0, r5
 1471 0036 03B0     		add	sp, sp, #12
 1472              	.LCFI35:
 1473              		.cfi_def_cfa_offset 12
 1474              		@ sp needed
 1475 0038 30BD     		pop	{r4, r5, pc}
 371:Drivers/lvgl/src/draw/lv_draw_buf.c **** 
 1476              		.loc 1 371 1 view .LVU390
 1477              		.cfi_endproc
 1478              	.LFE204:
 1480              		.section	.text.lv_draw_buf_dup,"ax",%progbits
 1481              		.align	1
 1482              		.global	lv_draw_buf_dup
 1483              		.syntax unified
 1484              		.thumb
 1485              		.thumb_func
 1487              	lv_draw_buf_dup:
 1488              	.LVL133:
 1489              	.LFB203:
 347:Drivers/lvgl/src/draw/lv_draw_buf.c ****     return lv_draw_buf_dup_ex(&default_handlers, draw_buf);
 1490              		.loc 1 347 1 is_stmt 1 view -0
 1491              		.cfi_startproc
 1492              		@ args = 0, pretend = 0, frame = 0
 1493              		@ frame_needed = 0, uses_anonymous_args = 0
 347:Drivers/lvgl/src/draw/lv_draw_buf.c ****     return lv_draw_buf_dup_ex(&default_handlers, draw_buf);
 1494              		.loc 1 347 1 is_stmt 0 view .LVU392
 1495 0000 08B5     		push	{r3, lr}
 1496              	.LCFI36:
 1497              		.cfi_def_cfa_offset 8
 1498              		.cfi_offset 3, -8
 1499              		.cfi_offset 14, -4
 1500 0002 0146     		mov	r1, r0
 348:Drivers/lvgl/src/draw/lv_draw_buf.c **** }
 1501              		.loc 1 348 5 is_stmt 1 view .LVU393
 348:Drivers/lvgl/src/draw/lv_draw_buf.c **** }
 1502              		.loc 1 348 12 is_stmt 0 view .LVU394
 1503 0004 0148     		ldr	r0, .L119
 1504              	.LVL134:
 348:Drivers/lvgl/src/draw/lv_draw_buf.c **** }
 1505              		.loc 1 348 12 view .LVU395
 1506 0006 FFF7FEFF 		bl	lv_draw_buf_dup_ex
 1507              	.LVL135:
 349:Drivers/lvgl/src/draw/lv_draw_buf.c **** 
 1508              		.loc 1 349 1 view .LVU396
 1509 000a 08BD     		pop	{r3, pc}
 1510              	.L120:
 1511              		.align	2
 1512              	.L119:
 1513 000c C8000000 		.word	lv_global+200
 1514              		.cfi_endproc
 1515              	.LFE203:
 1517              		.section	.text.lv_draw_buf_reshape,"ax",%progbits
 1518              		.align	1
 1519              		.global	lv_draw_buf_reshape
 1520              		.syntax unified
 1521              		.thumb
ARM GAS  /tmp/ccrMvAjz.s 			page 47


 1522              		.thumb_func
 1524              	lv_draw_buf_reshape:
 1525              	.LVL136:
 1526              	.LFB205:
 375:Drivers/lvgl/src/draw/lv_draw_buf.c ****     if(draw_buf == NULL) return NULL;
 1527              		.loc 1 375 1 is_stmt 1 view -0
 1528              		.cfi_startproc
 1529              		@ args = 4, pretend = 0, frame = 0
 1530              		@ frame_needed = 0, uses_anonymous_args = 0
 375:Drivers/lvgl/src/draw/lv_draw_buf.c ****     if(draw_buf == NULL) return NULL;
 1531              		.loc 1 375 1 is_stmt 0 view .LVU398
 1532 0000 2DE9F041 		push	{r4, r5, r6, r7, r8, lr}
 1533              	.LCFI37:
 1534              		.cfi_def_cfa_offset 24
 1535              		.cfi_offset 4, -24
 1536              		.cfi_offset 5, -20
 1537              		.cfi_offset 6, -16
 1538              		.cfi_offset 7, -12
 1539              		.cfi_offset 8, -8
 1540              		.cfi_offset 14, -4
 1541 0004 DDF81880 		ldr	r8, [sp, #24]
 376:Drivers/lvgl/src/draw/lv_draw_buf.c ****     LV_PROFILER_DRAW_BEGIN;
 1542              		.loc 1 376 5 is_stmt 1 view .LVU399
 376:Drivers/lvgl/src/draw/lv_draw_buf.c ****     LV_PROFILER_DRAW_BEGIN;
 1543              		.loc 1 376 7 is_stmt 0 view .LVU400
 1544 0008 0446     		mov	r4, r0
 1545 000a B0B1     		cbz	r0, .L121
 1546 000c 0D46     		mov	r5, r1
 1547 000e 1646     		mov	r6, r2
 1548 0010 1F46     		mov	r7, r3
 377:Drivers/lvgl/src/draw/lv_draw_buf.c **** 
 1549              		.loc 1 377 27 is_stmt 1 view .LVU401
 380:Drivers/lvgl/src/draw/lv_draw_buf.c ****     if(stride == 0) stride = lv_draw_buf_width_to_stride(w, cf);
 1550              		.loc 1 380 5 view .LVU402
 380:Drivers/lvgl/src/draw/lv_draw_buf.c ****     if(stride == 0) stride = lv_draw_buf_width_to_stride(w, cf);
 1551              		.loc 1 380 7 is_stmt 0 view .LVU403
 1552 0012 01B9     		cbnz	r1, .L123
 380:Drivers/lvgl/src/draw/lv_draw_buf.c ****     if(stride == 0) stride = lv_draw_buf_width_to_stride(w, cf);
 1553              		.loc 1 380 39 is_stmt 1 discriminator 1 view .LVU404
 380:Drivers/lvgl/src/draw/lv_draw_buf.c ****     if(stride == 0) stride = lv_draw_buf_width_to_stride(w, cf);
 1554              		.loc 1 380 42 is_stmt 0 discriminator 1 view .LVU405
 1555 0014 4578     		ldrb	r5, [r0, #1]	@ zero_extendqisi2
 1556              	.L123:
 1557              	.LVL137:
 381:Drivers/lvgl/src/draw/lv_draw_buf.c **** 
 1558              		.loc 1 381 5 is_stmt 1 view .LVU406
 381:Drivers/lvgl/src/draw/lv_draw_buf.c **** 
 1559              		.loc 1 381 7 is_stmt 0 view .LVU407
 1560 0016 B8F1000F 		cmp	r8, #0
 1561 001a 10D0     		beq	.L128
 1562              	.LVL138:
 1563              	.L124:
 383:Drivers/lvgl/src/draw/lv_draw_buf.c **** 
 1564              		.loc 1 383 5 is_stmt 1 view .LVU408
 383:Drivers/lvgl/src/draw/lv_draw_buf.c **** 
 1565              		.loc 1 383 21 is_stmt 0 view .LVU409
 1566 001c 4346     		mov	r3, r8
ARM GAS  /tmp/ccrMvAjz.s 			page 48


 1567 001e 2A46     		mov	r2, r5
 1568 0020 3946     		mov	r1, r7
 1569 0022 3046     		mov	r0, r6
 1570 0024 FFF7FEFF 		bl	_calculate_draw_buf_size
 1571              	.LVL139:
 385:Drivers/lvgl/src/draw/lv_draw_buf.c ****         LV_LOG_TRACE("Draw buf too small for new shape");
 1572              		.loc 1 385 5 is_stmt 1 view .LVU410
 385:Drivers/lvgl/src/draw/lv_draw_buf.c ****         LV_LOG_TRACE("Draw buf too small for new shape");
 1573              		.loc 1 385 23 is_stmt 0 view .LVU411
 1574 0028 E368     		ldr	r3, [r4, #12]
 385:Drivers/lvgl/src/draw/lv_draw_buf.c ****         LV_LOG_TRACE("Draw buf too small for new shape");
 1575              		.loc 1 385 7 view .LVU412
 1576 002a 8342     		cmp	r3, r0
 1577 002c 0DD3     		bcc	.L126
 391:Drivers/lvgl/src/draw/lv_draw_buf.c ****     draw_buf->header.w = w;
 1578              		.loc 1 391 5 is_stmt 1 view .LVU413
 391:Drivers/lvgl/src/draw/lv_draw_buf.c ****     draw_buf->header.w = w;
 1579              		.loc 1 391 25 is_stmt 0 view .LVU414
 1580 002e 6570     		strb	r5, [r4, #1]
 392:Drivers/lvgl/src/draw/lv_draw_buf.c ****     draw_buf->header.h = h;
 1581              		.loc 1 392 5 is_stmt 1 view .LVU415
 392:Drivers/lvgl/src/draw/lv_draw_buf.c ****     draw_buf->header.h = h;
 1582              		.loc 1 392 24 is_stmt 0 view .LVU416
 1583 0030 A680     		strh	r6, [r4, #4]	@ movhi
 393:Drivers/lvgl/src/draw/lv_draw_buf.c ****     draw_buf->header.stride = stride;
 1584              		.loc 1 393 5 is_stmt 1 view .LVU417
 393:Drivers/lvgl/src/draw/lv_draw_buf.c ****     draw_buf->header.stride = stride;
 1585              		.loc 1 393 24 is_stmt 0 view .LVU418
 1586 0032 E780     		strh	r7, [r4, #6]	@ movhi
 394:Drivers/lvgl/src/draw/lv_draw_buf.c **** 
 1587              		.loc 1 394 5 is_stmt 1 view .LVU419
 394:Drivers/lvgl/src/draw/lv_draw_buf.c **** 
 1588              		.loc 1 394 29 is_stmt 0 view .LVU420
 1589 0034 A4F80880 		strh	r8, [r4, #8]	@ movhi
 396:Drivers/lvgl/src/draw/lv_draw_buf.c ****     return draw_buf;
 1590              		.loc 1 396 25 is_stmt 1 view .LVU421
 397:Drivers/lvgl/src/draw/lv_draw_buf.c **** }
 1591              		.loc 1 397 5 view .LVU422
 397:Drivers/lvgl/src/draw/lv_draw_buf.c **** }
 1592              		.loc 1 397 12 is_stmt 0 view .LVU423
 1593 0038 2046     		mov	r0, r4
 1594              	.LVL140:
 1595              	.L121:
 398:Drivers/lvgl/src/draw/lv_draw_buf.c **** 
 1596              		.loc 1 398 1 view .LVU424
 1597 003a BDE8F081 		pop	{r4, r5, r6, r7, r8, pc}
 1598              	.LVL141:
 1599              	.L128:
 381:Drivers/lvgl/src/draw/lv_draw_buf.c **** 
 1600              		.loc 1 381 21 is_stmt 1 discriminator 1 view .LVU425
 381:Drivers/lvgl/src/draw/lv_draw_buf.c **** 
 1601              		.loc 1 381 30 is_stmt 0 discriminator 1 view .LVU426
 1602 003e 2946     		mov	r1, r5
 1603 0040 3046     		mov	r0, r6
 1604              	.LVL142:
 381:Drivers/lvgl/src/draw/lv_draw_buf.c **** 
 1605              		.loc 1 381 30 discriminator 1 view .LVU427
ARM GAS  /tmp/ccrMvAjz.s 			page 49


 1606 0042 FFF7FEFF 		bl	lv_draw_buf_width_to_stride
 1607              	.LVL143:
 381:Drivers/lvgl/src/draw/lv_draw_buf.c **** 
 1608              		.loc 1 381 30 discriminator 1 view .LVU428
 1609 0046 8046     		mov	r8, r0
 1610 0048 E8E7     		b	.L124
 1611              	.LVL144:
 1612              	.L126:
 388:Drivers/lvgl/src/draw/lv_draw_buf.c ****     }
 1613              		.loc 1 388 16 view .LVU429
 1614 004a 0020     		movs	r0, #0
 1615              	.LVL145:
 388:Drivers/lvgl/src/draw/lv_draw_buf.c ****     }
 1616              		.loc 1 388 16 view .LVU430
 1617 004c F5E7     		b	.L121
 1618              		.cfi_endproc
 1619              	.LFE205:
 1621              		.section	.text.lv_draw_buf_destroy,"ax",%progbits
 1622              		.align	1
 1623              		.global	lv_draw_buf_destroy
 1624              		.syntax unified
 1625              		.thumb
 1626              		.thumb_func
 1628              	lv_draw_buf_destroy:
 1629              	.LVL146:
 1630              	.LFB206:
 401:Drivers/lvgl/src/draw/lv_draw_buf.c ****     LV_ASSERT_NULL(draw_buf);
 1631              		.loc 1 401 1 is_stmt 1 view -0
 1632              		.cfi_startproc
 1633              		@ args = 0, pretend = 0, frame = 0
 1634              		@ frame_needed = 0, uses_anonymous_args = 0
 402:Drivers/lvgl/src/draw/lv_draw_buf.c ****     if(draw_buf == NULL) return;
 1635              		.loc 1 402 5 view .LVU432
 402:Drivers/lvgl/src/draw/lv_draw_buf.c ****     if(draw_buf == NULL) return;
 1636              		.loc 1 402 5 view .LVU433
 1637 0000 70B1     		cbz	r0, .L131
 401:Drivers/lvgl/src/draw/lv_draw_buf.c ****     LV_ASSERT_NULL(draw_buf);
 1638              		.loc 1 401 1 is_stmt 0 view .LVU434
 1639 0002 10B5     		push	{r4, lr}
 1640              	.LCFI38:
 1641              		.cfi_def_cfa_offset 8
 1642              		.cfi_offset 4, -8
 1643              		.cfi_offset 14, -4
 1644 0004 0446     		mov	r4, r0
 402:Drivers/lvgl/src/draw/lv_draw_buf.c ****     if(draw_buf == NULL) return;
 1645              		.loc 1 402 5 is_stmt 1 discriminator 2 view .LVU435
 402:Drivers/lvgl/src/draw/lv_draw_buf.c ****     if(draw_buf == NULL) return;
 1646              		.loc 1 402 29 discriminator 2 view .LVU436
 403:Drivers/lvgl/src/draw/lv_draw_buf.c ****     LV_PROFILER_DRAW_BEGIN;
 1647              		.loc 1 403 5 view .LVU437
 404:Drivers/lvgl/src/draw/lv_draw_buf.c **** 
 1648              		.loc 1 404 27 view .LVU438
 406:Drivers/lvgl/src/draw/lv_draw_buf.c ****         LV_ASSERT_NULL(draw_buf->handlers);
 1649              		.loc 1 406 5 view .LVU439
 406:Drivers/lvgl/src/draw/lv_draw_buf.c ****         LV_ASSERT_NULL(draw_buf->handlers);
 1650              		.loc 1 406 24 is_stmt 0 view .LVU440
 1651 0006 4388     		ldrh	r3, [r0, #2]
ARM GAS  /tmp/ccrMvAjz.s 			page 50


 406:Drivers/lvgl/src/draw/lv_draw_buf.c ****         LV_ASSERT_NULL(draw_buf->handlers);
 1652              		.loc 1 406 7 view .LVU441
 1653 0008 13F0100F 		tst	r3, #16
 1654 000c 07D0     		beq	.L129
 1655              	.LBB15:
 407:Drivers/lvgl/src/draw/lv_draw_buf.c **** 
 1656              		.loc 1 407 9 is_stmt 1 view .LVU442
 407:Drivers/lvgl/src/draw/lv_draw_buf.c **** 
 1657              		.loc 1 407 9 view .LVU443
 1658 000e 8069     		ldr	r0, [r0, #24]
 1659              	.LVL147:
 407:Drivers/lvgl/src/draw/lv_draw_buf.c **** 
 1660              		.loc 1 407 9 is_stmt 0 view .LVU444
 1661 0010 38B1     		cbz	r0, .L134
 407:Drivers/lvgl/src/draw/lv_draw_buf.c **** 
 1662              		.loc 1 407 9 is_stmt 1 discriminator 2 view .LVU445
 407:Drivers/lvgl/src/draw/lv_draw_buf.c **** 
 1663              		.loc 1 407 43 discriminator 2 view .LVU446
 409:Drivers/lvgl/src/draw/lv_draw_buf.c ****         draw_buf_free(handlers, draw_buf->unaligned_data);
 1664              		.loc 1 409 9 view .LVU447
 1665              	.LVL148:
 410:Drivers/lvgl/src/draw/lv_draw_buf.c ****         lv_free(draw_buf);
 1666              		.loc 1 410 9 view .LVU448
 1667 0012 6169     		ldr	r1, [r4, #20]
 1668 0014 FFF7FEFF 		bl	draw_buf_free
 1669              	.LVL149:
 411:Drivers/lvgl/src/draw/lv_draw_buf.c ****     }
 1670              		.loc 1 411 9 view .LVU449
 1671 0018 2046     		mov	r0, r4
 1672 001a FFF7FEFF 		bl	lv_free
 1673              	.LVL150:
 1674              	.LBE15:
 414:Drivers/lvgl/src/draw/lv_draw_buf.c ****     }
 1675              		.loc 1 414 9 view .LVU450
 414:Drivers/lvgl/src/draw/lv_draw_buf.c ****     }
 1676              		.loc 1 414 9 view .LVU451
 414:Drivers/lvgl/src/draw/lv_draw_buf.c ****     }
 1677              		.loc 1 414 9 view .LVU452
 416:Drivers/lvgl/src/draw/lv_draw_buf.c **** }
 1678              		.loc 1 416 25 view .LVU453
 1679              	.L129:
 417:Drivers/lvgl/src/draw/lv_draw_buf.c **** 
 1680              		.loc 1 417 1 is_stmt 0 view .LVU454
 1681 001e 10BD     		pop	{r4, pc}
 1682              	.LVL151:
 1683              	.L131:
 1684              	.LCFI39:
 1685              		.cfi_def_cfa_offset 0
 1686              		.cfi_restore 4
 1687              		.cfi_restore 14
 402:Drivers/lvgl/src/draw/lv_draw_buf.c ****     if(draw_buf == NULL) return;
 1688              		.loc 1 402 5 is_stmt 1 discriminator 1 view .LVU455
 402:Drivers/lvgl/src/draw/lv_draw_buf.c ****     if(draw_buf == NULL) return;
 1689              		.loc 1 402 5 discriminator 1 view .LVU456
 402:Drivers/lvgl/src/draw/lv_draw_buf.c ****     if(draw_buf == NULL) return;
 1690              		.loc 1 402 5 discriminator 1 view .LVU457
 402:Drivers/lvgl/src/draw/lv_draw_buf.c ****     if(draw_buf == NULL) return;
ARM GAS  /tmp/ccrMvAjz.s 			page 51


 1691              		.loc 1 402 5 discriminator 1 view .LVU458
 402:Drivers/lvgl/src/draw/lv_draw_buf.c ****     if(draw_buf == NULL) return;
 1692              		.loc 1 402 5 discriminator 1 view .LVU459
 1693 0020 FEE7     		b	.L131
 1694              	.LVL152:
 1695              	.L134:
 1696              	.LCFI40:
 1697              		.cfi_def_cfa_offset 8
 1698              		.cfi_offset 4, -8
 1699              		.cfi_offset 14, -4
 1700              	.LBB16:
 407:Drivers/lvgl/src/draw/lv_draw_buf.c **** 
 1701              		.loc 1 407 9 discriminator 1 view .LVU460
 407:Drivers/lvgl/src/draw/lv_draw_buf.c **** 
 1702              		.loc 1 407 9 discriminator 1 view .LVU461
 407:Drivers/lvgl/src/draw/lv_draw_buf.c **** 
 1703              		.loc 1 407 9 discriminator 1 view .LVU462
 407:Drivers/lvgl/src/draw/lv_draw_buf.c **** 
 1704              		.loc 1 407 9 discriminator 1 view .LVU463
 407:Drivers/lvgl/src/draw/lv_draw_buf.c **** 
 1705              		.loc 1 407 9 discriminator 1 view .LVU464
 1706 0022 FEE7     		b	.L134
 1707              	.LBE16:
 1708              		.cfi_endproc
 1709              	.LFE206:
 1711              		.section	.text.lv_draw_buf_goto_xy,"ax",%progbits
 1712              		.align	1
 1713              		.global	lv_draw_buf_goto_xy
 1714              		.syntax unified
 1715              		.thumb
 1716              		.thumb_func
 1718              	lv_draw_buf_goto_xy:
 1719              	.LVL153:
 1720              	.LFB207:
 420:Drivers/lvgl/src/draw/lv_draw_buf.c ****     LV_ASSERT_NULL(buf);
 1721              		.loc 1 420 1 view -0
 1722              		.cfi_startproc
 1723              		@ args = 0, pretend = 0, frame = 0
 1724              		@ frame_needed = 0, uses_anonymous_args = 0
 421:Drivers/lvgl/src/draw/lv_draw_buf.c ****     if(buf == NULL) return NULL;
 1725              		.loc 1 421 5 view .LVU466
 421:Drivers/lvgl/src/draw/lv_draw_buf.c ****     if(buf == NULL) return NULL;
 1726              		.loc 1 421 5 view .LVU467
 1727 0000 58B1     		cbz	r0, .L139
 420:Drivers/lvgl/src/draw/lv_draw_buf.c ****     LV_ASSERT_NULL(buf);
 1728              		.loc 1 420 1 is_stmt 0 view .LVU468
 1729 0002 38B5     		push	{r3, r4, r5, lr}
 1730              	.LCFI41:
 1731              		.cfi_def_cfa_offset 16
 1732              		.cfi_offset 3, -16
 1733              		.cfi_offset 4, -12
 1734              		.cfi_offset 5, -8
 1735              		.cfi_offset 14, -4
 1736 0004 0C46     		mov	r4, r1
 1737 0006 0346     		mov	r3, r0
 421:Drivers/lvgl/src/draw/lv_draw_buf.c ****     if(buf == NULL) return NULL;
 1738              		.loc 1 421 5 is_stmt 1 discriminator 2 view .LVU469
ARM GAS  /tmp/ccrMvAjz.s 			page 52


 421:Drivers/lvgl/src/draw/lv_draw_buf.c ****     if(buf == NULL) return NULL;
 1739              		.loc 1 421 24 discriminator 2 view .LVU470
 422:Drivers/lvgl/src/draw/lv_draw_buf.c **** 
 1740              		.loc 1 422 5 view .LVU471
 424:Drivers/lvgl/src/draw/lv_draw_buf.c **** 
 1741              		.loc 1 424 5 view .LVU472
 424:Drivers/lvgl/src/draw/lv_draw_buf.c **** 
 1742              		.loc 1 424 15 is_stmt 0 view .LVU473
 1743 0008 0569     		ldr	r5, [r0, #16]
 1744              	.LVL154:
 427:Drivers/lvgl/src/draw/lv_draw_buf.c ****     data += buf->header.stride * y;
 1745              		.loc 1 427 5 is_stmt 1 view .LVU474
 427:Drivers/lvgl/src/draw/lv_draw_buf.c ****     data += buf->header.stride * y;
 1746              		.loc 1 427 13 is_stmt 0 view .LVU475
 1747 000a 4078     		ldrb	r0, [r0, #1]	@ zero_extendqisi2
 1748              	.LVL155:
 427:Drivers/lvgl/src/draw/lv_draw_buf.c ****     data += buf->header.stride * y;
 1749              		.loc 1 427 13 view .LVU476
 1750 000c C11F     		subs	r1, r0, #7
 1751              	.LVL156:
 427:Drivers/lvgl/src/draw/lv_draw_buf.c ****     data += buf->header.stride * y;
 1752              		.loc 1 427 13 view .LVU477
 1753 000e 0329     		cmp	r1, #3
 1754 0010 04D8     		bhi	.L140
 1755 0012 DFE801F0 		tbb	[pc, r1]
 1756              	.L142:
 1757 0016 12       		.byte	(.L147-.L142)/2
 1758 0017 05       		.byte	(.L144-.L142)/2
 1759 0018 0D       		.byte	(.L143-.L142)/2
 1760 0019 0F       		.byte	(.L141-.L142)/2
 1761              	.LVL157:
 1762              		.p2align 1
 1763              	.L139:
 1764              	.LCFI42:
 1765              		.cfi_def_cfa_offset 0
 1766              		.cfi_restore 3
 1767              		.cfi_restore 4
 1768              		.cfi_restore 5
 1769              		.cfi_restore 14
 421:Drivers/lvgl/src/draw/lv_draw_buf.c ****     if(buf == NULL) return NULL;
 1770              		.loc 1 421 5 is_stmt 1 discriminator 1 view .LVU478
 421:Drivers/lvgl/src/draw/lv_draw_buf.c ****     if(buf == NULL) return NULL;
 1771              		.loc 1 421 5 discriminator 1 view .LVU479
 421:Drivers/lvgl/src/draw/lv_draw_buf.c ****     if(buf == NULL) return NULL;
 1772              		.loc 1 421 5 discriminator 1 view .LVU480
 421:Drivers/lvgl/src/draw/lv_draw_buf.c ****     if(buf == NULL) return NULL;
 1773              		.loc 1 421 5 discriminator 1 view .LVU481
 421:Drivers/lvgl/src/draw/lv_draw_buf.c ****     if(buf == NULL) return NULL;
 1774              		.loc 1 421 5 discriminator 1 view .LVU482
 1775 001a FEE7     		b	.L139
 1776              	.LVL158:
 1777              	.L140:
 1778              	.LCFI43:
 1779              		.cfi_def_cfa_offset 16
 1780              		.cfi_offset 3, -16
 1781              		.cfi_offset 4, -12
 1782              		.cfi_offset 5, -8
ARM GAS  /tmp/ccrMvAjz.s 			page 53


 1783              		.cfi_offset 14, -4
 427:Drivers/lvgl/src/draw/lv_draw_buf.c ****     data += buf->header.stride * y;
 1784              		.loc 1 427 13 is_stmt 0 view .LVU483
 1785 001c 0021     		movs	r1, #0
 1786 001e 00E0     		b	.L145
 1787              	.L144:
 1788 0020 1021     		movs	r1, #16
 1789              	.L145:
 1790              	.LVL159:
 428:Drivers/lvgl/src/draw/lv_draw_buf.c **** 
 1791              		.loc 1 428 5 is_stmt 1 view .LVU484
 428:Drivers/lvgl/src/draw/lv_draw_buf.c **** 
 1792              		.loc 1 428 24 is_stmt 0 view .LVU485
 1793 0022 1B89     		ldrh	r3, [r3, #8]
 1794              	.LVL160:
 428:Drivers/lvgl/src/draw/lv_draw_buf.c **** 
 1795              		.loc 1 428 10 view .LVU486
 1796 0024 02FB0313 		mla	r3, r2, r3, r1
 1797 0028 1D44     		add	r5, r5, r3
 1798              	.LVL161:
 430:Drivers/lvgl/src/draw/lv_draw_buf.c **** 
 1799              		.loc 1 430 5 is_stmt 1 view .LVU487
 430:Drivers/lvgl/src/draw/lv_draw_buf.c **** 
 1800              		.loc 1 430 7 is_stmt 0 view .LVU488
 1801 002a 44B9     		cbnz	r4, .L150
 1802              	.LVL162:
 1803              	.L137:
 433:Drivers/lvgl/src/draw/lv_draw_buf.c **** 
 1804              		.loc 1 433 1 view .LVU489
 1805 002c 2846     		mov	r0, r5
 1806 002e 38BD     		pop	{r3, r4, r5, pc}
 1807              	.LVL163:
 1808              	.L143:
 427:Drivers/lvgl/src/draw/lv_draw_buf.c ****     data += buf->header.stride * y;
 1809              		.loc 1 427 13 view .LVU490
 1810 0030 4021     		movs	r1, #64
 1811 0032 F6E7     		b	.L145
 1812              	.L141:
 1813 0034 4FF48061 		mov	r1, #1024
 1814 0038 F3E7     		b	.L145
 1815              	.L147:
 1816 003a 0821     		movs	r1, #8
 1817 003c F1E7     		b	.L145
 1818              	.LVL164:
 1819              	.L150:
 432:Drivers/lvgl/src/draw/lv_draw_buf.c **** }
 1820              		.loc 1 432 5 is_stmt 1 view .LVU491
 432:Drivers/lvgl/src/draw/lv_draw_buf.c **** }
 1821              		.loc 1 432 23 is_stmt 0 view .LVU492
 1822 003e FFF7FEFF 		bl	lv_color_format_get_bpp
 1823              	.LVL165:
 432:Drivers/lvgl/src/draw/lv_draw_buf.c **** }
 1824              		.loc 1 432 21 discriminator 1 view .LVU493
 1825 0042 04FB00F3 		mul	r3, r4, r0
 432:Drivers/lvgl/src/draw/lv_draw_buf.c **** }
 1826              		.loc 1 432 17 discriminator 1 view .LVU494
 1827 0046 05EBD305 		add	r5, r5, r3, lsr #3
ARM GAS  /tmp/ccrMvAjz.s 			page 54


 1828              	.LVL166:
 432:Drivers/lvgl/src/draw/lv_draw_buf.c **** }
 1829              		.loc 1 432 17 view .LVU495
 1830 004a EFE7     		b	.L137
 1831              		.cfi_endproc
 1832              	.LFE207:
 1834              		.section	.text.lv_draw_buf_clear,"ax",%progbits
 1835              		.align	1
 1836              		.global	lv_draw_buf_clear
 1837              		.syntax unified
 1838              		.thumb
 1839              		.thumb_func
 1841              	lv_draw_buf_clear:
 1842              	.LVL167:
 1843              	.LFB198:
 164:Drivers/lvgl/src/draw/lv_draw_buf.c ****     LV_ASSERT_NULL(draw_buf);
 1844              		.loc 1 164 1 is_stmt 1 view -0
 1845              		.cfi_startproc
 1846              		@ args = 0, pretend = 0, frame = 32
 1847              		@ frame_needed = 0, uses_anonymous_args = 0
 165:Drivers/lvgl/src/draw/lv_draw_buf.c ****     LV_PROFILER_DRAW_BEGIN;
 1848              		.loc 1 165 5 view .LVU497
 165:Drivers/lvgl/src/draw/lv_draw_buf.c ****     LV_PROFILER_DRAW_BEGIN;
 1849              		.loc 1 165 5 view .LVU498
 1850 0000 C0B1     		cbz	r0, .L153
 164:Drivers/lvgl/src/draw/lv_draw_buf.c ****     LV_ASSERT_NULL(draw_buf);
 1851              		.loc 1 164 1 is_stmt 0 view .LVU499
 1852 0002 2DE9F043 		push	{r4, r5, r6, r7, r8, r9, lr}
 1853              	.LCFI44:
 1854              		.cfi_def_cfa_offset 28
 1855              		.cfi_offset 4, -28
 1856              		.cfi_offset 5, -24
 1857              		.cfi_offset 6, -20
 1858              		.cfi_offset 7, -16
 1859              		.cfi_offset 8, -12
 1860              		.cfi_offset 9, -8
 1861              		.cfi_offset 14, -4
 1862 0006 89B0     		sub	sp, sp, #36
 1863              	.LCFI45:
 1864              		.cfi_def_cfa_offset 64
 1865 0008 0C46     		mov	r4, r1
 1866 000a 0546     		mov	r5, r0
 165:Drivers/lvgl/src/draw/lv_draw_buf.c ****     LV_PROFILER_DRAW_BEGIN;
 1867              		.loc 1 165 5 is_stmt 1 discriminator 2 view .LVU500
 165:Drivers/lvgl/src/draw/lv_draw_buf.c ****     LV_PROFILER_DRAW_BEGIN;
 1868              		.loc 1 165 29 discriminator 2 view .LVU501
 166:Drivers/lvgl/src/draw/lv_draw_buf.c **** 
 1869              		.loc 1 166 27 view .LVU502
 168:Drivers/lvgl/src/draw/lv_draw_buf.c ****     uint32_t stride = header->stride;
 1870              		.loc 1 168 5 view .LVU503
 1871              	.LVL168:
 169:Drivers/lvgl/src/draw/lv_draw_buf.c **** 
 1872              		.loc 1 169 5 view .LVU504
 169:Drivers/lvgl/src/draw/lv_draw_buf.c **** 
 1873              		.loc 1 169 29 is_stmt 0 view .LVU505
 1874 000c B0F80880 		ldrh	r8, [r0, #8]
 1875              	.LVL169:
ARM GAS  /tmp/ccrMvAjz.s 			page 55


 171:Drivers/lvgl/src/draw/lv_draw_buf.c ****         uint8_t * buf = lv_draw_buf_goto_xy(draw_buf, 0, 0);
 1876              		.loc 1 171 5 is_stmt 1 view .LVU506
 171:Drivers/lvgl/src/draw/lv_draw_buf.c ****         uint8_t * buf = lv_draw_buf_goto_xy(draw_buf, 0, 0);
 1877              		.loc 1 171 7 is_stmt 0 view .LVU507
 1878 0010 89B1     		cbz	r1, .L161
 179:Drivers/lvgl/src/draw/lv_draw_buf.c ****     a_draw_buf.x1 = 0;
 1879              		.loc 1 179 5 is_stmt 1 view .LVU508
 180:Drivers/lvgl/src/draw/lv_draw_buf.c ****     a_draw_buf.y1 = 0;
 1880              		.loc 1 180 5 view .LVU509
 180:Drivers/lvgl/src/draw/lv_draw_buf.c ****     a_draw_buf.y1 = 0;
 1881              		.loc 1 180 19 is_stmt 0 view .LVU510
 1882 0012 0023     		movs	r3, #0
 1883 0014 0493     		str	r3, [sp, #16]
 181:Drivers/lvgl/src/draw/lv_draw_buf.c ****     a_draw_buf.x2 = draw_buf->header.w - 1;
 1884              		.loc 1 181 5 is_stmt 1 view .LVU511
 181:Drivers/lvgl/src/draw/lv_draw_buf.c ****     a_draw_buf.x2 = draw_buf->header.w - 1;
 1885              		.loc 1 181 19 is_stmt 0 view .LVU512
 1886 0016 0593     		str	r3, [sp, #20]
 182:Drivers/lvgl/src/draw/lv_draw_buf.c ****     a_draw_buf.y2 = draw_buf->header.h - 1;
 1887              		.loc 1 182 5 is_stmt 1 view .LVU513
 182:Drivers/lvgl/src/draw/lv_draw_buf.c ****     a_draw_buf.y2 = draw_buf->header.h - 1;
 1888              		.loc 1 182 37 is_stmt 0 view .LVU514
 1889 0018 8388     		ldrh	r3, [r0, #4]
 182:Drivers/lvgl/src/draw/lv_draw_buf.c ****     a_draw_buf.y2 = draw_buf->header.h - 1;
 1890              		.loc 1 182 40 view .LVU515
 1891 001a 013B     		subs	r3, r3, #1
 182:Drivers/lvgl/src/draw/lv_draw_buf.c ****     a_draw_buf.y2 = draw_buf->header.h - 1;
 1892              		.loc 1 182 19 view .LVU516
 1893 001c 0693     		str	r3, [sp, #24]
 183:Drivers/lvgl/src/draw/lv_draw_buf.c **** 
 1894              		.loc 1 183 5 is_stmt 1 view .LVU517
 183:Drivers/lvgl/src/draw/lv_draw_buf.c **** 
 1895              		.loc 1 183 37 is_stmt 0 view .LVU518
 1896 001e C388     		ldrh	r3, [r0, #6]
 183:Drivers/lvgl/src/draw/lv_draw_buf.c **** 
 1897              		.loc 1 183 40 view .LVU519
 1898 0020 013B     		subs	r3, r3, #1
 183:Drivers/lvgl/src/draw/lv_draw_buf.c **** 
 1899              		.loc 1 183 19 view .LVU520
 1900 0022 0793     		str	r3, [sp, #28]
 185:Drivers/lvgl/src/draw/lv_draw_buf.c ****     if(!lv_area_intersect(&a_clipped, a, &a_draw_buf)) {
 1901              		.loc 1 185 5 is_stmt 1 view .LVU521
 186:Drivers/lvgl/src/draw/lv_draw_buf.c ****         LV_PROFILER_DRAW_END;
 1902              		.loc 1 186 5 view .LVU522
 186:Drivers/lvgl/src/draw/lv_draw_buf.c ****         LV_PROFILER_DRAW_END;
 1903              		.loc 1 186 9 is_stmt 0 view .LVU523
 1904 0024 04AA     		add	r2, sp, #16
 1905 0026 6846     		mov	r0, sp
 1906              	.LVL170:
 186:Drivers/lvgl/src/draw/lv_draw_buf.c ****         LV_PROFILER_DRAW_END;
 1907              		.loc 1 186 9 view .LVU524
 1908 0028 FFF7FEFF 		bl	lv_area_intersect
 1909              	.LVL171:
 186:Drivers/lvgl/src/draw/lv_draw_buf.c ****         LV_PROFILER_DRAW_END;
 1910              		.loc 1 186 7 discriminator 1 view .LVU525
 1911 002c 90B9     		cbnz	r0, .L162
 1912              	.L151:
ARM GAS  /tmp/ccrMvAjz.s 			page 56


 211:Drivers/lvgl/src/draw/lv_draw_buf.c **** 
 1913              		.loc 1 211 1 view .LVU526
 1914 002e 09B0     		add	sp, sp, #36
 1915              	.LCFI46:
 1916              		.cfi_def_cfa_offset 28
 1917              		@ sp needed
 1918 0030 BDE8F083 		pop	{r4, r5, r6, r7, r8, r9, pc}
 1919              	.LVL172:
 1920              	.L153:
 1921              	.LCFI47:
 1922              		.cfi_def_cfa_offset 0
 1923              		.cfi_restore 4
 1924              		.cfi_restore 5
 1925              		.cfi_restore 6
 1926              		.cfi_restore 7
 1927              		.cfi_restore 8
 1928              		.cfi_restore 9
 1929              		.cfi_restore 14
 165:Drivers/lvgl/src/draw/lv_draw_buf.c ****     LV_PROFILER_DRAW_BEGIN;
 1930              		.loc 1 165 5 is_stmt 1 discriminator 1 view .LVU527
 165:Drivers/lvgl/src/draw/lv_draw_buf.c ****     LV_PROFILER_DRAW_BEGIN;
 1931              		.loc 1 165 5 discriminator 1 view .LVU528
 165:Drivers/lvgl/src/draw/lv_draw_buf.c ****     LV_PROFILER_DRAW_BEGIN;
 1932              		.loc 1 165 5 discriminator 1 view .LVU529
 165:Drivers/lvgl/src/draw/lv_draw_buf.c ****     LV_PROFILER_DRAW_BEGIN;
 1933              		.loc 1 165 5 discriminator 1 view .LVU530
 165:Drivers/lvgl/src/draw/lv_draw_buf.c ****     LV_PROFILER_DRAW_BEGIN;
 1934              		.loc 1 165 5 discriminator 1 view .LVU531
 1935 0034 FEE7     		b	.L153
 1936              	.LVL173:
 1937              	.L161:
 1938              	.LCFI48:
 1939              		.cfi_def_cfa_offset 64
 1940              		.cfi_offset 4, -28
 1941              		.cfi_offset 5, -24
 1942              		.cfi_offset 6, -20
 1943              		.cfi_offset 7, -16
 1944              		.cfi_offset 8, -12
 1945              		.cfi_offset 9, -8
 1946              		.cfi_offset 14, -4
 1947              	.LBB17:
 172:Drivers/lvgl/src/draw/lv_draw_buf.c ****         lv_memzero(buf, header->h * stride);
 1948              		.loc 1 172 9 view .LVU532
 172:Drivers/lvgl/src/draw/lv_draw_buf.c ****         lv_memzero(buf, header->h * stride);
 1949              		.loc 1 172 25 is_stmt 0 view .LVU533
 1950 0036 0022     		movs	r2, #0
 1951 0038 1146     		mov	r1, r2
 1952              	.LVL174:
 172:Drivers/lvgl/src/draw/lv_draw_buf.c ****         lv_memzero(buf, header->h * stride);
 1953              		.loc 1 172 25 view .LVU534
 1954 003a FFF7FEFF 		bl	lv_draw_buf_goto_xy
 1955              	.LVL175:
 173:Drivers/lvgl/src/draw/lv_draw_buf.c ****         lv_draw_buf_flush_cache(draw_buf, a);
 1956              		.loc 1 173 9 is_stmt 1 view .LVU535
 173:Drivers/lvgl/src/draw/lv_draw_buf.c ****         lv_draw_buf_flush_cache(draw_buf, a);
 1957              		.loc 1 173 31 is_stmt 0 view .LVU536
 1958 003e EA88     		ldrh	r2, [r5, #6]
ARM GAS  /tmp/ccrMvAjz.s 			page 57


 1959              	.LVL176:
 1960              	.LBB18:
 1961              	.LBI18:
  73:Drivers/lvgl/src/draw/../misc/../stdlib/lv_string.h **** {
 1962              		.loc 2 73 20 is_stmt 1 view .LVU537
 1963              	.LBB19:
 1964              		.loc 2 75 5 view .LVU538
 1965 0040 08FB02F2 		mul	r2, r8, r2
 1966              	.LVL177:
 1967              		.loc 2 75 5 is_stmt 0 view .LVU539
 1968 0044 0021     		movs	r1, #0
 1969 0046 FFF7FEFF 		bl	lv_memset
 1970              	.LVL178:
 1971              		.loc 2 75 5 view .LVU540
 1972              	.LBE19:
 1973              	.LBE18:
 174:Drivers/lvgl/src/draw/lv_draw_buf.c ****         LV_PROFILER_DRAW_END;
 1974              		.loc 1 174 9 is_stmt 1 view .LVU541
 1975 004a 2146     		mov	r1, r4
 1976 004c 2846     		mov	r0, r5
 1977 004e FFF7FEFF 		bl	lv_draw_buf_flush_cache
 1978              	.LVL179:
 175:Drivers/lvgl/src/draw/lv_draw_buf.c ****         return;
 1979              		.loc 1 175 29 view .LVU542
 176:Drivers/lvgl/src/draw/lv_draw_buf.c ****     }
 1980              		.loc 1 176 9 view .LVU543
 1981 0052 ECE7     		b	.L151
 1982              	.LVL180:
 1983              	.L162:
 176:Drivers/lvgl/src/draw/lv_draw_buf.c ****     }
 1984              		.loc 1 176 9 is_stmt 0 view .LVU544
 1985              	.LBE17:
 191:Drivers/lvgl/src/draw/lv_draw_buf.c ****         LV_PROFILER_DRAW_END;
 1986              		.loc 1 191 5 is_stmt 1 view .LVU545
 191:Drivers/lvgl/src/draw/lv_draw_buf.c ****         LV_PROFILER_DRAW_END;
 1987              		.loc 1 191 8 is_stmt 0 view .LVU546
 1988 0054 6846     		mov	r0, sp
 1989 0056 FFF7FEFF 		bl	lv_area_get_width
 1990              	.LVL181:
 191:Drivers/lvgl/src/draw/lv_draw_buf.c ****         LV_PROFILER_DRAW_END;
 1991              		.loc 1 191 7 discriminator 1 view .LVU547
 1992 005a 0028     		cmp	r0, #0
 1993 005c E7DD     		ble	.L151
 196:Drivers/lvgl/src/draw/lv_draw_buf.c ****         LV_PROFILER_DRAW_END;
 1994              		.loc 1 196 5 is_stmt 1 view .LVU548
 196:Drivers/lvgl/src/draw/lv_draw_buf.c ****         LV_PROFILER_DRAW_END;
 1995              		.loc 1 196 8 is_stmt 0 view .LVU549
 1996 005e 6846     		mov	r0, sp
 1997 0060 FFF7FEFF 		bl	lv_area_get_height
 1998              	.LVL182:
 196:Drivers/lvgl/src/draw/lv_draw_buf.c ****         LV_PROFILER_DRAW_END;
 1999              		.loc 1 196 7 discriminator 1 view .LVU550
 2000 0064 0028     		cmp	r0, #0
 2001 0066 E2DD     		ble	.L151
 201:Drivers/lvgl/src/draw/lv_draw_buf.c ****     uint8_t bpp = lv_color_format_get_bpp(header->cf);
 2002              		.loc 1 201 5 is_stmt 1 view .LVU551
 201:Drivers/lvgl/src/draw/lv_draw_buf.c ****     uint8_t bpp = lv_color_format_get_bpp(header->cf);
ARM GAS  /tmp/ccrMvAjz.s 			page 58


 2003              		.loc 1 201 21 is_stmt 0 view .LVU552
 2004 0068 019A     		ldr	r2, [sp, #4]
 2005 006a 0099     		ldr	r1, [sp]
 2006 006c 2846     		mov	r0, r5
 2007 006e FFF7FEFF 		bl	lv_draw_buf_goto_xy
 2008              	.LVL183:
 2009 0072 0646     		mov	r6, r0
 2010              	.LVL184:
 202:Drivers/lvgl/src/draw/lv_draw_buf.c ****     uint32_t line_length = (lv_area_get_width(&a_clipped) * bpp + 7) >> 3;
 2011              		.loc 1 202 5 is_stmt 1 view .LVU553
 202:Drivers/lvgl/src/draw/lv_draw_buf.c ****     uint32_t line_length = (lv_area_get_width(&a_clipped) * bpp + 7) >> 3;
 2012              		.loc 1 202 19 is_stmt 0 view .LVU554
 2013 0074 6878     		ldrb	r0, [r5, #1]	@ zero_extendqisi2
 2014              	.LVL185:
 202:Drivers/lvgl/src/draw/lv_draw_buf.c ****     uint32_t line_length = (lv_area_get_width(&a_clipped) * bpp + 7) >> 3;
 2015              		.loc 1 202 19 view .LVU555
 2016 0076 FFF7FEFF 		bl	lv_color_format_get_bpp
 2017              	.LVL186:
 2018 007a 8146     		mov	r9, r0
 2019              	.LVL187:
 203:Drivers/lvgl/src/draw/lv_draw_buf.c ****     int32_t y;
 2020              		.loc 1 203 5 is_stmt 1 view .LVU556
 203:Drivers/lvgl/src/draw/lv_draw_buf.c ****     int32_t y;
 2021              		.loc 1 203 29 is_stmt 0 view .LVU557
 2022 007c 6846     		mov	r0, sp
 2023 007e FFF7FEFF 		bl	lv_area_get_width
 2024              	.LVL188:
 203:Drivers/lvgl/src/draw/lv_draw_buf.c ****     int32_t y;
 2025              		.loc 1 203 59 discriminator 1 view .LVU558
 2026 0082 00FB09F9 		mul	r9, r0, r9
 2027              	.LVL189:
 203:Drivers/lvgl/src/draw/lv_draw_buf.c ****     int32_t y;
 2028              		.loc 1 203 65 discriminator 1 view .LVU559
 2029 0086 09F10709 		add	r9, r9, #7
 203:Drivers/lvgl/src/draw/lv_draw_buf.c ****     int32_t y;
 2030              		.loc 1 203 70 discriminator 1 view .LVU560
 2031 008a 4FEAE909 		asr	r9, r9, #3
 2032              	.LVL190:
 204:Drivers/lvgl/src/draw/lv_draw_buf.c ****     for(y = a_clipped.y1; y <= a_clipped.y2; y++) {
 2033              		.loc 1 204 5 is_stmt 1 view .LVU561
 205:Drivers/lvgl/src/draw/lv_draw_buf.c ****         lv_memzero(buf, line_length);
 2034              		.loc 1 205 5 view .LVU562
 205:Drivers/lvgl/src/draw/lv_draw_buf.c ****         lv_memzero(buf, line_length);
 2035              		.loc 1 205 11 is_stmt 0 view .LVU563
 2036 008e 019F     		ldr	r7, [sp, #4]
 2037              	.LVL191:
 205:Drivers/lvgl/src/draw/lv_draw_buf.c ****         lv_memzero(buf, line_length);
 2038              		.loc 1 205 5 view .LVU564
 2039 0090 06E0     		b	.L156
 2040              	.L157:
 206:Drivers/lvgl/src/draw/lv_draw_buf.c ****         buf += stride;
 2041              		.loc 1 206 9 is_stmt 1 view .LVU565
 2042              	.LVL192:
 2043              	.LBB20:
 2044              	.LBI20:
  73:Drivers/lvgl/src/draw/../misc/../stdlib/lv_string.h **** {
 2045              		.loc 2 73 20 view .LVU566
ARM GAS  /tmp/ccrMvAjz.s 			page 59


 2046              	.LBB21:
 2047              		.loc 2 75 5 view .LVU567
 2048 0092 4A46     		mov	r2, r9
 2049 0094 0021     		movs	r1, #0
 2050 0096 3046     		mov	r0, r6
 2051 0098 FFF7FEFF 		bl	lv_memset
 2052              	.LVL193:
 2053              		.loc 2 75 5 is_stmt 0 view .LVU568
 2054              	.LBE21:
 2055              	.LBE20:
 207:Drivers/lvgl/src/draw/lv_draw_buf.c ****     }
 2056              		.loc 1 207 9 is_stmt 1 view .LVU569
 207:Drivers/lvgl/src/draw/lv_draw_buf.c ****     }
 2057              		.loc 1 207 13 is_stmt 0 view .LVU570
 2058 009c 4644     		add	r6, r6, r8
 2059              	.LVL194:
 205:Drivers/lvgl/src/draw/lv_draw_buf.c ****         lv_memzero(buf, line_length);
 2060              		.loc 1 205 47 is_stmt 1 discriminator 3 view .LVU571
 2061 009e 0137     		adds	r7, r7, #1
 2062              	.LVL195:
 2063              	.L156:
 205:Drivers/lvgl/src/draw/lv_draw_buf.c ****         lv_memzero(buf, line_length);
 2064              		.loc 1 205 29 discriminator 1 view .LVU572
 205:Drivers/lvgl/src/draw/lv_draw_buf.c ****         lv_memzero(buf, line_length);
 2065              		.loc 1 205 41 is_stmt 0 discriminator 1 view .LVU573
 2066 00a0 039B     		ldr	r3, [sp, #12]
 205:Drivers/lvgl/src/draw/lv_draw_buf.c ****         lv_memzero(buf, line_length);
 2067              		.loc 1 205 29 discriminator 1 view .LVU574
 2068 00a2 BB42     		cmp	r3, r7
 2069 00a4 F5DA     		bge	.L157
 209:Drivers/lvgl/src/draw/lv_draw_buf.c ****     LV_PROFILER_DRAW_END;
 2070              		.loc 1 209 5 is_stmt 1 view .LVU575
 2071 00a6 2146     		mov	r1, r4
 2072 00a8 2846     		mov	r0, r5
 2073 00aa FFF7FEFF 		bl	lv_draw_buf_flush_cache
 2074              	.LVL196:
 210:Drivers/lvgl/src/draw/lv_draw_buf.c **** }
 2075              		.loc 1 210 25 view .LVU576
 2076 00ae BEE7     		b	.L151
 2077              		.cfi_endproc
 2078              	.LFE198:
 2080              		.section	.text.lv_draw_buf_copy,"ax",%progbits
 2081              		.align	1
 2082              		.global	lv_draw_buf_copy
 2083              		.syntax unified
 2084              		.thumb
 2085              		.thumb_func
 2087              	lv_draw_buf_copy:
 2088              	.LVL197:
 2089              	.LFB199:
 215:Drivers/lvgl/src/draw/lv_draw_buf.c ****     LV_PROFILER_DRAW_BEGIN;
 2090              		.loc 1 215 1 view -0
 2091              		.cfi_startproc
 2092              		@ args = 0, pretend = 0, frame = 0
 2093              		@ frame_needed = 0, uses_anonymous_args = 0
 215:Drivers/lvgl/src/draw/lv_draw_buf.c ****     LV_PROFILER_DRAW_BEGIN;
 2094              		.loc 1 215 1 is_stmt 0 view .LVU578
ARM GAS  /tmp/ccrMvAjz.s 			page 60


 2095 0000 2DE9F84F 		push	{r3, r4, r5, r6, r7, r8, r9, r10, fp, lr}
 2096              	.LCFI49:
 2097              		.cfi_def_cfa_offset 40
 2098              		.cfi_offset 3, -40
 2099              		.cfi_offset 4, -36
 2100              		.cfi_offset 5, -32
 2101              		.cfi_offset 6, -28
 2102              		.cfi_offset 7, -24
 2103              		.cfi_offset 8, -20
 2104              		.cfi_offset 9, -16
 2105              		.cfi_offset 10, -12
 2106              		.cfi_offset 11, -8
 2107              		.cfi_offset 14, -4
 2108 0004 1546     		mov	r5, r2
 2109 0006 1F46     		mov	r7, r3
 216:Drivers/lvgl/src/draw/lv_draw_buf.c ****     uint8_t * dest_bufc;
 2110              		.loc 1 216 27 is_stmt 1 view .LVU579
 217:Drivers/lvgl/src/draw/lv_draw_buf.c ****     uint8_t * src_bufc;
 2111              		.loc 1 217 5 view .LVU580
 218:Drivers/lvgl/src/draw/lv_draw_buf.c ****     int32_t line_width;
 2112              		.loc 1 218 5 view .LVU581
 219:Drivers/lvgl/src/draw/lv_draw_buf.c **** 
 2113              		.loc 1 219 5 view .LVU582
 222:Drivers/lvgl/src/draw/lv_draw_buf.c ****                          dest->header.cf, src->header.cf);
 2114              		.loc 1 222 5 view .LVU583
 222:Drivers/lvgl/src/draw/lv_draw_buf.c ****                          dest->header.cf, src->header.cf);
 2115              		.loc 1 222 5 view .LVU584
 2116 0008 4278     		ldrb	r2, [r0, #1]	@ zero_extendqisi2
 2117              	.LVL198:
 222:Drivers/lvgl/src/draw/lv_draw_buf.c ****                          dest->header.cf, src->header.cf);
 2118              		.loc 1 222 5 is_stmt 0 view .LVU585
 2119 000a 6B78     		ldrb	r3, [r5, #1]	@ zero_extendqisi2
 2120              	.LVL199:
 222:Drivers/lvgl/src/draw/lv_draw_buf.c ****                          dest->header.cf, src->header.cf);
 2121              		.loc 1 222 5 view .LVU586
 2122 000c 9A42     		cmp	r2, r3
 2123 000e 00D0     		beq	.L164
 2124              	.L165:
 222:Drivers/lvgl/src/draw/lv_draw_buf.c ****                          dest->header.cf, src->header.cf);
 2125              		.loc 1 222 5 is_stmt 1 discriminator 1 view .LVU587
 222:Drivers/lvgl/src/draw/lv_draw_buf.c ****                          dest->header.cf, src->header.cf);
 2126              		.loc 1 222 5 discriminator 1 view .LVU588
 222:Drivers/lvgl/src/draw/lv_draw_buf.c ****                          dest->header.cf, src->header.cf);
 2127              		.loc 1 222 5 discriminator 1 view .LVU589
 222:Drivers/lvgl/src/draw/lv_draw_buf.c ****                          dest->header.cf, src->header.cf);
 2128              		.loc 1 222 5 discriminator 1 view .LVU590
 222:Drivers/lvgl/src/draw/lv_draw_buf.c ****                          dest->header.cf, src->header.cf);
 2129              		.loc 1 222 5 discriminator 1 view .LVU591
 2130 0010 FEE7     		b	.L165
 2131              	.L164:
 2132 0012 0446     		mov	r4, r0
 2133 0014 0E46     		mov	r6, r1
 222:Drivers/lvgl/src/draw/lv_draw_buf.c ****                          dest->header.cf, src->header.cf);
 2134              		.loc 1 222 5 discriminator 2 view .LVU592
 225:Drivers/lvgl/src/draw/lv_draw_buf.c ****     else line_width = lv_area_get_width(dest_area);
 2135              		.loc 1 225 5 view .LVU593
 225:Drivers/lvgl/src/draw/lv_draw_buf.c ****     else line_width = lv_area_get_width(dest_area);
ARM GAS  /tmp/ccrMvAjz.s 			page 61


 2136              		.loc 1 225 7 is_stmt 0 view .LVU594
 2137 0016 A9B1     		cbz	r1, .L187
 226:Drivers/lvgl/src/draw/lv_draw_buf.c **** 
 2138              		.loc 1 226 10 is_stmt 1 view .LVU595
 226:Drivers/lvgl/src/draw/lv_draw_buf.c **** 
 2139              		.loc 1 226 23 is_stmt 0 view .LVU596
 2140 0018 0846     		mov	r0, r1
 2141              	.LVL200:
 226:Drivers/lvgl/src/draw/lv_draw_buf.c **** 
 2142              		.loc 1 226 23 view .LVU597
 2143 001a FFF7FEFF 		bl	lv_area_get_width
 2144              	.LVL201:
 226:Drivers/lvgl/src/draw/lv_draw_buf.c **** 
 2145              		.loc 1 226 23 view .LVU598
 2146 001e 8246     		mov	r10, r0
 2147              	.L167:
 2148              	.LVL202:
 229:Drivers/lvgl/src/draw/lv_draw_buf.c ****         if(LV_COLOR_FORMAT_IS_INDEXED(dest->header.cf)) {
 2149              		.loc 1 229 5 is_stmt 1 view .LVU599
 229:Drivers/lvgl/src/draw/lv_draw_buf.c ****         if(LV_COLOR_FORMAT_IS_INDEXED(dest->header.cf)) {
 2150              		.loc 1 229 7 is_stmt 0 view .LVU600
 2151 0020 002F     		cmp	r7, #0
 2152 0022 18BF     		it	ne
 2153 0024 002E     		cmpne	r6, #0
 2154 0026 20D1     		bne	.L168
 230:Drivers/lvgl/src/draw/lv_draw_buf.c ****             lv_memcpy(dest->data, src->data, LV_COLOR_INDEXED_PALETTE_SIZE(dest->header.cf) * sizeo
 2155              		.loc 1 230 9 is_stmt 1 view .LVU601
 230:Drivers/lvgl/src/draw/lv_draw_buf.c ****             lv_memcpy(dest->data, src->data, LV_COLOR_INDEXED_PALETTE_SIZE(dest->header.cf) * sizeo
 2156              		.loc 1 230 12 is_stmt 0 view .LVU602
 2157 0028 6378     		ldrb	r3, [r4, #1]	@ zero_extendqisi2
 2158 002a DA1F     		subs	r2, r3, #7
 2159 002c D2B2     		uxtb	r2, r2
 230:Drivers/lvgl/src/draw/lv_draw_buf.c ****             lv_memcpy(dest->data, src->data, LV_COLOR_INDEXED_PALETTE_SIZE(dest->header.cf) * sizeo
 2160              		.loc 1 230 11 view .LVU603
 2161 002e 032A     		cmp	r2, #3
 2162 0030 17D8     		bhi	.L169
 231:Drivers/lvgl/src/draw/lv_draw_buf.c ****         }
 2163              		.loc 1 231 13 is_stmt 1 view .LVU604
 231:Drivers/lvgl/src/draw/lv_draw_buf.c ****         }
 2164              		.loc 1 231 27 is_stmt 0 view .LVU605
 2165 0032 2069     		ldr	r0, [r4, #16]
 231:Drivers/lvgl/src/draw/lv_draw_buf.c ****         }
 2166              		.loc 1 231 38 view .LVU606
 2167 0034 2969     		ldr	r1, [r5, #16]
 2168 0036 073B     		subs	r3, r3, #7
 2169 0038 032B     		cmp	r3, #3
 2170 003a 06D8     		bhi	.L170
 2171 003c DFE803F0 		tbb	[pc, r3]
 2172              	.L172:
 2173 0040 0E       		.byte	(.L185-.L172)/2
 2174 0041 07       		.byte	(.L174-.L172)/2
 2175 0042 09       		.byte	(.L173-.L172)/2
 2176 0043 0B       		.byte	(.L171-.L172)/2
 2177              	.LVL203:
 2178              		.p2align 1
 2179              	.L187:
 225:Drivers/lvgl/src/draw/lv_draw_buf.c ****     else line_width = lv_area_get_width(dest_area);
ARM GAS  /tmp/ccrMvAjz.s 			page 62


 2180              		.loc 1 225 27 is_stmt 1 discriminator 1 view .LVU607
 225:Drivers/lvgl/src/draw/lv_draw_buf.c ****     else line_width = lv_area_get_width(dest_area);
 2181              		.loc 1 225 52 is_stmt 0 discriminator 1 view .LVU608
 2182 0044 B0F804A0 		ldrh	r10, [r0, #4]
 2183              	.LVL204:
 225:Drivers/lvgl/src/draw/lv_draw_buf.c ****     else line_width = lv_area_get_width(dest_area);
 2184              		.loc 1 225 52 discriminator 1 view .LVU609
 2185 0048 EAE7     		b	.L167
 2186              	.LVL205:
 2187              	.L170:
 231:Drivers/lvgl/src/draw/lv_draw_buf.c ****         }
 2188              		.loc 1 231 38 view .LVU610
 2189 004a 0022     		movs	r2, #0
 2190 004c 07E0     		b	.L175
 2191              	.L174:
 2192 004e 1022     		movs	r2, #16
 2193 0050 05E0     		b	.L175
 2194              	.L173:
 2195 0052 4022     		movs	r2, #64
 2196 0054 03E0     		b	.L175
 2197              	.L171:
 2198 0056 4FF48062 		mov	r2, #1024
 2199 005a 00E0     		b	.L175
 2200              	.L185:
 2201 005c 0822     		movs	r2, #8
 2202              	.L175:
 231:Drivers/lvgl/src/draw/lv_draw_buf.c ****         }
 2203              		.loc 1 231 13 discriminator 16 view .LVU611
 2204 005e FFF7FEFF 		bl	lv_memcpy
 2205              	.LVL206:
 2206              	.L169:
 236:Drivers/lvgl/src/draw/lv_draw_buf.c ****        (src_area != NULL && line_width != lv_area_get_width(src_area))) {
 2207              		.loc 1 236 5 is_stmt 1 view .LVU612
 236:Drivers/lvgl/src/draw/lv_draw_buf.c ****        (src_area != NULL && line_width != lv_area_get_width(src_area))) {
 2208              		.loc 1 236 7 is_stmt 0 view .LVU613
 2209 0062 1FB9     		cbnz	r7, .L176
 236:Drivers/lvgl/src/draw/lv_draw_buf.c ****        (src_area != NULL && line_width != lv_area_get_width(src_area))) {
 2210              		.loc 1 236 54 discriminator 1 view .LVU614
 2211 0064 AB88     		ldrh	r3, [r5, #4]
 236:Drivers/lvgl/src/draw/lv_draw_buf.c ****        (src_area != NULL && line_width != lv_area_get_width(src_area))) {
 2212              		.loc 1 236 26 discriminator 1 view .LVU615
 2213 0066 5345     		cmp	r3, r10
 2214 0068 05D1     		bne	.L177
 2215              	.L168:
 236:Drivers/lvgl/src/draw/lv_draw_buf.c ****        (src_area != NULL && line_width != lv_area_get_width(src_area))) {
 2216              		.loc 1 236 58 discriminator 3 view .LVU616
 2217 006a 6FB1     		cbz	r7, .L178
 2218              	.L176:
 237:Drivers/lvgl/src/draw/lv_draw_buf.c ****         LV_ASSERT_MSG(0, "Source and destination areas have different width");
 2219              		.loc 1 237 43 view .LVU617
 2220 006c 3846     		mov	r0, r7
 2221 006e FFF7FEFF 		bl	lv_area_get_width
 2222              	.LVL207:
 237:Drivers/lvgl/src/draw/lv_draw_buf.c ****         LV_ASSERT_MSG(0, "Source and destination areas have different width");
 2223              		.loc 1 237 26 discriminator 1 view .LVU618
 2224 0072 5045     		cmp	r0, r10
 2225 0074 00D0     		beq	.L179
ARM GAS  /tmp/ccrMvAjz.s 			page 63


 2226              	.L177:
 238:Drivers/lvgl/src/draw/lv_draw_buf.c ****         LV_PROFILER_DRAW_END;
 2227              		.loc 1 238 9 is_stmt 1 discriminator 1 view .LVU619
 238:Drivers/lvgl/src/draw/lv_draw_buf.c ****         LV_PROFILER_DRAW_END;
 2228              		.loc 1 238 9 discriminator 1 view .LVU620
 238:Drivers/lvgl/src/draw/lv_draw_buf.c ****         LV_PROFILER_DRAW_END;
 2229              		.loc 1 238 9 discriminator 1 view .LVU621
 238:Drivers/lvgl/src/draw/lv_draw_buf.c ****         LV_PROFILER_DRAW_END;
 2230              		.loc 1 238 9 discriminator 1 view .LVU622
 238:Drivers/lvgl/src/draw/lv_draw_buf.c ****         LV_PROFILER_DRAW_END;
 2231              		.loc 1 238 9 discriminator 1 view .LVU623
 2232 0076 FEE7     		b	.L177
 2233              	.L179:
 243:Drivers/lvgl/src/draw/lv_draw_buf.c ****     else src_bufc = lv_draw_buf_goto_xy(src, 0, 0);
 2234              		.loc 1 243 5 view .LVU624
 243:Drivers/lvgl/src/draw/lv_draw_buf.c ****     else src_bufc = lv_draw_buf_goto_xy(src, 0, 0);
 2235              		.loc 1 243 7 is_stmt 0 view .LVU625
 2236 0078 37B1     		cbz	r7, .L178
 243:Drivers/lvgl/src/draw/lv_draw_buf.c ****     else src_bufc = lv_draw_buf_goto_xy(src, 0, 0);
 2237              		.loc 1 243 18 is_stmt 1 discriminator 1 view .LVU626
 243:Drivers/lvgl/src/draw/lv_draw_buf.c ****     else src_bufc = lv_draw_buf_goto_xy(src, 0, 0);
 2238              		.loc 1 243 29 is_stmt 0 discriminator 1 view .LVU627
 2239 007a 7A68     		ldr	r2, [r7, #4]
 2240 007c 3968     		ldr	r1, [r7]
 2241 007e 2846     		mov	r0, r5
 2242 0080 FFF7FEFF 		bl	lv_draw_buf_goto_xy
 2243              	.LVL208:
 2244 0084 8046     		mov	r8, r0
 2245              	.LVL209:
 243:Drivers/lvgl/src/draw/lv_draw_buf.c ****     else src_bufc = lv_draw_buf_goto_xy(src, 0, 0);
 2246              		.loc 1 243 29 discriminator 1 view .LVU628
 2247 0086 05E0     		b	.L180
 2248              	.LVL210:
 2249              	.L178:
 244:Drivers/lvgl/src/draw/lv_draw_buf.c **** 
 2250              		.loc 1 244 10 is_stmt 1 view .LVU629
 244:Drivers/lvgl/src/draw/lv_draw_buf.c **** 
 2251              		.loc 1 244 21 is_stmt 0 view .LVU630
 2252 0088 0022     		movs	r2, #0
 2253 008a 1146     		mov	r1, r2
 2254 008c 2846     		mov	r0, r5
 2255 008e FFF7FEFF 		bl	lv_draw_buf_goto_xy
 2256              	.LVL211:
 2257 0092 8046     		mov	r8, r0
 2258              	.L180:
 2259              	.LVL212:
 246:Drivers/lvgl/src/draw/lv_draw_buf.c ****     else dest_bufc = lv_draw_buf_goto_xy(dest, 0, 0);
 2260              		.loc 1 246 5 is_stmt 1 view .LVU631
 246:Drivers/lvgl/src/draw/lv_draw_buf.c ****     else dest_bufc = lv_draw_buf_goto_xy(dest, 0, 0);
 2261              		.loc 1 246 7 is_stmt 0 view .LVU632
 2262 0094 9EB1     		cbz	r6, .L181
 246:Drivers/lvgl/src/draw/lv_draw_buf.c ****     else dest_bufc = lv_draw_buf_goto_xy(dest, 0, 0);
 2263              		.loc 1 246 19 is_stmt 1 discriminator 1 view .LVU633
 246:Drivers/lvgl/src/draw/lv_draw_buf.c ****     else dest_bufc = lv_draw_buf_goto_xy(dest, 0, 0);
 2264              		.loc 1 246 31 is_stmt 0 discriminator 1 view .LVU634
 2265 0096 7268     		ldr	r2, [r6, #4]
 2266 0098 3168     		ldr	r1, [r6]
ARM GAS  /tmp/ccrMvAjz.s 			page 64


 2267 009a 2046     		mov	r0, r4
 2268 009c FFF7FEFF 		bl	lv_draw_buf_goto_xy
 2269              	.LVL213:
 2270 00a0 0746     		mov	r7, r0
 2271              	.LVL214:
 249:Drivers/lvgl/src/draw/lv_draw_buf.c ****     if(dest_area) {
 2272              		.loc 1 249 5 is_stmt 1 view .LVU635
 250:Drivers/lvgl/src/draw/lv_draw_buf.c ****         start_y = dest_area->y1;
 2273              		.loc 1 250 5 view .LVU636
 251:Drivers/lvgl/src/draw/lv_draw_buf.c ****         end_y = dest_area->y2;
 2274              		.loc 1 251 9 view .LVU637
 251:Drivers/lvgl/src/draw/lv_draw_buf.c ****         end_y = dest_area->y2;
 2275              		.loc 1 251 17 is_stmt 0 view .LVU638
 2276 00a2 D6F80490 		ldr	r9, [r6, #4]
 2277              	.LVL215:
 252:Drivers/lvgl/src/draw/lv_draw_buf.c ****     }
 2278              		.loc 1 252 9 is_stmt 1 view .LVU639
 252:Drivers/lvgl/src/draw/lv_draw_buf.c ****     }
 2279              		.loc 1 252 15 is_stmt 0 view .LVU640
 2280 00a6 F668     		ldr	r6, [r6, #12]
 2281              	.LVL216:
 2282              	.L182:
 259:Drivers/lvgl/src/draw/lv_draw_buf.c ****     uint32_t src_stride = src->header.stride;
 2283              		.loc 1 259 5 is_stmt 1 view .LVU641
 259:Drivers/lvgl/src/draw/lv_draw_buf.c ****     uint32_t src_stride = src->header.stride;
 2284              		.loc 1 259 40 is_stmt 0 view .LVU642
 2285 00a8 B4F808B0 		ldrh	fp, [r4, #8]
 2286              	.LVL217:
 260:Drivers/lvgl/src/draw/lv_draw_buf.c ****     uint32_t line_bytes = (line_width * lv_color_format_get_bpp(dest->header.cf) + 7) >> 3;
 2287              		.loc 1 260 5 is_stmt 1 view .LVU643
 260:Drivers/lvgl/src/draw/lv_draw_buf.c ****     uint32_t line_bytes = (line_width * lv_color_format_get_bpp(dest->header.cf) + 7) >> 3;
 2288              		.loc 1 260 38 is_stmt 0 view .LVU644
 2289 00ac 2D89     		ldrh	r5, [r5, #8]
 2290              	.LVL218:
 261:Drivers/lvgl/src/draw/lv_draw_buf.c **** 
 2291              		.loc 1 261 5 is_stmt 1 view .LVU645
 261:Drivers/lvgl/src/draw/lv_draw_buf.c **** 
 2292              		.loc 1 261 41 is_stmt 0 view .LVU646
 2293 00ae 6078     		ldrb	r0, [r4, #1]	@ zero_extendqisi2
 2294              	.LVL219:
 261:Drivers/lvgl/src/draw/lv_draw_buf.c **** 
 2295              		.loc 1 261 41 view .LVU647
 2296 00b0 FFF7FEFF 		bl	lv_color_format_get_bpp
 2297              	.LVL220:
 261:Drivers/lvgl/src/draw/lv_draw_buf.c **** 
 2298              		.loc 1 261 39 discriminator 1 view .LVU648
 2299 00b4 0AFB00F4 		mul	r4, r10, r0
 2300              	.LVL221:
 261:Drivers/lvgl/src/draw/lv_draw_buf.c **** 
 2301              		.loc 1 261 82 discriminator 1 view .LVU649
 2302 00b8 0734     		adds	r4, r4, #7
 261:Drivers/lvgl/src/draw/lv_draw_buf.c **** 
 2303              		.loc 1 261 87 discriminator 1 view .LVU650
 2304 00ba E410     		asrs	r4, r4, #3
 2305              	.LVL222:
 263:Drivers/lvgl/src/draw/lv_draw_buf.c ****         lv_memcpy(dest_bufc, src_bufc, line_bytes);
 2306              		.loc 1 263 5 is_stmt 1 view .LVU651
ARM GAS  /tmp/ccrMvAjz.s 			page 65


 2307 00bc 13E0     		b	.L183
 2308              	.LVL223:
 2309              	.L181:
 247:Drivers/lvgl/src/draw/lv_draw_buf.c **** 
 2310              		.loc 1 247 10 view .LVU652
 247:Drivers/lvgl/src/draw/lv_draw_buf.c **** 
 2311              		.loc 1 247 22 is_stmt 0 view .LVU653
 2312 00be 0022     		movs	r2, #0
 2313 00c0 1146     		mov	r1, r2
 2314 00c2 2046     		mov	r0, r4
 2315 00c4 FFF7FEFF 		bl	lv_draw_buf_goto_xy
 2316              	.LVL224:
 2317 00c8 0746     		mov	r7, r0
 2318              	.LVL225:
 249:Drivers/lvgl/src/draw/lv_draw_buf.c ****     if(dest_area) {
 2319              		.loc 1 249 5 is_stmt 1 view .LVU654
 250:Drivers/lvgl/src/draw/lv_draw_buf.c ****         start_y = dest_area->y1;
 2320              		.loc 1 250 5 view .LVU655
 255:Drivers/lvgl/src/draw/lv_draw_buf.c ****         end_y = dest->header.h - 1;
 2321              		.loc 1 255 9 view .LVU656
 256:Drivers/lvgl/src/draw/lv_draw_buf.c ****     }
 2322              		.loc 1 256 9 view .LVU657
 256:Drivers/lvgl/src/draw/lv_draw_buf.c ****     }
 2323              		.loc 1 256 29 is_stmt 0 view .LVU658
 2324 00ca E688     		ldrh	r6, [r4, #6]
 2325              	.LVL226:
 256:Drivers/lvgl/src/draw/lv_draw_buf.c ****     }
 2326              		.loc 1 256 15 view .LVU659
 2327 00cc 013E     		subs	r6, r6, #1
 2328              	.LVL227:
 255:Drivers/lvgl/src/draw/lv_draw_buf.c ****         end_y = dest->header.h - 1;
 2329              		.loc 1 255 17 view .LVU660
 2330 00ce 4FF00009 		mov	r9, #0
 2331 00d2 E9E7     		b	.L182
 2332              	.LVL228:
 2333              	.L184:
 264:Drivers/lvgl/src/draw/lv_draw_buf.c ****         dest_bufc += dest_stride;
 2334              		.loc 1 264 9 is_stmt 1 view .LVU661
 2335 00d4 2246     		mov	r2, r4
 2336 00d6 4146     		mov	r1, r8
 2337 00d8 3846     		mov	r0, r7
 2338 00da FFF7FEFF 		bl	lv_memcpy
 2339              	.LVL229:
 265:Drivers/lvgl/src/draw/lv_draw_buf.c ****         src_bufc += src_stride;
 2340              		.loc 1 265 9 view .LVU662
 265:Drivers/lvgl/src/draw/lv_draw_buf.c ****         src_bufc += src_stride;
 2341              		.loc 1 265 19 is_stmt 0 view .LVU663
 2342 00de 5F44     		add	r7, r7, fp
 2343              	.LVL230:
 266:Drivers/lvgl/src/draw/lv_draw_buf.c ****     }
 2344              		.loc 1 266 9 is_stmt 1 view .LVU664
 266:Drivers/lvgl/src/draw/lv_draw_buf.c ****     }
 2345              		.loc 1 266 18 is_stmt 0 view .LVU665
 2346 00e0 A844     		add	r8, r8, r5
 2347              	.LVL231:
 263:Drivers/lvgl/src/draw/lv_draw_buf.c ****         lv_memcpy(dest_bufc, src_bufc, line_bytes);
 2348              		.loc 1 263 36 is_stmt 1 discriminator 2 view .LVU666
ARM GAS  /tmp/ccrMvAjz.s 			page 66


 2349 00e2 09F10109 		add	r9, r9, #1
 2350              	.LVL232:
 2351              	.L183:
 263:Drivers/lvgl/src/draw/lv_draw_buf.c ****         lv_memcpy(dest_bufc, src_bufc, line_bytes);
 2352              		.loc 1 263 19 discriminator 1 view .LVU667
 2353 00e6 B145     		cmp	r9, r6
 2354 00e8 F4DD     		ble	.L184
 269:Drivers/lvgl/src/draw/lv_draw_buf.c **** 
 2355              		.loc 1 269 1 is_stmt 0 view .LVU668
 2356 00ea BDE8F88F 		pop	{r3, r4, r5, r6, r7, r8, r9, r10, fp, pc}
 269:Drivers/lvgl/src/draw/lv_draw_buf.c **** 
 2357              		.loc 1 269 1 view .LVU669
 2358              		.cfi_endproc
 2359              	.LFE199:
 2361              		.section	.text.lv_draw_buf_premultiply,"ax",%progbits
 2362              		.align	1
 2363              		.global	lv_draw_buf_premultiply
 2364              		.syntax unified
 2365              		.thumb
 2366              		.thumb_func
 2368              	lv_draw_buf_premultiply:
 2369              	.LVL233:
 2370              	.LFB209:
 507:Drivers/lvgl/src/draw/lv_draw_buf.c ****     LV_ASSERT_NULL(draw_buf);
 2371              		.loc 1 507 1 is_stmt 1 view -0
 2372              		.cfi_startproc
 2373              		@ args = 0, pretend = 0, frame = 8
 2374              		@ frame_needed = 0, uses_anonymous_args = 0
 508:Drivers/lvgl/src/draw/lv_draw_buf.c ****     if(draw_buf == NULL) return LV_RESULT_INVALID;
 2375              		.loc 1 508 5 view .LVU671
 508:Drivers/lvgl/src/draw/lv_draw_buf.c ****     if(draw_buf == NULL) return LV_RESULT_INVALID;
 2376              		.loc 1 508 5 view .LVU672
 2377 0000 C8B1     		cbz	r0, .L190
 507:Drivers/lvgl/src/draw/lv_draw_buf.c ****     LV_ASSERT_NULL(draw_buf);
 2378              		.loc 1 507 1 is_stmt 0 view .LVU673
 2379 0002 2DE9F04F 		push	{r4, r5, r6, r7, r8, r9, r10, fp, lr}
 2380              	.LCFI50:
 2381              		.cfi_def_cfa_offset 36
 2382              		.cfi_offset 4, -36
 2383              		.cfi_offset 5, -32
 2384              		.cfi_offset 6, -28
 2385              		.cfi_offset 7, -24
 2386              		.cfi_offset 8, -20
 2387              		.cfi_offset 9, -16
 2388              		.cfi_offset 10, -12
 2389              		.cfi_offset 11, -8
 2390              		.cfi_offset 14, -4
 2391 0006 83B0     		sub	sp, sp, #12
 2392              	.LCFI51:
 2393              		.cfi_def_cfa_offset 48
 2394 0008 0646     		mov	r6, r0
 508:Drivers/lvgl/src/draw/lv_draw_buf.c ****     if(draw_buf == NULL) return LV_RESULT_INVALID;
 2395              		.loc 1 508 5 is_stmt 1 discriminator 2 view .LVU674
 508:Drivers/lvgl/src/draw/lv_draw_buf.c ****     if(draw_buf == NULL) return LV_RESULT_INVALID;
 2396              		.loc 1 508 29 discriminator 2 view .LVU675
 509:Drivers/lvgl/src/draw/lv_draw_buf.c **** 
 2397              		.loc 1 509 5 view .LVU676
ARM GAS  /tmp/ccrMvAjz.s 			page 67


 511:Drivers/lvgl/src/draw/lv_draw_buf.c ****     if((draw_buf->header.flags & LV_IMAGE_FLAGS_MODIFIABLE) == 0) {
 2398              		.loc 1 511 5 view .LVU677
 511:Drivers/lvgl/src/draw/lv_draw_buf.c ****     if((draw_buf->header.flags & LV_IMAGE_FLAGS_MODIFIABLE) == 0) {
 2399              		.loc 1 511 24 is_stmt 0 view .LVU678
 2400 000a 4388     		ldrh	r3, [r0, #2]
 511:Drivers/lvgl/src/draw/lv_draw_buf.c ****     if((draw_buf->header.flags & LV_IMAGE_FLAGS_MODIFIABLE) == 0) {
 2401              		.loc 1 511 7 view .LVU679
 2402 000c 13F0010F 		tst	r3, #1
 2403 0010 40F08B80 		bne	.L215
 512:Drivers/lvgl/src/draw/lv_draw_buf.c ****         LV_LOG_WARN("draw buf is not modifiable: 0x%04x", draw_buf->header.flags);
 2404              		.loc 1 512 5 is_stmt 1 view .LVU680
 512:Drivers/lvgl/src/draw/lv_draw_buf.c ****         LV_LOG_WARN("draw buf is not modifiable: 0x%04x", draw_buf->header.flags);
 2405              		.loc 1 512 7 is_stmt 0 view .LVU681
 2406 0014 13F0200F 		tst	r3, #32
 2407 0018 00F08980 		beq	.L216
 516:Drivers/lvgl/src/draw/lv_draw_buf.c **** 
 2408              		.loc 1 516 27 is_stmt 1 view .LVU682
 519:Drivers/lvgl/src/draw/lv_draw_buf.c ****     if(LV_COLOR_FORMAT_IS_INDEXED(cf)) {
 2409              		.loc 1 519 5 view .LVU683
 519:Drivers/lvgl/src/draw/lv_draw_buf.c ****     if(LV_COLOR_FORMAT_IS_INDEXED(cf)) {
 2410              		.loc 1 519 23 is_stmt 0 view .LVU684
 2411 001c 4278     		ldrb	r2, [r0, #1]	@ zero_extendqisi2
 2412              	.LVL234:
 520:Drivers/lvgl/src/draw/lv_draw_buf.c ****         int size = LV_COLOR_INDEXED_PALETTE_SIZE(cf);
 2413              		.loc 1 520 5 is_stmt 1 view .LVU685
 2414 001e D31F     		subs	r3, r2, #7
 2415 0020 0D2B     		cmp	r3, #13
 2416 0022 24D8     		bhi	.L192
 2417 0024 DFE803F0 		tbb	[pc, r3]
 2418              	.L194:
 2419 0028 08       		.byte	(.L197-.L194)/2
 2420 0029 08       		.byte	(.L197-.L194)/2
 2421 002a 08       		.byte	(.L197-.L194)/2
 2422 002b 08       		.byte	(.L197-.L194)/2
 2423 002c 23       		.byte	(.L192-.L194)/2
 2424 002d 23       		.byte	(.L192-.L194)/2
 2425 002e 23       		.byte	(.L192-.L194)/2
 2426 002f 23       		.byte	(.L192-.L194)/2
 2427 0030 23       		.byte	(.L192-.L194)/2
 2428 0031 2B       		.byte	(.L196-.L194)/2
 2429 0032 23       		.byte	(.L192-.L194)/2
 2430 0033 23       		.byte	(.L192-.L194)/2
 2431 0034 67       		.byte	(.L195-.L194)/2
 2432 0035 44       		.byte	(.L193-.L194)/2
 2433              	.LVL235:
 2434              		.p2align 1
 2435              	.L190:
 2436              	.LCFI52:
 2437              		.cfi_def_cfa_offset 0
 2438              		.cfi_restore 4
 2439              		.cfi_restore 5
 2440              		.cfi_restore 6
 2441              		.cfi_restore 7
 2442              		.cfi_restore 8
 2443              		.cfi_restore 9
 2444              		.cfi_restore 10
 2445              		.cfi_restore 11
ARM GAS  /tmp/ccrMvAjz.s 			page 68


 2446              		.cfi_restore 14
 508:Drivers/lvgl/src/draw/lv_draw_buf.c ****     if(draw_buf == NULL) return LV_RESULT_INVALID;
 2447              		.loc 1 508 5 discriminator 1 view .LVU686
 508:Drivers/lvgl/src/draw/lv_draw_buf.c ****     if(draw_buf == NULL) return LV_RESULT_INVALID;
 2448              		.loc 1 508 5 discriminator 1 view .LVU687
 508:Drivers/lvgl/src/draw/lv_draw_buf.c ****     if(draw_buf == NULL) return LV_RESULT_INVALID;
 2449              		.loc 1 508 5 discriminator 1 view .LVU688
 508:Drivers/lvgl/src/draw/lv_draw_buf.c ****     if(draw_buf == NULL) return LV_RESULT_INVALID;
 2450              		.loc 1 508 5 discriminator 1 view .LVU689
 508:Drivers/lvgl/src/draw/lv_draw_buf.c ****     if(draw_buf == NULL) return LV_RESULT_INVALID;
 2451              		.loc 1 508 5 discriminator 1 view .LVU690
 2452 0036 FEE7     		b	.L190
 2453              	.LVL236:
 2454              	.L197:
 2455              	.LCFI53:
 2456              		.cfi_def_cfa_offset 48
 2457              		.cfi_offset 4, -36
 2458              		.cfi_offset 5, -32
 2459              		.cfi_offset 6, -28
 2460              		.cfi_offset 7, -24
 2461              		.cfi_offset 8, -20
 2462              		.cfi_offset 9, -16
 2463              		.cfi_offset 10, -12
 2464              		.cfi_offset 11, -8
 2465              		.cfi_offset 14, -4
 2466              	.LBB22:
 521:Drivers/lvgl/src/draw/lv_draw_buf.c ****         lv_color32_t * palette = (lv_color32_t *)draw_buf->data;
 2467              		.loc 1 521 9 view .LVU691
 2468 0038 073A     		subs	r2, r2, #7
 2469              	.LVL237:
 521:Drivers/lvgl/src/draw/lv_draw_buf.c ****         lv_color32_t * palette = (lv_color32_t *)draw_buf->data;
 2470              		.loc 1 521 9 is_stmt 0 view .LVU692
 2471 003a 032A     		cmp	r2, #3
 2472 003c 03D8     		bhi	.L198
 2473 003e DFE802F0 		tbb	[pc, r2]
 2474              	.L200:
 2475 0042 0B       		.byte	(.L217-.L200)/2
 2476 0043 04       		.byte	(.L202-.L200)/2
 2477 0044 06       		.byte	(.L201-.L200)/2
 2478 0045 08       		.byte	(.L199-.L200)/2
 2479              		.p2align 1
 2480              	.L198:
 2481              	.LBE22:
 519:Drivers/lvgl/src/draw/lv_draw_buf.c ****     if(LV_COLOR_FORMAT_IS_INDEXED(cf)) {
 2482              		.loc 1 519 23 view .LVU693
 2483 0046 0025     		movs	r5, #0
 2484 0048 07E0     		b	.L203
 2485              	.L202:
 2486 004a 0425     		movs	r5, #4
 2487 004c 05E0     		b	.L203
 2488              	.L201:
 2489 004e 1025     		movs	r5, #16
 2490 0050 03E0     		b	.L203
 2491              	.L199:
 2492 0052 4FF48075 		mov	r5, #256
 2493 0056 00E0     		b	.L203
 2494              	.L217:
ARM GAS  /tmp/ccrMvAjz.s 			page 69


 2495 0058 0225     		movs	r5, #2
 2496              	.L203:
 2497              	.LVL238:
 2498              	.LBB24:
 522:Drivers/lvgl/src/draw/lv_draw_buf.c ****         for(int i = 0; i < size; i++) {
 2499              		.loc 1 522 9 is_stmt 1 view .LVU694
 522:Drivers/lvgl/src/draw/lv_draw_buf.c ****         for(int i = 0; i < size; i++) {
 2500              		.loc 1 522 24 is_stmt 0 view .LVU695
 2501 005a 3769     		ldr	r7, [r6, #16]
 2502              	.LVL239:
 523:Drivers/lvgl/src/draw/lv_draw_buf.c ****             lv_color_premultiply(&palette[i]);
 2503              		.loc 1 523 9 is_stmt 1 view .LVU696
 2504              	.LBB23:
 523:Drivers/lvgl/src/draw/lv_draw_buf.c ****             lv_color_premultiply(&palette[i]);
 2505              		.loc 1 523 13 view .LVU697
 523:Drivers/lvgl/src/draw/lv_draw_buf.c ****             lv_color_premultiply(&palette[i]);
 2506              		.loc 1 523 17 is_stmt 0 view .LVU698
 2507 005c 0024     		movs	r4, #0
 523:Drivers/lvgl/src/draw/lv_draw_buf.c ****             lv_color_premultiply(&palette[i]);
 2508              		.loc 1 523 9 view .LVU699
 2509 005e 04E0     		b	.L204
 2510              	.LVL240:
 2511              	.L205:
 524:Drivers/lvgl/src/draw/lv_draw_buf.c ****         }
 2512              		.loc 1 524 13 is_stmt 1 view .LVU700
 2513 0060 07EB8400 		add	r0, r7, r4, lsl #2
 2514 0064 FFF7FEFF 		bl	lv_color_premultiply
 2515              	.LVL241:
 523:Drivers/lvgl/src/draw/lv_draw_buf.c ****             lv_color_premultiply(&palette[i]);
 2516              		.loc 1 523 35 discriminator 3 view .LVU701
 2517 0068 0134     		adds	r4, r4, #1
 2518              	.LVL242:
 2519              	.L204:
 523:Drivers/lvgl/src/draw/lv_draw_buf.c ****             lv_color_premultiply(&palette[i]);
 2520              		.loc 1 523 26 discriminator 1 view .LVU702
 2521 006a AC42     		cmp	r4, r5
 2522 006c F8DB     		blt	.L205
 2523              	.LVL243:
 2524              	.L192:
 523:Drivers/lvgl/src/draw/lv_draw_buf.c ****             lv_color_premultiply(&palette[i]);
 2525              		.loc 1 523 26 is_stmt 0 discriminator 1 view .LVU703
 2526              	.LBE23:
 2527              	.LBE24:
 577:Drivers/lvgl/src/draw/lv_draw_buf.c ****     }
 2528              		.loc 1 577 9 is_stmt 1 view .LVU704
 577:Drivers/lvgl/src/draw/lv_draw_buf.c ****     }
 2529              		.loc 1 577 9 view .LVU705
 577:Drivers/lvgl/src/draw/lv_draw_buf.c ****     }
 2530              		.loc 1 577 9 view .LVU706
 580:Drivers/lvgl/src/draw/lv_draw_buf.c **** 
 2531              		.loc 1 580 5 view .LVU707
 580:Drivers/lvgl/src/draw/lv_draw_buf.c **** 
 2532              		.loc 1 580 21 is_stmt 0 view .LVU708
 2533 006e 7388     		ldrh	r3, [r6, #2]
 580:Drivers/lvgl/src/draw/lv_draw_buf.c **** 
 2534              		.loc 1 580 28 view .LVU709
 2535 0070 43F00103 		orr	r3, r3, #1
ARM GAS  /tmp/ccrMvAjz.s 			page 70


 2536 0074 7380     		strh	r3, [r6, #2]	@ movhi
 582:Drivers/lvgl/src/draw/lv_draw_buf.c ****     return LV_RESULT_OK;
 2537              		.loc 1 582 25 is_stmt 1 view .LVU710
 583:Drivers/lvgl/src/draw/lv_draw_buf.c **** }
 2538              		.loc 1 583 5 view .LVU711
 583:Drivers/lvgl/src/draw/lv_draw_buf.c **** }
 2539              		.loc 1 583 12 is_stmt 0 view .LVU712
 2540 0076 0120     		movs	r0, #1
 2541              	.LVL244:
 2542              	.L191:
 584:Drivers/lvgl/src/draw/lv_draw_buf.c **** 
 2543              		.loc 1 584 1 view .LVU713
 2544 0078 03B0     		add	sp, sp, #12
 2545              	.LCFI54:
 2546              		.cfi_remember_state
 2547              		.cfi_def_cfa_offset 36
 2548              		@ sp needed
 2549 007a BDE8F08F 		pop	{r4, r5, r6, r7, r8, r9, r10, fp, pc}
 2550              	.LVL245:
 2551              	.L196:
 2552              	.LCFI55:
 2553              		.cfi_restore_state
 2554              	.LBB25:
 528:Drivers/lvgl/src/draw/lv_draw_buf.c ****         uint32_t w = draw_buf->header.w;
 2555              		.loc 1 528 9 is_stmt 1 view .LVU714
 528:Drivers/lvgl/src/draw/lv_draw_buf.c ****         uint32_t w = draw_buf->header.w;
 2556              		.loc 1 528 38 is_stmt 0 view .LVU715
 2557 007e B0F806A0 		ldrh	r10, [r0, #6]
 2558              	.LVL246:
 529:Drivers/lvgl/src/draw/lv_draw_buf.c ****         uint32_t stride = draw_buf->header.stride;
 2559              		.loc 1 529 9 is_stmt 1 view .LVU716
 529:Drivers/lvgl/src/draw/lv_draw_buf.c ****         uint32_t stride = draw_buf->header.stride;
 2560              		.loc 1 529 38 is_stmt 0 view .LVU717
 2561 0082 8788     		ldrh	r7, [r0, #4]
 2562              	.LVL247:
 530:Drivers/lvgl/src/draw/lv_draw_buf.c ****         uint8_t * line = (uint8_t *)draw_buf->data;
 2563              		.loc 1 530 9 is_stmt 1 view .LVU718
 530:Drivers/lvgl/src/draw/lv_draw_buf.c ****         uint8_t * line = (uint8_t *)draw_buf->data;
 2564              		.loc 1 530 43 is_stmt 0 view .LVU719
 2565 0084 B0F808B0 		ldrh	fp, [r0, #8]
 2566              	.LVL248:
 531:Drivers/lvgl/src/draw/lv_draw_buf.c ****         for(uint32_t y = 0; y < h; y++) {
 2567              		.loc 1 531 9 is_stmt 1 view .LVU720
 531:Drivers/lvgl/src/draw/lv_draw_buf.c ****         for(uint32_t y = 0; y < h; y++) {
 2568              		.loc 1 531 19 is_stmt 0 view .LVU721
 2569 0088 D0F81090 		ldr	r9, [r0, #16]
 2570              	.LVL249:
 532:Drivers/lvgl/src/draw/lv_draw_buf.c ****             lv_color32_t * pixel = (lv_color32_t *)line;
 2571              		.loc 1 532 9 is_stmt 1 view .LVU722
 2572              	.LBB26:
 532:Drivers/lvgl/src/draw/lv_draw_buf.c ****             lv_color32_t * pixel = (lv_color32_t *)line;
 2573              		.loc 1 532 13 view .LVU723
 532:Drivers/lvgl/src/draw/lv_draw_buf.c ****             lv_color32_t * pixel = (lv_color32_t *)line;
 2574              		.loc 1 532 22 is_stmt 0 view .LVU724
 2575 008c 4FF00008 		mov	r8, #0
 532:Drivers/lvgl/src/draw/lv_draw_buf.c ****             lv_color32_t * pixel = (lv_color32_t *)line;
 2576              		.loc 1 532 9 view .LVU725
ARM GAS  /tmp/ccrMvAjz.s 			page 71


 2577 0090 09E0     		b	.L206
 2578              	.LVL250:
 2579              	.L207:
 2580              	.LBB27:
 2581              	.LBB28:
 535:Drivers/lvgl/src/draw/lv_draw_buf.c ****                 pixel++;
 2582              		.loc 1 535 17 is_stmt 1 view .LVU726
 2583 0092 2846     		mov	r0, r5
 2584 0094 FFF7FEFF 		bl	lv_color_premultiply
 2585              	.LVL251:
 536:Drivers/lvgl/src/draw/lv_draw_buf.c ****             }
 2586              		.loc 1 536 17 view .LVU727
 536:Drivers/lvgl/src/draw/lv_draw_buf.c ****             }
 2587              		.loc 1 536 22 is_stmt 0 view .LVU728
 2588 0098 0435     		adds	r5, r5, #4
 2589              	.LVL252:
 534:Drivers/lvgl/src/draw/lv_draw_buf.c ****                 lv_color_premultiply(pixel);
 2590              		.loc 1 534 41 is_stmt 1 discriminator 3 view .LVU729
 2591 009a 0134     		adds	r4, r4, #1
 2592              	.LVL253:
 2593              	.L208:
 534:Drivers/lvgl/src/draw/lv_draw_buf.c ****                 lv_color_premultiply(pixel);
 2594              		.loc 1 534 35 discriminator 1 view .LVU730
 2595 009c BC42     		cmp	r4, r7
 2596 009e F8D3     		bcc	.L207
 2597              	.LBE28:
 538:Drivers/lvgl/src/draw/lv_draw_buf.c ****         }
 2598              		.loc 1 538 13 view .LVU731
 538:Drivers/lvgl/src/draw/lv_draw_buf.c ****         }
 2599              		.loc 1 538 18 is_stmt 0 view .LVU732
 2600 00a0 D944     		add	r9, r9, fp
 2601              	.LVL254:
 538:Drivers/lvgl/src/draw/lv_draw_buf.c ****         }
 2602              		.loc 1 538 18 view .LVU733
 2603              	.LBE27:
 532:Drivers/lvgl/src/draw/lv_draw_buf.c ****             lv_color32_t * pixel = (lv_color32_t *)line;
 2604              		.loc 1 532 37 is_stmt 1 discriminator 2 view .LVU734
 2605 00a2 08F10108 		add	r8, r8, #1
 2606              	.LVL255:
 2607              	.L206:
 532:Drivers/lvgl/src/draw/lv_draw_buf.c ****             lv_color32_t * pixel = (lv_color32_t *)line;
 2608              		.loc 1 532 31 discriminator 1 view .LVU735
 2609 00a6 D045     		cmp	r8, r10
 2610 00a8 E1D2     		bcs	.L192
 2611              	.LBB30:
 533:Drivers/lvgl/src/draw/lv_draw_buf.c ****             for(uint32_t x = 0; x < w; x++) {
 2612              		.loc 1 533 28 is_stmt 0 view .LVU736
 2613 00aa 4D46     		mov	r5, r9
 2614              	.LBB29:
 534:Drivers/lvgl/src/draw/lv_draw_buf.c ****                 lv_color_premultiply(pixel);
 2615              		.loc 1 534 26 view .LVU737
 2616 00ac 0024     		movs	r4, #0
 2617 00ae F5E7     		b	.L208
 2618              	.LVL256:
 2619              	.L193:
 534:Drivers/lvgl/src/draw/lv_draw_buf.c ****                 lv_color_premultiply(pixel);
 2620              		.loc 1 534 26 view .LVU738
ARM GAS  /tmp/ccrMvAjz.s 			page 72


 2621              	.LBE29:
 2622              	.LBE30:
 2623              	.LBE26:
 2624              	.LBE25:
 2625              	.LBB31:
 542:Drivers/lvgl/src/draw/lv_draw_buf.c ****         uint32_t w = draw_buf->header.w;
 2626              		.loc 1 542 9 is_stmt 1 view .LVU739
 542:Drivers/lvgl/src/draw/lv_draw_buf.c ****         uint32_t w = draw_buf->header.w;
 2627              		.loc 1 542 38 is_stmt 0 view .LVU740
 2628 00b0 C388     		ldrh	r3, [r0, #6]
 2629 00b2 0093     		str	r3, [sp]
 2630              	.LVL257:
 543:Drivers/lvgl/src/draw/lv_draw_buf.c ****         uint32_t stride = draw_buf->header.stride;
 2631              		.loc 1 543 9 is_stmt 1 view .LVU741
 543:Drivers/lvgl/src/draw/lv_draw_buf.c ****         uint32_t stride = draw_buf->header.stride;
 2632              		.loc 1 543 38 is_stmt 0 view .LVU742
 2633 00b4 B0F80480 		ldrh	r8, [r0, #4]
 2634              	.LVL258:
 544:Drivers/lvgl/src/draw/lv_draw_buf.c ****         uint32_t alpha_stride = stride / 2;
 2635              		.loc 1 544 9 is_stmt 1 view .LVU743
 544:Drivers/lvgl/src/draw/lv_draw_buf.c ****         uint32_t alpha_stride = stride / 2;
 2636              		.loc 1 544 43 is_stmt 0 view .LVU744
 2637 00b8 B0F808B0 		ldrh	fp, [r0, #8]
 2638              	.LVL259:
 545:Drivers/lvgl/src/draw/lv_draw_buf.c ****         uint8_t * line = (uint8_t *)draw_buf->data;
 2639              		.loc 1 545 9 is_stmt 1 view .LVU745
 545:Drivers/lvgl/src/draw/lv_draw_buf.c ****         uint8_t * line = (uint8_t *)draw_buf->data;
 2640              		.loc 1 545 18 is_stmt 0 view .LVU746
 2641 00bc 4FEA5B02 		lsr	r2, fp, #1
 2642              	.LVL260:
 545:Drivers/lvgl/src/draw/lv_draw_buf.c ****         uint8_t * line = (uint8_t *)draw_buf->data;
 2643              		.loc 1 545 18 view .LVU747
 2644 00c0 0192     		str	r2, [sp, #4]
 2645              	.LVL261:
 546:Drivers/lvgl/src/draw/lv_draw_buf.c ****         lv_opa_t * alpha = (lv_opa_t *)(line + stride * h);
 2646              		.loc 1 546 9 is_stmt 1 view .LVU748
 546:Drivers/lvgl/src/draw/lv_draw_buf.c ****         lv_opa_t * alpha = (lv_opa_t *)(line + stride * h);
 2647              		.loc 1 546 19 is_stmt 0 view .LVU749
 2648 00c2 D0F810A0 		ldr	r10, [r0, #16]
 2649              	.LVL262:
 547:Drivers/lvgl/src/draw/lv_draw_buf.c ****         for(uint32_t y = 0; y < h; y++) {
 2650              		.loc 1 547 9 is_stmt 1 view .LVU750
 547:Drivers/lvgl/src/draw/lv_draw_buf.c ****         for(uint32_t y = 0; y < h; y++) {
 2651              		.loc 1 547 20 is_stmt 0 view .LVU751
 2652 00c6 0BFB03A7 		mla	r7, fp, r3, r10
 2653              	.LVL263:
 548:Drivers/lvgl/src/draw/lv_draw_buf.c ****             lv_color16_t * pixel = (lv_color16_t *)line;
 2654              		.loc 1 548 9 is_stmt 1 view .LVU752
 2655              	.LBB32:
 548:Drivers/lvgl/src/draw/lv_draw_buf.c ****             lv_color16_t * pixel = (lv_color16_t *)line;
 2656              		.loc 1 548 13 view .LVU753
 548:Drivers/lvgl/src/draw/lv_draw_buf.c ****             lv_color16_t * pixel = (lv_color16_t *)line;
 2657              		.loc 1 548 22 is_stmt 0 view .LVU754
 2658 00ca 4FF00009 		mov	r9, #0
 548:Drivers/lvgl/src/draw/lv_draw_buf.c ****             lv_color16_t * pixel = (lv_color16_t *)line;
 2659              		.loc 1 548 9 view .LVU755
 2660 00ce 0CE0     		b	.L209
ARM GAS  /tmp/ccrMvAjz.s 			page 73


 2661              	.LVL264:
 2662              	.L210:
 2663              	.LBB33:
 2664              	.LBB34:
 551:Drivers/lvgl/src/draw/lv_draw_buf.c ****                 pixel++;
 2665              		.loc 1 551 17 is_stmt 1 view .LVU756
 2666 00d0 395D     		ldrb	r1, [r7, r4]	@ zero_extendqisi2
 2667 00d2 2846     		mov	r0, r5
 2668 00d4 FFF7FEFF 		bl	lv_color16_premultiply
 2669              	.LVL265:
 552:Drivers/lvgl/src/draw/lv_draw_buf.c ****             }
 2670              		.loc 1 552 17 view .LVU757
 552:Drivers/lvgl/src/draw/lv_draw_buf.c ****             }
 2671              		.loc 1 552 22 is_stmt 0 view .LVU758
 2672 00d8 0235     		adds	r5, r5, #2
 2673              	.LVL266:
 550:Drivers/lvgl/src/draw/lv_draw_buf.c ****                 lv_color16_premultiply(pixel, alpha[x]);
 2674              		.loc 1 550 41 is_stmt 1 discriminator 3 view .LVU759
 2675 00da 0134     		adds	r4, r4, #1
 2676              	.LVL267:
 2677              	.L211:
 550:Drivers/lvgl/src/draw/lv_draw_buf.c ****                 lv_color16_premultiply(pixel, alpha[x]);
 2678              		.loc 1 550 35 discriminator 1 view .LVU760
 2679 00dc 4445     		cmp	r4, r8
 2680 00de F7D3     		bcc	.L210
 2681              	.LBE34:
 554:Drivers/lvgl/src/draw/lv_draw_buf.c ****             alpha += alpha_stride;
 2682              		.loc 1 554 13 view .LVU761
 554:Drivers/lvgl/src/draw/lv_draw_buf.c ****             alpha += alpha_stride;
 2683              		.loc 1 554 18 is_stmt 0 view .LVU762
 2684 00e0 DA44     		add	r10, r10, fp
 2685              	.LVL268:
 555:Drivers/lvgl/src/draw/lv_draw_buf.c ****         }
 2686              		.loc 1 555 13 is_stmt 1 view .LVU763
 555:Drivers/lvgl/src/draw/lv_draw_buf.c ****         }
 2687              		.loc 1 555 19 is_stmt 0 view .LVU764
 2688 00e2 019B     		ldr	r3, [sp, #4]
 2689 00e4 1F44     		add	r7, r7, r3
 2690              	.LVL269:
 555:Drivers/lvgl/src/draw/lv_draw_buf.c ****         }
 2691              		.loc 1 555 19 view .LVU765
 2692              	.LBE33:
 548:Drivers/lvgl/src/draw/lv_draw_buf.c ****             lv_color16_t * pixel = (lv_color16_t *)line;
 2693              		.loc 1 548 37 is_stmt 1 discriminator 2 view .LVU766
 2694 00e6 09F10109 		add	r9, r9, #1
 2695              	.LVL270:
 2696              	.L209:
 548:Drivers/lvgl/src/draw/lv_draw_buf.c ****             lv_color16_t * pixel = (lv_color16_t *)line;
 2697              		.loc 1 548 31 discriminator 1 view .LVU767
 2698 00ea 009B     		ldr	r3, [sp]
 2699 00ec 9945     		cmp	r9, r3
 2700 00ee BED2     		bcs	.L192
 2701              	.LBB36:
 549:Drivers/lvgl/src/draw/lv_draw_buf.c ****             for(uint32_t x = 0; x < w; x++) {
 2702              		.loc 1 549 28 is_stmt 0 view .LVU768
 2703 00f0 5546     		mov	r5, r10
 2704              	.LBB35:
ARM GAS  /tmp/ccrMvAjz.s 			page 74


 550:Drivers/lvgl/src/draw/lv_draw_buf.c ****                 lv_color16_premultiply(pixel, alpha[x]);
 2705              		.loc 1 550 26 view .LVU769
 2706 00f2 0024     		movs	r4, #0
 2707 00f4 F2E7     		b	.L211
 2708              	.LVL271:
 2709              	.L195:
 550:Drivers/lvgl/src/draw/lv_draw_buf.c ****                 lv_color16_premultiply(pixel, alpha[x]);
 2710              		.loc 1 550 26 view .LVU770
 2711              	.LBE35:
 2712              	.LBE36:
 2713              	.LBE32:
 2714              	.LBE31:
 2715              	.LBB37:
 559:Drivers/lvgl/src/draw/lv_draw_buf.c ****         uint32_t w = draw_buf->header.w;
 2716              		.loc 1 559 9 is_stmt 1 view .LVU771
 559:Drivers/lvgl/src/draw/lv_draw_buf.c ****         uint32_t w = draw_buf->header.w;
 2717              		.loc 1 559 38 is_stmt 0 view .LVU772
 2718 00f6 B0F806A0 		ldrh	r10, [r0, #6]
 2719              	.LVL272:
 560:Drivers/lvgl/src/draw/lv_draw_buf.c ****         uint32_t stride = draw_buf->header.stride;
 2720              		.loc 1 560 9 is_stmt 1 view .LVU773
 560:Drivers/lvgl/src/draw/lv_draw_buf.c ****         uint32_t stride = draw_buf->header.stride;
 2721              		.loc 1 560 38 is_stmt 0 view .LVU774
 2722 00fa 8788     		ldrh	r7, [r0, #4]
 2723              	.LVL273:
 561:Drivers/lvgl/src/draw/lv_draw_buf.c ****         uint8_t * line = (uint8_t *)draw_buf->data;
 2724              		.loc 1 561 9 is_stmt 1 view .LVU775
 561:Drivers/lvgl/src/draw/lv_draw_buf.c ****         uint8_t * line = (uint8_t *)draw_buf->data;
 2725              		.loc 1 561 43 is_stmt 0 view .LVU776
 2726 00fc B0F808B0 		ldrh	fp, [r0, #8]
 2727              	.LVL274:
 562:Drivers/lvgl/src/draw/lv_draw_buf.c ****         for(uint32_t y = 0; y < h; y++) {
 2728              		.loc 1 562 9 is_stmt 1 view .LVU777
 562:Drivers/lvgl/src/draw/lv_draw_buf.c ****         for(uint32_t y = 0; y < h; y++) {
 2729              		.loc 1 562 19 is_stmt 0 view .LVU778
 2730 0100 D0F81090 		ldr	r9, [r0, #16]
 2731              	.LVL275:
 563:Drivers/lvgl/src/draw/lv_draw_buf.c ****             uint8_t * pixel = line;
 2732              		.loc 1 563 9 is_stmt 1 view .LVU779
 2733              	.LBB38:
 563:Drivers/lvgl/src/draw/lv_draw_buf.c ****             uint8_t * pixel = line;
 2734              		.loc 1 563 13 view .LVU780
 563:Drivers/lvgl/src/draw/lv_draw_buf.c ****             uint8_t * pixel = line;
 2735              		.loc 1 563 22 is_stmt 0 view .LVU781
 2736 0104 4FF00008 		mov	r8, #0
 563:Drivers/lvgl/src/draw/lv_draw_buf.c ****             uint8_t * pixel = line;
 2737              		.loc 1 563 9 view .LVU782
 2738 0108 0AE0     		b	.L212
 2739              	.LVL276:
 2740              	.L213:
 2741              	.LBB39:
 2742              	.LBB40:
 2743              	.LBB41:
 566:Drivers/lvgl/src/draw/lv_draw_buf.c ****                 lv_color16_premultiply((lv_color16_t *)pixel, alpha);
 2744              		.loc 1 566 17 is_stmt 1 view .LVU783
 567:Drivers/lvgl/src/draw/lv_draw_buf.c ****                 pixel += 3;
 2745              		.loc 1 567 17 view .LVU784
ARM GAS  /tmp/ccrMvAjz.s 			page 75


 2746 010a A178     		ldrb	r1, [r4, #2]	@ zero_extendqisi2
 2747 010c 2046     		mov	r0, r4
 2748 010e FFF7FEFF 		bl	lv_color16_premultiply
 2749              	.LVL277:
 568:Drivers/lvgl/src/draw/lv_draw_buf.c ****             }
 2750              		.loc 1 568 17 view .LVU785
 568:Drivers/lvgl/src/draw/lv_draw_buf.c ****             }
 2751              		.loc 1 568 23 is_stmt 0 view .LVU786
 2752 0112 0334     		adds	r4, r4, #3
 2753              	.LVL278:
 568:Drivers/lvgl/src/draw/lv_draw_buf.c ****             }
 2754              		.loc 1 568 23 view .LVU787
 2755              	.LBE41:
 565:Drivers/lvgl/src/draw/lv_draw_buf.c ****                 uint8_t alpha = pixel[2];
 2756              		.loc 1 565 41 is_stmt 1 discriminator 3 view .LVU788
 2757 0114 0135     		adds	r5, r5, #1
 2758              	.LVL279:
 2759              	.L214:
 565:Drivers/lvgl/src/draw/lv_draw_buf.c ****                 uint8_t alpha = pixel[2];
 2760              		.loc 1 565 35 discriminator 1 view .LVU789
 2761 0116 BD42     		cmp	r5, r7
 2762 0118 F7D3     		bcc	.L213
 2763              	.LBE40:
 570:Drivers/lvgl/src/draw/lv_draw_buf.c ****         }
 2764              		.loc 1 570 13 view .LVU790
 570:Drivers/lvgl/src/draw/lv_draw_buf.c ****         }
 2765              		.loc 1 570 18 is_stmt 0 view .LVU791
 2766 011a D944     		add	r9, r9, fp
 2767              	.LVL280:
 570:Drivers/lvgl/src/draw/lv_draw_buf.c ****         }
 2768              		.loc 1 570 18 view .LVU792
 2769              	.LBE39:
 563:Drivers/lvgl/src/draw/lv_draw_buf.c ****             uint8_t * pixel = line;
 2770              		.loc 1 563 37 is_stmt 1 discriminator 2 view .LVU793
 2771 011c 08F10108 		add	r8, r8, #1
 2772              	.LVL281:
 2773              	.L212:
 563:Drivers/lvgl/src/draw/lv_draw_buf.c ****             uint8_t * pixel = line;
 2774              		.loc 1 563 31 discriminator 1 view .LVU794
 2775 0120 D045     		cmp	r8, r10
 2776 0122 A4D2     		bcs	.L192
 2777              	.LBB43:
 564:Drivers/lvgl/src/draw/lv_draw_buf.c ****             for(uint32_t x = 0; x < w; x++) {
 2778              		.loc 1 564 23 is_stmt 0 view .LVU795
 2779 0124 4C46     		mov	r4, r9
 2780              	.LBB42:
 565:Drivers/lvgl/src/draw/lv_draw_buf.c ****                 uint8_t alpha = pixel[2];
 2781              		.loc 1 565 26 view .LVU796
 2782 0126 0025     		movs	r5, #0
 2783 0128 F5E7     		b	.L214
 2784              	.LVL282:
 2785              	.L215:
 565:Drivers/lvgl/src/draw/lv_draw_buf.c ****                 uint8_t alpha = pixel[2];
 2786              		.loc 1 565 26 view .LVU797
 2787              	.LBE42:
 2788              	.LBE43:
 2789              	.LBE38:
ARM GAS  /tmp/ccrMvAjz.s 			page 76


 2790              	.LBE37:
 511:Drivers/lvgl/src/draw/lv_draw_buf.c ****     if((draw_buf->header.flags & LV_IMAGE_FLAGS_MODIFIABLE) == 0) {
 2791              		.loc 1 511 70 discriminator 1 view .LVU798
 2792 012a 0020     		movs	r0, #0
 2793              	.LVL283:
 511:Drivers/lvgl/src/draw/lv_draw_buf.c ****     if((draw_buf->header.flags & LV_IMAGE_FLAGS_MODIFIABLE) == 0) {
 2794              		.loc 1 511 70 discriminator 1 view .LVU799
 2795 012c A4E7     		b	.L191
 2796              	.LVL284:
 2797              	.L216:
 514:Drivers/lvgl/src/draw/lv_draw_buf.c ****     }
 2798              		.loc 1 514 16 view .LVU800
 2799 012e 0020     		movs	r0, #0
 2800              	.LVL285:
 514:Drivers/lvgl/src/draw/lv_draw_buf.c ****     }
 2801              		.loc 1 514 16 view .LVU801
 2802 0130 A2E7     		b	.L191
 2803              		.cfi_endproc
 2804              	.LFE209:
 2806              		.section	.text.lv_draw_buf_set_palette,"ax",%progbits
 2807              		.align	1
 2808              		.global	lv_draw_buf_set_palette
 2809              		.syntax unified
 2810              		.thumb
 2811              		.thumb_func
 2813              	lv_draw_buf_set_palette:
 2814              	.LVL286:
 2815              	.LFB210:
 587:Drivers/lvgl/src/draw/lv_draw_buf.c ****     LV_ASSERT_NULL(draw_buf);
 2816              		.loc 1 587 1 is_stmt 1 view -0
 2817              		.cfi_startproc
 2818              		@ args = 0, pretend = 0, frame = 8
 2819              		@ frame_needed = 0, uses_anonymous_args = 0
 2820              		@ link register save eliminated.
 587:Drivers/lvgl/src/draw/lv_draw_buf.c ****     LV_ASSERT_NULL(draw_buf);
 2821              		.loc 1 587 1 is_stmt 0 view .LVU803
 2822 0000 82B0     		sub	sp, sp, #8
 2823              	.LCFI56:
 2824              		.cfi_def_cfa_offset 8
 2825 0002 0192     		str	r2, [sp, #4]
 588:Drivers/lvgl/src/draw/lv_draw_buf.c ****     if(draw_buf == NULL) return;
 2826              		.loc 1 588 5 is_stmt 1 view .LVU804
 588:Drivers/lvgl/src/draw/lv_draw_buf.c ****     if(draw_buf == NULL) return;
 2827              		.loc 1 588 5 view .LVU805
 2828 0004 50B1     		cbz	r0, .L226
 588:Drivers/lvgl/src/draw/lv_draw_buf.c ****     if(draw_buf == NULL) return;
 2829              		.loc 1 588 5 discriminator 2 view .LVU806
 588:Drivers/lvgl/src/draw/lv_draw_buf.c ****     if(draw_buf == NULL) return;
 2830              		.loc 1 588 29 discriminator 2 view .LVU807
 589:Drivers/lvgl/src/draw/lv_draw_buf.c **** 
 2831              		.loc 1 589 5 view .LVU808
 591:Drivers/lvgl/src/draw/lv_draw_buf.c ****         LV_LOG_WARN("Not indexed color format");
 2832              		.loc 1 591 5 view .LVU809
 591:Drivers/lvgl/src/draw/lv_draw_buf.c ****         LV_LOG_WARN("Not indexed color format");
 2833              		.loc 1 591 9 is_stmt 0 view .LVU810
 2834 0006 4378     		ldrb	r3, [r0, #1]	@ zero_extendqisi2
 591:Drivers/lvgl/src/draw/lv_draw_buf.c ****         LV_LOG_WARN("Not indexed color format");
ARM GAS  /tmp/ccrMvAjz.s 			page 77


 2835              		.loc 1 591 8 view .LVU811
 2836 0008 073B     		subs	r3, r3, #7
 2837 000a DBB2     		uxtb	r3, r3
 591:Drivers/lvgl/src/draw/lv_draw_buf.c ****         LV_LOG_WARN("Not indexed color format");
 2838              		.loc 1 591 7 view .LVU812
 2839 000c 032B     		cmp	r3, #3
 2840 000e 03D8     		bhi	.L224
 596:Drivers/lvgl/src/draw/lv_draw_buf.c ****     palette[index] = color;
 2841              		.loc 1 596 5 is_stmt 1 view .LVU813
 596:Drivers/lvgl/src/draw/lv_draw_buf.c ****     palette[index] = color;
 2842              		.loc 1 596 20 is_stmt 0 view .LVU814
 2843 0010 0369     		ldr	r3, [r0, #16]
 2844              	.LVL287:
 597:Drivers/lvgl/src/draw/lv_draw_buf.c **** }
 2845              		.loc 1 597 5 is_stmt 1 view .LVU815
 597:Drivers/lvgl/src/draw/lv_draw_buf.c **** }
 2846              		.loc 1 597 20 is_stmt 0 view .LVU816
 2847 0012 0198     		ldr	r0, [sp, #4]
 2848              	.LVL288:
 597:Drivers/lvgl/src/draw/lv_draw_buf.c **** }
 2849              		.loc 1 597 20 view .LVU817
 2850 0014 43F82100 		str	r0, [r3, r1, lsl #2]	@ unaligned
 2851              	.LVL289:
 2852              	.L224:
 598:Drivers/lvgl/src/draw/lv_draw_buf.c **** 
 2853              		.loc 1 598 1 view .LVU818
 2854 0018 02B0     		add	sp, sp, #8
 2855              	.LCFI57:
 2856              		.cfi_remember_state
 2857              		.cfi_def_cfa_offset 0
 2858              		@ sp needed
 2859 001a 7047     		bx	lr
 2860              	.LVL290:
 2861              	.L226:
 2862              	.LCFI58:
 2863              		.cfi_restore_state
 588:Drivers/lvgl/src/draw/lv_draw_buf.c ****     if(draw_buf == NULL) return;
 2864              		.loc 1 588 5 is_stmt 1 discriminator 1 view .LVU819
 588:Drivers/lvgl/src/draw/lv_draw_buf.c ****     if(draw_buf == NULL) return;
 2865              		.loc 1 588 5 discriminator 1 view .LVU820
 588:Drivers/lvgl/src/draw/lv_draw_buf.c ****     if(draw_buf == NULL) return;
 2866              		.loc 1 588 5 discriminator 1 view .LVU821
 588:Drivers/lvgl/src/draw/lv_draw_buf.c ****     if(draw_buf == NULL) return;
 2867              		.loc 1 588 5 discriminator 1 view .LVU822
 588:Drivers/lvgl/src/draw/lv_draw_buf.c ****     if(draw_buf == NULL) return;
 2868              		.loc 1 588 5 discriminator 1 view .LVU823
 2869 001c FEE7     		b	.L226
 2870              		.cfi_endproc
 2871              	.LFE210:
 2873              		.section	.text.lv_draw_buf_has_flag,"ax",%progbits
 2874              		.align	1
 2875              		.global	lv_draw_buf_has_flag
 2876              		.syntax unified
 2877              		.thumb
 2878              		.thumb_func
 2880              	lv_draw_buf_has_flag:
 2881              	.LVL291:
ARM GAS  /tmp/ccrMvAjz.s 			page 78


 2882              	.LFB211:
 601:Drivers/lvgl/src/draw/lv_draw_buf.c ****     return draw_buf->header.flags & flag;
 2883              		.loc 1 601 1 view -0
 2884              		.cfi_startproc
 2885              		@ args = 0, pretend = 0, frame = 0
 2886              		@ frame_needed = 0, uses_anonymous_args = 0
 2887              		@ link register save eliminated.
 602:Drivers/lvgl/src/draw/lv_draw_buf.c **** }
 2888              		.loc 1 602 5 view .LVU825
 602:Drivers/lvgl/src/draw/lv_draw_buf.c **** }
 2889              		.loc 1 602 28 is_stmt 0 view .LVU826
 2890 0000 4088     		ldrh	r0, [r0, #2]
 2891              	.LVL292:
 602:Drivers/lvgl/src/draw/lv_draw_buf.c **** }
 2892              		.loc 1 602 5 view .LVU827
 2893 0002 0840     		ands	r0, r0, r1
 603:Drivers/lvgl/src/draw/lv_draw_buf.c **** 
 2894              		.loc 1 603 1 view .LVU828
 2895 0004 0038     		subs	r0, r0, #0
 2896 0006 18BF     		it	ne
 2897 0008 0120     		movne	r0, #1
 2898 000a 7047     		bx	lr
 2899              		.cfi_endproc
 2900              	.LFE211:
 2902              		.section	.text.lv_draw_buf_adjust_stride,"ax",%progbits
 2903              		.align	1
 2904              		.global	lv_draw_buf_adjust_stride
 2905              		.syntax unified
 2906              		.thumb
 2907              		.thumb_func
 2909              	lv_draw_buf_adjust_stride:
 2910              	.LVL293:
 2911              	.LFB208:
 436:Drivers/lvgl/src/draw/lv_draw_buf.c ****     LV_ASSERT_NULL(src);
 2912              		.loc 1 436 1 is_stmt 1 view -0
 2913              		.cfi_startproc
 2914              		@ args = 0, pretend = 0, frame = 0
 2915              		@ frame_needed = 0, uses_anonymous_args = 0
 437:Drivers/lvgl/src/draw/lv_draw_buf.c ****     LV_ASSERT_NULL(src->data);
 2916              		.loc 1 437 5 view .LVU830
 437:Drivers/lvgl/src/draw/lv_draw_buf.c ****     LV_ASSERT_NULL(src->data);
 2917              		.loc 1 437 5 view .LVU831
 2918 0000 E8B1     		cbz	r0, .L232
 436:Drivers/lvgl/src/draw/lv_draw_buf.c ****     LV_ASSERT_NULL(src);
 2919              		.loc 1 436 1 is_stmt 0 view .LVU832
 2920 0002 2DE9F047 		push	{r4, r5, r6, r7, r8, r9, r10, lr}
 2921              	.LCFI59:
 2922              		.cfi_def_cfa_offset 32
 2923              		.cfi_offset 4, -32
 2924              		.cfi_offset 5, -28
 2925              		.cfi_offset 6, -24
 2926              		.cfi_offset 7, -20
 2927              		.cfi_offset 8, -16
 2928              		.cfi_offset 9, -12
 2929              		.cfi_offset 10, -8
 2930              		.cfi_offset 14, -4
 2931 0006 0C46     		mov	r4, r1
ARM GAS  /tmp/ccrMvAjz.s 			page 79


 2932 0008 0546     		mov	r5, r0
 437:Drivers/lvgl/src/draw/lv_draw_buf.c ****     LV_ASSERT_NULL(src->data);
 2933              		.loc 1 437 5 is_stmt 1 discriminator 2 view .LVU833
 437:Drivers/lvgl/src/draw/lv_draw_buf.c ****     LV_ASSERT_NULL(src->data);
 2934              		.loc 1 437 24 discriminator 2 view .LVU834
 438:Drivers/lvgl/src/draw/lv_draw_buf.c ****     if(src == NULL) return LV_RESULT_INVALID;
 2935              		.loc 1 438 5 view .LVU835
 438:Drivers/lvgl/src/draw/lv_draw_buf.c ****     if(src == NULL) return LV_RESULT_INVALID;
 2936              		.loc 1 438 5 view .LVU836
 2937 000a 0369     		ldr	r3, [r0, #16]
 2938 000c C3B1     		cbz	r3, .L234
 438:Drivers/lvgl/src/draw/lv_draw_buf.c ****     if(src == NULL) return LV_RESULT_INVALID;
 2939              		.loc 1 438 5 discriminator 2 view .LVU837
 438:Drivers/lvgl/src/draw/lv_draw_buf.c ****     if(src == NULL) return LV_RESULT_INVALID;
 2940              		.loc 1 438 30 discriminator 2 view .LVU838
 439:Drivers/lvgl/src/draw/lv_draw_buf.c ****     if(src->data == NULL) return LV_RESULT_INVALID;
 2941              		.loc 1 439 5 view .LVU839
 440:Drivers/lvgl/src/draw/lv_draw_buf.c ****     LV_PROFILER_DRAW_BEGIN;
 2942              		.loc 1 440 5 view .LVU840
 441:Drivers/lvgl/src/draw/lv_draw_buf.c **** 
 2943              		.loc 1 441 27 view .LVU841
 443:Drivers/lvgl/src/draw/lv_draw_buf.c ****     uint32_t w = header->w;
 2944              		.loc 1 443 5 view .LVU842
 2945              	.LVL294:
 444:Drivers/lvgl/src/draw/lv_draw_buf.c ****     uint32_t h = header->h;
 2946              		.loc 1 444 5 view .LVU843
 444:Drivers/lvgl/src/draw/lv_draw_buf.c ****     uint32_t h = header->h;
 2947              		.loc 1 444 24 is_stmt 0 view .LVU844
 2948 000e 8788     		ldrh	r7, [r0, #4]
 2949              	.LVL295:
 445:Drivers/lvgl/src/draw/lv_draw_buf.c **** 
 2950              		.loc 1 445 5 is_stmt 1 view .LVU845
 445:Drivers/lvgl/src/draw/lv_draw_buf.c **** 
 2951              		.loc 1 445 24 is_stmt 0 view .LVU846
 2952 0010 C688     		ldrh	r6, [r0, #6]
 2953              	.LVL296:
 447:Drivers/lvgl/src/draw/lv_draw_buf.c ****         LV_PROFILER_DRAW_END;
 2954              		.loc 1 447 5 is_stmt 1 view .LVU847
 447:Drivers/lvgl/src/draw/lv_draw_buf.c ****         LV_PROFILER_DRAW_END;
 2955              		.loc 1 447 9 is_stmt 0 view .LVU848
 2956 0012 2021     		movs	r1, #32
 2957              	.LVL297:
 447:Drivers/lvgl/src/draw/lv_draw_buf.c ****         LV_PROFILER_DRAW_END;
 2958              		.loc 1 447 9 view .LVU849
 2959 0014 FFF7FEFF 		bl	lv_draw_buf_has_flag
 2960              	.LVL298:
 447:Drivers/lvgl/src/draw/lv_draw_buf.c ****         LV_PROFILER_DRAW_END;
 2961              		.loc 1 447 7 discriminator 1 view .LVU850
 2962 0018 0028     		cmp	r0, #0
 2963 001a 65D0     		beq	.L249
 453:Drivers/lvgl/src/draw/lv_draw_buf.c **** 
 2964              		.loc 1 453 5 is_stmt 1 view .LVU851
 453:Drivers/lvgl/src/draw/lv_draw_buf.c **** 
 2965              		.loc 1 453 7 is_stmt 0 view .LVU852
 2966 001c 8CB1     		cbz	r4, .L256
 2967              	.LVL299:
 2968              	.L236:
ARM GAS  /tmp/ccrMvAjz.s 			page 80


 456:Drivers/lvgl/src/draw/lv_draw_buf.c ****         LV_PROFILER_DRAW_END;
 2969              		.loc 1 456 5 is_stmt 1 view .LVU853
 456:Drivers/lvgl/src/draw/lv_draw_buf.c ****         LV_PROFILER_DRAW_END;
 2970              		.loc 1 456 14 is_stmt 0 view .LVU854
 2971 001e 2B89     		ldrh	r3, [r5, #8]
 456:Drivers/lvgl/src/draw/lv_draw_buf.c ****         LV_PROFILER_DRAW_END;
 2972              		.loc 1 456 7 view .LVU855
 2973 0020 A342     		cmp	r3, r4
 2974 0022 64D0     		beq	.L250
 462:Drivers/lvgl/src/draw/lv_draw_buf.c ****     uint32_t min_stride = (w * bpp + 7) >> 3;
 2975              		.loc 1 462 5 is_stmt 1 view .LVU856
 462:Drivers/lvgl/src/draw/lv_draw_buf.c ****     uint32_t min_stride = (w * bpp + 7) >> 3;
 2976              		.loc 1 462 20 is_stmt 0 view .LVU857
 2977 0024 6878     		ldrb	r0, [r5, #1]	@ zero_extendqisi2
 2978 0026 FFF7FEFF 		bl	lv_color_format_get_bpp
 2979              	.LVL300:
 463:Drivers/lvgl/src/draw/lv_draw_buf.c ****     if(stride < min_stride) {
 2980              		.loc 1 463 5 is_stmt 1 view .LVU858
 463:Drivers/lvgl/src/draw/lv_draw_buf.c ****     if(stride < min_stride) {
 2981              		.loc 1 463 30 is_stmt 0 view .LVU859
 2982 002a 00FB07F3 		mul	r3, r0, r7
 463:Drivers/lvgl/src/draw/lv_draw_buf.c ****     if(stride < min_stride) {
 2983              		.loc 1 463 36 view .LVU860
 2984 002e 0733     		adds	r3, r3, #7
 463:Drivers/lvgl/src/draw/lv_draw_buf.c ****     if(stride < min_stride) {
 2985              		.loc 1 463 14 view .LVU861
 2986 0030 4FEAD308 		lsr	r8, r3, #3
 2987              	.LVL301:
 464:Drivers/lvgl/src/draw/lv_draw_buf.c ****         LV_LOG_WARN("New stride is too small. min: %" LV_PRId32, min_stride);
 2988              		.loc 1 464 5 is_stmt 1 view .LVU862
 464:Drivers/lvgl/src/draw/lv_draw_buf.c ****         LV_LOG_WARN("New stride is too small. min: %" LV_PRId32, min_stride);
 2989              		.loc 1 464 7 is_stmt 0 view .LVU863
 2990 0034 B4EBD30F 		cmp	r4, r3, lsr #3
 2991 0038 09D2     		bcs	.L257
 467:Drivers/lvgl/src/draw/lv_draw_buf.c ****     }
 2992              		.loc 1 467 16 view .LVU864
 2993 003a 0020     		movs	r0, #0
 2994              	.LVL302:
 467:Drivers/lvgl/src/draw/lv_draw_buf.c ****     }
 2995              		.loc 1 467 16 view .LVU865
 2996 003c 55E0     		b	.L235
 2997              	.LVL303:
 2998              	.L232:
 2999              	.LCFI60:
 3000              		.cfi_def_cfa_offset 0
 3001              		.cfi_restore 4
 3002              		.cfi_restore 5
 3003              		.cfi_restore 6
 3004              		.cfi_restore 7
 3005              		.cfi_restore 8
 3006              		.cfi_restore 9
 3007              		.cfi_restore 10
