ARM GAS  /tmp/ccA8hacO.s 			page 1


   1              		.cpu cortex-m7
   2              		.arch armv7e-m
   3              		.fpu fpv5-sp-d16
   4              		.eabi_attribute 27, 1
   5              		.eabi_attribute 28, 1
   6              		.eabi_attribute 20, 1
   7              		.eabi_attribute 21, 1
   8              		.eabi_attribute 23, 3
   9              		.eabi_attribute 24, 1
  10              		.eabi_attribute 25, 1
  11              		.eabi_attribute 26, 1
  12              		.eabi_attribute 30, 1
  13              		.eabi_attribute 34, 1
  14              		.eabi_attribute 18, 4
  15              		.file	"lv_draw_sw_utils.c"
  16              		.text
  17              	.Ltext0:
  18              		.cfi_sections	.debug_frame
  19              		.file 1 "Drivers/lvgl/src/draw/sw/lv_draw_sw_utils.c"
  20              		.section	.text.rotate270_argb8888,"ax",%progbits
  21              		.align	1
  22              		.syntax unified
  23              		.thumb
  24              		.thumb_func
  26              	rotate270_argb8888:
  27              	.LVL0:
  28              	.LFB16:
   1:Drivers/lvgl/src/draw/sw/lv_draw_sw_utils.c **** /**
   2:Drivers/lvgl/src/draw/sw/lv_draw_sw_utils.c ****  * @file lv_draw_sw_utils.c
   3:Drivers/lvgl/src/draw/sw/lv_draw_sw_utils.c ****  *
   4:Drivers/lvgl/src/draw/sw/lv_draw_sw_utils.c ****  */
   5:Drivers/lvgl/src/draw/sw/lv_draw_sw_utils.c **** 
   6:Drivers/lvgl/src/draw/sw/lv_draw_sw_utils.c **** /*********************
   7:Drivers/lvgl/src/draw/sw/lv_draw_sw_utils.c ****  *      INCLUDES
   8:Drivers/lvgl/src/draw/sw/lv_draw_sw_utils.c ****  *********************/
   9:Drivers/lvgl/src/draw/sw/lv_draw_sw_utils.c **** #include "lv_draw_sw_utils.h"
  10:Drivers/lvgl/src/draw/sw/lv_draw_sw_utils.c **** #if LV_USE_DRAW_SW
  11:Drivers/lvgl/src/draw/sw/lv_draw_sw_utils.c **** 
  12:Drivers/lvgl/src/draw/sw/lv_draw_sw_utils.c **** /*********************
  13:Drivers/lvgl/src/draw/sw/lv_draw_sw_utils.c ****  *      DEFINES
  14:Drivers/lvgl/src/draw/sw/lv_draw_sw_utils.c ****  *********************/
  15:Drivers/lvgl/src/draw/sw/lv_draw_sw_utils.c **** #ifndef LV_DRAW_SW_RGB565_SWAP
  16:Drivers/lvgl/src/draw/sw/lv_draw_sw_utils.c ****     #define LV_DRAW_SW_RGB565_SWAP(...) LV_RESULT_INVALID
  17:Drivers/lvgl/src/draw/sw/lv_draw_sw_utils.c **** #endif
  18:Drivers/lvgl/src/draw/sw/lv_draw_sw_utils.c **** 
  19:Drivers/lvgl/src/draw/sw/lv_draw_sw_utils.c **** #ifndef LV_DRAW_SW_ROTATE90_ARGB8888
  20:Drivers/lvgl/src/draw/sw/lv_draw_sw_utils.c ****     #define LV_DRAW_SW_ROTATE90_ARGB8888(...) LV_RESULT_INVALID
  21:Drivers/lvgl/src/draw/sw/lv_draw_sw_utils.c **** #endif
  22:Drivers/lvgl/src/draw/sw/lv_draw_sw_utils.c **** 
  23:Drivers/lvgl/src/draw/sw/lv_draw_sw_utils.c **** #ifndef LV_DRAW_SW_ROTATE180_ARGB8888
  24:Drivers/lvgl/src/draw/sw/lv_draw_sw_utils.c ****     #define LV_DRAW_SW_ROTATE180_ARGB8888(...) LV_RESULT_INVALID
  25:Drivers/lvgl/src/draw/sw/lv_draw_sw_utils.c **** #endif
  26:Drivers/lvgl/src/draw/sw/lv_draw_sw_utils.c **** 
  27:Drivers/lvgl/src/draw/sw/lv_draw_sw_utils.c **** #ifndef LV_DRAW_SW_ROTATE270_ARGB8888
  28:Drivers/lvgl/src/draw/sw/lv_draw_sw_utils.c ****     #define LV_DRAW_SW_ROTATE270_ARGB8888(...) LV_RESULT_INVALID
  29:Drivers/lvgl/src/draw/sw/lv_draw_sw_utils.c **** #endif
  30:Drivers/lvgl/src/draw/sw/lv_draw_sw_utils.c **** 
ARM GAS  /tmp/ccA8hacO.s 			page 2


  31:Drivers/lvgl/src/draw/sw/lv_draw_sw_utils.c **** #ifndef LV_DRAW_SW_ROTATE90_RGB888
  32:Drivers/lvgl/src/draw/sw/lv_draw_sw_utils.c ****     #define LV_DRAW_SW_ROTATE90_RGB888(...) LV_RESULT_INVALID
  33:Drivers/lvgl/src/draw/sw/lv_draw_sw_utils.c **** #endif
  34:Drivers/lvgl/src/draw/sw/lv_draw_sw_utils.c **** 
  35:Drivers/lvgl/src/draw/sw/lv_draw_sw_utils.c **** #ifndef LV_DRAW_SW_ROTATE180_RGB888
  36:Drivers/lvgl/src/draw/sw/lv_draw_sw_utils.c ****     #define LV_DRAW_SW_ROTATE180_RGB888(...) LV_RESULT_INVALID
  37:Drivers/lvgl/src/draw/sw/lv_draw_sw_utils.c **** #endif
  38:Drivers/lvgl/src/draw/sw/lv_draw_sw_utils.c **** 
  39:Drivers/lvgl/src/draw/sw/lv_draw_sw_utils.c **** #ifndef LV_DRAW_SW_ROTATE270_RGB888
  40:Drivers/lvgl/src/draw/sw/lv_draw_sw_utils.c ****     #define LV_DRAW_SW_ROTATE270_RGB888(...) LV_RESULT_INVALID
  41:Drivers/lvgl/src/draw/sw/lv_draw_sw_utils.c **** #endif
  42:Drivers/lvgl/src/draw/sw/lv_draw_sw_utils.c **** 
  43:Drivers/lvgl/src/draw/sw/lv_draw_sw_utils.c **** #ifndef LV_DRAW_SW_ROTATE90_RGB565
  44:Drivers/lvgl/src/draw/sw/lv_draw_sw_utils.c ****     #define LV_DRAW_SW_ROTATE90_RGB565(...) LV_RESULT_INVALID
  45:Drivers/lvgl/src/draw/sw/lv_draw_sw_utils.c **** #endif
  46:Drivers/lvgl/src/draw/sw/lv_draw_sw_utils.c **** 
  47:Drivers/lvgl/src/draw/sw/lv_draw_sw_utils.c **** #ifndef LV_DRAW_SW_ROTATE180_RGB565
  48:Drivers/lvgl/src/draw/sw/lv_draw_sw_utils.c ****     #define LV_DRAW_SW_ROTATE180_RGB565(...) LV_RESULT_INVALID
  49:Drivers/lvgl/src/draw/sw/lv_draw_sw_utils.c **** #endif
  50:Drivers/lvgl/src/draw/sw/lv_draw_sw_utils.c **** 
  51:Drivers/lvgl/src/draw/sw/lv_draw_sw_utils.c **** #ifndef LV_DRAW_SW_ROTATE270_RGB565
  52:Drivers/lvgl/src/draw/sw/lv_draw_sw_utils.c ****     #define LV_DRAW_SW_ROTATE270_RGB565(...) LV_RESULT_INVALID
  53:Drivers/lvgl/src/draw/sw/lv_draw_sw_utils.c **** #endif
  54:Drivers/lvgl/src/draw/sw/lv_draw_sw_utils.c **** 
  55:Drivers/lvgl/src/draw/sw/lv_draw_sw_utils.c **** #ifndef LV_DRAW_SW_ROTATE90_L8
  56:Drivers/lvgl/src/draw/sw/lv_draw_sw_utils.c ****     #define LV_DRAW_SW_ROTATE90_L8(...) LV_RESULT_INVALID
  57:Drivers/lvgl/src/draw/sw/lv_draw_sw_utils.c **** #endif
  58:Drivers/lvgl/src/draw/sw/lv_draw_sw_utils.c **** 
  59:Drivers/lvgl/src/draw/sw/lv_draw_sw_utils.c **** #ifndef LV_DRAW_SW_ROTATE180_L8
  60:Drivers/lvgl/src/draw/sw/lv_draw_sw_utils.c ****     #define LV_DRAW_SW_ROTATE180_L8(...) LV_RESULT_INVALID
  61:Drivers/lvgl/src/draw/sw/lv_draw_sw_utils.c **** #endif
  62:Drivers/lvgl/src/draw/sw/lv_draw_sw_utils.c **** 
  63:Drivers/lvgl/src/draw/sw/lv_draw_sw_utils.c **** #ifndef LV_DRAW_SW_ROTATE270_L8
  64:Drivers/lvgl/src/draw/sw/lv_draw_sw_utils.c ****     #define LV_DRAW_SW_ROTATE270_L8(...) LV_RESULT_INVALID
  65:Drivers/lvgl/src/draw/sw/lv_draw_sw_utils.c **** #endif
  66:Drivers/lvgl/src/draw/sw/lv_draw_sw_utils.c **** 
  67:Drivers/lvgl/src/draw/sw/lv_draw_sw_utils.c **** /**********************
  68:Drivers/lvgl/src/draw/sw/lv_draw_sw_utils.c ****  *      TYPEDEFS
  69:Drivers/lvgl/src/draw/sw/lv_draw_sw_utils.c ****  **********************/
  70:Drivers/lvgl/src/draw/sw/lv_draw_sw_utils.c **** 
  71:Drivers/lvgl/src/draw/sw/lv_draw_sw_utils.c **** /**********************
  72:Drivers/lvgl/src/draw/sw/lv_draw_sw_utils.c ****  *  STATIC PROTOTYPES
  73:Drivers/lvgl/src/draw/sw/lv_draw_sw_utils.c ****  **********************/
  74:Drivers/lvgl/src/draw/sw/lv_draw_sw_utils.c **** 
  75:Drivers/lvgl/src/draw/sw/lv_draw_sw_utils.c **** #if LV_DRAW_SW_SUPPORT_ARGB8888 || LV_DRAW_SW_SUPPORT_XRGB8888
  76:Drivers/lvgl/src/draw/sw/lv_draw_sw_utils.c **** static void rotate90_argb8888(const uint32_t * src, uint32_t * dst, int32_t src_width, int32_t src_
  77:Drivers/lvgl/src/draw/sw/lv_draw_sw_utils.c ****                               int32_t src_stride,
  78:Drivers/lvgl/src/draw/sw/lv_draw_sw_utils.c ****                               int32_t dst_stride);
  79:Drivers/lvgl/src/draw/sw/lv_draw_sw_utils.c **** static void rotate180_argb8888(const uint32_t * src, uint32_t * dst, int32_t width, int32_t height,
  80:Drivers/lvgl/src/draw/sw/lv_draw_sw_utils.c ****                                int32_t dest_stride);
  81:Drivers/lvgl/src/draw/sw/lv_draw_sw_utils.c **** static void rotate270_argb8888(const uint32_t * src, uint32_t * dst, int32_t src_width, int32_t src
  82:Drivers/lvgl/src/draw/sw/lv_draw_sw_utils.c ****                                int32_t src_stride,
  83:Drivers/lvgl/src/draw/sw/lv_draw_sw_utils.c ****                                int32_t dst_stride);
  84:Drivers/lvgl/src/draw/sw/lv_draw_sw_utils.c **** #endif
  85:Drivers/lvgl/src/draw/sw/lv_draw_sw_utils.c **** #if LV_DRAW_SW_SUPPORT_RGB888
  86:Drivers/lvgl/src/draw/sw/lv_draw_sw_utils.c **** static void rotate90_rgb888(const uint8_t * src, uint8_t * dst, int32_t src_width, int32_t src_heig
  87:Drivers/lvgl/src/draw/sw/lv_draw_sw_utils.c ****                             int32_t src_stride,
ARM GAS  /tmp/ccA8hacO.s 			page 3


  88:Drivers/lvgl/src/draw/sw/lv_draw_sw_utils.c ****                             int32_t dst_stride);
  89:Drivers/lvgl/src/draw/sw/lv_draw_sw_utils.c **** static void rotate180_rgb888(const uint8_t * src, uint8_t * dst, int32_t width, int32_t height, int
  90:Drivers/lvgl/src/draw/sw/lv_draw_sw_utils.c ****                              int32_t dest_stride);
  91:Drivers/lvgl/src/draw/sw/lv_draw_sw_utils.c **** static void rotate270_rgb888(const uint8_t * src, uint8_t * dst, int32_t width, int32_t height, int
  92:Drivers/lvgl/src/draw/sw/lv_draw_sw_utils.c ****                              int32_t dst_stride);
  93:Drivers/lvgl/src/draw/sw/lv_draw_sw_utils.c **** #endif
  94:Drivers/lvgl/src/draw/sw/lv_draw_sw_utils.c **** #if LV_DRAW_SW_SUPPORT_RGB565
  95:Drivers/lvgl/src/draw/sw/lv_draw_sw_utils.c **** static void rotate90_rgb565(const uint16_t * src, uint16_t * dst, int32_t src_width, int32_t src_he
  96:Drivers/lvgl/src/draw/sw/lv_draw_sw_utils.c ****                             int32_t src_stride,
  97:Drivers/lvgl/src/draw/sw/lv_draw_sw_utils.c ****                             int32_t dst_stride);
  98:Drivers/lvgl/src/draw/sw/lv_draw_sw_utils.c **** static void rotate180_rgb565(const uint16_t * src, uint16_t * dst, int32_t width, int32_t height, i
  99:Drivers/lvgl/src/draw/sw/lv_draw_sw_utils.c ****                              int32_t dest_stride);
 100:Drivers/lvgl/src/draw/sw/lv_draw_sw_utils.c **** static void rotate270_rgb565(const uint16_t * src, uint16_t * dst, int32_t src_width, int32_t src_h
 101:Drivers/lvgl/src/draw/sw/lv_draw_sw_utils.c ****                              int32_t src_stride,
 102:Drivers/lvgl/src/draw/sw/lv_draw_sw_utils.c ****                              int32_t dst_stride);
 103:Drivers/lvgl/src/draw/sw/lv_draw_sw_utils.c **** #endif
 104:Drivers/lvgl/src/draw/sw/lv_draw_sw_utils.c **** 
 105:Drivers/lvgl/src/draw/sw/lv_draw_sw_utils.c **** #if LV_DRAW_SW_SUPPORT_L8
 106:Drivers/lvgl/src/draw/sw/lv_draw_sw_utils.c **** 
 107:Drivers/lvgl/src/draw/sw/lv_draw_sw_utils.c **** static void rotate90_l8(const uint8_t * src, uint8_t * dst, int32_t src_width, int32_t src_height,
 108:Drivers/lvgl/src/draw/sw/lv_draw_sw_utils.c ****                         int32_t src_stride,
 109:Drivers/lvgl/src/draw/sw/lv_draw_sw_utils.c ****                         int32_t dst_stride);
 110:Drivers/lvgl/src/draw/sw/lv_draw_sw_utils.c **** static void rotate180_l8(const uint8_t * src, uint8_t * dst, int32_t width, int32_t height, int32_t
 111:Drivers/lvgl/src/draw/sw/lv_draw_sw_utils.c ****                          int32_t dest_stride);
 112:Drivers/lvgl/src/draw/sw/lv_draw_sw_utils.c **** static void rotate270_l8(const uint8_t * src, uint8_t * dst, int32_t src_width, int32_t src_height,
 113:Drivers/lvgl/src/draw/sw/lv_draw_sw_utils.c ****                          int32_t src_stride,
 114:Drivers/lvgl/src/draw/sw/lv_draw_sw_utils.c ****                          int32_t dst_stride);
 115:Drivers/lvgl/src/draw/sw/lv_draw_sw_utils.c **** #endif
 116:Drivers/lvgl/src/draw/sw/lv_draw_sw_utils.c **** 
 117:Drivers/lvgl/src/draw/sw/lv_draw_sw_utils.c **** /**********************
 118:Drivers/lvgl/src/draw/sw/lv_draw_sw_utils.c ****  *  STATIC VARIABLES
 119:Drivers/lvgl/src/draw/sw/lv_draw_sw_utils.c ****  **********************/
 120:Drivers/lvgl/src/draw/sw/lv_draw_sw_utils.c **** 
 121:Drivers/lvgl/src/draw/sw/lv_draw_sw_utils.c **** /**********************
 122:Drivers/lvgl/src/draw/sw/lv_draw_sw_utils.c ****  *      MACROS
 123:Drivers/lvgl/src/draw/sw/lv_draw_sw_utils.c ****  **********************/
 124:Drivers/lvgl/src/draw/sw/lv_draw_sw_utils.c **** 
 125:Drivers/lvgl/src/draw/sw/lv_draw_sw_utils.c **** /**********************
 126:Drivers/lvgl/src/draw/sw/lv_draw_sw_utils.c ****  *   GLOBAL FUNCTIONS
 127:Drivers/lvgl/src/draw/sw/lv_draw_sw_utils.c ****  **********************/
 128:Drivers/lvgl/src/draw/sw/lv_draw_sw_utils.c **** 
 129:Drivers/lvgl/src/draw/sw/lv_draw_sw_utils.c **** void lv_draw_sw_i1_to_argb8888(const void * buf_i1, void * buf_argb8888, uint32_t width, uint32_t h
 130:Drivers/lvgl/src/draw/sw/lv_draw_sw_utils.c ****                                uint32_t buf_i1_stride, uint32_t buf_argb8888_stride, uint32_t index
 131:Drivers/lvgl/src/draw/sw/lv_draw_sw_utils.c **** {
 132:Drivers/lvgl/src/draw/sw/lv_draw_sw_utils.c ****     /*Extract the bits of I1 px_map and convert them to ARGB8888*/
 133:Drivers/lvgl/src/draw/sw/lv_draw_sw_utils.c ****     const uint8_t * src = buf_i1;
 134:Drivers/lvgl/src/draw/sw/lv_draw_sw_utils.c ****     uint32_t * dst = buf_argb8888;
 135:Drivers/lvgl/src/draw/sw/lv_draw_sw_utils.c ****     uint32_t i1_row_byte_count = width / 8;
 136:Drivers/lvgl/src/draw/sw/lv_draw_sw_utils.c ****     for(uint32_t row = 0; row < height; row++) {
 137:Drivers/lvgl/src/draw/sw/lv_draw_sw_utils.c ****         uint32_t * dst_p = dst;
 138:Drivers/lvgl/src/draw/sw/lv_draw_sw_utils.c ****         for(uint32_t i = 0; i < i1_row_byte_count; i++) {
 139:Drivers/lvgl/src/draw/sw/lv_draw_sw_utils.c ****             /*From MSB to LSB (pixel 0 to pixel 7 in a byte)*/
 140:Drivers/lvgl/src/draw/sw/lv_draw_sw_utils.c ****             for(int32_t bit = 7; bit >= 0; bit--) {
 141:Drivers/lvgl/src/draw/sw/lv_draw_sw_utils.c ****                 *dst_p++ = ((src[i] >> bit) & 1) ? index1_color : index0_color;
 142:Drivers/lvgl/src/draw/sw/lv_draw_sw_utils.c ****             }
 143:Drivers/lvgl/src/draw/sw/lv_draw_sw_utils.c ****         }
 144:Drivers/lvgl/src/draw/sw/lv_draw_sw_utils.c ****         src += buf_i1_stride;
ARM GAS  /tmp/ccA8hacO.s 			page 4


 145:Drivers/lvgl/src/draw/sw/lv_draw_sw_utils.c ****         dst += buf_argb8888_stride / 4;
 146:Drivers/lvgl/src/draw/sw/lv_draw_sw_utils.c ****     }
 147:Drivers/lvgl/src/draw/sw/lv_draw_sw_utils.c **** }
 148:Drivers/lvgl/src/draw/sw/lv_draw_sw_utils.c **** 
 149:Drivers/lvgl/src/draw/sw/lv_draw_sw_utils.c **** void lv_draw_sw_rgb565_swap(void * buf, uint32_t buf_size_px)
 150:Drivers/lvgl/src/draw/sw/lv_draw_sw_utils.c **** {
 151:Drivers/lvgl/src/draw/sw/lv_draw_sw_utils.c ****     if(LV_DRAW_SW_RGB565_SWAP(buf, buf_size_px) == LV_RESULT_OK) return;
 152:Drivers/lvgl/src/draw/sw/lv_draw_sw_utils.c **** 
 153:Drivers/lvgl/src/draw/sw/lv_draw_sw_utils.c ****     uint32_t u32_cnt = buf_size_px / 2;
 154:Drivers/lvgl/src/draw/sw/lv_draw_sw_utils.c ****     uint16_t * buf16 = buf;
 155:Drivers/lvgl/src/draw/sw/lv_draw_sw_utils.c ****     uint32_t * buf32 = buf;
 156:Drivers/lvgl/src/draw/sw/lv_draw_sw_utils.c **** 
 157:Drivers/lvgl/src/draw/sw/lv_draw_sw_utils.c ****     while(u32_cnt >= 8) {
 158:Drivers/lvgl/src/draw/sw/lv_draw_sw_utils.c ****         buf32[0] = ((buf32[0] & 0xff00ff00) >> 8) | ((buf32[0] & 0x00ff00ff) << 8);
 159:Drivers/lvgl/src/draw/sw/lv_draw_sw_utils.c ****         buf32[1] = ((buf32[1] & 0xff00ff00) >> 8) | ((buf32[1] & 0x00ff00ff) << 8);
 160:Drivers/lvgl/src/draw/sw/lv_draw_sw_utils.c ****         buf32[2] = ((buf32[2] & 0xff00ff00) >> 8) | ((buf32[2] & 0x00ff00ff) << 8);
 161:Drivers/lvgl/src/draw/sw/lv_draw_sw_utils.c ****         buf32[3] = ((buf32[3] & 0xff00ff00) >> 8) | ((buf32[3] & 0x00ff00ff) << 8);
 162:Drivers/lvgl/src/draw/sw/lv_draw_sw_utils.c ****         buf32[4] = ((buf32[4] & 0xff00ff00) >> 8) | ((buf32[4] & 0x00ff00ff) << 8);
 163:Drivers/lvgl/src/draw/sw/lv_draw_sw_utils.c ****         buf32[5] = ((buf32[5] & 0xff00ff00) >> 8) | ((buf32[5] & 0x00ff00ff) << 8);
 164:Drivers/lvgl/src/draw/sw/lv_draw_sw_utils.c ****         buf32[6] = ((buf32[6] & 0xff00ff00) >> 8) | ((buf32[6] & 0x00ff00ff) << 8);
 165:Drivers/lvgl/src/draw/sw/lv_draw_sw_utils.c ****         buf32[7] = ((buf32[7] & 0xff00ff00) >> 8) | ((buf32[7] & 0x00ff00ff) << 8);
 166:Drivers/lvgl/src/draw/sw/lv_draw_sw_utils.c ****         buf32 += 8;
 167:Drivers/lvgl/src/draw/sw/lv_draw_sw_utils.c ****         u32_cnt -= 8;
 168:Drivers/lvgl/src/draw/sw/lv_draw_sw_utils.c ****     }
 169:Drivers/lvgl/src/draw/sw/lv_draw_sw_utils.c **** 
 170:Drivers/lvgl/src/draw/sw/lv_draw_sw_utils.c ****     while(u32_cnt) {
 171:Drivers/lvgl/src/draw/sw/lv_draw_sw_utils.c ****         *buf32 = ((*buf32 & 0xff00ff00) >> 8) | ((*buf32 & 0x00ff00ff) << 8);
 172:Drivers/lvgl/src/draw/sw/lv_draw_sw_utils.c ****         buf32++;
 173:Drivers/lvgl/src/draw/sw/lv_draw_sw_utils.c ****         u32_cnt--;
 174:Drivers/lvgl/src/draw/sw/lv_draw_sw_utils.c ****     }
 175:Drivers/lvgl/src/draw/sw/lv_draw_sw_utils.c **** 
 176:Drivers/lvgl/src/draw/sw/lv_draw_sw_utils.c ****     if(buf_size_px & 0x1) {
 177:Drivers/lvgl/src/draw/sw/lv_draw_sw_utils.c ****         uint32_t e = buf_size_px - 1;
 178:Drivers/lvgl/src/draw/sw/lv_draw_sw_utils.c ****         buf16[e] = ((buf16[e] & 0xff00) >> 8) | ((buf16[e] & 0x00ff) << 8);
 179:Drivers/lvgl/src/draw/sw/lv_draw_sw_utils.c ****     }
 180:Drivers/lvgl/src/draw/sw/lv_draw_sw_utils.c **** 
 181:Drivers/lvgl/src/draw/sw/lv_draw_sw_utils.c **** }
 182:Drivers/lvgl/src/draw/sw/lv_draw_sw_utils.c **** 
 183:Drivers/lvgl/src/draw/sw/lv_draw_sw_utils.c **** void lv_draw_sw_i1_invert(void * buf, uint32_t buf_size)
 184:Drivers/lvgl/src/draw/sw/lv_draw_sw_utils.c **** {
 185:Drivers/lvgl/src/draw/sw/lv_draw_sw_utils.c ****     if(buf == NULL) return;
 186:Drivers/lvgl/src/draw/sw/lv_draw_sw_utils.c **** 
 187:Drivers/lvgl/src/draw/sw/lv_draw_sw_utils.c ****     uint8_t * byte_buf = (uint8_t *)buf;
 188:Drivers/lvgl/src/draw/sw/lv_draw_sw_utils.c ****     uint32_t i;
 189:Drivers/lvgl/src/draw/sw/lv_draw_sw_utils.c **** 
 190:Drivers/lvgl/src/draw/sw/lv_draw_sw_utils.c ****     /*Make the buffer aligned*/
 191:Drivers/lvgl/src/draw/sw/lv_draw_sw_utils.c ****     while(((uintptr_t)(byte_buf) & (sizeof(int) - 1)) && buf_size > 0) {
 192:Drivers/lvgl/src/draw/sw/lv_draw_sw_utils.c ****         *byte_buf = ~(*byte_buf);
 193:Drivers/lvgl/src/draw/sw/lv_draw_sw_utils.c ****         byte_buf++;
 194:Drivers/lvgl/src/draw/sw/lv_draw_sw_utils.c ****         buf_size--;
 195:Drivers/lvgl/src/draw/sw/lv_draw_sw_utils.c ****     }
 196:Drivers/lvgl/src/draw/sw/lv_draw_sw_utils.c **** 
 197:Drivers/lvgl/src/draw/sw/lv_draw_sw_utils.c ****     if(buf_size >= sizeof(uint32_t)) {
 198:Drivers/lvgl/src/draw/sw/lv_draw_sw_utils.c ****         uint32_t * aligned_addr = (uint32_t *)byte_buf;
 199:Drivers/lvgl/src/draw/sw/lv_draw_sw_utils.c ****         uint32_t word_count = buf_size / 4;
 200:Drivers/lvgl/src/draw/sw/lv_draw_sw_utils.c **** 
 201:Drivers/lvgl/src/draw/sw/lv_draw_sw_utils.c ****         for(i = 0; i < word_count; ++i) {
ARM GAS  /tmp/ccA8hacO.s 			page 5


 202:Drivers/lvgl/src/draw/sw/lv_draw_sw_utils.c ****             aligned_addr[i] = ~aligned_addr[i];
 203:Drivers/lvgl/src/draw/sw/lv_draw_sw_utils.c ****         }
 204:Drivers/lvgl/src/draw/sw/lv_draw_sw_utils.c **** 
 205:Drivers/lvgl/src/draw/sw/lv_draw_sw_utils.c ****         byte_buf = (uint8_t *)(aligned_addr + word_count);
 206:Drivers/lvgl/src/draw/sw/lv_draw_sw_utils.c ****         buf_size = buf_size % sizeof(uint32_t);
 207:Drivers/lvgl/src/draw/sw/lv_draw_sw_utils.c ****     }
 208:Drivers/lvgl/src/draw/sw/lv_draw_sw_utils.c **** 
 209:Drivers/lvgl/src/draw/sw/lv_draw_sw_utils.c ****     for(i = 0; i < buf_size; ++i) {
 210:Drivers/lvgl/src/draw/sw/lv_draw_sw_utils.c ****         byte_buf[i] = ~byte_buf[i];
 211:Drivers/lvgl/src/draw/sw/lv_draw_sw_utils.c ****     }
 212:Drivers/lvgl/src/draw/sw/lv_draw_sw_utils.c **** }
 213:Drivers/lvgl/src/draw/sw/lv_draw_sw_utils.c **** 
 214:Drivers/lvgl/src/draw/sw/lv_draw_sw_utils.c **** void lv_draw_sw_i1_convert_to_vtiled(const void * buf, uint32_t buf_size, uint32_t width, uint32_t 
 215:Drivers/lvgl/src/draw/sw/lv_draw_sw_utils.c ****                                      void * out_buf,
 216:Drivers/lvgl/src/draw/sw/lv_draw_sw_utils.c ****                                      uint32_t out_buf_size, bool bit_order_lsb)
 217:Drivers/lvgl/src/draw/sw/lv_draw_sw_utils.c **** {
 218:Drivers/lvgl/src/draw/sw/lv_draw_sw_utils.c ****     LV_ASSERT(buf && out_buf);
 219:Drivers/lvgl/src/draw/sw/lv_draw_sw_utils.c ****     LV_ASSERT(width % 8 == 0 && height % 8 == 0);
 220:Drivers/lvgl/src/draw/sw/lv_draw_sw_utils.c ****     LV_ASSERT(buf_size >= (width / 8) * height);
 221:Drivers/lvgl/src/draw/sw/lv_draw_sw_utils.c ****     LV_ASSERT(out_buf_size >= buf_size);
 222:Drivers/lvgl/src/draw/sw/lv_draw_sw_utils.c **** 
 223:Drivers/lvgl/src/draw/sw/lv_draw_sw_utils.c ****     lv_memset(out_buf, 0, out_buf_size);
 224:Drivers/lvgl/src/draw/sw/lv_draw_sw_utils.c **** 
 225:Drivers/lvgl/src/draw/sw/lv_draw_sw_utils.c ****     const uint8_t * src_buf = (uint8_t *)buf;
 226:Drivers/lvgl/src/draw/sw/lv_draw_sw_utils.c ****     uint8_t * dst_buf = (uint8_t *)out_buf;
 227:Drivers/lvgl/src/draw/sw/lv_draw_sw_utils.c **** 
 228:Drivers/lvgl/src/draw/sw/lv_draw_sw_utils.c ****     for(uint32_t y = 0; y < height; y++) {
 229:Drivers/lvgl/src/draw/sw/lv_draw_sw_utils.c ****         for(uint32_t x = 0; x < width; x++) {
 230:Drivers/lvgl/src/draw/sw/lv_draw_sw_utils.c ****             uint32_t src_index = y * width + x;
 231:Drivers/lvgl/src/draw/sw/lv_draw_sw_utils.c ****             uint32_t dst_index = x * height + y;
 232:Drivers/lvgl/src/draw/sw/lv_draw_sw_utils.c ****             uint8_t bit = (src_buf[src_index / 8] >> (7 - (src_index % 8))) & 0x01;
 233:Drivers/lvgl/src/draw/sw/lv_draw_sw_utils.c ****             if(bit_order_lsb) {
 234:Drivers/lvgl/src/draw/sw/lv_draw_sw_utils.c ****                 dst_buf[dst_index / 8] |= (bit << (dst_index % 8));
 235:Drivers/lvgl/src/draw/sw/lv_draw_sw_utils.c ****             }
 236:Drivers/lvgl/src/draw/sw/lv_draw_sw_utils.c ****             else {
 237:Drivers/lvgl/src/draw/sw/lv_draw_sw_utils.c ****                 dst_buf[dst_index / 8] |= (bit << (7 - (dst_index % 8)));
 238:Drivers/lvgl/src/draw/sw/lv_draw_sw_utils.c ****             }
 239:Drivers/lvgl/src/draw/sw/lv_draw_sw_utils.c ****         }
 240:Drivers/lvgl/src/draw/sw/lv_draw_sw_utils.c ****     }
 241:Drivers/lvgl/src/draw/sw/lv_draw_sw_utils.c **** }
 242:Drivers/lvgl/src/draw/sw/lv_draw_sw_utils.c **** 
 243:Drivers/lvgl/src/draw/sw/lv_draw_sw_utils.c **** void lv_draw_sw_rotate(const void * src, void * dest, int32_t src_width, int32_t src_height, int32_
 244:Drivers/lvgl/src/draw/sw/lv_draw_sw_utils.c ****                        int32_t dest_stride, lv_display_rotation_t rotation, lv_color_format_t color
 245:Drivers/lvgl/src/draw/sw/lv_draw_sw_utils.c **** {
 246:Drivers/lvgl/src/draw/sw/lv_draw_sw_utils.c ****     if(rotation == LV_DISPLAY_ROTATION_90) {
 247:Drivers/lvgl/src/draw/sw/lv_draw_sw_utils.c ****         switch(color_format) {
 248:Drivers/lvgl/src/draw/sw/lv_draw_sw_utils.c **** #if LV_DRAW_SW_SUPPORT_L8
 249:Drivers/lvgl/src/draw/sw/lv_draw_sw_utils.c ****             case LV_COLOR_FORMAT_L8:
 250:Drivers/lvgl/src/draw/sw/lv_draw_sw_utils.c ****                 rotate90_l8(src, dest, src_width, src_height, src_stride, dest_stride);
 251:Drivers/lvgl/src/draw/sw/lv_draw_sw_utils.c ****                 break;
 252:Drivers/lvgl/src/draw/sw/lv_draw_sw_utils.c **** #endif
 253:Drivers/lvgl/src/draw/sw/lv_draw_sw_utils.c **** #if LV_DRAW_SW_SUPPORT_RGB565
 254:Drivers/lvgl/src/draw/sw/lv_draw_sw_utils.c ****             case LV_COLOR_FORMAT_RGB565:
 255:Drivers/lvgl/src/draw/sw/lv_draw_sw_utils.c ****                 rotate90_rgb565(src, dest, src_width, src_height, src_stride, dest_stride);
 256:Drivers/lvgl/src/draw/sw/lv_draw_sw_utils.c ****                 break;
 257:Drivers/lvgl/src/draw/sw/lv_draw_sw_utils.c **** #endif
 258:Drivers/lvgl/src/draw/sw/lv_draw_sw_utils.c **** #if LV_DRAW_SW_SUPPORT_RGB888
ARM GAS  /tmp/ccA8hacO.s 			page 6


 259:Drivers/lvgl/src/draw/sw/lv_draw_sw_utils.c ****             case LV_COLOR_FORMAT_RGB888:
 260:Drivers/lvgl/src/draw/sw/lv_draw_sw_utils.c ****                 rotate90_rgb888(src, dest, src_width, src_height, src_stride, dest_stride);
 261:Drivers/lvgl/src/draw/sw/lv_draw_sw_utils.c ****                 break;
 262:Drivers/lvgl/src/draw/sw/lv_draw_sw_utils.c **** #endif
 263:Drivers/lvgl/src/draw/sw/lv_draw_sw_utils.c **** #if LV_DRAW_SW_SUPPORT_ARGB8888 || LV_DRAW_SW_SUPPORT_XRGB8888
 264:Drivers/lvgl/src/draw/sw/lv_draw_sw_utils.c ****             case LV_COLOR_FORMAT_XRGB8888:
 265:Drivers/lvgl/src/draw/sw/lv_draw_sw_utils.c ****             case LV_COLOR_FORMAT_ARGB8888:
 266:Drivers/lvgl/src/draw/sw/lv_draw_sw_utils.c ****                 rotate90_argb8888(src, dest, src_width, src_height, src_stride, dest_stride);
 267:Drivers/lvgl/src/draw/sw/lv_draw_sw_utils.c ****                 break;
 268:Drivers/lvgl/src/draw/sw/lv_draw_sw_utils.c **** #endif
 269:Drivers/lvgl/src/draw/sw/lv_draw_sw_utils.c ****             default:
 270:Drivers/lvgl/src/draw/sw/lv_draw_sw_utils.c ****                 break;
 271:Drivers/lvgl/src/draw/sw/lv_draw_sw_utils.c ****         }
 272:Drivers/lvgl/src/draw/sw/lv_draw_sw_utils.c **** 
 273:Drivers/lvgl/src/draw/sw/lv_draw_sw_utils.c ****         return;
 274:Drivers/lvgl/src/draw/sw/lv_draw_sw_utils.c ****     }
 275:Drivers/lvgl/src/draw/sw/lv_draw_sw_utils.c **** 
 276:Drivers/lvgl/src/draw/sw/lv_draw_sw_utils.c ****     if(rotation == LV_DISPLAY_ROTATION_180) {
 277:Drivers/lvgl/src/draw/sw/lv_draw_sw_utils.c ****         switch(color_format) {
 278:Drivers/lvgl/src/draw/sw/lv_draw_sw_utils.c **** #if LV_DRAW_SW_SUPPORT_L8
 279:Drivers/lvgl/src/draw/sw/lv_draw_sw_utils.c ****             case LV_COLOR_FORMAT_L8:
 280:Drivers/lvgl/src/draw/sw/lv_draw_sw_utils.c ****                 rotate180_l8(src, dest, src_width, src_height, src_stride, dest_stride);
 281:Drivers/lvgl/src/draw/sw/lv_draw_sw_utils.c ****                 break;
 282:Drivers/lvgl/src/draw/sw/lv_draw_sw_utils.c **** #endif
 283:Drivers/lvgl/src/draw/sw/lv_draw_sw_utils.c **** #if LV_DRAW_SW_SUPPORT_RGB565
 284:Drivers/lvgl/src/draw/sw/lv_draw_sw_utils.c ****             case LV_COLOR_FORMAT_RGB565:
 285:Drivers/lvgl/src/draw/sw/lv_draw_sw_utils.c ****                 rotate180_rgb565(src, dest, src_width, src_height, src_stride, dest_stride);
 286:Drivers/lvgl/src/draw/sw/lv_draw_sw_utils.c ****                 break;
 287:Drivers/lvgl/src/draw/sw/lv_draw_sw_utils.c **** #endif
 288:Drivers/lvgl/src/draw/sw/lv_draw_sw_utils.c **** #if LV_DRAW_SW_SUPPORT_RGB888
 289:Drivers/lvgl/src/draw/sw/lv_draw_sw_utils.c ****             case LV_COLOR_FORMAT_RGB888:
 290:Drivers/lvgl/src/draw/sw/lv_draw_sw_utils.c ****                 rotate180_rgb888(src, dest, src_width, src_height, src_stride, dest_stride);
 291:Drivers/lvgl/src/draw/sw/lv_draw_sw_utils.c ****                 break;
 292:Drivers/lvgl/src/draw/sw/lv_draw_sw_utils.c **** #endif
 293:Drivers/lvgl/src/draw/sw/lv_draw_sw_utils.c **** #if LV_DRAW_SW_SUPPORT_ARGB8888 || LV_DRAW_SW_SUPPORT_XRGB8888
 294:Drivers/lvgl/src/draw/sw/lv_draw_sw_utils.c ****             case LV_COLOR_FORMAT_XRGB8888:
 295:Drivers/lvgl/src/draw/sw/lv_draw_sw_utils.c ****             case LV_COLOR_FORMAT_ARGB8888:
 296:Drivers/lvgl/src/draw/sw/lv_draw_sw_utils.c ****                 rotate180_argb8888(src, dest, src_width, src_height, src_stride, dest_stride);
 297:Drivers/lvgl/src/draw/sw/lv_draw_sw_utils.c ****                 break;
 298:Drivers/lvgl/src/draw/sw/lv_draw_sw_utils.c **** #endif
 299:Drivers/lvgl/src/draw/sw/lv_draw_sw_utils.c ****             default:
 300:Drivers/lvgl/src/draw/sw/lv_draw_sw_utils.c ****                 break;
 301:Drivers/lvgl/src/draw/sw/lv_draw_sw_utils.c ****         }
 302:Drivers/lvgl/src/draw/sw/lv_draw_sw_utils.c **** 
 303:Drivers/lvgl/src/draw/sw/lv_draw_sw_utils.c ****         return;
 304:Drivers/lvgl/src/draw/sw/lv_draw_sw_utils.c ****     }
 305:Drivers/lvgl/src/draw/sw/lv_draw_sw_utils.c **** 
 306:Drivers/lvgl/src/draw/sw/lv_draw_sw_utils.c ****     if(rotation == LV_DISPLAY_ROTATION_270) {
 307:Drivers/lvgl/src/draw/sw/lv_draw_sw_utils.c ****         switch(color_format) {
 308:Drivers/lvgl/src/draw/sw/lv_draw_sw_utils.c **** #if LV_DRAW_SW_SUPPORT_L8
 309:Drivers/lvgl/src/draw/sw/lv_draw_sw_utils.c ****             case LV_COLOR_FORMAT_L8:
 310:Drivers/lvgl/src/draw/sw/lv_draw_sw_utils.c ****                 rotate270_l8(src, dest, src_width, src_height, src_stride, dest_stride);
 311:Drivers/lvgl/src/draw/sw/lv_draw_sw_utils.c ****                 break;
 312:Drivers/lvgl/src/draw/sw/lv_draw_sw_utils.c **** #endif
 313:Drivers/lvgl/src/draw/sw/lv_draw_sw_utils.c **** #if LV_DRAW_SW_SUPPORT_RGB565
 314:Drivers/lvgl/src/draw/sw/lv_draw_sw_utils.c ****             case LV_COLOR_FORMAT_RGB565:
 315:Drivers/lvgl/src/draw/sw/lv_draw_sw_utils.c ****                 rotate270_rgb565(src, dest, src_width, src_height, src_stride, dest_stride);
ARM GAS  /tmp/ccA8hacO.s 			page 7


 316:Drivers/lvgl/src/draw/sw/lv_draw_sw_utils.c ****                 break;
 317:Drivers/lvgl/src/draw/sw/lv_draw_sw_utils.c **** #endif
 318:Drivers/lvgl/src/draw/sw/lv_draw_sw_utils.c **** #if LV_DRAW_SW_SUPPORT_RGB888
 319:Drivers/lvgl/src/draw/sw/lv_draw_sw_utils.c ****             case LV_COLOR_FORMAT_RGB888:
 320:Drivers/lvgl/src/draw/sw/lv_draw_sw_utils.c ****                 rotate270_rgb888(src, dest, src_width, src_height, src_stride, dest_stride);
 321:Drivers/lvgl/src/draw/sw/lv_draw_sw_utils.c ****                 break;
 322:Drivers/lvgl/src/draw/sw/lv_draw_sw_utils.c **** #endif
 323:Drivers/lvgl/src/draw/sw/lv_draw_sw_utils.c **** #if LV_DRAW_SW_SUPPORT_ARGB8888 || LV_DRAW_SW_SUPPORT_XRGB8888
 324:Drivers/lvgl/src/draw/sw/lv_draw_sw_utils.c ****             case LV_COLOR_FORMAT_XRGB8888:
 325:Drivers/lvgl/src/draw/sw/lv_draw_sw_utils.c ****             case LV_COLOR_FORMAT_ARGB8888:
 326:Drivers/lvgl/src/draw/sw/lv_draw_sw_utils.c ****                 rotate270_argb8888(src, dest, src_width, src_height, src_stride, dest_stride);
 327:Drivers/lvgl/src/draw/sw/lv_draw_sw_utils.c ****                 break;
 328:Drivers/lvgl/src/draw/sw/lv_draw_sw_utils.c **** #endif
 329:Drivers/lvgl/src/draw/sw/lv_draw_sw_utils.c ****             default:
 330:Drivers/lvgl/src/draw/sw/lv_draw_sw_utils.c ****                 break;
 331:Drivers/lvgl/src/draw/sw/lv_draw_sw_utils.c ****         }
 332:Drivers/lvgl/src/draw/sw/lv_draw_sw_utils.c **** 
 333:Drivers/lvgl/src/draw/sw/lv_draw_sw_utils.c ****         return;
 334:Drivers/lvgl/src/draw/sw/lv_draw_sw_utils.c ****     }
 335:Drivers/lvgl/src/draw/sw/lv_draw_sw_utils.c **** }
 336:Drivers/lvgl/src/draw/sw/lv_draw_sw_utils.c **** 
 337:Drivers/lvgl/src/draw/sw/lv_draw_sw_utils.c **** /**********************
 338:Drivers/lvgl/src/draw/sw/lv_draw_sw_utils.c ****  *   STATIC FUNCTIONS
 339:Drivers/lvgl/src/draw/sw/lv_draw_sw_utils.c ****  **********************/
 340:Drivers/lvgl/src/draw/sw/lv_draw_sw_utils.c **** 
 341:Drivers/lvgl/src/draw/sw/lv_draw_sw_utils.c **** #if LV_DRAW_SW_SUPPORT_ARGB8888 || LV_DRAW_SW_SUPPORT_XRGB8888
 342:Drivers/lvgl/src/draw/sw/lv_draw_sw_utils.c **** 
 343:Drivers/lvgl/src/draw/sw/lv_draw_sw_utils.c **** static void rotate270_argb8888(const uint32_t * src, uint32_t * dst, int32_t src_width, int32_t src
 344:Drivers/lvgl/src/draw/sw/lv_draw_sw_utils.c ****                                int32_t src_stride,
 345:Drivers/lvgl/src/draw/sw/lv_draw_sw_utils.c ****                                int32_t dst_stride)
 346:Drivers/lvgl/src/draw/sw/lv_draw_sw_utils.c **** {
  29              		.loc 1 346 1 view -0
  30              		.cfi_startproc
  31              		@ args = 8, pretend = 0, frame = 0
  32              		@ frame_needed = 0, uses_anonymous_args = 0
  33              		.loc 1 346 1 is_stmt 0 view .LVU1
  34 0000 2DE9F043 		push	{r4, r5, r6, r7, r8, r9, lr}
  35              	.LCFI0:
  36              		.cfi_def_cfa_offset 28
  37              		.cfi_offset 4, -28
  38              		.cfi_offset 5, -24
  39              		.cfi_offset 6, -20
  40              		.cfi_offset 7, -16
  41              		.cfi_offset 8, -12
  42              		.cfi_offset 9, -8
  43              		.cfi_offset 14, -4
  44 0004 0546     		mov	r5, r0
  45 0006 0C46     		mov	r4, r1
  46 0008 9146     		mov	r9, r2
  47 000a 1A46     		mov	r2, r3
  48              	.LVL1:
 347:Drivers/lvgl/src/draw/sw/lv_draw_sw_utils.c ****     if(LV_RESULT_OK == LV_DRAW_SW_ROTATE270_ARGB8888(src, dst, src_width, src_height, src_stride, d
  49              		.loc 1 347 5 is_stmt 1 view .LVU2
 348:Drivers/lvgl/src/draw/sw/lv_draw_sw_utils.c ****         return ;
 349:Drivers/lvgl/src/draw/sw/lv_draw_sw_utils.c ****     }
 350:Drivers/lvgl/src/draw/sw/lv_draw_sw_utils.c **** 
 351:Drivers/lvgl/src/draw/sw/lv_draw_sw_utils.c ****     src_stride /= sizeof(uint32_t);
ARM GAS  /tmp/ccA8hacO.s 			page 8


  50              		.loc 1 351 5 view .LVU3
  51              		.loc 1 351 16 is_stmt 0 view .LVU4
  52 000c 0798     		ldr	r0, [sp, #28]
  53              	.LVL2:
  54              		.loc 1 351 16 view .LVU5
  55 000e 8008     		lsrs	r0, r0, #2
  56              	.LVL3:
 352:Drivers/lvgl/src/draw/sw/lv_draw_sw_utils.c ****     dst_stride /= sizeof(uint32_t);
  57              		.loc 1 352 5 is_stmt 1 view .LVU6
  58              		.loc 1 352 16 is_stmt 0 view .LVU7
  59 0010 089B     		ldr	r3, [sp, #32]
  60              	.LVL4:
  61              		.loc 1 352 16 view .LVU8
  62 0012 4FEA9308 		lsr	r8, r3, #2
  63              	.LVL5:
 353:Drivers/lvgl/src/draw/sw/lv_draw_sw_utils.c **** 
 354:Drivers/lvgl/src/draw/sw/lv_draw_sw_utils.c ****     for(int32_t x = 0; x < src_width; ++x) {
  64              		.loc 1 354 5 is_stmt 1 view .LVU9
  65              	.LBB2:
  66              		.loc 1 354 9 view .LVU10
  67              		.loc 1 354 17 is_stmt 0 view .LVU11
  68 0016 0026     		movs	r6, #0
  69              		.loc 1 354 5 view .LVU12
  70 0018 0EE0     		b	.L2
  71              	.LVL6:
  72              	.L4:
  73              	.LBB3:
  74              	.LBB4:
 355:Drivers/lvgl/src/draw/sw/lv_draw_sw_utils.c ****         int32_t dstIndex = x * dst_stride;
 356:Drivers/lvgl/src/draw/sw/lv_draw_sw_utils.c ****         int32_t srcIndex = x;
 357:Drivers/lvgl/src/draw/sw/lv_draw_sw_utils.c ****         for(int32_t y = 0; y < src_height; ++y) {
 358:Drivers/lvgl/src/draw/sw/lv_draw_sw_utils.c ****             dst[dstIndex + (src_height - y - 1)] = src[srcIndex];
  75              		.loc 1 358 13 is_stmt 1 view .LVU13
  76              		.loc 1 358 40 is_stmt 0 view .LVU14
  77 001a A2EB0E0C 		sub	ip, r2, lr
  78              		.loc 1 358 44 view .LVU15
  79 001e 0CF1FF3C 		add	ip, ip, #-1
  80              		.loc 1 358 26 view .LVU16
  81 0022 8C44     		add	ip, ip, r1
  82              		.loc 1 358 50 view .LVU17
  83 0024 55F82370 		ldr	r7, [r5, r3, lsl #2]
  84 0028 44F82C70 		str	r7, [r4, ip, lsl #2]
 359:Drivers/lvgl/src/draw/sw/lv_draw_sw_utils.c ****             srcIndex += src_stride;
  85              		.loc 1 359 13 is_stmt 1 view .LVU18
  86              		.loc 1 359 22 is_stmt 0 view .LVU19
  87 002c 0344     		add	r3, r3, r0
  88              	.LVL7:
 357:Drivers/lvgl/src/draw/sw/lv_draw_sw_utils.c ****             dst[dstIndex + (src_height - y - 1)] = src[srcIndex];
  89              		.loc 1 357 44 is_stmt 1 discriminator 3 view .LVU20
  90 002e 0EF1010E 		add	lr, lr, #1
  91              	.LVL8:
  92              	.L3:
 357:Drivers/lvgl/src/draw/sw/lv_draw_sw_utils.c ****             dst[dstIndex + (src_height - y - 1)] = src[srcIndex];
  93              		.loc 1 357 30 discriminator 1 view .LVU21
  94 0032 9645     		cmp	lr, r2
  95 0034 F1DB     		blt	.L4
 357:Drivers/lvgl/src/draw/sw/lv_draw_sw_utils.c ****             dst[dstIndex + (src_height - y - 1)] = src[srcIndex];
ARM GAS  /tmp/ccA8hacO.s 			page 9


  96              		.loc 1 357 30 is_stmt 0 discriminator 1 view .LVU22
  97              	.LBE4:
  98              	.LBE3:
 354:Drivers/lvgl/src/draw/sw/lv_draw_sw_utils.c ****         int32_t dstIndex = x * dst_stride;
  99              		.loc 1 354 39 is_stmt 1 discriminator 2 view .LVU23
 100 0036 0136     		adds	r6, r6, #1
 101              	.LVL9:
 102              	.L2:
 354:Drivers/lvgl/src/draw/sw/lv_draw_sw_utils.c ****         int32_t dstIndex = x * dst_stride;
 103              		.loc 1 354 26 discriminator 1 view .LVU24
 104 0038 4E45     		cmp	r6, r9
 105 003a 05DA     		bge	.L7
 106              	.LBB7:
 355:Drivers/lvgl/src/draw/sw/lv_draw_sw_utils.c ****         int32_t srcIndex = x;
 107              		.loc 1 355 9 view .LVU25
 355:Drivers/lvgl/src/draw/sw/lv_draw_sw_utils.c ****         int32_t srcIndex = x;
 108              		.loc 1 355 17 is_stmt 0 view .LVU26
 109 003c 08FB06F1 		mul	r1, r8, r6
 110              	.LVL10:
 356:Drivers/lvgl/src/draw/sw/lv_draw_sw_utils.c ****         for(int32_t y = 0; y < src_height; ++y) {
 111              		.loc 1 356 9 is_stmt 1 view .LVU27
 357:Drivers/lvgl/src/draw/sw/lv_draw_sw_utils.c ****             dst[dstIndex + (src_height - y - 1)] = src[srcIndex];
 112              		.loc 1 357 9 view .LVU28
 113              	.LBB5:
 357:Drivers/lvgl/src/draw/sw/lv_draw_sw_utils.c ****             dst[dstIndex + (src_height - y - 1)] = src[srcIndex];
 114              		.loc 1 357 13 view .LVU29
 357:Drivers/lvgl/src/draw/sw/lv_draw_sw_utils.c ****             dst[dstIndex + (src_height - y - 1)] = src[srcIndex];
 115              		.loc 1 357 13 is_stmt 0 view .LVU30
 116              	.LBE5:
 356:Drivers/lvgl/src/draw/sw/lv_draw_sw_utils.c ****         for(int32_t y = 0; y < src_height; ++y) {
 117              		.loc 1 356 17 view .LVU31
 118 0040 3346     		mov	r3, r6
 119              	.LBB6:
 357:Drivers/lvgl/src/draw/sw/lv_draw_sw_utils.c ****             dst[dstIndex + (src_height - y - 1)] = src[srcIndex];
 120              		.loc 1 357 21 view .LVU32
 121 0042 4FF0000E 		mov	lr, #0
 357:Drivers/lvgl/src/draw/sw/lv_draw_sw_utils.c ****             dst[dstIndex + (src_height - y - 1)] = src[srcIndex];
 122              		.loc 1 357 9 view .LVU33
 123 0046 F4E7     		b	.L3
 124              	.LVL11:
 125              	.L7:
 357:Drivers/lvgl/src/draw/sw/lv_draw_sw_utils.c ****             dst[dstIndex + (src_height - y - 1)] = src[srcIndex];
 126              		.loc 1 357 9 view .LVU34
 127              	.LBE6:
 128              	.LBE7:
 129              	.LBE2:
 360:Drivers/lvgl/src/draw/sw/lv_draw_sw_utils.c ****         }
 361:Drivers/lvgl/src/draw/sw/lv_draw_sw_utils.c ****     }
 362:Drivers/lvgl/src/draw/sw/lv_draw_sw_utils.c **** }
 130              		.loc 1 362 1 view .LVU35
 131 0048 BDE8F083 		pop	{r4, r5, r6, r7, r8, r9, pc}
 132              		.loc 1 362 1 view .LVU36
 133              		.cfi_endproc
 134              	.LFE16:
 136              		.section	.text.rotate180_argb8888,"ax",%progbits
 137              		.align	1
 138              		.syntax unified
ARM GAS  /tmp/ccA8hacO.s 			page 10


 139              		.thumb
 140              		.thumb_func
 142              	rotate180_argb8888:
 143              	.LVL12:
 144              	.LFB17:
 363:Drivers/lvgl/src/draw/sw/lv_draw_sw_utils.c **** 
 364:Drivers/lvgl/src/draw/sw/lv_draw_sw_utils.c **** static void rotate180_argb8888(const uint32_t * src, uint32_t * dst, int32_t width, int32_t height,
 365:Drivers/lvgl/src/draw/sw/lv_draw_sw_utils.c ****                                int32_t dest_stride)
 366:Drivers/lvgl/src/draw/sw/lv_draw_sw_utils.c **** {
 145              		.loc 1 366 1 is_stmt 1 view -0
 146              		.cfi_startproc
 147              		@ args = 8, pretend = 0, frame = 0
 148              		@ frame_needed = 0, uses_anonymous_args = 0
 149              		.loc 1 366 1 is_stmt 0 view .LVU38
 150 0000 2DE9F047 		push	{r4, r5, r6, r7, r8, r9, r10, lr}
 151              	.LCFI1:
 152              		.cfi_def_cfa_offset 32
 153              		.cfi_offset 4, -32
 154              		.cfi_offset 5, -28
 155              		.cfi_offset 6, -24
 156              		.cfi_offset 7, -20
 157              		.cfi_offset 8, -16
 158              		.cfi_offset 9, -12
 159              		.cfi_offset 10, -8
 160              		.cfi_offset 14, -4
 161 0004 0546     		mov	r5, r0
 162 0006 0C46     		mov	r4, r1
 163 0008 1F46     		mov	r7, r3
 367:Drivers/lvgl/src/draw/sw/lv_draw_sw_utils.c ****     LV_UNUSED(dest_stride);
 164              		.loc 1 367 5 is_stmt 1 view .LVU39
 368:Drivers/lvgl/src/draw/sw/lv_draw_sw_utils.c ****     if(LV_RESULT_OK == LV_DRAW_SW_ROTATE180_ARGB8888(src, dst, src_width, src_height, src_stride, d
 165              		.loc 1 368 5 view .LVU40
 369:Drivers/lvgl/src/draw/sw/lv_draw_sw_utils.c ****         return ;
 370:Drivers/lvgl/src/draw/sw/lv_draw_sw_utils.c ****     }
 371:Drivers/lvgl/src/draw/sw/lv_draw_sw_utils.c **** 
 372:Drivers/lvgl/src/draw/sw/lv_draw_sw_utils.c ****     src_stride /= sizeof(uint32_t);
 166              		.loc 1 372 5 view .LVU41
 167              		.loc 1 372 16 is_stmt 0 view .LVU42
 168 000a 089B     		ldr	r3, [sp, #32]
 169              	.LVL13:
 170              		.loc 1 372 16 view .LVU43
 171 000c 4FEA9309 		lsr	r9, r3, #2
 172              	.LVL14:
 373:Drivers/lvgl/src/draw/sw/lv_draw_sw_utils.c ****     dest_stride /= sizeof(uint32_t);
 173              		.loc 1 373 5 is_stmt 1 view .LVU44
 174              		.loc 1 373 17 is_stmt 0 view .LVU45
 175 0010 099B     		ldr	r3, [sp, #36]
 176 0012 4FEA9308 		lsr	r8, r3, #2
 177              	.LVL15:
 374:Drivers/lvgl/src/draw/sw/lv_draw_sw_utils.c **** 
 375:Drivers/lvgl/src/draw/sw/lv_draw_sw_utils.c ****     for(int32_t y = 0; y < height; ++y) {
 178              		.loc 1 375 5 is_stmt 1 view .LVU46
 179              	.LBB8:
 180              		.loc 1 375 9 view .LVU47
 181              		.loc 1 375 17 is_stmt 0 view .LVU48
 182 0016 0026     		movs	r6, #0
 183              		.loc 1 375 5 view .LVU49
ARM GAS  /tmp/ccA8hacO.s 			page 11


 184 0018 10E0     		b	.L9
 185              	.LVL16:
 186              	.L11:
 187              	.LBB9:
 188              	.LBB10:
 376:Drivers/lvgl/src/draw/sw/lv_draw_sw_utils.c ****         int32_t dstIndex = (height - y - 1) * dest_stride;
 377:Drivers/lvgl/src/draw/sw/lv_draw_sw_utils.c ****         int32_t srcIndex = y * src_stride;
 378:Drivers/lvgl/src/draw/sw/lv_draw_sw_utils.c ****         for(int32_t x = 0; x < width; ++x) {
 379:Drivers/lvgl/src/draw/sw/lv_draw_sw_utils.c ****             dst[dstIndex + width - x - 1] = src[srcIndex + x];
 189              		.loc 1 379 13 is_stmt 1 view .LVU50
 190              		.loc 1 379 58 is_stmt 0 view .LVU51
 191 001a 0CEB000A 		add	r10, ip, r0
 192              		.loc 1 379 26 view .LVU52
 193 001e 8B18     		adds	r3, r1, r2
 194              		.loc 1 379 34 view .LVU53
 195 0020 A3EB0C03 		sub	r3, r3, ip
 196              		.loc 1 379 16 view .LVU54
 197 0024 6FF0404E 		mvn	lr, #-1073741824
 198 0028 9E44     		add	lr, lr, r3
 199              		.loc 1 379 48 view .LVU55
 200 002a 55F82A30 		ldr	r3, [r5, r10, lsl #2]
 201 002e 44F82E30 		str	r3, [r4, lr, lsl #2]
 378:Drivers/lvgl/src/draw/sw/lv_draw_sw_utils.c ****             dst[dstIndex + width - x - 1] = src[srcIndex + x];
 202              		.loc 1 378 39 is_stmt 1 discriminator 3 view .LVU56
 203 0032 0CF1010C 		add	ip, ip, #1
 204              	.LVL17:
 205              	.L10:
 378:Drivers/lvgl/src/draw/sw/lv_draw_sw_utils.c ****             dst[dstIndex + width - x - 1] = src[srcIndex + x];
 206              		.loc 1 378 30 discriminator 1 view .LVU57
 207 0036 9445     		cmp	ip, r2
 208 0038 EFDB     		blt	.L11
 209              	.LBE10:
 210              	.LBE9:
 375:Drivers/lvgl/src/draw/sw/lv_draw_sw_utils.c ****         int32_t dstIndex = (height - y - 1) * dest_stride;
 211              		.loc 1 375 36 discriminator 2 view .LVU58
 212 003a 0136     		adds	r6, r6, #1
 213              	.LVL18:
 214              	.L9:
 375:Drivers/lvgl/src/draw/sw/lv_draw_sw_utils.c ****         int32_t dstIndex = (height - y - 1) * dest_stride;
 215              		.loc 1 375 26 discriminator 1 view .LVU59
 216 003c BE42     		cmp	r6, r7
 217 003e 08DA     		bge	.L14
 218              	.LBB12:
 376:Drivers/lvgl/src/draw/sw/lv_draw_sw_utils.c ****         int32_t dstIndex = (height - y - 1) * dest_stride;
 219              		.loc 1 376 9 view .LVU60
 376:Drivers/lvgl/src/draw/sw/lv_draw_sw_utils.c ****         int32_t dstIndex = (height - y - 1) * dest_stride;
 220              		.loc 1 376 36 is_stmt 0 view .LVU61
 221 0040 B91B     		subs	r1, r7, r6
 376:Drivers/lvgl/src/draw/sw/lv_draw_sw_utils.c ****         int32_t dstIndex = (height - y - 1) * dest_stride;
 222              		.loc 1 376 40 view .LVU62
 223 0042 0139     		subs	r1, r1, #1
 376:Drivers/lvgl/src/draw/sw/lv_draw_sw_utils.c ****         int32_t dstIndex = (height - y - 1) * dest_stride;
 224              		.loc 1 376 17 view .LVU63
 225 0044 08FB01F1 		mul	r1, r8, r1
 226              	.LVL19:
 377:Drivers/lvgl/src/draw/sw/lv_draw_sw_utils.c ****         for(int32_t x = 0; x < width; ++x) {
 227              		.loc 1 377 9 is_stmt 1 view .LVU64
ARM GAS  /tmp/ccA8hacO.s 			page 12


 377:Drivers/lvgl/src/draw/sw/lv_draw_sw_utils.c ****         for(int32_t x = 0; x < width; ++x) {
 228              		.loc 1 377 17 is_stmt 0 view .LVU65
 229 0048 09FB06F0 		mul	r0, r9, r6
 230              	.LVL20:
 378:Drivers/lvgl/src/draw/sw/lv_draw_sw_utils.c ****             dst[dstIndex + width - x - 1] = src[srcIndex + x];
 231              		.loc 1 378 9 is_stmt 1 view .LVU66
 232              	.LBB11:
 378:Drivers/lvgl/src/draw/sw/lv_draw_sw_utils.c ****             dst[dstIndex + width - x - 1] = src[srcIndex + x];
 233              		.loc 1 378 13 view .LVU67
 378:Drivers/lvgl/src/draw/sw/lv_draw_sw_utils.c ****             dst[dstIndex + width - x - 1] = src[srcIndex + x];
 234              		.loc 1 378 21 is_stmt 0 view .LVU68
 235 004c 4FF0000C 		mov	ip, #0
 378:Drivers/lvgl/src/draw/sw/lv_draw_sw_utils.c ****             dst[dstIndex + width - x - 1] = src[srcIndex + x];
 236              		.loc 1 378 9 view .LVU69
 237 0050 F1E7     		b	.L10
 238              	.LVL21:
 239              	.L14:
 378:Drivers/lvgl/src/draw/sw/lv_draw_sw_utils.c ****             dst[dstIndex + width - x - 1] = src[srcIndex + x];
 240              		.loc 1 378 9 view .LVU70
 241              	.LBE11:
 242              	.LBE12:
 243              	.LBE8:
 380:Drivers/lvgl/src/draw/sw/lv_draw_sw_utils.c ****         }
 381:Drivers/lvgl/src/draw/sw/lv_draw_sw_utils.c ****     }
 382:Drivers/lvgl/src/draw/sw/lv_draw_sw_utils.c **** }
 244              		.loc 1 382 1 view .LVU71
 245 0052 BDE8F087 		pop	{r4, r5, r6, r7, r8, r9, r10, pc}
 246              		.loc 1 382 1 view .LVU72
 247              		.cfi_endproc
 248              	.LFE17:
 250              		.section	.text.rotate90_argb8888,"ax",%progbits
 251              		.align	1
 252              		.syntax unified
 253              		.thumb
 254              		.thumb_func
 256              	rotate90_argb8888:
 257              	.LVL22:
 258              	.LFB18:
 383:Drivers/lvgl/src/draw/sw/lv_draw_sw_utils.c **** 
 384:Drivers/lvgl/src/draw/sw/lv_draw_sw_utils.c **** static void rotate90_argb8888(const uint32_t * src, uint32_t * dst, int32_t src_width, int32_t src_
 385:Drivers/lvgl/src/draw/sw/lv_draw_sw_utils.c ****                               int32_t src_stride, int32_t dst_stride)
 386:Drivers/lvgl/src/draw/sw/lv_draw_sw_utils.c **** {
 259              		.loc 1 386 1 is_stmt 1 view -0
 260              		.cfi_startproc
 261              		@ args = 8, pretend = 0, frame = 0
 262              		@ frame_needed = 0, uses_anonymous_args = 0
 263              		.loc 1 386 1 is_stmt 0 view .LVU74
 264 0000 2DE9F043 		push	{r4, r5, r6, r7, r8, r9, lr}
 265              	.LCFI2:
 266              		.cfi_def_cfa_offset 28
 267              		.cfi_offset 4, -28
 268              		.cfi_offset 5, -24
 269              		.cfi_offset 6, -20
 270              		.cfi_offset 7, -16
 271              		.cfi_offset 8, -12
 272              		.cfi_offset 9, -8
 273              		.cfi_offset 14, -4
ARM GAS  /tmp/ccA8hacO.s 			page 13


 274 0004 0546     		mov	r5, r0
 275 0006 0E46     		mov	r6, r1
 276 0008 9146     		mov	r9, r2
 277 000a 1946     		mov	r1, r3
 278              	.LVL23:
 387:Drivers/lvgl/src/draw/sw/lv_draw_sw_utils.c ****     if(LV_RESULT_OK == LV_DRAW_SW_ROTATE90_ARGB8888(src, dst, src_width, src_height, src_stride, ds
 279              		.loc 1 387 5 is_stmt 1 view .LVU75
 388:Drivers/lvgl/src/draw/sw/lv_draw_sw_utils.c ****         return ;
 389:Drivers/lvgl/src/draw/sw/lv_draw_sw_utils.c ****     }
 390:Drivers/lvgl/src/draw/sw/lv_draw_sw_utils.c **** 
 391:Drivers/lvgl/src/draw/sw/lv_draw_sw_utils.c ****     src_stride /= sizeof(uint32_t);
 280              		.loc 1 391 5 view .LVU76
 281              		.loc 1 391 16 is_stmt 0 view .LVU77
 282 000c 079C     		ldr	r4, [sp, #28]
 283 000e A408     		lsrs	r4, r4, #2
 284              	.LVL24:
 392:Drivers/lvgl/src/draw/sw/lv_draw_sw_utils.c ****     dst_stride /= sizeof(uint32_t);
 285              		.loc 1 392 5 is_stmt 1 view .LVU78
 286              		.loc 1 392 16 is_stmt 0 view .LVU79
 287 0010 089B     		ldr	r3, [sp, #32]
 288              	.LVL25:
 289              		.loc 1 392 16 view .LVU80
 290 0012 9808     		lsrs	r0, r3, #2
 291              	.LVL26:
 393:Drivers/lvgl/src/draw/sw/lv_draw_sw_utils.c **** 
 394:Drivers/lvgl/src/draw/sw/lv_draw_sw_utils.c ****     for(int32_t x = 0; x < src_width; ++x) {
 292              		.loc 1 394 5 is_stmt 1 view .LVU81
 293              	.LBB13:
 294              		.loc 1 394 9 view .LVU82
 295              		.loc 1 394 17 is_stmt 0 view .LVU83
 296 0014 4FF00008 		mov	r8, #0
 297              		.loc 1 394 5 view .LVU84
 298 0018 0CE0     		b	.L16
 299              	.LVL27:
 300              	.L18:
 301              	.LBB14:
 302              	.LBB15:
 395:Drivers/lvgl/src/draw/sw/lv_draw_sw_utils.c ****         int32_t dstIndex = (src_width - x - 1);
 396:Drivers/lvgl/src/draw/sw/lv_draw_sw_utils.c ****         int32_t srcIndex = x;
 397:Drivers/lvgl/src/draw/sw/lv_draw_sw_utils.c ****         for(int32_t y = 0; y < src_height; ++y) {
 398:Drivers/lvgl/src/draw/sw/lv_draw_sw_utils.c ****             dst[dstIndex * dst_stride + y] = src[srcIndex];
 303              		.loc 1 398 13 is_stmt 1 view .LVU85
 304              		.loc 1 398 39 is_stmt 0 view .LVU86
 305 001a 02FB00C3 		mla	r3, r2, r0, ip
 306              		.loc 1 398 44 view .LVU87
 307 001e 55F82E70 		ldr	r7, [r5, lr, lsl #2]
 308 0022 46F82370 		str	r7, [r6, r3, lsl #2]
 399:Drivers/lvgl/src/draw/sw/lv_draw_sw_utils.c ****             srcIndex += src_stride;
 309              		.loc 1 399 13 is_stmt 1 view .LVU88
 310              		.loc 1 399 22 is_stmt 0 view .LVU89
 311 0026 A644     		add	lr, lr, r4
 312              	.LVL28:
 397:Drivers/lvgl/src/draw/sw/lv_draw_sw_utils.c ****             dst[dstIndex * dst_stride + y] = src[srcIndex];
 313              		.loc 1 397 44 is_stmt 1 discriminator 3 view .LVU90
 314 0028 0CF1010C 		add	ip, ip, #1
 315              	.LVL29:
 316              	.L17:
ARM GAS  /tmp/ccA8hacO.s 			page 14


 397:Drivers/lvgl/src/draw/sw/lv_draw_sw_utils.c ****             dst[dstIndex * dst_stride + y] = src[srcIndex];
 317              		.loc 1 397 30 discriminator 1 view .LVU91
 318 002c 8C45     		cmp	ip, r1
 319 002e F4DB     		blt	.L18
 397:Drivers/lvgl/src/draw/sw/lv_draw_sw_utils.c ****             dst[dstIndex * dst_stride + y] = src[srcIndex];
 320              		.loc 1 397 30 is_stmt 0 discriminator 1 view .LVU92
 321              	.LBE15:
 322              	.LBE14:
 394:Drivers/lvgl/src/draw/sw/lv_draw_sw_utils.c ****         int32_t dstIndex = (src_width - x - 1);
 323              		.loc 1 394 39 is_stmt 1 discriminator 2 view .LVU93
 324 0030 08F10108 		add	r8, r8, #1
 325              	.LVL30:
 326              	.L16:
 394:Drivers/lvgl/src/draw/sw/lv_draw_sw_utils.c ****         int32_t dstIndex = (src_width - x - 1);
 327              		.loc 1 394 26 discriminator 1 view .LVU94
 328 0034 C845     		cmp	r8, r9
 329 0036 06DA     		bge	.L21
 330              	.LBB18:
 395:Drivers/lvgl/src/draw/sw/lv_draw_sw_utils.c ****         int32_t srcIndex = x;
 331              		.loc 1 395 9 view .LVU95
 395:Drivers/lvgl/src/draw/sw/lv_draw_sw_utils.c ****         int32_t srcIndex = x;
 332              		.loc 1 395 39 is_stmt 0 view .LVU96
 333 0038 A9EB0802 		sub	r2, r9, r8
 395:Drivers/lvgl/src/draw/sw/lv_draw_sw_utils.c ****         int32_t srcIndex = x;
 334              		.loc 1 395 17 view .LVU97
 335 003c 013A     		subs	r2, r2, #1
 336              	.LVL31:
 396:Drivers/lvgl/src/draw/sw/lv_draw_sw_utils.c ****         for(int32_t y = 0; y < src_height; ++y) {
 337              		.loc 1 396 9 is_stmt 1 view .LVU98
 397:Drivers/lvgl/src/draw/sw/lv_draw_sw_utils.c ****             dst[dstIndex * dst_stride + y] = src[srcIndex];
 338              		.loc 1 397 9 view .LVU99
 339              	.LBB16:
 397:Drivers/lvgl/src/draw/sw/lv_draw_sw_utils.c ****             dst[dstIndex * dst_stride + y] = src[srcIndex];
 340              		.loc 1 397 13 view .LVU100
 397:Drivers/lvgl/src/draw/sw/lv_draw_sw_utils.c ****             dst[dstIndex * dst_stride + y] = src[srcIndex];
 341              		.loc 1 397 13 is_stmt 0 view .LVU101
 342              	.LBE16:
 396:Drivers/lvgl/src/draw/sw/lv_draw_sw_utils.c ****         for(int32_t y = 0; y < src_height; ++y) {
 343              		.loc 1 396 17 view .LVU102
 344 003e C646     		mov	lr, r8
 345              	.LBB17:
 397:Drivers/lvgl/src/draw/sw/lv_draw_sw_utils.c ****             dst[dstIndex * dst_stride + y] = src[srcIndex];
 346              		.loc 1 397 21 view .LVU103
 347 0040 4FF0000C 		mov	ip, #0
 397:Drivers/lvgl/src/draw/sw/lv_draw_sw_utils.c ****             dst[dstIndex * dst_stride + y] = src[srcIndex];
 348              		.loc 1 397 9 view .LVU104
 349 0044 F2E7     		b	.L17
 350              	.LVL32:
 351              	.L21:
 397:Drivers/lvgl/src/draw/sw/lv_draw_sw_utils.c ****             dst[dstIndex * dst_stride + y] = src[srcIndex];
 352              		.loc 1 397 9 view .LVU105
 353              	.LBE17:
 354              	.LBE18:
 355              	.LBE13:
 400:Drivers/lvgl/src/draw/sw/lv_draw_sw_utils.c ****         }
 401:Drivers/lvgl/src/draw/sw/lv_draw_sw_utils.c ****     }
 402:Drivers/lvgl/src/draw/sw/lv_draw_sw_utils.c **** }
ARM GAS  /tmp/ccA8hacO.s 			page 15


 356              		.loc 1 402 1 view .LVU106
 357 0046 BDE8F083 		pop	{r4, r5, r6, r7, r8, r9, pc}
 358              		.loc 1 402 1 view .LVU107
 359              		.cfi_endproc
 360              	.LFE18:
 362              		.section	.text.rotate90_rgb888,"ax",%progbits
 363              		.align	1
 364              		.syntax unified
 365              		.thumb
 366              		.thumb_func
 368              	rotate90_rgb888:
 369              	.LVL33:
 370              	.LFB19:
 403:Drivers/lvgl/src/draw/sw/lv_draw_sw_utils.c **** 
 404:Drivers/lvgl/src/draw/sw/lv_draw_sw_utils.c **** #endif
 405:Drivers/lvgl/src/draw/sw/lv_draw_sw_utils.c **** 
 406:Drivers/lvgl/src/draw/sw/lv_draw_sw_utils.c **** #if LV_DRAW_SW_SUPPORT_RGB888
 407:Drivers/lvgl/src/draw/sw/lv_draw_sw_utils.c **** 
 408:Drivers/lvgl/src/draw/sw/lv_draw_sw_utils.c **** static void rotate90_rgb888(const uint8_t * src, uint8_t * dst, int32_t src_width, int32_t src_heig
 409:Drivers/lvgl/src/draw/sw/lv_draw_sw_utils.c ****                             int32_t src_stride,
 410:Drivers/lvgl/src/draw/sw/lv_draw_sw_utils.c ****                             int32_t dst_stride)
 411:Drivers/lvgl/src/draw/sw/lv_draw_sw_utils.c **** {
 371              		.loc 1 411 1 is_stmt 1 view -0
 372              		.cfi_startproc
 373              		@ args = 8, pretend = 0, frame = 0
 374              		@ frame_needed = 0, uses_anonymous_args = 0
 375              		.loc 1 411 1 is_stmt 0 view .LVU109
 376 0000 2DE9F043 		push	{r4, r5, r6, r7, r8, r9, lr}
 377              	.LCFI3:
 378              		.cfi_def_cfa_offset 28
 379              		.cfi_offset 4, -28
 380              		.cfi_offset 5, -24
 381              		.cfi_offset 6, -20
 382              		.cfi_offset 7, -16
 383              		.cfi_offset 8, -12
 384              		.cfi_offset 9, -8
 385              		.cfi_offset 14, -4
 386 0004 0446     		mov	r4, r0
 387 0006 0846     		mov	r0, r1
 388              	.LVL34:
 389              		.loc 1 411 1 view .LVU110
 390 0008 1546     		mov	r5, r2
 391 000a 1E46     		mov	r6, r3
 392 000c DDF81C80 		ldr	r8, [sp, #28]
 393 0010 089F     		ldr	r7, [sp, #32]
 412:Drivers/lvgl/src/draw/sw/lv_draw_sw_utils.c ****     if(LV_RESULT_OK == LV_DRAW_SW_ROTATE90_RGB888(src, dst, src_width, src_height, src_stride, dst_
 394              		.loc 1 412 5 is_stmt 1 view .LVU111
 413:Drivers/lvgl/src/draw/sw/lv_draw_sw_utils.c ****         return ;
 414:Drivers/lvgl/src/draw/sw/lv_draw_sw_utils.c ****     }
 415:Drivers/lvgl/src/draw/sw/lv_draw_sw_utils.c **** 
 416:Drivers/lvgl/src/draw/sw/lv_draw_sw_utils.c ****     for(int32_t x = 0; x < src_width; ++x) {
 395              		.loc 1 416 5 view .LVU112
 396              	.LBB19:
 397              		.loc 1 416 9 view .LVU113
 398              	.LVL35:
 399              		.loc 1 416 17 is_stmt 0 view .LVU114
 400 0012 0021     		movs	r1, #0
ARM GAS  /tmp/ccA8hacO.s 			page 16


 401              	.LVL36:
 402              		.loc 1 416 5 view .LVU115
 403 0014 1EE0     		b	.L23
 404              	.LVL37:
 405              	.L24:
 406              	.LBB20:
 407              	.LBB21:
 417:Drivers/lvgl/src/draw/sw/lv_draw_sw_utils.c ****         for(int32_t y = 0; y < src_height; ++y) {
 418:Drivers/lvgl/src/draw/sw/lv_draw_sw_utils.c ****             int32_t srcIndex = y * src_stride + x * 3;
 408              		.loc 1 418 13 is_stmt 1 view .LVU116
 409              		.loc 1 418 51 is_stmt 0 view .LVU117
 410 0016 01EB410E 		add	lr, r1, r1, lsl #1
 411              		.loc 1 418 21 view .LVU118
 412 001a 08FB03EE 		mla	lr, r8, r3, lr
 413              	.LVL38:
 419:Drivers/lvgl/src/draw/sw/lv_draw_sw_utils.c ****             int32_t dstIndex = (src_width - x - 1) * dst_stride + y * 3;
 414              		.loc 1 419 13 is_stmt 1 view .LVU119
 415              		.loc 1 419 43 is_stmt 0 view .LVU120
 416 001e 6A1A     		subs	r2, r5, r1
 417              		.loc 1 419 47 view .LVU121
 418 0020 013A     		subs	r2, r2, #1
 419              		.loc 1 419 69 view .LVU122
 420 0022 03EB430C 		add	ip, r3, r3, lsl #1
 421              		.loc 1 419 21 view .LVU123
 422 0026 07FB02CC 		mla	ip, r7, r2, ip
 423              	.LVL39:
 420:Drivers/lvgl/src/draw/sw/lv_draw_sw_utils.c ****             dst[dstIndex] = src[srcIndex];       /*Red*/
 424              		.loc 1 420 13 is_stmt 1 view .LVU124
 425              		.loc 1 420 32 is_stmt 0 view .LVU125
 426 002a 14F80E20 		ldrb	r2, [r4, lr]	@ zero_extendqisi2
 427              		.loc 1 420 27 view .LVU126
 428 002e 00F80C20 		strb	r2, [r0, ip]
 421:Drivers/lvgl/src/draw/sw/lv_draw_sw_utils.c ****             dst[dstIndex + 1] = src[srcIndex + 1]; /*Green*/
 429              		.loc 1 421 13 is_stmt 1 view .LVU127
 430              		.loc 1 421 16 is_stmt 0 view .LVU128
 431 0032 0CF10102 		add	r2, ip, #1
 432              		.loc 1 421 36 view .LVU129
 433 0036 A644     		add	lr, lr, r4
 434              	.LVL40:
 435              		.loc 1 421 36 view .LVU130
 436 0038 9EF80190 		ldrb	r9, [lr, #1]	@ zero_extendqisi2
 437              		.loc 1 421 31 view .LVU131
 438 003c 00F80290 		strb	r9, [r0, r2]
 422:Drivers/lvgl/src/draw/sw/lv_draw_sw_utils.c ****             dst[dstIndex + 2] = src[srcIndex + 2]; /*Blue*/
 439              		.loc 1 422 13 is_stmt 1 view .LVU132
 440              		.loc 1 422 16 is_stmt 0 view .LVU133
 441 0040 0CF1020C 		add	ip, ip, #2
 442              	.LVL41:
 443              		.loc 1 422 36 view .LVU134
 444 0044 9EF80220 		ldrb	r2, [lr, #2]	@ zero_extendqisi2
 445              		.loc 1 422 31 view .LVU135
 446 0048 00F80C20 		strb	r2, [r0, ip]
 447              	.LBE21:
 417:Drivers/lvgl/src/draw/sw/lv_draw_sw_utils.c ****             int32_t srcIndex = y * src_stride + x * 3;
 448              		.loc 1 417 44 is_stmt 1 discriminator 3 view .LVU136
 449 004c 0133     		adds	r3, r3, #1
 450              	.LVL42:
ARM GAS  /tmp/ccA8hacO.s 			page 17


 451              	.L25:
 417:Drivers/lvgl/src/draw/sw/lv_draw_sw_utils.c ****             int32_t srcIndex = y * src_stride + x * 3;
 452              		.loc 1 417 30 discriminator 1 view .LVU137
 453 004e B342     		cmp	r3, r6
 454 0050 E1DB     		blt	.L24
 455              	.LBE20:
 416:Drivers/lvgl/src/draw/sw/lv_draw_sw_utils.c ****         for(int32_t y = 0; y < src_height; ++y) {
 456              		.loc 1 416 39 discriminator 2 view .LVU138
 457 0052 0131     		adds	r1, r1, #1
 458              	.LVL43:
 459              	.L23:
 416:Drivers/lvgl/src/draw/sw/lv_draw_sw_utils.c ****         for(int32_t y = 0; y < src_height; ++y) {
 460              		.loc 1 416 26 discriminator 1 view .LVU139
 461 0054 A942     		cmp	r1, r5
 462 0056 01DA     		bge	.L28
 463              	.LBB22:
 417:Drivers/lvgl/src/draw/sw/lv_draw_sw_utils.c ****             int32_t srcIndex = y * src_stride + x * 3;
 464              		.loc 1 417 21 is_stmt 0 view .LVU140
 465 0058 0023     		movs	r3, #0
 466 005a F8E7     		b	.L25
 467              	.L28:
 468              	.LBE22:
 469              	.LBE19:
 423:Drivers/lvgl/src/draw/sw/lv_draw_sw_utils.c ****         }
 424:Drivers/lvgl/src/draw/sw/lv_draw_sw_utils.c ****     }
 425:Drivers/lvgl/src/draw/sw/lv_draw_sw_utils.c **** }
 470              		.loc 1 425 1 view .LVU141
 471 005c BDE8F083 		pop	{r4, r5, r6, r7, r8, r9, pc}
 472              		.loc 1 425 1 view .LVU142
 473              		.cfi_endproc
 474              	.LFE19:
 476              		.section	.text.rotate180_rgb888,"ax",%progbits
 477              		.align	1
 478              		.syntax unified
 479              		.thumb
 480              		.thumb_func
 482              	rotate180_rgb888:
 483              	.LVL44:
 484              	.LFB20:
 426:Drivers/lvgl/src/draw/sw/lv_draw_sw_utils.c **** 
 427:Drivers/lvgl/src/draw/sw/lv_draw_sw_utils.c **** static void rotate180_rgb888(const uint8_t * src, uint8_t * dst, int32_t width, int32_t height, int
 428:Drivers/lvgl/src/draw/sw/lv_draw_sw_utils.c ****                              int32_t dest_stride)
 429:Drivers/lvgl/src/draw/sw/lv_draw_sw_utils.c **** {
 485              		.loc 1 429 1 is_stmt 1 view -0
 486              		.cfi_startproc
 487              		@ args = 8, pretend = 0, frame = 0
 488              		@ frame_needed = 0, uses_anonymous_args = 0
 489              		.loc 1 429 1 is_stmt 0 view .LVU144
 490 0000 2DE9F043 		push	{r4, r5, r6, r7, r8, r9, lr}
 491              	.LCFI4:
 492              		.cfi_def_cfa_offset 28
 493              		.cfi_offset 4, -28
 494              		.cfi_offset 5, -24
 495              		.cfi_offset 6, -20
 496              		.cfi_offset 7, -16
 497              		.cfi_offset 8, -12
 498              		.cfi_offset 9, -8
ARM GAS  /tmp/ccA8hacO.s 			page 18


 499              		.cfi_offset 14, -4
 500 0004 0446     		mov	r4, r0
 501 0006 1046     		mov	r0, r2
 502              	.LVL45:
 503              		.loc 1 429 1 view .LVU145
 504 0008 1D46     		mov	r5, r3
 505 000a 079F     		ldr	r7, [sp, #28]
 506 000c 089E     		ldr	r6, [sp, #32]
 430:Drivers/lvgl/src/draw/sw/lv_draw_sw_utils.c ****     if(LV_RESULT_OK == LV_DRAW_SW_ROTATE180_RGB888(src, dst, src_width, src_height, src_stride, dst
 507              		.loc 1 430 5 is_stmt 1 view .LVU146
 431:Drivers/lvgl/src/draw/sw/lv_draw_sw_utils.c ****         return ;
 432:Drivers/lvgl/src/draw/sw/lv_draw_sw_utils.c ****     }
 433:Drivers/lvgl/src/draw/sw/lv_draw_sw_utils.c **** 
 434:Drivers/lvgl/src/draw/sw/lv_draw_sw_utils.c ****     for(int32_t y = 0; y < height; ++y) {
 508              		.loc 1 434 5 view .LVU147
 509              	.LBB23:
 510              		.loc 1 434 9 view .LVU148
 511              	.LVL46:
 512              		.loc 1 434 17 is_stmt 0 view .LVU149
 513 000e 0022     		movs	r2, #0
 514              	.LVL47:
 515              		.loc 1 434 5 view .LVU150
 516 0010 24E0     		b	.L30
 517              	.LVL48:
 518              	.L31:
 519              	.LBB24:
 520              	.LBB25:
 435:Drivers/lvgl/src/draw/sw/lv_draw_sw_utils.c ****         for(int32_t x = 0; x < width; ++x) {
 436:Drivers/lvgl/src/draw/sw/lv_draw_sw_utils.c ****             int32_t srcIndex = y * src_stride + x * 3;
 521              		.loc 1 436 13 is_stmt 1 view .LVU151
 522              		.loc 1 436 51 is_stmt 0 view .LVU152
 523 0012 03EB430E 		add	lr, r3, r3, lsl #1
 524              		.loc 1 436 21 view .LVU153
 525 0016 07FB02EE 		mla	lr, r7, r2, lr
 526              	.LVL49:
 437:Drivers/lvgl/src/draw/sw/lv_draw_sw_utils.c ****             int32_t dstIndex = (height - y - 1) * dest_stride + (width - x - 1) * 3;
 527              		.loc 1 437 13 is_stmt 1 view .LVU154
 528              		.loc 1 437 40 is_stmt 0 view .LVU155
 529 001a A5EB0208 		sub	r8, r5, r2
 530              		.loc 1 437 44 view .LVU156
 531 001e 08F1FF38 		add	r8, r8, #-1
 532              		.loc 1 437 72 view .LVU157
 533 0022 A0EB030C 		sub	ip, r0, r3
 534              		.loc 1 437 76 view .LVU158
 535 0026 0CF1FF3C 		add	ip, ip, #-1
 536              		.loc 1 437 81 view .LVU159
 537 002a 0CEB4C0C 		add	ip, ip, ip, lsl #1
 538              		.loc 1 437 21 view .LVU160
 539 002e 06FB08CC 		mla	ip, r6, r8, ip
 540              	.LVL50:
 438:Drivers/lvgl/src/draw/sw/lv_draw_sw_utils.c ****             dst[dstIndex] = src[srcIndex];
 541              		.loc 1 438 13 is_stmt 1 view .LVU161
 542              		.loc 1 438 32 is_stmt 0 view .LVU162
 543 0032 14F80E80 		ldrb	r8, [r4, lr]	@ zero_extendqisi2
 544              		.loc 1 438 27 view .LVU163
 545 0036 01F80C80 		strb	r8, [r1, ip]
 439:Drivers/lvgl/src/draw/sw/lv_draw_sw_utils.c ****             dst[dstIndex + 1] = src[srcIndex + 1];
ARM GAS  /tmp/ccA8hacO.s 			page 19


 546              		.loc 1 439 13 is_stmt 1 view .LVU164
 547              		.loc 1 439 16 is_stmt 0 view .LVU165
 548 003a 0CF10108 		add	r8, ip, #1
 549              		.loc 1 439 36 view .LVU166
 550 003e A644     		add	lr, lr, r4
 551              	.LVL51:
 552              		.loc 1 439 36 view .LVU167
 553 0040 9EF80190 		ldrb	r9, [lr, #1]	@ zero_extendqisi2
 554              		.loc 1 439 31 view .LVU168
 555 0044 01F80890 		strb	r9, [r1, r8]
 440:Drivers/lvgl/src/draw/sw/lv_draw_sw_utils.c ****             dst[dstIndex + 2] = src[srcIndex + 2];
 556              		.loc 1 440 13 is_stmt 1 view .LVU169
 557              		.loc 1 440 16 is_stmt 0 view .LVU170
 558 0048 0CF1020C 		add	ip, ip, #2
 559              	.LVL52:
 560              		.loc 1 440 36 view .LVU171
 561 004c 9EF802E0 		ldrb	lr, [lr, #2]	@ zero_extendqisi2
 562              		.loc 1 440 31 view .LVU172
 563 0050 01F80CE0 		strb	lr, [r1, ip]
 564              	.LBE25:
 435:Drivers/lvgl/src/draw/sw/lv_draw_sw_utils.c ****             int32_t srcIndex = y * src_stride + x * 3;
 565              		.loc 1 435 39 is_stmt 1 discriminator 3 view .LVU173
 566 0054 0133     		adds	r3, r3, #1
 567              	.LVL53:
 568              	.L32:
 435:Drivers/lvgl/src/draw/sw/lv_draw_sw_utils.c ****             int32_t srcIndex = y * src_stride + x * 3;
 569              		.loc 1 435 30 discriminator 1 view .LVU174
 570 0056 8342     		cmp	r3, r0
 571 0058 DBDB     		blt	.L31
 572              	.LBE24:
 434:Drivers/lvgl/src/draw/sw/lv_draw_sw_utils.c ****         for(int32_t x = 0; x < width; ++x) {
 573              		.loc 1 434 36 discriminator 2 view .LVU175
 574 005a 0132     		adds	r2, r2, #1
 575              	.LVL54:
 576              	.L30:
 434:Drivers/lvgl/src/draw/sw/lv_draw_sw_utils.c ****         for(int32_t x = 0; x < width; ++x) {
 577              		.loc 1 434 26 discriminator 1 view .LVU176
 578 005c AA42     		cmp	r2, r5
 579 005e 01DA     		bge	.L35
 580              	.LBB26:
 435:Drivers/lvgl/src/draw/sw/lv_draw_sw_utils.c ****             int32_t srcIndex = y * src_stride + x * 3;
 581              		.loc 1 435 21 is_stmt 0 view .LVU177
 582 0060 0023     		movs	r3, #0
 583 0062 F8E7     		b	.L32
 584              	.L35:
 585              	.LBE26:
 586              	.LBE23:
 441:Drivers/lvgl/src/draw/sw/lv_draw_sw_utils.c ****         }
 442:Drivers/lvgl/src/draw/sw/lv_draw_sw_utils.c ****     }
 443:Drivers/lvgl/src/draw/sw/lv_draw_sw_utils.c **** }
 587              		.loc 1 443 1 view .LVU178
 588 0064 BDE8F083 		pop	{r4, r5, r6, r7, r8, r9, pc}
 589              		.loc 1 443 1 view .LVU179
 590              		.cfi_endproc
 591              	.LFE20:
 593              		.section	.text.rotate270_rgb888,"ax",%progbits
 594              		.align	1
ARM GAS  /tmp/ccA8hacO.s 			page 20


 595              		.syntax unified
 596              		.thumb
 597              		.thumb_func
 599              	rotate270_rgb888:
 600              	.LVL55:
 601              	.LFB21:
 444:Drivers/lvgl/src/draw/sw/lv_draw_sw_utils.c **** 
 445:Drivers/lvgl/src/draw/sw/lv_draw_sw_utils.c **** static void rotate270_rgb888(const uint8_t * src, uint8_t * dst, int32_t width, int32_t height, int
 446:Drivers/lvgl/src/draw/sw/lv_draw_sw_utils.c ****                              int32_t dst_stride)
 447:Drivers/lvgl/src/draw/sw/lv_draw_sw_utils.c **** {
 602              		.loc 1 447 1 is_stmt 1 view -0
 603              		.cfi_startproc
 604              		@ args = 8, pretend = 0, frame = 0
 605              		@ frame_needed = 0, uses_anonymous_args = 0
 606              		.loc 1 447 1 is_stmt 0 view .LVU181
 607 0000 2DE9F043 		push	{r4, r5, r6, r7, r8, r9, lr}
 608              	.LCFI5:
 609              		.cfi_def_cfa_offset 28
 610              		.cfi_offset 4, -28
 611              		.cfi_offset 5, -24
 612              		.cfi_offset 6, -20
 613              		.cfi_offset 7, -16
 614              		.cfi_offset 8, -12
 615              		.cfi_offset 9, -8
 616              		.cfi_offset 14, -4
 617 0004 0446     		mov	r4, r0
 618 0006 1646     		mov	r6, r2
 619 0008 1846     		mov	r0, r3
 620              	.LVL56:
 621              		.loc 1 447 1 view .LVU182
 622 000a 079F     		ldr	r7, [sp, #28]
 623 000c 089D     		ldr	r5, [sp, #32]
 448:Drivers/lvgl/src/draw/sw/lv_draw_sw_utils.c ****     if(LV_RESULT_OK == LV_DRAW_SW_ROTATE270_RGB888(src, dst, src_width, src_height, src_stride, dst
 624              		.loc 1 448 5 is_stmt 1 view .LVU183
 449:Drivers/lvgl/src/draw/sw/lv_draw_sw_utils.c ****         return ;
 450:Drivers/lvgl/src/draw/sw/lv_draw_sw_utils.c ****     }
 451:Drivers/lvgl/src/draw/sw/lv_draw_sw_utils.c **** 
 452:Drivers/lvgl/src/draw/sw/lv_draw_sw_utils.c ****     for(int32_t x = 0; x < width; ++x) {
 625              		.loc 1 452 5 view .LVU184
 626              	.LBB27:
 627              		.loc 1 452 9 view .LVU185
 628              	.LVL57:
 629              		.loc 1 452 17 is_stmt 0 view .LVU186
 630 000e 0022     		movs	r2, #0
 631              	.LVL58:
 632              		.loc 1 452 5 view .LVU187
 633 0010 20E0     		b	.L37
 634              	.LVL59:
 635              	.L38:
 636              	.LBB28:
 637              	.LBB29:
 453:Drivers/lvgl/src/draw/sw/lv_draw_sw_utils.c ****         for(int32_t y = 0; y < height; ++y) {
 454:Drivers/lvgl/src/draw/sw/lv_draw_sw_utils.c ****             int32_t srcIndex = y * src_stride + x * 3;
 638              		.loc 1 454 13 is_stmt 1 view .LVU188
 639              		.loc 1 454 51 is_stmt 0 view .LVU189
 640 0012 02EB420E 		add	lr, r2, r2, lsl #1
 641              		.loc 1 454 21 view .LVU190
ARM GAS  /tmp/ccA8hacO.s 			page 21


 642 0016 07FB03EE 		mla	lr, r7, r3, lr
 643              	.LVL60:
 455:Drivers/lvgl/src/draw/sw/lv_draw_sw_utils.c ****             int32_t dstIndex = x * dst_stride + (height - y - 1) * 3;
 644              		.loc 1 455 13 is_stmt 1 view .LVU191
 645              		.loc 1 455 57 is_stmt 0 view .LVU192
 646 001a A0EB030C 		sub	ip, r0, r3
 647              		.loc 1 455 61 view .LVU193
 648 001e 0CF1FF3C 		add	ip, ip, #-1
 649              		.loc 1 455 66 view .LVU194
 650 0022 0CEB4C0C 		add	ip, ip, ip, lsl #1
 651              		.loc 1 455 21 view .LVU195
 652 0026 05FB02CC 		mla	ip, r5, r2, ip
 653              	.LVL61:
 456:Drivers/lvgl/src/draw/sw/lv_draw_sw_utils.c ****             dst[dstIndex] = src[srcIndex];       /*Red*/
 654              		.loc 1 456 13 is_stmt 1 view .LVU196
 655              		.loc 1 456 32 is_stmt 0 view .LVU197
 656 002a 14F80E80 		ldrb	r8, [r4, lr]	@ zero_extendqisi2
 657              		.loc 1 456 27 view .LVU198
 658 002e 01F80C80 		strb	r8, [r1, ip]
 457:Drivers/lvgl/src/draw/sw/lv_draw_sw_utils.c ****             dst[dstIndex + 1] = src[srcIndex + 1]; /*Green*/
 659              		.loc 1 457 13 is_stmt 1 view .LVU199
 660              		.loc 1 457 16 is_stmt 0 view .LVU200
 661 0032 0CF10108 		add	r8, ip, #1
 662              		.loc 1 457 36 view .LVU201
 663 0036 A644     		add	lr, lr, r4
 664              	.LVL62:
 665              		.loc 1 457 36 view .LVU202
 666 0038 9EF80190 		ldrb	r9, [lr, #1]	@ zero_extendqisi2
 667              		.loc 1 457 31 view .LVU203
 668 003c 01F80890 		strb	r9, [r1, r8]
 458:Drivers/lvgl/src/draw/sw/lv_draw_sw_utils.c ****             dst[dstIndex + 2] = src[srcIndex + 2]; /*Blue*/
 669              		.loc 1 458 13 is_stmt 1 view .LVU204
 670              		.loc 1 458 16 is_stmt 0 view .LVU205
 671 0040 0CF1020C 		add	ip, ip, #2
 672              	.LVL63:
 673              		.loc 1 458 36 view .LVU206
 674 0044 9EF802E0 		ldrb	lr, [lr, #2]	@ zero_extendqisi2
 675              		.loc 1 458 31 view .LVU207
 676 0048 01F80CE0 		strb	lr, [r1, ip]
 677              	.LBE29:
 453:Drivers/lvgl/src/draw/sw/lv_draw_sw_utils.c ****             int32_t srcIndex = y * src_stride + x * 3;
 678              		.loc 1 453 40 is_stmt 1 discriminator 3 view .LVU208
 679 004c 0133     		adds	r3, r3, #1
 680              	.LVL64:
 681              	.L39:
 453:Drivers/lvgl/src/draw/sw/lv_draw_sw_utils.c ****             int32_t srcIndex = y * src_stride + x * 3;
 682              		.loc 1 453 30 discriminator 1 view .LVU209
 683 004e 8342     		cmp	r3, r0
 684 0050 DFDB     		blt	.L38
 685              	.LBE28:
 452:Drivers/lvgl/src/draw/sw/lv_draw_sw_utils.c ****         for(int32_t y = 0; y < height; ++y) {
 686              		.loc 1 452 35 discriminator 2 view .LVU210
 687 0052 0132     		adds	r2, r2, #1
 688              	.LVL65:
 689              	.L37:
 452:Drivers/lvgl/src/draw/sw/lv_draw_sw_utils.c ****         for(int32_t y = 0; y < height; ++y) {
 690              		.loc 1 452 26 discriminator 1 view .LVU211
ARM GAS  /tmp/ccA8hacO.s 			page 22


 691 0054 B242     		cmp	r2, r6
 692 0056 01DA     		bge	.L42
 693              	.LBB30:
 453:Drivers/lvgl/src/draw/sw/lv_draw_sw_utils.c ****             int32_t srcIndex = y * src_stride + x * 3;
 694              		.loc 1 453 21 is_stmt 0 view .LVU212
 695 0058 0023     		movs	r3, #0
 696 005a F8E7     		b	.L39
 697              	.L42:
 698              	.LBE30:
 699              	.LBE27:
 459:Drivers/lvgl/src/draw/sw/lv_draw_sw_utils.c ****         }
 460:Drivers/lvgl/src/draw/sw/lv_draw_sw_utils.c ****     }
 461:Drivers/lvgl/src/draw/sw/lv_draw_sw_utils.c **** }
 700              		.loc 1 461 1 view .LVU213
 701 005c BDE8F083 		pop	{r4, r5, r6, r7, r8, r9, pc}
 702              		.loc 1 461 1 view .LVU214
 703              		.cfi_endproc
 704              	.LFE21:
 706              		.section	.text.rotate270_rgb565,"ax",%progbits
 707              		.align	1
 708              		.syntax unified
 709              		.thumb
 710              		.thumb_func
 712              	rotate270_rgb565:
 713              	.LVL66:
 714              	.LFB22:
 462:Drivers/lvgl/src/draw/sw/lv_draw_sw_utils.c **** 
 463:Drivers/lvgl/src/draw/sw/lv_draw_sw_utils.c **** #endif
 464:Drivers/lvgl/src/draw/sw/lv_draw_sw_utils.c **** 
 465:Drivers/lvgl/src/draw/sw/lv_draw_sw_utils.c **** #if LV_DRAW_SW_SUPPORT_RGB565
 466:Drivers/lvgl/src/draw/sw/lv_draw_sw_utils.c **** 
 467:Drivers/lvgl/src/draw/sw/lv_draw_sw_utils.c **** static void rotate270_rgb565(const uint16_t * src, uint16_t * dst, int32_t src_width, int32_t src_h
 468:Drivers/lvgl/src/draw/sw/lv_draw_sw_utils.c ****                              int32_t src_stride,
 469:Drivers/lvgl/src/draw/sw/lv_draw_sw_utils.c ****                              int32_t dst_stride)
 470:Drivers/lvgl/src/draw/sw/lv_draw_sw_utils.c **** {
 715              		.loc 1 470 1 is_stmt 1 view -0
 716              		.cfi_startproc
 717              		@ args = 8, pretend = 0, frame = 0
 718              		@ frame_needed = 0, uses_anonymous_args = 0
 719              		.loc 1 470 1 is_stmt 0 view .LVU216
 720 0000 2DE9F043 		push	{r4, r5, r6, r7, r8, r9, lr}
 721              	.LCFI6:
 722              		.cfi_def_cfa_offset 28
 723              		.cfi_offset 4, -28
 724              		.cfi_offset 5, -24
 725              		.cfi_offset 6, -20
 726              		.cfi_offset 7, -16
 727              		.cfi_offset 8, -12
 728              		.cfi_offset 9, -8
 729              		.cfi_offset 14, -4
 730 0004 0646     		mov	r6, r0
 731 0006 0D46     		mov	r5, r1
 732 0008 9046     		mov	r8, r2
 733 000a 1A46     		mov	r2, r3
 734              	.LVL67:
 471:Drivers/lvgl/src/draw/sw/lv_draw_sw_utils.c ****     if(LV_RESULT_OK == LV_DRAW_SW_ROTATE270_RGB565(src, dst, src_width, src_height, src_stride, dst
 735              		.loc 1 471 5 is_stmt 1 view .LVU217
ARM GAS  /tmp/ccA8hacO.s 			page 23


 472:Drivers/lvgl/src/draw/sw/lv_draw_sw_utils.c ****         return ;
 473:Drivers/lvgl/src/draw/sw/lv_draw_sw_utils.c ****     }
 474:Drivers/lvgl/src/draw/sw/lv_draw_sw_utils.c **** 
 475:Drivers/lvgl/src/draw/sw/lv_draw_sw_utils.c ****     src_stride /= sizeof(uint16_t);
 736              		.loc 1 475 5 view .LVU218
 737              		.loc 1 475 16 is_stmt 0 view .LVU219
 738 000c 079C     		ldr	r4, [sp, #28]
 739 000e 6408     		lsrs	r4, r4, #1
 740              	.LVL68:
 476:Drivers/lvgl/src/draw/sw/lv_draw_sw_utils.c ****     dst_stride /= sizeof(uint16_t);
 741              		.loc 1 476 5 is_stmt 1 view .LVU220
 742              		.loc 1 476 16 is_stmt 0 view .LVU221
 743 0010 089B     		ldr	r3, [sp, #32]
 744              	.LVL69:
 745              		.loc 1 476 16 view .LVU222
 746 0012 4FEA5309 		lsr	r9, r3, #1
 747              	.LVL70:
 477:Drivers/lvgl/src/draw/sw/lv_draw_sw_utils.c **** 
 478:Drivers/lvgl/src/draw/sw/lv_draw_sw_utils.c ****     for(int32_t x = 0; x < src_width; ++x) {
 748              		.loc 1 478 5 is_stmt 1 view .LVU223
 749              	.LBB31:
 750              		.loc 1 478 9 view .LVU224
 751              		.loc 1 478 17 is_stmt 0 view .LVU225
 752 0016 0027     		movs	r7, #0
 753              		.loc 1 478 5 view .LVU226
 754 0018 0EE0     		b	.L44
 755              	.LVL71:
 756              	.L46:
 757              	.LBB32:
 758              	.LBB33:
 479:Drivers/lvgl/src/draw/sw/lv_draw_sw_utils.c ****         int32_t dstIndex = x * dst_stride;
 480:Drivers/lvgl/src/draw/sw/lv_draw_sw_utils.c ****         int32_t srcIndex = x;
 481:Drivers/lvgl/src/draw/sw/lv_draw_sw_utils.c ****         for(int32_t y = 0; y < src_height; ++y) {
 482:Drivers/lvgl/src/draw/sw/lv_draw_sw_utils.c ****             dst[dstIndex + (src_height - y - 1)] = src[srcIndex];
 759              		.loc 1 482 13 is_stmt 1 view .LVU227
 760              		.loc 1 482 40 is_stmt 0 view .LVU228
 761 001a A2EB0E0C 		sub	ip, r2, lr
 762              		.loc 1 482 44 view .LVU229
 763 001e 0CF1FF3C 		add	ip, ip, #-1
 764              		.loc 1 482 26 view .LVU230
 765 0022 8444     		add	ip, ip, r0
 766              		.loc 1 482 55 view .LVU231
 767 0024 36F81310 		ldrh	r1, [r6, r3, lsl #1]
 768              		.loc 1 482 50 view .LVU232
 769 0028 25F81C10 		strh	r1, [r5, ip, lsl #1]	@ movhi
 483:Drivers/lvgl/src/draw/sw/lv_draw_sw_utils.c ****             srcIndex += src_stride;
 770              		.loc 1 483 13 is_stmt 1 view .LVU233
 771              		.loc 1 483 22 is_stmt 0 view .LVU234
 772 002c 2344     		add	r3, r3, r4
 773              	.LVL72:
 481:Drivers/lvgl/src/draw/sw/lv_draw_sw_utils.c ****             dst[dstIndex + (src_height - y - 1)] = src[srcIndex];
 774              		.loc 1 481 44 is_stmt 1 discriminator 3 view .LVU235
 775 002e 0EF1010E 		add	lr, lr, #1
 776              	.LVL73:
 777              	.L45:
 481:Drivers/lvgl/src/draw/sw/lv_draw_sw_utils.c ****             dst[dstIndex + (src_height - y - 1)] = src[srcIndex];
 778              		.loc 1 481 30 discriminator 1 view .LVU236
ARM GAS  /tmp/ccA8hacO.s 			page 24


 779 0032 9645     		cmp	lr, r2
 780 0034 F1DB     		blt	.L46
 481:Drivers/lvgl/src/draw/sw/lv_draw_sw_utils.c ****             dst[dstIndex + (src_height - y - 1)] = src[srcIndex];
 781              		.loc 1 481 30 is_stmt 0 discriminator 1 view .LVU237
 782              	.LBE33:
 783              	.LBE32:
 478:Drivers/lvgl/src/draw/sw/lv_draw_sw_utils.c ****         int32_t dstIndex = x * dst_stride;
 784              		.loc 1 478 39 is_stmt 1 discriminator 2 view .LVU238
 785 0036 0137     		adds	r7, r7, #1
 786              	.LVL74:
 787              	.L44:
 478:Drivers/lvgl/src/draw/sw/lv_draw_sw_utils.c ****         int32_t dstIndex = x * dst_stride;
 788              		.loc 1 478 26 discriminator 1 view .LVU239
 789 0038 4745     		cmp	r7, r8
 790 003a 05DA     		bge	.L49
 791              	.LBB36:
 479:Drivers/lvgl/src/draw/sw/lv_draw_sw_utils.c ****         int32_t srcIndex = x;
 792              		.loc 1 479 9 view .LVU240
 479:Drivers/lvgl/src/draw/sw/lv_draw_sw_utils.c ****         int32_t srcIndex = x;
 793              		.loc 1 479 17 is_stmt 0 view .LVU241
 794 003c 09FB07F0 		mul	r0, r9, r7
 795              	.LVL75:
 480:Drivers/lvgl/src/draw/sw/lv_draw_sw_utils.c ****         for(int32_t y = 0; y < src_height; ++y) {
 796              		.loc 1 480 9 is_stmt 1 view .LVU242
 481:Drivers/lvgl/src/draw/sw/lv_draw_sw_utils.c ****             dst[dstIndex + (src_height - y - 1)] = src[srcIndex];
 797              		.loc 1 481 9 view .LVU243
 798              	.LBB34:
 481:Drivers/lvgl/src/draw/sw/lv_draw_sw_utils.c ****             dst[dstIndex + (src_height - y - 1)] = src[srcIndex];
 799              		.loc 1 481 13 view .LVU244
 481:Drivers/lvgl/src/draw/sw/lv_draw_sw_utils.c ****             dst[dstIndex + (src_height - y - 1)] = src[srcIndex];
 800              		.loc 1 481 13 is_stmt 0 view .LVU245
 801              	.LBE34:
 480:Drivers/lvgl/src/draw/sw/lv_draw_sw_utils.c ****         for(int32_t y = 0; y < src_height; ++y) {
 802              		.loc 1 480 17 view .LVU246
 803 0040 3B46     		mov	r3, r7
 804              	.LBB35:
 481:Drivers/lvgl/src/draw/sw/lv_draw_sw_utils.c ****             dst[dstIndex + (src_height - y - 1)] = src[srcIndex];
 805              		.loc 1 481 21 view .LVU247
 806 0042 4FF0000E 		mov	lr, #0
 481:Drivers/lvgl/src/draw/sw/lv_draw_sw_utils.c ****             dst[dstIndex + (src_height - y - 1)] = src[srcIndex];
 807              		.loc 1 481 9 view .LVU248
 808 0046 F4E7     		b	.L45
 809              	.LVL76:
 810              	.L49:
 481:Drivers/lvgl/src/draw/sw/lv_draw_sw_utils.c ****             dst[dstIndex + (src_height - y - 1)] = src[srcIndex];
 811              		.loc 1 481 9 view .LVU249
 812              	.LBE35:
 813              	.LBE36:
 814              	.LBE31:
 484:Drivers/lvgl/src/draw/sw/lv_draw_sw_utils.c ****         }
 485:Drivers/lvgl/src/draw/sw/lv_draw_sw_utils.c ****     }
 486:Drivers/lvgl/src/draw/sw/lv_draw_sw_utils.c **** }
 815              		.loc 1 486 1 view .LVU250
 816 0048 BDE8F083 		pop	{r4, r5, r6, r7, r8, r9, pc}
 817              		.loc 1 486 1 view .LVU251
 818              		.cfi_endproc
 819              	.LFE22:
ARM GAS  /tmp/ccA8hacO.s 			page 25


 821              		.section	.text.rotate180_rgb565,"ax",%progbits
 822              		.align	1
 823              		.syntax unified
 824              		.thumb
 825              		.thumb_func
 827              	rotate180_rgb565:
 828              	.LVL77:
 829              	.LFB23:
 487:Drivers/lvgl/src/draw/sw/lv_draw_sw_utils.c **** 
 488:Drivers/lvgl/src/draw/sw/lv_draw_sw_utils.c **** static void rotate180_rgb565(const uint16_t * src, uint16_t * dst, int32_t width, int32_t height, i
 489:Drivers/lvgl/src/draw/sw/lv_draw_sw_utils.c ****                              int32_t dest_stride)
 490:Drivers/lvgl/src/draw/sw/lv_draw_sw_utils.c **** {
 830              		.loc 1 490 1 is_stmt 1 view -0
 831              		.cfi_startproc
 832              		@ args = 8, pretend = 0, frame = 0
 833              		@ frame_needed = 0, uses_anonymous_args = 0
 834              		.loc 1 490 1 is_stmt 0 view .LVU253
 835 0000 2DE9F047 		push	{r4, r5, r6, r7, r8, r9, r10, lr}
 836              	.LCFI7:
 837              		.cfi_def_cfa_offset 32
 838              		.cfi_offset 4, -32
 839              		.cfi_offset 5, -28
 840              		.cfi_offset 6, -24
 841              		.cfi_offset 7, -20
 842              		.cfi_offset 8, -16
 843              		.cfi_offset 9, -12
 844              		.cfi_offset 10, -8
 845              		.cfi_offset 14, -4
 846 0004 0546     		mov	r5, r0
 847 0006 0C46     		mov	r4, r1
 848 0008 1F46     		mov	r7, r3
 491:Drivers/lvgl/src/draw/sw/lv_draw_sw_utils.c ****     if(LV_RESULT_OK == LV_DRAW_SW_ROTATE180_RGB565(src, dst, width, height, src_stride)) {
 849              		.loc 1 491 5 is_stmt 1 view .LVU254
 492:Drivers/lvgl/src/draw/sw/lv_draw_sw_utils.c ****         return ;
 493:Drivers/lvgl/src/draw/sw/lv_draw_sw_utils.c ****     }
 494:Drivers/lvgl/src/draw/sw/lv_draw_sw_utils.c **** 
 495:Drivers/lvgl/src/draw/sw/lv_draw_sw_utils.c ****     src_stride /= sizeof(uint16_t);
 850              		.loc 1 495 5 view .LVU255
 851              		.loc 1 495 16 is_stmt 0 view .LVU256
 852 000a 089B     		ldr	r3, [sp, #32]
 853              	.LVL78:
 854              		.loc 1 495 16 view .LVU257
 855 000c 4FEA5309 		lsr	r9, r3, #1
 856              	.LVL79:
 496:Drivers/lvgl/src/draw/sw/lv_draw_sw_utils.c ****     dest_stride /= sizeof(uint16_t);
 857              		.loc 1 496 5 is_stmt 1 view .LVU258
 858              		.loc 1 496 17 is_stmt 0 view .LVU259
 859 0010 099B     		ldr	r3, [sp, #36]
 860 0012 4FEA5308 		lsr	r8, r3, #1
 861              	.LVL80:
 497:Drivers/lvgl/src/draw/sw/lv_draw_sw_utils.c **** 
 498:Drivers/lvgl/src/draw/sw/lv_draw_sw_utils.c ****     for(int32_t y = 0; y < height; ++y) {
 862              		.loc 1 498 5 is_stmt 1 view .LVU260
 863              	.LBB37:
 864              		.loc 1 498 9 view .LVU261
 865              		.loc 1 498 17 is_stmt 0 view .LVU262
 866 0016 0026     		movs	r6, #0
ARM GAS  /tmp/ccA8hacO.s 			page 26


 867              		.loc 1 498 5 view .LVU263
 868 0018 10E0     		b	.L51
 869              	.LVL81:
 870              	.L53:
 871              	.LBB38:
 872              	.LBB39:
 499:Drivers/lvgl/src/draw/sw/lv_draw_sw_utils.c ****         int32_t dstIndex = (height - y - 1) * dest_stride;
 500:Drivers/lvgl/src/draw/sw/lv_draw_sw_utils.c ****         int32_t srcIndex = y * src_stride;
 501:Drivers/lvgl/src/draw/sw/lv_draw_sw_utils.c ****         for(int32_t x = 0; x < width; ++x) {
 502:Drivers/lvgl/src/draw/sw/lv_draw_sw_utils.c ****             dst[dstIndex + width - x - 1] = src[srcIndex + x];
 873              		.loc 1 502 13 is_stmt 1 view .LVU264
 874              		.loc 1 502 58 is_stmt 0 view .LVU265
 875 001a 0CEB000A 		add	r10, ip, r0
 876              		.loc 1 502 26 view .LVU266
 877 001e 8B18     		adds	r3, r1, r2
 878              		.loc 1 502 34 view .LVU267
 879 0020 A3EB0C03 		sub	r3, r3, ip
 880              		.loc 1 502 16 view .LVU268
 881 0024 6FF0004E 		mvn	lr, #-2147483648
 882 0028 9E44     		add	lr, lr, r3
 883              		.loc 1 502 48 view .LVU269
 884 002a 35F81A30 		ldrh	r3, [r5, r10, lsl #1]
 885              		.loc 1 502 43 view .LVU270
 886 002e 24F81E30 		strh	r3, [r4, lr, lsl #1]	@ movhi
 501:Drivers/lvgl/src/draw/sw/lv_draw_sw_utils.c ****             dst[dstIndex + width - x - 1] = src[srcIndex + x];
 887              		.loc 1 501 39 is_stmt 1 discriminator 3 view .LVU271
 888 0032 0CF1010C 		add	ip, ip, #1
 889              	.LVL82:
 890              	.L52:
 501:Drivers/lvgl/src/draw/sw/lv_draw_sw_utils.c ****             dst[dstIndex + width - x - 1] = src[srcIndex + x];
 891              		.loc 1 501 30 discriminator 1 view .LVU272
 892 0036 9445     		cmp	ip, r2
 893 0038 EFDB     		blt	.L53
 894              	.LBE39:
 895              	.LBE38:
 498:Drivers/lvgl/src/draw/sw/lv_draw_sw_utils.c ****         int32_t dstIndex = (height - y - 1) * dest_stride;
 896              		.loc 1 498 36 discriminator 2 view .LVU273
 897 003a 0136     		adds	r6, r6, #1
 898              	.LVL83:
 899              	.L51:
 498:Drivers/lvgl/src/draw/sw/lv_draw_sw_utils.c ****         int32_t dstIndex = (height - y - 1) * dest_stride;
 900              		.loc 1 498 26 discriminator 1 view .LVU274
 901 003c BE42     		cmp	r6, r7
 902 003e 08DA     		bge	.L56
 903              	.LBB41:
 499:Drivers/lvgl/src/draw/sw/lv_draw_sw_utils.c ****         int32_t dstIndex = (height - y - 1) * dest_stride;
 904              		.loc 1 499 9 view .LVU275
 499:Drivers/lvgl/src/draw/sw/lv_draw_sw_utils.c ****         int32_t dstIndex = (height - y - 1) * dest_stride;
 905              		.loc 1 499 36 is_stmt 0 view .LVU276
 906 0040 B91B     		subs	r1, r7, r6
 499:Drivers/lvgl/src/draw/sw/lv_draw_sw_utils.c ****         int32_t dstIndex = (height - y - 1) * dest_stride;
 907              		.loc 1 499 40 view .LVU277
 908 0042 0139     		subs	r1, r1, #1
 499:Drivers/lvgl/src/draw/sw/lv_draw_sw_utils.c ****         int32_t dstIndex = (height - y - 1) * dest_stride;
 909              		.loc 1 499 17 view .LVU278
 910 0044 08FB01F1 		mul	r1, r8, r1
 911              	.LVL84:
ARM GAS  /tmp/ccA8hacO.s 			page 27


 500:Drivers/lvgl/src/draw/sw/lv_draw_sw_utils.c ****         for(int32_t x = 0; x < width; ++x) {
 912              		.loc 1 500 9 is_stmt 1 view .LVU279
 500:Drivers/lvgl/src/draw/sw/lv_draw_sw_utils.c ****         for(int32_t x = 0; x < width; ++x) {
 913              		.loc 1 500 17 is_stmt 0 view .LVU280
 914 0048 09FB06F0 		mul	r0, r9, r6
 915              	.LVL85:
 501:Drivers/lvgl/src/draw/sw/lv_draw_sw_utils.c ****             dst[dstIndex + width - x - 1] = src[srcIndex + x];
 916              		.loc 1 501 9 is_stmt 1 view .LVU281
 917              	.LBB40:
 501:Drivers/lvgl/src/draw/sw/lv_draw_sw_utils.c ****             dst[dstIndex + width - x - 1] = src[srcIndex + x];
 918              		.loc 1 501 13 view .LVU282
 501:Drivers/lvgl/src/draw/sw/lv_draw_sw_utils.c ****             dst[dstIndex + width - x - 1] = src[srcIndex + x];
 919              		.loc 1 501 21 is_stmt 0 view .LVU283
 920 004c 4FF0000C 		mov	ip, #0
 501:Drivers/lvgl/src/draw/sw/lv_draw_sw_utils.c ****             dst[dstIndex + width - x - 1] = src[srcIndex + x];
 921              		.loc 1 501 9 view .LVU284
 922 0050 F1E7     		b	.L52
 923              	.LVL86:
 924              	.L56:
 501:Drivers/lvgl/src/draw/sw/lv_draw_sw_utils.c ****             dst[dstIndex + width - x - 1] = src[srcIndex + x];
 925              		.loc 1 501 9 view .LVU285
 926              	.LBE40:
 927              	.LBE41:
 928              	.LBE37:
 503:Drivers/lvgl/src/draw/sw/lv_draw_sw_utils.c ****         }
 504:Drivers/lvgl/src/draw/sw/lv_draw_sw_utils.c ****     }
 505:Drivers/lvgl/src/draw/sw/lv_draw_sw_utils.c **** }
 929              		.loc 1 505 1 view .LVU286
 930 0052 BDE8F087 		pop	{r4, r5, r6, r7, r8, r9, r10, pc}
 931              		.loc 1 505 1 view .LVU287
 932              		.cfi_endproc
 933              	.LFE23:
 935              		.section	.text.rotate90_rgb565,"ax",%progbits
 936              		.align	1
 937              		.syntax unified
 938              		.thumb
 939              		.thumb_func
 941              	rotate90_rgb565:
 942              	.LVL87:
 943              	.LFB24:
 506:Drivers/lvgl/src/draw/sw/lv_draw_sw_utils.c **** 
 507:Drivers/lvgl/src/draw/sw/lv_draw_sw_utils.c **** static void rotate90_rgb565(const uint16_t * src, uint16_t * dst, int32_t src_width, int32_t src_he
 508:Drivers/lvgl/src/draw/sw/lv_draw_sw_utils.c ****                             int32_t src_stride,
 509:Drivers/lvgl/src/draw/sw/lv_draw_sw_utils.c ****                             int32_t dst_stride)
 510:Drivers/lvgl/src/draw/sw/lv_draw_sw_utils.c **** {
 944              		.loc 1 510 1 is_stmt 1 view -0
 945              		.cfi_startproc
 946              		@ args = 8, pretend = 0, frame = 0
 947              		@ frame_needed = 0, uses_anonymous_args = 0
 948              		.loc 1 510 1 is_stmt 0 view .LVU289
 949 0000 2DE9F043 		push	{r4, r5, r6, r7, r8, r9, lr}
 950              	.LCFI8:
 951              		.cfi_def_cfa_offset 28
 952              		.cfi_offset 4, -28
 953              		.cfi_offset 5, -24
 954              		.cfi_offset 6, -20
 955              		.cfi_offset 7, -16
ARM GAS  /tmp/ccA8hacO.s 			page 28


 956              		.cfi_offset 8, -12
 957              		.cfi_offset 9, -8
 958              		.cfi_offset 14, -4
 959 0004 0646     		mov	r6, r0
 960 0006 0F46     		mov	r7, r1
 961 0008 9046     		mov	r8, r2
 962 000a 1846     		mov	r0, r3
 963              	.LVL88:
 511:Drivers/lvgl/src/draw/sw/lv_draw_sw_utils.c ****     if(LV_RESULT_OK == LV_DRAW_SW_ROTATE90_RGB565(src, dst, src_width, src_height, src_stride, dst_
 964              		.loc 1 511 5 is_stmt 1 view .LVU290
 512:Drivers/lvgl/src/draw/sw/lv_draw_sw_utils.c ****         return ;
 513:Drivers/lvgl/src/draw/sw/lv_draw_sw_utils.c ****     }
 514:Drivers/lvgl/src/draw/sw/lv_draw_sw_utils.c **** 
 515:Drivers/lvgl/src/draw/sw/lv_draw_sw_utils.c ****     src_stride /= sizeof(uint16_t);
 965              		.loc 1 515 5 view .LVU291
 966              		.loc 1 515 16 is_stmt 0 view .LVU292
 967 000c 079D     		ldr	r5, [sp, #28]
 968 000e 6D08     		lsrs	r5, r5, #1
 969              	.LVL89:
 516:Drivers/lvgl/src/draw/sw/lv_draw_sw_utils.c ****     dst_stride /= sizeof(uint16_t);
 970              		.loc 1 516 5 is_stmt 1 view .LVU293
 971              		.loc 1 516 16 is_stmt 0 view .LVU294
 972 0010 089C     		ldr	r4, [sp, #32]
 973 0012 6408     		lsrs	r4, r4, #1
 974              	.LVL90:
 517:Drivers/lvgl/src/draw/sw/lv_draw_sw_utils.c **** 
 518:Drivers/lvgl/src/draw/sw/lv_draw_sw_utils.c ****     for(int32_t x = 0; x < src_width; ++x) {
 975              		.loc 1 518 5 is_stmt 1 view .LVU295
 976              	.LBB42:
 977              		.loc 1 518 9 view .LVU296
 978              		.loc 1 518 17 is_stmt 0 view .LVU297
 979 0014 4FF00009 		mov	r9, #0
 980              		.loc 1 518 5 view .LVU298
 981 0018 0CE0     		b	.L58
 982              	.LVL91:
 983              	.L60:
 984              	.LBB43:
 985              	.LBB44:
 519:Drivers/lvgl/src/draw/sw/lv_draw_sw_utils.c ****         int32_t dstIndex = (src_width - x - 1);
 520:Drivers/lvgl/src/draw/sw/lv_draw_sw_utils.c ****         int32_t srcIndex = x;
 521:Drivers/lvgl/src/draw/sw/lv_draw_sw_utils.c ****         for(int32_t y = 0; y < src_height; ++y) {
 522:Drivers/lvgl/src/draw/sw/lv_draw_sw_utils.c ****             dst[dstIndex * dst_stride + y] = src[srcIndex];
 986              		.loc 1 522 13 is_stmt 1 view .LVU299
 987              		.loc 1 522 39 is_stmt 0 view .LVU300
 988 001a 01FB04C3 		mla	r3, r1, r4, ip
 989              		.loc 1 522 49 view .LVU301
 990 001e 36F81E20 		ldrh	r2, [r6, lr, lsl #1]
 991              		.loc 1 522 44 view .LVU302
 992 0022 27F81320 		strh	r2, [r7, r3, lsl #1]	@ movhi
 523:Drivers/lvgl/src/draw/sw/lv_draw_sw_utils.c ****             srcIndex += src_stride;
 993              		.loc 1 523 13 is_stmt 1 view .LVU303
 994              		.loc 1 523 22 is_stmt 0 view .LVU304
 995 0026 AE44     		add	lr, lr, r5
 996              	.LVL92:
 521:Drivers/lvgl/src/draw/sw/lv_draw_sw_utils.c ****             dst[dstIndex * dst_stride + y] = src[srcIndex];
 997              		.loc 1 521 44 is_stmt 1 discriminator 3 view .LVU305
 998 0028 0CF1010C 		add	ip, ip, #1
ARM GAS  /tmp/ccA8hacO.s 			page 29


 999              	.LVL93:
 1000              	.L59:
 521:Drivers/lvgl/src/draw/sw/lv_draw_sw_utils.c ****             dst[dstIndex * dst_stride + y] = src[srcIndex];
 1001              		.loc 1 521 30 discriminator 1 view .LVU306
 1002 002c 8445     		cmp	ip, r0
 1003 002e F4DB     		blt	.L60
 521:Drivers/lvgl/src/draw/sw/lv_draw_sw_utils.c ****             dst[dstIndex * dst_stride + y] = src[srcIndex];
 1004              		.loc 1 521 30 is_stmt 0 discriminator 1 view .LVU307
 1005              	.LBE44:
 1006              	.LBE43:
 518:Drivers/lvgl/src/draw/sw/lv_draw_sw_utils.c ****         int32_t dstIndex = (src_width - x - 1);
 1007              		.loc 1 518 39 is_stmt 1 discriminator 2 view .LVU308
 1008 0030 09F10109 		add	r9, r9, #1
 1009              	.LVL94:
 1010              	.L58:
 518:Drivers/lvgl/src/draw/sw/lv_draw_sw_utils.c ****         int32_t dstIndex = (src_width - x - 1);
 1011              		.loc 1 518 26 discriminator 1 view .LVU309
 1012 0034 C145     		cmp	r9, r8
 1013 0036 06DA     		bge	.L63
 1014              	.LBB47:
 519:Drivers/lvgl/src/draw/sw/lv_draw_sw_utils.c ****         int32_t srcIndex = x;
 1015              		.loc 1 519 9 view .LVU310
 519:Drivers/lvgl/src/draw/sw/lv_draw_sw_utils.c ****         int32_t srcIndex = x;
 1016              		.loc 1 519 39 is_stmt 0 view .LVU311
 1017 0038 A8EB0901 		sub	r1, r8, r9
 519:Drivers/lvgl/src/draw/sw/lv_draw_sw_utils.c ****         int32_t srcIndex = x;
 1018              		.loc 1 519 17 view .LVU312
 1019 003c 0139     		subs	r1, r1, #1
 1020              	.LVL95:
 520:Drivers/lvgl/src/draw/sw/lv_draw_sw_utils.c ****         for(int32_t y = 0; y < src_height; ++y) {
 1021              		.loc 1 520 9 is_stmt 1 view .LVU313
 521:Drivers/lvgl/src/draw/sw/lv_draw_sw_utils.c ****             dst[dstIndex * dst_stride + y] = src[srcIndex];
 1022              		.loc 1 521 9 view .LVU314
 1023              	.LBB45:
 521:Drivers/lvgl/src/draw/sw/lv_draw_sw_utils.c ****             dst[dstIndex * dst_stride + y] = src[srcIndex];
 1024              		.loc 1 521 13 view .LVU315
 521:Drivers/lvgl/src/draw/sw/lv_draw_sw_utils.c ****             dst[dstIndex * dst_stride + y] = src[srcIndex];
 1025              		.loc 1 521 13 is_stmt 0 view .LVU316
 1026              	.LBE45:
 520:Drivers/lvgl/src/draw/sw/lv_draw_sw_utils.c ****         for(int32_t y = 0; y < src_height; ++y) {
 1027              		.loc 1 520 17 view .LVU317
 1028 003e CE46     		mov	lr, r9
 1029              	.LBB46:
 521:Drivers/lvgl/src/draw/sw/lv_draw_sw_utils.c ****             dst[dstIndex * dst_stride + y] = src[srcIndex];
 1030              		.loc 1 521 21 view .LVU318
 1031 0040 4FF0000C 		mov	ip, #0
 521:Drivers/lvgl/src/draw/sw/lv_draw_sw_utils.c ****             dst[dstIndex * dst_stride + y] = src[srcIndex];
 1032              		.loc 1 521 9 view .LVU319
 1033 0044 F2E7     		b	.L59
 1034              	.LVL96:
 1035              	.L63:
 521:Drivers/lvgl/src/draw/sw/lv_draw_sw_utils.c ****             dst[dstIndex * dst_stride + y] = src[srcIndex];
 1036              		.loc 1 521 9 view .LVU320
 1037              	.LBE46:
 1038              	.LBE47:
 1039              	.LBE42:
 524:Drivers/lvgl/src/draw/sw/lv_draw_sw_utils.c ****         }
ARM GAS  /tmp/ccA8hacO.s 			page 30


 525:Drivers/lvgl/src/draw/sw/lv_draw_sw_utils.c ****     }
 526:Drivers/lvgl/src/draw/sw/lv_draw_sw_utils.c **** }
 1040              		.loc 1 526 1 view .LVU321
 1041 0046 BDE8F083 		pop	{r4, r5, r6, r7, r8, r9, pc}
 1042              		.loc 1 526 1 view .LVU322
 1043              		.cfi_endproc
 1044              	.LFE24:
 1046              		.section	.text.rotate90_l8,"ax",%progbits
 1047              		.align	1
 1048              		.syntax unified
 1049              		.thumb
 1050              		.thumb_func
 1052              	rotate90_l8:
 1053              	.LVL97:
 1054              	.LFB25:
 527:Drivers/lvgl/src/draw/sw/lv_draw_sw_utils.c **** 
 528:Drivers/lvgl/src/draw/sw/lv_draw_sw_utils.c **** #endif
 529:Drivers/lvgl/src/draw/sw/lv_draw_sw_utils.c **** 
 530:Drivers/lvgl/src/draw/sw/lv_draw_sw_utils.c **** 
 531:Drivers/lvgl/src/draw/sw/lv_draw_sw_utils.c **** #if LV_DRAW_SW_SUPPORT_L8
 532:Drivers/lvgl/src/draw/sw/lv_draw_sw_utils.c **** 
 533:Drivers/lvgl/src/draw/sw/lv_draw_sw_utils.c **** static void rotate90_l8(const uint8_t * src, uint8_t * dst, int32_t src_width, int32_t src_height,
 534:Drivers/lvgl/src/draw/sw/lv_draw_sw_utils.c ****                         int32_t src_stride,
 535:Drivers/lvgl/src/draw/sw/lv_draw_sw_utils.c ****                         int32_t dst_stride)
 536:Drivers/lvgl/src/draw/sw/lv_draw_sw_utils.c **** {
 1055              		.loc 1 536 1 is_stmt 1 view -0
 1056              		.cfi_startproc
 1057              		@ args = 8, pretend = 0, frame = 0
 1058              		@ frame_needed = 0, uses_anonymous_args = 0
 1059              		.loc 1 536 1 is_stmt 0 view .LVU324
 1060 0000 2DE9F043 		push	{r4, r5, r6, r7, r8, r9, lr}
 1061              	.LCFI9:
 1062              		.cfi_def_cfa_offset 28
 1063              		.cfi_offset 4, -28
 1064              		.cfi_offset 5, -24
 1065              		.cfi_offset 6, -20
 1066              		.cfi_offset 7, -16
 1067              		.cfi_offset 8, -12
 1068              		.cfi_offset 9, -8
 1069              		.cfi_offset 14, -4
 1070 0004 0546     		mov	r5, r0
 1071 0006 0C46     		mov	r4, r1
 1072 0008 9046     		mov	r8, r2
 1073 000a 079F     		ldr	r7, [sp, #28]
 1074 000c 089E     		ldr	r6, [sp, #32]
 537:Drivers/lvgl/src/draw/sw/lv_draw_sw_utils.c ****     if(LV_RESULT_OK == LV_DRAW_SW_ROTATE90_L8(src, dst, src_width, src_height, src_stride, dst_stri
 1075              		.loc 1 537 5 is_stmt 1 view .LVU325
 538:Drivers/lvgl/src/draw/sw/lv_draw_sw_utils.c ****         return ;
 539:Drivers/lvgl/src/draw/sw/lv_draw_sw_utils.c ****     }
 540:Drivers/lvgl/src/draw/sw/lv_draw_sw_utils.c **** 
 541:Drivers/lvgl/src/draw/sw/lv_draw_sw_utils.c ****     for(int32_t x = 0; x < src_width; ++x) {
 1076              		.loc 1 541 5 view .LVU326
 1077              	.LBB48:
 1078              		.loc 1 541 9 view .LVU327
 1079              	.LVL98:
 1080              		.loc 1 541 17 is_stmt 0 view .LVU328
 1081 000e 4FF00009 		mov	r9, #0
ARM GAS  /tmp/ccA8hacO.s 			page 31


 1082              		.loc 1 541 5 view .LVU329
 1083 0012 0BE0     		b	.L65
 1084              	.LVL99:
 1085              	.L67:
 1086              	.LBB49:
 1087              	.LBB50:
 542:Drivers/lvgl/src/draw/sw/lv_draw_sw_utils.c ****         int32_t dstIndex = (src_width - x - 1);
 543:Drivers/lvgl/src/draw/sw/lv_draw_sw_utils.c ****         int32_t srcIndex = x;
 544:Drivers/lvgl/src/draw/sw/lv_draw_sw_utils.c ****         for(int32_t y = 0; y < src_height; ++y) {
 545:Drivers/lvgl/src/draw/sw/lv_draw_sw_utils.c ****             dst[dstIndex * dst_stride + y] = src[srcIndex];
 1088              		.loc 1 545 13 is_stmt 1 view .LVU330
 1089              		.loc 1 545 39 is_stmt 0 view .LVU331
 1090 0014 06FB00C2 		mla	r2, r6, r0, ip
 1091              		.loc 1 545 49 view .LVU332
 1092 0018 15F80E10 		ldrb	r1, [r5, lr]	@ zero_extendqisi2
 1093              		.loc 1 545 44 view .LVU333
 1094 001c A154     		strb	r1, [r4, r2]
 546:Drivers/lvgl/src/draw/sw/lv_draw_sw_utils.c ****             srcIndex += src_stride;
 1095              		.loc 1 546 13 is_stmt 1 view .LVU334
 1096              		.loc 1 546 22 is_stmt 0 view .LVU335
 1097 001e BE44     		add	lr, lr, r7
 1098              	.LVL100:
 544:Drivers/lvgl/src/draw/sw/lv_draw_sw_utils.c ****             dst[dstIndex * dst_stride + y] = src[srcIndex];
 1099              		.loc 1 544 44 is_stmt 1 discriminator 3 view .LVU336
 1100 0020 0CF1010C 		add	ip, ip, #1
 1101              	.LVL101:
 1102              	.L66:
 544:Drivers/lvgl/src/draw/sw/lv_draw_sw_utils.c ****             dst[dstIndex * dst_stride + y] = src[srcIndex];
 1103              		.loc 1 544 30 discriminator 1 view .LVU337
 1104 0024 9C45     		cmp	ip, r3
 1105 0026 F5DB     		blt	.L67
 544:Drivers/lvgl/src/draw/sw/lv_draw_sw_utils.c ****             dst[dstIndex * dst_stride + y] = src[srcIndex];
 1106              		.loc 1 544 30 is_stmt 0 discriminator 1 view .LVU338
 1107              	.LBE50:
 1108              	.LBE49:
 541:Drivers/lvgl/src/draw/sw/lv_draw_sw_utils.c ****         int32_t dstIndex = (src_width - x - 1);
 1109              		.loc 1 541 39 is_stmt 1 discriminator 2 view .LVU339
 1110 0028 09F10109 		add	r9, r9, #1
 1111              	.LVL102:
 1112              	.L65:
 541:Drivers/lvgl/src/draw/sw/lv_draw_sw_utils.c ****         int32_t dstIndex = (src_width - x - 1);
 1113              		.loc 1 541 26 discriminator 1 view .LVU340
 1114 002c C145     		cmp	r9, r8
 1115 002e 06DA     		bge	.L70
 1116              	.LBB53:
 542:Drivers/lvgl/src/draw/sw/lv_draw_sw_utils.c ****         int32_t srcIndex = x;
 1117              		.loc 1 542 9 view .LVU341
 542:Drivers/lvgl/src/draw/sw/lv_draw_sw_utils.c ****         int32_t srcIndex = x;
 1118              		.loc 1 542 39 is_stmt 0 view .LVU342
 1119 0030 A8EB0900 		sub	r0, r8, r9
 542:Drivers/lvgl/src/draw/sw/lv_draw_sw_utils.c ****         int32_t srcIndex = x;
 1120              		.loc 1 542 17 view .LVU343
 1121 0034 0138     		subs	r0, r0, #1
 1122              	.LVL103:
 543:Drivers/lvgl/src/draw/sw/lv_draw_sw_utils.c ****         for(int32_t y = 0; y < src_height; ++y) {
 1123              		.loc 1 543 9 is_stmt 1 view .LVU344
 544:Drivers/lvgl/src/draw/sw/lv_draw_sw_utils.c ****             dst[dstIndex * dst_stride + y] = src[srcIndex];
ARM GAS  /tmp/ccA8hacO.s 			page 32


 1124              		.loc 1 544 9 view .LVU345
 1125              	.LBB51:
 544:Drivers/lvgl/src/draw/sw/lv_draw_sw_utils.c ****             dst[dstIndex * dst_stride + y] = src[srcIndex];
 1126              		.loc 1 544 13 view .LVU346
 544:Drivers/lvgl/src/draw/sw/lv_draw_sw_utils.c ****             dst[dstIndex * dst_stride + y] = src[srcIndex];
 1127              		.loc 1 544 13 is_stmt 0 view .LVU347
 1128              	.LBE51:
 543:Drivers/lvgl/src/draw/sw/lv_draw_sw_utils.c ****         for(int32_t y = 0; y < src_height; ++y) {
 1129              		.loc 1 543 17 view .LVU348
 1130 0036 CE46     		mov	lr, r9
 1131              	.LBB52:
 544:Drivers/lvgl/src/draw/sw/lv_draw_sw_utils.c ****             dst[dstIndex * dst_stride + y] = src[srcIndex];
 1132              		.loc 1 544 21 view .LVU349
 1133 0038 4FF0000C 		mov	ip, #0
 544:Drivers/lvgl/src/draw/sw/lv_draw_sw_utils.c ****             dst[dstIndex * dst_stride + y] = src[srcIndex];
 1134              		.loc 1 544 9 view .LVU350
 1135 003c F2E7     		b	.L66
 1136              	.LVL104:
 1137              	.L70:
 544:Drivers/lvgl/src/draw/sw/lv_draw_sw_utils.c ****             dst[dstIndex * dst_stride + y] = src[srcIndex];
 1138              		.loc 1 544 9 view .LVU351
 1139              	.LBE52:
 1140              	.LBE53:
 1141              	.LBE48:
 547:Drivers/lvgl/src/draw/sw/lv_draw_sw_utils.c ****         }
 548:Drivers/lvgl/src/draw/sw/lv_draw_sw_utils.c ****     }
 549:Drivers/lvgl/src/draw/sw/lv_draw_sw_utils.c **** }
 1142              		.loc 1 549 1 view .LVU352
 1143 003e BDE8F083 		pop	{r4, r5, r6, r7, r8, r9, pc}
 1144              		.loc 1 549 1 view .LVU353
 1145              		.cfi_endproc
 1146              	.LFE25:
 1148              		.section	.text.rotate180_l8,"ax",%progbits
 1149              		.align	1
 1150              		.syntax unified
 1151              		.thumb
 1152              		.thumb_func
 1154              	rotate180_l8:
 1155              	.LVL105:
 1156              	.LFB26:
 550:Drivers/lvgl/src/draw/sw/lv_draw_sw_utils.c **** 
 551:Drivers/lvgl/src/draw/sw/lv_draw_sw_utils.c **** static void rotate180_l8(const uint8_t * src, uint8_t * dst, int32_t width, int32_t height, int32_t
 552:Drivers/lvgl/src/draw/sw/lv_draw_sw_utils.c ****                          int32_t dest_stride)
 553:Drivers/lvgl/src/draw/sw/lv_draw_sw_utils.c **** {
 1157              		.loc 1 553 1 is_stmt 1 view -0
 1158              		.cfi_startproc
 1159              		@ args = 8, pretend = 0, frame = 0
 1160              		@ frame_needed = 0, uses_anonymous_args = 0
 1161              		.loc 1 553 1 is_stmt 0 view .LVU355
 1162 0000 2DE9F043 		push	{r4, r5, r6, r7, r8, r9, lr}
 1163              	.LCFI10:
 1164              		.cfi_def_cfa_offset 28
 1165              		.cfi_offset 4, -28
 1166              		.cfi_offset 5, -24
 1167              		.cfi_offset 6, -20
 1168              		.cfi_offset 7, -16
 1169              		.cfi_offset 8, -12
ARM GAS  /tmp/ccA8hacO.s 			page 33


 1170              		.cfi_offset 9, -8
 1171              		.cfi_offset 14, -4
 1172 0004 0546     		mov	r5, r0
 1173 0006 0C46     		mov	r4, r1
 1174 0008 1F46     		mov	r7, r3
 1175 000a DDF81C90 		ldr	r9, [sp, #28]
 1176 000e DDF82080 		ldr	r8, [sp, #32]
 554:Drivers/lvgl/src/draw/sw/lv_draw_sw_utils.c ****     if(LV_RESULT_OK == LV_DRAW_SW_ROTATE180_L8(src, dst, width, height, src_stride)) {
 1177              		.loc 1 554 5 is_stmt 1 view .LVU356
 555:Drivers/lvgl/src/draw/sw/lv_draw_sw_utils.c ****         return ;
 556:Drivers/lvgl/src/draw/sw/lv_draw_sw_utils.c ****     }
 557:Drivers/lvgl/src/draw/sw/lv_draw_sw_utils.c **** 
 558:Drivers/lvgl/src/draw/sw/lv_draw_sw_utils.c ****     for(int32_t y = 0; y < height; ++y) {
 1178              		.loc 1 558 5 view .LVU357
 1179              	.LBB54:
 1180              		.loc 1 558 9 view .LVU358
 1181              	.LVL106:
 1182              		.loc 1 558 17 is_stmt 0 view .LVU359
 1183 0012 0026     		movs	r6, #0
 1184              		.loc 1 558 5 view .LVU360
 1185 0014 0FE0     		b	.L72
 1186              	.LVL107:
 1187              	.L74:
 1188              	.LBB55:
 1189              	.LBB56:
 559:Drivers/lvgl/src/draw/sw/lv_draw_sw_utils.c ****         int32_t dstIndex = (height - y - 1) * dest_stride;
 560:Drivers/lvgl/src/draw/sw/lv_draw_sw_utils.c ****         int32_t srcIndex = y * src_stride;
 561:Drivers/lvgl/src/draw/sw/lv_draw_sw_utils.c ****         for(int32_t x = 0; x < width; ++x) {
 562:Drivers/lvgl/src/draw/sw/lv_draw_sw_utils.c ****             dst[dstIndex + width - x - 1] = src[srcIndex + x];
 1190              		.loc 1 562 13 is_stmt 1 view .LVU361
 1191              		.loc 1 562 58 is_stmt 0 view .LVU362
 1192 0016 0EEB0003 		add	r3, lr, r0
 1193              		.loc 1 562 26 view .LVU363
 1194 001a 01EB020C 		add	ip, r1, r2
 1195              		.loc 1 562 34 view .LVU364
 1196 001e ACEB0E0C 		sub	ip, ip, lr
 1197              		.loc 1 562 16 view .LVU365
 1198 0022 0CF1FF3C 		add	ip, ip, #-1
 1199              		.loc 1 562 48 view .LVU366
 1200 0026 EB5C     		ldrb	r3, [r5, r3]	@ zero_extendqisi2
 1201              		.loc 1 562 43 view .LVU367
 1202 0028 04F80C30 		strb	r3, [r4, ip]
 561:Drivers/lvgl/src/draw/sw/lv_draw_sw_utils.c ****             dst[dstIndex + width - x - 1] = src[srcIndex + x];
 1203              		.loc 1 561 39 is_stmt 1 discriminator 3 view .LVU368
 1204 002c 0EF1010E 		add	lr, lr, #1
 1205              	.LVL108:
 1206              	.L73:
 561:Drivers/lvgl/src/draw/sw/lv_draw_sw_utils.c ****             dst[dstIndex + width - x - 1] = src[srcIndex + x];
 1207              		.loc 1 561 30 discriminator 1 view .LVU369
 1208 0030 9645     		cmp	lr, r2
 1209 0032 F0DB     		blt	.L74
 1210              	.LBE56:
 1211              	.LBE55:
 558:Drivers/lvgl/src/draw/sw/lv_draw_sw_utils.c ****         int32_t dstIndex = (height - y - 1) * dest_stride;
 1212              		.loc 1 558 36 discriminator 2 view .LVU370
 1213 0034 0136     		adds	r6, r6, #1
 1214              	.LVL109:
ARM GAS  /tmp/ccA8hacO.s 			page 34


 1215              	.L72:
 558:Drivers/lvgl/src/draw/sw/lv_draw_sw_utils.c ****         int32_t dstIndex = (height - y - 1) * dest_stride;
 1216              		.loc 1 558 26 discriminator 1 view .LVU371
 1217 0036 BE42     		cmp	r6, r7
 1218 0038 08DA     		bge	.L77
 1219              	.LBB58:
 559:Drivers/lvgl/src/draw/sw/lv_draw_sw_utils.c ****         int32_t dstIndex = (height - y - 1) * dest_stride;
 1220              		.loc 1 559 9 view .LVU372
 559:Drivers/lvgl/src/draw/sw/lv_draw_sw_utils.c ****         int32_t dstIndex = (height - y - 1) * dest_stride;
 1221              		.loc 1 559 36 is_stmt 0 view .LVU373
 1222 003a B91B     		subs	r1, r7, r6
 559:Drivers/lvgl/src/draw/sw/lv_draw_sw_utils.c ****         int32_t dstIndex = (height - y - 1) * dest_stride;
 1223              		.loc 1 559 40 view .LVU374
 1224 003c 0139     		subs	r1, r1, #1
 559:Drivers/lvgl/src/draw/sw/lv_draw_sw_utils.c ****         int32_t dstIndex = (height - y - 1) * dest_stride;
 1225              		.loc 1 559 17 view .LVU375
 1226 003e 08FB01F1 		mul	r1, r8, r1
 1227              	.LVL110:
 560:Drivers/lvgl/src/draw/sw/lv_draw_sw_utils.c ****         for(int32_t x = 0; x < width; ++x) {
 1228              		.loc 1 560 9 is_stmt 1 view .LVU376
 560:Drivers/lvgl/src/draw/sw/lv_draw_sw_utils.c ****         for(int32_t x = 0; x < width; ++x) {
 1229              		.loc 1 560 17 is_stmt 0 view .LVU377
 1230 0042 09FB06F0 		mul	r0, r9, r6
 1231              	.LVL111:
 561:Drivers/lvgl/src/draw/sw/lv_draw_sw_utils.c ****             dst[dstIndex + width - x - 1] = src[srcIndex + x];
 1232              		.loc 1 561 9 is_stmt 1 view .LVU378
 1233              	.LBB57:
 561:Drivers/lvgl/src/draw/sw/lv_draw_sw_utils.c ****             dst[dstIndex + width - x - 1] = src[srcIndex + x];
 1234              		.loc 1 561 13 view .LVU379
 561:Drivers/lvgl/src/draw/sw/lv_draw_sw_utils.c ****             dst[dstIndex + width - x - 1] = src[srcIndex + x];
 1235              		.loc 1 561 21 is_stmt 0 view .LVU380
 1236 0046 4FF0000E 		mov	lr, #0
 561:Drivers/lvgl/src/draw/sw/lv_draw_sw_utils.c ****             dst[dstIndex + width - x - 1] = src[srcIndex + x];
 1237              		.loc 1 561 9 view .LVU381
 1238 004a F1E7     		b	.L73
 1239              	.LVL112:
 1240              	.L77:
 561:Drivers/lvgl/src/draw/sw/lv_draw_sw_utils.c ****             dst[dstIndex + width - x - 1] = src[srcIndex + x];
 1241              		.loc 1 561 9 view .LVU382
 1242              	.LBE57:
 1243              	.LBE58:
 1244              	.LBE54:
 563:Drivers/lvgl/src/draw/sw/lv_draw_sw_utils.c ****         }
 564:Drivers/lvgl/src/draw/sw/lv_draw_sw_utils.c ****     }
 565:Drivers/lvgl/src/draw/sw/lv_draw_sw_utils.c **** }
 1245              		.loc 1 565 1 view .LVU383
 1246 004c BDE8F083 		pop	{r4, r5, r6, r7, r8, r9, pc}
 1247              		.loc 1 565 1 view .LVU384
 1248              		.cfi_endproc
 1249              	.LFE26:
 1251              		.section	.text.rotate270_l8,"ax",%progbits
 1252              		.align	1
 1253              		.syntax unified
 1254              		.thumb
 1255              		.thumb_func
 1257              	rotate270_l8:
 1258              	.LVL113:
ARM GAS  /tmp/ccA8hacO.s 			page 35


 1259              	.LFB27:
 566:Drivers/lvgl/src/draw/sw/lv_draw_sw_utils.c **** 
 567:Drivers/lvgl/src/draw/sw/lv_draw_sw_utils.c **** static void rotate270_l8(const uint8_t * src, uint8_t * dst, int32_t src_width, int32_t src_height,
 568:Drivers/lvgl/src/draw/sw/lv_draw_sw_utils.c ****                          int32_t src_stride,
 569:Drivers/lvgl/src/draw/sw/lv_draw_sw_utils.c ****                          int32_t dst_stride)
 570:Drivers/lvgl/src/draw/sw/lv_draw_sw_utils.c **** {
 1260              		.loc 1 570 1 is_stmt 1 view -0
 1261              		.cfi_startproc
 1262              		@ args = 8, pretend = 0, frame = 0
 1263              		@ frame_needed = 0, uses_anonymous_args = 0
 1264              		.loc 1 570 1 is_stmt 0 view .LVU386
 1265 0000 2DE9F043 		push	{r4, r5, r6, r7, r8, r9, lr}
 1266              	.LCFI11:
 1267              		.cfi_def_cfa_offset 28
 1268              		.cfi_offset 4, -28
 1269              		.cfi_offset 5, -24
 1270              		.cfi_offset 6, -20
 1271              		.cfi_offset 7, -16
 1272              		.cfi_offset 8, -12
 1273              		.cfi_offset 9, -8
 1274              		.cfi_offset 14, -4
 1275 0004 0546     		mov	r5, r0
 1276 0006 0C46     		mov	r4, r1
 1277 0008 1746     		mov	r7, r2
 1278 000a 079E     		ldr	r6, [sp, #28]
 1279 000c DDF82090 		ldr	r9, [sp, #32]
 571:Drivers/lvgl/src/draw/sw/lv_draw_sw_utils.c ****     if(LV_RESULT_OK == LV_DRAW_SW_ROTATE270_L8(src, dst, src_width, src_height, src_stride, dst_str
 1280              		.loc 1 571 5 is_stmt 1 view .LVU387
 572:Drivers/lvgl/src/draw/sw/lv_draw_sw_utils.c ****         return ;
 573:Drivers/lvgl/src/draw/sw/lv_draw_sw_utils.c ****     }
 574:Drivers/lvgl/src/draw/sw/lv_draw_sw_utils.c **** 
 575:Drivers/lvgl/src/draw/sw/lv_draw_sw_utils.c ****     for(int32_t x = 0; x < src_width; ++x) {
 1281              		.loc 1 575 5 view .LVU388
 1282              	.LBB59:
 1283              		.loc 1 575 9 view .LVU389
 1284              	.LVL114:
 1285              		.loc 1 575 17 is_stmt 0 view .LVU390
 1286 0010 4FF00008 		mov	r8, #0
 1287              		.loc 1 575 5 view .LVU391
 1288 0014 0EE0     		b	.L79
 1289              	.LVL115:
 1290              	.L81:
 1291              	.LBB60:
 1292              	.LBB61:
 576:Drivers/lvgl/src/draw/sw/lv_draw_sw_utils.c ****         int32_t dstIndex = x * dst_stride;
 577:Drivers/lvgl/src/draw/sw/lv_draw_sw_utils.c ****         int32_t srcIndex = x;
 578:Drivers/lvgl/src/draw/sw/lv_draw_sw_utils.c ****         for(int32_t y = 0; y < src_height; ++y) {
 579:Drivers/lvgl/src/draw/sw/lv_draw_sw_utils.c ****             dst[dstIndex + (src_height - y - 1)] = src[srcIndex];
 1293              		.loc 1 579 13 is_stmt 1 view .LVU392
 1294              		.loc 1 579 40 is_stmt 0 view .LVU393
 1295 0016 A3EB0E0C 		sub	ip, r3, lr
 1296              		.loc 1 579 44 view .LVU394
 1297 001a 0CF1FF3C 		add	ip, ip, #-1
 1298              		.loc 1 579 26 view .LVU395
 1299 001e 8444     		add	ip, ip, r0
 1300              		.loc 1 579 55 view .LVU396
 1301 0020 A95C     		ldrb	r1, [r5, r2]	@ zero_extendqisi2
ARM GAS  /tmp/ccA8hacO.s 			page 36


 1302              		.loc 1 579 50 view .LVU397
 1303 0022 04F80C10 		strb	r1, [r4, ip]
 580:Drivers/lvgl/src/draw/sw/lv_draw_sw_utils.c ****             srcIndex += src_stride;
 1304              		.loc 1 580 13 is_stmt 1 view .LVU398
 1305              		.loc 1 580 22 is_stmt 0 view .LVU399
 1306 0026 3244     		add	r2, r2, r6
 1307              	.LVL116:
 578:Drivers/lvgl/src/draw/sw/lv_draw_sw_utils.c ****             dst[dstIndex + (src_height - y - 1)] = src[srcIndex];
 1308              		.loc 1 578 44 is_stmt 1 discriminator 3 view .LVU400
 1309 0028 0EF1010E 		add	lr, lr, #1
 1310              	.LVL117:
 1311              	.L80:
 578:Drivers/lvgl/src/draw/sw/lv_draw_sw_utils.c ****             dst[dstIndex + (src_height - y - 1)] = src[srcIndex];
 1312              		.loc 1 578 30 discriminator 1 view .LVU401
 1313 002c 9E45     		cmp	lr, r3
 1314 002e F2DB     		blt	.L81
 578:Drivers/lvgl/src/draw/sw/lv_draw_sw_utils.c ****             dst[dstIndex + (src_height - y - 1)] = src[srcIndex];
 1315              		.loc 1 578 30 is_stmt 0 discriminator 1 view .LVU402
 1316              	.LBE61:
 1317              	.LBE60:
 575:Drivers/lvgl/src/draw/sw/lv_draw_sw_utils.c ****         int32_t dstIndex = x * dst_stride;
 1318              		.loc 1 575 39 is_stmt 1 discriminator 2 view .LVU403
 1319 0030 08F10108 		add	r8, r8, #1
 1320              	.LVL118:
 1321              	.L79:
 575:Drivers/lvgl/src/draw/sw/lv_draw_sw_utils.c ****         int32_t dstIndex = x * dst_stride;
 1322              		.loc 1 575 26 discriminator 1 view .LVU404
 1323 0034 B845     		cmp	r8, r7
 1324 0036 05DA     		bge	.L84
 1325              	.LBB64:
 576:Drivers/lvgl/src/draw/sw/lv_draw_sw_utils.c ****         int32_t srcIndex = x;
 1326              		.loc 1 576 9 view .LVU405
 576:Drivers/lvgl/src/draw/sw/lv_draw_sw_utils.c ****         int32_t srcIndex = x;
 1327              		.loc 1 576 17 is_stmt 0 view .LVU406
 1328 0038 09FB08F0 		mul	r0, r9, r8
 1329              	.LVL119:
 577:Drivers/lvgl/src/draw/sw/lv_draw_sw_utils.c ****         for(int32_t y = 0; y < src_height; ++y) {
 1330              		.loc 1 577 9 is_stmt 1 view .LVU407
 578:Drivers/lvgl/src/draw/sw/lv_draw_sw_utils.c ****             dst[dstIndex + (src_height - y - 1)] = src[srcIndex];
 1331              		.loc 1 578 9 view .LVU408
 1332              	.LBB62:
 578:Drivers/lvgl/src/draw/sw/lv_draw_sw_utils.c ****             dst[dstIndex + (src_height - y - 1)] = src[srcIndex];
 1333              		.loc 1 578 13 view .LVU409
 578:Drivers/lvgl/src/draw/sw/lv_draw_sw_utils.c ****             dst[dstIndex + (src_height - y - 1)] = src[srcIndex];
 1334              		.loc 1 578 13 is_stmt 0 view .LVU410
 1335              	.LBE62:
 577:Drivers/lvgl/src/draw/sw/lv_draw_sw_utils.c ****         for(int32_t y = 0; y < src_height; ++y) {
 1336              		.loc 1 577 17 view .LVU411
 1337 003c 4246     		mov	r2, r8
 1338              	.LBB63:
 578:Drivers/lvgl/src/draw/sw/lv_draw_sw_utils.c ****             dst[dstIndex + (src_height - y - 1)] = src[srcIndex];
 1339              		.loc 1 578 21 view .LVU412
 1340 003e 4FF0000E 		mov	lr, #0
 578:Drivers/lvgl/src/draw/sw/lv_draw_sw_utils.c ****             dst[dstIndex + (src_height - y - 1)] = src[srcIndex];
 1341              		.loc 1 578 9 view .LVU413
 1342 0042 F3E7     		b	.L80
 1343              	.LVL120:
ARM GAS  /tmp/ccA8hacO.s 			page 37


 1344              	.L84:
 578:Drivers/lvgl/src/draw/sw/lv_draw_sw_utils.c ****             dst[dstIndex + (src_height - y - 1)] = src[srcIndex];
 1345              		.loc 1 578 9 view .LVU414
 1346              	.LBE63:
 1347              	.LBE64:
 1348              	.LBE59:
 581:Drivers/lvgl/src/draw/sw/lv_draw_sw_utils.c ****         }
 582:Drivers/lvgl/src/draw/sw/lv_draw_sw_utils.c ****     }
 583:Drivers/lvgl/src/draw/sw/lv_draw_sw_utils.c **** }
 1349              		.loc 1 583 1 view .LVU415
 1350 0044 BDE8F083 		pop	{r4, r5, r6, r7, r8, r9, pc}
 1351              		.loc 1 583 1 view .LVU416
 1352              		.cfi_endproc
 1353              	.LFE27:
 1355              		.section	.text.lv_draw_sw_i1_to_argb8888,"ax",%progbits
 1356              		.align	1
 1357              		.global	lv_draw_sw_i1_to_argb8888
 1358              		.syntax unified
 1359              		.thumb
 1360              		.thumb_func
 1362              	lv_draw_sw_i1_to_argb8888:
 1363              	.LVL121:
 1364              	.LFB11:
 131:Drivers/lvgl/src/draw/sw/lv_draw_sw_utils.c ****     /*Extract the bits of I1 px_map and convert them to ARGB8888*/
 1365              		.loc 1 131 1 is_stmt 1 view -0
 1366              		.cfi_startproc
 1367              		@ args = 16, pretend = 0, frame = 0
 1368              		@ frame_needed = 0, uses_anonymous_args = 0
 131:Drivers/lvgl/src/draw/sw/lv_draw_sw_utils.c ****     /*Extract the bits of I1 px_map and convert them to ARGB8888*/
 1369              		.loc 1 131 1 is_stmt 0 view .LVU418
 1370 0000 2DE9F047 		push	{r4, r5, r6, r7, r8, r9, r10, lr}
 1371              	.LCFI12:
 1372              		.cfi_def_cfa_offset 32
 1373              		.cfi_offset 4, -32
 1374              		.cfi_offset 5, -28
 1375              		.cfi_offset 6, -24
 1376              		.cfi_offset 7, -20
 1377              		.cfi_offset 8, -16
 1378              		.cfi_offset 9, -12
 1379              		.cfi_offset 10, -8
 1380              		.cfi_offset 14, -4
 1381 0004 8446     		mov	ip, r0
 1382 0006 0F46     		mov	r7, r1
 1383 0008 9846     		mov	r8, r3
 1384 000a DDF820A0 		ldr	r10, [sp, #32]
 1385 000e DDF82490 		ldr	r9, [sp, #36]
 1386 0012 0A9C     		ldr	r4, [sp, #40]
 1387 0014 DDF82CE0 		ldr	lr, [sp, #44]
 133:Drivers/lvgl/src/draw/sw/lv_draw_sw_utils.c ****     uint32_t * dst = buf_argb8888;
 1388              		.loc 1 133 5 is_stmt 1 view .LVU419
 1389              	.LVL122:
 134:Drivers/lvgl/src/draw/sw/lv_draw_sw_utils.c ****     uint32_t i1_row_byte_count = width / 8;
 1390              		.loc 1 134 5 view .LVU420
 135:Drivers/lvgl/src/draw/sw/lv_draw_sw_utils.c ****     for(uint32_t row = 0; row < height; row++) {
 1391              		.loc 1 135 5 view .LVU421
 135:Drivers/lvgl/src/draw/sw/lv_draw_sw_utils.c ****     for(uint32_t row = 0; row < height; row++) {
 1392              		.loc 1 135 14 is_stmt 0 view .LVU422
ARM GAS  /tmp/ccA8hacO.s 			page 38


 1393 0018 D508     		lsrs	r5, r2, #3
 1394              	.LVL123:
 136:Drivers/lvgl/src/draw/sw/lv_draw_sw_utils.c ****         uint32_t * dst_p = dst;
 1395              		.loc 1 136 5 is_stmt 1 view .LVU423
 1396              	.LBB65:
 136:Drivers/lvgl/src/draw/sw/lv_draw_sw_utils.c ****         uint32_t * dst_p = dst;
 1397              		.loc 1 136 9 view .LVU424
 136:Drivers/lvgl/src/draw/sw/lv_draw_sw_utils.c ****         uint32_t * dst_p = dst;
 1398              		.loc 1 136 18 is_stmt 0 view .LVU425
 1399 001a 0026     		movs	r6, #0
 136:Drivers/lvgl/src/draw/sw/lv_draw_sw_utils.c ****         uint32_t * dst_p = dst;
 1400              		.loc 1 136 5 view .LVU426
 1401 001c 17E0     		b	.L86
 1402              	.LVL124:
 1403              	.L91:
 1404              	.LBB66:
 1405              	.LBB67:
 1406              	.LBB68:
 141:Drivers/lvgl/src/draw/sw/lv_draw_sw_utils.c ****             }
 1407              		.loc 1 141 65 discriminator 2 view .LVU427
 1408 001e 2146     		mov	r1, r4
 1409              	.L87:
 1410              	.LVL125:
 141:Drivers/lvgl/src/draw/sw/lv_draw_sw_utils.c ****             }
 1411              		.loc 1 141 26 discriminator 4 view .LVU428
 1412 0020 43F8041B 		str	r1, [r3], #4
 1413              	.LVL126:
 140:Drivers/lvgl/src/draw/sw/lv_draw_sw_utils.c ****                 *dst_p++ = ((src[i] >> bit) & 1) ? index1_color : index0_color;
 1414              		.loc 1 140 47 is_stmt 1 discriminator 2 view .LVU429
 1415 0024 013A     		subs	r2, r2, #1
 1416              	.LVL127:
 1417              	.L89:
 140:Drivers/lvgl/src/draw/sw/lv_draw_sw_utils.c ****                 *dst_p++ = ((src[i] >> bit) & 1) ? index1_color : index0_color;
 1418              		.loc 1 140 38 discriminator 1 view .LVU430
 1419 0026 002A     		cmp	r2, #0
 1420 0028 07DB     		blt	.L95
 141:Drivers/lvgl/src/draw/sw/lv_draw_sw_utils.c ****             }
 1421              		.loc 1 141 17 view .LVU431
 141:Drivers/lvgl/src/draw/sw/lv_draw_sw_utils.c ****             }
 1422              		.loc 1 141 33 is_stmt 0 view .LVU432
 1423 002a 1CF80010 		ldrb	r1, [ip, r0]	@ zero_extendqisi2
 141:Drivers/lvgl/src/draw/sw/lv_draw_sw_utils.c ****             }
 1424              		.loc 1 141 37 view .LVU433
 1425 002e 1141     		asrs	r1, r1, r2
 141:Drivers/lvgl/src/draw/sw/lv_draw_sw_utils.c ****             }
 1426              		.loc 1 141 65 view .LVU434
 1427 0030 11F0010F 		tst	r1, #1
 1428 0034 F3D0     		beq	.L91
 141:Drivers/lvgl/src/draw/sw/lv_draw_sw_utils.c ****             }
 1429              		.loc 1 141 65 discriminator 1 view .LVU435
 1430 0036 7146     		mov	r1, lr
 1431 0038 F2E7     		b	.L87
 1432              	.L95:
 141:Drivers/lvgl/src/draw/sw/lv_draw_sw_utils.c ****             }
 1433              		.loc 1 141 65 discriminator 1 view .LVU436
 1434              	.LBE68:
 138:Drivers/lvgl/src/draw/sw/lv_draw_sw_utils.c ****             /*From MSB to LSB (pixel 0 to pixel 7 in a byte)*/
ARM GAS  /tmp/ccA8hacO.s 			page 39


 1435              		.loc 1 138 53 is_stmt 1 discriminator 2 view .LVU437
 1436 003a 0130     		adds	r0, r0, #1
 1437              	.LVL128:
 1438              	.L90:
 138:Drivers/lvgl/src/draw/sw/lv_draw_sw_utils.c ****             /*From MSB to LSB (pixel 0 to pixel 7 in a byte)*/
 1439              		.loc 1 138 31 discriminator 1 view .LVU438
 1440 003c A842     		cmp	r0, r5
 1441 003e 01D2     		bcs	.L96
 1442              	.LBB69:
 140:Drivers/lvgl/src/draw/sw/lv_draw_sw_utils.c ****                 *dst_p++ = ((src[i] >> bit) & 1) ? index1_color : index0_color;
 1443              		.loc 1 140 25 is_stmt 0 view .LVU439
 1444 0040 0722     		movs	r2, #7
 1445 0042 F0E7     		b	.L89
 1446              	.L96:
 1447              	.LBE69:
 1448              	.LBE67:
 144:Drivers/lvgl/src/draw/sw/lv_draw_sw_utils.c ****         dst += buf_argb8888_stride / 4;
 1449              		.loc 1 144 9 is_stmt 1 view .LVU440
 144:Drivers/lvgl/src/draw/sw/lv_draw_sw_utils.c ****         dst += buf_argb8888_stride / 4;
 1450              		.loc 1 144 13 is_stmt 0 view .LVU441
 1451 0044 D444     		add	ip, ip, r10
 1452              	.LVL129:
 145:Drivers/lvgl/src/draw/sw/lv_draw_sw_utils.c ****     }
 1453              		.loc 1 145 9 is_stmt 1 view .LVU442
 145:Drivers/lvgl/src/draw/sw/lv_draw_sw_utils.c ****     }
 1454              		.loc 1 145 13 is_stmt 0 view .LVU443
 1455 0046 29F00303 		bic	r3, r9, #3
 1456              	.LVL130:
 145:Drivers/lvgl/src/draw/sw/lv_draw_sw_utils.c ****     }
 1457              		.loc 1 145 13 view .LVU444
 1458 004a 1F44     		add	r7, r7, r3
 1459              	.LVL131:
 145:Drivers/lvgl/src/draw/sw/lv_draw_sw_utils.c ****     }
 1460              		.loc 1 145 13 view .LVU445
 1461              	.LBE66:
 136:Drivers/lvgl/src/draw/sw/lv_draw_sw_utils.c ****         uint32_t * dst_p = dst;
 1462              		.loc 1 136 44 is_stmt 1 discriminator 2 view .LVU446
 1463 004c 0136     		adds	r6, r6, #1
 1464              	.LVL132:
 1465              	.L86:
 136:Drivers/lvgl/src/draw/sw/lv_draw_sw_utils.c ****         uint32_t * dst_p = dst;
 1466              		.loc 1 136 31 discriminator 1 view .LVU447
 1467 004e 4645     		cmp	r6, r8
 1468 0050 02D2     		bcs	.L97
 1469              	.LBB71:
 137:Drivers/lvgl/src/draw/sw/lv_draw_sw_utils.c ****         for(uint32_t i = 0; i < i1_row_byte_count; i++) {
 1470              		.loc 1 137 20 is_stmt 0 view .LVU448
 1471 0052 3B46     		mov	r3, r7
 1472              	.LBB70:
 138:Drivers/lvgl/src/draw/sw/lv_draw_sw_utils.c ****             /*From MSB to LSB (pixel 0 to pixel 7 in a byte)*/
 1473              		.loc 1 138 22 view .LVU449
 1474 0054 0020     		movs	r0, #0
 1475 0056 F1E7     		b	.L90
 1476              	.L97:
 138:Drivers/lvgl/src/draw/sw/lv_draw_sw_utils.c ****             /*From MSB to LSB (pixel 0 to pixel 7 in a byte)*/
 1477              		.loc 1 138 22 view .LVU450
 1478              	.LBE70:
ARM GAS  /tmp/ccA8hacO.s 			page 40


 1479              	.LBE71:
 1480              	.LBE65:
 147:Drivers/lvgl/src/draw/sw/lv_draw_sw_utils.c **** 
 1481              		.loc 1 147 1 view .LVU451
 1482 0058 BDE8F087 		pop	{r4, r5, r6, r7, r8, r9, r10, pc}
 147:Drivers/lvgl/src/draw/sw/lv_draw_sw_utils.c **** 
 1483              		.loc 1 147 1 view .LVU452
 1484              		.cfi_endproc
 1485              	.LFE11:
 1487              		.section	.text.lv_draw_sw_rgb565_swap,"ax",%progbits
 1488              		.align	1
 1489              		.global	lv_draw_sw_rgb565_swap
 1490              		.syntax unified
 1491              		.thumb
 1492              		.thumb_func
 1494              	lv_draw_sw_rgb565_swap:
 1495              	.LVL133:
 1496              	.LFB12:
 150:Drivers/lvgl/src/draw/sw/lv_draw_sw_utils.c ****     if(LV_DRAW_SW_RGB565_SWAP(buf, buf_size_px) == LV_RESULT_OK) return;
 1497              		.loc 1 150 1 is_stmt 1 view -0
 1498              		.cfi_startproc
 1499              		@ args = 0, pretend = 0, frame = 0
 1500              		@ frame_needed = 0, uses_anonymous_args = 0
 1501              		@ link register save eliminated.
 150:Drivers/lvgl/src/draw/sw/lv_draw_sw_utils.c ****     if(LV_DRAW_SW_RGB565_SWAP(buf, buf_size_px) == LV_RESULT_OK) return;
 1502              		.loc 1 150 1 is_stmt 0 view .LVU454
 1503 0000 10B4     		push	{r4}
 1504              	.LCFI13:
 1505              		.cfi_def_cfa_offset 4
 1506              		.cfi_offset 4, -4
 151:Drivers/lvgl/src/draw/sw/lv_draw_sw_utils.c **** 
 1507              		.loc 1 151 5 is_stmt 1 view .LVU455
 153:Drivers/lvgl/src/draw/sw/lv_draw_sw_utils.c ****     uint16_t * buf16 = buf;
 1508              		.loc 1 153 5 view .LVU456
 153:Drivers/lvgl/src/draw/sw/lv_draw_sw_utils.c ****     uint16_t * buf16 = buf;
 1509              		.loc 1 153 14 is_stmt 0 view .LVU457
 1510 0002 4C08     		lsrs	r4, r1, #1
 1511              	.LVL134:
 154:Drivers/lvgl/src/draw/sw/lv_draw_sw_utils.c ****     uint32_t * buf32 = buf;
 1512              		.loc 1 154 5 is_stmt 1 view .LVU458
 155:Drivers/lvgl/src/draw/sw/lv_draw_sw_utils.c **** 
 1513              		.loc 1 155 5 view .LVU459
 157:Drivers/lvgl/src/draw/sw/lv_draw_sw_utils.c ****         buf32[0] = ((buf32[0] & 0xff00ff00) >> 8) | ((buf32[0] & 0x00ff00ff) << 8);
 1514              		.loc 1 157 5 view .LVU460
 155:Drivers/lvgl/src/draw/sw/lv_draw_sw_utils.c **** 
 1515              		.loc 1 155 16 is_stmt 0 view .LVU461
 1516 0004 0346     		mov	r3, r0
 157:Drivers/lvgl/src/draw/sw/lv_draw_sw_utils.c ****         buf32[0] = ((buf32[0] & 0xff00ff00) >> 8) | ((buf32[0] & 0x00ff00ff) << 8);
 1517              		.loc 1 157 10 view .LVU462
 1518 0006 59E0     		b	.L99
 1519              	.LVL135:
 1520              	.L100:
 158:Drivers/lvgl/src/draw/sw/lv_draw_sw_utils.c ****         buf32[1] = ((buf32[1] & 0xff00ff00) >> 8) | ((buf32[1] & 0x00ff00ff) << 8);
 1521              		.loc 1 158 9 is_stmt 1 view .LVU463
 158:Drivers/lvgl/src/draw/sw/lv_draw_sw_utils.c ****         buf32[1] = ((buf32[1] & 0xff00ff00) >> 8) | ((buf32[1] & 0x00ff00ff) << 8);
 1522              		.loc 1 158 27 is_stmt 0 view .LVU464
 1523 0008 1A68     		ldr	r2, [r3]
ARM GAS  /tmp/ccA8hacO.s 			page 41


 158:Drivers/lvgl/src/draw/sw/lv_draw_sw_utils.c ****         buf32[1] = ((buf32[1] & 0xff00ff00) >> 8) | ((buf32[1] & 0x00ff00ff) << 8);
 1524              		.loc 1 158 45 view .LVU465
 1525 000a 4FEA122C 		lsr	ip, r2, #8
 1526 000e 0CF0FF1C 		and	ip, ip, #16711935
 158:Drivers/lvgl/src/draw/sw/lv_draw_sw_utils.c ****         buf32[1] = ((buf32[1] & 0xff00ff00) >> 8) | ((buf32[1] & 0x00ff00ff) << 8);
 1527              		.loc 1 158 78 view .LVU466
 1528 0012 1202     		lsls	r2, r2, #8
 1529 0014 02F0FF22 		and	r2, r2, #-16711936
 158:Drivers/lvgl/src/draw/sw/lv_draw_sw_utils.c ****         buf32[1] = ((buf32[1] & 0xff00ff00) >> 8) | ((buf32[1] & 0x00ff00ff) << 8);
 1530              		.loc 1 158 51 view .LVU467
 1531 0018 4CEA0202 		orr	r2, ip, r2
 158:Drivers/lvgl/src/draw/sw/lv_draw_sw_utils.c ****         buf32[1] = ((buf32[1] & 0xff00ff00) >> 8) | ((buf32[1] & 0x00ff00ff) << 8);
 1532              		.loc 1 158 18 view .LVU468
 1533 001c 1A60     		str	r2, [r3]
 159:Drivers/lvgl/src/draw/sw/lv_draw_sw_utils.c ****         buf32[2] = ((buf32[2] & 0xff00ff00) >> 8) | ((buf32[2] & 0x00ff00ff) << 8);
 1534              		.loc 1 159 9 is_stmt 1 view .LVU469
 159:Drivers/lvgl/src/draw/sw/lv_draw_sw_utils.c ****         buf32[2] = ((buf32[2] & 0xff00ff00) >> 8) | ((buf32[2] & 0x00ff00ff) << 8);
 1535              		.loc 1 159 27 is_stmt 0 view .LVU470
 1536 001e 5A68     		ldr	r2, [r3, #4]
 159:Drivers/lvgl/src/draw/sw/lv_draw_sw_utils.c ****         buf32[2] = ((buf32[2] & 0xff00ff00) >> 8) | ((buf32[2] & 0x00ff00ff) << 8);
 1537              		.loc 1 159 45 view .LVU471
 1538 0020 4FEA122C 		lsr	ip, r2, #8
 1539 0024 0CF0FF1C 		and	ip, ip, #16711935
 159:Drivers/lvgl/src/draw/sw/lv_draw_sw_utils.c ****         buf32[2] = ((buf32[2] & 0xff00ff00) >> 8) | ((buf32[2] & 0x00ff00ff) << 8);
 1540              		.loc 1 159 78 view .LVU472
 1541 0028 1202     		lsls	r2, r2, #8
 1542 002a 02F0FF22 		and	r2, r2, #-16711936
 159:Drivers/lvgl/src/draw/sw/lv_draw_sw_utils.c ****         buf32[2] = ((buf32[2] & 0xff00ff00) >> 8) | ((buf32[2] & 0x00ff00ff) << 8);
 1543              		.loc 1 159 51 view .LVU473
 1544 002e 4CEA0202 		orr	r2, ip, r2
 159:Drivers/lvgl/src/draw/sw/lv_draw_sw_utils.c ****         buf32[2] = ((buf32[2] & 0xff00ff00) >> 8) | ((buf32[2] & 0x00ff00ff) << 8);
 1545              		.loc 1 159 18 view .LVU474
 1546 0032 5A60     		str	r2, [r3, #4]
 160:Drivers/lvgl/src/draw/sw/lv_draw_sw_utils.c ****         buf32[3] = ((buf32[3] & 0xff00ff00) >> 8) | ((buf32[3] & 0x00ff00ff) << 8);
 1547              		.loc 1 160 9 is_stmt 1 view .LVU475
 160:Drivers/lvgl/src/draw/sw/lv_draw_sw_utils.c ****         buf32[3] = ((buf32[3] & 0xff00ff00) >> 8) | ((buf32[3] & 0x00ff00ff) << 8);
 1548              		.loc 1 160 27 is_stmt 0 view .LVU476
 1549 0034 9A68     		ldr	r2, [r3, #8]
 160:Drivers/lvgl/src/draw/sw/lv_draw_sw_utils.c ****         buf32[3] = ((buf32[3] & 0xff00ff00) >> 8) | ((buf32[3] & 0x00ff00ff) << 8);
 1550              		.loc 1 160 45 view .LVU477
 1551 0036 4FEA122C 		lsr	ip, r2, #8
 1552 003a 0CF0FF1C 		and	ip, ip, #16711935
 160:Drivers/lvgl/src/draw/sw/lv_draw_sw_utils.c ****         buf32[3] = ((buf32[3] & 0xff00ff00) >> 8) | ((buf32[3] & 0x00ff00ff) << 8);
 1553              		.loc 1 160 78 view .LVU478
 1554 003e 1202     		lsls	r2, r2, #8
 1555 0040 02F0FF22 		and	r2, r2, #-16711936
 160:Drivers/lvgl/src/draw/sw/lv_draw_sw_utils.c ****         buf32[3] = ((buf32[3] & 0xff00ff00) >> 8) | ((buf32[3] & 0x00ff00ff) << 8);
 1556              		.loc 1 160 51 view .LVU479
 1557 0044 4CEA0202 		orr	r2, ip, r2
 160:Drivers/lvgl/src/draw/sw/lv_draw_sw_utils.c ****         buf32[3] = ((buf32[3] & 0xff00ff00) >> 8) | ((buf32[3] & 0x00ff00ff) << 8);
 1558              		.loc 1 160 18 view .LVU480
 1559 0048 9A60     		str	r2, [r3, #8]
 161:Drivers/lvgl/src/draw/sw/lv_draw_sw_utils.c ****         buf32[4] = ((buf32[4] & 0xff00ff00) >> 8) | ((buf32[4] & 0x00ff00ff) << 8);
 1560              		.loc 1 161 9 is_stmt 1 view .LVU481
 161:Drivers/lvgl/src/draw/sw/lv_draw_sw_utils.c ****         buf32[4] = ((buf32[4] & 0xff00ff00) >> 8) | ((buf32[4] & 0x00ff00ff) << 8);
 1561              		.loc 1 161 27 is_stmt 0 view .LVU482
 1562 004a DA68     		ldr	r2, [r3, #12]
ARM GAS  /tmp/ccA8hacO.s 			page 42


 161:Drivers/lvgl/src/draw/sw/lv_draw_sw_utils.c ****         buf32[4] = ((buf32[4] & 0xff00ff00) >> 8) | ((buf32[4] & 0x00ff00ff) << 8);
 1563              		.loc 1 161 45 view .LVU483
 1564 004c 4FEA122C 		lsr	ip, r2, #8
 1565 0050 0CF0FF1C 		and	ip, ip, #16711935
 161:Drivers/lvgl/src/draw/sw/lv_draw_sw_utils.c ****         buf32[4] = ((buf32[4] & 0xff00ff00) >> 8) | ((buf32[4] & 0x00ff00ff) << 8);
 1566              		.loc 1 161 78 view .LVU484
 1567 0054 1202     		lsls	r2, r2, #8
 1568 0056 02F0FF22 		and	r2, r2, #-16711936
 161:Drivers/lvgl/src/draw/sw/lv_draw_sw_utils.c ****         buf32[4] = ((buf32[4] & 0xff00ff00) >> 8) | ((buf32[4] & 0x00ff00ff) << 8);
 1569              		.loc 1 161 51 view .LVU485
 1570 005a 4CEA0202 		orr	r2, ip, r2
 161:Drivers/lvgl/src/draw/sw/lv_draw_sw_utils.c ****         buf32[4] = ((buf32[4] & 0xff00ff00) >> 8) | ((buf32[4] & 0x00ff00ff) << 8);
 1571              		.loc 1 161 18 view .LVU486
 1572 005e DA60     		str	r2, [r3, #12]
 162:Drivers/lvgl/src/draw/sw/lv_draw_sw_utils.c ****         buf32[5] = ((buf32[5] & 0xff00ff00) >> 8) | ((buf32[5] & 0x00ff00ff) << 8);
 1573              		.loc 1 162 9 is_stmt 1 view .LVU487
 162:Drivers/lvgl/src/draw/sw/lv_draw_sw_utils.c ****         buf32[5] = ((buf32[5] & 0xff00ff00) >> 8) | ((buf32[5] & 0x00ff00ff) << 8);
 1574              		.loc 1 162 27 is_stmt 0 view .LVU488
 1575 0060 1A69     		ldr	r2, [r3, #16]
 162:Drivers/lvgl/src/draw/sw/lv_draw_sw_utils.c ****         buf32[5] = ((buf32[5] & 0xff00ff00) >> 8) | ((buf32[5] & 0x00ff00ff) << 8);
 1576              		.loc 1 162 45 view .LVU489
 1577 0062 4FEA122C 		lsr	ip, r2, #8
 1578 0066 0CF0FF1C 		and	ip, ip, #16711935
 162:Drivers/lvgl/src/draw/sw/lv_draw_sw_utils.c ****         buf32[5] = ((buf32[5] & 0xff00ff00) >> 8) | ((buf32[5] & 0x00ff00ff) << 8);
 1579              		.loc 1 162 78 view .LVU490
 1580 006a 1202     		lsls	r2, r2, #8
 1581 006c 02F0FF22 		and	r2, r2, #-16711936
 162:Drivers/lvgl/src/draw/sw/lv_draw_sw_utils.c ****         buf32[5] = ((buf32[5] & 0xff00ff00) >> 8) | ((buf32[5] & 0x00ff00ff) << 8);
 1582              		.loc 1 162 51 view .LVU491
 1583 0070 4CEA0202 		orr	r2, ip, r2
 162:Drivers/lvgl/src/draw/sw/lv_draw_sw_utils.c ****         buf32[5] = ((buf32[5] & 0xff00ff00) >> 8) | ((buf32[5] & 0x00ff00ff) << 8);
 1584              		.loc 1 162 18 view .LVU492
 1585 0074 1A61     		str	r2, [r3, #16]
 163:Drivers/lvgl/src/draw/sw/lv_draw_sw_utils.c ****         buf32[6] = ((buf32[6] & 0xff00ff00) >> 8) | ((buf32[6] & 0x00ff00ff) << 8);
 1586              		.loc 1 163 9 is_stmt 1 view .LVU493
 163:Drivers/lvgl/src/draw/sw/lv_draw_sw_utils.c ****         buf32[6] = ((buf32[6] & 0xff00ff00) >> 8) | ((buf32[6] & 0x00ff00ff) << 8);
 1587              		.loc 1 163 27 is_stmt 0 view .LVU494
 1588 0076 5A69     		ldr	r2, [r3, #20]
 163:Drivers/lvgl/src/draw/sw/lv_draw_sw_utils.c ****         buf32[6] = ((buf32[6] & 0xff00ff00) >> 8) | ((buf32[6] & 0x00ff00ff) << 8);
 1589              		.loc 1 163 45 view .LVU495
 1590 0078 4FEA122C 		lsr	ip, r2, #8
 1591 007c 0CF0FF1C 		and	ip, ip, #16711935
 163:Drivers/lvgl/src/draw/sw/lv_draw_sw_utils.c ****         buf32[6] = ((buf32[6] & 0xff00ff00) >> 8) | ((buf32[6] & 0x00ff00ff) << 8);
 1592              		.loc 1 163 78 view .LVU496
 1593 0080 1202     		lsls	r2, r2, #8
 1594 0082 02F0FF22 		and	r2, r2, #-16711936
 163:Drivers/lvgl/src/draw/sw/lv_draw_sw_utils.c ****         buf32[6] = ((buf32[6] & 0xff00ff00) >> 8) | ((buf32[6] & 0x00ff00ff) << 8);
 1595              		.loc 1 163 51 view .LVU497
 1596 0086 4CEA0202 		orr	r2, ip, r2
 163:Drivers/lvgl/src/draw/sw/lv_draw_sw_utils.c ****         buf32[6] = ((buf32[6] & 0xff00ff00) >> 8) | ((buf32[6] & 0x00ff00ff) << 8);
 1597              		.loc 1 163 18 view .LVU498
 1598 008a 5A61     		str	r2, [r3, #20]
 164:Drivers/lvgl/src/draw/sw/lv_draw_sw_utils.c ****         buf32[7] = ((buf32[7] & 0xff00ff00) >> 8) | ((buf32[7] & 0x00ff00ff) << 8);
 1599              		.loc 1 164 9 is_stmt 1 view .LVU499
 164:Drivers/lvgl/src/draw/sw/lv_draw_sw_utils.c ****         buf32[7] = ((buf32[7] & 0xff00ff00) >> 8) | ((buf32[7] & 0x00ff00ff) << 8);
 1600              		.loc 1 164 27 is_stmt 0 view .LVU500
 1601 008c 9A69     		ldr	r2, [r3, #24]
ARM GAS  /tmp/ccA8hacO.s 			page 43


 164:Drivers/lvgl/src/draw/sw/lv_draw_sw_utils.c ****         buf32[7] = ((buf32[7] & 0xff00ff00) >> 8) | ((buf32[7] & 0x00ff00ff) << 8);
 1602              		.loc 1 164 45 view .LVU501
 1603 008e 4FEA122C 		lsr	ip, r2, #8
 1604 0092 0CF0FF1C 		and	ip, ip, #16711935
 164:Drivers/lvgl/src/draw/sw/lv_draw_sw_utils.c ****         buf32[7] = ((buf32[7] & 0xff00ff00) >> 8) | ((buf32[7] & 0x00ff00ff) << 8);
 1605              		.loc 1 164 78 view .LVU502
 1606 0096 1202     		lsls	r2, r2, #8
 1607 0098 02F0FF22 		and	r2, r2, #-16711936
 164:Drivers/lvgl/src/draw/sw/lv_draw_sw_utils.c ****         buf32[7] = ((buf32[7] & 0xff00ff00) >> 8) | ((buf32[7] & 0x00ff00ff) << 8);
 1608              		.loc 1 164 51 view .LVU503
 1609 009c 4CEA0202 		orr	r2, ip, r2
 164:Drivers/lvgl/src/draw/sw/lv_draw_sw_utils.c ****         buf32[7] = ((buf32[7] & 0xff00ff00) >> 8) | ((buf32[7] & 0x00ff00ff) << 8);
 1610              		.loc 1 164 18 view .LVU504
 1611 00a0 9A61     		str	r2, [r3, #24]
 165:Drivers/lvgl/src/draw/sw/lv_draw_sw_utils.c ****         buf32 += 8;
 1612              		.loc 1 165 9 is_stmt 1 view .LVU505
 165:Drivers/lvgl/src/draw/sw/lv_draw_sw_utils.c ****         buf32 += 8;
 1613              		.loc 1 165 27 is_stmt 0 view .LVU506
 1614 00a2 DA69     		ldr	r2, [r3, #28]
 165:Drivers/lvgl/src/draw/sw/lv_draw_sw_utils.c ****         buf32 += 8;
 1615              		.loc 1 165 45 view .LVU507
 1616 00a4 4FEA122C 		lsr	ip, r2, #8
 1617 00a8 0CF0FF1C 		and	ip, ip, #16711935
 165:Drivers/lvgl/src/draw/sw/lv_draw_sw_utils.c ****         buf32 += 8;
 1618              		.loc 1 165 78 view .LVU508
 1619 00ac 1202     		lsls	r2, r2, #8
 1620 00ae 02F0FF22 		and	r2, r2, #-16711936
 165:Drivers/lvgl/src/draw/sw/lv_draw_sw_utils.c ****         buf32 += 8;
 1621              		.loc 1 165 51 view .LVU509
 1622 00b2 4CEA0202 		orr	r2, ip, r2
 165:Drivers/lvgl/src/draw/sw/lv_draw_sw_utils.c ****         buf32 += 8;
 1623              		.loc 1 165 18 view .LVU510
 1624 00b6 DA61     		str	r2, [r3, #28]
 166:Drivers/lvgl/src/draw/sw/lv_draw_sw_utils.c ****         u32_cnt -= 8;
 1625              		.loc 1 166 9 is_stmt 1 view .LVU511
 166:Drivers/lvgl/src/draw/sw/lv_draw_sw_utils.c ****         u32_cnt -= 8;
 1626              		.loc 1 166 15 is_stmt 0 view .LVU512
 1627 00b8 2033     		adds	r3, r3, #32
 1628              	.LVL136:
 167:Drivers/lvgl/src/draw/sw/lv_draw_sw_utils.c ****     }
 1629              		.loc 1 167 9 is_stmt 1 view .LVU513
 167:Drivers/lvgl/src/draw/sw/lv_draw_sw_utils.c ****     }
 1630              		.loc 1 167 17 is_stmt 0 view .LVU514
 1631 00ba 083C     		subs	r4, r4, #8
 1632              	.LVL137:
 1633              	.L99:
 157:Drivers/lvgl/src/draw/sw/lv_draw_sw_utils.c ****         buf32[0] = ((buf32[0] & 0xff00ff00) >> 8) | ((buf32[0] & 0x00ff00ff) << 8);
 1634              		.loc 1 157 19 is_stmt 1 view .LVU515
 1635 00bc 072C     		cmp	r4, #7
 1636 00be A3D8     		bhi	.L100
 157:Drivers/lvgl/src/draw/sw/lv_draw_sw_utils.c ****         buf32[0] = ((buf32[0] & 0xff00ff00) >> 8) | ((buf32[0] & 0x00ff00ff) << 8);
 1637              		.loc 1 157 19 is_stmt 0 view .LVU516
 1638 00c0 0CE0     		b	.L101
 1639              	.L102:
 171:Drivers/lvgl/src/draw/sw/lv_draw_sw_utils.c ****         buf32++;
 1640              		.loc 1 171 9 is_stmt 1 view .LVU517
 171:Drivers/lvgl/src/draw/sw/lv_draw_sw_utils.c ****         buf32++;
ARM GAS  /tmp/ccA8hacO.s 			page 44


 1641              		.loc 1 171 20 is_stmt 0 view .LVU518
 1642 00c2 1A68     		ldr	r2, [r3]
 171:Drivers/lvgl/src/draw/sw/lv_draw_sw_utils.c ****         buf32++;
 1643              		.loc 1 171 41 view .LVU519
 1644 00c4 4FEA122C 		lsr	ip, r2, #8
 1645 00c8 0CF0FF1C 		and	ip, ip, #16711935
 171:Drivers/lvgl/src/draw/sw/lv_draw_sw_utils.c ****         buf32++;
 1646              		.loc 1 171 72 view .LVU520
 1647 00cc 1202     		lsls	r2, r2, #8
 1648 00ce 02F0FF22 		and	r2, r2, #-16711936
 171:Drivers/lvgl/src/draw/sw/lv_draw_sw_utils.c ****         buf32++;
 1649              		.loc 1 171 47 view .LVU521
 1650 00d2 4CEA0202 		orr	r2, ip, r2
 171:Drivers/lvgl/src/draw/sw/lv_draw_sw_utils.c ****         buf32++;
 1651              		.loc 1 171 16 view .LVU522
 1652 00d6 43F8042B 		str	r2, [r3], #4
 1653              	.LVL138:
 172:Drivers/lvgl/src/draw/sw/lv_draw_sw_utils.c ****         u32_cnt--;
 1654              		.loc 1 172 9 is_stmt 1 view .LVU523
 173:Drivers/lvgl/src/draw/sw/lv_draw_sw_utils.c ****     }
 1655              		.loc 1 173 9 view .LVU524
 173:Drivers/lvgl/src/draw/sw/lv_draw_sw_utils.c ****     }
 1656              		.loc 1 173 16 is_stmt 0 view .LVU525
 1657 00da 013C     		subs	r4, r4, #1
 1658              	.LVL139:
 1659              	.L101:
 170:Drivers/lvgl/src/draw/sw/lv_draw_sw_utils.c ****         *buf32 = ((*buf32 & 0xff00ff00) >> 8) | ((*buf32 & 0x00ff00ff) << 8);
 1660              		.loc 1 170 11 is_stmt 1 view .LVU526
 1661 00dc 002C     		cmp	r4, #0
 1662 00de F0D1     		bne	.L102
 176:Drivers/lvgl/src/draw/sw/lv_draw_sw_utils.c ****         uint32_t e = buf_size_px - 1;
 1663              		.loc 1 176 5 view .LVU527
 176:Drivers/lvgl/src/draw/sw/lv_draw_sw_utils.c ****         uint32_t e = buf_size_px - 1;
 1664              		.loc 1 176 7 is_stmt 0 view .LVU528
 1665 00e0 11F0010F 		tst	r1, #1
 1666 00e4 07D0     		beq	.L98
 1667              	.LBB72:
 177:Drivers/lvgl/src/draw/sw/lv_draw_sw_utils.c ****         buf16[e] = ((buf16[e] & 0xff00) >> 8) | ((buf16[e] & 0x00ff) << 8);
 1668              		.loc 1 177 9 is_stmt 1 view .LVU529
 177:Drivers/lvgl/src/draw/sw/lv_draw_sw_utils.c ****         buf16[e] = ((buf16[e] & 0xff00) >> 8) | ((buf16[e] & 0x00ff) << 8);
 1669              		.loc 1 177 18 is_stmt 0 view .LVU530
 1670 00e6 0139     		subs	r1, r1, #1
 1671              	.LVL140:
 178:Drivers/lvgl/src/draw/sw/lv_draw_sw_utils.c ****     }
 1672              		.loc 1 178 9 is_stmt 1 view .LVU531
 178:Drivers/lvgl/src/draw/sw/lv_draw_sw_utils.c ****     }
 1673              		.loc 1 178 27 is_stmt 0 view .LVU532
 1674 00e8 30F81120 		ldrh	r2, [r0, r1, lsl #1]
 178:Drivers/lvgl/src/draw/sw/lv_draw_sw_utils.c ****     }
 1675              		.loc 1 178 47 view .LVU533
 1676 00ec 1302     		lsls	r3, r2, #8
 1677              	.LVL141:
 178:Drivers/lvgl/src/draw/sw/lv_draw_sw_utils.c ****     }
 1678              		.loc 1 178 47 view .LVU534
 1679 00ee 43EA1223 		orr	r3, r3, r2, lsr #8
 178:Drivers/lvgl/src/draw/sw/lv_draw_sw_utils.c ****     }
 1680              		.loc 1 178 18 view .LVU535
ARM GAS  /tmp/ccA8hacO.s 			page 45


 1681 00f2 20F81130 		strh	r3, [r0, r1, lsl #1]	@ movhi
 1682              	.LVL142:
 1683              	.L98:
 178:Drivers/lvgl/src/draw/sw/lv_draw_sw_utils.c ****     }
 1684              		.loc 1 178 18 view .LVU536
 1685              	.LBE72:
 181:Drivers/lvgl/src/draw/sw/lv_draw_sw_utils.c **** 
 1686              		.loc 1 181 1 view .LVU537
 1687 00f6 5DF8044B 		ldr	r4, [sp], #4
 1688              	.LCFI14:
 1689              		.cfi_restore 4
 1690              		.cfi_def_cfa_offset 0
 1691              	.LVL143:
 181:Drivers/lvgl/src/draw/sw/lv_draw_sw_utils.c **** 
 1692              		.loc 1 181 1 view .LVU538
 1693 00fa 7047     		bx	lr
 1694              		.cfi_endproc
 1695              	.LFE12:
 1697              		.section	.text.lv_draw_sw_i1_invert,"ax",%progbits
 1698              		.align	1
 1699              		.global	lv_draw_sw_i1_invert
 1700              		.syntax unified
 1701              		.thumb
 1702              		.thumb_func
 1704              	lv_draw_sw_i1_invert:
 1705              	.LVL144:
 1706              	.LFB13:
 184:Drivers/lvgl/src/draw/sw/lv_draw_sw_utils.c ****     if(buf == NULL) return;
 1707              		.loc 1 184 1 is_stmt 1 view -0
 1708              		.cfi_startproc
 1709              		@ args = 0, pretend = 0, frame = 0
 1710              		@ frame_needed = 0, uses_anonymous_args = 0
 1711              		@ link register save eliminated.
 185:Drivers/lvgl/src/draw/sw/lv_draw_sw_utils.c **** 
 1712              		.loc 1 185 5 view .LVU540
 185:Drivers/lvgl/src/draw/sw/lv_draw_sw_utils.c **** 
 1713              		.loc 1 185 7 is_stmt 0 view .LVU541
 1714 0000 0346     		mov	r3, r0
 1715 0002 28B9     		cbnz	r0, .L107
 1716 0004 7047     		bx	lr
 1717              	.LVL145:
 1718              	.L109:
 192:Drivers/lvgl/src/draw/sw/lv_draw_sw_utils.c ****         byte_buf++;
 1719              		.loc 1 192 9 is_stmt 1 view .LVU542
 192:Drivers/lvgl/src/draw/sw/lv_draw_sw_utils.c ****         byte_buf++;
 1720              		.loc 1 192 23 is_stmt 0 view .LVU543
 1721 0006 1A78     		ldrb	r2, [r3]	@ zero_extendqisi2
 192:Drivers/lvgl/src/draw/sw/lv_draw_sw_utils.c ****         byte_buf++;
 1722              		.loc 1 192 19 view .LVU544
 1723 0008 D243     		mvns	r2, r2
 1724 000a 03F8012B 		strb	r2, [r3], #1
 1725              	.LVL146:
 193:Drivers/lvgl/src/draw/sw/lv_draw_sw_utils.c ****         buf_size--;
 1726              		.loc 1 193 9 is_stmt 1 view .LVU545
 194:Drivers/lvgl/src/draw/sw/lv_draw_sw_utils.c ****     }
 1727              		.loc 1 194 9 view .LVU546
 194:Drivers/lvgl/src/draw/sw/lv_draw_sw_utils.c ****     }
ARM GAS  /tmp/ccA8hacO.s 			page 46


 1728              		.loc 1 194 17 is_stmt 0 view .LVU547
 1729 000e 0139     		subs	r1, r1, #1
 1730              	.LVL147:
 1731              	.L107:
 191:Drivers/lvgl/src/draw/sw/lv_draw_sw_utils.c ****         *byte_buf = ~(*byte_buf);
 1732              		.loc 1 191 55 is_stmt 1 view .LVU548
 1733 0010 13F0030F 		tst	r3, #3
 1734 0014 01D0     		beq	.L108
 191:Drivers/lvgl/src/draw/sw/lv_draw_sw_utils.c ****         *byte_buf = ~(*byte_buf);
 1735              		.loc 1 191 55 is_stmt 0 discriminator 1 view .LVU549
 1736 0016 0029     		cmp	r1, #0
 1737 0018 F5D1     		bne	.L109
 1738              	.L108:
 197:Drivers/lvgl/src/draw/sw/lv_draw_sw_utils.c ****         uint32_t * aligned_addr = (uint32_t *)byte_buf;
 1739              		.loc 1 197 5 is_stmt 1 view .LVU550
 197:Drivers/lvgl/src/draw/sw/lv_draw_sw_utils.c ****         uint32_t * aligned_addr = (uint32_t *)byte_buf;
 1740              		.loc 1 197 7 is_stmt 0 view .LVU551
 1741 001a 0329     		cmp	r1, #3
 1742 001c 10D9     		bls	.L110
 1743              	.LBB73:
 198:Drivers/lvgl/src/draw/sw/lv_draw_sw_utils.c ****         uint32_t word_count = buf_size / 4;
 1744              		.loc 1 198 9 is_stmt 1 view .LVU552
 1745              	.LVL148:
 199:Drivers/lvgl/src/draw/sw/lv_draw_sw_utils.c **** 
 1746              		.loc 1 199 9 view .LVU553
 199:Drivers/lvgl/src/draw/sw/lv_draw_sw_utils.c **** 
 1747              		.loc 1 199 18 is_stmt 0 view .LVU554
 1748 001e 4FEA910C 		lsr	ip, r1, #2
 1749              	.LVL149:
 201:Drivers/lvgl/src/draw/sw/lv_draw_sw_utils.c ****             aligned_addr[i] = ~aligned_addr[i];
 1750              		.loc 1 201 9 is_stmt 1 view .LVU555
 201:Drivers/lvgl/src/draw/sw/lv_draw_sw_utils.c ****             aligned_addr[i] = ~aligned_addr[i];
 1751              		.loc 1 201 15 is_stmt 0 view .LVU556
 1752 0022 0022     		movs	r2, #0
 201:Drivers/lvgl/src/draw/sw/lv_draw_sw_utils.c ****             aligned_addr[i] = ~aligned_addr[i];
 1753              		.loc 1 201 9 view .LVU557
 1754 0024 05E0     		b	.L111
 1755              	.LVL150:
 1756              	.L112:
 202:Drivers/lvgl/src/draw/sw/lv_draw_sw_utils.c ****         }
 1757              		.loc 1 202 13 is_stmt 1 view .LVU558
 202:Drivers/lvgl/src/draw/sw/lv_draw_sw_utils.c ****         }
 1758              		.loc 1 202 44 is_stmt 0 view .LVU559
 1759 0026 53F82200 		ldr	r0, [r3, r2, lsl #2]
 202:Drivers/lvgl/src/draw/sw/lv_draw_sw_utils.c ****         }
 1760              		.loc 1 202 31 view .LVU560
 1761 002a C043     		mvns	r0, r0
 202:Drivers/lvgl/src/draw/sw/lv_draw_sw_utils.c ****         }
 1762              		.loc 1 202 29 view .LVU561
 1763 002c 43F82200 		str	r0, [r3, r2, lsl #2]
 201:Drivers/lvgl/src/draw/sw/lv_draw_sw_utils.c ****             aligned_addr[i] = ~aligned_addr[i];
 1764              		.loc 1 201 36 is_stmt 1 discriminator 3 view .LVU562
 1765 0030 0132     		adds	r2, r2, #1
 1766              	.LVL151:
 1767              	.L111:
 201:Drivers/lvgl/src/draw/sw/lv_draw_sw_utils.c ****             aligned_addr[i] = ~aligned_addr[i];
 1768              		.loc 1 201 22 discriminator 1 view .LVU563
ARM GAS  /tmp/ccA8hacO.s 			page 47


 1769 0032 6245     		cmp	r2, ip
 1770 0034 F7D3     		bcc	.L112
 205:Drivers/lvgl/src/draw/sw/lv_draw_sw_utils.c ****         buf_size = buf_size % sizeof(uint32_t);
 1771              		.loc 1 205 9 view .LVU564
 205:Drivers/lvgl/src/draw/sw/lv_draw_sw_utils.c ****         buf_size = buf_size % sizeof(uint32_t);
 1772              		.loc 1 205 45 is_stmt 0 view .LVU565
 1773 0036 21F00302 		bic	r2, r1, #3
 1774              	.LVL152:
 205:Drivers/lvgl/src/draw/sw/lv_draw_sw_utils.c ****         buf_size = buf_size % sizeof(uint32_t);
 1775              		.loc 1 205 18 view .LVU566
 1776 003a 1344     		add	r3, r3, r2
 1777              	.LVL153:
 206:Drivers/lvgl/src/draw/sw/lv_draw_sw_utils.c ****     }
 1778              		.loc 1 206 9 is_stmt 1 view .LVU567
 206:Drivers/lvgl/src/draw/sw/lv_draw_sw_utils.c ****     }
 1779              		.loc 1 206 18 is_stmt 0 view .LVU568
 1780 003c 01F00301 		and	r1, r1, #3
 1781              	.LVL154:
 1782              	.L110:
 206:Drivers/lvgl/src/draw/sw/lv_draw_sw_utils.c ****     }
 1783              		.loc 1 206 18 view .LVU569
 1784              	.LBE73:
 209:Drivers/lvgl/src/draw/sw/lv_draw_sw_utils.c ****         byte_buf[i] = ~byte_buf[i];
 1785              		.loc 1 209 5 is_stmt 1 view .LVU570
 209:Drivers/lvgl/src/draw/sw/lv_draw_sw_utils.c ****         byte_buf[i] = ~byte_buf[i];
 1786              		.loc 1 209 11 is_stmt 0 view .LVU571
 1787 0040 0022     		movs	r2, #0
 209:Drivers/lvgl/src/draw/sw/lv_draw_sw_utils.c ****         byte_buf[i] = ~byte_buf[i];
 1788              		.loc 1 209 5 view .LVU572
 1789 0042 03E0     		b	.L113
 1790              	.LVL155:
 1791              	.L114:
 210:Drivers/lvgl/src/draw/sw/lv_draw_sw_utils.c ****     }
 1792              		.loc 1 210 9 is_stmt 1 view .LVU573
 210:Drivers/lvgl/src/draw/sw/lv_draw_sw_utils.c ****     }
 1793              		.loc 1 210 32 is_stmt 0 view .LVU574
 1794 0044 985C     		ldrb	r0, [r3, r2]	@ zero_extendqisi2
 210:Drivers/lvgl/src/draw/sw/lv_draw_sw_utils.c ****     }
 1795              		.loc 1 210 21 view .LVU575
 1796 0046 C043     		mvns	r0, r0
 1797 0048 9854     		strb	r0, [r3, r2]
 209:Drivers/lvgl/src/draw/sw/lv_draw_sw_utils.c ****         byte_buf[i] = ~byte_buf[i];
 1798              		.loc 1 209 30 is_stmt 1 discriminator 3 view .LVU576
 1799 004a 0132     		adds	r2, r2, #1
 1800              	.LVL156:
 1801              	.L113:
 209:Drivers/lvgl/src/draw/sw/lv_draw_sw_utils.c ****         byte_buf[i] = ~byte_buf[i];
 1802              		.loc 1 209 18 discriminator 1 view .LVU577
 1803 004c 9142     		cmp	r1, r2
 1804 004e F9D8     		bhi	.L114
 212:Drivers/lvgl/src/draw/sw/lv_draw_sw_utils.c **** 
 1805              		.loc 1 212 1 is_stmt 0 view .LVU578
 1806 0050 7047     		bx	lr
 1807              		.cfi_endproc
 1808              	.LFE13:
 1810              		.section	.text.lv_draw_sw_i1_convert_to_vtiled,"ax",%progbits
 1811              		.align	1
ARM GAS  /tmp/ccA8hacO.s 			page 48


 1812              		.global	lv_draw_sw_i1_convert_to_vtiled
 1813              		.syntax unified
 1814              		.thumb
 1815              		.thumb_func
 1817              	lv_draw_sw_i1_convert_to_vtiled:
 1818              	.LVL157:
 1819              	.LFB14:
 217:Drivers/lvgl/src/draw/sw/lv_draw_sw_utils.c ****     LV_ASSERT(buf && out_buf);
 1820              		.loc 1 217 1 is_stmt 1 view -0
 1821              		.cfi_startproc
 1822              		@ args = 12, pretend = 0, frame = 0
 1823              		@ frame_needed = 0, uses_anonymous_args = 0
 217:Drivers/lvgl/src/draw/sw/lv_draw_sw_utils.c ****     LV_ASSERT(buf && out_buf);
 1824              		.loc 1 217 1 is_stmt 0 view .LVU580
 1825 0000 2DE9F843 		push	{r3, r4, r5, r6, r7, r8, r9, lr}
 1826              	.LCFI15:
 1827              		.cfi_def_cfa_offset 32
 1828              		.cfi_offset 3, -32
 1829              		.cfi_offset 4, -28
 1830              		.cfi_offset 5, -24
 1831              		.cfi_offset 6, -20
 1832              		.cfi_offset 7, -16
 1833              		.cfi_offset 8, -12
 1834              		.cfi_offset 9, -8
 1835              		.cfi_offset 14, -4
 1836 0004 089F     		ldr	r7, [sp, #32]
 1837 0006 9DF82880 		ldrb	r8, [sp, #40]	@ zero_extendqisi2
 218:Drivers/lvgl/src/draw/sw/lv_draw_sw_utils.c ****     LV_ASSERT(width % 8 == 0 && height % 8 == 0);
 1838              		.loc 1 218 5 is_stmt 1 view .LVU581
 218:Drivers/lvgl/src/draw/sw/lv_draw_sw_utils.c ****     LV_ASSERT(width % 8 == 0 && height % 8 == 0);
 1839              		.loc 1 218 5 view .LVU582
 1840 000a 002F     		cmp	r7, #0
 1841 000c 18BF     		it	ne
 1842 000e 0028     		cmpne	r0, #0
 1843 0010 00D1     		bne	.L116
 1844              	.L117:
 218:Drivers/lvgl/src/draw/sw/lv_draw_sw_utils.c ****     LV_ASSERT(width % 8 == 0 && height % 8 == 0);
 1845              		.loc 1 218 5 discriminator 1 view .LVU583
 218:Drivers/lvgl/src/draw/sw/lv_draw_sw_utils.c ****     LV_ASSERT(width % 8 == 0 && height % 8 == 0);
 1846              		.loc 1 218 5 discriminator 1 view .LVU584
 218:Drivers/lvgl/src/draw/sw/lv_draw_sw_utils.c ****     LV_ASSERT(width % 8 == 0 && height % 8 == 0);
 1847              		.loc 1 218 5 discriminator 1 view .LVU585
 218:Drivers/lvgl/src/draw/sw/lv_draw_sw_utils.c ****     LV_ASSERT(width % 8 == 0 && height % 8 == 0);
 1848              		.loc 1 218 5 discriminator 1 view .LVU586
 218:Drivers/lvgl/src/draw/sw/lv_draw_sw_utils.c ****     LV_ASSERT(width % 8 == 0 && height % 8 == 0);
 1849              		.loc 1 218 5 discriminator 1 view .LVU587
 1850 0012 FEE7     		b	.L117
 1851              	.L116:
 1852 0014 0546     		mov	r5, r0
 1853 0016 1446     		mov	r4, r2
 1854 0018 1E46     		mov	r6, r3
 218:Drivers/lvgl/src/draw/sw/lv_draw_sw_utils.c ****     LV_ASSERT(width % 8 == 0 && height % 8 == 0);
 1855              		.loc 1 218 5 discriminator 2 view .LVU588
 219:Drivers/lvgl/src/draw/sw/lv_draw_sw_utils.c ****     LV_ASSERT(buf_size >= (width / 8) * height);
 1856              		.loc 1 219 5 view .LVU589
 219:Drivers/lvgl/src/draw/sw/lv_draw_sw_utils.c ****     LV_ASSERT(buf_size >= (width / 8) * height);
 1857              		.loc 1 219 5 view .LVU590
ARM GAS  /tmp/ccA8hacO.s 			page 49


 1858 001a 12F0070F 		tst	r2, #7
 1859 001e 02D1     		bne	.L118
 219:Drivers/lvgl/src/draw/sw/lv_draw_sw_utils.c ****     LV_ASSERT(buf_size >= (width / 8) * height);
 1860              		.loc 1 219 5 is_stmt 0 discriminator 2 view .LVU591
 1861 0020 13F00709 		ands	r9, r3, #7
 1862 0024 00D0     		beq	.L119
 1863              	.L118:
 219:Drivers/lvgl/src/draw/sw/lv_draw_sw_utils.c ****     LV_ASSERT(buf_size >= (width / 8) * height);
 1864              		.loc 1 219 5 is_stmt 1 discriminator 3 view .LVU592
 219:Drivers/lvgl/src/draw/sw/lv_draw_sw_utils.c ****     LV_ASSERT(buf_size >= (width / 8) * height);
 1865              		.loc 1 219 5 discriminator 3 view .LVU593
 219:Drivers/lvgl/src/draw/sw/lv_draw_sw_utils.c ****     LV_ASSERT(buf_size >= (width / 8) * height);
 1866              		.loc 1 219 5 discriminator 3 view .LVU594
 219:Drivers/lvgl/src/draw/sw/lv_draw_sw_utils.c ****     LV_ASSERT(buf_size >= (width / 8) * height);
 1867              		.loc 1 219 5 discriminator 3 view .LVU595
 219:Drivers/lvgl/src/draw/sw/lv_draw_sw_utils.c ****     LV_ASSERT(buf_size >= (width / 8) * height);
 1868              		.loc 1 219 5 discriminator 3 view .LVU596
 1869 0026 FEE7     		b	.L118
 1870              	.L119:
 219:Drivers/lvgl/src/draw/sw/lv_draw_sw_utils.c ****     LV_ASSERT(buf_size >= (width / 8) * height);
 1871              		.loc 1 219 5 discriminator 4 view .LVU597
 220:Drivers/lvgl/src/draw/sw/lv_draw_sw_utils.c ****     LV_ASSERT(out_buf_size >= buf_size);
 1872              		.loc 1 220 5 view .LVU598
 220:Drivers/lvgl/src/draw/sw/lv_draw_sw_utils.c ****     LV_ASSERT(out_buf_size >= buf_size);
 1873              		.loc 1 220 5 view .LVU599
 1874 0028 D308     		lsrs	r3, r2, #3
 1875              	.LVL158:
 220:Drivers/lvgl/src/draw/sw/lv_draw_sw_utils.c ****     LV_ASSERT(out_buf_size >= buf_size);
 1876              		.loc 1 220 5 is_stmt 0 view .LVU600
 1877 002a 06FB03F3 		mul	r3, r6, r3
 1878 002e 8B42     		cmp	r3, r1
 1879 0030 00D9     		bls	.L120
 1880              	.L121:
 220:Drivers/lvgl/src/draw/sw/lv_draw_sw_utils.c ****     LV_ASSERT(out_buf_size >= buf_size);
 1881              		.loc 1 220 5 is_stmt 1 discriminator 1 view .LVU601
 220:Drivers/lvgl/src/draw/sw/lv_draw_sw_utils.c ****     LV_ASSERT(out_buf_size >= buf_size);
 1882              		.loc 1 220 5 discriminator 1 view .LVU602
 220:Drivers/lvgl/src/draw/sw/lv_draw_sw_utils.c ****     LV_ASSERT(out_buf_size >= buf_size);
 1883              		.loc 1 220 5 discriminator 1 view .LVU603
 220:Drivers/lvgl/src/draw/sw/lv_draw_sw_utils.c ****     LV_ASSERT(out_buf_size >= buf_size);
 1884              		.loc 1 220 5 discriminator 1 view .LVU604
 220:Drivers/lvgl/src/draw/sw/lv_draw_sw_utils.c ****     LV_ASSERT(out_buf_size >= buf_size);
 1885              		.loc 1 220 5 discriminator 1 view .LVU605
 1886 0032 FEE7     		b	.L121
 1887              	.L120:
 220:Drivers/lvgl/src/draw/sw/lv_draw_sw_utils.c ****     LV_ASSERT(out_buf_size >= buf_size);
 1888              		.loc 1 220 5 discriminator 2 view .LVU606
 221:Drivers/lvgl/src/draw/sw/lv_draw_sw_utils.c **** 
 1889              		.loc 1 221 5 view .LVU607
 221:Drivers/lvgl/src/draw/sw/lv_draw_sw_utils.c **** 
 1890              		.loc 1 221 5 view .LVU608
 1891 0034 099B     		ldr	r3, [sp, #36]
 1892 0036 9942     		cmp	r1, r3
 1893 0038 00D9     		bls	.L122
 1894              	.L123:
 221:Drivers/lvgl/src/draw/sw/lv_draw_sw_utils.c **** 
 1895              		.loc 1 221 5 discriminator 1 view .LVU609
ARM GAS  /tmp/ccA8hacO.s 			page 50


 221:Drivers/lvgl/src/draw/sw/lv_draw_sw_utils.c **** 
 1896              		.loc 1 221 5 discriminator 1 view .LVU610
 221:Drivers/lvgl/src/draw/sw/lv_draw_sw_utils.c **** 
 1897              		.loc 1 221 5 discriminator 1 view .LVU611
 221:Drivers/lvgl/src/draw/sw/lv_draw_sw_utils.c **** 
 1898              		.loc 1 221 5 discriminator 1 view .LVU612
 221:Drivers/lvgl/src/draw/sw/lv_draw_sw_utils.c **** 
 1899              		.loc 1 221 5 discriminator 1 view .LVU613
 1900 003a FEE7     		b	.L123
 1901              	.L122:
 221:Drivers/lvgl/src/draw/sw/lv_draw_sw_utils.c **** 
 1902              		.loc 1 221 5 discriminator 2 view .LVU614
 223:Drivers/lvgl/src/draw/sw/lv_draw_sw_utils.c **** 
 1903              		.loc 1 223 5 view .LVU615
 1904 003c 099A     		ldr	r2, [sp, #36]
 1905              	.LVL159:
 223:Drivers/lvgl/src/draw/sw/lv_draw_sw_utils.c **** 
 1906              		.loc 1 223 5 is_stmt 0 view .LVU616
 1907 003e 0021     		movs	r1, #0
 1908              	.LVL160:
 223:Drivers/lvgl/src/draw/sw/lv_draw_sw_utils.c **** 
 1909              		.loc 1 223 5 view .LVU617
 1910 0040 3846     		mov	r0, r7
 1911              	.LVL161:
 223:Drivers/lvgl/src/draw/sw/lv_draw_sw_utils.c **** 
 1912              		.loc 1 223 5 view .LVU618
 1913 0042 FFF7FEFF 		bl	lv_memset
 1914              	.LVL162:
 225:Drivers/lvgl/src/draw/sw/lv_draw_sw_utils.c ****     uint8_t * dst_buf = (uint8_t *)out_buf;
 1915              		.loc 1 225 5 is_stmt 1 view .LVU619
 226:Drivers/lvgl/src/draw/sw/lv_draw_sw_utils.c **** 
 1916              		.loc 1 226 5 view .LVU620
 228:Drivers/lvgl/src/draw/sw/lv_draw_sw_utils.c ****         for(uint32_t x = 0; x < width; x++) {
 1917              		.loc 1 228 5 view .LVU621
 1918              	.LBB74:
 228:Drivers/lvgl/src/draw/sw/lv_draw_sw_utils.c ****         for(uint32_t x = 0; x < width; x++) {
 1919              		.loc 1 228 9 view .LVU622
 228:Drivers/lvgl/src/draw/sw/lv_draw_sw_utils.c ****         for(uint32_t x = 0; x < width; x++) {
 1920              		.loc 1 228 18 is_stmt 0 view .LVU623
 1921 0046 4846     		mov	r0, r9
 228:Drivers/lvgl/src/draw/sw/lv_draw_sw_utils.c ****         for(uint32_t x = 0; x < width; x++) {
 1922              		.loc 1 228 5 view .LVU624
 1923 0048 2EE0     		b	.L124
 1924              	.LVL163:
 1925              	.L125:
 1926              	.LBB75:
 1927              	.LBB76:
 237:Drivers/lvgl/src/draw/sw/lv_draw_sw_utils.c ****             }
 1928              		.loc 1 237 17 is_stmt 1 view .LVU625
 237:Drivers/lvgl/src/draw/sw/lv_draw_sw_utils.c ****             }
 1929              		.loc 1 237 35 is_stmt 0 view .LVU626
 1930 004a 4FEAD30E 		lsr	lr, r3, #3
 237:Drivers/lvgl/src/draw/sw/lv_draw_sw_utils.c ****             }
 1931              		.loc 1 237 24 view .LVU627
 1932 004e 17F80EC0 		ldrb	ip, [r7, lr]	@ zero_extendqisi2
 237:Drivers/lvgl/src/draw/sw/lv_draw_sw_utils.c ****             }
 1933              		.loc 1 237 54 view .LVU628
ARM GAS  /tmp/ccA8hacO.s 			page 51


 1934 0052 DB43     		mvns	r3, r3
 1935              	.LVL164:
 237:Drivers/lvgl/src/draw/sw/lv_draw_sw_utils.c ****             }
 1936              		.loc 1 237 54 view .LVU629
 1937 0054 03F00703 		and	r3, r3, #7
 1938              	.LVL165:
 237:Drivers/lvgl/src/draw/sw/lv_draw_sw_utils.c ****             }
 1939              		.loc 1 237 48 view .LVU630
 1940 0058 9940     		lsls	r1, r1, r3
 1941              	.LVL166:
 237:Drivers/lvgl/src/draw/sw/lv_draw_sw_utils.c ****             }
 1942              		.loc 1 237 40 view .LVU631
 1943 005a 4CEA010C 		orr	ip, ip, r1
 1944 005e 07F80EC0 		strb	ip, [r7, lr]
 1945              	.LVL167:
 1946              	.L126:
 237:Drivers/lvgl/src/draw/sw/lv_draw_sw_utils.c ****             }
 1947              		.loc 1 237 40 view .LVU632
 1948              	.LBE76:
 229:Drivers/lvgl/src/draw/sw/lv_draw_sw_utils.c ****             uint32_t src_index = y * width + x;
 1949              		.loc 1 229 41 is_stmt 1 discriminator 2 view .LVU633
 1950 0062 0132     		adds	r2, r2, #1
 1951              	.LVL168:
 1952              	.L128:
 229:Drivers/lvgl/src/draw/sw/lv_draw_sw_utils.c ****             uint32_t src_index = y * width + x;
 1953              		.loc 1 229 31 discriminator 1 view .LVU634
 1954 0064 A242     		cmp	r2, r4
 1955 0066 1ED2     		bcs	.L131
 1956              	.LBB77:
 230:Drivers/lvgl/src/draw/sw/lv_draw_sw_utils.c ****             uint32_t dst_index = x * height + y;
 1957              		.loc 1 230 13 view .LVU635
 230:Drivers/lvgl/src/draw/sw/lv_draw_sw_utils.c ****             uint32_t dst_index = x * height + y;
 1958              		.loc 1 230 22 is_stmt 0 view .LVU636
 1959 0068 04FB002C 		mla	ip, r4, r0, r2
 1960              	.LVL169:
 231:Drivers/lvgl/src/draw/sw/lv_draw_sw_utils.c ****             uint8_t bit = (src_buf[src_index / 8] >> (7 - (src_index % 8))) & 0x01;
 1961              		.loc 1 231 13 is_stmt 1 view .LVU637
 231:Drivers/lvgl/src/draw/sw/lv_draw_sw_utils.c ****             uint8_t bit = (src_buf[src_index / 8] >> (7 - (src_index % 8))) & 0x01;
 1962              		.loc 1 231 22 is_stmt 0 view .LVU638
 1963 006c 06FB0203 		mla	r3, r6, r2, r0
 1964              	.LVL170:
 232:Drivers/lvgl/src/draw/sw/lv_draw_sw_utils.c ****             if(bit_order_lsb) {
 1965              		.loc 1 232 13 is_stmt 1 view .LVU639
 232:Drivers/lvgl/src/draw/sw/lv_draw_sw_utils.c ****             if(bit_order_lsb) {
 1966              		.loc 1 232 46 is_stmt 0 view .LVU640
 1967 0070 4FEADC01 		lsr	r1, ip, #3
 232:Drivers/lvgl/src/draw/sw/lv_draw_sw_utils.c ****             if(bit_order_lsb) {
 1968              		.loc 1 232 35 view .LVU641
 1969 0074 695C     		ldrb	r1, [r5, r1]	@ zero_extendqisi2
 232:Drivers/lvgl/src/draw/sw/lv_draw_sw_utils.c ****             if(bit_order_lsb) {
 1970              		.loc 1 232 57 view .LVU642
 1971 0076 6FEA0C0C 		mvn	ip, ip
 1972              	.LVL171:
 232:Drivers/lvgl/src/draw/sw/lv_draw_sw_utils.c ****             if(bit_order_lsb) {
 1973              		.loc 1 232 57 view .LVU643
 1974 007a 0CF0070C 		and	ip, ip, #7
 1975              	.LVL172:
ARM GAS  /tmp/ccA8hacO.s 			page 52


 232:Drivers/lvgl/src/draw/sw/lv_draw_sw_utils.c ****             if(bit_order_lsb) {
 1976              		.loc 1 232 51 view .LVU644
 1977 007e 41FA0CF1 		asr	r1, r1, ip
 232:Drivers/lvgl/src/draw/sw/lv_draw_sw_utils.c ****             if(bit_order_lsb) {
 1978              		.loc 1 232 21 view .LVU645
 1979 0082 01F00101 		and	r1, r1, #1
 1980              	.LVL173:
 233:Drivers/lvgl/src/draw/sw/lv_draw_sw_utils.c ****                 dst_buf[dst_index / 8] |= (bit << (dst_index % 8));
 1981              		.loc 1 233 13 is_stmt 1 view .LVU646
 233:Drivers/lvgl/src/draw/sw/lv_draw_sw_utils.c ****                 dst_buf[dst_index / 8] |= (bit << (dst_index % 8));
 1982              		.loc 1 233 15 is_stmt 0 view .LVU647
 1983 0086 B8F1000F 		cmp	r8, #0
 1984 008a DED0     		beq	.L125
 234:Drivers/lvgl/src/draw/sw/lv_draw_sw_utils.c ****             }
 1985              		.loc 1 234 17 is_stmt 1 view .LVU648
 234:Drivers/lvgl/src/draw/sw/lv_draw_sw_utils.c ****             }
 1986              		.loc 1 234 35 is_stmt 0 view .LVU649
 1987 008c 4FEAD30E 		lsr	lr, r3, #3
 234:Drivers/lvgl/src/draw/sw/lv_draw_sw_utils.c ****             }
 1988              		.loc 1 234 24 view .LVU650
 1989 0090 17F80EC0 		ldrb	ip, [r7, lr]	@ zero_extendqisi2
 234:Drivers/lvgl/src/draw/sw/lv_draw_sw_utils.c ****             }
 1990              		.loc 1 234 62 view .LVU651
 1991 0094 03F00703 		and	r3, r3, #7
 1992              	.LVL174:
 234:Drivers/lvgl/src/draw/sw/lv_draw_sw_utils.c ****             }
 1993              		.loc 1 234 48 view .LVU652
 1994 0098 01FA03F3 		lsl	r3, r1, r3
 234:Drivers/lvgl/src/draw/sw/lv_draw_sw_utils.c ****             }
 1995              		.loc 1 234 40 view .LVU653
 1996 009c 4CEA0303 		orr	r3, ip, r3
 1997 00a0 07F80E30 		strb	r3, [r7, lr]
 1998 00a4 DDE7     		b	.L126
 1999              	.LVL175:
 2000              	.L131:
 234:Drivers/lvgl/src/draw/sw/lv_draw_sw_utils.c ****             }
 2001              		.loc 1 234 40 view .LVU654
 2002              	.LBE77:
 2003              	.LBE75:
 228:Drivers/lvgl/src/draw/sw/lv_draw_sw_utils.c ****         for(uint32_t x = 0; x < width; x++) {
 2004              		.loc 1 228 38 is_stmt 1 discriminator 2 view .LVU655
 2005 00a6 0130     		adds	r0, r0, #1
 2006              	.LVL176:
 2007              	.L124:
 228:Drivers/lvgl/src/draw/sw/lv_draw_sw_utils.c ****         for(uint32_t x = 0; x < width; x++) {
 2008              		.loc 1 228 27 discriminator 1 view .LVU656
 2009 00a8 B042     		cmp	r0, r6
 2010 00aa 01D2     		bcs	.L132
 2011              	.LBB78:
 229:Drivers/lvgl/src/draw/sw/lv_draw_sw_utils.c ****             uint32_t src_index = y * width + x;
 2012              		.loc 1 229 22 is_stmt 0 view .LVU657
 2013 00ac 4A46     		mov	r2, r9
 2014 00ae D9E7     		b	.L128
 2015              	.L132:
 2016              	.LBE78:
 2017              	.LBE74:
 241:Drivers/lvgl/src/draw/sw/lv_draw_sw_utils.c **** 
ARM GAS  /tmp/ccA8hacO.s 			page 53


 2018              		.loc 1 241 1 view .LVU658
 2019 00b0 BDE8F883 		pop	{r3, r4, r5, r6, r7, r8, r9, pc}
 241:Drivers/lvgl/src/draw/sw/lv_draw_sw_utils.c **** 
 2020              		.loc 1 241 1 view .LVU659
 2021              		.cfi_endproc
 2022              	.LFE14:
 2024              		.section	.text.lv_draw_sw_rotate,"ax",%progbits
 2025              		.align	1
 2026              		.global	lv_draw_sw_rotate
 2027              		.syntax unified
 2028              		.thumb
 2029              		.thumb_func
 2031              	lv_draw_sw_rotate:
 2032              	.LVL177:
 2033              	.LFB15:
 245:Drivers/lvgl/src/draw/sw/lv_draw_sw_utils.c ****     if(rotation == LV_DISPLAY_ROTATION_90) {
 2034              		.loc 1 245 1 is_stmt 1 view -0
 2035              		.cfi_startproc
 2036              		@ args = 16, pretend = 0, frame = 0
 2037              		@ frame_needed = 0, uses_anonymous_args = 0
 245:Drivers/lvgl/src/draw/sw/lv_draw_sw_utils.c ****     if(rotation == LV_DISPLAY_ROTATION_90) {
 2038              		.loc 1 245 1 is_stmt 0 view .LVU661
 2039 0000 10B5     		push	{r4, lr}
 2040              	.LCFI16:
 2041              		.cfi_def_cfa_offset 8
 2042              		.cfi_offset 4, -8
 2043              		.cfi_offset 14, -4
 2044 0002 82B0     		sub	sp, sp, #8
 2045              	.LCFI17:
 2046              		.cfi_def_cfa_offset 16
 2047 0004 9DF818C0 		ldrb	ip, [sp, #24]	@ zero_extendqisi2
 2048 0008 9DF81CE0 		ldrb	lr, [sp, #28]	@ zero_extendqisi2
 246:Drivers/lvgl/src/draw/sw/lv_draw_sw_utils.c ****         switch(color_format) {
 2049              		.loc 1 246 5 is_stmt 1 view .LVU662
 246:Drivers/lvgl/src/draw/sw/lv_draw_sw_utils.c ****         switch(color_format) {
 2050              		.loc 1 246 7 is_stmt 0 view .LVU663
 2051 000c BCF1010F 		cmp	ip, #1
 2052 0010 08D0     		beq	.L159
 276:Drivers/lvgl/src/draw/sw/lv_draw_sw_utils.c ****         switch(color_format) {
 2053              		.loc 1 276 5 is_stmt 1 view .LVU664
 276:Drivers/lvgl/src/draw/sw/lv_draw_sw_utils.c ****         switch(color_format) {
 2054              		.loc 1 276 7 is_stmt 0 view .LVU665
 2055 0012 BCF1020F 		cmp	ip, #2
 2056 0016 45D0     		beq	.L160
 306:Drivers/lvgl/src/draw/sw/lv_draw_sw_utils.c ****         switch(color_format) {
 2057              		.loc 1 306 5 is_stmt 1 view .LVU666
 306:Drivers/lvgl/src/draw/sw/lv_draw_sw_utils.c ****         switch(color_format) {
 2058              		.loc 1 306 7 is_stmt 0 view .LVU667
 2059 0018 BCF1030F 		cmp	ip, #3
 2060 001c 00F08280 		beq	.L161
 2061              	.LVL178:
 2062              	.L133:
 335:Drivers/lvgl/src/draw/sw/lv_draw_sw_utils.c **** 
 2063              		.loc 1 335 1 view .LVU668
 2064 0020 02B0     		add	sp, sp, #8
 2065              	.LCFI18:
 2066              		.cfi_remember_state
ARM GAS  /tmp/ccA8hacO.s 			page 54


 2067              		.cfi_def_cfa_offset 8
 2068              		@ sp needed
 2069 0022 10BD     		pop	{r4, pc}
 2070              	.LVL179:
 2071              	.L159:
 2072              	.LCFI19:
 2073              		.cfi_restore_state
 247:Drivers/lvgl/src/draw/sw/lv_draw_sw_utils.c **** #if LV_DRAW_SW_SUPPORT_L8
 2074              		.loc 1 247 9 is_stmt 1 view .LVU669
 2075 0024 AEF1060E 		sub	lr, lr, #6
 2076 0028 BEF10C0F 		cmp	lr, #12
 2077 002c F8D8     		bhi	.L133
 2078 002e 0FF2080C 		adr	ip, .L137
 2079 0032 5CF82EF0 		ldr	pc, [ip, lr, lsl #2]
 2080 0036 00BF     		.p2align 2
 2081              	.L137:
 2082 0038 6D000000 		.word	.L140+1
 2083 003c 21000000 		.word	.L133+1
 2084 0040 21000000 		.word	.L133+1
 2085 0044 21000000 		.word	.L133+1
 2086 0048 21000000 		.word	.L133+1
 2087 004c 21000000 		.word	.L133+1
 2088 0050 21000000 		.word	.L133+1
 2089 0054 21000000 		.word	.L133+1
 2090 0058 21000000 		.word	.L133+1
 2091 005c 89000000 		.word	.L139+1
 2092 0060 97000000 		.word	.L138+1
 2093 0064 97000000 		.word	.L138+1
 2094 0068 7B000000 		.word	.L136+1
 2095              		.p2align 1
 2096              	.L140:
 250:Drivers/lvgl/src/draw/sw/lv_draw_sw_utils.c ****                 break;
 2097              		.loc 1 250 17 view .LVU670
 2098 006c 059C     		ldr	r4, [sp, #20]
 2099 006e 0194     		str	r4, [sp, #4]
 2100 0070 049C     		ldr	r4, [sp, #16]
 2101 0072 0094     		str	r4, [sp]
 2102 0074 FFF7FEFF 		bl	rotate90_l8
 2103              	.LVL180:
 251:Drivers/lvgl/src/draw/sw/lv_draw_sw_utils.c **** #endif
 2104              		.loc 1 251 17 view .LVU671
 2105 0078 D2E7     		b	.L133
 2106              	.LVL181:
 2107              	.L136:
 255:Drivers/lvgl/src/draw/sw/lv_draw_sw_utils.c ****                 break;
 2108              		.loc 1 255 17 view .LVU672
 2109 007a 059C     		ldr	r4, [sp, #20]
 2110 007c 0194     		str	r4, [sp, #4]
 2111 007e 049C     		ldr	r4, [sp, #16]
 2112 0080 0094     		str	r4, [sp]
 2113 0082 FFF7FEFF 		bl	rotate90_rgb565
 2114              	.LVL182:
 256:Drivers/lvgl/src/draw/sw/lv_draw_sw_utils.c **** #endif
 2115              		.loc 1 256 17 view .LVU673
 2116 0086 CBE7     		b	.L133
 2117              	.LVL183:
 2118              	.L139:
ARM GAS  /tmp/ccA8hacO.s 			page 55


 260:Drivers/lvgl/src/draw/sw/lv_draw_sw_utils.c ****                 break;
 2119              		.loc 1 260 17 view .LVU674
 2120 0088 059C     		ldr	r4, [sp, #20]
 2121 008a 0194     		str	r4, [sp, #4]
 2122 008c 049C     		ldr	r4, [sp, #16]
 2123 008e 0094     		str	r4, [sp]
 2124 0090 FFF7FEFF 		bl	rotate90_rgb888
 2125              	.LVL184:
 261:Drivers/lvgl/src/draw/sw/lv_draw_sw_utils.c **** #endif
 2126              		.loc 1 261 17 view .LVU675
 2127 0094 C4E7     		b	.L133
 2128              	.LVL185:
 2129              	.L138:
 266:Drivers/lvgl/src/draw/sw/lv_draw_sw_utils.c ****                 break;
 2130              		.loc 1 266 17 view .LVU676
 2131 0096 059C     		ldr	r4, [sp, #20]
 2132 0098 0194     		str	r4, [sp, #4]
 2133 009a 049C     		ldr	r4, [sp, #16]
 2134 009c 0094     		str	r4, [sp]
 2135 009e FFF7FEFF 		bl	rotate90_argb8888
 2136              	.LVL186:
 267:Drivers/lvgl/src/draw/sw/lv_draw_sw_utils.c **** #endif
 2137              		.loc 1 267 17 view .LVU677
 273:Drivers/lvgl/src/draw/sw/lv_draw_sw_utils.c ****     }
 2138              		.loc 1 273 9 view .LVU678
 2139 00a2 BDE7     		b	.L133
 2140              	.LVL187:
 2141              	.L160:
 277:Drivers/lvgl/src/draw/sw/lv_draw_sw_utils.c **** #if LV_DRAW_SW_SUPPORT_L8
 2142              		.loc 1 277 9 view .LVU679
 2143 00a4 AEF1060E 		sub	lr, lr, #6
 2144 00a8 BEF10C0F 		cmp	lr, #12
 2145 00ac B8D8     		bhi	.L133
 2146 00ae 0FF2080C 		adr	ip, .L145
 2147 00b2 5CF82EF0 		ldr	pc, [ip, lr, lsl #2]
 2148 00b6 00BF     		.p2align 2
 2149              	.L145:
 2150 00b8 ED000000 		.word	.L148+1
 2151 00bc 21000000 		.word	.L133+1
 2152 00c0 21000000 		.word	.L133+1
 2153 00c4 21000000 		.word	.L133+1
 2154 00c8 21000000 		.word	.L133+1
 2155 00cc 21000000 		.word	.L133+1
 2156 00d0 21000000 		.word	.L133+1
 2157 00d4 21000000 		.word	.L133+1
 2158 00d8 21000000 		.word	.L133+1
 2159 00dc 09010000 		.word	.L147+1
 2160 00e0 17010000 		.word	.L146+1
 2161 00e4 17010000 		.word	.L146+1
 2162 00e8 FB000000 		.word	.L144+1
 2163              		.p2align 1
 2164              	.L148:
 280:Drivers/lvgl/src/draw/sw/lv_draw_sw_utils.c ****                 break;
 2165              		.loc 1 280 17 view .LVU680
 2166 00ec 059C     		ldr	r4, [sp, #20]
 2167 00ee 0194     		str	r4, [sp, #4]
 2168 00f0 049C     		ldr	r4, [sp, #16]
ARM GAS  /tmp/ccA8hacO.s 			page 56


 2169 00f2 0094     		str	r4, [sp]
 2170 00f4 FFF7FEFF 		bl	rotate180_l8
 2171              	.LVL188:
 281:Drivers/lvgl/src/draw/sw/lv_draw_sw_utils.c **** #endif
 2172              		.loc 1 281 17 view .LVU681
 2173 00f8 92E7     		b	.L133
 2174              	.LVL189:
 2175              	.L144:
 285:Drivers/lvgl/src/draw/sw/lv_draw_sw_utils.c ****                 break;
 2176              		.loc 1 285 17 view .LVU682
 2177 00fa 059C     		ldr	r4, [sp, #20]
 2178 00fc 0194     		str	r4, [sp, #4]
 2179 00fe 049C     		ldr	r4, [sp, #16]
 2180 0100 0094     		str	r4, [sp]
 2181 0102 FFF7FEFF 		bl	rotate180_rgb565
 2182              	.LVL190:
 286:Drivers/lvgl/src/draw/sw/lv_draw_sw_utils.c **** #endif
 2183              		.loc 1 286 17 view .LVU683
 2184 0106 8BE7     		b	.L133
 2185              	.LVL191:
 2186              	.L147:
 290:Drivers/lvgl/src/draw/sw/lv_draw_sw_utils.c ****                 break;
 2187              		.loc 1 290 17 view .LVU684
 2188 0108 059C     		ldr	r4, [sp, #20]
 2189 010a 0194     		str	r4, [sp, #4]
 2190 010c 049C     		ldr	r4, [sp, #16]
 2191 010e 0094     		str	r4, [sp]
 2192 0110 FFF7FEFF 		bl	rotate180_rgb888
 2193              	.LVL192:
 291:Drivers/lvgl/src/draw/sw/lv_draw_sw_utils.c **** #endif
 2194              		.loc 1 291 17 view .LVU685
 2195 0114 84E7     		b	.L133
 2196              	.LVL193:
 2197              	.L146:
 296:Drivers/lvgl/src/draw/sw/lv_draw_sw_utils.c ****                 break;
 2198              		.loc 1 296 17 view .LVU686
 2199 0116 059C     		ldr	r4, [sp, #20]
 2200 0118 0194     		str	r4, [sp, #4]
 2201 011a 049C     		ldr	r4, [sp, #16]
 2202 011c 0094     		str	r4, [sp]
 2203 011e FFF7FEFF 		bl	rotate180_argb8888
 2204              	.LVL194:
 297:Drivers/lvgl/src/draw/sw/lv_draw_sw_utils.c **** #endif
 2205              		.loc 1 297 17 view .LVU687
 303:Drivers/lvgl/src/draw/sw/lv_draw_sw_utils.c ****     }
 2206              		.loc 1 303 9 view .LVU688
 2207 0122 7DE7     		b	.L133
 2208              	.LVL195:
 2209              	.L161:
 307:Drivers/lvgl/src/draw/sw/lv_draw_sw_utils.c **** #if LV_DRAW_SW_SUPPORT_L8
 2210              		.loc 1 307 9 view .LVU689
 2211 0124 AEF1060E 		sub	lr, lr, #6
 2212 0128 BEF10C0F 		cmp	lr, #12
 2213 012c 3FF678AF 		bhi	.L133
 2214 0130 0FF2040C 		adr	ip, .L151
 2215 0134 5CF82EF0 		ldr	pc, [ip, lr, lsl #2]
 2216              		.p2align 2
ARM GAS  /tmp/ccA8hacO.s 			page 57


 2217              	.L151:
 2218 0138 6D010000 		.word	.L154+1
 2219 013c 21000000 		.word	.L133+1
 2220 0140 21000000 		.word	.L133+1
 2221 0144 21000000 		.word	.L133+1
 2222 0148 21000000 		.word	.L133+1
 2223 014c 21000000 		.word	.L133+1
 2224 0150 21000000 		.word	.L133+1
 2225 0154 21000000 		.word	.L133+1
 2226 0158 21000000 		.word	.L133+1
 2227 015c 89010000 		.word	.L153+1
 2228 0160 97010000 		.word	.L152+1
 2229 0164 97010000 		.word	.L152+1
 2230 0168 7B010000 		.word	.L150+1
 2231              		.p2align 1
 2232              	.L154:
 310:Drivers/lvgl/src/draw/sw/lv_draw_sw_utils.c ****                 break;
 2233              		.loc 1 310 17 view .LVU690
 2234 016c 059C     		ldr	r4, [sp, #20]
 2235 016e 0194     		str	r4, [sp, #4]
 2236 0170 049C     		ldr	r4, [sp, #16]
 2237 0172 0094     		str	r4, [sp]
 2238 0174 FFF7FEFF 		bl	rotate270_l8
 2239              	.LVL196:
 311:Drivers/lvgl/src/draw/sw/lv_draw_sw_utils.c **** #endif
 2240              		.loc 1 311 17 view .LVU691
 2241 0178 52E7     		b	.L133
 2242              	.LVL197:
 2243              	.L150:
 315:Drivers/lvgl/src/draw/sw/lv_draw_sw_utils.c ****                 break;
 2244              		.loc 1 315 17 view .LVU692
 2245 017a 059C     		ldr	r4, [sp, #20]
 2246 017c 0194     		str	r4, [sp, #4]
 2247 017e 049C     		ldr	r4, [sp, #16]
 2248 0180 0094     		str	r4, [sp]
 2249 0182 FFF7FEFF 		bl	rotate270_rgb565
 2250              	.LVL198:
 316:Drivers/lvgl/src/draw/sw/lv_draw_sw_utils.c **** #endif
 2251              		.loc 1 316 17 view .LVU693
 2252 0186 4BE7     		b	.L133
 2253              	.LVL199:
 2254              	.L153:
 320:Drivers/lvgl/src/draw/sw/lv_draw_sw_utils.c ****                 break;
 2255              		.loc 1 320 17 view .LVU694
 2256 0188 059C     		ldr	r4, [sp, #20]
 2257 018a 0194     		str	r4, [sp, #4]
 2258 018c 049C     		ldr	r4, [sp, #16]
 2259 018e 0094     		str	r4, [sp]
 2260 0190 FFF7FEFF 		bl	rotate270_rgb888
 2261              	.LVL200:
 321:Drivers/lvgl/src/draw/sw/lv_draw_sw_utils.c **** #endif
 2262              		.loc 1 321 17 view .LVU695
 2263 0194 44E7     		b	.L133
 2264              	.LVL201:
 2265              	.L152:
 326:Drivers/lvgl/src/draw/sw/lv_draw_sw_utils.c ****                 break;
 2266              		.loc 1 326 17 view .LVU696
ARM GAS  /tmp/ccA8hacO.s 			page 58


 2267 0196 059C     		ldr	r4, [sp, #20]
 2268 0198 0194     		str	r4, [sp, #4]
 2269 019a 049C     		ldr	r4, [sp, #16]
 2270 019c 0094     		str	r4, [sp]
 2271 019e FFF7FEFF 		bl	rotate270_argb8888
 2272              	.LVL202:
 327:Drivers/lvgl/src/draw/sw/lv_draw_sw_utils.c **** #endif
 2273              		.loc 1 327 17 view .LVU697
 333:Drivers/lvgl/src/draw/sw/lv_draw_sw_utils.c ****     }
 2274              		.loc 1 333 9 view .LVU698
 2275 01a2 3DE7     		b	.L133
 2276              		.cfi_endproc
 2277              	.LFE15:
 2279              		.text
 2280              	.Letext0:
 2281              		.file 2 "/usr/arm-none-eabi/include/machine/_default_types.h"
 2282              		.file 3 "/usr/arm-none-eabi/include/sys/_stdint.h"
 2283              		.file 4 "/usr/lib/gcc/arm-none-eabi/14.2.0/include/stddef.h"
 2284              		.file 5 "Drivers/lvgl/src/draw/sw/../../misc/lv_types.h"
 2285              		.file 6 "Drivers/lvgl/src/draw/sw/../../misc/lv_color.h"
 2286              		.file 7 "Drivers/lvgl/src/draw/sw/../../display/lv_display.h"
 2287              		.file 8 "Drivers/lvgl/src/draw/sw/../../misc/../stdlib/lv_string.h"
ARM GAS  /tmp/ccA8hacO.s 			page 59

