ARM GAS  /tmp/ccwC1Sr5.s 			page 1


   1              		.cpu cortex-m7
   2              		.arch armv7e-m
   3              		.fpu fpv5-sp-d16
   4              		.eabi_attribute 27, 1
   5              		.eabi_attribute 28, 1
   6              		.eabi_attribute 20, 1
   7              		.eabi_attribute 21, 1
   8              		.eabi_attribute 23, 3
   9              		.eabi_attribute 24, 1
  10              		.eabi_attribute 25, 1
  11              		.eabi_attribute 26, 1
  12              		.eabi_attribute 30, 1
  13              		.eabi_attribute 34, 1
  14              		.eabi_attribute 18, 4
  15              		.file	"lv_draw.c"
  16              		.text
  17              	.Ltext0:
  18              		.cfi_sections	.debug_frame
  19              		.file 1 "Drivers/lvgl/src/draw/lv_draw.c"
  20              		.section	.text.get_draw_dsc_size,"ax",%progbits
  21              		.align	1
  22              		.syntax unified
  23              		.thumb
  24              		.thumb_func
  26              	get_draw_dsc_size:
  27              	.LVL0:
  28              	.LFB210:
   1:Drivers/lvgl/src/draw/lv_draw.c **** /**
   2:Drivers/lvgl/src/draw/lv_draw.c ****  * @file lv_draw.c
   3:Drivers/lvgl/src/draw/lv_draw.c ****  *
   4:Drivers/lvgl/src/draw/lv_draw.c ****  */
   5:Drivers/lvgl/src/draw/lv_draw.c **** 
   6:Drivers/lvgl/src/draw/lv_draw.c **** /**
   7:Drivers/lvgl/src/draw/lv_draw.c ****  * Modified by NXP in 2024
   8:Drivers/lvgl/src/draw/lv_draw.c ****  */
   9:Drivers/lvgl/src/draw/lv_draw.c **** 
  10:Drivers/lvgl/src/draw/lv_draw.c **** /*********************
  11:Drivers/lvgl/src/draw/lv_draw.c ****  *      INCLUDES
  12:Drivers/lvgl/src/draw/lv_draw.c ****  *********************/
  13:Drivers/lvgl/src/draw/lv_draw.c **** #include "../misc/lv_area_private.h"
  14:Drivers/lvgl/src/draw/lv_draw.c **** #include "../misc/lv_assert.h"
  15:Drivers/lvgl/src/draw/lv_draw.c **** #include "lv_draw_private.h"
  16:Drivers/lvgl/src/draw/lv_draw.c **** #include "lv_draw_mask_private.h"
  17:Drivers/lvgl/src/draw/lv_draw.c **** #include "lv_draw_vector_private.h"
  18:Drivers/lvgl/src/draw/lv_draw.c **** #include "sw/lv_draw_sw.h"
  19:Drivers/lvgl/src/draw/lv_draw.c **** #include "../display/lv_display_private.h"
  20:Drivers/lvgl/src/draw/lv_draw.c **** #include "../core/lv_global.h"
  21:Drivers/lvgl/src/draw/lv_draw.c **** #include "../core/lv_refr_private.h"
  22:Drivers/lvgl/src/draw/lv_draw.c **** #include "../stdlib/lv_string.h"
  23:Drivers/lvgl/src/draw/lv_draw.c **** 
  24:Drivers/lvgl/src/draw/lv_draw.c **** /*********************
  25:Drivers/lvgl/src/draw/lv_draw.c ****  *      DEFINES
  26:Drivers/lvgl/src/draw/lv_draw.c ****  *********************/
  27:Drivers/lvgl/src/draw/lv_draw.c **** #define _draw_info LV_GLOBAL_DEFAULT()->draw_info
  28:Drivers/lvgl/src/draw/lv_draw.c **** 
  29:Drivers/lvgl/src/draw/lv_draw.c **** /**********************
  30:Drivers/lvgl/src/draw/lv_draw.c ****  *      TYPEDEFS
ARM GAS  /tmp/ccwC1Sr5.s 			page 2


  31:Drivers/lvgl/src/draw/lv_draw.c ****  **********************/
  32:Drivers/lvgl/src/draw/lv_draw.c **** 
  33:Drivers/lvgl/src/draw/lv_draw.c **** /**********************
  34:Drivers/lvgl/src/draw/lv_draw.c ****  *  STATIC PROTOTYPES
  35:Drivers/lvgl/src/draw/lv_draw.c ****  **********************/
  36:Drivers/lvgl/src/draw/lv_draw.c **** static bool is_independent(lv_layer_t * layer, lv_draw_task_t * t_check);
  37:Drivers/lvgl/src/draw/lv_draw.c **** static void cleanup_task(lv_draw_task_t * t, lv_display_t * disp);
  38:Drivers/lvgl/src/draw/lv_draw.c **** static inline size_t get_draw_dsc_size(lv_draw_task_type_t type);
  39:Drivers/lvgl/src/draw/lv_draw.c **** static lv_draw_task_t * get_first_available_task(lv_layer_t * layer);
  40:Drivers/lvgl/src/draw/lv_draw.c **** 
  41:Drivers/lvgl/src/draw/lv_draw.c **** #if LV_LOG_LEVEL <= LV_LOG_LEVEL_INFO
  42:Drivers/lvgl/src/draw/lv_draw.c **** static inline uint32_t get_layer_size_kb(uint32_t size_byte)
  43:Drivers/lvgl/src/draw/lv_draw.c **** {
  44:Drivers/lvgl/src/draw/lv_draw.c ****     return (size_byte + 1023) >> 10;
  45:Drivers/lvgl/src/draw/lv_draw.c **** }
  46:Drivers/lvgl/src/draw/lv_draw.c **** #endif
  47:Drivers/lvgl/src/draw/lv_draw.c **** 
  48:Drivers/lvgl/src/draw/lv_draw.c **** /**********************
  49:Drivers/lvgl/src/draw/lv_draw.c ****  *  STATIC VARIABLES
  50:Drivers/lvgl/src/draw/lv_draw.c ****  **********************/
  51:Drivers/lvgl/src/draw/lv_draw.c **** 
  52:Drivers/lvgl/src/draw/lv_draw.c **** /**********************
  53:Drivers/lvgl/src/draw/lv_draw.c ****  *      MACROS
  54:Drivers/lvgl/src/draw/lv_draw.c ****  **********************/
  55:Drivers/lvgl/src/draw/lv_draw.c **** 
  56:Drivers/lvgl/src/draw/lv_draw.c **** /**********************
  57:Drivers/lvgl/src/draw/lv_draw.c ****  *   GLOBAL FUNCTIONS
  58:Drivers/lvgl/src/draw/lv_draw.c ****  **********************/
  59:Drivers/lvgl/src/draw/lv_draw.c **** 
  60:Drivers/lvgl/src/draw/lv_draw.c **** void lv_draw_init(void)
  61:Drivers/lvgl/src/draw/lv_draw.c **** {
  62:Drivers/lvgl/src/draw/lv_draw.c **** #if LV_USE_OS
  63:Drivers/lvgl/src/draw/lv_draw.c ****     lv_thread_sync_init(&_draw_info.sync);
  64:Drivers/lvgl/src/draw/lv_draw.c **** #endif
  65:Drivers/lvgl/src/draw/lv_draw.c **** }
  66:Drivers/lvgl/src/draw/lv_draw.c **** 
  67:Drivers/lvgl/src/draw/lv_draw.c **** void lv_draw_deinit(void)
  68:Drivers/lvgl/src/draw/lv_draw.c **** {
  69:Drivers/lvgl/src/draw/lv_draw.c **** #if LV_USE_OS
  70:Drivers/lvgl/src/draw/lv_draw.c ****     lv_thread_sync_delete(&_draw_info.sync);
  71:Drivers/lvgl/src/draw/lv_draw.c **** #endif
  72:Drivers/lvgl/src/draw/lv_draw.c **** 
  73:Drivers/lvgl/src/draw/lv_draw.c ****     lv_draw_unit_t * u = _draw_info.unit_head;
  74:Drivers/lvgl/src/draw/lv_draw.c ****     while(u) {
  75:Drivers/lvgl/src/draw/lv_draw.c ****         lv_draw_unit_t * cur_unit = u;
  76:Drivers/lvgl/src/draw/lv_draw.c ****         u = u->next;
  77:Drivers/lvgl/src/draw/lv_draw.c **** 
  78:Drivers/lvgl/src/draw/lv_draw.c ****         if(cur_unit->delete_cb) cur_unit->delete_cb(cur_unit);
  79:Drivers/lvgl/src/draw/lv_draw.c ****         lv_free(cur_unit);
  80:Drivers/lvgl/src/draw/lv_draw.c ****     }
  81:Drivers/lvgl/src/draw/lv_draw.c ****     _draw_info.unit_head = NULL;
  82:Drivers/lvgl/src/draw/lv_draw.c **** }
  83:Drivers/lvgl/src/draw/lv_draw.c **** 
  84:Drivers/lvgl/src/draw/lv_draw.c **** void * lv_draw_create_unit(size_t size)
  85:Drivers/lvgl/src/draw/lv_draw.c **** {
  86:Drivers/lvgl/src/draw/lv_draw.c ****     lv_draw_unit_t * new_unit = lv_malloc_zeroed(size);
  87:Drivers/lvgl/src/draw/lv_draw.c ****     LV_ASSERT_MALLOC(new_unit);
ARM GAS  /tmp/ccwC1Sr5.s 			page 3


  88:Drivers/lvgl/src/draw/lv_draw.c ****     new_unit->next = _draw_info.unit_head;
  89:Drivers/lvgl/src/draw/lv_draw.c **** 
  90:Drivers/lvgl/src/draw/lv_draw.c ****     _draw_info.unit_head = new_unit;
  91:Drivers/lvgl/src/draw/lv_draw.c ****     _draw_info.unit_cnt++;
  92:Drivers/lvgl/src/draw/lv_draw.c **** 
  93:Drivers/lvgl/src/draw/lv_draw.c ****     new_unit->idx = _draw_info.unit_cnt;
  94:Drivers/lvgl/src/draw/lv_draw.c **** 
  95:Drivers/lvgl/src/draw/lv_draw.c ****     return new_unit;
  96:Drivers/lvgl/src/draw/lv_draw.c **** }
  97:Drivers/lvgl/src/draw/lv_draw.c **** 
  98:Drivers/lvgl/src/draw/lv_draw.c **** lv_draw_task_t * lv_draw_add_task(lv_layer_t * layer, const lv_area_t * coords, lv_draw_task_type_t
  99:Drivers/lvgl/src/draw/lv_draw.c **** {
 100:Drivers/lvgl/src/draw/lv_draw.c ****     LV_PROFILER_DRAW_BEGIN;
 101:Drivers/lvgl/src/draw/lv_draw.c ****     size_t dsc_size = get_draw_dsc_size(type);
 102:Drivers/lvgl/src/draw/lv_draw.c ****     LV_ASSERT_FORMAT_MSG(dsc_size > 0, "Draw task size is 0 for type %d", type);
 103:Drivers/lvgl/src/draw/lv_draw.c ****     lv_draw_task_t * new_task = lv_malloc_zeroed(LV_ALIGN_UP(sizeof(lv_draw_task_t), 8) + dsc_size)
 104:Drivers/lvgl/src/draw/lv_draw.c ****     LV_ASSERT_MALLOC(new_task);
 105:Drivers/lvgl/src/draw/lv_draw.c ****     new_task->area = *coords;
 106:Drivers/lvgl/src/draw/lv_draw.c ****     new_task->_real_area = *coords;
 107:Drivers/lvgl/src/draw/lv_draw.c ****     new_task->target_layer = layer;
 108:Drivers/lvgl/src/draw/lv_draw.c ****     new_task->clip_area = layer->_clip_area;
 109:Drivers/lvgl/src/draw/lv_draw.c **** #if LV_DRAW_TRANSFORM_USE_MATRIX
 110:Drivers/lvgl/src/draw/lv_draw.c ****     new_task->matrix = layer->matrix;
 111:Drivers/lvgl/src/draw/lv_draw.c **** #endif
 112:Drivers/lvgl/src/draw/lv_draw.c ****     new_task->type = type;
 113:Drivers/lvgl/src/draw/lv_draw.c ****     new_task->draw_dsc = (uint8_t *)new_task + LV_ALIGN_UP(sizeof(lv_draw_task_t), 8);
 114:Drivers/lvgl/src/draw/lv_draw.c ****     new_task->state = LV_DRAW_TASK_STATE_QUEUED;
 115:Drivers/lvgl/src/draw/lv_draw.c **** 
 116:Drivers/lvgl/src/draw/lv_draw.c ****     /*Find the tail*/
 117:Drivers/lvgl/src/draw/lv_draw.c ****     if(layer->draw_task_head == NULL) {
 118:Drivers/lvgl/src/draw/lv_draw.c ****         layer->draw_task_head = new_task;
 119:Drivers/lvgl/src/draw/lv_draw.c ****     }
 120:Drivers/lvgl/src/draw/lv_draw.c ****     else {
 121:Drivers/lvgl/src/draw/lv_draw.c ****         lv_draw_task_t * tail = layer->draw_task_head;
 122:Drivers/lvgl/src/draw/lv_draw.c ****         while(tail->next) tail = tail->next;
 123:Drivers/lvgl/src/draw/lv_draw.c **** 
 124:Drivers/lvgl/src/draw/lv_draw.c ****         tail->next = new_task;
 125:Drivers/lvgl/src/draw/lv_draw.c ****     }
 126:Drivers/lvgl/src/draw/lv_draw.c **** 
 127:Drivers/lvgl/src/draw/lv_draw.c ****     LV_PROFILER_DRAW_END;
 128:Drivers/lvgl/src/draw/lv_draw.c ****     return new_task;
 129:Drivers/lvgl/src/draw/lv_draw.c **** }
 130:Drivers/lvgl/src/draw/lv_draw.c **** 
 131:Drivers/lvgl/src/draw/lv_draw.c **** void lv_draw_finalize_task_creation(lv_layer_t * layer, lv_draw_task_t * t)
 132:Drivers/lvgl/src/draw/lv_draw.c **** {
 133:Drivers/lvgl/src/draw/lv_draw.c ****     LV_PROFILER_DRAW_BEGIN;
 134:Drivers/lvgl/src/draw/lv_draw.c ****     lv_draw_dsc_base_t * base_dsc = t->draw_dsc;
 135:Drivers/lvgl/src/draw/lv_draw.c ****     base_dsc->layer = layer;
 136:Drivers/lvgl/src/draw/lv_draw.c **** 
 137:Drivers/lvgl/src/draw/lv_draw.c ****     lv_draw_global_info_t * info = &_draw_info;
 138:Drivers/lvgl/src/draw/lv_draw.c **** 
 139:Drivers/lvgl/src/draw/lv_draw.c ****     /*Send LV_EVENT_DRAW_TASK_ADDED and dispatch only on the "main" draw_task
 140:Drivers/lvgl/src/draw/lv_draw.c ****      *and not on the draw tasks added in the event.
 141:Drivers/lvgl/src/draw/lv_draw.c ****      *Sending LV_EVENT_DRAW_TASK_ADDED events might cause recursive event sends and besides
 142:Drivers/lvgl/src/draw/lv_draw.c ****      *dispatching might remove the "main" draw task while it's still being used in the event*/
 143:Drivers/lvgl/src/draw/lv_draw.c **** 
 144:Drivers/lvgl/src/draw/lv_draw.c ****     if(info->task_running == false) {
ARM GAS  /tmp/ccwC1Sr5.s 			page 4


 145:Drivers/lvgl/src/draw/lv_draw.c ****         if(base_dsc->obj && lv_obj_has_flag(base_dsc->obj, LV_OBJ_FLAG_SEND_DRAW_TASK_EVENTS)) {
 146:Drivers/lvgl/src/draw/lv_draw.c ****             info->task_running = true;
 147:Drivers/lvgl/src/draw/lv_draw.c ****             lv_obj_send_event(base_dsc->obj, LV_EVENT_DRAW_TASK_ADDED, t);
 148:Drivers/lvgl/src/draw/lv_draw.c ****             info->task_running = false;
 149:Drivers/lvgl/src/draw/lv_draw.c ****         }
 150:Drivers/lvgl/src/draw/lv_draw.c **** 
 151:Drivers/lvgl/src/draw/lv_draw.c ****         /*Let the draw units set their preference score*/
 152:Drivers/lvgl/src/draw/lv_draw.c ****         t->preference_score = 100;
 153:Drivers/lvgl/src/draw/lv_draw.c ****         t->preferred_draw_unit_id = 0;
 154:Drivers/lvgl/src/draw/lv_draw.c ****         lv_draw_unit_t * u = info->unit_head;
 155:Drivers/lvgl/src/draw/lv_draw.c ****         while(u) {
 156:Drivers/lvgl/src/draw/lv_draw.c ****             if(u->evaluate_cb) {
 157:Drivers/lvgl/src/draw/lv_draw.c ****                 LV_PROFILER_DRAW_BEGIN_TAG("evaluate_cb");
 158:Drivers/lvgl/src/draw/lv_draw.c ****                 LV_PROFILER_DRAW_BEGIN_TAG(u->name);
 159:Drivers/lvgl/src/draw/lv_draw.c ****                 u->evaluate_cb(u, t);
 160:Drivers/lvgl/src/draw/lv_draw.c ****                 LV_PROFILER_DRAW_END_TAG(u->name);
 161:Drivers/lvgl/src/draw/lv_draw.c ****                 LV_PROFILER_DRAW_END_TAG("evaluate_cb");
 162:Drivers/lvgl/src/draw/lv_draw.c ****             }
 163:Drivers/lvgl/src/draw/lv_draw.c ****             u = u->next;
 164:Drivers/lvgl/src/draw/lv_draw.c ****         }
 165:Drivers/lvgl/src/draw/lv_draw.c ****         if(t->preferred_draw_unit_id == LV_DRAW_UNIT_NONE) {
 166:Drivers/lvgl/src/draw/lv_draw.c ****             LV_LOG_WARN("the draw task was not taken by any units");
 167:Drivers/lvgl/src/draw/lv_draw.c ****             t->state = LV_DRAW_TASK_STATE_READY;
 168:Drivers/lvgl/src/draw/lv_draw.c ****         }
 169:Drivers/lvgl/src/draw/lv_draw.c ****         else {
 170:Drivers/lvgl/src/draw/lv_draw.c ****             lv_draw_dispatch();
 171:Drivers/lvgl/src/draw/lv_draw.c ****         }
 172:Drivers/lvgl/src/draw/lv_draw.c ****     }
 173:Drivers/lvgl/src/draw/lv_draw.c ****     else {
 174:Drivers/lvgl/src/draw/lv_draw.c ****         /*Let the draw units set their preference score*/
 175:Drivers/lvgl/src/draw/lv_draw.c ****         t->preference_score = 100;
 176:Drivers/lvgl/src/draw/lv_draw.c ****         t->preferred_draw_unit_id = 0;
 177:Drivers/lvgl/src/draw/lv_draw.c ****         lv_draw_unit_t * u = info->unit_head;
 178:Drivers/lvgl/src/draw/lv_draw.c ****         while(u) {
 179:Drivers/lvgl/src/draw/lv_draw.c ****             if(u->evaluate_cb) {
 180:Drivers/lvgl/src/draw/lv_draw.c ****                 LV_PROFILER_DRAW_BEGIN_TAG("evaluate_cb");
 181:Drivers/lvgl/src/draw/lv_draw.c ****                 LV_PROFILER_DRAW_BEGIN_TAG(u->name);
 182:Drivers/lvgl/src/draw/lv_draw.c ****                 u->evaluate_cb(u, t);
 183:Drivers/lvgl/src/draw/lv_draw.c ****                 LV_PROFILER_DRAW_END_TAG(u->name);
 184:Drivers/lvgl/src/draw/lv_draw.c ****                 LV_PROFILER_DRAW_END_TAG("evaluate_cb");
 185:Drivers/lvgl/src/draw/lv_draw.c ****             }
 186:Drivers/lvgl/src/draw/lv_draw.c ****             u = u->next;
 187:Drivers/lvgl/src/draw/lv_draw.c ****         }
 188:Drivers/lvgl/src/draw/lv_draw.c ****     }
 189:Drivers/lvgl/src/draw/lv_draw.c ****     LV_PROFILER_DRAW_END;
 190:Drivers/lvgl/src/draw/lv_draw.c **** }
 191:Drivers/lvgl/src/draw/lv_draw.c **** 
 192:Drivers/lvgl/src/draw/lv_draw.c **** void lv_draw_wait_for_finish(void)
 193:Drivers/lvgl/src/draw/lv_draw.c **** {
 194:Drivers/lvgl/src/draw/lv_draw.c **** #if LV_USE_OS
 195:Drivers/lvgl/src/draw/lv_draw.c ****     LV_PROFILER_DRAW_BEGIN;
 196:Drivers/lvgl/src/draw/lv_draw.c ****     lv_draw_unit_t * u = _draw_info.unit_head;
 197:Drivers/lvgl/src/draw/lv_draw.c ****     while(u) {
 198:Drivers/lvgl/src/draw/lv_draw.c ****         if(u->wait_for_finish_cb) {
 199:Drivers/lvgl/src/draw/lv_draw.c ****             LV_PROFILER_DRAW_BEGIN_TAG("wait_for_finish_cb");
 200:Drivers/lvgl/src/draw/lv_draw.c ****             LV_PROFILER_DRAW_BEGIN_TAG(u->name);
 201:Drivers/lvgl/src/draw/lv_draw.c ****             u->wait_for_finish_cb(u);
ARM GAS  /tmp/ccwC1Sr5.s 			page 5


 202:Drivers/lvgl/src/draw/lv_draw.c ****             LV_PROFILER_DRAW_END_TAG(u->name);
 203:Drivers/lvgl/src/draw/lv_draw.c ****             LV_PROFILER_DRAW_END_TAG("wait_for_finish_cb");
 204:Drivers/lvgl/src/draw/lv_draw.c ****         }
 205:Drivers/lvgl/src/draw/lv_draw.c ****         u = u->next;
 206:Drivers/lvgl/src/draw/lv_draw.c ****     }
 207:Drivers/lvgl/src/draw/lv_draw.c ****     LV_PROFILER_DRAW_END;
 208:Drivers/lvgl/src/draw/lv_draw.c **** #endif
 209:Drivers/lvgl/src/draw/lv_draw.c **** }
 210:Drivers/lvgl/src/draw/lv_draw.c **** 
 211:Drivers/lvgl/src/draw/lv_draw.c **** void lv_draw_dispatch(void)
 212:Drivers/lvgl/src/draw/lv_draw.c **** {
 213:Drivers/lvgl/src/draw/lv_draw.c ****     LV_PROFILER_DRAW_BEGIN;
 214:Drivers/lvgl/src/draw/lv_draw.c ****     bool task_dispatched = false;
 215:Drivers/lvgl/src/draw/lv_draw.c ****     lv_display_t * disp = lv_display_get_next(NULL);
 216:Drivers/lvgl/src/draw/lv_draw.c ****     while(disp) {
 217:Drivers/lvgl/src/draw/lv_draw.c ****         lv_layer_t * layer = disp->layer_head;
 218:Drivers/lvgl/src/draw/lv_draw.c ****         while(layer) {
 219:Drivers/lvgl/src/draw/lv_draw.c ****             if(lv_draw_dispatch_layer(disp, layer))
 220:Drivers/lvgl/src/draw/lv_draw.c ****                 task_dispatched = true;
 221:Drivers/lvgl/src/draw/lv_draw.c ****             layer = layer->next;
 222:Drivers/lvgl/src/draw/lv_draw.c ****         }
 223:Drivers/lvgl/src/draw/lv_draw.c ****         if(!task_dispatched) {
 224:Drivers/lvgl/src/draw/lv_draw.c ****             lv_draw_wait_for_finish();
 225:Drivers/lvgl/src/draw/lv_draw.c ****             lv_draw_dispatch_request();
 226:Drivers/lvgl/src/draw/lv_draw.c ****         }
 227:Drivers/lvgl/src/draw/lv_draw.c ****         disp = lv_display_get_next(disp);
 228:Drivers/lvgl/src/draw/lv_draw.c ****     }
 229:Drivers/lvgl/src/draw/lv_draw.c ****     LV_PROFILER_DRAW_END;
 230:Drivers/lvgl/src/draw/lv_draw.c **** }
 231:Drivers/lvgl/src/draw/lv_draw.c **** 
 232:Drivers/lvgl/src/draw/lv_draw.c **** bool lv_draw_dispatch_layer(lv_display_t * disp, lv_layer_t * layer)
 233:Drivers/lvgl/src/draw/lv_draw.c **** {
 234:Drivers/lvgl/src/draw/lv_draw.c ****     LV_PROFILER_DRAW_BEGIN;
 235:Drivers/lvgl/src/draw/lv_draw.c ****     /*Remove the finished tasks first*/
 236:Drivers/lvgl/src/draw/lv_draw.c ****     lv_draw_task_t * t_prev = NULL;
 237:Drivers/lvgl/src/draw/lv_draw.c ****     lv_draw_task_t * t = layer->draw_task_head;
 238:Drivers/lvgl/src/draw/lv_draw.c ****     lv_draw_task_t * t_next;
 239:Drivers/lvgl/src/draw/lv_draw.c ****     bool remove_task = false;
 240:Drivers/lvgl/src/draw/lv_draw.c ****     while(t) {
 241:Drivers/lvgl/src/draw/lv_draw.c ****         t_next = t->next;
 242:Drivers/lvgl/src/draw/lv_draw.c ****         if(t->state == LV_DRAW_TASK_STATE_READY) {
 243:Drivers/lvgl/src/draw/lv_draw.c ****             cleanup_task(t, disp);
 244:Drivers/lvgl/src/draw/lv_draw.c ****             remove_task = true;
 245:Drivers/lvgl/src/draw/lv_draw.c ****             if(t_prev != NULL)
 246:Drivers/lvgl/src/draw/lv_draw.c ****                 t_prev->next = t_next;
 247:Drivers/lvgl/src/draw/lv_draw.c ****             else
 248:Drivers/lvgl/src/draw/lv_draw.c ****                 layer->draw_task_head = t_next;
 249:Drivers/lvgl/src/draw/lv_draw.c ****         }
 250:Drivers/lvgl/src/draw/lv_draw.c ****         else {
 251:Drivers/lvgl/src/draw/lv_draw.c ****             t_prev = t;
 252:Drivers/lvgl/src/draw/lv_draw.c ****         }
 253:Drivers/lvgl/src/draw/lv_draw.c ****         t = t_next;
 254:Drivers/lvgl/src/draw/lv_draw.c ****     }
 255:Drivers/lvgl/src/draw/lv_draw.c **** 
 256:Drivers/lvgl/src/draw/lv_draw.c ****     bool task_dispatched = false;
 257:Drivers/lvgl/src/draw/lv_draw.c **** 
 258:Drivers/lvgl/src/draw/lv_draw.c ****     /*This layer is ready, enable blending its buffer*/
ARM GAS  /tmp/ccwC1Sr5.s 			page 6


 259:Drivers/lvgl/src/draw/lv_draw.c ****     if(layer->parent && layer->all_tasks_added && layer->draw_task_head == NULL) {
 260:Drivers/lvgl/src/draw/lv_draw.c ****         /*Find a draw task with TYPE_LAYER in the layer where the src is this layer*/
 261:Drivers/lvgl/src/draw/lv_draw.c ****         lv_draw_task_t * t_src = layer->parent->draw_task_head;
 262:Drivers/lvgl/src/draw/lv_draw.c ****         while(t_src) {
 263:Drivers/lvgl/src/draw/lv_draw.c ****             if(t_src->type == LV_DRAW_TASK_TYPE_LAYER && t_src->state == LV_DRAW_TASK_STATE_WAITING
 264:Drivers/lvgl/src/draw/lv_draw.c ****                 lv_draw_image_dsc_t * draw_dsc = t_src->draw_dsc;
 265:Drivers/lvgl/src/draw/lv_draw.c ****                 if(draw_dsc->src == layer) {
 266:Drivers/lvgl/src/draw/lv_draw.c ****                     t_src->state = LV_DRAW_TASK_STATE_QUEUED;
 267:Drivers/lvgl/src/draw/lv_draw.c ****                     lv_draw_dispatch_request();
 268:Drivers/lvgl/src/draw/lv_draw.c ****                     break;
 269:Drivers/lvgl/src/draw/lv_draw.c ****                 }
 270:Drivers/lvgl/src/draw/lv_draw.c ****             }
 271:Drivers/lvgl/src/draw/lv_draw.c ****             t_src = t_src->next;
 272:Drivers/lvgl/src/draw/lv_draw.c ****         }
 273:Drivers/lvgl/src/draw/lv_draw.c ****     }
 274:Drivers/lvgl/src/draw/lv_draw.c ****     /*Assign draw tasks to the draw_units*/
 275:Drivers/lvgl/src/draw/lv_draw.c ****     else if(remove_task || layer->draw_task_head) {
 276:Drivers/lvgl/src/draw/lv_draw.c ****         /*Find a draw unit which is not busy and can take at least one task*/
 277:Drivers/lvgl/src/draw/lv_draw.c ****         /*Let all draw units to pick draw tasks*/
 278:Drivers/lvgl/src/draw/lv_draw.c ****         lv_draw_unit_t * u = _draw_info.unit_head;
 279:Drivers/lvgl/src/draw/lv_draw.c ****         while(u) {
 280:Drivers/lvgl/src/draw/lv_draw.c ****             LV_PROFILER_DRAW_BEGIN_TAG("dispatch_cb");
 281:Drivers/lvgl/src/draw/lv_draw.c ****             LV_PROFILER_DRAW_BEGIN_TAG(u->name);
 282:Drivers/lvgl/src/draw/lv_draw.c ****             int32_t taken_cnt = u->dispatch_cb(u, layer);
 283:Drivers/lvgl/src/draw/lv_draw.c ****             LV_PROFILER_DRAW_END_TAG(u->name);
 284:Drivers/lvgl/src/draw/lv_draw.c ****             LV_PROFILER_DRAW_END_TAG("dispatch_cb");
 285:Drivers/lvgl/src/draw/lv_draw.c ****             if(taken_cnt != LV_DRAW_UNIT_IDLE) task_dispatched = true;
 286:Drivers/lvgl/src/draw/lv_draw.c ****             u = u->next;
 287:Drivers/lvgl/src/draw/lv_draw.c ****         }
 288:Drivers/lvgl/src/draw/lv_draw.c ****     }
 289:Drivers/lvgl/src/draw/lv_draw.c **** 
 290:Drivers/lvgl/src/draw/lv_draw.c ****     LV_PROFILER_DRAW_END;
 291:Drivers/lvgl/src/draw/lv_draw.c ****     return task_dispatched;
 292:Drivers/lvgl/src/draw/lv_draw.c **** }
 293:Drivers/lvgl/src/draw/lv_draw.c **** 
 294:Drivers/lvgl/src/draw/lv_draw.c **** void lv_draw_dispatch_wait_for_request(void)
 295:Drivers/lvgl/src/draw/lv_draw.c **** {
 296:Drivers/lvgl/src/draw/lv_draw.c ****     LV_PROFILER_DRAW_BEGIN;
 297:Drivers/lvgl/src/draw/lv_draw.c **** #if LV_USE_OS
 298:Drivers/lvgl/src/draw/lv_draw.c ****     lv_thread_sync_wait(&_draw_info.sync);
 299:Drivers/lvgl/src/draw/lv_draw.c **** #else
 300:Drivers/lvgl/src/draw/lv_draw.c ****     while(!_draw_info.dispatch_req);
 301:Drivers/lvgl/src/draw/lv_draw.c ****     _draw_info.dispatch_req = 0;
 302:Drivers/lvgl/src/draw/lv_draw.c **** #endif
 303:Drivers/lvgl/src/draw/lv_draw.c ****     LV_PROFILER_DRAW_END;
 304:Drivers/lvgl/src/draw/lv_draw.c **** }
 305:Drivers/lvgl/src/draw/lv_draw.c **** 
 306:Drivers/lvgl/src/draw/lv_draw.c **** void lv_draw_dispatch_request(void)
 307:Drivers/lvgl/src/draw/lv_draw.c **** {
 308:Drivers/lvgl/src/draw/lv_draw.c ****     LV_PROFILER_DRAW_BEGIN;
 309:Drivers/lvgl/src/draw/lv_draw.c **** #if LV_USE_OS
 310:Drivers/lvgl/src/draw/lv_draw.c ****     lv_thread_sync_signal(&_draw_info.sync);
 311:Drivers/lvgl/src/draw/lv_draw.c **** #else
 312:Drivers/lvgl/src/draw/lv_draw.c ****     _draw_info.dispatch_req = 1;
 313:Drivers/lvgl/src/draw/lv_draw.c **** #endif
 314:Drivers/lvgl/src/draw/lv_draw.c ****     LV_PROFILER_DRAW_END;
 315:Drivers/lvgl/src/draw/lv_draw.c **** }
ARM GAS  /tmp/ccwC1Sr5.s 			page 7


 316:Drivers/lvgl/src/draw/lv_draw.c **** 
 317:Drivers/lvgl/src/draw/lv_draw.c **** uint32_t lv_draw_get_unit_count(void)
 318:Drivers/lvgl/src/draw/lv_draw.c **** {
 319:Drivers/lvgl/src/draw/lv_draw.c ****     return _draw_info.unit_cnt;
 320:Drivers/lvgl/src/draw/lv_draw.c **** }
 321:Drivers/lvgl/src/draw/lv_draw.c **** 
 322:Drivers/lvgl/src/draw/lv_draw.c **** lv_draw_task_t * lv_draw_get_available_task(lv_layer_t * layer, lv_draw_task_t * t_prev, uint8_t dr
 323:Drivers/lvgl/src/draw/lv_draw.c **** {
 324:Drivers/lvgl/src/draw/lv_draw.c ****     if(_draw_info.unit_cnt == 1) {
 325:Drivers/lvgl/src/draw/lv_draw.c ****         return get_first_available_task(layer);
 326:Drivers/lvgl/src/draw/lv_draw.c ****     }
 327:Drivers/lvgl/src/draw/lv_draw.c ****     else {
 328:Drivers/lvgl/src/draw/lv_draw.c ****         return lv_draw_get_next_available_task(layer, t_prev, draw_unit_id);
 329:Drivers/lvgl/src/draw/lv_draw.c ****     }
 330:Drivers/lvgl/src/draw/lv_draw.c **** }
 331:Drivers/lvgl/src/draw/lv_draw.c **** 
 332:Drivers/lvgl/src/draw/lv_draw.c **** lv_draw_task_t * lv_draw_get_next_available_task(lv_layer_t * layer, lv_draw_task_t * t_prev, uint8
 333:Drivers/lvgl/src/draw/lv_draw.c **** {
 334:Drivers/lvgl/src/draw/lv_draw.c ****     LV_PROFILER_DRAW_BEGIN;
 335:Drivers/lvgl/src/draw/lv_draw.c **** 
 336:Drivers/lvgl/src/draw/lv_draw.c ****     /*If the first task is screen sized, there cannot be independent areas*/
 337:Drivers/lvgl/src/draw/lv_draw.c ****     if(layer->draw_task_head) {
 338:Drivers/lvgl/src/draw/lv_draw.c ****         int32_t hor_res = lv_display_get_horizontal_resolution(lv_refr_get_disp_refreshing());
 339:Drivers/lvgl/src/draw/lv_draw.c ****         int32_t ver_res = lv_display_get_vertical_resolution(lv_refr_get_disp_refreshing());
 340:Drivers/lvgl/src/draw/lv_draw.c ****         lv_draw_task_t * t = layer->draw_task_head;
 341:Drivers/lvgl/src/draw/lv_draw.c ****         if(t->state != LV_DRAW_TASK_STATE_QUEUED &&
 342:Drivers/lvgl/src/draw/lv_draw.c ****            t->area.x1 <= 0 && t->area.x2 >= hor_res - 1 &&
 343:Drivers/lvgl/src/draw/lv_draw.c ****            t->area.y1 <= 0 && t->area.y2 >= ver_res - 1) {
 344:Drivers/lvgl/src/draw/lv_draw.c ****             LV_PROFILER_DRAW_END;
 345:Drivers/lvgl/src/draw/lv_draw.c ****             return NULL;
 346:Drivers/lvgl/src/draw/lv_draw.c ****         }
 347:Drivers/lvgl/src/draw/lv_draw.c ****     }
 348:Drivers/lvgl/src/draw/lv_draw.c **** 
 349:Drivers/lvgl/src/draw/lv_draw.c ****     lv_draw_task_t * t = t_prev ? t_prev->next : layer->draw_task_head;
 350:Drivers/lvgl/src/draw/lv_draw.c ****     while(t) {
 351:Drivers/lvgl/src/draw/lv_draw.c ****         /*Find a queued and independent task*/
 352:Drivers/lvgl/src/draw/lv_draw.c ****         if(t->state == LV_DRAW_TASK_STATE_QUEUED &&
 353:Drivers/lvgl/src/draw/lv_draw.c ****            (t->preferred_draw_unit_id == LV_DRAW_UNIT_NONE || t->preferred_draw_unit_id == draw_uni
 354:Drivers/lvgl/src/draw/lv_draw.c ****            is_independent(layer, t)) {
 355:Drivers/lvgl/src/draw/lv_draw.c ****             LV_PROFILER_DRAW_END;
 356:Drivers/lvgl/src/draw/lv_draw.c ****             return t;
 357:Drivers/lvgl/src/draw/lv_draw.c ****         }
 358:Drivers/lvgl/src/draw/lv_draw.c ****         t = t->next;
 359:Drivers/lvgl/src/draw/lv_draw.c ****     }
 360:Drivers/lvgl/src/draw/lv_draw.c **** 
 361:Drivers/lvgl/src/draw/lv_draw.c ****     LV_PROFILER_DRAW_END;
 362:Drivers/lvgl/src/draw/lv_draw.c ****     return NULL;
 363:Drivers/lvgl/src/draw/lv_draw.c **** }
 364:Drivers/lvgl/src/draw/lv_draw.c **** 
 365:Drivers/lvgl/src/draw/lv_draw.c **** uint32_t lv_draw_get_dependent_count(lv_draw_task_t * t_check)
 366:Drivers/lvgl/src/draw/lv_draw.c **** {
 367:Drivers/lvgl/src/draw/lv_draw.c ****     if(t_check == NULL) return 0;
 368:Drivers/lvgl/src/draw/lv_draw.c ****     if(t_check->next == NULL) return 0;
 369:Drivers/lvgl/src/draw/lv_draw.c **** 
 370:Drivers/lvgl/src/draw/lv_draw.c ****     LV_PROFILER_DRAW_BEGIN;
 371:Drivers/lvgl/src/draw/lv_draw.c ****     uint32_t cnt = 0;
 372:Drivers/lvgl/src/draw/lv_draw.c **** 
ARM GAS  /tmp/ccwC1Sr5.s 			page 8


 373:Drivers/lvgl/src/draw/lv_draw.c ****     lv_draw_task_t * t = t_check->next;
 374:Drivers/lvgl/src/draw/lv_draw.c ****     while(t) {
 375:Drivers/lvgl/src/draw/lv_draw.c ****         if((t->state == LV_DRAW_TASK_STATE_QUEUED || t->state == LV_DRAW_TASK_STATE_WAITING) &&
 376:Drivers/lvgl/src/draw/lv_draw.c ****            lv_area_is_on(&t_check->area, &t->area)) {
 377:Drivers/lvgl/src/draw/lv_draw.c ****             cnt++;
 378:Drivers/lvgl/src/draw/lv_draw.c ****         }
 379:Drivers/lvgl/src/draw/lv_draw.c **** 
 380:Drivers/lvgl/src/draw/lv_draw.c ****         t = t->next;
 381:Drivers/lvgl/src/draw/lv_draw.c ****     }
 382:Drivers/lvgl/src/draw/lv_draw.c ****     LV_PROFILER_DRAW_END;
 383:Drivers/lvgl/src/draw/lv_draw.c ****     return cnt;
 384:Drivers/lvgl/src/draw/lv_draw.c **** }
 385:Drivers/lvgl/src/draw/lv_draw.c **** 
 386:Drivers/lvgl/src/draw/lv_draw.c **** void lv_layer_init(lv_layer_t * layer)
 387:Drivers/lvgl/src/draw/lv_draw.c **** {
 388:Drivers/lvgl/src/draw/lv_draw.c ****     LV_ASSERT_NULL(layer);
 389:Drivers/lvgl/src/draw/lv_draw.c ****     lv_memzero(layer, sizeof(lv_layer_t));
 390:Drivers/lvgl/src/draw/lv_draw.c ****     lv_layer_reset(layer);
 391:Drivers/lvgl/src/draw/lv_draw.c **** }
 392:Drivers/lvgl/src/draw/lv_draw.c **** 
 393:Drivers/lvgl/src/draw/lv_draw.c **** void lv_layer_reset(lv_layer_t * layer)
 394:Drivers/lvgl/src/draw/lv_draw.c **** {
 395:Drivers/lvgl/src/draw/lv_draw.c ****     LV_ASSERT_NULL(layer);
 396:Drivers/lvgl/src/draw/lv_draw.c **** #if LV_DRAW_TRANSFORM_USE_MATRIX
 397:Drivers/lvgl/src/draw/lv_draw.c ****     lv_matrix_identity(&layer->matrix);
 398:Drivers/lvgl/src/draw/lv_draw.c **** #endif
 399:Drivers/lvgl/src/draw/lv_draw.c ****     layer->opa = LV_OPA_COVER;
 400:Drivers/lvgl/src/draw/lv_draw.c ****     layer->recolor = lv_color32_make(0, 0, 0, 0);
 401:Drivers/lvgl/src/draw/lv_draw.c **** }
 402:Drivers/lvgl/src/draw/lv_draw.c **** 
 403:Drivers/lvgl/src/draw/lv_draw.c **** lv_layer_t * lv_draw_layer_create(lv_layer_t * parent_layer, lv_color_format_t color_format, const 
 404:Drivers/lvgl/src/draw/lv_draw.c **** {
 405:Drivers/lvgl/src/draw/lv_draw.c ****     LV_PROFILER_DRAW_BEGIN;
 406:Drivers/lvgl/src/draw/lv_draw.c ****     lv_layer_t * new_layer = lv_malloc_zeroed(sizeof(lv_layer_t));
 407:Drivers/lvgl/src/draw/lv_draw.c ****     LV_ASSERT_MALLOC(new_layer);
 408:Drivers/lvgl/src/draw/lv_draw.c ****     if(new_layer == NULL) {
 409:Drivers/lvgl/src/draw/lv_draw.c ****         LV_PROFILER_DRAW_END;
 410:Drivers/lvgl/src/draw/lv_draw.c ****         return NULL;
 411:Drivers/lvgl/src/draw/lv_draw.c ****     }
 412:Drivers/lvgl/src/draw/lv_draw.c **** 
 413:Drivers/lvgl/src/draw/lv_draw.c ****     lv_draw_layer_init(new_layer, parent_layer, color_format, area);
 414:Drivers/lvgl/src/draw/lv_draw.c **** 
 415:Drivers/lvgl/src/draw/lv_draw.c ****     /*Inherits transparency from parent*/
 416:Drivers/lvgl/src/draw/lv_draw.c ****     if(parent_layer) {
 417:Drivers/lvgl/src/draw/lv_draw.c ****         new_layer->opa = parent_layer->opa;
 418:Drivers/lvgl/src/draw/lv_draw.c ****         new_layer->recolor = parent_layer->recolor;
 419:Drivers/lvgl/src/draw/lv_draw.c ****     }
 420:Drivers/lvgl/src/draw/lv_draw.c **** 
 421:Drivers/lvgl/src/draw/lv_draw.c ****     LV_PROFILER_DRAW_END;
 422:Drivers/lvgl/src/draw/lv_draw.c ****     return new_layer;
 423:Drivers/lvgl/src/draw/lv_draw.c **** }
 424:Drivers/lvgl/src/draw/lv_draw.c **** 
 425:Drivers/lvgl/src/draw/lv_draw.c **** void lv_draw_layer_init(lv_layer_t * layer, lv_layer_t * parent_layer, lv_color_format_t color_form
 426:Drivers/lvgl/src/draw/lv_draw.c ****                         const lv_area_t * area)
 427:Drivers/lvgl/src/draw/lv_draw.c **** {
 428:Drivers/lvgl/src/draw/lv_draw.c ****     LV_PROFILER_DRAW_BEGIN;
 429:Drivers/lvgl/src/draw/lv_draw.c ****     lv_layer_init(layer);
ARM GAS  /tmp/ccwC1Sr5.s 			page 9


 430:Drivers/lvgl/src/draw/lv_draw.c ****     lv_display_t * disp = lv_refr_get_disp_refreshing();
 431:Drivers/lvgl/src/draw/lv_draw.c **** 
 432:Drivers/lvgl/src/draw/lv_draw.c ****     layer->parent = parent_layer;
 433:Drivers/lvgl/src/draw/lv_draw.c ****     layer->_clip_area = *area;
 434:Drivers/lvgl/src/draw/lv_draw.c ****     layer->buf_area = *area;
 435:Drivers/lvgl/src/draw/lv_draw.c ****     layer->phy_clip_area = *area;
 436:Drivers/lvgl/src/draw/lv_draw.c ****     layer->color_format = color_format;
 437:Drivers/lvgl/src/draw/lv_draw.c **** 
 438:Drivers/lvgl/src/draw/lv_draw.c ****     if(disp->layer_init) disp->layer_init(disp, layer);
 439:Drivers/lvgl/src/draw/lv_draw.c **** 
 440:Drivers/lvgl/src/draw/lv_draw.c ****     if(disp->layer_head) {
 441:Drivers/lvgl/src/draw/lv_draw.c ****         lv_layer_t * tail = disp->layer_head;
 442:Drivers/lvgl/src/draw/lv_draw.c ****         while(tail->next) tail = tail->next;
 443:Drivers/lvgl/src/draw/lv_draw.c ****         tail->next = layer;
 444:Drivers/lvgl/src/draw/lv_draw.c ****     }
 445:Drivers/lvgl/src/draw/lv_draw.c ****     else {
 446:Drivers/lvgl/src/draw/lv_draw.c ****         disp->layer_head = layer;
 447:Drivers/lvgl/src/draw/lv_draw.c ****     }
 448:Drivers/lvgl/src/draw/lv_draw.c **** 
 449:Drivers/lvgl/src/draw/lv_draw.c ****     LV_PROFILER_DRAW_END;
 450:Drivers/lvgl/src/draw/lv_draw.c **** }
 451:Drivers/lvgl/src/draw/lv_draw.c **** 
 452:Drivers/lvgl/src/draw/lv_draw.c **** void * lv_draw_layer_alloc_buf(lv_layer_t * layer)
 453:Drivers/lvgl/src/draw/lv_draw.c **** {
 454:Drivers/lvgl/src/draw/lv_draw.c ****     LV_PROFILER_DRAW_BEGIN;
 455:Drivers/lvgl/src/draw/lv_draw.c ****     /*If the buffer of the layer is already allocated return it*/
 456:Drivers/lvgl/src/draw/lv_draw.c ****     if(layer->draw_buf != NULL) {
 457:Drivers/lvgl/src/draw/lv_draw.c ****         LV_PROFILER_DRAW_END;
 458:Drivers/lvgl/src/draw/lv_draw.c ****         return layer->draw_buf->data;
 459:Drivers/lvgl/src/draw/lv_draw.c ****     }
 460:Drivers/lvgl/src/draw/lv_draw.c **** 
 461:Drivers/lvgl/src/draw/lv_draw.c ****     /*If the buffer of the layer is not allocated yet, allocate it now*/
 462:Drivers/lvgl/src/draw/lv_draw.c ****     int32_t w = lv_area_get_width(&layer->buf_area);
 463:Drivers/lvgl/src/draw/lv_draw.c ****     int32_t h = lv_area_get_height(&layer->buf_area);
 464:Drivers/lvgl/src/draw/lv_draw.c ****     uint32_t layer_size_byte = h * lv_draw_buf_width_to_stride(w, layer->color_format);
 465:Drivers/lvgl/src/draw/lv_draw.c **** 
 466:Drivers/lvgl/src/draw/lv_draw.c **** #if LV_DRAW_LAYER_MAX_MEMORY > 0
 467:Drivers/lvgl/src/draw/lv_draw.c ****     /* Do not allocate the layer if the sum of allocated layer sizes
 468:Drivers/lvgl/src/draw/lv_draw.c ****      * will exceed `LV_DRAW_LAYER_MAX_MEMORY` */
 469:Drivers/lvgl/src/draw/lv_draw.c ****     if((_draw_info.used_memory_for_layers + layer_size_byte) > LV_DRAW_LAYER_MAX_MEMORY) {
 470:Drivers/lvgl/src/draw/lv_draw.c ****         LV_LOG_WARN("LV_DRAW_LAYER_MAX_MEMORY was reached when allocating the layer.");
 471:Drivers/lvgl/src/draw/lv_draw.c ****         return NULL;
 472:Drivers/lvgl/src/draw/lv_draw.c ****     }
 473:Drivers/lvgl/src/draw/lv_draw.c **** #endif
 474:Drivers/lvgl/src/draw/lv_draw.c **** 
 475:Drivers/lvgl/src/draw/lv_draw.c ****     layer->draw_buf = lv_draw_buf_create(w, h, layer->color_format, 0);
 476:Drivers/lvgl/src/draw/lv_draw.c **** 
 477:Drivers/lvgl/src/draw/lv_draw.c ****     if(layer->draw_buf == NULL) {
 478:Drivers/lvgl/src/draw/lv_draw.c ****         LV_LOG_WARN("Allocating layer buffer failed. Try later");
 479:Drivers/lvgl/src/draw/lv_draw.c ****         LV_PROFILER_DRAW_END;
 480:Drivers/lvgl/src/draw/lv_draw.c ****         return NULL;
 481:Drivers/lvgl/src/draw/lv_draw.c ****     }
 482:Drivers/lvgl/src/draw/lv_draw.c **** 
 483:Drivers/lvgl/src/draw/lv_draw.c ****     _draw_info.used_memory_for_layers += layer_size_byte;
 484:Drivers/lvgl/src/draw/lv_draw.c ****     LV_LOG_INFO("Layer memory used: %" LV_PRIu32 " kB", get_layer_size_kb(_draw_info.used_memory_fo
 485:Drivers/lvgl/src/draw/lv_draw.c **** 
 486:Drivers/lvgl/src/draw/lv_draw.c ****     if(lv_color_format_has_alpha(layer->color_format)) {
ARM GAS  /tmp/ccwC1Sr5.s 			page 10


 487:Drivers/lvgl/src/draw/lv_draw.c ****         lv_draw_buf_clear(layer->draw_buf, NULL);
 488:Drivers/lvgl/src/draw/lv_draw.c ****     }
 489:Drivers/lvgl/src/draw/lv_draw.c **** 
 490:Drivers/lvgl/src/draw/lv_draw.c ****     LV_PROFILER_DRAW_END;
 491:Drivers/lvgl/src/draw/lv_draw.c ****     return layer->draw_buf->data;
 492:Drivers/lvgl/src/draw/lv_draw.c **** }
 493:Drivers/lvgl/src/draw/lv_draw.c **** 
 494:Drivers/lvgl/src/draw/lv_draw.c **** void * lv_draw_layer_go_to_xy(lv_layer_t * layer, int32_t x, int32_t y)
 495:Drivers/lvgl/src/draw/lv_draw.c **** {
 496:Drivers/lvgl/src/draw/lv_draw.c ****     return lv_draw_buf_goto_xy(layer->draw_buf, x, y);
 497:Drivers/lvgl/src/draw/lv_draw.c **** }
 498:Drivers/lvgl/src/draw/lv_draw.c **** 
 499:Drivers/lvgl/src/draw/lv_draw.c **** lv_draw_task_type_t lv_draw_task_get_type(const lv_draw_task_t * t)
 500:Drivers/lvgl/src/draw/lv_draw.c **** {
 501:Drivers/lvgl/src/draw/lv_draw.c ****     return t->type;
 502:Drivers/lvgl/src/draw/lv_draw.c **** }
 503:Drivers/lvgl/src/draw/lv_draw.c **** 
 504:Drivers/lvgl/src/draw/lv_draw.c **** void * lv_draw_task_get_draw_dsc(const lv_draw_task_t * t)
 505:Drivers/lvgl/src/draw/lv_draw.c **** {
 506:Drivers/lvgl/src/draw/lv_draw.c ****     return t->draw_dsc;
 507:Drivers/lvgl/src/draw/lv_draw.c **** }
 508:Drivers/lvgl/src/draw/lv_draw.c **** 
 509:Drivers/lvgl/src/draw/lv_draw.c **** void lv_draw_task_get_area(const lv_draw_task_t * t, lv_area_t * area)
 510:Drivers/lvgl/src/draw/lv_draw.c **** {
 511:Drivers/lvgl/src/draw/lv_draw.c ****     *area = t->area;
 512:Drivers/lvgl/src/draw/lv_draw.c **** }
 513:Drivers/lvgl/src/draw/lv_draw.c **** 
 514:Drivers/lvgl/src/draw/lv_draw.c **** /**********************
 515:Drivers/lvgl/src/draw/lv_draw.c ****  *   STATIC FUNCTIONS
 516:Drivers/lvgl/src/draw/lv_draw.c ****  **********************/
 517:Drivers/lvgl/src/draw/lv_draw.c **** 
 518:Drivers/lvgl/src/draw/lv_draw.c **** /**
 519:Drivers/lvgl/src/draw/lv_draw.c ****  * Check if there are older draw task overlapping the area of `t_check`
 520:Drivers/lvgl/src/draw/lv_draw.c ****  * @param layer      the draw ctx to search in
 521:Drivers/lvgl/src/draw/lv_draw.c ****  * @param t_check       check this task if it overlaps with the older ones
 522:Drivers/lvgl/src/draw/lv_draw.c ****  * @return              true: `t_check` is not overlapping with older tasks so it's independent
 523:Drivers/lvgl/src/draw/lv_draw.c ****  */
 524:Drivers/lvgl/src/draw/lv_draw.c **** static bool is_independent(lv_layer_t * layer, lv_draw_task_t * t_check)
 525:Drivers/lvgl/src/draw/lv_draw.c **** {
 526:Drivers/lvgl/src/draw/lv_draw.c ****     LV_PROFILER_DRAW_BEGIN;
 527:Drivers/lvgl/src/draw/lv_draw.c ****     lv_draw_task_t * t = layer->draw_task_head;
 528:Drivers/lvgl/src/draw/lv_draw.c **** 
 529:Drivers/lvgl/src/draw/lv_draw.c ****     /*If t_check is outside of the older tasks then it's independent*/
 530:Drivers/lvgl/src/draw/lv_draw.c ****     while(t && t != t_check) {
 531:Drivers/lvgl/src/draw/lv_draw.c ****         if(t->state != LV_DRAW_TASK_STATE_READY) {
 532:Drivers/lvgl/src/draw/lv_draw.c ****             lv_area_t a;
 533:Drivers/lvgl/src/draw/lv_draw.c ****             if(lv_area_intersect(&a, &t->_real_area, &t_check->_real_area)) {
 534:Drivers/lvgl/src/draw/lv_draw.c ****                 LV_PROFILER_DRAW_END;
 535:Drivers/lvgl/src/draw/lv_draw.c ****                 return false;
 536:Drivers/lvgl/src/draw/lv_draw.c ****             }
 537:Drivers/lvgl/src/draw/lv_draw.c ****         }
 538:Drivers/lvgl/src/draw/lv_draw.c ****         t = t->next;
 539:Drivers/lvgl/src/draw/lv_draw.c ****     }
 540:Drivers/lvgl/src/draw/lv_draw.c ****     LV_PROFILER_DRAW_END;
 541:Drivers/lvgl/src/draw/lv_draw.c **** 
 542:Drivers/lvgl/src/draw/lv_draw.c ****     return true;
 543:Drivers/lvgl/src/draw/lv_draw.c **** }
ARM GAS  /tmp/ccwC1Sr5.s 			page 11


 544:Drivers/lvgl/src/draw/lv_draw.c **** 
 545:Drivers/lvgl/src/draw/lv_draw.c **** /**
 546:Drivers/lvgl/src/draw/lv_draw.c ****  * Get the size of the draw descriptor of a draw task
 547:Drivers/lvgl/src/draw/lv_draw.c ****  * @param type      type of the draw task
 548:Drivers/lvgl/src/draw/lv_draw.c ****  * @return          size of the draw descriptor in bytes
 549:Drivers/lvgl/src/draw/lv_draw.c ****  */
 550:Drivers/lvgl/src/draw/lv_draw.c **** static inline size_t get_draw_dsc_size(lv_draw_task_type_t type)
 551:Drivers/lvgl/src/draw/lv_draw.c **** {
  29              		.loc 1 551 1 view -0
  30              		.cfi_startproc
  31              		@ args = 0, pretend = 0, frame = 0
  32              		@ frame_needed = 0, uses_anonymous_args = 0
  33              		@ link register save eliminated.
 552:Drivers/lvgl/src/draw/lv_draw.c ****     switch(type) {
  34              		.loc 1 552 5 view .LVU1
  35 0000 0138     		subs	r0, r0, #1
  36              	.LVL1:
  37              		.loc 1 552 5 is_stmt 0 view .LVU2
  38 0002 0A28     		cmp	r0, #10
  39 0004 07D8     		bhi	.L2
  40 0006 DFE800F0 		tbb	[pc, r0]
  41              	.L4:
  42 000a 1C       		.byte	(.L15-.L4)/2
  43 000b 08       		.byte	(.L13-.L4)/2
  44 000c 0A       		.byte	(.L12-.L4)/2
  45 000d 0C       		.byte	(.L11-.L4)/2
  46 000e 0E       		.byte	(.L10-.L4)/2
  47 000f 10       		.byte	(.L9-.L4)/2
  48 0010 12       		.byte	(.L8-.L4)/2
  49 0011 14       		.byte	(.L7-.L4)/2
  50 0012 16       		.byte	(.L6-.L4)/2
  51 0013 18       		.byte	(.L5-.L4)/2
  52 0014 1A       		.byte	(.L3-.L4)/2
  53 0015 00       		.p2align 1
  54              	.L2:
  55 0016 0020     		movs	r0, #0
  56              	.LVL2:
  57              		.loc 1 552 5 view .LVU3
  58 0018 7047     		bx	lr
  59              	.L13:
 553:Drivers/lvgl/src/draw/lv_draw.c ****         case LV_DRAW_TASK_TYPE_NONE:
 554:Drivers/lvgl/src/draw/lv_draw.c ****             return 0;
 555:Drivers/lvgl/src/draw/lv_draw.c ****         case LV_DRAW_TASK_TYPE_FILL:
 556:Drivers/lvgl/src/draw/lv_draw.c ****             return sizeof(lv_draw_fill_dsc_t);
 557:Drivers/lvgl/src/draw/lv_draw.c ****         case LV_DRAW_TASK_TYPE_BORDER:
 558:Drivers/lvgl/src/draw/lv_draw.c ****             return sizeof(lv_draw_border_dsc_t);
  60              		.loc 1 558 13 is_stmt 1 view .LVU4
  61              		.loc 1 558 20 is_stmt 0 view .LVU5
  62 001a 2C20     		movs	r0, #44
  63 001c 7047     		bx	lr
  64              	.L12:
 559:Drivers/lvgl/src/draw/lv_draw.c ****         case LV_DRAW_TASK_TYPE_BOX_SHADOW:
 560:Drivers/lvgl/src/draw/lv_draw.c ****             return sizeof(lv_draw_box_shadow_dsc_t);
  65              		.loc 1 560 13 is_stmt 1 view .LVU6
  66              		.loc 1 560 20 is_stmt 0 view .LVU7
  67 001e 3820     		movs	r0, #56
  68 0020 7047     		bx	lr
ARM GAS  /tmp/ccwC1Sr5.s 			page 12


  69              	.L11:
 561:Drivers/lvgl/src/draw/lv_draw.c ****         case LV_DRAW_TASK_TYPE_LETTER:
 562:Drivers/lvgl/src/draw/lv_draw.c ****             return sizeof(lv_draw_letter_dsc_t);
  70              		.loc 1 562 13 is_stmt 1 view .LVU8
  71              		.loc 1 562 20 is_stmt 0 view .LVU9
  72 0022 5020     		movs	r0, #80
  73 0024 7047     		bx	lr
  74              	.L10:
 563:Drivers/lvgl/src/draw/lv_draw.c ****         case LV_DRAW_TASK_TYPE_LABEL:
 564:Drivers/lvgl/src/draw/lv_draw.c ****             return sizeof(lv_draw_label_dsc_t);
  75              		.loc 1 564 13 is_stmt 1 view .LVU10
  76              		.loc 1 564 20 is_stmt 0 view .LVU11
  77 0026 6420     		movs	r0, #100
  78 0028 7047     		bx	lr
  79              	.L9:
 565:Drivers/lvgl/src/draw/lv_draw.c ****         case LV_DRAW_TASK_TYPE_IMAGE:
 566:Drivers/lvgl/src/draw/lv_draw.c ****             return sizeof(lv_draw_image_dsc_t);
  80              		.loc 1 566 13 is_stmt 1 view .LVU12
  81              		.loc 1 566 20 is_stmt 0 view .LVU13
  82 002a 6C20     		movs	r0, #108
  83 002c 7047     		bx	lr
  84              	.L8:
 567:Drivers/lvgl/src/draw/lv_draw.c ****         case LV_DRAW_TASK_TYPE_LAYER:
 568:Drivers/lvgl/src/draw/lv_draw.c ****             return sizeof(lv_draw_image_dsc_t);
  85              		.loc 1 568 13 is_stmt 1 view .LVU14
  86              		.loc 1 568 20 is_stmt 0 view .LVU15
  87 002e 6C20     		movs	r0, #108
  88 0030 7047     		bx	lr
  89              	.L7:
 569:Drivers/lvgl/src/draw/lv_draw.c ****         case LV_DRAW_TASK_TYPE_LINE:
 570:Drivers/lvgl/src/draw/lv_draw.c ****             return sizeof(lv_draw_line_dsc_t);
  90              		.loc 1 570 13 is_stmt 1 view .LVU16
  91              		.loc 1 570 20 is_stmt 0 view .LVU17
  92 0032 4020     		movs	r0, #64
  93 0034 7047     		bx	lr
  94              	.L6:
 571:Drivers/lvgl/src/draw/lv_draw.c ****         case LV_DRAW_TASK_TYPE_ARC:
 572:Drivers/lvgl/src/draw/lv_draw.c ****             return sizeof(lv_draw_arc_dsc_t);
  95              		.loc 1 572 13 is_stmt 1 view .LVU18
  96              		.loc 1 572 20 is_stmt 0 view .LVU19
  97 0036 4020     		movs	r0, #64
  98 0038 7047     		bx	lr
  99              	.L5:
 573:Drivers/lvgl/src/draw/lv_draw.c ****         case LV_DRAW_TASK_TYPE_TRIANGLE:
 574:Drivers/lvgl/src/draw/lv_draw.c ****             return sizeof(lv_draw_triangle_dsc_t);
 100              		.loc 1 574 13 is_stmt 1 view .LVU20
 101              		.loc 1 574 20 is_stmt 0 view .LVU21
 102 003a 4420     		movs	r0, #68
 103 003c 7047     		bx	lr
 104              	.L3:
 575:Drivers/lvgl/src/draw/lv_draw.c ****         case LV_DRAW_TASK_TYPE_MASK_RECTANGLE:
 576:Drivers/lvgl/src/draw/lv_draw.c ****             return sizeof(lv_draw_mask_rect_dsc_t);
 105              		.loc 1 576 13 is_stmt 1 view .LVU22
 106              		.loc 1 576 20 is_stmt 0 view .LVU23
 107 003e 3420     		movs	r0, #52
 108 0040 7047     		bx	lr
 109              	.L15:
ARM GAS  /tmp/ccwC1Sr5.s 			page 13


 556:Drivers/lvgl/src/draw/lv_draw.c ****         case LV_DRAW_TASK_TYPE_BORDER:
 110              		.loc 1 556 20 view .LVU24
 111 0042 3020     		movs	r0, #48
 577:Drivers/lvgl/src/draw/lv_draw.c **** 
 578:Drivers/lvgl/src/draw/lv_draw.c ****         /* no struct match for LV_DRAW_TASK_TYPE_MASK_BITMAP, set it to zero now */
 579:Drivers/lvgl/src/draw/lv_draw.c ****         case LV_DRAW_TASK_TYPE_MASK_BITMAP:
 580:Drivers/lvgl/src/draw/lv_draw.c ****             return 0;
 581:Drivers/lvgl/src/draw/lv_draw.c **** #if LV_USE_VECTOR_GRAPHIC
 582:Drivers/lvgl/src/draw/lv_draw.c ****         case LV_DRAW_TASK_TYPE_VECTOR:
 583:Drivers/lvgl/src/draw/lv_draw.c ****             return sizeof(lv_draw_vector_task_dsc_t);
 584:Drivers/lvgl/src/draw/lv_draw.c **** #endif
 585:Drivers/lvgl/src/draw/lv_draw.c ****             /* Note that default is not added here because when adding new draw task type,
 586:Drivers/lvgl/src/draw/lv_draw.c ****              * if forget to add case, the compiler will automatically report a warning.
 587:Drivers/lvgl/src/draw/lv_draw.c ****              */
 588:Drivers/lvgl/src/draw/lv_draw.c ****     }
 589:Drivers/lvgl/src/draw/lv_draw.c **** 
 590:Drivers/lvgl/src/draw/lv_draw.c ****     return 0;
 591:Drivers/lvgl/src/draw/lv_draw.c **** }
 112              		.loc 1 591 1 view .LVU25
 113 0044 7047     		bx	lr
 114              		.cfi_endproc
 115              	.LFE210:
 117              		.section	.text.get_first_available_task,"ax",%progbits
 118              		.align	1
 119              		.syntax unified
 120              		.thumb
 121              		.thumb_func
 123              	get_first_available_task:
 124              	.LVL3:
 125              	.LFB212:
 592:Drivers/lvgl/src/draw/lv_draw.c **** 
 593:Drivers/lvgl/src/draw/lv_draw.c **** /**
 594:Drivers/lvgl/src/draw/lv_draw.c ****  * Clean-up resources allocated by a finished task
 595:Drivers/lvgl/src/draw/lv_draw.c ****  * @param t         pointer to a draw task
 596:Drivers/lvgl/src/draw/lv_draw.c ****  * @param disp      pointer to a display on which the task was drawn
 597:Drivers/lvgl/src/draw/lv_draw.c ****  */
 598:Drivers/lvgl/src/draw/lv_draw.c **** static void cleanup_task(lv_draw_task_t * t, lv_display_t * disp)
 599:Drivers/lvgl/src/draw/lv_draw.c **** {
 600:Drivers/lvgl/src/draw/lv_draw.c ****     LV_PROFILER_DRAW_BEGIN;
 601:Drivers/lvgl/src/draw/lv_draw.c ****     /*If it was layer drawing free the layer too*/
 602:Drivers/lvgl/src/draw/lv_draw.c ****     if(t->type == LV_DRAW_TASK_TYPE_LAYER) {
 603:Drivers/lvgl/src/draw/lv_draw.c ****         lv_draw_image_dsc_t * draw_image_dsc = t->draw_dsc;
 604:Drivers/lvgl/src/draw/lv_draw.c ****         lv_layer_t * layer_drawn = (lv_layer_t *)draw_image_dsc->src;
 605:Drivers/lvgl/src/draw/lv_draw.c **** 
 606:Drivers/lvgl/src/draw/lv_draw.c ****         if(layer_drawn->draw_buf) {
 607:Drivers/lvgl/src/draw/lv_draw.c ****             int32_t h = lv_area_get_height(&layer_drawn->buf_area);
 608:Drivers/lvgl/src/draw/lv_draw.c ****             uint32_t layer_size_byte = h * layer_drawn->draw_buf->header.stride;
 609:Drivers/lvgl/src/draw/lv_draw.c **** 
 610:Drivers/lvgl/src/draw/lv_draw.c ****             if(_draw_info.used_memory_for_layers >= layer_size_byte) {
 611:Drivers/lvgl/src/draw/lv_draw.c ****                 _draw_info.used_memory_for_layers -= layer_size_byte;
 612:Drivers/lvgl/src/draw/lv_draw.c ****             }
 613:Drivers/lvgl/src/draw/lv_draw.c ****             else {
 614:Drivers/lvgl/src/draw/lv_draw.c ****                 _draw_info.used_memory_for_layers = 0;
 615:Drivers/lvgl/src/draw/lv_draw.c ****                 LV_LOG_WARN("More layers were freed than allocated");
 616:Drivers/lvgl/src/draw/lv_draw.c ****             }
 617:Drivers/lvgl/src/draw/lv_draw.c ****             LV_LOG_INFO("Layer memory used: %" LV_PRIu32 " kB", get_layer_size_kb(_draw_info.used_m
 618:Drivers/lvgl/src/draw/lv_draw.c ****             lv_draw_buf_destroy(layer_drawn->draw_buf);
ARM GAS  /tmp/ccwC1Sr5.s 			page 14


 619:Drivers/lvgl/src/draw/lv_draw.c ****             layer_drawn->draw_buf = NULL;
 620:Drivers/lvgl/src/draw/lv_draw.c ****         }
 621:Drivers/lvgl/src/draw/lv_draw.c **** 
 622:Drivers/lvgl/src/draw/lv_draw.c ****         /*Remove the layer from  the display's*/
 623:Drivers/lvgl/src/draw/lv_draw.c ****         if(disp) {
 624:Drivers/lvgl/src/draw/lv_draw.c ****             lv_layer_t * l2 = disp->layer_head;
 625:Drivers/lvgl/src/draw/lv_draw.c ****             while(l2) {
 626:Drivers/lvgl/src/draw/lv_draw.c ****                 if(l2->next == layer_drawn) {
 627:Drivers/lvgl/src/draw/lv_draw.c ****                     l2->next = layer_drawn->next;
 628:Drivers/lvgl/src/draw/lv_draw.c ****                     break;
 629:Drivers/lvgl/src/draw/lv_draw.c ****                 }
 630:Drivers/lvgl/src/draw/lv_draw.c ****                 l2 = l2->next;
 631:Drivers/lvgl/src/draw/lv_draw.c ****             }
 632:Drivers/lvgl/src/draw/lv_draw.c **** 
 633:Drivers/lvgl/src/draw/lv_draw.c ****             if(disp->layer_deinit) {
 634:Drivers/lvgl/src/draw/lv_draw.c ****                 LV_PROFILER_DRAW_BEGIN_TAG("layer_deinit");
 635:Drivers/lvgl/src/draw/lv_draw.c ****                 disp->layer_deinit(disp, layer_drawn);
 636:Drivers/lvgl/src/draw/lv_draw.c ****                 LV_PROFILER_DRAW_END_TAG("layer_deinit");
 637:Drivers/lvgl/src/draw/lv_draw.c ****             }
 638:Drivers/lvgl/src/draw/lv_draw.c ****             lv_free(layer_drawn);
 639:Drivers/lvgl/src/draw/lv_draw.c ****         }
 640:Drivers/lvgl/src/draw/lv_draw.c ****     }
 641:Drivers/lvgl/src/draw/lv_draw.c ****     lv_draw_label_dsc_t * draw_label_dsc = lv_draw_task_get_label_dsc(t);
 642:Drivers/lvgl/src/draw/lv_draw.c ****     if(draw_label_dsc && draw_label_dsc->text_local) {
 643:Drivers/lvgl/src/draw/lv_draw.c ****         lv_free((void *)draw_label_dsc->text);
 644:Drivers/lvgl/src/draw/lv_draw.c ****         draw_label_dsc->text = NULL;
 645:Drivers/lvgl/src/draw/lv_draw.c ****     }
 646:Drivers/lvgl/src/draw/lv_draw.c **** 
 647:Drivers/lvgl/src/draw/lv_draw.c ****     lv_free(t);
 648:Drivers/lvgl/src/draw/lv_draw.c ****     LV_PROFILER_DRAW_END;
 649:Drivers/lvgl/src/draw/lv_draw.c **** }
 650:Drivers/lvgl/src/draw/lv_draw.c **** 
 651:Drivers/lvgl/src/draw/lv_draw.c **** static lv_draw_task_t * get_first_available_task(lv_layer_t * layer)
 652:Drivers/lvgl/src/draw/lv_draw.c **** {
 126              		.loc 1 652 1 is_stmt 1 view -0
 127              		.cfi_startproc
 128              		@ args = 0, pretend = 0, frame = 0
 129              		@ frame_needed = 0, uses_anonymous_args = 0
 130              		@ link register save eliminated.
 653:Drivers/lvgl/src/draw/lv_draw.c ****     LV_PROFILER_DRAW_BEGIN;
 131              		.loc 1 653 27 view .LVU27
 654:Drivers/lvgl/src/draw/lv_draw.c ****     /* If there is only 1 draw unit the task can be consumed linearly as
 655:Drivers/lvgl/src/draw/lv_draw.c ****      * they are added in the correct order. However, it can happen that
 656:Drivers/lvgl/src/draw/lv_draw.c ****      * there is a `LV_DRAW_TASK_TYPE_LAYER` which can be blended only when
 657:Drivers/lvgl/src/draw/lv_draw.c ****      * all its tasks are ready. As other areas might be on top of that
 658:Drivers/lvgl/src/draw/lv_draw.c ****      * layer-to-blend don't skip it. Instead stop there, so that the
 659:Drivers/lvgl/src/draw/lv_draw.c ****      * draw tasks of that layer can be consumed and can be finished.
 660:Drivers/lvgl/src/draw/lv_draw.c ****      * After that this layer-to-blenf will have `LV_DRAW_TASK_STATE_QUEUED`
 661:Drivers/lvgl/src/draw/lv_draw.c ****      * so it can be blended normally.*/
 662:Drivers/lvgl/src/draw/lv_draw.c ****     lv_draw_task_t * t = layer->draw_task_head;
 132              		.loc 1 662 5 view .LVU28
 133              		.loc 1 662 22 is_stmt 0 view .LVU29
 134 0000 406C     		ldr	r0, [r0, #68]
 135              	.LVL4:
 663:Drivers/lvgl/src/draw/lv_draw.c ****     while(t) {
 136              		.loc 1 663 5 is_stmt 1 view .LVU30
 137              		.loc 1 663 11 view .LVU31
ARM GAS  /tmp/ccwC1Sr5.s 			page 15


 138 0002 10B1     		cbz	r0, .L16
 664:Drivers/lvgl/src/draw/lv_draw.c ****         /*Not queued yet, leave this layer while the first task is queued*/
 665:Drivers/lvgl/src/draw/lv_draw.c ****         if(t->state != LV_DRAW_TASK_STATE_QUEUED) {
 139              		.loc 1 665 9 view .LVU32
 140              		.loc 1 665 13 is_stmt 0 view .LVU33
 141 0004 036D     		ldr	r3, [r0, #80]
 142              		.loc 1 665 11 view .LVU34
 143 0006 012B     		cmp	r3, #1
 144 0008 00D1     		bne	.L19
 145              	.LVL5:
 146              	.L16:
 666:Drivers/lvgl/src/draw/lv_draw.c ****             t = NULL;
 667:Drivers/lvgl/src/draw/lv_draw.c ****             break;
 668:Drivers/lvgl/src/draw/lv_draw.c ****         }
 669:Drivers/lvgl/src/draw/lv_draw.c ****         /*It's a supported and queued task, process it*/
 670:Drivers/lvgl/src/draw/lv_draw.c ****         else {
 671:Drivers/lvgl/src/draw/lv_draw.c ****             break;
 672:Drivers/lvgl/src/draw/lv_draw.c ****         }
 673:Drivers/lvgl/src/draw/lv_draw.c ****         t = t->next;
 674:Drivers/lvgl/src/draw/lv_draw.c ****     }
 675:Drivers/lvgl/src/draw/lv_draw.c **** 
 676:Drivers/lvgl/src/draw/lv_draw.c ****     LV_PROFILER_DRAW_END;
 677:Drivers/lvgl/src/draw/lv_draw.c ****     return t;
 678:Drivers/lvgl/src/draw/lv_draw.c **** }
 147              		.loc 1 678 1 view .LVU35
 148 000a 7047     		bx	lr
 149              	.LVL6:
 150              	.L19:
 666:Drivers/lvgl/src/draw/lv_draw.c ****             t = NULL;
 151              		.loc 1 666 15 view .LVU36
 152 000c 0020     		movs	r0, #0
 153              	.LVL7:
 676:Drivers/lvgl/src/draw/lv_draw.c ****     return t;
 154              		.loc 1 676 25 is_stmt 1 view .LVU37
 677:Drivers/lvgl/src/draw/lv_draw.c **** }
 155              		.loc 1 677 5 view .LVU38
 677:Drivers/lvgl/src/draw/lv_draw.c **** }
 156              		.loc 1 677 12 is_stmt 0 view .LVU39
 157 000e FCE7     		b	.L16
 158              		.cfi_endproc
 159              	.LFE212:
 161              		.section	.text.cleanup_task,"ax",%progbits
 162              		.align	1
 163              		.syntax unified
 164              		.thumb
 165              		.thumb_func
 167              	cleanup_task:
 168              	.LVL8:
 169              	.LFB211:
 599:Drivers/lvgl/src/draw/lv_draw.c ****     LV_PROFILER_DRAW_BEGIN;
 170              		.loc 1 599 1 is_stmt 1 view -0
 171              		.cfi_startproc
 172              		@ args = 0, pretend = 0, frame = 0
 173              		@ frame_needed = 0, uses_anonymous_args = 0
 599:Drivers/lvgl/src/draw/lv_draw.c ****     LV_PROFILER_DRAW_BEGIN;
 174              		.loc 1 599 1 is_stmt 0 view .LVU41
 175 0000 70B5     		push	{r4, r5, r6, lr}
ARM GAS  /tmp/ccwC1Sr5.s 			page 16


 176              	.LCFI0:
 177              		.cfi_def_cfa_offset 16
 178              		.cfi_offset 4, -16
 179              		.cfi_offset 5, -12
 180              		.cfi_offset 6, -8
 181              		.cfi_offset 14, -4
 182 0002 0446     		mov	r4, r0
 600:Drivers/lvgl/src/draw/lv_draw.c ****     /*If it was layer drawing free the layer too*/
 183              		.loc 1 600 27 is_stmt 1 view .LVU42
 602:Drivers/lvgl/src/draw/lv_draw.c ****         lv_draw_image_dsc_t * draw_image_dsc = t->draw_dsc;
 184              		.loc 1 602 5 view .LVU43
 602:Drivers/lvgl/src/draw/lv_draw.c ****         lv_draw_image_dsc_t * draw_image_dsc = t->draw_dsc;
 185              		.loc 1 602 9 is_stmt 0 view .LVU44
 186 0004 0379     		ldrb	r3, [r0, #4]	@ zero_extendqisi2
 602:Drivers/lvgl/src/draw/lv_draw.c ****         lv_draw_image_dsc_t * draw_image_dsc = t->draw_dsc;
 187              		.loc 1 602 7 view .LVU45
 188 0006 072B     		cmp	r3, #7
 189 0008 0DD0     		beq	.L32
 190              	.LVL9:
 191              	.L21:
 641:Drivers/lvgl/src/draw/lv_draw.c ****     if(draw_label_dsc && draw_label_dsc->text_local) {
 192              		.loc 1 641 5 is_stmt 1 view .LVU46
 641:Drivers/lvgl/src/draw/lv_draw.c ****     if(draw_label_dsc && draw_label_dsc->text_local) {
 193              		.loc 1 641 44 is_stmt 0 view .LVU47
 194 000a 2046     		mov	r0, r4
 195 000c FFF7FEFF 		bl	lv_draw_task_get_label_dsc
 196              	.LVL10:
 642:Drivers/lvgl/src/draw/lv_draw.c ****         lv_free((void *)draw_label_dsc->text);
 197              		.loc 1 642 5 is_stmt 1 view .LVU48
 642:Drivers/lvgl/src/draw/lv_draw.c ****         lv_free((void *)draw_label_dsc->text);
 198              		.loc 1 642 7 is_stmt 0 view .LVU49
 199 0010 0546     		mov	r5, r0
 200 0012 20B1     		cbz	r0, .L29
 642:Drivers/lvgl/src/draw/lv_draw.c ****         lv_free((void *)draw_label_dsc->text);
 201              		.loc 1 642 23 discriminator 1 view .LVU50
 202 0014 90F85430 		ldrb	r3, [r0, #84]	@ zero_extendqisi2
 203 0018 13F0010F 		tst	r3, #1
 204 001c 38D1     		bne	.L33
 205              	.LVL11:
 206              	.L29:
 647:Drivers/lvgl/src/draw/lv_draw.c ****     LV_PROFILER_DRAW_END;
 207              		.loc 1 647 5 is_stmt 1 view .LVU51
 208 001e 2046     		mov	r0, r4
 209 0020 FFF7FEFF 		bl	lv_free
 210              	.LVL12:
 648:Drivers/lvgl/src/draw/lv_draw.c **** }
 211              		.loc 1 648 25 view .LVU52
 649:Drivers/lvgl/src/draw/lv_draw.c **** 
 212              		.loc 1 649 1 is_stmt 0 view .LVU53
 213 0024 70BD     		pop	{r4, r5, r6, pc}
 214              	.LVL13:
 215              	.L32:
 649:Drivers/lvgl/src/draw/lv_draw.c **** 
 216              		.loc 1 649 1 view .LVU54
 217 0026 0E46     		mov	r6, r1
 218              	.LBB4:
 603:Drivers/lvgl/src/draw/lv_draw.c ****         lv_layer_t * layer_drawn = (lv_layer_t *)draw_image_dsc->src;
ARM GAS  /tmp/ccwC1Sr5.s 			page 17


 219              		.loc 1 603 9 is_stmt 1 view .LVU55
 603:Drivers/lvgl/src/draw/lv_draw.c ****         lv_layer_t * layer_drawn = (lv_layer_t *)draw_image_dsc->src;
 220              		.loc 1 603 31 is_stmt 0 view .LVU56
 221 0028 436D     		ldr	r3, [r0, #84]
 222              	.LVL14:
 604:Drivers/lvgl/src/draw/lv_draw.c **** 
 223              		.loc 1 604 9 is_stmt 1 view .LVU57
 604:Drivers/lvgl/src/draw/lv_draw.c **** 
 224              		.loc 1 604 22 is_stmt 0 view .LVU58
 225 002a DD69     		ldr	r5, [r3, #28]
 226              	.LVL15:
 606:Drivers/lvgl/src/draw/lv_draw.c ****             int32_t h = lv_area_get_height(&layer_drawn->buf_area);
 227              		.loc 1 606 9 is_stmt 1 view .LVU59
 606:Drivers/lvgl/src/draw/lv_draw.c ****             int32_t h = lv_area_get_height(&layer_drawn->buf_area);
 228              		.loc 1 606 23 is_stmt 0 view .LVU60
 229 002c 2B68     		ldr	r3, [r5]
 230              	.LVL16:
 606:Drivers/lvgl/src/draw/lv_draw.c ****             int32_t h = lv_area_get_height(&layer_drawn->buf_area);
 231              		.loc 1 606 11 view .LVU61
 232 002e A3B1     		cbz	r3, .L22
 233              	.LBB5:
 607:Drivers/lvgl/src/draw/lv_draw.c ****             uint32_t layer_size_byte = h * layer_drawn->draw_buf->header.stride;
 234              		.loc 1 607 13 is_stmt 1 view .LVU62
 607:Drivers/lvgl/src/draw/lv_draw.c ****             uint32_t layer_size_byte = h * layer_drawn->draw_buf->header.stride;
 235              		.loc 1 607 25 is_stmt 0 view .LVU63
 236 0030 281D     		adds	r0, r5, #4
 237              	.LVL17:
 607:Drivers/lvgl/src/draw/lv_draw.c ****             uint32_t layer_size_byte = h * layer_drawn->draw_buf->header.stride;
 238              		.loc 1 607 25 view .LVU64
 239 0032 FFF7FEFF 		bl	lv_area_get_height
 240              	.LVL18:
 608:Drivers/lvgl/src/draw/lv_draw.c **** 
 241              		.loc 1 608 13 is_stmt 1 view .LVU65
 608:Drivers/lvgl/src/draw/lv_draw.c **** 
 242              		.loc 1 608 55 is_stmt 0 view .LVU66
 243 0036 2B68     		ldr	r3, [r5]
 608:Drivers/lvgl/src/draw/lv_draw.c **** 
 244              		.loc 1 608 73 view .LVU67
 245 0038 1B89     		ldrh	r3, [r3, #8]
 608:Drivers/lvgl/src/draw/lv_draw.c **** 
 246              		.loc 1 608 42 view .LVU68
 247 003a 03FB00F0 		mul	r0, r3, r0
 248              	.LVL19:
 610:Drivers/lvgl/src/draw/lv_draw.c ****                 _draw_info.used_memory_for_layers -= layer_size_byte;
 249              		.loc 1 610 13 is_stmt 1 view .LVU69
 610:Drivers/lvgl/src/draw/lv_draw.c ****                 _draw_info.used_memory_for_layers -= layer_size_byte;
 250              		.loc 1 610 26 is_stmt 0 view .LVU70
 251 003e 174B     		ldr	r3, .L35
 252 0040 D3F82C31 		ldr	r3, [r3, #300]
 610:Drivers/lvgl/src/draw/lv_draw.c ****                 _draw_info.used_memory_for_layers -= layer_size_byte;
 253              		.loc 1 610 15 view .LVU71
 254 0044 8342     		cmp	r3, r0
 255 0046 12D3     		bcc	.L23
 611:Drivers/lvgl/src/draw/lv_draw.c ****             }
 256              		.loc 1 611 17 is_stmt 1 view .LVU72
 611:Drivers/lvgl/src/draw/lv_draw.c ****             }
 257              		.loc 1 611 51 is_stmt 0 view .LVU73
ARM GAS  /tmp/ccwC1Sr5.s 			page 18


 258 0048 1B1A     		subs	r3, r3, r0
 259 004a 144A     		ldr	r2, .L35
 260 004c C2F82C31 		str	r3, [r2, #300]
 261              	.L24:
 615:Drivers/lvgl/src/draw/lv_draw.c ****             }
 262              		.loc 1 615 17 is_stmt 1 view .LVU74
 615:Drivers/lvgl/src/draw/lv_draw.c ****             }
 263              		.loc 1 615 17 view .LVU75
 615:Drivers/lvgl/src/draw/lv_draw.c ****             }
 264              		.loc 1 615 17 view .LVU76
 617:Drivers/lvgl/src/draw/lv_draw.c ****             lv_draw_buf_destroy(layer_drawn->draw_buf);
 265              		.loc 1 617 13 view .LVU77
 617:Drivers/lvgl/src/draw/lv_draw.c ****             lv_draw_buf_destroy(layer_drawn->draw_buf);
 266              		.loc 1 617 13 view .LVU78
 617:Drivers/lvgl/src/draw/lv_draw.c ****             lv_draw_buf_destroy(layer_drawn->draw_buf);
 267              		.loc 1 617 13 view .LVU79
 618:Drivers/lvgl/src/draw/lv_draw.c ****             layer_drawn->draw_buf = NULL;
 268              		.loc 1 618 13 view .LVU80
 269 0050 2868     		ldr	r0, [r5]
 270              	.LVL20:
 618:Drivers/lvgl/src/draw/lv_draw.c ****             layer_drawn->draw_buf = NULL;
 271              		.loc 1 618 13 is_stmt 0 view .LVU81
 272 0052 FFF7FEFF 		bl	lv_draw_buf_destroy
 273              	.LVL21:
 619:Drivers/lvgl/src/draw/lv_draw.c ****         }
 274              		.loc 1 619 13 is_stmt 1 view .LVU82
 619:Drivers/lvgl/src/draw/lv_draw.c ****         }
 275              		.loc 1 619 35 is_stmt 0 view .LVU83
 276 0056 0023     		movs	r3, #0
 277 0058 2B60     		str	r3, [r5]
 278              	.LVL22:
 279              	.L22:
 619:Drivers/lvgl/src/draw/lv_draw.c ****         }
 280              		.loc 1 619 35 view .LVU84
 281              	.LBE5:
 623:Drivers/lvgl/src/draw/lv_draw.c ****             lv_layer_t * l2 = disp->layer_head;
 282              		.loc 1 623 9 is_stmt 1 view .LVU85
 623:Drivers/lvgl/src/draw/lv_draw.c ****             lv_layer_t * l2 = disp->layer_head;
 283              		.loc 1 623 11 is_stmt 0 view .LVU86
 284 005a 002E     		cmp	r6, #0
 285 005c D5D0     		beq	.L21
 286              	.LBB6:
 624:Drivers/lvgl/src/draw/lv_draw.c ****             while(l2) {
 287              		.loc 1 624 13 is_stmt 1 view .LVU87
 624:Drivers/lvgl/src/draw/lv_draw.c ****             while(l2) {
 288              		.loc 1 624 26 is_stmt 0 view .LVU88
 289 005e D6F8AC32 		ldr	r3, [r6, #684]
 290              	.LVL23:
 625:Drivers/lvgl/src/draw/lv_draw.c ****                 if(l2->next == layer_drawn) {
 291              		.loc 1 625 13 is_stmt 1 view .LVU89
 292              	.L25:
 625:Drivers/lvgl/src/draw/lv_draw.c ****                 if(l2->next == layer_drawn) {
 293              		.loc 1 625 19 view .LVU90
 294 0062 5BB1     		cbz	r3, .L26
 626:Drivers/lvgl/src/draw/lv_draw.c ****                     l2->next = layer_drawn->next;
 295              		.loc 1 626 17 view .LVU91
 626:Drivers/lvgl/src/draw/lv_draw.c ****                     l2->next = layer_drawn->next;
ARM GAS  /tmp/ccwC1Sr5.s 			page 19


 296              		.loc 1 626 22 is_stmt 0 view .LVU92
 297 0064 DA6C     		ldr	r2, [r3, #76]
 626:Drivers/lvgl/src/draw/lv_draw.c ****                     l2->next = layer_drawn->next;
 298              		.loc 1 626 19 view .LVU93
 299 0066 AA42     		cmp	r2, r5
 300 0068 06D0     		beq	.L34
 630:Drivers/lvgl/src/draw/lv_draw.c ****             }
 301              		.loc 1 630 20 view .LVU94
 302 006a 1346     		mov	r3, r2
 303              	.LVL24:
 630:Drivers/lvgl/src/draw/lv_draw.c ****             }
 304              		.loc 1 630 20 view .LVU95
 305 006c F9E7     		b	.L25
 306              	.LVL25:
 307              	.L23:
 630:Drivers/lvgl/src/draw/lv_draw.c ****             }
 308              		.loc 1 630 20 view .LVU96
 309              	.LBE6:
 310              	.LBB7:
 614:Drivers/lvgl/src/draw/lv_draw.c ****                 LV_LOG_WARN("More layers were freed than allocated");
 311              		.loc 1 614 17 is_stmt 1 view .LVU97
 614:Drivers/lvgl/src/draw/lv_draw.c ****                 LV_LOG_WARN("More layers were freed than allocated");
 312              		.loc 1 614 51 is_stmt 0 view .LVU98
 313 006e 0B4B     		ldr	r3, .L35
 314 0070 0022     		movs	r2, #0
 315 0072 C3F82C21 		str	r2, [r3, #300]
 316 0076 EBE7     		b	.L24
 317              	.LVL26:
 318              	.L34:
 614:Drivers/lvgl/src/draw/lv_draw.c ****                 LV_LOG_WARN("More layers were freed than allocated");
 319              		.loc 1 614 51 view .LVU99
 320              	.LBE7:
 321              	.LBB8:
 627:Drivers/lvgl/src/draw/lv_draw.c ****                     break;
 322              		.loc 1 627 21 is_stmt 1 view .LVU100
 627:Drivers/lvgl/src/draw/lv_draw.c ****                     break;
 323              		.loc 1 627 43 is_stmt 0 view .LVU101
 324 0078 EA6C     		ldr	r2, [r5, #76]
 627:Drivers/lvgl/src/draw/lv_draw.c ****                     break;
 325              		.loc 1 627 30 view .LVU102
 326 007a DA64     		str	r2, [r3, #76]
 628:Drivers/lvgl/src/draw/lv_draw.c ****                 }
 327              		.loc 1 628 21 is_stmt 1 view .LVU103
 328              	.L26:
 633:Drivers/lvgl/src/draw/lv_draw.c ****                 LV_PROFILER_DRAW_BEGIN_TAG("layer_deinit");
 329              		.loc 1 633 13 view .LVU104
 633:Drivers/lvgl/src/draw/lv_draw.c ****                 LV_PROFILER_DRAW_BEGIN_TAG("layer_deinit");
 330              		.loc 1 633 20 is_stmt 0 view .LVU105
 331 007c D6F8B432 		ldr	r3, [r6, #692]
 332              	.LVL27:
 633:Drivers/lvgl/src/draw/lv_draw.c ****                 LV_PROFILER_DRAW_BEGIN_TAG("layer_deinit");
 333              		.loc 1 633 15 view .LVU106
 334 0080 13B1     		cbz	r3, .L28
 634:Drivers/lvgl/src/draw/lv_draw.c ****                 disp->layer_deinit(disp, layer_drawn);
 335              		.loc 1 634 59 is_stmt 1 view .LVU107
 635:Drivers/lvgl/src/draw/lv_draw.c ****                 LV_PROFILER_DRAW_END_TAG("layer_deinit");
 336              		.loc 1 635 17 view .LVU108
ARM GAS  /tmp/ccwC1Sr5.s 			page 20


 337 0082 2946     		mov	r1, r5
 338 0084 3046     		mov	r0, r6
 339 0086 9847     		blx	r3
 340              	.LVL28:
 341              	.L28:
 636:Drivers/lvgl/src/draw/lv_draw.c ****             }
 342              		.loc 1 636 57 view .LVU109
 638:Drivers/lvgl/src/draw/lv_draw.c ****         }
 343              		.loc 1 638 13 view .LVU110
 344 0088 2846     		mov	r0, r5
 345 008a FFF7FEFF 		bl	lv_free
 346              	.LVL29:
 347 008e BCE7     		b	.L21
 348              	.LVL30:
 349              	.L33:
 638:Drivers/lvgl/src/draw/lv_draw.c ****         }
 350              		.loc 1 638 13 is_stmt 0 view .LVU111
 351              	.LBE8:
 352              	.LBE4:
 643:Drivers/lvgl/src/draw/lv_draw.c ****         draw_label_dsc->text = NULL;
 353              		.loc 1 643 9 is_stmt 1 view .LVU112
 354 0090 C069     		ldr	r0, [r0, #28]
 355              	.LVL31:
 643:Drivers/lvgl/src/draw/lv_draw.c ****         draw_label_dsc->text = NULL;
 356              		.loc 1 643 9 is_stmt 0 view .LVU113
 357 0092 FFF7FEFF 		bl	lv_free
 358              	.LVL32:
 644:Drivers/lvgl/src/draw/lv_draw.c ****     }
 359              		.loc 1 644 9 is_stmt 1 view .LVU114
 644:Drivers/lvgl/src/draw/lv_draw.c ****     }
 360              		.loc 1 644 30 is_stmt 0 view .LVU115
 361 0096 0023     		movs	r3, #0
 362 0098 EB61     		str	r3, [r5, #28]
 363 009a C0E7     		b	.L29
 364              	.L36:
 365              		.align	2
 366              	.L35:
 367 009c 00000000 		.word	lv_global
 368              		.cfi_endproc
 369              	.LFE211:
 371              		.section	.text.is_independent,"ax",%progbits
 372              		.align	1
 373              		.syntax unified
 374              		.thumb
 375              		.thumb_func
 377              	is_independent:
 378              	.LVL33:
 379              	.LFB209:
 525:Drivers/lvgl/src/draw/lv_draw.c ****     LV_PROFILER_DRAW_BEGIN;
 380              		.loc 1 525 1 is_stmt 1 view -0
 381              		.cfi_startproc
 382              		@ args = 0, pretend = 0, frame = 16
 383              		@ frame_needed = 0, uses_anonymous_args = 0
 525:Drivers/lvgl/src/draw/lv_draw.c ****     LV_PROFILER_DRAW_BEGIN;
 384              		.loc 1 525 1 is_stmt 0 view .LVU117
 385 0000 30B5     		push	{r4, r5, lr}
 386              	.LCFI1:
ARM GAS  /tmp/ccwC1Sr5.s 			page 21


 387              		.cfi_def_cfa_offset 12
 388              		.cfi_offset 4, -12
 389              		.cfi_offset 5, -8
 390              		.cfi_offset 14, -4
 391 0002 85B0     		sub	sp, sp, #20
 392              	.LCFI2:
 393              		.cfi_def_cfa_offset 32
 394 0004 0D46     		mov	r5, r1
 526:Drivers/lvgl/src/draw/lv_draw.c ****     lv_draw_task_t * t = layer->draw_task_head;
 395              		.loc 1 526 27 is_stmt 1 view .LVU118
 527:Drivers/lvgl/src/draw/lv_draw.c **** 
 396              		.loc 1 527 5 view .LVU119
 527:Drivers/lvgl/src/draw/lv_draw.c **** 
 397              		.loc 1 527 22 is_stmt 0 view .LVU120
 398 0006 446C     		ldr	r4, [r0, #68]
 399              	.LVL34:
 530:Drivers/lvgl/src/draw/lv_draw.c ****         if(t->state != LV_DRAW_TASK_STATE_READY) {
 400              		.loc 1 530 5 is_stmt 1 view .LVU121
 530:Drivers/lvgl/src/draw/lv_draw.c ****         if(t->state != LV_DRAW_TASK_STATE_READY) {
 401              		.loc 1 530 10 is_stmt 0 view .LVU122
 402 0008 00E0     		b	.L38
 403              	.LVL35:
 404              	.L39:
 538:Drivers/lvgl/src/draw/lv_draw.c ****     }
 405              		.loc 1 538 9 is_stmt 1 view .LVU123
 538:Drivers/lvgl/src/draw/lv_draw.c ****     }
 406              		.loc 1 538 11 is_stmt 0 view .LVU124
 407 000a 2468     		ldr	r4, [r4]
 408              	.LVL36:
 409              	.L38:
 530:Drivers/lvgl/src/draw/lv_draw.c ****         if(t->state != LV_DRAW_TASK_STATE_READY) {
 410              		.loc 1 530 13 is_stmt 1 view .LVU125
 530:Drivers/lvgl/src/draw/lv_draw.c ****         if(t->state != LV_DRAW_TASK_STATE_READY) {
 411              		.loc 1 530 18 is_stmt 0 view .LVU126
 412 000c 631B     		subs	r3, r4, r5
 413 000e 18BF     		it	ne
 414 0010 0123     		movne	r3, #1
 530:Drivers/lvgl/src/draw/lv_draw.c ****         if(t->state != LV_DRAW_TASK_STATE_READY) {
 415              		.loc 1 530 13 view .LVU127
 416 0012 74B1     		cbz	r4, .L44
 417 0014 6BB1     		cbz	r3, .L44
 531:Drivers/lvgl/src/draw/lv_draw.c ****             lv_area_t a;
 418              		.loc 1 531 9 is_stmt 1 view .LVU128
 531:Drivers/lvgl/src/draw/lv_draw.c ****             lv_area_t a;
 419              		.loc 1 531 13 is_stmt 0 view .LVU129
 420 0016 236D     		ldr	r3, [r4, #80]
 531:Drivers/lvgl/src/draw/lv_draw.c ****             lv_area_t a;
 421              		.loc 1 531 11 view .LVU130
 422 0018 032B     		cmp	r3, #3
 423 001a F6D0     		beq	.L39
 424              	.LBB9:
 532:Drivers/lvgl/src/draw/lv_draw.c ****             if(lv_area_intersect(&a, &t->_real_area, &t_check->_real_area)) {
 425              		.loc 1 532 13 is_stmt 1 view .LVU131
 533:Drivers/lvgl/src/draw/lv_draw.c ****                 LV_PROFILER_DRAW_END;
 426              		.loc 1 533 13 view .LVU132
 533:Drivers/lvgl/src/draw/lv_draw.c ****                 LV_PROFILER_DRAW_END;
 427              		.loc 1 533 16 is_stmt 0 view .LVU133
ARM GAS  /tmp/ccwC1Sr5.s 			page 22


 428 001c 05F11802 		add	r2, r5, #24
 429 0020 04F11801 		add	r1, r4, #24
 430 0024 6846     		mov	r0, sp
 431 0026 FFF7FEFF 		bl	lv_area_intersect
 432              	.LVL37:
 533:Drivers/lvgl/src/draw/lv_draw.c ****                 LV_PROFILER_DRAW_END;
 433              		.loc 1 533 15 discriminator 1 view .LVU134
 434 002a 0028     		cmp	r0, #0
 435 002c EDD0     		beq	.L39
 534:Drivers/lvgl/src/draw/lv_draw.c ****                 return false;
 436              		.loc 1 534 37 is_stmt 1 view .LVU135
 535:Drivers/lvgl/src/draw/lv_draw.c ****             }
 437              		.loc 1 535 17 view .LVU136
 535:Drivers/lvgl/src/draw/lv_draw.c ****             }
 438              		.loc 1 535 24 is_stmt 0 view .LVU137
 439 002e 0020     		movs	r0, #0
 440 0030 00E0     		b	.L41
 441              	.L44:
 442              	.LBE9:
 542:Drivers/lvgl/src/draw/lv_draw.c **** }
 443              		.loc 1 542 12 view .LVU138
 444 0032 0120     		movs	r0, #1
 445              	.L41:
 543:Drivers/lvgl/src/draw/lv_draw.c **** 
 446              		.loc 1 543 1 view .LVU139
 447 0034 05B0     		add	sp, sp, #20
 448              	.LCFI3:
 449              		.cfi_def_cfa_offset 12
 450              		@ sp needed
 451 0036 30BD     		pop	{r4, r5, pc}
 543:Drivers/lvgl/src/draw/lv_draw.c **** 
 452              		.loc 1 543 1 view .LVU140
 453              		.cfi_endproc
 454              	.LFE209:
 456              		.section	.text.lv_draw_init,"ax",%progbits
 457              		.align	1
 458              		.global	lv_draw_init
 459              		.syntax unified
 460              		.thumb
 461              		.thumb_func
 463              	lv_draw_init:
 464              	.LFB186:
  61:Drivers/lvgl/src/draw/lv_draw.c **** #if LV_USE_OS
 465              		.loc 1 61 1 is_stmt 1 view -0
 466              		.cfi_startproc
 467              		@ args = 0, pretend = 0, frame = 0
 468              		@ frame_needed = 0, uses_anonymous_args = 0
 469              		@ link register save eliminated.
  65:Drivers/lvgl/src/draw/lv_draw.c **** 
 470              		.loc 1 65 1 view .LVU142
 471 0000 7047     		bx	lr
 472              		.cfi_endproc
 473              	.LFE186:
 475              		.section	.text.lv_draw_deinit,"ax",%progbits
 476              		.align	1
 477              		.global	lv_draw_deinit
 478              		.syntax unified
ARM GAS  /tmp/ccwC1Sr5.s 			page 23


 479              		.thumb
 480              		.thumb_func
 482              	lv_draw_deinit:
 483              	.LFB187:
  68:Drivers/lvgl/src/draw/lv_draw.c **** #if LV_USE_OS
 484              		.loc 1 68 1 view -0
 485              		.cfi_startproc
 486              		@ args = 0, pretend = 0, frame = 0
 487              		@ frame_needed = 0, uses_anonymous_args = 0
 488 0000 38B5     		push	{r3, r4, r5, lr}
 489              	.LCFI4:
 490              		.cfi_def_cfa_offset 16
 491              		.cfi_offset 3, -16
 492              		.cfi_offset 4, -12
 493              		.cfi_offset 5, -8
 494              		.cfi_offset 14, -4
  73:Drivers/lvgl/src/draw/lv_draw.c ****     while(u) {
 495              		.loc 1 73 5 view .LVU144
  73:Drivers/lvgl/src/draw/lv_draw.c ****     while(u) {
 496              		.loc 1 73 22 is_stmt 0 view .LVU145
 497 0002 0A4B     		ldr	r3, .L53
 498 0004 D3F82441 		ldr	r4, [r3, #292]
 499              	.LVL38:
  74:Drivers/lvgl/src/draw/lv_draw.c ****         lv_draw_unit_t * cur_unit = u;
 500              		.loc 1 74 5 is_stmt 1 view .LVU146
  74:Drivers/lvgl/src/draw/lv_draw.c ****         lv_draw_unit_t * cur_unit = u;
 501              		.loc 1 74 10 is_stmt 0 view .LVU147
 502 0008 03E0     		b	.L48
 503              	.LVL39:
 504              	.L49:
 505              	.LBB10:
  79:Drivers/lvgl/src/draw/lv_draw.c ****     }
 506              		.loc 1 79 9 is_stmt 1 view .LVU148
 507 000a 2046     		mov	r0, r4
 508 000c FFF7FEFF 		bl	lv_free
 509              	.LVL40:
  76:Drivers/lvgl/src/draw/lv_draw.c **** 
 510              		.loc 1 76 11 is_stmt 0 view .LVU149
 511 0010 2C46     		mov	r4, r5
 512              	.LVL41:
 513              	.L48:
  76:Drivers/lvgl/src/draw/lv_draw.c **** 
 514              		.loc 1 76 11 view .LVU150
 515              	.LBE10:
  74:Drivers/lvgl/src/draw/lv_draw.c ****         lv_draw_unit_t * cur_unit = u;
 516              		.loc 1 74 11 is_stmt 1 view .LVU151
 517 0012 34B1     		cbz	r4, .L52
 518              	.LBB11:
  75:Drivers/lvgl/src/draw/lv_draw.c ****         u = u->next;
 519              		.loc 1 75 9 view .LVU152
 520              	.LVL42:
  76:Drivers/lvgl/src/draw/lv_draw.c **** 
 521              		.loc 1 76 9 view .LVU153
  76:Drivers/lvgl/src/draw/lv_draw.c **** 
 522              		.loc 1 76 11 is_stmt 0 view .LVU154
 523 0014 2568     		ldr	r5, [r4]
 524              	.LVL43:
ARM GAS  /tmp/ccwC1Sr5.s 			page 24


  78:Drivers/lvgl/src/draw/lv_draw.c ****         lv_free(cur_unit);
 525              		.loc 1 78 9 is_stmt 1 view .LVU155
  78:Drivers/lvgl/src/draw/lv_draw.c ****         lv_free(cur_unit);
 526              		.loc 1 78 20 is_stmt 0 view .LVU156
 527 0016 A369     		ldr	r3, [r4, #24]
  78:Drivers/lvgl/src/draw/lv_draw.c ****         lv_free(cur_unit);
 528              		.loc 1 78 11 view .LVU157
 529 0018 002B     		cmp	r3, #0
 530 001a F6D0     		beq	.L49
  78:Drivers/lvgl/src/draw/lv_draw.c ****         lv_free(cur_unit);
 531              		.loc 1 78 33 is_stmt 1 discriminator 1 view .LVU158
 532 001c 2046     		mov	r0, r4
 533 001e 9847     		blx	r3
 534              	.LVL44:
 535 0020 F3E7     		b	.L49
 536              	.LVL45:
 537              	.L52:
  78:Drivers/lvgl/src/draw/lv_draw.c ****         lv_free(cur_unit);
 538              		.loc 1 78 33 is_stmt 0 discriminator 1 view .LVU159
 539              	.LBE11:
  81:Drivers/lvgl/src/draw/lv_draw.c **** }
 540              		.loc 1 81 5 is_stmt 1 view .LVU160
  81:Drivers/lvgl/src/draw/lv_draw.c **** }
 541              		.loc 1 81 26 is_stmt 0 view .LVU161
 542 0022 024B     		ldr	r3, .L53
 543 0024 0022     		movs	r2, #0
 544 0026 C3F82421 		str	r2, [r3, #292]
  82:Drivers/lvgl/src/draw/lv_draw.c **** 
 545              		.loc 1 82 1 view .LVU162
 546 002a 38BD     		pop	{r3, r4, r5, pc}
 547              	.LVL46:
 548              	.L54:
  82:Drivers/lvgl/src/draw/lv_draw.c **** 
 549              		.loc 1 82 1 view .LVU163
 550              		.align	2
 551              	.L53:
 552 002c 00000000 		.word	lv_global
 553              		.cfi_endproc
 554              	.LFE187:
 556              		.section	.text.lv_draw_create_unit,"ax",%progbits
 557              		.align	1
 558              		.global	lv_draw_create_unit
 559              		.syntax unified
 560              		.thumb
 561              		.thumb_func
 563              	lv_draw_create_unit:
 564              	.LVL47:
 565              	.LFB188:
  85:Drivers/lvgl/src/draw/lv_draw.c ****     lv_draw_unit_t * new_unit = lv_malloc_zeroed(size);
 566              		.loc 1 85 1 is_stmt 1 view -0
 567              		.cfi_startproc
 568              		@ args = 0, pretend = 0, frame = 0
 569              		@ frame_needed = 0, uses_anonymous_args = 0
  85:Drivers/lvgl/src/draw/lv_draw.c ****     lv_draw_unit_t * new_unit = lv_malloc_zeroed(size);
 570              		.loc 1 85 1 is_stmt 0 view .LVU165
 571 0000 08B5     		push	{r3, lr}
 572              	.LCFI5:
ARM GAS  /tmp/ccwC1Sr5.s 			page 25


 573              		.cfi_def_cfa_offset 8
 574              		.cfi_offset 3, -8
 575              		.cfi_offset 14, -4
  86:Drivers/lvgl/src/draw/lv_draw.c ****     LV_ASSERT_MALLOC(new_unit);
 576              		.loc 1 86 5 is_stmt 1 view .LVU166
  86:Drivers/lvgl/src/draw/lv_draw.c ****     LV_ASSERT_MALLOC(new_unit);
 577              		.loc 1 86 33 is_stmt 0 view .LVU167
 578 0002 FFF7FEFF 		bl	lv_malloc_zeroed
 579              	.LVL48:
  87:Drivers/lvgl/src/draw/lv_draw.c ****     new_unit->next = _draw_info.unit_head;
 580              		.loc 1 87 5 is_stmt 1 view .LVU168
  87:Drivers/lvgl/src/draw/lv_draw.c ****     new_unit->next = _draw_info.unit_head;
 581              		.loc 1 87 5 view .LVU169
 582 0006 60B1     		cbz	r0, .L57
  87:Drivers/lvgl/src/draw/lv_draw.c ****     new_unit->next = _draw_info.unit_head;
 583              		.loc 1 87 5 discriminator 2 view .LVU170
  87:Drivers/lvgl/src/draw/lv_draw.c ****     new_unit->next = _draw_info.unit_head;
 584              		.loc 1 87 31 discriminator 2 view .LVU171
  88:Drivers/lvgl/src/draw/lv_draw.c **** 
 585              		.loc 1 88 5 view .LVU172
  88:Drivers/lvgl/src/draw/lv_draw.c **** 
 586              		.loc 1 88 32 is_stmt 0 view .LVU173
 587 0008 0649     		ldr	r1, .L59
 588 000a D1F82421 		ldr	r2, [r1, #292]
  88:Drivers/lvgl/src/draw/lv_draw.c **** 
 589              		.loc 1 88 20 view .LVU174
 590 000e 0260     		str	r2, [r0]
  90:Drivers/lvgl/src/draw/lv_draw.c ****     _draw_info.unit_cnt++;
 591              		.loc 1 90 5 is_stmt 1 view .LVU175
  90:Drivers/lvgl/src/draw/lv_draw.c ****     _draw_info.unit_cnt++;
 592              		.loc 1 90 26 is_stmt 0 view .LVU176
 593 0010 C1F82401 		str	r0, [r1, #292]
  91:Drivers/lvgl/src/draw/lv_draw.c **** 
 594              		.loc 1 91 5 is_stmt 1 view .LVU177
  91:Drivers/lvgl/src/draw/lv_draw.c **** 
 595              		.loc 1 91 15 is_stmt 0 view .LVU178
 596 0014 D1F82821 		ldr	r2, [r1, #296]
  91:Drivers/lvgl/src/draw/lv_draw.c **** 
 597              		.loc 1 91 24 view .LVU179
 598 0018 0132     		adds	r2, r2, #1
 599 001a C1F82821 		str	r2, [r1, #296]
  93:Drivers/lvgl/src/draw/lv_draw.c **** 
 600              		.loc 1 93 5 is_stmt 1 view .LVU180
  93:Drivers/lvgl/src/draw/lv_draw.c **** 
 601              		.loc 1 93 19 is_stmt 0 view .LVU181
 602 001e 8260     		str	r2, [r0, #8]
  95:Drivers/lvgl/src/draw/lv_draw.c **** }
 603              		.loc 1 95 5 is_stmt 1 view .LVU182
  96:Drivers/lvgl/src/draw/lv_draw.c **** 
 604              		.loc 1 96 1 is_stmt 0 view .LVU183
 605 0020 08BD     		pop	{r3, pc}
 606              	.L57:
  87:Drivers/lvgl/src/draw/lv_draw.c ****     new_unit->next = _draw_info.unit_head;
 607              		.loc 1 87 5 is_stmt 1 discriminator 1 view .LVU184
  87:Drivers/lvgl/src/draw/lv_draw.c ****     new_unit->next = _draw_info.unit_head;
 608              		.loc 1 87 5 discriminator 1 view .LVU185
  87:Drivers/lvgl/src/draw/lv_draw.c ****     new_unit->next = _draw_info.unit_head;
ARM GAS  /tmp/ccwC1Sr5.s 			page 26


 609              		.loc 1 87 5 discriminator 1 view .LVU186
  87:Drivers/lvgl/src/draw/lv_draw.c ****     new_unit->next = _draw_info.unit_head;
 610              		.loc 1 87 5 discriminator 1 view .LVU187
  87:Drivers/lvgl/src/draw/lv_draw.c ****     new_unit->next = _draw_info.unit_head;
 611              		.loc 1 87 5 discriminator 1 view .LVU188
 612 0022 FEE7     		b	.L57
 613              	.L60:
 614              		.align	2
 615              	.L59:
 616 0024 00000000 		.word	lv_global
 617              		.cfi_endproc
 618              	.LFE188:
 620              		.section	.text.lv_draw_add_task,"ax",%progbits
 621              		.align	1
 622              		.global	lv_draw_add_task
 623              		.syntax unified
 624              		.thumb
 625              		.thumb_func
 627              	lv_draw_add_task:
 628              	.LVL49:
 629              	.LFB189:
  99:Drivers/lvgl/src/draw/lv_draw.c ****     LV_PROFILER_DRAW_BEGIN;
 630              		.loc 1 99 1 view -0
 631              		.cfi_startproc
 632              		@ args = 0, pretend = 0, frame = 0
 633              		@ frame_needed = 0, uses_anonymous_args = 0
  99:Drivers/lvgl/src/draw/lv_draw.c ****     LV_PROFILER_DRAW_BEGIN;
 634              		.loc 1 99 1 is_stmt 0 view .LVU190
 635 0000 70B5     		push	{r4, r5, r6, lr}
 636              	.LCFI6:
 637              		.cfi_def_cfa_offset 16
 638              		.cfi_offset 4, -16
 639              		.cfi_offset 5, -12
 640              		.cfi_offset 6, -8
 641              		.cfi_offset 14, -4
 642 0002 0646     		mov	r6, r0
 643 0004 0C46     		mov	r4, r1
 644 0006 1546     		mov	r5, r2
 100:Drivers/lvgl/src/draw/lv_draw.c ****     size_t dsc_size = get_draw_dsc_size(type);
 645              		.loc 1 100 27 is_stmt 1 view .LVU191
 101:Drivers/lvgl/src/draw/lv_draw.c ****     LV_ASSERT_FORMAT_MSG(dsc_size > 0, "Draw task size is 0 for type %d", type);
 646              		.loc 1 101 5 view .LVU192
 101:Drivers/lvgl/src/draw/lv_draw.c ****     LV_ASSERT_FORMAT_MSG(dsc_size > 0, "Draw task size is 0 for type %d", type);
 647              		.loc 1 101 23 is_stmt 0 view .LVU193
 648 0008 1046     		mov	r0, r2
 649              	.LVL50:
 101:Drivers/lvgl/src/draw/lv_draw.c ****     LV_ASSERT_FORMAT_MSG(dsc_size > 0, "Draw task size is 0 for type %d", type);
 650              		.loc 1 101 23 view .LVU194
 651 000a FFF7FEFF 		bl	get_draw_dsc_size
 652              	.LVL51:
 102:Drivers/lvgl/src/draw/lv_draw.c ****     lv_draw_task_t * new_task = lv_malloc_zeroed(LV_ALIGN_UP(sizeof(lv_draw_task_t), 8) + dsc_size)
 653              		.loc 1 102 5 is_stmt 1 view .LVU195
 102:Drivers/lvgl/src/draw/lv_draw.c ****     lv_draw_task_t * new_task = lv_malloc_zeroed(LV_ALIGN_UP(sizeof(lv_draw_task_t), 8) + dsc_size)
 654              		.loc 1 102 5 view .LVU196
 655 000e 00B9     		cbnz	r0, .L62
 656              	.L63:
 102:Drivers/lvgl/src/draw/lv_draw.c ****     lv_draw_task_t * new_task = lv_malloc_zeroed(LV_ALIGN_UP(sizeof(lv_draw_task_t), 8) + dsc_size)
ARM GAS  /tmp/ccwC1Sr5.s 			page 27


 657              		.loc 1 102 5 discriminator 1 view .LVU197
 102:Drivers/lvgl/src/draw/lv_draw.c ****     lv_draw_task_t * new_task = lv_malloc_zeroed(LV_ALIGN_UP(sizeof(lv_draw_task_t), 8) + dsc_size)
 658              		.loc 1 102 5 discriminator 1 view .LVU198
 102:Drivers/lvgl/src/draw/lv_draw.c ****     lv_draw_task_t * new_task = lv_malloc_zeroed(LV_ALIGN_UP(sizeof(lv_draw_task_t), 8) + dsc_size)
 659              		.loc 1 102 5 discriminator 1 view .LVU199
 102:Drivers/lvgl/src/draw/lv_draw.c ****     lv_draw_task_t * new_task = lv_malloc_zeroed(LV_ALIGN_UP(sizeof(lv_draw_task_t), 8) + dsc_size)
 660              		.loc 1 102 5 discriminator 1 view .LVU200
 102:Drivers/lvgl/src/draw/lv_draw.c ****     lv_draw_task_t * new_task = lv_malloc_zeroed(LV_ALIGN_UP(sizeof(lv_draw_task_t), 8) + dsc_size)
 661              		.loc 1 102 5 discriminator 1 view .LVU201
 662 0010 FEE7     		b	.L63
 663              	.L62:
 102:Drivers/lvgl/src/draw/lv_draw.c ****     lv_draw_task_t * new_task = lv_malloc_zeroed(LV_ALIGN_UP(sizeof(lv_draw_task_t), 8) + dsc_size)
 664              		.loc 1 102 5 discriminator 2 view .LVU202
 103:Drivers/lvgl/src/draw/lv_draw.c ****     LV_ASSERT_MALLOC(new_task);
 665              		.loc 1 103 5 view .LVU203
 103:Drivers/lvgl/src/draw/lv_draw.c ****     LV_ASSERT_MALLOC(new_task);
 666              		.loc 1 103 33 is_stmt 0 view .LVU204
 667 0012 6030     		adds	r0, r0, #96
 668              	.LVL52:
 103:Drivers/lvgl/src/draw/lv_draw.c ****     LV_ASSERT_MALLOC(new_task);
 669              		.loc 1 103 33 view .LVU205
 670 0014 FFF7FEFF 		bl	lv_malloc_zeroed
 671              	.LVL53:
 104:Drivers/lvgl/src/draw/lv_draw.c ****     new_task->area = *coords;
 672              		.loc 1 104 5 is_stmt 1 view .LVU206
 104:Drivers/lvgl/src/draw/lv_draw.c ****     new_task->area = *coords;
 673              		.loc 1 104 5 view .LVU207
 674 0018 8446     		mov	ip, r0
 675 001a 38B3     		cbz	r0, .L65
 104:Drivers/lvgl/src/draw/lv_draw.c ****     new_task->area = *coords;
 676              		.loc 1 104 5 discriminator 2 view .LVU208
 104:Drivers/lvgl/src/draw/lv_draw.c ****     new_task->area = *coords;
 677              		.loc 1 104 31 discriminator 2 view .LVU209
 105:Drivers/lvgl/src/draw/lv_draw.c ****     new_task->_real_area = *coords;
 678              		.loc 1 105 5 view .LVU210
 105:Drivers/lvgl/src/draw/lv_draw.c ****     new_task->_real_area = *coords;
 679              		.loc 1 105 20 is_stmt 0 view .LVU211
 680 001c 00F1080E 		add	lr, r0, #8
 681 0020 94E80F00 		ldm	r4, {r0, r1, r2, r3}
 682              	.LVL54:
 105:Drivers/lvgl/src/draw/lv_draw.c ****     new_task->_real_area = *coords;
 683              		.loc 1 105 20 view .LVU212
 684 0024 8EE80F00 		stm	lr, {r0, r1, r2, r3}
 106:Drivers/lvgl/src/draw/lv_draw.c ****     new_task->target_layer = layer;
 685              		.loc 1 106 5 is_stmt 1 view .LVU213
 106:Drivers/lvgl/src/draw/lv_draw.c ****     new_task->target_layer = layer;
 686              		.loc 1 106 26 is_stmt 0 view .LVU214
 687 0028 0CF1180E 		add	lr, ip, #24
 688 002c 94E80F00 		ldm	r4, {r0, r1, r2, r3}
 689 0030 8EE80F00 		stm	lr, {r0, r1, r2, r3}
 107:Drivers/lvgl/src/draw/lv_draw.c ****     new_task->clip_area = layer->_clip_area;
 690              		.loc 1 107 5 is_stmt 1 view .LVU215
 107:Drivers/lvgl/src/draw/lv_draw.c ****     new_task->clip_area = layer->_clip_area;
 691              		.loc 1 107 28 is_stmt 0 view .LVU216
 692 0034 CCF84860 		str	r6, [ip, #72]
 108:Drivers/lvgl/src/draw/lv_draw.c **** #if LV_DRAW_TRANSFORM_USE_MATRIX
 693              		.loc 1 108 5 is_stmt 1 view .LVU217
ARM GAS  /tmp/ccwC1Sr5.s 			page 28


 108:Drivers/lvgl/src/draw/lv_draw.c **** #if LV_DRAW_TRANSFORM_USE_MATRIX
 694              		.loc 1 108 25 is_stmt 0 view .LVU218
 695 0038 0CF13804 		add	r4, ip, #56
 696              	.LVL55:
 108:Drivers/lvgl/src/draw/lv_draw.c **** #if LV_DRAW_TRANSFORM_USE_MATRIX
 697              		.loc 1 108 25 view .LVU219
 698 003c 06F11803 		add	r3, r6, #24
 699 0040 0FCB     		ldm	r3, {r0, r1, r2, r3}
 700 0042 84E80F00 		stm	r4, {r0, r1, r2, r3}
 112:Drivers/lvgl/src/draw/lv_draw.c ****     new_task->draw_dsc = (uint8_t *)new_task + LV_ALIGN_UP(sizeof(lv_draw_task_t), 8);
 701              		.loc 1 112 5 is_stmt 1 view .LVU220
 112:Drivers/lvgl/src/draw/lv_draw.c ****     new_task->draw_dsc = (uint8_t *)new_task + LV_ALIGN_UP(sizeof(lv_draw_task_t), 8);
 702              		.loc 1 112 20 is_stmt 0 view .LVU221
 703 0046 8CF80450 		strb	r5, [ip, #4]
 113:Drivers/lvgl/src/draw/lv_draw.c ****     new_task->state = LV_DRAW_TASK_STATE_QUEUED;
 704              		.loc 1 113 5 is_stmt 1 view .LVU222
 113:Drivers/lvgl/src/draw/lv_draw.c ****     new_task->state = LV_DRAW_TASK_STATE_QUEUED;
 705              		.loc 1 113 46 is_stmt 0 view .LVU223
 706 004a 0CF16003 		add	r3, ip, #96
 113:Drivers/lvgl/src/draw/lv_draw.c ****     new_task->state = LV_DRAW_TASK_STATE_QUEUED;
 707              		.loc 1 113 24 view .LVU224
 708 004e CCF85430 		str	r3, [ip, #84]
 114:Drivers/lvgl/src/draw/lv_draw.c **** 
 709              		.loc 1 114 5 is_stmt 1 view .LVU225
 114:Drivers/lvgl/src/draw/lv_draw.c **** 
 710              		.loc 1 114 21 is_stmt 0 view .LVU226
 711 0052 0123     		movs	r3, #1
 712 0054 CCF85030 		str	r3, [ip, #80]
 117:Drivers/lvgl/src/draw/lv_draw.c ****         layer->draw_task_head = new_task;
 713              		.loc 1 117 5 is_stmt 1 view .LVU227
 117:Drivers/lvgl/src/draw/lv_draw.c ****         layer->draw_task_head = new_task;
 714              		.loc 1 117 13 is_stmt 0 view .LVU228
 715 0058 736C     		ldr	r3, [r6, #68]
 117:Drivers/lvgl/src/draw/lv_draw.c ****         layer->draw_task_head = new_task;
 716              		.loc 1 117 7 view .LVU229
 717 005a 43B1     		cbz	r3, .L69
 718              	.L66:
 719              	.LVL56:
 720              	.LBB12:
 122:Drivers/lvgl/src/draw/lv_draw.c **** 
 721              		.loc 1 122 15 is_stmt 1 discriminator 1 view .LVU230
 722 005c 1A46     		mov	r2, r3
 122:Drivers/lvgl/src/draw/lv_draw.c **** 
 723              		.loc 1 122 19 is_stmt 0 discriminator 1 view .LVU231
 724 005e 1B68     		ldr	r3, [r3]
 725              	.LVL57:
 122:Drivers/lvgl/src/draw/lv_draw.c **** 
 726              		.loc 1 122 15 discriminator 1 view .LVU232
 727 0060 002B     		cmp	r3, #0
 728 0062 FBD1     		bne	.L66
 124:Drivers/lvgl/src/draw/lv_draw.c ****     }
 729              		.loc 1 124 9 is_stmt 1 view .LVU233
 124:Drivers/lvgl/src/draw/lv_draw.c ****     }
 730              		.loc 1 124 20 is_stmt 0 view .LVU234
 731 0064 C2F800C0 		str	ip, [r2]
 732              	.LBE12:
 127:Drivers/lvgl/src/draw/lv_draw.c ****     return new_task;
ARM GAS  /tmp/ccwC1Sr5.s 			page 29


 733              		.loc 1 127 25 is_stmt 1 view .LVU235
 128:Drivers/lvgl/src/draw/lv_draw.c **** }
 734              		.loc 1 128 5 view .LVU236
 735              	.LVL58:
 736              	.L61:
 129:Drivers/lvgl/src/draw/lv_draw.c **** 
 737              		.loc 1 129 1 is_stmt 0 view .LVU237
 738 0068 6046     		mov	r0, ip
 739 006a 70BD     		pop	{r4, r5, r6, pc}
 740              	.LVL59:
 741              	.L65:
 104:Drivers/lvgl/src/draw/lv_draw.c ****     new_task->area = *coords;
 742              		.loc 1 104 5 is_stmt 1 discriminator 1 view .LVU238
 104:Drivers/lvgl/src/draw/lv_draw.c ****     new_task->area = *coords;
 743              		.loc 1 104 5 discriminator 1 view .LVU239
 104:Drivers/lvgl/src/draw/lv_draw.c ****     new_task->area = *coords;
 744              		.loc 1 104 5 discriminator 1 view .LVU240
 104:Drivers/lvgl/src/draw/lv_draw.c ****     new_task->area = *coords;
 745              		.loc 1 104 5 discriminator 1 view .LVU241
 104:Drivers/lvgl/src/draw/lv_draw.c ****     new_task->area = *coords;
 746              		.loc 1 104 5 discriminator 1 view .LVU242
 747 006c FEE7     		b	.L65
 748              	.LVL60:
 749              	.L69:
 118:Drivers/lvgl/src/draw/lv_draw.c ****     }
 750              		.loc 1 118 9 view .LVU243
 118:Drivers/lvgl/src/draw/lv_draw.c ****     }
 751              		.loc 1 118 31 is_stmt 0 view .LVU244
 752 006e C6F844C0 		str	ip, [r6, #68]
 753 0072 F9E7     		b	.L61
 754              		.cfi_endproc
 755              	.LFE189:
 757              		.section	.text.lv_draw_wait_for_finish,"ax",%progbits
 758              		.align	1
 759              		.global	lv_draw_wait_for_finish
 760              		.syntax unified
 761              		.thumb
 762              		.thumb_func
 764              	lv_draw_wait_for_finish:
 765              	.LFB191:
 193:Drivers/lvgl/src/draw/lv_draw.c **** #if LV_USE_OS
 766              		.loc 1 193 1 is_stmt 1 view -0
 767              		.cfi_startproc
 768              		@ args = 0, pretend = 0, frame = 0
 769              		@ frame_needed = 0, uses_anonymous_args = 0
 770              		@ link register save eliminated.
 209:Drivers/lvgl/src/draw/lv_draw.c **** 
 771              		.loc 1 209 1 view .LVU246
 772 0000 7047     		bx	lr
 773              		.cfi_endproc
 774              	.LFE191:
 776              		.section	.text.lv_draw_dispatch_wait_for_request,"ax",%progbits
 777              		.align	1
 778              		.global	lv_draw_dispatch_wait_for_request
 779              		.syntax unified
 780              		.thumb
 781              		.thumb_func
ARM GAS  /tmp/ccwC1Sr5.s 			page 30


 783              	lv_draw_dispatch_wait_for_request:
 784              	.LFB194:
 295:Drivers/lvgl/src/draw/lv_draw.c ****     LV_PROFILER_DRAW_BEGIN;
 785              		.loc 1 295 1 view -0
 786              		.cfi_startproc
 787              		@ args = 0, pretend = 0, frame = 0
 788              		@ frame_needed = 0, uses_anonymous_args = 0
 789              		@ link register save eliminated.
 790              	.L72:
 300:Drivers/lvgl/src/draw/lv_draw.c ****     _draw_info.dispatch_req = 0;
 791              		.loc 1 300 11 discriminator 1 view .LVU248
 300:Drivers/lvgl/src/draw/lv_draw.c ****     _draw_info.dispatch_req = 0;
 792              		.loc 1 300 22 is_stmt 0 discriminator 1 view .LVU249
 793 0000 044B     		ldr	r3, .L73
 794 0002 D3F83031 		ldr	r3, [r3, #304]
 300:Drivers/lvgl/src/draw/lv_draw.c ****     _draw_info.dispatch_req = 0;
 795              		.loc 1 300 11 discriminator 1 view .LVU250
 796 0006 002B     		cmp	r3, #0
 797 0008 FAD0     		beq	.L72
 301:Drivers/lvgl/src/draw/lv_draw.c **** #endif
 798              		.loc 1 301 5 is_stmt 1 view .LVU251
 301:Drivers/lvgl/src/draw/lv_draw.c **** #endif
 799              		.loc 1 301 29 is_stmt 0 view .LVU252
 800 000a 024B     		ldr	r3, .L73
 801 000c 0022     		movs	r2, #0
 802 000e C3F83021 		str	r2, [r3, #304]
 303:Drivers/lvgl/src/draw/lv_draw.c **** }
 803              		.loc 1 303 25 is_stmt 1 view .LVU253
 304:Drivers/lvgl/src/draw/lv_draw.c **** 
 804              		.loc 1 304 1 is_stmt 0 view .LVU254
 805 0012 7047     		bx	lr
 806              	.L74:
 807              		.align	2
 808              	.L73:
 809 0014 00000000 		.word	lv_global
 810              		.cfi_endproc
 811              	.LFE194:
 813              		.section	.text.lv_draw_dispatch_request,"ax",%progbits
 814              		.align	1
 815              		.global	lv_draw_dispatch_request
 816              		.syntax unified
 817              		.thumb
 818              		.thumb_func
 820              	lv_draw_dispatch_request:
 821              	.LFB195:
 307:Drivers/lvgl/src/draw/lv_draw.c ****     LV_PROFILER_DRAW_BEGIN;
 822              		.loc 1 307 1 is_stmt 1 view -0
 823              		.cfi_startproc
 824              		@ args = 0, pretend = 0, frame = 0
 825              		@ frame_needed = 0, uses_anonymous_args = 0
 826              		@ link register save eliminated.
 308:Drivers/lvgl/src/draw/lv_draw.c **** #if LV_USE_OS
 827              		.loc 1 308 27 view .LVU256
 312:Drivers/lvgl/src/draw/lv_draw.c **** #endif
 828              		.loc 1 312 5 view .LVU257
 312:Drivers/lvgl/src/draw/lv_draw.c **** #endif
 829              		.loc 1 312 29 is_stmt 0 view .LVU258
ARM GAS  /tmp/ccwC1Sr5.s 			page 31


 830 0000 024B     		ldr	r3, .L76
 831 0002 0122     		movs	r2, #1
 832 0004 C3F83021 		str	r2, [r3, #304]
 314:Drivers/lvgl/src/draw/lv_draw.c **** }
 833              		.loc 1 314 25 is_stmt 1 view .LVU259
 315:Drivers/lvgl/src/draw/lv_draw.c **** 
 834              		.loc 1 315 1 is_stmt 0 view .LVU260
 835 0008 7047     		bx	lr
 836              	.L77:
 837 000a 00BF     		.align	2
 838              	.L76:
 839 000c 00000000 		.word	lv_global
 840              		.cfi_endproc
 841              	.LFE195:
 843              		.section	.text.lv_draw_dispatch_layer,"ax",%progbits
 844              		.align	1
 845              		.global	lv_draw_dispatch_layer
 846              		.syntax unified
 847              		.thumb
 848              		.thumb_func
 850              	lv_draw_dispatch_layer:
 851              	.LVL61:
 852              	.LFB193:
 233:Drivers/lvgl/src/draw/lv_draw.c ****     LV_PROFILER_DRAW_BEGIN;
 853              		.loc 1 233 1 is_stmt 1 view -0
 854              		.cfi_startproc
 855              		@ args = 0, pretend = 0, frame = 0
 856              		@ frame_needed = 0, uses_anonymous_args = 0
 233:Drivers/lvgl/src/draw/lv_draw.c ****     LV_PROFILER_DRAW_BEGIN;
 857              		.loc 1 233 1 is_stmt 0 view .LVU262
 858 0000 2DE9F041 		push	{r4, r5, r6, r7, r8, lr}
 859              	.LCFI7:
 860              		.cfi_def_cfa_offset 24
 861              		.cfi_offset 4, -24
 862              		.cfi_offset 5, -20
 863              		.cfi_offset 6, -16
 864              		.cfi_offset 7, -12
 865              		.cfi_offset 8, -8
 866              		.cfi_offset 14, -4
 867 0004 8046     		mov	r8, r0
 868 0006 0E46     		mov	r6, r1
 234:Drivers/lvgl/src/draw/lv_draw.c ****     /*Remove the finished tasks first*/
 869              		.loc 1 234 27 is_stmt 1 view .LVU263
 236:Drivers/lvgl/src/draw/lv_draw.c ****     lv_draw_task_t * t = layer->draw_task_head;
 870              		.loc 1 236 5 view .LVU264
 871              	.LVL62:
 237:Drivers/lvgl/src/draw/lv_draw.c ****     lv_draw_task_t * t_next;
 872              		.loc 1 237 5 view .LVU265
 237:Drivers/lvgl/src/draw/lv_draw.c ****     lv_draw_task_t * t_next;
 873              		.loc 1 237 22 is_stmt 0 view .LVU266
 874 0008 486C     		ldr	r0, [r1, #68]
 875              	.LVL63:
 238:Drivers/lvgl/src/draw/lv_draw.c ****     bool remove_task = false;
 876              		.loc 1 238 5 is_stmt 1 view .LVU267
 239:Drivers/lvgl/src/draw/lv_draw.c ****     while(t) {
 877              		.loc 1 239 5 view .LVU268
 240:Drivers/lvgl/src/draw/lv_draw.c ****         t_next = t->next;
ARM GAS  /tmp/ccwC1Sr5.s 			page 32


 878              		.loc 1 240 5 view .LVU269
 239:Drivers/lvgl/src/draw/lv_draw.c ****     while(t) {
 879              		.loc 1 239 10 is_stmt 0 view .LVU270
 880 000a 0027     		movs	r7, #0
 236:Drivers/lvgl/src/draw/lv_draw.c ****     lv_draw_task_t * t = layer->draw_task_head;
 881              		.loc 1 236 22 view .LVU271
 882 000c 3D46     		mov	r5, r7
 240:Drivers/lvgl/src/draw/lv_draw.c ****         t_next = t->next;
 883              		.loc 1 240 10 view .LVU272
 884 000e 04E0     		b	.L79
 885              	.LVL64:
 886              	.L81:
 248:Drivers/lvgl/src/draw/lv_draw.c ****         }
 887              		.loc 1 248 17 is_stmt 1 view .LVU273
 248:Drivers/lvgl/src/draw/lv_draw.c ****         }
 888              		.loc 1 248 39 is_stmt 0 view .LVU274
 889 0010 7464     		str	r4, [r6, #68]
 890 0012 2846     		mov	r0, r5
 244:Drivers/lvgl/src/draw/lv_draw.c ****             if(t_prev != NULL)
 891              		.loc 1 244 25 view .LVU275
 892 0014 0127     		movs	r7, #1
 893              	.LVL65:
 894              	.L80:
 244:Drivers/lvgl/src/draw/lv_draw.c ****             if(t_prev != NULL)
 895              		.loc 1 244 25 view .LVU276
 896 0016 0546     		mov	r5, r0
 897              	.LVL66:
 244:Drivers/lvgl/src/draw/lv_draw.c ****             if(t_prev != NULL)
 898              		.loc 1 244 25 view .LVU277
 899 0018 2046     		mov	r0, r4
 900              	.LVL67:
 901              	.L79:
 240:Drivers/lvgl/src/draw/lv_draw.c ****         t_next = t->next;
 902              		.loc 1 240 11 is_stmt 1 view .LVU278
 903 001a 60B1     		cbz	r0, .L94
 241:Drivers/lvgl/src/draw/lv_draw.c ****         if(t->state == LV_DRAW_TASK_STATE_READY) {
 904              		.loc 1 241 9 view .LVU279
 241:Drivers/lvgl/src/draw/lv_draw.c ****         if(t->state == LV_DRAW_TASK_STATE_READY) {
 905              		.loc 1 241 16 is_stmt 0 view .LVU280
 906 001c 0468     		ldr	r4, [r0]
 907              	.LVL68:
 242:Drivers/lvgl/src/draw/lv_draw.c ****             cleanup_task(t, disp);
 908              		.loc 1 242 9 is_stmt 1 view .LVU281
 242:Drivers/lvgl/src/draw/lv_draw.c ****             cleanup_task(t, disp);
 909              		.loc 1 242 13 is_stmt 0 view .LVU282
 910 001e 036D     		ldr	r3, [r0, #80]
 242:Drivers/lvgl/src/draw/lv_draw.c ****             cleanup_task(t, disp);
 911              		.loc 1 242 11 view .LVU283
 912 0020 032B     		cmp	r3, #3
 913 0022 F8D1     		bne	.L80
 243:Drivers/lvgl/src/draw/lv_draw.c ****             remove_task = true;
 914              		.loc 1 243 13 is_stmt 1 view .LVU284
 915 0024 4146     		mov	r1, r8
 916 0026 FFF7FEFF 		bl	cleanup_task
 917              	.LVL69:
 244:Drivers/lvgl/src/draw/lv_draw.c ****             if(t_prev != NULL)
 918              		.loc 1 244 13 view .LVU285
ARM GAS  /tmp/ccwC1Sr5.s 			page 33


 245:Drivers/lvgl/src/draw/lv_draw.c ****                 t_prev->next = t_next;
 919              		.loc 1 245 13 view .LVU286
 245:Drivers/lvgl/src/draw/lv_draw.c ****                 t_prev->next = t_next;
 920              		.loc 1 245 15 is_stmt 0 view .LVU287
 921 002a 002D     		cmp	r5, #0
 922 002c F0D0     		beq	.L81
 246:Drivers/lvgl/src/draw/lv_draw.c ****             else
 923              		.loc 1 246 17 is_stmt 1 view .LVU288
 246:Drivers/lvgl/src/draw/lv_draw.c ****             else
 924              		.loc 1 246 30 is_stmt 0 view .LVU289
 925 002e 2C60     		str	r4, [r5]
 926 0030 2846     		mov	r0, r5
 244:Drivers/lvgl/src/draw/lv_draw.c ****             if(t_prev != NULL)
 927              		.loc 1 244 25 view .LVU290
 928 0032 0127     		movs	r7, #1
 929 0034 EFE7     		b	.L80
 930              	.LVL70:
 931              	.L94:
 256:Drivers/lvgl/src/draw/lv_draw.c **** 
 932              		.loc 1 256 5 is_stmt 1 view .LVU291
 259:Drivers/lvgl/src/draw/lv_draw.c ****         /*Find a draw task with TYPE_LAYER in the layer where the src is this layer*/
 933              		.loc 1 259 5 view .LVU292
 259:Drivers/lvgl/src/draw/lv_draw.c ****         /*Find a draw task with TYPE_LAYER in the layer where the src is this layer*/
 934              		.loc 1 259 13 is_stmt 0 view .LVU293
 935 0036 B36C     		ldr	r3, [r6, #72]
 259:Drivers/lvgl/src/draw/lv_draw.c ****         /*Find a draw task with TYPE_LAYER in the layer where the src is this layer*/
 936              		.loc 1 259 7 view .LVU294
 937 0038 23B1     		cbz	r3, .L83
 259:Drivers/lvgl/src/draw/lv_draw.c ****         /*Find a draw task with TYPE_LAYER in the layer where the src is this layer*/
 938              		.loc 1 259 30 discriminator 1 view .LVU295
 939 003a 96F85020 		ldrb	r2, [r6, #80]	@ zero_extendqisi2
 259:Drivers/lvgl/src/draw/lv_draw.c ****         /*Find a draw task with TYPE_LAYER in the layer where the src is this layer*/
 940              		.loc 1 259 22 discriminator 1 view .LVU296
 941 003e 0AB1     		cbz	r2, .L83
 259:Drivers/lvgl/src/draw/lv_draw.c ****         /*Find a draw task with TYPE_LAYER in the layer where the src is this layer*/
 942              		.loc 1 259 56 discriminator 2 view .LVU297
 943 0040 726C     		ldr	r2, [r6, #68]
 259:Drivers/lvgl/src/draw/lv_draw.c ****         /*Find a draw task with TYPE_LAYER in the layer where the src is this layer*/
 944              		.loc 1 259 48 discriminator 2 view .LVU298
 945 0042 3AB1     		cbz	r2, .L95
 946              	.L83:
 275:Drivers/lvgl/src/draw/lv_draw.c ****         /*Find a draw unit which is not busy and can take at least one task*/
 947              		.loc 1 275 10 is_stmt 1 view .LVU299
 275:Drivers/lvgl/src/draw/lv_draw.c ****         /*Find a draw unit which is not busy and can take at least one task*/
 948              		.loc 1 275 12 is_stmt 0 view .LVU300
 949 0044 0FB9     		cbnz	r7, .L88
 275:Drivers/lvgl/src/draw/lv_draw.c ****         /*Find a draw unit which is not busy and can take at least one task*/
 950              		.loc 1 275 33 discriminator 1 view .LVU301
 951 0046 736C     		ldr	r3, [r6, #68]
 275:Drivers/lvgl/src/draw/lv_draw.c ****         /*Find a draw unit which is not busy and can take at least one task*/
 952              		.loc 1 275 25 discriminator 1 view .LVU302
 953 0048 CBB1     		cbz	r3, .L86
 954              	.L88:
 955              	.LBB13:
 278:Drivers/lvgl/src/draw/lv_draw.c ****         while(u) {
 956              		.loc 1 278 9 is_stmt 1 view .LVU303
 278:Drivers/lvgl/src/draw/lv_draw.c ****         while(u) {
ARM GAS  /tmp/ccwC1Sr5.s 			page 34


 957              		.loc 1 278 26 is_stmt 0 view .LVU304
 958 004a 144B     		ldr	r3, .L97
 959 004c D3F82441 		ldr	r4, [r3, #292]
 960              	.LVL71:
 279:Drivers/lvgl/src/draw/lv_draw.c ****             LV_PROFILER_DRAW_BEGIN_TAG("dispatch_cb");
 961              		.loc 1 279 9 is_stmt 1 view .LVU305
 962              	.LBE13:
 256:Drivers/lvgl/src/draw/lv_draw.c **** 
 963              		.loc 1 256 10 is_stmt 0 view .LVU306
 964 0050 0027     		movs	r7, #0
 965              	.LVL72:
 966              	.LBB16:
 279:Drivers/lvgl/src/draw/lv_draw.c ****             LV_PROFILER_DRAW_BEGIN_TAG("dispatch_cb");
 967              		.loc 1 279 14 view .LVU307
 968 0052 18E0     		b	.L89
 969              	.LVL73:
 970              	.L95:
 279:Drivers/lvgl/src/draw/lv_draw.c ****             LV_PROFILER_DRAW_BEGIN_TAG("dispatch_cb");
 971              		.loc 1 279 14 view .LVU308
 972              	.LBE16:
 973              	.LBB17:
 261:Drivers/lvgl/src/draw/lv_draw.c ****         while(t_src) {
 974              		.loc 1 261 9 is_stmt 1 view .LVU309
 261:Drivers/lvgl/src/draw/lv_draw.c ****         while(t_src) {
 975              		.loc 1 261 26 is_stmt 0 view .LVU310
 976 0054 5B6C     		ldr	r3, [r3, #68]
 977              	.LVL74:
 262:Drivers/lvgl/src/draw/lv_draw.c ****             if(t_src->type == LV_DRAW_TASK_TYPE_LAYER && t_src->state == LV_DRAW_TASK_STATE_WAITING
 978              		.loc 1 262 9 is_stmt 1 view .LVU311
 262:Drivers/lvgl/src/draw/lv_draw.c ****             if(t_src->type == LV_DRAW_TASK_TYPE_LAYER && t_src->state == LV_DRAW_TASK_STATE_WAITING
 979              		.loc 1 262 14 is_stmt 0 view .LVU312
 980 0056 00E0     		b	.L84
 981              	.L85:
 271:Drivers/lvgl/src/draw/lv_draw.c ****         }
 982              		.loc 1 271 13 is_stmt 1 view .LVU313
 271:Drivers/lvgl/src/draw/lv_draw.c ****         }
 983              		.loc 1 271 19 is_stmt 0 view .LVU314
 984 0058 1B68     		ldr	r3, [r3]
 985              	.LVL75:
 986              	.L84:
 262:Drivers/lvgl/src/draw/lv_draw.c ****             if(t_src->type == LV_DRAW_TASK_TYPE_LAYER && t_src->state == LV_DRAW_TASK_STATE_WAITING
 987              		.loc 1 262 15 is_stmt 1 view .LVU315
 988 005a 7BB1     		cbz	r3, .L96
 263:Drivers/lvgl/src/draw/lv_draw.c ****                 lv_draw_image_dsc_t * draw_dsc = t_src->draw_dsc;
 989              		.loc 1 263 13 view .LVU316
 263:Drivers/lvgl/src/draw/lv_draw.c ****                 lv_draw_image_dsc_t * draw_dsc = t_src->draw_dsc;
 990              		.loc 1 263 21 is_stmt 0 view .LVU317
 991 005c 1A79     		ldrb	r2, [r3, #4]	@ zero_extendqisi2
 263:Drivers/lvgl/src/draw/lv_draw.c ****                 lv_draw_image_dsc_t * draw_dsc = t_src->draw_dsc;
 992              		.loc 1 263 15 view .LVU318
 993 005e 072A     		cmp	r2, #7
 994 0060 FAD1     		bne	.L85
 263:Drivers/lvgl/src/draw/lv_draw.c ****                 lv_draw_image_dsc_t * draw_dsc = t_src->draw_dsc;
 995              		.loc 1 263 63 discriminator 1 view .LVU319
 996 0062 1A6D     		ldr	r2, [r3, #80]
 263:Drivers/lvgl/src/draw/lv_draw.c ****                 lv_draw_image_dsc_t * draw_dsc = t_src->draw_dsc;
 997              		.loc 1 263 55 discriminator 1 view .LVU320
ARM GAS  /tmp/ccwC1Sr5.s 			page 35


 998 0064 002A     		cmp	r2, #0
 999 0066 F7D1     		bne	.L85
 1000              	.LBB18:
 264:Drivers/lvgl/src/draw/lv_draw.c ****                 if(draw_dsc->src == layer) {
 1001              		.loc 1 264 17 is_stmt 1 view .LVU321
 264:Drivers/lvgl/src/draw/lv_draw.c ****                 if(draw_dsc->src == layer) {
 1002              		.loc 1 264 39 is_stmt 0 view .LVU322
 1003 0068 5A6D     		ldr	r2, [r3, #84]
 1004              	.LVL76:
 265:Drivers/lvgl/src/draw/lv_draw.c ****                     t_src->state = LV_DRAW_TASK_STATE_QUEUED;
 1005              		.loc 1 265 17 is_stmt 1 view .LVU323
 265:Drivers/lvgl/src/draw/lv_draw.c ****                     t_src->state = LV_DRAW_TASK_STATE_QUEUED;
 1006              		.loc 1 265 28 is_stmt 0 view .LVU324
 1007 006a D269     		ldr	r2, [r2, #28]
 1008              	.LVL77:
 265:Drivers/lvgl/src/draw/lv_draw.c ****                     t_src->state = LV_DRAW_TASK_STATE_QUEUED;
 1009              		.loc 1 265 19 view .LVU325
 1010 006c B242     		cmp	r2, r6
 1011 006e F3D1     		bne	.L85
 266:Drivers/lvgl/src/draw/lv_draw.c ****                     lv_draw_dispatch_request();
 1012              		.loc 1 266 21 is_stmt 1 view .LVU326
 266:Drivers/lvgl/src/draw/lv_draw.c ****                     lv_draw_dispatch_request();
 1013              		.loc 1 266 34 is_stmt 0 view .LVU327
 1014 0070 0122     		movs	r2, #1
 1015 0072 1A65     		str	r2, [r3, #80]
 267:Drivers/lvgl/src/draw/lv_draw.c ****                     break;
 1016              		.loc 1 267 21 is_stmt 1 view .LVU328
 1017 0074 FFF7FEFF 		bl	lv_draw_dispatch_request
 1018              	.LVL78:
 268:Drivers/lvgl/src/draw/lv_draw.c ****                 }
 1019              		.loc 1 268 21 view .LVU329
 1020              	.LBE18:
 1021              	.LBE17:
 256:Drivers/lvgl/src/draw/lv_draw.c **** 
 1022              		.loc 1 256 10 is_stmt 0 view .LVU330
 1023 0078 0027     		movs	r7, #0
 1024              	.LVL79:
 1025              	.LBB20:
 1026              	.LBB19:
 268:Drivers/lvgl/src/draw/lv_draw.c ****                 }
 1027              		.loc 1 268 21 view .LVU331
 1028 007a 00E0     		b	.L86
 1029              	.LVL80:
 1030              	.L96:
 268:Drivers/lvgl/src/draw/lv_draw.c ****                 }
 1031              		.loc 1 268 21 view .LVU332
 1032              	.LBE19:
 1033              	.LBE20:
 256:Drivers/lvgl/src/draw/lv_draw.c **** 
 1034              		.loc 1 256 10 view .LVU333
 1035 007c 0027     		movs	r7, #0
 1036              	.LVL81:
 1037              	.L86:
 290:Drivers/lvgl/src/draw/lv_draw.c ****     return task_dispatched;
 1038              		.loc 1 290 25 is_stmt 1 view .LVU334
 291:Drivers/lvgl/src/draw/lv_draw.c **** }
 1039              		.loc 1 291 5 view .LVU335
ARM GAS  /tmp/ccwC1Sr5.s 			page 36


 292:Drivers/lvgl/src/draw/lv_draw.c **** 
 1040              		.loc 1 292 1 is_stmt 0 view .LVU336
 1041 007e 3846     		mov	r0, r7
 1042 0080 BDE8F081 		pop	{r4, r5, r6, r7, r8, pc}
 1043              	.LVL82:
 1044              	.L90:
 1045              	.LBB21:
 1046              	.LBB14:
 286:Drivers/lvgl/src/draw/lv_draw.c ****         }
 1047              		.loc 1 286 13 is_stmt 1 view .LVU337
 286:Drivers/lvgl/src/draw/lv_draw.c ****         }
 1048              		.loc 1 286 15 is_stmt 0 view .LVU338
 1049 0084 2468     		ldr	r4, [r4]
 1050              	.LVL83:
 1051              	.L89:
 286:Drivers/lvgl/src/draw/lv_draw.c ****         }
 1052              		.loc 1 286 15 view .LVU339
 1053              	.LBE14:
 279:Drivers/lvgl/src/draw/lv_draw.c ****             LV_PROFILER_DRAW_BEGIN_TAG("dispatch_cb");
 1054              		.loc 1 279 15 is_stmt 1 view .LVU340
 1055 0086 002C     		cmp	r4, #0
 1056 0088 F9D0     		beq	.L86
 1057              	.LBB15:
 280:Drivers/lvgl/src/draw/lv_draw.c ****             LV_PROFILER_DRAW_BEGIN_TAG(u->name);
 1058              		.loc 1 280 54 view .LVU341
 281:Drivers/lvgl/src/draw/lv_draw.c ****             int32_t taken_cnt = u->dispatch_cb(u, layer);
 1059              		.loc 1 281 48 view .LVU342
 282:Drivers/lvgl/src/draw/lv_draw.c ****             LV_PROFILER_DRAW_END_TAG(u->name);
 1060              		.loc 1 282 13 view .LVU343
 282:Drivers/lvgl/src/draw/lv_draw.c ****             LV_PROFILER_DRAW_END_TAG(u->name);
 1061              		.loc 1 282 34 is_stmt 0 view .LVU344
 1062 008a E368     		ldr	r3, [r4, #12]
 282:Drivers/lvgl/src/draw/lv_draw.c ****             LV_PROFILER_DRAW_END_TAG(u->name);
 1063              		.loc 1 282 33 view .LVU345
 1064 008c 3146     		mov	r1, r6
 1065 008e 2046     		mov	r0, r4
 1066 0090 9847     		blx	r3
 1067              	.LVL84:
 283:Drivers/lvgl/src/draw/lv_draw.c ****             LV_PROFILER_DRAW_END_TAG("dispatch_cb");
 1068              		.loc 1 283 46 is_stmt 1 view .LVU346
 284:Drivers/lvgl/src/draw/lv_draw.c ****             if(taken_cnt != LV_DRAW_UNIT_IDLE) task_dispatched = true;
 1069              		.loc 1 284 52 view .LVU347
 285:Drivers/lvgl/src/draw/lv_draw.c ****             u = u->next;
 1070              		.loc 1 285 13 view .LVU348
 285:Drivers/lvgl/src/draw/lv_draw.c ****             u = u->next;
 1071              		.loc 1 285 15 is_stmt 0 view .LVU349
 1072 0092 B0F1FF3F 		cmp	r0, #-1
 1073 0096 F5D0     		beq	.L90
 285:Drivers/lvgl/src/draw/lv_draw.c ****             u = u->next;
 1074              		.loc 1 285 64 discriminator 1 view .LVU350
 1075 0098 0127     		movs	r7, #1
 1076              	.LVL85:
 285:Drivers/lvgl/src/draw/lv_draw.c ****             u = u->next;
 1077              		.loc 1 285 64 discriminator 1 view .LVU351
 1078 009a F3E7     		b	.L90
 1079              	.L98:
 1080              		.align	2
ARM GAS  /tmp/ccwC1Sr5.s 			page 37


 1081              	.L97:
 1082 009c 00000000 		.word	lv_global
 1083              	.LBE15:
 1084              	.LBE21:
 1085              		.cfi_endproc
 1086              	.LFE193:
 1088              		.section	.text.lv_draw_dispatch,"ax",%progbits
 1089              		.align	1
 1090              		.global	lv_draw_dispatch
 1091              		.syntax unified
 1092              		.thumb
 1093              		.thumb_func
 1095              	lv_draw_dispatch:
 1096              	.LFB192:
 212:Drivers/lvgl/src/draw/lv_draw.c ****     LV_PROFILER_DRAW_BEGIN;
 1097              		.loc 1 212 1 is_stmt 1 view -0
 1098              		.cfi_startproc
 1099              		@ args = 0, pretend = 0, frame = 0
 1100              		@ frame_needed = 0, uses_anonymous_args = 0
 1101 0000 70B5     		push	{r4, r5, r6, lr}
 1102              	.LCFI8:
 1103              		.cfi_def_cfa_offset 16
 1104              		.cfi_offset 4, -16
 1105              		.cfi_offset 5, -12
 1106              		.cfi_offset 6, -8
 1107              		.cfi_offset 14, -4
 213:Drivers/lvgl/src/draw/lv_draw.c ****     bool task_dispatched = false;
 1108              		.loc 1 213 27 view .LVU353
 214:Drivers/lvgl/src/draw/lv_draw.c ****     lv_display_t * disp = lv_display_get_next(NULL);
 1109              		.loc 1 214 5 view .LVU354
 1110              	.LVL86:
 215:Drivers/lvgl/src/draw/lv_draw.c ****     while(disp) {
 1111              		.loc 1 215 5 view .LVU355
 215:Drivers/lvgl/src/draw/lv_draw.c ****     while(disp) {
 1112              		.loc 1 215 27 is_stmt 0 view .LVU356
 1113 0002 0020     		movs	r0, #0
 1114 0004 FFF7FEFF 		bl	lv_display_get_next
 1115              	.LVL87:
 1116 0008 0546     		mov	r5, r0
 1117              	.LVL88:
 216:Drivers/lvgl/src/draw/lv_draw.c ****         lv_layer_t * layer = disp->layer_head;
 1118              		.loc 1 216 5 is_stmt 1 view .LVU357
 214:Drivers/lvgl/src/draw/lv_draw.c ****     lv_display_t * disp = lv_display_get_next(NULL);
 1119              		.loc 1 214 10 is_stmt 0 view .LVU358
 1120 000a 0026     		movs	r6, #0
 216:Drivers/lvgl/src/draw/lv_draw.c ****         lv_layer_t * layer = disp->layer_head;
 1121              		.loc 1 216 10 view .LVU359
 1122 000c 0EE0     		b	.L100
 1123              	.LVL89:
 1124              	.L102:
 1125              	.LBB22:
 221:Drivers/lvgl/src/draw/lv_draw.c ****         }
 1126              		.loc 1 221 13 is_stmt 1 view .LVU360
 221:Drivers/lvgl/src/draw/lv_draw.c ****         }
 1127              		.loc 1 221 19 is_stmt 0 view .LVU361
 1128 000e E46C     		ldr	r4, [r4, #76]
 1129              	.LVL90:
ARM GAS  /tmp/ccwC1Sr5.s 			page 38


 1130              	.L101:
 218:Drivers/lvgl/src/draw/lv_draw.c ****             if(lv_draw_dispatch_layer(disp, layer))
 1131              		.loc 1 218 15 is_stmt 1 view .LVU362
 1132 0010 3CB1     		cbz	r4, .L108
 219:Drivers/lvgl/src/draw/lv_draw.c ****                 task_dispatched = true;
 1133              		.loc 1 219 13 view .LVU363
 219:Drivers/lvgl/src/draw/lv_draw.c ****                 task_dispatched = true;
 1134              		.loc 1 219 16 is_stmt 0 view .LVU364
 1135 0012 2146     		mov	r1, r4
 1136 0014 2846     		mov	r0, r5
 1137 0016 FFF7FEFF 		bl	lv_draw_dispatch_layer
 1138              	.LVL91:
 219:Drivers/lvgl/src/draw/lv_draw.c ****                 task_dispatched = true;
 1139              		.loc 1 219 15 discriminator 1 view .LVU365
 1140 001a 0028     		cmp	r0, #0
 1141 001c F7D0     		beq	.L102
 220:Drivers/lvgl/src/draw/lv_draw.c ****             layer = layer->next;
 1142              		.loc 1 220 33 view .LVU366
 1143 001e 0646     		mov	r6, r0
 1144              	.LVL92:
 220:Drivers/lvgl/src/draw/lv_draw.c ****             layer = layer->next;
 1145              		.loc 1 220 33 view .LVU367
 1146 0020 F5E7     		b	.L102
 1147              	.LVL93:
 1148              	.L108:
 223:Drivers/lvgl/src/draw/lv_draw.c ****             lv_draw_wait_for_finish();
 1149              		.loc 1 223 9 is_stmt 1 view .LVU368
 223:Drivers/lvgl/src/draw/lv_draw.c ****             lv_draw_wait_for_finish();
 1150              		.loc 1 223 11 is_stmt 0 view .LVU369
 1151 0022 3EB1     		cbz	r6, .L109
 1152              	.L104:
 227:Drivers/lvgl/src/draw/lv_draw.c ****     }
 1153              		.loc 1 227 9 is_stmt 1 view .LVU370
 227:Drivers/lvgl/src/draw/lv_draw.c ****     }
 1154              		.loc 1 227 16 is_stmt 0 view .LVU371
 1155 0024 2846     		mov	r0, r5
 1156 0026 FFF7FEFF 		bl	lv_display_get_next
 1157              	.LVL94:
 1158 002a 0546     		mov	r5, r0
 1159              	.LVL95:
 1160              	.L100:
 227:Drivers/lvgl/src/draw/lv_draw.c ****     }
 1161              		.loc 1 227 16 view .LVU372
 1162              	.LBE22:
 216:Drivers/lvgl/src/draw/lv_draw.c ****         lv_layer_t * layer = disp->layer_head;
 1163              		.loc 1 216 11 is_stmt 1 view .LVU373
 1164 002c 2DB1     		cbz	r5, .L110
 1165              	.LBB23:
 217:Drivers/lvgl/src/draw/lv_draw.c ****         while(layer) {
 1166              		.loc 1 217 9 view .LVU374
 217:Drivers/lvgl/src/draw/lv_draw.c ****         while(layer) {
 1167              		.loc 1 217 22 is_stmt 0 view .LVU375
 1168 002e D5F8AC42 		ldr	r4, [r5, #684]
 1169              	.LVL96:
 218:Drivers/lvgl/src/draw/lv_draw.c ****             if(lv_draw_dispatch_layer(disp, layer))
 1170              		.loc 1 218 9 is_stmt 1 view .LVU376
 218:Drivers/lvgl/src/draw/lv_draw.c ****             if(lv_draw_dispatch_layer(disp, layer))
ARM GAS  /tmp/ccwC1Sr5.s 			page 39


 1171              		.loc 1 218 14 is_stmt 0 view .LVU377
 1172 0032 EDE7     		b	.L101
 1173              	.L109:
 224:Drivers/lvgl/src/draw/lv_draw.c ****             lv_draw_dispatch_request();
 1174              		.loc 1 224 13 is_stmt 1 view .LVU378
 225:Drivers/lvgl/src/draw/lv_draw.c ****         }
 1175              		.loc 1 225 13 view .LVU379
 1176 0034 FFF7FEFF 		bl	lv_draw_dispatch_request
 1177              	.LVL97:
 1178 0038 F4E7     		b	.L104
 1179              	.LVL98:
 1180              	.L110:
 225:Drivers/lvgl/src/draw/lv_draw.c ****         }
 1181              		.loc 1 225 13 is_stmt 0 view .LVU380
 1182              	.LBE23:
 230:Drivers/lvgl/src/draw/lv_draw.c **** 
 1183              		.loc 1 230 1 view .LVU381
 1184 003a 70BD     		pop	{r4, r5, r6, pc}
 230:Drivers/lvgl/src/draw/lv_draw.c **** 
 1185              		.loc 1 230 1 view .LVU382
 1186              		.cfi_endproc
 1187              	.LFE192:
 1189              		.section	.text.lv_draw_finalize_task_creation,"ax",%progbits
 1190              		.align	1
 1191              		.global	lv_draw_finalize_task_creation
 1192              		.syntax unified
 1193              		.thumb
 1194              		.thumb_func
 1196              	lv_draw_finalize_task_creation:
 1197              	.LVL99:
 1198              	.LFB190:
 132:Drivers/lvgl/src/draw/lv_draw.c ****     LV_PROFILER_DRAW_BEGIN;
 1199              		.loc 1 132 1 is_stmt 1 view -0
 1200              		.cfi_startproc
 1201              		@ args = 0, pretend = 0, frame = 0
 1202              		@ frame_needed = 0, uses_anonymous_args = 0
 132:Drivers/lvgl/src/draw/lv_draw.c ****     LV_PROFILER_DRAW_BEGIN;
 1203              		.loc 1 132 1 is_stmt 0 view .LVU384
 1204 0000 70B5     		push	{r4, r5, r6, lr}
 1205              	.LCFI9:
 1206              		.cfi_def_cfa_offset 16
 1207              		.cfi_offset 4, -16
 1208              		.cfi_offset 5, -12
 1209              		.cfi_offset 6, -8
 1210              		.cfi_offset 14, -4
 1211 0002 0D46     		mov	r5, r1
 133:Drivers/lvgl/src/draw/lv_draw.c ****     lv_draw_dsc_base_t * base_dsc = t->draw_dsc;
 1212              		.loc 1 133 27 is_stmt 1 view .LVU385
 134:Drivers/lvgl/src/draw/lv_draw.c ****     base_dsc->layer = layer;
 1213              		.loc 1 134 5 view .LVU386
 134:Drivers/lvgl/src/draw/lv_draw.c ****     base_dsc->layer = layer;
 1214              		.loc 1 134 26 is_stmt 0 view .LVU387
 1215 0004 4C6D     		ldr	r4, [r1, #84]
 1216              	.LVL100:
 135:Drivers/lvgl/src/draw/lv_draw.c **** 
 1217              		.loc 1 135 5 is_stmt 1 view .LVU388
 135:Drivers/lvgl/src/draw/lv_draw.c **** 
ARM GAS  /tmp/ccwC1Sr5.s 			page 40


 1218              		.loc 1 135 21 is_stmt 0 view .LVU389
 1219 0006 2061     		str	r0, [r4, #16]
 137:Drivers/lvgl/src/draw/lv_draw.c **** 
 1220              		.loc 1 137 5 is_stmt 1 view .LVU390
 1221              	.LVL101:
 144:Drivers/lvgl/src/draw/lv_draw.c ****         if(base_dsc->obj && lv_obj_has_flag(base_dsc->obj, LV_OBJ_FLAG_SEND_DRAW_TASK_EVENTS)) {
 1222              		.loc 1 144 5 view .LVU391
 144:Drivers/lvgl/src/draw/lv_draw.c ****         if(base_dsc->obj && lv_obj_has_flag(base_dsc->obj, LV_OBJ_FLAG_SEND_DRAW_TASK_EVENTS)) {
 1223              		.loc 1 144 12 is_stmt 0 view .LVU392
 1224 0008 234B     		ldr	r3, .L125
 1225 000a 93F83831 		ldrb	r3, [r3, #312]	@ zero_extendqisi2
 144:Drivers/lvgl/src/draw/lv_draw.c ****         if(base_dsc->obj && lv_obj_has_flag(base_dsc->obj, LV_OBJ_FLAG_SEND_DRAW_TASK_EVENTS)) {
 1226              		.loc 1 144 7 view .LVU393
 1227 000e 7BBB     		cbnz	r3, .L112
 1228              	.LBB24:
 145:Drivers/lvgl/src/draw/lv_draw.c ****             info->task_running = true;
 1229              		.loc 1 145 9 is_stmt 1 view .LVU394
 145:Drivers/lvgl/src/draw/lv_draw.c ****             info->task_running = true;
 1230              		.loc 1 145 20 is_stmt 0 view .LVU395
 1231 0010 2068     		ldr	r0, [r4]
 1232              	.LVL102:
 145:Drivers/lvgl/src/draw/lv_draw.c ****             info->task_running = true;
 1233              		.loc 1 145 11 view .LVU396
 1234 0012 20B1     		cbz	r0, .L113
 145:Drivers/lvgl/src/draw/lv_draw.c ****             info->task_running = true;
 1235              		.loc 1 145 29 discriminator 1 view .LVU397
 1236 0014 4FF40021 		mov	r1, #524288
 1237              	.LVL103:
 145:Drivers/lvgl/src/draw/lv_draw.c ****             info->task_running = true;
 1238              		.loc 1 145 29 discriminator 1 view .LVU398
 1239 0018 FFF7FEFF 		bl	lv_obj_has_flag
 1240              	.LVL104:
 145:Drivers/lvgl/src/draw/lv_draw.c ****             info->task_running = true;
 1241              		.loc 1 145 26 discriminator 1 view .LVU399
 1242 001c 48B9     		cbnz	r0, .L123
 1243              	.L113:
 152:Drivers/lvgl/src/draw/lv_draw.c ****         t->preferred_draw_unit_id = 0;
 1244              		.loc 1 152 9 is_stmt 1 view .LVU400
 152:Drivers/lvgl/src/draw/lv_draw.c ****         t->preferred_draw_unit_id = 0;
 1245              		.loc 1 152 29 is_stmt 0 view .LVU401
 1246 001e 6423     		movs	r3, #100
 1247 0020 85F85930 		strb	r3, [r5, #89]
 153:Drivers/lvgl/src/draw/lv_draw.c ****         lv_draw_unit_t * u = info->unit_head;
 1248              		.loc 1 153 9 is_stmt 1 view .LVU402
 153:Drivers/lvgl/src/draw/lv_draw.c ****         lv_draw_unit_t * u = info->unit_head;
 1249              		.loc 1 153 35 is_stmt 0 view .LVU403
 1250 0024 0023     		movs	r3, #0
 1251 0026 85F85830 		strb	r3, [r5, #88]
 154:Drivers/lvgl/src/draw/lv_draw.c ****         while(u) {
 1252              		.loc 1 154 9 is_stmt 1 view .LVU404
 154:Drivers/lvgl/src/draw/lv_draw.c ****         while(u) {
 1253              		.loc 1 154 26 is_stmt 0 view .LVU405
 1254 002a 1B4B     		ldr	r3, .L125
 1255 002c D3F82441 		ldr	r4, [r3, #292]
 1256              	.LVL105:
 155:Drivers/lvgl/src/draw/lv_draw.c ****             if(u->evaluate_cb) {
 1257              		.loc 1 155 9 is_stmt 1 view .LVU406
ARM GAS  /tmp/ccwC1Sr5.s 			page 41


 155:Drivers/lvgl/src/draw/lv_draw.c ****             if(u->evaluate_cb) {
 1258              		.loc 1 155 14 is_stmt 0 view .LVU407
 1259 0030 0DE0     		b	.L114
 1260              	.LVL106:
 1261              	.L123:
 146:Drivers/lvgl/src/draw/lv_draw.c ****             lv_obj_send_event(base_dsc->obj, LV_EVENT_DRAW_TASK_ADDED, t);
 1262              		.loc 1 146 13 is_stmt 1 view .LVU408
 146:Drivers/lvgl/src/draw/lv_draw.c ****             lv_obj_send_event(base_dsc->obj, LV_EVENT_DRAW_TASK_ADDED, t);
 1263              		.loc 1 146 32 is_stmt 0 view .LVU409
 1264 0032 194E     		ldr	r6, .L125
 1265 0034 0123     		movs	r3, #1
 1266 0036 86F83831 		strb	r3, [r6, #312]
 147:Drivers/lvgl/src/draw/lv_draw.c ****             info->task_running = false;
 1267              		.loc 1 147 13 is_stmt 1 view .LVU410
 1268 003a 2A46     		mov	r2, r5
 1269 003c 2221     		movs	r1, #34
 1270 003e 2068     		ldr	r0, [r4]
 1271 0040 FFF7FEFF 		bl	lv_obj_send_event
 1272              	.LVL107:
 148:Drivers/lvgl/src/draw/lv_draw.c ****         }
 1273              		.loc 1 148 13 view .LVU411
 148:Drivers/lvgl/src/draw/lv_draw.c ****         }
 1274              		.loc 1 148 32 is_stmt 0 view .LVU412
 1275 0044 0023     		movs	r3, #0
 1276 0046 86F83831 		strb	r3, [r6, #312]
 1277 004a E8E7     		b	.L113
 1278              	.LVL108:
 1279              	.L115:
 160:Drivers/lvgl/src/draw/lv_draw.c ****                 LV_PROFILER_DRAW_END_TAG("evaluate_cb");
 1280              		.loc 1 160 50 is_stmt 1 view .LVU413
 161:Drivers/lvgl/src/draw/lv_draw.c ****             }
 1281              		.loc 1 161 56 view .LVU414
 163:Drivers/lvgl/src/draw/lv_draw.c ****         }
 1282              		.loc 1 163 13 view .LVU415
 163:Drivers/lvgl/src/draw/lv_draw.c ****         }
 1283              		.loc 1 163 15 is_stmt 0 view .LVU416
 1284 004c 2468     		ldr	r4, [r4]
 1285              	.LVL109:
 1286              	.L114:
 155:Drivers/lvgl/src/draw/lv_draw.c ****             if(u->evaluate_cb) {
 1287              		.loc 1 155 15 is_stmt 1 view .LVU417
 1288 004e 34B1     		cbz	r4, .L124
 156:Drivers/lvgl/src/draw/lv_draw.c ****                 LV_PROFILER_DRAW_BEGIN_TAG("evaluate_cb");
 1289              		.loc 1 156 13 view .LVU418
 156:Drivers/lvgl/src/draw/lv_draw.c ****                 LV_PROFILER_DRAW_BEGIN_TAG("evaluate_cb");
 1290              		.loc 1 156 17 is_stmt 0 view .LVU419
 1291 0050 2369     		ldr	r3, [r4, #16]
 156:Drivers/lvgl/src/draw/lv_draw.c ****                 LV_PROFILER_DRAW_BEGIN_TAG("evaluate_cb");
 1292              		.loc 1 156 15 view .LVU420
 1293 0052 002B     		cmp	r3, #0
 1294 0054 FAD0     		beq	.L115
 157:Drivers/lvgl/src/draw/lv_draw.c ****                 LV_PROFILER_DRAW_BEGIN_TAG(u->name);
 1295              		.loc 1 157 58 is_stmt 1 view .LVU421
 158:Drivers/lvgl/src/draw/lv_draw.c ****                 u->evaluate_cb(u, t);
 1296              		.loc 1 158 52 view .LVU422
 159:Drivers/lvgl/src/draw/lv_draw.c ****                 LV_PROFILER_DRAW_END_TAG(u->name);
 1297              		.loc 1 159 17 view .LVU423
ARM GAS  /tmp/ccwC1Sr5.s 			page 42


 1298 0056 2946     		mov	r1, r5
 1299 0058 2046     		mov	r0, r4
 1300 005a 9847     		blx	r3
 1301              	.LVL110:
 1302 005c F6E7     		b	.L115
 1303              	.L124:
 165:Drivers/lvgl/src/draw/lv_draw.c ****             LV_LOG_WARN("the draw task was not taken by any units");
 1304              		.loc 1 165 9 view .LVU424
 165:Drivers/lvgl/src/draw/lv_draw.c ****             LV_LOG_WARN("the draw task was not taken by any units");
 1305              		.loc 1 165 13 is_stmt 0 view .LVU425
 1306 005e 95F85830 		ldrb	r3, [r5, #88]	@ zero_extendqisi2
 165:Drivers/lvgl/src/draw/lv_draw.c ****             LV_LOG_WARN("the draw task was not taken by any units");
 1307              		.loc 1 165 11 view .LVU426
 1308 0062 13B9     		cbnz	r3, .L117
 166:Drivers/lvgl/src/draw/lv_draw.c ****             t->state = LV_DRAW_TASK_STATE_READY;
 1309              		.loc 1 166 13 is_stmt 1 view .LVU427
 166:Drivers/lvgl/src/draw/lv_draw.c ****             t->state = LV_DRAW_TASK_STATE_READY;
 1310              		.loc 1 166 13 view .LVU428
 166:Drivers/lvgl/src/draw/lv_draw.c ****             t->state = LV_DRAW_TASK_STATE_READY;
 1311              		.loc 1 166 13 view .LVU429
 167:Drivers/lvgl/src/draw/lv_draw.c ****         }
 1312              		.loc 1 167 13 view .LVU430
 167:Drivers/lvgl/src/draw/lv_draw.c ****         }
 1313              		.loc 1 167 22 is_stmt 0 view .LVU431
 1314 0064 0323     		movs	r3, #3
 1315 0066 2B65     		str	r3, [r5, #80]
 1316              	.LVL111:
 1317              	.L111:
 167:Drivers/lvgl/src/draw/lv_draw.c ****         }
 1318              		.loc 1 167 22 view .LVU432
 1319              	.LBE24:
 190:Drivers/lvgl/src/draw/lv_draw.c **** 
 1320              		.loc 1 190 1 view .LVU433
 1321 0068 70BD     		pop	{r4, r5, r6, pc}
 1322              	.LVL112:
 1323              	.L117:
 1324              	.LBB25:
 170:Drivers/lvgl/src/draw/lv_draw.c ****         }
 1325              		.loc 1 170 13 is_stmt 1 view .LVU434
 1326 006a FFF7FEFF 		bl	lv_draw_dispatch
 1327              	.LVL113:
 1328 006e FBE7     		b	.L111
 1329              	.LVL114:
 1330              	.L112:
 170:Drivers/lvgl/src/draw/lv_draw.c ****         }
 1331              		.loc 1 170 13 is_stmt 0 view .LVU435
 1332              	.LBE25:
 1333              	.LBB26:
 175:Drivers/lvgl/src/draw/lv_draw.c ****         t->preferred_draw_unit_id = 0;
 1334              		.loc 1 175 9 is_stmt 1 view .LVU436
 175:Drivers/lvgl/src/draw/lv_draw.c ****         t->preferred_draw_unit_id = 0;
 1335              		.loc 1 175 29 is_stmt 0 view .LVU437
 1336 0070 6423     		movs	r3, #100
 1337 0072 81F85930 		strb	r3, [r1, #89]
 176:Drivers/lvgl/src/draw/lv_draw.c ****         lv_draw_unit_t * u = info->unit_head;
 1338              		.loc 1 176 9 is_stmt 1 view .LVU438
 176:Drivers/lvgl/src/draw/lv_draw.c ****         lv_draw_unit_t * u = info->unit_head;
ARM GAS  /tmp/ccwC1Sr5.s 			page 43


 1339              		.loc 1 176 35 is_stmt 0 view .LVU439
 1340 0076 0023     		movs	r3, #0
 1341 0078 81F85830 		strb	r3, [r1, #88]
 177:Drivers/lvgl/src/draw/lv_draw.c ****         while(u) {
 1342              		.loc 1 177 9 is_stmt 1 view .LVU440
 177:Drivers/lvgl/src/draw/lv_draw.c ****         while(u) {
 1343              		.loc 1 177 26 is_stmt 0 view .LVU441
 1344 007c 064B     		ldr	r3, .L125
 1345 007e D3F82441 		ldr	r4, [r3, #292]
 1346              	.LVL115:
 178:Drivers/lvgl/src/draw/lv_draw.c ****             if(u->evaluate_cb) {
 1347              		.loc 1 178 9 is_stmt 1 view .LVU442
 178:Drivers/lvgl/src/draw/lv_draw.c ****             if(u->evaluate_cb) {
 1348              		.loc 1 178 14 is_stmt 0 view .LVU443
 1349 0082 00E0     		b	.L119
 1350              	.LVL116:
 1351              	.L120:
 183:Drivers/lvgl/src/draw/lv_draw.c ****                 LV_PROFILER_DRAW_END_TAG("evaluate_cb");
 1352              		.loc 1 183 50 is_stmt 1 view .LVU444
 184:Drivers/lvgl/src/draw/lv_draw.c ****             }
 1353              		.loc 1 184 56 view .LVU445
 186:Drivers/lvgl/src/draw/lv_draw.c ****         }
 1354              		.loc 1 186 13 view .LVU446
 186:Drivers/lvgl/src/draw/lv_draw.c ****         }
 1355              		.loc 1 186 15 is_stmt 0 view .LVU447
 1356 0084 2468     		ldr	r4, [r4]
 1357              	.LVL117:
 1358              	.L119:
 178:Drivers/lvgl/src/draw/lv_draw.c ****             if(u->evaluate_cb) {
 1359              		.loc 1 178 15 is_stmt 1 view .LVU448
 1360 0086 002C     		cmp	r4, #0
 1361 0088 EED0     		beq	.L111
 179:Drivers/lvgl/src/draw/lv_draw.c ****                 LV_PROFILER_DRAW_BEGIN_TAG("evaluate_cb");
 1362              		.loc 1 179 13 view .LVU449
 179:Drivers/lvgl/src/draw/lv_draw.c ****                 LV_PROFILER_DRAW_BEGIN_TAG("evaluate_cb");
 1363              		.loc 1 179 17 is_stmt 0 view .LVU450
 1364 008a 2369     		ldr	r3, [r4, #16]
 179:Drivers/lvgl/src/draw/lv_draw.c ****                 LV_PROFILER_DRAW_BEGIN_TAG("evaluate_cb");
 1365              		.loc 1 179 15 view .LVU451
 1366 008c 002B     		cmp	r3, #0
 1367 008e F9D0     		beq	.L120
 180:Drivers/lvgl/src/draw/lv_draw.c ****                 LV_PROFILER_DRAW_BEGIN_TAG(u->name);
 1368              		.loc 1 180 58 is_stmt 1 view .LVU452
 181:Drivers/lvgl/src/draw/lv_draw.c ****                 u->evaluate_cb(u, t);
 1369              		.loc 1 181 52 view .LVU453
 182:Drivers/lvgl/src/draw/lv_draw.c ****                 LV_PROFILER_DRAW_END_TAG(u->name);
 1370              		.loc 1 182 17 view .LVU454
 1371 0090 2946     		mov	r1, r5
 1372 0092 2046     		mov	r0, r4
 1373 0094 9847     		blx	r3
 1374              	.LVL118:
 1375 0096 F5E7     		b	.L120
 1376              	.L126:
 1377              		.align	2
 1378              	.L125:
 1379 0098 00000000 		.word	lv_global
 1380              	.LBE26:
ARM GAS  /tmp/ccwC1Sr5.s 			page 44


 1381              		.cfi_endproc
 1382              	.LFE190:
 1384              		.section	.text.lv_draw_get_unit_count,"ax",%progbits
 1385              		.align	1
 1386              		.global	lv_draw_get_unit_count
 1387              		.syntax unified
 1388              		.thumb
 1389              		.thumb_func
 1391              	lv_draw_get_unit_count:
 1392              	.LFB196:
 318:Drivers/lvgl/src/draw/lv_draw.c ****     return _draw_info.unit_cnt;
 1393              		.loc 1 318 1 view -0
 1394              		.cfi_startproc
 1395              		@ args = 0, pretend = 0, frame = 0
 1396              		@ frame_needed = 0, uses_anonymous_args = 0
 1397              		@ link register save eliminated.
 319:Drivers/lvgl/src/draw/lv_draw.c **** }
 1398              		.loc 1 319 5 view .LVU456
 320:Drivers/lvgl/src/draw/lv_draw.c **** 
 1399              		.loc 1 320 1 is_stmt 0 view .LVU457
 1400 0000 014B     		ldr	r3, .L128
 1401 0002 D3F82801 		ldr	r0, [r3, #296]
 1402 0006 7047     		bx	lr
 1403              	.L129:
 1404              		.align	2
 1405              	.L128:
 1406 0008 00000000 		.word	lv_global
 1407              		.cfi_endproc
 1408              	.LFE196:
 1410              		.section	.text.lv_draw_get_next_available_task,"ax",%progbits
 1411              		.align	1
 1412              		.global	lv_draw_get_next_available_task
 1413              		.syntax unified
 1414              		.thumb
 1415              		.thumb_func
 1417              	lv_draw_get_next_available_task:
 1418              	.LVL119:
 1419              	.LFB198:
 333:Drivers/lvgl/src/draw/lv_draw.c ****     LV_PROFILER_DRAW_BEGIN;
 1420              		.loc 1 333 1 is_stmt 1 view -0
 1421              		.cfi_startproc
 1422              		@ args = 0, pretend = 0, frame = 0
 1423              		@ frame_needed = 0, uses_anonymous_args = 0
 333:Drivers/lvgl/src/draw/lv_draw.c ****     LV_PROFILER_DRAW_BEGIN;
 1424              		.loc 1 333 1 is_stmt 0 view .LVU459
 1425 0000 F8B5     		push	{r3, r4, r5, r6, r7, lr}
 1426              	.LCFI10:
 1427              		.cfi_def_cfa_offset 24
 1428              		.cfi_offset 3, -24
 1429              		.cfi_offset 4, -20
 1430              		.cfi_offset 5, -16
 1431              		.cfi_offset 6, -12
 1432              		.cfi_offset 7, -8
 1433              		.cfi_offset 14, -4
 1434 0002 0546     		mov	r5, r0
 1435 0004 0C46     		mov	r4, r1
 1436 0006 1646     		mov	r6, r2
ARM GAS  /tmp/ccwC1Sr5.s 			page 45


 334:Drivers/lvgl/src/draw/lv_draw.c **** 
 1437              		.loc 1 334 27 is_stmt 1 view .LVU460
 337:Drivers/lvgl/src/draw/lv_draw.c ****         int32_t hor_res = lv_display_get_horizontal_resolution(lv_refr_get_disp_refreshing());
 1438              		.loc 1 337 5 view .LVU461
 337:Drivers/lvgl/src/draw/lv_draw.c ****         int32_t hor_res = lv_display_get_horizontal_resolution(lv_refr_get_disp_refreshing());
 1439              		.loc 1 337 13 is_stmt 0 view .LVU462
 1440 0008 436C     		ldr	r3, [r0, #68]
 337:Drivers/lvgl/src/draw/lv_draw.c ****         int32_t hor_res = lv_display_get_horizontal_resolution(lv_refr_get_disp_refreshing());
 1441              		.loc 1 337 7 view .LVU463
 1442 000a 7BB1     		cbz	r3, .L131
 1443              	.LBB27:
 338:Drivers/lvgl/src/draw/lv_draw.c ****         int32_t ver_res = lv_display_get_vertical_resolution(lv_refr_get_disp_refreshing());
 1444              		.loc 1 338 9 is_stmt 1 view .LVU464
 338:Drivers/lvgl/src/draw/lv_draw.c ****         int32_t ver_res = lv_display_get_vertical_resolution(lv_refr_get_disp_refreshing());
 1445              		.loc 1 338 64 is_stmt 0 view .LVU465
 1446 000c FFF7FEFF 		bl	lv_refr_get_disp_refreshing
 1447              	.LVL120:
 338:Drivers/lvgl/src/draw/lv_draw.c ****         int32_t ver_res = lv_display_get_vertical_resolution(lv_refr_get_disp_refreshing());
 1448              		.loc 1 338 27 discriminator 1 view .LVU466
 1449 0010 FFF7FEFF 		bl	lv_display_get_horizontal_resolution
 1450              	.LVL121:
 1451 0014 0746     		mov	r7, r0
 1452              	.LVL122:
 339:Drivers/lvgl/src/draw/lv_draw.c ****         lv_draw_task_t * t = layer->draw_task_head;
 1453              		.loc 1 339 9 is_stmt 1 view .LVU467
 339:Drivers/lvgl/src/draw/lv_draw.c ****         lv_draw_task_t * t = layer->draw_task_head;
 1454              		.loc 1 339 62 is_stmt 0 view .LVU468
 1455 0016 FFF7FEFF 		bl	lv_refr_get_disp_refreshing
 1456              	.LVL123:
 339:Drivers/lvgl/src/draw/lv_draw.c ****         lv_draw_task_t * t = layer->draw_task_head;
 1457              		.loc 1 339 27 discriminator 1 view .LVU469
 1458 001a FFF7FEFF 		bl	lv_display_get_vertical_resolution
 1459              	.LVL124:
 340:Drivers/lvgl/src/draw/lv_draw.c ****         if(t->state != LV_DRAW_TASK_STATE_QUEUED &&
 1460              		.loc 1 340 9 is_stmt 1 view .LVU470
 340:Drivers/lvgl/src/draw/lv_draw.c ****         if(t->state != LV_DRAW_TASK_STATE_QUEUED &&
 1461              		.loc 1 340 26 is_stmt 0 view .LVU471
 1462 001e 6B6C     		ldr	r3, [r5, #68]
 1463              	.LVL125:
 341:Drivers/lvgl/src/draw/lv_draw.c ****            t->area.x1 <= 0 && t->area.x2 >= hor_res - 1 &&
 1464              		.loc 1 341 9 is_stmt 1 view .LVU472
 341:Drivers/lvgl/src/draw/lv_draw.c ****            t->area.x1 <= 0 && t->area.x2 >= hor_res - 1 &&
 1465              		.loc 1 341 13 is_stmt 0 view .LVU473
 1466 0020 1A6D     		ldr	r2, [r3, #80]
 341:Drivers/lvgl/src/draw/lv_draw.c ****            t->area.x1 <= 0 && t->area.x2 >= hor_res - 1 &&
 1467              		.loc 1 341 11 view .LVU474
 1468 0022 012A     		cmp	r2, #1
 1469 0024 02D0     		beq	.L131
 342:Drivers/lvgl/src/draw/lv_draw.c ****            t->area.y1 <= 0 && t->area.y2 >= ver_res - 1) {
 1470              		.loc 1 342 19 view .LVU475
 1471 0026 9A68     		ldr	r2, [r3, #8]
 341:Drivers/lvgl/src/draw/lv_draw.c ****            t->area.x1 <= 0 && t->area.x2 >= hor_res - 1 &&
 1472              		.loc 1 341 50 discriminator 1 view .LVU476
 1473 0028 002A     		cmp	r2, #0
 1474 002a 02DD     		ble	.L141
 1475              	.LVL126:
 1476              	.L131:
ARM GAS  /tmp/ccwC1Sr5.s 			page 46


 341:Drivers/lvgl/src/draw/lv_draw.c ****            t->area.x1 <= 0 && t->area.x2 >= hor_res - 1 &&
 1477              		.loc 1 341 50 discriminator 1 view .LVU477
 1478              	.LBE27:
 349:Drivers/lvgl/src/draw/lv_draw.c ****     while(t) {
 1479              		.loc 1 349 5 is_stmt 1 view .LVU478
 349:Drivers/lvgl/src/draw/lv_draw.c ****     while(t) {
 1480              		.loc 1 349 48 is_stmt 0 view .LVU479
 1481 002c 7CB1     		cbz	r4, .L133
 349:Drivers/lvgl/src/draw/lv_draw.c ****     while(t) {
 1482              		.loc 1 349 48 discriminator 1 view .LVU480
 1483 002e 2468     		ldr	r4, [r4]
 1484              	.LVL127:
 349:Drivers/lvgl/src/draw/lv_draw.c ****     while(t) {
 1485              		.loc 1 349 48 discriminator 1 view .LVU481
 1486 0030 16E0     		b	.L137
 1487              	.LVL128:
 1488              	.L141:
 1489              	.LBB28:
 342:Drivers/lvgl/src/draw/lv_draw.c ****            t->area.y1 <= 0 && t->area.y2 >= ver_res - 1) {
 1490              		.loc 1 342 38 view .LVU482
 1491 0032 1A69     		ldr	r2, [r3, #16]
 342:Drivers/lvgl/src/draw/lv_draw.c ****            t->area.y1 <= 0 && t->area.y2 >= ver_res - 1) {
 1492              		.loc 1 342 53 view .LVU483
 1493 0034 013F     		subs	r7, r7, #1
 1494              	.LVL129:
 342:Drivers/lvgl/src/draw/lv_draw.c ****            t->area.y1 <= 0 && t->area.y2 >= ver_res - 1) {
 1495              		.loc 1 342 28 view .LVU484
 1496 0036 BA42     		cmp	r2, r7
 1497 0038 F8DB     		blt	.L131
 343:Drivers/lvgl/src/draw/lv_draw.c ****             LV_PROFILER_DRAW_END;
 1498              		.loc 1 343 19 view .LVU485
 1499 003a DA68     		ldr	r2, [r3, #12]
 342:Drivers/lvgl/src/draw/lv_draw.c ****            t->area.y1 <= 0 && t->area.y2 >= ver_res - 1) {
 1500              		.loc 1 342 57 discriminator 1 view .LVU486
 1501 003c 002A     		cmp	r2, #0
 1502 003e F5DC     		bgt	.L131
 343:Drivers/lvgl/src/draw/lv_draw.c ****             LV_PROFILER_DRAW_END;
 1503              		.loc 1 343 38 view .LVU487
 1504 0040 5B69     		ldr	r3, [r3, #20]
 1505              	.LVL130:
 343:Drivers/lvgl/src/draw/lv_draw.c ****             LV_PROFILER_DRAW_END;
 1506              		.loc 1 343 53 view .LVU488
 1507 0042 0138     		subs	r0, r0, #1
 1508              	.LVL131:
 343:Drivers/lvgl/src/draw/lv_draw.c ****             LV_PROFILER_DRAW_END;
 1509              		.loc 1 343 28 view .LVU489
 1510 0044 8342     		cmp	r3, r0
 1511 0046 F1DB     		blt	.L131
 345:Drivers/lvgl/src/draw/lv_draw.c ****         }
 1512              		.loc 1 345 20 view .LVU490
 1513 0048 0024     		movs	r4, #0
 1514              	.LVL132:
 1515              	.L130:
 345:Drivers/lvgl/src/draw/lv_draw.c ****         }
 1516              		.loc 1 345 20 view .LVU491
 1517              	.LBE28:
 363:Drivers/lvgl/src/draw/lv_draw.c **** 
ARM GAS  /tmp/ccwC1Sr5.s 			page 47


 1518              		.loc 1 363 1 view .LVU492
 1519 004a 2046     		mov	r0, r4
 1520 004c F8BD     		pop	{r3, r4, r5, r6, r7, pc}
 1521              	.LVL133:
 1522              	.L133:
 349:Drivers/lvgl/src/draw/lv_draw.c ****     while(t) {
 1523              		.loc 1 349 48 discriminator 2 view .LVU493
 1524 004e 6C6C     		ldr	r4, [r5, #68]
 1525              	.LVL134:
 349:Drivers/lvgl/src/draw/lv_draw.c ****     while(t) {
 1526              		.loc 1 349 48 discriminator 2 view .LVU494
 1527 0050 06E0     		b	.L137
 1528              	.LVL135:
 1529              	.L136:
 354:Drivers/lvgl/src/draw/lv_draw.c ****             LV_PROFILER_DRAW_END;
 1530              		.loc 1 354 12 view .LVU495
 1531 0052 2146     		mov	r1, r4
 1532 0054 2846     		mov	r0, r5
 1533 0056 FFF7FEFF 		bl	is_independent
 1534              	.LVL136:
 353:Drivers/lvgl/src/draw/lv_draw.c ****            is_independent(layer, t)) {
 1535              		.loc 1 353 106 discriminator 1 view .LVU496
 1536 005a 0028     		cmp	r0, #0
 1537 005c F5D1     		bne	.L130
 1538              	.L135:
 358:Drivers/lvgl/src/draw/lv_draw.c ****     }
 1539              		.loc 1 358 9 is_stmt 1 view .LVU497
 358:Drivers/lvgl/src/draw/lv_draw.c ****     }
 1540              		.loc 1 358 11 is_stmt 0 view .LVU498
 1541 005e 2468     		ldr	r4, [r4]
 1542              	.LVL137:
 1543              	.L137:
 350:Drivers/lvgl/src/draw/lv_draw.c ****         /*Find a queued and independent task*/
 1544              		.loc 1 350 11 is_stmt 1 view .LVU499
 1545 0060 002C     		cmp	r4, #0
 1546 0062 F2D0     		beq	.L130
 352:Drivers/lvgl/src/draw/lv_draw.c ****            (t->preferred_draw_unit_id == LV_DRAW_UNIT_NONE || t->preferred_draw_unit_id == draw_uni
 1547              		.loc 1 352 9 view .LVU500
 352:Drivers/lvgl/src/draw/lv_draw.c ****            (t->preferred_draw_unit_id == LV_DRAW_UNIT_NONE || t->preferred_draw_unit_id == draw_uni
 1548              		.loc 1 352 13 is_stmt 0 view .LVU501
 1549 0064 236D     		ldr	r3, [r4, #80]
 352:Drivers/lvgl/src/draw/lv_draw.c ****            (t->preferred_draw_unit_id == LV_DRAW_UNIT_NONE || t->preferred_draw_unit_id == draw_uni
 1550              		.loc 1 352 11 view .LVU502
 1551 0066 012B     		cmp	r3, #1
 1552 0068 F9D1     		bne	.L135
 353:Drivers/lvgl/src/draw/lv_draw.c ****            is_independent(layer, t)) {
 1553              		.loc 1 353 14 view .LVU503
 1554 006a 94F85830 		ldrb	r3, [r4, #88]	@ zero_extendqisi2
 352:Drivers/lvgl/src/draw/lv_draw.c ****            (t->preferred_draw_unit_id == LV_DRAW_UNIT_NONE || t->preferred_draw_unit_id == draw_uni
 1555              		.loc 1 352 50 discriminator 1 view .LVU504
 1556 006e 002B     		cmp	r3, #0
 1557 0070 EFD0     		beq	.L136
 353:Drivers/lvgl/src/draw/lv_draw.c ****            is_independent(layer, t)) {
 1558              		.loc 1 353 60 view .LVU505
 1559 0072 B342     		cmp	r3, r6
 1560 0074 F3D1     		bne	.L135
 1561 0076 ECE7     		b	.L136
ARM GAS  /tmp/ccwC1Sr5.s 			page 48


 1562              		.cfi_endproc
 1563              	.LFE198:
 1565              		.section	.text.lv_draw_get_available_task,"ax",%progbits
 1566              		.align	1
 1567              		.global	lv_draw_get_available_task
 1568              		.syntax unified
 1569              		.thumb
 1570              		.thumb_func
 1572              	lv_draw_get_available_task:
 1573              	.LVL138:
 1574              	.LFB197:
 323:Drivers/lvgl/src/draw/lv_draw.c ****     if(_draw_info.unit_cnt == 1) {
 1575              		.loc 1 323 1 is_stmt 1 view -0
 1576              		.cfi_startproc
 1577              		@ args = 0, pretend = 0, frame = 0
 1578              		@ frame_needed = 0, uses_anonymous_args = 0
 323:Drivers/lvgl/src/draw/lv_draw.c ****     if(_draw_info.unit_cnt == 1) {
 1579              		.loc 1 323 1 is_stmt 0 view .LVU507
 1580 0000 08B5     		push	{r3, lr}
 1581              	.LCFI11:
 1582              		.cfi_def_cfa_offset 8
 1583              		.cfi_offset 3, -8
 1584              		.cfi_offset 14, -4
 324:Drivers/lvgl/src/draw/lv_draw.c ****         return get_first_available_task(layer);
 1585              		.loc 1 324 5 is_stmt 1 view .LVU508
 324:Drivers/lvgl/src/draw/lv_draw.c ****         return get_first_available_task(layer);
 1586              		.loc 1 324 18 is_stmt 0 view .LVU509
 1587 0002 054B     		ldr	r3, .L147
 1588 0004 D3F82831 		ldr	r3, [r3, #296]
 324:Drivers/lvgl/src/draw/lv_draw.c ****         return get_first_available_task(layer);
 1589              		.loc 1 324 7 view .LVU510
 1590 0008 012B     		cmp	r3, #1
 1591 000a 02D0     		beq	.L146
 328:Drivers/lvgl/src/draw/lv_draw.c ****     }
 1592              		.loc 1 328 9 is_stmt 1 view .LVU511
 328:Drivers/lvgl/src/draw/lv_draw.c ****     }
 1593              		.loc 1 328 16 is_stmt 0 view .LVU512
 1594 000c FFF7FEFF 		bl	lv_draw_get_next_available_task
 1595              	.LVL139:
 1596              	.L142:
 330:Drivers/lvgl/src/draw/lv_draw.c **** 
 1597              		.loc 1 330 1 view .LVU513
 1598 0010 08BD     		pop	{r3, pc}
 1599              	.LVL140:
 1600              	.L146:
 325:Drivers/lvgl/src/draw/lv_draw.c ****     }
 1601              		.loc 1 325 9 is_stmt 1 view .LVU514
 325:Drivers/lvgl/src/draw/lv_draw.c ****     }
 1602              		.loc 1 325 16 is_stmt 0 view .LVU515
 1603 0012 FFF7FEFF 		bl	get_first_available_task
 1604              	.LVL141:
 325:Drivers/lvgl/src/draw/lv_draw.c ****     }
 1605              		.loc 1 325 16 view .LVU516
 1606 0016 FBE7     		b	.L142
 1607              	.L148:
 1608              		.align	2
 1609              	.L147:
ARM GAS  /tmp/ccwC1Sr5.s 			page 49


 1610 0018 00000000 		.word	lv_global
 1611              		.cfi_endproc
 1612              	.LFE197:
 1614              		.section	.text.lv_draw_get_dependent_count,"ax",%progbits
 1615              		.align	1
 1616              		.global	lv_draw_get_dependent_count
 1617              		.syntax unified
 1618              		.thumb
 1619              		.thumb_func
 1621              	lv_draw_get_dependent_count:
 1622              	.LVL142:
 1623              	.LFB199:
 366:Drivers/lvgl/src/draw/lv_draw.c ****     if(t_check == NULL) return 0;
 1624              		.loc 1 366 1 is_stmt 1 view -0
 1625              		.cfi_startproc
 1626              		@ args = 0, pretend = 0, frame = 0
 1627              		@ frame_needed = 0, uses_anonymous_args = 0
 366:Drivers/lvgl/src/draw/lv_draw.c ****     if(t_check == NULL) return 0;
 1628              		.loc 1 366 1 is_stmt 0 view .LVU518
 1629 0000 70B5     		push	{r4, r5, r6, lr}
 1630              	.LCFI12:
 1631              		.cfi_def_cfa_offset 16
 1632              		.cfi_offset 4, -16
 1633              		.cfi_offset 5, -12
 1634              		.cfi_offset 6, -8
 1635              		.cfi_offset 14, -4
 367:Drivers/lvgl/src/draw/lv_draw.c ****     if(t_check->next == NULL) return 0;
 1636              		.loc 1 367 5 is_stmt 1 view .LVU519
 367:Drivers/lvgl/src/draw/lv_draw.c ****     if(t_check->next == NULL) return 0;
 1637              		.loc 1 367 7 is_stmt 0 view .LVU520
 1638 0002 B0B1     		cbz	r0, .L155
 1639 0004 0646     		mov	r6, r0
 368:Drivers/lvgl/src/draw/lv_draw.c **** 
 1640              		.loc 1 368 5 is_stmt 1 view .LVU521
 368:Drivers/lvgl/src/draw/lv_draw.c **** 
 1641              		.loc 1 368 15 is_stmt 0 view .LVU522
 1642 0006 0468     		ldr	r4, [r0]
 368:Drivers/lvgl/src/draw/lv_draw.c **** 
 1643              		.loc 1 368 7 view .LVU523
 1644 0008 B4B1     		cbz	r4, .L156
 371:Drivers/lvgl/src/draw/lv_draw.c **** 
 1645              		.loc 1 371 14 view .LVU524
 1646 000a 0025     		movs	r5, #0
 1647 000c 00E0     		b	.L151
 1648              	.LVL143:
 1649              	.L153:
 380:Drivers/lvgl/src/draw/lv_draw.c ****     }
 1650              		.loc 1 380 9 is_stmt 1 view .LVU525
 380:Drivers/lvgl/src/draw/lv_draw.c ****     }
 1651              		.loc 1 380 11 is_stmt 0 view .LVU526
 1652 000e 2468     		ldr	r4, [r4]
 1653              	.LVL144:
 1654              	.L151:
 374:Drivers/lvgl/src/draw/lv_draw.c ****         if((t->state == LV_DRAW_TASK_STATE_QUEUED || t->state == LV_DRAW_TASK_STATE_WAITING) &&
 1655              		.loc 1 374 11 is_stmt 1 view .LVU527
 1656 0010 84B1     		cbz	r4, .L149
 375:Drivers/lvgl/src/draw/lv_draw.c ****            lv_area_is_on(&t_check->area, &t->area)) {
ARM GAS  /tmp/ccwC1Sr5.s 			page 50


 1657              		.loc 1 375 9 view .LVU528
 375:Drivers/lvgl/src/draw/lv_draw.c ****            lv_area_is_on(&t_check->area, &t->area)) {
 1658              		.loc 1 375 14 is_stmt 0 view .LVU529
 1659 0012 236D     		ldr	r3, [r4, #80]
 375:Drivers/lvgl/src/draw/lv_draw.c ****            lv_area_is_on(&t_check->area, &t->area)) {
 1660              		.loc 1 375 11 view .LVU530
 1661 0014 012B     		cmp	r3, #1
 1662 0016 02D0     		beq	.L152
 375:Drivers/lvgl/src/draw/lv_draw.c ****            lv_area_is_on(&t_check->area, &t->area)) {
 1663              		.loc 1 375 55 discriminator 2 view .LVU531
 1664 0018 236D     		ldr	r3, [r4, #80]
 375:Drivers/lvgl/src/draw/lv_draw.c ****            lv_area_is_on(&t_check->area, &t->area)) {
 1665              		.loc 1 375 51 discriminator 2 view .LVU532
 1666 001a 002B     		cmp	r3, #0
 1667 001c F7D1     		bne	.L153
 1668              	.L152:
 376:Drivers/lvgl/src/draw/lv_draw.c ****             cnt++;
 1669              		.loc 1 376 12 view .LVU533
 1670 001e 04F10801 		add	r1, r4, #8
 1671 0022 06F10800 		add	r0, r6, #8
 1672 0026 FFF7FEFF 		bl	lv_area_is_on
 1673              	.LVL145:
 375:Drivers/lvgl/src/draw/lv_draw.c ****            lv_area_is_on(&t_check->area, &t->area)) {
 1674              		.loc 1 375 94 discriminator 3 view .LVU534
 1675 002a 0028     		cmp	r0, #0
 1676 002c EFD0     		beq	.L153
 377:Drivers/lvgl/src/draw/lv_draw.c ****         }
 1677              		.loc 1 377 13 is_stmt 1 view .LVU535
 377:Drivers/lvgl/src/draw/lv_draw.c ****         }
 1678              		.loc 1 377 16 is_stmt 0 view .LVU536
 1679 002e 0135     		adds	r5, r5, #1
 1680              	.LVL146:
 377:Drivers/lvgl/src/draw/lv_draw.c ****         }
 1681              		.loc 1 377 16 view .LVU537
 1682 0030 EDE7     		b	.L153
 1683              	.LVL147:
 1684              	.L155:
 367:Drivers/lvgl/src/draw/lv_draw.c ****     if(t_check->next == NULL) return 0;
 1685              		.loc 1 367 32 discriminator 1 view .LVU538
 1686 0032 0025     		movs	r5, #0
 1687              	.LVL148:
 1688              	.L149:
 384:Drivers/lvgl/src/draw/lv_draw.c **** 
 1689              		.loc 1 384 1 view .LVU539
 1690 0034 2846     		mov	r0, r5
 1691 0036 70BD     		pop	{r4, r5, r6, pc}
 1692              	.LVL149:
 1693              	.L156:
 368:Drivers/lvgl/src/draw/lv_draw.c **** 
 1694              		.loc 1 368 38 discriminator 1 view .LVU540
 1695 0038 0025     		movs	r5, #0
 1696 003a FBE7     		b	.L149
 1697              		.cfi_endproc
 1698              	.LFE199:
 1700              		.section	.text.lv_layer_reset,"ax",%progbits
 1701              		.align	1
 1702              		.global	lv_layer_reset
ARM GAS  /tmp/ccwC1Sr5.s 			page 51


 1703              		.syntax unified
 1704              		.thumb
 1705              		.thumb_func
 1707              	lv_layer_reset:
 1708              	.LVL150:
 1709              	.LFB201:
 394:Drivers/lvgl/src/draw/lv_draw.c ****     LV_ASSERT_NULL(layer);
 1710              		.loc 1 394 1 is_stmt 1 view -0
 1711              		.cfi_startproc
 1712              		@ args = 0, pretend = 0, frame = 0
 1713              		@ frame_needed = 0, uses_anonymous_args = 0
 395:Drivers/lvgl/src/draw/lv_draw.c **** #if LV_DRAW_TRANSFORM_USE_MATRIX
 1714              		.loc 1 395 5 view .LVU542
 395:Drivers/lvgl/src/draw/lv_draw.c **** #if LV_DRAW_TRANSFORM_USE_MATRIX
 1715              		.loc 1 395 5 view .LVU543
 1716 0000 C8B1     		cbz	r0, .L160
 394:Drivers/lvgl/src/draw/lv_draw.c ****     LV_ASSERT_NULL(layer);
 1717              		.loc 1 394 1 is_stmt 0 view .LVU544
 1718 0002 10B5     		push	{r4, lr}
 1719              	.LCFI13:
 1720              		.cfi_def_cfa_offset 8
 1721              		.cfi_offset 4, -8
 1722              		.cfi_offset 14, -4
 1723 0004 0446     		mov	r4, r0
 395:Drivers/lvgl/src/draw/lv_draw.c **** #if LV_DRAW_TRANSFORM_USE_MATRIX
 1724              		.loc 1 395 5 is_stmt 1 discriminator 2 view .LVU545
 395:Drivers/lvgl/src/draw/lv_draw.c **** #if LV_DRAW_TRANSFORM_USE_MATRIX
 1725              		.loc 1 395 26 discriminator 2 view .LVU546
 399:Drivers/lvgl/src/draw/lv_draw.c ****     layer->recolor = lv_color32_make(0, 0, 0, 0);
 1726              		.loc 1 399 5 view .LVU547
 399:Drivers/lvgl/src/draw/lv_draw.c ****     layer->recolor = lv_color32_make(0, 0, 0, 0);
 1727              		.loc 1 399 16 is_stmt 0 view .LVU548
 1728 0006 FF23     		movs	r3, #255
 1729 0008 80F83830 		strb	r3, [r0, #56]
 400:Drivers/lvgl/src/draw/lv_draw.c **** }
 1730              		.loc 1 400 5 is_stmt 1 view .LVU549
 400:Drivers/lvgl/src/draw/lv_draw.c **** }
 1731              		.loc 1 400 22 is_stmt 0 view .LVU550
 1732 000c 0023     		movs	r3, #0
 1733 000e 1A46     		mov	r2, r3
 1734 0010 1946     		mov	r1, r3
 1735 0012 1846     		mov	r0, r3
 1736              	.LVL151:
 400:Drivers/lvgl/src/draw/lv_draw.c **** }
 1737              		.loc 1 400 22 view .LVU551
 1738 0014 FFF7FEFF 		bl	lv_color32_make
 1739              	.LVL152:
 1740 0018 84F83900 		strb	r0, [r4, #57]
 1741 001c C0F30723 		ubfx	r3, r0, #8, #8
 1742 0020 84F83A30 		strb	r3, [r4, #58]
 1743 0024 C0F30743 		ubfx	r3, r0, #16, #8
 1744 0028 84F83B30 		strb	r3, [r4, #59]
 1745 002c C0F30760 		ubfx	r0, r0, #24, #8
 1746 0030 84F83C00 		strb	r0, [r4, #60]
 401:Drivers/lvgl/src/draw/lv_draw.c **** 
 1747              		.loc 1 401 1 view .LVU552
 1748 0034 10BD     		pop	{r4, pc}
ARM GAS  /tmp/ccwC1Sr5.s 			page 52


 1749              	.LVL153:
 1750              	.L160:
 1751              	.LCFI14:
 1752              		.cfi_def_cfa_offset 0
 1753              		.cfi_restore 4
 1754              		.cfi_restore 14
 395:Drivers/lvgl/src/draw/lv_draw.c **** #if LV_DRAW_TRANSFORM_USE_MATRIX
 1755              		.loc 1 395 5 is_stmt 1 discriminator 1 view .LVU553
 395:Drivers/lvgl/src/draw/lv_draw.c **** #if LV_DRAW_TRANSFORM_USE_MATRIX
 1756              		.loc 1 395 5 discriminator 1 view .LVU554
 395:Drivers/lvgl/src/draw/lv_draw.c **** #if LV_DRAW_TRANSFORM_USE_MATRIX
 1757              		.loc 1 395 5 discriminator 1 view .LVU555
 395:Drivers/lvgl/src/draw/lv_draw.c **** #if LV_DRAW_TRANSFORM_USE_MATRIX
 1758              		.loc 1 395 5 discriminator 1 view .LVU556
 395:Drivers/lvgl/src/draw/lv_draw.c **** #if LV_DRAW_TRANSFORM_USE_MATRIX
 1759              		.loc 1 395 5 discriminator 1 view .LVU557
 1760 0036 FEE7     		b	.L160
 1761              		.cfi_endproc
 1762              	.LFE201:
 1764              		.section	.text.lv_layer_init,"ax",%progbits
 1765              		.align	1
 1766              		.global	lv_layer_init
 1767              		.syntax unified
 1768              		.thumb
 1769              		.thumb_func
 1771              	lv_layer_init:
 1772              	.LVL154:
 1773              	.LFB200:
 387:Drivers/lvgl/src/draw/lv_draw.c ****     LV_ASSERT_NULL(layer);
 1774              		.loc 1 387 1 view -0
 1775              		.cfi_startproc
 1776              		@ args = 0, pretend = 0, frame = 0
 1777              		@ frame_needed = 0, uses_anonymous_args = 0
 388:Drivers/lvgl/src/draw/lv_draw.c ****     lv_memzero(layer, sizeof(lv_layer_t));
 1778              		.loc 1 388 5 view .LVU559
 388:Drivers/lvgl/src/draw/lv_draw.c ****     lv_memzero(layer, sizeof(lv_layer_t));
 1779              		.loc 1 388 5 view .LVU560
 1780 0000 48B1     		cbz	r0, .L165
 387:Drivers/lvgl/src/draw/lv_draw.c ****     LV_ASSERT_NULL(layer);
 1781              		.loc 1 387 1 is_stmt 0 view .LVU561
 1782 0002 10B5     		push	{r4, lr}
 1783              	.LCFI15:
 1784              		.cfi_def_cfa_offset 8
 1785              		.cfi_offset 4, -8
 1786              		.cfi_offset 14, -4
 1787 0004 0446     		mov	r4, r0
 388:Drivers/lvgl/src/draw/lv_draw.c ****     lv_memzero(layer, sizeof(lv_layer_t));
 1788              		.loc 1 388 5 is_stmt 1 discriminator 2 view .LVU562
 388:Drivers/lvgl/src/draw/lv_draw.c ****     lv_memzero(layer, sizeof(lv_layer_t));
 1789              		.loc 1 388 26 discriminator 2 view .LVU563
 389:Drivers/lvgl/src/draw/lv_draw.c ****     lv_layer_reset(layer);
 1790              		.loc 1 389 5 view .LVU564
 1791              	.LVL155:
 1792              	.LBB29:
 1793              	.LBI29:
 1794              		.file 2 "Drivers/lvgl/src/draw/../misc/../stdlib/lv_string.h"
   1:Drivers/lvgl/src/draw/../misc/../stdlib/lv_string.h **** /**
ARM GAS  /tmp/ccwC1Sr5.s 			page 53


   2:Drivers/lvgl/src/draw/../misc/../stdlib/lv_string.h ****  * @file lv_string.h
   3:Drivers/lvgl/src/draw/../misc/../stdlib/lv_string.h ****  *
   4:Drivers/lvgl/src/draw/../misc/../stdlib/lv_string.h ****  */
   5:Drivers/lvgl/src/draw/../misc/../stdlib/lv_string.h **** 
   6:Drivers/lvgl/src/draw/../misc/../stdlib/lv_string.h **** #ifndef LV_STRING_H
   7:Drivers/lvgl/src/draw/../misc/../stdlib/lv_string.h **** #define LV_STRING_H
   8:Drivers/lvgl/src/draw/../misc/../stdlib/lv_string.h **** 
   9:Drivers/lvgl/src/draw/../misc/../stdlib/lv_string.h **** #ifdef __cplusplus
  10:Drivers/lvgl/src/draw/../misc/../stdlib/lv_string.h **** extern "C" {
  11:Drivers/lvgl/src/draw/../misc/../stdlib/lv_string.h **** #endif
  12:Drivers/lvgl/src/draw/../misc/../stdlib/lv_string.h **** 
  13:Drivers/lvgl/src/draw/../misc/../stdlib/lv_string.h **** /*********************
  14:Drivers/lvgl/src/draw/../misc/../stdlib/lv_string.h ****  *      INCLUDES
  15:Drivers/lvgl/src/draw/../misc/../stdlib/lv_string.h ****  *********************/
  16:Drivers/lvgl/src/draw/../misc/../stdlib/lv_string.h **** #include "../lv_conf_internal.h"
  17:Drivers/lvgl/src/draw/../misc/../stdlib/lv_string.h **** #include "../misc/lv_types.h"
  18:Drivers/lvgl/src/draw/../misc/../stdlib/lv_string.h **** 
  19:Drivers/lvgl/src/draw/../misc/../stdlib/lv_string.h **** /*********************
  20:Drivers/lvgl/src/draw/../misc/../stdlib/lv_string.h ****  *      DEFINES
  21:Drivers/lvgl/src/draw/../misc/../stdlib/lv_string.h ****  *********************/
  22:Drivers/lvgl/src/draw/../misc/../stdlib/lv_string.h **** 
  23:Drivers/lvgl/src/draw/../misc/../stdlib/lv_string.h **** /**********************
  24:Drivers/lvgl/src/draw/../misc/../stdlib/lv_string.h ****  *      TYPEDEFS
  25:Drivers/lvgl/src/draw/../misc/../stdlib/lv_string.h ****  **********************/
  26:Drivers/lvgl/src/draw/../misc/../stdlib/lv_string.h **** 
  27:Drivers/lvgl/src/draw/../misc/../stdlib/lv_string.h **** /**********************
  28:Drivers/lvgl/src/draw/../misc/../stdlib/lv_string.h ****  * GLOBAL PROTOTYPES
  29:Drivers/lvgl/src/draw/../misc/../stdlib/lv_string.h ****  **********************/
  30:Drivers/lvgl/src/draw/../misc/../stdlib/lv_string.h **** 
  31:Drivers/lvgl/src/draw/../misc/../stdlib/lv_string.h **** /**
  32:Drivers/lvgl/src/draw/../misc/../stdlib/lv_string.h ****  * @brief Copies a block of memory from a source address to a destination address.
  33:Drivers/lvgl/src/draw/../misc/../stdlib/lv_string.h ****  * @param dst Pointer to the destination array where the content is to be copied.
  34:Drivers/lvgl/src/draw/../misc/../stdlib/lv_string.h ****  * @param src Pointer to the source of data to be copied.
  35:Drivers/lvgl/src/draw/../misc/../stdlib/lv_string.h ****  * @param len Number of bytes to copy.
  36:Drivers/lvgl/src/draw/../misc/../stdlib/lv_string.h ****  * @return Pointer to the destination array.
  37:Drivers/lvgl/src/draw/../misc/../stdlib/lv_string.h ****  * @note The function does not check for any overlapping of the source and destination memory block
  38:Drivers/lvgl/src/draw/../misc/../stdlib/lv_string.h ****  */
  39:Drivers/lvgl/src/draw/../misc/../stdlib/lv_string.h **** void * lv_memcpy(void * dst, const void * src, size_t len);
  40:Drivers/lvgl/src/draw/../misc/../stdlib/lv_string.h **** 
  41:Drivers/lvgl/src/draw/../misc/../stdlib/lv_string.h **** /**
  42:Drivers/lvgl/src/draw/../misc/../stdlib/lv_string.h ****  * @brief Fills a block of memory with a specified value.
  43:Drivers/lvgl/src/draw/../misc/../stdlib/lv_string.h ****  * @param dst Pointer to the destination array to fill with the specified value.
  44:Drivers/lvgl/src/draw/../misc/../stdlib/lv_string.h ****  * @param v Value to be set. The value is passed as an int, but the function fills
  45:Drivers/lvgl/src/draw/../misc/../stdlib/lv_string.h ****  *          the block of memory using the unsigned char conversion of this value.
  46:Drivers/lvgl/src/draw/../misc/../stdlib/lv_string.h ****  * @param len Number of bytes to be set to the value.
  47:Drivers/lvgl/src/draw/../misc/../stdlib/lv_string.h ****  */
  48:Drivers/lvgl/src/draw/../misc/../stdlib/lv_string.h **** void lv_memset(void * dst, uint8_t v, size_t len);
  49:Drivers/lvgl/src/draw/../misc/../stdlib/lv_string.h **** 
  50:Drivers/lvgl/src/draw/../misc/../stdlib/lv_string.h **** /**
  51:Drivers/lvgl/src/draw/../misc/../stdlib/lv_string.h ****  * @brief Move a block of memory from source to destination
  52:Drivers/lvgl/src/draw/../misc/../stdlib/lv_string.h ****  * @param dst Pointer to the destination array where the content is to be copied.
  53:Drivers/lvgl/src/draw/../misc/../stdlib/lv_string.h ****  * @param src Pointer to the source of data to be copied.
  54:Drivers/lvgl/src/draw/../misc/../stdlib/lv_string.h ****  * @param len Number of bytes to copy
  55:Drivers/lvgl/src/draw/../misc/../stdlib/lv_string.h ****  * @return Pointer to the destination array.
  56:Drivers/lvgl/src/draw/../misc/../stdlib/lv_string.h ****  */
  57:Drivers/lvgl/src/draw/../misc/../stdlib/lv_string.h **** void * lv_memmove(void * dst, const void * src, size_t len);
  58:Drivers/lvgl/src/draw/../misc/../stdlib/lv_string.h **** 
ARM GAS  /tmp/ccwC1Sr5.s 			page 54


  59:Drivers/lvgl/src/draw/../misc/../stdlib/lv_string.h **** /**
  60:Drivers/lvgl/src/draw/../misc/../stdlib/lv_string.h ****  * @brief This function will compare two memory blocks
  61:Drivers/lvgl/src/draw/../misc/../stdlib/lv_string.h ****  * @param p1 Pointer to the first memory block
  62:Drivers/lvgl/src/draw/../misc/../stdlib/lv_string.h ****  * @param p2 Pointer to the second memory block
  63:Drivers/lvgl/src/draw/../misc/../stdlib/lv_string.h ****  * @param len Number of bytes to compare
  64:Drivers/lvgl/src/draw/../misc/../stdlib/lv_string.h ****  * @return The difference between the value of the first unmatching byte.
  65:Drivers/lvgl/src/draw/../misc/../stdlib/lv_string.h ****  */
  66:Drivers/lvgl/src/draw/../misc/../stdlib/lv_string.h **** int lv_memcmp(const void * p1, const void * p2, size_t len);
  67:Drivers/lvgl/src/draw/../misc/../stdlib/lv_string.h **** 
  68:Drivers/lvgl/src/draw/../misc/../stdlib/lv_string.h **** /**
  69:Drivers/lvgl/src/draw/../misc/../stdlib/lv_string.h ****  * Same as `memset(dst, 0x00, len)`.
  70:Drivers/lvgl/src/draw/../misc/../stdlib/lv_string.h ****  * @param dst pointer to the destination buffer
  71:Drivers/lvgl/src/draw/../misc/../stdlib/lv_string.h ****  * @param len number of byte to set
  72:Drivers/lvgl/src/draw/../misc/../stdlib/lv_string.h ****  */
  73:Drivers/lvgl/src/draw/../misc/../stdlib/lv_string.h **** static inline void lv_memzero(void * dst, size_t len)
 1795              		.loc 2 73 20 view .LVU565
 1796              	.LBB30:
  74:Drivers/lvgl/src/draw/../misc/../stdlib/lv_string.h **** {
  75:Drivers/lvgl/src/draw/../misc/../stdlib/lv_string.h ****     lv_memset(dst, 0x00, len);
 1797              		.loc 2 75 5 view .LVU566
 1798 0006 5822     		movs	r2, #88
 1799 0008 0021     		movs	r1, #0
 1800 000a FFF7FEFF 		bl	lv_memset
 1801              	.LVL156:
 1802              		.loc 2 75 5 is_stmt 0 view .LVU567
 1803              	.LBE30:
 1804              	.LBE29:
 390:Drivers/lvgl/src/draw/lv_draw.c **** }
 1805              		.loc 1 390 5 is_stmt 1 view .LVU568
 1806 000e 2046     		mov	r0, r4
 1807 0010 FFF7FEFF 		bl	lv_layer_reset
 1808              	.LVL157:
 391:Drivers/lvgl/src/draw/lv_draw.c **** 
 1809              		.loc 1 391 1 is_stmt 0 view .LVU569
 1810 0014 10BD     		pop	{r4, pc}
 1811              	.LVL158:
 1812              	.L165:
 1813              	.LCFI16:
 1814              		.cfi_def_cfa_offset 0
 1815              		.cfi_restore 4
 1816              		.cfi_restore 14
 388:Drivers/lvgl/src/draw/lv_draw.c ****     lv_memzero(layer, sizeof(lv_layer_t));
 1817              		.loc 1 388 5 is_stmt 1 discriminator 1 view .LVU570
 388:Drivers/lvgl/src/draw/lv_draw.c ****     lv_memzero(layer, sizeof(lv_layer_t));
 1818              		.loc 1 388 5 discriminator 1 view .LVU571
 388:Drivers/lvgl/src/draw/lv_draw.c ****     lv_memzero(layer, sizeof(lv_layer_t));
 1819              		.loc 1 388 5 discriminator 1 view .LVU572
 388:Drivers/lvgl/src/draw/lv_draw.c ****     lv_memzero(layer, sizeof(lv_layer_t));
 1820              		.loc 1 388 5 discriminator 1 view .LVU573
 388:Drivers/lvgl/src/draw/lv_draw.c ****     lv_memzero(layer, sizeof(lv_layer_t));
 1821              		.loc 1 388 5 discriminator 1 view .LVU574
 1822 0016 FEE7     		b	.L165
 1823              		.cfi_endproc
 1824              	.LFE200:
 1826              		.section	.text.lv_draw_layer_init,"ax",%progbits
 1827              		.align	1
 1828              		.global	lv_draw_layer_init
ARM GAS  /tmp/ccwC1Sr5.s 			page 55


 1829              		.syntax unified
 1830              		.thumb
 1831              		.thumb_func
 1833              	lv_draw_layer_init:
 1834              	.LVL159:
 1835              	.LFB203:
 427:Drivers/lvgl/src/draw/lv_draw.c ****     LV_PROFILER_DRAW_BEGIN;
 1836              		.loc 1 427 1 view -0
 1837              		.cfi_startproc
 1838              		@ args = 0, pretend = 0, frame = 0
 1839              		@ frame_needed = 0, uses_anonymous_args = 0
 427:Drivers/lvgl/src/draw/lv_draw.c ****     LV_PROFILER_DRAW_BEGIN;
 1840              		.loc 1 427 1 is_stmt 0 view .LVU576
 1841 0000 2DE9F041 		push	{r4, r5, r6, r7, r8, lr}
 1842              	.LCFI17:
 1843              		.cfi_def_cfa_offset 24
 1844              		.cfi_offset 4, -24
 1845              		.cfi_offset 5, -20
 1846              		.cfi_offset 6, -16
 1847              		.cfi_offset 7, -12
 1848              		.cfi_offset 8, -8
 1849              		.cfi_offset 14, -4
 1850 0004 0546     		mov	r5, r0
 1851 0006 8846     		mov	r8, r1
 1852 0008 1746     		mov	r7, r2
 1853 000a 1C46     		mov	r4, r3
 428:Drivers/lvgl/src/draw/lv_draw.c ****     lv_layer_init(layer);
 1854              		.loc 1 428 27 is_stmt 1 view .LVU577
 429:Drivers/lvgl/src/draw/lv_draw.c ****     lv_display_t * disp = lv_refr_get_disp_refreshing();
 1855              		.loc 1 429 5 view .LVU578
 1856 000c FFF7FEFF 		bl	lv_layer_init
 1857              	.LVL160:
 430:Drivers/lvgl/src/draw/lv_draw.c **** 
 1858              		.loc 1 430 5 view .LVU579
 430:Drivers/lvgl/src/draw/lv_draw.c **** 
 1859              		.loc 1 430 27 is_stmt 0 view .LVU580
 1860 0010 FFF7FEFF 		bl	lv_refr_get_disp_refreshing
 1861              	.LVL161:
 1862 0014 0646     		mov	r6, r0
 1863              	.LVL162:
 432:Drivers/lvgl/src/draw/lv_draw.c ****     layer->_clip_area = *area;
 1864              		.loc 1 432 5 is_stmt 1 view .LVU581
 432:Drivers/lvgl/src/draw/lv_draw.c ****     layer->_clip_area = *area;
 1865              		.loc 1 432 19 is_stmt 0 view .LVU582
 1866 0016 C5F84880 		str	r8, [r5, #72]
 433:Drivers/lvgl/src/draw/lv_draw.c ****     layer->buf_area = *area;
 1867              		.loc 1 433 5 is_stmt 1 view .LVU583
 433:Drivers/lvgl/src/draw/lv_draw.c ****     layer->buf_area = *area;
 1868              		.loc 1 433 23 is_stmt 0 view .LVU584
 1869 001a 05F1180C 		add	ip, r5, #24
 1870 001e 94E80F00 		ldm	r4, {r0, r1, r2, r3}
 1871              	.LVL163:
 433:Drivers/lvgl/src/draw/lv_draw.c ****     layer->buf_area = *area;
 1872              		.loc 1 433 23 view .LVU585
 1873 0022 8CE80F00 		stm	ip, {r0, r1, r2, r3}
 434:Drivers/lvgl/src/draw/lv_draw.c ****     layer->phy_clip_area = *area;
 1874              		.loc 1 434 5 is_stmt 1 view .LVU586
ARM GAS  /tmp/ccwC1Sr5.s 			page 56


 434:Drivers/lvgl/src/draw/lv_draw.c ****     layer->phy_clip_area = *area;
 1875              		.loc 1 434 21 is_stmt 0 view .LVU587
 1876 0026 05F1040C 		add	ip, r5, #4
 1877 002a 94E80F00 		ldm	r4, {r0, r1, r2, r3}
 1878 002e 8CE80F00 		stm	ip, {r0, r1, r2, r3}
 435:Drivers/lvgl/src/draw/lv_draw.c ****     layer->color_format = color_format;
 1879              		.loc 1 435 5 is_stmt 1 view .LVU588
 435:Drivers/lvgl/src/draw/lv_draw.c ****     layer->color_format = color_format;
 1880              		.loc 1 435 26 is_stmt 0 view .LVU589
 1881 0032 05F1280C 		add	ip, r5, #40
 1882 0036 94E80F00 		ldm	r4, {r0, r1, r2, r3}
 1883 003a 8CE80F00 		stm	ip, {r0, r1, r2, r3}
 436:Drivers/lvgl/src/draw/lv_draw.c **** 
 1884              		.loc 1 436 5 is_stmt 1 view .LVU590
 436:Drivers/lvgl/src/draw/lv_draw.c **** 
 1885              		.loc 1 436 25 is_stmt 0 view .LVU591
 1886 003e 2F75     		strb	r7, [r5, #20]
 438:Drivers/lvgl/src/draw/lv_draw.c **** 
 1887              		.loc 1 438 5 is_stmt 1 view .LVU592
 438:Drivers/lvgl/src/draw/lv_draw.c **** 
 1888              		.loc 1 438 12 is_stmt 0 view .LVU593
 1889 0040 D6F8B032 		ldr	r3, [r6, #688]
 438:Drivers/lvgl/src/draw/lv_draw.c **** 
 1890              		.loc 1 438 7 view .LVU594
 1891 0044 13B1     		cbz	r3, .L169
 438:Drivers/lvgl/src/draw/lv_draw.c **** 
 1892              		.loc 1 438 26 is_stmt 1 discriminator 1 view .LVU595
 1893 0046 2946     		mov	r1, r5
 1894 0048 3046     		mov	r0, r6
 1895 004a 9847     		blx	r3
 1896              	.LVL164:
 1897              	.L169:
 440:Drivers/lvgl/src/draw/lv_draw.c ****         lv_layer_t * tail = disp->layer_head;
 1898              		.loc 1 440 5 view .LVU596
 440:Drivers/lvgl/src/draw/lv_draw.c ****         lv_layer_t * tail = disp->layer_head;
 1899              		.loc 1 440 12 is_stmt 0 view .LVU597
 1900 004c D6F8AC32 		ldr	r3, [r6, #684]
 440:Drivers/lvgl/src/draw/lv_draw.c ****         lv_layer_t * tail = disp->layer_head;
 1901              		.loc 1 440 7 view .LVU598
 1902 0050 33B1     		cbz	r3, .L170
 1903              	.L171:
 1904              	.LVL165:
 1905              	.LBB31:
 442:Drivers/lvgl/src/draw/lv_draw.c ****         tail->next = layer;
 1906              		.loc 1 442 15 is_stmt 1 discriminator 1 view .LVU599
 1907 0052 1A46     		mov	r2, r3
 442:Drivers/lvgl/src/draw/lv_draw.c ****         tail->next = layer;
 1908              		.loc 1 442 19 is_stmt 0 discriminator 1 view .LVU600
 1909 0054 DB6C     		ldr	r3, [r3, #76]
 1910              	.LVL166:
 442:Drivers/lvgl/src/draw/lv_draw.c ****         tail->next = layer;
 1911              		.loc 1 442 15 discriminator 1 view .LVU601
 1912 0056 002B     		cmp	r3, #0
 1913 0058 FBD1     		bne	.L171
 443:Drivers/lvgl/src/draw/lv_draw.c ****     }
 1914              		.loc 1 443 9 is_stmt 1 view .LVU602
 443:Drivers/lvgl/src/draw/lv_draw.c ****     }
ARM GAS  /tmp/ccwC1Sr5.s 			page 57


 1915              		.loc 1 443 20 is_stmt 0 view .LVU603
 1916 005a D564     		str	r5, [r2, #76]
 1917              	.LVL167:
 1918              	.L168:
 443:Drivers/lvgl/src/draw/lv_draw.c ****     }
 1919              		.loc 1 443 20 view .LVU604
 1920              	.LBE31:
 450:Drivers/lvgl/src/draw/lv_draw.c **** 
 1921              		.loc 1 450 1 view .LVU605
 1922 005c BDE8F081 		pop	{r4, r5, r6, r7, r8, pc}
 1923              	.LVL168:
 1924              	.L170:
 446:Drivers/lvgl/src/draw/lv_draw.c ****     }
 1925              		.loc 1 446 9 is_stmt 1 view .LVU606
 446:Drivers/lvgl/src/draw/lv_draw.c ****     }
 1926              		.loc 1 446 26 is_stmt 0 view .LVU607
 1927 0060 C6F8AC52 		str	r5, [r6, #684]
 449:Drivers/lvgl/src/draw/lv_draw.c **** }
 1928              		.loc 1 449 25 is_stmt 1 view .LVU608
 450:Drivers/lvgl/src/draw/lv_draw.c **** 
 1929              		.loc 1 450 1 is_stmt 0 view .LVU609
 1930 0064 FAE7     		b	.L168
 1931              		.cfi_endproc
 1932              	.LFE203:
 1934              		.section	.text.lv_draw_layer_create,"ax",%progbits
 1935              		.align	1
 1936              		.global	lv_draw_layer_create
 1937              		.syntax unified
 1938              		.thumb
 1939              		.thumb_func
 1941              	lv_draw_layer_create:
 1942              	.LVL169:
 1943              	.LFB202:
 404:Drivers/lvgl/src/draw/lv_draw.c ****     LV_PROFILER_DRAW_BEGIN;
 1944              		.loc 1 404 1 is_stmt 1 view -0
 1945              		.cfi_startproc
 1946              		@ args = 0, pretend = 0, frame = 0
 1947              		@ frame_needed = 0, uses_anonymous_args = 0
 404:Drivers/lvgl/src/draw/lv_draw.c ****     LV_PROFILER_DRAW_BEGIN;
 1948              		.loc 1 404 1 is_stmt 0 view .LVU611
 1949 0000 F8B5     		push	{r3, r4, r5, r6, r7, lr}
 1950              	.LCFI18:
 1951              		.cfi_def_cfa_offset 24
 1952              		.cfi_offset 3, -24
 1953              		.cfi_offset 4, -20
 1954              		.cfi_offset 5, -16
 1955              		.cfi_offset 6, -12
 1956              		.cfi_offset 7, -8
 1957              		.cfi_offset 14, -4
 1958 0002 0446     		mov	r4, r0
 1959 0004 0D46     		mov	r5, r1
 1960 0006 1646     		mov	r6, r2
 405:Drivers/lvgl/src/draw/lv_draw.c ****     lv_layer_t * new_layer = lv_malloc_zeroed(sizeof(lv_layer_t));
 1961              		.loc 1 405 27 is_stmt 1 view .LVU612
 406:Drivers/lvgl/src/draw/lv_draw.c ****     LV_ASSERT_MALLOC(new_layer);
 1962              		.loc 1 406 5 view .LVU613
 406:Drivers/lvgl/src/draw/lv_draw.c ****     LV_ASSERT_MALLOC(new_layer);
ARM GAS  /tmp/ccwC1Sr5.s 			page 58


 1963              		.loc 1 406 30 is_stmt 0 view .LVU614
 1964 0008 5820     		movs	r0, #88
 1965              	.LVL170:
 406:Drivers/lvgl/src/draw/lv_draw.c ****     LV_ASSERT_MALLOC(new_layer);
 1966              		.loc 1 406 30 view .LVU615
 1967 000a FFF7FEFF 		bl	lv_malloc_zeroed
 1968              	.LVL171:
 407:Drivers/lvgl/src/draw/lv_draw.c ****     if(new_layer == NULL) {
 1969              		.loc 1 407 5 is_stmt 1 view .LVU616
 407:Drivers/lvgl/src/draw/lv_draw.c ****     if(new_layer == NULL) {
 1970              		.loc 1 407 5 view .LVU617
 1971 000e 80B1     		cbz	r0, .L176
 1972 0010 0746     		mov	r7, r0
 407:Drivers/lvgl/src/draw/lv_draw.c ****     if(new_layer == NULL) {
 1973              		.loc 1 407 5 discriminator 2 view .LVU618
 407:Drivers/lvgl/src/draw/lv_draw.c ****     if(new_layer == NULL) {
 1974              		.loc 1 407 32 discriminator 2 view .LVU619
 408:Drivers/lvgl/src/draw/lv_draw.c ****         LV_PROFILER_DRAW_END;
 1975              		.loc 1 408 5 view .LVU620
 413:Drivers/lvgl/src/draw/lv_draw.c **** 
 1976              		.loc 1 413 5 view .LVU621
 1977 0012 3346     		mov	r3, r6
 1978 0014 2A46     		mov	r2, r5
 1979 0016 2146     		mov	r1, r4
 1980 0018 FFF7FEFF 		bl	lv_draw_layer_init
 1981              	.LVL172:
 416:Drivers/lvgl/src/draw/lv_draw.c ****         new_layer->opa = parent_layer->opa;
 1982              		.loc 1 416 5 view .LVU622
 416:Drivers/lvgl/src/draw/lv_draw.c ****         new_layer->opa = parent_layer->opa;
 1983              		.loc 1 416 7 is_stmt 0 view .LVU623
 1984 001c 3CB1     		cbz	r4, .L174
 417:Drivers/lvgl/src/draw/lv_draw.c ****         new_layer->recolor = parent_layer->recolor;
 1985              		.loc 1 417 9 is_stmt 1 view .LVU624
 417:Drivers/lvgl/src/draw/lv_draw.c ****         new_layer->recolor = parent_layer->recolor;
 1986              		.loc 1 417 38 is_stmt 0 view .LVU625
 1987 001e 94F83830 		ldrb	r3, [r4, #56]	@ zero_extendqisi2
 417:Drivers/lvgl/src/draw/lv_draw.c ****         new_layer->recolor = parent_layer->recolor;
 1988              		.loc 1 417 24 view .LVU626
 1989 0022 87F83830 		strb	r3, [r7, #56]
 418:Drivers/lvgl/src/draw/lv_draw.c ****     }
 1990              		.loc 1 418 9 is_stmt 1 view .LVU627
 418:Drivers/lvgl/src/draw/lv_draw.c ****     }
 1991              		.loc 1 418 28 is_stmt 0 view .LVU628
 1992 0026 D4F83930 		ldr	r3, [r4, #57]	@ unaligned
 1993 002a C7F83930 		str	r3, [r7, #57]	@ unaligned
 421:Drivers/lvgl/src/draw/lv_draw.c ****     return new_layer;
 1994              		.loc 1 421 25 is_stmt 1 view .LVU629
 422:Drivers/lvgl/src/draw/lv_draw.c **** }
 1995              		.loc 1 422 5 view .LVU630
 1996              	.L174:
 423:Drivers/lvgl/src/draw/lv_draw.c **** 
 1997              		.loc 1 423 1 is_stmt 0 view .LVU631
 1998 002e 3846     		mov	r0, r7
 1999 0030 F8BD     		pop	{r3, r4, r5, r6, r7, pc}
 2000              	.LVL173:
 2001              	.L176:
 407:Drivers/lvgl/src/draw/lv_draw.c ****     if(new_layer == NULL) {
ARM GAS  /tmp/ccwC1Sr5.s 			page 59


 2002              		.loc 1 407 5 is_stmt 1 discriminator 1 view .LVU632
 407:Drivers/lvgl/src/draw/lv_draw.c ****     if(new_layer == NULL) {
 2003              		.loc 1 407 5 discriminator 1 view .LVU633
 407:Drivers/lvgl/src/draw/lv_draw.c ****     if(new_layer == NULL) {
 2004              		.loc 1 407 5 discriminator 1 view .LVU634
 407:Drivers/lvgl/src/draw/lv_draw.c ****     if(new_layer == NULL) {
 2005              		.loc 1 407 5 discriminator 1 view .LVU635
 407:Drivers/lvgl/src/draw/lv_draw.c ****     if(new_layer == NULL) {
 2006              		.loc 1 407 5 discriminator 1 view .LVU636
 2007 0032 FEE7     		b	.L176
 2008              		.cfi_endproc
 2009              	.LFE202:
 2011              		.section	.text.lv_draw_layer_alloc_buf,"ax",%progbits
 2012              		.align	1
 2013              		.global	lv_draw_layer_alloc_buf
 2014              		.syntax unified
 2015              		.thumb
 2016              		.thumb_func
 2018              	lv_draw_layer_alloc_buf:
 2019              	.LVL174:
 2020              	.LFB204:
 453:Drivers/lvgl/src/draw/lv_draw.c ****     LV_PROFILER_DRAW_BEGIN;
 2021              		.loc 1 453 1 view -0
 2022              		.cfi_startproc
 2023              		@ args = 0, pretend = 0, frame = 0
 2024              		@ frame_needed = 0, uses_anonymous_args = 0
 453:Drivers/lvgl/src/draw/lv_draw.c ****     LV_PROFILER_DRAW_BEGIN;
 2025              		.loc 1 453 1 is_stmt 0 view .LVU638
 2026 0000 F8B5     		push	{r3, r4, r5, r6, r7, lr}
 2027              	.LCFI19:
 2028              		.cfi_def_cfa_offset 24
 2029              		.cfi_offset 3, -24
 2030              		.cfi_offset 4, -20
 2031              		.cfi_offset 5, -16
 2032              		.cfi_offset 6, -12
 2033              		.cfi_offset 7, -8
 2034              		.cfi_offset 14, -4
 454:Drivers/lvgl/src/draw/lv_draw.c ****     /*If the buffer of the layer is already allocated return it*/
 2035              		.loc 1 454 27 is_stmt 1 view .LVU639
 456:Drivers/lvgl/src/draw/lv_draw.c ****         LV_PROFILER_DRAW_END;
 2036              		.loc 1 456 5 view .LVU640
 456:Drivers/lvgl/src/draw/lv_draw.c ****         LV_PROFILER_DRAW_END;
 2037              		.loc 1 456 13 is_stmt 0 view .LVU641
 2038 0002 0368     		ldr	r3, [r0]
 456:Drivers/lvgl/src/draw/lv_draw.c ****         LV_PROFILER_DRAW_END;
 2039              		.loc 1 456 7 view .LVU642
 2040 0004 0BB1     		cbz	r3, .L180
 457:Drivers/lvgl/src/draw/lv_draw.c ****         return layer->draw_buf->data;
 2041              		.loc 1 457 29 is_stmt 1 view .LVU643
 458:Drivers/lvgl/src/draw/lv_draw.c ****     }
 2042              		.loc 1 458 9 view .LVU644
 458:Drivers/lvgl/src/draw/lv_draw.c ****     }
 2043              		.loc 1 458 31 is_stmt 0 view .LVU645
 2044 0006 1869     		ldr	r0, [r3, #16]
 2045              	.LVL175:
 2046              	.L179:
 492:Drivers/lvgl/src/draw/lv_draw.c **** 
ARM GAS  /tmp/ccwC1Sr5.s 			page 60


 2047              		.loc 1 492 1 view .LVU646
 2048 0008 F8BD     		pop	{r3, r4, r5, r6, r7, pc}
 2049              	.LVL176:
 2050              	.L180:
 492:Drivers/lvgl/src/draw/lv_draw.c **** 
 2051              		.loc 1 492 1 view .LVU647
 2052 000a 0446     		mov	r4, r0
 462:Drivers/lvgl/src/draw/lv_draw.c ****     int32_t h = lv_area_get_height(&layer->buf_area);
 2053              		.loc 1 462 5 is_stmt 1 view .LVU648
 462:Drivers/lvgl/src/draw/lv_draw.c ****     int32_t h = lv_area_get_height(&layer->buf_area);
 2054              		.loc 1 462 35 is_stmt 0 view .LVU649
 2055 000c 061D     		adds	r6, r0, #4
 462:Drivers/lvgl/src/draw/lv_draw.c ****     int32_t h = lv_area_get_height(&layer->buf_area);
 2056              		.loc 1 462 17 view .LVU650
 2057 000e 3046     		mov	r0, r6
 2058              	.LVL177:
 462:Drivers/lvgl/src/draw/lv_draw.c ****     int32_t h = lv_area_get_height(&layer->buf_area);
 2059              		.loc 1 462 17 view .LVU651
 2060 0010 FFF7FEFF 		bl	lv_area_get_width
 2061              	.LVL178:
 2062 0014 0546     		mov	r5, r0
 2063              	.LVL179:
 463:Drivers/lvgl/src/draw/lv_draw.c ****     uint32_t layer_size_byte = h * lv_draw_buf_width_to_stride(w, layer->color_format);
 2064              		.loc 1 463 5 is_stmt 1 view .LVU652
 463:Drivers/lvgl/src/draw/lv_draw.c ****     uint32_t layer_size_byte = h * lv_draw_buf_width_to_stride(w, layer->color_format);
 2065              		.loc 1 463 17 is_stmt 0 view .LVU653
 2066 0016 3046     		mov	r0, r6
 2067              	.LVL180:
 463:Drivers/lvgl/src/draw/lv_draw.c ****     uint32_t layer_size_byte = h * lv_draw_buf_width_to_stride(w, layer->color_format);
 2068              		.loc 1 463 17 view .LVU654
 2069 0018 FFF7FEFF 		bl	lv_area_get_height
 2070              	.LVL181:
 2071 001c 0646     		mov	r6, r0
 2072              	.LVL182:
 464:Drivers/lvgl/src/draw/lv_draw.c **** 
 2073              		.loc 1 464 5 is_stmt 1 view .LVU655
 464:Drivers/lvgl/src/draw/lv_draw.c **** 
 2074              		.loc 1 464 36 is_stmt 0 view .LVU656
 2075 001e 217D     		ldrb	r1, [r4, #20]	@ zero_extendqisi2
 2076 0020 2846     		mov	r0, r5
 2077              	.LVL183:
 464:Drivers/lvgl/src/draw/lv_draw.c **** 
 2078              		.loc 1 464 36 view .LVU657
 2079 0022 FFF7FEFF 		bl	lv_draw_buf_width_to_stride
 2080              	.LVL184:
 464:Drivers/lvgl/src/draw/lv_draw.c **** 
 2081              		.loc 1 464 14 discriminator 1 view .LVU658
 2082 0026 06FB00F7 		mul	r7, r6, r0
 2083              	.LVL185:
 475:Drivers/lvgl/src/draw/lv_draw.c **** 
 2084              		.loc 1 475 5 is_stmt 1 view .LVU659
 475:Drivers/lvgl/src/draw/lv_draw.c **** 
 2085              		.loc 1 475 23 is_stmt 0 view .LVU660
 2086 002a 0023     		movs	r3, #0
 2087 002c 227D     		ldrb	r2, [r4, #20]	@ zero_extendqisi2
 2088 002e 3146     		mov	r1, r6
 2089 0030 2846     		mov	r0, r5
ARM GAS  /tmp/ccwC1Sr5.s 			page 61


 2090 0032 FFF7FEFF 		bl	lv_draw_buf_create
 2091              	.LVL186:
 475:Drivers/lvgl/src/draw/lv_draw.c **** 
 2092              		.loc 1 475 21 discriminator 1 view .LVU661
 2093 0036 2060     		str	r0, [r4]
 477:Drivers/lvgl/src/draw/lv_draw.c ****         LV_LOG_WARN("Allocating layer buffer failed. Try later");
 2094              		.loc 1 477 5 is_stmt 1 view .LVU662
 477:Drivers/lvgl/src/draw/lv_draw.c ****         LV_LOG_WARN("Allocating layer buffer failed. Try later");
 2095              		.loc 1 477 7 is_stmt 0 view .LVU663
 2096 0038 0028     		cmp	r0, #0
 2097 003a E5D0     		beq	.L179
 483:Drivers/lvgl/src/draw/lv_draw.c ****     LV_LOG_INFO("Layer memory used: %" LV_PRIu32 " kB", get_layer_size_kb(_draw_info.used_memory_fo
 2098              		.loc 1 483 5 is_stmt 1 view .LVU664
 483:Drivers/lvgl/src/draw/lv_draw.c ****     LV_LOG_INFO("Layer memory used: %" LV_PRIu32 " kB", get_layer_size_kb(_draw_info.used_memory_fo
 2099              		.loc 1 483 15 is_stmt 0 view .LVU665
 2100 003c 084A     		ldr	r2, .L185
 2101 003e D2F82C31 		ldr	r3, [r2, #300]
 483:Drivers/lvgl/src/draw/lv_draw.c ****     LV_LOG_INFO("Layer memory used: %" LV_PRIu32 " kB", get_layer_size_kb(_draw_info.used_memory_fo
 2102              		.loc 1 483 39 view .LVU666
 2103 0042 3B44     		add	r3, r3, r7
 2104 0044 C2F82C31 		str	r3, [r2, #300]
 484:Drivers/lvgl/src/draw/lv_draw.c **** 
 2105              		.loc 1 484 5 is_stmt 1 view .LVU667
 484:Drivers/lvgl/src/draw/lv_draw.c **** 
 2106              		.loc 1 484 5 view .LVU668
 484:Drivers/lvgl/src/draw/lv_draw.c **** 
 2107              		.loc 1 484 5 view .LVU669
 486:Drivers/lvgl/src/draw/lv_draw.c ****         lv_draw_buf_clear(layer->draw_buf, NULL);
 2108              		.loc 1 486 5 view .LVU670
 486:Drivers/lvgl/src/draw/lv_draw.c ****         lv_draw_buf_clear(layer->draw_buf, NULL);
 2109              		.loc 1 486 8 is_stmt 0 view .LVU671
 2110 0048 207D     		ldrb	r0, [r4, #20]	@ zero_extendqisi2
 2111 004a FFF7FEFF 		bl	lv_color_format_has_alpha
 2112              	.LVL187:
 486:Drivers/lvgl/src/draw/lv_draw.c ****         lv_draw_buf_clear(layer->draw_buf, NULL);
 2113              		.loc 1 486 7 discriminator 1 view .LVU672
 2114 004e 10B9     		cbnz	r0, .L184
 2115              	.L182:
 490:Drivers/lvgl/src/draw/lv_draw.c ****     return layer->draw_buf->data;
 2116              		.loc 1 490 25 is_stmt 1 view .LVU673
 491:Drivers/lvgl/src/draw/lv_draw.c **** }
 2117              		.loc 1 491 5 view .LVU674
 491:Drivers/lvgl/src/draw/lv_draw.c **** }
 2118              		.loc 1 491 17 is_stmt 0 view .LVU675
 2119 0050 2368     		ldr	r3, [r4]
 491:Drivers/lvgl/src/draw/lv_draw.c **** }
 2120              		.loc 1 491 27 view .LVU676
 2121 0052 1869     		ldr	r0, [r3, #16]
 2122 0054 D8E7     		b	.L179
 2123              	.L184:
 487:Drivers/lvgl/src/draw/lv_draw.c ****     }
 2124              		.loc 1 487 9 is_stmt 1 view .LVU677
 2125 0056 0021     		movs	r1, #0
 2126 0058 2068     		ldr	r0, [r4]
 2127 005a FFF7FEFF 		bl	lv_draw_buf_clear
 2128              	.LVL188:
 2129 005e F7E7     		b	.L182
ARM GAS  /tmp/ccwC1Sr5.s 			page 62


 2130              	.L186:
 2131              		.align	2
 2132              	.L185:
 2133 0060 00000000 		.word	lv_global
 2134              		.cfi_endproc
 2135              	.LFE204:
 2137              		.section	.text.lv_draw_layer_go_to_xy,"ax",%progbits
 2138              		.align	1
 2139              		.global	lv_draw_layer_go_to_xy
 2140              		.syntax unified
 2141              		.thumb
 2142              		.thumb_func
 2144              	lv_draw_layer_go_to_xy:
 2145              	.LVL189:
 2146              	.LFB205:
 495:Drivers/lvgl/src/draw/lv_draw.c ****     return lv_draw_buf_goto_xy(layer->draw_buf, x, y);
 2147              		.loc 1 495 1 view -0
 2148              		.cfi_startproc
 2149              		@ args = 0, pretend = 0, frame = 0
 2150              		@ frame_needed = 0, uses_anonymous_args = 0
 495:Drivers/lvgl/src/draw/lv_draw.c ****     return lv_draw_buf_goto_xy(layer->draw_buf, x, y);
 2151              		.loc 1 495 1 is_stmt 0 view .LVU679
 2152 0000 08B5     		push	{r3, lr}
 2153              	.LCFI20:
 2154              		.cfi_def_cfa_offset 8
 2155              		.cfi_offset 3, -8
 2156              		.cfi_offset 14, -4
 496:Drivers/lvgl/src/draw/lv_draw.c **** }
 2157              		.loc 1 496 5 is_stmt 1 view .LVU680
 496:Drivers/lvgl/src/draw/lv_draw.c **** }
 2158              		.loc 1 496 12 is_stmt 0 view .LVU681
 2159 0002 0068     		ldr	r0, [r0]
 2160              	.LVL190:
 496:Drivers/lvgl/src/draw/lv_draw.c **** }
 2161              		.loc 1 496 12 view .LVU682
 2162 0004 FFF7FEFF 		bl	lv_draw_buf_goto_xy
 2163              	.LVL191:
 497:Drivers/lvgl/src/draw/lv_draw.c **** 
 2164              		.loc 1 497 1 view .LVU683
 2165 0008 08BD     		pop	{r3, pc}
 2166              		.cfi_endproc
 2167              	.LFE205:
 2169              		.section	.text.lv_draw_task_get_type,"ax",%progbits
 2170              		.align	1
 2171              		.global	lv_draw_task_get_type
 2172              		.syntax unified
 2173              		.thumb
 2174              		.thumb_func
 2176              	lv_draw_task_get_type:
 2177              	.LVL192:
 2178              	.LFB206:
 500:Drivers/lvgl/src/draw/lv_draw.c ****     return t->type;
 2179              		.loc 1 500 1 is_stmt 1 view -0
 2180              		.cfi_startproc
 2181              		@ args = 0, pretend = 0, frame = 0
 2182              		@ frame_needed = 0, uses_anonymous_args = 0
 2183              		@ link register save eliminated.
ARM GAS  /tmp/ccwC1Sr5.s 			page 63


 501:Drivers/lvgl/src/draw/lv_draw.c **** }
 2184              		.loc 1 501 5 view .LVU685
 502:Drivers/lvgl/src/draw/lv_draw.c **** 
 2185              		.loc 1 502 1 is_stmt 0 view .LVU686
 2186 0000 0079     		ldrb	r0, [r0, #4]	@ zero_extendqisi2
 2187              	.LVL193:
 502:Drivers/lvgl/src/draw/lv_draw.c **** 
 2188              		.loc 1 502 1 view .LVU687
 2189 0002 7047     		bx	lr
 2190              		.cfi_endproc
 2191              	.LFE206:
 2193              		.section	.text.lv_draw_task_get_draw_dsc,"ax",%progbits
 2194              		.align	1
 2195              		.global	lv_draw_task_get_draw_dsc
 2196              		.syntax unified
 2197              		.thumb
 2198              		.thumb_func
 2200              	lv_draw_task_get_draw_dsc:
 2201              	.LVL194:
 2202              	.LFB207:
 505:Drivers/lvgl/src/draw/lv_draw.c ****     return t->draw_dsc;
 2203              		.loc 1 505 1 is_stmt 1 view -0
 2204              		.cfi_startproc
 2205              		@ args = 0, pretend = 0, frame = 0
 2206              		@ frame_needed = 0, uses_anonymous_args = 0
 2207              		@ link register save eliminated.
 506:Drivers/lvgl/src/draw/lv_draw.c **** }
 2208              		.loc 1 506 5 view .LVU689
 507:Drivers/lvgl/src/draw/lv_draw.c **** 
 2209              		.loc 1 507 1 is_stmt 0 view .LVU690
 2210 0000 406D     		ldr	r0, [r0, #84]
 2211              	.LVL195:
 507:Drivers/lvgl/src/draw/lv_draw.c **** 
 2212              		.loc 1 507 1 view .LVU691
 2213 0002 7047     		bx	lr
 2214              		.cfi_endproc
 2215              	.LFE207:
 2217              		.section	.text.lv_draw_task_get_area,"ax",%progbits
 2218              		.align	1
 2219              		.global	lv_draw_task_get_area
 2220              		.syntax unified
 2221              		.thumb
 2222              		.thumb_func
 2224              	lv_draw_task_get_area:
 2225              	.LVL196:
 2226              	.LFB208:
 510:Drivers/lvgl/src/draw/lv_draw.c ****     *area = t->area;
 2227              		.loc 1 510 1 is_stmt 1 view -0
 2228              		.cfi_startproc
 2229              		@ args = 0, pretend = 0, frame = 0
 2230              		@ frame_needed = 0, uses_anonymous_args = 0
 2231              		@ link register save eliminated.
 510:Drivers/lvgl/src/draw/lv_draw.c ****     *area = t->area;
 2232              		.loc 1 510 1 is_stmt 0 view .LVU693
 2233 0000 8C46     		mov	ip, r1
 511:Drivers/lvgl/src/draw/lv_draw.c **** }
 2234              		.loc 1 511 5 is_stmt 1 view .LVU694
ARM GAS  /tmp/ccwC1Sr5.s 			page 64


 511:Drivers/lvgl/src/draw/lv_draw.c **** }
 2235              		.loc 1 511 11 is_stmt 0 view .LVU695
 2236 0002 0830     		adds	r0, r0, #8
 2237              	.LVL197:
 511:Drivers/lvgl/src/draw/lv_draw.c **** }
 2238              		.loc 1 511 11 view .LVU696
 2239 0004 0FC8     		ldm	r0, {r0, r1, r2, r3}
 2240              	.LVL198:
 511:Drivers/lvgl/src/draw/lv_draw.c **** }
 2241              		.loc 1 511 11 view .LVU697
 2242 0006 8CE80F00 		stm	ip, {r0, r1, r2, r3}
 512:Drivers/lvgl/src/draw/lv_draw.c **** 
 2243              		.loc 1 512 1 view .LVU698
 2244 000a 7047     		bx	lr
 2245              		.cfi_endproc
 2246              	.LFE208:
 2248              		.text
 2249              	.Letext0:
 2250              		.file 3 "/usr/arm-none-eabi/include/machine/_default_types.h"
 2251              		.file 4 "/usr/arm-none-eabi/include/sys/_stdint.h"
 2252              		.file 5 "/usr/lib/gcc/arm-none-eabi/14.2.0/include/stddef.h"
 2253              		.file 6 "Drivers/lvgl/src/draw/../misc/lv_types.h"
 2254              		.file 7 "Drivers/lvgl/src/draw/../display/lv_display_private.h"
 2255              		.file 8 "Drivers/lvgl/src/draw/lv_draw.h"
 2256              		.file 9 "Drivers/lvgl/src/draw/lv_draw_private.h"
 2257              		.file 10 "Drivers/lvgl/src/draw/../core/../misc/lv_timer_private.h"
 2258              		.file 11 "Drivers/lvgl/src/draw/../misc/../font/lv_font.h"
 2259              		.file 12 "Drivers/lvgl/src/draw/lv_draw_image.h"
 2260              		.file 13 "Drivers/lvgl/src/draw/../misc/cache/lv_cache_private.h"
 2261              		.file 14 "Drivers/lvgl/src/draw/../core/../draw/lv_draw_buf_private.h"
 2262              		.file 15 "Drivers/lvgl/src/draw/../misc/lv_array.h"
 2263              		.file 16 "Drivers/lvgl/src/draw/../misc/../font/../draw/lv_draw_buf.h"
 2264              		.file 17 "Drivers/lvgl/src/draw/../misc/lv_area.h"
 2265              		.file 18 "Drivers/lvgl/src/draw/../misc/../font/../draw/../misc/lv_color.h"
 2266              		.file 19 "Drivers/lvgl/src/draw/../misc/../font/../draw/lv_image_dsc.h"
 2267              		.file 20 "Drivers/lvgl/src/draw/../misc/../tick/lv_tick.h"
 2268              		.file 21 "Drivers/lvgl/src/draw/../misc/lv_ll.h"
 2269              		.file 22 "Drivers/lvgl/src/draw/../misc/lv_timer.h"
 2270              		.file 23 "Drivers/lvgl/src/draw/../misc/lv_text.h"
 2271              		.file 24 "Drivers/lvgl/src/draw/../misc/lv_bidi.h"
 2272              		.file 25 "Drivers/lvgl/src/draw/../misc/../layouts/lv_layout.h"
 2273              		.file 26 "Drivers/lvgl/src/draw/../misc/lv_style.h"
 2274              		.file 27 "Drivers/lvgl/src/draw/../osal/lv_os_none.h"
 2275              		.file 28 "Drivers/lvgl/src/draw/sw/../../display/../misc/lv_event.h"
 2276              		.file 29 "Drivers/lvgl/src/draw/sw/../../display/lv_display.h"
 2277              		.file 30 "Drivers/lvgl/src/draw/sw/../lv_draw_label.h"
 2278              		.file 31 "Drivers/lvgl/src/draw/../display/../core/lv_obj.h"
 2279              		.file 32 "Drivers/lvgl/src/draw/../core/../misc/lv_anim_private.h"
 2280              		.file 33 "Drivers/lvgl/src/draw/../core/../tick/lv_tick_private.h"
 2281              		.file 34 "Drivers/lvgl/src/draw/../core/../draw/sw/lv_draw_sw_mask_private.h"
 2282              		.file 35 "Drivers/lvgl/src/draw/../core/../layouts/lv_layout_private.h"
 2283              		.file 36 "Drivers/lvgl/src/draw/../core/lv_global.h"
 2284              		.file 37 "Drivers/lvgl/src/draw/../misc/lv_area_private.h"
 2285              		.file 38 "Drivers/lvgl/src/draw/../display/../core/lv_obj_event.h"
 2286              		.file 39 "Drivers/lvgl/src/draw/../misc/../stdlib/lv_mem.h"
 2287              		.file 40 "Drivers/lvgl/src/draw/../core/lv_refr_private.h"
ARM GAS  /tmp/ccwC1Sr5.s 			page 65

