ARM GAS  /tmp/ccroaa0e.s 			page 1


   1              		.cpu cortex-m7
   2              		.arch armv7e-m
   3              		.fpu fpv5-sp-d16
   4              		.eabi_attribute 27, 1
   5              		.eabi_attribute 28, 1
   6              		.eabi_attribute 20, 1
   7              		.eabi_attribute 21, 1
   8              		.eabi_attribute 23, 3
   9              		.eabi_attribute 24, 1
  10              		.eabi_attribute 25, 1
  11              		.eabi_attribute 26, 1
  12              		.eabi_attribute 30, 1
  13              		.eabi_attribute 34, 1
  14              		.eabi_attribute 18, 4
  15              		.file	"lv_event.c"
  16              		.text
  17              	.Ltext0:
  18              		.cfi_sections	.debug_frame
  19              		.file 1 "Drivers/lvgl/src/misc/lv_event.c"
  20              		.section	.text.event_mark_deleting,"ax",%progbits
  21              		.align	1
  22              		.syntax unified
  23              		.thumb
  24              		.thumb_func
  26              	event_mark_deleting:
  27              	.LVL0:
  28              	.LFB209:
   1:Drivers/lvgl/src/misc/lv_event.c **** /**
   2:Drivers/lvgl/src/misc/lv_event.c ****  * @file lv_event.c
   3:Drivers/lvgl/src/misc/lv_event.c ****  *
   4:Drivers/lvgl/src/misc/lv_event.c ****  */
   5:Drivers/lvgl/src/misc/lv_event.c **** 
   6:Drivers/lvgl/src/misc/lv_event.c **** /*********************
   7:Drivers/lvgl/src/misc/lv_event.c ****  *      INCLUDES
   8:Drivers/lvgl/src/misc/lv_event.c ****  *********************/
   9:Drivers/lvgl/src/misc/lv_event.c **** #include "lv_event_private.h"
  10:Drivers/lvgl/src/misc/lv_event.c **** #include "../core/lv_global.h"
  11:Drivers/lvgl/src/misc/lv_event.c **** #include "../stdlib/lv_mem.h"
  12:Drivers/lvgl/src/misc/lv_event.c **** #include "lv_assert.h"
  13:Drivers/lvgl/src/misc/lv_event.c **** #include "lv_types.h"
  14:Drivers/lvgl/src/misc/lv_event.c **** 
  15:Drivers/lvgl/src/misc/lv_event.c **** /*********************
  16:Drivers/lvgl/src/misc/lv_event.c ****  *      DEFINES
  17:Drivers/lvgl/src/misc/lv_event.c ****  *********************/
  18:Drivers/lvgl/src/misc/lv_event.c **** 
  19:Drivers/lvgl/src/misc/lv_event.c **** #define event_head LV_GLOBAL_DEFAULT()->event_header
  20:Drivers/lvgl/src/misc/lv_event.c **** #define event_last_id LV_GLOBAL_DEFAULT()->event_last_register_id
  21:Drivers/lvgl/src/misc/lv_event.c **** 
  22:Drivers/lvgl/src/misc/lv_event.c **** /**********************
  23:Drivers/lvgl/src/misc/lv_event.c ****  *      TYPEDEFS
  24:Drivers/lvgl/src/misc/lv_event.c ****  **********************/
  25:Drivers/lvgl/src/misc/lv_event.c **** 
  26:Drivers/lvgl/src/misc/lv_event.c **** /**********************
  27:Drivers/lvgl/src/misc/lv_event.c ****  *  STATIC PROTOTYPES
  28:Drivers/lvgl/src/misc/lv_event.c ****  **********************/
  29:Drivers/lvgl/src/misc/lv_event.c **** 
  30:Drivers/lvgl/src/misc/lv_event.c **** /* Traverse the list to delete the objects marked for deletion */
ARM GAS  /tmp/ccroaa0e.s 			page 2


  31:Drivers/lvgl/src/misc/lv_event.c **** static void cleanup_event_list(lv_event_list_t * list);
  32:Drivers/lvgl/src/misc/lv_event.c **** static void cleanup_event_list_core(lv_array_t * array);
  33:Drivers/lvgl/src/misc/lv_event.c **** 
  34:Drivers/lvgl/src/misc/lv_event.c **** static void event_mark_deleting(lv_event_list_t * list, lv_event_dsc_t * dsc);
  35:Drivers/lvgl/src/misc/lv_event.c **** static bool event_is_marked_deleting(lv_event_dsc_t * dsc);
  36:Drivers/lvgl/src/misc/lv_event.c **** static uint32_t event_array_size(lv_event_list_t * list);
  37:Drivers/lvgl/src/misc/lv_event.c **** static lv_event_dsc_t ** event_array_at(lv_event_list_t * list, uint32_t index);
  38:Drivers/lvgl/src/misc/lv_event.c **** 
  39:Drivers/lvgl/src/misc/lv_event.c **** /**********************
  40:Drivers/lvgl/src/misc/lv_event.c ****  *  STATIC VARIABLES
  41:Drivers/lvgl/src/misc/lv_event.c ****  **********************/
  42:Drivers/lvgl/src/misc/lv_event.c **** 
  43:Drivers/lvgl/src/misc/lv_event.c **** /**********************
  44:Drivers/lvgl/src/misc/lv_event.c ****  *      MACROS
  45:Drivers/lvgl/src/misc/lv_event.c ****  **********************/
  46:Drivers/lvgl/src/misc/lv_event.c **** 
  47:Drivers/lvgl/src/misc/lv_event.c **** #if LV_USE_LOG && LV_LOG_TRACE_EVENT
  48:Drivers/lvgl/src/misc/lv_event.c ****     #define LV_TRACE_EVENT(...) LV_LOG_TRACE(__VA_ARGS__)
  49:Drivers/lvgl/src/misc/lv_event.c **** #else
  50:Drivers/lvgl/src/misc/lv_event.c ****     #define LV_TRACE_EVENT(...)
  51:Drivers/lvgl/src/misc/lv_event.c **** #endif
  52:Drivers/lvgl/src/misc/lv_event.c **** 
  53:Drivers/lvgl/src/misc/lv_event.c **** /**********************
  54:Drivers/lvgl/src/misc/lv_event.c ****  *   GLOBAL FUNCTIONS
  55:Drivers/lvgl/src/misc/lv_event.c ****  **********************/
  56:Drivers/lvgl/src/misc/lv_event.c **** 
  57:Drivers/lvgl/src/misc/lv_event.c **** void lv_event_push(lv_event_t * e)
  58:Drivers/lvgl/src/misc/lv_event.c **** {
  59:Drivers/lvgl/src/misc/lv_event.c ****     /*Build a simple linked list from the objects used in the events
  60:Drivers/lvgl/src/misc/lv_event.c ****      *It's important to know if this object was deleted by a nested event
  61:Drivers/lvgl/src/misc/lv_event.c ****      *called from this `event_cb`.*/
  62:Drivers/lvgl/src/misc/lv_event.c ****     e->prev = event_head;
  63:Drivers/lvgl/src/misc/lv_event.c ****     event_head = e;
  64:Drivers/lvgl/src/misc/lv_event.c **** 
  65:Drivers/lvgl/src/misc/lv_event.c **** }
  66:Drivers/lvgl/src/misc/lv_event.c **** 
  67:Drivers/lvgl/src/misc/lv_event.c **** void lv_event_pop(lv_event_t * e)
  68:Drivers/lvgl/src/misc/lv_event.c **** {
  69:Drivers/lvgl/src/misc/lv_event.c ****     event_head = e->prev;
  70:Drivers/lvgl/src/misc/lv_event.c **** }
  71:Drivers/lvgl/src/misc/lv_event.c **** 
  72:Drivers/lvgl/src/misc/lv_event.c **** lv_result_t lv_event_send(lv_event_list_t * list, lv_event_t * e, bool preprocess)
  73:Drivers/lvgl/src/misc/lv_event.c **** {
  74:Drivers/lvgl/src/misc/lv_event.c ****     if(list == NULL) return LV_RESULT_OK;
  75:Drivers/lvgl/src/misc/lv_event.c ****     if(e->deleted) return LV_RESULT_INVALID;
  76:Drivers/lvgl/src/misc/lv_event.c **** 
  77:Drivers/lvgl/src/misc/lv_event.c ****     /* When obj is deleted in its own event, it will cause the `list->array` header to be released,
  78:Drivers/lvgl/src/misc/lv_event.c ****      * but the content still exists, which leads to memory leakage.
  79:Drivers/lvgl/src/misc/lv_event.c ****      * Therefore, back up the header in advance,
  80:Drivers/lvgl/src/misc/lv_event.c ****      * which can strive to release the memory and prevent used-after-free. */
  81:Drivers/lvgl/src/misc/lv_event.c ****     lv_array_t back_array_head = list->array;
  82:Drivers/lvgl/src/misc/lv_event.c **** 
  83:Drivers/lvgl/src/misc/lv_event.c ****     /* Dealing with the problem of nested event deletion event */
  84:Drivers/lvgl/src/misc/lv_event.c ****     const bool is_traversing = list->is_traversing;
  85:Drivers/lvgl/src/misc/lv_event.c ****     list->is_traversing = true;
  86:Drivers/lvgl/src/misc/lv_event.c **** 
  87:Drivers/lvgl/src/misc/lv_event.c ****     lv_result_t res = LV_RESULT_OK;
ARM GAS  /tmp/ccroaa0e.s 			page 3


  88:Drivers/lvgl/src/misc/lv_event.c ****     const uint32_t size = event_array_size(list);
  89:Drivers/lvgl/src/misc/lv_event.c ****     for(uint32_t i = 0; i < size && !e->deleted; i++) {
  90:Drivers/lvgl/src/misc/lv_event.c ****         lv_event_dsc_t * dsc = *event_array_at(list, i);
  91:Drivers/lvgl/src/misc/lv_event.c ****         if(dsc->cb == NULL) continue;
  92:Drivers/lvgl/src/misc/lv_event.c ****         if(event_is_marked_deleting(dsc)) continue;
  93:Drivers/lvgl/src/misc/lv_event.c ****         const bool is_preprocessed = (dsc->filter & LV_EVENT_PREPROCESS) != 0;
  94:Drivers/lvgl/src/misc/lv_event.c ****         if(is_preprocessed != preprocess) continue;
  95:Drivers/lvgl/src/misc/lv_event.c ****         lv_event_code_t filter = dsc->filter & ~LV_EVENT_PREPROCESS;
  96:Drivers/lvgl/src/misc/lv_event.c ****         if(filter == LV_EVENT_ALL || filter == e->code) {
  97:Drivers/lvgl/src/misc/lv_event.c ****             e->user_data = dsc->user_data;
  98:Drivers/lvgl/src/misc/lv_event.c ****             dsc->cb(e);
  99:Drivers/lvgl/src/misc/lv_event.c ****             if(e->stop_processing) break;
 100:Drivers/lvgl/src/misc/lv_event.c **** 
 101:Drivers/lvgl/src/misc/lv_event.c ****             /*Stop if the object is deleted*/
 102:Drivers/lvgl/src/misc/lv_event.c ****             if(e->deleted) {
 103:Drivers/lvgl/src/misc/lv_event.c ****                 res = LV_RESULT_INVALID;
 104:Drivers/lvgl/src/misc/lv_event.c ****                 break;
 105:Drivers/lvgl/src/misc/lv_event.c ****             }
 106:Drivers/lvgl/src/misc/lv_event.c ****         }
 107:Drivers/lvgl/src/misc/lv_event.c ****     }
 108:Drivers/lvgl/src/misc/lv_event.c **** 
 109:Drivers/lvgl/src/misc/lv_event.c ****     if(is_traversing) return res;
 110:Drivers/lvgl/src/misc/lv_event.c **** 
 111:Drivers/lvgl/src/misc/lv_event.c ****     if(e->deleted) cleanup_event_list_core(&back_array_head);
 112:Drivers/lvgl/src/misc/lv_event.c ****     else {
 113:Drivers/lvgl/src/misc/lv_event.c ****         list->is_traversing = false;
 114:Drivers/lvgl/src/misc/lv_event.c ****         cleanup_event_list(list);
 115:Drivers/lvgl/src/misc/lv_event.c ****     }
 116:Drivers/lvgl/src/misc/lv_event.c **** 
 117:Drivers/lvgl/src/misc/lv_event.c ****     return res;
 118:Drivers/lvgl/src/misc/lv_event.c **** }
 119:Drivers/lvgl/src/misc/lv_event.c **** 
 120:Drivers/lvgl/src/misc/lv_event.c **** lv_event_dsc_t * lv_event_add(lv_event_list_t * list, lv_event_cb_t cb, lv_event_code_t filter,
 121:Drivers/lvgl/src/misc/lv_event.c ****                               void * user_data)
 122:Drivers/lvgl/src/misc/lv_event.c **** {
 123:Drivers/lvgl/src/misc/lv_event.c ****     lv_event_dsc_t * dsc = lv_malloc(sizeof(lv_event_dsc_t));
 124:Drivers/lvgl/src/misc/lv_event.c ****     LV_ASSERT_NULL(dsc);
 125:Drivers/lvgl/src/misc/lv_event.c **** 
 126:Drivers/lvgl/src/misc/lv_event.c ****     dsc->cb = cb;
 127:Drivers/lvgl/src/misc/lv_event.c ****     dsc->filter = filter;
 128:Drivers/lvgl/src/misc/lv_event.c ****     dsc->user_data = user_data;
 129:Drivers/lvgl/src/misc/lv_event.c **** 
 130:Drivers/lvgl/src/misc/lv_event.c ****     if(event_array_size(list) == 0) {
 131:Drivers/lvgl/src/misc/lv_event.c ****         /*event list hasn't been initialized.*/
 132:Drivers/lvgl/src/misc/lv_event.c ****         lv_array_init(&list->array, 1, sizeof(lv_event_dsc_t *));
 133:Drivers/lvgl/src/misc/lv_event.c ****     }
 134:Drivers/lvgl/src/misc/lv_event.c **** 
 135:Drivers/lvgl/src/misc/lv_event.c ****     lv_array_push_back(&list->array, &dsc);
 136:Drivers/lvgl/src/misc/lv_event.c ****     return dsc;
 137:Drivers/lvgl/src/misc/lv_event.c **** }
 138:Drivers/lvgl/src/misc/lv_event.c **** 
 139:Drivers/lvgl/src/misc/lv_event.c **** bool lv_event_remove_dsc(lv_event_list_t * list, lv_event_dsc_t * dsc)
 140:Drivers/lvgl/src/misc/lv_event.c **** {
 141:Drivers/lvgl/src/misc/lv_event.c ****     LV_ASSERT_NULL(list);
 142:Drivers/lvgl/src/misc/lv_event.c ****     LV_ASSERT_NULL(dsc);
 143:Drivers/lvgl/src/misc/lv_event.c **** 
 144:Drivers/lvgl/src/misc/lv_event.c ****     const uint32_t size = event_array_size(list);
ARM GAS  /tmp/ccroaa0e.s 			page 4


 145:Drivers/lvgl/src/misc/lv_event.c ****     for(uint32_t i = 0; i < size; i++) {
 146:Drivers/lvgl/src/misc/lv_event.c ****         lv_event_dsc_t * event = *event_array_at(list, i);
 147:Drivers/lvgl/src/misc/lv_event.c ****         if(event == dsc) {
 148:Drivers/lvgl/src/misc/lv_event.c ****             event_mark_deleting(list, event);
 149:Drivers/lvgl/src/misc/lv_event.c ****             cleanup_event_list(list);
 150:Drivers/lvgl/src/misc/lv_event.c ****             return true;
 151:Drivers/lvgl/src/misc/lv_event.c ****         }
 152:Drivers/lvgl/src/misc/lv_event.c ****     }
 153:Drivers/lvgl/src/misc/lv_event.c **** 
 154:Drivers/lvgl/src/misc/lv_event.c ****     return false;
 155:Drivers/lvgl/src/misc/lv_event.c **** }
 156:Drivers/lvgl/src/misc/lv_event.c **** 
 157:Drivers/lvgl/src/misc/lv_event.c **** uint32_t lv_event_get_count(lv_event_list_t * list)
 158:Drivers/lvgl/src/misc/lv_event.c **** {
 159:Drivers/lvgl/src/misc/lv_event.c ****     LV_ASSERT_NULL(list);
 160:Drivers/lvgl/src/misc/lv_event.c ****     return event_array_size(list);
 161:Drivers/lvgl/src/misc/lv_event.c **** }
 162:Drivers/lvgl/src/misc/lv_event.c **** 
 163:Drivers/lvgl/src/misc/lv_event.c **** lv_event_dsc_t * lv_event_get_dsc(lv_event_list_t * list, uint32_t index)
 164:Drivers/lvgl/src/misc/lv_event.c **** {
 165:Drivers/lvgl/src/misc/lv_event.c ****     LV_ASSERT_NULL(list);
 166:Drivers/lvgl/src/misc/lv_event.c ****     lv_event_dsc_t ** dsc = event_array_at(list, index);
 167:Drivers/lvgl/src/misc/lv_event.c ****     return dsc ? *dsc : NULL;
 168:Drivers/lvgl/src/misc/lv_event.c **** }
 169:Drivers/lvgl/src/misc/lv_event.c **** 
 170:Drivers/lvgl/src/misc/lv_event.c **** lv_event_cb_t lv_event_dsc_get_cb(lv_event_dsc_t * dsc)
 171:Drivers/lvgl/src/misc/lv_event.c **** {
 172:Drivers/lvgl/src/misc/lv_event.c ****     LV_ASSERT_NULL(dsc);
 173:Drivers/lvgl/src/misc/lv_event.c ****     return dsc->cb;
 174:Drivers/lvgl/src/misc/lv_event.c **** }
 175:Drivers/lvgl/src/misc/lv_event.c **** 
 176:Drivers/lvgl/src/misc/lv_event.c **** void * lv_event_dsc_get_user_data(lv_event_dsc_t * dsc)
 177:Drivers/lvgl/src/misc/lv_event.c **** {
 178:Drivers/lvgl/src/misc/lv_event.c ****     LV_ASSERT_NULL(dsc);
 179:Drivers/lvgl/src/misc/lv_event.c ****     return dsc->user_data;
 180:Drivers/lvgl/src/misc/lv_event.c **** 
 181:Drivers/lvgl/src/misc/lv_event.c **** }
 182:Drivers/lvgl/src/misc/lv_event.c **** 
 183:Drivers/lvgl/src/misc/lv_event.c **** bool lv_event_remove(lv_event_list_t * list, uint32_t index)
 184:Drivers/lvgl/src/misc/lv_event.c **** {
 185:Drivers/lvgl/src/misc/lv_event.c ****     LV_ASSERT_NULL(list);
 186:Drivers/lvgl/src/misc/lv_event.c ****     lv_event_dsc_t * dsc = lv_event_get_dsc(list, index);
 187:Drivers/lvgl/src/misc/lv_event.c ****     if(dsc == NULL) return false;
 188:Drivers/lvgl/src/misc/lv_event.c ****     event_mark_deleting(list, dsc);
 189:Drivers/lvgl/src/misc/lv_event.c ****     cleanup_event_list(list);
 190:Drivers/lvgl/src/misc/lv_event.c ****     return true;
 191:Drivers/lvgl/src/misc/lv_event.c **** }
 192:Drivers/lvgl/src/misc/lv_event.c **** 
 193:Drivers/lvgl/src/misc/lv_event.c **** void lv_event_remove_all(lv_event_list_t * list)
 194:Drivers/lvgl/src/misc/lv_event.c **** {
 195:Drivers/lvgl/src/misc/lv_event.c ****     LV_ASSERT_NULL(list);
 196:Drivers/lvgl/src/misc/lv_event.c ****     const uint32_t size = event_array_size(list);
 197:Drivers/lvgl/src/misc/lv_event.c ****     for(uint32_t i = 0; i < size; i++)
 198:Drivers/lvgl/src/misc/lv_event.c ****         event_mark_deleting(list, *event_array_at(list, i));
 199:Drivers/lvgl/src/misc/lv_event.c ****     cleanup_event_list(list);
 200:Drivers/lvgl/src/misc/lv_event.c **** }
 201:Drivers/lvgl/src/misc/lv_event.c **** 
ARM GAS  /tmp/ccroaa0e.s 			page 5


 202:Drivers/lvgl/src/misc/lv_event.c **** void * lv_event_get_current_target(lv_event_t * e)
 203:Drivers/lvgl/src/misc/lv_event.c **** {
 204:Drivers/lvgl/src/misc/lv_event.c ****     return e->current_target;
 205:Drivers/lvgl/src/misc/lv_event.c **** }
 206:Drivers/lvgl/src/misc/lv_event.c **** 
 207:Drivers/lvgl/src/misc/lv_event.c **** void * lv_event_get_target(lv_event_t * e)
 208:Drivers/lvgl/src/misc/lv_event.c **** {
 209:Drivers/lvgl/src/misc/lv_event.c ****     return e->original_target;
 210:Drivers/lvgl/src/misc/lv_event.c **** }
 211:Drivers/lvgl/src/misc/lv_event.c **** 
 212:Drivers/lvgl/src/misc/lv_event.c **** lv_event_code_t lv_event_get_code(lv_event_t * e)
 213:Drivers/lvgl/src/misc/lv_event.c **** {
 214:Drivers/lvgl/src/misc/lv_event.c ****     return e->code & ~LV_EVENT_PREPROCESS;
 215:Drivers/lvgl/src/misc/lv_event.c **** }
 216:Drivers/lvgl/src/misc/lv_event.c **** 
 217:Drivers/lvgl/src/misc/lv_event.c **** void * lv_event_get_param(lv_event_t * e)
 218:Drivers/lvgl/src/misc/lv_event.c **** {
 219:Drivers/lvgl/src/misc/lv_event.c ****     return e->param;
 220:Drivers/lvgl/src/misc/lv_event.c **** }
 221:Drivers/lvgl/src/misc/lv_event.c **** 
 222:Drivers/lvgl/src/misc/lv_event.c **** void * lv_event_get_user_data(lv_event_t * e)
 223:Drivers/lvgl/src/misc/lv_event.c **** {
 224:Drivers/lvgl/src/misc/lv_event.c ****     return e->user_data;
 225:Drivers/lvgl/src/misc/lv_event.c **** }
 226:Drivers/lvgl/src/misc/lv_event.c **** 
 227:Drivers/lvgl/src/misc/lv_event.c **** void lv_event_stop_bubbling(lv_event_t * e)
 228:Drivers/lvgl/src/misc/lv_event.c **** {
 229:Drivers/lvgl/src/misc/lv_event.c ****     e->stop_bubbling = 1;
 230:Drivers/lvgl/src/misc/lv_event.c **** }
 231:Drivers/lvgl/src/misc/lv_event.c **** 
 232:Drivers/lvgl/src/misc/lv_event.c **** void lv_event_stop_processing(lv_event_t * e)
 233:Drivers/lvgl/src/misc/lv_event.c **** {
 234:Drivers/lvgl/src/misc/lv_event.c ****     e->stop_processing = 1;
 235:Drivers/lvgl/src/misc/lv_event.c **** }
 236:Drivers/lvgl/src/misc/lv_event.c **** 
 237:Drivers/lvgl/src/misc/lv_event.c **** uint32_t lv_event_register_id(void)
 238:Drivers/lvgl/src/misc/lv_event.c **** {
 239:Drivers/lvgl/src/misc/lv_event.c ****     event_last_id ++;
 240:Drivers/lvgl/src/misc/lv_event.c ****     return event_last_id;
 241:Drivers/lvgl/src/misc/lv_event.c **** }
 242:Drivers/lvgl/src/misc/lv_event.c **** 
 243:Drivers/lvgl/src/misc/lv_event.c **** void lv_event_mark_deleted(void * target)
 244:Drivers/lvgl/src/misc/lv_event.c **** {
 245:Drivers/lvgl/src/misc/lv_event.c ****     lv_event_t * e = event_head;
 246:Drivers/lvgl/src/misc/lv_event.c **** 
 247:Drivers/lvgl/src/misc/lv_event.c ****     while(e) {
 248:Drivers/lvgl/src/misc/lv_event.c ****         if(e->original_target == target || e->current_target == target) e->deleted = 1;
 249:Drivers/lvgl/src/misc/lv_event.c ****         e = e->prev;
 250:Drivers/lvgl/src/misc/lv_event.c ****     }
 251:Drivers/lvgl/src/misc/lv_event.c **** }
 252:Drivers/lvgl/src/misc/lv_event.c **** 
 253:Drivers/lvgl/src/misc/lv_event.c **** const char * lv_event_code_get_name(lv_event_code_t code)
 254:Drivers/lvgl/src/misc/lv_event.c **** {
 255:Drivers/lvgl/src/misc/lv_event.c ****     /*Remove the preprocess flag*/
 256:Drivers/lvgl/src/misc/lv_event.c ****     code &= ~LV_EVENT_PREPROCESS;
 257:Drivers/lvgl/src/misc/lv_event.c **** 
 258:Drivers/lvgl/src/misc/lv_event.c **** #define ENUM_CASE(x) case LV_##x: return #x
ARM GAS  /tmp/ccroaa0e.s 			page 6


 259:Drivers/lvgl/src/misc/lv_event.c **** 
 260:Drivers/lvgl/src/misc/lv_event.c ****     switch(code) {
 261:Drivers/lvgl/src/misc/lv_event.c ****             ENUM_CASE(EVENT_ALL);
 262:Drivers/lvgl/src/misc/lv_event.c **** 
 263:Drivers/lvgl/src/misc/lv_event.c ****             /** Input device events*/
 264:Drivers/lvgl/src/misc/lv_event.c ****             ENUM_CASE(EVENT_PRESSED);
 265:Drivers/lvgl/src/misc/lv_event.c ****             ENUM_CASE(EVENT_PRESSING);
 266:Drivers/lvgl/src/misc/lv_event.c ****             ENUM_CASE(EVENT_PRESS_LOST);
 267:Drivers/lvgl/src/misc/lv_event.c ****             ENUM_CASE(EVENT_SHORT_CLICKED);
 268:Drivers/lvgl/src/misc/lv_event.c ****             ENUM_CASE(EVENT_SINGLE_CLICKED);
 269:Drivers/lvgl/src/misc/lv_event.c ****             ENUM_CASE(EVENT_DOUBLE_CLICKED);
 270:Drivers/lvgl/src/misc/lv_event.c ****             ENUM_CASE(EVENT_TRIPLE_CLICKED);
 271:Drivers/lvgl/src/misc/lv_event.c ****             ENUM_CASE(EVENT_LONG_PRESSED);
 272:Drivers/lvgl/src/misc/lv_event.c ****             ENUM_CASE(EVENT_LONG_PRESSED_REPEAT);
 273:Drivers/lvgl/src/misc/lv_event.c ****             ENUM_CASE(EVENT_CLICKED);
 274:Drivers/lvgl/src/misc/lv_event.c ****             ENUM_CASE(EVENT_RELEASED);
 275:Drivers/lvgl/src/misc/lv_event.c ****             ENUM_CASE(EVENT_SCROLL_BEGIN);
 276:Drivers/lvgl/src/misc/lv_event.c ****             ENUM_CASE(EVENT_SCROLL_THROW_BEGIN);
 277:Drivers/lvgl/src/misc/lv_event.c ****             ENUM_CASE(EVENT_SCROLL_END);
 278:Drivers/lvgl/src/misc/lv_event.c ****             ENUM_CASE(EVENT_SCROLL);
 279:Drivers/lvgl/src/misc/lv_event.c ****             ENUM_CASE(EVENT_GESTURE);
 280:Drivers/lvgl/src/misc/lv_event.c ****             ENUM_CASE(EVENT_KEY);
 281:Drivers/lvgl/src/misc/lv_event.c ****             ENUM_CASE(EVENT_ROTARY);
 282:Drivers/lvgl/src/misc/lv_event.c ****             ENUM_CASE(EVENT_FOCUSED);
 283:Drivers/lvgl/src/misc/lv_event.c ****             ENUM_CASE(EVENT_DEFOCUSED);
 284:Drivers/lvgl/src/misc/lv_event.c ****             ENUM_CASE(EVENT_LEAVE);
 285:Drivers/lvgl/src/misc/lv_event.c ****             ENUM_CASE(EVENT_HIT_TEST);
 286:Drivers/lvgl/src/misc/lv_event.c ****             ENUM_CASE(EVENT_INDEV_RESET);
 287:Drivers/lvgl/src/misc/lv_event.c ****             ENUM_CASE(EVENT_HOVER_OVER);
 288:Drivers/lvgl/src/misc/lv_event.c ****             ENUM_CASE(EVENT_HOVER_LEAVE);
 289:Drivers/lvgl/src/misc/lv_event.c **** 
 290:Drivers/lvgl/src/misc/lv_event.c ****             /** Drawing events*/
 291:Drivers/lvgl/src/misc/lv_event.c ****             ENUM_CASE(EVENT_COVER_CHECK);
 292:Drivers/lvgl/src/misc/lv_event.c ****             ENUM_CASE(EVENT_REFR_EXT_DRAW_SIZE);
 293:Drivers/lvgl/src/misc/lv_event.c ****             ENUM_CASE(EVENT_DRAW_MAIN_BEGIN);
 294:Drivers/lvgl/src/misc/lv_event.c ****             ENUM_CASE(EVENT_DRAW_MAIN);
 295:Drivers/lvgl/src/misc/lv_event.c ****             ENUM_CASE(EVENT_DRAW_MAIN_END);
 296:Drivers/lvgl/src/misc/lv_event.c ****             ENUM_CASE(EVENT_DRAW_POST_BEGIN);
 297:Drivers/lvgl/src/misc/lv_event.c ****             ENUM_CASE(EVENT_DRAW_POST);
 298:Drivers/lvgl/src/misc/lv_event.c ****             ENUM_CASE(EVENT_DRAW_POST_END);
 299:Drivers/lvgl/src/misc/lv_event.c ****             ENUM_CASE(EVENT_DRAW_TASK_ADDED);
 300:Drivers/lvgl/src/misc/lv_event.c **** 
 301:Drivers/lvgl/src/misc/lv_event.c ****             /** Special events*/
 302:Drivers/lvgl/src/misc/lv_event.c ****             ENUM_CASE(EVENT_VALUE_CHANGED);
 303:Drivers/lvgl/src/misc/lv_event.c ****             ENUM_CASE(EVENT_INSERT);
 304:Drivers/lvgl/src/misc/lv_event.c ****             ENUM_CASE(EVENT_REFRESH);
 305:Drivers/lvgl/src/misc/lv_event.c ****             ENUM_CASE(EVENT_READY);
 306:Drivers/lvgl/src/misc/lv_event.c ****             ENUM_CASE(EVENT_CANCEL);
 307:Drivers/lvgl/src/misc/lv_event.c **** 
 308:Drivers/lvgl/src/misc/lv_event.c ****             /** Other events*/
 309:Drivers/lvgl/src/misc/lv_event.c ****             ENUM_CASE(EVENT_CREATE);
 310:Drivers/lvgl/src/misc/lv_event.c ****             ENUM_CASE(EVENT_DELETE);
 311:Drivers/lvgl/src/misc/lv_event.c ****             ENUM_CASE(EVENT_CHILD_CHANGED);
 312:Drivers/lvgl/src/misc/lv_event.c ****             ENUM_CASE(EVENT_CHILD_CREATED);
 313:Drivers/lvgl/src/misc/lv_event.c ****             ENUM_CASE(EVENT_CHILD_DELETED);
 314:Drivers/lvgl/src/misc/lv_event.c ****             ENUM_CASE(EVENT_SCREEN_UNLOAD_START);
 315:Drivers/lvgl/src/misc/lv_event.c ****             ENUM_CASE(EVENT_SCREEN_LOAD_START);
ARM GAS  /tmp/ccroaa0e.s 			page 7


 316:Drivers/lvgl/src/misc/lv_event.c ****             ENUM_CASE(EVENT_SCREEN_LOADED);
 317:Drivers/lvgl/src/misc/lv_event.c ****             ENUM_CASE(EVENT_SCREEN_UNLOADED);
 318:Drivers/lvgl/src/misc/lv_event.c ****             ENUM_CASE(EVENT_SIZE_CHANGED);
 319:Drivers/lvgl/src/misc/lv_event.c ****             ENUM_CASE(EVENT_STYLE_CHANGED);
 320:Drivers/lvgl/src/misc/lv_event.c ****             ENUM_CASE(EVENT_LAYOUT_CHANGED);
 321:Drivers/lvgl/src/misc/lv_event.c ****             ENUM_CASE(EVENT_GET_SELF_SIZE);
 322:Drivers/lvgl/src/misc/lv_event.c **** 
 323:Drivers/lvgl/src/misc/lv_event.c ****             /** Events of optional LVGL components*/
 324:Drivers/lvgl/src/misc/lv_event.c ****             ENUM_CASE(EVENT_INVALIDATE_AREA);
 325:Drivers/lvgl/src/misc/lv_event.c ****             ENUM_CASE(EVENT_RESOLUTION_CHANGED);
 326:Drivers/lvgl/src/misc/lv_event.c ****             ENUM_CASE(EVENT_COLOR_FORMAT_CHANGED);
 327:Drivers/lvgl/src/misc/lv_event.c ****             ENUM_CASE(EVENT_REFR_REQUEST);
 328:Drivers/lvgl/src/misc/lv_event.c ****             ENUM_CASE(EVENT_REFR_START);
 329:Drivers/lvgl/src/misc/lv_event.c ****             ENUM_CASE(EVENT_REFR_READY);
 330:Drivers/lvgl/src/misc/lv_event.c ****             ENUM_CASE(EVENT_RENDER_START);
 331:Drivers/lvgl/src/misc/lv_event.c ****             ENUM_CASE(EVENT_RENDER_READY);
 332:Drivers/lvgl/src/misc/lv_event.c ****             ENUM_CASE(EVENT_FLUSH_START);
 333:Drivers/lvgl/src/misc/lv_event.c ****             ENUM_CASE(EVENT_FLUSH_FINISH);
 334:Drivers/lvgl/src/misc/lv_event.c ****             ENUM_CASE(EVENT_FLUSH_WAIT_START);
 335:Drivers/lvgl/src/misc/lv_event.c ****             ENUM_CASE(EVENT_FLUSH_WAIT_FINISH);
 336:Drivers/lvgl/src/misc/lv_event.c **** 
 337:Drivers/lvgl/src/misc/lv_event.c ****             ENUM_CASE(EVENT_VSYNC);
 338:Drivers/lvgl/src/misc/lv_event.c ****             ENUM_CASE(EVENT_VSYNC_REQUEST);
 339:Drivers/lvgl/src/misc/lv_event.c **** 
 340:Drivers/lvgl/src/misc/lv_event.c ****         /* Special event flags */
 341:Drivers/lvgl/src/misc/lv_event.c ****         case LV_EVENT_LAST:
 342:Drivers/lvgl/src/misc/lv_event.c ****         case LV_EVENT_PREPROCESS:
 343:Drivers/lvgl/src/misc/lv_event.c ****         case LV_EVENT_MARKED_DELETING:
 344:Drivers/lvgl/src/misc/lv_event.c ****             break;
 345:Drivers/lvgl/src/misc/lv_event.c **** 
 346:Drivers/lvgl/src/misc/lv_event.c ****             /* Note that default is not added here because when adding new event code,
 347:Drivers/lvgl/src/misc/lv_event.c ****              * if forget to add case, the compiler will automatically report a warning.
 348:Drivers/lvgl/src/misc/lv_event.c ****              */
 349:Drivers/lvgl/src/misc/lv_event.c ****     }
 350:Drivers/lvgl/src/misc/lv_event.c **** 
 351:Drivers/lvgl/src/misc/lv_event.c **** #undef ENUM_CASE
 352:Drivers/lvgl/src/misc/lv_event.c **** 
 353:Drivers/lvgl/src/misc/lv_event.c ****     return "EVENT_UNKNOWN";
 354:Drivers/lvgl/src/misc/lv_event.c **** }
 355:Drivers/lvgl/src/misc/lv_event.c **** 
 356:Drivers/lvgl/src/misc/lv_event.c **** /**********************
 357:Drivers/lvgl/src/misc/lv_event.c ****  *   STATIC FUNCTIONS
 358:Drivers/lvgl/src/misc/lv_event.c ****  **********************/
 359:Drivers/lvgl/src/misc/lv_event.c **** 
 360:Drivers/lvgl/src/misc/lv_event.c **** static void cleanup_event_list_core(lv_array_t * array)
 361:Drivers/lvgl/src/misc/lv_event.c **** {
 362:Drivers/lvgl/src/misc/lv_event.c ****     const uint32_t size = lv_array_size(array);
 363:Drivers/lvgl/src/misc/lv_event.c ****     uint32_t kept_count = 0;
 364:Drivers/lvgl/src/misc/lv_event.c ****     for(uint32_t i = 0; i < size; i++) {
 365:Drivers/lvgl/src/misc/lv_event.c ****         lv_event_dsc_t ** dsc_i = lv_array_at(array, i);
 366:Drivers/lvgl/src/misc/lv_event.c ****         lv_event_dsc_t ** dsc_kept = lv_array_at(array, kept_count);
 367:Drivers/lvgl/src/misc/lv_event.c ****         if(event_is_marked_deleting(*dsc_i)) lv_free(*dsc_i);
 368:Drivers/lvgl/src/misc/lv_event.c ****         else {
 369:Drivers/lvgl/src/misc/lv_event.c ****             *dsc_kept = *dsc_i;
 370:Drivers/lvgl/src/misc/lv_event.c ****             kept_count++;
 371:Drivers/lvgl/src/misc/lv_event.c ****         }
 372:Drivers/lvgl/src/misc/lv_event.c ****     }
ARM GAS  /tmp/ccroaa0e.s 			page 8


 373:Drivers/lvgl/src/misc/lv_event.c **** 
 374:Drivers/lvgl/src/misc/lv_event.c ****     if(kept_count == 0) lv_array_deinit(array);
 375:Drivers/lvgl/src/misc/lv_event.c ****     else lv_array_resize(array, kept_count);
 376:Drivers/lvgl/src/misc/lv_event.c **** }
 377:Drivers/lvgl/src/misc/lv_event.c **** 
 378:Drivers/lvgl/src/misc/lv_event.c **** static void cleanup_event_list(lv_event_list_t * list)
 379:Drivers/lvgl/src/misc/lv_event.c **** {
 380:Drivers/lvgl/src/misc/lv_event.c ****     if(list->is_traversing) return;
 381:Drivers/lvgl/src/misc/lv_event.c ****     if(list->has_marked_deleting == false) return;
 382:Drivers/lvgl/src/misc/lv_event.c **** 
 383:Drivers/lvgl/src/misc/lv_event.c ****     cleanup_event_list_core(&list->array);
 384:Drivers/lvgl/src/misc/lv_event.c **** 
 385:Drivers/lvgl/src/misc/lv_event.c ****     list->has_marked_deleting = false;
 386:Drivers/lvgl/src/misc/lv_event.c **** }
 387:Drivers/lvgl/src/misc/lv_event.c **** 
 388:Drivers/lvgl/src/misc/lv_event.c **** static void event_mark_deleting(lv_event_list_t * list, lv_event_dsc_t * dsc)
 389:Drivers/lvgl/src/misc/lv_event.c **** {
  29              		.loc 1 389 1 view -0
  30              		.cfi_startproc
  31              		@ args = 0, pretend = 0, frame = 0
  32              		@ frame_needed = 0, uses_anonymous_args = 0
  33              		@ link register save eliminated.
 390:Drivers/lvgl/src/misc/lv_event.c ****     list->has_marked_deleting = true;
  34              		.loc 1 390 5 view .LVU1
  35              		.loc 1 390 31 is_stmt 0 view .LVU2
  36 0000 037D     		ldrb	r3, [r0, #20]	@ zero_extendqisi2
  37 0002 43F00203 		orr	r3, r3, #2
  38 0006 0375     		strb	r3, [r0, #20]
 391:Drivers/lvgl/src/misc/lv_event.c ****     dsc->filter |= LV_EVENT_MARKED_DELETING;
  39              		.loc 1 391 5 is_stmt 1 view .LVU3
  40              		.loc 1 391 8 is_stmt 0 view .LVU4
  41 0008 8B68     		ldr	r3, [r1, #8]
  42              		.loc 1 391 17 view .LVU5
  43 000a 43F48033 		orr	r3, r3, #65536
  44 000e 8B60     		str	r3, [r1, #8]
 392:Drivers/lvgl/src/misc/lv_event.c **** }
  45              		.loc 1 392 1 view .LVU6
  46 0010 7047     		bx	lr
  47              		.cfi_endproc
  48              	.LFE209:
  50              		.section	.text.event_is_marked_deleting,"ax",%progbits
  51              		.align	1
  52              		.syntax unified
  53              		.thumb
  54              		.thumb_func
  56              	event_is_marked_deleting:
  57              	.LVL1:
  58              	.LFB210:
 393:Drivers/lvgl/src/misc/lv_event.c **** static bool event_is_marked_deleting(lv_event_dsc_t * dsc)
 394:Drivers/lvgl/src/misc/lv_event.c **** {
  59              		.loc 1 394 1 is_stmt 1 view -0
  60              		.cfi_startproc
  61              		@ args = 0, pretend = 0, frame = 0
  62              		@ frame_needed = 0, uses_anonymous_args = 0
  63              		@ link register save eliminated.
 395:Drivers/lvgl/src/misc/lv_event.c ****     return (dsc->filter & LV_EVENT_MARKED_DELETING) != 0;
  64              		.loc 1 395 5 view .LVU8
ARM GAS  /tmp/ccroaa0e.s 			page 9


  65              		.loc 1 395 16 is_stmt 0 view .LVU9
  66 0000 8068     		ldr	r0, [r0, #8]
  67              	.LVL2:
 396:Drivers/lvgl/src/misc/lv_event.c **** }
  68              		.loc 1 396 1 view .LVU10
  69 0002 C0F30040 		ubfx	r0, r0, #16, #1
  70 0006 7047     		bx	lr
  71              		.cfi_endproc
  72              	.LFE210:
  74              		.section	.text.event_array_size,"ax",%progbits
  75              		.align	1
  76              		.syntax unified
  77              		.thumb
  78              		.thumb_func
  80              	event_array_size:
  81              	.LVL3:
  82              	.LFB211:
 397:Drivers/lvgl/src/misc/lv_event.c **** static uint32_t event_array_size(lv_event_list_t * list)
 398:Drivers/lvgl/src/misc/lv_event.c **** {
  83              		.loc 1 398 1 is_stmt 1 view -0
  84              		.cfi_startproc
  85              		@ args = 0, pretend = 0, frame = 0
  86              		@ frame_needed = 0, uses_anonymous_args = 0
  87              		@ link register save eliminated.
 399:Drivers/lvgl/src/misc/lv_event.c ****     return lv_array_size(&list->array);
  88              		.loc 1 399 5 view .LVU12
  89              	.LBB8:
  90              	.LBI8:
  91              		.file 2 "Drivers/lvgl/src/misc/lv_array.h"
   1:Drivers/lvgl/src/misc/lv_array.h **** /**
   2:Drivers/lvgl/src/misc/lv_array.h ****  * @file lv_array.h
   3:Drivers/lvgl/src/misc/lv_array.h ****  * Array. The elements are dynamically allocated by the 'lv_mem' module.
   4:Drivers/lvgl/src/misc/lv_array.h ****  */
   5:Drivers/lvgl/src/misc/lv_array.h **** 
   6:Drivers/lvgl/src/misc/lv_array.h **** #ifndef LV_ARRAY_H
   7:Drivers/lvgl/src/misc/lv_array.h **** #define LV_ARRAY_H
   8:Drivers/lvgl/src/misc/lv_array.h **** 
   9:Drivers/lvgl/src/misc/lv_array.h **** #ifdef __cplusplus
  10:Drivers/lvgl/src/misc/lv_array.h **** extern "C" {
  11:Drivers/lvgl/src/misc/lv_array.h **** #endif
  12:Drivers/lvgl/src/misc/lv_array.h **** 
  13:Drivers/lvgl/src/misc/lv_array.h **** /*********************
  14:Drivers/lvgl/src/misc/lv_array.h ****  *      INCLUDES
  15:Drivers/lvgl/src/misc/lv_array.h ****  *********************/
  16:Drivers/lvgl/src/misc/lv_array.h **** #include "lv_types.h"
  17:Drivers/lvgl/src/misc/lv_array.h **** 
  18:Drivers/lvgl/src/misc/lv_array.h **** /*********************
  19:Drivers/lvgl/src/misc/lv_array.h ****  *      DEFINES
  20:Drivers/lvgl/src/misc/lv_array.h ****  *********************/
  21:Drivers/lvgl/src/misc/lv_array.h **** 
  22:Drivers/lvgl/src/misc/lv_array.h **** #ifndef LV_ARRAY_DEFAULT_CAPACITY
  23:Drivers/lvgl/src/misc/lv_array.h **** #define LV_ARRAY_DEFAULT_CAPACITY  4
  24:Drivers/lvgl/src/misc/lv_array.h **** #endif
  25:Drivers/lvgl/src/misc/lv_array.h **** 
  26:Drivers/lvgl/src/misc/lv_array.h **** #ifndef LV_ARRAY_DEFAULT_SHRINK_RATIO
  27:Drivers/lvgl/src/misc/lv_array.h **** #define LV_ARRAY_DEFAULT_SHRINK_RATIO 2
  28:Drivers/lvgl/src/misc/lv_array.h **** #endif
ARM GAS  /tmp/ccroaa0e.s 			page 10


  29:Drivers/lvgl/src/misc/lv_array.h **** 
  30:Drivers/lvgl/src/misc/lv_array.h **** /**********************
  31:Drivers/lvgl/src/misc/lv_array.h ****  *      TYPEDEFS
  32:Drivers/lvgl/src/misc/lv_array.h ****  **********************/
  33:Drivers/lvgl/src/misc/lv_array.h **** 
  34:Drivers/lvgl/src/misc/lv_array.h **** /** Description of a array*/
  35:Drivers/lvgl/src/misc/lv_array.h **** struct _lv_array_t {
  36:Drivers/lvgl/src/misc/lv_array.h ****     uint8_t * data;
  37:Drivers/lvgl/src/misc/lv_array.h ****     uint32_t size;
  38:Drivers/lvgl/src/misc/lv_array.h ****     uint32_t capacity;
  39:Drivers/lvgl/src/misc/lv_array.h ****     uint32_t element_size;
  40:Drivers/lvgl/src/misc/lv_array.h **** 
  41:Drivers/lvgl/src/misc/lv_array.h ****     bool inner_alloc; /* true: data is allocated by the array; false: data is allocated by the user
  42:Drivers/lvgl/src/misc/lv_array.h **** };
  43:Drivers/lvgl/src/misc/lv_array.h **** 
  44:Drivers/lvgl/src/misc/lv_array.h **** /**********************
  45:Drivers/lvgl/src/misc/lv_array.h ****  * GLOBAL PROTOTYPES
  46:Drivers/lvgl/src/misc/lv_array.h ****  **********************/
  47:Drivers/lvgl/src/misc/lv_array.h **** 
  48:Drivers/lvgl/src/misc/lv_array.h **** /**
  49:Drivers/lvgl/src/misc/lv_array.h ****  * Init an array.
  50:Drivers/lvgl/src/misc/lv_array.h ****  * @param array pointer to an `lv_array_t` variable to initialize
  51:Drivers/lvgl/src/misc/lv_array.h ****  * @param capacity the initial capacity of the array
  52:Drivers/lvgl/src/misc/lv_array.h ****  * @param element_size the size of an element in bytes
  53:Drivers/lvgl/src/misc/lv_array.h ****  */
  54:Drivers/lvgl/src/misc/lv_array.h **** void lv_array_init(lv_array_t * array, uint32_t capacity, uint32_t element_size);
  55:Drivers/lvgl/src/misc/lv_array.h **** 
  56:Drivers/lvgl/src/misc/lv_array.h **** /**
  57:Drivers/lvgl/src/misc/lv_array.h ****  * Init an array from a buffer.
  58:Drivers/lvgl/src/misc/lv_array.h ****  * @note The buffer must be large enough to store `capacity` elements. The array will not release t
  59:Drivers/lvgl/src/misc/lv_array.h ****  *       The user must ensure that the buffer is valid during the lifetime of the array. And releas
  60:Drivers/lvgl/src/misc/lv_array.h ****  * @param array pointer to an `lv_array_t` variable to initialize
  61:Drivers/lvgl/src/misc/lv_array.h ****  * @param buf pointer to a buffer to use as the array's data
  62:Drivers/lvgl/src/misc/lv_array.h ****  * @param capacity the initial capacity of the array
  63:Drivers/lvgl/src/misc/lv_array.h ****  * @param element_size the size of an element in bytes
  64:Drivers/lvgl/src/misc/lv_array.h ****  */
  65:Drivers/lvgl/src/misc/lv_array.h **** void lv_array_init_from_buf(lv_array_t * array, void * buf, uint32_t capacity, uint32_t element_siz
  66:Drivers/lvgl/src/misc/lv_array.h **** 
  67:Drivers/lvgl/src/misc/lv_array.h **** /**
  68:Drivers/lvgl/src/misc/lv_array.h ****  * Resize the array to the given capacity.
  69:Drivers/lvgl/src/misc/lv_array.h ****  * @note if the new capacity is smaller than the current size, the array will be truncated.
  70:Drivers/lvgl/src/misc/lv_array.h ****  * @param array pointer to an `lv_array_t` variable
  71:Drivers/lvgl/src/misc/lv_array.h ****  * @param new_capacity the new capacity of the array
  72:Drivers/lvgl/src/misc/lv_array.h ****  */
  73:Drivers/lvgl/src/misc/lv_array.h **** bool lv_array_resize(lv_array_t * array, uint32_t new_capacity);
  74:Drivers/lvgl/src/misc/lv_array.h **** 
  75:Drivers/lvgl/src/misc/lv_array.h **** /**
  76:Drivers/lvgl/src/misc/lv_array.h ****  * Deinit the array, and free the allocated memory
  77:Drivers/lvgl/src/misc/lv_array.h ****  * @param array pointer to an `lv_array_t` variable to deinitialize
  78:Drivers/lvgl/src/misc/lv_array.h ****  */
  79:Drivers/lvgl/src/misc/lv_array.h **** void lv_array_deinit(lv_array_t * array);
  80:Drivers/lvgl/src/misc/lv_array.h **** 
  81:Drivers/lvgl/src/misc/lv_array.h **** /**
  82:Drivers/lvgl/src/misc/lv_array.h ****  * Return how many elements are stored in the array.
  83:Drivers/lvgl/src/misc/lv_array.h ****  * @param array pointer to an `lv_array_t` variable
  84:Drivers/lvgl/src/misc/lv_array.h ****  * @return the number of elements stored in the array
  85:Drivers/lvgl/src/misc/lv_array.h ****  */
ARM GAS  /tmp/ccroaa0e.s 			page 11


  86:Drivers/lvgl/src/misc/lv_array.h **** static inline uint32_t lv_array_size(const lv_array_t * array)
  92              		.loc 2 86 24 view .LVU13
  93              	.LBB9:
  87:Drivers/lvgl/src/misc/lv_array.h **** {
  88:Drivers/lvgl/src/misc/lv_array.h ****     return array->size;
  94              		.loc 2 88 5 view .LVU14
  95              		.loc 2 88 5 is_stmt 0 view .LVU15
  96              	.LBE9:
  97              	.LBE8:
 400:Drivers/lvgl/src/misc/lv_event.c **** }
  98              		.loc 1 400 1 view .LVU16
  99 0000 4068     		ldr	r0, [r0, #4]
 100              	.LVL4:
 101              		.loc 1 400 1 view .LVU17
 102 0002 7047     		bx	lr
 103              		.cfi_endproc
 104              	.LFE211:
 106              		.section	.text.event_array_at,"ax",%progbits
 107              		.align	1
 108              		.syntax unified
 109              		.thumb
 110              		.thumb_func
 112              	event_array_at:
 113              	.LVL5:
 114              	.LFB212:
 401:Drivers/lvgl/src/misc/lv_event.c **** static lv_event_dsc_t ** event_array_at(lv_event_list_t * list, uint32_t index)
 402:Drivers/lvgl/src/misc/lv_event.c **** {
 115              		.loc 1 402 1 is_stmt 1 view -0
 116              		.cfi_startproc
 117              		@ args = 0, pretend = 0, frame = 0
 118              		@ frame_needed = 0, uses_anonymous_args = 0
 119              		.loc 1 402 1 is_stmt 0 view .LVU19
 120 0000 08B5     		push	{r3, lr}
 121              	.LCFI0:
 122              		.cfi_def_cfa_offset 8
 123              		.cfi_offset 3, -8
 124              		.cfi_offset 14, -4
 403:Drivers/lvgl/src/misc/lv_event.c ****     return lv_array_at(&list->array, index);
 125              		.loc 1 403 5 is_stmt 1 view .LVU20
 126              		.loc 1 403 12 is_stmt 0 view .LVU21
 127 0002 FFF7FEFF 		bl	lv_array_at
 128              	.LVL6:
 404:Drivers/lvgl/src/misc/lv_event.c **** }
 129              		.loc 1 404 1 view .LVU22
 130 0006 08BD     		pop	{r3, pc}
 131              		.cfi_endproc
 132              	.LFE212:
 134              		.section	.text.cleanup_event_list_core,"ax",%progbits
 135              		.align	1
 136              		.syntax unified
 137              		.thumb
 138              		.thumb_func
 140              	cleanup_event_list_core:
 141              	.LVL7:
 142              	.LFB207:
 361:Drivers/lvgl/src/misc/lv_event.c ****     const uint32_t size = lv_array_size(array);
 143              		.loc 1 361 1 is_stmt 1 view -0
ARM GAS  /tmp/ccroaa0e.s 			page 12


 144              		.cfi_startproc
 145              		@ args = 0, pretend = 0, frame = 0
 146              		@ frame_needed = 0, uses_anonymous_args = 0
 361:Drivers/lvgl/src/misc/lv_event.c ****     const uint32_t size = lv_array_size(array);
 147              		.loc 1 361 1 is_stmt 0 view .LVU24
 148 0000 2DE9F843 		push	{r3, r4, r5, r6, r7, r8, r9, lr}
 149              	.LCFI1:
 150              		.cfi_def_cfa_offset 32
 151              		.cfi_offset 3, -32
 152              		.cfi_offset 4, -28
 153              		.cfi_offset 5, -24
 154              		.cfi_offset 6, -20
 155              		.cfi_offset 7, -16
 156              		.cfi_offset 8, -12
 157              		.cfi_offset 9, -8
 158              		.cfi_offset 14, -4
 159 0004 8046     		mov	r8, r0
 362:Drivers/lvgl/src/misc/lv_event.c ****     uint32_t kept_count = 0;
 160              		.loc 1 362 5 is_stmt 1 view .LVU25
 161              	.LVL8:
 162              	.LBB10:
 163              	.LBI10:
  86:Drivers/lvgl/src/misc/lv_array.h **** {
 164              		.loc 2 86 24 view .LVU26
 165              	.LBB11:
 166              		.loc 2 88 5 view .LVU27
 167              		.loc 2 88 17 is_stmt 0 view .LVU28
 168 0006 D0F80490 		ldr	r9, [r0, #4]
 169              	.LVL9:
 170              		.loc 2 88 17 view .LVU29
 171              	.LBE11:
 172              	.LBE10:
 363:Drivers/lvgl/src/misc/lv_event.c ****     for(uint32_t i = 0; i < size; i++) {
 173              		.loc 1 363 5 is_stmt 1 view .LVU30
 364:Drivers/lvgl/src/misc/lv_event.c ****         lv_event_dsc_t ** dsc_i = lv_array_at(array, i);
 174              		.loc 1 364 5 view .LVU31
 175              	.LBB12:
 364:Drivers/lvgl/src/misc/lv_event.c ****         lv_event_dsc_t ** dsc_i = lv_array_at(array, i);
 176              		.loc 1 364 9 view .LVU32
 364:Drivers/lvgl/src/misc/lv_event.c ****         lv_event_dsc_t ** dsc_i = lv_array_at(array, i);
 177              		.loc 1 364 18 is_stmt 0 view .LVU33
 178 000a 0024     		movs	r4, #0
 179              	.LBE12:
 363:Drivers/lvgl/src/misc/lv_event.c ****     for(uint32_t i = 0; i < size; i++) {
 180              		.loc 1 363 14 view .LVU34
 181 000c 2746     		mov	r7, r4
 182              	.LBB15:
 364:Drivers/lvgl/src/misc/lv_event.c ****         lv_event_dsc_t ** dsc_i = lv_array_at(array, i);
 183              		.loc 1 364 5 view .LVU35
 184 000e 03E0     		b	.L7
 185              	.LVL10:
 186              	.L15:
 187              	.LBB13:
 367:Drivers/lvgl/src/misc/lv_event.c ****         else {
 188              		.loc 1 367 46 is_stmt 1 discriminator 1 view .LVU36
 189 0010 2846     		mov	r0, r5
 190 0012 FFF7FEFF 		bl	lv_free
ARM GAS  /tmp/ccroaa0e.s 			page 13


 191              	.LVL11:
 192              	.L9:
 367:Drivers/lvgl/src/misc/lv_event.c ****         else {
 193              		.loc 1 367 46 is_stmt 0 discriminator 1 view .LVU37
 194              	.LBE13:
 364:Drivers/lvgl/src/misc/lv_event.c ****         lv_event_dsc_t ** dsc_i = lv_array_at(array, i);
 195              		.loc 1 364 36 is_stmt 1 discriminator 2 view .LVU38
 196 0016 0134     		adds	r4, r4, #1
 197              	.LVL12:
 198              	.L7:
 364:Drivers/lvgl/src/misc/lv_event.c ****         lv_event_dsc_t ** dsc_i = lv_array_at(array, i);
 199              		.loc 1 364 27 discriminator 1 view .LVU39
 200 0018 4C45     		cmp	r4, r9
 201 001a 12D2     		bcs	.L14
 202              	.LBB14:
 365:Drivers/lvgl/src/misc/lv_event.c ****         lv_event_dsc_t ** dsc_kept = lv_array_at(array, kept_count);
 203              		.loc 1 365 9 view .LVU40
 365:Drivers/lvgl/src/misc/lv_event.c ****         lv_event_dsc_t ** dsc_kept = lv_array_at(array, kept_count);
 204              		.loc 1 365 35 is_stmt 0 view .LVU41
 205 001c 2146     		mov	r1, r4
 206 001e 4046     		mov	r0, r8
 207 0020 FFF7FEFF 		bl	lv_array_at
 208              	.LVL13:
 209 0024 0546     		mov	r5, r0
 210              	.LVL14:
 366:Drivers/lvgl/src/misc/lv_event.c ****         if(event_is_marked_deleting(*dsc_i)) lv_free(*dsc_i);
 211              		.loc 1 366 9 is_stmt 1 view .LVU42
 366:Drivers/lvgl/src/misc/lv_event.c ****         if(event_is_marked_deleting(*dsc_i)) lv_free(*dsc_i);
 212              		.loc 1 366 38 is_stmt 0 view .LVU43
 213 0026 3946     		mov	r1, r7
 214 0028 4046     		mov	r0, r8
 215              	.LVL15:
 366:Drivers/lvgl/src/misc/lv_event.c ****         if(event_is_marked_deleting(*dsc_i)) lv_free(*dsc_i);
 216              		.loc 1 366 38 view .LVU44
 217 002a FFF7FEFF 		bl	lv_array_at
 218              	.LVL16:
 219 002e 0646     		mov	r6, r0
 220              	.LVL17:
 367:Drivers/lvgl/src/misc/lv_event.c ****         else {
 221              		.loc 1 367 9 is_stmt 1 view .LVU45
 367:Drivers/lvgl/src/misc/lv_event.c ****         else {
 222              		.loc 1 367 12 is_stmt 0 view .LVU46
 223 0030 2D68     		ldr	r5, [r5]
 224              	.LVL18:
 367:Drivers/lvgl/src/misc/lv_event.c ****         else {
 225              		.loc 1 367 12 view .LVU47
 226 0032 2846     		mov	r0, r5
 227              	.LVL19:
 367:Drivers/lvgl/src/misc/lv_event.c ****         else {
 228              		.loc 1 367 12 view .LVU48
 229 0034 FFF7FEFF 		bl	event_is_marked_deleting
 230              	.LVL20:
 367:Drivers/lvgl/src/misc/lv_event.c ****         else {
 231              		.loc 1 367 11 discriminator 1 view .LVU49
 232 0038 0028     		cmp	r0, #0
 233 003a E9D1     		bne	.L15
 369:Drivers/lvgl/src/misc/lv_event.c ****             kept_count++;
ARM GAS  /tmp/ccroaa0e.s 			page 14


 234              		.loc 1 369 13 is_stmt 1 view .LVU50
 369:Drivers/lvgl/src/misc/lv_event.c ****             kept_count++;
 235              		.loc 1 369 23 is_stmt 0 view .LVU51
 236 003c 3560     		str	r5, [r6]
 370:Drivers/lvgl/src/misc/lv_event.c ****         }
 237              		.loc 1 370 13 is_stmt 1 view .LVU52
 370:Drivers/lvgl/src/misc/lv_event.c ****         }
 238              		.loc 1 370 23 is_stmt 0 view .LVU53
 239 003e 0137     		adds	r7, r7, #1
 240              	.LVL21:
 370:Drivers/lvgl/src/misc/lv_event.c ****         }
 241              		.loc 1 370 23 view .LVU54
 242 0040 E9E7     		b	.L9
 243              	.LVL22:
 244              	.L14:
 370:Drivers/lvgl/src/misc/lv_event.c ****         }
 245              		.loc 1 370 23 view .LVU55
 246              	.LBE14:
 247              	.LBE15:
 374:Drivers/lvgl/src/misc/lv_event.c ****     else lv_array_resize(array, kept_count);
 248              		.loc 1 374 5 is_stmt 1 view .LVU56
 374:Drivers/lvgl/src/misc/lv_event.c ****     else lv_array_resize(array, kept_count);
 249              		.loc 1 374 7 is_stmt 0 view .LVU57
 250 0042 27B9     		cbnz	r7, .L11
 374:Drivers/lvgl/src/misc/lv_event.c ****     else lv_array_resize(array, kept_count);
 251              		.loc 1 374 25 is_stmt 1 discriminator 1 view .LVU58
 252 0044 4046     		mov	r0, r8
 253 0046 FFF7FEFF 		bl	lv_array_deinit
 254              	.LVL23:
 255              	.L6:
 376:Drivers/lvgl/src/misc/lv_event.c **** 
 256              		.loc 1 376 1 is_stmt 0 view .LVU59
 257 004a BDE8F883 		pop	{r3, r4, r5, r6, r7, r8, r9, pc}
 258              	.LVL24:
 259              	.L11:
 375:Drivers/lvgl/src/misc/lv_event.c **** }
 260              		.loc 1 375 10 is_stmt 1 view .LVU60
 261 004e 3946     		mov	r1, r7
 262 0050 4046     		mov	r0, r8
 263 0052 FFF7FEFF 		bl	lv_array_resize
 264              	.LVL25:
 376:Drivers/lvgl/src/misc/lv_event.c **** 
 265              		.loc 1 376 1 is_stmt 0 view .LVU61
 266 0056 F8E7     		b	.L6
 267              		.cfi_endproc
 268              	.LFE207:
 270              		.section	.text.cleanup_event_list,"ax",%progbits
 271              		.align	1
 272              		.syntax unified
 273              		.thumb
 274              		.thumb_func
 276              	cleanup_event_list:
 277              	.LVL26:
 278              	.LFB208:
 379:Drivers/lvgl/src/misc/lv_event.c ****     if(list->is_traversing) return;
 279              		.loc 1 379 1 is_stmt 1 view -0
 280              		.cfi_startproc
ARM GAS  /tmp/ccroaa0e.s 			page 15


 281              		@ args = 0, pretend = 0, frame = 0
 282              		@ frame_needed = 0, uses_anonymous_args = 0
 380:Drivers/lvgl/src/misc/lv_event.c ****     if(list->has_marked_deleting == false) return;
 283              		.loc 1 380 5 view .LVU63
 380:Drivers/lvgl/src/misc/lv_event.c ****     if(list->has_marked_deleting == false) return;
 284              		.loc 1 380 8 is_stmt 0 view .LVU64
 285 0000 037D     		ldrb	r3, [r0, #20]	@ zero_extendqisi2
 380:Drivers/lvgl/src/misc/lv_event.c ****     if(list->has_marked_deleting == false) return;
 286              		.loc 1 380 7 view .LVU65
 287 0002 13F0010F 		tst	r3, #1
 288 0006 0CD1     		bne	.L19
 379:Drivers/lvgl/src/misc/lv_event.c ****     if(list->is_traversing) return;
 289              		.loc 1 379 1 view .LVU66
 290 0008 10B5     		push	{r4, lr}
 291              	.LCFI2:
 292              		.cfi_def_cfa_offset 8
 293              		.cfi_offset 4, -8
 294              		.cfi_offset 14, -4
 295 000a 0446     		mov	r4, r0
 381:Drivers/lvgl/src/misc/lv_event.c **** 
 296              		.loc 1 381 5 is_stmt 1 view .LVU67
 381:Drivers/lvgl/src/misc/lv_event.c **** 
 297              		.loc 1 381 7 is_stmt 0 view .LVU68
 298 000c 13F0020F 		tst	r3, #2
 299 0010 00D1     		bne	.L22
 300              	.LVL27:
 301              	.L16:
 386:Drivers/lvgl/src/misc/lv_event.c **** 
 302              		.loc 1 386 1 view .LVU69
 303 0012 10BD     		pop	{r4, pc}
 304              	.LVL28:
 305              	.L22:
 383:Drivers/lvgl/src/misc/lv_event.c **** 
 306              		.loc 1 383 5 is_stmt 1 view .LVU70
 307 0014 FFF7FEFF 		bl	cleanup_event_list_core
 308              	.LVL29:
 385:Drivers/lvgl/src/misc/lv_event.c **** }
 309              		.loc 1 385 5 view .LVU71
 385:Drivers/lvgl/src/misc/lv_event.c **** }
 310              		.loc 1 385 31 is_stmt 0 view .LVU72
 311 0018 237D     		ldrb	r3, [r4, #20]	@ zero_extendqisi2
 312 001a 23F00203 		bic	r3, r3, #2
 313 001e 2375     		strb	r3, [r4, #20]
 314 0020 F7E7     		b	.L16
 315              	.LVL30:
 316              	.L19:
 317              	.LCFI3:
 318              		.cfi_def_cfa_offset 0
 319              		.cfi_restore 4
 320              		.cfi_restore 14
 385:Drivers/lvgl/src/misc/lv_event.c **** }
 321              		.loc 1 385 31 view .LVU73
 322 0022 7047     		bx	lr
 323              		.cfi_endproc
 324              	.LFE208:
 326              		.section	.text.lv_event_push,"ax",%progbits
 327              		.align	1
ARM GAS  /tmp/ccroaa0e.s 			page 16


 328              		.global	lv_event_push
 329              		.syntax unified
 330              		.thumb
 331              		.thumb_func
 333              	lv_event_push:
 334              	.LVL31:
 335              	.LFB186:
  58:Drivers/lvgl/src/misc/lv_event.c ****     /*Build a simple linked list from the objects used in the events
 336              		.loc 1 58 1 is_stmt 1 view -0
 337              		.cfi_startproc
 338              		@ args = 0, pretend = 0, frame = 0
 339              		@ frame_needed = 0, uses_anonymous_args = 0
 340              		@ link register save eliminated.
  62:Drivers/lvgl/src/misc/lv_event.c ****     event_head = e;
 341              		.loc 1 62 5 view .LVU75
  62:Drivers/lvgl/src/misc/lv_event.c ****     event_head = e;
 342              		.loc 1 62 15 is_stmt 0 view .LVU76
 343 0000 024B     		ldr	r3, .L24
 344 0002 DA6E     		ldr	r2, [r3, #108]
  62:Drivers/lvgl/src/misc/lv_event.c ****     event_head = e;
 345              		.loc 1 62 13 view .LVU77
 346 0004 4261     		str	r2, [r0, #20]
  63:Drivers/lvgl/src/misc/lv_event.c **** 
 347              		.loc 1 63 5 is_stmt 1 view .LVU78
  63:Drivers/lvgl/src/misc/lv_event.c **** 
 348              		.loc 1 63 16 is_stmt 0 view .LVU79
 349 0006 D866     		str	r0, [r3, #108]
  65:Drivers/lvgl/src/misc/lv_event.c **** 
 350              		.loc 1 65 1 view .LVU80
 351 0008 7047     		bx	lr
 352              	.L25:
 353 000a 00BF     		.align	2
 354              	.L24:
 355 000c 00000000 		.word	lv_global
 356              		.cfi_endproc
 357              	.LFE186:
 359              		.section	.text.lv_event_pop,"ax",%progbits
 360              		.align	1
 361              		.global	lv_event_pop
 362              		.syntax unified
 363              		.thumb
 364              		.thumb_func
 366              	lv_event_pop:
 367              	.LVL32:
 368              	.LFB187:
  68:Drivers/lvgl/src/misc/lv_event.c ****     event_head = e->prev;
 369              		.loc 1 68 1 is_stmt 1 view -0
 370              		.cfi_startproc
 371              		@ args = 0, pretend = 0, frame = 0
 372              		@ frame_needed = 0, uses_anonymous_args = 0
 373              		@ link register save eliminated.
  69:Drivers/lvgl/src/misc/lv_event.c **** }
 374              		.loc 1 69 5 view .LVU82
  69:Drivers/lvgl/src/misc/lv_event.c **** }
 375              		.loc 1 69 19 is_stmt 0 view .LVU83
 376 0000 4269     		ldr	r2, [r0, #20]
  69:Drivers/lvgl/src/misc/lv_event.c **** }
ARM GAS  /tmp/ccroaa0e.s 			page 17


 377              		.loc 1 69 16 view .LVU84
 378 0002 014B     		ldr	r3, .L27
 379 0004 DA66     		str	r2, [r3, #108]
  70:Drivers/lvgl/src/misc/lv_event.c **** 
 380              		.loc 1 70 1 view .LVU85
 381 0006 7047     		bx	lr
 382              	.L28:
 383              		.align	2
 384              	.L27:
 385 0008 00000000 		.word	lv_global
 386              		.cfi_endproc
 387              	.LFE187:
 389              		.section	.text.lv_event_send,"ax",%progbits
 390              		.align	1
 391              		.global	lv_event_send
 392              		.syntax unified
 393              		.thumb
 394              		.thumb_func
 396              	lv_event_send:
 397              	.LVL33:
 398              	.LFB188:
  73:Drivers/lvgl/src/misc/lv_event.c ****     if(list == NULL) return LV_RESULT_OK;
 399              		.loc 1 73 1 is_stmt 1 view -0
 400              		.cfi_startproc
 401              		@ args = 0, pretend = 0, frame = 24
 402              		@ frame_needed = 0, uses_anonymous_args = 0
  73:Drivers/lvgl/src/misc/lv_event.c ****     if(list == NULL) return LV_RESULT_OK;
 403              		.loc 1 73 1 is_stmt 0 view .LVU87
 404 0000 2DE9F047 		push	{r4, r5, r6, r7, r8, r9, r10, lr}
 405              	.LCFI4:
 406              		.cfi_def_cfa_offset 32
 407              		.cfi_offset 4, -32
 408              		.cfi_offset 5, -28
 409              		.cfi_offset 6, -24
 410              		.cfi_offset 7, -20
 411              		.cfi_offset 8, -16
 412              		.cfi_offset 9, -12
 413              		.cfi_offset 10, -8
 414              		.cfi_offset 14, -4
 415 0004 86B0     		sub	sp, sp, #24
 416              	.LCFI5:
 417              		.cfi_def_cfa_offset 56
  74:Drivers/lvgl/src/misc/lv_event.c ****     if(e->deleted) return LV_RESULT_INVALID;
 418              		.loc 1 74 5 is_stmt 1 view .LVU88
  74:Drivers/lvgl/src/misc/lv_event.c ****     if(e->deleted) return LV_RESULT_INVALID;
 419              		.loc 1 74 7 is_stmt 0 view .LVU89
 420 0006 0028     		cmp	r0, #0
 421 0008 5CD0     		beq	.L37
 422 000a 0E46     		mov	r6, r1
 423 000c 9146     		mov	r9, r2
 424 000e 0746     		mov	r7, r0
  75:Drivers/lvgl/src/misc/lv_event.c **** 
 425              		.loc 1 75 5 is_stmt 1 view .LVU90
  75:Drivers/lvgl/src/misc/lv_event.c **** 
 426              		.loc 1 75 8 is_stmt 0 view .LVU91
 427 0010 0B7E     		ldrb	r3, [r1, #24]	@ zero_extendqisi2
  75:Drivers/lvgl/src/misc/lv_event.c **** 
ARM GAS  /tmp/ccroaa0e.s 			page 18


 428              		.loc 1 75 7 view .LVU92
 429 0012 13F0010F 		tst	r3, #1
 430 0016 57D1     		bne	.L38
  81:Drivers/lvgl/src/misc/lv_event.c **** 
 431              		.loc 1 81 5 is_stmt 1 view .LVU93
  81:Drivers/lvgl/src/misc/lv_event.c **** 
 432              		.loc 1 81 16 is_stmt 0 view .LVU94
 433 0018 01AC     		add	r4, sp, #4
 434 001a 0546     		mov	r5, r0
 435 001c 0FCD     		ldmia	r5!, {r0, r1, r2, r3}
 436              	.LVL34:
  81:Drivers/lvgl/src/misc/lv_event.c **** 
 437              		.loc 1 81 16 view .LVU95
 438 001e 0FC4     		stmia	r4!, {r0, r1, r2, r3}
 439 0020 2B68     		ldr	r3, [r5]
 440 0022 2360     		str	r3, [r4]
  84:Drivers/lvgl/src/misc/lv_event.c ****     list->is_traversing = true;
 441              		.loc 1 84 5 is_stmt 1 view .LVU96
  84:Drivers/lvgl/src/misc/lv_event.c ****     list->is_traversing = true;
 442              		.loc 1 84 16 is_stmt 0 view .LVU97
 443 0024 3B7D     		ldrb	r3, [r7, #20]	@ zero_extendqisi2
 444 0026 03F0010A 		and	r10, r3, #1
 445              	.LVL35:
  85:Drivers/lvgl/src/misc/lv_event.c **** 
 446              		.loc 1 85 5 is_stmt 1 view .LVU98
  85:Drivers/lvgl/src/misc/lv_event.c **** 
 447              		.loc 1 85 25 is_stmt 0 view .LVU99
 448 002a 43F00103 		orr	r3, r3, #1
 449              	.LVL36:
  85:Drivers/lvgl/src/misc/lv_event.c **** 
 450              		.loc 1 85 25 view .LVU100
 451 002e 3B75     		strb	r3, [r7, #20]
 452              	.LVL37:
  87:Drivers/lvgl/src/misc/lv_event.c ****     const uint32_t size = event_array_size(list);
 453              		.loc 1 87 5 is_stmt 1 view .LVU101
  88:Drivers/lvgl/src/misc/lv_event.c ****     for(uint32_t i = 0; i < size && !e->deleted; i++) {
 454              		.loc 1 88 5 view .LVU102
  88:Drivers/lvgl/src/misc/lv_event.c ****     for(uint32_t i = 0; i < size && !e->deleted; i++) {
 455              		.loc 1 88 27 is_stmt 0 view .LVU103
 456 0030 3846     		mov	r0, r7
 457 0032 FFF7FEFF 		bl	event_array_size
 458              	.LVL38:
 459 0036 8046     		mov	r8, r0
 460              	.LVL39:
  89:Drivers/lvgl/src/misc/lv_event.c ****         lv_event_dsc_t * dsc = *event_array_at(list, i);
 461              		.loc 1 89 5 is_stmt 1 view .LVU104
 462              	.LBB16:
  89:Drivers/lvgl/src/misc/lv_event.c ****         lv_event_dsc_t * dsc = *event_array_at(list, i);
 463              		.loc 1 89 9 view .LVU105
  89:Drivers/lvgl/src/misc/lv_event.c ****         lv_event_dsc_t * dsc = *event_array_at(list, i);
 464              		.loc 1 89 18 is_stmt 0 view .LVU106
 465 0038 0024     		movs	r4, #0
  89:Drivers/lvgl/src/misc/lv_event.c ****         lv_event_dsc_t * dsc = *event_array_at(list, i);
 466              		.loc 1 89 5 view .LVU107
 467 003a 0CE0     		b	.L31
 468              	.LVL40:
 469              	.L33:
ARM GAS  /tmp/ccroaa0e.s 			page 19


 470              	.LBB17:
  97:Drivers/lvgl/src/misc/lv_event.c ****             dsc->cb(e);
 471              		.loc 1 97 13 is_stmt 1 view .LVU108
  97:Drivers/lvgl/src/misc/lv_event.c ****             dsc->cb(e);
 472              		.loc 1 97 31 is_stmt 0 view .LVU109
 473 003c 6B68     		ldr	r3, [r5, #4]
 474              	.LVL41:
  97:Drivers/lvgl/src/misc/lv_event.c ****             dsc->cb(e);
 475              		.loc 1 97 26 view .LVU110
 476 003e F360     		str	r3, [r6, #12]
 477              	.LVL42:
  98:Drivers/lvgl/src/misc/lv_event.c ****             if(e->stop_processing) break;
 478              		.loc 1 98 13 is_stmt 1 view .LVU111
  98:Drivers/lvgl/src/misc/lv_event.c ****             if(e->stop_processing) break;
 479              		.loc 1 98 16 is_stmt 0 view .LVU112
 480 0040 2B68     		ldr	r3, [r5]
  98:Drivers/lvgl/src/misc/lv_event.c ****             if(e->stop_processing) break;
 481              		.loc 1 98 13 view .LVU113
 482 0042 3046     		mov	r0, r6
 483 0044 9847     		blx	r3
 484              	.LVL43:
  99:Drivers/lvgl/src/misc/lv_event.c **** 
 485              		.loc 1 99 13 is_stmt 1 view .LVU114
  99:Drivers/lvgl/src/misc/lv_event.c **** 
 486              		.loc 1 99 16 is_stmt 0 view .LVU115
 487 0046 337E     		ldrb	r3, [r6, #24]	@ zero_extendqisi2
  99:Drivers/lvgl/src/misc/lv_event.c **** 
 488              		.loc 1 99 15 view .LVU116
 489 0048 13F00205 		ands	r5, r3, #2
 490              	.LVL44:
  99:Drivers/lvgl/src/misc/lv_event.c **** 
 491              		.loc 1 99 15 view .LVU117
 492 004c 24D1     		bne	.L39
 102:Drivers/lvgl/src/misc/lv_event.c ****                 res = LV_RESULT_INVALID;
 493              		.loc 1 102 13 is_stmt 1 view .LVU118
 102:Drivers/lvgl/src/misc/lv_event.c ****                 res = LV_RESULT_INVALID;
 494              		.loc 1 102 15 is_stmt 0 view .LVU119
 495 004e 13F0010F 		tst	r3, #1
 496 0052 24D1     		bne	.L34
 497              	.LVL45:
 498              	.L32:
 102:Drivers/lvgl/src/misc/lv_event.c ****                 res = LV_RESULT_INVALID;
 499              		.loc 1 102 15 view .LVU120
 500              	.LBE17:
  89:Drivers/lvgl/src/misc/lv_event.c ****         lv_event_dsc_t * dsc = *event_array_at(list, i);
 501              		.loc 1 89 51 is_stmt 1 discriminator 2 view .LVU121
 502 0054 0134     		adds	r4, r4, #1
 503              	.LVL46:
 504              	.L31:
  89:Drivers/lvgl/src/misc/lv_event.c ****         lv_event_dsc_t * dsc = *event_array_at(list, i);
 505              		.loc 1 89 34 discriminator 1 view .LVU122
 506 0056 4445     		cmp	r4, r8
 507 0058 20D2     		bcs	.L40
  89:Drivers/lvgl/src/misc/lv_event.c ****         lv_event_dsc_t * dsc = *event_array_at(list, i);
 508              		.loc 1 89 37 is_stmt 0 discriminator 3 view .LVU123
 509 005a 337E     		ldrb	r3, [r6, #24]	@ zero_extendqisi2
  89:Drivers/lvgl/src/misc/lv_event.c ****         lv_event_dsc_t * dsc = *event_array_at(list, i);
ARM GAS  /tmp/ccroaa0e.s 			page 20


 510              		.loc 1 89 34 discriminator 3 view .LVU124
 511 005c 13F0010F 		tst	r3, #1
 512 0060 18D1     		bne	.L42
 513              	.LBB18:
  90:Drivers/lvgl/src/misc/lv_event.c ****         if(dsc->cb == NULL) continue;
 514              		.loc 1 90 9 is_stmt 1 view .LVU125
  90:Drivers/lvgl/src/misc/lv_event.c ****         if(dsc->cb == NULL) continue;
 515              		.loc 1 90 33 is_stmt 0 view .LVU126
 516 0062 2146     		mov	r1, r4
 517 0064 3846     		mov	r0, r7
 518 0066 FFF7FEFF 		bl	event_array_at
 519              	.LVL47:
  90:Drivers/lvgl/src/misc/lv_event.c ****         if(dsc->cb == NULL) continue;
 520              		.loc 1 90 26 discriminator 1 view .LVU127
 521 006a 0568     		ldr	r5, [r0]
 522              	.LVL48:
  91:Drivers/lvgl/src/misc/lv_event.c ****         if(event_is_marked_deleting(dsc)) continue;
 523              		.loc 1 91 9 is_stmt 1 view .LVU128
  91:Drivers/lvgl/src/misc/lv_event.c ****         if(event_is_marked_deleting(dsc)) continue;
 524              		.loc 1 91 15 is_stmt 0 view .LVU129
 525 006c 2B68     		ldr	r3, [r5]
  91:Drivers/lvgl/src/misc/lv_event.c ****         if(event_is_marked_deleting(dsc)) continue;
 526              		.loc 1 91 11 view .LVU130
 527 006e 002B     		cmp	r3, #0
 528 0070 F0D0     		beq	.L32
  92:Drivers/lvgl/src/misc/lv_event.c ****         const bool is_preprocessed = (dsc->filter & LV_EVENT_PREPROCESS) != 0;
 529              		.loc 1 92 9 is_stmt 1 view .LVU131
  92:Drivers/lvgl/src/misc/lv_event.c ****         const bool is_preprocessed = (dsc->filter & LV_EVENT_PREPROCESS) != 0;
 530              		.loc 1 92 12 is_stmt 0 view .LVU132
 531 0072 2846     		mov	r0, r5
 532 0074 FFF7FEFF 		bl	event_is_marked_deleting
 533              	.LVL49:
  92:Drivers/lvgl/src/misc/lv_event.c ****         const bool is_preprocessed = (dsc->filter & LV_EVENT_PREPROCESS) != 0;
 534              		.loc 1 92 11 discriminator 1 view .LVU133
 535 0078 0028     		cmp	r0, #0
 536 007a EBD1     		bne	.L32
  93:Drivers/lvgl/src/misc/lv_event.c ****         if(is_preprocessed != preprocess) continue;
 537              		.loc 1 93 9 is_stmt 1 view .LVU134
  93:Drivers/lvgl/src/misc/lv_event.c ****         if(is_preprocessed != preprocess) continue;
 538              		.loc 1 93 42 is_stmt 0 view .LVU135
 539 007c AB68     		ldr	r3, [r5, #8]
  93:Drivers/lvgl/src/misc/lv_event.c ****         if(is_preprocessed != preprocess) continue;
 540              		.loc 1 93 20 view .LVU136
 541 007e C3F3C032 		ubfx	r2, r3, #15, #1
 542              	.LVL50:
  94:Drivers/lvgl/src/misc/lv_event.c ****         lv_event_code_t filter = dsc->filter & ~LV_EVENT_PREPROCESS;
 543              		.loc 1 94 9 is_stmt 1 view .LVU137
  94:Drivers/lvgl/src/misc/lv_event.c ****         lv_event_code_t filter = dsc->filter & ~LV_EVENT_PREPROCESS;
 544              		.loc 1 94 11 is_stmt 0 view .LVU138
 545 0082 4A45     		cmp	r2, r9
 546 0084 E6D1     		bne	.L32
  95:Drivers/lvgl/src/misc/lv_event.c ****         if(filter == LV_EVENT_ALL || filter == e->code) {
 547              		.loc 1 95 9 is_stmt 1 view .LVU139
 548              	.LVL51:
  96:Drivers/lvgl/src/misc/lv_event.c ****             e->user_data = dsc->user_data;
 549              		.loc 1 96 9 view .LVU140
  96:Drivers/lvgl/src/misc/lv_event.c ****             e->user_data = dsc->user_data;
ARM GAS  /tmp/ccroaa0e.s 			page 21


 550              		.loc 1 96 11 is_stmt 0 view .LVU141
 551 0086 33F40043 		bics	r3, r3, #32768
 552              	.LVL52:
  96:Drivers/lvgl/src/misc/lv_event.c ****             e->user_data = dsc->user_data;
 553              		.loc 1 96 11 view .LVU142
 554 008a D7D0     		beq	.L33
  96:Drivers/lvgl/src/misc/lv_event.c ****             e->user_data = dsc->user_data;
 555              		.loc 1 96 49 discriminator 1 view .LVU143
 556 008c B268     		ldr	r2, [r6, #8]
 557              	.LVL53:
  96:Drivers/lvgl/src/misc/lv_event.c ****             e->user_data = dsc->user_data;
 558              		.loc 1 96 35 discriminator 1 view .LVU144
 559 008e 9A42     		cmp	r2, r3
 560 0090 E0D1     		bne	.L32
 561 0092 D3E7     		b	.L33
 562              	.LVL54:
 563              	.L42:
  96:Drivers/lvgl/src/misc/lv_event.c ****             e->user_data = dsc->user_data;
 564              		.loc 1 96 35 discriminator 1 view .LVU145
 565              	.LBE18:
 566              	.LBE16:
  87:Drivers/lvgl/src/misc/lv_event.c ****     const uint32_t size = event_array_size(list);
 567              		.loc 1 87 17 view .LVU146
 568 0094 0125     		movs	r5, #1
 569              	.LBB19:
 570 0096 02E0     		b	.L34
 571              	.LVL55:
 572              	.L39:
  87:Drivers/lvgl/src/misc/lv_event.c ****     const uint32_t size = event_array_size(list);
 573              		.loc 1 87 17 view .LVU147
 574              	.LBE19:
 575 0098 0125     		movs	r5, #1
 576 009a 00E0     		b	.L34
 577              	.LVL56:
 578              	.L40:
  87:Drivers/lvgl/src/misc/lv_event.c ****     const uint32_t size = event_array_size(list);
 579              		.loc 1 87 17 view .LVU148
 580 009c 0125     		movs	r5, #1
 581              	.L34:
 582              	.LVL57:
 109:Drivers/lvgl/src/misc/lv_event.c **** 
 583              		.loc 1 109 5 is_stmt 1 view .LVU149
 109:Drivers/lvgl/src/misc/lv_event.c **** 
 584              		.loc 1 109 7 is_stmt 0 view .LVU150
 585 009e BAF1000F 		cmp	r10, #0
 586 00a2 12D1     		bne	.L30
 111:Drivers/lvgl/src/misc/lv_event.c ****     else {
 587              		.loc 1 111 5 is_stmt 1 view .LVU151
 111:Drivers/lvgl/src/misc/lv_event.c ****     else {
 588              		.loc 1 111 8 is_stmt 0 view .LVU152
 589 00a4 337E     		ldrb	r3, [r6, #24]	@ zero_extendqisi2
 111:Drivers/lvgl/src/misc/lv_event.c ****     else {
 590              		.loc 1 111 7 view .LVU153
 591 00a6 13F0010F 		tst	r3, #1
 592 00aa 03D0     		beq	.L36
 111:Drivers/lvgl/src/misc/lv_event.c ****     else {
 593              		.loc 1 111 20 is_stmt 1 discriminator 1 view .LVU154
ARM GAS  /tmp/ccroaa0e.s 			page 22


 594 00ac 01A8     		add	r0, sp, #4
 595 00ae FFF7FEFF 		bl	cleanup_event_list_core
 596              	.LVL58:
 597 00b2 0AE0     		b	.L30
 598              	.L36:
 113:Drivers/lvgl/src/misc/lv_event.c ****         cleanup_event_list(list);
 599              		.loc 1 113 9 view .LVU155
 113:Drivers/lvgl/src/misc/lv_event.c ****         cleanup_event_list(list);
 600              		.loc 1 113 29 is_stmt 0 view .LVU156
 601 00b4 3B7D     		ldrb	r3, [r7, #20]	@ zero_extendqisi2
 602 00b6 23F00103 		bic	r3, r3, #1
 603 00ba 3B75     		strb	r3, [r7, #20]
 114:Drivers/lvgl/src/misc/lv_event.c ****     }
 604              		.loc 1 114 9 is_stmt 1 view .LVU157
 605 00bc 3846     		mov	r0, r7
 606 00be FFF7FEFF 		bl	cleanup_event_list
 607              	.LVL59:
 608 00c2 02E0     		b	.L30
 609              	.LVL60:
 610              	.L37:
  74:Drivers/lvgl/src/misc/lv_event.c ****     if(e->deleted) return LV_RESULT_INVALID;
 611              		.loc 1 74 29 is_stmt 0 discriminator 1 view .LVU158
 612 00c4 0125     		movs	r5, #1
 613 00c6 00E0     		b	.L30
 614              	.L38:
  75:Drivers/lvgl/src/misc/lv_event.c **** 
 615              		.loc 1 75 27 discriminator 1 view .LVU159
 616 00c8 0025     		movs	r5, #0
 617              	.LVL61:
 618              	.L30:
 118:Drivers/lvgl/src/misc/lv_event.c **** 
 619              		.loc 1 118 1 view .LVU160
 620 00ca 2846     		mov	r0, r5
 621 00cc 06B0     		add	sp, sp, #24
 622              	.LCFI6:
 623              		.cfi_def_cfa_offset 32
 624              		@ sp needed
 625 00ce BDE8F087 		pop	{r4, r5, r6, r7, r8, r9, r10, pc}
 626              		.cfi_endproc
 627              	.LFE188:
 629              		.section	.text.lv_event_add,"ax",%progbits
 630              		.align	1
 631              		.global	lv_event_add
 632              		.syntax unified
 633              		.thumb
 634              		.thumb_func
 636              	lv_event_add:
 637              	.LVL62:
 638              	.LFB189:
 122:Drivers/lvgl/src/misc/lv_event.c ****     lv_event_dsc_t * dsc = lv_malloc(sizeof(lv_event_dsc_t));
 639              		.loc 1 122 1 is_stmt 1 view -0
 640              		.cfi_startproc
 641              		@ args = 0, pretend = 0, frame = 8
 642              		@ frame_needed = 0, uses_anonymous_args = 0
 122:Drivers/lvgl/src/misc/lv_event.c ****     lv_event_dsc_t * dsc = lv_malloc(sizeof(lv_event_dsc_t));
 643              		.loc 1 122 1 is_stmt 0 view .LVU162
 644 0000 F0B5     		push	{r4, r5, r6, r7, lr}
ARM GAS  /tmp/ccroaa0e.s 			page 23


 645              	.LCFI7:
 646              		.cfi_def_cfa_offset 20
 647              		.cfi_offset 4, -20
 648              		.cfi_offset 5, -16
 649              		.cfi_offset 6, -12
 650              		.cfi_offset 7, -8
 651              		.cfi_offset 14, -4
 652 0002 83B0     		sub	sp, sp, #12
 653              	.LCFI8:
 654              		.cfi_def_cfa_offset 32
 655 0004 0446     		mov	r4, r0
 656 0006 0F46     		mov	r7, r1
 657 0008 1646     		mov	r6, r2
 658 000a 1D46     		mov	r5, r3
 123:Drivers/lvgl/src/misc/lv_event.c ****     LV_ASSERT_NULL(dsc);
 659              		.loc 1 123 5 is_stmt 1 view .LVU163
 123:Drivers/lvgl/src/misc/lv_event.c ****     LV_ASSERT_NULL(dsc);
 660              		.loc 1 123 28 is_stmt 0 view .LVU164
 661 000c 0C20     		movs	r0, #12
 662              	.LVL63:
 123:Drivers/lvgl/src/misc/lv_event.c ****     LV_ASSERT_NULL(dsc);
 663              		.loc 1 123 28 view .LVU165
 664 000e FFF7FEFF 		bl	lv_malloc
 665              	.LVL64:
 123:Drivers/lvgl/src/misc/lv_event.c ****     LV_ASSERT_NULL(dsc);
 666              		.loc 1 123 22 discriminator 1 view .LVU166
 667 0012 0190     		str	r0, [sp, #4]
 124:Drivers/lvgl/src/misc/lv_event.c **** 
 668              		.loc 1 124 5 is_stmt 1 view .LVU167
 124:Drivers/lvgl/src/misc/lv_event.c **** 
 669              		.loc 1 124 5 view .LVU168
 670 0014 70B1     		cbz	r0, .L45
 124:Drivers/lvgl/src/misc/lv_event.c **** 
 671              		.loc 1 124 5 discriminator 2 view .LVU169
 124:Drivers/lvgl/src/misc/lv_event.c **** 
 672              		.loc 1 124 24 discriminator 2 view .LVU170
 126:Drivers/lvgl/src/misc/lv_event.c ****     dsc->filter = filter;
 673              		.loc 1 126 5 view .LVU171
 126:Drivers/lvgl/src/misc/lv_event.c ****     dsc->filter = filter;
 674              		.loc 1 126 13 is_stmt 0 view .LVU172
 675 0016 0760     		str	r7, [r0]
 127:Drivers/lvgl/src/misc/lv_event.c ****     dsc->user_data = user_data;
 676              		.loc 1 127 5 is_stmt 1 view .LVU173
 127:Drivers/lvgl/src/misc/lv_event.c ****     dsc->user_data = user_data;
 677              		.loc 1 127 8 is_stmt 0 view .LVU174
 678 0018 019B     		ldr	r3, [sp, #4]
 127:Drivers/lvgl/src/misc/lv_event.c ****     dsc->user_data = user_data;
 679              		.loc 1 127 17 view .LVU175
 680 001a 9E60     		str	r6, [r3, #8]
 128:Drivers/lvgl/src/misc/lv_event.c **** 
 681              		.loc 1 128 5 is_stmt 1 view .LVU176
 128:Drivers/lvgl/src/misc/lv_event.c **** 
 682              		.loc 1 128 20 is_stmt 0 view .LVU177
 683 001c 5D60     		str	r5, [r3, #4]
 130:Drivers/lvgl/src/misc/lv_event.c ****         /*event list hasn't been initialized.*/
 684              		.loc 1 130 5 is_stmt 1 view .LVU178
 130:Drivers/lvgl/src/misc/lv_event.c ****         /*event list hasn't been initialized.*/
ARM GAS  /tmp/ccroaa0e.s 			page 24


 685              		.loc 1 130 8 is_stmt 0 view .LVU179
 686 001e 2046     		mov	r0, r4
 687 0020 FFF7FEFF 		bl	event_array_size
 688              	.LVL65:
 130:Drivers/lvgl/src/misc/lv_event.c ****         /*event list hasn't been initialized.*/
 689              		.loc 1 130 7 discriminator 1 view .LVU180
 690 0024 38B1     		cbz	r0, .L48
 691              	.L46:
 135:Drivers/lvgl/src/misc/lv_event.c ****     return dsc;
 692              		.loc 1 135 5 is_stmt 1 view .LVU181
 693 0026 01A9     		add	r1, sp, #4
 694 0028 2046     		mov	r0, r4
 695 002a FFF7FEFF 		bl	lv_array_push_back
 696              	.LVL66:
 136:Drivers/lvgl/src/misc/lv_event.c **** }
 697              		.loc 1 136 5 view .LVU182
 137:Drivers/lvgl/src/misc/lv_event.c **** 
 698              		.loc 1 137 1 is_stmt 0 view .LVU183
 699 002e 0198     		ldr	r0, [sp, #4]
 700 0030 03B0     		add	sp, sp, #12
 701              	.LCFI9:
 702              		.cfi_remember_state
 703              		.cfi_def_cfa_offset 20
 704              		@ sp needed
 705 0032 F0BD     		pop	{r4, r5, r6, r7, pc}
 706              	.LVL67:
 707              	.L45:
 708              	.LCFI10:
 709              		.cfi_restore_state
 124:Drivers/lvgl/src/misc/lv_event.c **** 
 710              		.loc 1 124 5 is_stmt 1 discriminator 1 view .LVU184
 124:Drivers/lvgl/src/misc/lv_event.c **** 
 711              		.loc 1 124 5 discriminator 1 view .LVU185
 124:Drivers/lvgl/src/misc/lv_event.c **** 
 712              		.loc 1 124 5 discriminator 1 view .LVU186
 124:Drivers/lvgl/src/misc/lv_event.c **** 
 713              		.loc 1 124 5 discriminator 1 view .LVU187
 124:Drivers/lvgl/src/misc/lv_event.c **** 
 714              		.loc 1 124 5 discriminator 1 view .LVU188
 715 0034 FEE7     		b	.L45
 716              	.L48:
 132:Drivers/lvgl/src/misc/lv_event.c ****     }
 717              		.loc 1 132 9 view .LVU189
 718 0036 0422     		movs	r2, #4
 719 0038 0121     		movs	r1, #1
 720 003a 2046     		mov	r0, r4
 721 003c FFF7FEFF 		bl	lv_array_init
 722              	.LVL68:
 723 0040 F1E7     		b	.L46
 724              		.cfi_endproc
 725              	.LFE189:
 727              		.section	.text.lv_event_remove_dsc,"ax",%progbits
 728              		.align	1
 729              		.global	lv_event_remove_dsc
 730              		.syntax unified
 731              		.thumb
 732              		.thumb_func
ARM GAS  /tmp/ccroaa0e.s 			page 25


 734              	lv_event_remove_dsc:
 735              	.LVL69:
 736              	.LFB190:
 140:Drivers/lvgl/src/misc/lv_event.c ****     LV_ASSERT_NULL(list);
 737              		.loc 1 140 1 view -0
 738              		.cfi_startproc
 739              		@ args = 0, pretend = 0, frame = 0
 740              		@ frame_needed = 0, uses_anonymous_args = 0
 141:Drivers/lvgl/src/misc/lv_event.c ****     LV_ASSERT_NULL(dsc);
 741              		.loc 1 141 5 view .LVU191
 141:Drivers/lvgl/src/misc/lv_event.c ****     LV_ASSERT_NULL(dsc);
 742              		.loc 1 141 5 view .LVU192
 743 0000 90B1     		cbz	r0, .L51
 140:Drivers/lvgl/src/misc/lv_event.c ****     LV_ASSERT_NULL(list);
 744              		.loc 1 140 1 is_stmt 0 view .LVU193
 745 0002 F8B5     		push	{r3, r4, r5, r6, r7, lr}
 746              	.LCFI11:
 747              		.cfi_def_cfa_offset 24
 748              		.cfi_offset 3, -24
 749              		.cfi_offset 4, -20
 750              		.cfi_offset 5, -16
 751              		.cfi_offset 6, -12
 752              		.cfi_offset 7, -8
 753              		.cfi_offset 14, -4
 754 0004 0D46     		mov	r5, r1
 755 0006 0646     		mov	r6, r0
 141:Drivers/lvgl/src/misc/lv_event.c ****     LV_ASSERT_NULL(dsc);
 756              		.loc 1 141 5 is_stmt 1 discriminator 2 view .LVU194
 141:Drivers/lvgl/src/misc/lv_event.c ****     LV_ASSERT_NULL(dsc);
 757              		.loc 1 141 25 discriminator 2 view .LVU195
 142:Drivers/lvgl/src/misc/lv_event.c **** 
 758              		.loc 1 142 5 view .LVU196
 142:Drivers/lvgl/src/misc/lv_event.c **** 
 759              		.loc 1 142 5 view .LVU197
 760 0008 79B1     		cbz	r1, .L53
 142:Drivers/lvgl/src/misc/lv_event.c **** 
 761              		.loc 1 142 5 discriminator 2 view .LVU198
 142:Drivers/lvgl/src/misc/lv_event.c **** 
 762              		.loc 1 142 24 discriminator 2 view .LVU199
 144:Drivers/lvgl/src/misc/lv_event.c ****     for(uint32_t i = 0; i < size; i++) {
 763              		.loc 1 144 5 view .LVU200
 144:Drivers/lvgl/src/misc/lv_event.c ****     for(uint32_t i = 0; i < size; i++) {
 764              		.loc 1 144 27 is_stmt 0 view .LVU201
 765 000a FFF7FEFF 		bl	event_array_size
 766              	.LVL70:
 144:Drivers/lvgl/src/misc/lv_event.c ****     for(uint32_t i = 0; i < size; i++) {
 767              		.loc 1 144 27 view .LVU202
 768 000e 0746     		mov	r7, r0
 769              	.LVL71:
 145:Drivers/lvgl/src/misc/lv_event.c ****         lv_event_dsc_t * event = *event_array_at(list, i);
 770              		.loc 1 145 5 is_stmt 1 view .LVU203
 771              	.LBB20:
 145:Drivers/lvgl/src/misc/lv_event.c ****         lv_event_dsc_t * event = *event_array_at(list, i);
 772              		.loc 1 145 9 view .LVU204
 145:Drivers/lvgl/src/misc/lv_event.c ****         lv_event_dsc_t * event = *event_array_at(list, i);
 773              		.loc 1 145 18 is_stmt 0 view .LVU205
 774 0010 0024     		movs	r4, #0
ARM GAS  /tmp/ccroaa0e.s 			page 26


 775              	.LVL72:
 776              	.L54:
 145:Drivers/lvgl/src/misc/lv_event.c ****         lv_event_dsc_t * event = *event_array_at(list, i);
 777              		.loc 1 145 27 is_stmt 1 discriminator 1 view .LVU206
 778 0012 BC42     		cmp	r4, r7
 779 0014 12D2     		bcs	.L60
 780              	.LBB21:
 146:Drivers/lvgl/src/misc/lv_event.c ****         if(event == dsc) {
 781              		.loc 1 146 9 view .LVU207
 146:Drivers/lvgl/src/misc/lv_event.c ****         if(event == dsc) {
 782              		.loc 1 146 35 is_stmt 0 view .LVU208
 783 0016 2146     		mov	r1, r4
 784 0018 3046     		mov	r0, r6
 785 001a FFF7FEFF 		bl	event_array_at
 786              	.LVL73:
 146:Drivers/lvgl/src/misc/lv_event.c ****         if(event == dsc) {
 787              		.loc 1 146 26 discriminator 1 view .LVU209
 788 001e 0168     		ldr	r1, [r0]
 789              	.LVL74:
 147:Drivers/lvgl/src/misc/lv_event.c ****             event_mark_deleting(list, event);
 790              		.loc 1 147 9 is_stmt 1 view .LVU210
 147:Drivers/lvgl/src/misc/lv_event.c ****             event_mark_deleting(list, event);
 791              		.loc 1 147 11 is_stmt 0 view .LVU211
 792 0020 8D42     		cmp	r5, r1
 793 0022 03D0     		beq	.L61
 794              	.LBE21:
 145:Drivers/lvgl/src/misc/lv_event.c ****         lv_event_dsc_t * event = *event_array_at(list, i);
 795              		.loc 1 145 36 is_stmt 1 discriminator 2 view .LVU212
 796 0024 0134     		adds	r4, r4, #1
 797              	.LVL75:
 145:Drivers/lvgl/src/misc/lv_event.c ****         lv_event_dsc_t * event = *event_array_at(list, i);
 798              		.loc 1 145 36 is_stmt 0 discriminator 2 view .LVU213
 799 0026 F4E7     		b	.L54
 800              	.LVL76:
 801              	.L51:
 802              	.LCFI12:
 803              		.cfi_def_cfa_offset 0
 804              		.cfi_restore 3
 805              		.cfi_restore 4
 806              		.cfi_restore 5
 807              		.cfi_restore 6
 808              		.cfi_restore 7
 809              		.cfi_restore 14
 145:Drivers/lvgl/src/misc/lv_event.c ****         lv_event_dsc_t * event = *event_array_at(list, i);
 810              		.loc 1 145 36 discriminator 2 view .LVU214
 811              	.LBE20:
 141:Drivers/lvgl/src/misc/lv_event.c ****     LV_ASSERT_NULL(dsc);
 812              		.loc 1 141 5 is_stmt 1 discriminator 1 view .LVU215
 141:Drivers/lvgl/src/misc/lv_event.c ****     LV_ASSERT_NULL(dsc);
 813              		.loc 1 141 5 discriminator 1 view .LVU216
 141:Drivers/lvgl/src/misc/lv_event.c ****     LV_ASSERT_NULL(dsc);
 814              		.loc 1 141 5 discriminator 1 view .LVU217
 141:Drivers/lvgl/src/misc/lv_event.c ****     LV_ASSERT_NULL(dsc);
 815              		.loc 1 141 5 discriminator 1 view .LVU218
 141:Drivers/lvgl/src/misc/lv_event.c ****     LV_ASSERT_NULL(dsc);
 816              		.loc 1 141 5 discriminator 1 view .LVU219
 817 0028 FEE7     		b	.L51
ARM GAS  /tmp/ccroaa0e.s 			page 27


 818              	.L53:
 819              	.LCFI13:
 820              		.cfi_def_cfa_offset 24
 821              		.cfi_offset 3, -24
 822              		.cfi_offset 4, -20
 823              		.cfi_offset 5, -16
 824              		.cfi_offset 6, -12
 825              		.cfi_offset 7, -8
 826              		.cfi_offset 14, -4
 142:Drivers/lvgl/src/misc/lv_event.c **** 
 827              		.loc 1 142 5 discriminator 1 view .LVU220
 142:Drivers/lvgl/src/misc/lv_event.c **** 
 828              		.loc 1 142 5 discriminator 1 view .LVU221
 142:Drivers/lvgl/src/misc/lv_event.c **** 
 829              		.loc 1 142 5 discriminator 1 view .LVU222
 142:Drivers/lvgl/src/misc/lv_event.c **** 
 830              		.loc 1 142 5 discriminator 1 view .LVU223
 142:Drivers/lvgl/src/misc/lv_event.c **** 
 831              		.loc 1 142 5 discriminator 1 view .LVU224
 832 002a FEE7     		b	.L53
 833              	.LVL77:
 834              	.L61:
 835              	.LBB23:
 836              	.LBB22:
 148:Drivers/lvgl/src/misc/lv_event.c ****             cleanup_event_list(list);
 837              		.loc 1 148 13 view .LVU225
 838 002c 3046     		mov	r0, r6
 839 002e FFF7FEFF 		bl	event_mark_deleting
 840              	.LVL78:
 149:Drivers/lvgl/src/misc/lv_event.c ****             return true;
 841              		.loc 1 149 13 view .LVU226
 842 0032 3046     		mov	r0, r6
 843 0034 FFF7FEFF 		bl	cleanup_event_list
 844              	.LVL79:
 150:Drivers/lvgl/src/misc/lv_event.c ****         }
 845              		.loc 1 150 13 view .LVU227
 150:Drivers/lvgl/src/misc/lv_event.c ****         }
 846              		.loc 1 150 20 is_stmt 0 view .LVU228
 847 0038 0120     		movs	r0, #1
 848 003a 00E0     		b	.L56
 849              	.LVL80:
 850              	.L60:
 150:Drivers/lvgl/src/misc/lv_event.c ****         }
 851              		.loc 1 150 20 view .LVU229
 852              	.LBE22:
 853              	.LBE23:
 154:Drivers/lvgl/src/misc/lv_event.c **** }
 854              		.loc 1 154 12 view .LVU230
 855 003c 0020     		movs	r0, #0
 856              	.L56:
 155:Drivers/lvgl/src/misc/lv_event.c **** 
 857              		.loc 1 155 1 view .LVU231
 858 003e F8BD     		pop	{r3, r4, r5, r6, r7, pc}
 155:Drivers/lvgl/src/misc/lv_event.c **** 
 859              		.loc 1 155 1 view .LVU232
 860              		.cfi_endproc
 861              	.LFE190:
ARM GAS  /tmp/ccroaa0e.s 			page 28


 863              		.section	.text.lv_event_get_count,"ax",%progbits
 864              		.align	1
 865              		.global	lv_event_get_count
 866              		.syntax unified
 867              		.thumb
 868              		.thumb_func
 870              	lv_event_get_count:
 871              	.LVL81:
 872              	.LFB191:
 158:Drivers/lvgl/src/misc/lv_event.c ****     LV_ASSERT_NULL(list);
 873              		.loc 1 158 1 is_stmt 1 view -0
 874              		.cfi_startproc
 875              		@ args = 0, pretend = 0, frame = 0
 876              		@ frame_needed = 0, uses_anonymous_args = 0
 159:Drivers/lvgl/src/misc/lv_event.c ****     return event_array_size(list);
 877              		.loc 1 159 5 view .LVU234
 159:Drivers/lvgl/src/misc/lv_event.c ****     return event_array_size(list);
 878              		.loc 1 159 5 view .LVU235
 879 0000 18B1     		cbz	r0, .L64
 158:Drivers/lvgl/src/misc/lv_event.c ****     LV_ASSERT_NULL(list);
 880              		.loc 1 158 1 is_stmt 0 view .LVU236
 881 0002 08B5     		push	{r3, lr}
 882              	.LCFI14:
 883              		.cfi_def_cfa_offset 8
 884              		.cfi_offset 3, -8
 885              		.cfi_offset 14, -4
 159:Drivers/lvgl/src/misc/lv_event.c ****     return event_array_size(list);
 886              		.loc 1 159 5 is_stmt 1 discriminator 2 view .LVU237
 159:Drivers/lvgl/src/misc/lv_event.c ****     return event_array_size(list);
 887              		.loc 1 159 25 discriminator 2 view .LVU238
 160:Drivers/lvgl/src/misc/lv_event.c **** }
 888              		.loc 1 160 5 view .LVU239
 160:Drivers/lvgl/src/misc/lv_event.c **** }
 889              		.loc 1 160 12 is_stmt 0 view .LVU240
 890 0004 FFF7FEFF 		bl	event_array_size
 891              	.LVL82:
 161:Drivers/lvgl/src/misc/lv_event.c **** 
 892              		.loc 1 161 1 view .LVU241
 893 0008 08BD     		pop	{r3, pc}
 894              	.LVL83:
 895              	.L64:
 896              	.LCFI15:
 897              		.cfi_def_cfa_offset 0
 898              		.cfi_restore 3
 899              		.cfi_restore 14
 159:Drivers/lvgl/src/misc/lv_event.c ****     return event_array_size(list);
 900              		.loc 1 159 5 is_stmt 1 discriminator 1 view .LVU242
 159:Drivers/lvgl/src/misc/lv_event.c ****     return event_array_size(list);
 901              		.loc 1 159 5 discriminator 1 view .LVU243
 159:Drivers/lvgl/src/misc/lv_event.c ****     return event_array_size(list);
 902              		.loc 1 159 5 discriminator 1 view .LVU244
 159:Drivers/lvgl/src/misc/lv_event.c ****     return event_array_size(list);
 903              		.loc 1 159 5 discriminator 1 view .LVU245
 159:Drivers/lvgl/src/misc/lv_event.c ****     return event_array_size(list);
 904              		.loc 1 159 5 discriminator 1 view .LVU246
 905 000a FEE7     		b	.L64
 906              		.cfi_endproc
ARM GAS  /tmp/ccroaa0e.s 			page 29


 907              	.LFE191:
 909              		.section	.text.lv_event_get_dsc,"ax",%progbits
 910              		.align	1
 911              		.global	lv_event_get_dsc
 912              		.syntax unified
 913              		.thumb
 914              		.thumb_func
 916              	lv_event_get_dsc:
 917              	.LVL84:
 918              	.LFB192:
 164:Drivers/lvgl/src/misc/lv_event.c ****     LV_ASSERT_NULL(list);
 919              		.loc 1 164 1 view -0
 920              		.cfi_startproc
 921              		@ args = 0, pretend = 0, frame = 0
 922              		@ frame_needed = 0, uses_anonymous_args = 0
 165:Drivers/lvgl/src/misc/lv_event.c ****     lv_event_dsc_t ** dsc = event_array_at(list, index);
 923              		.loc 1 165 5 view .LVU248
 165:Drivers/lvgl/src/misc/lv_event.c ****     lv_event_dsc_t ** dsc = event_array_at(list, index);
 924              		.loc 1 165 5 view .LVU249
 925 0000 38B1     		cbz	r0, .L69
 164:Drivers/lvgl/src/misc/lv_event.c ****     LV_ASSERT_NULL(list);
 926              		.loc 1 164 1 is_stmt 0 view .LVU250
 927 0002 08B5     		push	{r3, lr}
 928              	.LCFI16:
 929              		.cfi_def_cfa_offset 8
 930              		.cfi_offset 3, -8
 931              		.cfi_offset 14, -4
 165:Drivers/lvgl/src/misc/lv_event.c ****     lv_event_dsc_t ** dsc = event_array_at(list, index);
 932              		.loc 1 165 5 is_stmt 1 discriminator 2 view .LVU251
 165:Drivers/lvgl/src/misc/lv_event.c ****     lv_event_dsc_t ** dsc = event_array_at(list, index);
 933              		.loc 1 165 25 discriminator 2 view .LVU252
 166:Drivers/lvgl/src/misc/lv_event.c ****     return dsc ? *dsc : NULL;
 934              		.loc 1 166 5 view .LVU253
 166:Drivers/lvgl/src/misc/lv_event.c ****     return dsc ? *dsc : NULL;
 935              		.loc 1 166 29 is_stmt 0 view .LVU254
 936 0004 FFF7FEFF 		bl	event_array_at
 937              	.LVL85:
 167:Drivers/lvgl/src/misc/lv_event.c **** }
 938              		.loc 1 167 5 is_stmt 1 view .LVU255
 167:Drivers/lvgl/src/misc/lv_event.c **** }
 939              		.loc 1 167 23 is_stmt 0 view .LVU256
 940 0008 0346     		mov	r3, r0
 941 000a 00B1     		cbz	r0, .L67
 167:Drivers/lvgl/src/misc/lv_event.c **** }
 942              		.loc 1 167 23 discriminator 1 view .LVU257
 943 000c 0368     		ldr	r3, [r0]
 944              	.L67:
 168:Drivers/lvgl/src/misc/lv_event.c **** 
 945              		.loc 1 168 1 view .LVU258
 946 000e 1846     		mov	r0, r3
 947              	.LVL86:
 168:Drivers/lvgl/src/misc/lv_event.c **** 
 948              		.loc 1 168 1 view .LVU259
 949 0010 08BD     		pop	{r3, pc}
 950              	.LVL87:
 951              	.L69:
 952              	.LCFI17:
ARM GAS  /tmp/ccroaa0e.s 			page 30


 953              		.cfi_def_cfa_offset 0
 954              		.cfi_restore 3
 955              		.cfi_restore 14
 165:Drivers/lvgl/src/misc/lv_event.c ****     lv_event_dsc_t ** dsc = event_array_at(list, index);
 956              		.loc 1 165 5 is_stmt 1 discriminator 1 view .LVU260
 165:Drivers/lvgl/src/misc/lv_event.c ****     lv_event_dsc_t ** dsc = event_array_at(list, index);
 957              		.loc 1 165 5 discriminator 1 view .LVU261
 165:Drivers/lvgl/src/misc/lv_event.c ****     lv_event_dsc_t ** dsc = event_array_at(list, index);
 958              		.loc 1 165 5 discriminator 1 view .LVU262
 165:Drivers/lvgl/src/misc/lv_event.c ****     lv_event_dsc_t ** dsc = event_array_at(list, index);
 959              		.loc 1 165 5 discriminator 1 view .LVU263
 165:Drivers/lvgl/src/misc/lv_event.c ****     lv_event_dsc_t ** dsc = event_array_at(list, index);
 960              		.loc 1 165 5 discriminator 1 view .LVU264
 961 0012 FEE7     		b	.L69
 962              		.cfi_endproc
 963              	.LFE192:
 965              		.section	.text.lv_event_dsc_get_cb,"ax",%progbits
 966              		.align	1
 967              		.global	lv_event_dsc_get_cb
 968              		.syntax unified
 969              		.thumb
 970              		.thumb_func
 972              	lv_event_dsc_get_cb:
 973              	.LVL88:
 974              	.LFB193:
 171:Drivers/lvgl/src/misc/lv_event.c ****     LV_ASSERT_NULL(dsc);
 975              		.loc 1 171 1 view -0
 976              		.cfi_startproc
 977              		@ args = 0, pretend = 0, frame = 0
 978              		@ frame_needed = 0, uses_anonymous_args = 0
 979              		@ link register save eliminated.
 172:Drivers/lvgl/src/misc/lv_event.c ****     return dsc->cb;
 980              		.loc 1 172 5 view .LVU266
 172:Drivers/lvgl/src/misc/lv_event.c ****     return dsc->cb;
 981              		.loc 1 172 5 view .LVU267
 982 0000 08B1     		cbz	r0, .L75
 172:Drivers/lvgl/src/misc/lv_event.c ****     return dsc->cb;
 983              		.loc 1 172 5 discriminator 2 view .LVU268
 172:Drivers/lvgl/src/misc/lv_event.c ****     return dsc->cb;
 984              		.loc 1 172 24 discriminator 2 view .LVU269
 173:Drivers/lvgl/src/misc/lv_event.c **** }
 985              		.loc 1 173 5 view .LVU270
 174:Drivers/lvgl/src/misc/lv_event.c **** 
 986              		.loc 1 174 1 is_stmt 0 view .LVU271
 987 0002 0068     		ldr	r0, [r0]
 988              	.LVL89:
 174:Drivers/lvgl/src/misc/lv_event.c **** 
 989              		.loc 1 174 1 view .LVU272
 990 0004 7047     		bx	lr
 991              	.LVL90:
 992              	.L75:
 172:Drivers/lvgl/src/misc/lv_event.c ****     return dsc->cb;
 993              		.loc 1 172 5 is_stmt 1 discriminator 1 view .LVU273
 172:Drivers/lvgl/src/misc/lv_event.c ****     return dsc->cb;
 994              		.loc 1 172 5 discriminator 1 view .LVU274
 172:Drivers/lvgl/src/misc/lv_event.c ****     return dsc->cb;
 995              		.loc 1 172 5 discriminator 1 view .LVU275
ARM GAS  /tmp/ccroaa0e.s 			page 31


 172:Drivers/lvgl/src/misc/lv_event.c ****     return dsc->cb;
 996              		.loc 1 172 5 discriminator 1 view .LVU276
 172:Drivers/lvgl/src/misc/lv_event.c ****     return dsc->cb;
 997              		.loc 1 172 5 discriminator 1 view .LVU277
 998 0006 FEE7     		b	.L75
 999              		.cfi_endproc
 1000              	.LFE193:
 1002              		.section	.text.lv_event_dsc_get_user_data,"ax",%progbits
 1003              		.align	1
 1004              		.global	lv_event_dsc_get_user_data
 1005              		.syntax unified
 1006              		.thumb
 1007              		.thumb_func
 1009              	lv_event_dsc_get_user_data:
 1010              	.LVL91:
 1011              	.LFB194:
 177:Drivers/lvgl/src/misc/lv_event.c ****     LV_ASSERT_NULL(dsc);
 1012              		.loc 1 177 1 view -0
 1013              		.cfi_startproc
 1014              		@ args = 0, pretend = 0, frame = 0
 1015              		@ frame_needed = 0, uses_anonymous_args = 0
 1016              		@ link register save eliminated.
 178:Drivers/lvgl/src/misc/lv_event.c ****     return dsc->user_data;
 1017              		.loc 1 178 5 view .LVU279
 178:Drivers/lvgl/src/misc/lv_event.c ****     return dsc->user_data;
 1018              		.loc 1 178 5 view .LVU280
 1019 0000 08B1     		cbz	r0, .L78
 178:Drivers/lvgl/src/misc/lv_event.c ****     return dsc->user_data;
 1020              		.loc 1 178 5 discriminator 2 view .LVU281
 178:Drivers/lvgl/src/misc/lv_event.c ****     return dsc->user_data;
 1021              		.loc 1 178 24 discriminator 2 view .LVU282
 179:Drivers/lvgl/src/misc/lv_event.c **** 
 1022              		.loc 1 179 5 view .LVU283
 181:Drivers/lvgl/src/misc/lv_event.c **** 
 1023              		.loc 1 181 1 is_stmt 0 view .LVU284
 1024 0002 4068     		ldr	r0, [r0, #4]
 1025              	.LVL92:
 181:Drivers/lvgl/src/misc/lv_event.c **** 
 1026              		.loc 1 181 1 view .LVU285
 1027 0004 7047     		bx	lr
 1028              	.LVL93:
 1029              	.L78:
 178:Drivers/lvgl/src/misc/lv_event.c ****     return dsc->user_data;
 1030              		.loc 1 178 5 is_stmt 1 discriminator 1 view .LVU286
 178:Drivers/lvgl/src/misc/lv_event.c ****     return dsc->user_data;
 1031              		.loc 1 178 5 discriminator 1 view .LVU287
 178:Drivers/lvgl/src/misc/lv_event.c ****     return dsc->user_data;
 1032              		.loc 1 178 5 discriminator 1 view .LVU288
 178:Drivers/lvgl/src/misc/lv_event.c ****     return dsc->user_data;
 1033              		.loc 1 178 5 discriminator 1 view .LVU289
 178:Drivers/lvgl/src/misc/lv_event.c ****     return dsc->user_data;
 1034              		.loc 1 178 5 discriminator 1 view .LVU290
 1035 0006 FEE7     		b	.L78
 1036              		.cfi_endproc
 1037              	.LFE194:
 1039              		.section	.text.lv_event_remove,"ax",%progbits
 1040              		.align	1
ARM GAS  /tmp/ccroaa0e.s 			page 32


 1041              		.global	lv_event_remove
 1042              		.syntax unified
 1043              		.thumb
 1044              		.thumb_func
 1046              	lv_event_remove:
 1047              	.LVL94:
 1048              	.LFB195:
 184:Drivers/lvgl/src/misc/lv_event.c ****     LV_ASSERT_NULL(list);
 1049              		.loc 1 184 1 view -0
 1050              		.cfi_startproc
 1051              		@ args = 0, pretend = 0, frame = 0
 1052              		@ frame_needed = 0, uses_anonymous_args = 0
 185:Drivers/lvgl/src/misc/lv_event.c ****     lv_event_dsc_t * dsc = lv_event_get_dsc(list, index);
 1053              		.loc 1 185 5 view .LVU292
 185:Drivers/lvgl/src/misc/lv_event.c ****     lv_event_dsc_t * dsc = lv_event_get_dsc(list, index);
 1054              		.loc 1 185 5 view .LVU293
 1055 0000 68B1     		cbz	r0, .L81
 184:Drivers/lvgl/src/misc/lv_event.c ****     LV_ASSERT_NULL(list);
 1056              		.loc 1 184 1 is_stmt 0 view .LVU294
 1057 0002 10B5     		push	{r4, lr}
 1058              	.LCFI18:
 1059              		.cfi_def_cfa_offset 8
 1060              		.cfi_offset 4, -8
 1061              		.cfi_offset 14, -4
 1062 0004 0446     		mov	r4, r0
 185:Drivers/lvgl/src/misc/lv_event.c ****     lv_event_dsc_t * dsc = lv_event_get_dsc(list, index);
 1063              		.loc 1 185 5 is_stmt 1 discriminator 2 view .LVU295
 185:Drivers/lvgl/src/misc/lv_event.c ****     lv_event_dsc_t * dsc = lv_event_get_dsc(list, index);
 1064              		.loc 1 185 25 discriminator 2 view .LVU296
 186:Drivers/lvgl/src/misc/lv_event.c ****     if(dsc == NULL) return false;
 1065              		.loc 1 186 5 view .LVU297
 186:Drivers/lvgl/src/misc/lv_event.c ****     if(dsc == NULL) return false;
 1066              		.loc 1 186 28 is_stmt 0 view .LVU298
 1067 0006 FFF7FEFF 		bl	lv_event_get_dsc
 1068              	.LVL95:
 187:Drivers/lvgl/src/misc/lv_event.c ****     event_mark_deleting(list, dsc);
 1069              		.loc 1 187 5 is_stmt 1 view .LVU299
 187:Drivers/lvgl/src/misc/lv_event.c ****     event_mark_deleting(list, dsc);
 1070              		.loc 1 187 7 is_stmt 0 view .LVU300
 1071 000a 0146     		mov	r1, r0
 1072 000c 40B1     		cbz	r0, .L83
 188:Drivers/lvgl/src/misc/lv_event.c ****     cleanup_event_list(list);
 1073              		.loc 1 188 5 is_stmt 1 view .LVU301
 1074 000e 2046     		mov	r0, r4
 1075              	.LVL96:
 188:Drivers/lvgl/src/misc/lv_event.c ****     cleanup_event_list(list);
 1076              		.loc 1 188 5 is_stmt 0 view .LVU302
 1077 0010 FFF7FEFF 		bl	event_mark_deleting
 1078              	.LVL97:
 189:Drivers/lvgl/src/misc/lv_event.c ****     return true;
 1079              		.loc 1 189 5 is_stmt 1 view .LVU303
 1080 0014 2046     		mov	r0, r4
 1081 0016 FFF7FEFF 		bl	cleanup_event_list
 1082              	.LVL98:
 190:Drivers/lvgl/src/misc/lv_event.c **** }
 1083              		.loc 1 190 5 view .LVU304
 190:Drivers/lvgl/src/misc/lv_event.c **** }
ARM GAS  /tmp/ccroaa0e.s 			page 33


 1084              		.loc 1 190 12 is_stmt 0 view .LVU305
 1085 001a 0120     		movs	r0, #1
 1086              	.L82:
 191:Drivers/lvgl/src/misc/lv_event.c **** 
 1087              		.loc 1 191 1 view .LVU306
 1088 001c 10BD     		pop	{r4, pc}
 1089              	.LVL99:
 1090              	.L81:
 1091              	.LCFI19:
 1092              		.cfi_def_cfa_offset 0
 1093              		.cfi_restore 4
 1094              		.cfi_restore 14
 185:Drivers/lvgl/src/misc/lv_event.c ****     lv_event_dsc_t * dsc = lv_event_get_dsc(list, index);
 1095              		.loc 1 185 5 is_stmt 1 discriminator 1 view .LVU307
 185:Drivers/lvgl/src/misc/lv_event.c ****     lv_event_dsc_t * dsc = lv_event_get_dsc(list, index);
 1096              		.loc 1 185 5 discriminator 1 view .LVU308
 185:Drivers/lvgl/src/misc/lv_event.c ****     lv_event_dsc_t * dsc = lv_event_get_dsc(list, index);
 1097              		.loc 1 185 5 discriminator 1 view .LVU309
 185:Drivers/lvgl/src/misc/lv_event.c ****     lv_event_dsc_t * dsc = lv_event_get_dsc(list, index);
 1098              		.loc 1 185 5 discriminator 1 view .LVU310
 185:Drivers/lvgl/src/misc/lv_event.c ****     lv_event_dsc_t * dsc = lv_event_get_dsc(list, index);
 1099              		.loc 1 185 5 discriminator 1 view .LVU311
 1100 001e FEE7     		b	.L81
 1101              	.LVL100:
 1102              	.L83:
 1103              	.LCFI20:
 1104              		.cfi_def_cfa_offset 8
 1105              		.cfi_offset 4, -8
 1106              		.cfi_offset 14, -4
 187:Drivers/lvgl/src/misc/lv_event.c ****     event_mark_deleting(list, dsc);
 1107              		.loc 1 187 28 is_stmt 0 discriminator 1 view .LVU312
 1108 0020 0020     		movs	r0, #0
 1109              	.LVL101:
 187:Drivers/lvgl/src/misc/lv_event.c ****     event_mark_deleting(list, dsc);
 1110              		.loc 1 187 28 discriminator 1 view .LVU313
 1111 0022 FBE7     		b	.L82
 1112              		.cfi_endproc
 1113              	.LFE195:
 1115              		.section	.text.lv_event_remove_all,"ax",%progbits
 1116              		.align	1
 1117              		.global	lv_event_remove_all
 1118              		.syntax unified
 1119              		.thumb
 1120              		.thumb_func
 1122              	lv_event_remove_all:
 1123              	.LVL102:
 1124              	.LFB196:
 194:Drivers/lvgl/src/misc/lv_event.c ****     LV_ASSERT_NULL(list);
 1125              		.loc 1 194 1 is_stmt 1 view -0
 1126              		.cfi_startproc
 1127              		@ args = 0, pretend = 0, frame = 0
 1128              		@ frame_needed = 0, uses_anonymous_args = 0
 195:Drivers/lvgl/src/misc/lv_event.c ****     const uint32_t size = event_array_size(list);
 1129              		.loc 1 195 5 view .LVU315
 195:Drivers/lvgl/src/misc/lv_event.c ****     const uint32_t size = event_array_size(list);
 1130              		.loc 1 195 5 view .LVU316
 1131 0000 30B1     		cbz	r0, .L88
ARM GAS  /tmp/ccroaa0e.s 			page 34


 194:Drivers/lvgl/src/misc/lv_event.c ****     LV_ASSERT_NULL(list);
 1132              		.loc 1 194 1 is_stmt 0 view .LVU317
 1133 0002 70B5     		push	{r4, r5, r6, lr}
 1134              	.LCFI21:
 1135              		.cfi_def_cfa_offset 16
 1136              		.cfi_offset 4, -16
 1137              		.cfi_offset 5, -12
 1138              		.cfi_offset 6, -8
 1139              		.cfi_offset 14, -4
 1140 0004 0546     		mov	r5, r0
 195:Drivers/lvgl/src/misc/lv_event.c ****     const uint32_t size = event_array_size(list);
 1141              		.loc 1 195 5 is_stmt 1 discriminator 2 view .LVU318
 195:Drivers/lvgl/src/misc/lv_event.c ****     const uint32_t size = event_array_size(list);
 1142              		.loc 1 195 25 discriminator 2 view .LVU319
 196:Drivers/lvgl/src/misc/lv_event.c ****     for(uint32_t i = 0; i < size; i++)
 1143              		.loc 1 196 5 view .LVU320
 196:Drivers/lvgl/src/misc/lv_event.c ****     for(uint32_t i = 0; i < size; i++)
 1144              		.loc 1 196 27 is_stmt 0 view .LVU321
 1145 0006 FFF7FEFF 		bl	event_array_size
 1146              	.LVL103:
 196:Drivers/lvgl/src/misc/lv_event.c ****     for(uint32_t i = 0; i < size; i++)
 1147              		.loc 1 196 27 view .LVU322
 1148 000a 0646     		mov	r6, r0
 1149              	.LVL104:
 197:Drivers/lvgl/src/misc/lv_event.c ****         event_mark_deleting(list, *event_array_at(list, i));
 1150              		.loc 1 197 5 is_stmt 1 view .LVU323
 1151              	.LBB24:
 197:Drivers/lvgl/src/misc/lv_event.c ****         event_mark_deleting(list, *event_array_at(list, i));
 1152              		.loc 1 197 9 view .LVU324
 197:Drivers/lvgl/src/misc/lv_event.c ****         event_mark_deleting(list, *event_array_at(list, i));
 1153              		.loc 1 197 18 is_stmt 0 view .LVU325
 1154 000c 0024     		movs	r4, #0
 197:Drivers/lvgl/src/misc/lv_event.c ****         event_mark_deleting(list, *event_array_at(list, i));
 1155              		.loc 1 197 5 view .LVU326
 1156 000e 09E0     		b	.L89
 1157              	.LVL105:
 1158              	.L88:
 1159              	.LCFI22:
 1160              		.cfi_def_cfa_offset 0
 1161              		.cfi_restore 4
 1162              		.cfi_restore 5
 1163              		.cfi_restore 6
 1164              		.cfi_restore 14
 197:Drivers/lvgl/src/misc/lv_event.c ****         event_mark_deleting(list, *event_array_at(list, i));
 1165              		.loc 1 197 5 view .LVU327
 1166              	.LBE24:
 195:Drivers/lvgl/src/misc/lv_event.c ****     const uint32_t size = event_array_size(list);
 1167              		.loc 1 195 5 is_stmt 1 discriminator 1 view .LVU328
 195:Drivers/lvgl/src/misc/lv_event.c ****     const uint32_t size = event_array_size(list);
 1168              		.loc 1 195 5 discriminator 1 view .LVU329
 195:Drivers/lvgl/src/misc/lv_event.c ****     const uint32_t size = event_array_size(list);
 1169              		.loc 1 195 5 discriminator 1 view .LVU330
 195:Drivers/lvgl/src/misc/lv_event.c ****     const uint32_t size = event_array_size(list);
 1170              		.loc 1 195 5 discriminator 1 view .LVU331
 195:Drivers/lvgl/src/misc/lv_event.c ****     const uint32_t size = event_array_size(list);
 1171              		.loc 1 195 5 discriminator 1 view .LVU332
 1172 0010 FEE7     		b	.L88
ARM GAS  /tmp/ccroaa0e.s 			page 35


 1173              	.LVL106:
 1174              	.L90:
 1175              	.LCFI23:
 1176              		.cfi_def_cfa_offset 16
 1177              		.cfi_offset 4, -16
 1178              		.cfi_offset 5, -12
 1179              		.cfi_offset 6, -8
 1180              		.cfi_offset 14, -4
 1181              	.LBB25:
 198:Drivers/lvgl/src/misc/lv_event.c ****     cleanup_event_list(list);
 1182              		.loc 1 198 9 view .LVU333
 198:Drivers/lvgl/src/misc/lv_event.c ****     cleanup_event_list(list);
 1183              		.loc 1 198 36 is_stmt 0 view .LVU334
 1184 0012 2146     		mov	r1, r4
 1185 0014 2846     		mov	r0, r5
 1186 0016 FFF7FEFF 		bl	event_array_at
 1187              	.LVL107:
 198:Drivers/lvgl/src/misc/lv_event.c ****     cleanup_event_list(list);
 1188              		.loc 1 198 9 discriminator 1 view .LVU335
 1189 001a 0168     		ldr	r1, [r0]
 1190 001c 2846     		mov	r0, r5
 1191 001e FFF7FEFF 		bl	event_mark_deleting
 1192              	.LVL108:
 197:Drivers/lvgl/src/misc/lv_event.c ****         event_mark_deleting(list, *event_array_at(list, i));
 1193              		.loc 1 197 36 is_stmt 1 discriminator 3 view .LVU336
 1194 0022 0134     		adds	r4, r4, #1
 1195              	.LVL109:
 1196              	.L89:
 197:Drivers/lvgl/src/misc/lv_event.c ****         event_mark_deleting(list, *event_array_at(list, i));
 1197              		.loc 1 197 27 discriminator 1 view .LVU337
 1198 0024 B442     		cmp	r4, r6
 1199 0026 F4D3     		bcc	.L90
 1200              	.LBE25:
 199:Drivers/lvgl/src/misc/lv_event.c **** }
 1201              		.loc 1 199 5 view .LVU338
 1202 0028 2846     		mov	r0, r5
 1203 002a FFF7FEFF 		bl	cleanup_event_list
 1204              	.LVL110:
 200:Drivers/lvgl/src/misc/lv_event.c **** 
 1205              		.loc 1 200 1 is_stmt 0 view .LVU339
 1206 002e 70BD     		pop	{r4, r5, r6, pc}
 200:Drivers/lvgl/src/misc/lv_event.c **** 
 1207              		.loc 1 200 1 view .LVU340
 1208              		.cfi_endproc
 1209              	.LFE196:
 1211              		.section	.text.lv_event_get_current_target,"ax",%progbits
 1212              		.align	1
 1213              		.global	lv_event_get_current_target
 1214              		.syntax unified
 1215              		.thumb
 1216              		.thumb_func
 1218              	lv_event_get_current_target:
 1219              	.LVL111:
 1220              	.LFB197:
 203:Drivers/lvgl/src/misc/lv_event.c ****     return e->current_target;
 1221              		.loc 1 203 1 is_stmt 1 view -0
 1222              		.cfi_startproc
ARM GAS  /tmp/ccroaa0e.s 			page 36


 1223              		@ args = 0, pretend = 0, frame = 0
 1224              		@ frame_needed = 0, uses_anonymous_args = 0
 1225              		@ link register save eliminated.
 204:Drivers/lvgl/src/misc/lv_event.c **** }
 1226              		.loc 1 204 5 view .LVU342
 205:Drivers/lvgl/src/misc/lv_event.c **** 
 1227              		.loc 1 205 1 is_stmt 0 view .LVU343
 1228 0000 0068     		ldr	r0, [r0]
 1229              	.LVL112:
 205:Drivers/lvgl/src/misc/lv_event.c **** 
 1230              		.loc 1 205 1 view .LVU344
 1231 0002 7047     		bx	lr
 1232              		.cfi_endproc
 1233              	.LFE197:
 1235              		.section	.text.lv_event_get_target,"ax",%progbits
 1236              		.align	1
 1237              		.global	lv_event_get_target
 1238              		.syntax unified
 1239              		.thumb
 1240              		.thumb_func
 1242              	lv_event_get_target:
 1243              	.LVL113:
 1244              	.LFB198:
 208:Drivers/lvgl/src/misc/lv_event.c ****     return e->original_target;
 1245              		.loc 1 208 1 is_stmt 1 view -0
 1246              		.cfi_startproc
 1247              		@ args = 0, pretend = 0, frame = 0
 1248              		@ frame_needed = 0, uses_anonymous_args = 0
 1249              		@ link register save eliminated.
 209:Drivers/lvgl/src/misc/lv_event.c **** }
 1250              		.loc 1 209 5 view .LVU346
 210:Drivers/lvgl/src/misc/lv_event.c **** 
 1251              		.loc 1 210 1 is_stmt 0 view .LVU347
 1252 0000 4068     		ldr	r0, [r0, #4]
 1253              	.LVL114:
 210:Drivers/lvgl/src/misc/lv_event.c **** 
 1254              		.loc 1 210 1 view .LVU348
 1255 0002 7047     		bx	lr
 1256              		.cfi_endproc
 1257              	.LFE198:
 1259              		.section	.text.lv_event_get_code,"ax",%progbits
 1260              		.align	1
 1261              		.global	lv_event_get_code
 1262              		.syntax unified
 1263              		.thumb
 1264              		.thumb_func
 1266              	lv_event_get_code:
 1267              	.LVL115:
 1268              	.LFB199:
 213:Drivers/lvgl/src/misc/lv_event.c ****     return e->code & ~LV_EVENT_PREPROCESS;
 1269              		.loc 1 213 1 is_stmt 1 view -0
 1270              		.cfi_startproc
 1271              		@ args = 0, pretend = 0, frame = 0
 1272              		@ frame_needed = 0, uses_anonymous_args = 0
 1273              		@ link register save eliminated.
 214:Drivers/lvgl/src/misc/lv_event.c **** }
 1274              		.loc 1 214 5 view .LVU350
ARM GAS  /tmp/ccroaa0e.s 			page 37


 214:Drivers/lvgl/src/misc/lv_event.c **** }
 1275              		.loc 1 214 13 is_stmt 0 view .LVU351
 1276 0000 8068     		ldr	r0, [r0, #8]
 1277              	.LVL116:
 215:Drivers/lvgl/src/misc/lv_event.c **** 
 1278              		.loc 1 215 1 view .LVU352
 1279 0002 20F40040 		bic	r0, r0, #32768
 1280 0006 7047     		bx	lr
 1281              		.cfi_endproc
 1282              	.LFE199:
 1284              		.section	.text.lv_event_get_param,"ax",%progbits
 1285              		.align	1
 1286              		.global	lv_event_get_param
 1287              		.syntax unified
 1288              		.thumb
 1289              		.thumb_func
 1291              	lv_event_get_param:
 1292              	.LVL117:
 1293              	.LFB200:
 218:Drivers/lvgl/src/misc/lv_event.c ****     return e->param;
 1294              		.loc 1 218 1 is_stmt 1 view -0
 1295              		.cfi_startproc
 1296              		@ args = 0, pretend = 0, frame = 0
 1297              		@ frame_needed = 0, uses_anonymous_args = 0
 1298              		@ link register save eliminated.
 219:Drivers/lvgl/src/misc/lv_event.c **** }
 1299              		.loc 1 219 5 view .LVU354
 220:Drivers/lvgl/src/misc/lv_event.c **** 
 1300              		.loc 1 220 1 is_stmt 0 view .LVU355
 1301 0000 0069     		ldr	r0, [r0, #16]
 1302              	.LVL118:
 220:Drivers/lvgl/src/misc/lv_event.c **** 
 1303              		.loc 1 220 1 view .LVU356
 1304 0002 7047     		bx	lr
 1305              		.cfi_endproc
 1306              	.LFE200:
 1308              		.section	.text.lv_event_get_user_data,"ax",%progbits
 1309              		.align	1
 1310              		.global	lv_event_get_user_data
 1311              		.syntax unified
 1312              		.thumb
 1313              		.thumb_func
 1315              	lv_event_get_user_data:
 1316              	.LVL119:
 1317              	.LFB201:
 223:Drivers/lvgl/src/misc/lv_event.c ****     return e->user_data;
 1318              		.loc 1 223 1 is_stmt 1 view -0
 1319              		.cfi_startproc
 1320              		@ args = 0, pretend = 0, frame = 0
 1321              		@ frame_needed = 0, uses_anonymous_args = 0
 1322              		@ link register save eliminated.
 224:Drivers/lvgl/src/misc/lv_event.c **** }
 1323              		.loc 1 224 5 view .LVU358
 225:Drivers/lvgl/src/misc/lv_event.c **** 
 1324              		.loc 1 225 1 is_stmt 0 view .LVU359
 1325 0000 C068     		ldr	r0, [r0, #12]
 1326              	.LVL120:
ARM GAS  /tmp/ccroaa0e.s 			page 38


 225:Drivers/lvgl/src/misc/lv_event.c **** 
 1327              		.loc 1 225 1 view .LVU360
 1328 0002 7047     		bx	lr
 1329              		.cfi_endproc
 1330              	.LFE201:
 1332              		.section	.text.lv_event_stop_bubbling,"ax",%progbits
 1333              		.align	1
 1334              		.global	lv_event_stop_bubbling
 1335              		.syntax unified
 1336              		.thumb
 1337              		.thumb_func
 1339              	lv_event_stop_bubbling:
 1340              	.LVL121:
 1341              	.LFB202:
 228:Drivers/lvgl/src/misc/lv_event.c ****     e->stop_bubbling = 1;
 1342              		.loc 1 228 1 is_stmt 1 view -0
 1343              		.cfi_startproc
 1344              		@ args = 0, pretend = 0, frame = 0
 1345              		@ frame_needed = 0, uses_anonymous_args = 0
 1346              		@ link register save eliminated.
 229:Drivers/lvgl/src/misc/lv_event.c **** }
 1347              		.loc 1 229 5 view .LVU362
 229:Drivers/lvgl/src/misc/lv_event.c **** }
 1348              		.loc 1 229 22 is_stmt 0 view .LVU363
 1349 0000 037E     		ldrb	r3, [r0, #24]	@ zero_extendqisi2
 1350 0002 43F00403 		orr	r3, r3, #4
 1351 0006 0376     		strb	r3, [r0, #24]
 230:Drivers/lvgl/src/misc/lv_event.c **** 
 1352              		.loc 1 230 1 view .LVU364
 1353 0008 7047     		bx	lr
 1354              		.cfi_endproc
 1355              	.LFE202:
 1357              		.section	.text.lv_event_stop_processing,"ax",%progbits
 1358              		.align	1
 1359              		.global	lv_event_stop_processing
 1360              		.syntax unified
 1361              		.thumb
 1362              		.thumb_func
 1364              	lv_event_stop_processing:
 1365              	.LVL122:
 1366              	.LFB203:
 233:Drivers/lvgl/src/misc/lv_event.c ****     e->stop_processing = 1;
 1367              		.loc 1 233 1 is_stmt 1 view -0
 1368              		.cfi_startproc
 1369              		@ args = 0, pretend = 0, frame = 0
 1370              		@ frame_needed = 0, uses_anonymous_args = 0
 1371              		@ link register save eliminated.
 234:Drivers/lvgl/src/misc/lv_event.c **** }
 1372              		.loc 1 234 5 view .LVU366
 234:Drivers/lvgl/src/misc/lv_event.c **** }
 1373              		.loc 1 234 24 is_stmt 0 view .LVU367
 1374 0000 037E     		ldrb	r3, [r0, #24]	@ zero_extendqisi2
 1375 0002 43F00203 		orr	r3, r3, #2
 1376 0006 0376     		strb	r3, [r0, #24]
 235:Drivers/lvgl/src/misc/lv_event.c **** 
 1377              		.loc 1 235 1 view .LVU368
 1378 0008 7047     		bx	lr
ARM GAS  /tmp/ccroaa0e.s 			page 39


 1379              		.cfi_endproc
 1380              	.LFE203:
 1382              		.section	.text.lv_event_register_id,"ax",%progbits
 1383              		.align	1
 1384              		.global	lv_event_register_id
 1385              		.syntax unified
 1386              		.thumb
 1387              		.thumb_func
 1389              	lv_event_register_id:
 1390              	.LFB204:
 238:Drivers/lvgl/src/misc/lv_event.c ****     event_last_id ++;
 1391              		.loc 1 238 1 is_stmt 1 view -0
 1392              		.cfi_startproc
 1393              		@ args = 0, pretend = 0, frame = 0
 1394              		@ frame_needed = 0, uses_anonymous_args = 0
 1395              		@ link register save eliminated.
 239:Drivers/lvgl/src/misc/lv_event.c ****     return event_last_id;
 1396              		.loc 1 239 5 view .LVU370
 1397 0000 024B     		ldr	r3, .L101
 1398 0002 186F     		ldr	r0, [r3, #112]
 239:Drivers/lvgl/src/misc/lv_event.c ****     return event_last_id;
 1399              		.loc 1 239 19 is_stmt 0 view .LVU371
 1400 0004 0130     		adds	r0, r0, #1
 1401 0006 1867     		str	r0, [r3, #112]
 240:Drivers/lvgl/src/misc/lv_event.c **** }
 1402              		.loc 1 240 5 is_stmt 1 view .LVU372
 241:Drivers/lvgl/src/misc/lv_event.c **** 
 1403              		.loc 1 241 1 is_stmt 0 view .LVU373
 1404 0008 7047     		bx	lr
 1405              	.L102:
 1406 000a 00BF     		.align	2
 1407              	.L101:
 1408 000c 00000000 		.word	lv_global
 1409              		.cfi_endproc
 1410              	.LFE204:
 1412              		.section	.text.lv_event_mark_deleted,"ax",%progbits
 1413              		.align	1
 1414              		.global	lv_event_mark_deleted
 1415              		.syntax unified
 1416              		.thumb
 1417              		.thumb_func
 1419              	lv_event_mark_deleted:
 1420              	.LVL123:
 1421              	.LFB205:
 244:Drivers/lvgl/src/misc/lv_event.c ****     lv_event_t * e = event_head;
 1422              		.loc 1 244 1 is_stmt 1 view -0
 1423              		.cfi_startproc
 1424              		@ args = 0, pretend = 0, frame = 0
 1425              		@ frame_needed = 0, uses_anonymous_args = 0
 1426              		@ link register save eliminated.
 245:Drivers/lvgl/src/misc/lv_event.c **** 
 1427              		.loc 1 245 5 view .LVU375
 245:Drivers/lvgl/src/misc/lv_event.c **** 
 1428              		.loc 1 245 18 is_stmt 0 view .LVU376
 1429 0000 084B     		ldr	r3, .L109
 1430 0002 DB6E     		ldr	r3, [r3, #108]
 1431              	.LVL124:
ARM GAS  /tmp/ccroaa0e.s 			page 40


 247:Drivers/lvgl/src/misc/lv_event.c ****         if(e->original_target == target || e->current_target == target) e->deleted = 1;
 1432              		.loc 1 247 5 is_stmt 1 view .LVU377
 247:Drivers/lvgl/src/misc/lv_event.c ****         if(e->original_target == target || e->current_target == target) e->deleted = 1;
 1433              		.loc 1 247 10 is_stmt 0 view .LVU378
 1434 0004 04E0     		b	.L104
 1435              	.L105:
 248:Drivers/lvgl/src/misc/lv_event.c ****         e = e->prev;
 1436              		.loc 1 248 73 is_stmt 1 discriminator 3 view .LVU379
 248:Drivers/lvgl/src/misc/lv_event.c ****         e = e->prev;
 1437              		.loc 1 248 84 is_stmt 0 discriminator 3 view .LVU380
 1438 0006 1A7E     		ldrb	r2, [r3, #24]	@ zero_extendqisi2
 1439 0008 42F00102 		orr	r2, r2, #1
 1440 000c 1A76     		strb	r2, [r3, #24]
 1441              	.L106:
 249:Drivers/lvgl/src/misc/lv_event.c ****     }
 1442              		.loc 1 249 9 is_stmt 1 view .LVU381
 249:Drivers/lvgl/src/misc/lv_event.c ****     }
 1443              		.loc 1 249 11 is_stmt 0 view .LVU382
 1444 000e 5B69     		ldr	r3, [r3, #20]
 1445              	.LVL125:
 1446              	.L104:
 247:Drivers/lvgl/src/misc/lv_event.c ****         if(e->original_target == target || e->current_target == target) e->deleted = 1;
 1447              		.loc 1 247 11 is_stmt 1 view .LVU383
 1448 0010 33B1     		cbz	r3, .L108
 248:Drivers/lvgl/src/misc/lv_event.c ****         e = e->prev;
 1449              		.loc 1 248 9 view .LVU384
 248:Drivers/lvgl/src/misc/lv_event.c ****         e = e->prev;
 1450              		.loc 1 248 13 is_stmt 0 view .LVU385
 1451 0012 5A68     		ldr	r2, [r3, #4]
 248:Drivers/lvgl/src/misc/lv_event.c ****         e = e->prev;
 1452              		.loc 1 248 11 view .LVU386
 1453 0014 8242     		cmp	r2, r0
 1454 0016 F6D0     		beq	.L105
 248:Drivers/lvgl/src/misc/lv_event.c ****         e = e->prev;
 1455              		.loc 1 248 45 discriminator 2 view .LVU387
 1456 0018 1A68     		ldr	r2, [r3]
 248:Drivers/lvgl/src/misc/lv_event.c ****         e = e->prev;
 1457              		.loc 1 248 41 discriminator 2 view .LVU388
 1458 001a 8242     		cmp	r2, r0
 1459 001c F7D1     		bne	.L106
 1460 001e F2E7     		b	.L105
 1461              	.L108:
 251:Drivers/lvgl/src/misc/lv_event.c **** 
 1462              		.loc 1 251 1 view .LVU389
 1463 0020 7047     		bx	lr
 1464              	.L110:
 1465 0022 00BF     		.align	2
 1466              	.L109:
 1467 0024 00000000 		.word	lv_global
 1468              		.cfi_endproc
 1469              	.LFE205:
 1471              		.section	.rodata.lv_event_code_get_name.str1.4,"aMS",%progbits,1
 1472              		.align	2
 1473              	.LC0:
 1474 0000 4556454E 		.ascii	"EVENT_ALL\000"
 1474      545F414C 
 1474      4C00
ARM GAS  /tmp/ccroaa0e.s 			page 41


 1475 000a 0000     		.align	2
 1476              	.LC1:
 1477 000c 4556454E 		.ascii	"EVENT_PRESSED\000"
 1477      545F5052 
 1477      45535345 
 1477      4400
 1478 001a 0000     		.align	2
 1479              	.LC2:
 1480 001c 4556454E 		.ascii	"EVENT_PRESSING\000"
 1480      545F5052 
 1480      45535349 
 1480      4E4700
 1481 002b 00       		.align	2
 1482              	.LC3:
 1483 002c 4556454E 		.ascii	"EVENT_PRESS_LOST\000"
 1483      545F5052 
 1483      4553535F 
 1483      4C4F5354 
 1483      00
 1484 003d 000000   		.align	2
 1485              	.LC4:
 1486 0040 4556454E 		.ascii	"EVENT_SHORT_CLICKED\000"
 1486      545F5348 
 1486      4F52545F 
 1486      434C4943 
 1486      4B454400 
 1487              		.align	2
 1488              	.LC5:
 1489 0054 4556454E 		.ascii	"EVENT_SINGLE_CLICKED\000"
 1489      545F5349 
 1489      4E474C45 
 1489      5F434C49 
 1489      434B4544 
 1490 0069 000000   		.align	2
 1491              	.LC6:
 1492 006c 4556454E 		.ascii	"EVENT_DOUBLE_CLICKED\000"
 1492      545F444F 
 1492      55424C45 
 1492      5F434C49 
 1492      434B4544 
 1493 0081 000000   		.align	2
 1494              	.LC7:
 1495 0084 4556454E 		.ascii	"EVENT_TRIPLE_CLICKED\000"
 1495      545F5452 
 1495      49504C45 
 1495      5F434C49 
 1495      434B4544 
 1496 0099 000000   		.align	2
 1497              	.LC8:
 1498 009c 4556454E 		.ascii	"EVENT_LONG_PRESSED\000"
 1498      545F4C4F 
 1498      4E475F50 
 1498      52455353 
 1498      454400
 1499 00af 00       		.align	2
 1500              	.LC9:
 1501 00b0 4556454E 		.ascii	"EVENT_LONG_PRESSED_REPEAT\000"
ARM GAS  /tmp/ccroaa0e.s 			page 42


 1501      545F4C4F 
 1501      4E475F50 
 1501      52455353 
 1501      45445F52 
 1502 00ca 0000     		.align	2
 1503              	.LC10:
 1504 00cc 4556454E 		.ascii	"EVENT_CLICKED\000"
 1504      545F434C 
 1504      49434B45 
 1504      4400
 1505 00da 0000     		.align	2
 1506              	.LC11:
 1507 00dc 4556454E 		.ascii	"EVENT_RELEASED\000"
 1507      545F5245 
 1507      4C454153 
 1507      454400
 1508 00eb 00       		.align	2
 1509              	.LC12:
 1510 00ec 4556454E 		.ascii	"EVENT_SCROLL_BEGIN\000"
 1510      545F5343 
 1510      524F4C4C 
 1510      5F424547 
 1510      494E00
 1511 00ff 00       		.align	2
 1512              	.LC13:
 1513 0100 4556454E 		.ascii	"EVENT_SCROLL_THROW_BEGIN\000"
 1513      545F5343 
 1513      524F4C4C 
 1513      5F544852 
 1513      4F575F42 
 1514 0119 000000   		.align	2
 1515              	.LC14:
 1516 011c 4556454E 		.ascii	"EVENT_SCROLL_END\000"
 1516      545F5343 
 1516      524F4C4C 
 1516      5F454E44 
 1516      00
 1517 012d 000000   		.align	2
 1518              	.LC15:
 1519 0130 4556454E 		.ascii	"EVENT_SCROLL\000"
 1519      545F5343 
 1519      524F4C4C 
 1519      00
 1520 013d 000000   		.align	2
 1521              	.LC16:
 1522 0140 4556454E 		.ascii	"EVENT_GESTURE\000"
 1522      545F4745 
 1522      53545552 
 1522      4500
 1523 014e 0000     		.align	2
 1524              	.LC17:
 1525 0150 4556454E 		.ascii	"EVENT_KEY\000"
 1525      545F4B45 
 1525      5900
 1526 015a 0000     		.align	2
 1527              	.LC18:
 1528 015c 4556454E 		.ascii	"EVENT_ROTARY\000"
ARM GAS  /tmp/ccroaa0e.s 			page 43


 1528      545F524F 
 1528      54415259 
 1528      00
 1529 0169 000000   		.align	2
 1530              	.LC19:
 1531 016c 4556454E 		.ascii	"EVENT_FOCUSED\000"
 1531      545F464F 
 1531      43555345 
 1531      4400
 1532 017a 0000     		.align	2
 1533              	.LC20:
 1534 017c 4556454E 		.ascii	"EVENT_DEFOCUSED\000"
 1534      545F4445 
 1534      464F4355 
 1534      53454400 
 1535              		.align	2
 1536              	.LC21:
 1537 018c 4556454E 		.ascii	"EVENT_LEAVE\000"
 1537      545F4C45 
 1537      41564500 
 1538              		.align	2
 1539              	.LC22:
 1540 0198 4556454E 		.ascii	"EVENT_HIT_TEST\000"
 1540      545F4849 
 1540      545F5445 
 1540      535400
 1541 01a7 00       		.align	2
 1542              	.LC23:
 1543 01a8 4556454E 		.ascii	"EVENT_INDEV_RESET\000"
 1543      545F494E 
 1543      4445565F 
 1543      52455345 
 1543      5400
 1544 01ba 0000     		.align	2
 1545              	.LC24:
 1546 01bc 4556454E 		.ascii	"EVENT_HOVER_OVER\000"
 1546      545F484F 
 1546      5645525F 
 1546      4F564552 
 1546      00
 1547 01cd 000000   		.align	2
 1548              	.LC25:
 1549 01d0 4556454E 		.ascii	"EVENT_HOVER_LEAVE\000"
 1549      545F484F 
 1549      5645525F 
 1549      4C454156 
 1549      4500
 1550 01e2 0000     		.align	2
 1551              	.LC26:
 1552 01e4 4556454E 		.ascii	"EVENT_COVER_CHECK\000"
 1552      545F434F 
 1552      5645525F 
 1552      43484543 
 1552      4B00
 1553 01f6 0000     		.align	2
 1554              	.LC27:
 1555 01f8 4556454E 		.ascii	"EVENT_REFR_EXT_DRAW_SIZE\000"
ARM GAS  /tmp/ccroaa0e.s 			page 44


 1555      545F5245 
 1555      46525F45 
 1555      58545F44 
 1555      5241575F 
 1556 0211 000000   		.align	2
 1557              	.LC28:
 1558 0214 4556454E 		.ascii	"EVENT_DRAW_MAIN_BEGIN\000"
 1558      545F4452 
 1558      41575F4D 
 1558      41494E5F 
 1558      42454749 
 1559 022a 0000     		.align	2
 1560              	.LC29:
 1561 022c 4556454E 		.ascii	"EVENT_DRAW_MAIN\000"
 1561      545F4452 
 1561      41575F4D 
 1561      41494E00 
 1562              		.align	2
 1563              	.LC30:
 1564 023c 4556454E 		.ascii	"EVENT_DRAW_MAIN_END\000"
 1564      545F4452 
 1564      41575F4D 
 1564      41494E5F 
 1564      454E4400 
 1565              		.align	2
 1566              	.LC31:
 1567 0250 4556454E 		.ascii	"EVENT_DRAW_POST_BEGIN\000"
 1567      545F4452 
 1567      41575F50 
 1567      4F53545F 
 1567      42454749 
 1568 0266 0000     		.align	2
 1569              	.LC32:
 1570 0268 4556454E 		.ascii	"EVENT_DRAW_POST\000"
 1570      545F4452 
 1570      41575F50 
 1570      4F535400 
 1571              		.align	2
 1572              	.LC33:
 1573 0278 4556454E 		.ascii	"EVENT_DRAW_POST_END\000"
 1573      545F4452 
 1573      41575F50 
 1573      4F53545F 
 1573      454E4400 
 1574              		.align	2
 1575              	.LC34:
 1576 028c 4556454E 		.ascii	"EVENT_DRAW_TASK_ADDED\000"
 1576      545F4452 
 1576      41575F54 
 1576      41534B5F 
 1576      41444445 
 1577 02a2 0000     		.align	2
 1578              	.LC35:
 1579 02a4 4556454E 		.ascii	"EVENT_VALUE_CHANGED\000"
 1579      545F5641 
 1579      4C55455F 
 1579      4348414E 
ARM GAS  /tmp/ccroaa0e.s 			page 45


 1579      47454400 
 1580              		.align	2
 1581              	.LC36:
 1582 02b8 4556454E 		.ascii	"EVENT_INSERT\000"
 1582      545F494E 
 1582      53455254 
 1582      00
 1583 02c5 000000   		.align	2
 1584              	.LC37:
 1585 02c8 4556454E 		.ascii	"EVENT_REFRESH\000"
 1585      545F5245 
 1585      46524553 
 1585      4800
 1586 02d6 0000     		.align	2
 1587              	.LC38:
 1588 02d8 4556454E 		.ascii	"EVENT_READY\000"
 1588      545F5245 
 1588      41445900 
 1589              		.align	2
 1590              	.LC39:
 1591 02e4 4556454E 		.ascii	"EVENT_CANCEL\000"
 1591      545F4341 
 1591      4E43454C 
 1591      00
 1592 02f1 000000   		.align	2
 1593              	.LC40:
 1594 02f4 4556454E 		.ascii	"EVENT_CREATE\000"
 1594      545F4352 
 1594      45415445 
 1594      00
 1595 0301 000000   		.align	2
 1596              	.LC41:
 1597 0304 4556454E 		.ascii	"EVENT_DELETE\000"
 1597      545F4445 
 1597      4C455445 
 1597      00
 1598 0311 000000   		.align	2
 1599              	.LC42:
 1600 0314 4556454E 		.ascii	"EVENT_CHILD_CHANGED\000"
 1600      545F4348 
 1600      494C445F 
 1600      4348414E 
 1600      47454400 
 1601              		.align	2
 1602              	.LC43:
 1603 0328 4556454E 		.ascii	"EVENT_CHILD_CREATED\000"
 1603      545F4348 
 1603      494C445F 
 1603      43524541 
 1603      54454400 
 1604              		.align	2
 1605              	.LC44:
 1606 033c 4556454E 		.ascii	"EVENT_CHILD_DELETED\000"
 1606      545F4348 
 1606      494C445F 
 1606      44454C45 
 1606      54454400 
ARM GAS  /tmp/ccroaa0e.s 			page 46


 1607              		.align	2
 1608              	.LC45:
 1609 0350 4556454E 		.ascii	"EVENT_SCREEN_UNLOAD_START\000"
 1609      545F5343 
 1609      5245454E 
 1609      5F554E4C 
 1609      4F41445F 
 1610 036a 0000     		.align	2
 1611              	.LC46:
 1612 036c 4556454E 		.ascii	"EVENT_SCREEN_LOAD_START\000"
 1612      545F5343 
 1612      5245454E 
 1612      5F4C4F41 
 1612      445F5354 
 1613              		.align	2
 1614              	.LC47:
 1615 0384 4556454E 		.ascii	"EVENT_SCREEN_LOADED\000"
 1615      545F5343 
 1615      5245454E 
 1615      5F4C4F41 
 1615      44454400 
 1616              		.align	2
 1617              	.LC48:
 1618 0398 4556454E 		.ascii	"EVENT_SCREEN_UNLOADED\000"
 1618      545F5343 
 1618      5245454E 
 1618      5F554E4C 
 1618      4F414445 
 1619 03ae 0000     		.align	2
 1620              	.LC49:
 1621 03b0 4556454E 		.ascii	"EVENT_SIZE_CHANGED\000"
 1621      545F5349 
 1621      5A455F43 
 1621      48414E47 
 1621      454400
 1622 03c3 00       		.align	2
 1623              	.LC50:
 1624 03c4 4556454E 		.ascii	"EVENT_STYLE_CHANGED\000"
 1624      545F5354 
 1624      594C455F 
 1624      4348414E 
 1624      47454400 
 1625              		.align	2
 1626              	.LC51:
 1627 03d8 4556454E 		.ascii	"EVENT_LAYOUT_CHANGED\000"
 1627      545F4C41 
 1627      594F5554 
 1627      5F434841 
 1627      4E474544 
 1628 03ed 000000   		.align	2
 1629              	.LC52:
 1630 03f0 4556454E 		.ascii	"EVENT_GET_SELF_SIZE\000"
 1630      545F4745 
 1630      545F5345 
 1630      4C465F53 
 1630      495A4500 
 1631              		.align	2
ARM GAS  /tmp/ccroaa0e.s 			page 47


 1632              	.LC53:
 1633 0404 4556454E 		.ascii	"EVENT_INVALIDATE_AREA\000"
 1633      545F494E 
 1633      56414C49 
 1633      44415445 
 1633      5F415245 
 1634 041a 0000     		.align	2
 1635              	.LC54:
 1636 041c 4556454E 		.ascii	"EVENT_RESOLUTION_CHANGED\000"
 1636      545F5245 
 1636      534F4C55 
 1636      54494F4E 
 1636      5F434841 
 1637 0435 000000   		.align	2
 1638              	.LC55:
 1639 0438 4556454E 		.ascii	"EVENT_COLOR_FORMAT_CHANGED\000"
 1639      545F434F 
 1639      4C4F525F 
 1639      464F524D 
 1639      41545F43 
 1640 0453 00       		.align	2
 1641              	.LC56:
 1642 0454 4556454E 		.ascii	"EVENT_REFR_REQUEST\000"
 1642      545F5245 
 1642      46525F52 
 1642      45515545 
 1642      535400
 1643 0467 00       		.align	2
 1644              	.LC57:
 1645 0468 4556454E 		.ascii	"EVENT_REFR_START\000"
 1645      545F5245 
 1645      46525F53 
 1645      54415254 
 1645      00
 1646 0479 000000   		.align	2
 1647              	.LC58:
 1648 047c 4556454E 		.ascii	"EVENT_REFR_READY\000"
 1648      545F5245 
 1648      46525F52 
 1648      45414459 
 1648      00
 1649 048d 000000   		.align	2
 1650              	.LC59:
 1651 0490 4556454E 		.ascii	"EVENT_RENDER_START\000"
 1651      545F5245 
 1651      4E444552 
 1651      5F535441 
 1651      525400
 1652 04a3 00       		.align	2
 1653              	.LC60:
 1654 04a4 4556454E 		.ascii	"EVENT_RENDER_READY\000"
 1654      545F5245 
 1654      4E444552 
 1654      5F524541 
 1654      445900
 1655 04b7 00       		.align	2
 1656              	.LC61:
ARM GAS  /tmp/ccroaa0e.s 			page 48


 1657 04b8 4556454E 		.ascii	"EVENT_FLUSH_START\000"
 1657      545F464C 
 1657      5553485F 
 1657      53544152 
 1657      5400
 1658 04ca 0000     		.align	2
 1659              	.LC62:
 1660 04cc 4556454E 		.ascii	"EVENT_FLUSH_FINISH\000"
 1660      545F464C 
 1660      5553485F 
 1660      46494E49 
 1660      534800
 1661 04df 00       		.align	2
 1662              	.LC63:
 1663 04e0 4556454E 		.ascii	"EVENT_FLUSH_WAIT_START\000"
 1663      545F464C 
 1663      5553485F 
 1663      57414954 
 1663      5F535441 
 1664 04f7 00       		.align	2
 1665              	.LC64:
 1666 04f8 4556454E 		.ascii	"EVENT_FLUSH_WAIT_FINISH\000"
 1666      545F464C 
 1666      5553485F 
 1666      57414954 
 1666      5F46494E 
 1667              		.align	2
 1668              	.LC65:
 1669 0510 4556454E 		.ascii	"EVENT_VSYNC\000"
 1669      545F5653 
 1669      594E4300 
 1670              		.align	2
 1671              	.LC66:
 1672 051c 4556454E 		.ascii	"EVENT_VSYNC_REQUEST\000"
 1672      545F5653 
 1672      594E435F 
 1672      52455155 
 1672      45535400 
 1673              		.align	2
 1674              	.LC67:
 1675 0530 4556454E 		.ascii	"EVENT_UNKNOWN\000"
 1675      545F554E 
 1675      4B4E4F57 
 1675      4E00
 1676              		.section	.text.lv_event_code_get_name,"ax",%progbits
 1677              		.align	1
 1678              		.global	lv_event_code_get_name
 1679              		.syntax unified
 1680              		.thumb
 1681              		.thumb_func
 1683              	lv_event_code_get_name:
 1684              	.LVL126:
 1685              	.LFB206:
 254:Drivers/lvgl/src/misc/lv_event.c ****     /*Remove the preprocess flag*/
 1686              		.loc 1 254 1 is_stmt 1 view -0
 1687              		.cfi_startproc
 1688              		@ args = 0, pretend = 0, frame = 0
ARM GAS  /tmp/ccroaa0e.s 			page 49


 1689              		@ frame_needed = 0, uses_anonymous_args = 0
 1690              		@ link register save eliminated.
 256:Drivers/lvgl/src/misc/lv_event.c **** 
 1691              		.loc 1 256 5 view .LVU391
 256:Drivers/lvgl/src/misc/lv_event.c **** 
 1692              		.loc 1 256 10 is_stmt 0 view .LVU392
 1693 0000 20F40040 		bic	r0, r0, #32768
 1694              	.LVL127:
 260:Drivers/lvgl/src/misc/lv_event.c ****             ENUM_CASE(EVENT_ALL);
 1695              		.loc 1 260 5 is_stmt 1 view .LVU393
 1696 0004 4228     		cmp	r0, #66
 1697 0006 00F2C980 		bhi	.L112
 1698 000a DFE810F0 		tbh	[pc, r0, lsl #1]
 1699              	.L114:
 1700 000e 4300     		.2byte	(.L180-.L114)/2
 1701 0010 C900     		.2byte	(.L181-.L114)/2
 1702 0012 4500     		.2byte	(.L178-.L114)/2
 1703 0014 4700     		.2byte	(.L177-.L114)/2
 1704 0016 4900     		.2byte	(.L176-.L114)/2
 1705 0018 4B00     		.2byte	(.L175-.L114)/2
 1706 001a 4D00     		.2byte	(.L174-.L114)/2
 1707 001c 4F00     		.2byte	(.L173-.L114)/2
 1708 001e 5100     		.2byte	(.L172-.L114)/2
 1709 0020 5300     		.2byte	(.L171-.L114)/2
 1710 0022 5500     		.2byte	(.L170-.L114)/2
 1711 0024 5700     		.2byte	(.L169-.L114)/2
 1712 0026 5900     		.2byte	(.L168-.L114)/2
 1713 0028 5B00     		.2byte	(.L167-.L114)/2
 1714 002a 5D00     		.2byte	(.L166-.L114)/2
 1715 002c 5F00     		.2byte	(.L165-.L114)/2
 1716 002e 6100     		.2byte	(.L164-.L114)/2
 1717 0030 6300     		.2byte	(.L163-.L114)/2
 1718 0032 6500     		.2byte	(.L162-.L114)/2
 1719 0034 6700     		.2byte	(.L161-.L114)/2
 1720 0036 6900     		.2byte	(.L160-.L114)/2
 1721 0038 6B00     		.2byte	(.L159-.L114)/2
 1722 003a 6D00     		.2byte	(.L158-.L114)/2
 1723 003c 6F00     		.2byte	(.L157-.L114)/2
 1724 003e 7100     		.2byte	(.L156-.L114)/2
 1725 0040 7300     		.2byte	(.L155-.L114)/2
 1726 0042 7500     		.2byte	(.L154-.L114)/2
 1727 0044 7700     		.2byte	(.L153-.L114)/2
 1728 0046 7900     		.2byte	(.L152-.L114)/2
 1729 0048 7B00     		.2byte	(.L151-.L114)/2
 1730 004a 7D00     		.2byte	(.L150-.L114)/2
 1731 004c 7F00     		.2byte	(.L149-.L114)/2
 1732 004e 8100     		.2byte	(.L148-.L114)/2
 1733 0050 8300     		.2byte	(.L147-.L114)/2
 1734 0052 8500     		.2byte	(.L146-.L114)/2
 1735 0054 8700     		.2byte	(.L145-.L114)/2
 1736 0056 8900     		.2byte	(.L144-.L114)/2
 1737 0058 8B00     		.2byte	(.L143-.L114)/2
 1738 005a 8D00     		.2byte	(.L142-.L114)/2
 1739 005c 8F00     		.2byte	(.L141-.L114)/2
 1740 005e 9100     		.2byte	(.L140-.L114)/2
 1741 0060 9300     		.2byte	(.L139-.L114)/2
 1742 0062 9500     		.2byte	(.L138-.L114)/2
ARM GAS  /tmp/ccroaa0e.s 			page 50


 1743 0064 9700     		.2byte	(.L137-.L114)/2
 1744 0066 9900     		.2byte	(.L136-.L114)/2
 1745 0068 9B00     		.2byte	(.L135-.L114)/2
 1746 006a 9D00     		.2byte	(.L134-.L114)/2
 1747 006c 9F00     		.2byte	(.L133-.L114)/2
 1748 006e A100     		.2byte	(.L132-.L114)/2
 1749 0070 A300     		.2byte	(.L131-.L114)/2
 1750 0072 A500     		.2byte	(.L130-.L114)/2
 1751 0074 A700     		.2byte	(.L129-.L114)/2
 1752 0076 A900     		.2byte	(.L128-.L114)/2
 1753 0078 AB00     		.2byte	(.L127-.L114)/2
 1754 007a AD00     		.2byte	(.L126-.L114)/2
 1755 007c AF00     		.2byte	(.L125-.L114)/2
 1756 007e B100     		.2byte	(.L124-.L114)/2
 1757 0080 B300     		.2byte	(.L123-.L114)/2
 1758 0082 B500     		.2byte	(.L122-.L114)/2
 1759 0084 B700     		.2byte	(.L121-.L114)/2
 1760 0086 B900     		.2byte	(.L120-.L114)/2
 1761 0088 BB00     		.2byte	(.L119-.L114)/2
 1762 008a BD00     		.2byte	(.L118-.L114)/2
 1763 008c BF00     		.2byte	(.L117-.L114)/2
 1764 008e C100     		.2byte	(.L116-.L114)/2
 1765 0090 C300     		.2byte	(.L115-.L114)/2
 1766 0092 C500     		.2byte	(.L113-.L114)/2
 1767              		.p2align 1
 1768              	.L180:
 1769 0094 4348     		ldr	r0, .L182
 1770              	.LVL128:
 260:Drivers/lvgl/src/misc/lv_event.c ****             ENUM_CASE(EVENT_ALL);
 1771              		.loc 1 260 5 is_stmt 0 view .LVU394
 1772 0096 7047     		bx	lr
 1773              	.LVL129:
 1774              	.L178:
 265:Drivers/lvgl/src/misc/lv_event.c ****             ENUM_CASE(EVENT_PRESS_LOST);
 1775              		.loc 1 265 13 is_stmt 1 view .LVU395
 1776 0098 4348     		ldr	r0, .L182+4
 1777              	.LVL130:
 265:Drivers/lvgl/src/misc/lv_event.c ****             ENUM_CASE(EVENT_PRESS_LOST);
 1778              		.loc 1 265 13 is_stmt 0 view .LVU396
 1779 009a 7047     		bx	lr
 1780              	.LVL131:
 1781              	.L177:
 266:Drivers/lvgl/src/misc/lv_event.c ****             ENUM_CASE(EVENT_SHORT_CLICKED);
 1782              		.loc 1 266 13 is_stmt 1 view .LVU397
 1783 009c 4348     		ldr	r0, .L182+8
 1784              	.LVL132:
 266:Drivers/lvgl/src/misc/lv_event.c ****             ENUM_CASE(EVENT_SHORT_CLICKED);
 1785              		.loc 1 266 13 is_stmt 0 view .LVU398
 1786 009e 7047     		bx	lr
 1787              	.LVL133:
 1788              	.L176:
 267:Drivers/lvgl/src/misc/lv_event.c ****             ENUM_CASE(EVENT_SINGLE_CLICKED);
 1789              		.loc 1 267 13 is_stmt 1 view .LVU399
 1790 00a0 4348     		ldr	r0, .L182+12
 1791              	.LVL134:
 267:Drivers/lvgl/src/misc/lv_event.c ****             ENUM_CASE(EVENT_SINGLE_CLICKED);
 1792              		.loc 1 267 13 is_stmt 0 view .LVU400
ARM GAS  /tmp/ccroaa0e.s 			page 51


 1793 00a2 7047     		bx	lr
 1794              	.LVL135:
 1795              	.L175:
 268:Drivers/lvgl/src/misc/lv_event.c ****             ENUM_CASE(EVENT_DOUBLE_CLICKED);
 1796              		.loc 1 268 13 is_stmt 1 view .LVU401
 1797 00a4 4348     		ldr	r0, .L182+16
 1798              	.LVL136:
 268:Drivers/lvgl/src/misc/lv_event.c ****             ENUM_CASE(EVENT_DOUBLE_CLICKED);
 1799              		.loc 1 268 13 is_stmt 0 view .LVU402
 1800 00a6 7047     		bx	lr
 1801              	.LVL137:
 1802              	.L174:
 269:Drivers/lvgl/src/misc/lv_event.c ****             ENUM_CASE(EVENT_TRIPLE_CLICKED);
 1803              		.loc 1 269 13 is_stmt 1 view .LVU403
 1804 00a8 4348     		ldr	r0, .L182+20
 1805              	.LVL138:
 269:Drivers/lvgl/src/misc/lv_event.c ****             ENUM_CASE(EVENT_TRIPLE_CLICKED);
 1806              		.loc 1 269 13 is_stmt 0 view .LVU404
 1807 00aa 7047     		bx	lr
 1808              	.LVL139:
 1809              	.L173:
 270:Drivers/lvgl/src/misc/lv_event.c ****             ENUM_CASE(EVENT_LONG_PRESSED);
 1810              		.loc 1 270 13 is_stmt 1 view .LVU405
 1811 00ac 4348     		ldr	r0, .L182+24
 1812              	.LVL140:
 270:Drivers/lvgl/src/misc/lv_event.c ****             ENUM_CASE(EVENT_LONG_PRESSED);
 1813              		.loc 1 270 13 is_stmt 0 view .LVU406
 1814 00ae 7047     		bx	lr
 1815              	.LVL141:
 1816              	.L172:
 271:Drivers/lvgl/src/misc/lv_event.c ****             ENUM_CASE(EVENT_LONG_PRESSED_REPEAT);
 1817              		.loc 1 271 13 is_stmt 1 view .LVU407
 1818 00b0 4348     		ldr	r0, .L182+28
 1819              	.LVL142:
 271:Drivers/lvgl/src/misc/lv_event.c ****             ENUM_CASE(EVENT_LONG_PRESSED_REPEAT);
 1820              		.loc 1 271 13 is_stmt 0 view .LVU408
 1821 00b2 7047     		bx	lr
 1822              	.LVL143:
 1823              	.L171:
 272:Drivers/lvgl/src/misc/lv_event.c ****             ENUM_CASE(EVENT_CLICKED);
 1824              		.loc 1 272 13 is_stmt 1 view .LVU409
 1825 00b4 4348     		ldr	r0, .L182+32
 1826              	.LVL144:
 272:Drivers/lvgl/src/misc/lv_event.c ****             ENUM_CASE(EVENT_CLICKED);
 1827              		.loc 1 272 13 is_stmt 0 view .LVU410
 1828 00b6 7047     		bx	lr
 1829              	.LVL145:
 1830              	.L170:
 273:Drivers/lvgl/src/misc/lv_event.c ****             ENUM_CASE(EVENT_RELEASED);
 1831              		.loc 1 273 13 is_stmt 1 view .LVU411
 1832 00b8 4348     		ldr	r0, .L182+36
 1833              	.LVL146:
 273:Drivers/lvgl/src/misc/lv_event.c ****             ENUM_CASE(EVENT_RELEASED);
 1834              		.loc 1 273 13 is_stmt 0 view .LVU412
 1835 00ba 7047     		bx	lr
 1836              	.LVL147:
 1837              	.L169:
ARM GAS  /tmp/ccroaa0e.s 			page 52


 274:Drivers/lvgl/src/misc/lv_event.c ****             ENUM_CASE(EVENT_SCROLL_BEGIN);
 1838              		.loc 1 274 13 is_stmt 1 view .LVU413
 1839 00bc 4348     		ldr	r0, .L182+40
 1840              	.LVL148:
 274:Drivers/lvgl/src/misc/lv_event.c ****             ENUM_CASE(EVENT_SCROLL_BEGIN);
 1841              		.loc 1 274 13 is_stmt 0 view .LVU414
 1842 00be 7047     		bx	lr
 1843              	.LVL149:
 1844              	.L168:
 275:Drivers/lvgl/src/misc/lv_event.c ****             ENUM_CASE(EVENT_SCROLL_THROW_BEGIN);
 1845              		.loc 1 275 13 is_stmt 1 view .LVU415
 1846 00c0 4348     		ldr	r0, .L182+44
 1847              	.LVL150:
 275:Drivers/lvgl/src/misc/lv_event.c ****             ENUM_CASE(EVENT_SCROLL_THROW_BEGIN);
 1848              		.loc 1 275 13 is_stmt 0 view .LVU416
 1849 00c2 7047     		bx	lr
 1850              	.LVL151:
 1851              	.L167:
 276:Drivers/lvgl/src/misc/lv_event.c ****             ENUM_CASE(EVENT_SCROLL_END);
 1852              		.loc 1 276 13 is_stmt 1 view .LVU417
 1853 00c4 4348     		ldr	r0, .L182+48
 1854              	.LVL152:
 276:Drivers/lvgl/src/misc/lv_event.c ****             ENUM_CASE(EVENT_SCROLL_END);
 1855              		.loc 1 276 13 is_stmt 0 view .LVU418
 1856 00c6 7047     		bx	lr
 1857              	.LVL153:
 1858              	.L166:
 277:Drivers/lvgl/src/misc/lv_event.c ****             ENUM_CASE(EVENT_SCROLL);
 1859              		.loc 1 277 13 is_stmt 1 view .LVU419
 1860 00c8 4348     		ldr	r0, .L182+52
 1861              	.LVL154:
 277:Drivers/lvgl/src/misc/lv_event.c ****             ENUM_CASE(EVENT_SCROLL);
 1862              		.loc 1 277 13 is_stmt 0 view .LVU420
 1863 00ca 7047     		bx	lr
 1864              	.LVL155:
 1865              	.L165:
 278:Drivers/lvgl/src/misc/lv_event.c ****             ENUM_CASE(EVENT_GESTURE);
 1866              		.loc 1 278 13 is_stmt 1 view .LVU421
 1867 00cc 4348     		ldr	r0, .L182+56
 1868              	.LVL156:
 278:Drivers/lvgl/src/misc/lv_event.c ****             ENUM_CASE(EVENT_GESTURE);
 1869              		.loc 1 278 13 is_stmt 0 view .LVU422
 1870 00ce 7047     		bx	lr
 1871              	.LVL157:
 1872              	.L164:
 279:Drivers/lvgl/src/misc/lv_event.c ****             ENUM_CASE(EVENT_KEY);
 1873              		.loc 1 279 13 is_stmt 1 view .LVU423
 1874 00d0 4348     		ldr	r0, .L182+60
 1875              	.LVL158:
 279:Drivers/lvgl/src/misc/lv_event.c ****             ENUM_CASE(EVENT_KEY);
 1876              		.loc 1 279 13 is_stmt 0 view .LVU424
 1877 00d2 7047     		bx	lr
 1878              	.LVL159:
 1879              	.L163:
 280:Drivers/lvgl/src/misc/lv_event.c ****             ENUM_CASE(EVENT_ROTARY);
 1880              		.loc 1 280 13 is_stmt 1 view .LVU425
 1881 00d4 4348     		ldr	r0, .L182+64
ARM GAS  /tmp/ccroaa0e.s 			page 53


 1882              	.LVL160:
 280:Drivers/lvgl/src/misc/lv_event.c ****             ENUM_CASE(EVENT_ROTARY);
 1883              		.loc 1 280 13 is_stmt 0 view .LVU426
 1884 00d6 7047     		bx	lr
 1885              	.LVL161:
 1886              	.L162:
 281:Drivers/lvgl/src/misc/lv_event.c ****             ENUM_CASE(EVENT_FOCUSED);
 1887              		.loc 1 281 13 is_stmt 1 view .LVU427
 1888 00d8 4348     		ldr	r0, .L182+68
 1889              	.LVL162:
 281:Drivers/lvgl/src/misc/lv_event.c ****             ENUM_CASE(EVENT_FOCUSED);
 1890              		.loc 1 281 13 is_stmt 0 view .LVU428
 1891 00da 7047     		bx	lr
 1892              	.LVL163:
 1893              	.L161:
 282:Drivers/lvgl/src/misc/lv_event.c ****             ENUM_CASE(EVENT_DEFOCUSED);
 1894              		.loc 1 282 13 is_stmt 1 view .LVU429
 1895 00dc 4348     		ldr	r0, .L182+72
 1896              	.LVL164:
 282:Drivers/lvgl/src/misc/lv_event.c ****             ENUM_CASE(EVENT_DEFOCUSED);
 1897              		.loc 1 282 13 is_stmt 0 view .LVU430
 1898 00de 7047     		bx	lr
 1899              	.LVL165:
 1900              	.L160:
 283:Drivers/lvgl/src/misc/lv_event.c ****             ENUM_CASE(EVENT_LEAVE);
 1901              		.loc 1 283 13 is_stmt 1 view .LVU431
 1902 00e0 4348     		ldr	r0, .L182+76
 1903              	.LVL166:
 283:Drivers/lvgl/src/misc/lv_event.c ****             ENUM_CASE(EVENT_LEAVE);
 1904              		.loc 1 283 13 is_stmt 0 view .LVU432
 1905 00e2 7047     		bx	lr
 1906              	.LVL167:
 1907              	.L159:
 284:Drivers/lvgl/src/misc/lv_event.c ****             ENUM_CASE(EVENT_HIT_TEST);
 1908              		.loc 1 284 13 is_stmt 1 view .LVU433
 1909 00e4 4348     		ldr	r0, .L182+80
 1910              	.LVL168:
 284:Drivers/lvgl/src/misc/lv_event.c ****             ENUM_CASE(EVENT_HIT_TEST);
 1911              		.loc 1 284 13 is_stmt 0 view .LVU434
 1912 00e6 7047     		bx	lr
 1913              	.LVL169:
 1914              	.L158:
 285:Drivers/lvgl/src/misc/lv_event.c ****             ENUM_CASE(EVENT_INDEV_RESET);
 1915              		.loc 1 285 13 is_stmt 1 view .LVU435
 1916 00e8 4348     		ldr	r0, .L182+84
 1917              	.LVL170:
 285:Drivers/lvgl/src/misc/lv_event.c ****             ENUM_CASE(EVENT_INDEV_RESET);
 1918              		.loc 1 285 13 is_stmt 0 view .LVU436
 1919 00ea 7047     		bx	lr
 1920              	.LVL171:
 1921              	.L157:
 286:Drivers/lvgl/src/misc/lv_event.c ****             ENUM_CASE(EVENT_HOVER_OVER);
 1922              		.loc 1 286 13 is_stmt 1 view .LVU437
 1923 00ec 4348     		ldr	r0, .L182+88
 1924              	.LVL172:
 286:Drivers/lvgl/src/misc/lv_event.c ****             ENUM_CASE(EVENT_HOVER_OVER);
 1925              		.loc 1 286 13 is_stmt 0 view .LVU438
ARM GAS  /tmp/ccroaa0e.s 			page 54


 1926 00ee 7047     		bx	lr
 1927              	.LVL173:
 1928              	.L156:
 287:Drivers/lvgl/src/misc/lv_event.c ****             ENUM_CASE(EVENT_HOVER_LEAVE);
 1929              		.loc 1 287 13 is_stmt 1 view .LVU439
 1930 00f0 4348     		ldr	r0, .L182+92
 1931              	.LVL174:
 287:Drivers/lvgl/src/misc/lv_event.c ****             ENUM_CASE(EVENT_HOVER_LEAVE);
 1932              		.loc 1 287 13 is_stmt 0 view .LVU440
 1933 00f2 7047     		bx	lr
 1934              	.LVL175:
 1935              	.L155:
 288:Drivers/lvgl/src/misc/lv_event.c **** 
 1936              		.loc 1 288 13 is_stmt 1 view .LVU441
 1937 00f4 4348     		ldr	r0, .L182+96
 1938              	.LVL176:
 288:Drivers/lvgl/src/misc/lv_event.c **** 
 1939              		.loc 1 288 13 is_stmt 0 view .LVU442
 1940 00f6 7047     		bx	lr
 1941              	.LVL177:
 1942              	.L154:
 291:Drivers/lvgl/src/misc/lv_event.c ****             ENUM_CASE(EVENT_REFR_EXT_DRAW_SIZE);
 1943              		.loc 1 291 13 is_stmt 1 view .LVU443
 1944 00f8 4348     		ldr	r0, .L182+100
 1945              	.LVL178:
 291:Drivers/lvgl/src/misc/lv_event.c ****             ENUM_CASE(EVENT_REFR_EXT_DRAW_SIZE);
 1946              		.loc 1 291 13 is_stmt 0 view .LVU444
 1947 00fa 7047     		bx	lr
 1948              	.LVL179:
 1949              	.L153:
 292:Drivers/lvgl/src/misc/lv_event.c ****             ENUM_CASE(EVENT_DRAW_MAIN_BEGIN);
 1950              		.loc 1 292 13 is_stmt 1 view .LVU445
 1951 00fc 4348     		ldr	r0, .L182+104
 1952              	.LVL180:
 292:Drivers/lvgl/src/misc/lv_event.c ****             ENUM_CASE(EVENT_DRAW_MAIN_BEGIN);
 1953              		.loc 1 292 13 is_stmt 0 view .LVU446
 1954 00fe 7047     		bx	lr
 1955              	.LVL181:
 1956              	.L152:
 293:Drivers/lvgl/src/misc/lv_event.c ****             ENUM_CASE(EVENT_DRAW_MAIN);
 1957              		.loc 1 293 13 is_stmt 1 view .LVU447
 1958 0100 4348     		ldr	r0, .L182+108
 1959              	.LVL182:
 293:Drivers/lvgl/src/misc/lv_event.c ****             ENUM_CASE(EVENT_DRAW_MAIN);
 1960              		.loc 1 293 13 is_stmt 0 view .LVU448
 1961 0102 7047     		bx	lr
 1962              	.LVL183:
 1963              	.L151:
 294:Drivers/lvgl/src/misc/lv_event.c ****             ENUM_CASE(EVENT_DRAW_MAIN_END);
 1964              		.loc 1 294 13 is_stmt 1 view .LVU449
 1965 0104 4348     		ldr	r0, .L182+112
 1966              	.LVL184:
 294:Drivers/lvgl/src/misc/lv_event.c ****             ENUM_CASE(EVENT_DRAW_MAIN_END);
 1967              		.loc 1 294 13 is_stmt 0 view .LVU450
 1968 0106 7047     		bx	lr
 1969              	.LVL185:
 1970              	.L150:
ARM GAS  /tmp/ccroaa0e.s 			page 55


 295:Drivers/lvgl/src/misc/lv_event.c ****             ENUM_CASE(EVENT_DRAW_POST_BEGIN);
 1971              		.loc 1 295 13 is_stmt 1 view .LVU451
 1972 0108 4348     		ldr	r0, .L182+116
 1973              	.LVL186:
 295:Drivers/lvgl/src/misc/lv_event.c ****             ENUM_CASE(EVENT_DRAW_POST_BEGIN);
 1974              		.loc 1 295 13 is_stmt 0 view .LVU452
 1975 010a 7047     		bx	lr
 1976              	.LVL187:
 1977              	.L149:
 296:Drivers/lvgl/src/misc/lv_event.c ****             ENUM_CASE(EVENT_DRAW_POST);
 1978              		.loc 1 296 13 is_stmt 1 view .LVU453
 1979 010c 4348     		ldr	r0, .L182+120
 1980              	.LVL188:
 296:Drivers/lvgl/src/misc/lv_event.c ****             ENUM_CASE(EVENT_DRAW_POST);
 1981              		.loc 1 296 13 is_stmt 0 view .LVU454
 1982 010e 7047     		bx	lr
 1983              	.LVL189:
 1984              	.L148:
 297:Drivers/lvgl/src/misc/lv_event.c ****             ENUM_CASE(EVENT_DRAW_POST_END);
 1985              		.loc 1 297 13 is_stmt 1 view .LVU455
 1986 0110 4348     		ldr	r0, .L182+124
 1987              	.LVL190:
 297:Drivers/lvgl/src/misc/lv_event.c ****             ENUM_CASE(EVENT_DRAW_POST_END);
 1988              		.loc 1 297 13 is_stmt 0 view .LVU456
 1989 0112 7047     		bx	lr
 1990              	.LVL191:
 1991              	.L147:
 298:Drivers/lvgl/src/misc/lv_event.c ****             ENUM_CASE(EVENT_DRAW_TASK_ADDED);
 1992              		.loc 1 298 13 is_stmt 1 view .LVU457
 1993 0114 4348     		ldr	r0, .L182+128
 1994              	.LVL192:
 298:Drivers/lvgl/src/misc/lv_event.c ****             ENUM_CASE(EVENT_DRAW_TASK_ADDED);
 1995              		.loc 1 298 13 is_stmt 0 view .LVU458
 1996 0116 7047     		bx	lr
 1997              	.LVL193:
 1998              	.L146:
 299:Drivers/lvgl/src/misc/lv_event.c **** 
 1999              		.loc 1 299 13 is_stmt 1 view .LVU459
 2000 0118 4348     		ldr	r0, .L182+132
 2001              	.LVL194:
 299:Drivers/lvgl/src/misc/lv_event.c **** 
 2002              		.loc 1 299 13 is_stmt 0 view .LVU460
 2003 011a 7047     		bx	lr
 2004              	.LVL195:
 2005              	.L145:
 302:Drivers/lvgl/src/misc/lv_event.c ****             ENUM_CASE(EVENT_INSERT);
 2006              		.loc 1 302 13 is_stmt 1 view .LVU461
 2007 011c 4348     		ldr	r0, .L182+136
 2008              	.LVL196:
 302:Drivers/lvgl/src/misc/lv_event.c ****             ENUM_CASE(EVENT_INSERT);
 2009              		.loc 1 302 13 is_stmt 0 view .LVU462
 2010 011e 7047     		bx	lr
 2011              	.LVL197:
 2012              	.L144:
 303:Drivers/lvgl/src/misc/lv_event.c ****             ENUM_CASE(EVENT_REFRESH);
 2013              		.loc 1 303 13 is_stmt 1 view .LVU463
 2014 0120 4348     		ldr	r0, .L182+140
ARM GAS  /tmp/ccroaa0e.s 			page 56


 2015              	.LVL198:
 303:Drivers/lvgl/src/misc/lv_event.c ****             ENUM_CASE(EVENT_REFRESH);
 2016              		.loc 1 303 13 is_stmt 0 view .LVU464
 2017 0122 7047     		bx	lr
 2018              	.LVL199:
 2019              	.L143:
 304:Drivers/lvgl/src/misc/lv_event.c ****             ENUM_CASE(EVENT_READY);
 2020              		.loc 1 304 13 is_stmt 1 view .LVU465
 2021 0124 4348     		ldr	r0, .L182+144
 2022              	.LVL200:
 304:Drivers/lvgl/src/misc/lv_event.c ****             ENUM_CASE(EVENT_READY);
 2023              		.loc 1 304 13 is_stmt 0 view .LVU466
 2024 0126 7047     		bx	lr
 2025              	.LVL201:
 2026              	.L142:
 305:Drivers/lvgl/src/misc/lv_event.c ****             ENUM_CASE(EVENT_CANCEL);
 2027              		.loc 1 305 13 is_stmt 1 view .LVU467
 2028 0128 4348     		ldr	r0, .L182+148
 2029              	.LVL202:
 305:Drivers/lvgl/src/misc/lv_event.c ****             ENUM_CASE(EVENT_CANCEL);
 2030              		.loc 1 305 13 is_stmt 0 view .LVU468
 2031 012a 7047     		bx	lr
 2032              	.LVL203:
 2033              	.L141:
 306:Drivers/lvgl/src/misc/lv_event.c **** 
 2034              		.loc 1 306 13 is_stmt 1 view .LVU469
 2035 012c 4348     		ldr	r0, .L182+152
 2036              	.LVL204:
 306:Drivers/lvgl/src/misc/lv_event.c **** 
 2037              		.loc 1 306 13 is_stmt 0 view .LVU470
 2038 012e 7047     		bx	lr
 2039              	.LVL205:
 2040              	.L140:
 309:Drivers/lvgl/src/misc/lv_event.c ****             ENUM_CASE(EVENT_DELETE);
 2041              		.loc 1 309 13 is_stmt 1 view .LVU471
 2042 0130 4348     		ldr	r0, .L182+156
 2043              	.LVL206:
 309:Drivers/lvgl/src/misc/lv_event.c ****             ENUM_CASE(EVENT_DELETE);
 2044              		.loc 1 309 13 is_stmt 0 view .LVU472
 2045 0132 7047     		bx	lr
 2046              	.LVL207:
 2047              	.L139:
 310:Drivers/lvgl/src/misc/lv_event.c ****             ENUM_CASE(EVENT_CHILD_CHANGED);
 2048              		.loc 1 310 13 is_stmt 1 view .LVU473
 2049 0134 4348     		ldr	r0, .L182+160
 2050              	.LVL208:
 310:Drivers/lvgl/src/misc/lv_event.c ****             ENUM_CASE(EVENT_CHILD_CHANGED);
 2051              		.loc 1 310 13 is_stmt 0 view .LVU474
 2052 0136 7047     		bx	lr
 2053              	.LVL209:
 2054              	.L138:
 311:Drivers/lvgl/src/misc/lv_event.c ****             ENUM_CASE(EVENT_CHILD_CREATED);
 2055              		.loc 1 311 13 is_stmt 1 view .LVU475
 2056 0138 4348     		ldr	r0, .L182+164
 2057              	.LVL210:
 311:Drivers/lvgl/src/misc/lv_event.c ****             ENUM_CASE(EVENT_CHILD_CREATED);
 2058              		.loc 1 311 13 is_stmt 0 view .LVU476
ARM GAS  /tmp/ccroaa0e.s 			page 57


 2059 013a 7047     		bx	lr
 2060              	.LVL211:
 2061              	.L137:
 312:Drivers/lvgl/src/misc/lv_event.c ****             ENUM_CASE(EVENT_CHILD_DELETED);
 2062              		.loc 1 312 13 is_stmt 1 view .LVU477
 2063 013c 4348     		ldr	r0, .L182+168
 2064              	.LVL212:
 312:Drivers/lvgl/src/misc/lv_event.c ****             ENUM_CASE(EVENT_CHILD_DELETED);
 2065              		.loc 1 312 13 is_stmt 0 view .LVU478
 2066 013e 7047     		bx	lr
 2067              	.LVL213:
 2068              	.L136:
 313:Drivers/lvgl/src/misc/lv_event.c ****             ENUM_CASE(EVENT_SCREEN_UNLOAD_START);
 2069              		.loc 1 313 13 is_stmt 1 view .LVU479
 2070 0140 4348     		ldr	r0, .L182+172
 2071              	.LVL214:
 313:Drivers/lvgl/src/misc/lv_event.c ****             ENUM_CASE(EVENT_SCREEN_UNLOAD_START);
 2072              		.loc 1 313 13 is_stmt 0 view .LVU480
 2073 0142 7047     		bx	lr
 2074              	.LVL215:
 2075              	.L135:
 314:Drivers/lvgl/src/misc/lv_event.c ****             ENUM_CASE(EVENT_SCREEN_LOAD_START);
 2076              		.loc 1 314 13 is_stmt 1 view .LVU481
 2077 0144 4348     		ldr	r0, .L182+176
 2078              	.LVL216:
 314:Drivers/lvgl/src/misc/lv_event.c ****             ENUM_CASE(EVENT_SCREEN_LOAD_START);
 2079              		.loc 1 314 13 is_stmt 0 view .LVU482
 2080 0146 7047     		bx	lr
 2081              	.LVL217:
 2082              	.L134:
 315:Drivers/lvgl/src/misc/lv_event.c ****             ENUM_CASE(EVENT_SCREEN_LOADED);
 2083              		.loc 1 315 13 is_stmt 1 view .LVU483
 2084 0148 4348     		ldr	r0, .L182+180
 2085              	.LVL218:
 315:Drivers/lvgl/src/misc/lv_event.c ****             ENUM_CASE(EVENT_SCREEN_LOADED);
 2086              		.loc 1 315 13 is_stmt 0 view .LVU484
 2087 014a 7047     		bx	lr
 2088              	.LVL219:
 2089              	.L133:
 316:Drivers/lvgl/src/misc/lv_event.c ****             ENUM_CASE(EVENT_SCREEN_UNLOADED);
 2090              		.loc 1 316 13 is_stmt 1 view .LVU485
 2091 014c 4348     		ldr	r0, .L182+184
 2092              	.LVL220:
 316:Drivers/lvgl/src/misc/lv_event.c ****             ENUM_CASE(EVENT_SCREEN_UNLOADED);
 2093              		.loc 1 316 13 is_stmt 0 view .LVU486
 2094 014e 7047     		bx	lr
 2095              	.LVL221:
 2096              	.L132:
 317:Drivers/lvgl/src/misc/lv_event.c ****             ENUM_CASE(EVENT_SIZE_CHANGED);
 2097              		.loc 1 317 13 is_stmt 1 view .LVU487
 2098 0150 4348     		ldr	r0, .L182+188
 2099              	.LVL222:
 317:Drivers/lvgl/src/misc/lv_event.c ****             ENUM_CASE(EVENT_SIZE_CHANGED);
 2100              		.loc 1 317 13 is_stmt 0 view .LVU488
 2101 0152 7047     		bx	lr
 2102              	.LVL223:
 2103              	.L131:
ARM GAS  /tmp/ccroaa0e.s 			page 58


 318:Drivers/lvgl/src/misc/lv_event.c ****             ENUM_CASE(EVENT_STYLE_CHANGED);
 2104              		.loc 1 318 13 is_stmt 1 view .LVU489
 2105 0154 4348     		ldr	r0, .L182+192
 2106              	.LVL224:
 318:Drivers/lvgl/src/misc/lv_event.c ****             ENUM_CASE(EVENT_STYLE_CHANGED);
 2107              		.loc 1 318 13 is_stmt 0 view .LVU490
 2108 0156 7047     		bx	lr
 2109              	.LVL225:
 2110              	.L130:
 319:Drivers/lvgl/src/misc/lv_event.c ****             ENUM_CASE(EVENT_LAYOUT_CHANGED);
 2111              		.loc 1 319 13 is_stmt 1 view .LVU491
 2112 0158 4348     		ldr	r0, .L182+196
 2113              	.LVL226:
 319:Drivers/lvgl/src/misc/lv_event.c ****             ENUM_CASE(EVENT_LAYOUT_CHANGED);
 2114              		.loc 1 319 13 is_stmt 0 view .LVU492
 2115 015a 7047     		bx	lr
 2116              	.LVL227:
 2117              	.L129:
 320:Drivers/lvgl/src/misc/lv_event.c ****             ENUM_CASE(EVENT_GET_SELF_SIZE);
 2118              		.loc 1 320 13 is_stmt 1 view .LVU493
 2119 015c 4348     		ldr	r0, .L182+200
 2120              	.LVL228:
 320:Drivers/lvgl/src/misc/lv_event.c ****             ENUM_CASE(EVENT_GET_SELF_SIZE);
 2121              		.loc 1 320 13 is_stmt 0 view .LVU494
 2122 015e 7047     		bx	lr
 2123              	.LVL229:
 2124              	.L128:
 321:Drivers/lvgl/src/misc/lv_event.c **** 
 2125              		.loc 1 321 13 is_stmt 1 view .LVU495
 2126 0160 4348     		ldr	r0, .L182+204
 2127              	.LVL230:
 321:Drivers/lvgl/src/misc/lv_event.c **** 
 2128              		.loc 1 321 13 is_stmt 0 view .LVU496
 2129 0162 7047     		bx	lr
 2130              	.LVL231:
 2131              	.L127:
 324:Drivers/lvgl/src/misc/lv_event.c ****             ENUM_CASE(EVENT_RESOLUTION_CHANGED);
 2132              		.loc 1 324 13 is_stmt 1 view .LVU497
 2133 0164 4348     		ldr	r0, .L182+208
 2134              	.LVL232:
 324:Drivers/lvgl/src/misc/lv_event.c ****             ENUM_CASE(EVENT_RESOLUTION_CHANGED);
 2135              		.loc 1 324 13 is_stmt 0 view .LVU498
 2136 0166 7047     		bx	lr
 2137              	.LVL233:
 2138              	.L126:
 325:Drivers/lvgl/src/misc/lv_event.c ****             ENUM_CASE(EVENT_COLOR_FORMAT_CHANGED);
 2139              		.loc 1 325 13 is_stmt 1 view .LVU499
 2140 0168 4348     		ldr	r0, .L182+212
 2141              	.LVL234:
 325:Drivers/lvgl/src/misc/lv_event.c ****             ENUM_CASE(EVENT_COLOR_FORMAT_CHANGED);
 2142              		.loc 1 325 13 is_stmt 0 view .LVU500
 2143 016a 7047     		bx	lr
 2144              	.LVL235:
 2145              	.L125:
 326:Drivers/lvgl/src/misc/lv_event.c ****             ENUM_CASE(EVENT_REFR_REQUEST);
 2146              		.loc 1 326 13 is_stmt 1 view .LVU501
 2147 016c 4348     		ldr	r0, .L182+216
ARM GAS  /tmp/ccroaa0e.s 			page 59


 2148              	.LVL236:
 326:Drivers/lvgl/src/misc/lv_event.c ****             ENUM_CASE(EVENT_REFR_REQUEST);
 2149              		.loc 1 326 13 is_stmt 0 view .LVU502
 2150 016e 7047     		bx	lr
 2151              	.LVL237:
 2152              	.L124:
 327:Drivers/lvgl/src/misc/lv_event.c ****             ENUM_CASE(EVENT_REFR_START);
 2153              		.loc 1 327 13 is_stmt 1 view .LVU503
 2154 0170 4348     		ldr	r0, .L182+220
 2155              	.LVL238:
 327:Drivers/lvgl/src/misc/lv_event.c ****             ENUM_CASE(EVENT_REFR_START);
 2156              		.loc 1 327 13 is_stmt 0 view .LVU504
 2157 0172 7047     		bx	lr
 2158              	.LVL239:
 2159              	.L123:
 328:Drivers/lvgl/src/misc/lv_event.c ****             ENUM_CASE(EVENT_REFR_READY);
 2160              		.loc 1 328 13 is_stmt 1 view .LVU505
 2161 0174 4348     		ldr	r0, .L182+224
 2162              	.LVL240:
 328:Drivers/lvgl/src/misc/lv_event.c ****             ENUM_CASE(EVENT_REFR_READY);
 2163              		.loc 1 328 13 is_stmt 0 view .LVU506
 2164 0176 7047     		bx	lr
 2165              	.LVL241:
 2166              	.L122:
 329:Drivers/lvgl/src/misc/lv_event.c ****             ENUM_CASE(EVENT_RENDER_START);
 2167              		.loc 1 329 13 is_stmt 1 view .LVU507
 2168 0178 4348     		ldr	r0, .L182+228
 2169              	.LVL242:
 329:Drivers/lvgl/src/misc/lv_event.c ****             ENUM_CASE(EVENT_RENDER_START);
 2170              		.loc 1 329 13 is_stmt 0 view .LVU508
 2171 017a 7047     		bx	lr
 2172              	.LVL243:
 2173              	.L121:
 330:Drivers/lvgl/src/misc/lv_event.c ****             ENUM_CASE(EVENT_RENDER_READY);
 2174              		.loc 1 330 13 is_stmt 1 view .LVU509
 2175 017c 4348     		ldr	r0, .L182+232
 2176              	.LVL244:
 330:Drivers/lvgl/src/misc/lv_event.c ****             ENUM_CASE(EVENT_RENDER_READY);
 2177              		.loc 1 330 13 is_stmt 0 view .LVU510
 2178 017e 7047     		bx	lr
 2179              	.LVL245:
 2180              	.L120:
 331:Drivers/lvgl/src/misc/lv_event.c ****             ENUM_CASE(EVENT_FLUSH_START);
 2181              		.loc 1 331 13 is_stmt 1 view .LVU511
 2182 0180 4348     		ldr	r0, .L182+236
 2183              	.LVL246:
 331:Drivers/lvgl/src/misc/lv_event.c ****             ENUM_CASE(EVENT_FLUSH_START);
 2184              		.loc 1 331 13 is_stmt 0 view .LVU512
 2185 0182 7047     		bx	lr
 2186              	.LVL247:
 2187              	.L119:
 332:Drivers/lvgl/src/misc/lv_event.c ****             ENUM_CASE(EVENT_FLUSH_FINISH);
 2188              		.loc 1 332 13 is_stmt 1 view .LVU513
 2189 0184 4348     		ldr	r0, .L182+240
 2190              	.LVL248:
 332:Drivers/lvgl/src/misc/lv_event.c ****             ENUM_CASE(EVENT_FLUSH_FINISH);
 2191              		.loc 1 332 13 is_stmt 0 view .LVU514
ARM GAS  /tmp/ccroaa0e.s 			page 60


 2192 0186 7047     		bx	lr
 2193              	.LVL249:
 2194              	.L118:
 333:Drivers/lvgl/src/misc/lv_event.c ****             ENUM_CASE(EVENT_FLUSH_WAIT_START);
 2195              		.loc 1 333 13 is_stmt 1 view .LVU515
 2196 0188 4348     		ldr	r0, .L182+244
 2197              	.LVL250:
 333:Drivers/lvgl/src/misc/lv_event.c ****             ENUM_CASE(EVENT_FLUSH_WAIT_START);
 2198              		.loc 1 333 13 is_stmt 0 view .LVU516
 2199 018a 7047     		bx	lr
 2200              	.LVL251:
 2201              	.L117:
 334:Drivers/lvgl/src/misc/lv_event.c ****             ENUM_CASE(EVENT_FLUSH_WAIT_FINISH);
 2202              		.loc 1 334 13 is_stmt 1 view .LVU517
 2203 018c 4348     		ldr	r0, .L182+248
 2204              	.LVL252:
 334:Drivers/lvgl/src/misc/lv_event.c ****             ENUM_CASE(EVENT_FLUSH_WAIT_FINISH);
 2205              		.loc 1 334 13 is_stmt 0 view .LVU518
 2206 018e 7047     		bx	lr
 2207              	.LVL253:
 2208              	.L116:
 335:Drivers/lvgl/src/misc/lv_event.c **** 
 2209              		.loc 1 335 13 is_stmt 1 view .LVU519
 2210 0190 4348     		ldr	r0, .L182+252
 2211              	.LVL254:
 335:Drivers/lvgl/src/misc/lv_event.c **** 
 2212              		.loc 1 335 13 is_stmt 0 view .LVU520
 2213 0192 7047     		bx	lr
 2214              	.LVL255:
 2215              	.L115:
 337:Drivers/lvgl/src/misc/lv_event.c ****             ENUM_CASE(EVENT_VSYNC_REQUEST);
 2216              		.loc 1 337 13 is_stmt 1 view .LVU521
 2217 0194 4348     		ldr	r0, .L182+256
 2218              	.LVL256:
 337:Drivers/lvgl/src/misc/lv_event.c ****             ENUM_CASE(EVENT_VSYNC_REQUEST);
 2219              		.loc 1 337 13 is_stmt 0 view .LVU522
 2220 0196 7047     		bx	lr
 2221              	.LVL257:
 2222              	.L113:
 338:Drivers/lvgl/src/misc/lv_event.c **** 
 2223              		.loc 1 338 13 is_stmt 1 view .LVU523
 2224 0198 4348     		ldr	r0, .L182+260
 2225              	.LVL258:
 338:Drivers/lvgl/src/misc/lv_event.c **** 
 2226              		.loc 1 338 13 is_stmt 0 view .LVU524
 2227 019a 7047     		bx	lr
 2228              	.LVL259:
 2229              	.L112:
 353:Drivers/lvgl/src/misc/lv_event.c **** }
 2230              		.loc 1 353 5 is_stmt 1 view .LVU525
 353:Drivers/lvgl/src/misc/lv_event.c **** }
 2231              		.loc 1 353 12 is_stmt 0 view .LVU526
 2232 019c 4348     		ldr	r0, .L182+264
 2233              	.LVL260:
 353:Drivers/lvgl/src/misc/lv_event.c **** }
 2234              		.loc 1 353 12 view .LVU527
 2235 019e 7047     		bx	lr
ARM GAS  /tmp/ccroaa0e.s 			page 61


 2236              	.LVL261:
 2237              	.L181:
 264:Drivers/lvgl/src/misc/lv_event.c ****             ENUM_CASE(EVENT_PRESSING);
 2238              		.loc 1 264 13 view .LVU528
 2239 01a0 4348     		ldr	r0, .L182+268
 2240              	.LVL262:
 354:Drivers/lvgl/src/misc/lv_event.c **** 
 2241              		.loc 1 354 1 view .LVU529
 2242 01a2 7047     		bx	lr
 2243              	.L183:
 2244              		.align	2
 2245              	.L182:
 2246 01a4 00000000 		.word	.LC0
 2247 01a8 1C000000 		.word	.LC2
 2248 01ac 2C000000 		.word	.LC3
 2249 01b0 40000000 		.word	.LC4
 2250 01b4 54000000 		.word	.LC5
 2251 01b8 6C000000 		.word	.LC6
 2252 01bc 84000000 		.word	.LC7
 2253 01c0 9C000000 		.word	.LC8
 2254 01c4 B0000000 		.word	.LC9
 2255 01c8 CC000000 		.word	.LC10
 2256 01cc DC000000 		.word	.LC11
 2257 01d0 EC000000 		.word	.LC12
 2258 01d4 00010000 		.word	.LC13
 2259 01d8 1C010000 		.word	.LC14
 2260 01dc 30010000 		.word	.LC15
 2261 01e0 40010000 		.word	.LC16
 2262 01e4 50010000 		.word	.LC17
 2263 01e8 5C010000 		.word	.LC18
 2264 01ec 6C010000 		.word	.LC19
 2265 01f0 7C010000 		.word	.LC20
 2266 01f4 8C010000 		.word	.LC21
 2267 01f8 98010000 		.word	.LC22
 2268 01fc A8010000 		.word	.LC23
 2269 0200 BC010000 		.word	.LC24
 2270 0204 D0010000 		.word	.LC25
 2271 0208 E4010000 		.word	.LC26
 2272 020c F8010000 		.word	.LC27
 2273 0210 14020000 		.word	.LC28
 2274 0214 2C020000 		.word	.LC29
 2275 0218 3C020000 		.word	.LC30
 2276 021c 50020000 		.word	.LC31
 2277 0220 68020000 		.word	.LC32
 2278 0224 78020000 		.word	.LC33
 2279 0228 8C020000 		.word	.LC34
 2280 022c A4020000 		.word	.LC35
 2281 0230 B8020000 		.word	.LC36
 2282 0234 C8020000 		.word	.LC37
 2283 0238 D8020000 		.word	.LC38
 2284 023c E4020000 		.word	.LC39
 2285 0240 F4020000 		.word	.LC40
 2286 0244 04030000 		.word	.LC41
 2287 0248 14030000 		.word	.LC42
 2288 024c 28030000 		.word	.LC43
 2289 0250 3C030000 		.word	.LC44
 2290 0254 50030000 		.word	.LC45
ARM GAS  /tmp/ccroaa0e.s 			page 62


 2291 0258 6C030000 		.word	.LC46
 2292 025c 84030000 		.word	.LC47
 2293 0260 98030000 		.word	.LC48
 2294 0264 B0030000 		.word	.LC49
 2295 0268 C4030000 		.word	.LC50
 2296 026c D8030000 		.word	.LC51
 2297 0270 F0030000 		.word	.LC52
 2298 0274 04040000 		.word	.LC53
 2299 0278 1C040000 		.word	.LC54
 2300 027c 38040000 		.word	.LC55
 2301 0280 54040000 		.word	.LC56
 2302 0284 68040000 		.word	.LC57
 2303 0288 7C040000 		.word	.LC58
 2304 028c 90040000 		.word	.LC59
 2305 0290 A4040000 		.word	.LC60
 2306 0294 B8040000 		.word	.LC61
 2307 0298 CC040000 		.word	.LC62
 2308 029c E0040000 		.word	.LC63
 2309 02a0 F8040000 		.word	.LC64
 2310 02a4 10050000 		.word	.LC65
 2311 02a8 1C050000 		.word	.LC66
 2312 02ac 30050000 		.word	.LC67
 2313 02b0 0C000000 		.word	.LC1
 2314              		.cfi_endproc
 2315              	.LFE206:
 2317              		.text
 2318              	.Letext0:
 2319              		.file 3 "/usr/arm-none-eabi/include/machine/_default_types.h"
 2320              		.file 4 "/usr/arm-none-eabi/include/sys/_stdint.h"
 2321              		.file 5 "/usr/lib/gcc/arm-none-eabi/14.2.0/include/stddef.h"
 2322              		.file 6 "Drivers/lvgl/src/misc/lv_types.h"
 2323              		.file 7 "Drivers/lvgl/src/misc/../core/../draw/lv_draw.h"
 2324              		.file 8 "Drivers/lvgl/src/misc/../core/../draw/lv_draw_private.h"
 2325              		.file 9 "Drivers/lvgl/src/misc/lv_event_private.h"
 2326              		.file 10 "Drivers/lvgl/src/misc/../core/../misc/lv_timer_private.h"
 2327              		.file 11 "Drivers/lvgl/src/misc/../core/../draw/../misc/cache/lv_cache_private.h"
 2328              		.file 12 "Drivers/lvgl/src/misc/../core/../draw/lv_draw_buf_private.h"
 2329              		.file 13 "Drivers/lvgl/src/misc/../core/../draw/../misc/../font/../draw/lv_draw_buf.h"
 2330              		.file 14 "Drivers/lvgl/src/misc/lv_event.h"
 2331              		.file 15 "Drivers/lvgl/src/misc/../core/../draw/../misc/../font/../draw/../misc/lv_area.h"
 2332              		.file 16 "Drivers/lvgl/src/misc/../core/../draw/../misc/../font/../draw/../misc/lv_color.h"
 2333              		.file 17 "Drivers/lvgl/src/misc/../core/../draw/../misc/../font/../draw/lv_image_dsc.h"
 2334              		.file 18 "Drivers/lvgl/src/misc/../core/../draw/../misc/../tick/lv_tick.h"
 2335              		.file 19 "Drivers/lvgl/src/misc/../core/../draw/../misc/lv_ll.h"
 2336              		.file 20 "Drivers/lvgl/src/misc/../core/../draw/../misc/lv_timer.h"
 2337              		.file 21 "Drivers/lvgl/src/misc/../core/../draw/../misc/../layouts/lv_layout.h"
 2338              		.file 22 "Drivers/lvgl/src/misc/../core/../draw/sw/../../osal/lv_os_none.h"
 2339              		.file 23 "Drivers/lvgl/src/misc/../core/../misc/lv_anim_private.h"
 2340              		.file 24 "Drivers/lvgl/src/misc/../core/../tick/lv_tick_private.h"
 2341              		.file 25 "Drivers/lvgl/src/misc/../core/../draw/sw/lv_draw_sw_mask_private.h"
 2342              		.file 26 "Drivers/lvgl/src/misc/../core/../layouts/lv_layout_private.h"
 2343              		.file 27 "Drivers/lvgl/src/misc/../core/lv_global.h"
 2344              		.file 28 "Drivers/lvgl/src/misc/../core/../draw/../misc/../font/../draw/../misc/../stdlib/lv_mem.h
ARM GAS  /tmp/ccroaa0e.s 			page 63

