ARM GAS  /tmp/ccrr0zZf.s 			page 1


   1              		.cpu cortex-m7
   2              		.arch armv7e-m
   3              		.fpu fpv5-sp-d16
   4              		.eabi_attribute 27, 1
   5              		.eabi_attribute 28, 1
   6              		.eabi_attribute 20, 1
   7              		.eabi_attribute 21, 1
   8              		.eabi_attribute 23, 3
   9              		.eabi_attribute 24, 1
  10              		.eabi_attribute 25, 1
  11              		.eabi_attribute 26, 1
  12              		.eabi_attribute 30, 1
  13              		.eabi_attribute 34, 1
  14              		.eabi_attribute 18, 4
  15              		.file	"lv_grad.c"
  16              		.text
  17              	.Ltext0:
  18              		.cfi_sections	.debug_frame
  19              		.file 1 "Drivers/lvgl/src/misc/lv_grad.c"
  20              		.section	.text.lv_grad_init_stops,"ax",%progbits
  21              		.align	1
  22              		.global	lv_grad_init_stops
  23              		.syntax unified
  24              		.thumb
  25              		.thumb_func
  27              	lv_grad_init_stops:
  28              	.LVL0:
  29              	.LFB4:
   1:Drivers/lvgl/src/misc/lv_grad.c **** /**
   2:Drivers/lvgl/src/misc/lv_grad.c ****  * @file lv_grad.c
   3:Drivers/lvgl/src/misc/lv_grad.c ****  *
   4:Drivers/lvgl/src/misc/lv_grad.c ****  */
   5:Drivers/lvgl/src/misc/lv_grad.c **** 
   6:Drivers/lvgl/src/misc/lv_grad.c **** /*********************
   7:Drivers/lvgl/src/misc/lv_grad.c ****  *      INCLUDES
   8:Drivers/lvgl/src/misc/lv_grad.c ****  *********************/
   9:Drivers/lvgl/src/misc/lv_grad.c **** #include "lv_grad.h"
  10:Drivers/lvgl/src/misc/lv_grad.c **** 
  11:Drivers/lvgl/src/misc/lv_grad.c **** /*********************
  12:Drivers/lvgl/src/misc/lv_grad.c ****  *      DEFINES
  13:Drivers/lvgl/src/misc/lv_grad.c ****  *********************/
  14:Drivers/lvgl/src/misc/lv_grad.c **** 
  15:Drivers/lvgl/src/misc/lv_grad.c **** /**********************
  16:Drivers/lvgl/src/misc/lv_grad.c ****  *      TYPEDEFS
  17:Drivers/lvgl/src/misc/lv_grad.c ****  **********************/
  18:Drivers/lvgl/src/misc/lv_grad.c **** 
  19:Drivers/lvgl/src/misc/lv_grad.c **** /**********************
  20:Drivers/lvgl/src/misc/lv_grad.c ****  *  STATIC PROTOTYPES
  21:Drivers/lvgl/src/misc/lv_grad.c ****  **********************/
  22:Drivers/lvgl/src/misc/lv_grad.c **** 
  23:Drivers/lvgl/src/misc/lv_grad.c **** /**********************
  24:Drivers/lvgl/src/misc/lv_grad.c ****  *  STATIC VARIABLES
  25:Drivers/lvgl/src/misc/lv_grad.c ****  **********************/
  26:Drivers/lvgl/src/misc/lv_grad.c **** 
  27:Drivers/lvgl/src/misc/lv_grad.c **** /**********************
  28:Drivers/lvgl/src/misc/lv_grad.c ****  *      MACROS
  29:Drivers/lvgl/src/misc/lv_grad.c ****  **********************/
ARM GAS  /tmp/ccrr0zZf.s 			page 2


  30:Drivers/lvgl/src/misc/lv_grad.c **** 
  31:Drivers/lvgl/src/misc/lv_grad.c **** /**********************
  32:Drivers/lvgl/src/misc/lv_grad.c ****  *   GLOBAL FUNCTIONS
  33:Drivers/lvgl/src/misc/lv_grad.c ****  **********************/
  34:Drivers/lvgl/src/misc/lv_grad.c **** void lv_grad_init_stops(lv_grad_dsc_t * dsc, const lv_color_t colors[], const lv_opa_t opa[],
  35:Drivers/lvgl/src/misc/lv_grad.c ****                         const uint8_t fracs[], int num_stops)
  36:Drivers/lvgl/src/misc/lv_grad.c **** {
  30              		.loc 1 36 1 view -0
  31              		.cfi_startproc
  32              		@ args = 4, pretend = 0, frame = 0
  33              		@ frame_needed = 0, uses_anonymous_args = 0
  34              		.loc 1 36 1 is_stmt 0 view .LVU1
  35 0000 2DE9F043 		push	{r4, r5, r6, r7, r8, r9, lr}
  36              	.LCFI0:
  37              		.cfi_def_cfa_offset 28
  38              		.cfi_offset 4, -28
  39              		.cfi_offset 5, -24
  40              		.cfi_offset 6, -20
  41              		.cfi_offset 7, -16
  42              		.cfi_offset 8, -12
  43              		.cfi_offset 9, -8
  44              		.cfi_offset 14, -4
  45 0004 8E46     		mov	lr, r1
  46 0006 1146     		mov	r1, r2
  47              	.LVL1:
  48              		.loc 1 36 1 view .LVU2
  49 0008 1A46     		mov	r2, r3
  50              	.LVL2:
  51              		.loc 1 36 1 view .LVU3
  52 000a 079B     		ldr	r3, [sp, #28]
  53              	.LVL3:
  37:Drivers/lvgl/src/misc/lv_grad.c ****     LV_ASSERT(num_stops <= LV_GRADIENT_MAX_STOPS);
  54              		.loc 1 37 5 is_stmt 1 view .LVU4
  55              		.loc 1 37 5 view .LVU5
  56 000c 022B     		cmp	r3, #2
  57 000e 00DD     		ble	.L2
  58              	.L3:
  59              		.loc 1 37 5 discriminator 1 view .LVU6
  60              		.loc 1 37 5 discriminator 1 view .LVU7
  61              		.loc 1 37 5 discriminator 1 view .LVU8
  62              		.loc 1 37 5 discriminator 1 view .LVU9
  63              		.loc 1 37 5 discriminator 1 view .LVU10
  64 0010 FEE7     		b	.L3
  65              	.L2:
  66              		.loc 1 37 5 discriminator 2 view .LVU11
  38:Drivers/lvgl/src/misc/lv_grad.c ****     LV_ASSERT(num_stops > 1);
  67              		.loc 1 38 5 view .LVU12
  68              		.loc 1 38 5 view .LVU13
  69 0012 012B     		cmp	r3, #1
  70 0014 07DD     		ble	.L5
  71              		.loc 1 38 5 discriminator 2 view .LVU14
  39:Drivers/lvgl/src/misc/lv_grad.c ****     LV_ASSERT_NULL(dsc);
  72              		.loc 1 39 5 view .LVU15
  73              		.loc 1 39 5 view .LVU16
  74 0016 38B1     		cbz	r0, .L7
  75              		.loc 1 39 5 discriminator 2 view .LVU17
  76              		.loc 1 39 24 discriminator 2 view .LVU18
ARM GAS  /tmp/ccrr0zZf.s 			page 3


  40:Drivers/lvgl/src/misc/lv_grad.c ****     LV_ASSERT_NULL(colors);
  77              		.loc 1 40 5 view .LVU19
  78              		.loc 1 40 5 view .LVU20
  79 0018 BEF1000F 		cmp	lr, #0
  80 001c 05D0     		beq	.L9
  81              		.loc 1 40 5 discriminator 2 view .LVU21
  82              		.loc 1 40 27 discriminator 2 view .LVU22
  41:Drivers/lvgl/src/misc/lv_grad.c **** 
  42:Drivers/lvgl/src/misc/lv_grad.c ****     dsc->stops_count = num_stops;
  83              		.loc 1 42 5 view .LVU23
  84              		.loc 1 42 22 is_stmt 0 view .LVU24
  85 001e 8372     		strb	r3, [r0, #10]
  43:Drivers/lvgl/src/misc/lv_grad.c ****     for(int i = 0; i < num_stops; i++) {
  86              		.loc 1 43 5 is_stmt 1 view .LVU25
  87              	.LBB2:
  88              		.loc 1 43 9 view .LVU26
  89              	.LVL4:
  90              		.loc 1 43 13 is_stmt 0 view .LVU27
  91 0020 4FF0000C 		mov	ip, #0
  92              		.loc 1 43 5 view .LVU28
  93 0024 10E0     		b	.L10
  94              	.LVL5:
  95              	.L5:
  96              		.loc 1 43 5 view .LVU29
  97              	.LBE2:
  38:Drivers/lvgl/src/misc/lv_grad.c ****     LV_ASSERT_NULL(dsc);
  98              		.loc 1 38 5 is_stmt 1 discriminator 1 view .LVU30
  38:Drivers/lvgl/src/misc/lv_grad.c ****     LV_ASSERT_NULL(dsc);
  99              		.loc 1 38 5 discriminator 1 view .LVU31
  38:Drivers/lvgl/src/misc/lv_grad.c ****     LV_ASSERT_NULL(dsc);
 100              		.loc 1 38 5 discriminator 1 view .LVU32
  38:Drivers/lvgl/src/misc/lv_grad.c ****     LV_ASSERT_NULL(dsc);
 101              		.loc 1 38 5 discriminator 1 view .LVU33
  38:Drivers/lvgl/src/misc/lv_grad.c ****     LV_ASSERT_NULL(dsc);
 102              		.loc 1 38 5 discriminator 1 view .LVU34
 103 0026 FEE7     		b	.L5
 104              	.L7:
  39:Drivers/lvgl/src/misc/lv_grad.c ****     LV_ASSERT_NULL(colors);
 105              		.loc 1 39 5 discriminator 1 view .LVU35
  39:Drivers/lvgl/src/misc/lv_grad.c ****     LV_ASSERT_NULL(colors);
 106              		.loc 1 39 5 discriminator 1 view .LVU36
  39:Drivers/lvgl/src/misc/lv_grad.c ****     LV_ASSERT_NULL(colors);
 107              		.loc 1 39 5 discriminator 1 view .LVU37
  39:Drivers/lvgl/src/misc/lv_grad.c ****     LV_ASSERT_NULL(colors);
 108              		.loc 1 39 5 discriminator 1 view .LVU38
  39:Drivers/lvgl/src/misc/lv_grad.c ****     LV_ASSERT_NULL(colors);
 109              		.loc 1 39 5 discriminator 1 view .LVU39
 110 0028 FEE7     		b	.L7
 111              	.L9:
  40:Drivers/lvgl/src/misc/lv_grad.c **** 
 112              		.loc 1 40 5 discriminator 1 view .LVU40
  40:Drivers/lvgl/src/misc/lv_grad.c **** 
 113              		.loc 1 40 5 discriminator 1 view .LVU41
  40:Drivers/lvgl/src/misc/lv_grad.c **** 
 114              		.loc 1 40 5 discriminator 1 view .LVU42
  40:Drivers/lvgl/src/misc/lv_grad.c **** 
 115              		.loc 1 40 5 discriminator 1 view .LVU43
ARM GAS  /tmp/ccrr0zZf.s 			page 4


  40:Drivers/lvgl/src/misc/lv_grad.c **** 
 116              		.loc 1 40 5 discriminator 1 view .LVU44
 117 002a FEE7     		b	.L9
 118              	.LVL6:
 119              	.L15:
 120              	.LBB3:
  44:Drivers/lvgl/src/misc/lv_grad.c ****         dsc->stops[i].color = colors[i];
  45:Drivers/lvgl/src/misc/lv_grad.c ****         dsc->stops[i].opa = opa != NULL ? opa[i] : LV_OPA_COVER;
 121              		.loc 1 45 27 is_stmt 0 discriminator 2 view .LVU45
 122 002c FF25     		movs	r5, #255
 123 002e 20E0     		b	.L11
 124              	.L12:
  46:Drivers/lvgl/src/misc/lv_grad.c ****         dsc->stops[i].frac = fracs != NULL ? fracs[i] : 255 * i / (num_stops - 1);
 125              		.loc 1 46 61 discriminator 2 view .LVU46
 126 0030 CCEB0C25 		rsb	r5, ip, ip, lsl #8
 127              		.loc 1 46 78 discriminator 2 view .LVU47
 128 0034 5C1E     		subs	r4, r3, #1
 129              		.loc 1 46 65 discriminator 2 view .LVU48
 130 0036 95FBF4F5 		sdiv	r5, r5, r4
 131              		.loc 1 46 28 discriminator 2 view .LVU49
 132 003a EDB2     		uxtb	r5, r5
 133              	.L13:
 134              		.loc 1 46 28 discriminator 4 view .LVU50
 135 003c 0CEB8C04 		add	r4, ip, ip, lsl #2
 136 0040 0444     		add	r4, r4, r0
 137 0042 2571     		strb	r5, [r4, #4]
  43:Drivers/lvgl/src/misc/lv_grad.c ****         dsc->stops[i].color = colors[i];
 138              		.loc 1 43 36 is_stmt 1 discriminator 2 view .LVU51
 139 0044 0CF1010C 		add	ip, ip, #1
 140              	.LVL7:
 141              	.L10:
  43:Drivers/lvgl/src/misc/lv_grad.c ****         dsc->stops[i].color = colors[i];
 142              		.loc 1 43 22 discriminator 1 view .LVU52
 143 0048 9C45     		cmp	ip, r3
 144 004a 1ADA     		bge	.L17
  44:Drivers/lvgl/src/misc/lv_grad.c ****         dsc->stops[i].color = colors[i];
 145              		.loc 1 44 9 view .LVU53
  44:Drivers/lvgl/src/misc/lv_grad.c ****         dsc->stops[i].color = colors[i];
 146              		.loc 1 44 37 is_stmt 0 view .LVU54
 147 004c 6746     		mov	r7, ip
 148 004e 0CEB4C05 		add	r5, ip, ip, lsl #1
 149 0052 0EEB0509 		add	r9, lr, r5
  44:Drivers/lvgl/src/misc/lv_grad.c ****         dsc->stops[i].color = colors[i];
 150              		.loc 1 44 29 view .LVU55
 151 0056 0CEB8C04 		add	r4, ip, ip, lsl #2
 152 005a 0619     		adds	r6, r0, r4
 153 005c 3EF80580 		ldrh	r8, [lr, r5]	@ unaligned
 154 0060 99F80250 		ldrb	r5, [r9, #2]	@ zero_extendqisi2
 155 0064 20F80480 		strh	r8, [r0, r4]	@ unaligned
 156 0068 B570     		strb	r5, [r6, #2]
  45:Drivers/lvgl/src/misc/lv_grad.c ****         dsc->stops[i].frac = fracs != NULL ? fracs[i] : 255 * i / (num_stops - 1);
 157              		.loc 1 45 9 is_stmt 1 view .LVU56
  45:Drivers/lvgl/src/misc/lv_grad.c ****         dsc->stops[i].frac = fracs != NULL ? fracs[i] : 255 * i / (num_stops - 1);
 158              		.loc 1 45 27 is_stmt 0 view .LVU57
 159 006a 0029     		cmp	r1, #0
 160 006c DED0     		beq	.L15
  45:Drivers/lvgl/src/misc/lv_grad.c ****         dsc->stops[i].frac = fracs != NULL ? fracs[i] : 255 * i / (num_stops - 1);
ARM GAS  /tmp/ccrr0zZf.s 			page 5


 161              		.loc 1 45 27 discriminator 1 view .LVU58
 162 006e 11F80C50 		ldrb	r5, [r1, ip]	@ zero_extendqisi2
 163              	.L11:
  45:Drivers/lvgl/src/misc/lv_grad.c ****         dsc->stops[i].frac = fracs != NULL ? fracs[i] : 255 * i / (num_stops - 1);
 164              		.loc 1 45 27 discriminator 4 view .LVU59
 165 0072 0CEB8C04 		add	r4, ip, ip, lsl #2
 166 0076 0444     		add	r4, r4, r0
 167 0078 E570     		strb	r5, [r4, #3]
 168              		.loc 1 46 9 is_stmt 1 view .LVU60
 169              		.loc 1 46 28 is_stmt 0 view .LVU61
 170 007a 002A     		cmp	r2, #0
 171 007c D8D0     		beq	.L12
 172              		.loc 1 46 28 discriminator 1 view .LVU62
 173 007e D55D     		ldrb	r5, [r2, r7]	@ zero_extendqisi2
 174 0080 DCE7     		b	.L13
 175              	.L17:
 176              		.loc 1 46 28 discriminator 1 view .LVU63
 177              	.LBE3:
  47:Drivers/lvgl/src/misc/lv_grad.c ****     }
  48:Drivers/lvgl/src/misc/lv_grad.c **** }
 178              		.loc 1 48 1 view .LVU64
 179 0082 BDE8F083 		pop	{r4, r5, r6, r7, r8, r9, pc}
 180              		.loc 1 48 1 view .LVU65
 181              		.cfi_endproc
 182              	.LFE4:
 184              		.section	.text.lv_grad_horizontal_init,"ax",%progbits
 185              		.align	1
 186              		.global	lv_grad_horizontal_init
 187              		.syntax unified
 188              		.thumb
 189              		.thumb_func
 191              	lv_grad_horizontal_init:
 192              	.LVL8:
 193              	.LFB5:
  49:Drivers/lvgl/src/misc/lv_grad.c **** 
  50:Drivers/lvgl/src/misc/lv_grad.c **** void lv_grad_horizontal_init(lv_grad_dsc_t * dsc)
  51:Drivers/lvgl/src/misc/lv_grad.c **** {
 194              		.loc 1 51 1 is_stmt 1 view -0
 195              		.cfi_startproc
 196              		@ args = 0, pretend = 0, frame = 0
 197              		@ frame_needed = 0, uses_anonymous_args = 0
 198              		@ link register save eliminated.
  52:Drivers/lvgl/src/misc/lv_grad.c ****     LV_ASSERT_NULL(dsc);
 199              		.loc 1 52 5 view .LVU67
 200              		.loc 1 52 5 view .LVU68
 201 0000 28B1     		cbz	r0, .L20
 202              		.loc 1 52 5 discriminator 2 view .LVU69
 203              		.loc 1 52 24 discriminator 2 view .LVU70
  53:Drivers/lvgl/src/misc/lv_grad.c **** 
  54:Drivers/lvgl/src/misc/lv_grad.c ****     dsc->dir = LV_GRAD_DIR_HOR;
 204              		.loc 1 54 5 view .LVU71
 205              		.loc 1 54 14 is_stmt 0 view .LVU72
 206 0002 C27A     		ldrb	r2, [r0, #11]	@ zero_extendqisi2
 207 0004 0221     		movs	r1, #2
 208 0006 61F30302 		bfi	r2, r1, #0, #4
 209 000a C272     		strb	r2, [r0, #11]
  55:Drivers/lvgl/src/misc/lv_grad.c **** }
ARM GAS  /tmp/ccrr0zZf.s 			page 6


 210              		.loc 1 55 1 view .LVU73
 211 000c 7047     		bx	lr
 212              	.L20:
  52:Drivers/lvgl/src/misc/lv_grad.c ****     LV_ASSERT_NULL(dsc);
 213              		.loc 1 52 5 is_stmt 1 discriminator 1 view .LVU74
  52:Drivers/lvgl/src/misc/lv_grad.c ****     LV_ASSERT_NULL(dsc);
 214              		.loc 1 52 5 discriminator 1 view .LVU75
  52:Drivers/lvgl/src/misc/lv_grad.c ****     LV_ASSERT_NULL(dsc);
 215              		.loc 1 52 5 discriminator 1 view .LVU76
  52:Drivers/lvgl/src/misc/lv_grad.c ****     LV_ASSERT_NULL(dsc);
 216              		.loc 1 52 5 discriminator 1 view .LVU77
  52:Drivers/lvgl/src/misc/lv_grad.c ****     LV_ASSERT_NULL(dsc);
 217              		.loc 1 52 5 discriminator 1 view .LVU78
 218 000e FEE7     		b	.L20
 219              		.cfi_endproc
 220              	.LFE5:
 222              		.section	.text.lv_grad_vertical_init,"ax",%progbits
 223              		.align	1
 224              		.global	lv_grad_vertical_init
 225              		.syntax unified
 226              		.thumb
 227              		.thumb_func
 229              	lv_grad_vertical_init:
 230              	.LVL9:
 231              	.LFB6:
  56:Drivers/lvgl/src/misc/lv_grad.c **** 
  57:Drivers/lvgl/src/misc/lv_grad.c **** void lv_grad_vertical_init(lv_grad_dsc_t * dsc)
  58:Drivers/lvgl/src/misc/lv_grad.c **** {
 232              		.loc 1 58 1 view -0
 233              		.cfi_startproc
 234              		@ args = 0, pretend = 0, frame = 0
 235              		@ frame_needed = 0, uses_anonymous_args = 0
 236              		@ link register save eliminated.
  59:Drivers/lvgl/src/misc/lv_grad.c ****     LV_ASSERT_NULL(dsc);
 237              		.loc 1 59 5 view .LVU80
 238              		.loc 1 59 5 view .LVU81
 239 0000 28B1     		cbz	r0, .L23
 240              		.loc 1 59 5 discriminator 2 view .LVU82
 241              		.loc 1 59 24 discriminator 2 view .LVU83
  60:Drivers/lvgl/src/misc/lv_grad.c **** 
  61:Drivers/lvgl/src/misc/lv_grad.c ****     dsc->dir = LV_GRAD_DIR_VER;
 242              		.loc 1 61 5 view .LVU84
 243              		.loc 1 61 14 is_stmt 0 view .LVU85
 244 0002 C27A     		ldrb	r2, [r0, #11]	@ zero_extendqisi2
 245 0004 0121     		movs	r1, #1
 246 0006 61F30302 		bfi	r2, r1, #0, #4
 247 000a C272     		strb	r2, [r0, #11]
  62:Drivers/lvgl/src/misc/lv_grad.c **** }
 248              		.loc 1 62 1 view .LVU86
 249 000c 7047     		bx	lr
 250              	.L23:
  59:Drivers/lvgl/src/misc/lv_grad.c ****     LV_ASSERT_NULL(dsc);
 251              		.loc 1 59 5 is_stmt 1 discriminator 1 view .LVU87
  59:Drivers/lvgl/src/misc/lv_grad.c ****     LV_ASSERT_NULL(dsc);
 252              		.loc 1 59 5 discriminator 1 view .LVU88
  59:Drivers/lvgl/src/misc/lv_grad.c ****     LV_ASSERT_NULL(dsc);
 253              		.loc 1 59 5 discriminator 1 view .LVU89
ARM GAS  /tmp/ccrr0zZf.s 			page 7


  59:Drivers/lvgl/src/misc/lv_grad.c ****     LV_ASSERT_NULL(dsc);
 254              		.loc 1 59 5 discriminator 1 view .LVU90
  59:Drivers/lvgl/src/misc/lv_grad.c ****     LV_ASSERT_NULL(dsc);
 255              		.loc 1 59 5 discriminator 1 view .LVU91
 256 000e FEE7     		b	.L23
 257              		.cfi_endproc
 258              	.LFE6:
 260              		.text
 261              	.Letext0:
 262              		.file 2 "/usr/arm-none-eabi/include/machine/_default_types.h"
 263              		.file 3 "/usr/arm-none-eabi/include/sys/_stdint.h"
 264              		.file 4 "Drivers/lvgl/src/misc/lv_types.h"
 265              		.file 5 "Drivers/lvgl/src/misc/lv_color.h"
 266              		.file 6 "Drivers/lvgl/src/misc/lv_grad.h"
ARM GAS  /tmp/ccrr0zZf.s 			page 8

