ARM GAS  /tmp/cco6PmJt.s 			page 1


   1              		.cpu cortex-m7
   2              		.arch armv7e-m
   3              		.fpu fpv5-sp-d16
   4              		.eabi_attribute 27, 1
   5              		.eabi_attribute 28, 1
   6              		.eabi_attribute 20, 1
   7              		.eabi_attribute 21, 1
   8              		.eabi_attribute 23, 3
   9              		.eabi_attribute 24, 1
  10              		.eabi_attribute 25, 1
  11              		.eabi_attribute 26, 1
  12              		.eabi_attribute 30, 1
  13              		.eabi_attribute 34, 1
  14              		.eabi_attribute 18, 4
  15              		.file	"lv_imagebutton.c"
  16              		.text
  17              	.Ltext0:
  18              		.cfi_sections	.debug_frame
  19              		.file 1 "Drivers/lvgl/src/widgets/imagebutton/lv_imagebutton.c"
  20              		.section	.text.suggest_state,"ax",%progbits
  21              		.align	1
  22              		.syntax unified
  23              		.thumb
  24              		.thumb_func
  26              	suggest_state:
  27              	.LVL0:
  28              	.LFB196:
   1:Drivers/lvgl/src/widgets/imagebutton/lv_imagebutton.c **** /**
   2:Drivers/lvgl/src/widgets/imagebutton/lv_imagebutton.c ****  * @file lv_imagebutton.c
   3:Drivers/lvgl/src/widgets/imagebutton/lv_imagebutton.c ****  *
   4:Drivers/lvgl/src/widgets/imagebutton/lv_imagebutton.c ****  */
   5:Drivers/lvgl/src/widgets/imagebutton/lv_imagebutton.c **** 
   6:Drivers/lvgl/src/widgets/imagebutton/lv_imagebutton.c **** /*********************
   7:Drivers/lvgl/src/widgets/imagebutton/lv_imagebutton.c ****  *      INCLUDES
   8:Drivers/lvgl/src/widgets/imagebutton/lv_imagebutton.c ****  *********************/
   9:Drivers/lvgl/src/widgets/imagebutton/lv_imagebutton.c **** #include "lv_imagebutton_private.h"
  10:Drivers/lvgl/src/widgets/imagebutton/lv_imagebutton.c **** #include "../../misc/lv_area_private.h"
  11:Drivers/lvgl/src/widgets/imagebutton/lv_imagebutton.c **** #include "../../draw/lv_draw_private.h"
  12:Drivers/lvgl/src/widgets/imagebutton/lv_imagebutton.c **** #include "../../core/lv_obj_private.h"
  13:Drivers/lvgl/src/widgets/imagebutton/lv_imagebutton.c **** #include "../../core/lv_obj_event_private.h"
  14:Drivers/lvgl/src/widgets/imagebutton/lv_imagebutton.c **** #include "../../core/lv_obj_class_private.h"
  15:Drivers/lvgl/src/widgets/imagebutton/lv_imagebutton.c **** 
  16:Drivers/lvgl/src/widgets/imagebutton/lv_imagebutton.c **** 
  17:Drivers/lvgl/src/widgets/imagebutton/lv_imagebutton.c **** #if LV_USE_IMAGEBUTTON != 0
  18:Drivers/lvgl/src/widgets/imagebutton/lv_imagebutton.c **** 
  19:Drivers/lvgl/src/widgets/imagebutton/lv_imagebutton.c **** #include "../../stdlib/lv_string.h"
  20:Drivers/lvgl/src/widgets/imagebutton/lv_imagebutton.c **** 
  21:Drivers/lvgl/src/widgets/imagebutton/lv_imagebutton.c **** /*********************
  22:Drivers/lvgl/src/widgets/imagebutton/lv_imagebutton.c ****  *      DEFINES
  23:Drivers/lvgl/src/widgets/imagebutton/lv_imagebutton.c ****  *********************/
  24:Drivers/lvgl/src/widgets/imagebutton/lv_imagebutton.c **** #define MY_CLASS (&lv_imagebutton_class)
  25:Drivers/lvgl/src/widgets/imagebutton/lv_imagebutton.c **** 
  26:Drivers/lvgl/src/widgets/imagebutton/lv_imagebutton.c **** /**********************
  27:Drivers/lvgl/src/widgets/imagebutton/lv_imagebutton.c ****  *      TYPEDEFS
  28:Drivers/lvgl/src/widgets/imagebutton/lv_imagebutton.c ****  **********************/
  29:Drivers/lvgl/src/widgets/imagebutton/lv_imagebutton.c **** 
  30:Drivers/lvgl/src/widgets/imagebutton/lv_imagebutton.c **** /**********************
ARM GAS  /tmp/cco6PmJt.s 			page 2


  31:Drivers/lvgl/src/widgets/imagebutton/lv_imagebutton.c ****  *  STATIC PROTOTYPES
  32:Drivers/lvgl/src/widgets/imagebutton/lv_imagebutton.c ****  **********************/
  33:Drivers/lvgl/src/widgets/imagebutton/lv_imagebutton.c **** static void lv_imagebutton_constructor(const lv_obj_class_t * class_p, lv_obj_t * obj);
  34:Drivers/lvgl/src/widgets/imagebutton/lv_imagebutton.c **** static void draw_main(lv_event_t * e);
  35:Drivers/lvgl/src/widgets/imagebutton/lv_imagebutton.c **** static void lv_imagebutton_event(const lv_obj_class_t * class_p, lv_event_t * e);
  36:Drivers/lvgl/src/widgets/imagebutton/lv_imagebutton.c **** static void refr_image(lv_obj_t * imagebutton);
  37:Drivers/lvgl/src/widgets/imagebutton/lv_imagebutton.c **** static lv_imagebutton_state_t suggest_state(lv_obj_t * imagebutton, lv_imagebutton_state_t state);
  38:Drivers/lvgl/src/widgets/imagebutton/lv_imagebutton.c **** static lv_imagebutton_state_t get_state(const lv_obj_t * imagebutton);
  39:Drivers/lvgl/src/widgets/imagebutton/lv_imagebutton.c **** static void update_src_info(lv_imagebutton_src_info_t * info, const void * src);
  40:Drivers/lvgl/src/widgets/imagebutton/lv_imagebutton.c **** 
  41:Drivers/lvgl/src/widgets/imagebutton/lv_imagebutton.c **** /**********************
  42:Drivers/lvgl/src/widgets/imagebutton/lv_imagebutton.c ****  *  STATIC VARIABLES
  43:Drivers/lvgl/src/widgets/imagebutton/lv_imagebutton.c ****  **********************/
  44:Drivers/lvgl/src/widgets/imagebutton/lv_imagebutton.c **** 
  45:Drivers/lvgl/src/widgets/imagebutton/lv_imagebutton.c **** const lv_obj_class_t lv_imagebutton_class = {
  46:Drivers/lvgl/src/widgets/imagebutton/lv_imagebutton.c ****     .base_class = &lv_obj_class,
  47:Drivers/lvgl/src/widgets/imagebutton/lv_imagebutton.c ****     .width_def = LV_SIZE_CONTENT,
  48:Drivers/lvgl/src/widgets/imagebutton/lv_imagebutton.c ****     .height_def = LV_SIZE_CONTENT,
  49:Drivers/lvgl/src/widgets/imagebutton/lv_imagebutton.c ****     .instance_size = sizeof(lv_imagebutton_t),
  50:Drivers/lvgl/src/widgets/imagebutton/lv_imagebutton.c ****     .constructor_cb = lv_imagebutton_constructor,
  51:Drivers/lvgl/src/widgets/imagebutton/lv_imagebutton.c ****     .event_cb = lv_imagebutton_event,
  52:Drivers/lvgl/src/widgets/imagebutton/lv_imagebutton.c ****     .name = "lv_imagebutton",
  53:Drivers/lvgl/src/widgets/imagebutton/lv_imagebutton.c **** };
  54:Drivers/lvgl/src/widgets/imagebutton/lv_imagebutton.c **** 
  55:Drivers/lvgl/src/widgets/imagebutton/lv_imagebutton.c **** /**********************
  56:Drivers/lvgl/src/widgets/imagebutton/lv_imagebutton.c ****  *      MACROS
  57:Drivers/lvgl/src/widgets/imagebutton/lv_imagebutton.c ****  **********************/
  58:Drivers/lvgl/src/widgets/imagebutton/lv_imagebutton.c **** 
  59:Drivers/lvgl/src/widgets/imagebutton/lv_imagebutton.c **** /**********************
  60:Drivers/lvgl/src/widgets/imagebutton/lv_imagebutton.c ****  *   GLOBAL FUNCTIONS
  61:Drivers/lvgl/src/widgets/imagebutton/lv_imagebutton.c ****  **********************/
  62:Drivers/lvgl/src/widgets/imagebutton/lv_imagebutton.c **** 
  63:Drivers/lvgl/src/widgets/imagebutton/lv_imagebutton.c **** lv_obj_t * lv_imagebutton_create(lv_obj_t * parent)
  64:Drivers/lvgl/src/widgets/imagebutton/lv_imagebutton.c **** {
  65:Drivers/lvgl/src/widgets/imagebutton/lv_imagebutton.c ****     LV_LOG_INFO("begin");
  66:Drivers/lvgl/src/widgets/imagebutton/lv_imagebutton.c ****     lv_obj_t * obj = lv_obj_class_create_obj(MY_CLASS, parent);
  67:Drivers/lvgl/src/widgets/imagebutton/lv_imagebutton.c ****     lv_obj_class_init_obj(obj);
  68:Drivers/lvgl/src/widgets/imagebutton/lv_imagebutton.c ****     return obj;
  69:Drivers/lvgl/src/widgets/imagebutton/lv_imagebutton.c **** }
  70:Drivers/lvgl/src/widgets/imagebutton/lv_imagebutton.c **** 
  71:Drivers/lvgl/src/widgets/imagebutton/lv_imagebutton.c **** /*=====================
  72:Drivers/lvgl/src/widgets/imagebutton/lv_imagebutton.c ****  * Setter functions
  73:Drivers/lvgl/src/widgets/imagebutton/lv_imagebutton.c ****  *====================*/
  74:Drivers/lvgl/src/widgets/imagebutton/lv_imagebutton.c **** 
  75:Drivers/lvgl/src/widgets/imagebutton/lv_imagebutton.c **** void lv_imagebutton_set_src(lv_obj_t * obj, lv_imagebutton_state_t state, const void * src_left, co
  76:Drivers/lvgl/src/widgets/imagebutton/lv_imagebutton.c ****                             const void * src_right)
  77:Drivers/lvgl/src/widgets/imagebutton/lv_imagebutton.c **** {
  78:Drivers/lvgl/src/widgets/imagebutton/lv_imagebutton.c ****     LV_ASSERT_OBJ(obj, MY_CLASS);
  79:Drivers/lvgl/src/widgets/imagebutton/lv_imagebutton.c **** 
  80:Drivers/lvgl/src/widgets/imagebutton/lv_imagebutton.c ****     lv_imagebutton_t * imagebutton = (lv_imagebutton_t *)obj;
  81:Drivers/lvgl/src/widgets/imagebutton/lv_imagebutton.c **** 
  82:Drivers/lvgl/src/widgets/imagebutton/lv_imagebutton.c ****     if((src_left || src_right) && !src_mid) {
  83:Drivers/lvgl/src/widgets/imagebutton/lv_imagebutton.c ****         LV_LOG_WARN("middle image source is not set while left and/or right image sources are");
  84:Drivers/lvgl/src/widgets/imagebutton/lv_imagebutton.c ****     }
  85:Drivers/lvgl/src/widgets/imagebutton/lv_imagebutton.c **** 
  86:Drivers/lvgl/src/widgets/imagebutton/lv_imagebutton.c ****     update_src_info(&imagebutton->src_left[state], src_left);
  87:Drivers/lvgl/src/widgets/imagebutton/lv_imagebutton.c ****     update_src_info(&imagebutton->src_mid[state], src_mid);
ARM GAS  /tmp/cco6PmJt.s 			page 3


  88:Drivers/lvgl/src/widgets/imagebutton/lv_imagebutton.c ****     update_src_info(&imagebutton->src_right[state], src_right);
  89:Drivers/lvgl/src/widgets/imagebutton/lv_imagebutton.c **** 
  90:Drivers/lvgl/src/widgets/imagebutton/lv_imagebutton.c ****     refr_image(obj);
  91:Drivers/lvgl/src/widgets/imagebutton/lv_imagebutton.c **** }
  92:Drivers/lvgl/src/widgets/imagebutton/lv_imagebutton.c **** 
  93:Drivers/lvgl/src/widgets/imagebutton/lv_imagebutton.c **** void lv_imagebutton_set_state(lv_obj_t * obj, lv_imagebutton_state_t state)
  94:Drivers/lvgl/src/widgets/imagebutton/lv_imagebutton.c **** {
  95:Drivers/lvgl/src/widgets/imagebutton/lv_imagebutton.c ****     LV_ASSERT_OBJ(obj, MY_CLASS);
  96:Drivers/lvgl/src/widgets/imagebutton/lv_imagebutton.c **** 
  97:Drivers/lvgl/src/widgets/imagebutton/lv_imagebutton.c ****     lv_state_t obj_state = LV_STATE_DEFAULT;
  98:Drivers/lvgl/src/widgets/imagebutton/lv_imagebutton.c ****     if(state == LV_IMAGEBUTTON_STATE_PRESSED ||
  99:Drivers/lvgl/src/widgets/imagebutton/lv_imagebutton.c ****        state == LV_IMAGEBUTTON_STATE_CHECKED_PRESSED) obj_state |= LV_STATE_PRESSED;
 100:Drivers/lvgl/src/widgets/imagebutton/lv_imagebutton.c ****     if(state == LV_IMAGEBUTTON_STATE_DISABLED ||
 101:Drivers/lvgl/src/widgets/imagebutton/lv_imagebutton.c ****        state == LV_IMAGEBUTTON_STATE_CHECKED_DISABLED) obj_state |= LV_STATE_DISABLED;
 102:Drivers/lvgl/src/widgets/imagebutton/lv_imagebutton.c ****     if(state == LV_IMAGEBUTTON_STATE_CHECKED_DISABLED || state == LV_IMAGEBUTTON_STATE_CHECKED_PRES
 103:Drivers/lvgl/src/widgets/imagebutton/lv_imagebutton.c ****        state == LV_IMAGEBUTTON_STATE_CHECKED_RELEASED) {
 104:Drivers/lvgl/src/widgets/imagebutton/lv_imagebutton.c ****         obj_state |= LV_STATE_CHECKED;
 105:Drivers/lvgl/src/widgets/imagebutton/lv_imagebutton.c ****     }
 106:Drivers/lvgl/src/widgets/imagebutton/lv_imagebutton.c **** 
 107:Drivers/lvgl/src/widgets/imagebutton/lv_imagebutton.c ****     lv_obj_remove_state(obj, LV_STATE_CHECKED | LV_STATE_PRESSED | LV_STATE_DISABLED);
 108:Drivers/lvgl/src/widgets/imagebutton/lv_imagebutton.c ****     lv_obj_add_state(obj, obj_state);
 109:Drivers/lvgl/src/widgets/imagebutton/lv_imagebutton.c **** 
 110:Drivers/lvgl/src/widgets/imagebutton/lv_imagebutton.c ****     refr_image(obj);
 111:Drivers/lvgl/src/widgets/imagebutton/lv_imagebutton.c **** }
 112:Drivers/lvgl/src/widgets/imagebutton/lv_imagebutton.c **** 
 113:Drivers/lvgl/src/widgets/imagebutton/lv_imagebutton.c **** /*=====================
 114:Drivers/lvgl/src/widgets/imagebutton/lv_imagebutton.c ****  * Getter functions
 115:Drivers/lvgl/src/widgets/imagebutton/lv_imagebutton.c ****  *====================*/
 116:Drivers/lvgl/src/widgets/imagebutton/lv_imagebutton.c **** 
 117:Drivers/lvgl/src/widgets/imagebutton/lv_imagebutton.c **** const void * lv_imagebutton_get_src_left(lv_obj_t * obj, lv_imagebutton_state_t state)
 118:Drivers/lvgl/src/widgets/imagebutton/lv_imagebutton.c **** {
 119:Drivers/lvgl/src/widgets/imagebutton/lv_imagebutton.c ****     LV_ASSERT_OBJ(obj, MY_CLASS);
 120:Drivers/lvgl/src/widgets/imagebutton/lv_imagebutton.c **** 
 121:Drivers/lvgl/src/widgets/imagebutton/lv_imagebutton.c ****     lv_imagebutton_t * imagebutton = (lv_imagebutton_t *)obj;
 122:Drivers/lvgl/src/widgets/imagebutton/lv_imagebutton.c **** 
 123:Drivers/lvgl/src/widgets/imagebutton/lv_imagebutton.c ****     return imagebutton->src_left[state].img_src;
 124:Drivers/lvgl/src/widgets/imagebutton/lv_imagebutton.c **** }
 125:Drivers/lvgl/src/widgets/imagebutton/lv_imagebutton.c **** 
 126:Drivers/lvgl/src/widgets/imagebutton/lv_imagebutton.c **** const void * lv_imagebutton_get_src_middle(lv_obj_t * obj, lv_imagebutton_state_t state)
 127:Drivers/lvgl/src/widgets/imagebutton/lv_imagebutton.c **** {
 128:Drivers/lvgl/src/widgets/imagebutton/lv_imagebutton.c ****     LV_ASSERT_OBJ(obj, MY_CLASS);
 129:Drivers/lvgl/src/widgets/imagebutton/lv_imagebutton.c ****     lv_imagebutton_t * imagebutton = (lv_imagebutton_t *)obj;
 130:Drivers/lvgl/src/widgets/imagebutton/lv_imagebutton.c **** 
 131:Drivers/lvgl/src/widgets/imagebutton/lv_imagebutton.c ****     return imagebutton->src_mid[state].img_src;
 132:Drivers/lvgl/src/widgets/imagebutton/lv_imagebutton.c **** }
 133:Drivers/lvgl/src/widgets/imagebutton/lv_imagebutton.c **** 
 134:Drivers/lvgl/src/widgets/imagebutton/lv_imagebutton.c **** const void * lv_imagebutton_get_src_right(lv_obj_t * obj, lv_imagebutton_state_t state)
 135:Drivers/lvgl/src/widgets/imagebutton/lv_imagebutton.c **** {
 136:Drivers/lvgl/src/widgets/imagebutton/lv_imagebutton.c ****     LV_ASSERT_OBJ(obj, MY_CLASS);
 137:Drivers/lvgl/src/widgets/imagebutton/lv_imagebutton.c ****     lv_imagebutton_t * imagebutton = (lv_imagebutton_t *)obj;
 138:Drivers/lvgl/src/widgets/imagebutton/lv_imagebutton.c **** 
 139:Drivers/lvgl/src/widgets/imagebutton/lv_imagebutton.c ****     return imagebutton->src_right[state].img_src;
 140:Drivers/lvgl/src/widgets/imagebutton/lv_imagebutton.c **** }
 141:Drivers/lvgl/src/widgets/imagebutton/lv_imagebutton.c **** 
 142:Drivers/lvgl/src/widgets/imagebutton/lv_imagebutton.c **** /**********************
 143:Drivers/lvgl/src/widgets/imagebutton/lv_imagebutton.c ****  *   STATIC FUNCTIONS
 144:Drivers/lvgl/src/widgets/imagebutton/lv_imagebutton.c ****  **********************/
ARM GAS  /tmp/cco6PmJt.s 			page 4


 145:Drivers/lvgl/src/widgets/imagebutton/lv_imagebutton.c **** 
 146:Drivers/lvgl/src/widgets/imagebutton/lv_imagebutton.c **** static void lv_imagebutton_constructor(const lv_obj_class_t * class_p, lv_obj_t * obj)
 147:Drivers/lvgl/src/widgets/imagebutton/lv_imagebutton.c **** {
 148:Drivers/lvgl/src/widgets/imagebutton/lv_imagebutton.c ****     LV_UNUSED(class_p);
 149:Drivers/lvgl/src/widgets/imagebutton/lv_imagebutton.c ****     lv_imagebutton_t * imagebutton = (lv_imagebutton_t *)obj;
 150:Drivers/lvgl/src/widgets/imagebutton/lv_imagebutton.c ****     /*Initialize the allocated 'ext'*/
 151:Drivers/lvgl/src/widgets/imagebutton/lv_imagebutton.c **** 
 152:Drivers/lvgl/src/widgets/imagebutton/lv_imagebutton.c ****     lv_memzero(&imagebutton->src_mid, sizeof(imagebutton->src_mid));
 153:Drivers/lvgl/src/widgets/imagebutton/lv_imagebutton.c ****     lv_memzero(&imagebutton->src_left, sizeof(imagebutton->src_left));
 154:Drivers/lvgl/src/widgets/imagebutton/lv_imagebutton.c ****     lv_memzero(&imagebutton->src_right, sizeof(imagebutton->src_right));
 155:Drivers/lvgl/src/widgets/imagebutton/lv_imagebutton.c **** }
 156:Drivers/lvgl/src/widgets/imagebutton/lv_imagebutton.c **** 
 157:Drivers/lvgl/src/widgets/imagebutton/lv_imagebutton.c **** static void lv_imagebutton_event(const lv_obj_class_t * class_p, lv_event_t * e)
 158:Drivers/lvgl/src/widgets/imagebutton/lv_imagebutton.c **** {
 159:Drivers/lvgl/src/widgets/imagebutton/lv_imagebutton.c ****     LV_UNUSED(class_p);
 160:Drivers/lvgl/src/widgets/imagebutton/lv_imagebutton.c **** 
 161:Drivers/lvgl/src/widgets/imagebutton/lv_imagebutton.c ****     lv_result_t res = lv_obj_event_base(&lv_imagebutton_class, e);
 162:Drivers/lvgl/src/widgets/imagebutton/lv_imagebutton.c ****     if(res != LV_RESULT_OK) return;
 163:Drivers/lvgl/src/widgets/imagebutton/lv_imagebutton.c **** 
 164:Drivers/lvgl/src/widgets/imagebutton/lv_imagebutton.c ****     lv_event_code_t code = lv_event_get_code(e);
 165:Drivers/lvgl/src/widgets/imagebutton/lv_imagebutton.c ****     lv_obj_t * obj = lv_event_get_current_target(e);
 166:Drivers/lvgl/src/widgets/imagebutton/lv_imagebutton.c ****     if(code == LV_EVENT_PRESSED || code == LV_EVENT_RELEASED || code == LV_EVENT_PRESS_LOST) {
 167:Drivers/lvgl/src/widgets/imagebutton/lv_imagebutton.c ****         refr_image(obj);
 168:Drivers/lvgl/src/widgets/imagebutton/lv_imagebutton.c ****     }
 169:Drivers/lvgl/src/widgets/imagebutton/lv_imagebutton.c ****     else if(code == LV_EVENT_DRAW_MAIN) {
 170:Drivers/lvgl/src/widgets/imagebutton/lv_imagebutton.c ****         draw_main(e);
 171:Drivers/lvgl/src/widgets/imagebutton/lv_imagebutton.c ****     }
 172:Drivers/lvgl/src/widgets/imagebutton/lv_imagebutton.c ****     else if(code == LV_EVENT_COVER_CHECK) {
 173:Drivers/lvgl/src/widgets/imagebutton/lv_imagebutton.c ****         lv_cover_check_info_t * info = lv_event_get_param(e);
 174:Drivers/lvgl/src/widgets/imagebutton/lv_imagebutton.c ****         if(info->res != LV_COVER_RES_MASKED) info->res = LV_COVER_RES_NOT_COVER;
 175:Drivers/lvgl/src/widgets/imagebutton/lv_imagebutton.c ****     }
 176:Drivers/lvgl/src/widgets/imagebutton/lv_imagebutton.c ****     else if(code == LV_EVENT_GET_SELF_SIZE) {
 177:Drivers/lvgl/src/widgets/imagebutton/lv_imagebutton.c ****         lv_point_t * p = lv_event_get_self_size_info(e);
 178:Drivers/lvgl/src/widgets/imagebutton/lv_imagebutton.c ****         lv_imagebutton_t * imagebutton = (lv_imagebutton_t *)obj;
 179:Drivers/lvgl/src/widgets/imagebutton/lv_imagebutton.c ****         lv_imagebutton_state_t state  = suggest_state(obj, get_state(obj));
 180:Drivers/lvgl/src/widgets/imagebutton/lv_imagebutton.c ****         if(imagebutton->src_left[state].img_src == NULL &&
 181:Drivers/lvgl/src/widgets/imagebutton/lv_imagebutton.c ****            imagebutton->src_mid[state].img_src != NULL &&
 182:Drivers/lvgl/src/widgets/imagebutton/lv_imagebutton.c ****            imagebutton->src_right[state].img_src == NULL) {
 183:Drivers/lvgl/src/widgets/imagebutton/lv_imagebutton.c ****             p->x = LV_MAX(p->x, imagebutton->src_mid[state].header.w);
 184:Drivers/lvgl/src/widgets/imagebutton/lv_imagebutton.c ****         }
 185:Drivers/lvgl/src/widgets/imagebutton/lv_imagebutton.c ****     }
 186:Drivers/lvgl/src/widgets/imagebutton/lv_imagebutton.c **** }
 187:Drivers/lvgl/src/widgets/imagebutton/lv_imagebutton.c **** 
 188:Drivers/lvgl/src/widgets/imagebutton/lv_imagebutton.c **** static void draw_main(lv_event_t * e)
 189:Drivers/lvgl/src/widgets/imagebutton/lv_imagebutton.c **** {
 190:Drivers/lvgl/src/widgets/imagebutton/lv_imagebutton.c ****     lv_obj_t * obj = lv_event_get_current_target(e);
 191:Drivers/lvgl/src/widgets/imagebutton/lv_imagebutton.c ****     lv_imagebutton_t * imagebutton = (lv_imagebutton_t *)obj;
 192:Drivers/lvgl/src/widgets/imagebutton/lv_imagebutton.c ****     lv_layer_t * layer = lv_event_get_layer(e);
 193:Drivers/lvgl/src/widgets/imagebutton/lv_imagebutton.c **** 
 194:Drivers/lvgl/src/widgets/imagebutton/lv_imagebutton.c ****     /*Just draw_main an image*/
 195:Drivers/lvgl/src/widgets/imagebutton/lv_imagebutton.c ****     lv_imagebutton_state_t state  = suggest_state(obj, get_state(obj));
 196:Drivers/lvgl/src/widgets/imagebutton/lv_imagebutton.c **** 
 197:Drivers/lvgl/src/widgets/imagebutton/lv_imagebutton.c ****     /*Simply draw the middle src if no tiled*/
 198:Drivers/lvgl/src/widgets/imagebutton/lv_imagebutton.c ****     lv_imagebutton_src_info_t * src_info = &imagebutton->src_left[state];
 199:Drivers/lvgl/src/widgets/imagebutton/lv_imagebutton.c **** 
 200:Drivers/lvgl/src/widgets/imagebutton/lv_imagebutton.c ****     int32_t tw = lv_obj_get_style_transform_width(obj, LV_PART_MAIN);
 201:Drivers/lvgl/src/widgets/imagebutton/lv_imagebutton.c ****     int32_t th = lv_obj_get_style_transform_height(obj, LV_PART_MAIN);
ARM GAS  /tmp/cco6PmJt.s 			page 5


 202:Drivers/lvgl/src/widgets/imagebutton/lv_imagebutton.c ****     lv_area_t coords;
 203:Drivers/lvgl/src/widgets/imagebutton/lv_imagebutton.c ****     lv_area_copy(&coords, &obj->coords);
 204:Drivers/lvgl/src/widgets/imagebutton/lv_imagebutton.c ****     lv_area_increase(&coords, tw, th);
 205:Drivers/lvgl/src/widgets/imagebutton/lv_imagebutton.c **** 
 206:Drivers/lvgl/src/widgets/imagebutton/lv_imagebutton.c ****     lv_draw_image_dsc_t img_dsc;
 207:Drivers/lvgl/src/widgets/imagebutton/lv_imagebutton.c ****     lv_draw_image_dsc_init(&img_dsc);
 208:Drivers/lvgl/src/widgets/imagebutton/lv_imagebutton.c ****     img_dsc.base.layer = layer;
 209:Drivers/lvgl/src/widgets/imagebutton/lv_imagebutton.c ****     lv_obj_init_draw_image_dsc(obj, LV_PART_MAIN, &img_dsc);
 210:Drivers/lvgl/src/widgets/imagebutton/lv_imagebutton.c **** 
 211:Drivers/lvgl/src/widgets/imagebutton/lv_imagebutton.c ****     lv_area_t coords_part;
 212:Drivers/lvgl/src/widgets/imagebutton/lv_imagebutton.c ****     int32_t left_w = 0;
 213:Drivers/lvgl/src/widgets/imagebutton/lv_imagebutton.c ****     int32_t right_w = 0;
 214:Drivers/lvgl/src/widgets/imagebutton/lv_imagebutton.c **** 
 215:Drivers/lvgl/src/widgets/imagebutton/lv_imagebutton.c ****     if(src_info->img_src) {
 216:Drivers/lvgl/src/widgets/imagebutton/lv_imagebutton.c ****         left_w = src_info->header.w;
 217:Drivers/lvgl/src/widgets/imagebutton/lv_imagebutton.c ****         coords_part.x1 = coords.x1;
 218:Drivers/lvgl/src/widgets/imagebutton/lv_imagebutton.c ****         coords_part.y1 = coords.y1;
 219:Drivers/lvgl/src/widgets/imagebutton/lv_imagebutton.c ****         coords_part.x2 = coords.x1 + src_info->header.w - 1;
 220:Drivers/lvgl/src/widgets/imagebutton/lv_imagebutton.c ****         coords_part.y2 = coords.y1 + src_info->header.h - 1;
 221:Drivers/lvgl/src/widgets/imagebutton/lv_imagebutton.c ****         img_dsc.src = src_info->img_src;
 222:Drivers/lvgl/src/widgets/imagebutton/lv_imagebutton.c ****         lv_draw_image(layer, &img_dsc, &coords_part);
 223:Drivers/lvgl/src/widgets/imagebutton/lv_imagebutton.c ****     }
 224:Drivers/lvgl/src/widgets/imagebutton/lv_imagebutton.c **** 
 225:Drivers/lvgl/src/widgets/imagebutton/lv_imagebutton.c ****     src_info = &imagebutton->src_right[state];
 226:Drivers/lvgl/src/widgets/imagebutton/lv_imagebutton.c ****     if(src_info->img_src) {
 227:Drivers/lvgl/src/widgets/imagebutton/lv_imagebutton.c ****         right_w = src_info->header.w;
 228:Drivers/lvgl/src/widgets/imagebutton/lv_imagebutton.c ****         coords_part.x1 = coords.x2 - src_info->header.w + 1;
 229:Drivers/lvgl/src/widgets/imagebutton/lv_imagebutton.c ****         coords_part.y1 = coords.y1;
 230:Drivers/lvgl/src/widgets/imagebutton/lv_imagebutton.c ****         coords_part.x2 = coords.x2;
 231:Drivers/lvgl/src/widgets/imagebutton/lv_imagebutton.c ****         coords_part.y2 = coords.y1 + src_info->header.h - 1;
 232:Drivers/lvgl/src/widgets/imagebutton/lv_imagebutton.c ****         img_dsc.src = src_info->img_src;
 233:Drivers/lvgl/src/widgets/imagebutton/lv_imagebutton.c ****         lv_draw_image(layer, &img_dsc, &coords_part);
 234:Drivers/lvgl/src/widgets/imagebutton/lv_imagebutton.c ****     }
 235:Drivers/lvgl/src/widgets/imagebutton/lv_imagebutton.c **** 
 236:Drivers/lvgl/src/widgets/imagebutton/lv_imagebutton.c ****     src_info = &imagebutton->src_mid[state];
 237:Drivers/lvgl/src/widgets/imagebutton/lv_imagebutton.c ****     if(src_info->img_src) {
 238:Drivers/lvgl/src/widgets/imagebutton/lv_imagebutton.c ****         coords_part.x1 = coords.x1 + left_w;
 239:Drivers/lvgl/src/widgets/imagebutton/lv_imagebutton.c ****         coords_part.x2 = coords.x2 - right_w;
 240:Drivers/lvgl/src/widgets/imagebutton/lv_imagebutton.c ****         coords_part.y1 = coords.y1;
 241:Drivers/lvgl/src/widgets/imagebutton/lv_imagebutton.c ****         coords_part.y2 = coords.y2;
 242:Drivers/lvgl/src/widgets/imagebutton/lv_imagebutton.c **** 
 243:Drivers/lvgl/src/widgets/imagebutton/lv_imagebutton.c ****         lv_area_t clip_area_center;
 244:Drivers/lvgl/src/widgets/imagebutton/lv_imagebutton.c ****         if(lv_area_intersect(&clip_area_center, &coords_part, &layer->_clip_area)) {
 245:Drivers/lvgl/src/widgets/imagebutton/lv_imagebutton.c ****             lv_area_t clip_area_ori = layer->_clip_area;
 246:Drivers/lvgl/src/widgets/imagebutton/lv_imagebutton.c ****             layer->_clip_area = clip_area_center;
 247:Drivers/lvgl/src/widgets/imagebutton/lv_imagebutton.c ****             img_dsc.src = src_info->img_src;
 248:Drivers/lvgl/src/widgets/imagebutton/lv_imagebutton.c ****             img_dsc.tile = 1;
 249:Drivers/lvgl/src/widgets/imagebutton/lv_imagebutton.c ****             lv_draw_image(layer, &img_dsc, &coords_part);
 250:Drivers/lvgl/src/widgets/imagebutton/lv_imagebutton.c ****             layer->_clip_area = clip_area_ori;
 251:Drivers/lvgl/src/widgets/imagebutton/lv_imagebutton.c ****         }
 252:Drivers/lvgl/src/widgets/imagebutton/lv_imagebutton.c **** 
 253:Drivers/lvgl/src/widgets/imagebutton/lv_imagebutton.c ****     }
 254:Drivers/lvgl/src/widgets/imagebutton/lv_imagebutton.c **** }
 255:Drivers/lvgl/src/widgets/imagebutton/lv_imagebutton.c **** 
 256:Drivers/lvgl/src/widgets/imagebutton/lv_imagebutton.c **** static void refr_image(lv_obj_t * obj)
 257:Drivers/lvgl/src/widgets/imagebutton/lv_imagebutton.c **** {
 258:Drivers/lvgl/src/widgets/imagebutton/lv_imagebutton.c ****     lv_imagebutton_t * imagebutton = (lv_imagebutton_t *)obj;
ARM GAS  /tmp/cco6PmJt.s 			page 6


 259:Drivers/lvgl/src/widgets/imagebutton/lv_imagebutton.c ****     lv_imagebutton_state_t state  = suggest_state(obj, get_state(obj));
 260:Drivers/lvgl/src/widgets/imagebutton/lv_imagebutton.c **** 
 261:Drivers/lvgl/src/widgets/imagebutton/lv_imagebutton.c ****     const void * src = imagebutton->src_mid[state].img_src;
 262:Drivers/lvgl/src/widgets/imagebutton/lv_imagebutton.c ****     if(src == NULL) return;
 263:Drivers/lvgl/src/widgets/imagebutton/lv_imagebutton.c **** 
 264:Drivers/lvgl/src/widgets/imagebutton/lv_imagebutton.c ****     lv_obj_refresh_self_size(obj);
 265:Drivers/lvgl/src/widgets/imagebutton/lv_imagebutton.c ****     lv_obj_set_height(obj, imagebutton->src_mid[state].header.h); /*Keep the user defined width*/
 266:Drivers/lvgl/src/widgets/imagebutton/lv_imagebutton.c **** 
 267:Drivers/lvgl/src/widgets/imagebutton/lv_imagebutton.c ****     lv_obj_invalidate(obj);
 268:Drivers/lvgl/src/widgets/imagebutton/lv_imagebutton.c **** }
 269:Drivers/lvgl/src/widgets/imagebutton/lv_imagebutton.c **** 
 270:Drivers/lvgl/src/widgets/imagebutton/lv_imagebutton.c **** /**
 271:Drivers/lvgl/src/widgets/imagebutton/lv_imagebutton.c ****  * If `src` is not defined for the current state try to get a state which is related to the current
 272:Drivers/lvgl/src/widgets/imagebutton/lv_imagebutton.c ****  * E.g. if the PRESSED src is not set but the RELEASED does, use the RELEASED.
 273:Drivers/lvgl/src/widgets/imagebutton/lv_imagebutton.c ****  * @param imagebutton pointer to an image button
 274:Drivers/lvgl/src/widgets/imagebutton/lv_imagebutton.c ****  * @param state the state to convert
 275:Drivers/lvgl/src/widgets/imagebutton/lv_imagebutton.c ****  * @return the suggested state
 276:Drivers/lvgl/src/widgets/imagebutton/lv_imagebutton.c ****  */
 277:Drivers/lvgl/src/widgets/imagebutton/lv_imagebutton.c **** static lv_imagebutton_state_t suggest_state(lv_obj_t * obj, lv_imagebutton_state_t state)
 278:Drivers/lvgl/src/widgets/imagebutton/lv_imagebutton.c **** {
  29              		.loc 1 278 1 view -0
  30              		.cfi_startproc
  31              		@ args = 0, pretend = 0, frame = 0
  32              		@ frame_needed = 0, uses_anonymous_args = 0
  33              		@ link register save eliminated.
  34              		.loc 1 278 1 is_stmt 0 view .LVU1
  35 0000 0346     		mov	r3, r0
  36 0002 0846     		mov	r0, r1
  37              	.LVL1:
 279:Drivers/lvgl/src/widgets/imagebutton/lv_imagebutton.c ****     lv_imagebutton_t * imagebutton = (lv_imagebutton_t *)obj;
  38              		.loc 1 279 5 is_stmt 1 view .LVU2
 280:Drivers/lvgl/src/widgets/imagebutton/lv_imagebutton.c ****     if(imagebutton->src_mid[state].img_src == NULL) {
  39              		.loc 1 280 5 view .LVU3
  40              		.loc 1 280 35 is_stmt 0 view .LVU4
  41 0004 03EB0112 		add	r2, r3, r1, lsl #4
  42 0008 D26A     		ldr	r2, [r2, #44]
  43              		.loc 1 280 7 view .LVU5
  44 000a 02B1     		cbz	r2, .L18
  45              	.LVL2:
  46              	.L2:
 281:Drivers/lvgl/src/widgets/imagebutton/lv_imagebutton.c ****         switch(state) {
 282:Drivers/lvgl/src/widgets/imagebutton/lv_imagebutton.c ****             case LV_IMAGEBUTTON_STATE_PRESSED:
 283:Drivers/lvgl/src/widgets/imagebutton/lv_imagebutton.c ****                 if(imagebutton->src_mid[LV_IMAGEBUTTON_STATE_RELEASED].img_src) return LV_IMAGEBUTT
 284:Drivers/lvgl/src/widgets/imagebutton/lv_imagebutton.c ****                 break;
 285:Drivers/lvgl/src/widgets/imagebutton/lv_imagebutton.c ****             case LV_IMAGEBUTTON_STATE_CHECKED_RELEASED:
 286:Drivers/lvgl/src/widgets/imagebutton/lv_imagebutton.c ****                 if(imagebutton->src_mid[LV_IMAGEBUTTON_STATE_RELEASED].img_src) return LV_IMAGEBUTT
 287:Drivers/lvgl/src/widgets/imagebutton/lv_imagebutton.c ****                 break;
 288:Drivers/lvgl/src/widgets/imagebutton/lv_imagebutton.c ****             case LV_IMAGEBUTTON_STATE_CHECKED_PRESSED:
 289:Drivers/lvgl/src/widgets/imagebutton/lv_imagebutton.c ****                 if(imagebutton->src_mid[LV_IMAGEBUTTON_STATE_CHECKED_RELEASED].img_src) return LV_I
 290:Drivers/lvgl/src/widgets/imagebutton/lv_imagebutton.c ****                 if(imagebutton->src_mid[LV_IMAGEBUTTON_STATE_PRESSED].img_src) return LV_IMAGEBUTTO
 291:Drivers/lvgl/src/widgets/imagebutton/lv_imagebutton.c ****                 if(imagebutton->src_mid[LV_IMAGEBUTTON_STATE_RELEASED].img_src) return LV_IMAGEBUTT
 292:Drivers/lvgl/src/widgets/imagebutton/lv_imagebutton.c ****                 break;
 293:Drivers/lvgl/src/widgets/imagebutton/lv_imagebutton.c ****             case LV_IMAGEBUTTON_STATE_DISABLED:
 294:Drivers/lvgl/src/widgets/imagebutton/lv_imagebutton.c ****                 if(imagebutton->src_mid[LV_IMAGEBUTTON_STATE_RELEASED].img_src) return LV_IMAGEBUTT
 295:Drivers/lvgl/src/widgets/imagebutton/lv_imagebutton.c ****                 break;
 296:Drivers/lvgl/src/widgets/imagebutton/lv_imagebutton.c ****             case LV_IMAGEBUTTON_STATE_CHECKED_DISABLED:
 297:Drivers/lvgl/src/widgets/imagebutton/lv_imagebutton.c ****                 if(imagebutton->src_mid[LV_IMAGEBUTTON_STATE_CHECKED_RELEASED].img_src) return LV_I
ARM GAS  /tmp/cco6PmJt.s 			page 7


 298:Drivers/lvgl/src/widgets/imagebutton/lv_imagebutton.c ****                 if(imagebutton->src_mid[LV_IMAGEBUTTON_STATE_RELEASED].img_src) return LV_IMAGEBUTT
 299:Drivers/lvgl/src/widgets/imagebutton/lv_imagebutton.c ****                 break;
 300:Drivers/lvgl/src/widgets/imagebutton/lv_imagebutton.c ****             default:
 301:Drivers/lvgl/src/widgets/imagebutton/lv_imagebutton.c ****                 break;
 302:Drivers/lvgl/src/widgets/imagebutton/lv_imagebutton.c ****         }
 303:Drivers/lvgl/src/widgets/imagebutton/lv_imagebutton.c ****     }
 304:Drivers/lvgl/src/widgets/imagebutton/lv_imagebutton.c **** 
 305:Drivers/lvgl/src/widgets/imagebutton/lv_imagebutton.c ****     return state;
 306:Drivers/lvgl/src/widgets/imagebutton/lv_imagebutton.c **** }
  47              		.loc 1 306 1 view .LVU6
  48 000c 7047     		bx	lr
  49              	.LVL3:
  50              	.L18:
 281:Drivers/lvgl/src/widgets/imagebutton/lv_imagebutton.c ****         switch(state) {
  51              		.loc 1 281 9 is_stmt 1 view .LVU7
  52 000e 4A1E     		subs	r2, r1, #1
  53 0010 042A     		cmp	r2, #4
  54 0012 FBD8     		bhi	.L2
  55 0014 DFE802F0 		tbb	[pc, r2]
  56              	.LVL4:
  57              	.L4:
  58 0018 03       		.byte	(.L8-.L4)/2
  59 0019 18       		.byte	(.L7-.L4)/2
  60 001a 08       		.byte	(.L6-.L4)/2
  61 001b 0D       		.byte	(.L5-.L4)/2
  62 001c 1D       		.byte	(.L3-.L4)/2
  63 001d 00       		.p2align 1
  64              	.L8:
 283:Drivers/lvgl/src/widgets/imagebutton/lv_imagebutton.c ****                 break;
  65              		.loc 1 283 17 view .LVU8
 283:Drivers/lvgl/src/widgets/imagebutton/lv_imagebutton.c ****                 break;
  66              		.loc 1 283 71 is_stmt 0 view .LVU9
  67 001e DB6A     		ldr	r3, [r3, #44]
  68              	.LVL5:
 283:Drivers/lvgl/src/widgets/imagebutton/lv_imagebutton.c ****                 break;
  69              		.loc 1 283 19 view .LVU10
  70 0020 0BB1     		cbz	r3, .L19
 283:Drivers/lvgl/src/widgets/imagebutton/lv_imagebutton.c ****                 break;
  71              		.loc 1 283 88 discriminator 1 view .LVU11
  72 0022 0020     		movs	r0, #0
  73              	.LVL6:
 283:Drivers/lvgl/src/widgets/imagebutton/lv_imagebutton.c ****                 break;
  74              		.loc 1 283 88 discriminator 1 view .LVU12
  75 0024 7047     		bx	lr
  76              	.L19:
  77 0026 7047     		bx	lr
  78              	.LVL7:
  79              	.L6:
 286:Drivers/lvgl/src/widgets/imagebutton/lv_imagebutton.c ****                 break;
  80              		.loc 1 286 17 is_stmt 1 view .LVU13
 286:Drivers/lvgl/src/widgets/imagebutton/lv_imagebutton.c ****                 break;
  81              		.loc 1 286 71 is_stmt 0 view .LVU14
  82 0028 DB6A     		ldr	r3, [r3, #44]
  83              	.LVL8:
 286:Drivers/lvgl/src/widgets/imagebutton/lv_imagebutton.c ****                 break;
  84              		.loc 1 286 19 view .LVU15
  85 002a 0BB1     		cbz	r3, .L20
ARM GAS  /tmp/cco6PmJt.s 			page 8


 286:Drivers/lvgl/src/widgets/imagebutton/lv_imagebutton.c ****                 break;
  86              		.loc 1 286 88 discriminator 1 view .LVU16
  87 002c 0020     		movs	r0, #0
  88 002e 7047     		bx	lr
  89              	.L20:
  90 0030 7047     		bx	lr
  91              	.LVL9:
  92              	.L5:
 289:Drivers/lvgl/src/widgets/imagebutton/lv_imagebutton.c ****                 if(imagebutton->src_mid[LV_IMAGEBUTTON_STATE_PRESSED].img_src) return LV_IMAGEBUTTO
  93              		.loc 1 289 17 is_stmt 1 view .LVU17
 289:Drivers/lvgl/src/widgets/imagebutton/lv_imagebutton.c ****                 if(imagebutton->src_mid[LV_IMAGEBUTTON_STATE_PRESSED].img_src) return LV_IMAGEBUTTO
  94              		.loc 1 289 79 is_stmt 0 view .LVU18
  95 0032 DA6D     		ldr	r2, [r3, #92]
 289:Drivers/lvgl/src/widgets/imagebutton/lv_imagebutton.c ****                 if(imagebutton->src_mid[LV_IMAGEBUTTON_STATE_PRESSED].img_src) return LV_IMAGEBUTTO
  96              		.loc 1 289 19 view .LVU19
  97 0034 A2B9     		cbnz	r2, .L11
 290:Drivers/lvgl/src/widgets/imagebutton/lv_imagebutton.c ****                 if(imagebutton->src_mid[LV_IMAGEBUTTON_STATE_RELEASED].img_src) return LV_IMAGEBUTT
  98              		.loc 1 290 17 is_stmt 1 view .LVU20
 290:Drivers/lvgl/src/widgets/imagebutton/lv_imagebutton.c ****                 if(imagebutton->src_mid[LV_IMAGEBUTTON_STATE_RELEASED].img_src) return LV_IMAGEBUTT
  99              		.loc 1 290 70 is_stmt 0 view .LVU21
 100 0036 DA6B     		ldr	r2, [r3, #60]
 290:Drivers/lvgl/src/widgets/imagebutton/lv_imagebutton.c ****                 if(imagebutton->src_mid[LV_IMAGEBUTTON_STATE_RELEASED].img_src) return LV_IMAGEBUTT
 101              		.loc 1 290 19 view .LVU22
 102 0038 0AB1     		cbz	r2, .L21
 290:Drivers/lvgl/src/widgets/imagebutton/lv_imagebutton.c ****                 if(imagebutton->src_mid[LV_IMAGEBUTTON_STATE_RELEASED].img_src) return LV_IMAGEBUTT
 103              		.loc 1 290 87 discriminator 1 view .LVU23
 104 003a 0120     		movs	r0, #1
 105 003c 7047     		bx	lr
 106              	.L21:
 291:Drivers/lvgl/src/widgets/imagebutton/lv_imagebutton.c ****                 break;
 107              		.loc 1 291 17 is_stmt 1 view .LVU24
 291:Drivers/lvgl/src/widgets/imagebutton/lv_imagebutton.c ****                 break;
 108              		.loc 1 291 71 is_stmt 0 view .LVU25
 109 003e DB6A     		ldr	r3, [r3, #44]
 110              	.LVL10:
 291:Drivers/lvgl/src/widgets/imagebutton/lv_imagebutton.c ****                 break;
 111              		.loc 1 291 19 view .LVU26
 112 0040 0BB1     		cbz	r3, .L22
 291:Drivers/lvgl/src/widgets/imagebutton/lv_imagebutton.c ****                 break;
 113              		.loc 1 291 88 discriminator 1 view .LVU27
 114 0042 0020     		movs	r0, #0
 115 0044 7047     		bx	lr
 116              	.L22:
 117 0046 7047     		bx	lr
 118              	.LVL11:
 119              	.L7:
 294:Drivers/lvgl/src/widgets/imagebutton/lv_imagebutton.c ****                 break;
 120              		.loc 1 294 17 is_stmt 1 view .LVU28
 294:Drivers/lvgl/src/widgets/imagebutton/lv_imagebutton.c ****                 break;
 121              		.loc 1 294 71 is_stmt 0 view .LVU29
 122 0048 DB6A     		ldr	r3, [r3, #44]
 123              	.LVL12:
 294:Drivers/lvgl/src/widgets/imagebutton/lv_imagebutton.c ****                 break;
 124              		.loc 1 294 19 view .LVU30
 125 004a 0BB1     		cbz	r3, .L23
 294:Drivers/lvgl/src/widgets/imagebutton/lv_imagebutton.c ****                 break;
 126              		.loc 1 294 88 discriminator 1 view .LVU31
ARM GAS  /tmp/cco6PmJt.s 			page 9


 127 004c 0020     		movs	r0, #0
 128 004e 7047     		bx	lr
 129              	.L23:
 130 0050 7047     		bx	lr
 131              	.LVL13:
 132              	.L3:
 297:Drivers/lvgl/src/widgets/imagebutton/lv_imagebutton.c ****                 if(imagebutton->src_mid[LV_IMAGEBUTTON_STATE_RELEASED].img_src) return LV_IMAGEBUTT
 133              		.loc 1 297 17 is_stmt 1 view .LVU32
 297:Drivers/lvgl/src/widgets/imagebutton/lv_imagebutton.c ****                 if(imagebutton->src_mid[LV_IMAGEBUTTON_STATE_RELEASED].img_src) return LV_IMAGEBUTT
 134              		.loc 1 297 79 is_stmt 0 view .LVU33
 135 0052 DA6D     		ldr	r2, [r3, #92]
 297:Drivers/lvgl/src/widgets/imagebutton/lv_imagebutton.c ****                 if(imagebutton->src_mid[LV_IMAGEBUTTON_STATE_RELEASED].img_src) return LV_IMAGEBUTT
 136              		.loc 1 297 19 view .LVU34
 137 0054 32B9     		cbnz	r2, .L15
 298:Drivers/lvgl/src/widgets/imagebutton/lv_imagebutton.c ****                 break;
 138              		.loc 1 298 17 is_stmt 1 view .LVU35
 298:Drivers/lvgl/src/widgets/imagebutton/lv_imagebutton.c ****                 break;
 139              		.loc 1 298 71 is_stmt 0 view .LVU36
 140 0056 DB6A     		ldr	r3, [r3, #44]
 141              	.LVL14:
 298:Drivers/lvgl/src/widgets/imagebutton/lv_imagebutton.c ****                 break;
 142              		.loc 1 298 19 view .LVU37
 143 0058 0BB1     		cbz	r3, .L24
 298:Drivers/lvgl/src/widgets/imagebutton/lv_imagebutton.c ****                 break;
 144              		.loc 1 298 88 discriminator 1 view .LVU38
 145 005a 0020     		movs	r0, #0
 146 005c D6E7     		b	.L2
 147              	.L24:
 148 005e 7047     		bx	lr
 149              	.LVL15:
 150              	.L11:
 289:Drivers/lvgl/src/widgets/imagebutton/lv_imagebutton.c ****                 if(imagebutton->src_mid[LV_IMAGEBUTTON_STATE_PRESSED].img_src) return LV_IMAGEBUTTO
 151              		.loc 1 289 96 discriminator 1 view .LVU39
 152 0060 0320     		movs	r0, #3
 153 0062 7047     		bx	lr
 154              	.L15:
 297:Drivers/lvgl/src/widgets/imagebutton/lv_imagebutton.c ****                 if(imagebutton->src_mid[LV_IMAGEBUTTON_STATE_RELEASED].img_src) return LV_IMAGEBUTT
 155              		.loc 1 297 96 discriminator 1 view .LVU40
 156 0064 0320     		movs	r0, #3
 157 0066 7047     		bx	lr
 158              		.cfi_endproc
 159              	.LFE196:
 161              		.section	.text.get_state,"ax",%progbits
 162              		.align	1
 163              		.syntax unified
 164              		.thumb
 165              		.thumb_func
 167              	get_state:
 168              	.LVL16:
 169              	.LFB197:
 307:Drivers/lvgl/src/widgets/imagebutton/lv_imagebutton.c **** 
 308:Drivers/lvgl/src/widgets/imagebutton/lv_imagebutton.c **** static lv_imagebutton_state_t get_state(const lv_obj_t * imagebutton)
 309:Drivers/lvgl/src/widgets/imagebutton/lv_imagebutton.c **** {
 170              		.loc 1 309 1 is_stmt 1 view -0
 171              		.cfi_startproc
 172              		@ args = 0, pretend = 0, frame = 0
 173              		@ frame_needed = 0, uses_anonymous_args = 0
ARM GAS  /tmp/cco6PmJt.s 			page 10


 310:Drivers/lvgl/src/widgets/imagebutton/lv_imagebutton.c ****     LV_ASSERT_OBJ(imagebutton, MY_CLASS);
 174              		.loc 1 310 5 view .LVU42
 175              		.loc 1 310 5 view .LVU43
 176 0000 50B1     		cbz	r0, .L27
 309:Drivers/lvgl/src/widgets/imagebutton/lv_imagebutton.c ****     LV_ASSERT_OBJ(imagebutton, MY_CLASS);
 177              		.loc 1 309 1 is_stmt 0 view .LVU44
 178 0002 08B5     		push	{r3, lr}
 179              	.LCFI0:
 180              		.cfi_def_cfa_offset 8
 181              		.cfi_offset 3, -8
 182              		.cfi_offset 14, -4
 183              		.loc 1 310 5 is_stmt 1 discriminator 2 view .LVU45
 184              		.loc 1 310 41 discriminator 2 view .LVU46
 311:Drivers/lvgl/src/widgets/imagebutton/lv_imagebutton.c **** 
 312:Drivers/lvgl/src/widgets/imagebutton/lv_imagebutton.c ****     lv_state_t obj_state = lv_obj_get_state(imagebutton);
 185              		.loc 1 312 5 view .LVU47
 186              		.loc 1 312 28 is_stmt 0 view .LVU48
 187 0004 FFF7FEFF 		bl	lv_obj_get_state
 188              	.LVL17:
 313:Drivers/lvgl/src/widgets/imagebutton/lv_imagebutton.c **** 
 314:Drivers/lvgl/src/widgets/imagebutton/lv_imagebutton.c ****     if(obj_state & LV_STATE_DISABLED) {
 189              		.loc 1 314 5 is_stmt 1 view .LVU49
 190              		.loc 1 314 7 is_stmt 0 view .LVU50
 191 0008 10F0800F 		tst	r0, #128
 192 000c 05D0     		beq	.L28
 315:Drivers/lvgl/src/widgets/imagebutton/lv_imagebutton.c ****         if(obj_state & LV_STATE_CHECKED) return LV_IMAGEBUTTON_STATE_CHECKED_DISABLED;
 193              		.loc 1 315 9 is_stmt 1 view .LVU51
 194              		.loc 1 315 11 is_stmt 0 view .LVU52
 195 000e 10F0010F 		tst	r0, #1
 196 0012 0FD0     		beq	.L31
 197              		.loc 1 315 49 discriminator 1 view .LVU53
 198 0014 0520     		movs	r0, #5
 199              	.LVL18:
 200              	.L29:
 316:Drivers/lvgl/src/widgets/imagebutton/lv_imagebutton.c ****         else return LV_IMAGEBUTTON_STATE_DISABLED;
 317:Drivers/lvgl/src/widgets/imagebutton/lv_imagebutton.c ****     }
 318:Drivers/lvgl/src/widgets/imagebutton/lv_imagebutton.c **** 
 319:Drivers/lvgl/src/widgets/imagebutton/lv_imagebutton.c ****     if(obj_state & LV_STATE_CHECKED) {
 320:Drivers/lvgl/src/widgets/imagebutton/lv_imagebutton.c ****         if(obj_state & LV_STATE_PRESSED) return LV_IMAGEBUTTON_STATE_CHECKED_PRESSED;
 321:Drivers/lvgl/src/widgets/imagebutton/lv_imagebutton.c ****         else return LV_IMAGEBUTTON_STATE_CHECKED_RELEASED;
 322:Drivers/lvgl/src/widgets/imagebutton/lv_imagebutton.c ****     }
 323:Drivers/lvgl/src/widgets/imagebutton/lv_imagebutton.c ****     else {
 324:Drivers/lvgl/src/widgets/imagebutton/lv_imagebutton.c ****         if(obj_state & LV_STATE_PRESSED) return LV_IMAGEBUTTON_STATE_PRESSED;
 325:Drivers/lvgl/src/widgets/imagebutton/lv_imagebutton.c ****         else return LV_IMAGEBUTTON_STATE_RELEASED;
 326:Drivers/lvgl/src/widgets/imagebutton/lv_imagebutton.c ****     }
 327:Drivers/lvgl/src/widgets/imagebutton/lv_imagebutton.c **** }
 201              		.loc 1 327 1 view .LVU54
 202 0016 08BD     		pop	{r3, pc}
 203              	.LVL19:
 204              	.L27:
 205              	.LCFI1:
 206              		.cfi_def_cfa_offset 0
 207              		.cfi_restore 3
 208              		.cfi_restore 14
 310:Drivers/lvgl/src/widgets/imagebutton/lv_imagebutton.c **** 
 209              		.loc 1 310 5 is_stmt 1 discriminator 1 view .LVU55
 310:Drivers/lvgl/src/widgets/imagebutton/lv_imagebutton.c **** 
ARM GAS  /tmp/cco6PmJt.s 			page 11


 210              		.loc 1 310 5 discriminator 1 view .LVU56
 310:Drivers/lvgl/src/widgets/imagebutton/lv_imagebutton.c **** 
 211              		.loc 1 310 5 discriminator 1 view .LVU57
 310:Drivers/lvgl/src/widgets/imagebutton/lv_imagebutton.c **** 
 212              		.loc 1 310 5 discriminator 1 view .LVU58
 310:Drivers/lvgl/src/widgets/imagebutton/lv_imagebutton.c **** 
 213              		.loc 1 310 5 discriminator 1 view .LVU59
 214 0018 FEE7     		b	.L27
 215              	.LVL20:
 216              	.L28:
 217              	.LCFI2:
 218              		.cfi_def_cfa_offset 8
 219              		.cfi_offset 3, -8
 220              		.cfi_offset 14, -4
 319:Drivers/lvgl/src/widgets/imagebutton/lv_imagebutton.c ****         if(obj_state & LV_STATE_PRESSED) return LV_IMAGEBUTTON_STATE_CHECKED_PRESSED;
 221              		.loc 1 319 5 view .LVU60
 319:Drivers/lvgl/src/widgets/imagebutton/lv_imagebutton.c ****         if(obj_state & LV_STATE_PRESSED) return LV_IMAGEBUTTON_STATE_CHECKED_PRESSED;
 222              		.loc 1 319 7 is_stmt 0 view .LVU61
 223 001a 10F0010F 		tst	r0, #1
 224 001e 04D0     		beq	.L30
 320:Drivers/lvgl/src/widgets/imagebutton/lv_imagebutton.c ****         else return LV_IMAGEBUTTON_STATE_CHECKED_RELEASED;
 225              		.loc 1 320 9 is_stmt 1 view .LVU62
 320:Drivers/lvgl/src/widgets/imagebutton/lv_imagebutton.c ****         else return LV_IMAGEBUTTON_STATE_CHECKED_RELEASED;
 226              		.loc 1 320 11 is_stmt 0 view .LVU63
 227 0020 10F0200F 		tst	r0, #32
 228 0024 08D0     		beq	.L32
 320:Drivers/lvgl/src/widgets/imagebutton/lv_imagebutton.c ****         else return LV_IMAGEBUTTON_STATE_CHECKED_RELEASED;
 229              		.loc 1 320 49 discriminator 1 view .LVU64
 230 0026 0420     		movs	r0, #4
 231              	.LVL21:
 320:Drivers/lvgl/src/widgets/imagebutton/lv_imagebutton.c ****         else return LV_IMAGEBUTTON_STATE_CHECKED_RELEASED;
 232              		.loc 1 320 49 discriminator 1 view .LVU65
 233 0028 F5E7     		b	.L29
 234              	.LVL22:
 235              	.L30:
 324:Drivers/lvgl/src/widgets/imagebutton/lv_imagebutton.c ****         else return LV_IMAGEBUTTON_STATE_RELEASED;
 236              		.loc 1 324 9 is_stmt 1 view .LVU66
 324:Drivers/lvgl/src/widgets/imagebutton/lv_imagebutton.c ****         else return LV_IMAGEBUTTON_STATE_RELEASED;
 237              		.loc 1 324 11 is_stmt 0 view .LVU67
 238 002a 10F0200F 		tst	r0, #32
 239 002e 05D0     		beq	.L33
 324:Drivers/lvgl/src/widgets/imagebutton/lv_imagebutton.c ****         else return LV_IMAGEBUTTON_STATE_RELEASED;
 240              		.loc 1 324 49 discriminator 1 view .LVU68
 241 0030 0120     		movs	r0, #1
 242              	.LVL23:
 324:Drivers/lvgl/src/widgets/imagebutton/lv_imagebutton.c ****         else return LV_IMAGEBUTTON_STATE_RELEASED;
 243              		.loc 1 324 49 discriminator 1 view .LVU69
 244 0032 F0E7     		b	.L29
 245              	.LVL24:
 246              	.L31:
 316:Drivers/lvgl/src/widgets/imagebutton/lv_imagebutton.c ****     }
 247              		.loc 1 316 21 view .LVU70
 248 0034 0220     		movs	r0, #2
 249              	.LVL25:
 316:Drivers/lvgl/src/widgets/imagebutton/lv_imagebutton.c ****     }
 250              		.loc 1 316 21 view .LVU71
 251 0036 EEE7     		b	.L29
ARM GAS  /tmp/cco6PmJt.s 			page 12


 252              	.LVL26:
 253              	.L32:
 321:Drivers/lvgl/src/widgets/imagebutton/lv_imagebutton.c ****     }
 254              		.loc 1 321 21 view .LVU72
 255 0038 0320     		movs	r0, #3
 256              	.LVL27:
 321:Drivers/lvgl/src/widgets/imagebutton/lv_imagebutton.c ****     }
 257              		.loc 1 321 21 view .LVU73
 258 003a ECE7     		b	.L29
 259              	.LVL28:
 260              	.L33:
 325:Drivers/lvgl/src/widgets/imagebutton/lv_imagebutton.c ****     }
 261              		.loc 1 325 21 view .LVU74
 262 003c 0020     		movs	r0, #0
 263              	.LVL29:
 325:Drivers/lvgl/src/widgets/imagebutton/lv_imagebutton.c ****     }
 264              		.loc 1 325 21 view .LVU75
 265 003e EAE7     		b	.L29
 266              		.cfi_endproc
 267              	.LFE197:
 269              		.section	.text.refr_image,"ax",%progbits
 270              		.align	1
 271              		.syntax unified
 272              		.thumb
 273              		.thumb_func
 275              	refr_image:
 276              	.LVL30:
 277              	.LFB195:
 257:Drivers/lvgl/src/widgets/imagebutton/lv_imagebutton.c ****     lv_imagebutton_t * imagebutton = (lv_imagebutton_t *)obj;
 278              		.loc 1 257 1 is_stmt 1 view -0
 279              		.cfi_startproc
 280              		@ args = 0, pretend = 0, frame = 0
 281              		@ frame_needed = 0, uses_anonymous_args = 0
 257:Drivers/lvgl/src/widgets/imagebutton/lv_imagebutton.c ****     lv_imagebutton_t * imagebutton = (lv_imagebutton_t *)obj;
 282              		.loc 1 257 1 is_stmt 0 view .LVU77
 283 0000 38B5     		push	{r3, r4, r5, lr}
 284              	.LCFI3:
 285              		.cfi_def_cfa_offset 16
 286              		.cfi_offset 3, -16
 287              		.cfi_offset 4, -12
 288              		.cfi_offset 5, -8
 289              		.cfi_offset 14, -4
 290 0002 0446     		mov	r4, r0
 258:Drivers/lvgl/src/widgets/imagebutton/lv_imagebutton.c ****     lv_imagebutton_state_t state  = suggest_state(obj, get_state(obj));
 291              		.loc 1 258 5 is_stmt 1 view .LVU78
 292              	.LVL31:
 259:Drivers/lvgl/src/widgets/imagebutton/lv_imagebutton.c **** 
 293              		.loc 1 259 5 view .LVU79
 259:Drivers/lvgl/src/widgets/imagebutton/lv_imagebutton.c **** 
 294              		.loc 1 259 37 is_stmt 0 view .LVU80
 295 0004 FFF7FEFF 		bl	get_state
 296              	.LVL32:
 259:Drivers/lvgl/src/widgets/imagebutton/lv_imagebutton.c **** 
 297              		.loc 1 259 37 view .LVU81
 298 0008 0146     		mov	r1, r0
 259:Drivers/lvgl/src/widgets/imagebutton/lv_imagebutton.c **** 
 299              		.loc 1 259 37 discriminator 1 view .LVU82
ARM GAS  /tmp/cco6PmJt.s 			page 13


 300 000a 2046     		mov	r0, r4
 301 000c FFF7FEFF 		bl	suggest_state
 302              	.LVL33:
 261:Drivers/lvgl/src/widgets/imagebutton/lv_imagebutton.c ****     if(src == NULL) return;
 303              		.loc 1 261 5 is_stmt 1 view .LVU83
 261:Drivers/lvgl/src/widgets/imagebutton/lv_imagebutton.c ****     if(src == NULL) return;
 304              		.loc 1 261 18 is_stmt 0 view .LVU84
 305 0010 04EB0013 		add	r3, r4, r0, lsl #4
 306 0014 DB6A     		ldr	r3, [r3, #44]
 307              	.LVL34:
 262:Drivers/lvgl/src/widgets/imagebutton/lv_imagebutton.c **** 
 308              		.loc 1 262 5 is_stmt 1 view .LVU85
 262:Drivers/lvgl/src/widgets/imagebutton/lv_imagebutton.c **** 
 309              		.loc 1 262 7 is_stmt 0 view .LVU86
 310 0016 63B1     		cbz	r3, .L36
 311 0018 0546     		mov	r5, r0
 264:Drivers/lvgl/src/widgets/imagebutton/lv_imagebutton.c ****     lv_obj_set_height(obj, imagebutton->src_mid[state].header.h); /*Keep the user defined width*/
 312              		.loc 1 264 5 is_stmt 1 view .LVU87
 313 001a 2046     		mov	r0, r4
 314              	.LVL35:
 264:Drivers/lvgl/src/widgets/imagebutton/lv_imagebutton.c ****     lv_obj_set_height(obj, imagebutton->src_mid[state].header.h); /*Keep the user defined width*/
 315              		.loc 1 264 5 is_stmt 0 view .LVU88
 316 001c FFF7FEFF 		bl	lv_obj_refresh_self_size
 317              	.LVL36:
 265:Drivers/lvgl/src/widgets/imagebutton/lv_imagebutton.c **** 
 318              		.loc 1 265 5 is_stmt 1 view .LVU89
 265:Drivers/lvgl/src/widgets/imagebutton/lv_imagebutton.c **** 
 319              		.loc 1 265 62 is_stmt 0 view .LVU90
 320 0020 04EB0515 		add	r5, r4, r5, lsl #4
 321              	.LVL37:
 265:Drivers/lvgl/src/widgets/imagebutton/lv_imagebutton.c **** 
 322              		.loc 1 265 5 view .LVU91
 323 0024 E98E     		ldrh	r1, [r5, #54]
 324 0026 2046     		mov	r0, r4
 325 0028 FFF7FEFF 		bl	lv_obj_set_height
 326              	.LVL38:
 267:Drivers/lvgl/src/widgets/imagebutton/lv_imagebutton.c **** }
 327              		.loc 1 267 5 is_stmt 1 view .LVU92
 328 002c 2046     		mov	r0, r4
 329 002e FFF7FEFF 		bl	lv_obj_invalidate
 330              	.LVL39:
 331              	.L36:
 268:Drivers/lvgl/src/widgets/imagebutton/lv_imagebutton.c **** 
 332              		.loc 1 268 1 is_stmt 0 view .LVU93
 333 0032 38BD     		pop	{r3, r4, r5, pc}
 268:Drivers/lvgl/src/widgets/imagebutton/lv_imagebutton.c **** 
 334              		.loc 1 268 1 view .LVU94
 335              		.cfi_endproc
 336              	.LFE195:
 338              		.section	.text.draw_main,"ax",%progbits
 339              		.align	1
 340              		.syntax unified
 341              		.thumb
 342              		.thumb_func
 344              	draw_main:
 345              	.LVL40:
 346              	.LFB194:
ARM GAS  /tmp/cco6PmJt.s 			page 14


 189:Drivers/lvgl/src/widgets/imagebutton/lv_imagebutton.c ****     lv_obj_t * obj = lv_event_get_current_target(e);
 347              		.loc 1 189 1 is_stmt 1 view -0
 348              		.cfi_startproc
 349              		@ args = 0, pretend = 0, frame = 176
 350              		@ frame_needed = 0, uses_anonymous_args = 0
 189:Drivers/lvgl/src/widgets/imagebutton/lv_imagebutton.c ****     lv_obj_t * obj = lv_event_get_current_target(e);
 351              		.loc 1 189 1 is_stmt 0 view .LVU96
 352 0000 2DE9F041 		push	{r4, r5, r6, r7, r8, lr}
 353              	.LCFI4:
 354              		.cfi_def_cfa_offset 24
 355              		.cfi_offset 4, -24
 356              		.cfi_offset 5, -20
 357              		.cfi_offset 6, -16
 358              		.cfi_offset 7, -12
 359              		.cfi_offset 8, -8
 360              		.cfi_offset 14, -4
 361 0004 ACB0     		sub	sp, sp, #176
 362              	.LCFI5:
 363              		.cfi_def_cfa_offset 200
 364 0006 0546     		mov	r5, r0
 190:Drivers/lvgl/src/widgets/imagebutton/lv_imagebutton.c ****     lv_imagebutton_t * imagebutton = (lv_imagebutton_t *)obj;
 365              		.loc 1 190 5 is_stmt 1 view .LVU97
 190:Drivers/lvgl/src/widgets/imagebutton/lv_imagebutton.c ****     lv_imagebutton_t * imagebutton = (lv_imagebutton_t *)obj;
 366              		.loc 1 190 22 is_stmt 0 view .LVU98
 367 0008 FFF7FEFF 		bl	lv_event_get_current_target
 368              	.LVL41:
 190:Drivers/lvgl/src/widgets/imagebutton/lv_imagebutton.c ****     lv_imagebutton_t * imagebutton = (lv_imagebutton_t *)obj;
 369              		.loc 1 190 22 view .LVU99
 370 000c 0446     		mov	r4, r0
 371              	.LVL42:
 191:Drivers/lvgl/src/widgets/imagebutton/lv_imagebutton.c ****     lv_layer_t * layer = lv_event_get_layer(e);
 372              		.loc 1 191 5 is_stmt 1 view .LVU100
 192:Drivers/lvgl/src/widgets/imagebutton/lv_imagebutton.c **** 
 373              		.loc 1 192 5 view .LVU101
 192:Drivers/lvgl/src/widgets/imagebutton/lv_imagebutton.c **** 
 374              		.loc 1 192 26 is_stmt 0 view .LVU102
 375 000e 2846     		mov	r0, r5
 376              	.LVL43:
 192:Drivers/lvgl/src/widgets/imagebutton/lv_imagebutton.c **** 
 377              		.loc 1 192 26 view .LVU103
 378 0010 FFF7FEFF 		bl	lv_event_get_layer
 379              	.LVL44:
 380 0014 0646     		mov	r6, r0
 381              	.LVL45:
 195:Drivers/lvgl/src/widgets/imagebutton/lv_imagebutton.c **** 
 382              		.loc 1 195 5 is_stmt 1 view .LVU104
 195:Drivers/lvgl/src/widgets/imagebutton/lv_imagebutton.c **** 
 383              		.loc 1 195 37 is_stmt 0 view .LVU105
 384 0016 2046     		mov	r0, r4
 385              	.LVL46:
 195:Drivers/lvgl/src/widgets/imagebutton/lv_imagebutton.c **** 
 386              		.loc 1 195 37 view .LVU106
 387 0018 FFF7FEFF 		bl	get_state
 388              	.LVL47:
 389 001c 0146     		mov	r1, r0
 195:Drivers/lvgl/src/widgets/imagebutton/lv_imagebutton.c **** 
 390              		.loc 1 195 37 discriminator 1 view .LVU107
ARM GAS  /tmp/cco6PmJt.s 			page 15


 391 001e 2046     		mov	r0, r4
 392 0020 FFF7FEFF 		bl	suggest_state
 393              	.LVL48:
 394 0024 0546     		mov	r5, r0
 395              	.LVL49:
 198:Drivers/lvgl/src/widgets/imagebutton/lv_imagebutton.c **** 
 396              		.loc 1 198 5 is_stmt 1 view .LVU108
 200:Drivers/lvgl/src/widgets/imagebutton/lv_imagebutton.c ****     int32_t th = lv_obj_get_style_transform_height(obj, LV_PART_MAIN);
 397              		.loc 1 200 5 view .LVU109
 398              	.LBB18:
 399              	.LBI18:
 400              		.file 2 "Drivers/lvgl/src/widgets/imagebutton/../../core/lv_obj_style_gen.h"
   1:Drivers/lvgl/src/widgets/imagebutton/../../core/lv_obj_style_gen.h **** 
   2:Drivers/lvgl/src/widgets/imagebutton/../../core/lv_obj_style_gen.h **** /*
   3:Drivers/lvgl/src/widgets/imagebutton/../../core/lv_obj_style_gen.h ****  **********************************************************************
   4:Drivers/lvgl/src/widgets/imagebutton/../../core/lv_obj_style_gen.h ****  *                            DO NOT EDIT
   5:Drivers/lvgl/src/widgets/imagebutton/../../core/lv_obj_style_gen.h ****  * This file is automatically generated by "style_api_gen.py"
   6:Drivers/lvgl/src/widgets/imagebutton/../../core/lv_obj_style_gen.h ****  **********************************************************************
   7:Drivers/lvgl/src/widgets/imagebutton/../../core/lv_obj_style_gen.h ****  */
   8:Drivers/lvgl/src/widgets/imagebutton/../../core/lv_obj_style_gen.h **** 
   9:Drivers/lvgl/src/widgets/imagebutton/../../core/lv_obj_style_gen.h **** 
  10:Drivers/lvgl/src/widgets/imagebutton/../../core/lv_obj_style_gen.h **** #ifndef LV_OBJ_STYLE_GEN_H
  11:Drivers/lvgl/src/widgets/imagebutton/../../core/lv_obj_style_gen.h **** #define LV_OBJ_STYLE_GEN_H
  12:Drivers/lvgl/src/widgets/imagebutton/../../core/lv_obj_style_gen.h **** 
  13:Drivers/lvgl/src/widgets/imagebutton/../../core/lv_obj_style_gen.h **** #ifdef __cplusplus
  14:Drivers/lvgl/src/widgets/imagebutton/../../core/lv_obj_style_gen.h **** extern "C" {
  15:Drivers/lvgl/src/widgets/imagebutton/../../core/lv_obj_style_gen.h **** #endif
  16:Drivers/lvgl/src/widgets/imagebutton/../../core/lv_obj_style_gen.h **** 
  17:Drivers/lvgl/src/widgets/imagebutton/../../core/lv_obj_style_gen.h **** #include "../misc/lv_area.h"
  18:Drivers/lvgl/src/widgets/imagebutton/../../core/lv_obj_style_gen.h **** #include "../misc/lv_style.h"
  19:Drivers/lvgl/src/widgets/imagebutton/../../core/lv_obj_style_gen.h **** #include "../core/lv_obj_style.h"
  20:Drivers/lvgl/src/widgets/imagebutton/../../core/lv_obj_style_gen.h **** #include "../misc/lv_types.h"
  21:Drivers/lvgl/src/widgets/imagebutton/../../core/lv_obj_style_gen.h **** 
  22:Drivers/lvgl/src/widgets/imagebutton/../../core/lv_obj_style_gen.h **** static inline int32_t lv_obj_get_style_width(const lv_obj_t * obj, lv_part_t part)
  23:Drivers/lvgl/src/widgets/imagebutton/../../core/lv_obj_style_gen.h **** {
  24:Drivers/lvgl/src/widgets/imagebutton/../../core/lv_obj_style_gen.h ****     lv_style_value_t v = lv_obj_get_style_prop(obj, part, LV_STYLE_WIDTH);
  25:Drivers/lvgl/src/widgets/imagebutton/../../core/lv_obj_style_gen.h ****     return (int32_t)v.num;
  26:Drivers/lvgl/src/widgets/imagebutton/../../core/lv_obj_style_gen.h **** }
  27:Drivers/lvgl/src/widgets/imagebutton/../../core/lv_obj_style_gen.h **** 
  28:Drivers/lvgl/src/widgets/imagebutton/../../core/lv_obj_style_gen.h **** static inline int32_t lv_obj_get_style_min_width(const lv_obj_t * obj, lv_part_t part)
  29:Drivers/lvgl/src/widgets/imagebutton/../../core/lv_obj_style_gen.h **** {
  30:Drivers/lvgl/src/widgets/imagebutton/../../core/lv_obj_style_gen.h ****     lv_style_value_t v = lv_obj_get_style_prop(obj, part, LV_STYLE_MIN_WIDTH);
  31:Drivers/lvgl/src/widgets/imagebutton/../../core/lv_obj_style_gen.h ****     return (int32_t)v.num;
  32:Drivers/lvgl/src/widgets/imagebutton/../../core/lv_obj_style_gen.h **** }
  33:Drivers/lvgl/src/widgets/imagebutton/../../core/lv_obj_style_gen.h **** 
  34:Drivers/lvgl/src/widgets/imagebutton/../../core/lv_obj_style_gen.h **** static inline int32_t lv_obj_get_style_max_width(const lv_obj_t * obj, lv_part_t part)
  35:Drivers/lvgl/src/widgets/imagebutton/../../core/lv_obj_style_gen.h **** {
  36:Drivers/lvgl/src/widgets/imagebutton/../../core/lv_obj_style_gen.h ****     lv_style_value_t v = lv_obj_get_style_prop(obj, part, LV_STYLE_MAX_WIDTH);
  37:Drivers/lvgl/src/widgets/imagebutton/../../core/lv_obj_style_gen.h ****     return (int32_t)v.num;
  38:Drivers/lvgl/src/widgets/imagebutton/../../core/lv_obj_style_gen.h **** }
  39:Drivers/lvgl/src/widgets/imagebutton/../../core/lv_obj_style_gen.h **** 
  40:Drivers/lvgl/src/widgets/imagebutton/../../core/lv_obj_style_gen.h **** static inline int32_t lv_obj_get_style_height(const lv_obj_t * obj, lv_part_t part)
  41:Drivers/lvgl/src/widgets/imagebutton/../../core/lv_obj_style_gen.h **** {
  42:Drivers/lvgl/src/widgets/imagebutton/../../core/lv_obj_style_gen.h ****     lv_style_value_t v = lv_obj_get_style_prop(obj, part, LV_STYLE_HEIGHT);
  43:Drivers/lvgl/src/widgets/imagebutton/../../core/lv_obj_style_gen.h ****     return (int32_t)v.num;
  44:Drivers/lvgl/src/widgets/imagebutton/../../core/lv_obj_style_gen.h **** }
  45:Drivers/lvgl/src/widgets/imagebutton/../../core/lv_obj_style_gen.h **** 
ARM GAS  /tmp/cco6PmJt.s 			page 16


  46:Drivers/lvgl/src/widgets/imagebutton/../../core/lv_obj_style_gen.h **** static inline int32_t lv_obj_get_style_min_height(const lv_obj_t * obj, lv_part_t part)
  47:Drivers/lvgl/src/widgets/imagebutton/../../core/lv_obj_style_gen.h **** {
  48:Drivers/lvgl/src/widgets/imagebutton/../../core/lv_obj_style_gen.h ****     lv_style_value_t v = lv_obj_get_style_prop(obj, part, LV_STYLE_MIN_HEIGHT);
  49:Drivers/lvgl/src/widgets/imagebutton/../../core/lv_obj_style_gen.h ****     return (int32_t)v.num;
  50:Drivers/lvgl/src/widgets/imagebutton/../../core/lv_obj_style_gen.h **** }
  51:Drivers/lvgl/src/widgets/imagebutton/../../core/lv_obj_style_gen.h **** 
  52:Drivers/lvgl/src/widgets/imagebutton/../../core/lv_obj_style_gen.h **** static inline int32_t lv_obj_get_style_max_height(const lv_obj_t * obj, lv_part_t part)
  53:Drivers/lvgl/src/widgets/imagebutton/../../core/lv_obj_style_gen.h **** {
  54:Drivers/lvgl/src/widgets/imagebutton/../../core/lv_obj_style_gen.h ****     lv_style_value_t v = lv_obj_get_style_prop(obj, part, LV_STYLE_MAX_HEIGHT);
  55:Drivers/lvgl/src/widgets/imagebutton/../../core/lv_obj_style_gen.h ****     return (int32_t)v.num;
  56:Drivers/lvgl/src/widgets/imagebutton/../../core/lv_obj_style_gen.h **** }
  57:Drivers/lvgl/src/widgets/imagebutton/../../core/lv_obj_style_gen.h **** 
  58:Drivers/lvgl/src/widgets/imagebutton/../../core/lv_obj_style_gen.h **** static inline int32_t lv_obj_get_style_length(const lv_obj_t * obj, lv_part_t part)
  59:Drivers/lvgl/src/widgets/imagebutton/../../core/lv_obj_style_gen.h **** {
  60:Drivers/lvgl/src/widgets/imagebutton/../../core/lv_obj_style_gen.h ****     lv_style_value_t v = lv_obj_get_style_prop(obj, part, LV_STYLE_LENGTH);
  61:Drivers/lvgl/src/widgets/imagebutton/../../core/lv_obj_style_gen.h ****     return (int32_t)v.num;
  62:Drivers/lvgl/src/widgets/imagebutton/../../core/lv_obj_style_gen.h **** }
  63:Drivers/lvgl/src/widgets/imagebutton/../../core/lv_obj_style_gen.h **** 
  64:Drivers/lvgl/src/widgets/imagebutton/../../core/lv_obj_style_gen.h **** static inline int32_t lv_obj_get_style_x(const lv_obj_t * obj, lv_part_t part)
  65:Drivers/lvgl/src/widgets/imagebutton/../../core/lv_obj_style_gen.h **** {
  66:Drivers/lvgl/src/widgets/imagebutton/../../core/lv_obj_style_gen.h ****     lv_style_value_t v = lv_obj_get_style_prop(obj, part, LV_STYLE_X);
  67:Drivers/lvgl/src/widgets/imagebutton/../../core/lv_obj_style_gen.h ****     return (int32_t)v.num;
  68:Drivers/lvgl/src/widgets/imagebutton/../../core/lv_obj_style_gen.h **** }
  69:Drivers/lvgl/src/widgets/imagebutton/../../core/lv_obj_style_gen.h **** 
  70:Drivers/lvgl/src/widgets/imagebutton/../../core/lv_obj_style_gen.h **** static inline int32_t lv_obj_get_style_y(const lv_obj_t * obj, lv_part_t part)
  71:Drivers/lvgl/src/widgets/imagebutton/../../core/lv_obj_style_gen.h **** {
  72:Drivers/lvgl/src/widgets/imagebutton/../../core/lv_obj_style_gen.h ****     lv_style_value_t v = lv_obj_get_style_prop(obj, part, LV_STYLE_Y);
  73:Drivers/lvgl/src/widgets/imagebutton/../../core/lv_obj_style_gen.h ****     return (int32_t)v.num;
  74:Drivers/lvgl/src/widgets/imagebutton/../../core/lv_obj_style_gen.h **** }
  75:Drivers/lvgl/src/widgets/imagebutton/../../core/lv_obj_style_gen.h **** 
  76:Drivers/lvgl/src/widgets/imagebutton/../../core/lv_obj_style_gen.h **** static inline lv_align_t lv_obj_get_style_align(const lv_obj_t * obj, lv_part_t part)
  77:Drivers/lvgl/src/widgets/imagebutton/../../core/lv_obj_style_gen.h **** {
  78:Drivers/lvgl/src/widgets/imagebutton/../../core/lv_obj_style_gen.h ****     lv_style_value_t v = lv_obj_get_style_prop(obj, part, LV_STYLE_ALIGN);
  79:Drivers/lvgl/src/widgets/imagebutton/../../core/lv_obj_style_gen.h ****     return (lv_align_t)v.num;
  80:Drivers/lvgl/src/widgets/imagebutton/../../core/lv_obj_style_gen.h **** }
  81:Drivers/lvgl/src/widgets/imagebutton/../../core/lv_obj_style_gen.h **** 
  82:Drivers/lvgl/src/widgets/imagebutton/../../core/lv_obj_style_gen.h **** static inline int32_t lv_obj_get_style_transform_width(const lv_obj_t * obj, lv_part_t part)
 401              		.loc 2 82 23 view .LVU110
 402              	.LBB19:
  83:Drivers/lvgl/src/widgets/imagebutton/../../core/lv_obj_style_gen.h **** {
  84:Drivers/lvgl/src/widgets/imagebutton/../../core/lv_obj_style_gen.h ****     lv_style_value_t v = lv_obj_get_style_prop(obj, part, LV_STYLE_TRANSFORM_WIDTH);
 403              		.loc 2 84 5 view .LVU111
 404              		.loc 2 84 26 is_stmt 0 view .LVU112
 405 0026 6A22     		movs	r2, #106
 406 0028 0021     		movs	r1, #0
 407 002a 2046     		mov	r0, r4
 408              	.LVL50:
 409              		.loc 2 84 26 view .LVU113
 410 002c FFF7FEFF 		bl	lv_obj_get_style_prop
 411              	.LVL51:
 412 0030 0746     		mov	r7, r0
 413 0032 0590     		str	r0, [sp, #20]
  85:Drivers/lvgl/src/widgets/imagebutton/../../core/lv_obj_style_gen.h ****     return (int32_t)v.num;
 414              		.loc 2 85 5 is_stmt 1 view .LVU114
 415              	.LVL52:
 416              		.loc 2 85 5 is_stmt 0 view .LVU115
 417              	.LBE19:
ARM GAS  /tmp/cco6PmJt.s 			page 17


 418              	.LBE18:
 201:Drivers/lvgl/src/widgets/imagebutton/lv_imagebutton.c ****     lv_area_t coords;
 419              		.loc 1 201 5 is_stmt 1 view .LVU116
 420              	.LBB20:
 421              	.LBI20:
  86:Drivers/lvgl/src/widgets/imagebutton/../../core/lv_obj_style_gen.h **** }
  87:Drivers/lvgl/src/widgets/imagebutton/../../core/lv_obj_style_gen.h **** 
  88:Drivers/lvgl/src/widgets/imagebutton/../../core/lv_obj_style_gen.h **** static inline int32_t lv_obj_get_style_transform_height(const lv_obj_t * obj, lv_part_t part)
 422              		.loc 2 88 23 view .LVU117
 423              	.LBB21:
  89:Drivers/lvgl/src/widgets/imagebutton/../../core/lv_obj_style_gen.h **** {
  90:Drivers/lvgl/src/widgets/imagebutton/../../core/lv_obj_style_gen.h ****     lv_style_value_t v = lv_obj_get_style_prop(obj, part, LV_STYLE_TRANSFORM_HEIGHT);
 424              		.loc 2 90 5 view .LVU118
 425              		.loc 2 90 26 is_stmt 0 view .LVU119
 426 0034 6B22     		movs	r2, #107
 427 0036 0021     		movs	r1, #0
 428 0038 2046     		mov	r0, r4
 429              	.LVL53:
 430              		.loc 2 90 26 view .LVU120
 431 003a FFF7FEFF 		bl	lv_obj_get_style_prop
 432              	.LVL54:
 433 003e 0246     		mov	r2, r0
 434 0040 0590     		str	r0, [sp, #20]
  91:Drivers/lvgl/src/widgets/imagebutton/../../core/lv_obj_style_gen.h ****     return (int32_t)v.num;
 435              		.loc 2 91 5 is_stmt 1 view .LVU121
 436              	.LVL55:
 437              		.loc 2 91 5 is_stmt 0 view .LVU122
 438              	.LBE21:
 439              	.LBE20:
 202:Drivers/lvgl/src/widgets/imagebutton/lv_imagebutton.c ****     lv_area_copy(&coords, &obj->coords);
 440              		.loc 1 202 5 is_stmt 1 view .LVU123
 203:Drivers/lvgl/src/widgets/imagebutton/lv_imagebutton.c ****     lv_area_increase(&coords, tw, th);
 441              		.loc 1 203 5 view .LVU124
 442              	.LBB22:
 443              	.LBI22:
 444              		.file 3 "Drivers/lvgl/src/widgets/imagebutton/../../core/../misc/../font/../draw/../misc/lv_area.h
   1:Drivers/lvgl/src/widgets/imagebutton/../../core/../misc/../font/../draw/../misc/lv_area.h **** /**
   2:Drivers/lvgl/src/widgets/imagebutton/../../core/../misc/../font/../draw/../misc/lv_area.h ****  * @file lv_area.h
   3:Drivers/lvgl/src/widgets/imagebutton/../../core/../misc/../font/../draw/../misc/lv_area.h ****  *
   4:Drivers/lvgl/src/widgets/imagebutton/../../core/../misc/../font/../draw/../misc/lv_area.h ****  */
   5:Drivers/lvgl/src/widgets/imagebutton/../../core/../misc/../font/../draw/../misc/lv_area.h **** 
   6:Drivers/lvgl/src/widgets/imagebutton/../../core/../misc/../font/../draw/../misc/lv_area.h **** #ifndef LV_AREA_H
   7:Drivers/lvgl/src/widgets/imagebutton/../../core/../misc/../font/../draw/../misc/lv_area.h **** #define LV_AREA_H
   8:Drivers/lvgl/src/widgets/imagebutton/../../core/../misc/../font/../draw/../misc/lv_area.h **** 
   9:Drivers/lvgl/src/widgets/imagebutton/../../core/../misc/../font/../draw/../misc/lv_area.h **** #ifdef __cplusplus
  10:Drivers/lvgl/src/widgets/imagebutton/../../core/../misc/../font/../draw/../misc/lv_area.h **** extern "C" {
  11:Drivers/lvgl/src/widgets/imagebutton/../../core/../misc/../font/../draw/../misc/lv_area.h **** #endif
  12:Drivers/lvgl/src/widgets/imagebutton/../../core/../misc/../font/../draw/../misc/lv_area.h **** 
  13:Drivers/lvgl/src/widgets/imagebutton/../../core/../misc/../font/../draw/../misc/lv_area.h **** /*********************
  14:Drivers/lvgl/src/widgets/imagebutton/../../core/../misc/../font/../draw/../misc/lv_area.h ****  *      INCLUDES
  15:Drivers/lvgl/src/widgets/imagebutton/../../core/../misc/../font/../draw/../misc/lv_area.h ****  *********************/
  16:Drivers/lvgl/src/widgets/imagebutton/../../core/../misc/../font/../draw/../misc/lv_area.h **** #include "../lv_conf_internal.h"
  17:Drivers/lvgl/src/widgets/imagebutton/../../core/../misc/../font/../draw/../misc/lv_area.h **** #include "lv_types.h"
  18:Drivers/lvgl/src/widgets/imagebutton/../../core/../misc/../font/../draw/../misc/lv_area.h **** #include "lv_math.h"
  19:Drivers/lvgl/src/widgets/imagebutton/../../core/../misc/../font/../draw/../misc/lv_area.h **** 
  20:Drivers/lvgl/src/widgets/imagebutton/../../core/../misc/../font/../draw/../misc/lv_area.h **** /*********************
  21:Drivers/lvgl/src/widgets/imagebutton/../../core/../misc/../font/../draw/../misc/lv_area.h ****  *      DEFINES
ARM GAS  /tmp/cco6PmJt.s 			page 18


  22:Drivers/lvgl/src/widgets/imagebutton/../../core/../misc/../font/../draw/../misc/lv_area.h ****  *********************/
  23:Drivers/lvgl/src/widgets/imagebutton/../../core/../misc/../font/../draw/../misc/lv_area.h **** 
  24:Drivers/lvgl/src/widgets/imagebutton/../../core/../misc/../font/../draw/../misc/lv_area.h **** /**********************
  25:Drivers/lvgl/src/widgets/imagebutton/../../core/../misc/../font/../draw/../misc/lv_area.h ****  *      TYPEDEFS
  26:Drivers/lvgl/src/widgets/imagebutton/../../core/../misc/../font/../draw/../misc/lv_area.h ****  **********************/
  27:Drivers/lvgl/src/widgets/imagebutton/../../core/../misc/../font/../draw/../misc/lv_area.h **** 
  28:Drivers/lvgl/src/widgets/imagebutton/../../core/../misc/../font/../draw/../misc/lv_area.h **** /**
  29:Drivers/lvgl/src/widgets/imagebutton/../../core/../misc/../font/../draw/../misc/lv_area.h ****  * Represents a point on the screen.
  30:Drivers/lvgl/src/widgets/imagebutton/../../core/../misc/../font/../draw/../misc/lv_area.h ****  */
  31:Drivers/lvgl/src/widgets/imagebutton/../../core/../misc/../font/../draw/../misc/lv_area.h **** typedef struct {
  32:Drivers/lvgl/src/widgets/imagebutton/../../core/../misc/../font/../draw/../misc/lv_area.h ****     int32_t x;
  33:Drivers/lvgl/src/widgets/imagebutton/../../core/../misc/../font/../draw/../misc/lv_area.h ****     int32_t y;
  34:Drivers/lvgl/src/widgets/imagebutton/../../core/../misc/../font/../draw/../misc/lv_area.h **** } lv_point_t;
  35:Drivers/lvgl/src/widgets/imagebutton/../../core/../misc/../font/../draw/../misc/lv_area.h **** 
  36:Drivers/lvgl/src/widgets/imagebutton/../../core/../misc/../font/../draw/../misc/lv_area.h **** typedef struct {
  37:Drivers/lvgl/src/widgets/imagebutton/../../core/../misc/../font/../draw/../misc/lv_area.h ****     lv_value_precise_t x;
  38:Drivers/lvgl/src/widgets/imagebutton/../../core/../misc/../font/../draw/../misc/lv_area.h ****     lv_value_precise_t y;
  39:Drivers/lvgl/src/widgets/imagebutton/../../core/../misc/../font/../draw/../misc/lv_area.h **** } lv_point_precise_t;
  40:Drivers/lvgl/src/widgets/imagebutton/../../core/../misc/../font/../draw/../misc/lv_area.h **** 
  41:Drivers/lvgl/src/widgets/imagebutton/../../core/../misc/../font/../draw/../misc/lv_area.h **** /** Represents an area of the screen.*/
  42:Drivers/lvgl/src/widgets/imagebutton/../../core/../misc/../font/../draw/../misc/lv_area.h **** typedef struct {
  43:Drivers/lvgl/src/widgets/imagebutton/../../core/../misc/../font/../draw/../misc/lv_area.h ****     int32_t x1;
  44:Drivers/lvgl/src/widgets/imagebutton/../../core/../misc/../font/../draw/../misc/lv_area.h ****     int32_t y1;
  45:Drivers/lvgl/src/widgets/imagebutton/../../core/../misc/../font/../draw/../misc/lv_area.h ****     int32_t x2;
  46:Drivers/lvgl/src/widgets/imagebutton/../../core/../misc/../font/../draw/../misc/lv_area.h ****     int32_t y2;
  47:Drivers/lvgl/src/widgets/imagebutton/../../core/../misc/../font/../draw/../misc/lv_area.h **** } lv_area_t;
  48:Drivers/lvgl/src/widgets/imagebutton/../../core/../misc/../font/../draw/../misc/lv_area.h **** 
  49:Drivers/lvgl/src/widgets/imagebutton/../../core/../misc/../font/../draw/../misc/lv_area.h **** /** Alignments*/
  50:Drivers/lvgl/src/widgets/imagebutton/../../core/../misc/../font/../draw/../misc/lv_area.h **** 
  51:Drivers/lvgl/src/widgets/imagebutton/../../core/../misc/../font/../draw/../misc/lv_area.h **** typedef enum {
  52:Drivers/lvgl/src/widgets/imagebutton/../../core/../misc/../font/../draw/../misc/lv_area.h ****     LV_ALIGN_DEFAULT = 0,
  53:Drivers/lvgl/src/widgets/imagebutton/../../core/../misc/../font/../draw/../misc/lv_area.h ****     LV_ALIGN_TOP_LEFT,
  54:Drivers/lvgl/src/widgets/imagebutton/../../core/../misc/../font/../draw/../misc/lv_area.h ****     LV_ALIGN_TOP_MID,
  55:Drivers/lvgl/src/widgets/imagebutton/../../core/../misc/../font/../draw/../misc/lv_area.h ****     LV_ALIGN_TOP_RIGHT,
  56:Drivers/lvgl/src/widgets/imagebutton/../../core/../misc/../font/../draw/../misc/lv_area.h ****     LV_ALIGN_BOTTOM_LEFT,
  57:Drivers/lvgl/src/widgets/imagebutton/../../core/../misc/../font/../draw/../misc/lv_area.h ****     LV_ALIGN_BOTTOM_MID,
  58:Drivers/lvgl/src/widgets/imagebutton/../../core/../misc/../font/../draw/../misc/lv_area.h ****     LV_ALIGN_BOTTOM_RIGHT,
  59:Drivers/lvgl/src/widgets/imagebutton/../../core/../misc/../font/../draw/../misc/lv_area.h ****     LV_ALIGN_LEFT_MID,
  60:Drivers/lvgl/src/widgets/imagebutton/../../core/../misc/../font/../draw/../misc/lv_area.h ****     LV_ALIGN_RIGHT_MID,
  61:Drivers/lvgl/src/widgets/imagebutton/../../core/../misc/../font/../draw/../misc/lv_area.h ****     LV_ALIGN_CENTER,
  62:Drivers/lvgl/src/widgets/imagebutton/../../core/../misc/../font/../draw/../misc/lv_area.h **** 
  63:Drivers/lvgl/src/widgets/imagebutton/../../core/../misc/../font/../draw/../misc/lv_area.h ****     LV_ALIGN_OUT_TOP_LEFT,
  64:Drivers/lvgl/src/widgets/imagebutton/../../core/../misc/../font/../draw/../misc/lv_area.h ****     LV_ALIGN_OUT_TOP_MID,
  65:Drivers/lvgl/src/widgets/imagebutton/../../core/../misc/../font/../draw/../misc/lv_area.h ****     LV_ALIGN_OUT_TOP_RIGHT,
  66:Drivers/lvgl/src/widgets/imagebutton/../../core/../misc/../font/../draw/../misc/lv_area.h ****     LV_ALIGN_OUT_BOTTOM_LEFT,
  67:Drivers/lvgl/src/widgets/imagebutton/../../core/../misc/../font/../draw/../misc/lv_area.h ****     LV_ALIGN_OUT_BOTTOM_MID,
  68:Drivers/lvgl/src/widgets/imagebutton/../../core/../misc/../font/../draw/../misc/lv_area.h ****     LV_ALIGN_OUT_BOTTOM_RIGHT,
  69:Drivers/lvgl/src/widgets/imagebutton/../../core/../misc/../font/../draw/../misc/lv_area.h ****     LV_ALIGN_OUT_LEFT_TOP,
  70:Drivers/lvgl/src/widgets/imagebutton/../../core/../misc/../font/../draw/../misc/lv_area.h ****     LV_ALIGN_OUT_LEFT_MID,
  71:Drivers/lvgl/src/widgets/imagebutton/../../core/../misc/../font/../draw/../misc/lv_area.h ****     LV_ALIGN_OUT_LEFT_BOTTOM,
  72:Drivers/lvgl/src/widgets/imagebutton/../../core/../misc/../font/../draw/../misc/lv_area.h ****     LV_ALIGN_OUT_RIGHT_TOP,
  73:Drivers/lvgl/src/widgets/imagebutton/../../core/../misc/../font/../draw/../misc/lv_area.h ****     LV_ALIGN_OUT_RIGHT_MID,
  74:Drivers/lvgl/src/widgets/imagebutton/../../core/../misc/../font/../draw/../misc/lv_area.h ****     LV_ALIGN_OUT_RIGHT_BOTTOM,
  75:Drivers/lvgl/src/widgets/imagebutton/../../core/../misc/../font/../draw/../misc/lv_area.h **** } lv_align_t;
  76:Drivers/lvgl/src/widgets/imagebutton/../../core/../misc/../font/../draw/../misc/lv_area.h **** 
  77:Drivers/lvgl/src/widgets/imagebutton/../../core/../misc/../font/../draw/../misc/lv_area.h **** typedef enum {
  78:Drivers/lvgl/src/widgets/imagebutton/../../core/../misc/../font/../draw/../misc/lv_area.h ****     LV_DIR_NONE     = 0x00,
ARM GAS  /tmp/cco6PmJt.s 			page 19


  79:Drivers/lvgl/src/widgets/imagebutton/../../core/../misc/../font/../draw/../misc/lv_area.h ****     LV_DIR_LEFT     = (1 << 0),
  80:Drivers/lvgl/src/widgets/imagebutton/../../core/../misc/../font/../draw/../misc/lv_area.h ****     LV_DIR_RIGHT    = (1 << 1),
  81:Drivers/lvgl/src/widgets/imagebutton/../../core/../misc/../font/../draw/../misc/lv_area.h ****     LV_DIR_TOP      = (1 << 2),
  82:Drivers/lvgl/src/widgets/imagebutton/../../core/../misc/../font/../draw/../misc/lv_area.h ****     LV_DIR_BOTTOM   = (1 << 3),
  83:Drivers/lvgl/src/widgets/imagebutton/../../core/../misc/../font/../draw/../misc/lv_area.h ****     LV_DIR_HOR      = LV_DIR_LEFT | LV_DIR_RIGHT,
  84:Drivers/lvgl/src/widgets/imagebutton/../../core/../misc/../font/../draw/../misc/lv_area.h ****     LV_DIR_VER      = LV_DIR_TOP | LV_DIR_BOTTOM,
  85:Drivers/lvgl/src/widgets/imagebutton/../../core/../misc/../font/../draw/../misc/lv_area.h ****     LV_DIR_ALL      = LV_DIR_HOR | LV_DIR_VER,
  86:Drivers/lvgl/src/widgets/imagebutton/../../core/../misc/../font/../draw/../misc/lv_area.h **** } lv_dir_t;
  87:Drivers/lvgl/src/widgets/imagebutton/../../core/../misc/../font/../draw/../misc/lv_area.h **** 
  88:Drivers/lvgl/src/widgets/imagebutton/../../core/../misc/../font/../draw/../misc/lv_area.h **** /**********************
  89:Drivers/lvgl/src/widgets/imagebutton/../../core/../misc/../font/../draw/../misc/lv_area.h ****  * GLOBAL PROTOTYPES
  90:Drivers/lvgl/src/widgets/imagebutton/../../core/../misc/../font/../draw/../misc/lv_area.h ****  **********************/
  91:Drivers/lvgl/src/widgets/imagebutton/../../core/../misc/../font/../draw/../misc/lv_area.h **** 
  92:Drivers/lvgl/src/widgets/imagebutton/../../core/../misc/../font/../draw/../misc/lv_area.h **** /**
  93:Drivers/lvgl/src/widgets/imagebutton/../../core/../misc/../font/../draw/../misc/lv_area.h ****  * Initialize an area
  94:Drivers/lvgl/src/widgets/imagebutton/../../core/../misc/../font/../draw/../misc/lv_area.h ****  * @param area_p pointer to an area
  95:Drivers/lvgl/src/widgets/imagebutton/../../core/../misc/../font/../draw/../misc/lv_area.h ****  * @param x1 left coordinate of the area
  96:Drivers/lvgl/src/widgets/imagebutton/../../core/../misc/../font/../draw/../misc/lv_area.h ****  * @param y1 top coordinate of the area
  97:Drivers/lvgl/src/widgets/imagebutton/../../core/../misc/../font/../draw/../misc/lv_area.h ****  * @param x2 right coordinate of the area
  98:Drivers/lvgl/src/widgets/imagebutton/../../core/../misc/../font/../draw/../misc/lv_area.h ****  * @param y2 bottom coordinate of the area
  99:Drivers/lvgl/src/widgets/imagebutton/../../core/../misc/../font/../draw/../misc/lv_area.h ****  */
 100:Drivers/lvgl/src/widgets/imagebutton/../../core/../misc/../font/../draw/../misc/lv_area.h **** void lv_area_set(lv_area_t * area_p, int32_t x1, int32_t y1, int32_t x2, int32_t y2);
 101:Drivers/lvgl/src/widgets/imagebutton/../../core/../misc/../font/../draw/../misc/lv_area.h **** 
 102:Drivers/lvgl/src/widgets/imagebutton/../../core/../misc/../font/../draw/../misc/lv_area.h **** /**
 103:Drivers/lvgl/src/widgets/imagebutton/../../core/../misc/../font/../draw/../misc/lv_area.h ****  * Copy an area
 104:Drivers/lvgl/src/widgets/imagebutton/../../core/../misc/../font/../draw/../misc/lv_area.h ****  * @param dest pointer to the destination area
 105:Drivers/lvgl/src/widgets/imagebutton/../../core/../misc/../font/../draw/../misc/lv_area.h ****  * @param src pointer to the source area
 106:Drivers/lvgl/src/widgets/imagebutton/../../core/../misc/../font/../draw/../misc/lv_area.h ****  */
 107:Drivers/lvgl/src/widgets/imagebutton/../../core/../misc/../font/../draw/../misc/lv_area.h **** inline static void lv_area_copy(lv_area_t * dest, const lv_area_t * src)
 445              		.loc 3 107 20 view .LVU125
 446              	.LBB23:
 108:Drivers/lvgl/src/widgets/imagebutton/../../core/../misc/../font/../draw/../misc/lv_area.h **** {
 109:Drivers/lvgl/src/widgets/imagebutton/../../core/../misc/../font/../draw/../misc/lv_area.h ****     dest->x1 = src->x1;
 447              		.loc 3 109 5 view .LVU126
 448              		.loc 3 109 19 is_stmt 0 view .LVU127
 449 0042 6369     		ldr	r3, [r4, #20]
 450              		.loc 3 109 14 view .LVU128
 451 0044 2893     		str	r3, [sp, #160]
 110:Drivers/lvgl/src/widgets/imagebutton/../../core/../misc/../font/../draw/../misc/lv_area.h ****     dest->y1 = src->y1;
 452              		.loc 3 110 5 is_stmt 1 view .LVU129
 453              		.loc 3 110 19 is_stmt 0 view .LVU130
 454 0046 A369     		ldr	r3, [r4, #24]
 455              		.loc 3 110 14 view .LVU131
 456 0048 2993     		str	r3, [sp, #164]
 111:Drivers/lvgl/src/widgets/imagebutton/../../core/../misc/../font/../draw/../misc/lv_area.h ****     dest->x2 = src->x2;
 457              		.loc 3 111 5 is_stmt 1 view .LVU132
 458              		.loc 3 111 19 is_stmt 0 view .LVU133
 459 004a E369     		ldr	r3, [r4, #28]
 460              		.loc 3 111 14 view .LVU134
 461 004c 2A93     		str	r3, [sp, #168]
 112:Drivers/lvgl/src/widgets/imagebutton/../../core/../misc/../font/../draw/../misc/lv_area.h ****     dest->y2 = src->y2;
 462              		.loc 3 112 5 is_stmt 1 view .LVU135
 463              		.loc 3 112 19 is_stmt 0 view .LVU136
 464 004e 236A     		ldr	r3, [r4, #32]
 465              		.loc 3 112 14 view .LVU137
 466 0050 2B93     		str	r3, [sp, #172]
 467              	.LVL56:
ARM GAS  /tmp/cco6PmJt.s 			page 20


 468              		.loc 3 112 14 view .LVU138
 469              	.LBE23:
 470              	.LBE22:
 204:Drivers/lvgl/src/widgets/imagebutton/lv_imagebutton.c **** 
 471              		.loc 1 204 5 is_stmt 1 view .LVU139
 472 0052 3946     		mov	r1, r7
 473 0054 28A8     		add	r0, sp, #160
 474              	.LVL57:
 204:Drivers/lvgl/src/widgets/imagebutton/lv_imagebutton.c **** 
 475              		.loc 1 204 5 is_stmt 0 view .LVU140
 476 0056 FFF7FEFF 		bl	lv_area_increase
 477              	.LVL58:
 206:Drivers/lvgl/src/widgets/imagebutton/lv_imagebutton.c ****     lv_draw_image_dsc_init(&img_dsc);
 478              		.loc 1 206 5 is_stmt 1 view .LVU141
 207:Drivers/lvgl/src/widgets/imagebutton/lv_imagebutton.c ****     img_dsc.base.layer = layer;
 479              		.loc 1 207 5 view .LVU142
 480 005a 0DAF     		add	r7, sp, #52
 481              	.LVL59:
 207:Drivers/lvgl/src/widgets/imagebutton/lv_imagebutton.c ****     img_dsc.base.layer = layer;
 482              		.loc 1 207 5 is_stmt 0 view .LVU143
 483 005c 3846     		mov	r0, r7
 484 005e FFF7FEFF 		bl	lv_draw_image_dsc_init
 485              	.LVL60:
 208:Drivers/lvgl/src/widgets/imagebutton/lv_imagebutton.c ****     lv_obj_init_draw_image_dsc(obj, LV_PART_MAIN, &img_dsc);
 486              		.loc 1 208 5 is_stmt 1 view .LVU144
 208:Drivers/lvgl/src/widgets/imagebutton/lv_imagebutton.c ****     lv_obj_init_draw_image_dsc(obj, LV_PART_MAIN, &img_dsc);
 487              		.loc 1 208 24 is_stmt 0 view .LVU145
 488 0062 1196     		str	r6, [sp, #68]
 209:Drivers/lvgl/src/widgets/imagebutton/lv_imagebutton.c **** 
 489              		.loc 1 209 5 is_stmt 1 view .LVU146
 490 0064 3A46     		mov	r2, r7
 491 0066 0021     		movs	r1, #0
 492 0068 2046     		mov	r0, r4
 493 006a FFF7FEFF 		bl	lv_obj_init_draw_image_dsc
 494              	.LVL61:
 211:Drivers/lvgl/src/widgets/imagebutton/lv_imagebutton.c ****     int32_t left_w = 0;
 495              		.loc 1 211 5 view .LVU147
 212:Drivers/lvgl/src/widgets/imagebutton/lv_imagebutton.c ****     int32_t right_w = 0;
 496              		.loc 1 212 5 view .LVU148
 213:Drivers/lvgl/src/widgets/imagebutton/lv_imagebutton.c **** 
 497              		.loc 1 213 5 view .LVU149
 215:Drivers/lvgl/src/widgets/imagebutton/lv_imagebutton.c ****         left_w = src_info->header.w;
 498              		.loc 1 215 5 view .LVU150
 215:Drivers/lvgl/src/widgets/imagebutton/lv_imagebutton.c ****         left_w = src_info->header.w;
 499              		.loc 1 215 16 is_stmt 0 view .LVU151
 500 006e 04EB0513 		add	r3, r4, r5, lsl #4
 501 0072 D3F88C10 		ldr	r1, [r3, #140]
 215:Drivers/lvgl/src/widgets/imagebutton/lv_imagebutton.c ****         left_w = src_info->header.w;
 502              		.loc 1 215 7 view .LVU152
 503 0076 0029     		cmp	r1, #0
 504 0078 49D0     		beq	.L44
 216:Drivers/lvgl/src/widgets/imagebutton/lv_imagebutton.c ****         coords_part.x1 = coords.x1;
 505              		.loc 1 216 9 is_stmt 1 view .LVU153
 216:Drivers/lvgl/src/widgets/imagebutton/lv_imagebutton.c ****         coords_part.x1 = coords.x1;
 506              		.loc 1 216 34 is_stmt 0 view .LVU154
 507 007a 1846     		mov	r0, r3
 508 007c B3F89470 		ldrh	r7, [r3, #148]
ARM GAS  /tmp/cco6PmJt.s 			page 21


 509              	.LVL62:
 217:Drivers/lvgl/src/widgets/imagebutton/lv_imagebutton.c ****         coords_part.y1 = coords.y1;
 510              		.loc 1 217 9 is_stmt 1 view .LVU155
 217:Drivers/lvgl/src/widgets/imagebutton/lv_imagebutton.c ****         coords_part.y1 = coords.y1;
 511              		.loc 1 217 32 is_stmt 0 view .LVU156
 512 0080 289A     		ldr	r2, [sp, #160]
 217:Drivers/lvgl/src/widgets/imagebutton/lv_imagebutton.c ****         coords_part.y1 = coords.y1;
 513              		.loc 1 217 24 view .LVU157
 514 0082 0992     		str	r2, [sp, #36]
 218:Drivers/lvgl/src/widgets/imagebutton/lv_imagebutton.c ****         coords_part.x2 = coords.x1 + src_info->header.w - 1;
 515              		.loc 1 218 9 is_stmt 1 view .LVU158
 218:Drivers/lvgl/src/widgets/imagebutton/lv_imagebutton.c ****         coords_part.x2 = coords.x1 + src_info->header.w - 1;
 516              		.loc 1 218 32 is_stmt 0 view .LVU159
 517 0084 299B     		ldr	r3, [sp, #164]
 218:Drivers/lvgl/src/widgets/imagebutton/lv_imagebutton.c ****         coords_part.x2 = coords.x1 + src_info->header.w - 1;
 518              		.loc 1 218 24 view .LVU160
 519 0086 0A93     		str	r3, [sp, #40]
 219:Drivers/lvgl/src/widgets/imagebutton/lv_imagebutton.c ****         coords_part.y2 = coords.y1 + src_info->header.h - 1;
 520              		.loc 1 219 9 is_stmt 1 view .LVU161
 219:Drivers/lvgl/src/widgets/imagebutton/lv_imagebutton.c ****         coords_part.y2 = coords.y1 + src_info->header.h - 1;
 521              		.loc 1 219 36 is_stmt 0 view .LVU162
 522 0088 3A44     		add	r2, r2, r7
 219:Drivers/lvgl/src/widgets/imagebutton/lv_imagebutton.c ****         coords_part.y2 = coords.y1 + src_info->header.h - 1;
 523              		.loc 1 219 57 view .LVU163
 524 008a 013A     		subs	r2, r2, #1
 219:Drivers/lvgl/src/widgets/imagebutton/lv_imagebutton.c ****         coords_part.y2 = coords.y1 + src_info->header.h - 1;
 525              		.loc 1 219 24 view .LVU164
 526 008c 0B92     		str	r2, [sp, #44]
 220:Drivers/lvgl/src/widgets/imagebutton/lv_imagebutton.c ****         img_dsc.src = src_info->img_src;
 527              		.loc 1 220 9 is_stmt 1 view .LVU165
 220:Drivers/lvgl/src/widgets/imagebutton/lv_imagebutton.c ****         img_dsc.src = src_info->img_src;
 528              		.loc 1 220 54 is_stmt 0 view .LVU166
 529 008e B0F89620 		ldrh	r2, [r0, #150]
 220:Drivers/lvgl/src/widgets/imagebutton/lv_imagebutton.c ****         img_dsc.src = src_info->img_src;
 530              		.loc 1 220 36 view .LVU167
 531 0092 1344     		add	r3, r3, r2
 220:Drivers/lvgl/src/widgets/imagebutton/lv_imagebutton.c ****         img_dsc.src = src_info->img_src;
 532              		.loc 1 220 57 view .LVU168
 533 0094 013B     		subs	r3, r3, #1
 220:Drivers/lvgl/src/widgets/imagebutton/lv_imagebutton.c ****         img_dsc.src = src_info->img_src;
 534              		.loc 1 220 24 view .LVU169
 535 0096 0C93     		str	r3, [sp, #48]
 221:Drivers/lvgl/src/widgets/imagebutton/lv_imagebutton.c ****         lv_draw_image(layer, &img_dsc, &coords_part);
 536              		.loc 1 221 9 is_stmt 1 view .LVU170
 221:Drivers/lvgl/src/widgets/imagebutton/lv_imagebutton.c ****         lv_draw_image(layer, &img_dsc, &coords_part);
 537              		.loc 1 221 21 is_stmt 0 view .LVU171
 538 0098 1491     		str	r1, [sp, #80]
 222:Drivers/lvgl/src/widgets/imagebutton/lv_imagebutton.c ****     }
 539              		.loc 1 222 9 is_stmt 1 view .LVU172
 540 009a 09AA     		add	r2, sp, #36
 541 009c 0DA9     		add	r1, sp, #52
 542 009e 3046     		mov	r0, r6
 543 00a0 FFF7FEFF 		bl	lv_draw_image
 544              	.LVL63:
 545              	.L40:
 225:Drivers/lvgl/src/widgets/imagebutton/lv_imagebutton.c ****     if(src_info->img_src) {
 546              		.loc 1 225 5 view .LVU173
ARM GAS  /tmp/cco6PmJt.s 			page 22


 226:Drivers/lvgl/src/widgets/imagebutton/lv_imagebutton.c ****         right_w = src_info->header.w;
 547              		.loc 1 226 5 view .LVU174
 226:Drivers/lvgl/src/widgets/imagebutton/lv_imagebutton.c ****         right_w = src_info->header.w;
 548              		.loc 1 226 16 is_stmt 0 view .LVU175
 549 00a4 04EB0513 		add	r3, r4, r5, lsl #4
 550 00a8 D3F8EC20 		ldr	r2, [r3, #236]
 226:Drivers/lvgl/src/widgets/imagebutton/lv_imagebutton.c ****         right_w = src_info->header.w;
 551              		.loc 1 226 7 view .LVU176
 552 00ac 002A     		cmp	r2, #0
 553 00ae 30D0     		beq	.L45
 227:Drivers/lvgl/src/widgets/imagebutton/lv_imagebutton.c ****         coords_part.x1 = coords.x2 - src_info->header.w + 1;
 554              		.loc 1 227 9 is_stmt 1 view .LVU177
 227:Drivers/lvgl/src/widgets/imagebutton/lv_imagebutton.c ****         coords_part.x1 = coords.x2 - src_info->header.w + 1;
 555              		.loc 1 227 35 is_stmt 0 view .LVU178
 556 00b0 1946     		mov	r1, r3
 557 00b2 B3F8F480 		ldrh	r8, [r3, #244]
 558              	.LVL64:
 228:Drivers/lvgl/src/widgets/imagebutton/lv_imagebutton.c ****         coords_part.y1 = coords.y1;
 559              		.loc 1 228 9 is_stmt 1 view .LVU179
 228:Drivers/lvgl/src/widgets/imagebutton/lv_imagebutton.c ****         coords_part.y1 = coords.y1;
 560              		.loc 1 228 32 is_stmt 0 view .LVU180
 561 00b6 2A98     		ldr	r0, [sp, #168]
 228:Drivers/lvgl/src/widgets/imagebutton/lv_imagebutton.c ****         coords_part.y1 = coords.y1;
 562              		.loc 1 228 36 view .LVU181
 563 00b8 A0EB0803 		sub	r3, r0, r8
 228:Drivers/lvgl/src/widgets/imagebutton/lv_imagebutton.c ****         coords_part.y1 = coords.y1;
 564              		.loc 1 228 57 view .LVU182
 565 00bc 0133     		adds	r3, r3, #1
 228:Drivers/lvgl/src/widgets/imagebutton/lv_imagebutton.c ****         coords_part.y1 = coords.y1;
 566              		.loc 1 228 24 view .LVU183
 567 00be 0993     		str	r3, [sp, #36]
 229:Drivers/lvgl/src/widgets/imagebutton/lv_imagebutton.c ****         coords_part.x2 = coords.x2;
 568              		.loc 1 229 9 is_stmt 1 view .LVU184
 229:Drivers/lvgl/src/widgets/imagebutton/lv_imagebutton.c ****         coords_part.x2 = coords.x2;
 569              		.loc 1 229 32 is_stmt 0 view .LVU185
 570 00c0 299B     		ldr	r3, [sp, #164]
 229:Drivers/lvgl/src/widgets/imagebutton/lv_imagebutton.c ****         coords_part.x2 = coords.x2;
 571              		.loc 1 229 24 view .LVU186
 572 00c2 0A93     		str	r3, [sp, #40]
 230:Drivers/lvgl/src/widgets/imagebutton/lv_imagebutton.c ****         coords_part.y2 = coords.y1 + src_info->header.h - 1;
 573              		.loc 1 230 9 is_stmt 1 view .LVU187
 230:Drivers/lvgl/src/widgets/imagebutton/lv_imagebutton.c ****         coords_part.y2 = coords.y1 + src_info->header.h - 1;
 574              		.loc 1 230 24 is_stmt 0 view .LVU188
 575 00c4 0B90     		str	r0, [sp, #44]
 231:Drivers/lvgl/src/widgets/imagebutton/lv_imagebutton.c ****         img_dsc.src = src_info->img_src;
 576              		.loc 1 231 9 is_stmt 1 view .LVU189
 231:Drivers/lvgl/src/widgets/imagebutton/lv_imagebutton.c ****         img_dsc.src = src_info->img_src;
 577              		.loc 1 231 54 is_stmt 0 view .LVU190
 578 00c6 B1F8F610 		ldrh	r1, [r1, #246]
 231:Drivers/lvgl/src/widgets/imagebutton/lv_imagebutton.c ****         img_dsc.src = src_info->img_src;
 579              		.loc 1 231 36 view .LVU191
 580 00ca 0B44     		add	r3, r3, r1
 231:Drivers/lvgl/src/widgets/imagebutton/lv_imagebutton.c ****         img_dsc.src = src_info->img_src;
 581              		.loc 1 231 57 view .LVU192
 582 00cc 013B     		subs	r3, r3, #1
 231:Drivers/lvgl/src/widgets/imagebutton/lv_imagebutton.c ****         img_dsc.src = src_info->img_src;
 583              		.loc 1 231 24 view .LVU193
ARM GAS  /tmp/cco6PmJt.s 			page 23


 584 00ce 0C93     		str	r3, [sp, #48]
 232:Drivers/lvgl/src/widgets/imagebutton/lv_imagebutton.c ****         lv_draw_image(layer, &img_dsc, &coords_part);
 585              		.loc 1 232 9 is_stmt 1 view .LVU194
 232:Drivers/lvgl/src/widgets/imagebutton/lv_imagebutton.c ****         lv_draw_image(layer, &img_dsc, &coords_part);
 586              		.loc 1 232 21 is_stmt 0 view .LVU195
 587 00d0 1492     		str	r2, [sp, #80]
 233:Drivers/lvgl/src/widgets/imagebutton/lv_imagebutton.c ****     }
 588              		.loc 1 233 9 is_stmt 1 view .LVU196
 589 00d2 09AA     		add	r2, sp, #36
 590 00d4 0DA9     		add	r1, sp, #52
 591 00d6 3046     		mov	r0, r6
 592 00d8 FFF7FEFF 		bl	lv_draw_image
 593              	.LVL65:
 594              	.L41:
 236:Drivers/lvgl/src/widgets/imagebutton/lv_imagebutton.c ****     if(src_info->img_src) {
 595              		.loc 1 236 5 view .LVU197
 237:Drivers/lvgl/src/widgets/imagebutton/lv_imagebutton.c ****         coords_part.x1 = coords.x1 + left_w;
 596              		.loc 1 237 5 view .LVU198
 237:Drivers/lvgl/src/widgets/imagebutton/lv_imagebutton.c ****         coords_part.x1 = coords.x1 + left_w;
 597              		.loc 1 237 16 is_stmt 0 view .LVU199
 598 00dc 04EB0513 		add	r3, r4, r5, lsl #4
 599 00e0 DB6A     		ldr	r3, [r3, #44]
 237:Drivers/lvgl/src/widgets/imagebutton/lv_imagebutton.c ****         coords_part.x1 = coords.x1 + left_w;
 600              		.loc 1 237 7 view .LVU200
 601 00e2 8BB1     		cbz	r3, .L39
 602              	.LBB24:
 238:Drivers/lvgl/src/widgets/imagebutton/lv_imagebutton.c ****         coords_part.x2 = coords.x2 - right_w;
 603              		.loc 1 238 9 is_stmt 1 view .LVU201
 238:Drivers/lvgl/src/widgets/imagebutton/lv_imagebutton.c ****         coords_part.x2 = coords.x2 - right_w;
 604              		.loc 1 238 32 is_stmt 0 view .LVU202
 605 00e4 289B     		ldr	r3, [sp, #160]
 238:Drivers/lvgl/src/widgets/imagebutton/lv_imagebutton.c ****         coords_part.x2 = coords.x2 - right_w;
 606              		.loc 1 238 36 view .LVU203
 607 00e6 3B44     		add	r3, r3, r7
 238:Drivers/lvgl/src/widgets/imagebutton/lv_imagebutton.c ****         coords_part.x2 = coords.x2 - right_w;
 608              		.loc 1 238 24 view .LVU204
 609 00e8 0993     		str	r3, [sp, #36]
 239:Drivers/lvgl/src/widgets/imagebutton/lv_imagebutton.c ****         coords_part.y1 = coords.y1;
 610              		.loc 1 239 9 is_stmt 1 view .LVU205
 239:Drivers/lvgl/src/widgets/imagebutton/lv_imagebutton.c ****         coords_part.y1 = coords.y1;
 611              		.loc 1 239 32 is_stmt 0 view .LVU206
 612 00ea 2A9B     		ldr	r3, [sp, #168]
 239:Drivers/lvgl/src/widgets/imagebutton/lv_imagebutton.c ****         coords_part.y1 = coords.y1;
 613              		.loc 1 239 36 view .LVU207
 614 00ec A3EB0803 		sub	r3, r3, r8
 239:Drivers/lvgl/src/widgets/imagebutton/lv_imagebutton.c ****         coords_part.y1 = coords.y1;
 615              		.loc 1 239 24 view .LVU208
 616 00f0 0B93     		str	r3, [sp, #44]
 240:Drivers/lvgl/src/widgets/imagebutton/lv_imagebutton.c ****         coords_part.y2 = coords.y2;
 617              		.loc 1 240 9 is_stmt 1 view .LVU209
 240:Drivers/lvgl/src/widgets/imagebutton/lv_imagebutton.c ****         coords_part.y2 = coords.y2;
 618              		.loc 1 240 32 is_stmt 0 view .LVU210
 619 00f2 299B     		ldr	r3, [sp, #164]
 240:Drivers/lvgl/src/widgets/imagebutton/lv_imagebutton.c ****         coords_part.y2 = coords.y2;
 620              		.loc 1 240 24 view .LVU211
 621 00f4 0A93     		str	r3, [sp, #40]
 241:Drivers/lvgl/src/widgets/imagebutton/lv_imagebutton.c **** 
ARM GAS  /tmp/cco6PmJt.s 			page 24


 622              		.loc 1 241 9 is_stmt 1 view .LVU212
 241:Drivers/lvgl/src/widgets/imagebutton/lv_imagebutton.c **** 
 623              		.loc 1 241 32 is_stmt 0 view .LVU213
 624 00f6 2B9B     		ldr	r3, [sp, #172]
 241:Drivers/lvgl/src/widgets/imagebutton/lv_imagebutton.c **** 
 625              		.loc 1 241 24 view .LVU214
 626 00f8 0C93     		str	r3, [sp, #48]
 243:Drivers/lvgl/src/widgets/imagebutton/lv_imagebutton.c ****         if(lv_area_intersect(&clip_area_center, &coords_part, &layer->_clip_area)) {
 627              		.loc 1 243 9 is_stmt 1 view .LVU215
 244:Drivers/lvgl/src/widgets/imagebutton/lv_imagebutton.c ****             lv_area_t clip_area_ori = layer->_clip_area;
 628              		.loc 1 244 9 view .LVU216
 244:Drivers/lvgl/src/widgets/imagebutton/lv_imagebutton.c ****             lv_area_t clip_area_ori = layer->_clip_area;
 629              		.loc 1 244 12 is_stmt 0 view .LVU217
 630 00fa 06F11802 		add	r2, r6, #24
 631 00fe 09A9     		add	r1, sp, #36
 632 0100 01A8     		add	r0, sp, #4
 633 0102 FFF7FEFF 		bl	lv_area_intersect
 634              	.LVL66:
 244:Drivers/lvgl/src/widgets/imagebutton/lv_imagebutton.c ****             lv_area_t clip_area_ori = layer->_clip_area;
 635              		.loc 1 244 11 discriminator 1 view .LVU218
 636 0106 38B9     		cbnz	r0, .L47
 637              	.LVL67:
 638              	.L39:
 244:Drivers/lvgl/src/widgets/imagebutton/lv_imagebutton.c ****             lv_area_t clip_area_ori = layer->_clip_area;
 639              		.loc 1 244 11 discriminator 1 view .LVU219
 640              	.LBE24:
 254:Drivers/lvgl/src/widgets/imagebutton/lv_imagebutton.c **** 
 641              		.loc 1 254 1 view .LVU220
 642 0108 2CB0     		add	sp, sp, #176
 643              	.LCFI6:
 644              		.cfi_remember_state
 645              		.cfi_def_cfa_offset 24
 646              		@ sp needed
 647 010a BDE8F081 		pop	{r4, r5, r6, r7, r8, pc}
 648              	.LVL68:
 649              	.L44:
 650              	.LCFI7:
 651              		.cfi_restore_state
 212:Drivers/lvgl/src/widgets/imagebutton/lv_imagebutton.c ****     int32_t right_w = 0;
 652              		.loc 1 212 13 view .LVU221
 653 010e 0027     		movs	r7, #0
 654 0110 C8E7     		b	.L40
 655              	.LVL69:
 656              	.L45:
 213:Drivers/lvgl/src/widgets/imagebutton/lv_imagebutton.c **** 
 657              		.loc 1 213 13 view .LVU222
 658 0112 4FF00008 		mov	r8, #0
 659 0116 E1E7     		b	.L41
 660              	.LVL70:
 661              	.L47:
 662              	.LBB26:
 663              	.LBB25:
 245:Drivers/lvgl/src/widgets/imagebutton/lv_imagebutton.c ****             layer->_clip_area = clip_area_center;
 664              		.loc 1 245 13 is_stmt 1 view .LVU223
 245:Drivers/lvgl/src/widgets/imagebutton/lv_imagebutton.c ****             layer->_clip_area = clip_area_center;
 665              		.loc 1 245 23 is_stmt 0 view .LVU224
 666 0118 0DF11408 		add	r8, sp, #20
ARM GAS  /tmp/cco6PmJt.s 			page 25


 667              	.LVL71:
 245:Drivers/lvgl/src/widgets/imagebutton/lv_imagebutton.c ****             layer->_clip_area = clip_area_center;
 668              		.loc 1 245 23 view .LVU225
 669 011c 06F11807 		add	r7, r6, #24
 670              	.LVL72:
 245:Drivers/lvgl/src/widgets/imagebutton/lv_imagebutton.c ****             layer->_clip_area = clip_area_center;
 671              		.loc 1 245 23 view .LVU226
 672 0120 97E80F00 		ldm	r7, {r0, r1, r2, r3}
 673 0124 88E80F00 		stm	r8, {r0, r1, r2, r3}
 246:Drivers/lvgl/src/widgets/imagebutton/lv_imagebutton.c ****             img_dsc.src = src_info->img_src;
 674              		.loc 1 246 13 is_stmt 1 view .LVU227
 246:Drivers/lvgl/src/widgets/imagebutton/lv_imagebutton.c ****             img_dsc.src = src_info->img_src;
 675              		.loc 1 246 31 is_stmt 0 view .LVU228
 676 0128 01AB     		add	r3, sp, #4
 677 012a 0FCB     		ldm	r3, {r0, r1, r2, r3}
 678 012c 87E80F00 		stm	r7, {r0, r1, r2, r3}
 247:Drivers/lvgl/src/widgets/imagebutton/lv_imagebutton.c ****             img_dsc.tile = 1;
 679              		.loc 1 247 13 is_stmt 1 view .LVU229
 247:Drivers/lvgl/src/widgets/imagebutton/lv_imagebutton.c ****             img_dsc.tile = 1;
 680              		.loc 1 247 35 is_stmt 0 view .LVU230
 681 0130 04EB0514 		add	r4, r4, r5, lsl #4
 682              	.LVL73:
 247:Drivers/lvgl/src/widgets/imagebutton/lv_imagebutton.c ****             img_dsc.tile = 1;
 683              		.loc 1 247 35 view .LVU231
 684 0134 E36A     		ldr	r3, [r4, #44]
 247:Drivers/lvgl/src/widgets/imagebutton/lv_imagebutton.c ****             img_dsc.tile = 1;
 685              		.loc 1 247 25 view .LVU232
 686 0136 1493     		str	r3, [sp, #80]
 248:Drivers/lvgl/src/widgets/imagebutton/lv_imagebutton.c ****             lv_draw_image(layer, &img_dsc, &coords_part);
 687              		.loc 1 248 13 is_stmt 1 view .LVU233
 248:Drivers/lvgl/src/widgets/imagebutton/lv_imagebutton.c ****             lv_draw_image(layer, &img_dsc, &coords_part);
 688              		.loc 1 248 26 is_stmt 0 view .LVU234
 689 0138 9DF88530 		ldrb	r3, [sp, #133]	@ zero_extendqisi2
 690 013c 43F02003 		orr	r3, r3, #32
 691 0140 8DF88530 		strb	r3, [sp, #133]
 249:Drivers/lvgl/src/widgets/imagebutton/lv_imagebutton.c ****             layer->_clip_area = clip_area_ori;
 692              		.loc 1 249 13 is_stmt 1 view .LVU235
 693 0144 09AA     		add	r2, sp, #36
 694 0146 0DA9     		add	r1, sp, #52
 695 0148 3046     		mov	r0, r6
 696 014a FFF7FEFF 		bl	lv_draw_image
 697              	.LVL74:
 250:Drivers/lvgl/src/widgets/imagebutton/lv_imagebutton.c ****         }
 698              		.loc 1 250 13 view .LVU236
 250:Drivers/lvgl/src/widgets/imagebutton/lv_imagebutton.c ****         }
 699              		.loc 1 250 31 is_stmt 0 view .LVU237
 700 014e 98E80F00 		ldm	r8, {r0, r1, r2, r3}
 701 0152 87E80F00 		stm	r7, {r0, r1, r2, r3}
 702              	.LBE25:
 703              	.LBE26:
 254:Drivers/lvgl/src/widgets/imagebutton/lv_imagebutton.c **** 
 704              		.loc 1 254 1 view .LVU238
 705 0156 D7E7     		b	.L39
 706              		.cfi_endproc
 707              	.LFE194:
 709              		.section	.text.lv_imagebutton_event,"ax",%progbits
 710              		.align	1
ARM GAS  /tmp/cco6PmJt.s 			page 26


 711              		.syntax unified
 712              		.thumb
 713              		.thumb_func
 715              	lv_imagebutton_event:
 716              	.LVL75:
 717              	.LFB193:
 158:Drivers/lvgl/src/widgets/imagebutton/lv_imagebutton.c ****     LV_UNUSED(class_p);
 718              		.loc 1 158 1 is_stmt 1 view -0
 719              		.cfi_startproc
 720              		@ args = 0, pretend = 0, frame = 0
 721              		@ frame_needed = 0, uses_anonymous_args = 0
 158:Drivers/lvgl/src/widgets/imagebutton/lv_imagebutton.c ****     LV_UNUSED(class_p);
 722              		.loc 1 158 1 is_stmt 0 view .LVU240
 723 0000 70B5     		push	{r4, r5, r6, lr}
 724              	.LCFI8:
 725              		.cfi_def_cfa_offset 16
 726              		.cfi_offset 4, -16
 727              		.cfi_offset 5, -12
 728              		.cfi_offset 6, -8
 729              		.cfi_offset 14, -4
 730 0002 0C46     		mov	r4, r1
 159:Drivers/lvgl/src/widgets/imagebutton/lv_imagebutton.c **** 
 731              		.loc 1 159 5 is_stmt 1 view .LVU241
 161:Drivers/lvgl/src/widgets/imagebutton/lv_imagebutton.c ****     if(res != LV_RESULT_OK) return;
 732              		.loc 1 161 5 view .LVU242
 161:Drivers/lvgl/src/widgets/imagebutton/lv_imagebutton.c ****     if(res != LV_RESULT_OK) return;
 733              		.loc 1 161 23 is_stmt 0 view .LVU243
 734 0004 2948     		ldr	r0, .L58
 735              	.LVL76:
 161:Drivers/lvgl/src/widgets/imagebutton/lv_imagebutton.c ****     if(res != LV_RESULT_OK) return;
 736              		.loc 1 161 23 view .LVU244
 737 0006 FFF7FEFF 		bl	lv_obj_event_base
 738              	.LVL77:
 162:Drivers/lvgl/src/widgets/imagebutton/lv_imagebutton.c **** 
 739              		.loc 1 162 5 is_stmt 1 view .LVU245
 162:Drivers/lvgl/src/widgets/imagebutton/lv_imagebutton.c **** 
 740              		.loc 1 162 7 is_stmt 0 view .LVU246
 741 000a 0128     		cmp	r0, #1
 742 000c 00D0     		beq	.L56
 743              	.LVL78:
 744              	.L48:
 186:Drivers/lvgl/src/widgets/imagebutton/lv_imagebutton.c **** 
 745              		.loc 1 186 1 view .LVU247
 746 000e 70BD     		pop	{r4, r5, r6, pc}
 747              	.LVL79:
 748              	.L56:
 164:Drivers/lvgl/src/widgets/imagebutton/lv_imagebutton.c ****     lv_obj_t * obj = lv_event_get_current_target(e);
 749              		.loc 1 164 5 is_stmt 1 view .LVU248
 164:Drivers/lvgl/src/widgets/imagebutton/lv_imagebutton.c ****     lv_obj_t * obj = lv_event_get_current_target(e);
 750              		.loc 1 164 28 is_stmt 0 view .LVU249
 751 0010 2046     		mov	r0, r4
 752              	.LVL80:
 164:Drivers/lvgl/src/widgets/imagebutton/lv_imagebutton.c ****     lv_obj_t * obj = lv_event_get_current_target(e);
 753              		.loc 1 164 28 view .LVU250
 754 0012 FFF7FEFF 		bl	lv_event_get_code
 755              	.LVL81:
 756 0016 0546     		mov	r5, r0
ARM GAS  /tmp/cco6PmJt.s 			page 27


 757              	.LVL82:
 165:Drivers/lvgl/src/widgets/imagebutton/lv_imagebutton.c ****     if(code == LV_EVENT_PRESSED || code == LV_EVENT_RELEASED || code == LV_EVENT_PRESS_LOST) {
 758              		.loc 1 165 5 is_stmt 1 view .LVU251
 165:Drivers/lvgl/src/widgets/imagebutton/lv_imagebutton.c ****     if(code == LV_EVENT_PRESSED || code == LV_EVENT_RELEASED || code == LV_EVENT_PRESS_LOST) {
 759              		.loc 1 165 22 is_stmt 0 view .LVU252
 760 0018 2046     		mov	r0, r4
 761              	.LVL83:
 165:Drivers/lvgl/src/widgets/imagebutton/lv_imagebutton.c ****     if(code == LV_EVENT_PRESSED || code == LV_EVENT_RELEASED || code == LV_EVENT_PRESS_LOST) {
 762              		.loc 1 165 22 view .LVU253
 763 001a FFF7FEFF 		bl	lv_event_get_current_target
 764              	.LVL84:
 765 001e 0646     		mov	r6, r0
 766              	.LVL85:
 166:Drivers/lvgl/src/widgets/imagebutton/lv_imagebutton.c ****         refr_image(obj);
 767              		.loc 1 166 5 is_stmt 1 view .LVU254
 768 0020 1A2D     		cmp	r5, #26
 769 0022 3AD0     		beq	.L50
 770 0024 28D9     		bls	.L57
 771 0026 1D2D     		cmp	r5, #29
 772 0028 33D0     		beq	.L53
 773 002a 342D     		cmp	r5, #52
 774 002c EFD1     		bne	.L48
 775              	.LBB27:
 177:Drivers/lvgl/src/widgets/imagebutton/lv_imagebutton.c ****         lv_imagebutton_t * imagebutton = (lv_imagebutton_t *)obj;
 776              		.loc 1 177 9 view .LVU255
 177:Drivers/lvgl/src/widgets/imagebutton/lv_imagebutton.c ****         lv_imagebutton_t * imagebutton = (lv_imagebutton_t *)obj;
 777              		.loc 1 177 26 is_stmt 0 view .LVU256
 778 002e 2046     		mov	r0, r4
 779              	.LVL86:
 177:Drivers/lvgl/src/widgets/imagebutton/lv_imagebutton.c ****         lv_imagebutton_t * imagebutton = (lv_imagebutton_t *)obj;
 780              		.loc 1 177 26 view .LVU257
 781 0030 FFF7FEFF 		bl	lv_event_get_self_size_info
 782              	.LVL87:
 783 0034 0446     		mov	r4, r0
 784              	.LVL88:
 178:Drivers/lvgl/src/widgets/imagebutton/lv_imagebutton.c ****         lv_imagebutton_state_t state  = suggest_state(obj, get_state(obj));
 785              		.loc 1 178 9 is_stmt 1 view .LVU258
 179:Drivers/lvgl/src/widgets/imagebutton/lv_imagebutton.c ****         if(imagebutton->src_left[state].img_src == NULL &&
 786              		.loc 1 179 9 view .LVU259
 179:Drivers/lvgl/src/widgets/imagebutton/lv_imagebutton.c ****         if(imagebutton->src_left[state].img_src == NULL &&
 787              		.loc 1 179 41 is_stmt 0 view .LVU260
 788 0036 3046     		mov	r0, r6
 789              	.LVL89:
 179:Drivers/lvgl/src/widgets/imagebutton/lv_imagebutton.c ****         if(imagebutton->src_left[state].img_src == NULL &&
 790              		.loc 1 179 41 view .LVU261
 791 0038 FFF7FEFF 		bl	get_state
 792              	.LVL90:
 793 003c 0146     		mov	r1, r0
 179:Drivers/lvgl/src/widgets/imagebutton/lv_imagebutton.c ****         if(imagebutton->src_left[state].img_src == NULL &&
 794              		.loc 1 179 41 discriminator 1 view .LVU262
 795 003e 3046     		mov	r0, r6
 796 0040 FFF7FEFF 		bl	suggest_state
 797              	.LVL91:
 180:Drivers/lvgl/src/widgets/imagebutton/lv_imagebutton.c ****            imagebutton->src_mid[state].img_src != NULL &&
 798              		.loc 1 180 9 is_stmt 1 view .LVU263
 180:Drivers/lvgl/src/widgets/imagebutton/lv_imagebutton.c ****            imagebutton->src_mid[state].img_src != NULL &&
 799              		.loc 1 180 40 is_stmt 0 view .LVU264
ARM GAS  /tmp/cco6PmJt.s 			page 28


 800 0044 06EB0013 		add	r3, r6, r0, lsl #4
 801 0048 D3F88C30 		ldr	r3, [r3, #140]
 180:Drivers/lvgl/src/widgets/imagebutton/lv_imagebutton.c ****            imagebutton->src_mid[state].img_src != NULL &&
 802              		.loc 1 180 11 view .LVU265
 803 004c 002B     		cmp	r3, #0
 804 004e DED1     		bne	.L48
 181:Drivers/lvgl/src/widgets/imagebutton/lv_imagebutton.c ****            imagebutton->src_right[state].img_src == NULL) {
 805              		.loc 1 181 39 view .LVU266
 806 0050 06EB0013 		add	r3, r6, r0, lsl #4
 807 0054 DB6A     		ldr	r3, [r3, #44]
 180:Drivers/lvgl/src/widgets/imagebutton/lv_imagebutton.c ****            imagebutton->src_mid[state].img_src != NULL &&
 808              		.loc 1 180 57 discriminator 1 view .LVU267
 809 0056 002B     		cmp	r3, #0
 810 0058 D9D0     		beq	.L48
 182:Drivers/lvgl/src/widgets/imagebutton/lv_imagebutton.c ****             p->x = LV_MAX(p->x, imagebutton->src_mid[state].header.w);
 811              		.loc 1 182 41 view .LVU268
 812 005a 06EB0013 		add	r3, r6, r0, lsl #4
 813 005e D3F8EC30 		ldr	r3, [r3, #236]
 181:Drivers/lvgl/src/widgets/imagebutton/lv_imagebutton.c ****            imagebutton->src_right[state].img_src == NULL) {
 814              		.loc 1 181 56 view .LVU269
 815 0062 002B     		cmp	r3, #0
 816 0064 D3D1     		bne	.L48
 183:Drivers/lvgl/src/widgets/imagebutton/lv_imagebutton.c ****         }
 817              		.loc 1 183 13 is_stmt 1 view .LVU270
 183:Drivers/lvgl/src/widgets/imagebutton/lv_imagebutton.c ****         }
 818              		.loc 1 183 20 is_stmt 0 view .LVU271
 819 0066 06EB0016 		add	r6, r6, r0, lsl #4
 820              	.LVL92:
 183:Drivers/lvgl/src/widgets/imagebutton/lv_imagebutton.c ****         }
 821              		.loc 1 183 20 view .LVU272
 822 006a B38E     		ldrh	r3, [r6, #52]
 823 006c 2268     		ldr	r2, [r4]
 824 006e 9342     		cmp	r3, r2
 825 0070 B8BF     		it	lt
 826 0072 1346     		movlt	r3, r2
 183:Drivers/lvgl/src/widgets/imagebutton/lv_imagebutton.c ****         }
 827              		.loc 1 183 18 view .LVU273
 828 0074 2360     		str	r3, [r4]
 829 0076 CAE7     		b	.L48
 830              	.LVL93:
 831              	.L57:
 183:Drivers/lvgl/src/widgets/imagebutton/lv_imagebutton.c ****         }
 832              		.loc 1 183 18 view .LVU274
 833 0078 0B2D     		cmp	r5, #11
 834 007a C8D8     		bhi	.L48
 835 007c 002D     		cmp	r5, #0
 836 007e C6D0     		beq	.L48
 837 0080 40F60A03 		movw	r3, #2058
 838 0084 EB40     		lsrs	r3, r3, r5
 839 0086 13F0010F 		tst	r3, #1
 840 008a C0D0     		beq	.L48
 841              	.LBE27:
 167:Drivers/lvgl/src/widgets/imagebutton/lv_imagebutton.c ****     }
 842              		.loc 1 167 9 is_stmt 1 view .LVU275
 843 008c FFF7FEFF 		bl	refr_image
 844              	.LVL94:
 167:Drivers/lvgl/src/widgets/imagebutton/lv_imagebutton.c ****     }
ARM GAS  /tmp/cco6PmJt.s 			page 29


 845              		.loc 1 167 9 is_stmt 0 view .LVU276
 846 0090 BDE7     		b	.L48
 847              	.LVL95:
 848              	.L53:
 170:Drivers/lvgl/src/widgets/imagebutton/lv_imagebutton.c ****     }
 849              		.loc 1 170 9 is_stmt 1 view .LVU277
 850 0092 2046     		mov	r0, r4
 851              	.LVL96:
 170:Drivers/lvgl/src/widgets/imagebutton/lv_imagebutton.c ****     }
 852              		.loc 1 170 9 is_stmt 0 view .LVU278
 853 0094 FFF7FEFF 		bl	draw_main
 854              	.LVL97:
 855 0098 B9E7     		b	.L48
 856              	.LVL98:
 857              	.L50:
 858              	.LBB28:
 173:Drivers/lvgl/src/widgets/imagebutton/lv_imagebutton.c ****         if(info->res != LV_COVER_RES_MASKED) info->res = LV_COVER_RES_NOT_COVER;
 859              		.loc 1 173 9 is_stmt 1 view .LVU279
 173:Drivers/lvgl/src/widgets/imagebutton/lv_imagebutton.c ****         if(info->res != LV_COVER_RES_MASKED) info->res = LV_COVER_RES_NOT_COVER;
 860              		.loc 1 173 40 is_stmt 0 view .LVU280
 861 009a 2046     		mov	r0, r4
 862              	.LVL99:
 173:Drivers/lvgl/src/widgets/imagebutton/lv_imagebutton.c ****         if(info->res != LV_COVER_RES_MASKED) info->res = LV_COVER_RES_NOT_COVER;
 863              		.loc 1 173 40 view .LVU281
 864 009c FFF7FEFF 		bl	lv_event_get_param
 865              	.LVL100:
 174:Drivers/lvgl/src/widgets/imagebutton/lv_imagebutton.c ****     }
 866              		.loc 1 174 9 is_stmt 1 view .LVU282
 174:Drivers/lvgl/src/widgets/imagebutton/lv_imagebutton.c ****     }
 867              		.loc 1 174 16 is_stmt 0 view .LVU283
 868 00a0 0378     		ldrb	r3, [r0]	@ zero_extendqisi2
 174:Drivers/lvgl/src/widgets/imagebutton/lv_imagebutton.c ****     }
 869              		.loc 1 174 11 view .LVU284
 870 00a2 022B     		cmp	r3, #2
 871 00a4 B3D0     		beq	.L48
 174:Drivers/lvgl/src/widgets/imagebutton/lv_imagebutton.c ****     }
 872              		.loc 1 174 46 is_stmt 1 discriminator 1 view .LVU285
 174:Drivers/lvgl/src/widgets/imagebutton/lv_imagebutton.c ****     }
 873              		.loc 1 174 56 is_stmt 0 discriminator 1 view .LVU286
 874 00a6 0123     		movs	r3, #1
 875 00a8 0370     		strb	r3, [r0]
 876 00aa B0E7     		b	.L48
 877              	.L59:
 878              		.align	2
 879              	.L58:
 880 00ac 00000000 		.word	lv_imagebutton_class
 881              	.LBE28:
 882              		.cfi_endproc
 883              	.LFE193:
 885              		.section	.text.lv_imagebutton_constructor,"ax",%progbits
 886              		.align	1
 887              		.syntax unified
 888              		.thumb
 889              		.thumb_func
 891              	lv_imagebutton_constructor:
 892              	.LVL101:
 893              	.LFB192:
ARM GAS  /tmp/cco6PmJt.s 			page 30


 147:Drivers/lvgl/src/widgets/imagebutton/lv_imagebutton.c ****     LV_UNUSED(class_p);
 894              		.loc 1 147 1 is_stmt 1 view -0
 895              		.cfi_startproc
 896              		@ args = 0, pretend = 0, frame = 0
 897              		@ frame_needed = 0, uses_anonymous_args = 0
 147:Drivers/lvgl/src/widgets/imagebutton/lv_imagebutton.c ****     LV_UNUSED(class_p);
 898              		.loc 1 147 1 is_stmt 0 view .LVU288
 899 0000 10B5     		push	{r4, lr}
 900              	.LCFI9:
 901              		.cfi_def_cfa_offset 8
 902              		.cfi_offset 4, -8
 903              		.cfi_offset 14, -4
 904 0002 0C46     		mov	r4, r1
 148:Drivers/lvgl/src/widgets/imagebutton/lv_imagebutton.c ****     lv_imagebutton_t * imagebutton = (lv_imagebutton_t *)obj;
 905              		.loc 1 148 5 is_stmt 1 view .LVU289
 149:Drivers/lvgl/src/widgets/imagebutton/lv_imagebutton.c ****     /*Initialize the allocated 'ext'*/
 906              		.loc 1 149 5 view .LVU290
 907              	.LVL102:
 152:Drivers/lvgl/src/widgets/imagebutton/lv_imagebutton.c ****     lv_memzero(&imagebutton->src_left, sizeof(imagebutton->src_left));
 908              		.loc 1 152 5 view .LVU291
 909              	.LBB29:
 910              	.LBI29:
 911              		.file 4 "Drivers/lvgl/src/widgets/imagebutton/../../core/../misc/../font/../draw/../misc/../stdlib
   1:Drivers/lvgl/src/widgets/imagebutton/../../core/../misc/../font/../draw/../misc/../stdlib/lv_string.h **** /**
   2:Drivers/lvgl/src/widgets/imagebutton/../../core/../misc/../font/../draw/../misc/../stdlib/lv_string.h ****  * @file lv_string.h
   3:Drivers/lvgl/src/widgets/imagebutton/../../core/../misc/../font/../draw/../misc/../stdlib/lv_string.h ****  *
   4:Drivers/lvgl/src/widgets/imagebutton/../../core/../misc/../font/../draw/../misc/../stdlib/lv_string.h ****  */
   5:Drivers/lvgl/src/widgets/imagebutton/../../core/../misc/../font/../draw/../misc/../stdlib/lv_string.h **** 
   6:Drivers/lvgl/src/widgets/imagebutton/../../core/../misc/../font/../draw/../misc/../stdlib/lv_string.h **** #ifndef LV_STRING_H
   7:Drivers/lvgl/src/widgets/imagebutton/../../core/../misc/../font/../draw/../misc/../stdlib/lv_string.h **** #define LV_STRING_H
   8:Drivers/lvgl/src/widgets/imagebutton/../../core/../misc/../font/../draw/../misc/../stdlib/lv_string.h **** 
   9:Drivers/lvgl/src/widgets/imagebutton/../../core/../misc/../font/../draw/../misc/../stdlib/lv_string.h **** #ifdef __cplusplus
  10:Drivers/lvgl/src/widgets/imagebutton/../../core/../misc/../font/../draw/../misc/../stdlib/lv_string.h **** extern "C" {
  11:Drivers/lvgl/src/widgets/imagebutton/../../core/../misc/../font/../draw/../misc/../stdlib/lv_string.h **** #endif
  12:Drivers/lvgl/src/widgets/imagebutton/../../core/../misc/../font/../draw/../misc/../stdlib/lv_string.h **** 
  13:Drivers/lvgl/src/widgets/imagebutton/../../core/../misc/../font/../draw/../misc/../stdlib/lv_string.h **** /*********************
  14:Drivers/lvgl/src/widgets/imagebutton/../../core/../misc/../font/../draw/../misc/../stdlib/lv_string.h ****  *      INCLUDES
  15:Drivers/lvgl/src/widgets/imagebutton/../../core/../misc/../font/../draw/../misc/../stdlib/lv_string.h ****  *********************/
  16:Drivers/lvgl/src/widgets/imagebutton/../../core/../misc/../font/../draw/../misc/../stdlib/lv_string.h **** #include "../lv_conf_internal.h"
  17:Drivers/lvgl/src/widgets/imagebutton/../../core/../misc/../font/../draw/../misc/../stdlib/lv_string.h **** #include "../misc/lv_types.h"
  18:Drivers/lvgl/src/widgets/imagebutton/../../core/../misc/../font/../draw/../misc/../stdlib/lv_string.h **** 
  19:Drivers/lvgl/src/widgets/imagebutton/../../core/../misc/../font/../draw/../misc/../stdlib/lv_string.h **** /*********************
  20:Drivers/lvgl/src/widgets/imagebutton/../../core/../misc/../font/../draw/../misc/../stdlib/lv_string.h ****  *      DEFINES
  21:Drivers/lvgl/src/widgets/imagebutton/../../core/../misc/../font/../draw/../misc/../stdlib/lv_string.h ****  *********************/
  22:Drivers/lvgl/src/widgets/imagebutton/../../core/../misc/../font/../draw/../misc/../stdlib/lv_string.h **** 
  23:Drivers/lvgl/src/widgets/imagebutton/../../core/../misc/../font/../draw/../misc/../stdlib/lv_string.h **** /**********************
  24:Drivers/lvgl/src/widgets/imagebutton/../../core/../misc/../font/../draw/../misc/../stdlib/lv_string.h ****  *      TYPEDEFS
  25:Drivers/lvgl/src/widgets/imagebutton/../../core/../misc/../font/../draw/../misc/../stdlib/lv_string.h ****  **********************/
  26:Drivers/lvgl/src/widgets/imagebutton/../../core/../misc/../font/../draw/../misc/../stdlib/lv_string.h **** 
  27:Drivers/lvgl/src/widgets/imagebutton/../../core/../misc/../font/../draw/../misc/../stdlib/lv_string.h **** /**********************
  28:Drivers/lvgl/src/widgets/imagebutton/../../core/../misc/../font/../draw/../misc/../stdlib/lv_string.h ****  * GLOBAL PROTOTYPES
  29:Drivers/lvgl/src/widgets/imagebutton/../../core/../misc/../font/../draw/../misc/../stdlib/lv_string.h ****  **********************/
  30:Drivers/lvgl/src/widgets/imagebutton/../../core/../misc/../font/../draw/../misc/../stdlib/lv_string.h **** 
  31:Drivers/lvgl/src/widgets/imagebutton/../../core/../misc/../font/../draw/../misc/../stdlib/lv_string.h **** /**
  32:Drivers/lvgl/src/widgets/imagebutton/../../core/../misc/../font/../draw/../misc/../stdlib/lv_string.h ****  * @brief Copies a block of memory from a source address to a destination address.
  33:Drivers/lvgl/src/widgets/imagebutton/../../core/../misc/../font/../draw/../misc/../stdlib/lv_string.h ****  * @param dst Pointer to the destination array where the content is to be copied.
  34:Drivers/lvgl/src/widgets/imagebutton/../../core/../misc/../font/../draw/../misc/../stdlib/lv_string.h ****  * @param src Pointer to the source of data to be copied.
ARM GAS  /tmp/cco6PmJt.s 			page 31


  35:Drivers/lvgl/src/widgets/imagebutton/../../core/../misc/../font/../draw/../misc/../stdlib/lv_string.h ****  * @param len Number of bytes to copy.
  36:Drivers/lvgl/src/widgets/imagebutton/../../core/../misc/../font/../draw/../misc/../stdlib/lv_string.h ****  * @return Pointer to the destination array.
  37:Drivers/lvgl/src/widgets/imagebutton/../../core/../misc/../font/../draw/../misc/../stdlib/lv_string.h ****  * @note The function does not check for any overlapping of the source and destination memory block
  38:Drivers/lvgl/src/widgets/imagebutton/../../core/../misc/../font/../draw/../misc/../stdlib/lv_string.h ****  */
  39:Drivers/lvgl/src/widgets/imagebutton/../../core/../misc/../font/../draw/../misc/../stdlib/lv_string.h **** void * lv_memcpy(void * dst, const void * src, size_t len);
  40:Drivers/lvgl/src/widgets/imagebutton/../../core/../misc/../font/../draw/../misc/../stdlib/lv_string.h **** 
  41:Drivers/lvgl/src/widgets/imagebutton/../../core/../misc/../font/../draw/../misc/../stdlib/lv_string.h **** /**
  42:Drivers/lvgl/src/widgets/imagebutton/../../core/../misc/../font/../draw/../misc/../stdlib/lv_string.h ****  * @brief Fills a block of memory with a specified value.
  43:Drivers/lvgl/src/widgets/imagebutton/../../core/../misc/../font/../draw/../misc/../stdlib/lv_string.h ****  * @param dst Pointer to the destination array to fill with the specified value.
  44:Drivers/lvgl/src/widgets/imagebutton/../../core/../misc/../font/../draw/../misc/../stdlib/lv_string.h ****  * @param v Value to be set. The value is passed as an int, but the function fills
  45:Drivers/lvgl/src/widgets/imagebutton/../../core/../misc/../font/../draw/../misc/../stdlib/lv_string.h ****  *          the block of memory using the unsigned char conversion of this value.
  46:Drivers/lvgl/src/widgets/imagebutton/../../core/../misc/../font/../draw/../misc/../stdlib/lv_string.h ****  * @param len Number of bytes to be set to the value.
  47:Drivers/lvgl/src/widgets/imagebutton/../../core/../misc/../font/../draw/../misc/../stdlib/lv_string.h ****  */
  48:Drivers/lvgl/src/widgets/imagebutton/../../core/../misc/../font/../draw/../misc/../stdlib/lv_string.h **** void lv_memset(void * dst, uint8_t v, size_t len);
  49:Drivers/lvgl/src/widgets/imagebutton/../../core/../misc/../font/../draw/../misc/../stdlib/lv_string.h **** 
  50:Drivers/lvgl/src/widgets/imagebutton/../../core/../misc/../font/../draw/../misc/../stdlib/lv_string.h **** /**
  51:Drivers/lvgl/src/widgets/imagebutton/../../core/../misc/../font/../draw/../misc/../stdlib/lv_string.h ****  * @brief Move a block of memory from source to destination
  52:Drivers/lvgl/src/widgets/imagebutton/../../core/../misc/../font/../draw/../misc/../stdlib/lv_string.h ****  * @param dst Pointer to the destination array where the content is to be copied.
  53:Drivers/lvgl/src/widgets/imagebutton/../../core/../misc/../font/../draw/../misc/../stdlib/lv_string.h ****  * @param src Pointer to the source of data to be copied.
  54:Drivers/lvgl/src/widgets/imagebutton/../../core/../misc/../font/../draw/../misc/../stdlib/lv_string.h ****  * @param len Number of bytes to copy
  55:Drivers/lvgl/src/widgets/imagebutton/../../core/../misc/../font/../draw/../misc/../stdlib/lv_string.h ****  * @return Pointer to the destination array.
  56:Drivers/lvgl/src/widgets/imagebutton/../../core/../misc/../font/../draw/../misc/../stdlib/lv_string.h ****  */
  57:Drivers/lvgl/src/widgets/imagebutton/../../core/../misc/../font/../draw/../misc/../stdlib/lv_string.h **** void * lv_memmove(void * dst, const void * src, size_t len);
  58:Drivers/lvgl/src/widgets/imagebutton/../../core/../misc/../font/../draw/../misc/../stdlib/lv_string.h **** 
  59:Drivers/lvgl/src/widgets/imagebutton/../../core/../misc/../font/../draw/../misc/../stdlib/lv_string.h **** /**
  60:Drivers/lvgl/src/widgets/imagebutton/../../core/../misc/../font/../draw/../misc/../stdlib/lv_string.h ****  * @brief This function will compare two memory blocks
  61:Drivers/lvgl/src/widgets/imagebutton/../../core/../misc/../font/../draw/../misc/../stdlib/lv_string.h ****  * @param p1 Pointer to the first memory block
  62:Drivers/lvgl/src/widgets/imagebutton/../../core/../misc/../font/../draw/../misc/../stdlib/lv_string.h ****  * @param p2 Pointer to the second memory block
  63:Drivers/lvgl/src/widgets/imagebutton/../../core/../misc/../font/../draw/../misc/../stdlib/lv_string.h ****  * @param len Number of bytes to compare
  64:Drivers/lvgl/src/widgets/imagebutton/../../core/../misc/../font/../draw/../misc/../stdlib/lv_string.h ****  * @return The difference between the value of the first unmatching byte.
  65:Drivers/lvgl/src/widgets/imagebutton/../../core/../misc/../font/../draw/../misc/../stdlib/lv_string.h ****  */
  66:Drivers/lvgl/src/widgets/imagebutton/../../core/../misc/../font/../draw/../misc/../stdlib/lv_string.h **** int lv_memcmp(const void * p1, const void * p2, size_t len);
  67:Drivers/lvgl/src/widgets/imagebutton/../../core/../misc/../font/../draw/../misc/../stdlib/lv_string.h **** 
  68:Drivers/lvgl/src/widgets/imagebutton/../../core/../misc/../font/../draw/../misc/../stdlib/lv_string.h **** /**
  69:Drivers/lvgl/src/widgets/imagebutton/../../core/../misc/../font/../draw/../misc/../stdlib/lv_string.h ****  * Same as `memset(dst, 0x00, len)`.
  70:Drivers/lvgl/src/widgets/imagebutton/../../core/../misc/../font/../draw/../misc/../stdlib/lv_string.h ****  * @param dst pointer to the destination buffer
  71:Drivers/lvgl/src/widgets/imagebutton/../../core/../misc/../font/../draw/../misc/../stdlib/lv_string.h ****  * @param len number of byte to set
  72:Drivers/lvgl/src/widgets/imagebutton/../../core/../misc/../font/../draw/../misc/../stdlib/lv_string.h ****  */
  73:Drivers/lvgl/src/widgets/imagebutton/../../core/../misc/../font/../draw/../misc/../stdlib/lv_string.h **** static inline void lv_memzero(void * dst, size_t len)
 912              		.loc 4 73 20 view .LVU292
 913              	.LBB30:
  74:Drivers/lvgl/src/widgets/imagebutton/../../core/../misc/../font/../draw/../misc/../stdlib/lv_string.h **** {
  75:Drivers/lvgl/src/widgets/imagebutton/../../core/../misc/../font/../draw/../misc/../stdlib/lv_string.h ****     lv_memset(dst, 0x00, len);
 914              		.loc 4 75 5 view .LVU293
 915 0004 6022     		movs	r2, #96
 916 0006 0021     		movs	r1, #0
 917              	.LVL103:
 918              		.loc 4 75 5 is_stmt 0 view .LVU294
 919 0008 04F12C00 		add	r0, r4, #44
 920              	.LVL104:
 921              		.loc 4 75 5 view .LVU295
 922 000c FFF7FEFF 		bl	lv_memset
 923              	.LVL105:
 924              		.loc 4 75 5 view .LVU296
 925              	.LBE30:
 926              	.LBE29:
 153:Drivers/lvgl/src/widgets/imagebutton/lv_imagebutton.c ****     lv_memzero(&imagebutton->src_right, sizeof(imagebutton->src_right));
ARM GAS  /tmp/cco6PmJt.s 			page 32


 927              		.loc 1 153 5 is_stmt 1 view .LVU297
 928              	.LBB31:
 929              	.LBI31:
  73:Drivers/lvgl/src/widgets/imagebutton/../../core/../misc/../font/../draw/../misc/../stdlib/lv_string.h **** {
 930              		.loc 4 73 20 view .LVU298
 931              	.LBB32:
 932              		.loc 4 75 5 view .LVU299
 933 0010 6022     		movs	r2, #96
 934 0012 0021     		movs	r1, #0
 935 0014 04F18C00 		add	r0, r4, #140
 936              	.LVL106:
 937              		.loc 4 75 5 is_stmt 0 view .LVU300
 938 0018 FFF7FEFF 		bl	lv_memset
 939              	.LVL107:
 940              		.loc 4 75 5 view .LVU301
 941              	.LBE32:
 942              	.LBE31:
 154:Drivers/lvgl/src/widgets/imagebutton/lv_imagebutton.c **** }
 943              		.loc 1 154 5 is_stmt 1 view .LVU302
 944              	.LBB33:
 945              	.LBI33:
  73:Drivers/lvgl/src/widgets/imagebutton/../../core/../misc/../font/../draw/../misc/../stdlib/lv_string.h **** {
 946              		.loc 4 73 20 view .LVU303
 947              	.LBB34:
 948              		.loc 4 75 5 view .LVU304
 949 001c 6022     		movs	r2, #96
 950 001e 0021     		movs	r1, #0
 951 0020 04F1EC00 		add	r0, r4, #236
 952              	.LVL108:
 953              		.loc 4 75 5 is_stmt 0 view .LVU305
 954 0024 FFF7FEFF 		bl	lv_memset
 955              	.LVL109:
 956              		.loc 4 75 5 view .LVU306
 957              	.LBE34:
 958              	.LBE33:
 155:Drivers/lvgl/src/widgets/imagebutton/lv_imagebutton.c **** 
 959              		.loc 1 155 1 view .LVU307
 960 0028 10BD     		pop	{r4, pc}
 155:Drivers/lvgl/src/widgets/imagebutton/lv_imagebutton.c **** 
 961              		.loc 1 155 1 view .LVU308
 962              		.cfi_endproc
 963              	.LFE192:
 965              		.section	.text.update_src_info,"ax",%progbits
 966              		.align	1
 967              		.syntax unified
 968              		.thumb
 969              		.thumb_func
 971              	update_src_info:
 972              	.LVL110:
 973              	.LFB198:
 328:Drivers/lvgl/src/widgets/imagebutton/lv_imagebutton.c **** 
 329:Drivers/lvgl/src/widgets/imagebutton/lv_imagebutton.c **** static void update_src_info(lv_imagebutton_src_info_t * info, const void * src)
 330:Drivers/lvgl/src/widgets/imagebutton/lv_imagebutton.c **** {
 974              		.loc 1 330 1 is_stmt 1 view -0
 975              		.cfi_startproc
 976              		@ args = 0, pretend = 0, frame = 0
 977              		@ frame_needed = 0, uses_anonymous_args = 0
ARM GAS  /tmp/cco6PmJt.s 			page 33


 978              		.loc 1 330 1 is_stmt 0 view .LVU310
 979 0000 38B5     		push	{r3, r4, r5, lr}
 980              	.LCFI10:
 981              		.cfi_def_cfa_offset 16
 982              		.cfi_offset 3, -16
 983              		.cfi_offset 4, -12
 984              		.cfi_offset 5, -8
 985              		.cfi_offset 14, -4
 986 0002 0446     		mov	r4, r0
 331:Drivers/lvgl/src/widgets/imagebutton/lv_imagebutton.c ****     if(!src) {
 987              		.loc 1 331 5 is_stmt 1 view .LVU311
 988              		.loc 1 331 7 is_stmt 0 view .LVU312
 989 0004 41B1     		cbz	r1, .L66
 990 0006 0D46     		mov	r5, r1
 332:Drivers/lvgl/src/widgets/imagebutton/lv_imagebutton.c ****         lv_memzero(info, sizeof(lv_imagebutton_src_info_t));
 333:Drivers/lvgl/src/widgets/imagebutton/lv_imagebutton.c ****         return;
 334:Drivers/lvgl/src/widgets/imagebutton/lv_imagebutton.c ****     }
 335:Drivers/lvgl/src/widgets/imagebutton/lv_imagebutton.c **** 
 336:Drivers/lvgl/src/widgets/imagebutton/lv_imagebutton.c ****     lv_result_t res = lv_image_decoder_get_info(src, &info->header);
 991              		.loc 1 336 5 is_stmt 1 view .LVU313
 992              		.loc 1 336 23 is_stmt 0 view .LVU314
 993 0008 011D     		adds	r1, r0, #4
 994              	.LVL111:
 995              		.loc 1 336 23 view .LVU315
 996 000a 2846     		mov	r0, r5
 997              	.LVL112:
 998              		.loc 1 336 23 view .LVU316
 999 000c FFF7FEFF 		bl	lv_image_decoder_get_info
 1000              	.LVL113:
 337:Drivers/lvgl/src/widgets/imagebutton/lv_imagebutton.c ****     if(res != LV_RESULT_OK) {
 1001              		.loc 1 337 5 is_stmt 1 view .LVU317
 1002              		.loc 1 337 7 is_stmt 0 view .LVU318
 1003 0010 0128     		cmp	r0, #1
 1004 0012 00D1     		bne	.L62
 338:Drivers/lvgl/src/widgets/imagebutton/lv_imagebutton.c ****         LV_LOG_WARN("can't get info");
 339:Drivers/lvgl/src/widgets/imagebutton/lv_imagebutton.c ****         return;
 340:Drivers/lvgl/src/widgets/imagebutton/lv_imagebutton.c ****     }
 341:Drivers/lvgl/src/widgets/imagebutton/lv_imagebutton.c **** 
 342:Drivers/lvgl/src/widgets/imagebutton/lv_imagebutton.c ****     info->img_src = src;
 1005              		.loc 1 342 5 is_stmt 1 view .LVU319
 1006              		.loc 1 342 19 is_stmt 0 view .LVU320
 1007 0014 2560     		str	r5, [r4]
 1008              	.LVL114:
 1009              	.L62:
 343:Drivers/lvgl/src/widgets/imagebutton/lv_imagebutton.c **** }
 1010              		.loc 1 343 1 view .LVU321
 1011 0016 38BD     		pop	{r3, r4, r5, pc}
 1012              	.LVL115:
 1013              	.L66:
 332:Drivers/lvgl/src/widgets/imagebutton/lv_imagebutton.c ****         return;
 1014              		.loc 1 332 9 is_stmt 1 view .LVU322
 1015              	.LBB35:
 1016              	.LBI35:
  73:Drivers/lvgl/src/widgets/imagebutton/../../core/../misc/../font/../draw/../misc/../stdlib/lv_string.h **** {
 1017              		.loc 4 73 20 view .LVU323
 1018              	.LBB36:
 1019              		.loc 4 75 5 view .LVU324
ARM GAS  /tmp/cco6PmJt.s 			page 34


 1020 0018 1022     		movs	r2, #16
 1021 001a FFF7FEFF 		bl	lv_memset
 1022              	.LVL116:
 1023              		.loc 4 75 5 is_stmt 0 view .LVU325
 1024              	.LBE36:
 1025              	.LBE35:
 333:Drivers/lvgl/src/widgets/imagebutton/lv_imagebutton.c ****     }
 1026              		.loc 1 333 9 is_stmt 1 view .LVU326
 1027 001e FAE7     		b	.L62
 1028              		.cfi_endproc
 1029              	.LFE198:
 1031              		.section	.text.lv_imagebutton_create,"ax",%progbits
 1032              		.align	1
 1033              		.global	lv_imagebutton_create
 1034              		.syntax unified
 1035              		.thumb
 1036              		.thumb_func
 1038              	lv_imagebutton_create:
 1039              	.LVL117:
 1040              	.LFB186:
  64:Drivers/lvgl/src/widgets/imagebutton/lv_imagebutton.c ****     LV_LOG_INFO("begin");
 1041              		.loc 1 64 1 view -0
 1042              		.cfi_startproc
 1043              		@ args = 0, pretend = 0, frame = 0
 1044              		@ frame_needed = 0, uses_anonymous_args = 0
  64:Drivers/lvgl/src/widgets/imagebutton/lv_imagebutton.c ****     LV_LOG_INFO("begin");
 1045              		.loc 1 64 1 is_stmt 0 view .LVU328
 1046 0000 10B5     		push	{r4, lr}
 1047              	.LCFI11:
 1048              		.cfi_def_cfa_offset 8
 1049              		.cfi_offset 4, -8
 1050              		.cfi_offset 14, -4
 1051 0002 0146     		mov	r1, r0
  65:Drivers/lvgl/src/widgets/imagebutton/lv_imagebutton.c ****     lv_obj_t * obj = lv_obj_class_create_obj(MY_CLASS, parent);
 1052              		.loc 1 65 5 is_stmt 1 view .LVU329
  65:Drivers/lvgl/src/widgets/imagebutton/lv_imagebutton.c ****     lv_obj_t * obj = lv_obj_class_create_obj(MY_CLASS, parent);
 1053              		.loc 1 65 5 view .LVU330
  65:Drivers/lvgl/src/widgets/imagebutton/lv_imagebutton.c ****     lv_obj_t * obj = lv_obj_class_create_obj(MY_CLASS, parent);
 1054              		.loc 1 65 5 view .LVU331
  66:Drivers/lvgl/src/widgets/imagebutton/lv_imagebutton.c ****     lv_obj_class_init_obj(obj);
 1055              		.loc 1 66 5 view .LVU332
  66:Drivers/lvgl/src/widgets/imagebutton/lv_imagebutton.c ****     lv_obj_class_init_obj(obj);
 1056              		.loc 1 66 22 is_stmt 0 view .LVU333
 1057 0004 0348     		ldr	r0, .L69
 1058              	.LVL118:
  66:Drivers/lvgl/src/widgets/imagebutton/lv_imagebutton.c ****     lv_obj_class_init_obj(obj);
 1059              		.loc 1 66 22 view .LVU334
 1060 0006 FFF7FEFF 		bl	lv_obj_class_create_obj
 1061              	.LVL119:
  66:Drivers/lvgl/src/widgets/imagebutton/lv_imagebutton.c ****     lv_obj_class_init_obj(obj);
 1062              		.loc 1 66 22 view .LVU335
 1063 000a 0446     		mov	r4, r0
 1064              	.LVL120:
  67:Drivers/lvgl/src/widgets/imagebutton/lv_imagebutton.c ****     return obj;
 1065              		.loc 1 67 5 is_stmt 1 view .LVU336
 1066 000c FFF7FEFF 		bl	lv_obj_class_init_obj
 1067              	.LVL121:
ARM GAS  /tmp/cco6PmJt.s 			page 35


  68:Drivers/lvgl/src/widgets/imagebutton/lv_imagebutton.c **** }
 1068              		.loc 1 68 5 view .LVU337
  69:Drivers/lvgl/src/widgets/imagebutton/lv_imagebutton.c **** 
 1069              		.loc 1 69 1 is_stmt 0 view .LVU338
 1070 0010 2046     		mov	r0, r4
 1071 0012 10BD     		pop	{r4, pc}
 1072              	.LVL122:
 1073              	.L70:
  69:Drivers/lvgl/src/widgets/imagebutton/lv_imagebutton.c **** 
 1074              		.loc 1 69 1 view .LVU339
 1075              		.align	2
 1076              	.L69:
 1077 0014 00000000 		.word	lv_imagebutton_class
 1078              		.cfi_endproc
 1079              	.LFE186:
 1081              		.section	.text.lv_imagebutton_set_src,"ax",%progbits
 1082              		.align	1
 1083              		.global	lv_imagebutton_set_src
 1084              		.syntax unified
 1085              		.thumb
 1086              		.thumb_func
 1088              	lv_imagebutton_set_src:
 1089              	.LVL123:
 1090              	.LFB187:
  77:Drivers/lvgl/src/widgets/imagebutton/lv_imagebutton.c ****     LV_ASSERT_OBJ(obj, MY_CLASS);
 1091              		.loc 1 77 1 is_stmt 1 view -0
 1092              		.cfi_startproc
 1093              		@ args = 4, pretend = 0, frame = 0
 1094              		@ frame_needed = 0, uses_anonymous_args = 0
  78:Drivers/lvgl/src/widgets/imagebutton/lv_imagebutton.c **** 
 1095              		.loc 1 78 5 view .LVU341
  78:Drivers/lvgl/src/widgets/imagebutton/lv_imagebutton.c **** 
 1096              		.loc 1 78 5 view .LVU342
 1097 0000 E8B1     		cbz	r0, .L73
  77:Drivers/lvgl/src/widgets/imagebutton/lv_imagebutton.c ****     LV_ASSERT_OBJ(obj, MY_CLASS);
 1098              		.loc 1 77 1 is_stmt 0 view .LVU343
 1099 0002 70B5     		push	{r4, r5, r6, lr}
 1100              	.LCFI12:
 1101              		.cfi_def_cfa_offset 16
 1102              		.cfi_offset 4, -16
 1103              		.cfi_offset 5, -12
 1104              		.cfi_offset 6, -8
 1105              		.cfi_offset 14, -4
 1106 0004 0C46     		mov	r4, r1
 1107 0006 1146     		mov	r1, r2
 1108              	.LVL124:
  77:Drivers/lvgl/src/widgets/imagebutton/lv_imagebutton.c ****     LV_ASSERT_OBJ(obj, MY_CLASS);
 1109              		.loc 1 77 1 view .LVU344
 1110 0008 1D46     		mov	r5, r3
 1111 000a 0646     		mov	r6, r0
  78:Drivers/lvgl/src/widgets/imagebutton/lv_imagebutton.c **** 
 1112              		.loc 1 78 5 is_stmt 1 discriminator 2 view .LVU345
  78:Drivers/lvgl/src/widgets/imagebutton/lv_imagebutton.c **** 
 1113              		.loc 1 78 33 discriminator 2 view .LVU346
  80:Drivers/lvgl/src/widgets/imagebutton/lv_imagebutton.c **** 
 1114              		.loc 1 80 5 view .LVU347
 1115              	.LVL125:
ARM GAS  /tmp/cco6PmJt.s 			page 36


  82:Drivers/lvgl/src/widgets/imagebutton/lv_imagebutton.c ****         LV_LOG_WARN("middle image source is not set while left and/or right image sources are");
 1116              		.loc 1 82 5 view .LVU348
  83:Drivers/lvgl/src/widgets/imagebutton/lv_imagebutton.c ****     }
 1117              		.loc 1 83 9 view .LVU349
  83:Drivers/lvgl/src/widgets/imagebutton/lv_imagebutton.c ****     }
 1118              		.loc 1 83 9 view .LVU350
  83:Drivers/lvgl/src/widgets/imagebutton/lv_imagebutton.c ****     }
 1119              		.loc 1 83 9 view .LVU351
  86:Drivers/lvgl/src/widgets/imagebutton/lv_imagebutton.c ****     update_src_info(&imagebutton->src_mid[state], src_mid);
 1120              		.loc 1 86 5 view .LVU352
 1121 000c 2401     		lsls	r4, r4, #4
 1122              	.LVL126:
  86:Drivers/lvgl/src/widgets/imagebutton/lv_imagebutton.c ****     update_src_info(&imagebutton->src_mid[state], src_mid);
 1123              		.loc 1 86 5 is_stmt 0 view .LVU353
 1124 000e 04F18800 		add	r0, r4, #136
 1125              	.LVL127:
  86:Drivers/lvgl/src/widgets/imagebutton/lv_imagebutton.c ****     update_src_info(&imagebutton->src_mid[state], src_mid);
 1126              		.loc 1 86 5 view .LVU354
 1127 0012 3044     		add	r0, r0, r6
 1128 0014 0430     		adds	r0, r0, #4
 1129 0016 FFF7FEFF 		bl	update_src_info
 1130              	.LVL128:
  87:Drivers/lvgl/src/widgets/imagebutton/lv_imagebutton.c ****     update_src_info(&imagebutton->src_right[state], src_right);
 1131              		.loc 1 87 5 is_stmt 1 view .LVU355
 1132 001a 04F12800 		add	r0, r4, #40
 1133 001e 3044     		add	r0, r0, r6
 1134 0020 2946     		mov	r1, r5
 1135 0022 0430     		adds	r0, r0, #4
 1136 0024 FFF7FEFF 		bl	update_src_info
 1137              	.LVL129:
  88:Drivers/lvgl/src/widgets/imagebutton/lv_imagebutton.c **** 
 1138              		.loc 1 88 5 view .LVU356
 1139 0028 04F1E800 		add	r0, r4, #232
 1140 002c 3044     		add	r0, r0, r6
 1141 002e 0499     		ldr	r1, [sp, #16]
 1142 0030 0430     		adds	r0, r0, #4
 1143 0032 FFF7FEFF 		bl	update_src_info
 1144              	.LVL130:
  90:Drivers/lvgl/src/widgets/imagebutton/lv_imagebutton.c **** }
 1145              		.loc 1 90 5 view .LVU357
 1146 0036 3046     		mov	r0, r6
 1147 0038 FFF7FEFF 		bl	refr_image
 1148              	.LVL131:
  91:Drivers/lvgl/src/widgets/imagebutton/lv_imagebutton.c **** 
 1149              		.loc 1 91 1 is_stmt 0 view .LVU358
 1150 003c 70BD     		pop	{r4, r5, r6, pc}
 1151              	.LVL132:
 1152              	.L73:
 1153              	.LCFI13:
 1154              		.cfi_def_cfa_offset 0
 1155              		.cfi_restore 4
 1156              		.cfi_restore 5
 1157              		.cfi_restore 6
 1158              		.cfi_restore 14
  78:Drivers/lvgl/src/widgets/imagebutton/lv_imagebutton.c **** 
 1159              		.loc 1 78 5 is_stmt 1 discriminator 1 view .LVU359
  78:Drivers/lvgl/src/widgets/imagebutton/lv_imagebutton.c **** 
ARM GAS  /tmp/cco6PmJt.s 			page 37


 1160              		.loc 1 78 5 discriminator 1 view .LVU360
  78:Drivers/lvgl/src/widgets/imagebutton/lv_imagebutton.c **** 
 1161              		.loc 1 78 5 discriminator 1 view .LVU361
  78:Drivers/lvgl/src/widgets/imagebutton/lv_imagebutton.c **** 
 1162              		.loc 1 78 5 discriminator 1 view .LVU362
  78:Drivers/lvgl/src/widgets/imagebutton/lv_imagebutton.c **** 
 1163              		.loc 1 78 5 discriminator 1 view .LVU363
 1164 003e FEE7     		b	.L73
 1165              		.cfi_endproc
 1166              	.LFE187:
 1168              		.section	.text.lv_imagebutton_set_state,"ax",%progbits
 1169              		.align	1
 1170              		.global	lv_imagebutton_set_state
 1171              		.syntax unified
 1172              		.thumb
 1173              		.thumb_func
 1175              	lv_imagebutton_set_state:
 1176              	.LVL133:
 1177              	.LFB188:
  94:Drivers/lvgl/src/widgets/imagebutton/lv_imagebutton.c ****     LV_ASSERT_OBJ(obj, MY_CLASS);
 1178              		.loc 1 94 1 view -0
 1179              		.cfi_startproc
 1180              		@ args = 0, pretend = 0, frame = 0
 1181              		@ frame_needed = 0, uses_anonymous_args = 0
  95:Drivers/lvgl/src/widgets/imagebutton/lv_imagebutton.c **** 
 1182              		.loc 1 95 5 view .LVU365
  95:Drivers/lvgl/src/widgets/imagebutton/lv_imagebutton.c **** 
 1183              		.loc 1 95 5 view .LVU366
 1184 0000 F0B1     		cbz	r0, .L78
  94:Drivers/lvgl/src/widgets/imagebutton/lv_imagebutton.c ****     LV_ASSERT_OBJ(obj, MY_CLASS);
 1185              		.loc 1 94 1 is_stmt 0 view .LVU367
 1186 0002 38B5     		push	{r3, r4, r5, lr}
 1187              	.LCFI14:
 1188              		.cfi_def_cfa_offset 16
 1189              		.cfi_offset 3, -16
 1190              		.cfi_offset 4, -12
 1191              		.cfi_offset 5, -8
 1192              		.cfi_offset 14, -4
 1193 0004 0446     		mov	r4, r0
  95:Drivers/lvgl/src/widgets/imagebutton/lv_imagebutton.c **** 
 1194              		.loc 1 95 5 is_stmt 1 discriminator 2 view .LVU368
  95:Drivers/lvgl/src/widgets/imagebutton/lv_imagebutton.c **** 
 1195              		.loc 1 95 33 discriminator 2 view .LVU369
  97:Drivers/lvgl/src/widgets/imagebutton/lv_imagebutton.c ****     if(state == LV_IMAGEBUTTON_STATE_PRESSED ||
 1196              		.loc 1 97 5 view .LVU370
 1197              	.LVL134:
  98:Drivers/lvgl/src/widgets/imagebutton/lv_imagebutton.c ****        state == LV_IMAGEBUTTON_STATE_CHECKED_PRESSED) obj_state |= LV_STATE_PRESSED;
 1198              		.loc 1 98 5 view .LVU371
  98:Drivers/lvgl/src/widgets/imagebutton/lv_imagebutton.c ****        state == LV_IMAGEBUTTON_STATE_CHECKED_PRESSED) obj_state |= LV_STATE_PRESSED;
 1199              		.loc 1 98 7 is_stmt 0 view .LVU372
 1200 0006 0429     		cmp	r1, #4
 1201 0008 18BF     		it	ne
 1202 000a 0129     		cmpne	r1, #1
 1203 000c 19D0     		beq	.L82
  97:Drivers/lvgl/src/widgets/imagebutton/lv_imagebutton.c ****     if(state == LV_IMAGEBUTTON_STATE_PRESSED ||
 1204              		.loc 1 97 16 view .LVU373
 1205 000e 0025     		movs	r5, #0
ARM GAS  /tmp/cco6PmJt.s 			page 38


 1206              	.L79:
 1207              	.LVL135:
 100:Drivers/lvgl/src/widgets/imagebutton/lv_imagebutton.c ****        state == LV_IMAGEBUTTON_STATE_CHECKED_DISABLED) obj_state |= LV_STATE_DISABLED;
 1208              		.loc 1 100 5 is_stmt 1 view .LVU374
 100:Drivers/lvgl/src/widgets/imagebutton/lv_imagebutton.c ****        state == LV_IMAGEBUTTON_STATE_CHECKED_DISABLED) obj_state |= LV_STATE_DISABLED;
 1209              		.loc 1 100 7 is_stmt 0 view .LVU375
 1210 0010 0529     		cmp	r1, #5
 1211 0012 18BF     		it	ne
 1212 0014 0229     		cmpne	r1, #2
 1213 0016 01D1     		bne	.L80
 101:Drivers/lvgl/src/widgets/imagebutton/lv_imagebutton.c ****     if(state == LV_IMAGEBUTTON_STATE_CHECKED_DISABLED || state == LV_IMAGEBUTTON_STATE_CHECKED_PRES
 1214              		.loc 1 101 56 is_stmt 1 view .LVU376
 101:Drivers/lvgl/src/widgets/imagebutton/lv_imagebutton.c ****     if(state == LV_IMAGEBUTTON_STATE_CHECKED_DISABLED || state == LV_IMAGEBUTTON_STATE_CHECKED_PRES
 1215              		.loc 1 101 66 is_stmt 0 view .LVU377
 1216 0018 45F08005 		orr	r5, r5, #128
 1217              	.LVL136:
 1218              	.L80:
 102:Drivers/lvgl/src/widgets/imagebutton/lv_imagebutton.c ****        state == LV_IMAGEBUTTON_STATE_CHECKED_RELEASED) {
 1219              		.loc 1 102 5 is_stmt 1 view .LVU378
 102:Drivers/lvgl/src/widgets/imagebutton/lv_imagebutton.c ****        state == LV_IMAGEBUTTON_STATE_CHECKED_RELEASED) {
 1220              		.loc 1 102 104 is_stmt 0 view .LVU379
 1221 001c 0339     		subs	r1, r1, #3
 1222              	.LVL137:
 102:Drivers/lvgl/src/widgets/imagebutton/lv_imagebutton.c ****        state == LV_IMAGEBUTTON_STATE_CHECKED_RELEASED) {
 1223              		.loc 1 102 104 view .LVU380
 1224 001e C9B2     		uxtb	r1, r1
 102:Drivers/lvgl/src/widgets/imagebutton/lv_imagebutton.c ****        state == LV_IMAGEBUTTON_STATE_CHECKED_RELEASED) {
 1225              		.loc 1 102 7 view .LVU381
 1226 0020 0229     		cmp	r1, #2
 1227 0022 01D8     		bhi	.L81
 104:Drivers/lvgl/src/widgets/imagebutton/lv_imagebutton.c ****     }
 1228              		.loc 1 104 9 is_stmt 1 view .LVU382
 104:Drivers/lvgl/src/widgets/imagebutton/lv_imagebutton.c ****     }
 1229              		.loc 1 104 19 is_stmt 0 view .LVU383
 1230 0024 45F00105 		orr	r5, r5, #1
 1231              	.LVL138:
 1232              	.L81:
 107:Drivers/lvgl/src/widgets/imagebutton/lv_imagebutton.c ****     lv_obj_add_state(obj, obj_state);
 1233              		.loc 1 107 5 is_stmt 1 view .LVU384
 1234 0028 A121     		movs	r1, #161
 1235 002a 2046     		mov	r0, r4
 1236              	.LVL139:
 107:Drivers/lvgl/src/widgets/imagebutton/lv_imagebutton.c ****     lv_obj_add_state(obj, obj_state);
 1237              		.loc 1 107 5 is_stmt 0 view .LVU385
 1238 002c FFF7FEFF 		bl	lv_obj_remove_state
 1239              	.LVL140:
 108:Drivers/lvgl/src/widgets/imagebutton/lv_imagebutton.c **** 
 1240              		.loc 1 108 5 is_stmt 1 view .LVU386
 1241 0030 2946     		mov	r1, r5
 1242 0032 2046     		mov	r0, r4
 1243 0034 FFF7FEFF 		bl	lv_obj_add_state
 1244              	.LVL141:
 110:Drivers/lvgl/src/widgets/imagebutton/lv_imagebutton.c **** }
 1245              		.loc 1 110 5 view .LVU387
 1246 0038 2046     		mov	r0, r4
 1247 003a FFF7FEFF 		bl	refr_image
 1248              	.LVL142:
ARM GAS  /tmp/cco6PmJt.s 			page 39


 111:Drivers/lvgl/src/widgets/imagebutton/lv_imagebutton.c **** 
 1249              		.loc 1 111 1 is_stmt 0 view .LVU388
 1250 003e 38BD     		pop	{r3, r4, r5, pc}
 1251              	.LVL143:
 1252              	.L78:
 1253              	.LCFI15:
 1254              		.cfi_def_cfa_offset 0
 1255              		.cfi_restore 3
 1256              		.cfi_restore 4
 1257              		.cfi_restore 5
 1258              		.cfi_restore 14
  95:Drivers/lvgl/src/widgets/imagebutton/lv_imagebutton.c **** 
 1259              		.loc 1 95 5 is_stmt 1 discriminator 1 view .LVU389
  95:Drivers/lvgl/src/widgets/imagebutton/lv_imagebutton.c **** 
 1260              		.loc 1 95 5 discriminator 1 view .LVU390
  95:Drivers/lvgl/src/widgets/imagebutton/lv_imagebutton.c **** 
 1261              		.loc 1 95 5 discriminator 1 view .LVU391
  95:Drivers/lvgl/src/widgets/imagebutton/lv_imagebutton.c **** 
 1262              		.loc 1 95 5 discriminator 1 view .LVU392
  95:Drivers/lvgl/src/widgets/imagebutton/lv_imagebutton.c **** 
 1263              		.loc 1 95 5 discriminator 1 view .LVU393
 1264 0040 FEE7     		b	.L78
 1265              	.LVL144:
 1266              	.L82:
 1267              	.LCFI16:
 1268              		.cfi_def_cfa_offset 16
 1269              		.cfi_offset 3, -16
 1270              		.cfi_offset 4, -12
 1271              		.cfi_offset 5, -8
 1272              		.cfi_offset 14, -4
  99:Drivers/lvgl/src/widgets/imagebutton/lv_imagebutton.c ****     if(state == LV_IMAGEBUTTON_STATE_DISABLED ||
 1273              		.loc 1 99 65 is_stmt 0 view .LVU394
 1274 0042 2025     		movs	r5, #32
 1275 0044 E4E7     		b	.L79
 1276              		.cfi_endproc
 1277              	.LFE188:
 1279              		.section	.text.lv_imagebutton_get_src_left,"ax",%progbits
 1280              		.align	1
 1281              		.global	lv_imagebutton_get_src_left
 1282              		.syntax unified
 1283              		.thumb
 1284              		.thumb_func
 1286              	lv_imagebutton_get_src_left:
 1287              	.LVL145:
 1288              	.LFB189:
 118:Drivers/lvgl/src/widgets/imagebutton/lv_imagebutton.c ****     LV_ASSERT_OBJ(obj, MY_CLASS);
 1289              		.loc 1 118 1 is_stmt 1 view -0
 1290              		.cfi_startproc
 1291              		@ args = 0, pretend = 0, frame = 0
 1292              		@ frame_needed = 0, uses_anonymous_args = 0
 1293              		@ link register save eliminated.
 119:Drivers/lvgl/src/widgets/imagebutton/lv_imagebutton.c **** 
 1294              		.loc 1 119 5 view .LVU396
 119:Drivers/lvgl/src/widgets/imagebutton/lv_imagebutton.c **** 
 1295              		.loc 1 119 5 view .LVU397
 1296 0000 20B1     		cbz	r0, .L87
 119:Drivers/lvgl/src/widgets/imagebutton/lv_imagebutton.c **** 
ARM GAS  /tmp/cco6PmJt.s 			page 40


 1297              		.loc 1 119 5 discriminator 2 view .LVU398
 119:Drivers/lvgl/src/widgets/imagebutton/lv_imagebutton.c **** 
 1298              		.loc 1 119 33 discriminator 2 view .LVU399
 121:Drivers/lvgl/src/widgets/imagebutton/lv_imagebutton.c **** 
 1299              		.loc 1 121 5 view .LVU400
 1300              	.LVL146:
 123:Drivers/lvgl/src/widgets/imagebutton/lv_imagebutton.c **** }
 1301              		.loc 1 123 5 view .LVU401
 123:Drivers/lvgl/src/widgets/imagebutton/lv_imagebutton.c **** }
 1302              		.loc 1 123 40 is_stmt 0 view .LVU402
 1303 0002 00EB0113 		add	r3, r0, r1, lsl #4
 124:Drivers/lvgl/src/widgets/imagebutton/lv_imagebutton.c **** 
 1304              		.loc 1 124 1 view .LVU403
 1305 0006 D3F88C00 		ldr	r0, [r3, #140]
 1306              	.LVL147:
 124:Drivers/lvgl/src/widgets/imagebutton/lv_imagebutton.c **** 
 1307              		.loc 1 124 1 view .LVU404
 1308 000a 7047     		bx	lr
 1309              	.LVL148:
 1310              	.L87:
 119:Drivers/lvgl/src/widgets/imagebutton/lv_imagebutton.c **** 
 1311              		.loc 1 119 5 is_stmt 1 discriminator 1 view .LVU405
 119:Drivers/lvgl/src/widgets/imagebutton/lv_imagebutton.c **** 
 1312              		.loc 1 119 5 discriminator 1 view .LVU406
 119:Drivers/lvgl/src/widgets/imagebutton/lv_imagebutton.c **** 
 1313              		.loc 1 119 5 discriminator 1 view .LVU407
 119:Drivers/lvgl/src/widgets/imagebutton/lv_imagebutton.c **** 
 1314              		.loc 1 119 5 discriminator 1 view .LVU408
 119:Drivers/lvgl/src/widgets/imagebutton/lv_imagebutton.c **** 
 1315              		.loc 1 119 5 discriminator 1 view .LVU409
 1316 000c FEE7     		b	.L87
 1317              		.cfi_endproc
 1318              	.LFE189:
 1320              		.section	.text.lv_imagebutton_get_src_middle,"ax",%progbits
 1321              		.align	1
 1322              		.global	lv_imagebutton_get_src_middle
 1323              		.syntax unified
 1324              		.thumb
 1325              		.thumb_func
 1327              	lv_imagebutton_get_src_middle:
 1328              	.LVL149:
 1329              	.LFB190:
 127:Drivers/lvgl/src/widgets/imagebutton/lv_imagebutton.c ****     LV_ASSERT_OBJ(obj, MY_CLASS);
 1330              		.loc 1 127 1 view -0
 1331              		.cfi_startproc
 1332              		@ args = 0, pretend = 0, frame = 0
 1333              		@ frame_needed = 0, uses_anonymous_args = 0
 1334              		@ link register save eliminated.
 128:Drivers/lvgl/src/widgets/imagebutton/lv_imagebutton.c ****     lv_imagebutton_t * imagebutton = (lv_imagebutton_t *)obj;
 1335              		.loc 1 128 5 view .LVU411
 128:Drivers/lvgl/src/widgets/imagebutton/lv_imagebutton.c ****     lv_imagebutton_t * imagebutton = (lv_imagebutton_t *)obj;
 1336              		.loc 1 128 5 view .LVU412
 1337 0000 18B1     		cbz	r0, .L90
 128:Drivers/lvgl/src/widgets/imagebutton/lv_imagebutton.c ****     lv_imagebutton_t * imagebutton = (lv_imagebutton_t *)obj;
 1338              		.loc 1 128 5 discriminator 2 view .LVU413
 128:Drivers/lvgl/src/widgets/imagebutton/lv_imagebutton.c ****     lv_imagebutton_t * imagebutton = (lv_imagebutton_t *)obj;
 1339              		.loc 1 128 33 discriminator 2 view .LVU414
ARM GAS  /tmp/cco6PmJt.s 			page 41


 129:Drivers/lvgl/src/widgets/imagebutton/lv_imagebutton.c **** 
 1340              		.loc 1 129 5 view .LVU415
 1341              	.LVL150:
 131:Drivers/lvgl/src/widgets/imagebutton/lv_imagebutton.c **** }
 1342              		.loc 1 131 5 view .LVU416
 131:Drivers/lvgl/src/widgets/imagebutton/lv_imagebutton.c **** }
 1343              		.loc 1 131 39 is_stmt 0 view .LVU417
 1344 0002 00EB0113 		add	r3, r0, r1, lsl #4
 132:Drivers/lvgl/src/widgets/imagebutton/lv_imagebutton.c **** 
 1345              		.loc 1 132 1 view .LVU418
 1346 0006 D86A     		ldr	r0, [r3, #44]
 1347              	.LVL151:
 132:Drivers/lvgl/src/widgets/imagebutton/lv_imagebutton.c **** 
 1348              		.loc 1 132 1 view .LVU419
 1349 0008 7047     		bx	lr
 1350              	.LVL152:
 1351              	.L90:
 128:Drivers/lvgl/src/widgets/imagebutton/lv_imagebutton.c ****     lv_imagebutton_t * imagebutton = (lv_imagebutton_t *)obj;
 1352              		.loc 1 128 5 is_stmt 1 discriminator 1 view .LVU420
 128:Drivers/lvgl/src/widgets/imagebutton/lv_imagebutton.c ****     lv_imagebutton_t * imagebutton = (lv_imagebutton_t *)obj;
 1353              		.loc 1 128 5 discriminator 1 view .LVU421
 128:Drivers/lvgl/src/widgets/imagebutton/lv_imagebutton.c ****     lv_imagebutton_t * imagebutton = (lv_imagebutton_t *)obj;
 1354              		.loc 1 128 5 discriminator 1 view .LVU422
 128:Drivers/lvgl/src/widgets/imagebutton/lv_imagebutton.c ****     lv_imagebutton_t * imagebutton = (lv_imagebutton_t *)obj;
 1355              		.loc 1 128 5 discriminator 1 view .LVU423
 128:Drivers/lvgl/src/widgets/imagebutton/lv_imagebutton.c ****     lv_imagebutton_t * imagebutton = (lv_imagebutton_t *)obj;
 1356              		.loc 1 128 5 discriminator 1 view .LVU424
 1357 000a FEE7     		b	.L90
 1358              		.cfi_endproc
 1359              	.LFE190:
 1361              		.section	.text.lv_imagebutton_get_src_right,"ax",%progbits
 1362              		.align	1
 1363              		.global	lv_imagebutton_get_src_right
 1364              		.syntax unified
 1365              		.thumb
 1366              		.thumb_func
 1368              	lv_imagebutton_get_src_right:
 1369              	.LVL153:
 1370              	.LFB191:
 135:Drivers/lvgl/src/widgets/imagebutton/lv_imagebutton.c ****     LV_ASSERT_OBJ(obj, MY_CLASS);
 1371              		.loc 1 135 1 view -0
 1372              		.cfi_startproc
 1373              		@ args = 0, pretend = 0, frame = 0
 1374              		@ frame_needed = 0, uses_anonymous_args = 0
 1375              		@ link register save eliminated.
 136:Drivers/lvgl/src/widgets/imagebutton/lv_imagebutton.c ****     lv_imagebutton_t * imagebutton = (lv_imagebutton_t *)obj;
 1376              		.loc 1 136 5 view .LVU426
 136:Drivers/lvgl/src/widgets/imagebutton/lv_imagebutton.c ****     lv_imagebutton_t * imagebutton = (lv_imagebutton_t *)obj;
 1377              		.loc 1 136 5 view .LVU427
 1378 0000 20B1     		cbz	r0, .L93
 136:Drivers/lvgl/src/widgets/imagebutton/lv_imagebutton.c ****     lv_imagebutton_t * imagebutton = (lv_imagebutton_t *)obj;
 1379              		.loc 1 136 5 discriminator 2 view .LVU428
 136:Drivers/lvgl/src/widgets/imagebutton/lv_imagebutton.c ****     lv_imagebutton_t * imagebutton = (lv_imagebutton_t *)obj;
 1380              		.loc 1 136 33 discriminator 2 view .LVU429
 137:Drivers/lvgl/src/widgets/imagebutton/lv_imagebutton.c **** 
 1381              		.loc 1 137 5 view .LVU430
 1382              	.LVL154:
ARM GAS  /tmp/cco6PmJt.s 			page 42


 139:Drivers/lvgl/src/widgets/imagebutton/lv_imagebutton.c **** }
 1383              		.loc 1 139 5 view .LVU431
 139:Drivers/lvgl/src/widgets/imagebutton/lv_imagebutton.c **** }
 1384              		.loc 1 139 41 is_stmt 0 view .LVU432
 1385 0002 00EB0113 		add	r3, r0, r1, lsl #4
 140:Drivers/lvgl/src/widgets/imagebutton/lv_imagebutton.c **** 
 1386              		.loc 1 140 1 view .LVU433
 1387 0006 D3F8EC00 		ldr	r0, [r3, #236]
 1388              	.LVL155:
 140:Drivers/lvgl/src/widgets/imagebutton/lv_imagebutton.c **** 
 1389              		.loc 1 140 1 view .LVU434
 1390 000a 7047     		bx	lr
 1391              	.LVL156:
 1392              	.L93:
 136:Drivers/lvgl/src/widgets/imagebutton/lv_imagebutton.c ****     lv_imagebutton_t * imagebutton = (lv_imagebutton_t *)obj;
 1393              		.loc 1 136 5 is_stmt 1 discriminator 1 view .LVU435
 136:Drivers/lvgl/src/widgets/imagebutton/lv_imagebutton.c ****     lv_imagebutton_t * imagebutton = (lv_imagebutton_t *)obj;
 1394              		.loc 1 136 5 discriminator 1 view .LVU436
 136:Drivers/lvgl/src/widgets/imagebutton/lv_imagebutton.c ****     lv_imagebutton_t * imagebutton = (lv_imagebutton_t *)obj;
 1395              		.loc 1 136 5 discriminator 1 view .LVU437
 136:Drivers/lvgl/src/widgets/imagebutton/lv_imagebutton.c ****     lv_imagebutton_t * imagebutton = (lv_imagebutton_t *)obj;
 1396              		.loc 1 136 5 discriminator 1 view .LVU438
 136:Drivers/lvgl/src/widgets/imagebutton/lv_imagebutton.c ****     lv_imagebutton_t * imagebutton = (lv_imagebutton_t *)obj;
 1397              		.loc 1 136 5 discriminator 1 view .LVU439
 1398 000c FEE7     		b	.L93
 1399              		.cfi_endproc
 1400              	.LFE191:
 1402              		.global	lv_imagebutton_class
 1403              		.section	.rodata.str1.4,"aMS",%progbits,1
 1404              		.align	2
 1405              	.LC0:
 1406 0000 6C765F69 		.ascii	"lv_imagebutton\000"
 1406      6D616765 
 1406      62757474 
 1406      6F6E00
 1407              		.section	.rodata.lv_imagebutton_class,"a"
 1408              		.align	2
 1411              	lv_imagebutton_class:
 1412 0000 00000000 		.word	lv_obj_class
 1413 0004 00000000 		.word	lv_imagebutton_constructor
 1414 0008 00000000 		.space	4
 1415 000c 00000000 		.word	lv_imagebutton_event
 1416 0010 00000000 		.space	4
 1417 0014 00000000 		.word	.LC0
 1418 0018 FFFFFF3F 		.word	1073741823
 1419 001c FFFFFF3F 		.word	1073741823
 1420 0020 C0       		.byte	192
 1421 0021 14       		.byte	20
 1422 0022 00       		.byte	0
 1423 0023 00       		.space	1
 1424              		.text
 1425              	.Letext0:
 1426              		.file 5 "/usr/arm-none-eabi/include/machine/_default_types.h"
 1427              		.file 6 "/usr/arm-none-eabi/include/sys/_stdint.h"
 1428              		.file 7 "/usr/lib/gcc/arm-none-eabi/14.2.0/include/stddef.h"
 1429              		.file 8 "Drivers/lvgl/src/widgets/imagebutton/../../core/../misc/lv_types.h"
 1430              		.file 9 "Drivers/lvgl/src/widgets/imagebutton/../../core/lv_obj_private.h"
ARM GAS  /tmp/cco6PmJt.s 			page 43


 1431              		.file 10 "Drivers/lvgl/src/widgets/imagebutton/../../core/lv_obj_class_private.h"
 1432              		.file 11 "Drivers/lvgl/src/widgets/imagebutton/../../core/../draw/lv_draw.h"
 1433              		.file 12 "Drivers/lvgl/src/widgets/imagebutton/../../draw/lv_draw_private.h"
 1434              		.file 13 "Drivers/lvgl/src/widgets/imagebutton/../../core/../draw/lv_draw_image.h"
 1435              		.file 14 "Drivers/lvgl/src/widgets/imagebutton/../../core/lv_obj_event_private.h"
 1436              		.file 15 "Drivers/lvgl/src/widgets/imagebutton/lv_imagebutton_private.h"
 1437              		.file 16 "Drivers/lvgl/src/widgets/imagebutton/../../core/../display/../misc/lv_array.h"
 1438              		.file 17 "Drivers/lvgl/src/widgets/imagebutton/../../core/../misc/../font/../draw/lv_draw_buf.h"
 1439              		.file 18 "Drivers/lvgl/src/widgets/imagebutton/../../core/../misc/../font/../draw/../misc/lv_color
 1440              		.file 19 "Drivers/lvgl/src/widgets/imagebutton/../../core/../misc/../font/../draw/lv_image_dsc.h"
 1441              		.file 20 "Drivers/lvgl/src/widgets/imagebutton/../../core/../misc/lv_style.h"
 1442              		.file 21 "Drivers/lvgl/src/widgets/imagebutton/../../core/../display/../misc/lv_event.h"
 1443              		.file 22 "Drivers/lvgl/src/widgets/imagebutton/../../core/../indev/lv_indev.h"
 1444              		.file 23 "Drivers/lvgl/src/widgets/imagebutton/../../core/lv_obj_event.h"
 1445              		.file 24 "Drivers/lvgl/src/widgets/imagebutton/../../core/lv_obj.h"
 1446              		.file 25 "Drivers/lvgl/src/widgets/imagebutton/lv_imagebutton.h"
 1447              		.file 26 "Drivers/lvgl/src/widgets/imagebutton/../../core/lv_obj_class.h"
 1448              		.file 27 "Drivers/lvgl/src/widgets/imagebutton/../../core/../draw/lv_image_decoder.h"
 1449              		.file 28 "Drivers/lvgl/src/widgets/imagebutton/../../core/lv_obj_style.h"
 1450              		.file 29 "Drivers/lvgl/src/widgets/imagebutton/../../misc/lv_area_private.h"
 1451              		.file 30 "Drivers/lvgl/src/widgets/imagebutton/../../core/lv_obj_draw.h"
 1452              		.file 31 "Drivers/lvgl/src/widgets/imagebutton/../../core/lv_obj_pos.h"
ARM GAS  /tmp/cco6PmJt.s 			page 44

