ARM GAS  /tmp/cc58L00o.s 			page 1


   1              		.cpu cortex-m7
   2              		.arch armv7e-m
   3              		.fpu fpv5-sp-d16
   4              		.eabi_attribute 27, 1
   5              		.eabi_attribute 28, 1
   6              		.eabi_attribute 20, 1
   7              		.eabi_attribute 21, 1
   8              		.eabi_attribute 23, 3
   9              		.eabi_attribute 24, 1
  10              		.eabi_attribute 25, 1
  11              		.eabi_attribute 26, 1
  12              		.eabi_attribute 30, 1
  13              		.eabi_attribute 34, 1
  14              		.eabi_attribute 18, 4
  15              		.file	"lv_image.c"
  16              		.text
  17              	.Ltext0:
  18              		.cfi_sections	.debug_frame
  19              		.file 1 "Drivers/lvgl/src/widgets/image/lv_image.c"
  20              		.section	.text.lv_image_destructor,"ax",%progbits
  21              		.align	1
  22              		.syntax unified
  23              		.thumb
  24              		.thumb_func
  26              	lv_image_destructor:
  27              	.LVL0:
  28              	.LFB212:
   1:Drivers/lvgl/src/widgets/image/lv_image.c **** /**
   2:Drivers/lvgl/src/widgets/image/lv_image.c ****  * @file lv_img.c
   3:Drivers/lvgl/src/widgets/image/lv_image.c ****  *
   4:Drivers/lvgl/src/widgets/image/lv_image.c ****  */
   5:Drivers/lvgl/src/widgets/image/lv_image.c **** 
   6:Drivers/lvgl/src/widgets/image/lv_image.c **** /*********************
   7:Drivers/lvgl/src/widgets/image/lv_image.c ****  *      INCLUDES
   8:Drivers/lvgl/src/widgets/image/lv_image.c ****  *********************/
   9:Drivers/lvgl/src/widgets/image/lv_image.c **** #include "lv_image_private.h"
  10:Drivers/lvgl/src/widgets/image/lv_image.c **** #include "../../misc/lv_area_private.h"
  11:Drivers/lvgl/src/widgets/image/lv_image.c **** #include "../../draw/lv_draw_image_private.h"
  12:Drivers/lvgl/src/widgets/image/lv_image.c **** #include "../../draw/lv_draw_private.h"
  13:Drivers/lvgl/src/widgets/image/lv_image.c **** #include "../../core/lv_obj_event_private.h"
  14:Drivers/lvgl/src/widgets/image/lv_image.c **** #include "../../core/lv_obj_class_private.h"
  15:Drivers/lvgl/src/widgets/image/lv_image.c **** #include "../../core/lv_obj_class_private.h"
  16:Drivers/lvgl/src/widgets/image/lv_image.c **** #include "../../core/lv_obj_draw_private.h"
  17:Drivers/lvgl/src/widgets/image/lv_image.c **** 
  18:Drivers/lvgl/src/widgets/image/lv_image.c **** #if LV_USE_IMAGE != 0
  19:Drivers/lvgl/src/widgets/image/lv_image.c **** 
  20:Drivers/lvgl/src/widgets/image/lv_image.c **** #include "../../stdlib/lv_string.h"
  21:Drivers/lvgl/src/widgets/image/lv_image.c **** 
  22:Drivers/lvgl/src/widgets/image/lv_image.c **** /*********************
  23:Drivers/lvgl/src/widgets/image/lv_image.c ****  *      DEFINES
  24:Drivers/lvgl/src/widgets/image/lv_image.c ****  *********************/
  25:Drivers/lvgl/src/widgets/image/lv_image.c **** #define MY_CLASS (&lv_image_class)
  26:Drivers/lvgl/src/widgets/image/lv_image.c **** 
  27:Drivers/lvgl/src/widgets/image/lv_image.c **** /**********************
  28:Drivers/lvgl/src/widgets/image/lv_image.c ****  *      TYPEDEFS
  29:Drivers/lvgl/src/widgets/image/lv_image.c ****  **********************/
  30:Drivers/lvgl/src/widgets/image/lv_image.c **** 
ARM GAS  /tmp/cc58L00o.s 			page 2


  31:Drivers/lvgl/src/widgets/image/lv_image.c **** /**********************
  32:Drivers/lvgl/src/widgets/image/lv_image.c ****  *  STATIC PROTOTYPES
  33:Drivers/lvgl/src/widgets/image/lv_image.c ****  **********************/
  34:Drivers/lvgl/src/widgets/image/lv_image.c **** static void lv_image_constructor(const lv_obj_class_t * class_p, lv_obj_t * obj);
  35:Drivers/lvgl/src/widgets/image/lv_image.c **** static void lv_image_destructor(const lv_obj_class_t * class_p, lv_obj_t * obj);
  36:Drivers/lvgl/src/widgets/image/lv_image.c **** static void lv_image_event(const lv_obj_class_t * class_p, lv_event_t * e);
  37:Drivers/lvgl/src/widgets/image/lv_image.c **** static void draw_image(lv_event_t * e);
  38:Drivers/lvgl/src/widgets/image/lv_image.c **** static void scale_update(lv_obj_t * obj, int32_t scale_x, int32_t scale_y);
  39:Drivers/lvgl/src/widgets/image/lv_image.c **** static void update_align(lv_obj_t * obj);
  40:Drivers/lvgl/src/widgets/image/lv_image.c **** #if LV_USE_OBJ_PROPERTY
  41:Drivers/lvgl/src/widgets/image/lv_image.c ****     static void lv_image_set_pivot_helper(lv_obj_t * obj, lv_point_t * pivot);
  42:Drivers/lvgl/src/widgets/image/lv_image.c ****     static lv_point_t lv_image_get_pivot_helper(lv_obj_t * obj);
  43:Drivers/lvgl/src/widgets/image/lv_image.c **** #endif
  44:Drivers/lvgl/src/widgets/image/lv_image.c **** 
  45:Drivers/lvgl/src/widgets/image/lv_image.c **** #if LV_USE_OBJ_PROPERTY
  46:Drivers/lvgl/src/widgets/image/lv_image.c **** static const lv_property_ops_t properties[] = {
  47:Drivers/lvgl/src/widgets/image/lv_image.c ****     {
  48:Drivers/lvgl/src/widgets/image/lv_image.c ****         .id = LV_PROPERTY_IMAGE_SRC,
  49:Drivers/lvgl/src/widgets/image/lv_image.c ****         .setter = lv_image_set_src,
  50:Drivers/lvgl/src/widgets/image/lv_image.c ****         .getter = lv_image_get_src,
  51:Drivers/lvgl/src/widgets/image/lv_image.c ****     },
  52:Drivers/lvgl/src/widgets/image/lv_image.c ****     {
  53:Drivers/lvgl/src/widgets/image/lv_image.c ****         .id = LV_PROPERTY_IMAGE_OFFSET_X,
  54:Drivers/lvgl/src/widgets/image/lv_image.c ****         .setter = lv_image_set_offset_x,
  55:Drivers/lvgl/src/widgets/image/lv_image.c ****         .getter = lv_image_get_offset_x,
  56:Drivers/lvgl/src/widgets/image/lv_image.c ****     },
  57:Drivers/lvgl/src/widgets/image/lv_image.c ****     {
  58:Drivers/lvgl/src/widgets/image/lv_image.c ****         .id = LV_PROPERTY_IMAGE_OFFSET_Y,
  59:Drivers/lvgl/src/widgets/image/lv_image.c ****         .setter = lv_image_set_offset_y,
  60:Drivers/lvgl/src/widgets/image/lv_image.c ****         .getter = lv_image_get_offset_y,
  61:Drivers/lvgl/src/widgets/image/lv_image.c ****     },
  62:Drivers/lvgl/src/widgets/image/lv_image.c ****     {
  63:Drivers/lvgl/src/widgets/image/lv_image.c ****         .id = LV_PROPERTY_IMAGE_ROTATION,
  64:Drivers/lvgl/src/widgets/image/lv_image.c ****         .setter = lv_image_set_rotation,
  65:Drivers/lvgl/src/widgets/image/lv_image.c ****         .getter = lv_image_get_rotation,
  66:Drivers/lvgl/src/widgets/image/lv_image.c ****     },
  67:Drivers/lvgl/src/widgets/image/lv_image.c ****     {
  68:Drivers/lvgl/src/widgets/image/lv_image.c ****         .id = LV_PROPERTY_IMAGE_PIVOT,
  69:Drivers/lvgl/src/widgets/image/lv_image.c ****         .setter = lv_image_set_pivot_helper,
  70:Drivers/lvgl/src/widgets/image/lv_image.c ****         .getter = lv_image_get_pivot_helper,
  71:Drivers/lvgl/src/widgets/image/lv_image.c ****     },
  72:Drivers/lvgl/src/widgets/image/lv_image.c ****     {
  73:Drivers/lvgl/src/widgets/image/lv_image.c ****         .id = LV_PROPERTY_IMAGE_SCALE,
  74:Drivers/lvgl/src/widgets/image/lv_image.c ****         .setter = lv_image_set_scale,
  75:Drivers/lvgl/src/widgets/image/lv_image.c ****         .getter = lv_image_get_scale,
  76:Drivers/lvgl/src/widgets/image/lv_image.c ****     },
  77:Drivers/lvgl/src/widgets/image/lv_image.c ****     {
  78:Drivers/lvgl/src/widgets/image/lv_image.c ****         .id = LV_PROPERTY_IMAGE_SCALE_X,
  79:Drivers/lvgl/src/widgets/image/lv_image.c ****         .setter = lv_image_set_scale_x,
  80:Drivers/lvgl/src/widgets/image/lv_image.c ****         .getter = lv_image_get_scale_x,
  81:Drivers/lvgl/src/widgets/image/lv_image.c ****     },
  82:Drivers/lvgl/src/widgets/image/lv_image.c ****     {
  83:Drivers/lvgl/src/widgets/image/lv_image.c ****         .id = LV_PROPERTY_IMAGE_SCALE_Y,
  84:Drivers/lvgl/src/widgets/image/lv_image.c ****         .setter = lv_image_set_scale_y,
  85:Drivers/lvgl/src/widgets/image/lv_image.c ****         .getter = lv_image_get_scale_y,
  86:Drivers/lvgl/src/widgets/image/lv_image.c ****     },
  87:Drivers/lvgl/src/widgets/image/lv_image.c ****     {
ARM GAS  /tmp/cc58L00o.s 			page 3


  88:Drivers/lvgl/src/widgets/image/lv_image.c ****         .id = LV_PROPERTY_IMAGE_BLEND_MODE,
  89:Drivers/lvgl/src/widgets/image/lv_image.c ****         .setter = lv_image_set_blend_mode,
  90:Drivers/lvgl/src/widgets/image/lv_image.c ****         .getter = lv_image_get_blend_mode,
  91:Drivers/lvgl/src/widgets/image/lv_image.c ****     },
  92:Drivers/lvgl/src/widgets/image/lv_image.c ****     {
  93:Drivers/lvgl/src/widgets/image/lv_image.c ****         .id = LV_PROPERTY_IMAGE_ANTIALIAS,
  94:Drivers/lvgl/src/widgets/image/lv_image.c ****         .setter = lv_image_set_antialias,
  95:Drivers/lvgl/src/widgets/image/lv_image.c ****         .getter = lv_image_get_antialias,
  96:Drivers/lvgl/src/widgets/image/lv_image.c ****     },
  97:Drivers/lvgl/src/widgets/image/lv_image.c ****     {
  98:Drivers/lvgl/src/widgets/image/lv_image.c ****         .id = LV_PROPERTY_IMAGE_INNER_ALIGN,
  99:Drivers/lvgl/src/widgets/image/lv_image.c ****         .setter = lv_image_set_inner_align,
 100:Drivers/lvgl/src/widgets/image/lv_image.c ****         .getter = lv_image_get_inner_align,
 101:Drivers/lvgl/src/widgets/image/lv_image.c ****     },
 102:Drivers/lvgl/src/widgets/image/lv_image.c **** };
 103:Drivers/lvgl/src/widgets/image/lv_image.c **** #endif
 104:Drivers/lvgl/src/widgets/image/lv_image.c **** 
 105:Drivers/lvgl/src/widgets/image/lv_image.c **** /**********************
 106:Drivers/lvgl/src/widgets/image/lv_image.c ****  *  STATIC VARIABLES
 107:Drivers/lvgl/src/widgets/image/lv_image.c ****  **********************/
 108:Drivers/lvgl/src/widgets/image/lv_image.c **** const lv_obj_class_t lv_image_class = {
 109:Drivers/lvgl/src/widgets/image/lv_image.c ****     .constructor_cb = lv_image_constructor,
 110:Drivers/lvgl/src/widgets/image/lv_image.c ****     .destructor_cb = lv_image_destructor,
 111:Drivers/lvgl/src/widgets/image/lv_image.c ****     .event_cb = lv_image_event,
 112:Drivers/lvgl/src/widgets/image/lv_image.c ****     .width_def = LV_SIZE_CONTENT,
 113:Drivers/lvgl/src/widgets/image/lv_image.c ****     .height_def = LV_SIZE_CONTENT,
 114:Drivers/lvgl/src/widgets/image/lv_image.c ****     .instance_size = sizeof(lv_image_t),
 115:Drivers/lvgl/src/widgets/image/lv_image.c ****     .base_class = &lv_obj_class,
 116:Drivers/lvgl/src/widgets/image/lv_image.c ****     .name = "lv_image",
 117:Drivers/lvgl/src/widgets/image/lv_image.c **** #if LV_USE_OBJ_PROPERTY
 118:Drivers/lvgl/src/widgets/image/lv_image.c ****     .prop_index_start = LV_PROPERTY_IMAGE_START,
 119:Drivers/lvgl/src/widgets/image/lv_image.c ****     .prop_index_end = LV_PROPERTY_IMAGE_END,
 120:Drivers/lvgl/src/widgets/image/lv_image.c ****     .properties = properties,
 121:Drivers/lvgl/src/widgets/image/lv_image.c ****     .properties_count = sizeof(properties) / sizeof(properties[0]),
 122:Drivers/lvgl/src/widgets/image/lv_image.c **** 
 123:Drivers/lvgl/src/widgets/image/lv_image.c **** #if LV_USE_OBJ_PROPERTY_NAME
 124:Drivers/lvgl/src/widgets/image/lv_image.c ****     .property_names = lv_image_property_names,
 125:Drivers/lvgl/src/widgets/image/lv_image.c ****     .names_count = sizeof(lv_image_property_names) / sizeof(lv_property_name_t),
 126:Drivers/lvgl/src/widgets/image/lv_image.c **** #endif
 127:Drivers/lvgl/src/widgets/image/lv_image.c **** 
 128:Drivers/lvgl/src/widgets/image/lv_image.c **** #endif
 129:Drivers/lvgl/src/widgets/image/lv_image.c **** };
 130:Drivers/lvgl/src/widgets/image/lv_image.c **** 
 131:Drivers/lvgl/src/widgets/image/lv_image.c **** /**********************
 132:Drivers/lvgl/src/widgets/image/lv_image.c ****  *      MACROS
 133:Drivers/lvgl/src/widgets/image/lv_image.c ****  **********************/
 134:Drivers/lvgl/src/widgets/image/lv_image.c **** 
 135:Drivers/lvgl/src/widgets/image/lv_image.c **** /**********************
 136:Drivers/lvgl/src/widgets/image/lv_image.c ****  *   GLOBAL FUNCTIONS
 137:Drivers/lvgl/src/widgets/image/lv_image.c ****  **********************/
 138:Drivers/lvgl/src/widgets/image/lv_image.c **** 
 139:Drivers/lvgl/src/widgets/image/lv_image.c **** lv_obj_t * lv_image_create(lv_obj_t * parent)
 140:Drivers/lvgl/src/widgets/image/lv_image.c **** {
 141:Drivers/lvgl/src/widgets/image/lv_image.c ****     LV_LOG_INFO("begin");
 142:Drivers/lvgl/src/widgets/image/lv_image.c ****     lv_obj_t * obj = lv_obj_class_create_obj(MY_CLASS, parent);
 143:Drivers/lvgl/src/widgets/image/lv_image.c ****     lv_obj_class_init_obj(obj);
 144:Drivers/lvgl/src/widgets/image/lv_image.c ****     return obj;
ARM GAS  /tmp/cc58L00o.s 			page 4


 145:Drivers/lvgl/src/widgets/image/lv_image.c **** }
 146:Drivers/lvgl/src/widgets/image/lv_image.c **** 
 147:Drivers/lvgl/src/widgets/image/lv_image.c **** /*=====================
 148:Drivers/lvgl/src/widgets/image/lv_image.c ****  * Setter functions
 149:Drivers/lvgl/src/widgets/image/lv_image.c ****  *====================*/
 150:Drivers/lvgl/src/widgets/image/lv_image.c **** 
 151:Drivers/lvgl/src/widgets/image/lv_image.c **** void lv_image_set_src(lv_obj_t * obj, const void * src)
 152:Drivers/lvgl/src/widgets/image/lv_image.c **** {
 153:Drivers/lvgl/src/widgets/image/lv_image.c ****     LV_ASSERT_OBJ(obj, MY_CLASS);
 154:Drivers/lvgl/src/widgets/image/lv_image.c **** 
 155:Drivers/lvgl/src/widgets/image/lv_image.c ****     lv_obj_invalidate(obj);
 156:Drivers/lvgl/src/widgets/image/lv_image.c **** 
 157:Drivers/lvgl/src/widgets/image/lv_image.c ****     lv_image_src_t src_type = lv_image_src_get_type(src);
 158:Drivers/lvgl/src/widgets/image/lv_image.c ****     lv_image_t * img = (lv_image_t *)obj;
 159:Drivers/lvgl/src/widgets/image/lv_image.c **** 
 160:Drivers/lvgl/src/widgets/image/lv_image.c **** #if LV_USE_LOG && LV_LOG_LEVEL <= LV_LOG_LEVEL_INFO
 161:Drivers/lvgl/src/widgets/image/lv_image.c ****     switch(src_type) {
 162:Drivers/lvgl/src/widgets/image/lv_image.c ****         case LV_IMAGE_SRC_FILE:
 163:Drivers/lvgl/src/widgets/image/lv_image.c ****             LV_LOG_TRACE("`LV_IMAGE_SRC_FILE` type found");
 164:Drivers/lvgl/src/widgets/image/lv_image.c ****             break;
 165:Drivers/lvgl/src/widgets/image/lv_image.c ****         case LV_IMAGE_SRC_VARIABLE:
 166:Drivers/lvgl/src/widgets/image/lv_image.c ****             LV_LOG_TRACE("`LV_IMAGE_SRC_VARIABLE` type found");
 167:Drivers/lvgl/src/widgets/image/lv_image.c ****             break;
 168:Drivers/lvgl/src/widgets/image/lv_image.c ****         case LV_IMAGE_SRC_SYMBOL:
 169:Drivers/lvgl/src/widgets/image/lv_image.c ****             LV_LOG_TRACE("`LV_IMAGE_SRC_SYMBOL` type found");
 170:Drivers/lvgl/src/widgets/image/lv_image.c ****             break;
 171:Drivers/lvgl/src/widgets/image/lv_image.c ****         default:
 172:Drivers/lvgl/src/widgets/image/lv_image.c ****             LV_LOG_WARN("unknown type");
 173:Drivers/lvgl/src/widgets/image/lv_image.c ****     }
 174:Drivers/lvgl/src/widgets/image/lv_image.c **** #endif
 175:Drivers/lvgl/src/widgets/image/lv_image.c **** 
 176:Drivers/lvgl/src/widgets/image/lv_image.c ****     /*If the new source type is unknown free the memories of the old source*/
 177:Drivers/lvgl/src/widgets/image/lv_image.c ****     if(src_type == LV_IMAGE_SRC_UNKNOWN) {
 178:Drivers/lvgl/src/widgets/image/lv_image.c ****         if(src) LV_LOG_WARN("unknown image type");
 179:Drivers/lvgl/src/widgets/image/lv_image.c ****         if(img->src_type == LV_IMAGE_SRC_SYMBOL || img->src_type == LV_IMAGE_SRC_FILE) {
 180:Drivers/lvgl/src/widgets/image/lv_image.c ****             lv_free((void *)img->src);
 181:Drivers/lvgl/src/widgets/image/lv_image.c ****         }
 182:Drivers/lvgl/src/widgets/image/lv_image.c ****         img->src      = NULL;
 183:Drivers/lvgl/src/widgets/image/lv_image.c ****         img->src_type = LV_IMAGE_SRC_UNKNOWN;
 184:Drivers/lvgl/src/widgets/image/lv_image.c ****         return;
 185:Drivers/lvgl/src/widgets/image/lv_image.c ****     }
 186:Drivers/lvgl/src/widgets/image/lv_image.c **** 
 187:Drivers/lvgl/src/widgets/image/lv_image.c ****     lv_image_header_t header;
 188:Drivers/lvgl/src/widgets/image/lv_image.c ****     lv_result_t res = lv_image_decoder_get_info(src, &header);
 189:Drivers/lvgl/src/widgets/image/lv_image.c ****     if(res != LV_RESULT_OK) {
 190:Drivers/lvgl/src/widgets/image/lv_image.c **** #if LV_USE_LOG
 191:Drivers/lvgl/src/widgets/image/lv_image.c ****         char buf[24];
 192:Drivers/lvgl/src/widgets/image/lv_image.c ****         LV_LOG_WARN("failed to get image info: %s",
 193:Drivers/lvgl/src/widgets/image/lv_image.c ****                     src_type == LV_IMAGE_SRC_FILE ? (const char *)src : (lv_snprintf(buf, sizeof(bu
 194:Drivers/lvgl/src/widgets/image/lv_image.c **** #endif /*LV_USE_LOG*/
 195:Drivers/lvgl/src/widgets/image/lv_image.c ****         return;
 196:Drivers/lvgl/src/widgets/image/lv_image.c ****     }
 197:Drivers/lvgl/src/widgets/image/lv_image.c **** 
 198:Drivers/lvgl/src/widgets/image/lv_image.c ****     /*Save the source*/
 199:Drivers/lvgl/src/widgets/image/lv_image.c ****     if(src_type == LV_IMAGE_SRC_VARIABLE) {
 200:Drivers/lvgl/src/widgets/image/lv_image.c ****         if(header.flags & LV_IMAGE_FLAGS_ALLOCATED) {
 201:Drivers/lvgl/src/widgets/image/lv_image.c ****             lv_draw_buf_t * buf = (lv_draw_buf_t *)src;
ARM GAS  /tmp/cc58L00o.s 			page 5


 202:Drivers/lvgl/src/widgets/image/lv_image.c ****             if(!buf->unaligned_data || !buf->handlers) {
 203:Drivers/lvgl/src/widgets/image/lv_image.c ****                 LV_LOG_ERROR("Invalid draw buffer, unaligned_data: %p, handlers: %p",
 204:Drivers/lvgl/src/widgets/image/lv_image.c ****                              buf->unaligned_data, (void *)buf->handlers);
 205:Drivers/lvgl/src/widgets/image/lv_image.c ****                 return;
 206:Drivers/lvgl/src/widgets/image/lv_image.c ****             }
 207:Drivers/lvgl/src/widgets/image/lv_image.c ****         }
 208:Drivers/lvgl/src/widgets/image/lv_image.c **** 
 209:Drivers/lvgl/src/widgets/image/lv_image.c ****         /*If memory was allocated because of the previous `src_type` then free it*/
 210:Drivers/lvgl/src/widgets/image/lv_image.c ****         if(img->src_type == LV_IMAGE_SRC_FILE || img->src_type == LV_IMAGE_SRC_SYMBOL) {
 211:Drivers/lvgl/src/widgets/image/lv_image.c ****             lv_free((void *)img->src);
 212:Drivers/lvgl/src/widgets/image/lv_image.c ****         }
 213:Drivers/lvgl/src/widgets/image/lv_image.c ****         img->src = src;
 214:Drivers/lvgl/src/widgets/image/lv_image.c ****     }
 215:Drivers/lvgl/src/widgets/image/lv_image.c ****     else if(src_type == LV_IMAGE_SRC_FILE || src_type == LV_IMAGE_SRC_SYMBOL) {
 216:Drivers/lvgl/src/widgets/image/lv_image.c ****         /*If the new and the old src are the same then it was only a refresh.*/
 217:Drivers/lvgl/src/widgets/image/lv_image.c ****         if(img->src != src) {
 218:Drivers/lvgl/src/widgets/image/lv_image.c ****             const void * old_src = NULL;
 219:Drivers/lvgl/src/widgets/image/lv_image.c ****             /*If memory was allocated because of the previous `src_type` then save its pointer and 
 220:Drivers/lvgl/src/widgets/image/lv_image.c ****              *It's important to allocate first to be sure the new data will be on a new address.
 221:Drivers/lvgl/src/widgets/image/lv_image.c ****              *Else `img_cache` wouldn't see the change in source.*/
 222:Drivers/lvgl/src/widgets/image/lv_image.c ****             if(img->src_type == LV_IMAGE_SRC_FILE || img->src_type == LV_IMAGE_SRC_SYMBOL) {
 223:Drivers/lvgl/src/widgets/image/lv_image.c ****                 old_src = img->src;
 224:Drivers/lvgl/src/widgets/image/lv_image.c ****             }
 225:Drivers/lvgl/src/widgets/image/lv_image.c ****             char * new_str = lv_strdup(src);
 226:Drivers/lvgl/src/widgets/image/lv_image.c ****             LV_ASSERT_MALLOC(new_str);
 227:Drivers/lvgl/src/widgets/image/lv_image.c ****             if(new_str == NULL) return;
 228:Drivers/lvgl/src/widgets/image/lv_image.c ****             img->src = new_str;
 229:Drivers/lvgl/src/widgets/image/lv_image.c **** 
 230:Drivers/lvgl/src/widgets/image/lv_image.c ****             if(old_src) lv_free((void *)old_src);
 231:Drivers/lvgl/src/widgets/image/lv_image.c ****         }
 232:Drivers/lvgl/src/widgets/image/lv_image.c ****     }
 233:Drivers/lvgl/src/widgets/image/lv_image.c **** 
 234:Drivers/lvgl/src/widgets/image/lv_image.c ****     if(src_type == LV_IMAGE_SRC_SYMBOL) {
 235:Drivers/lvgl/src/widgets/image/lv_image.c ****         /*`lv_image_dsc_get_info` couldn't set the width and height of a font so set it here*/
 236:Drivers/lvgl/src/widgets/image/lv_image.c ****         const lv_font_t * font = lv_obj_get_style_text_font(obj, LV_PART_MAIN);
 237:Drivers/lvgl/src/widgets/image/lv_image.c ****         int32_t letter_space = lv_obj_get_style_text_letter_space(obj, LV_PART_MAIN);
 238:Drivers/lvgl/src/widgets/image/lv_image.c ****         int32_t line_space = lv_obj_get_style_text_line_space(obj, LV_PART_MAIN);
 239:Drivers/lvgl/src/widgets/image/lv_image.c ****         lv_point_t size;
 240:Drivers/lvgl/src/widgets/image/lv_image.c ****         lv_text_get_size(&size, src, font, letter_space, line_space, LV_COORD_MAX, LV_TEXT_FLAG_NON
 241:Drivers/lvgl/src/widgets/image/lv_image.c ****         header.w = size.x;
 242:Drivers/lvgl/src/widgets/image/lv_image.c ****         header.h = size.y;
 243:Drivers/lvgl/src/widgets/image/lv_image.c ****     }
 244:Drivers/lvgl/src/widgets/image/lv_image.c **** 
 245:Drivers/lvgl/src/widgets/image/lv_image.c ****     img->src_type = src_type;
 246:Drivers/lvgl/src/widgets/image/lv_image.c ****     img->w        = header.w;
 247:Drivers/lvgl/src/widgets/image/lv_image.c ****     img->h        = header.h;
 248:Drivers/lvgl/src/widgets/image/lv_image.c ****     img->cf       = header.cf;
 249:Drivers/lvgl/src/widgets/image/lv_image.c **** 
 250:Drivers/lvgl/src/widgets/image/lv_image.c ****     lv_obj_refresh_self_size(obj);
 251:Drivers/lvgl/src/widgets/image/lv_image.c **** 
 252:Drivers/lvgl/src/widgets/image/lv_image.c ****     update_align(obj);
 253:Drivers/lvgl/src/widgets/image/lv_image.c **** 
 254:Drivers/lvgl/src/widgets/image/lv_image.c ****     /*Provide enough room for the rotated corners*/
 255:Drivers/lvgl/src/widgets/image/lv_image.c ****     if(img->rotation || img->scale_x != LV_SCALE_NONE || img->scale_y != LV_SCALE_NONE) {
 256:Drivers/lvgl/src/widgets/image/lv_image.c ****         lv_obj_refresh_ext_draw_size(obj);
 257:Drivers/lvgl/src/widgets/image/lv_image.c ****     }
 258:Drivers/lvgl/src/widgets/image/lv_image.c **** 
ARM GAS  /tmp/cc58L00o.s 			page 6


 259:Drivers/lvgl/src/widgets/image/lv_image.c ****     lv_obj_invalidate(obj);
 260:Drivers/lvgl/src/widgets/image/lv_image.c **** }
 261:Drivers/lvgl/src/widgets/image/lv_image.c **** 
 262:Drivers/lvgl/src/widgets/image/lv_image.c **** void lv_image_set_offset_x(lv_obj_t * obj, int32_t x)
 263:Drivers/lvgl/src/widgets/image/lv_image.c **** {
 264:Drivers/lvgl/src/widgets/image/lv_image.c ****     LV_ASSERT_OBJ(obj, MY_CLASS);
 265:Drivers/lvgl/src/widgets/image/lv_image.c **** 
 266:Drivers/lvgl/src/widgets/image/lv_image.c ****     lv_image_t * img = (lv_image_t *)obj;
 267:Drivers/lvgl/src/widgets/image/lv_image.c **** 
 268:Drivers/lvgl/src/widgets/image/lv_image.c ****     img->offset.x = x;
 269:Drivers/lvgl/src/widgets/image/lv_image.c ****     lv_obj_invalidate(obj);
 270:Drivers/lvgl/src/widgets/image/lv_image.c **** }
 271:Drivers/lvgl/src/widgets/image/lv_image.c **** 
 272:Drivers/lvgl/src/widgets/image/lv_image.c **** void lv_image_set_offset_y(lv_obj_t * obj, int32_t y)
 273:Drivers/lvgl/src/widgets/image/lv_image.c **** {
 274:Drivers/lvgl/src/widgets/image/lv_image.c ****     LV_ASSERT_OBJ(obj, MY_CLASS);
 275:Drivers/lvgl/src/widgets/image/lv_image.c **** 
 276:Drivers/lvgl/src/widgets/image/lv_image.c ****     lv_image_t * img = (lv_image_t *)obj;
 277:Drivers/lvgl/src/widgets/image/lv_image.c **** 
 278:Drivers/lvgl/src/widgets/image/lv_image.c ****     img->offset.y = y;
 279:Drivers/lvgl/src/widgets/image/lv_image.c ****     lv_obj_invalidate(obj);
 280:Drivers/lvgl/src/widgets/image/lv_image.c **** }
 281:Drivers/lvgl/src/widgets/image/lv_image.c **** 
 282:Drivers/lvgl/src/widgets/image/lv_image.c **** void lv_image_set_rotation(lv_obj_t * obj, int32_t angle)
 283:Drivers/lvgl/src/widgets/image/lv_image.c **** {
 284:Drivers/lvgl/src/widgets/image/lv_image.c ****     LV_ASSERT_OBJ(obj, MY_CLASS);
 285:Drivers/lvgl/src/widgets/image/lv_image.c **** 
 286:Drivers/lvgl/src/widgets/image/lv_image.c ****     lv_image_t * img = (lv_image_t *)obj;
 287:Drivers/lvgl/src/widgets/image/lv_image.c ****     if(img->align > LV_IMAGE_ALIGN_AUTO_TRANSFORM) {
 288:Drivers/lvgl/src/widgets/image/lv_image.c ****         angle = 0;
 289:Drivers/lvgl/src/widgets/image/lv_image.c ****     }
 290:Drivers/lvgl/src/widgets/image/lv_image.c ****     else {
 291:Drivers/lvgl/src/widgets/image/lv_image.c ****         while(angle >= 3600) angle -= 3600;
 292:Drivers/lvgl/src/widgets/image/lv_image.c ****         while(angle < 0) angle += 3600;
 293:Drivers/lvgl/src/widgets/image/lv_image.c ****     }
 294:Drivers/lvgl/src/widgets/image/lv_image.c **** 
 295:Drivers/lvgl/src/widgets/image/lv_image.c ****     if((uint32_t)angle == img->rotation) return;
 296:Drivers/lvgl/src/widgets/image/lv_image.c **** 
 297:Drivers/lvgl/src/widgets/image/lv_image.c ****     lv_obj_update_layout(obj);  /*Be sure the object's size is calculated*/
 298:Drivers/lvgl/src/widgets/image/lv_image.c ****     int32_t w = lv_obj_get_width(obj);
 299:Drivers/lvgl/src/widgets/image/lv_image.c ****     int32_t h = lv_obj_get_height(obj);
 300:Drivers/lvgl/src/widgets/image/lv_image.c ****     lv_area_t a;
 301:Drivers/lvgl/src/widgets/image/lv_image.c ****     lv_point_t pivot_px;
 302:Drivers/lvgl/src/widgets/image/lv_image.c ****     lv_image_get_pivot(obj, &pivot_px);
 303:Drivers/lvgl/src/widgets/image/lv_image.c ****     lv_image_buf_get_transformed_area(&a, w, h, img->rotation, img->scale_x, img->scale_y, &pivot_p
 304:Drivers/lvgl/src/widgets/image/lv_image.c ****     a.x1 += obj->coords.x1;
 305:Drivers/lvgl/src/widgets/image/lv_image.c ****     a.y1 += obj->coords.y1;
 306:Drivers/lvgl/src/widgets/image/lv_image.c ****     a.x2 += obj->coords.x1;
 307:Drivers/lvgl/src/widgets/image/lv_image.c ****     a.y2 += obj->coords.y1;
 308:Drivers/lvgl/src/widgets/image/lv_image.c ****     lv_obj_invalidate_area(obj, &a);
 309:Drivers/lvgl/src/widgets/image/lv_image.c **** 
 310:Drivers/lvgl/src/widgets/image/lv_image.c ****     img->rotation = angle;
 311:Drivers/lvgl/src/widgets/image/lv_image.c **** 
 312:Drivers/lvgl/src/widgets/image/lv_image.c ****     /* Disable invalidations because lv_obj_refresh_ext_draw_size would invalidate
 313:Drivers/lvgl/src/widgets/image/lv_image.c ****      * the whole ext draw area */
 314:Drivers/lvgl/src/widgets/image/lv_image.c ****     lv_display_t * disp = lv_obj_get_display(obj);
 315:Drivers/lvgl/src/widgets/image/lv_image.c ****     lv_display_enable_invalidation(disp, false);
ARM GAS  /tmp/cc58L00o.s 			page 7


 316:Drivers/lvgl/src/widgets/image/lv_image.c ****     lv_obj_refresh_ext_draw_size(obj);
 317:Drivers/lvgl/src/widgets/image/lv_image.c ****     lv_display_enable_invalidation(disp, true);
 318:Drivers/lvgl/src/widgets/image/lv_image.c **** 
 319:Drivers/lvgl/src/widgets/image/lv_image.c ****     lv_image_buf_get_transformed_area(&a, w, h, img->rotation, img->scale_x, img->scale_y, &pivot_p
 320:Drivers/lvgl/src/widgets/image/lv_image.c ****     a.x1 += obj->coords.x1;
 321:Drivers/lvgl/src/widgets/image/lv_image.c ****     a.y1 += obj->coords.y1;
 322:Drivers/lvgl/src/widgets/image/lv_image.c ****     a.x2 += obj->coords.x1;
 323:Drivers/lvgl/src/widgets/image/lv_image.c ****     a.y2 += obj->coords.y1;
 324:Drivers/lvgl/src/widgets/image/lv_image.c ****     lv_obj_invalidate_area(obj, &a);
 325:Drivers/lvgl/src/widgets/image/lv_image.c **** }
 326:Drivers/lvgl/src/widgets/image/lv_image.c **** 
 327:Drivers/lvgl/src/widgets/image/lv_image.c **** void lv_image_set_pivot(lv_obj_t * obj, int32_t x, int32_t y)
 328:Drivers/lvgl/src/widgets/image/lv_image.c **** {
 329:Drivers/lvgl/src/widgets/image/lv_image.c ****     LV_ASSERT_OBJ(obj, MY_CLASS);
 330:Drivers/lvgl/src/widgets/image/lv_image.c **** 
 331:Drivers/lvgl/src/widgets/image/lv_image.c ****     lv_image_t * img = (lv_image_t *)obj;
 332:Drivers/lvgl/src/widgets/image/lv_image.c ****     if(img->align > LV_IMAGE_ALIGN_AUTO_TRANSFORM) {
 333:Drivers/lvgl/src/widgets/image/lv_image.c ****         x = 0;
 334:Drivers/lvgl/src/widgets/image/lv_image.c ****         y = 0;
 335:Drivers/lvgl/src/widgets/image/lv_image.c ****     }
 336:Drivers/lvgl/src/widgets/image/lv_image.c **** 
 337:Drivers/lvgl/src/widgets/image/lv_image.c ****     if(img->pivot.x == x && img->pivot.y == y) return;
 338:Drivers/lvgl/src/widgets/image/lv_image.c **** 
 339:Drivers/lvgl/src/widgets/image/lv_image.c ****     lv_obj_update_layout(obj);  /*Be sure the object's size is calculated*/
 340:Drivers/lvgl/src/widgets/image/lv_image.c ****     int32_t w = lv_obj_get_width(obj);
 341:Drivers/lvgl/src/widgets/image/lv_image.c ****     int32_t h = lv_obj_get_height(obj);
 342:Drivers/lvgl/src/widgets/image/lv_image.c ****     lv_area_t a;
 343:Drivers/lvgl/src/widgets/image/lv_image.c ****     lv_point_t pivot_px;
 344:Drivers/lvgl/src/widgets/image/lv_image.c ****     lv_image_get_pivot(obj, &pivot_px);
 345:Drivers/lvgl/src/widgets/image/lv_image.c ****     lv_image_buf_get_transformed_area(&a, w, h, img->rotation, img->scale_x, img->scale_y, &pivot_p
 346:Drivers/lvgl/src/widgets/image/lv_image.c ****     a.x1 += obj->coords.x1;
 347:Drivers/lvgl/src/widgets/image/lv_image.c ****     a.y1 += obj->coords.y1;
 348:Drivers/lvgl/src/widgets/image/lv_image.c ****     a.x2 += obj->coords.x1;
 349:Drivers/lvgl/src/widgets/image/lv_image.c ****     a.y2 += obj->coords.y1;
 350:Drivers/lvgl/src/widgets/image/lv_image.c ****     lv_obj_invalidate_area(obj, &a);
 351:Drivers/lvgl/src/widgets/image/lv_image.c **** 
 352:Drivers/lvgl/src/widgets/image/lv_image.c ****     lv_point_set(&img->pivot, x, y);
 353:Drivers/lvgl/src/widgets/image/lv_image.c **** 
 354:Drivers/lvgl/src/widgets/image/lv_image.c ****     /* Disable invalidations because lv_obj_refresh_ext_draw_size would invalidate
 355:Drivers/lvgl/src/widgets/image/lv_image.c ****      * the whole ext draw area */
 356:Drivers/lvgl/src/widgets/image/lv_image.c ****     lv_display_t * disp = lv_obj_get_display(obj);
 357:Drivers/lvgl/src/widgets/image/lv_image.c ****     lv_display_enable_invalidation(disp, false);
 358:Drivers/lvgl/src/widgets/image/lv_image.c ****     lv_obj_refresh_ext_draw_size(obj);
 359:Drivers/lvgl/src/widgets/image/lv_image.c ****     lv_display_enable_invalidation(disp, true);
 360:Drivers/lvgl/src/widgets/image/lv_image.c **** 
 361:Drivers/lvgl/src/widgets/image/lv_image.c ****     lv_image_get_pivot(obj, &pivot_px);
 362:Drivers/lvgl/src/widgets/image/lv_image.c ****     lv_image_buf_get_transformed_area(&a, w, h, img->rotation, img->scale_x, img->scale_y, &pivot_p
 363:Drivers/lvgl/src/widgets/image/lv_image.c ****     a.x1 += obj->coords.x1;
 364:Drivers/lvgl/src/widgets/image/lv_image.c ****     a.y1 += obj->coords.y1;
 365:Drivers/lvgl/src/widgets/image/lv_image.c ****     a.x2 += obj->coords.x1;
 366:Drivers/lvgl/src/widgets/image/lv_image.c ****     a.y2 += obj->coords.y1;
 367:Drivers/lvgl/src/widgets/image/lv_image.c ****     lv_obj_invalidate_area(obj, &a);
 368:Drivers/lvgl/src/widgets/image/lv_image.c **** }
 369:Drivers/lvgl/src/widgets/image/lv_image.c **** 
 370:Drivers/lvgl/src/widgets/image/lv_image.c **** void lv_image_set_scale(lv_obj_t * obj, uint32_t zoom)
 371:Drivers/lvgl/src/widgets/image/lv_image.c **** {
 372:Drivers/lvgl/src/widgets/image/lv_image.c ****     LV_ASSERT_OBJ(obj, MY_CLASS);
ARM GAS  /tmp/cc58L00o.s 			page 8


 373:Drivers/lvgl/src/widgets/image/lv_image.c **** 
 374:Drivers/lvgl/src/widgets/image/lv_image.c ****     lv_image_t * img = (lv_image_t *)obj;
 375:Drivers/lvgl/src/widgets/image/lv_image.c **** 
 376:Drivers/lvgl/src/widgets/image/lv_image.c ****     /*If scale is set internally, do no overwrite it*/
 377:Drivers/lvgl/src/widgets/image/lv_image.c ****     if(img->align > LV_IMAGE_ALIGN_AUTO_TRANSFORM) return;
 378:Drivers/lvgl/src/widgets/image/lv_image.c **** 
 379:Drivers/lvgl/src/widgets/image/lv_image.c ****     if(zoom == img->scale_x && zoom == img->scale_y) return;
 380:Drivers/lvgl/src/widgets/image/lv_image.c **** 
 381:Drivers/lvgl/src/widgets/image/lv_image.c ****     if(zoom == 0) zoom = 1;
 382:Drivers/lvgl/src/widgets/image/lv_image.c **** 
 383:Drivers/lvgl/src/widgets/image/lv_image.c ****     scale_update(obj, zoom, zoom);
 384:Drivers/lvgl/src/widgets/image/lv_image.c **** }
 385:Drivers/lvgl/src/widgets/image/lv_image.c **** 
 386:Drivers/lvgl/src/widgets/image/lv_image.c **** void lv_image_set_scale_x(lv_obj_t * obj, uint32_t zoom)
 387:Drivers/lvgl/src/widgets/image/lv_image.c **** {
 388:Drivers/lvgl/src/widgets/image/lv_image.c ****     LV_ASSERT_OBJ(obj, MY_CLASS);
 389:Drivers/lvgl/src/widgets/image/lv_image.c **** 
 390:Drivers/lvgl/src/widgets/image/lv_image.c ****     lv_image_t * img = (lv_image_t *)obj;
 391:Drivers/lvgl/src/widgets/image/lv_image.c **** 
 392:Drivers/lvgl/src/widgets/image/lv_image.c ****     /*If scale is set internally, do no overwrite it*/
 393:Drivers/lvgl/src/widgets/image/lv_image.c ****     if(img->align > LV_IMAGE_ALIGN_AUTO_TRANSFORM) return;
 394:Drivers/lvgl/src/widgets/image/lv_image.c **** 
 395:Drivers/lvgl/src/widgets/image/lv_image.c ****     if(zoom == img->scale_x) return;
 396:Drivers/lvgl/src/widgets/image/lv_image.c **** 
 397:Drivers/lvgl/src/widgets/image/lv_image.c ****     if(zoom == 0) zoom = 1;
 398:Drivers/lvgl/src/widgets/image/lv_image.c **** 
 399:Drivers/lvgl/src/widgets/image/lv_image.c ****     scale_update(obj, zoom, img->scale_y);
 400:Drivers/lvgl/src/widgets/image/lv_image.c **** }
 401:Drivers/lvgl/src/widgets/image/lv_image.c **** 
 402:Drivers/lvgl/src/widgets/image/lv_image.c **** void lv_image_set_scale_y(lv_obj_t * obj, uint32_t zoom)
 403:Drivers/lvgl/src/widgets/image/lv_image.c **** {
 404:Drivers/lvgl/src/widgets/image/lv_image.c ****     LV_ASSERT_OBJ(obj, MY_CLASS);
 405:Drivers/lvgl/src/widgets/image/lv_image.c **** 
 406:Drivers/lvgl/src/widgets/image/lv_image.c ****     lv_image_t * img = (lv_image_t *)obj;
 407:Drivers/lvgl/src/widgets/image/lv_image.c **** 
 408:Drivers/lvgl/src/widgets/image/lv_image.c ****     /*If scale is set internally, do no overwrite it*/
 409:Drivers/lvgl/src/widgets/image/lv_image.c ****     if(img->align > LV_IMAGE_ALIGN_AUTO_TRANSFORM) return;
 410:Drivers/lvgl/src/widgets/image/lv_image.c **** 
 411:Drivers/lvgl/src/widgets/image/lv_image.c ****     if(zoom == img->scale_y) return;
 412:Drivers/lvgl/src/widgets/image/lv_image.c **** 
 413:Drivers/lvgl/src/widgets/image/lv_image.c ****     if(zoom == 0) zoom = 1;
 414:Drivers/lvgl/src/widgets/image/lv_image.c **** 
 415:Drivers/lvgl/src/widgets/image/lv_image.c ****     scale_update(obj, img->scale_x, zoom);
 416:Drivers/lvgl/src/widgets/image/lv_image.c **** }
 417:Drivers/lvgl/src/widgets/image/lv_image.c **** 
 418:Drivers/lvgl/src/widgets/image/lv_image.c **** void lv_image_set_blend_mode(lv_obj_t * obj, lv_blend_mode_t blend_mode)
 419:Drivers/lvgl/src/widgets/image/lv_image.c **** {
 420:Drivers/lvgl/src/widgets/image/lv_image.c ****     LV_ASSERT_OBJ(obj, MY_CLASS);
 421:Drivers/lvgl/src/widgets/image/lv_image.c **** 
 422:Drivers/lvgl/src/widgets/image/lv_image.c ****     lv_image_t * img = (lv_image_t *)obj;
 423:Drivers/lvgl/src/widgets/image/lv_image.c **** 
 424:Drivers/lvgl/src/widgets/image/lv_image.c ****     /*If scale is set internally, do no overwrite it*/
 425:Drivers/lvgl/src/widgets/image/lv_image.c ****     if(img->blend_mode == blend_mode) return;
 426:Drivers/lvgl/src/widgets/image/lv_image.c **** 
 427:Drivers/lvgl/src/widgets/image/lv_image.c ****     img->blend_mode = blend_mode;
 428:Drivers/lvgl/src/widgets/image/lv_image.c **** 
 429:Drivers/lvgl/src/widgets/image/lv_image.c ****     lv_obj_invalidate(obj);
ARM GAS  /tmp/cc58L00o.s 			page 9


 430:Drivers/lvgl/src/widgets/image/lv_image.c **** }
 431:Drivers/lvgl/src/widgets/image/lv_image.c **** 
 432:Drivers/lvgl/src/widgets/image/lv_image.c **** void lv_image_set_antialias(lv_obj_t * obj, bool antialias)
 433:Drivers/lvgl/src/widgets/image/lv_image.c **** {
 434:Drivers/lvgl/src/widgets/image/lv_image.c ****     LV_ASSERT_OBJ(obj, MY_CLASS);
 435:Drivers/lvgl/src/widgets/image/lv_image.c **** 
 436:Drivers/lvgl/src/widgets/image/lv_image.c ****     lv_image_t * img = (lv_image_t *)obj;
 437:Drivers/lvgl/src/widgets/image/lv_image.c ****     if(antialias == img->antialias) return;
 438:Drivers/lvgl/src/widgets/image/lv_image.c **** 
 439:Drivers/lvgl/src/widgets/image/lv_image.c ****     img->antialias = antialias;
 440:Drivers/lvgl/src/widgets/image/lv_image.c ****     lv_obj_invalidate(obj);
 441:Drivers/lvgl/src/widgets/image/lv_image.c **** }
 442:Drivers/lvgl/src/widgets/image/lv_image.c **** 
 443:Drivers/lvgl/src/widgets/image/lv_image.c **** void lv_image_set_inner_align(lv_obj_t * obj, lv_image_align_t align)
 444:Drivers/lvgl/src/widgets/image/lv_image.c **** {
 445:Drivers/lvgl/src/widgets/image/lv_image.c ****     LV_ASSERT_OBJ(obj, MY_CLASS);
 446:Drivers/lvgl/src/widgets/image/lv_image.c **** 
 447:Drivers/lvgl/src/widgets/image/lv_image.c ****     lv_image_t * img = (lv_image_t *)obj;
 448:Drivers/lvgl/src/widgets/image/lv_image.c ****     if(align == img->align) return;
 449:Drivers/lvgl/src/widgets/image/lv_image.c **** 
 450:Drivers/lvgl/src/widgets/image/lv_image.c ****     /*If we're removing STRETCH, reset the scale*/
 451:Drivers/lvgl/src/widgets/image/lv_image.c ****     if(img->align == LV_IMAGE_ALIGN_STRETCH) {
 452:Drivers/lvgl/src/widgets/image/lv_image.c ****         lv_image_set_scale(obj, LV_SCALE_NONE);
 453:Drivers/lvgl/src/widgets/image/lv_image.c ****     }
 454:Drivers/lvgl/src/widgets/image/lv_image.c **** 
 455:Drivers/lvgl/src/widgets/image/lv_image.c ****     img->align = align;
 456:Drivers/lvgl/src/widgets/image/lv_image.c ****     update_align(obj);
 457:Drivers/lvgl/src/widgets/image/lv_image.c **** 
 458:Drivers/lvgl/src/widgets/image/lv_image.c ****     lv_obj_invalidate(obj);
 459:Drivers/lvgl/src/widgets/image/lv_image.c **** }
 460:Drivers/lvgl/src/widgets/image/lv_image.c **** 
 461:Drivers/lvgl/src/widgets/image/lv_image.c **** void lv_image_set_bitmap_map_src(lv_obj_t * obj, const lv_image_dsc_t * src)
 462:Drivers/lvgl/src/widgets/image/lv_image.c **** {
 463:Drivers/lvgl/src/widgets/image/lv_image.c ****     LV_ASSERT_OBJ(obj, MY_CLASS);
 464:Drivers/lvgl/src/widgets/image/lv_image.c ****     lv_image_t * img = (lv_image_t *)obj;
 465:Drivers/lvgl/src/widgets/image/lv_image.c ****     img->bitmap_mask_src = src;
 466:Drivers/lvgl/src/widgets/image/lv_image.c ****     lv_obj_invalidate(obj);
 467:Drivers/lvgl/src/widgets/image/lv_image.c **** }
 468:Drivers/lvgl/src/widgets/image/lv_image.c **** 
 469:Drivers/lvgl/src/widgets/image/lv_image.c **** /*=====================
 470:Drivers/lvgl/src/widgets/image/lv_image.c ****  * Getter functions
 471:Drivers/lvgl/src/widgets/image/lv_image.c ****  *====================*/
 472:Drivers/lvgl/src/widgets/image/lv_image.c **** 
 473:Drivers/lvgl/src/widgets/image/lv_image.c **** const void * lv_image_get_src(lv_obj_t * obj)
 474:Drivers/lvgl/src/widgets/image/lv_image.c **** {
 475:Drivers/lvgl/src/widgets/image/lv_image.c ****     LV_ASSERT_OBJ(obj, MY_CLASS);
 476:Drivers/lvgl/src/widgets/image/lv_image.c **** 
 477:Drivers/lvgl/src/widgets/image/lv_image.c ****     lv_image_t * img = (lv_image_t *)obj;
 478:Drivers/lvgl/src/widgets/image/lv_image.c **** 
 479:Drivers/lvgl/src/widgets/image/lv_image.c ****     return img->src;
 480:Drivers/lvgl/src/widgets/image/lv_image.c **** }
 481:Drivers/lvgl/src/widgets/image/lv_image.c **** 
 482:Drivers/lvgl/src/widgets/image/lv_image.c **** int32_t lv_image_get_offset_x(lv_obj_t * obj)
 483:Drivers/lvgl/src/widgets/image/lv_image.c **** {
 484:Drivers/lvgl/src/widgets/image/lv_image.c ****     LV_ASSERT_OBJ(obj, MY_CLASS);
 485:Drivers/lvgl/src/widgets/image/lv_image.c **** 
 486:Drivers/lvgl/src/widgets/image/lv_image.c ****     lv_image_t * img = (lv_image_t *)obj;
ARM GAS  /tmp/cc58L00o.s 			page 10


 487:Drivers/lvgl/src/widgets/image/lv_image.c **** 
 488:Drivers/lvgl/src/widgets/image/lv_image.c ****     return img->offset.x;
 489:Drivers/lvgl/src/widgets/image/lv_image.c **** }
 490:Drivers/lvgl/src/widgets/image/lv_image.c **** 
 491:Drivers/lvgl/src/widgets/image/lv_image.c **** int32_t lv_image_get_offset_y(lv_obj_t * obj)
 492:Drivers/lvgl/src/widgets/image/lv_image.c **** {
 493:Drivers/lvgl/src/widgets/image/lv_image.c ****     LV_ASSERT_OBJ(obj, MY_CLASS);
 494:Drivers/lvgl/src/widgets/image/lv_image.c **** 
 495:Drivers/lvgl/src/widgets/image/lv_image.c ****     lv_image_t * img = (lv_image_t *)obj;
 496:Drivers/lvgl/src/widgets/image/lv_image.c **** 
 497:Drivers/lvgl/src/widgets/image/lv_image.c ****     return img->offset.y;
 498:Drivers/lvgl/src/widgets/image/lv_image.c **** }
 499:Drivers/lvgl/src/widgets/image/lv_image.c **** 
 500:Drivers/lvgl/src/widgets/image/lv_image.c **** int32_t lv_image_get_rotation(lv_obj_t * obj)
 501:Drivers/lvgl/src/widgets/image/lv_image.c **** {
 502:Drivers/lvgl/src/widgets/image/lv_image.c ****     LV_ASSERT_OBJ(obj, MY_CLASS);
 503:Drivers/lvgl/src/widgets/image/lv_image.c **** 
 504:Drivers/lvgl/src/widgets/image/lv_image.c ****     lv_image_t * img = (lv_image_t *)obj;
 505:Drivers/lvgl/src/widgets/image/lv_image.c **** 
 506:Drivers/lvgl/src/widgets/image/lv_image.c ****     return img->rotation;
 507:Drivers/lvgl/src/widgets/image/lv_image.c **** }
 508:Drivers/lvgl/src/widgets/image/lv_image.c **** 
 509:Drivers/lvgl/src/widgets/image/lv_image.c **** void lv_image_get_pivot(lv_obj_t * obj, lv_point_t * pivot)
 510:Drivers/lvgl/src/widgets/image/lv_image.c **** {
 511:Drivers/lvgl/src/widgets/image/lv_image.c ****     LV_ASSERT_OBJ(obj, MY_CLASS);
 512:Drivers/lvgl/src/widgets/image/lv_image.c **** 
 513:Drivers/lvgl/src/widgets/image/lv_image.c ****     lv_image_t * img = (lv_image_t *)obj;
 514:Drivers/lvgl/src/widgets/image/lv_image.c **** 
 515:Drivers/lvgl/src/widgets/image/lv_image.c ****     pivot->x = lv_pct_to_px(img->pivot.x, img->w);
 516:Drivers/lvgl/src/widgets/image/lv_image.c ****     pivot->y = lv_pct_to_px(img->pivot.y, img->h);
 517:Drivers/lvgl/src/widgets/image/lv_image.c **** }
 518:Drivers/lvgl/src/widgets/image/lv_image.c **** 
 519:Drivers/lvgl/src/widgets/image/lv_image.c **** int32_t lv_image_get_scale(lv_obj_t * obj)
 520:Drivers/lvgl/src/widgets/image/lv_image.c **** {
 521:Drivers/lvgl/src/widgets/image/lv_image.c ****     LV_ASSERT_OBJ(obj, MY_CLASS);
 522:Drivers/lvgl/src/widgets/image/lv_image.c **** 
 523:Drivers/lvgl/src/widgets/image/lv_image.c ****     lv_image_t * img = (lv_image_t *)obj;
 524:Drivers/lvgl/src/widgets/image/lv_image.c **** 
 525:Drivers/lvgl/src/widgets/image/lv_image.c ****     return img->scale_x;
 526:Drivers/lvgl/src/widgets/image/lv_image.c **** }
 527:Drivers/lvgl/src/widgets/image/lv_image.c **** 
 528:Drivers/lvgl/src/widgets/image/lv_image.c **** int32_t lv_image_get_scale_x(lv_obj_t * obj)
 529:Drivers/lvgl/src/widgets/image/lv_image.c **** {
 530:Drivers/lvgl/src/widgets/image/lv_image.c ****     LV_ASSERT_OBJ(obj, MY_CLASS);
 531:Drivers/lvgl/src/widgets/image/lv_image.c **** 
 532:Drivers/lvgl/src/widgets/image/lv_image.c ****     lv_image_t * img = (lv_image_t *)obj;
 533:Drivers/lvgl/src/widgets/image/lv_image.c **** 
 534:Drivers/lvgl/src/widgets/image/lv_image.c ****     return img->scale_x;
 535:Drivers/lvgl/src/widgets/image/lv_image.c **** }
 536:Drivers/lvgl/src/widgets/image/lv_image.c **** 
 537:Drivers/lvgl/src/widgets/image/lv_image.c **** int32_t lv_image_get_scale_y(lv_obj_t * obj)
 538:Drivers/lvgl/src/widgets/image/lv_image.c **** {
 539:Drivers/lvgl/src/widgets/image/lv_image.c ****     LV_ASSERT_OBJ(obj, MY_CLASS);
 540:Drivers/lvgl/src/widgets/image/lv_image.c **** 
 541:Drivers/lvgl/src/widgets/image/lv_image.c ****     lv_image_t * img = (lv_image_t *)obj;
 542:Drivers/lvgl/src/widgets/image/lv_image.c **** 
 543:Drivers/lvgl/src/widgets/image/lv_image.c ****     return img->scale_y;
ARM GAS  /tmp/cc58L00o.s 			page 11


 544:Drivers/lvgl/src/widgets/image/lv_image.c **** }
 545:Drivers/lvgl/src/widgets/image/lv_image.c **** 
 546:Drivers/lvgl/src/widgets/image/lv_image.c **** lv_blend_mode_t lv_image_get_blend_mode(lv_obj_t * obj)
 547:Drivers/lvgl/src/widgets/image/lv_image.c **** {
 548:Drivers/lvgl/src/widgets/image/lv_image.c ****     LV_ASSERT_OBJ(obj, MY_CLASS);
 549:Drivers/lvgl/src/widgets/image/lv_image.c **** 
 550:Drivers/lvgl/src/widgets/image/lv_image.c ****     lv_image_t * img = (lv_image_t *)obj;
 551:Drivers/lvgl/src/widgets/image/lv_image.c **** 
 552:Drivers/lvgl/src/widgets/image/lv_image.c ****     return img->blend_mode;
 553:Drivers/lvgl/src/widgets/image/lv_image.c **** }
 554:Drivers/lvgl/src/widgets/image/lv_image.c **** 
 555:Drivers/lvgl/src/widgets/image/lv_image.c **** bool lv_image_get_antialias(lv_obj_t * obj)
 556:Drivers/lvgl/src/widgets/image/lv_image.c **** {
 557:Drivers/lvgl/src/widgets/image/lv_image.c ****     LV_ASSERT_OBJ(obj, MY_CLASS);
 558:Drivers/lvgl/src/widgets/image/lv_image.c **** 
 559:Drivers/lvgl/src/widgets/image/lv_image.c ****     lv_image_t * img = (lv_image_t *)obj;
 560:Drivers/lvgl/src/widgets/image/lv_image.c **** 
 561:Drivers/lvgl/src/widgets/image/lv_image.c ****     return img->antialias ? true : false;
 562:Drivers/lvgl/src/widgets/image/lv_image.c **** }
 563:Drivers/lvgl/src/widgets/image/lv_image.c **** 
 564:Drivers/lvgl/src/widgets/image/lv_image.c **** lv_image_align_t lv_image_get_inner_align(lv_obj_t * obj)
 565:Drivers/lvgl/src/widgets/image/lv_image.c **** {
 566:Drivers/lvgl/src/widgets/image/lv_image.c ****     LV_ASSERT_OBJ(obj, MY_CLASS);
 567:Drivers/lvgl/src/widgets/image/lv_image.c **** 
 568:Drivers/lvgl/src/widgets/image/lv_image.c ****     lv_image_t * img = (lv_image_t *)obj;
 569:Drivers/lvgl/src/widgets/image/lv_image.c **** 
 570:Drivers/lvgl/src/widgets/image/lv_image.c ****     return img->align;
 571:Drivers/lvgl/src/widgets/image/lv_image.c **** }
 572:Drivers/lvgl/src/widgets/image/lv_image.c **** 
 573:Drivers/lvgl/src/widgets/image/lv_image.c **** const lv_image_dsc_t * lv_image_get_bitmap_map_src(lv_obj_t * obj)
 574:Drivers/lvgl/src/widgets/image/lv_image.c **** {
 575:Drivers/lvgl/src/widgets/image/lv_image.c ****     LV_ASSERT_OBJ(obj, MY_CLASS);
 576:Drivers/lvgl/src/widgets/image/lv_image.c **** 
 577:Drivers/lvgl/src/widgets/image/lv_image.c ****     lv_image_t * img = (lv_image_t *)obj;
 578:Drivers/lvgl/src/widgets/image/lv_image.c **** 
 579:Drivers/lvgl/src/widgets/image/lv_image.c ****     return img->bitmap_mask_src;
 580:Drivers/lvgl/src/widgets/image/lv_image.c **** }
 581:Drivers/lvgl/src/widgets/image/lv_image.c **** 
 582:Drivers/lvgl/src/widgets/image/lv_image.c **** /**********************
 583:Drivers/lvgl/src/widgets/image/lv_image.c ****  *   STATIC FUNCTIONS
 584:Drivers/lvgl/src/widgets/image/lv_image.c ****  **********************/
 585:Drivers/lvgl/src/widgets/image/lv_image.c **** 
 586:Drivers/lvgl/src/widgets/image/lv_image.c **** static void lv_image_constructor(const lv_obj_class_t * class_p, lv_obj_t * obj)
 587:Drivers/lvgl/src/widgets/image/lv_image.c **** {
 588:Drivers/lvgl/src/widgets/image/lv_image.c ****     LV_UNUSED(class_p);
 589:Drivers/lvgl/src/widgets/image/lv_image.c ****     LV_TRACE_OBJ_CREATE("begin");
 590:Drivers/lvgl/src/widgets/image/lv_image.c **** 
 591:Drivers/lvgl/src/widgets/image/lv_image.c ****     lv_image_t * img = (lv_image_t *)obj;
 592:Drivers/lvgl/src/widgets/image/lv_image.c **** 
 593:Drivers/lvgl/src/widgets/image/lv_image.c ****     img->src       = NULL;
 594:Drivers/lvgl/src/widgets/image/lv_image.c ****     img->src_type  = LV_IMAGE_SRC_UNKNOWN;
 595:Drivers/lvgl/src/widgets/image/lv_image.c ****     img->cf        = LV_COLOR_FORMAT_UNKNOWN;
 596:Drivers/lvgl/src/widgets/image/lv_image.c ****     img->w         = lv_obj_get_width(obj);
 597:Drivers/lvgl/src/widgets/image/lv_image.c ****     img->h         = lv_obj_get_height(obj);
 598:Drivers/lvgl/src/widgets/image/lv_image.c ****     img->rotation     = 0;
 599:Drivers/lvgl/src/widgets/image/lv_image.c ****     img->scale_x      = LV_SCALE_NONE;
 600:Drivers/lvgl/src/widgets/image/lv_image.c ****     img->scale_y      = LV_SCALE_NONE;
ARM GAS  /tmp/cc58L00o.s 			page 12


 601:Drivers/lvgl/src/widgets/image/lv_image.c ****     img->antialias = LV_COLOR_DEPTH > 8 ? 1 : 0;
 602:Drivers/lvgl/src/widgets/image/lv_image.c ****     lv_point_set(&img->offset, 0, 0);
 603:Drivers/lvgl/src/widgets/image/lv_image.c ****     lv_point_set(&img->pivot, LV_PCT(50), LV_PCT(50)); /*Default pivot to image center*/
 604:Drivers/lvgl/src/widgets/image/lv_image.c ****     img->align     = LV_IMAGE_ALIGN_CENTER;
 605:Drivers/lvgl/src/widgets/image/lv_image.c **** 
 606:Drivers/lvgl/src/widgets/image/lv_image.c ****     lv_obj_remove_flag(obj, LV_OBJ_FLAG_CLICKABLE);
 607:Drivers/lvgl/src/widgets/image/lv_image.c ****     lv_obj_add_flag(obj, LV_OBJ_FLAG_ADV_HITTEST);
 608:Drivers/lvgl/src/widgets/image/lv_image.c **** 
 609:Drivers/lvgl/src/widgets/image/lv_image.c ****     LV_TRACE_OBJ_CREATE("finished");
 610:Drivers/lvgl/src/widgets/image/lv_image.c **** }
 611:Drivers/lvgl/src/widgets/image/lv_image.c **** 
 612:Drivers/lvgl/src/widgets/image/lv_image.c **** static void lv_image_destructor(const lv_obj_class_t * class_p, lv_obj_t * obj)
 613:Drivers/lvgl/src/widgets/image/lv_image.c **** {
  29              		.loc 1 613 1 view -0
  30              		.cfi_startproc
  31              		@ args = 0, pretend = 0, frame = 0
  32              		@ frame_needed = 0, uses_anonymous_args = 0
 614:Drivers/lvgl/src/widgets/image/lv_image.c ****     LV_UNUSED(class_p);
  33              		.loc 1 614 5 view .LVU1
 615:Drivers/lvgl/src/widgets/image/lv_image.c ****     lv_image_t * img = (lv_image_t *)obj;
  34              		.loc 1 615 5 view .LVU2
 616:Drivers/lvgl/src/widgets/image/lv_image.c ****     if(img->src_type == LV_IMAGE_SRC_FILE || img->src_type == LV_IMAGE_SRC_SYMBOL) {
  35              		.loc 1 616 5 view .LVU3
  36              		.loc 1 616 22 is_stmt 0 view .LVU4
  37 0000 91F85830 		ldrb	r3, [r1, #88]	@ zero_extendqisi2
  38              		.loc 1 616 43 view .LVU5
  39 0004 03F00303 		and	r3, r3, #3
  40 0008 013B     		subs	r3, r3, #1
  41 000a DBB2     		uxtb	r3, r3
  42              		.loc 1 616 7 view .LVU6
  43 000c 012B     		cmp	r3, #1
  44 000e 00D9     		bls	.L7
  45 0010 7047     		bx	lr
  46              	.L7:
 613:Drivers/lvgl/src/widgets/image/lv_image.c ****     LV_UNUSED(class_p);
  47              		.loc 1 613 1 view .LVU7
  48 0012 10B5     		push	{r4, lr}
  49              	.LCFI0:
  50              		.cfi_def_cfa_offset 8
  51              		.cfi_offset 4, -8
  52              		.cfi_offset 14, -4
  53 0014 0C46     		mov	r4, r1
 617:Drivers/lvgl/src/widgets/image/lv_image.c ****         lv_free((void *)img->src);
  54              		.loc 1 617 9 is_stmt 1 view .LVU8
  55 0016 C86A     		ldr	r0, [r1, #44]
  56              	.LVL1:
  57              		.loc 1 617 9 is_stmt 0 view .LVU9
  58 0018 FFF7FEFF 		bl	lv_free
  59              	.LVL2:
 618:Drivers/lvgl/src/widgets/image/lv_image.c ****         img->src      = NULL;
  60              		.loc 1 618 9 is_stmt 1 view .LVU10
  61              		.loc 1 618 23 is_stmt 0 view .LVU11
  62 001c 0023     		movs	r3, #0
  63 001e E362     		str	r3, [r4, #44]
 619:Drivers/lvgl/src/widgets/image/lv_image.c ****         img->src_type = LV_IMAGE_SRC_UNKNOWN;
  64              		.loc 1 619 9 is_stmt 1 view .LVU12
  65              		.loc 1 619 23 is_stmt 0 view .LVU13
ARM GAS  /tmp/cc58L00o.s 			page 13


  66 0020 94F85830 		ldrb	r3, [r4, #88]	@ zero_extendqisi2
  67 0024 43F00303 		orr	r3, r3, #3
  68 0028 84F85830 		strb	r3, [r4, #88]
 620:Drivers/lvgl/src/widgets/image/lv_image.c ****     }
 621:Drivers/lvgl/src/widgets/image/lv_image.c **** }
  69              		.loc 1 621 1 view .LVU14
  70 002c 10BD     		pop	{r4, pc}
  71              		.loc 1 621 1 view .LVU15
  72              		.cfi_endproc
  73              	.LFE212:
  75              		.section	.text.lv_image_constructor,"ax",%progbits
  76              		.align	1
  77              		.syntax unified
  78              		.thumb
  79              		.thumb_func
  81              	lv_image_constructor:
  82              	.LVL3:
  83              	.LFB211:
 587:Drivers/lvgl/src/widgets/image/lv_image.c ****     LV_UNUSED(class_p);
  84              		.loc 1 587 1 is_stmt 1 view -0
  85              		.cfi_startproc
  86              		@ args = 0, pretend = 0, frame = 0
  87              		@ frame_needed = 0, uses_anonymous_args = 0
 587:Drivers/lvgl/src/widgets/image/lv_image.c ****     LV_UNUSED(class_p);
  88              		.loc 1 587 1 is_stmt 0 view .LVU17
  89 0000 38B5     		push	{r3, r4, r5, lr}
  90              	.LCFI1:
  91              		.cfi_def_cfa_offset 16
  92              		.cfi_offset 3, -16
  93              		.cfi_offset 4, -12
  94              		.cfi_offset 5, -8
  95              		.cfi_offset 14, -4
  96 0002 0C46     		mov	r4, r1
 588:Drivers/lvgl/src/widgets/image/lv_image.c ****     LV_TRACE_OBJ_CREATE("begin");
  97              		.loc 1 588 5 is_stmt 1 view .LVU18
 589:Drivers/lvgl/src/widgets/image/lv_image.c **** 
  98              		.loc 1 589 33 view .LVU19
 591:Drivers/lvgl/src/widgets/image/lv_image.c **** 
  99              		.loc 1 591 5 view .LVU20
 100              	.LVL4:
 593:Drivers/lvgl/src/widgets/image/lv_image.c ****     img->src_type  = LV_IMAGE_SRC_UNKNOWN;
 101              		.loc 1 593 5 view .LVU21
 593:Drivers/lvgl/src/widgets/image/lv_image.c ****     img->src_type  = LV_IMAGE_SRC_UNKNOWN;
 102              		.loc 1 593 20 is_stmt 0 view .LVU22
 103 0004 0025     		movs	r5, #0
 104 0006 CD62     		str	r5, [r1, #44]
 594:Drivers/lvgl/src/widgets/image/lv_image.c ****     img->cf        = LV_COLOR_FORMAT_UNKNOWN;
 105              		.loc 1 594 5 is_stmt 1 view .LVU23
 594:Drivers/lvgl/src/widgets/image/lv_image.c ****     img->cf        = LV_COLOR_FORMAT_UNKNOWN;
 106              		.loc 1 594 20 is_stmt 0 view .LVU24
 107 0008 91F85830 		ldrb	r3, [r1, #88]	@ zero_extendqisi2
 108 000c 43F00303 		orr	r3, r3, #3
 109 0010 81F85830 		strb	r3, [r1, #88]
 595:Drivers/lvgl/src/widgets/image/lv_image.c ****     img->w         = lv_obj_get_width(obj);
 110              		.loc 1 595 5 is_stmt 1 view .LVU25
 595:Drivers/lvgl/src/widgets/image/lv_image.c ****     img->w         = lv_obj_get_width(obj);
 111              		.loc 1 595 20 is_stmt 0 view .LVU26
ARM GAS  /tmp/cc58L00o.s 			page 14


 112 0014 DBB2     		uxtb	r3, r3
 113 0016 65F38603 		bfi	r3, r5, #2, #5
 114 001a 81F85830 		strb	r3, [r1, #88]
 596:Drivers/lvgl/src/widgets/image/lv_image.c ****     img->h         = lv_obj_get_height(obj);
 115              		.loc 1 596 5 is_stmt 1 view .LVU27
 596:Drivers/lvgl/src/widgets/image/lv_image.c ****     img->h         = lv_obj_get_height(obj);
 116              		.loc 1 596 22 is_stmt 0 view .LVU28
 117 001e 0846     		mov	r0, r1
 118              	.LVL5:
 596:Drivers/lvgl/src/widgets/image/lv_image.c ****     img->h         = lv_obj_get_height(obj);
 119              		.loc 1 596 22 view .LVU29
 120 0020 FFF7FEFF 		bl	lv_obj_get_width
 121              	.LVL6:
 596:Drivers/lvgl/src/widgets/image/lv_image.c ****     img->h         = lv_obj_get_height(obj);
 122              		.loc 1 596 20 discriminator 1 view .LVU30
 123 0024 E063     		str	r0, [r4, #60]
 597:Drivers/lvgl/src/widgets/image/lv_image.c ****     img->rotation     = 0;
 124              		.loc 1 597 5 is_stmt 1 view .LVU31
 597:Drivers/lvgl/src/widgets/image/lv_image.c ****     img->rotation     = 0;
 125              		.loc 1 597 22 is_stmt 0 view .LVU32
 126 0026 2046     		mov	r0, r4
 127 0028 FFF7FEFF 		bl	lv_obj_get_height
 128              	.LVL7:
 597:Drivers/lvgl/src/widgets/image/lv_image.c ****     img->rotation     = 0;
 129              		.loc 1 597 20 discriminator 1 view .LVU33
 130 002c 2064     		str	r0, [r4, #64]
 598:Drivers/lvgl/src/widgets/image/lv_image.c ****     img->scale_x      = LV_SCALE_NONE;
 131              		.loc 1 598 5 is_stmt 1 view .LVU34
 598:Drivers/lvgl/src/widgets/image/lv_image.c ****     img->scale_x      = LV_SCALE_NONE;
 132              		.loc 1 598 23 is_stmt 0 view .LVU35
 133 002e 6564     		str	r5, [r4, #68]
 599:Drivers/lvgl/src/widgets/image/lv_image.c ****     img->scale_y      = LV_SCALE_NONE;
 134              		.loc 1 599 5 is_stmt 1 view .LVU36
 599:Drivers/lvgl/src/widgets/image/lv_image.c ****     img->scale_y      = LV_SCALE_NONE;
 135              		.loc 1 599 23 is_stmt 0 view .LVU37
 136 0030 4FF48073 		mov	r3, #256
 137 0034 A364     		str	r3, [r4, #72]
 600:Drivers/lvgl/src/widgets/image/lv_image.c ****     img->antialias = LV_COLOR_DEPTH > 8 ? 1 : 0;
 138              		.loc 1 600 5 is_stmt 1 view .LVU38
 600:Drivers/lvgl/src/widgets/image/lv_image.c ****     img->antialias = LV_COLOR_DEPTH > 8 ? 1 : 0;
 139              		.loc 1 600 23 is_stmt 0 view .LVU39
 140 0036 E364     		str	r3, [r4, #76]
 601:Drivers/lvgl/src/widgets/image/lv_image.c ****     lv_point_set(&img->offset, 0, 0);
 141              		.loc 1 601 5 is_stmt 1 view .LVU40
 601:Drivers/lvgl/src/widgets/image/lv_image.c ****     lv_point_set(&img->offset, 0, 0);
 142              		.loc 1 601 20 is_stmt 0 view .LVU41
 143 0038 94F85830 		ldrb	r3, [r4, #88]	@ zero_extendqisi2
 144 003c 43F08003 		orr	r3, r3, #128
 145 0040 84F85830 		strb	r3, [r4, #88]
 602:Drivers/lvgl/src/widgets/image/lv_image.c ****     lv_point_set(&img->pivot, LV_PCT(50), LV_PCT(50)); /*Default pivot to image center*/
 146              		.loc 1 602 5 is_stmt 1 view .LVU42
 147 0044 2A46     		mov	r2, r5
 148 0046 2946     		mov	r1, r5
 149 0048 04F13400 		add	r0, r4, #52
 150 004c FFF7FEFF 		bl	lv_point_set
 151              	.LVL8:
 603:Drivers/lvgl/src/widgets/image/lv_image.c ****     img->align     = LV_IMAGE_ALIGN_CENTER;
ARM GAS  /tmp/cc58L00o.s 			page 15


 152              		.loc 1 603 5 view .LVU43
 153 0050 0B49     		ldr	r1, .L10
 154 0052 0A46     		mov	r2, r1
 155 0054 04F15000 		add	r0, r4, #80
 156 0058 FFF7FEFF 		bl	lv_point_set
 157              	.LVL9:
 604:Drivers/lvgl/src/widgets/image/lv_image.c **** 
 158              		.loc 1 604 5 view .LVU44
 604:Drivers/lvgl/src/widgets/image/lv_image.c **** 
 159              		.loc 1 604 20 is_stmt 0 view .LVU45
 160 005c 94F85930 		ldrb	r3, [r4, #89]	@ zero_extendqisi2
 161 0060 0922     		movs	r2, #9
 162 0062 62F30303 		bfi	r3, r2, #0, #4
 163 0066 84F85930 		strb	r3, [r4, #89]
 606:Drivers/lvgl/src/widgets/image/lv_image.c ****     lv_obj_add_flag(obj, LV_OBJ_FLAG_ADV_HITTEST);
 164              		.loc 1 606 5 is_stmt 1 view .LVU46
 165 006a 0221     		movs	r1, #2
 166 006c 2046     		mov	r0, r4
 167 006e FFF7FEFF 		bl	lv_obj_remove_flag
 168              	.LVL10:
 607:Drivers/lvgl/src/widgets/image/lv_image.c **** 
 169              		.loc 1 607 5 view .LVU47
 170 0072 4FF48031 		mov	r1, #65536
 171 0076 2046     		mov	r0, r4
 172 0078 FFF7FEFF 		bl	lv_obj_add_flag
 173              	.LVL11:
 609:Drivers/lvgl/src/widgets/image/lv_image.c **** }
 174              		.loc 1 609 36 view .LVU48
 610:Drivers/lvgl/src/widgets/image/lv_image.c **** 
 175              		.loc 1 610 1 is_stmt 0 view .LVU49
 176 007c 38BD     		pop	{r3, r4, r5, pc}
 177              	.LVL12:
 178              	.L11:
 610:Drivers/lvgl/src/widgets/image/lv_image.c **** 
 179              		.loc 1 610 1 view .LVU50
 180 007e 00BF     		.align	2
 181              	.L10:
 182 0080 32000020 		.word	536870962
 183              		.cfi_endproc
 184              	.LFE211:
 186              		.section	.text.lv_image_create,"ax",%progbits
 187              		.align	1
 188              		.global	lv_image_create
 189              		.syntax unified
 190              		.thumb
 191              		.thumb_func
 193              	lv_image_create:
 194              	.LVL13:
 195              	.LFB186:
 140:Drivers/lvgl/src/widgets/image/lv_image.c ****     LV_LOG_INFO("begin");
 196              		.loc 1 140 1 is_stmt 1 view -0
 197              		.cfi_startproc
 198              		@ args = 0, pretend = 0, frame = 0
 199              		@ frame_needed = 0, uses_anonymous_args = 0
 140:Drivers/lvgl/src/widgets/image/lv_image.c ****     LV_LOG_INFO("begin");
 200              		.loc 1 140 1 is_stmt 0 view .LVU52
 201 0000 10B5     		push	{r4, lr}
ARM GAS  /tmp/cc58L00o.s 			page 16


 202              	.LCFI2:
 203              		.cfi_def_cfa_offset 8
 204              		.cfi_offset 4, -8
 205              		.cfi_offset 14, -4
 206 0002 0146     		mov	r1, r0
 141:Drivers/lvgl/src/widgets/image/lv_image.c ****     lv_obj_t * obj = lv_obj_class_create_obj(MY_CLASS, parent);
 207              		.loc 1 141 5 is_stmt 1 view .LVU53
 141:Drivers/lvgl/src/widgets/image/lv_image.c ****     lv_obj_t * obj = lv_obj_class_create_obj(MY_CLASS, parent);
 208              		.loc 1 141 5 view .LVU54
 141:Drivers/lvgl/src/widgets/image/lv_image.c ****     lv_obj_t * obj = lv_obj_class_create_obj(MY_CLASS, parent);
 209              		.loc 1 141 5 view .LVU55
 142:Drivers/lvgl/src/widgets/image/lv_image.c ****     lv_obj_class_init_obj(obj);
 210              		.loc 1 142 5 view .LVU56
 142:Drivers/lvgl/src/widgets/image/lv_image.c ****     lv_obj_class_init_obj(obj);
 211              		.loc 1 142 22 is_stmt 0 view .LVU57
 212 0004 0348     		ldr	r0, .L14
 213              	.LVL14:
 142:Drivers/lvgl/src/widgets/image/lv_image.c ****     lv_obj_class_init_obj(obj);
 214              		.loc 1 142 22 view .LVU58
 215 0006 FFF7FEFF 		bl	lv_obj_class_create_obj
 216              	.LVL15:
 142:Drivers/lvgl/src/widgets/image/lv_image.c ****     lv_obj_class_init_obj(obj);
 217              		.loc 1 142 22 view .LVU59
 218 000a 0446     		mov	r4, r0
 219              	.LVL16:
 143:Drivers/lvgl/src/widgets/image/lv_image.c ****     return obj;
 220              		.loc 1 143 5 is_stmt 1 view .LVU60
 221 000c FFF7FEFF 		bl	lv_obj_class_init_obj
 222              	.LVL17:
 144:Drivers/lvgl/src/widgets/image/lv_image.c **** }
 223              		.loc 1 144 5 view .LVU61
 145:Drivers/lvgl/src/widgets/image/lv_image.c **** 
 224              		.loc 1 145 1 is_stmt 0 view .LVU62
 225 0010 2046     		mov	r0, r4
 226 0012 10BD     		pop	{r4, pc}
 227              	.LVL18:
 228              	.L15:
 145:Drivers/lvgl/src/widgets/image/lv_image.c **** 
 229              		.loc 1 145 1 view .LVU63
 230              		.align	2
 231              	.L14:
 232 0014 00000000 		.word	lv_image_class
 233              		.cfi_endproc
 234              	.LFE186:
 236              		.section	.text.lv_image_set_offset_x,"ax",%progbits
 237              		.align	1
 238              		.global	lv_image_set_offset_x
 239              		.syntax unified
 240              		.thumb
 241              		.thumb_func
 243              	lv_image_set_offset_x:
 244              	.LVL19:
 245              	.LFB188:
 263:Drivers/lvgl/src/widgets/image/lv_image.c ****     LV_ASSERT_OBJ(obj, MY_CLASS);
 246              		.loc 1 263 1 is_stmt 1 view -0
 247              		.cfi_startproc
 248              		@ args = 0, pretend = 0, frame = 0
ARM GAS  /tmp/cc58L00o.s 			page 17


 249              		@ frame_needed = 0, uses_anonymous_args = 0
 264:Drivers/lvgl/src/widgets/image/lv_image.c **** 
 250              		.loc 1 264 5 view .LVU65
 264:Drivers/lvgl/src/widgets/image/lv_image.c **** 
 251              		.loc 1 264 5 view .LVU66
 252 0000 20B1     		cbz	r0, .L18
 263:Drivers/lvgl/src/widgets/image/lv_image.c ****     LV_ASSERT_OBJ(obj, MY_CLASS);
 253              		.loc 1 263 1 is_stmt 0 view .LVU67
 254 0002 08B5     		push	{r3, lr}
 255              	.LCFI3:
 256              		.cfi_def_cfa_offset 8
 257              		.cfi_offset 3, -8
 258              		.cfi_offset 14, -4
 264:Drivers/lvgl/src/widgets/image/lv_image.c **** 
 259              		.loc 1 264 5 is_stmt 1 discriminator 2 view .LVU68
 264:Drivers/lvgl/src/widgets/image/lv_image.c **** 
 260              		.loc 1 264 33 discriminator 2 view .LVU69
 266:Drivers/lvgl/src/widgets/image/lv_image.c **** 
 261              		.loc 1 266 5 view .LVU70
 262              	.LVL20:
 268:Drivers/lvgl/src/widgets/image/lv_image.c ****     lv_obj_invalidate(obj);
 263              		.loc 1 268 5 view .LVU71
 268:Drivers/lvgl/src/widgets/image/lv_image.c ****     lv_obj_invalidate(obj);
 264              		.loc 1 268 19 is_stmt 0 view .LVU72
 265 0004 4163     		str	r1, [r0, #52]
 269:Drivers/lvgl/src/widgets/image/lv_image.c **** }
 266              		.loc 1 269 5 is_stmt 1 view .LVU73
 267 0006 FFF7FEFF 		bl	lv_obj_invalidate
 268              	.LVL21:
 270:Drivers/lvgl/src/widgets/image/lv_image.c **** 
 269              		.loc 1 270 1 is_stmt 0 view .LVU74
 270 000a 08BD     		pop	{r3, pc}
 271              	.LVL22:
 272              	.L18:
 273              	.LCFI4:
 274              		.cfi_def_cfa_offset 0
 275              		.cfi_restore 3
 276              		.cfi_restore 14
 264:Drivers/lvgl/src/widgets/image/lv_image.c **** 
 277              		.loc 1 264 5 is_stmt 1 discriminator 1 view .LVU75
 264:Drivers/lvgl/src/widgets/image/lv_image.c **** 
 278              		.loc 1 264 5 discriminator 1 view .LVU76
 264:Drivers/lvgl/src/widgets/image/lv_image.c **** 
 279              		.loc 1 264 5 discriminator 1 view .LVU77
 264:Drivers/lvgl/src/widgets/image/lv_image.c **** 
 280              		.loc 1 264 5 discriminator 1 view .LVU78
 264:Drivers/lvgl/src/widgets/image/lv_image.c **** 
 281              		.loc 1 264 5 discriminator 1 view .LVU79
 282 000c FEE7     		b	.L18
 283              		.cfi_endproc
 284              	.LFE188:
 286              		.section	.text.lv_image_set_offset_y,"ax",%progbits
 287              		.align	1
 288              		.global	lv_image_set_offset_y
 289              		.syntax unified
 290              		.thumb
 291              		.thumb_func
ARM GAS  /tmp/cc58L00o.s 			page 18


 293              	lv_image_set_offset_y:
 294              	.LVL23:
 295              	.LFB189:
 273:Drivers/lvgl/src/widgets/image/lv_image.c ****     LV_ASSERT_OBJ(obj, MY_CLASS);
 296              		.loc 1 273 1 view -0
 297              		.cfi_startproc
 298              		@ args = 0, pretend = 0, frame = 0
 299              		@ frame_needed = 0, uses_anonymous_args = 0
 274:Drivers/lvgl/src/widgets/image/lv_image.c **** 
 300              		.loc 1 274 5 view .LVU81
 274:Drivers/lvgl/src/widgets/image/lv_image.c **** 
 301              		.loc 1 274 5 view .LVU82
 302 0000 20B1     		cbz	r0, .L23
 273:Drivers/lvgl/src/widgets/image/lv_image.c ****     LV_ASSERT_OBJ(obj, MY_CLASS);
 303              		.loc 1 273 1 is_stmt 0 view .LVU83
 304 0002 08B5     		push	{r3, lr}
 305              	.LCFI5:
 306              		.cfi_def_cfa_offset 8
 307              		.cfi_offset 3, -8
 308              		.cfi_offset 14, -4
 274:Drivers/lvgl/src/widgets/image/lv_image.c **** 
 309              		.loc 1 274 5 is_stmt 1 discriminator 2 view .LVU84
 274:Drivers/lvgl/src/widgets/image/lv_image.c **** 
 310              		.loc 1 274 33 discriminator 2 view .LVU85
 276:Drivers/lvgl/src/widgets/image/lv_image.c **** 
 311              		.loc 1 276 5 view .LVU86
 312              	.LVL24:
 278:Drivers/lvgl/src/widgets/image/lv_image.c ****     lv_obj_invalidate(obj);
 313              		.loc 1 278 5 view .LVU87
 278:Drivers/lvgl/src/widgets/image/lv_image.c ****     lv_obj_invalidate(obj);
 314              		.loc 1 278 19 is_stmt 0 view .LVU88
 315 0004 8163     		str	r1, [r0, #56]
 279:Drivers/lvgl/src/widgets/image/lv_image.c **** }
 316              		.loc 1 279 5 is_stmt 1 view .LVU89
 317 0006 FFF7FEFF 		bl	lv_obj_invalidate
 318              	.LVL25:
 280:Drivers/lvgl/src/widgets/image/lv_image.c **** 
 319              		.loc 1 280 1 is_stmt 0 view .LVU90
 320 000a 08BD     		pop	{r3, pc}
 321              	.LVL26:
 322              	.L23:
 323              	.LCFI6:
 324              		.cfi_def_cfa_offset 0
 325              		.cfi_restore 3
 326              		.cfi_restore 14
 274:Drivers/lvgl/src/widgets/image/lv_image.c **** 
 327              		.loc 1 274 5 is_stmt 1 discriminator 1 view .LVU91
 274:Drivers/lvgl/src/widgets/image/lv_image.c **** 
 328              		.loc 1 274 5 discriminator 1 view .LVU92
 274:Drivers/lvgl/src/widgets/image/lv_image.c **** 
 329              		.loc 1 274 5 discriminator 1 view .LVU93
 274:Drivers/lvgl/src/widgets/image/lv_image.c **** 
 330              		.loc 1 274 5 discriminator 1 view .LVU94
 274:Drivers/lvgl/src/widgets/image/lv_image.c **** 
 331              		.loc 1 274 5 discriminator 1 view .LVU95
 332 000c FEE7     		b	.L23
 333              		.cfi_endproc
ARM GAS  /tmp/cc58L00o.s 			page 19


 334              	.LFE189:
 336              		.section	.text.lv_image_set_blend_mode,"ax",%progbits
 337              		.align	1
 338              		.global	lv_image_set_blend_mode
 339              		.syntax unified
 340              		.thumb
 341              		.thumb_func
 343              	lv_image_set_blend_mode:
 344              	.LVL27:
 345              	.LFB195:
 419:Drivers/lvgl/src/widgets/image/lv_image.c ****     LV_ASSERT_OBJ(obj, MY_CLASS);
 346              		.loc 1 419 1 view -0
 347              		.cfi_startproc
 348              		@ args = 0, pretend = 0, frame = 0
 349              		@ frame_needed = 0, uses_anonymous_args = 0
 420:Drivers/lvgl/src/widgets/image/lv_image.c **** 
 350              		.loc 1 420 5 view .LVU97
 420:Drivers/lvgl/src/widgets/image/lv_image.c **** 
 351              		.loc 1 420 5 view .LVU98
 352 0000 70B1     		cbz	r0, .L28
 419:Drivers/lvgl/src/widgets/image/lv_image.c ****     LV_ASSERT_OBJ(obj, MY_CLASS);
 353              		.loc 1 419 1 is_stmt 0 view .LVU99
 354 0002 08B5     		push	{r3, lr}
 355              	.LCFI7:
 356              		.cfi_def_cfa_offset 8
 357              		.cfi_offset 3, -8
 358              		.cfi_offset 14, -4
 420:Drivers/lvgl/src/widgets/image/lv_image.c **** 
 359              		.loc 1 420 5 is_stmt 1 discriminator 2 view .LVU100
 420:Drivers/lvgl/src/widgets/image/lv_image.c **** 
 360              		.loc 1 420 33 discriminator 2 view .LVU101
 422:Drivers/lvgl/src/widgets/image/lv_image.c **** 
 361              		.loc 1 422 5 view .LVU102
 362              	.LVL28:
 425:Drivers/lvgl/src/widgets/image/lv_image.c **** 
 363              		.loc 1 425 5 view .LVU103
 425:Drivers/lvgl/src/widgets/image/lv_image.c **** 
 364              		.loc 1 425 11 is_stmt 0 view .LVU104
 365 0004 90F85920 		ldrb	r2, [r0, #89]	@ zero_extendqisi2
 425:Drivers/lvgl/src/widgets/image/lv_image.c **** 
 366              		.loc 1 425 7 view .LVU105
 367 0008 B1EB121F 		cmp	r1, r2, lsr #4
 368 000c 07D0     		beq	.L26
 427:Drivers/lvgl/src/widgets/image/lv_image.c **** 
 369              		.loc 1 427 5 is_stmt 1 view .LVU106
 427:Drivers/lvgl/src/widgets/image/lv_image.c **** 
 370              		.loc 1 427 21 is_stmt 0 view .LVU107
 371 000e 90F85920 		ldrb	r2, [r0, #89]	@ zero_extendqisi2
 372 0012 61F30712 		bfi	r2, r1, #4, #4
 373              	.LVL29:
 427:Drivers/lvgl/src/widgets/image/lv_image.c **** 
 374              		.loc 1 427 21 view .LVU108
 375 0016 80F85920 		strb	r2, [r0, #89]
 429:Drivers/lvgl/src/widgets/image/lv_image.c **** }
 376              		.loc 1 429 5 is_stmt 1 view .LVU109
 377 001a FFF7FEFF 		bl	lv_obj_invalidate
 378              	.LVL30:
ARM GAS  /tmp/cc58L00o.s 			page 20


 379              	.L26:
 430:Drivers/lvgl/src/widgets/image/lv_image.c **** 
 380              		.loc 1 430 1 is_stmt 0 view .LVU110
 381 001e 08BD     		pop	{r3, pc}
 382              	.LVL31:
 383              	.L28:
 384              	.LCFI8:
 385              		.cfi_def_cfa_offset 0
 386              		.cfi_restore 3
 387              		.cfi_restore 14
 420:Drivers/lvgl/src/widgets/image/lv_image.c **** 
 388              		.loc 1 420 5 is_stmt 1 discriminator 1 view .LVU111
 420:Drivers/lvgl/src/widgets/image/lv_image.c **** 
 389              		.loc 1 420 5 discriminator 1 view .LVU112
 420:Drivers/lvgl/src/widgets/image/lv_image.c **** 
 390              		.loc 1 420 5 discriminator 1 view .LVU113
 420:Drivers/lvgl/src/widgets/image/lv_image.c **** 
 391              		.loc 1 420 5 discriminator 1 view .LVU114
 420:Drivers/lvgl/src/widgets/image/lv_image.c **** 
 392              		.loc 1 420 5 discriminator 1 view .LVU115
 393 0020 FEE7     		b	.L28
 394              		.cfi_endproc
 395              	.LFE195:
 397              		.section	.text.lv_image_set_antialias,"ax",%progbits
 398              		.align	1
 399              		.global	lv_image_set_antialias
 400              		.syntax unified
 401              		.thumb
 402              		.thumb_func
 404              	lv_image_set_antialias:
 405              	.LVL32:
 406              	.LFB196:
 433:Drivers/lvgl/src/widgets/image/lv_image.c ****     LV_ASSERT_OBJ(obj, MY_CLASS);
 407              		.loc 1 433 1 view -0
 408              		.cfi_startproc
 409              		@ args = 0, pretend = 0, frame = 0
 410              		@ frame_needed = 0, uses_anonymous_args = 0
 434:Drivers/lvgl/src/widgets/image/lv_image.c **** 
 411              		.loc 1 434 5 view .LVU117
 434:Drivers/lvgl/src/widgets/image/lv_image.c **** 
 412              		.loc 1 434 5 view .LVU118
 413 0000 70B1     		cbz	r0, .L34
 433:Drivers/lvgl/src/widgets/image/lv_image.c ****     LV_ASSERT_OBJ(obj, MY_CLASS);
 414              		.loc 1 433 1 is_stmt 0 view .LVU119
 415 0002 08B5     		push	{r3, lr}
 416              	.LCFI9:
 417              		.cfi_def_cfa_offset 8
 418              		.cfi_offset 3, -8
 419              		.cfi_offset 14, -4
 434:Drivers/lvgl/src/widgets/image/lv_image.c **** 
 420              		.loc 1 434 5 is_stmt 1 discriminator 2 view .LVU120
 434:Drivers/lvgl/src/widgets/image/lv_image.c **** 
 421              		.loc 1 434 33 discriminator 2 view .LVU121
 436:Drivers/lvgl/src/widgets/image/lv_image.c ****     if(antialias == img->antialias) return;
 422              		.loc 1 436 5 view .LVU122
 423              	.LVL33:
 437:Drivers/lvgl/src/widgets/image/lv_image.c **** 
ARM GAS  /tmp/cc58L00o.s 			page 21


 424              		.loc 1 437 5 view .LVU123
 437:Drivers/lvgl/src/widgets/image/lv_image.c **** 
 425              		.loc 1 437 24 is_stmt 0 view .LVU124
 426 0004 90F85820 		ldrb	r2, [r0, #88]	@ zero_extendqisi2
 437:Drivers/lvgl/src/widgets/image/lv_image.c **** 
 427              		.loc 1 437 7 view .LVU125
 428 0008 B1EBD21F 		cmp	r1, r2, lsr #7
 429 000c 07D0     		beq	.L32
 439:Drivers/lvgl/src/widgets/image/lv_image.c ****     lv_obj_invalidate(obj);
 430              		.loc 1 439 5 is_stmt 1 view .LVU126
 439:Drivers/lvgl/src/widgets/image/lv_image.c ****     lv_obj_invalidate(obj);
 431              		.loc 1 439 20 is_stmt 0 view .LVU127
 432 000e 90F85820 		ldrb	r2, [r0, #88]	@ zero_extendqisi2
 433 0012 61F3C712 		bfi	r2, r1, #7, #1
 434 0016 80F85820 		strb	r2, [r0, #88]
 440:Drivers/lvgl/src/widgets/image/lv_image.c **** }
 435              		.loc 1 440 5 is_stmt 1 view .LVU128
 436 001a FFF7FEFF 		bl	lv_obj_invalidate
 437              	.LVL34:
 438              	.L32:
 441:Drivers/lvgl/src/widgets/image/lv_image.c **** 
 439              		.loc 1 441 1 is_stmt 0 view .LVU129
 440 001e 08BD     		pop	{r3, pc}
 441              	.LVL35:
 442              	.L34:
 443              	.LCFI10:
 444              		.cfi_def_cfa_offset 0
 445              		.cfi_restore 3
 446              		.cfi_restore 14
 434:Drivers/lvgl/src/widgets/image/lv_image.c **** 
 447              		.loc 1 434 5 is_stmt 1 discriminator 1 view .LVU130
 434:Drivers/lvgl/src/widgets/image/lv_image.c **** 
 448              		.loc 1 434 5 discriminator 1 view .LVU131
 434:Drivers/lvgl/src/widgets/image/lv_image.c **** 
 449              		.loc 1 434 5 discriminator 1 view .LVU132
 434:Drivers/lvgl/src/widgets/image/lv_image.c **** 
 450              		.loc 1 434 5 discriminator 1 view .LVU133
 434:Drivers/lvgl/src/widgets/image/lv_image.c **** 
 451              		.loc 1 434 5 discriminator 1 view .LVU134
 452 0020 FEE7     		b	.L34
 453              		.cfi_endproc
 454              	.LFE196:
 456              		.section	.text.lv_image_set_bitmap_map_src,"ax",%progbits
 457              		.align	1
 458              		.global	lv_image_set_bitmap_map_src
 459              		.syntax unified
 460              		.thumb
 461              		.thumb_func
 463              	lv_image_set_bitmap_map_src:
 464              	.LVL36:
 465              	.LFB198:
 462:Drivers/lvgl/src/widgets/image/lv_image.c ****     LV_ASSERT_OBJ(obj, MY_CLASS);
 466              		.loc 1 462 1 view -0
 467              		.cfi_startproc
 468              		@ args = 0, pretend = 0, frame = 0
 469              		@ frame_needed = 0, uses_anonymous_args = 0
 463:Drivers/lvgl/src/widgets/image/lv_image.c ****     lv_image_t * img = (lv_image_t *)obj;
ARM GAS  /tmp/cc58L00o.s 			page 22


 470              		.loc 1 463 5 view .LVU136
 463:Drivers/lvgl/src/widgets/image/lv_image.c ****     lv_image_t * img = (lv_image_t *)obj;
 471              		.loc 1 463 5 view .LVU137
 472 0000 20B1     		cbz	r0, .L40
 462:Drivers/lvgl/src/widgets/image/lv_image.c ****     LV_ASSERT_OBJ(obj, MY_CLASS);
 473              		.loc 1 462 1 is_stmt 0 view .LVU138
 474 0002 08B5     		push	{r3, lr}
 475              	.LCFI11:
 476              		.cfi_def_cfa_offset 8
 477              		.cfi_offset 3, -8
 478              		.cfi_offset 14, -4
 463:Drivers/lvgl/src/widgets/image/lv_image.c ****     lv_image_t * img = (lv_image_t *)obj;
 479              		.loc 1 463 5 is_stmt 1 discriminator 2 view .LVU139
 463:Drivers/lvgl/src/widgets/image/lv_image.c ****     lv_image_t * img = (lv_image_t *)obj;
 480              		.loc 1 463 33 discriminator 2 view .LVU140
 464:Drivers/lvgl/src/widgets/image/lv_image.c ****     img->bitmap_mask_src = src;
 481              		.loc 1 464 5 view .LVU141
 482              	.LVL37:
 465:Drivers/lvgl/src/widgets/image/lv_image.c ****     lv_obj_invalidate(obj);
 483              		.loc 1 465 5 view .LVU142
 465:Drivers/lvgl/src/widgets/image/lv_image.c ****     lv_obj_invalidate(obj);
 484              		.loc 1 465 26 is_stmt 0 view .LVU143
 485 0004 0163     		str	r1, [r0, #48]
 466:Drivers/lvgl/src/widgets/image/lv_image.c **** }
 486              		.loc 1 466 5 is_stmt 1 view .LVU144
 487 0006 FFF7FEFF 		bl	lv_obj_invalidate
 488              	.LVL38:
 467:Drivers/lvgl/src/widgets/image/lv_image.c **** 
 489              		.loc 1 467 1 is_stmt 0 view .LVU145
 490 000a 08BD     		pop	{r3, pc}
 491              	.LVL39:
 492              	.L40:
 493              	.LCFI12:
 494              		.cfi_def_cfa_offset 0
 495              		.cfi_restore 3
 496              		.cfi_restore 14
 463:Drivers/lvgl/src/widgets/image/lv_image.c ****     lv_image_t * img = (lv_image_t *)obj;
 497              		.loc 1 463 5 is_stmt 1 discriminator 1 view .LVU146
 463:Drivers/lvgl/src/widgets/image/lv_image.c ****     lv_image_t * img = (lv_image_t *)obj;
 498              		.loc 1 463 5 discriminator 1 view .LVU147
 463:Drivers/lvgl/src/widgets/image/lv_image.c ****     lv_image_t * img = (lv_image_t *)obj;
 499              		.loc 1 463 5 discriminator 1 view .LVU148
 463:Drivers/lvgl/src/widgets/image/lv_image.c ****     lv_image_t * img = (lv_image_t *)obj;
 500              		.loc 1 463 5 discriminator 1 view .LVU149
 463:Drivers/lvgl/src/widgets/image/lv_image.c ****     lv_image_t * img = (lv_image_t *)obj;
 501              		.loc 1 463 5 discriminator 1 view .LVU150
 502 000c FEE7     		b	.L40
 503              		.cfi_endproc
 504              	.LFE198:
 506              		.section	.text.lv_image_get_src,"ax",%progbits
 507              		.align	1
 508              		.global	lv_image_get_src
 509              		.syntax unified
 510              		.thumb
 511              		.thumb_func
 513              	lv_image_get_src:
 514              	.LVL40:
ARM GAS  /tmp/cc58L00o.s 			page 23


 515              	.LFB199:
 474:Drivers/lvgl/src/widgets/image/lv_image.c ****     LV_ASSERT_OBJ(obj, MY_CLASS);
 516              		.loc 1 474 1 view -0
 517              		.cfi_startproc
 518              		@ args = 0, pretend = 0, frame = 0
 519              		@ frame_needed = 0, uses_anonymous_args = 0
 520              		@ link register save eliminated.
 475:Drivers/lvgl/src/widgets/image/lv_image.c **** 
 521              		.loc 1 475 5 view .LVU152
 475:Drivers/lvgl/src/widgets/image/lv_image.c **** 
 522              		.loc 1 475 5 view .LVU153
 523 0000 08B1     		cbz	r0, .L45
 475:Drivers/lvgl/src/widgets/image/lv_image.c **** 
 524              		.loc 1 475 5 discriminator 2 view .LVU154
 475:Drivers/lvgl/src/widgets/image/lv_image.c **** 
 525              		.loc 1 475 33 discriminator 2 view .LVU155
 477:Drivers/lvgl/src/widgets/image/lv_image.c **** 
 526              		.loc 1 477 5 view .LVU156
 527              	.LVL41:
 479:Drivers/lvgl/src/widgets/image/lv_image.c **** }
 528              		.loc 1 479 5 view .LVU157
 480:Drivers/lvgl/src/widgets/image/lv_image.c **** 
 529              		.loc 1 480 1 is_stmt 0 view .LVU158
 530 0002 C06A     		ldr	r0, [r0, #44]
 531              	.LVL42:
 480:Drivers/lvgl/src/widgets/image/lv_image.c **** 
 532              		.loc 1 480 1 view .LVU159
 533 0004 7047     		bx	lr
 534              	.LVL43:
 535              	.L45:
 475:Drivers/lvgl/src/widgets/image/lv_image.c **** 
 536              		.loc 1 475 5 is_stmt 1 discriminator 1 view .LVU160
 475:Drivers/lvgl/src/widgets/image/lv_image.c **** 
 537              		.loc 1 475 5 discriminator 1 view .LVU161
 475:Drivers/lvgl/src/widgets/image/lv_image.c **** 
 538              		.loc 1 475 5 discriminator 1 view .LVU162
 475:Drivers/lvgl/src/widgets/image/lv_image.c **** 
 539              		.loc 1 475 5 discriminator 1 view .LVU163
 475:Drivers/lvgl/src/widgets/image/lv_image.c **** 
 540              		.loc 1 475 5 discriminator 1 view .LVU164
 541 0006 FEE7     		b	.L45
 542              		.cfi_endproc
 543              	.LFE199:
 545              		.section	.text.lv_image_get_offset_x,"ax",%progbits
 546              		.align	1
 547              		.global	lv_image_get_offset_x
 548              		.syntax unified
 549              		.thumb
 550              		.thumb_func
 552              	lv_image_get_offset_x:
 553              	.LVL44:
 554              	.LFB200:
 483:Drivers/lvgl/src/widgets/image/lv_image.c ****     LV_ASSERT_OBJ(obj, MY_CLASS);
 555              		.loc 1 483 1 view -0
 556              		.cfi_startproc
 557              		@ args = 0, pretend = 0, frame = 0
 558              		@ frame_needed = 0, uses_anonymous_args = 0
ARM GAS  /tmp/cc58L00o.s 			page 24


 559              		@ link register save eliminated.
 484:Drivers/lvgl/src/widgets/image/lv_image.c **** 
 560              		.loc 1 484 5 view .LVU166
 484:Drivers/lvgl/src/widgets/image/lv_image.c **** 
 561              		.loc 1 484 5 view .LVU167
 562 0000 08B1     		cbz	r0, .L48
 484:Drivers/lvgl/src/widgets/image/lv_image.c **** 
 563              		.loc 1 484 5 discriminator 2 view .LVU168
 484:Drivers/lvgl/src/widgets/image/lv_image.c **** 
 564              		.loc 1 484 33 discriminator 2 view .LVU169
 486:Drivers/lvgl/src/widgets/image/lv_image.c **** 
 565              		.loc 1 486 5 view .LVU170
 566              	.LVL45:
 488:Drivers/lvgl/src/widgets/image/lv_image.c **** }
 567              		.loc 1 488 5 view .LVU171
 489:Drivers/lvgl/src/widgets/image/lv_image.c **** 
 568              		.loc 1 489 1 is_stmt 0 view .LVU172
 569 0002 406B     		ldr	r0, [r0, #52]
 570              	.LVL46:
 489:Drivers/lvgl/src/widgets/image/lv_image.c **** 
 571              		.loc 1 489 1 view .LVU173
 572 0004 7047     		bx	lr
 573              	.LVL47:
 574              	.L48:
 484:Drivers/lvgl/src/widgets/image/lv_image.c **** 
 575              		.loc 1 484 5 is_stmt 1 discriminator 1 view .LVU174
 484:Drivers/lvgl/src/widgets/image/lv_image.c **** 
 576              		.loc 1 484 5 discriminator 1 view .LVU175
 484:Drivers/lvgl/src/widgets/image/lv_image.c **** 
 577              		.loc 1 484 5 discriminator 1 view .LVU176
 484:Drivers/lvgl/src/widgets/image/lv_image.c **** 
 578              		.loc 1 484 5 discriminator 1 view .LVU177
 484:Drivers/lvgl/src/widgets/image/lv_image.c **** 
 579              		.loc 1 484 5 discriminator 1 view .LVU178
 580 0006 FEE7     		b	.L48
 581              		.cfi_endproc
 582              	.LFE200:
 584              		.section	.text.lv_image_get_offset_y,"ax",%progbits
 585              		.align	1
 586              		.global	lv_image_get_offset_y
 587              		.syntax unified
 588              		.thumb
 589              		.thumb_func
 591              	lv_image_get_offset_y:
 592              	.LVL48:
 593              	.LFB201:
 492:Drivers/lvgl/src/widgets/image/lv_image.c ****     LV_ASSERT_OBJ(obj, MY_CLASS);
 594              		.loc 1 492 1 view -0
 595              		.cfi_startproc
 596              		@ args = 0, pretend = 0, frame = 0
 597              		@ frame_needed = 0, uses_anonymous_args = 0
 598              		@ link register save eliminated.
 493:Drivers/lvgl/src/widgets/image/lv_image.c **** 
 599              		.loc 1 493 5 view .LVU180
 493:Drivers/lvgl/src/widgets/image/lv_image.c **** 
 600              		.loc 1 493 5 view .LVU181
 601 0000 08B1     		cbz	r0, .L51
ARM GAS  /tmp/cc58L00o.s 			page 25


 493:Drivers/lvgl/src/widgets/image/lv_image.c **** 
 602              		.loc 1 493 5 discriminator 2 view .LVU182
 493:Drivers/lvgl/src/widgets/image/lv_image.c **** 
 603              		.loc 1 493 33 discriminator 2 view .LVU183
 495:Drivers/lvgl/src/widgets/image/lv_image.c **** 
 604              		.loc 1 495 5 view .LVU184
 605              	.LVL49:
 497:Drivers/lvgl/src/widgets/image/lv_image.c **** }
 606              		.loc 1 497 5 view .LVU185
 498:Drivers/lvgl/src/widgets/image/lv_image.c **** 
 607              		.loc 1 498 1 is_stmt 0 view .LVU186
 608 0002 806B     		ldr	r0, [r0, #56]
 609              	.LVL50:
 498:Drivers/lvgl/src/widgets/image/lv_image.c **** 
 610              		.loc 1 498 1 view .LVU187
 611 0004 7047     		bx	lr
 612              	.LVL51:
 613              	.L51:
 493:Drivers/lvgl/src/widgets/image/lv_image.c **** 
 614              		.loc 1 493 5 is_stmt 1 discriminator 1 view .LVU188
 493:Drivers/lvgl/src/widgets/image/lv_image.c **** 
 615              		.loc 1 493 5 discriminator 1 view .LVU189
 493:Drivers/lvgl/src/widgets/image/lv_image.c **** 
 616              		.loc 1 493 5 discriminator 1 view .LVU190
 493:Drivers/lvgl/src/widgets/image/lv_image.c **** 
 617              		.loc 1 493 5 discriminator 1 view .LVU191
 493:Drivers/lvgl/src/widgets/image/lv_image.c **** 
 618              		.loc 1 493 5 discriminator 1 view .LVU192
 619 0006 FEE7     		b	.L51
 620              		.cfi_endproc
 621              	.LFE201:
 623              		.section	.text.lv_image_get_rotation,"ax",%progbits
 624              		.align	1
 625              		.global	lv_image_get_rotation
 626              		.syntax unified
 627              		.thumb
 628              		.thumb_func
 630              	lv_image_get_rotation:
 631              	.LVL52:
 632              	.LFB202:
 501:Drivers/lvgl/src/widgets/image/lv_image.c ****     LV_ASSERT_OBJ(obj, MY_CLASS);
 633              		.loc 1 501 1 view -0
 634              		.cfi_startproc
 635              		@ args = 0, pretend = 0, frame = 0
 636              		@ frame_needed = 0, uses_anonymous_args = 0
 637              		@ link register save eliminated.
 502:Drivers/lvgl/src/widgets/image/lv_image.c **** 
 638              		.loc 1 502 5 view .LVU194
 502:Drivers/lvgl/src/widgets/image/lv_image.c **** 
 639              		.loc 1 502 5 view .LVU195
 640 0000 08B1     		cbz	r0, .L54
 502:Drivers/lvgl/src/widgets/image/lv_image.c **** 
 641              		.loc 1 502 5 discriminator 2 view .LVU196
 502:Drivers/lvgl/src/widgets/image/lv_image.c **** 
 642              		.loc 1 502 33 discriminator 2 view .LVU197
 504:Drivers/lvgl/src/widgets/image/lv_image.c **** 
 643              		.loc 1 504 5 view .LVU198
ARM GAS  /tmp/cc58L00o.s 			page 26


 644              	.LVL53:
 506:Drivers/lvgl/src/widgets/image/lv_image.c **** }
 645              		.loc 1 506 5 view .LVU199
 507:Drivers/lvgl/src/widgets/image/lv_image.c **** 
 646              		.loc 1 507 1 is_stmt 0 view .LVU200
 647 0002 406C     		ldr	r0, [r0, #68]
 648              	.LVL54:
 507:Drivers/lvgl/src/widgets/image/lv_image.c **** 
 649              		.loc 1 507 1 view .LVU201
 650 0004 7047     		bx	lr
 651              	.LVL55:
 652              	.L54:
 502:Drivers/lvgl/src/widgets/image/lv_image.c **** 
 653              		.loc 1 502 5 is_stmt 1 discriminator 1 view .LVU202
 502:Drivers/lvgl/src/widgets/image/lv_image.c **** 
 654              		.loc 1 502 5 discriminator 1 view .LVU203
 502:Drivers/lvgl/src/widgets/image/lv_image.c **** 
 655              		.loc 1 502 5 discriminator 1 view .LVU204
 502:Drivers/lvgl/src/widgets/image/lv_image.c **** 
 656              		.loc 1 502 5 discriminator 1 view .LVU205
 502:Drivers/lvgl/src/widgets/image/lv_image.c **** 
 657              		.loc 1 502 5 discriminator 1 view .LVU206
 658 0006 FEE7     		b	.L54
 659              		.cfi_endproc
 660              	.LFE202:
 662              		.section	.text.lv_image_get_pivot,"ax",%progbits
 663              		.align	1
 664              		.global	lv_image_get_pivot
 665              		.syntax unified
 666              		.thumb
 667              		.thumb_func
 669              	lv_image_get_pivot:
 670              	.LVL56:
 671              	.LFB203:
 510:Drivers/lvgl/src/widgets/image/lv_image.c ****     LV_ASSERT_OBJ(obj, MY_CLASS);
 672              		.loc 1 510 1 view -0
 673              		.cfi_startproc
 674              		@ args = 0, pretend = 0, frame = 0
 675              		@ frame_needed = 0, uses_anonymous_args = 0
 511:Drivers/lvgl/src/widgets/image/lv_image.c **** 
 676              		.loc 1 511 5 view .LVU208
 511:Drivers/lvgl/src/widgets/image/lv_image.c **** 
 677              		.loc 1 511 5 view .LVU209
 678 0000 68B1     		cbz	r0, .L57
 510:Drivers/lvgl/src/widgets/image/lv_image.c ****     LV_ASSERT_OBJ(obj, MY_CLASS);
 679              		.loc 1 510 1 is_stmt 0 view .LVU210
 680 0002 38B5     		push	{r3, r4, r5, lr}
 681              	.LCFI13:
 682              		.cfi_def_cfa_offset 16
 683              		.cfi_offset 3, -16
 684              		.cfi_offset 4, -12
 685              		.cfi_offset 5, -8
 686              		.cfi_offset 14, -4
 687 0004 0C46     		mov	r4, r1
 688 0006 0546     		mov	r5, r0
 511:Drivers/lvgl/src/widgets/image/lv_image.c **** 
 689              		.loc 1 511 5 is_stmt 1 discriminator 2 view .LVU211
ARM GAS  /tmp/cc58L00o.s 			page 27


 511:Drivers/lvgl/src/widgets/image/lv_image.c **** 
 690              		.loc 1 511 33 discriminator 2 view .LVU212
 513:Drivers/lvgl/src/widgets/image/lv_image.c **** 
 691              		.loc 1 513 5 view .LVU213
 692              	.LVL57:
 515:Drivers/lvgl/src/widgets/image/lv_image.c ****     pivot->y = lv_pct_to_px(img->pivot.y, img->h);
 693              		.loc 1 515 5 view .LVU214
 515:Drivers/lvgl/src/widgets/image/lv_image.c ****     pivot->y = lv_pct_to_px(img->pivot.y, img->h);
 694              		.loc 1 515 16 is_stmt 0 view .LVU215
 695 0008 C16B     		ldr	r1, [r0, #60]
 696              	.LVL58:
 515:Drivers/lvgl/src/widgets/image/lv_image.c ****     pivot->y = lv_pct_to_px(img->pivot.y, img->h);
 697              		.loc 1 515 16 view .LVU216
 698 000a 006D     		ldr	r0, [r0, #80]
 699              	.LVL59:
 515:Drivers/lvgl/src/widgets/image/lv_image.c ****     pivot->y = lv_pct_to_px(img->pivot.y, img->h);
 700              		.loc 1 515 16 view .LVU217
 701 000c FFF7FEFF 		bl	lv_pct_to_px
 702              	.LVL60:
 515:Drivers/lvgl/src/widgets/image/lv_image.c ****     pivot->y = lv_pct_to_px(img->pivot.y, img->h);
 703              		.loc 1 515 14 discriminator 1 view .LVU218
 704 0010 2060     		str	r0, [r4]
 516:Drivers/lvgl/src/widgets/image/lv_image.c **** }
 705              		.loc 1 516 5 is_stmt 1 view .LVU219
 516:Drivers/lvgl/src/widgets/image/lv_image.c **** }
 706              		.loc 1 516 16 is_stmt 0 view .LVU220
 707 0012 296C     		ldr	r1, [r5, #64]
 708 0014 686D     		ldr	r0, [r5, #84]
 709 0016 FFF7FEFF 		bl	lv_pct_to_px
 710              	.LVL61:
 516:Drivers/lvgl/src/widgets/image/lv_image.c **** }
 711              		.loc 1 516 14 discriminator 1 view .LVU221
 712 001a 6060     		str	r0, [r4, #4]
 517:Drivers/lvgl/src/widgets/image/lv_image.c **** 
 713              		.loc 1 517 1 view .LVU222
 714 001c 38BD     		pop	{r3, r4, r5, pc}
 715              	.LVL62:
 716              	.L57:
 717              	.LCFI14:
 718              		.cfi_def_cfa_offset 0
 719              		.cfi_restore 3
 720              		.cfi_restore 4
 721              		.cfi_restore 5
 722              		.cfi_restore 14
 511:Drivers/lvgl/src/widgets/image/lv_image.c **** 
 723              		.loc 1 511 5 is_stmt 1 discriminator 1 view .LVU223
 511:Drivers/lvgl/src/widgets/image/lv_image.c **** 
 724              		.loc 1 511 5 discriminator 1 view .LVU224
 511:Drivers/lvgl/src/widgets/image/lv_image.c **** 
 725              		.loc 1 511 5 discriminator 1 view .LVU225
 511:Drivers/lvgl/src/widgets/image/lv_image.c **** 
 726              		.loc 1 511 5 discriminator 1 view .LVU226
 511:Drivers/lvgl/src/widgets/image/lv_image.c **** 
 727              		.loc 1 511 5 discriminator 1 view .LVU227
 728 001e FEE7     		b	.L57
 729              		.cfi_endproc
 730              	.LFE203:
ARM GAS  /tmp/cc58L00o.s 			page 28


 732              		.section	.text.scale_update,"ax",%progbits
 733              		.align	1
 734              		.syntax unified
 735              		.thumb
 736              		.thumb_func
 738              	scale_update:
 739              	.LVL63:
 740              	.LFB215:
 622:Drivers/lvgl/src/widgets/image/lv_image.c **** 
 623:Drivers/lvgl/src/widgets/image/lv_image.c **** static void lv_image_event(const lv_obj_class_t * class_p, lv_event_t * e)
 624:Drivers/lvgl/src/widgets/image/lv_image.c **** {
 625:Drivers/lvgl/src/widgets/image/lv_image.c ****     LV_UNUSED(class_p);
 626:Drivers/lvgl/src/widgets/image/lv_image.c **** 
 627:Drivers/lvgl/src/widgets/image/lv_image.c ****     lv_event_code_t code = lv_event_get_code(e);
 628:Drivers/lvgl/src/widgets/image/lv_image.c **** 
 629:Drivers/lvgl/src/widgets/image/lv_image.c ****     /*Call the ancestor's event handler*/
 630:Drivers/lvgl/src/widgets/image/lv_image.c ****     lv_result_t res = lv_obj_event_base(MY_CLASS, e);
 631:Drivers/lvgl/src/widgets/image/lv_image.c ****     if(res != LV_RESULT_OK) return;
 632:Drivers/lvgl/src/widgets/image/lv_image.c **** 
 633:Drivers/lvgl/src/widgets/image/lv_image.c ****     lv_obj_t * obj = lv_event_get_current_target(e);
 634:Drivers/lvgl/src/widgets/image/lv_image.c ****     lv_image_t * img = (lv_image_t *)obj;
 635:Drivers/lvgl/src/widgets/image/lv_image.c ****     lv_point_t pivot_px;
 636:Drivers/lvgl/src/widgets/image/lv_image.c ****     lv_image_get_pivot(obj, &pivot_px);
 637:Drivers/lvgl/src/widgets/image/lv_image.c **** 
 638:Drivers/lvgl/src/widgets/image/lv_image.c ****     if(code == LV_EVENT_STYLE_CHANGED) {
 639:Drivers/lvgl/src/widgets/image/lv_image.c ****         /*Refresh the file name to refresh the symbol text size*/
 640:Drivers/lvgl/src/widgets/image/lv_image.c ****         if(img->src_type == LV_IMAGE_SRC_SYMBOL) {
 641:Drivers/lvgl/src/widgets/image/lv_image.c ****             lv_image_set_src(obj, img->src);
 642:Drivers/lvgl/src/widgets/image/lv_image.c ****         }
 643:Drivers/lvgl/src/widgets/image/lv_image.c ****         else {
 644:Drivers/lvgl/src/widgets/image/lv_image.c ****             /*With transformation it might change*/
 645:Drivers/lvgl/src/widgets/image/lv_image.c ****             lv_obj_refresh_ext_draw_size(obj);
 646:Drivers/lvgl/src/widgets/image/lv_image.c ****         }
 647:Drivers/lvgl/src/widgets/image/lv_image.c ****     }
 648:Drivers/lvgl/src/widgets/image/lv_image.c ****     else if(code == LV_EVENT_REFR_EXT_DRAW_SIZE) {
 649:Drivers/lvgl/src/widgets/image/lv_image.c **** 
 650:Drivers/lvgl/src/widgets/image/lv_image.c ****         int32_t * s = lv_event_get_param(e);
 651:Drivers/lvgl/src/widgets/image/lv_image.c **** 
 652:Drivers/lvgl/src/widgets/image/lv_image.c ****         /*If the image has angle provide enough room for the rotated corners*/
 653:Drivers/lvgl/src/widgets/image/lv_image.c ****         if(img->rotation || img->scale_x != LV_SCALE_NONE || img->scale_y != LV_SCALE_NONE) {
 654:Drivers/lvgl/src/widgets/image/lv_image.c ****             lv_area_t a;
 655:Drivers/lvgl/src/widgets/image/lv_image.c ****             int32_t w = lv_obj_get_width(obj);
 656:Drivers/lvgl/src/widgets/image/lv_image.c ****             int32_t h = lv_obj_get_height(obj);
 657:Drivers/lvgl/src/widgets/image/lv_image.c ****             lv_image_buf_get_transformed_area(&a, w, h, img->rotation, img->scale_x, img->scale_y, 
 658:Drivers/lvgl/src/widgets/image/lv_image.c ****             *s = LV_MAX(*s, -a.x1);
 659:Drivers/lvgl/src/widgets/image/lv_image.c ****             *s = LV_MAX(*s, -a.y1);
 660:Drivers/lvgl/src/widgets/image/lv_image.c ****             *s = LV_MAX(*s, a.x2 - w);
 661:Drivers/lvgl/src/widgets/image/lv_image.c ****             *s = LV_MAX(*s, a.y2 - h);
 662:Drivers/lvgl/src/widgets/image/lv_image.c ****         }
 663:Drivers/lvgl/src/widgets/image/lv_image.c ****     }
 664:Drivers/lvgl/src/widgets/image/lv_image.c ****     else if(code == LV_EVENT_SIZE_CHANGED) {
 665:Drivers/lvgl/src/widgets/image/lv_image.c ****         if(img->align == LV_IMAGE_ALIGN_STRETCH) {
 666:Drivers/lvgl/src/widgets/image/lv_image.c ****             update_align(obj);
 667:Drivers/lvgl/src/widgets/image/lv_image.c ****             if(img->rotation || img->scale_x != LV_SCALE_NONE || img->scale_y != LV_SCALE_NONE) {
 668:Drivers/lvgl/src/widgets/image/lv_image.c ****                 lv_obj_refresh_ext_draw_size(obj);
 669:Drivers/lvgl/src/widgets/image/lv_image.c ****             }
 670:Drivers/lvgl/src/widgets/image/lv_image.c ****         }
ARM GAS  /tmp/cc58L00o.s 			page 29


 671:Drivers/lvgl/src/widgets/image/lv_image.c ****     }
 672:Drivers/lvgl/src/widgets/image/lv_image.c ****     else if(code == LV_EVENT_HIT_TEST) {
 673:Drivers/lvgl/src/widgets/image/lv_image.c ****         lv_hit_test_info_t * info = lv_event_get_param(e);
 674:Drivers/lvgl/src/widgets/image/lv_image.c **** 
 675:Drivers/lvgl/src/widgets/image/lv_image.c ****         /*If the object is exactly image sized (not cropped, not mosaic) and transformed
 676:Drivers/lvgl/src/widgets/image/lv_image.c ****          *perform hit test on its transformed area*/
 677:Drivers/lvgl/src/widgets/image/lv_image.c ****         if(img->w == lv_obj_get_width(obj) && img->h == lv_obj_get_height(obj) &&
 678:Drivers/lvgl/src/widgets/image/lv_image.c ****            (img->scale_x != LV_SCALE_NONE || img->scale_y != LV_SCALE_NONE ||
 679:Drivers/lvgl/src/widgets/image/lv_image.c ****             img->rotation != 0)) {
 680:Drivers/lvgl/src/widgets/image/lv_image.c **** 
 681:Drivers/lvgl/src/widgets/image/lv_image.c ****             int32_t w = lv_obj_get_width(obj);
 682:Drivers/lvgl/src/widgets/image/lv_image.c ****             int32_t h = lv_obj_get_height(obj);
 683:Drivers/lvgl/src/widgets/image/lv_image.c ****             lv_area_t coords;
 684:Drivers/lvgl/src/widgets/image/lv_image.c ****             lv_image_buf_get_transformed_area(&coords, w, h, img->rotation, img->scale_x, img->scal
 685:Drivers/lvgl/src/widgets/image/lv_image.c ****             coords.x1 += obj->coords.x1;
 686:Drivers/lvgl/src/widgets/image/lv_image.c ****             coords.y1 += obj->coords.y1;
 687:Drivers/lvgl/src/widgets/image/lv_image.c ****             coords.x2 += obj->coords.x1;
 688:Drivers/lvgl/src/widgets/image/lv_image.c ****             coords.y2 += obj->coords.y1;
 689:Drivers/lvgl/src/widgets/image/lv_image.c **** 
 690:Drivers/lvgl/src/widgets/image/lv_image.c ****             info->res = lv_area_is_point_on(&coords, info->point, 0);
 691:Drivers/lvgl/src/widgets/image/lv_image.c ****         }
 692:Drivers/lvgl/src/widgets/image/lv_image.c ****         else {
 693:Drivers/lvgl/src/widgets/image/lv_image.c ****             lv_area_t a;
 694:Drivers/lvgl/src/widgets/image/lv_image.c ****             lv_obj_get_click_area(obj, &a);
 695:Drivers/lvgl/src/widgets/image/lv_image.c ****             info->res = lv_area_is_point_on(&a, info->point, 0);
 696:Drivers/lvgl/src/widgets/image/lv_image.c ****         }
 697:Drivers/lvgl/src/widgets/image/lv_image.c ****     }
 698:Drivers/lvgl/src/widgets/image/lv_image.c ****     else if(code == LV_EVENT_GET_SELF_SIZE) {
 699:Drivers/lvgl/src/widgets/image/lv_image.c ****         lv_point_t * p = lv_event_get_param(e);
 700:Drivers/lvgl/src/widgets/image/lv_image.c ****         p->x = img->w;
 701:Drivers/lvgl/src/widgets/image/lv_image.c ****         p->y = img->h;
 702:Drivers/lvgl/src/widgets/image/lv_image.c ****     }
 703:Drivers/lvgl/src/widgets/image/lv_image.c ****     else if(code == LV_EVENT_DRAW_MAIN || code == LV_EVENT_DRAW_POST || code == LV_EVENT_COVER_CHEC
 704:Drivers/lvgl/src/widgets/image/lv_image.c ****         draw_image(e);
 705:Drivers/lvgl/src/widgets/image/lv_image.c ****     }
 706:Drivers/lvgl/src/widgets/image/lv_image.c **** }
 707:Drivers/lvgl/src/widgets/image/lv_image.c **** 
 708:Drivers/lvgl/src/widgets/image/lv_image.c **** static void draw_image(lv_event_t * e)
 709:Drivers/lvgl/src/widgets/image/lv_image.c **** {
 710:Drivers/lvgl/src/widgets/image/lv_image.c ****     lv_event_code_t code = lv_event_get_code(e);
 711:Drivers/lvgl/src/widgets/image/lv_image.c ****     lv_obj_t * obj = lv_event_get_current_target(e);
 712:Drivers/lvgl/src/widgets/image/lv_image.c ****     lv_image_t * img = (lv_image_t *)obj;
 713:Drivers/lvgl/src/widgets/image/lv_image.c ****     if(code == LV_EVENT_COVER_CHECK) {
 714:Drivers/lvgl/src/widgets/image/lv_image.c ****         lv_cover_check_info_t * info = lv_event_get_param(e);
 715:Drivers/lvgl/src/widgets/image/lv_image.c ****         if(info->res == LV_COVER_RES_MASKED) return;
 716:Drivers/lvgl/src/widgets/image/lv_image.c ****         if(img->src_type == LV_IMAGE_SRC_UNKNOWN || img->src_type == LV_IMAGE_SRC_SYMBOL) {
 717:Drivers/lvgl/src/widgets/image/lv_image.c ****             info->res = LV_COVER_RES_NOT_COVER;
 718:Drivers/lvgl/src/widgets/image/lv_image.c ****             return;
 719:Drivers/lvgl/src/widgets/image/lv_image.c ****         }
 720:Drivers/lvgl/src/widgets/image/lv_image.c **** 
 721:Drivers/lvgl/src/widgets/image/lv_image.c ****         /*Non true color format might have "holes"*/
 722:Drivers/lvgl/src/widgets/image/lv_image.c ****         if(lv_color_format_has_alpha(img->cf)) {
 723:Drivers/lvgl/src/widgets/image/lv_image.c ****             info->res = LV_COVER_RES_NOT_COVER;
 724:Drivers/lvgl/src/widgets/image/lv_image.c ****             return;
 725:Drivers/lvgl/src/widgets/image/lv_image.c ****         }
 726:Drivers/lvgl/src/widgets/image/lv_image.c **** 
 727:Drivers/lvgl/src/widgets/image/lv_image.c ****         /*With not LV_OPA_COVER images can't cover an area */
ARM GAS  /tmp/cc58L00o.s 			page 30


 728:Drivers/lvgl/src/widgets/image/lv_image.c ****         if(lv_obj_get_style_image_opa(obj, LV_PART_MAIN) != LV_OPA_COVER) {
 729:Drivers/lvgl/src/widgets/image/lv_image.c ****             info->res = LV_COVER_RES_NOT_COVER;
 730:Drivers/lvgl/src/widgets/image/lv_image.c ****             return;
 731:Drivers/lvgl/src/widgets/image/lv_image.c ****         }
 732:Drivers/lvgl/src/widgets/image/lv_image.c **** 
 733:Drivers/lvgl/src/widgets/image/lv_image.c ****         if(img->rotation != 0) {
 734:Drivers/lvgl/src/widgets/image/lv_image.c ****             info->res = LV_COVER_RES_NOT_COVER;
 735:Drivers/lvgl/src/widgets/image/lv_image.c ****             return;
 736:Drivers/lvgl/src/widgets/image/lv_image.c ****         }
 737:Drivers/lvgl/src/widgets/image/lv_image.c **** 
 738:Drivers/lvgl/src/widgets/image/lv_image.c ****         if(img->scale_x == LV_SCALE_NONE && img->scale_y == LV_SCALE_NONE) {
 739:Drivers/lvgl/src/widgets/image/lv_image.c ****             if(lv_area_is_in(info->area, &obj->coords, 0) == false) {
 740:Drivers/lvgl/src/widgets/image/lv_image.c ****                 info->res = LV_COVER_RES_NOT_COVER;
 741:Drivers/lvgl/src/widgets/image/lv_image.c ****                 return;
 742:Drivers/lvgl/src/widgets/image/lv_image.c ****             }
 743:Drivers/lvgl/src/widgets/image/lv_image.c ****         }
 744:Drivers/lvgl/src/widgets/image/lv_image.c ****         else {
 745:Drivers/lvgl/src/widgets/image/lv_image.c ****             lv_area_t a;
 746:Drivers/lvgl/src/widgets/image/lv_image.c ****             lv_point_t pivot_px;
 747:Drivers/lvgl/src/widgets/image/lv_image.c ****             lv_image_get_pivot(obj, &pivot_px);
 748:Drivers/lvgl/src/widgets/image/lv_image.c ****             lv_image_buf_get_transformed_area(&a, lv_obj_get_width(obj), lv_obj_get_height(obj), 0,
 749:Drivers/lvgl/src/widgets/image/lv_image.c ****                                               &pivot_px);
 750:Drivers/lvgl/src/widgets/image/lv_image.c ****             a.x1 += obj->coords.x1;
 751:Drivers/lvgl/src/widgets/image/lv_image.c ****             a.y1 += obj->coords.y1;
 752:Drivers/lvgl/src/widgets/image/lv_image.c ****             a.x2 += obj->coords.x1;
 753:Drivers/lvgl/src/widgets/image/lv_image.c ****             a.y2 += obj->coords.y1;
 754:Drivers/lvgl/src/widgets/image/lv_image.c **** 
 755:Drivers/lvgl/src/widgets/image/lv_image.c ****             if(lv_area_is_in(info->area, &a, 0) == false) {
 756:Drivers/lvgl/src/widgets/image/lv_image.c ****                 info->res = LV_COVER_RES_NOT_COVER;
 757:Drivers/lvgl/src/widgets/image/lv_image.c ****                 return;
 758:Drivers/lvgl/src/widgets/image/lv_image.c ****             }
 759:Drivers/lvgl/src/widgets/image/lv_image.c ****         }
 760:Drivers/lvgl/src/widgets/image/lv_image.c ****         if(img->bitmap_mask_src) {
 761:Drivers/lvgl/src/widgets/image/lv_image.c ****             info->res = LV_COVER_RES_NOT_COVER;
 762:Drivers/lvgl/src/widgets/image/lv_image.c ****             return;
 763:Drivers/lvgl/src/widgets/image/lv_image.c ****         }
 764:Drivers/lvgl/src/widgets/image/lv_image.c ****     }
 765:Drivers/lvgl/src/widgets/image/lv_image.c ****     else if(code == LV_EVENT_DRAW_MAIN) {
 766:Drivers/lvgl/src/widgets/image/lv_image.c **** 
 767:Drivers/lvgl/src/widgets/image/lv_image.c ****         if(img->h == 0 || img->w == 0) return;
 768:Drivers/lvgl/src/widgets/image/lv_image.c ****         if(img->scale_x == 0 || img->scale_y == 0) return;
 769:Drivers/lvgl/src/widgets/image/lv_image.c **** 
 770:Drivers/lvgl/src/widgets/image/lv_image.c ****         lv_layer_t * layer = lv_event_get_layer(e);
 771:Drivers/lvgl/src/widgets/image/lv_image.c **** 
 772:Drivers/lvgl/src/widgets/image/lv_image.c ****         if(img->src_type == LV_IMAGE_SRC_FILE || img->src_type == LV_IMAGE_SRC_VARIABLE) {
 773:Drivers/lvgl/src/widgets/image/lv_image.c ****             lv_draw_image_dsc_t draw_dsc;
 774:Drivers/lvgl/src/widgets/image/lv_image.c ****             lv_draw_image_dsc_init(&draw_dsc);
 775:Drivers/lvgl/src/widgets/image/lv_image.c ****             draw_dsc.base.layer = layer;
 776:Drivers/lvgl/src/widgets/image/lv_image.c ****             lv_obj_init_draw_image_dsc(obj, LV_PART_MAIN, &draw_dsc);
 777:Drivers/lvgl/src/widgets/image/lv_image.c **** 
 778:Drivers/lvgl/src/widgets/image/lv_image.c ****             lv_area_t clip_area_ori = layer->_clip_area;
 779:Drivers/lvgl/src/widgets/image/lv_image.c **** 
 780:Drivers/lvgl/src/widgets/image/lv_image.c ****             lv_image_get_pivot(obj, &draw_dsc.pivot);
 781:Drivers/lvgl/src/widgets/image/lv_image.c ****             draw_dsc.scale_x = img->scale_x;
 782:Drivers/lvgl/src/widgets/image/lv_image.c ****             draw_dsc.scale_y = img->scale_y;
 783:Drivers/lvgl/src/widgets/image/lv_image.c ****             draw_dsc.rotation = img->rotation;
 784:Drivers/lvgl/src/widgets/image/lv_image.c ****             draw_dsc.antialias = img->antialias;
ARM GAS  /tmp/cc58L00o.s 			page 31


 785:Drivers/lvgl/src/widgets/image/lv_image.c ****             draw_dsc.blend_mode = img->blend_mode;
 786:Drivers/lvgl/src/widgets/image/lv_image.c ****             draw_dsc.bitmap_mask_src = img->bitmap_mask_src;
 787:Drivers/lvgl/src/widgets/image/lv_image.c ****             draw_dsc.src = img->src;
 788:Drivers/lvgl/src/widgets/image/lv_image.c **** 
 789:Drivers/lvgl/src/widgets/image/lv_image.c ****             lv_area_set(&draw_dsc.image_area, obj->coords.x1,
 790:Drivers/lvgl/src/widgets/image/lv_image.c ****                         obj->coords.y1,
 791:Drivers/lvgl/src/widgets/image/lv_image.c ****                         obj->coords.x1 + img->w - 1,
 792:Drivers/lvgl/src/widgets/image/lv_image.c ****                         obj->coords.y1 + img->h - 1);
 793:Drivers/lvgl/src/widgets/image/lv_image.c **** 
 794:Drivers/lvgl/src/widgets/image/lv_image.c ****             draw_dsc.clip_radius = lv_obj_get_style_radius(obj, LV_PART_MAIN);
 795:Drivers/lvgl/src/widgets/image/lv_image.c **** 
 796:Drivers/lvgl/src/widgets/image/lv_image.c ****             lv_area_t coords;
 797:Drivers/lvgl/src/widgets/image/lv_image.c ****             if(img->align < LV_IMAGE_ALIGN_AUTO_TRANSFORM) {
 798:Drivers/lvgl/src/widgets/image/lv_image.c ****                 lv_area_align(&obj->coords, &draw_dsc.image_area, img->align, img->offset.x, img->o
 799:Drivers/lvgl/src/widgets/image/lv_image.c ****                 coords = draw_dsc.image_area;
 800:Drivers/lvgl/src/widgets/image/lv_image.c ****             }
 801:Drivers/lvgl/src/widgets/image/lv_image.c ****             else if(img->align == LV_IMAGE_ALIGN_TILE) {
 802:Drivers/lvgl/src/widgets/image/lv_image.c ****                 lv_area_intersect(&layer->_clip_area, &layer->_clip_area, &obj->coords);
 803:Drivers/lvgl/src/widgets/image/lv_image.c ****                 lv_area_move(&draw_dsc.image_area, img->offset.x, img->offset.y);
 804:Drivers/lvgl/src/widgets/image/lv_image.c **** 
 805:Drivers/lvgl/src/widgets/image/lv_image.c ****                 lv_area_move(&draw_dsc.image_area,
 806:Drivers/lvgl/src/widgets/image/lv_image.c ****                              ((layer->_clip_area.x1 - draw_dsc.image_area.x1 - (img->w - 1)) / img-
 807:Drivers/lvgl/src/widgets/image/lv_image.c ****                              ((layer->_clip_area.y1 - draw_dsc.image_area.y1 - (img->h - 1)) / img-
 808:Drivers/lvgl/src/widgets/image/lv_image.c ****                 coords = layer->_clip_area;
 809:Drivers/lvgl/src/widgets/image/lv_image.c ****                 draw_dsc.tile = 1;
 810:Drivers/lvgl/src/widgets/image/lv_image.c ****             }
 811:Drivers/lvgl/src/widgets/image/lv_image.c ****             else {
 812:Drivers/lvgl/src/widgets/image/lv_image.c ****                 coords = draw_dsc.image_area;
 813:Drivers/lvgl/src/widgets/image/lv_image.c ****             }
 814:Drivers/lvgl/src/widgets/image/lv_image.c **** 
 815:Drivers/lvgl/src/widgets/image/lv_image.c ****             lv_draw_image(layer, &draw_dsc, &coords);
 816:Drivers/lvgl/src/widgets/image/lv_image.c ****             layer->_clip_area = clip_area_ori;
 817:Drivers/lvgl/src/widgets/image/lv_image.c ****         }
 818:Drivers/lvgl/src/widgets/image/lv_image.c ****         else if(img->src_type == LV_IMAGE_SRC_SYMBOL) {
 819:Drivers/lvgl/src/widgets/image/lv_image.c ****             lv_draw_label_dsc_t label_dsc;
 820:Drivers/lvgl/src/widgets/image/lv_image.c ****             lv_draw_label_dsc_init(&label_dsc);
 821:Drivers/lvgl/src/widgets/image/lv_image.c ****             label_dsc.base.layer = layer;
 822:Drivers/lvgl/src/widgets/image/lv_image.c ****             lv_obj_init_draw_label_dsc(obj, LV_PART_MAIN, &label_dsc);
 823:Drivers/lvgl/src/widgets/image/lv_image.c ****             label_dsc.text = img->src;
 824:Drivers/lvgl/src/widgets/image/lv_image.c ****             lv_draw_label(layer, &label_dsc, &obj->coords);
 825:Drivers/lvgl/src/widgets/image/lv_image.c ****         }
 826:Drivers/lvgl/src/widgets/image/lv_image.c ****         else if(img->src == NULL) {
 827:Drivers/lvgl/src/widgets/image/lv_image.c ****             /*Do not need to draw image when src is NULL*/
 828:Drivers/lvgl/src/widgets/image/lv_image.c ****             LV_LOG_WARN("image source is NULL");
 829:Drivers/lvgl/src/widgets/image/lv_image.c ****         }
 830:Drivers/lvgl/src/widgets/image/lv_image.c ****         else {
 831:Drivers/lvgl/src/widgets/image/lv_image.c ****             /*Trigger the error handler of image draw*/
 832:Drivers/lvgl/src/widgets/image/lv_image.c ****             LV_LOG_WARN("image source type is unknown");
 833:Drivers/lvgl/src/widgets/image/lv_image.c ****         }
 834:Drivers/lvgl/src/widgets/image/lv_image.c ****     }
 835:Drivers/lvgl/src/widgets/image/lv_image.c **** }
 836:Drivers/lvgl/src/widgets/image/lv_image.c **** 
 837:Drivers/lvgl/src/widgets/image/lv_image.c **** static void scale_update(lv_obj_t * obj, int32_t scale_x, int32_t scale_y)
 838:Drivers/lvgl/src/widgets/image/lv_image.c **** {
 741              		.loc 1 838 1 view -0
 742              		.cfi_startproc
 743              		@ args = 0, pretend = 0, frame = 24
ARM GAS  /tmp/cc58L00o.s 			page 32


 744              		@ frame_needed = 0, uses_anonymous_args = 0
 745              		.loc 1 838 1 is_stmt 0 view .LVU229
 746 0000 2DE9F047 		push	{r4, r5, r6, r7, r8, r9, r10, lr}
 747              	.LCFI15:
 748              		.cfi_def_cfa_offset 32
 749              		.cfi_offset 4, -32
 750              		.cfi_offset 5, -28
 751              		.cfi_offset 6, -24
 752              		.cfi_offset 7, -20
 753              		.cfi_offset 8, -16
 754              		.cfi_offset 9, -12
 755              		.cfi_offset 10, -8
 756              		.cfi_offset 14, -4
 757 0004 8AB0     		sub	sp, sp, #40
 758              	.LCFI16:
 759              		.cfi_def_cfa_offset 72
 760 0006 0446     		mov	r4, r0
 761 0008 8A46     		mov	r10, r1
 762 000a 9146     		mov	r9, r2
 839:Drivers/lvgl/src/widgets/image/lv_image.c ****     lv_image_t * img = (lv_image_t *)obj;
 763              		.loc 1 839 5 is_stmt 1 view .LVU230
 764              	.LVL64:
 840:Drivers/lvgl/src/widgets/image/lv_image.c **** 
 841:Drivers/lvgl/src/widgets/image/lv_image.c ****     lv_obj_update_layout(obj);  /*Be sure the object's size is calculated*/
 765              		.loc 1 841 5 view .LVU231
 766 000c FFF7FEFF 		bl	lv_obj_update_layout
 767              	.LVL65:
 842:Drivers/lvgl/src/widgets/image/lv_image.c ****     int32_t w = lv_obj_get_width(obj);
 768              		.loc 1 842 5 view .LVU232
 769              		.loc 1 842 17 is_stmt 0 view .LVU233
 770 0010 2046     		mov	r0, r4
 771 0012 FFF7FEFF 		bl	lv_obj_get_width
 772              	.LVL66:
 773 0016 0646     		mov	r6, r0
 774              	.LVL67:
 843:Drivers/lvgl/src/widgets/image/lv_image.c ****     int32_t h = lv_obj_get_height(obj);
 775              		.loc 1 843 5 is_stmt 1 view .LVU234
 776              		.loc 1 843 17 is_stmt 0 view .LVU235
 777 0018 2046     		mov	r0, r4
 778              	.LVL68:
 779              		.loc 1 843 17 view .LVU236
 780 001a FFF7FEFF 		bl	lv_obj_get_height
 781              	.LVL69:
 782 001e 0746     		mov	r7, r0
 783              	.LVL70:
 844:Drivers/lvgl/src/widgets/image/lv_image.c ****     lv_area_t a;
 784              		.loc 1 844 5 is_stmt 1 view .LVU237
 845:Drivers/lvgl/src/widgets/image/lv_image.c ****     lv_point_t pivot_px;
 785              		.loc 1 845 5 view .LVU238
 846:Drivers/lvgl/src/widgets/image/lv_image.c ****     lv_image_get_pivot(obj, &pivot_px);
 786              		.loc 1 846 5 view .LVU239
 787 0020 0DF11008 		add	r8, sp, #16
 788 0024 4146     		mov	r1, r8
 789 0026 2046     		mov	r0, r4
 790              	.LVL71:
 791              		.loc 1 846 5 is_stmt 0 view .LVU240
 792 0028 FFF7FEFF 		bl	lv_image_get_pivot
ARM GAS  /tmp/cc58L00o.s 			page 33


 793              	.LVL72:
 847:Drivers/lvgl/src/widgets/image/lv_image.c ****     lv_image_buf_get_transformed_area(&a, w, h, img->rotation, img->scale_x, img->scale_y, &pivot_p
 794              		.loc 1 847 5 is_stmt 1 view .LVU241
 795 002c 06AD     		add	r5, sp, #24
 796 002e CDF80880 		str	r8, [sp, #8]
 797 0032 B4F84C30 		ldrh	r3, [r4, #76]
 798 0036 0193     		str	r3, [sp, #4]
 799 0038 B4F84830 		ldrh	r3, [r4, #72]
 800 003c 0093     		str	r3, [sp]
 801 003e 636C     		ldr	r3, [r4, #68]
 802 0040 3A46     		mov	r2, r7
 803 0042 3146     		mov	r1, r6
 804 0044 2846     		mov	r0, r5
 805 0046 FFF7FEFF 		bl	lv_image_buf_get_transformed_area
 806              	.LVL73:
 848:Drivers/lvgl/src/widgets/image/lv_image.c ****     a.x1 += obj->coords.x1 - 1;
 807              		.loc 1 848 5 view .LVU242
 808              		.loc 1 848 24 is_stmt 0 view .LVU243
 809 004a 6269     		ldr	r2, [r4, #20]
 810              		.loc 1 848 28 view .LVU244
 811 004c 511E     		subs	r1, r2, #1
 812              		.loc 1 848 10 view .LVU245
 813 004e 069B     		ldr	r3, [sp, #24]
 814 0050 0B44     		add	r3, r3, r1
 815 0052 0693     		str	r3, [sp, #24]
 849:Drivers/lvgl/src/widgets/image/lv_image.c ****     a.y1 += obj->coords.y1 - 1;
 816              		.loc 1 849 5 is_stmt 1 view .LVU246
 817              		.loc 1 849 24 is_stmt 0 view .LVU247
 818 0054 A369     		ldr	r3, [r4, #24]
 819              		.loc 1 849 28 view .LVU248
 820 0056 581E     		subs	r0, r3, #1
 821              		.loc 1 849 10 view .LVU249
 822 0058 0799     		ldr	r1, [sp, #28]
 823 005a 0144     		add	r1, r1, r0
 824 005c 0791     		str	r1, [sp, #28]
 850:Drivers/lvgl/src/widgets/image/lv_image.c ****     a.x2 += obj->coords.x1 + 1;
 825              		.loc 1 850 5 is_stmt 1 view .LVU250
 826              		.loc 1 850 28 is_stmt 0 view .LVU251
 827 005e 0132     		adds	r2, r2, #1
 828              		.loc 1 850 10 view .LVU252
 829 0060 0899     		ldr	r1, [sp, #32]
 830 0062 1144     		add	r1, r1, r2
 831 0064 0891     		str	r1, [sp, #32]
 851:Drivers/lvgl/src/widgets/image/lv_image.c ****     a.y2 += obj->coords.y1 + 1;
 832              		.loc 1 851 5 is_stmt 1 view .LVU253
 833              		.loc 1 851 28 is_stmt 0 view .LVU254
 834 0066 0133     		adds	r3, r3, #1
 835              		.loc 1 851 10 view .LVU255
 836 0068 099A     		ldr	r2, [sp, #36]
 837 006a 1A44     		add	r2, r2, r3
 838 006c 0992     		str	r2, [sp, #36]
 852:Drivers/lvgl/src/widgets/image/lv_image.c ****     lv_obj_invalidate_area(obj, &a);
 839              		.loc 1 852 5 is_stmt 1 view .LVU256
 840 006e 2946     		mov	r1, r5
 841 0070 2046     		mov	r0, r4
 842 0072 FFF7FEFF 		bl	lv_obj_invalidate_area
 843              	.LVL74:
ARM GAS  /tmp/cc58L00o.s 			page 34


 853:Drivers/lvgl/src/widgets/image/lv_image.c **** 
 854:Drivers/lvgl/src/widgets/image/lv_image.c ****     img->scale_x = scale_x;
 844              		.loc 1 854 5 view .LVU257
 845              		.loc 1 854 18 is_stmt 0 view .LVU258
 846 0076 C4F848A0 		str	r10, [r4, #72]
 855:Drivers/lvgl/src/widgets/image/lv_image.c ****     img->scale_y = scale_y;
 847              		.loc 1 855 5 is_stmt 1 view .LVU259
 848              		.loc 1 855 18 is_stmt 0 view .LVU260
 849 007a C4F84C90 		str	r9, [r4, #76]
 856:Drivers/lvgl/src/widgets/image/lv_image.c **** 
 857:Drivers/lvgl/src/widgets/image/lv_image.c ****     /* Disable invalidations because lv_obj_refresh_ext_draw_size would invalidate
 858:Drivers/lvgl/src/widgets/image/lv_image.c ****      * the whole ext draw area */
 859:Drivers/lvgl/src/widgets/image/lv_image.c ****     lv_display_t * disp = lv_obj_get_display(obj);
 850              		.loc 1 859 5 is_stmt 1 view .LVU261
 851              		.loc 1 859 27 is_stmt 0 view .LVU262
 852 007e 2046     		mov	r0, r4
 853 0080 FFF7FEFF 		bl	lv_obj_get_display
 854              	.LVL75:
 855 0084 8146     		mov	r9, r0
 856              	.LVL76:
 860:Drivers/lvgl/src/widgets/image/lv_image.c ****     lv_display_enable_invalidation(disp, false);
 857              		.loc 1 860 5 is_stmt 1 view .LVU263
 858 0086 0021     		movs	r1, #0
 859 0088 FFF7FEFF 		bl	lv_display_enable_invalidation
 860              	.LVL77:
 861:Drivers/lvgl/src/widgets/image/lv_image.c ****     lv_obj_refresh_ext_draw_size(obj);
 861              		.loc 1 861 5 view .LVU264
 862 008c 2046     		mov	r0, r4
 863 008e FFF7FEFF 		bl	lv_obj_refresh_ext_draw_size
 864              	.LVL78:
 862:Drivers/lvgl/src/widgets/image/lv_image.c ****     lv_display_enable_invalidation(disp, true);
 865              		.loc 1 862 5 view .LVU265
 866 0092 0121     		movs	r1, #1
 867 0094 4846     		mov	r0, r9
 868 0096 FFF7FEFF 		bl	lv_display_enable_invalidation
 869              	.LVL79:
 863:Drivers/lvgl/src/widgets/image/lv_image.c **** 
 864:Drivers/lvgl/src/widgets/image/lv_image.c ****     lv_image_buf_get_transformed_area(&a, w, h, img->rotation, img->scale_x, img->scale_y, &pivot_p
 870              		.loc 1 864 5 view .LVU266
 871 009a CDF80880 		str	r8, [sp, #8]
 872 009e B4F84C30 		ldrh	r3, [r4, #76]
 873 00a2 0193     		str	r3, [sp, #4]
 874 00a4 B4F84830 		ldrh	r3, [r4, #72]
 875 00a8 0093     		str	r3, [sp]
 876 00aa 636C     		ldr	r3, [r4, #68]
 877 00ac 3A46     		mov	r2, r7
 878 00ae 3146     		mov	r1, r6
 879 00b0 2846     		mov	r0, r5
 880 00b2 FFF7FEFF 		bl	lv_image_buf_get_transformed_area
 881              	.LVL80:
 865:Drivers/lvgl/src/widgets/image/lv_image.c ****     a.x1 += obj->coords.x1 - 1;
 882              		.loc 1 865 5 view .LVU267
 883              		.loc 1 865 24 is_stmt 0 view .LVU268
 884 00b6 6269     		ldr	r2, [r4, #20]
 885              		.loc 1 865 28 view .LVU269
 886 00b8 511E     		subs	r1, r2, #1
 887              		.loc 1 865 10 view .LVU270
ARM GAS  /tmp/cc58L00o.s 			page 35


 888 00ba 069B     		ldr	r3, [sp, #24]
 889 00bc 0B44     		add	r3, r3, r1
 890 00be 0693     		str	r3, [sp, #24]
 866:Drivers/lvgl/src/widgets/image/lv_image.c ****     a.y1 += obj->coords.y1 - 1;
 891              		.loc 1 866 5 is_stmt 1 view .LVU271
 892              		.loc 1 866 24 is_stmt 0 view .LVU272
 893 00c0 A369     		ldr	r3, [r4, #24]
 894              		.loc 1 866 28 view .LVU273
 895 00c2 581E     		subs	r0, r3, #1
 896              		.loc 1 866 10 view .LVU274
 897 00c4 0799     		ldr	r1, [sp, #28]
 898 00c6 0144     		add	r1, r1, r0
 899 00c8 0791     		str	r1, [sp, #28]
 867:Drivers/lvgl/src/widgets/image/lv_image.c ****     a.x2 += obj->coords.x1 + 1;
 900              		.loc 1 867 5 is_stmt 1 view .LVU275
 901              		.loc 1 867 28 is_stmt 0 view .LVU276
 902 00ca 0132     		adds	r2, r2, #1
 903              		.loc 1 867 10 view .LVU277
 904 00cc 0899     		ldr	r1, [sp, #32]
 905 00ce 1144     		add	r1, r1, r2
 906 00d0 0891     		str	r1, [sp, #32]
 868:Drivers/lvgl/src/widgets/image/lv_image.c ****     a.y2 += obj->coords.y1 + 1;
 907              		.loc 1 868 5 is_stmt 1 view .LVU278
 908              		.loc 1 868 28 is_stmt 0 view .LVU279
 909 00d2 0133     		adds	r3, r3, #1
 910              		.loc 1 868 10 view .LVU280
 911 00d4 099A     		ldr	r2, [sp, #36]
 912 00d6 1A44     		add	r2, r2, r3
 913 00d8 0992     		str	r2, [sp, #36]
 869:Drivers/lvgl/src/widgets/image/lv_image.c ****     lv_obj_invalidate_area(obj, &a);
 914              		.loc 1 869 5 is_stmt 1 view .LVU281
 915 00da 2946     		mov	r1, r5
 916 00dc 2046     		mov	r0, r4
 917 00de FFF7FEFF 		bl	lv_obj_invalidate_area
 918              	.LVL81:
 870:Drivers/lvgl/src/widgets/image/lv_image.c **** }
 919              		.loc 1 870 1 is_stmt 0 view .LVU282
 920 00e2 0AB0     		add	sp, sp, #40
 921              	.LCFI17:
 922              		.cfi_def_cfa_offset 32
 923              		@ sp needed
 924 00e4 BDE8F087 		pop	{r4, r5, r6, r7, r8, r9, r10, pc}
 925              		.loc 1 870 1 view .LVU283
 926              		.cfi_endproc
 927              	.LFE215:
 929              		.section	.text.lv_image_set_scale,"ax",%progbits
 930              		.align	1
 931              		.global	lv_image_set_scale
 932              		.syntax unified
 933              		.thumb
 934              		.thumb_func
 936              	lv_image_set_scale:
 937              	.LVL82:
 938              	.LFB192:
 371:Drivers/lvgl/src/widgets/image/lv_image.c ****     LV_ASSERT_OBJ(obj, MY_CLASS);
 939              		.loc 1 371 1 is_stmt 1 view -0
 940              		.cfi_startproc
ARM GAS  /tmp/cc58L00o.s 			page 36


 941              		@ args = 0, pretend = 0, frame = 0
 942              		@ frame_needed = 0, uses_anonymous_args = 0
 372:Drivers/lvgl/src/widgets/image/lv_image.c **** 
 943              		.loc 1 372 5 view .LVU285
 372:Drivers/lvgl/src/widgets/image/lv_image.c **** 
 944              		.loc 1 372 5 view .LVU286
 945 0000 88B1     		cbz	r0, .L64
 371:Drivers/lvgl/src/widgets/image/lv_image.c ****     LV_ASSERT_OBJ(obj, MY_CLASS);
 946              		.loc 1 371 1 is_stmt 0 view .LVU287
 947 0002 08B5     		push	{r3, lr}
 948              	.LCFI18:
 949              		.cfi_def_cfa_offset 8
 950              		.cfi_offset 3, -8
 951              		.cfi_offset 14, -4
 952 0004 8446     		mov	ip, r0
 372:Drivers/lvgl/src/widgets/image/lv_image.c **** 
 953              		.loc 1 372 5 is_stmt 1 discriminator 2 view .LVU288
 372:Drivers/lvgl/src/widgets/image/lv_image.c **** 
 954              		.loc 1 372 33 discriminator 2 view .LVU289
 374:Drivers/lvgl/src/widgets/image/lv_image.c **** 
 955              		.loc 1 374 5 view .LVU290
 956              	.LVL83:
 377:Drivers/lvgl/src/widgets/image/lv_image.c **** 
 957              		.loc 1 377 5 view .LVU291
 377:Drivers/lvgl/src/widgets/image/lv_image.c **** 
 958              		.loc 1 377 11 is_stmt 0 view .LVU292
 959 0006 90F85930 		ldrb	r3, [r0, #89]	@ zero_extendqisi2
 960 000a 03F00F03 		and	r3, r3, #15
 377:Drivers/lvgl/src/widgets/image/lv_image.c **** 
 961              		.loc 1 377 7 view .LVU293
 962 000e 0A2B     		cmp	r3, #10
 963 0010 08D8     		bhi	.L62
 379:Drivers/lvgl/src/widgets/image/lv_image.c **** 
 964              		.loc 1 379 5 is_stmt 1 view .LVU294
 379:Drivers/lvgl/src/widgets/image/lv_image.c **** 
 965              		.loc 1 379 19 is_stmt 0 view .LVU295
 966 0012 836C     		ldr	r3, [r0, #72]
 379:Drivers/lvgl/src/widgets/image/lv_image.c **** 
 967              		.loc 1 379 7 view .LVU296
 968 0014 8B42     		cmp	r3, r1
 969 0016 07D0     		beq	.L71
 970              	.L66:
 381:Drivers/lvgl/src/widgets/image/lv_image.c **** 
 971              		.loc 1 381 5 is_stmt 1 view .LVU297
 381:Drivers/lvgl/src/widgets/image/lv_image.c **** 
 972              		.loc 1 381 7 is_stmt 0 view .LVU298
 973 0018 01B9     		cbnz	r1, .L67
 381:Drivers/lvgl/src/widgets/image/lv_image.c **** 
 974              		.loc 1 381 24 discriminator 1 view .LVU299
 975 001a 0121     		movs	r1, #1
 976              	.LVL84:
 977              	.L67:
 383:Drivers/lvgl/src/widgets/image/lv_image.c **** }
 978              		.loc 1 383 5 is_stmt 1 view .LVU300
 979 001c 0A46     		mov	r2, r1
 980 001e 6046     		mov	r0, ip
 981              	.LVL85:
ARM GAS  /tmp/cc58L00o.s 			page 37


 383:Drivers/lvgl/src/widgets/image/lv_image.c **** }
 982              		.loc 1 383 5 is_stmt 0 view .LVU301
 983 0020 FFF7FEFF 		bl	scale_update
 984              	.LVL86:
 985              	.L62:
 384:Drivers/lvgl/src/widgets/image/lv_image.c **** 
 986              		.loc 1 384 1 view .LVU302
 987 0024 08BD     		pop	{r3, pc}
 988              	.LVL87:
 989              	.L64:
 990              	.LCFI19:
 991              		.cfi_def_cfa_offset 0
 992              		.cfi_restore 3
 993              		.cfi_restore 14
 372:Drivers/lvgl/src/widgets/image/lv_image.c **** 
 994              		.loc 1 372 5 is_stmt 1 discriminator 1 view .LVU303
 372:Drivers/lvgl/src/widgets/image/lv_image.c **** 
 995              		.loc 1 372 5 discriminator 1 view .LVU304
 372:Drivers/lvgl/src/widgets/image/lv_image.c **** 
 996              		.loc 1 372 5 discriminator 1 view .LVU305
 372:Drivers/lvgl/src/widgets/image/lv_image.c **** 
 997              		.loc 1 372 5 discriminator 1 view .LVU306
 372:Drivers/lvgl/src/widgets/image/lv_image.c **** 
 998              		.loc 1 372 5 discriminator 1 view .LVU307
 999 0026 FEE7     		b	.L64
 1000              	.LVL88:
 1001              	.L71:
 1002              	.LCFI20:
 1003              		.cfi_def_cfa_offset 8
 1004              		.cfi_offset 3, -8
 1005              		.cfi_offset 14, -4
 379:Drivers/lvgl/src/widgets/image/lv_image.c **** 
 1006              		.loc 1 379 43 is_stmt 0 discriminator 1 view .LVU308
 1007 0028 C36C     		ldr	r3, [r0, #76]
 379:Drivers/lvgl/src/widgets/image/lv_image.c **** 
 1008              		.loc 1 379 29 discriminator 1 view .LVU309
 1009 002a 8B42     		cmp	r3, r1
 1010 002c F4D1     		bne	.L66
 1011 002e F9E7     		b	.L62
 1012              		.cfi_endproc
 1013              	.LFE192:
 1015              		.section	.text.lv_image_set_scale_x,"ax",%progbits
 1016              		.align	1
 1017              		.global	lv_image_set_scale_x
 1018              		.syntax unified
 1019              		.thumb
 1020              		.thumb_func
 1022              	lv_image_set_scale_x:
 1023              	.LVL89:
 1024              	.LFB193:
 387:Drivers/lvgl/src/widgets/image/lv_image.c ****     LV_ASSERT_OBJ(obj, MY_CLASS);
 1025              		.loc 1 387 1 is_stmt 1 view -0
 1026              		.cfi_startproc
 1027              		@ args = 0, pretend = 0, frame = 0
 1028              		@ frame_needed = 0, uses_anonymous_args = 0
 388:Drivers/lvgl/src/widgets/image/lv_image.c **** 
 1029              		.loc 1 388 5 view .LVU311
ARM GAS  /tmp/cc58L00o.s 			page 38


 388:Drivers/lvgl/src/widgets/image/lv_image.c **** 
 1030              		.loc 1 388 5 view .LVU312
 1031 0000 88B1     		cbz	r0, .L74
 387:Drivers/lvgl/src/widgets/image/lv_image.c ****     LV_ASSERT_OBJ(obj, MY_CLASS);
 1032              		.loc 1 387 1 is_stmt 0 view .LVU313
 1033 0002 08B5     		push	{r3, lr}
 1034              	.LCFI21:
 1035              		.cfi_def_cfa_offset 8
 1036              		.cfi_offset 3, -8
 1037              		.cfi_offset 14, -4
 1038 0004 0346     		mov	r3, r0
 388:Drivers/lvgl/src/widgets/image/lv_image.c **** 
 1039              		.loc 1 388 5 is_stmt 1 discriminator 2 view .LVU314
 388:Drivers/lvgl/src/widgets/image/lv_image.c **** 
 1040              		.loc 1 388 33 discriminator 2 view .LVU315
 390:Drivers/lvgl/src/widgets/image/lv_image.c **** 
 1041              		.loc 1 390 5 view .LVU316
 1042              	.LVL90:
 393:Drivers/lvgl/src/widgets/image/lv_image.c **** 
 1043              		.loc 1 393 5 view .LVU317
 393:Drivers/lvgl/src/widgets/image/lv_image.c **** 
 1044              		.loc 1 393 11 is_stmt 0 view .LVU318
 1045 0006 90F85920 		ldrb	r2, [r0, #89]	@ zero_extendqisi2
 1046 000a 02F00F02 		and	r2, r2, #15
 393:Drivers/lvgl/src/widgets/image/lv_image.c **** 
 1047              		.loc 1 393 7 view .LVU319
 1048 000e 0A2A     		cmp	r2, #10
 1049 0010 08D8     		bhi	.L72
 395:Drivers/lvgl/src/widgets/image/lv_image.c **** 
 1050              		.loc 1 395 5 is_stmt 1 view .LVU320
 395:Drivers/lvgl/src/widgets/image/lv_image.c **** 
 1051              		.loc 1 395 19 is_stmt 0 view .LVU321
 1052 0012 826C     		ldr	r2, [r0, #72]
 395:Drivers/lvgl/src/widgets/image/lv_image.c **** 
 1053              		.loc 1 395 7 view .LVU322
 1054 0014 8A42     		cmp	r2, r1
 1055 0016 05D0     		beq	.L72
 397:Drivers/lvgl/src/widgets/image/lv_image.c **** 
 1056              		.loc 1 397 5 is_stmt 1 view .LVU323
 397:Drivers/lvgl/src/widgets/image/lv_image.c **** 
 1057              		.loc 1 397 7 is_stmt 0 view .LVU324
 1058 0018 01B9     		cbnz	r1, .L76
 397:Drivers/lvgl/src/widgets/image/lv_image.c **** 
 1059              		.loc 1 397 24 discriminator 1 view .LVU325
 1060 001a 0121     		movs	r1, #1
 1061              	.LVL91:
 1062              	.L76:
 399:Drivers/lvgl/src/widgets/image/lv_image.c **** }
 1063              		.loc 1 399 5 is_stmt 1 view .LVU326
 1064 001c DA6C     		ldr	r2, [r3, #76]
 1065 001e 1846     		mov	r0, r3
 1066              	.LVL92:
 399:Drivers/lvgl/src/widgets/image/lv_image.c **** }
 1067              		.loc 1 399 5 is_stmt 0 view .LVU327
 1068 0020 FFF7FEFF 		bl	scale_update
 1069              	.LVL93:
 1070              	.L72:
ARM GAS  /tmp/cc58L00o.s 			page 39


 400:Drivers/lvgl/src/widgets/image/lv_image.c **** 
 1071              		.loc 1 400 1 view .LVU328
 1072 0024 08BD     		pop	{r3, pc}
 1073              	.LVL94:
 1074              	.L74:
 1075              	.LCFI22:
 1076              		.cfi_def_cfa_offset 0
 1077              		.cfi_restore 3
 1078              		.cfi_restore 14
 388:Drivers/lvgl/src/widgets/image/lv_image.c **** 
 1079              		.loc 1 388 5 is_stmt 1 discriminator 1 view .LVU329
 388:Drivers/lvgl/src/widgets/image/lv_image.c **** 
 1080              		.loc 1 388 5 discriminator 1 view .LVU330
 388:Drivers/lvgl/src/widgets/image/lv_image.c **** 
 1081              		.loc 1 388 5 discriminator 1 view .LVU331
 388:Drivers/lvgl/src/widgets/image/lv_image.c **** 
 1082              		.loc 1 388 5 discriminator 1 view .LVU332
 388:Drivers/lvgl/src/widgets/image/lv_image.c **** 
 1083              		.loc 1 388 5 discriminator 1 view .LVU333
 1084 0026 FEE7     		b	.L74
 1085              		.cfi_endproc
 1086              	.LFE193:
 1088              		.section	.text.lv_image_set_scale_y,"ax",%progbits
 1089              		.align	1
 1090              		.global	lv_image_set_scale_y
 1091              		.syntax unified
 1092              		.thumb
 1093              		.thumb_func
 1095              	lv_image_set_scale_y:
 1096              	.LVL95:
 1097              	.LFB194:
 403:Drivers/lvgl/src/widgets/image/lv_image.c ****     LV_ASSERT_OBJ(obj, MY_CLASS);
 1098              		.loc 1 403 1 view -0
 1099              		.cfi_startproc
 1100              		@ args = 0, pretend = 0, frame = 0
 1101              		@ frame_needed = 0, uses_anonymous_args = 0
 404:Drivers/lvgl/src/widgets/image/lv_image.c **** 
 1102              		.loc 1 404 5 view .LVU335
 404:Drivers/lvgl/src/widgets/image/lv_image.c **** 
 1103              		.loc 1 404 5 view .LVU336
 1104 0000 90B1     		cbz	r0, .L82
 403:Drivers/lvgl/src/widgets/image/lv_image.c ****     LV_ASSERT_OBJ(obj, MY_CLASS);
 1105              		.loc 1 403 1 is_stmt 0 view .LVU337
 1106 0002 08B5     		push	{r3, lr}
 1107              	.LCFI23:
 1108              		.cfi_def_cfa_offset 8
 1109              		.cfi_offset 3, -8
 1110              		.cfi_offset 14, -4
 1111 0004 0A46     		mov	r2, r1
 1112 0006 0346     		mov	r3, r0
 404:Drivers/lvgl/src/widgets/image/lv_image.c **** 
 1113              		.loc 1 404 5 is_stmt 1 discriminator 2 view .LVU338
 404:Drivers/lvgl/src/widgets/image/lv_image.c **** 
 1114              		.loc 1 404 33 discriminator 2 view .LVU339
 406:Drivers/lvgl/src/widgets/image/lv_image.c **** 
 1115              		.loc 1 406 5 view .LVU340
 1116              	.LVL96:
ARM GAS  /tmp/cc58L00o.s 			page 40


 409:Drivers/lvgl/src/widgets/image/lv_image.c **** 
 1117              		.loc 1 409 5 view .LVU341
 409:Drivers/lvgl/src/widgets/image/lv_image.c **** 
 1118              		.loc 1 409 11 is_stmt 0 view .LVU342
 1119 0008 90F85910 		ldrb	r1, [r0, #89]	@ zero_extendqisi2
 1120              	.LVL97:
 409:Drivers/lvgl/src/widgets/image/lv_image.c **** 
 1121              		.loc 1 409 11 view .LVU343
 1122 000c 01F00F01 		and	r1, r1, #15
 409:Drivers/lvgl/src/widgets/image/lv_image.c **** 
 1123              		.loc 1 409 7 view .LVU344
 1124 0010 0A29     		cmp	r1, #10
 1125 0012 08D8     		bhi	.L80
 411:Drivers/lvgl/src/widgets/image/lv_image.c **** 
 1126              		.loc 1 411 5 is_stmt 1 view .LVU345
 411:Drivers/lvgl/src/widgets/image/lv_image.c **** 
 1127              		.loc 1 411 19 is_stmt 0 view .LVU346
 1128 0014 C16C     		ldr	r1, [r0, #76]
 411:Drivers/lvgl/src/widgets/image/lv_image.c **** 
 1129              		.loc 1 411 7 view .LVU347
 1130 0016 9142     		cmp	r1, r2
 1131 0018 05D0     		beq	.L80
 413:Drivers/lvgl/src/widgets/image/lv_image.c **** 
 1132              		.loc 1 413 5 is_stmt 1 view .LVU348
 413:Drivers/lvgl/src/widgets/image/lv_image.c **** 
 1133              		.loc 1 413 7 is_stmt 0 view .LVU349
 1134 001a 02B9     		cbnz	r2, .L84
 413:Drivers/lvgl/src/widgets/image/lv_image.c **** 
 1135              		.loc 1 413 24 discriminator 1 view .LVU350
 1136 001c 0122     		movs	r2, #1
 1137              	.LVL98:
 1138              	.L84:
 415:Drivers/lvgl/src/widgets/image/lv_image.c **** }
 1139              		.loc 1 415 5 is_stmt 1 view .LVU351
 1140 001e 996C     		ldr	r1, [r3, #72]
 1141 0020 1846     		mov	r0, r3
 1142              	.LVL99:
 415:Drivers/lvgl/src/widgets/image/lv_image.c **** }
 1143              		.loc 1 415 5 is_stmt 0 view .LVU352
 1144 0022 FFF7FEFF 		bl	scale_update
 1145              	.LVL100:
 1146              	.L80:
 416:Drivers/lvgl/src/widgets/image/lv_image.c **** 
 1147              		.loc 1 416 1 view .LVU353
 1148 0026 08BD     		pop	{r3, pc}
 1149              	.LVL101:
 1150              	.L82:
 1151              	.LCFI24:
 1152              		.cfi_def_cfa_offset 0
 1153              		.cfi_restore 3
 1154              		.cfi_restore 14
 404:Drivers/lvgl/src/widgets/image/lv_image.c **** 
 1155              		.loc 1 404 5 is_stmt 1 discriminator 1 view .LVU354
 404:Drivers/lvgl/src/widgets/image/lv_image.c **** 
 1156              		.loc 1 404 5 discriminator 1 view .LVU355
 404:Drivers/lvgl/src/widgets/image/lv_image.c **** 
 1157              		.loc 1 404 5 discriminator 1 view .LVU356
ARM GAS  /tmp/cc58L00o.s 			page 41


 404:Drivers/lvgl/src/widgets/image/lv_image.c **** 
 1158              		.loc 1 404 5 discriminator 1 view .LVU357
 404:Drivers/lvgl/src/widgets/image/lv_image.c **** 
 1159              		.loc 1 404 5 discriminator 1 view .LVU358
 1160 0028 FEE7     		b	.L82
 1161              		.cfi_endproc
 1162              	.LFE194:
 1164              		.section	.text.draw_image,"ax",%progbits
 1165              		.align	1
 1166              		.syntax unified
 1167              		.thumb
 1168              		.thumb_func
 1170              	draw_image:
 1171              	.LVL102:
 1172              	.LFB214:
 709:Drivers/lvgl/src/widgets/image/lv_image.c ****     lv_event_code_t code = lv_event_get_code(e);
 1173              		.loc 1 709 1 view -0
 1174              		.cfi_startproc
 1175              		@ args = 0, pretend = 0, frame = 144
 1176              		@ frame_needed = 0, uses_anonymous_args = 0
 709:Drivers/lvgl/src/widgets/image/lv_image.c ****     lv_event_code_t code = lv_event_get_code(e);
 1177              		.loc 1 709 1 is_stmt 0 view .LVU360
 1178 0000 2DE9F041 		push	{r4, r5, r6, r7, r8, lr}
 1179              	.LCFI25:
 1180              		.cfi_def_cfa_offset 24
 1181              		.cfi_offset 4, -24
 1182              		.cfi_offset 5, -20
 1183              		.cfi_offset 6, -16
 1184              		.cfi_offset 7, -12
 1185              		.cfi_offset 8, -8
 1186              		.cfi_offset 14, -4
 1187 0004 A8B0     		sub	sp, sp, #160
 1188              	.LCFI26:
 1189              		.cfi_def_cfa_offset 184
 1190 0006 0646     		mov	r6, r0
 710:Drivers/lvgl/src/widgets/image/lv_image.c ****     lv_obj_t * obj = lv_event_get_current_target(e);
 1191              		.loc 1 710 5 is_stmt 1 view .LVU361
 710:Drivers/lvgl/src/widgets/image/lv_image.c ****     lv_obj_t * obj = lv_event_get_current_target(e);
 1192              		.loc 1 710 28 is_stmt 0 view .LVU362
 1193 0008 FFF7FEFF 		bl	lv_event_get_code
 1194              	.LVL103:
 710:Drivers/lvgl/src/widgets/image/lv_image.c ****     lv_obj_t * obj = lv_event_get_current_target(e);
 1195              		.loc 1 710 28 view .LVU363
 1196 000c 0446     		mov	r4, r0
 1197              	.LVL104:
 711:Drivers/lvgl/src/widgets/image/lv_image.c ****     lv_image_t * img = (lv_image_t *)obj;
 1198              		.loc 1 711 5 is_stmt 1 view .LVU364
 711:Drivers/lvgl/src/widgets/image/lv_image.c ****     lv_image_t * img = (lv_image_t *)obj;
 1199              		.loc 1 711 22 is_stmt 0 view .LVU365
 1200 000e 3046     		mov	r0, r6
 1201              	.LVL105:
 711:Drivers/lvgl/src/widgets/image/lv_image.c ****     lv_image_t * img = (lv_image_t *)obj;
 1202              		.loc 1 711 22 view .LVU366
 1203 0010 FFF7FEFF 		bl	lv_event_get_current_target
 1204              	.LVL106:
 1205 0014 0546     		mov	r5, r0
 1206              	.LVL107:
ARM GAS  /tmp/cc58L00o.s 			page 42


 712:Drivers/lvgl/src/widgets/image/lv_image.c ****     if(code == LV_EVENT_COVER_CHECK) {
 1207              		.loc 1 712 5 is_stmt 1 view .LVU367
 713:Drivers/lvgl/src/widgets/image/lv_image.c ****         lv_cover_check_info_t * info = lv_event_get_param(e);
 1208              		.loc 1 713 5 view .LVU368
 713:Drivers/lvgl/src/widgets/image/lv_image.c ****         lv_cover_check_info_t * info = lv_event_get_param(e);
 1209              		.loc 1 713 7 is_stmt 0 view .LVU369
 1210 0016 1A2C     		cmp	r4, #26
 1211 0018 04D0     		beq	.L103
 765:Drivers/lvgl/src/widgets/image/lv_image.c **** 
 1212              		.loc 1 765 10 is_stmt 1 view .LVU370
 765:Drivers/lvgl/src/widgets/image/lv_image.c **** 
 1213              		.loc 1 765 12 is_stmt 0 view .LVU371
 1214 001a 1D2C     		cmp	r4, #29
 1215 001c 79D0     		beq	.L104
 1216              	.LVL108:
 1217              	.L88:
 835:Drivers/lvgl/src/widgets/image/lv_image.c **** 
 1218              		.loc 1 835 1 view .LVU372
 1219 001e 28B0     		add	sp, sp, #160
 1220              	.LCFI27:
 1221              		.cfi_remember_state
 1222              		.cfi_def_cfa_offset 24
 1223              		@ sp needed
 1224 0020 BDE8F081 		pop	{r4, r5, r6, r7, r8, pc}
 1225              	.LVL109:
 1226              	.L103:
 1227              	.LCFI28:
 1228              		.cfi_restore_state
 1229              	.LBB20:
 714:Drivers/lvgl/src/widgets/image/lv_image.c ****         if(info->res == LV_COVER_RES_MASKED) return;
 1230              		.loc 1 714 9 is_stmt 1 view .LVU373
 714:Drivers/lvgl/src/widgets/image/lv_image.c ****         if(info->res == LV_COVER_RES_MASKED) return;
 1231              		.loc 1 714 40 is_stmt 0 view .LVU374
 1232 0024 3046     		mov	r0, r6
 1233              	.LVL110:
 714:Drivers/lvgl/src/widgets/image/lv_image.c ****         if(info->res == LV_COVER_RES_MASKED) return;
 1234              		.loc 1 714 40 view .LVU375
 1235 0026 FFF7FEFF 		bl	lv_event_get_param
 1236              	.LVL111:
 1237 002a 0446     		mov	r4, r0
 1238              	.LVL112:
 715:Drivers/lvgl/src/widgets/image/lv_image.c ****         if(img->src_type == LV_IMAGE_SRC_UNKNOWN || img->src_type == LV_IMAGE_SRC_SYMBOL) {
 1239              		.loc 1 715 9 is_stmt 1 view .LVU376
 715:Drivers/lvgl/src/widgets/image/lv_image.c ****         if(img->src_type == LV_IMAGE_SRC_UNKNOWN || img->src_type == LV_IMAGE_SRC_SYMBOL) {
 1240              		.loc 1 715 16 is_stmt 0 view .LVU377
 1241 002c 0378     		ldrb	r3, [r0]	@ zero_extendqisi2
 715:Drivers/lvgl/src/widgets/image/lv_image.c ****         if(img->src_type == LV_IMAGE_SRC_UNKNOWN || img->src_type == LV_IMAGE_SRC_SYMBOL) {
 1242              		.loc 1 715 11 view .LVU378
 1243 002e 022B     		cmp	r3, #2
 1244 0030 F5D0     		beq	.L88
 716:Drivers/lvgl/src/widgets/image/lv_image.c ****             info->res = LV_COVER_RES_NOT_COVER;
 1245              		.loc 1 716 9 is_stmt 1 view .LVU379
 716:Drivers/lvgl/src/widgets/image/lv_image.c ****             info->res = LV_COVER_RES_NOT_COVER;
 1246              		.loc 1 716 26 is_stmt 0 view .LVU380
 1247 0032 95F85830 		ldrb	r3, [r5, #88]	@ zero_extendqisi2
 716:Drivers/lvgl/src/widgets/image/lv_image.c ****             info->res = LV_COVER_RES_NOT_COVER;
 1248              		.loc 1 716 11 view .LVU381
ARM GAS  /tmp/cc58L00o.s 			page 43


 1249 0036 13F0020F 		tst	r3, #2
 1250 003a 02D0     		beq	.L91
 717:Drivers/lvgl/src/widgets/image/lv_image.c ****             return;
 1251              		.loc 1 717 13 is_stmt 1 view .LVU382
 717:Drivers/lvgl/src/widgets/image/lv_image.c ****             return;
 1252              		.loc 1 717 23 is_stmt 0 view .LVU383
 1253 003c 0123     		movs	r3, #1
 1254 003e 0370     		strb	r3, [r0]
 718:Drivers/lvgl/src/widgets/image/lv_image.c ****         }
 1255              		.loc 1 718 13 is_stmt 1 view .LVU384
 1256 0040 EDE7     		b	.L88
 1257              	.L91:
 722:Drivers/lvgl/src/widgets/image/lv_image.c ****             info->res = LV_COVER_RES_NOT_COVER;
 1258              		.loc 1 722 9 view .LVU385
 722:Drivers/lvgl/src/widgets/image/lv_image.c ****             info->res = LV_COVER_RES_NOT_COVER;
 1259              		.loc 1 722 41 is_stmt 0 view .LVU386
 1260 0042 95F85800 		ldrb	r0, [r5, #88]	@ zero_extendqisi2
 1261              	.LVL113:
 722:Drivers/lvgl/src/widgets/image/lv_image.c ****             info->res = LV_COVER_RES_NOT_COVER;
 1262              		.loc 1 722 12 view .LVU387
 1263 0046 C0F38400 		ubfx	r0, r0, #2, #5
 1264 004a FFF7FEFF 		bl	lv_color_format_has_alpha
 1265              	.LVL114:
 722:Drivers/lvgl/src/widgets/image/lv_image.c ****             info->res = LV_COVER_RES_NOT_COVER;
 1266              		.loc 1 722 11 discriminator 1 view .LVU388
 1267 004e 10B1     		cbz	r0, .L92
 723:Drivers/lvgl/src/widgets/image/lv_image.c ****             return;
 1268              		.loc 1 723 13 is_stmt 1 view .LVU389
 723:Drivers/lvgl/src/widgets/image/lv_image.c ****             return;
 1269              		.loc 1 723 23 is_stmt 0 view .LVU390
 1270 0050 0123     		movs	r3, #1
 1271 0052 2370     		strb	r3, [r4]
 724:Drivers/lvgl/src/widgets/image/lv_image.c ****         }
 1272              		.loc 1 724 13 is_stmt 1 view .LVU391
 1273 0054 E3E7     		b	.L88
 1274              	.L92:
 728:Drivers/lvgl/src/widgets/image/lv_image.c ****             info->res = LV_COVER_RES_NOT_COVER;
 1275              		.loc 1 728 9 view .LVU392
 1276              	.LVL115:
 1277              	.LBB21:
 1278              	.LBI21:
 1279              		.file 2 "Drivers/lvgl/src/widgets/image/../../core/lv_obj_style_gen.h"
   1:Drivers/lvgl/src/widgets/image/../../core/lv_obj_style_gen.h **** 
   2:Drivers/lvgl/src/widgets/image/../../core/lv_obj_style_gen.h **** /*
   3:Drivers/lvgl/src/widgets/image/../../core/lv_obj_style_gen.h ****  **********************************************************************
   4:Drivers/lvgl/src/widgets/image/../../core/lv_obj_style_gen.h ****  *                            DO NOT EDIT
   5:Drivers/lvgl/src/widgets/image/../../core/lv_obj_style_gen.h ****  * This file is automatically generated by "style_api_gen.py"
   6:Drivers/lvgl/src/widgets/image/../../core/lv_obj_style_gen.h ****  **********************************************************************
   7:Drivers/lvgl/src/widgets/image/../../core/lv_obj_style_gen.h ****  */
   8:Drivers/lvgl/src/widgets/image/../../core/lv_obj_style_gen.h **** 
   9:Drivers/lvgl/src/widgets/image/../../core/lv_obj_style_gen.h **** 
  10:Drivers/lvgl/src/widgets/image/../../core/lv_obj_style_gen.h **** #ifndef LV_OBJ_STYLE_GEN_H
  11:Drivers/lvgl/src/widgets/image/../../core/lv_obj_style_gen.h **** #define LV_OBJ_STYLE_GEN_H
  12:Drivers/lvgl/src/widgets/image/../../core/lv_obj_style_gen.h **** 
  13:Drivers/lvgl/src/widgets/image/../../core/lv_obj_style_gen.h **** #ifdef __cplusplus
  14:Drivers/lvgl/src/widgets/image/../../core/lv_obj_style_gen.h **** extern "C" {
  15:Drivers/lvgl/src/widgets/image/../../core/lv_obj_style_gen.h **** #endif
ARM GAS  /tmp/cc58L00o.s 			page 44


  16:Drivers/lvgl/src/widgets/image/../../core/lv_obj_style_gen.h **** 
  17:Drivers/lvgl/src/widgets/image/../../core/lv_obj_style_gen.h **** #include "../misc/lv_area.h"
  18:Drivers/lvgl/src/widgets/image/../../core/lv_obj_style_gen.h **** #include "../misc/lv_style.h"
  19:Drivers/lvgl/src/widgets/image/../../core/lv_obj_style_gen.h **** #include "../core/lv_obj_style.h"
  20:Drivers/lvgl/src/widgets/image/../../core/lv_obj_style_gen.h **** #include "../misc/lv_types.h"
  21:Drivers/lvgl/src/widgets/image/../../core/lv_obj_style_gen.h **** 
  22:Drivers/lvgl/src/widgets/image/../../core/lv_obj_style_gen.h **** static inline int32_t lv_obj_get_style_width(const lv_obj_t * obj, lv_part_t part)
  23:Drivers/lvgl/src/widgets/image/../../core/lv_obj_style_gen.h **** {
  24:Drivers/lvgl/src/widgets/image/../../core/lv_obj_style_gen.h ****     lv_style_value_t v = lv_obj_get_style_prop(obj, part, LV_STYLE_WIDTH);
  25:Drivers/lvgl/src/widgets/image/../../core/lv_obj_style_gen.h ****     return (int32_t)v.num;
  26:Drivers/lvgl/src/widgets/image/../../core/lv_obj_style_gen.h **** }
  27:Drivers/lvgl/src/widgets/image/../../core/lv_obj_style_gen.h **** 
  28:Drivers/lvgl/src/widgets/image/../../core/lv_obj_style_gen.h **** static inline int32_t lv_obj_get_style_min_width(const lv_obj_t * obj, lv_part_t part)
  29:Drivers/lvgl/src/widgets/image/../../core/lv_obj_style_gen.h **** {
  30:Drivers/lvgl/src/widgets/image/../../core/lv_obj_style_gen.h ****     lv_style_value_t v = lv_obj_get_style_prop(obj, part, LV_STYLE_MIN_WIDTH);
  31:Drivers/lvgl/src/widgets/image/../../core/lv_obj_style_gen.h ****     return (int32_t)v.num;
  32:Drivers/lvgl/src/widgets/image/../../core/lv_obj_style_gen.h **** }
  33:Drivers/lvgl/src/widgets/image/../../core/lv_obj_style_gen.h **** 
  34:Drivers/lvgl/src/widgets/image/../../core/lv_obj_style_gen.h **** static inline int32_t lv_obj_get_style_max_width(const lv_obj_t * obj, lv_part_t part)
  35:Drivers/lvgl/src/widgets/image/../../core/lv_obj_style_gen.h **** {
  36:Drivers/lvgl/src/widgets/image/../../core/lv_obj_style_gen.h ****     lv_style_value_t v = lv_obj_get_style_prop(obj, part, LV_STYLE_MAX_WIDTH);
  37:Drivers/lvgl/src/widgets/image/../../core/lv_obj_style_gen.h ****     return (int32_t)v.num;
  38:Drivers/lvgl/src/widgets/image/../../core/lv_obj_style_gen.h **** }
  39:Drivers/lvgl/src/widgets/image/../../core/lv_obj_style_gen.h **** 
  40:Drivers/lvgl/src/widgets/image/../../core/lv_obj_style_gen.h **** static inline int32_t lv_obj_get_style_height(const lv_obj_t * obj, lv_part_t part)
  41:Drivers/lvgl/src/widgets/image/../../core/lv_obj_style_gen.h **** {
  42:Drivers/lvgl/src/widgets/image/../../core/lv_obj_style_gen.h ****     lv_style_value_t v = lv_obj_get_style_prop(obj, part, LV_STYLE_HEIGHT);
  43:Drivers/lvgl/src/widgets/image/../../core/lv_obj_style_gen.h ****     return (int32_t)v.num;
  44:Drivers/lvgl/src/widgets/image/../../core/lv_obj_style_gen.h **** }
  45:Drivers/lvgl/src/widgets/image/../../core/lv_obj_style_gen.h **** 
  46:Drivers/lvgl/src/widgets/image/../../core/lv_obj_style_gen.h **** static inline int32_t lv_obj_get_style_min_height(const lv_obj_t * obj, lv_part_t part)
  47:Drivers/lvgl/src/widgets/image/../../core/lv_obj_style_gen.h **** {
  48:Drivers/lvgl/src/widgets/image/../../core/lv_obj_style_gen.h ****     lv_style_value_t v = lv_obj_get_style_prop(obj, part, LV_STYLE_MIN_HEIGHT);
  49:Drivers/lvgl/src/widgets/image/../../core/lv_obj_style_gen.h ****     return (int32_t)v.num;
  50:Drivers/lvgl/src/widgets/image/../../core/lv_obj_style_gen.h **** }
  51:Drivers/lvgl/src/widgets/image/../../core/lv_obj_style_gen.h **** 
  52:Drivers/lvgl/src/widgets/image/../../core/lv_obj_style_gen.h **** static inline int32_t lv_obj_get_style_max_height(const lv_obj_t * obj, lv_part_t part)
  53:Drivers/lvgl/src/widgets/image/../../core/lv_obj_style_gen.h **** {
  54:Drivers/lvgl/src/widgets/image/../../core/lv_obj_style_gen.h ****     lv_style_value_t v = lv_obj_get_style_prop(obj, part, LV_STYLE_MAX_HEIGHT);
  55:Drivers/lvgl/src/widgets/image/../../core/lv_obj_style_gen.h ****     return (int32_t)v.num;
  56:Drivers/lvgl/src/widgets/image/../../core/lv_obj_style_gen.h **** }
  57:Drivers/lvgl/src/widgets/image/../../core/lv_obj_style_gen.h **** 
  58:Drivers/lvgl/src/widgets/image/../../core/lv_obj_style_gen.h **** static inline int32_t lv_obj_get_style_length(const lv_obj_t * obj, lv_part_t part)
  59:Drivers/lvgl/src/widgets/image/../../core/lv_obj_style_gen.h **** {
  60:Drivers/lvgl/src/widgets/image/../../core/lv_obj_style_gen.h ****     lv_style_value_t v = lv_obj_get_style_prop(obj, part, LV_STYLE_LENGTH);
  61:Drivers/lvgl/src/widgets/image/../../core/lv_obj_style_gen.h ****     return (int32_t)v.num;
  62:Drivers/lvgl/src/widgets/image/../../core/lv_obj_style_gen.h **** }
  63:Drivers/lvgl/src/widgets/image/../../core/lv_obj_style_gen.h **** 
  64:Drivers/lvgl/src/widgets/image/../../core/lv_obj_style_gen.h **** static inline int32_t lv_obj_get_style_x(const lv_obj_t * obj, lv_part_t part)
  65:Drivers/lvgl/src/widgets/image/../../core/lv_obj_style_gen.h **** {
  66:Drivers/lvgl/src/widgets/image/../../core/lv_obj_style_gen.h ****     lv_style_value_t v = lv_obj_get_style_prop(obj, part, LV_STYLE_X);
  67:Drivers/lvgl/src/widgets/image/../../core/lv_obj_style_gen.h ****     return (int32_t)v.num;
  68:Drivers/lvgl/src/widgets/image/../../core/lv_obj_style_gen.h **** }
  69:Drivers/lvgl/src/widgets/image/../../core/lv_obj_style_gen.h **** 
  70:Drivers/lvgl/src/widgets/image/../../core/lv_obj_style_gen.h **** static inline int32_t lv_obj_get_style_y(const lv_obj_t * obj, lv_part_t part)
  71:Drivers/lvgl/src/widgets/image/../../core/lv_obj_style_gen.h **** {
  72:Drivers/lvgl/src/widgets/image/../../core/lv_obj_style_gen.h ****     lv_style_value_t v = lv_obj_get_style_prop(obj, part, LV_STYLE_Y);
ARM GAS  /tmp/cc58L00o.s 			page 45


  73:Drivers/lvgl/src/widgets/image/../../core/lv_obj_style_gen.h ****     return (int32_t)v.num;
  74:Drivers/lvgl/src/widgets/image/../../core/lv_obj_style_gen.h **** }
  75:Drivers/lvgl/src/widgets/image/../../core/lv_obj_style_gen.h **** 
  76:Drivers/lvgl/src/widgets/image/../../core/lv_obj_style_gen.h **** static inline lv_align_t lv_obj_get_style_align(const lv_obj_t * obj, lv_part_t part)
  77:Drivers/lvgl/src/widgets/image/../../core/lv_obj_style_gen.h **** {
  78:Drivers/lvgl/src/widgets/image/../../core/lv_obj_style_gen.h ****     lv_style_value_t v = lv_obj_get_style_prop(obj, part, LV_STYLE_ALIGN);
  79:Drivers/lvgl/src/widgets/image/../../core/lv_obj_style_gen.h ****     return (lv_align_t)v.num;
  80:Drivers/lvgl/src/widgets/image/../../core/lv_obj_style_gen.h **** }
  81:Drivers/lvgl/src/widgets/image/../../core/lv_obj_style_gen.h **** 
  82:Drivers/lvgl/src/widgets/image/../../core/lv_obj_style_gen.h **** static inline int32_t lv_obj_get_style_transform_width(const lv_obj_t * obj, lv_part_t part)
  83:Drivers/lvgl/src/widgets/image/../../core/lv_obj_style_gen.h **** {
  84:Drivers/lvgl/src/widgets/image/../../core/lv_obj_style_gen.h ****     lv_style_value_t v = lv_obj_get_style_prop(obj, part, LV_STYLE_TRANSFORM_WIDTH);
  85:Drivers/lvgl/src/widgets/image/../../core/lv_obj_style_gen.h ****     return (int32_t)v.num;
  86:Drivers/lvgl/src/widgets/image/../../core/lv_obj_style_gen.h **** }
  87:Drivers/lvgl/src/widgets/image/../../core/lv_obj_style_gen.h **** 
  88:Drivers/lvgl/src/widgets/image/../../core/lv_obj_style_gen.h **** static inline int32_t lv_obj_get_style_transform_height(const lv_obj_t * obj, lv_part_t part)
  89:Drivers/lvgl/src/widgets/image/../../core/lv_obj_style_gen.h **** {
  90:Drivers/lvgl/src/widgets/image/../../core/lv_obj_style_gen.h ****     lv_style_value_t v = lv_obj_get_style_prop(obj, part, LV_STYLE_TRANSFORM_HEIGHT);
  91:Drivers/lvgl/src/widgets/image/../../core/lv_obj_style_gen.h ****     return (int32_t)v.num;
  92:Drivers/lvgl/src/widgets/image/../../core/lv_obj_style_gen.h **** }
  93:Drivers/lvgl/src/widgets/image/../../core/lv_obj_style_gen.h **** 
  94:Drivers/lvgl/src/widgets/image/../../core/lv_obj_style_gen.h **** static inline int32_t lv_obj_get_style_translate_x(const lv_obj_t * obj, lv_part_t part)
  95:Drivers/lvgl/src/widgets/image/../../core/lv_obj_style_gen.h **** {
  96:Drivers/lvgl/src/widgets/image/../../core/lv_obj_style_gen.h ****     lv_style_value_t v = lv_obj_get_style_prop(obj, part, LV_STYLE_TRANSLATE_X);
  97:Drivers/lvgl/src/widgets/image/../../core/lv_obj_style_gen.h ****     return (int32_t)v.num;
  98:Drivers/lvgl/src/widgets/image/../../core/lv_obj_style_gen.h **** }
  99:Drivers/lvgl/src/widgets/image/../../core/lv_obj_style_gen.h **** 
 100:Drivers/lvgl/src/widgets/image/../../core/lv_obj_style_gen.h **** static inline int32_t lv_obj_get_style_translate_y(const lv_obj_t * obj, lv_part_t part)
 101:Drivers/lvgl/src/widgets/image/../../core/lv_obj_style_gen.h **** {
 102:Drivers/lvgl/src/widgets/image/../../core/lv_obj_style_gen.h ****     lv_style_value_t v = lv_obj_get_style_prop(obj, part, LV_STYLE_TRANSLATE_Y);
 103:Drivers/lvgl/src/widgets/image/../../core/lv_obj_style_gen.h ****     return (int32_t)v.num;
 104:Drivers/lvgl/src/widgets/image/../../core/lv_obj_style_gen.h **** }
 105:Drivers/lvgl/src/widgets/image/../../core/lv_obj_style_gen.h **** 
 106:Drivers/lvgl/src/widgets/image/../../core/lv_obj_style_gen.h **** static inline int32_t lv_obj_get_style_translate_radial(const lv_obj_t * obj, lv_part_t part)
 107:Drivers/lvgl/src/widgets/image/../../core/lv_obj_style_gen.h **** {
 108:Drivers/lvgl/src/widgets/image/../../core/lv_obj_style_gen.h ****     lv_style_value_t v = lv_obj_get_style_prop(obj, part, LV_STYLE_TRANSLATE_RADIAL);
 109:Drivers/lvgl/src/widgets/image/../../core/lv_obj_style_gen.h ****     return (int32_t)v.num;
 110:Drivers/lvgl/src/widgets/image/../../core/lv_obj_style_gen.h **** }
 111:Drivers/lvgl/src/widgets/image/../../core/lv_obj_style_gen.h **** 
 112:Drivers/lvgl/src/widgets/image/../../core/lv_obj_style_gen.h **** static inline int32_t lv_obj_get_style_transform_scale_x(const lv_obj_t * obj, lv_part_t part)
 113:Drivers/lvgl/src/widgets/image/../../core/lv_obj_style_gen.h **** {
 114:Drivers/lvgl/src/widgets/image/../../core/lv_obj_style_gen.h ****     lv_style_value_t v = lv_obj_get_style_prop(obj, part, LV_STYLE_TRANSFORM_SCALE_X);
 115:Drivers/lvgl/src/widgets/image/../../core/lv_obj_style_gen.h ****     return (int32_t)v.num;
 116:Drivers/lvgl/src/widgets/image/../../core/lv_obj_style_gen.h **** }
 117:Drivers/lvgl/src/widgets/image/../../core/lv_obj_style_gen.h **** 
 118:Drivers/lvgl/src/widgets/image/../../core/lv_obj_style_gen.h **** static inline int32_t lv_obj_get_style_transform_scale_y(const lv_obj_t * obj, lv_part_t part)
 119:Drivers/lvgl/src/widgets/image/../../core/lv_obj_style_gen.h **** {
 120:Drivers/lvgl/src/widgets/image/../../core/lv_obj_style_gen.h ****     lv_style_value_t v = lv_obj_get_style_prop(obj, part, LV_STYLE_TRANSFORM_SCALE_Y);
 121:Drivers/lvgl/src/widgets/image/../../core/lv_obj_style_gen.h ****     return (int32_t)v.num;
 122:Drivers/lvgl/src/widgets/image/../../core/lv_obj_style_gen.h **** }
 123:Drivers/lvgl/src/widgets/image/../../core/lv_obj_style_gen.h **** 
 124:Drivers/lvgl/src/widgets/image/../../core/lv_obj_style_gen.h **** static inline int32_t lv_obj_get_style_transform_rotation(const lv_obj_t * obj, lv_part_t part)
 125:Drivers/lvgl/src/widgets/image/../../core/lv_obj_style_gen.h **** {
 126:Drivers/lvgl/src/widgets/image/../../core/lv_obj_style_gen.h ****     lv_style_value_t v = lv_obj_get_style_prop(obj, part, LV_STYLE_TRANSFORM_ROTATION);
 127:Drivers/lvgl/src/widgets/image/../../core/lv_obj_style_gen.h ****     return (int32_t)v.num;
 128:Drivers/lvgl/src/widgets/image/../../core/lv_obj_style_gen.h **** }
 129:Drivers/lvgl/src/widgets/image/../../core/lv_obj_style_gen.h **** 
ARM GAS  /tmp/cc58L00o.s 			page 46


 130:Drivers/lvgl/src/widgets/image/../../core/lv_obj_style_gen.h **** static inline int32_t lv_obj_get_style_transform_pivot_x(const lv_obj_t * obj, lv_part_t part)
 131:Drivers/lvgl/src/widgets/image/../../core/lv_obj_style_gen.h **** {
 132:Drivers/lvgl/src/widgets/image/../../core/lv_obj_style_gen.h ****     lv_style_value_t v = lv_obj_get_style_prop(obj, part, LV_STYLE_TRANSFORM_PIVOT_X);
 133:Drivers/lvgl/src/widgets/image/../../core/lv_obj_style_gen.h ****     return (int32_t)v.num;
 134:Drivers/lvgl/src/widgets/image/../../core/lv_obj_style_gen.h **** }
 135:Drivers/lvgl/src/widgets/image/../../core/lv_obj_style_gen.h **** 
 136:Drivers/lvgl/src/widgets/image/../../core/lv_obj_style_gen.h **** static inline int32_t lv_obj_get_style_transform_pivot_y(const lv_obj_t * obj, lv_part_t part)
 137:Drivers/lvgl/src/widgets/image/../../core/lv_obj_style_gen.h **** {
 138:Drivers/lvgl/src/widgets/image/../../core/lv_obj_style_gen.h ****     lv_style_value_t v = lv_obj_get_style_prop(obj, part, LV_STYLE_TRANSFORM_PIVOT_Y);
 139:Drivers/lvgl/src/widgets/image/../../core/lv_obj_style_gen.h ****     return (int32_t)v.num;
 140:Drivers/lvgl/src/widgets/image/../../core/lv_obj_style_gen.h **** }
 141:Drivers/lvgl/src/widgets/image/../../core/lv_obj_style_gen.h **** 
 142:Drivers/lvgl/src/widgets/image/../../core/lv_obj_style_gen.h **** static inline int32_t lv_obj_get_style_transform_skew_x(const lv_obj_t * obj, lv_part_t part)
 143:Drivers/lvgl/src/widgets/image/../../core/lv_obj_style_gen.h **** {
 144:Drivers/lvgl/src/widgets/image/../../core/lv_obj_style_gen.h ****     lv_style_value_t v = lv_obj_get_style_prop(obj, part, LV_STYLE_TRANSFORM_SKEW_X);
 145:Drivers/lvgl/src/widgets/image/../../core/lv_obj_style_gen.h ****     return (int32_t)v.num;
 146:Drivers/lvgl/src/widgets/image/../../core/lv_obj_style_gen.h **** }
 147:Drivers/lvgl/src/widgets/image/../../core/lv_obj_style_gen.h **** 
 148:Drivers/lvgl/src/widgets/image/../../core/lv_obj_style_gen.h **** static inline int32_t lv_obj_get_style_transform_skew_y(const lv_obj_t * obj, lv_part_t part)
 149:Drivers/lvgl/src/widgets/image/../../core/lv_obj_style_gen.h **** {
 150:Drivers/lvgl/src/widgets/image/../../core/lv_obj_style_gen.h ****     lv_style_value_t v = lv_obj_get_style_prop(obj, part, LV_STYLE_TRANSFORM_SKEW_Y);
 151:Drivers/lvgl/src/widgets/image/../../core/lv_obj_style_gen.h ****     return (int32_t)v.num;
 152:Drivers/lvgl/src/widgets/image/../../core/lv_obj_style_gen.h **** }
 153:Drivers/lvgl/src/widgets/image/../../core/lv_obj_style_gen.h **** 
 154:Drivers/lvgl/src/widgets/image/../../core/lv_obj_style_gen.h **** static inline int32_t lv_obj_get_style_pad_top(const lv_obj_t * obj, lv_part_t part)
 155:Drivers/lvgl/src/widgets/image/../../core/lv_obj_style_gen.h **** {
 156:Drivers/lvgl/src/widgets/image/../../core/lv_obj_style_gen.h ****     lv_style_value_t v = lv_obj_get_style_prop(obj, part, LV_STYLE_PAD_TOP);
 157:Drivers/lvgl/src/widgets/image/../../core/lv_obj_style_gen.h ****     return (int32_t)v.num;
 158:Drivers/lvgl/src/widgets/image/../../core/lv_obj_style_gen.h **** }
 159:Drivers/lvgl/src/widgets/image/../../core/lv_obj_style_gen.h **** 
 160:Drivers/lvgl/src/widgets/image/../../core/lv_obj_style_gen.h **** static inline int32_t lv_obj_get_style_pad_bottom(const lv_obj_t * obj, lv_part_t part)
 161:Drivers/lvgl/src/widgets/image/../../core/lv_obj_style_gen.h **** {
 162:Drivers/lvgl/src/widgets/image/../../core/lv_obj_style_gen.h ****     lv_style_value_t v = lv_obj_get_style_prop(obj, part, LV_STYLE_PAD_BOTTOM);
 163:Drivers/lvgl/src/widgets/image/../../core/lv_obj_style_gen.h ****     return (int32_t)v.num;
 164:Drivers/lvgl/src/widgets/image/../../core/lv_obj_style_gen.h **** }
 165:Drivers/lvgl/src/widgets/image/../../core/lv_obj_style_gen.h **** 
 166:Drivers/lvgl/src/widgets/image/../../core/lv_obj_style_gen.h **** static inline int32_t lv_obj_get_style_pad_left(const lv_obj_t * obj, lv_part_t part)
 167:Drivers/lvgl/src/widgets/image/../../core/lv_obj_style_gen.h **** {
 168:Drivers/lvgl/src/widgets/image/../../core/lv_obj_style_gen.h ****     lv_style_value_t v = lv_obj_get_style_prop(obj, part, LV_STYLE_PAD_LEFT);
 169:Drivers/lvgl/src/widgets/image/../../core/lv_obj_style_gen.h ****     return (int32_t)v.num;
 170:Drivers/lvgl/src/widgets/image/../../core/lv_obj_style_gen.h **** }
 171:Drivers/lvgl/src/widgets/image/../../core/lv_obj_style_gen.h **** 
 172:Drivers/lvgl/src/widgets/image/../../core/lv_obj_style_gen.h **** static inline int32_t lv_obj_get_style_pad_right(const lv_obj_t * obj, lv_part_t part)
 173:Drivers/lvgl/src/widgets/image/../../core/lv_obj_style_gen.h **** {
 174:Drivers/lvgl/src/widgets/image/../../core/lv_obj_style_gen.h ****     lv_style_value_t v = lv_obj_get_style_prop(obj, part, LV_STYLE_PAD_RIGHT);
 175:Drivers/lvgl/src/widgets/image/../../core/lv_obj_style_gen.h ****     return (int32_t)v.num;
 176:Drivers/lvgl/src/widgets/image/../../core/lv_obj_style_gen.h **** }
 177:Drivers/lvgl/src/widgets/image/../../core/lv_obj_style_gen.h **** 
 178:Drivers/lvgl/src/widgets/image/../../core/lv_obj_style_gen.h **** static inline int32_t lv_obj_get_style_pad_row(const lv_obj_t * obj, lv_part_t part)
 179:Drivers/lvgl/src/widgets/image/../../core/lv_obj_style_gen.h **** {
 180:Drivers/lvgl/src/widgets/image/../../core/lv_obj_style_gen.h ****     lv_style_value_t v = lv_obj_get_style_prop(obj, part, LV_STYLE_PAD_ROW);
 181:Drivers/lvgl/src/widgets/image/../../core/lv_obj_style_gen.h ****     return (int32_t)v.num;
 182:Drivers/lvgl/src/widgets/image/../../core/lv_obj_style_gen.h **** }
 183:Drivers/lvgl/src/widgets/image/../../core/lv_obj_style_gen.h **** 
 184:Drivers/lvgl/src/widgets/image/../../core/lv_obj_style_gen.h **** static inline int32_t lv_obj_get_style_pad_column(const lv_obj_t * obj, lv_part_t part)
 185:Drivers/lvgl/src/widgets/image/../../core/lv_obj_style_gen.h **** {
 186:Drivers/lvgl/src/widgets/image/../../core/lv_obj_style_gen.h ****     lv_style_value_t v = lv_obj_get_style_prop(obj, part, LV_STYLE_PAD_COLUMN);
ARM GAS  /tmp/cc58L00o.s 			page 47


 187:Drivers/lvgl/src/widgets/image/../../core/lv_obj_style_gen.h ****     return (int32_t)v.num;
 188:Drivers/lvgl/src/widgets/image/../../core/lv_obj_style_gen.h **** }
 189:Drivers/lvgl/src/widgets/image/../../core/lv_obj_style_gen.h **** 
 190:Drivers/lvgl/src/widgets/image/../../core/lv_obj_style_gen.h **** static inline int32_t lv_obj_get_style_pad_radial(const lv_obj_t * obj, lv_part_t part)
 191:Drivers/lvgl/src/widgets/image/../../core/lv_obj_style_gen.h **** {
 192:Drivers/lvgl/src/widgets/image/../../core/lv_obj_style_gen.h ****     lv_style_value_t v = lv_obj_get_style_prop(obj, part, LV_STYLE_PAD_RADIAL);
 193:Drivers/lvgl/src/widgets/image/../../core/lv_obj_style_gen.h ****     return (int32_t)v.num;
 194:Drivers/lvgl/src/widgets/image/../../core/lv_obj_style_gen.h **** }
 195:Drivers/lvgl/src/widgets/image/../../core/lv_obj_style_gen.h **** 
 196:Drivers/lvgl/src/widgets/image/../../core/lv_obj_style_gen.h **** static inline int32_t lv_obj_get_style_margin_top(const lv_obj_t * obj, lv_part_t part)
 197:Drivers/lvgl/src/widgets/image/../../core/lv_obj_style_gen.h **** {
 198:Drivers/lvgl/src/widgets/image/../../core/lv_obj_style_gen.h ****     lv_style_value_t v = lv_obj_get_style_prop(obj, part, LV_STYLE_MARGIN_TOP);
 199:Drivers/lvgl/src/widgets/image/../../core/lv_obj_style_gen.h ****     return (int32_t)v.num;
 200:Drivers/lvgl/src/widgets/image/../../core/lv_obj_style_gen.h **** }
 201:Drivers/lvgl/src/widgets/image/../../core/lv_obj_style_gen.h **** 
 202:Drivers/lvgl/src/widgets/image/../../core/lv_obj_style_gen.h **** static inline int32_t lv_obj_get_style_margin_bottom(const lv_obj_t * obj, lv_part_t part)
 203:Drivers/lvgl/src/widgets/image/../../core/lv_obj_style_gen.h **** {
 204:Drivers/lvgl/src/widgets/image/../../core/lv_obj_style_gen.h ****     lv_style_value_t v = lv_obj_get_style_prop(obj, part, LV_STYLE_MARGIN_BOTTOM);
 205:Drivers/lvgl/src/widgets/image/../../core/lv_obj_style_gen.h ****     return (int32_t)v.num;
 206:Drivers/lvgl/src/widgets/image/../../core/lv_obj_style_gen.h **** }
 207:Drivers/lvgl/src/widgets/image/../../core/lv_obj_style_gen.h **** 
 208:Drivers/lvgl/src/widgets/image/../../core/lv_obj_style_gen.h **** static inline int32_t lv_obj_get_style_margin_left(const lv_obj_t * obj, lv_part_t part)
 209:Drivers/lvgl/src/widgets/image/../../core/lv_obj_style_gen.h **** {
 210:Drivers/lvgl/src/widgets/image/../../core/lv_obj_style_gen.h ****     lv_style_value_t v = lv_obj_get_style_prop(obj, part, LV_STYLE_MARGIN_LEFT);
 211:Drivers/lvgl/src/widgets/image/../../core/lv_obj_style_gen.h ****     return (int32_t)v.num;
 212:Drivers/lvgl/src/widgets/image/../../core/lv_obj_style_gen.h **** }
 213:Drivers/lvgl/src/widgets/image/../../core/lv_obj_style_gen.h **** 
 214:Drivers/lvgl/src/widgets/image/../../core/lv_obj_style_gen.h **** static inline int32_t lv_obj_get_style_margin_right(const lv_obj_t * obj, lv_part_t part)
 215:Drivers/lvgl/src/widgets/image/../../core/lv_obj_style_gen.h **** {
 216:Drivers/lvgl/src/widgets/image/../../core/lv_obj_style_gen.h ****     lv_style_value_t v = lv_obj_get_style_prop(obj, part, LV_STYLE_MARGIN_RIGHT);
 217:Drivers/lvgl/src/widgets/image/../../core/lv_obj_style_gen.h ****     return (int32_t)v.num;
 218:Drivers/lvgl/src/widgets/image/../../core/lv_obj_style_gen.h **** }
 219:Drivers/lvgl/src/widgets/image/../../core/lv_obj_style_gen.h **** 
 220:Drivers/lvgl/src/widgets/image/../../core/lv_obj_style_gen.h **** static inline lv_color_t lv_obj_get_style_bg_color(const lv_obj_t * obj, lv_part_t part)
 221:Drivers/lvgl/src/widgets/image/../../core/lv_obj_style_gen.h **** {
 222:Drivers/lvgl/src/widgets/image/../../core/lv_obj_style_gen.h ****     lv_style_value_t v = lv_obj_get_style_prop(obj, part, LV_STYLE_BG_COLOR);
 223:Drivers/lvgl/src/widgets/image/../../core/lv_obj_style_gen.h ****     return v.color;
 224:Drivers/lvgl/src/widgets/image/../../core/lv_obj_style_gen.h **** }
 225:Drivers/lvgl/src/widgets/image/../../core/lv_obj_style_gen.h **** 
 226:Drivers/lvgl/src/widgets/image/../../core/lv_obj_style_gen.h **** static inline lv_color_t lv_obj_get_style_bg_color_filtered(const lv_obj_t * obj, lv_part_t part)
 227:Drivers/lvgl/src/widgets/image/../../core/lv_obj_style_gen.h **** {
 228:Drivers/lvgl/src/widgets/image/../../core/lv_obj_style_gen.h ****     lv_style_value_t v = lv_obj_style_apply_color_filter(obj, part, lv_obj_get_style_prop(obj, part
 229:Drivers/lvgl/src/widgets/image/../../core/lv_obj_style_gen.h ****     return v.color;
 230:Drivers/lvgl/src/widgets/image/../../core/lv_obj_style_gen.h **** }
 231:Drivers/lvgl/src/widgets/image/../../core/lv_obj_style_gen.h **** 
 232:Drivers/lvgl/src/widgets/image/../../core/lv_obj_style_gen.h **** static inline lv_opa_t lv_obj_get_style_bg_opa(const lv_obj_t * obj, lv_part_t part)
 233:Drivers/lvgl/src/widgets/image/../../core/lv_obj_style_gen.h **** {
 234:Drivers/lvgl/src/widgets/image/../../core/lv_obj_style_gen.h ****     lv_style_value_t v = lv_obj_get_style_prop(obj, part, LV_STYLE_BG_OPA);
 235:Drivers/lvgl/src/widgets/image/../../core/lv_obj_style_gen.h ****     return (lv_opa_t)v.num;
 236:Drivers/lvgl/src/widgets/image/../../core/lv_obj_style_gen.h **** }
 237:Drivers/lvgl/src/widgets/image/../../core/lv_obj_style_gen.h **** 
 238:Drivers/lvgl/src/widgets/image/../../core/lv_obj_style_gen.h **** static inline lv_color_t lv_obj_get_style_bg_grad_color(const lv_obj_t * obj, lv_part_t part)
 239:Drivers/lvgl/src/widgets/image/../../core/lv_obj_style_gen.h **** {
 240:Drivers/lvgl/src/widgets/image/../../core/lv_obj_style_gen.h ****     lv_style_value_t v = lv_obj_get_style_prop(obj, part, LV_STYLE_BG_GRAD_COLOR);
 241:Drivers/lvgl/src/widgets/image/../../core/lv_obj_style_gen.h ****     return v.color;
 242:Drivers/lvgl/src/widgets/image/../../core/lv_obj_style_gen.h **** }
 243:Drivers/lvgl/src/widgets/image/../../core/lv_obj_style_gen.h **** 
ARM GAS  /tmp/cc58L00o.s 			page 48


 244:Drivers/lvgl/src/widgets/image/../../core/lv_obj_style_gen.h **** static inline lv_color_t lv_obj_get_style_bg_grad_color_filtered(const lv_obj_t * obj, lv_part_t pa
 245:Drivers/lvgl/src/widgets/image/../../core/lv_obj_style_gen.h **** {
 246:Drivers/lvgl/src/widgets/image/../../core/lv_obj_style_gen.h ****     lv_style_value_t v = lv_obj_style_apply_color_filter(obj, part, lv_obj_get_style_prop(obj, part
 247:Drivers/lvgl/src/widgets/image/../../core/lv_obj_style_gen.h ****     return v.color;
 248:Drivers/lvgl/src/widgets/image/../../core/lv_obj_style_gen.h **** }
 249:Drivers/lvgl/src/widgets/image/../../core/lv_obj_style_gen.h **** 
 250:Drivers/lvgl/src/widgets/image/../../core/lv_obj_style_gen.h **** static inline lv_grad_dir_t lv_obj_get_style_bg_grad_dir(const lv_obj_t * obj, lv_part_t part)
 251:Drivers/lvgl/src/widgets/image/../../core/lv_obj_style_gen.h **** {
 252:Drivers/lvgl/src/widgets/image/../../core/lv_obj_style_gen.h ****     lv_style_value_t v = lv_obj_get_style_prop(obj, part, LV_STYLE_BG_GRAD_DIR);
 253:Drivers/lvgl/src/widgets/image/../../core/lv_obj_style_gen.h ****     return (lv_grad_dir_t)v.num;
 254:Drivers/lvgl/src/widgets/image/../../core/lv_obj_style_gen.h **** }
 255:Drivers/lvgl/src/widgets/image/../../core/lv_obj_style_gen.h **** 
 256:Drivers/lvgl/src/widgets/image/../../core/lv_obj_style_gen.h **** static inline int32_t lv_obj_get_style_bg_main_stop(const lv_obj_t * obj, lv_part_t part)
 257:Drivers/lvgl/src/widgets/image/../../core/lv_obj_style_gen.h **** {
 258:Drivers/lvgl/src/widgets/image/../../core/lv_obj_style_gen.h ****     lv_style_value_t v = lv_obj_get_style_prop(obj, part, LV_STYLE_BG_MAIN_STOP);
 259:Drivers/lvgl/src/widgets/image/../../core/lv_obj_style_gen.h ****     return (int32_t)v.num;
 260:Drivers/lvgl/src/widgets/image/../../core/lv_obj_style_gen.h **** }
 261:Drivers/lvgl/src/widgets/image/../../core/lv_obj_style_gen.h **** 
 262:Drivers/lvgl/src/widgets/image/../../core/lv_obj_style_gen.h **** static inline int32_t lv_obj_get_style_bg_grad_stop(const lv_obj_t * obj, lv_part_t part)
 263:Drivers/lvgl/src/widgets/image/../../core/lv_obj_style_gen.h **** {
 264:Drivers/lvgl/src/widgets/image/../../core/lv_obj_style_gen.h ****     lv_style_value_t v = lv_obj_get_style_prop(obj, part, LV_STYLE_BG_GRAD_STOP);
 265:Drivers/lvgl/src/widgets/image/../../core/lv_obj_style_gen.h ****     return (int32_t)v.num;
 266:Drivers/lvgl/src/widgets/image/../../core/lv_obj_style_gen.h **** }
 267:Drivers/lvgl/src/widgets/image/../../core/lv_obj_style_gen.h **** 
 268:Drivers/lvgl/src/widgets/image/../../core/lv_obj_style_gen.h **** static inline lv_opa_t lv_obj_get_style_bg_main_opa(const lv_obj_t * obj, lv_part_t part)
 269:Drivers/lvgl/src/widgets/image/../../core/lv_obj_style_gen.h **** {
 270:Drivers/lvgl/src/widgets/image/../../core/lv_obj_style_gen.h ****     lv_style_value_t v = lv_obj_get_style_prop(obj, part, LV_STYLE_BG_MAIN_OPA);
 271:Drivers/lvgl/src/widgets/image/../../core/lv_obj_style_gen.h ****     return (lv_opa_t)v.num;
 272:Drivers/lvgl/src/widgets/image/../../core/lv_obj_style_gen.h **** }
 273:Drivers/lvgl/src/widgets/image/../../core/lv_obj_style_gen.h **** 
 274:Drivers/lvgl/src/widgets/image/../../core/lv_obj_style_gen.h **** static inline lv_opa_t lv_obj_get_style_bg_grad_opa(const lv_obj_t * obj, lv_part_t part)
 275:Drivers/lvgl/src/widgets/image/../../core/lv_obj_style_gen.h **** {
 276:Drivers/lvgl/src/widgets/image/../../core/lv_obj_style_gen.h ****     lv_style_value_t v = lv_obj_get_style_prop(obj, part, LV_STYLE_BG_GRAD_OPA);
 277:Drivers/lvgl/src/widgets/image/../../core/lv_obj_style_gen.h ****     return (lv_opa_t)v.num;
 278:Drivers/lvgl/src/widgets/image/../../core/lv_obj_style_gen.h **** }
 279:Drivers/lvgl/src/widgets/image/../../core/lv_obj_style_gen.h **** 
 280:Drivers/lvgl/src/widgets/image/../../core/lv_obj_style_gen.h **** static inline const lv_grad_dsc_t * lv_obj_get_style_bg_grad(const lv_obj_t * obj, lv_part_t part)
 281:Drivers/lvgl/src/widgets/image/../../core/lv_obj_style_gen.h **** {
 282:Drivers/lvgl/src/widgets/image/../../core/lv_obj_style_gen.h ****     lv_style_value_t v = lv_obj_get_style_prop(obj, part, LV_STYLE_BG_GRAD);
 283:Drivers/lvgl/src/widgets/image/../../core/lv_obj_style_gen.h ****     return (const lv_grad_dsc_t *)v.ptr;
 284:Drivers/lvgl/src/widgets/image/../../core/lv_obj_style_gen.h **** }
 285:Drivers/lvgl/src/widgets/image/../../core/lv_obj_style_gen.h **** 
 286:Drivers/lvgl/src/widgets/image/../../core/lv_obj_style_gen.h **** static inline const void * lv_obj_get_style_bg_image_src(const lv_obj_t * obj, lv_part_t part)
 287:Drivers/lvgl/src/widgets/image/../../core/lv_obj_style_gen.h **** {
 288:Drivers/lvgl/src/widgets/image/../../core/lv_obj_style_gen.h ****     lv_style_value_t v = lv_obj_get_style_prop(obj, part, LV_STYLE_BG_IMAGE_SRC);
 289:Drivers/lvgl/src/widgets/image/../../core/lv_obj_style_gen.h ****     return (const void *)v.ptr;
 290:Drivers/lvgl/src/widgets/image/../../core/lv_obj_style_gen.h **** }
 291:Drivers/lvgl/src/widgets/image/../../core/lv_obj_style_gen.h **** 
 292:Drivers/lvgl/src/widgets/image/../../core/lv_obj_style_gen.h **** static inline lv_opa_t lv_obj_get_style_bg_image_opa(const lv_obj_t * obj, lv_part_t part)
 293:Drivers/lvgl/src/widgets/image/../../core/lv_obj_style_gen.h **** {
 294:Drivers/lvgl/src/widgets/image/../../core/lv_obj_style_gen.h ****     lv_style_value_t v = lv_obj_get_style_prop(obj, part, LV_STYLE_BG_IMAGE_OPA);
 295:Drivers/lvgl/src/widgets/image/../../core/lv_obj_style_gen.h ****     return (lv_opa_t)v.num;
 296:Drivers/lvgl/src/widgets/image/../../core/lv_obj_style_gen.h **** }
 297:Drivers/lvgl/src/widgets/image/../../core/lv_obj_style_gen.h **** 
 298:Drivers/lvgl/src/widgets/image/../../core/lv_obj_style_gen.h **** static inline lv_color_t lv_obj_get_style_bg_image_recolor(const lv_obj_t * obj, lv_part_t part)
 299:Drivers/lvgl/src/widgets/image/../../core/lv_obj_style_gen.h **** {
 300:Drivers/lvgl/src/widgets/image/../../core/lv_obj_style_gen.h ****     lv_style_value_t v = lv_obj_get_style_prop(obj, part, LV_STYLE_BG_IMAGE_RECOLOR);
ARM GAS  /tmp/cc58L00o.s 			page 49


 301:Drivers/lvgl/src/widgets/image/../../core/lv_obj_style_gen.h ****     return v.color;
 302:Drivers/lvgl/src/widgets/image/../../core/lv_obj_style_gen.h **** }
 303:Drivers/lvgl/src/widgets/image/../../core/lv_obj_style_gen.h **** 
 304:Drivers/lvgl/src/widgets/image/../../core/lv_obj_style_gen.h **** static inline lv_color_t lv_obj_get_style_bg_image_recolor_filtered(const lv_obj_t * obj, lv_part_t
 305:Drivers/lvgl/src/widgets/image/../../core/lv_obj_style_gen.h **** {
 306:Drivers/lvgl/src/widgets/image/../../core/lv_obj_style_gen.h ****     lv_style_value_t v = lv_obj_style_apply_color_filter(obj, part, lv_obj_get_style_prop(obj, part
 307:Drivers/lvgl/src/widgets/image/../../core/lv_obj_style_gen.h ****     return v.color;
 308:Drivers/lvgl/src/widgets/image/../../core/lv_obj_style_gen.h **** }
 309:Drivers/lvgl/src/widgets/image/../../core/lv_obj_style_gen.h **** 
 310:Drivers/lvgl/src/widgets/image/../../core/lv_obj_style_gen.h **** static inline lv_opa_t lv_obj_get_style_bg_image_recolor_opa(const lv_obj_t * obj, lv_part_t part)
 311:Drivers/lvgl/src/widgets/image/../../core/lv_obj_style_gen.h **** {
 312:Drivers/lvgl/src/widgets/image/../../core/lv_obj_style_gen.h ****     lv_style_value_t v = lv_obj_get_style_prop(obj, part, LV_STYLE_BG_IMAGE_RECOLOR_OPA);
 313:Drivers/lvgl/src/widgets/image/../../core/lv_obj_style_gen.h ****     return (lv_opa_t)v.num;
 314:Drivers/lvgl/src/widgets/image/../../core/lv_obj_style_gen.h **** }
 315:Drivers/lvgl/src/widgets/image/../../core/lv_obj_style_gen.h **** 
 316:Drivers/lvgl/src/widgets/image/../../core/lv_obj_style_gen.h **** static inline bool lv_obj_get_style_bg_image_tiled(const lv_obj_t * obj, lv_part_t part)
 317:Drivers/lvgl/src/widgets/image/../../core/lv_obj_style_gen.h **** {
 318:Drivers/lvgl/src/widgets/image/../../core/lv_obj_style_gen.h ****     lv_style_value_t v = lv_obj_get_style_prop(obj, part, LV_STYLE_BG_IMAGE_TILED);
 319:Drivers/lvgl/src/widgets/image/../../core/lv_obj_style_gen.h ****     return (bool)v.num;
 320:Drivers/lvgl/src/widgets/image/../../core/lv_obj_style_gen.h **** }
 321:Drivers/lvgl/src/widgets/image/../../core/lv_obj_style_gen.h **** 
 322:Drivers/lvgl/src/widgets/image/../../core/lv_obj_style_gen.h **** static inline lv_color_t lv_obj_get_style_border_color(const lv_obj_t * obj, lv_part_t part)
 323:Drivers/lvgl/src/widgets/image/../../core/lv_obj_style_gen.h **** {
 324:Drivers/lvgl/src/widgets/image/../../core/lv_obj_style_gen.h ****     lv_style_value_t v = lv_obj_get_style_prop(obj, part, LV_STYLE_BORDER_COLOR);
 325:Drivers/lvgl/src/widgets/image/../../core/lv_obj_style_gen.h ****     return v.color;
 326:Drivers/lvgl/src/widgets/image/../../core/lv_obj_style_gen.h **** }
 327:Drivers/lvgl/src/widgets/image/../../core/lv_obj_style_gen.h **** 
 328:Drivers/lvgl/src/widgets/image/../../core/lv_obj_style_gen.h **** static inline lv_color_t lv_obj_get_style_border_color_filtered(const lv_obj_t * obj, lv_part_t par
 329:Drivers/lvgl/src/widgets/image/../../core/lv_obj_style_gen.h **** {
 330:Drivers/lvgl/src/widgets/image/../../core/lv_obj_style_gen.h ****     lv_style_value_t v = lv_obj_style_apply_color_filter(obj, part, lv_obj_get_style_prop(obj, part
 331:Drivers/lvgl/src/widgets/image/../../core/lv_obj_style_gen.h ****     return v.color;
 332:Drivers/lvgl/src/widgets/image/../../core/lv_obj_style_gen.h **** }
 333:Drivers/lvgl/src/widgets/image/../../core/lv_obj_style_gen.h **** 
 334:Drivers/lvgl/src/widgets/image/../../core/lv_obj_style_gen.h **** static inline lv_opa_t lv_obj_get_style_border_opa(const lv_obj_t * obj, lv_part_t part)
 335:Drivers/lvgl/src/widgets/image/../../core/lv_obj_style_gen.h **** {
 336:Drivers/lvgl/src/widgets/image/../../core/lv_obj_style_gen.h ****     lv_style_value_t v = lv_obj_get_style_prop(obj, part, LV_STYLE_BORDER_OPA);
 337:Drivers/lvgl/src/widgets/image/../../core/lv_obj_style_gen.h ****     return (lv_opa_t)v.num;
 338:Drivers/lvgl/src/widgets/image/../../core/lv_obj_style_gen.h **** }
 339:Drivers/lvgl/src/widgets/image/../../core/lv_obj_style_gen.h **** 
 340:Drivers/lvgl/src/widgets/image/../../core/lv_obj_style_gen.h **** static inline int32_t lv_obj_get_style_border_width(const lv_obj_t * obj, lv_part_t part)
 341:Drivers/lvgl/src/widgets/image/../../core/lv_obj_style_gen.h **** {
 342:Drivers/lvgl/src/widgets/image/../../core/lv_obj_style_gen.h ****     lv_style_value_t v = lv_obj_get_style_prop(obj, part, LV_STYLE_BORDER_WIDTH);
 343:Drivers/lvgl/src/widgets/image/../../core/lv_obj_style_gen.h ****     return (int32_t)v.num;
 344:Drivers/lvgl/src/widgets/image/../../core/lv_obj_style_gen.h **** }
 345:Drivers/lvgl/src/widgets/image/../../core/lv_obj_style_gen.h **** 
 346:Drivers/lvgl/src/widgets/image/../../core/lv_obj_style_gen.h **** static inline lv_border_side_t lv_obj_get_style_border_side(const lv_obj_t * obj, lv_part_t part)
 347:Drivers/lvgl/src/widgets/image/../../core/lv_obj_style_gen.h **** {
 348:Drivers/lvgl/src/widgets/image/../../core/lv_obj_style_gen.h ****     lv_style_value_t v = lv_obj_get_style_prop(obj, part, LV_STYLE_BORDER_SIDE);
 349:Drivers/lvgl/src/widgets/image/../../core/lv_obj_style_gen.h ****     return (lv_border_side_t)v.num;
 350:Drivers/lvgl/src/widgets/image/../../core/lv_obj_style_gen.h **** }
 351:Drivers/lvgl/src/widgets/image/../../core/lv_obj_style_gen.h **** 
 352:Drivers/lvgl/src/widgets/image/../../core/lv_obj_style_gen.h **** static inline bool lv_obj_get_style_border_post(const lv_obj_t * obj, lv_part_t part)
 353:Drivers/lvgl/src/widgets/image/../../core/lv_obj_style_gen.h **** {
 354:Drivers/lvgl/src/widgets/image/../../core/lv_obj_style_gen.h ****     lv_style_value_t v = lv_obj_get_style_prop(obj, part, LV_STYLE_BORDER_POST);
 355:Drivers/lvgl/src/widgets/image/../../core/lv_obj_style_gen.h ****     return (bool)v.num;
 356:Drivers/lvgl/src/widgets/image/../../core/lv_obj_style_gen.h **** }
 357:Drivers/lvgl/src/widgets/image/../../core/lv_obj_style_gen.h **** 
ARM GAS  /tmp/cc58L00o.s 			page 50


 358:Drivers/lvgl/src/widgets/image/../../core/lv_obj_style_gen.h **** static inline int32_t lv_obj_get_style_outline_width(const lv_obj_t * obj, lv_part_t part)
 359:Drivers/lvgl/src/widgets/image/../../core/lv_obj_style_gen.h **** {
 360:Drivers/lvgl/src/widgets/image/../../core/lv_obj_style_gen.h ****     lv_style_value_t v = lv_obj_get_style_prop(obj, part, LV_STYLE_OUTLINE_WIDTH);
 361:Drivers/lvgl/src/widgets/image/../../core/lv_obj_style_gen.h ****     return (int32_t)v.num;
 362:Drivers/lvgl/src/widgets/image/../../core/lv_obj_style_gen.h **** }
 363:Drivers/lvgl/src/widgets/image/../../core/lv_obj_style_gen.h **** 
 364:Drivers/lvgl/src/widgets/image/../../core/lv_obj_style_gen.h **** static inline lv_color_t lv_obj_get_style_outline_color(const lv_obj_t * obj, lv_part_t part)
 365:Drivers/lvgl/src/widgets/image/../../core/lv_obj_style_gen.h **** {
 366:Drivers/lvgl/src/widgets/image/../../core/lv_obj_style_gen.h ****     lv_style_value_t v = lv_obj_get_style_prop(obj, part, LV_STYLE_OUTLINE_COLOR);
 367:Drivers/lvgl/src/widgets/image/../../core/lv_obj_style_gen.h ****     return v.color;
 368:Drivers/lvgl/src/widgets/image/../../core/lv_obj_style_gen.h **** }
 369:Drivers/lvgl/src/widgets/image/../../core/lv_obj_style_gen.h **** 
 370:Drivers/lvgl/src/widgets/image/../../core/lv_obj_style_gen.h **** static inline lv_color_t lv_obj_get_style_outline_color_filtered(const lv_obj_t * obj, lv_part_t pa
 371:Drivers/lvgl/src/widgets/image/../../core/lv_obj_style_gen.h **** {
 372:Drivers/lvgl/src/widgets/image/../../core/lv_obj_style_gen.h ****     lv_style_value_t v = lv_obj_style_apply_color_filter(obj, part, lv_obj_get_style_prop(obj, part
 373:Drivers/lvgl/src/widgets/image/../../core/lv_obj_style_gen.h ****     return v.color;
 374:Drivers/lvgl/src/widgets/image/../../core/lv_obj_style_gen.h **** }
 375:Drivers/lvgl/src/widgets/image/../../core/lv_obj_style_gen.h **** 
 376:Drivers/lvgl/src/widgets/image/../../core/lv_obj_style_gen.h **** static inline lv_opa_t lv_obj_get_style_outline_opa(const lv_obj_t * obj, lv_part_t part)
 377:Drivers/lvgl/src/widgets/image/../../core/lv_obj_style_gen.h **** {
 378:Drivers/lvgl/src/widgets/image/../../core/lv_obj_style_gen.h ****     lv_style_value_t v = lv_obj_get_style_prop(obj, part, LV_STYLE_OUTLINE_OPA);
 379:Drivers/lvgl/src/widgets/image/../../core/lv_obj_style_gen.h ****     return (lv_opa_t)v.num;
 380:Drivers/lvgl/src/widgets/image/../../core/lv_obj_style_gen.h **** }
 381:Drivers/lvgl/src/widgets/image/../../core/lv_obj_style_gen.h **** 
 382:Drivers/lvgl/src/widgets/image/../../core/lv_obj_style_gen.h **** static inline int32_t lv_obj_get_style_outline_pad(const lv_obj_t * obj, lv_part_t part)
 383:Drivers/lvgl/src/widgets/image/../../core/lv_obj_style_gen.h **** {
 384:Drivers/lvgl/src/widgets/image/../../core/lv_obj_style_gen.h ****     lv_style_value_t v = lv_obj_get_style_prop(obj, part, LV_STYLE_OUTLINE_PAD);
 385:Drivers/lvgl/src/widgets/image/../../core/lv_obj_style_gen.h ****     return (int32_t)v.num;
 386:Drivers/lvgl/src/widgets/image/../../core/lv_obj_style_gen.h **** }
 387:Drivers/lvgl/src/widgets/image/../../core/lv_obj_style_gen.h **** 
 388:Drivers/lvgl/src/widgets/image/../../core/lv_obj_style_gen.h **** static inline int32_t lv_obj_get_style_shadow_width(const lv_obj_t * obj, lv_part_t part)
 389:Drivers/lvgl/src/widgets/image/../../core/lv_obj_style_gen.h **** {
 390:Drivers/lvgl/src/widgets/image/../../core/lv_obj_style_gen.h ****     lv_style_value_t v = lv_obj_get_style_prop(obj, part, LV_STYLE_SHADOW_WIDTH);
 391:Drivers/lvgl/src/widgets/image/../../core/lv_obj_style_gen.h ****     return (int32_t)v.num;
 392:Drivers/lvgl/src/widgets/image/../../core/lv_obj_style_gen.h **** }
 393:Drivers/lvgl/src/widgets/image/../../core/lv_obj_style_gen.h **** 
 394:Drivers/lvgl/src/widgets/image/../../core/lv_obj_style_gen.h **** static inline int32_t lv_obj_get_style_shadow_offset_x(const lv_obj_t * obj, lv_part_t part)
 395:Drivers/lvgl/src/widgets/image/../../core/lv_obj_style_gen.h **** {
 396:Drivers/lvgl/src/widgets/image/../../core/lv_obj_style_gen.h ****     lv_style_value_t v = lv_obj_get_style_prop(obj, part, LV_STYLE_SHADOW_OFFSET_X);
 397:Drivers/lvgl/src/widgets/image/../../core/lv_obj_style_gen.h ****     return (int32_t)v.num;
 398:Drivers/lvgl/src/widgets/image/../../core/lv_obj_style_gen.h **** }
 399:Drivers/lvgl/src/widgets/image/../../core/lv_obj_style_gen.h **** 
 400:Drivers/lvgl/src/widgets/image/../../core/lv_obj_style_gen.h **** static inline int32_t lv_obj_get_style_shadow_offset_y(const lv_obj_t * obj, lv_part_t part)
 401:Drivers/lvgl/src/widgets/image/../../core/lv_obj_style_gen.h **** {
 402:Drivers/lvgl/src/widgets/image/../../core/lv_obj_style_gen.h ****     lv_style_value_t v = lv_obj_get_style_prop(obj, part, LV_STYLE_SHADOW_OFFSET_Y);
 403:Drivers/lvgl/src/widgets/image/../../core/lv_obj_style_gen.h ****     return (int32_t)v.num;
 404:Drivers/lvgl/src/widgets/image/../../core/lv_obj_style_gen.h **** }
 405:Drivers/lvgl/src/widgets/image/../../core/lv_obj_style_gen.h **** 
 406:Drivers/lvgl/src/widgets/image/../../core/lv_obj_style_gen.h **** static inline int32_t lv_obj_get_style_shadow_spread(const lv_obj_t * obj, lv_part_t part)
 407:Drivers/lvgl/src/widgets/image/../../core/lv_obj_style_gen.h **** {
 408:Drivers/lvgl/src/widgets/image/../../core/lv_obj_style_gen.h ****     lv_style_value_t v = lv_obj_get_style_prop(obj, part, LV_STYLE_SHADOW_SPREAD);
 409:Drivers/lvgl/src/widgets/image/../../core/lv_obj_style_gen.h ****     return (int32_t)v.num;
 410:Drivers/lvgl/src/widgets/image/../../core/lv_obj_style_gen.h **** }
 411:Drivers/lvgl/src/widgets/image/../../core/lv_obj_style_gen.h **** 
 412:Drivers/lvgl/src/widgets/image/../../core/lv_obj_style_gen.h **** static inline lv_color_t lv_obj_get_style_shadow_color(const lv_obj_t * obj, lv_part_t part)
 413:Drivers/lvgl/src/widgets/image/../../core/lv_obj_style_gen.h **** {
 414:Drivers/lvgl/src/widgets/image/../../core/lv_obj_style_gen.h ****     lv_style_value_t v = lv_obj_get_style_prop(obj, part, LV_STYLE_SHADOW_COLOR);
ARM GAS  /tmp/cc58L00o.s 			page 51


 415:Drivers/lvgl/src/widgets/image/../../core/lv_obj_style_gen.h ****     return v.color;
 416:Drivers/lvgl/src/widgets/image/../../core/lv_obj_style_gen.h **** }
 417:Drivers/lvgl/src/widgets/image/../../core/lv_obj_style_gen.h **** 
 418:Drivers/lvgl/src/widgets/image/../../core/lv_obj_style_gen.h **** static inline lv_color_t lv_obj_get_style_shadow_color_filtered(const lv_obj_t * obj, lv_part_t par
 419:Drivers/lvgl/src/widgets/image/../../core/lv_obj_style_gen.h **** {
 420:Drivers/lvgl/src/widgets/image/../../core/lv_obj_style_gen.h ****     lv_style_value_t v = lv_obj_style_apply_color_filter(obj, part, lv_obj_get_style_prop(obj, part
 421:Drivers/lvgl/src/widgets/image/../../core/lv_obj_style_gen.h ****     return v.color;
 422:Drivers/lvgl/src/widgets/image/../../core/lv_obj_style_gen.h **** }
 423:Drivers/lvgl/src/widgets/image/../../core/lv_obj_style_gen.h **** 
 424:Drivers/lvgl/src/widgets/image/../../core/lv_obj_style_gen.h **** static inline lv_opa_t lv_obj_get_style_shadow_opa(const lv_obj_t * obj, lv_part_t part)
 425:Drivers/lvgl/src/widgets/image/../../core/lv_obj_style_gen.h **** {
 426:Drivers/lvgl/src/widgets/image/../../core/lv_obj_style_gen.h ****     lv_style_value_t v = lv_obj_get_style_prop(obj, part, LV_STYLE_SHADOW_OPA);
 427:Drivers/lvgl/src/widgets/image/../../core/lv_obj_style_gen.h ****     return (lv_opa_t)v.num;
 428:Drivers/lvgl/src/widgets/image/../../core/lv_obj_style_gen.h **** }
 429:Drivers/lvgl/src/widgets/image/../../core/lv_obj_style_gen.h **** 
 430:Drivers/lvgl/src/widgets/image/../../core/lv_obj_style_gen.h **** static inline lv_opa_t lv_obj_get_style_image_opa(const lv_obj_t * obj, lv_part_t part)
 1280              		.loc 2 430 24 view .LVU393
 1281              	.LBB22:
 431:Drivers/lvgl/src/widgets/image/../../core/lv_obj_style_gen.h **** {
 432:Drivers/lvgl/src/widgets/image/../../core/lv_obj_style_gen.h ****     lv_style_value_t v = lv_obj_get_style_prop(obj, part, LV_STYLE_IMAGE_OPA);
 1282              		.loc 2 432 5 view .LVU394
 1283              		.loc 2 432 26 is_stmt 0 view .LVU395
 1284 0056 4422     		movs	r2, #68
 1285 0058 0021     		movs	r1, #0
 1286 005a 2846     		mov	r0, r5
 1287 005c FFF7FEFF 		bl	lv_obj_get_style_prop
 1288              	.LVL116:
 1289 0060 0D90     		str	r0, [sp, #52]
 433:Drivers/lvgl/src/widgets/image/../../core/lv_obj_style_gen.h ****     return (lv_opa_t)v.num;
 1290              		.loc 2 433 5 is_stmt 1 view .LVU396
 1291              		.loc 2 433 12 is_stmt 0 view .LVU397
 1292 0062 C0B2     		uxtb	r0, r0
 1293              	.LVL117:
 1294              		.loc 2 433 12 view .LVU398
 1295              	.LBE22:
 1296              	.LBE21:
 728:Drivers/lvgl/src/widgets/image/lv_image.c ****             info->res = LV_COVER_RES_NOT_COVER;
 1297              		.loc 1 728 11 discriminator 1 view .LVU399
 1298 0064 FF28     		cmp	r0, #255
 1299 0066 02D0     		beq	.L93
 729:Drivers/lvgl/src/widgets/image/lv_image.c ****             return;
 1300              		.loc 1 729 13 is_stmt 1 view .LVU400
 729:Drivers/lvgl/src/widgets/image/lv_image.c ****             return;
 1301              		.loc 1 729 23 is_stmt 0 view .LVU401
 1302 0068 0123     		movs	r3, #1
 1303 006a 2370     		strb	r3, [r4]
 730:Drivers/lvgl/src/widgets/image/lv_image.c ****         }
 1304              		.loc 1 730 13 is_stmt 1 view .LVU402
 1305 006c D7E7     		b	.L88
 1306              	.L93:
 733:Drivers/lvgl/src/widgets/image/lv_image.c ****             info->res = LV_COVER_RES_NOT_COVER;
 1307              		.loc 1 733 9 view .LVU403
 733:Drivers/lvgl/src/widgets/image/lv_image.c ****             info->res = LV_COVER_RES_NOT_COVER;
 1308              		.loc 1 733 15 is_stmt 0 view .LVU404
 1309 006e 6B6C     		ldr	r3, [r5, #68]
 733:Drivers/lvgl/src/widgets/image/lv_image.c ****             info->res = LV_COVER_RES_NOT_COVER;
 1310              		.loc 1 733 11 view .LVU405
ARM GAS  /tmp/cc58L00o.s 			page 52


 1311 0070 002B     		cmp	r3, #0
 1312 0072 3DD1     		bne	.L105
 738:Drivers/lvgl/src/widgets/image/lv_image.c ****             if(lv_area_is_in(info->area, &obj->coords, 0) == false) {
 1313              		.loc 1 738 9 is_stmt 1 view .LVU406
 738:Drivers/lvgl/src/widgets/image/lv_image.c ****             if(lv_area_is_in(info->area, &obj->coords, 0) == false) {
 1314              		.loc 1 738 15 is_stmt 0 view .LVU407
 1315 0074 AB6C     		ldr	r3, [r5, #72]
 738:Drivers/lvgl/src/widgets/image/lv_image.c ****             if(lv_area_is_in(info->area, &obj->coords, 0) == false) {
 1316              		.loc 1 738 11 view .LVU408
 1317 0076 B3F5807F 		cmp	r3, #256
 1318 007a 03D1     		bne	.L95
 738:Drivers/lvgl/src/widgets/image/lv_image.c ****             if(lv_area_is_in(info->area, &obj->coords, 0) == false) {
 1319              		.loc 1 738 48 discriminator 1 view .LVU409
 1320 007c EB6C     		ldr	r3, [r5, #76]
 738:Drivers/lvgl/src/widgets/image/lv_image.c ****             if(lv_area_is_in(info->area, &obj->coords, 0) == false) {
 1321              		.loc 1 738 42 discriminator 1 view .LVU410
 1322 007e B3F5807F 		cmp	r3, #256
 1323 0082 38D0     		beq	.L106
 1324              	.L95:
 1325              	.LBB23:
 745:Drivers/lvgl/src/widgets/image/lv_image.c ****             lv_point_t pivot_px;
 1326              		.loc 1 745 13 is_stmt 1 view .LVU411
 746:Drivers/lvgl/src/widgets/image/lv_image.c ****             lv_image_get_pivot(obj, &pivot_px);
 1327              		.loc 1 746 13 view .LVU412
 747:Drivers/lvgl/src/widgets/image/lv_image.c ****             lv_image_buf_get_transformed_area(&a, lv_obj_get_width(obj), lv_obj_get_height(obj), 0,
 1328              		.loc 1 747 13 view .LVU413
 1329 0084 0DF12408 		add	r8, sp, #36
 1330 0088 4146     		mov	r1, r8
 1331 008a 2846     		mov	r0, r5
 1332 008c FFF7FEFF 		bl	lv_image_get_pivot
 1333              	.LVL118:
 748:Drivers/lvgl/src/widgets/image/lv_image.c ****                                               &pivot_px);
 1334              		.loc 1 748 13 view .LVU414
 1335 0090 2846     		mov	r0, r5
 1336 0092 FFF7FEFF 		bl	lv_obj_get_width
 1337              	.LVL119:
 1338 0096 0746     		mov	r7, r0
 748:Drivers/lvgl/src/widgets/image/lv_image.c ****                                               &pivot_px);
 1339              		.loc 1 748 13 is_stmt 0 discriminator 1 view .LVU415
 1340 0098 2846     		mov	r0, r5
 1341 009a FFF7FEFF 		bl	lv_obj_get_height
 1342              	.LVL120:
 1343 009e 0246     		mov	r2, r0
 748:Drivers/lvgl/src/widgets/image/lv_image.c ****                                               &pivot_px);
 1344              		.loc 1 748 104 discriminator 2 view .LVU416
 1345 00a0 AB6C     		ldr	r3, [r5, #72]
 748:Drivers/lvgl/src/widgets/image/lv_image.c ****                                               &pivot_px);
 1346              		.loc 1 748 118 discriminator 2 view .LVU417
 1347 00a2 E96C     		ldr	r1, [r5, #76]
 748:Drivers/lvgl/src/widgets/image/lv_image.c ****                                               &pivot_px);
 1348              		.loc 1 748 13 discriminator 2 view .LVU418
 1349 00a4 0DAE     		add	r6, sp, #52
 1350              	.LVL121:
 748:Drivers/lvgl/src/widgets/image/lv_image.c ****                                               &pivot_px);
 1351              		.loc 1 748 13 discriminator 2 view .LVU419
 1352 00a6 CDF80880 		str	r8, [sp, #8]
 1353 00aa 89B2     		uxth	r1, r1
ARM GAS  /tmp/cc58L00o.s 			page 53


 1354 00ac 0191     		str	r1, [sp, #4]
 1355 00ae 9BB2     		uxth	r3, r3
 1356 00b0 0093     		str	r3, [sp]
 1357 00b2 0023     		movs	r3, #0
 1358 00b4 3946     		mov	r1, r7
 1359 00b6 3046     		mov	r0, r6
 1360 00b8 FFF7FEFF 		bl	lv_image_buf_get_transformed_area
 1361              	.LVL122:
 750:Drivers/lvgl/src/widgets/image/lv_image.c ****             a.y1 += obj->coords.y1;
 1362              		.loc 1 750 13 is_stmt 1 view .LVU420
 750:Drivers/lvgl/src/widgets/image/lv_image.c ****             a.y1 += obj->coords.y1;
 1363              		.loc 1 750 32 is_stmt 0 view .LVU421
 1364 00bc 6A69     		ldr	r2, [r5, #20]
 750:Drivers/lvgl/src/widgets/image/lv_image.c ****             a.y1 += obj->coords.y1;
 1365              		.loc 1 750 18 view .LVU422
 1366 00be 0D9B     		ldr	r3, [sp, #52]
 1367 00c0 1344     		add	r3, r3, r2
 1368 00c2 0D93     		str	r3, [sp, #52]
 751:Drivers/lvgl/src/widgets/image/lv_image.c ****             a.x2 += obj->coords.x1;
 1369              		.loc 1 751 13 is_stmt 1 view .LVU423
 751:Drivers/lvgl/src/widgets/image/lv_image.c ****             a.x2 += obj->coords.x1;
 1370              		.loc 1 751 32 is_stmt 0 view .LVU424
 1371 00c4 AB69     		ldr	r3, [r5, #24]
 751:Drivers/lvgl/src/widgets/image/lv_image.c ****             a.x2 += obj->coords.x1;
 1372              		.loc 1 751 18 view .LVU425
 1373 00c6 0E99     		ldr	r1, [sp, #56]
 1374 00c8 1944     		add	r1, r1, r3
 1375 00ca 0E91     		str	r1, [sp, #56]
 752:Drivers/lvgl/src/widgets/image/lv_image.c ****             a.y2 += obj->coords.y1;
 1376              		.loc 1 752 13 is_stmt 1 view .LVU426
 752:Drivers/lvgl/src/widgets/image/lv_image.c ****             a.y2 += obj->coords.y1;
 1377              		.loc 1 752 14 is_stmt 0 view .LVU427
 1378 00cc 0F99     		ldr	r1, [sp, #60]
 752:Drivers/lvgl/src/widgets/image/lv_image.c ****             a.y2 += obj->coords.y1;
 1379              		.loc 1 752 18 view .LVU428
 1380 00ce 0A44     		add	r2, r2, r1
 1381 00d0 0F92     		str	r2, [sp, #60]
 753:Drivers/lvgl/src/widgets/image/lv_image.c **** 
 1382              		.loc 1 753 13 is_stmt 1 view .LVU429
 753:Drivers/lvgl/src/widgets/image/lv_image.c **** 
 1383              		.loc 1 753 14 is_stmt 0 view .LVU430
 1384 00d2 109A     		ldr	r2, [sp, #64]
 753:Drivers/lvgl/src/widgets/image/lv_image.c **** 
 1385              		.loc 1 753 18 view .LVU431
 1386 00d4 1344     		add	r3, r3, r2
 1387 00d6 1093     		str	r3, [sp, #64]
 755:Drivers/lvgl/src/widgets/image/lv_image.c ****                 info->res = LV_COVER_RES_NOT_COVER;
 1388              		.loc 1 755 13 is_stmt 1 view .LVU432
 755:Drivers/lvgl/src/widgets/image/lv_image.c ****                 info->res = LV_COVER_RES_NOT_COVER;
 1389              		.loc 1 755 16 is_stmt 0 view .LVU433
 1390 00d8 0022     		movs	r2, #0
 1391 00da 3146     		mov	r1, r6
 1392 00dc 6068     		ldr	r0, [r4, #4]
 1393 00de FFF7FEFF 		bl	lv_area_is_in
 1394              	.LVL123:
 755:Drivers/lvgl/src/widgets/image/lv_image.c ****                 info->res = LV_COVER_RES_NOT_COVER;
 1395              		.loc 1 755 15 discriminator 1 view .LVU434
ARM GAS  /tmp/cc58L00o.s 			page 54


 1396 00e2 98B1     		cbz	r0, .L107
 1397              	.L96:
 755:Drivers/lvgl/src/widgets/image/lv_image.c ****                 info->res = LV_COVER_RES_NOT_COVER;
 1398              		.loc 1 755 15 discriminator 1 view .LVU435
 1399              	.LBE23:
 760:Drivers/lvgl/src/widgets/image/lv_image.c ****             info->res = LV_COVER_RES_NOT_COVER;
 1400              		.loc 1 760 9 is_stmt 1 view .LVU436
 760:Drivers/lvgl/src/widgets/image/lv_image.c ****             info->res = LV_COVER_RES_NOT_COVER;
 1401              		.loc 1 760 15 is_stmt 0 view .LVU437
 1402 00e4 2B6B     		ldr	r3, [r5, #48]
 760:Drivers/lvgl/src/widgets/image/lv_image.c ****             info->res = LV_COVER_RES_NOT_COVER;
 1403              		.loc 1 760 11 view .LVU438
 1404 00e6 002B     		cmp	r3, #0
 1405 00e8 99D0     		beq	.L88
 761:Drivers/lvgl/src/widgets/image/lv_image.c ****             return;
 1406              		.loc 1 761 13 is_stmt 1 view .LVU439
 761:Drivers/lvgl/src/widgets/image/lv_image.c ****             return;
 1407              		.loc 1 761 23 is_stmt 0 view .LVU440
 1408 00ea 0123     		movs	r3, #1
 1409 00ec 2370     		strb	r3, [r4]
 762:Drivers/lvgl/src/widgets/image/lv_image.c ****         }
 1410              		.loc 1 762 13 is_stmt 1 view .LVU441
 1411 00ee 96E7     		b	.L88
 1412              	.LVL124:
 1413              	.L105:
 734:Drivers/lvgl/src/widgets/image/lv_image.c ****             return;
 1414              		.loc 1 734 13 view .LVU442
 734:Drivers/lvgl/src/widgets/image/lv_image.c ****             return;
 1415              		.loc 1 734 23 is_stmt 0 view .LVU443
 1416 00f0 0123     		movs	r3, #1
 1417 00f2 2370     		strb	r3, [r4]
 735:Drivers/lvgl/src/widgets/image/lv_image.c ****         }
 1418              		.loc 1 735 13 is_stmt 1 view .LVU444
 1419 00f4 93E7     		b	.L88
 1420              	.L106:
 739:Drivers/lvgl/src/widgets/image/lv_image.c ****                 info->res = LV_COVER_RES_NOT_COVER;
 1421              		.loc 1 739 13 view .LVU445
 739:Drivers/lvgl/src/widgets/image/lv_image.c ****                 info->res = LV_COVER_RES_NOT_COVER;
 1422              		.loc 1 739 16 is_stmt 0 view .LVU446
 1423 00f6 0022     		movs	r2, #0
 1424 00f8 05F11401 		add	r1, r5, #20
 1425 00fc 6068     		ldr	r0, [r4, #4]
 1426 00fe FFF7FEFF 		bl	lv_area_is_in
 1427              	.LVL125:
 739:Drivers/lvgl/src/widgets/image/lv_image.c ****                 info->res = LV_COVER_RES_NOT_COVER;
 1428              		.loc 1 739 15 discriminator 1 view .LVU447
 1429 0102 0028     		cmp	r0, #0
 1430 0104 EED1     		bne	.L96
 740:Drivers/lvgl/src/widgets/image/lv_image.c ****                 return;
 1431              		.loc 1 740 17 is_stmt 1 view .LVU448
 740:Drivers/lvgl/src/widgets/image/lv_image.c ****                 return;
 1432              		.loc 1 740 27 is_stmt 0 view .LVU449
 1433 0106 0123     		movs	r3, #1
 1434 0108 2370     		strb	r3, [r4]
 741:Drivers/lvgl/src/widgets/image/lv_image.c ****             }
 1435              		.loc 1 741 17 is_stmt 1 view .LVU450
 1436 010a 88E7     		b	.L88
ARM GAS  /tmp/cc58L00o.s 			page 55


 1437              	.LVL126:
 1438              	.L107:
 1439              	.LBB24:
 756:Drivers/lvgl/src/widgets/image/lv_image.c ****                 return;
 1440              		.loc 1 756 17 view .LVU451
 756:Drivers/lvgl/src/widgets/image/lv_image.c ****                 return;
 1441              		.loc 1 756 27 is_stmt 0 view .LVU452
 1442 010c 0123     		movs	r3, #1
 1443 010e 2370     		strb	r3, [r4]
 757:Drivers/lvgl/src/widgets/image/lv_image.c ****             }
 1444              		.loc 1 757 17 is_stmt 1 view .LVU453
 1445 0110 85E7     		b	.L88
 1446              	.LVL127:
 1447              	.L104:
 757:Drivers/lvgl/src/widgets/image/lv_image.c ****             }
 1448              		.loc 1 757 17 is_stmt 0 view .LVU454
 1449              	.LBE24:
 1450              	.LBE20:
 1451              	.LBB25:
 767:Drivers/lvgl/src/widgets/image/lv_image.c ****         if(img->scale_x == 0 || img->scale_y == 0) return;
 1452              		.loc 1 767 9 is_stmt 1 view .LVU455
 767:Drivers/lvgl/src/widgets/image/lv_image.c ****         if(img->scale_x == 0 || img->scale_y == 0) return;
 1453              		.loc 1 767 15 is_stmt 0 view .LVU456
 1454 0112 036C     		ldr	r3, [r0, #64]
 767:Drivers/lvgl/src/widgets/image/lv_image.c ****         if(img->scale_x == 0 || img->scale_y == 0) return;
 1455              		.loc 1 767 11 view .LVU457
 1456 0114 002B     		cmp	r3, #0
 1457 0116 82D0     		beq	.L88
 767:Drivers/lvgl/src/widgets/image/lv_image.c ****         if(img->scale_x == 0 || img->scale_y == 0) return;
 1458              		.loc 1 767 30 discriminator 2 view .LVU458
 1459 0118 C36B     		ldr	r3, [r0, #60]
 767:Drivers/lvgl/src/widgets/image/lv_image.c ****         if(img->scale_x == 0 || img->scale_y == 0) return;
 1460              		.loc 1 767 24 discriminator 2 view .LVU459
 1461 011a 002B     		cmp	r3, #0
 1462 011c 3FF47FAF 		beq	.L88
 768:Drivers/lvgl/src/widgets/image/lv_image.c **** 
 1463              		.loc 1 768 9 is_stmt 1 view .LVU460
 768:Drivers/lvgl/src/widgets/image/lv_image.c **** 
 1464              		.loc 1 768 15 is_stmt 0 view .LVU461
 1465 0120 836C     		ldr	r3, [r0, #72]
 768:Drivers/lvgl/src/widgets/image/lv_image.c **** 
 1466              		.loc 1 768 11 view .LVU462
 1467 0122 002B     		cmp	r3, #0
 1468 0124 3FF47BAF 		beq	.L88
 768:Drivers/lvgl/src/widgets/image/lv_image.c **** 
 1469              		.loc 1 768 36 discriminator 2 view .LVU463
 1470 0128 C36C     		ldr	r3, [r0, #76]
 768:Drivers/lvgl/src/widgets/image/lv_image.c **** 
 1471              		.loc 1 768 30 discriminator 2 view .LVU464
 1472 012a 002B     		cmp	r3, #0
 1473 012c 3FF477AF 		beq	.L88
 770:Drivers/lvgl/src/widgets/image/lv_image.c **** 
 1474              		.loc 1 770 9 is_stmt 1 view .LVU465
 770:Drivers/lvgl/src/widgets/image/lv_image.c **** 
 1475              		.loc 1 770 30 is_stmt 0 view .LVU466
 1476 0130 3046     		mov	r0, r6
 1477              	.LVL128:
ARM GAS  /tmp/cc58L00o.s 			page 56


 770:Drivers/lvgl/src/widgets/image/lv_image.c **** 
 1478              		.loc 1 770 30 view .LVU467
 1479 0132 FFF7FEFF 		bl	lv_event_get_layer
 1480              	.LVL129:
 1481 0136 0446     		mov	r4, r0
 1482              	.LVL130:
 772:Drivers/lvgl/src/widgets/image/lv_image.c ****             lv_draw_image_dsc_t draw_dsc;
 1483              		.loc 1 772 9 is_stmt 1 view .LVU468
 772:Drivers/lvgl/src/widgets/image/lv_image.c ****             lv_draw_image_dsc_t draw_dsc;
 1484              		.loc 1 772 26 is_stmt 0 view .LVU469
 1485 0138 95F85830 		ldrb	r3, [r5, #88]	@ zero_extendqisi2
 772:Drivers/lvgl/src/widgets/image/lv_image.c ****             lv_draw_image_dsc_t draw_dsc;
 1486              		.loc 1 772 11 view .LVU470
 1487 013c 13F0020F 		tst	r3, #2
 1488 0140 17D0     		beq	.L108
 818:Drivers/lvgl/src/widgets/image/lv_image.c ****             lv_draw_label_dsc_t label_dsc;
 1489              		.loc 1 818 14 is_stmt 1 view .LVU471
 818:Drivers/lvgl/src/widgets/image/lv_image.c ****             lv_draw_label_dsc_t label_dsc;
 1490              		.loc 1 818 31 is_stmt 0 view .LVU472
 1491 0142 03F00303 		and	r3, r3, #3
 818:Drivers/lvgl/src/widgets/image/lv_image.c ****             lv_draw_label_dsc_t label_dsc;
 1492              		.loc 1 818 16 view .LVU473
 1493 0146 022B     		cmp	r3, #2
 1494 0148 7FF469AF 		bne	.L88
 1495              	.LBB26:
 819:Drivers/lvgl/src/widgets/image/lv_image.c ****             lv_draw_label_dsc_init(&label_dsc);
 1496              		.loc 1 819 13 is_stmt 1 view .LVU474
 820:Drivers/lvgl/src/widgets/image/lv_image.c ****             label_dsc.base.layer = layer;
 1497              		.loc 1 820 13 view .LVU475
 1498 014c 0DAE     		add	r6, sp, #52
 1499              	.LVL131:
 820:Drivers/lvgl/src/widgets/image/lv_image.c ****             label_dsc.base.layer = layer;
 1500              		.loc 1 820 13 is_stmt 0 view .LVU476
 1501 014e 3046     		mov	r0, r6
 1502              	.LVL132:
 820:Drivers/lvgl/src/widgets/image/lv_image.c ****             label_dsc.base.layer = layer;
 1503              		.loc 1 820 13 view .LVU477
 1504 0150 FFF7FEFF 		bl	lv_draw_label_dsc_init
 1505              	.LVL133:
 821:Drivers/lvgl/src/widgets/image/lv_image.c ****             lv_obj_init_draw_label_dsc(obj, LV_PART_MAIN, &label_dsc);
 1506              		.loc 1 821 13 is_stmt 1 view .LVU478
 821:Drivers/lvgl/src/widgets/image/lv_image.c ****             lv_obj_init_draw_label_dsc(obj, LV_PART_MAIN, &label_dsc);
 1507              		.loc 1 821 34 is_stmt 0 view .LVU479
 1508 0154 1194     		str	r4, [sp, #68]
 822:Drivers/lvgl/src/widgets/image/lv_image.c ****             label_dsc.text = img->src;
 1509              		.loc 1 822 13 is_stmt 1 view .LVU480
 1510 0156 3246     		mov	r2, r6
 1511 0158 0021     		movs	r1, #0
 1512 015a 2846     		mov	r0, r5
 1513 015c FFF7FEFF 		bl	lv_obj_init_draw_label_dsc
 1514              	.LVL134:
 823:Drivers/lvgl/src/widgets/image/lv_image.c ****             lv_draw_label(layer, &label_dsc, &obj->coords);
 1515              		.loc 1 823 13 view .LVU481
 823:Drivers/lvgl/src/widgets/image/lv_image.c ****             lv_draw_label(layer, &label_dsc, &obj->coords);
 1516              		.loc 1 823 33 is_stmt 0 view .LVU482
 1517 0160 EB6A     		ldr	r3, [r5, #44]
 823:Drivers/lvgl/src/widgets/image/lv_image.c ****             lv_draw_label(layer, &label_dsc, &obj->coords);
ARM GAS  /tmp/cc58L00o.s 			page 57


 1518              		.loc 1 823 28 view .LVU483
 1519 0162 1493     		str	r3, [sp, #80]
 824:Drivers/lvgl/src/widgets/image/lv_image.c ****         }
 1520              		.loc 1 824 13 is_stmt 1 view .LVU484
 1521 0164 05F11402 		add	r2, r5, #20
 1522 0168 3146     		mov	r1, r6
 1523 016a 2046     		mov	r0, r4
 1524 016c FFF7FEFF 		bl	lv_draw_label
 1525              	.LVL135:
 1526              	.LBE26:
 832:Drivers/lvgl/src/widgets/image/lv_image.c ****         }
 1527              		.loc 1 832 13 view .LVU485
 832:Drivers/lvgl/src/widgets/image/lv_image.c ****         }
 1528              		.loc 1 832 13 view .LVU486
 832:Drivers/lvgl/src/widgets/image/lv_image.c ****         }
 1529              		.loc 1 832 13 view .LVU487
 1530 0170 55E7     		b	.L88
 1531              	.LVL136:
 1532              	.L108:
 1533              	.LBB27:
 773:Drivers/lvgl/src/widgets/image/lv_image.c ****             lv_draw_image_dsc_init(&draw_dsc);
 1534              		.loc 1 773 13 view .LVU488
 774:Drivers/lvgl/src/widgets/image/lv_image.c ****             draw_dsc.base.layer = layer;
 1535              		.loc 1 774 13 view .LVU489
 1536 0172 0DAE     		add	r6, sp, #52
 1537              	.LVL137:
 774:Drivers/lvgl/src/widgets/image/lv_image.c ****             draw_dsc.base.layer = layer;
 1538              		.loc 1 774 13 is_stmt 0 view .LVU490
 1539 0174 3046     		mov	r0, r6
 1540              	.LVL138:
 774:Drivers/lvgl/src/widgets/image/lv_image.c ****             draw_dsc.base.layer = layer;
 1541              		.loc 1 774 13 view .LVU491
 1542 0176 FFF7FEFF 		bl	lv_draw_image_dsc_init
 1543              	.LVL139:
 775:Drivers/lvgl/src/widgets/image/lv_image.c ****             lv_obj_init_draw_image_dsc(obj, LV_PART_MAIN, &draw_dsc);
 1544              		.loc 1 775 13 is_stmt 1 view .LVU492
 775:Drivers/lvgl/src/widgets/image/lv_image.c ****             lv_obj_init_draw_image_dsc(obj, LV_PART_MAIN, &draw_dsc);
 1545              		.loc 1 775 33 is_stmt 0 view .LVU493
 1546 017a 1194     		str	r4, [sp, #68]
 776:Drivers/lvgl/src/widgets/image/lv_image.c **** 
 1547              		.loc 1 776 13 is_stmt 1 view .LVU494
 1548 017c 3246     		mov	r2, r6
 1549 017e 0021     		movs	r1, #0
 1550 0180 2846     		mov	r0, r5
 1551 0182 FFF7FEFF 		bl	lv_obj_init_draw_image_dsc
 1552              	.LVL140:
 778:Drivers/lvgl/src/widgets/image/lv_image.c **** 
 1553              		.loc 1 778 13 view .LVU495
 778:Drivers/lvgl/src/widgets/image/lv_image.c **** 
 1554              		.loc 1 778 23 is_stmt 0 view .LVU496
 1555 0186 05AE     		add	r6, sp, #20
 1556 0188 04F11803 		add	r3, r4, #24
 1557 018c 0FCB     		ldm	r3, {r0, r1, r2, r3}
 1558 018e 86E80F00 		stm	r6, {r0, r1, r2, r3}
 780:Drivers/lvgl/src/widgets/image/lv_image.c ****             draw_dsc.scale_x = img->scale_x;
 1559              		.loc 1 780 13 is_stmt 1 view .LVU497
 1560 0192 1EA9     		add	r1, sp, #120
ARM GAS  /tmp/cc58L00o.s 			page 58


 1561 0194 2846     		mov	r0, r5
 1562 0196 FFF7FEFF 		bl	lv_image_get_pivot
 1563              	.LVL141:
 781:Drivers/lvgl/src/widgets/image/lv_image.c ****             draw_dsc.scale_y = img->scale_y;
 1564              		.loc 1 781 13 view .LVU498
 781:Drivers/lvgl/src/widgets/image/lv_image.c ****             draw_dsc.scale_y = img->scale_y;
 1565              		.loc 1 781 35 is_stmt 0 view .LVU499
 1566 019a AB6C     		ldr	r3, [r5, #72]
 781:Drivers/lvgl/src/widgets/image/lv_image.c ****             draw_dsc.scale_y = img->scale_y;
 1567              		.loc 1 781 30 view .LVU500
 1568 019c 1A93     		str	r3, [sp, #104]
 782:Drivers/lvgl/src/widgets/image/lv_image.c ****             draw_dsc.rotation = img->rotation;
 1569              		.loc 1 782 13 is_stmt 1 view .LVU501
 782:Drivers/lvgl/src/widgets/image/lv_image.c ****             draw_dsc.rotation = img->rotation;
 1570              		.loc 1 782 35 is_stmt 0 view .LVU502
 1571 019e EB6C     		ldr	r3, [r5, #76]
 782:Drivers/lvgl/src/widgets/image/lv_image.c ****             draw_dsc.rotation = img->rotation;
 1572              		.loc 1 782 30 view .LVU503
 1573 01a0 1B93     		str	r3, [sp, #108]
 783:Drivers/lvgl/src/widgets/image/lv_image.c ****             draw_dsc.antialias = img->antialias;
 1574              		.loc 1 783 13 is_stmt 1 view .LVU504
 783:Drivers/lvgl/src/widgets/image/lv_image.c ****             draw_dsc.antialias = img->antialias;
 1575              		.loc 1 783 36 is_stmt 0 view .LVU505
 1576 01a2 6B6C     		ldr	r3, [r5, #68]
 783:Drivers/lvgl/src/widgets/image/lv_image.c ****             draw_dsc.antialias = img->antialias;
 1577              		.loc 1 783 31 view .LVU506
 1578 01a4 1993     		str	r3, [sp, #100]
 784:Drivers/lvgl/src/widgets/image/lv_image.c ****             draw_dsc.blend_mode = img->blend_mode;
 1579              		.loc 1 784 13 is_stmt 1 view .LVU507
 784:Drivers/lvgl/src/widgets/image/lv_image.c ****             draw_dsc.blend_mode = img->blend_mode;
 1580              		.loc 1 784 37 is_stmt 0 view .LVU508
 1581 01a6 95F85830 		ldrb	r3, [r5, #88]	@ zero_extendqisi2
 1582 01aa DB09     		lsrs	r3, r3, #7
 784:Drivers/lvgl/src/widgets/image/lv_image.c ****             draw_dsc.blend_mode = img->blend_mode;
 1583              		.loc 1 784 32 view .LVU509
 1584 01ac 9DF88520 		ldrb	r2, [sp, #133]	@ zero_extendqisi2
 1585 01b0 63F30412 		bfi	r2, r3, #4, #1
 1586 01b4 8DF88520 		strb	r2, [sp, #133]
 785:Drivers/lvgl/src/widgets/image/lv_image.c ****             draw_dsc.bitmap_mask_src = img->bitmap_mask_src;
 1587              		.loc 1 785 13 is_stmt 1 view .LVU510
 785:Drivers/lvgl/src/widgets/image/lv_image.c ****             draw_dsc.bitmap_mask_src = img->bitmap_mask_src;
 1588              		.loc 1 785 38 is_stmt 0 view .LVU511
 1589 01b8 95F85930 		ldrb	r3, [r5, #89]	@ zero_extendqisi2
 1590 01bc 1B09     		lsrs	r3, r3, #4
 785:Drivers/lvgl/src/widgets/image/lv_image.c ****             draw_dsc.bitmap_mask_src = img->bitmap_mask_src;
 1591              		.loc 1 785 33 view .LVU512
 1592 01be D2B2     		uxtb	r2, r2
 1593 01c0 63F30302 		bfi	r2, r3, #0, #4
 1594 01c4 8DF88520 		strb	r2, [sp, #133]
 786:Drivers/lvgl/src/widgets/image/lv_image.c ****             draw_dsc.src = img->src;
 1595              		.loc 1 786 13 is_stmt 1 view .LVU513
 786:Drivers/lvgl/src/widgets/image/lv_image.c ****             draw_dsc.src = img->src;
 1596              		.loc 1 786 43 is_stmt 0 view .LVU514
 1597 01c8 2B6B     		ldr	r3, [r5, #48]
 786:Drivers/lvgl/src/widgets/image/lv_image.c ****             draw_dsc.src = img->src;
 1598              		.loc 1 786 38 view .LVU515
 1599 01ca 2793     		str	r3, [sp, #156]
ARM GAS  /tmp/cc58L00o.s 			page 59


 787:Drivers/lvgl/src/widgets/image/lv_image.c **** 
 1600              		.loc 1 787 13 is_stmt 1 view .LVU516
 787:Drivers/lvgl/src/widgets/image/lv_image.c **** 
 1601              		.loc 1 787 31 is_stmt 0 view .LVU517
 1602 01cc EB6A     		ldr	r3, [r5, #44]
 787:Drivers/lvgl/src/widgets/image/lv_image.c **** 
 1603              		.loc 1 787 26 view .LVU518
 1604 01ce 1493     		str	r3, [sp, #80]
 789:Drivers/lvgl/src/widgets/image/lv_image.c ****                         obj->coords.y1,
 1605              		.loc 1 789 13 is_stmt 1 view .LVU519
 1606 01d0 6969     		ldr	r1, [r5, #20]
 1607 01d2 AA69     		ldr	r2, [r5, #24]
 791:Drivers/lvgl/src/widgets/image/lv_image.c ****                         obj->coords.y1 + img->h - 1);
 1608              		.loc 1 791 45 is_stmt 0 view .LVU520
 1609 01d4 EB6B     		ldr	r3, [r5, #60]
 791:Drivers/lvgl/src/widgets/image/lv_image.c ****                         obj->coords.y1 + img->h - 1);
 1610              		.loc 1 791 40 view .LVU521
 1611 01d6 0B44     		add	r3, r3, r1
 792:Drivers/lvgl/src/widgets/image/lv_image.c **** 
 1612              		.loc 1 792 45 view .LVU522
 1613 01d8 286C     		ldr	r0, [r5, #64]
 792:Drivers/lvgl/src/widgets/image/lv_image.c **** 
 1614              		.loc 1 792 40 view .LVU523
 1615 01da 1044     		add	r0, r0, r2
 789:Drivers/lvgl/src/widgets/image/lv_image.c ****                         obj->coords.y1,
 1616              		.loc 1 789 13 view .LVU524
 1617 01dc 0138     		subs	r0, r0, #1
 1618 01de 0090     		str	r0, [sp]
 1619 01e0 013B     		subs	r3, r3, #1
 1620 01e2 23A8     		add	r0, sp, #140
 1621 01e4 FFF7FEFF 		bl	lv_area_set
 1622              	.LVL142:
 794:Drivers/lvgl/src/widgets/image/lv_image.c **** 
 1623              		.loc 1 794 13 is_stmt 1 view .LVU525
 1624              	.LBB28:
 1625              	.LBI28:
 434:Drivers/lvgl/src/widgets/image/../../core/lv_obj_style_gen.h **** }
 435:Drivers/lvgl/src/widgets/image/../../core/lv_obj_style_gen.h **** 
 436:Drivers/lvgl/src/widgets/image/../../core/lv_obj_style_gen.h **** static inline lv_color_t lv_obj_get_style_image_recolor(const lv_obj_t * obj, lv_part_t part)
 437:Drivers/lvgl/src/widgets/image/../../core/lv_obj_style_gen.h **** {
 438:Drivers/lvgl/src/widgets/image/../../core/lv_obj_style_gen.h ****     lv_style_value_t v = lv_obj_get_style_prop(obj, part, LV_STYLE_IMAGE_RECOLOR);
 439:Drivers/lvgl/src/widgets/image/../../core/lv_obj_style_gen.h ****     return v.color;
 440:Drivers/lvgl/src/widgets/image/../../core/lv_obj_style_gen.h **** }
 441:Drivers/lvgl/src/widgets/image/../../core/lv_obj_style_gen.h **** 
 442:Drivers/lvgl/src/widgets/image/../../core/lv_obj_style_gen.h **** static inline lv_color_t lv_obj_get_style_image_recolor_filtered(const lv_obj_t * obj, lv_part_t pa
 443:Drivers/lvgl/src/widgets/image/../../core/lv_obj_style_gen.h **** {
 444:Drivers/lvgl/src/widgets/image/../../core/lv_obj_style_gen.h ****     lv_style_value_t v = lv_obj_style_apply_color_filter(obj, part, lv_obj_get_style_prop(obj, part
 445:Drivers/lvgl/src/widgets/image/../../core/lv_obj_style_gen.h ****     return v.color;
 446:Drivers/lvgl/src/widgets/image/../../core/lv_obj_style_gen.h **** }
 447:Drivers/lvgl/src/widgets/image/../../core/lv_obj_style_gen.h **** 
 448:Drivers/lvgl/src/widgets/image/../../core/lv_obj_style_gen.h **** static inline lv_opa_t lv_obj_get_style_image_recolor_opa(const lv_obj_t * obj, lv_part_t part)
 449:Drivers/lvgl/src/widgets/image/../../core/lv_obj_style_gen.h **** {
 450:Drivers/lvgl/src/widgets/image/../../core/lv_obj_style_gen.h ****     lv_style_value_t v = lv_obj_get_style_prop(obj, part, LV_STYLE_IMAGE_RECOLOR_OPA);
 451:Drivers/lvgl/src/widgets/image/../../core/lv_obj_style_gen.h ****     return (lv_opa_t)v.num;
 452:Drivers/lvgl/src/widgets/image/../../core/lv_obj_style_gen.h **** }
 453:Drivers/lvgl/src/widgets/image/../../core/lv_obj_style_gen.h **** 
 454:Drivers/lvgl/src/widgets/image/../../core/lv_obj_style_gen.h **** static inline int32_t lv_obj_get_style_line_width(const lv_obj_t * obj, lv_part_t part)
ARM GAS  /tmp/cc58L00o.s 			page 60


 455:Drivers/lvgl/src/widgets/image/../../core/lv_obj_style_gen.h **** {
 456:Drivers/lvgl/src/widgets/image/../../core/lv_obj_style_gen.h ****     lv_style_value_t v = lv_obj_get_style_prop(obj, part, LV_STYLE_LINE_WIDTH);
 457:Drivers/lvgl/src/widgets/image/../../core/lv_obj_style_gen.h ****     return (int32_t)v.num;
 458:Drivers/lvgl/src/widgets/image/../../core/lv_obj_style_gen.h **** }
 459:Drivers/lvgl/src/widgets/image/../../core/lv_obj_style_gen.h **** 
 460:Drivers/lvgl/src/widgets/image/../../core/lv_obj_style_gen.h **** static inline int32_t lv_obj_get_style_line_dash_width(const lv_obj_t * obj, lv_part_t part)
 461:Drivers/lvgl/src/widgets/image/../../core/lv_obj_style_gen.h **** {
 462:Drivers/lvgl/src/widgets/image/../../core/lv_obj_style_gen.h ****     lv_style_value_t v = lv_obj_get_style_prop(obj, part, LV_STYLE_LINE_DASH_WIDTH);
 463:Drivers/lvgl/src/widgets/image/../../core/lv_obj_style_gen.h ****     return (int32_t)v.num;
 464:Drivers/lvgl/src/widgets/image/../../core/lv_obj_style_gen.h **** }
 465:Drivers/lvgl/src/widgets/image/../../core/lv_obj_style_gen.h **** 
 466:Drivers/lvgl/src/widgets/image/../../core/lv_obj_style_gen.h **** static inline int32_t lv_obj_get_style_line_dash_gap(const lv_obj_t * obj, lv_part_t part)
 467:Drivers/lvgl/src/widgets/image/../../core/lv_obj_style_gen.h **** {
 468:Drivers/lvgl/src/widgets/image/../../core/lv_obj_style_gen.h ****     lv_style_value_t v = lv_obj_get_style_prop(obj, part, LV_STYLE_LINE_DASH_GAP);
 469:Drivers/lvgl/src/widgets/image/../../core/lv_obj_style_gen.h ****     return (int32_t)v.num;
 470:Drivers/lvgl/src/widgets/image/../../core/lv_obj_style_gen.h **** }
 471:Drivers/lvgl/src/widgets/image/../../core/lv_obj_style_gen.h **** 
 472:Drivers/lvgl/src/widgets/image/../../core/lv_obj_style_gen.h **** static inline bool lv_obj_get_style_line_rounded(const lv_obj_t * obj, lv_part_t part)
 473:Drivers/lvgl/src/widgets/image/../../core/lv_obj_style_gen.h **** {
 474:Drivers/lvgl/src/widgets/image/../../core/lv_obj_style_gen.h ****     lv_style_value_t v = lv_obj_get_style_prop(obj, part, LV_STYLE_LINE_ROUNDED);
 475:Drivers/lvgl/src/widgets/image/../../core/lv_obj_style_gen.h ****     return (bool)v.num;
 476:Drivers/lvgl/src/widgets/image/../../core/lv_obj_style_gen.h **** }
 477:Drivers/lvgl/src/widgets/image/../../core/lv_obj_style_gen.h **** 
 478:Drivers/lvgl/src/widgets/image/../../core/lv_obj_style_gen.h **** static inline lv_color_t lv_obj_get_style_line_color(const lv_obj_t * obj, lv_part_t part)
 479:Drivers/lvgl/src/widgets/image/../../core/lv_obj_style_gen.h **** {
 480:Drivers/lvgl/src/widgets/image/../../core/lv_obj_style_gen.h ****     lv_style_value_t v = lv_obj_get_style_prop(obj, part, LV_STYLE_LINE_COLOR);
 481:Drivers/lvgl/src/widgets/image/../../core/lv_obj_style_gen.h ****     return v.color;
 482:Drivers/lvgl/src/widgets/image/../../core/lv_obj_style_gen.h **** }
 483:Drivers/lvgl/src/widgets/image/../../core/lv_obj_style_gen.h **** 
 484:Drivers/lvgl/src/widgets/image/../../core/lv_obj_style_gen.h **** static inline lv_color_t lv_obj_get_style_line_color_filtered(const lv_obj_t * obj, lv_part_t part)
 485:Drivers/lvgl/src/widgets/image/../../core/lv_obj_style_gen.h **** {
 486:Drivers/lvgl/src/widgets/image/../../core/lv_obj_style_gen.h ****     lv_style_value_t v = lv_obj_style_apply_color_filter(obj, part, lv_obj_get_style_prop(obj, part
 487:Drivers/lvgl/src/widgets/image/../../core/lv_obj_style_gen.h ****     return v.color;
 488:Drivers/lvgl/src/widgets/image/../../core/lv_obj_style_gen.h **** }
 489:Drivers/lvgl/src/widgets/image/../../core/lv_obj_style_gen.h **** 
 490:Drivers/lvgl/src/widgets/image/../../core/lv_obj_style_gen.h **** static inline lv_opa_t lv_obj_get_style_line_opa(const lv_obj_t * obj, lv_part_t part)
 491:Drivers/lvgl/src/widgets/image/../../core/lv_obj_style_gen.h **** {
 492:Drivers/lvgl/src/widgets/image/../../core/lv_obj_style_gen.h ****     lv_style_value_t v = lv_obj_get_style_prop(obj, part, LV_STYLE_LINE_OPA);
 493:Drivers/lvgl/src/widgets/image/../../core/lv_obj_style_gen.h ****     return (lv_opa_t)v.num;
 494:Drivers/lvgl/src/widgets/image/../../core/lv_obj_style_gen.h **** }
 495:Drivers/lvgl/src/widgets/image/../../core/lv_obj_style_gen.h **** 
 496:Drivers/lvgl/src/widgets/image/../../core/lv_obj_style_gen.h **** static inline int32_t lv_obj_get_style_arc_width(const lv_obj_t * obj, lv_part_t part)
 497:Drivers/lvgl/src/widgets/image/../../core/lv_obj_style_gen.h **** {
 498:Drivers/lvgl/src/widgets/image/../../core/lv_obj_style_gen.h ****     lv_style_value_t v = lv_obj_get_style_prop(obj, part, LV_STYLE_ARC_WIDTH);
 499:Drivers/lvgl/src/widgets/image/../../core/lv_obj_style_gen.h ****     return (int32_t)v.num;
 500:Drivers/lvgl/src/widgets/image/../../core/lv_obj_style_gen.h **** }
 501:Drivers/lvgl/src/widgets/image/../../core/lv_obj_style_gen.h **** 
 502:Drivers/lvgl/src/widgets/image/../../core/lv_obj_style_gen.h **** static inline bool lv_obj_get_style_arc_rounded(const lv_obj_t * obj, lv_part_t part)
 503:Drivers/lvgl/src/widgets/image/../../core/lv_obj_style_gen.h **** {
 504:Drivers/lvgl/src/widgets/image/../../core/lv_obj_style_gen.h ****     lv_style_value_t v = lv_obj_get_style_prop(obj, part, LV_STYLE_ARC_ROUNDED);
 505:Drivers/lvgl/src/widgets/image/../../core/lv_obj_style_gen.h ****     return (bool)v.num;
 506:Drivers/lvgl/src/widgets/image/../../core/lv_obj_style_gen.h **** }
 507:Drivers/lvgl/src/widgets/image/../../core/lv_obj_style_gen.h **** 
 508:Drivers/lvgl/src/widgets/image/../../core/lv_obj_style_gen.h **** static inline lv_color_t lv_obj_get_style_arc_color(const lv_obj_t * obj, lv_part_t part)
 509:Drivers/lvgl/src/widgets/image/../../core/lv_obj_style_gen.h **** {
 510:Drivers/lvgl/src/widgets/image/../../core/lv_obj_style_gen.h ****     lv_style_value_t v = lv_obj_get_style_prop(obj, part, LV_STYLE_ARC_COLOR);
 511:Drivers/lvgl/src/widgets/image/../../core/lv_obj_style_gen.h ****     return v.color;
ARM GAS  /tmp/cc58L00o.s 			page 61


 512:Drivers/lvgl/src/widgets/image/../../core/lv_obj_style_gen.h **** }
 513:Drivers/lvgl/src/widgets/image/../../core/lv_obj_style_gen.h **** 
 514:Drivers/lvgl/src/widgets/image/../../core/lv_obj_style_gen.h **** static inline lv_color_t lv_obj_get_style_arc_color_filtered(const lv_obj_t * obj, lv_part_t part)
 515:Drivers/lvgl/src/widgets/image/../../core/lv_obj_style_gen.h **** {
 516:Drivers/lvgl/src/widgets/image/../../core/lv_obj_style_gen.h ****     lv_style_value_t v = lv_obj_style_apply_color_filter(obj, part, lv_obj_get_style_prop(obj, part
 517:Drivers/lvgl/src/widgets/image/../../core/lv_obj_style_gen.h ****     return v.color;
 518:Drivers/lvgl/src/widgets/image/../../core/lv_obj_style_gen.h **** }
 519:Drivers/lvgl/src/widgets/image/../../core/lv_obj_style_gen.h **** 
 520:Drivers/lvgl/src/widgets/image/../../core/lv_obj_style_gen.h **** static inline lv_opa_t lv_obj_get_style_arc_opa(const lv_obj_t * obj, lv_part_t part)
 521:Drivers/lvgl/src/widgets/image/../../core/lv_obj_style_gen.h **** {
 522:Drivers/lvgl/src/widgets/image/../../core/lv_obj_style_gen.h ****     lv_style_value_t v = lv_obj_get_style_prop(obj, part, LV_STYLE_ARC_OPA);
 523:Drivers/lvgl/src/widgets/image/../../core/lv_obj_style_gen.h ****     return (lv_opa_t)v.num;
 524:Drivers/lvgl/src/widgets/image/../../core/lv_obj_style_gen.h **** }
 525:Drivers/lvgl/src/widgets/image/../../core/lv_obj_style_gen.h **** 
 526:Drivers/lvgl/src/widgets/image/../../core/lv_obj_style_gen.h **** static inline const void * lv_obj_get_style_arc_image_src(const lv_obj_t * obj, lv_part_t part)
 527:Drivers/lvgl/src/widgets/image/../../core/lv_obj_style_gen.h **** {
 528:Drivers/lvgl/src/widgets/image/../../core/lv_obj_style_gen.h ****     lv_style_value_t v = lv_obj_get_style_prop(obj, part, LV_STYLE_ARC_IMAGE_SRC);
 529:Drivers/lvgl/src/widgets/image/../../core/lv_obj_style_gen.h ****     return (const void *)v.ptr;
 530:Drivers/lvgl/src/widgets/image/../../core/lv_obj_style_gen.h **** }
 531:Drivers/lvgl/src/widgets/image/../../core/lv_obj_style_gen.h **** 
 532:Drivers/lvgl/src/widgets/image/../../core/lv_obj_style_gen.h **** static inline lv_color_t lv_obj_get_style_text_color(const lv_obj_t * obj, lv_part_t part)
 533:Drivers/lvgl/src/widgets/image/../../core/lv_obj_style_gen.h **** {
 534:Drivers/lvgl/src/widgets/image/../../core/lv_obj_style_gen.h ****     lv_style_value_t v = lv_obj_get_style_prop(obj, part, LV_STYLE_TEXT_COLOR);
 535:Drivers/lvgl/src/widgets/image/../../core/lv_obj_style_gen.h ****     return v.color;
 536:Drivers/lvgl/src/widgets/image/../../core/lv_obj_style_gen.h **** }
 537:Drivers/lvgl/src/widgets/image/../../core/lv_obj_style_gen.h **** 
 538:Drivers/lvgl/src/widgets/image/../../core/lv_obj_style_gen.h **** static inline lv_color_t lv_obj_get_style_text_color_filtered(const lv_obj_t * obj, lv_part_t part)
 539:Drivers/lvgl/src/widgets/image/../../core/lv_obj_style_gen.h **** {
 540:Drivers/lvgl/src/widgets/image/../../core/lv_obj_style_gen.h ****     lv_style_value_t v = lv_obj_style_apply_color_filter(obj, part, lv_obj_get_style_prop(obj, part
 541:Drivers/lvgl/src/widgets/image/../../core/lv_obj_style_gen.h ****     return v.color;
 542:Drivers/lvgl/src/widgets/image/../../core/lv_obj_style_gen.h **** }
 543:Drivers/lvgl/src/widgets/image/../../core/lv_obj_style_gen.h **** 
 544:Drivers/lvgl/src/widgets/image/../../core/lv_obj_style_gen.h **** static inline lv_opa_t lv_obj_get_style_text_opa(const lv_obj_t * obj, lv_part_t part)
 545:Drivers/lvgl/src/widgets/image/../../core/lv_obj_style_gen.h **** {
 546:Drivers/lvgl/src/widgets/image/../../core/lv_obj_style_gen.h ****     lv_style_value_t v = lv_obj_get_style_prop(obj, part, LV_STYLE_TEXT_OPA);
 547:Drivers/lvgl/src/widgets/image/../../core/lv_obj_style_gen.h ****     return (lv_opa_t)v.num;
 548:Drivers/lvgl/src/widgets/image/../../core/lv_obj_style_gen.h **** }
 549:Drivers/lvgl/src/widgets/image/../../core/lv_obj_style_gen.h **** 
 550:Drivers/lvgl/src/widgets/image/../../core/lv_obj_style_gen.h **** static inline const lv_font_t * lv_obj_get_style_text_font(const lv_obj_t * obj, lv_part_t part)
 551:Drivers/lvgl/src/widgets/image/../../core/lv_obj_style_gen.h **** {
 552:Drivers/lvgl/src/widgets/image/../../core/lv_obj_style_gen.h ****     lv_style_value_t v = lv_obj_get_style_prop(obj, part, LV_STYLE_TEXT_FONT);
 553:Drivers/lvgl/src/widgets/image/../../core/lv_obj_style_gen.h ****     return (const lv_font_t *)v.ptr;
 554:Drivers/lvgl/src/widgets/image/../../core/lv_obj_style_gen.h **** }
 555:Drivers/lvgl/src/widgets/image/../../core/lv_obj_style_gen.h **** 
 556:Drivers/lvgl/src/widgets/image/../../core/lv_obj_style_gen.h **** static inline int32_t lv_obj_get_style_text_letter_space(const lv_obj_t * obj, lv_part_t part)
 557:Drivers/lvgl/src/widgets/image/../../core/lv_obj_style_gen.h **** {
 558:Drivers/lvgl/src/widgets/image/../../core/lv_obj_style_gen.h ****     lv_style_value_t v = lv_obj_get_style_prop(obj, part, LV_STYLE_TEXT_LETTER_SPACE);
 559:Drivers/lvgl/src/widgets/image/../../core/lv_obj_style_gen.h ****     return (int32_t)v.num;
 560:Drivers/lvgl/src/widgets/image/../../core/lv_obj_style_gen.h **** }
 561:Drivers/lvgl/src/widgets/image/../../core/lv_obj_style_gen.h **** 
 562:Drivers/lvgl/src/widgets/image/../../core/lv_obj_style_gen.h **** static inline int32_t lv_obj_get_style_text_line_space(const lv_obj_t * obj, lv_part_t part)
 563:Drivers/lvgl/src/widgets/image/../../core/lv_obj_style_gen.h **** {
 564:Drivers/lvgl/src/widgets/image/../../core/lv_obj_style_gen.h ****     lv_style_value_t v = lv_obj_get_style_prop(obj, part, LV_STYLE_TEXT_LINE_SPACE);
 565:Drivers/lvgl/src/widgets/image/../../core/lv_obj_style_gen.h ****     return (int32_t)v.num;
 566:Drivers/lvgl/src/widgets/image/../../core/lv_obj_style_gen.h **** }
 567:Drivers/lvgl/src/widgets/image/../../core/lv_obj_style_gen.h **** 
 568:Drivers/lvgl/src/widgets/image/../../core/lv_obj_style_gen.h **** static inline lv_text_decor_t lv_obj_get_style_text_decor(const lv_obj_t * obj, lv_part_t part)
ARM GAS  /tmp/cc58L00o.s 			page 62


 569:Drivers/lvgl/src/widgets/image/../../core/lv_obj_style_gen.h **** {
 570:Drivers/lvgl/src/widgets/image/../../core/lv_obj_style_gen.h ****     lv_style_value_t v = lv_obj_get_style_prop(obj, part, LV_STYLE_TEXT_DECOR);
 571:Drivers/lvgl/src/widgets/image/../../core/lv_obj_style_gen.h ****     return (lv_text_decor_t)v.num;
 572:Drivers/lvgl/src/widgets/image/../../core/lv_obj_style_gen.h **** }
 573:Drivers/lvgl/src/widgets/image/../../core/lv_obj_style_gen.h **** 
 574:Drivers/lvgl/src/widgets/image/../../core/lv_obj_style_gen.h **** static inline lv_text_align_t lv_obj_get_style_text_align(const lv_obj_t * obj, lv_part_t part)
 575:Drivers/lvgl/src/widgets/image/../../core/lv_obj_style_gen.h **** {
 576:Drivers/lvgl/src/widgets/image/../../core/lv_obj_style_gen.h ****     lv_style_value_t v = lv_obj_get_style_prop(obj, part, LV_STYLE_TEXT_ALIGN);
 577:Drivers/lvgl/src/widgets/image/../../core/lv_obj_style_gen.h ****     return (lv_text_align_t)v.num;
 578:Drivers/lvgl/src/widgets/image/../../core/lv_obj_style_gen.h **** }
 579:Drivers/lvgl/src/widgets/image/../../core/lv_obj_style_gen.h **** 
 580:Drivers/lvgl/src/widgets/image/../../core/lv_obj_style_gen.h **** static inline lv_color_t lv_obj_get_style_text_outline_stroke_color(const lv_obj_t * obj, lv_part_t
 581:Drivers/lvgl/src/widgets/image/../../core/lv_obj_style_gen.h **** {
 582:Drivers/lvgl/src/widgets/image/../../core/lv_obj_style_gen.h ****     lv_style_value_t v = lv_obj_get_style_prop(obj, part, LV_STYLE_TEXT_OUTLINE_STROKE_COLOR);
 583:Drivers/lvgl/src/widgets/image/../../core/lv_obj_style_gen.h ****     return v.color;
 584:Drivers/lvgl/src/widgets/image/../../core/lv_obj_style_gen.h **** }
 585:Drivers/lvgl/src/widgets/image/../../core/lv_obj_style_gen.h **** 
 586:Drivers/lvgl/src/widgets/image/../../core/lv_obj_style_gen.h **** static inline lv_color_t lv_obj_get_style_text_outline_stroke_color_filtered(const lv_obj_t * obj, 
 587:Drivers/lvgl/src/widgets/image/../../core/lv_obj_style_gen.h **** {
 588:Drivers/lvgl/src/widgets/image/../../core/lv_obj_style_gen.h ****     lv_style_value_t v = lv_obj_style_apply_color_filter(obj, part, lv_obj_get_style_prop(obj, part
 589:Drivers/lvgl/src/widgets/image/../../core/lv_obj_style_gen.h ****     return v.color;
 590:Drivers/lvgl/src/widgets/image/../../core/lv_obj_style_gen.h **** }
 591:Drivers/lvgl/src/widgets/image/../../core/lv_obj_style_gen.h **** 
 592:Drivers/lvgl/src/widgets/image/../../core/lv_obj_style_gen.h **** static inline int32_t lv_obj_get_style_text_outline_stroke_width(const lv_obj_t * obj, lv_part_t pa
 593:Drivers/lvgl/src/widgets/image/../../core/lv_obj_style_gen.h **** {
 594:Drivers/lvgl/src/widgets/image/../../core/lv_obj_style_gen.h ****     lv_style_value_t v = lv_obj_get_style_prop(obj, part, LV_STYLE_TEXT_OUTLINE_STROKE_WIDTH);
 595:Drivers/lvgl/src/widgets/image/../../core/lv_obj_style_gen.h ****     return (int32_t)v.num;
 596:Drivers/lvgl/src/widgets/image/../../core/lv_obj_style_gen.h **** }
 597:Drivers/lvgl/src/widgets/image/../../core/lv_obj_style_gen.h **** 
 598:Drivers/lvgl/src/widgets/image/../../core/lv_obj_style_gen.h **** static inline lv_opa_t lv_obj_get_style_text_outline_stroke_opa(const lv_obj_t * obj, lv_part_t par
 599:Drivers/lvgl/src/widgets/image/../../core/lv_obj_style_gen.h **** {
 600:Drivers/lvgl/src/widgets/image/../../core/lv_obj_style_gen.h ****     lv_style_value_t v = lv_obj_get_style_prop(obj, part, LV_STYLE_TEXT_OUTLINE_STROKE_OPA);
 601:Drivers/lvgl/src/widgets/image/../../core/lv_obj_style_gen.h ****     return (lv_opa_t)v.num;
 602:Drivers/lvgl/src/widgets/image/../../core/lv_obj_style_gen.h **** }
 603:Drivers/lvgl/src/widgets/image/../../core/lv_obj_style_gen.h **** 
 604:Drivers/lvgl/src/widgets/image/../../core/lv_obj_style_gen.h **** static inline int32_t lv_obj_get_style_radius(const lv_obj_t * obj, lv_part_t part)
 1626              		.loc 2 604 23 view .LVU526
 1627              	.LBB29:
 605:Drivers/lvgl/src/widgets/image/../../core/lv_obj_style_gen.h **** {
 606:Drivers/lvgl/src/widgets/image/../../core/lv_obj_style_gen.h ****     lv_style_value_t v = lv_obj_get_style_prop(obj, part, LV_STYLE_RADIUS);
 1628              		.loc 2 606 5 view .LVU527
 1629              		.loc 2 606 26 is_stmt 0 view .LVU528
 1630 01e8 0C22     		movs	r2, #12
 1631 01ea 0021     		movs	r1, #0
 1632 01ec 2846     		mov	r0, r5
 1633 01ee FFF7FEFF 		bl	lv_obj_get_style_prop
 1634              	.LVL143:
 1635 01f2 0990     		str	r0, [sp, #36]
 607:Drivers/lvgl/src/widgets/image/../../core/lv_obj_style_gen.h ****     return (int32_t)v.num;
 1636              		.loc 2 607 5 is_stmt 1 view .LVU529
 1637              	.LVL144:
 1638              		.loc 2 607 5 is_stmt 0 view .LVU530
 1639              	.LBE29:
 1640              	.LBE28:
 794:Drivers/lvgl/src/widgets/image/lv_image.c **** 
 1641              		.loc 1 794 34 discriminator 1 view .LVU531
 1642 01f4 1890     		str	r0, [sp, #96]
ARM GAS  /tmp/cc58L00o.s 			page 63


 796:Drivers/lvgl/src/widgets/image/lv_image.c ****             if(img->align < LV_IMAGE_ALIGN_AUTO_TRANSFORM) {
 1643              		.loc 1 796 13 is_stmt 1 view .LVU532
 797:Drivers/lvgl/src/widgets/image/lv_image.c ****                 lv_area_align(&obj->coords, &draw_dsc.image_area, img->align, img->offset.x, img->o
 1644              		.loc 1 797 13 view .LVU533
 797:Drivers/lvgl/src/widgets/image/lv_image.c ****                 lv_area_align(&obj->coords, &draw_dsc.image_area, img->align, img->offset.x, img->o
 1645              		.loc 1 797 19 is_stmt 0 view .LVU534
 1646 01f6 95F85920 		ldrb	r2, [r5, #89]	@ zero_extendqisi2
 1647 01fa 02F00F02 		and	r2, r2, #15
 797:Drivers/lvgl/src/widgets/image/lv_image.c ****                 lv_area_align(&obj->coords, &draw_dsc.image_area, img->align, img->offset.x, img->o
 1648              		.loc 1 797 15 view .LVU535
 1649 01fe 092A     		cmp	r2, #9
 1650 0200 15D9     		bls	.L109
 801:Drivers/lvgl/src/widgets/image/lv_image.c ****                 lv_area_intersect(&layer->_clip_area, &layer->_clip_area, &obj->coords);
 1651              		.loc 1 801 18 is_stmt 1 view .LVU536
 801:Drivers/lvgl/src/widgets/image/lv_image.c ****                 lv_area_intersect(&layer->_clip_area, &layer->_clip_area, &obj->coords);
 1652              		.loc 1 801 32 is_stmt 0 view .LVU537
 1653 0202 95F85930 		ldrb	r3, [r5, #89]	@ zero_extendqisi2
 1654 0206 03F00F03 		and	r3, r3, #15
 801:Drivers/lvgl/src/widgets/image/lv_image.c ****                 lv_area_intersect(&layer->_clip_area, &layer->_clip_area, &obj->coords);
 1655              		.loc 1 801 20 view .LVU538
 1656 020a 0C2B     		cmp	r3, #12
 1657 020c 1ED0     		beq	.L110
 812:Drivers/lvgl/src/widgets/image/lv_image.c ****             }
 1658              		.loc 1 812 17 is_stmt 1 view .LVU539
 812:Drivers/lvgl/src/widgets/image/lv_image.c ****             }
 1659              		.loc 1 812 24 is_stmt 0 view .LVU540
 1660 020e 09AD     		add	r5, sp, #36
 1661              	.LVL145:
 812:Drivers/lvgl/src/widgets/image/lv_image.c ****             }
 1662              		.loc 1 812 24 view .LVU541
 1663 0210 23AB     		add	r3, sp, #140
 1664 0212 0FCB     		ldm	r3, {r0, r1, r2, r3}
 1665 0214 85E80F00 		stm	r5, {r0, r1, r2, r3}
 1666              	.L100:
 815:Drivers/lvgl/src/widgets/image/lv_image.c ****             layer->_clip_area = clip_area_ori;
 1667              		.loc 1 815 13 is_stmt 1 view .LVU542
 1668 0218 09AA     		add	r2, sp, #36
 1669 021a 0DA9     		add	r1, sp, #52
 1670 021c 2046     		mov	r0, r4
 1671 021e FFF7FEFF 		bl	lv_draw_image
 1672              	.LVL146:
 816:Drivers/lvgl/src/widgets/image/lv_image.c ****         }
 1673              		.loc 1 816 13 view .LVU543
 816:Drivers/lvgl/src/widgets/image/lv_image.c ****         }
 1674              		.loc 1 816 31 is_stmt 0 view .LVU544
 1675 0222 1834     		adds	r4, r4, #24
 1676              	.LVL147:
 816:Drivers/lvgl/src/widgets/image/lv_image.c ****         }
 1677              		.loc 1 816 31 view .LVU545
 1678 0224 05AB     		add	r3, sp, #20
 1679 0226 0FCB     		ldm	r3, {r0, r1, r2, r3}
 1680 0228 84E80F00 		stm	r4, {r0, r1, r2, r3}
 1681              	.LBE27:
 1682 022c F7E6     		b	.L88
 1683              	.LVL148:
 1684              	.L109:
 1685              	.LBB30:
ARM GAS  /tmp/cc58L00o.s 			page 64


 798:Drivers/lvgl/src/widgets/image/lv_image.c ****                 coords = draw_dsc.image_area;
 1686              		.loc 1 798 17 is_stmt 1 view .LVU546
 1687 022e 6B6B     		ldr	r3, [r5, #52]
 1688 0230 23AE     		add	r6, sp, #140
 1689 0232 A96B     		ldr	r1, [r5, #56]
 1690 0234 0091     		str	r1, [sp]
 1691 0236 3146     		mov	r1, r6
 1692 0238 05F11400 		add	r0, r5, #20
 1693 023c FFF7FEFF 		bl	lv_area_align
 1694              	.LVL149:
 799:Drivers/lvgl/src/widgets/image/lv_image.c ****             }
 1695              		.loc 1 799 17 view .LVU547
 799:Drivers/lvgl/src/widgets/image/lv_image.c ****             }
 1696              		.loc 1 799 24 is_stmt 0 view .LVU548
 1697 0240 09AD     		add	r5, sp, #36
 1698              	.LVL150:
 799:Drivers/lvgl/src/widgets/image/lv_image.c ****             }
 1699              		.loc 1 799 24 view .LVU549
 1700 0242 96E80F00 		ldm	r6, {r0, r1, r2, r3}
 1701 0246 85E80F00 		stm	r5, {r0, r1, r2, r3}
 1702 024a E5E7     		b	.L100
 1703              	.LVL151:
 1704              	.L110:
 802:Drivers/lvgl/src/widgets/image/lv_image.c ****                 lv_area_move(&draw_dsc.image_area, img->offset.x, img->offset.y);
 1705              		.loc 1 802 17 is_stmt 1 view .LVU550
 1706 024c 04F11806 		add	r6, r4, #24
 1707 0250 05F11402 		add	r2, r5, #20
 1708 0254 3146     		mov	r1, r6
 1709 0256 3046     		mov	r0, r6
 1710 0258 FFF7FEFF 		bl	lv_area_intersect
 1711              	.LVL152:
 803:Drivers/lvgl/src/widgets/image/lv_image.c **** 
 1712              		.loc 1 803 17 view .LVU551
 1713 025c 23AF     		add	r7, sp, #140
 1714 025e AA6B     		ldr	r2, [r5, #56]
 1715 0260 696B     		ldr	r1, [r5, #52]
 1716 0262 3846     		mov	r0, r7
 1717 0264 FFF7FEFF 		bl	lv_area_move
 1718              	.LVL153:
 805:Drivers/lvgl/src/widgets/image/lv_image.c ****                              ((layer->_clip_area.x1 - draw_dsc.image_area.x1 - (img->w - 1)) / img-
 1719              		.loc 1 805 17 view .LVU552
 806:Drivers/lvgl/src/widgets/image/lv_image.c ****                              ((layer->_clip_area.y1 - draw_dsc.image_area.y1 - (img->h - 1)) / img-
 1720              		.loc 1 806 49 is_stmt 0 view .LVU553
 1721 0268 A369     		ldr	r3, [r4, #24]
 806:Drivers/lvgl/src/widgets/image/lv_image.c ****                              ((layer->_clip_area.y1 - draw_dsc.image_area.y1 - (img->h - 1)) / img-
 1722              		.loc 1 806 74 view .LVU554
 1723 026a 239A     		ldr	r2, [sp, #140]
 806:Drivers/lvgl/src/widgets/image/lv_image.c ****                              ((layer->_clip_area.y1 - draw_dsc.image_area.y1 - (img->h - 1)) / img-
 1724              		.loc 1 806 53 view .LVU555
 1725 026c 9B1A     		subs	r3, r3, r2
 806:Drivers/lvgl/src/widgets/image/lv_image.c ****                              ((layer->_clip_area.y1 - draw_dsc.image_area.y1 - (img->h - 1)) / img-
 1726              		.loc 1 806 84 view .LVU556
 1727 026e E96B     		ldr	r1, [r5, #60]
 806:Drivers/lvgl/src/widgets/image/lv_image.c ****                              ((layer->_clip_area.y1 - draw_dsc.image_area.y1 - (img->h - 1)) / img-
 1728              		.loc 1 806 88 view .LVU557
 1729 0270 4A1E     		subs	r2, r1, #1
 806:Drivers/lvgl/src/widgets/image/lv_image.c ****                              ((layer->_clip_area.y1 - draw_dsc.image_area.y1 - (img->h - 1)) / img-
ARM GAS  /tmp/cc58L00o.s 			page 65


 1730              		.loc 1 806 78 view .LVU558
 1731 0272 9B1A     		subs	r3, r3, r2
 806:Drivers/lvgl/src/widgets/image/lv_image.c ****                              ((layer->_clip_area.y1 - draw_dsc.image_area.y1 - (img->h - 1)) / img-
 1732              		.loc 1 806 94 view .LVU559
 1733 0274 93FBF1F3 		sdiv	r3, r3, r1
 807:Drivers/lvgl/src/widgets/image/lv_image.c ****                 coords = layer->_clip_area;
 1734              		.loc 1 807 49 view .LVU560
 1735 0278 E269     		ldr	r2, [r4, #28]
 807:Drivers/lvgl/src/widgets/image/lv_image.c ****                 coords = layer->_clip_area;
 1736              		.loc 1 807 74 view .LVU561
 1737 027a 2498     		ldr	r0, [sp, #144]
 807:Drivers/lvgl/src/widgets/image/lv_image.c ****                 coords = layer->_clip_area;
 1738              		.loc 1 807 53 view .LVU562
 1739 027c 121A     		subs	r2, r2, r0
 807:Drivers/lvgl/src/widgets/image/lv_image.c ****                 coords = layer->_clip_area;
 1740              		.loc 1 807 84 view .LVU563
 1741 027e 286C     		ldr	r0, [r5, #64]
 807:Drivers/lvgl/src/widgets/image/lv_image.c ****                 coords = layer->_clip_area;
 1742              		.loc 1 807 88 view .LVU564
 1743 0280 451E     		subs	r5, r0, #1
 1744              	.LVL154:
 807:Drivers/lvgl/src/widgets/image/lv_image.c ****                 coords = layer->_clip_area;
 1745              		.loc 1 807 78 view .LVU565
 1746 0282 521B     		subs	r2, r2, r5
 807:Drivers/lvgl/src/widgets/image/lv_image.c ****                 coords = layer->_clip_area;
 1747              		.loc 1 807 94 view .LVU566
 1748 0284 92FBF0F2 		sdiv	r2, r2, r0
 805:Drivers/lvgl/src/widgets/image/lv_image.c ****                              ((layer->_clip_area.x1 - draw_dsc.image_area.x1 - (img->w - 1)) / img-
 1749              		.loc 1 805 17 view .LVU567
 1750 0288 00FB02F2 		mul	r2, r0, r2
 1751 028c 03FB01F1 		mul	r1, r3, r1
 1752 0290 3846     		mov	r0, r7
 1753 0292 FFF7FEFF 		bl	lv_area_move
 1754              	.LVL155:
 808:Drivers/lvgl/src/widgets/image/lv_image.c ****                 draw_dsc.tile = 1;
 1755              		.loc 1 808 17 is_stmt 1 view .LVU568
 808:Drivers/lvgl/src/widgets/image/lv_image.c ****                 draw_dsc.tile = 1;
 1756              		.loc 1 808 24 is_stmt 0 view .LVU569
 1757 0296 09AD     		add	r5, sp, #36
 1758 0298 96E80F00 		ldm	r6, {r0, r1, r2, r3}
 1759 029c 85E80F00 		stm	r5, {r0, r1, r2, r3}
 809:Drivers/lvgl/src/widgets/image/lv_image.c ****             }
 1760              		.loc 1 809 17 is_stmt 1 view .LVU570
 809:Drivers/lvgl/src/widgets/image/lv_image.c ****             }
 1761              		.loc 1 809 31 is_stmt 0 view .LVU571
 1762 02a0 9DF88530 		ldrb	r3, [sp, #133]	@ zero_extendqisi2
 1763 02a4 43F02003 		orr	r3, r3, #32
 1764 02a8 8DF88530 		strb	r3, [sp, #133]
 1765 02ac B4E7     		b	.L100
 1766              	.LBE30:
 1767              	.LBE25:
 1768              		.cfi_endproc
 1769              	.LFE214:
 1771              		.section	.text.lv_image_set_rotation,"ax",%progbits
 1772              		.align	1
 1773              		.global	lv_image_set_rotation
 1774              		.syntax unified
ARM GAS  /tmp/cc58L00o.s 			page 66


 1775              		.thumb
 1776              		.thumb_func
 1778              	lv_image_set_rotation:
 1779              	.LVL156:
 1780              	.LFB190:
 283:Drivers/lvgl/src/widgets/image/lv_image.c ****     LV_ASSERT_OBJ(obj, MY_CLASS);
 1781              		.loc 1 283 1 is_stmt 1 view -0
 1782              		.cfi_startproc
 1783              		@ args = 0, pretend = 0, frame = 24
 1784              		@ frame_needed = 0, uses_anonymous_args = 0
 284:Drivers/lvgl/src/widgets/image/lv_image.c **** 
 1785              		.loc 1 284 5 view .LVU573
 284:Drivers/lvgl/src/widgets/image/lv_image.c **** 
 1786              		.loc 1 284 5 view .LVU574
 1787 0000 60B1     		cbz	r0, .L113
 283:Drivers/lvgl/src/widgets/image/lv_image.c ****     LV_ASSERT_OBJ(obj, MY_CLASS);
 1788              		.loc 1 283 1 is_stmt 0 view .LVU575
 1789 0002 2DE9F043 		push	{r4, r5, r6, r7, r8, r9, lr}
 1790              	.LCFI29:
 1791              		.cfi_def_cfa_offset 28
 1792              		.cfi_offset 4, -28
 1793              		.cfi_offset 5, -24
 1794              		.cfi_offset 6, -20
 1795              		.cfi_offset 7, -16
 1796              		.cfi_offset 8, -12
 1797              		.cfi_offset 9, -8
 1798              		.cfi_offset 14, -4
 1799 0006 8BB0     		sub	sp, sp, #44
 1800              	.LCFI30:
 1801              		.cfi_def_cfa_offset 72
 1802 0008 0C46     		mov	r4, r1
 1803 000a 0546     		mov	r5, r0
 284:Drivers/lvgl/src/widgets/image/lv_image.c **** 
 1804              		.loc 1 284 5 is_stmt 1 discriminator 2 view .LVU576
 284:Drivers/lvgl/src/widgets/image/lv_image.c **** 
 1805              		.loc 1 284 33 discriminator 2 view .LVU577
 286:Drivers/lvgl/src/widgets/image/lv_image.c ****     if(img->align > LV_IMAGE_ALIGN_AUTO_TRANSFORM) {
 1806              		.loc 1 286 5 view .LVU578
 1807              	.LVL157:
 287:Drivers/lvgl/src/widgets/image/lv_image.c ****         angle = 0;
 1808              		.loc 1 287 5 view .LVU579
 287:Drivers/lvgl/src/widgets/image/lv_image.c ****         angle = 0;
 1809              		.loc 1 287 11 is_stmt 0 view .LVU580
 1810 000c 90F85930 		ldrb	r3, [r0, #89]	@ zero_extendqisi2
 1811 0010 03F00F03 		and	r3, r3, #15
 287:Drivers/lvgl/src/widgets/image/lv_image.c ****         angle = 0;
 1812              		.loc 1 287 7 view .LVU581
 1813 0014 0A2B     		cmp	r3, #10
 1814 0016 04D9     		bls	.L115
 288:Drivers/lvgl/src/widgets/image/lv_image.c ****     }
 1815              		.loc 1 288 15 view .LVU582
 1816 0018 0024     		movs	r4, #0
 1817 001a 0AE0     		b	.L114
 1818              	.LVL158:
 1819              	.L113:
 1820              	.LCFI31:
 1821              		.cfi_def_cfa_offset 0
ARM GAS  /tmp/cc58L00o.s 			page 67


 1822              		.cfi_restore 4
 1823              		.cfi_restore 5
 1824              		.cfi_restore 6
 1825              		.cfi_restore 7
 1826              		.cfi_restore 8
 1827              		.cfi_restore 9
 1828              		.cfi_restore 14
 284:Drivers/lvgl/src/widgets/image/lv_image.c **** 
 1829              		.loc 1 284 5 is_stmt 1 discriminator 1 view .LVU583
 284:Drivers/lvgl/src/widgets/image/lv_image.c **** 
 1830              		.loc 1 284 5 discriminator 1 view .LVU584
 284:Drivers/lvgl/src/widgets/image/lv_image.c **** 
 1831              		.loc 1 284 5 discriminator 1 view .LVU585
 284:Drivers/lvgl/src/widgets/image/lv_image.c **** 
 1832              		.loc 1 284 5 discriminator 1 view .LVU586
 284:Drivers/lvgl/src/widgets/image/lv_image.c **** 
 1833              		.loc 1 284 5 discriminator 1 view .LVU587
 1834 001c FEE7     		b	.L113
 1835              	.LVL159:
 1836              	.L116:
 1837              	.LCFI32:
 1838              		.cfi_def_cfa_offset 72
 1839              		.cfi_offset 4, -28
 1840              		.cfi_offset 5, -24
 1841              		.cfi_offset 6, -20
 1842              		.cfi_offset 7, -16
 1843              		.cfi_offset 8, -12
 1844              		.cfi_offset 9, -8
 1845              		.cfi_offset 14, -4
 291:Drivers/lvgl/src/widgets/image/lv_image.c ****         while(angle < 0) angle += 3600;
 1846              		.loc 1 291 30 discriminator 2 view .LVU588
 291:Drivers/lvgl/src/widgets/image/lv_image.c ****         while(angle < 0) angle += 3600;
 1847              		.loc 1 291 36 is_stmt 0 discriminator 2 view .LVU589
 1848 001e A4F56164 		sub	r4, r4, #3600
 1849              	.LVL160:
 1850              	.L115:
 291:Drivers/lvgl/src/widgets/image/lv_image.c ****         while(angle < 0) angle += 3600;
 1851              		.loc 1 291 21 is_stmt 1 discriminator 1 view .LVU590
 1852 0022 B4F5616F 		cmp	r4, #3600
 1853 0026 FADA     		bge	.L116
 1854 0028 01E0     		b	.L117
 1855              	.L118:
 292:Drivers/lvgl/src/widgets/image/lv_image.c ****     }
 1856              		.loc 1 292 26 discriminator 2 view .LVU591
 292:Drivers/lvgl/src/widgets/image/lv_image.c ****     }
 1857              		.loc 1 292 32 is_stmt 0 discriminator 2 view .LVU592
 1858 002a 04F56164 		add	r4, r4, #3600
 1859              	.LVL161:
 1860              	.L117:
 292:Drivers/lvgl/src/widgets/image/lv_image.c ****     }
 1861              		.loc 1 292 21 is_stmt 1 discriminator 1 view .LVU593
 1862 002e 002C     		cmp	r4, #0
 1863 0030 FBDB     		blt	.L118
 1864              	.LVL162:
 1865              	.L114:
 295:Drivers/lvgl/src/widgets/image/lv_image.c **** 
 1866              		.loc 1 295 5 view .LVU594
ARM GAS  /tmp/cc58L00o.s 			page 68


 295:Drivers/lvgl/src/widgets/image/lv_image.c **** 
 1867              		.loc 1 295 30 is_stmt 0 view .LVU595
 1868 0032 6B6C     		ldr	r3, [r5, #68]
 295:Drivers/lvgl/src/widgets/image/lv_image.c **** 
 1869              		.loc 1 295 7 view .LVU596
 1870 0034 A342     		cmp	r3, r4
 1871 0036 60D0     		beq	.L111
 297:Drivers/lvgl/src/widgets/image/lv_image.c ****     int32_t w = lv_obj_get_width(obj);
 1872              		.loc 1 297 5 is_stmt 1 view .LVU597
 1873 0038 2846     		mov	r0, r5
 1874              	.LVL163:
 297:Drivers/lvgl/src/widgets/image/lv_image.c ****     int32_t w = lv_obj_get_width(obj);
 1875              		.loc 1 297 5 is_stmt 0 view .LVU598
 1876 003a FFF7FEFF 		bl	lv_obj_update_layout
 1877              	.LVL164:
 298:Drivers/lvgl/src/widgets/image/lv_image.c ****     int32_t h = lv_obj_get_height(obj);
 1878              		.loc 1 298 5 is_stmt 1 view .LVU599
 298:Drivers/lvgl/src/widgets/image/lv_image.c ****     int32_t h = lv_obj_get_height(obj);
 1879              		.loc 1 298 17 is_stmt 0 view .LVU600
 1880 003e 2846     		mov	r0, r5
 1881 0040 FFF7FEFF 		bl	lv_obj_get_width
 1882              	.LVL165:
 1883 0044 0746     		mov	r7, r0
 1884              	.LVL166:
 299:Drivers/lvgl/src/widgets/image/lv_image.c ****     lv_area_t a;
 1885              		.loc 1 299 5 is_stmt 1 view .LVU601
 299:Drivers/lvgl/src/widgets/image/lv_image.c ****     lv_area_t a;
 1886              		.loc 1 299 17 is_stmt 0 view .LVU602
 1887 0046 2846     		mov	r0, r5
 1888              	.LVL167:
 299:Drivers/lvgl/src/widgets/image/lv_image.c ****     lv_area_t a;
 1889              		.loc 1 299 17 view .LVU603
 1890 0048 FFF7FEFF 		bl	lv_obj_get_height
 1891              	.LVL168:
 1892 004c 8046     		mov	r8, r0
 1893              	.LVL169:
 300:Drivers/lvgl/src/widgets/image/lv_image.c ****     lv_point_t pivot_px;
 1894              		.loc 1 300 5 is_stmt 1 view .LVU604
 301:Drivers/lvgl/src/widgets/image/lv_image.c ****     lv_image_get_pivot(obj, &pivot_px);
 1895              		.loc 1 301 5 view .LVU605
 302:Drivers/lvgl/src/widgets/image/lv_image.c ****     lv_image_buf_get_transformed_area(&a, w, h, img->rotation, img->scale_x, img->scale_y, &pivot_p
 1896              		.loc 1 302 5 view .LVU606
 1897 004e 0DF11009 		add	r9, sp, #16
 1898 0052 4946     		mov	r1, r9
 1899 0054 2846     		mov	r0, r5
 1900              	.LVL170:
 302:Drivers/lvgl/src/widgets/image/lv_image.c ****     lv_image_buf_get_transformed_area(&a, w, h, img->rotation, img->scale_x, img->scale_y, &pivot_p
 1901              		.loc 1 302 5 is_stmt 0 view .LVU607
 1902 0056 FFF7FEFF 		bl	lv_image_get_pivot
 1903              	.LVL171:
 303:Drivers/lvgl/src/widgets/image/lv_image.c ****     a.x1 += obj->coords.x1;
 1904              		.loc 1 303 5 is_stmt 1 view .LVU608
 1905 005a 06AE     		add	r6, sp, #24
 1906 005c CDF80890 		str	r9, [sp, #8]
 1907 0060 B5F84C30 		ldrh	r3, [r5, #76]
 1908 0064 0193     		str	r3, [sp, #4]
 1909 0066 B5F84830 		ldrh	r3, [r5, #72]
ARM GAS  /tmp/cc58L00o.s 			page 69


 1910 006a 0093     		str	r3, [sp]
 1911 006c 6B6C     		ldr	r3, [r5, #68]
 1912 006e 4246     		mov	r2, r8
 1913 0070 3946     		mov	r1, r7
 1914 0072 3046     		mov	r0, r6
 1915 0074 FFF7FEFF 		bl	lv_image_buf_get_transformed_area
 1916              	.LVL172:
 304:Drivers/lvgl/src/widgets/image/lv_image.c ****     a.y1 += obj->coords.y1;
 1917              		.loc 1 304 5 view .LVU609
 304:Drivers/lvgl/src/widgets/image/lv_image.c ****     a.y1 += obj->coords.y1;
 1918              		.loc 1 304 24 is_stmt 0 view .LVU610
 1919 0078 6A69     		ldr	r2, [r5, #20]
 304:Drivers/lvgl/src/widgets/image/lv_image.c ****     a.y1 += obj->coords.y1;
 1920              		.loc 1 304 10 view .LVU611
 1921 007a 069B     		ldr	r3, [sp, #24]
 1922 007c 1344     		add	r3, r3, r2
 1923 007e 0693     		str	r3, [sp, #24]
 305:Drivers/lvgl/src/widgets/image/lv_image.c ****     a.x2 += obj->coords.x1;
 1924              		.loc 1 305 5 is_stmt 1 view .LVU612
 305:Drivers/lvgl/src/widgets/image/lv_image.c ****     a.x2 += obj->coords.x1;
 1925              		.loc 1 305 24 is_stmt 0 view .LVU613
 1926 0080 AB69     		ldr	r3, [r5, #24]
 305:Drivers/lvgl/src/widgets/image/lv_image.c ****     a.x2 += obj->coords.x1;
 1927              		.loc 1 305 10 view .LVU614
 1928 0082 0799     		ldr	r1, [sp, #28]
 1929 0084 1944     		add	r1, r1, r3
 1930 0086 0791     		str	r1, [sp, #28]
 306:Drivers/lvgl/src/widgets/image/lv_image.c ****     a.y2 += obj->coords.y1;
 1931              		.loc 1 306 5 is_stmt 1 view .LVU615
 306:Drivers/lvgl/src/widgets/image/lv_image.c ****     a.y2 += obj->coords.y1;
 1932              		.loc 1 306 6 is_stmt 0 view .LVU616
 1933 0088 0899     		ldr	r1, [sp, #32]
 306:Drivers/lvgl/src/widgets/image/lv_image.c ****     a.y2 += obj->coords.y1;
 1934              		.loc 1 306 10 view .LVU617
 1935 008a 0A44     		add	r2, r2, r1
 1936 008c 0892     		str	r2, [sp, #32]
 307:Drivers/lvgl/src/widgets/image/lv_image.c ****     lv_obj_invalidate_area(obj, &a);
 1937              		.loc 1 307 5 is_stmt 1 view .LVU618
 307:Drivers/lvgl/src/widgets/image/lv_image.c ****     lv_obj_invalidate_area(obj, &a);
 1938              		.loc 1 307 6 is_stmt 0 view .LVU619
 1939 008e 099A     		ldr	r2, [sp, #36]
 307:Drivers/lvgl/src/widgets/image/lv_image.c ****     lv_obj_invalidate_area(obj, &a);
 1940              		.loc 1 307 10 view .LVU620
 1941 0090 1344     		add	r3, r3, r2
 1942 0092 0993     		str	r3, [sp, #36]
 308:Drivers/lvgl/src/widgets/image/lv_image.c **** 
 1943              		.loc 1 308 5 is_stmt 1 view .LVU621
 1944 0094 3146     		mov	r1, r6
 1945 0096 2846     		mov	r0, r5
 1946 0098 FFF7FEFF 		bl	lv_obj_invalidate_area
 1947              	.LVL173:
 310:Drivers/lvgl/src/widgets/image/lv_image.c **** 
 1948              		.loc 1 310 5 view .LVU622
 310:Drivers/lvgl/src/widgets/image/lv_image.c **** 
 1949              		.loc 1 310 19 is_stmt 0 view .LVU623
 1950 009c 6C64     		str	r4, [r5, #68]
 314:Drivers/lvgl/src/widgets/image/lv_image.c ****     lv_display_enable_invalidation(disp, false);
ARM GAS  /tmp/cc58L00o.s 			page 70


 1951              		.loc 1 314 5 is_stmt 1 view .LVU624
 314:Drivers/lvgl/src/widgets/image/lv_image.c ****     lv_display_enable_invalidation(disp, false);
 1952              		.loc 1 314 27 is_stmt 0 view .LVU625
 1953 009e 2846     		mov	r0, r5
 1954 00a0 FFF7FEFF 		bl	lv_obj_get_display
 1955              	.LVL174:
 1956 00a4 0446     		mov	r4, r0
 1957              	.LVL175:
 315:Drivers/lvgl/src/widgets/image/lv_image.c ****     lv_obj_refresh_ext_draw_size(obj);
 1958              		.loc 1 315 5 is_stmt 1 view .LVU626
 1959 00a6 0021     		movs	r1, #0
 1960 00a8 FFF7FEFF 		bl	lv_display_enable_invalidation
 1961              	.LVL176:
 316:Drivers/lvgl/src/widgets/image/lv_image.c ****     lv_display_enable_invalidation(disp, true);
 1962              		.loc 1 316 5 view .LVU627
 1963 00ac 2846     		mov	r0, r5
 1964 00ae FFF7FEFF 		bl	lv_obj_refresh_ext_draw_size
 1965              	.LVL177:
 317:Drivers/lvgl/src/widgets/image/lv_image.c **** 
 1966              		.loc 1 317 5 view .LVU628
 1967 00b2 0121     		movs	r1, #1
 1968 00b4 2046     		mov	r0, r4
 1969 00b6 FFF7FEFF 		bl	lv_display_enable_invalidation
 1970              	.LVL178:
 319:Drivers/lvgl/src/widgets/image/lv_image.c ****     a.x1 += obj->coords.x1;
 1971              		.loc 1 319 5 view .LVU629
 1972 00ba CDF80890 		str	r9, [sp, #8]
 1973 00be B5F84C30 		ldrh	r3, [r5, #76]
 1974 00c2 0193     		str	r3, [sp, #4]
 1975 00c4 B5F84830 		ldrh	r3, [r5, #72]
 1976 00c8 0093     		str	r3, [sp]
 1977 00ca 6B6C     		ldr	r3, [r5, #68]
 1978 00cc 4246     		mov	r2, r8
 1979 00ce 3946     		mov	r1, r7
 1980 00d0 3046     		mov	r0, r6
 1981 00d2 FFF7FEFF 		bl	lv_image_buf_get_transformed_area
 1982              	.LVL179:
 320:Drivers/lvgl/src/widgets/image/lv_image.c ****     a.y1 += obj->coords.y1;
 1983              		.loc 1 320 5 view .LVU630
 320:Drivers/lvgl/src/widgets/image/lv_image.c ****     a.y1 += obj->coords.y1;
 1984              		.loc 1 320 24 is_stmt 0 view .LVU631
 1985 00d6 6A69     		ldr	r2, [r5, #20]
 320:Drivers/lvgl/src/widgets/image/lv_image.c ****     a.y1 += obj->coords.y1;
 1986              		.loc 1 320 10 view .LVU632
 1987 00d8 069B     		ldr	r3, [sp, #24]
 1988 00da 1344     		add	r3, r3, r2
 1989 00dc 0693     		str	r3, [sp, #24]
 321:Drivers/lvgl/src/widgets/image/lv_image.c ****     a.x2 += obj->coords.x1;
 1990              		.loc 1 321 5 is_stmt 1 view .LVU633
 321:Drivers/lvgl/src/widgets/image/lv_image.c ****     a.x2 += obj->coords.x1;
 1991              		.loc 1 321 24 is_stmt 0 view .LVU634
 1992 00de AB69     		ldr	r3, [r5, #24]
 321:Drivers/lvgl/src/widgets/image/lv_image.c ****     a.x2 += obj->coords.x1;
 1993              		.loc 1 321 10 view .LVU635
 1994 00e0 0799     		ldr	r1, [sp, #28]
 1995 00e2 1944     		add	r1, r1, r3
 1996 00e4 0791     		str	r1, [sp, #28]
ARM GAS  /tmp/cc58L00o.s 			page 71


 322:Drivers/lvgl/src/widgets/image/lv_image.c ****     a.y2 += obj->coords.y1;
 1997              		.loc 1 322 5 is_stmt 1 view .LVU636
 322:Drivers/lvgl/src/widgets/image/lv_image.c ****     a.y2 += obj->coords.y1;
 1998              		.loc 1 322 6 is_stmt 0 view .LVU637
 1999 00e6 0899     		ldr	r1, [sp, #32]
 322:Drivers/lvgl/src/widgets/image/lv_image.c ****     a.y2 += obj->coords.y1;
 2000              		.loc 1 322 10 view .LVU638
 2001 00e8 0A44     		add	r2, r2, r1
 2002 00ea 0892     		str	r2, [sp, #32]
 323:Drivers/lvgl/src/widgets/image/lv_image.c ****     lv_obj_invalidate_area(obj, &a);
 2003              		.loc 1 323 5 is_stmt 1 view .LVU639
 323:Drivers/lvgl/src/widgets/image/lv_image.c ****     lv_obj_invalidate_area(obj, &a);
 2004              		.loc 1 323 6 is_stmt 0 view .LVU640
 2005 00ec 099A     		ldr	r2, [sp, #36]
 323:Drivers/lvgl/src/widgets/image/lv_image.c ****     lv_obj_invalidate_area(obj, &a);
 2006              		.loc 1 323 10 view .LVU641
 2007 00ee 1344     		add	r3, r3, r2
 2008 00f0 0993     		str	r3, [sp, #36]
 324:Drivers/lvgl/src/widgets/image/lv_image.c **** }
 2009              		.loc 1 324 5 is_stmt 1 view .LVU642
 2010 00f2 3146     		mov	r1, r6
 2011 00f4 2846     		mov	r0, r5
 2012 00f6 FFF7FEFF 		bl	lv_obj_invalidate_area
 2013              	.LVL180:
 2014              	.L111:
 325:Drivers/lvgl/src/widgets/image/lv_image.c **** 
 2015              		.loc 1 325 1 is_stmt 0 view .LVU643
 2016 00fa 0BB0     		add	sp, sp, #44
 2017              	.LCFI33:
 2018              		.cfi_def_cfa_offset 28
 2019              		@ sp needed
 2020 00fc BDE8F083 		pop	{r4, r5, r6, r7, r8, r9, pc}
 325:Drivers/lvgl/src/widgets/image/lv_image.c **** 
 2021              		.loc 1 325 1 view .LVU644
 2022              		.cfi_endproc
 2023              	.LFE190:
 2025              		.section	.text.lv_image_set_pivot,"ax",%progbits
 2026              		.align	1
 2027              		.global	lv_image_set_pivot
 2028              		.syntax unified
 2029              		.thumb
 2030              		.thumb_func
 2032              	lv_image_set_pivot:
 2033              	.LVL181:
 2034              	.LFB191:
 328:Drivers/lvgl/src/widgets/image/lv_image.c ****     LV_ASSERT_OBJ(obj, MY_CLASS);
 2035              		.loc 1 328 1 is_stmt 1 view -0
 2036              		.cfi_startproc
 2037              		@ args = 0, pretend = 0, frame = 24
 2038              		@ frame_needed = 0, uses_anonymous_args = 0
 329:Drivers/lvgl/src/widgets/image/lv_image.c **** 
 2039              		.loc 1 329 5 view .LVU646
 329:Drivers/lvgl/src/widgets/image/lv_image.c **** 
 2040              		.loc 1 329 5 view .LVU647
 2041 0000 0028     		cmp	r0, #0
 2042 0002 00F08180 		beq	.L126
 328:Drivers/lvgl/src/widgets/image/lv_image.c ****     LV_ASSERT_OBJ(obj, MY_CLASS);
ARM GAS  /tmp/cc58L00o.s 			page 72


 2043              		.loc 1 328 1 is_stmt 0 view .LVU648
 2044 0006 2DE9F047 		push	{r4, r5, r6, r7, r8, r9, r10, lr}
 2045              	.LCFI34:
 2046              		.cfi_def_cfa_offset 32
 2047              		.cfi_offset 4, -32
 2048              		.cfi_offset 5, -28
 2049              		.cfi_offset 6, -24
 2050              		.cfi_offset 7, -20
 2051              		.cfi_offset 8, -16
 2052              		.cfi_offset 9, -12
 2053              		.cfi_offset 10, -8
 2054              		.cfi_offset 14, -4
 2055 000a 8AB0     		sub	sp, sp, #40
 2056              	.LCFI35:
 2057              		.cfi_def_cfa_offset 72
 2058 000c 0D46     		mov	r5, r1
 2059 000e 1646     		mov	r6, r2
 2060 0010 0446     		mov	r4, r0
 329:Drivers/lvgl/src/widgets/image/lv_image.c **** 
 2061              		.loc 1 329 5 is_stmt 1 discriminator 2 view .LVU649
 329:Drivers/lvgl/src/widgets/image/lv_image.c **** 
 2062              		.loc 1 329 33 discriminator 2 view .LVU650
 331:Drivers/lvgl/src/widgets/image/lv_image.c ****     if(img->align > LV_IMAGE_ALIGN_AUTO_TRANSFORM) {
 2063              		.loc 1 331 5 view .LVU651
 2064              	.LVL182:
 332:Drivers/lvgl/src/widgets/image/lv_image.c ****         x = 0;
 2065              		.loc 1 332 5 view .LVU652
 332:Drivers/lvgl/src/widgets/image/lv_image.c ****         x = 0;
 2066              		.loc 1 332 11 is_stmt 0 view .LVU653
 2067 0012 90F85930 		ldrb	r3, [r0, #89]	@ zero_extendqisi2
 2068 0016 03F00F03 		and	r3, r3, #15
 332:Drivers/lvgl/src/widgets/image/lv_image.c ****         x = 0;
 2069              		.loc 1 332 7 view .LVU654
 2070 001a 0A2B     		cmp	r3, #10
 2071 001c 01D9     		bls	.L127
 334:Drivers/lvgl/src/widgets/image/lv_image.c ****     }
 2072              		.loc 1 334 11 view .LVU655
 2073 001e 0026     		movs	r6, #0
 333:Drivers/lvgl/src/widgets/image/lv_image.c ****         y = 0;
 2074              		.loc 1 333 11 view .LVU656
 2075 0020 3546     		mov	r5, r6
 2076              	.L127:
 2077              	.LVL183:
 337:Drivers/lvgl/src/widgets/image/lv_image.c **** 
 2078              		.loc 1 337 5 is_stmt 1 view .LVU657
 337:Drivers/lvgl/src/widgets/image/lv_image.c **** 
 2079              		.loc 1 337 18 is_stmt 0 view .LVU658
 2080 0022 236D     		ldr	r3, [r4, #80]
 337:Drivers/lvgl/src/widgets/image/lv_image.c **** 
 2081              		.loc 1 337 7 view .LVU659
 2082 0024 AB42     		cmp	r3, r5
 2083 0026 02D1     		bne	.L128
 337:Drivers/lvgl/src/widgets/image/lv_image.c **** 
 2084              		.loc 1 337 39 discriminator 1 view .LVU660
 2085 0028 636D     		ldr	r3, [r4, #84]
 337:Drivers/lvgl/src/widgets/image/lv_image.c **** 
 2086              		.loc 1 337 26 discriminator 1 view .LVU661
ARM GAS  /tmp/cc58L00o.s 			page 73


 2087 002a B342     		cmp	r3, r6
 2088 002c 69D0     		beq	.L124
 2089              	.L128:
 339:Drivers/lvgl/src/widgets/image/lv_image.c ****     int32_t w = lv_obj_get_width(obj);
 2090              		.loc 1 339 5 is_stmt 1 view .LVU662
 2091 002e 2046     		mov	r0, r4
 2092              	.LVL184:
 339:Drivers/lvgl/src/widgets/image/lv_image.c ****     int32_t w = lv_obj_get_width(obj);
 2093              		.loc 1 339 5 is_stmt 0 view .LVU663
 2094 0030 FFF7FEFF 		bl	lv_obj_update_layout
 2095              	.LVL185:
 340:Drivers/lvgl/src/widgets/image/lv_image.c ****     int32_t h = lv_obj_get_height(obj);
 2096              		.loc 1 340 5 is_stmt 1 view .LVU664
 340:Drivers/lvgl/src/widgets/image/lv_image.c ****     int32_t h = lv_obj_get_height(obj);
 2097              		.loc 1 340 17 is_stmt 0 view .LVU665
 2098 0034 2046     		mov	r0, r4
 2099 0036 FFF7FEFF 		bl	lv_obj_get_width
 2100              	.LVL186:
 2101 003a 8046     		mov	r8, r0
 2102              	.LVL187:
 341:Drivers/lvgl/src/widgets/image/lv_image.c ****     lv_area_t a;
 2103              		.loc 1 341 5 is_stmt 1 view .LVU666
 341:Drivers/lvgl/src/widgets/image/lv_image.c ****     lv_area_t a;
 2104              		.loc 1 341 17 is_stmt 0 view .LVU667
 2105 003c 2046     		mov	r0, r4
 2106              	.LVL188:
 341:Drivers/lvgl/src/widgets/image/lv_image.c ****     lv_area_t a;
 2107              		.loc 1 341 17 view .LVU668
 2108 003e FFF7FEFF 		bl	lv_obj_get_height
 2109              	.LVL189:
 2110 0042 8146     		mov	r9, r0
 2111              	.LVL190:
 342:Drivers/lvgl/src/widgets/image/lv_image.c ****     lv_point_t pivot_px;
 2112              		.loc 1 342 5 is_stmt 1 view .LVU669
 343:Drivers/lvgl/src/widgets/image/lv_image.c ****     lv_image_get_pivot(obj, &pivot_px);
 2113              		.loc 1 343 5 view .LVU670
 344:Drivers/lvgl/src/widgets/image/lv_image.c ****     lv_image_buf_get_transformed_area(&a, w, h, img->rotation, img->scale_x, img->scale_y, &pivot_p
 2114              		.loc 1 344 5 view .LVU671
 2115 0044 0DF1100A 		add	r10, sp, #16
 2116 0048 5146     		mov	r1, r10
 2117 004a 2046     		mov	r0, r4
 2118              	.LVL191:
 344:Drivers/lvgl/src/widgets/image/lv_image.c ****     lv_image_buf_get_transformed_area(&a, w, h, img->rotation, img->scale_x, img->scale_y, &pivot_p
 2119              		.loc 1 344 5 is_stmt 0 view .LVU672
 2120 004c FFF7FEFF 		bl	lv_image_get_pivot
 2121              	.LVL192:
 345:Drivers/lvgl/src/widgets/image/lv_image.c ****     a.x1 += obj->coords.x1;
 2122              		.loc 1 345 5 is_stmt 1 view .LVU673
 2123 0050 06AF     		add	r7, sp, #24
 2124 0052 CDF808A0 		str	r10, [sp, #8]
 2125 0056 B4F84C30 		ldrh	r3, [r4, #76]
 2126 005a 0193     		str	r3, [sp, #4]
 2127 005c B4F84830 		ldrh	r3, [r4, #72]
 2128 0060 0093     		str	r3, [sp]
 2129 0062 636C     		ldr	r3, [r4, #68]
 2130 0064 4A46     		mov	r2, r9
 2131 0066 4146     		mov	r1, r8
ARM GAS  /tmp/cc58L00o.s 			page 74


 2132 0068 3846     		mov	r0, r7
 2133 006a FFF7FEFF 		bl	lv_image_buf_get_transformed_area
 2134              	.LVL193:
 346:Drivers/lvgl/src/widgets/image/lv_image.c ****     a.y1 += obj->coords.y1;
 2135              		.loc 1 346 5 view .LVU674
 346:Drivers/lvgl/src/widgets/image/lv_image.c ****     a.y1 += obj->coords.y1;
 2136              		.loc 1 346 24 is_stmt 0 view .LVU675
 2137 006e 6269     		ldr	r2, [r4, #20]
 346:Drivers/lvgl/src/widgets/image/lv_image.c ****     a.y1 += obj->coords.y1;
 2138              		.loc 1 346 10 view .LVU676
 2139 0070 069B     		ldr	r3, [sp, #24]
 2140 0072 1344     		add	r3, r3, r2
 2141 0074 0693     		str	r3, [sp, #24]
 347:Drivers/lvgl/src/widgets/image/lv_image.c ****     a.x2 += obj->coords.x1;
 2142              		.loc 1 347 5 is_stmt 1 view .LVU677
 347:Drivers/lvgl/src/widgets/image/lv_image.c ****     a.x2 += obj->coords.x1;
 2143              		.loc 1 347 24 is_stmt 0 view .LVU678
 2144 0076 A369     		ldr	r3, [r4, #24]
 347:Drivers/lvgl/src/widgets/image/lv_image.c ****     a.x2 += obj->coords.x1;
 2145              		.loc 1 347 10 view .LVU679
 2146 0078 0799     		ldr	r1, [sp, #28]
 2147 007a 1944     		add	r1, r1, r3
 2148 007c 0791     		str	r1, [sp, #28]
 348:Drivers/lvgl/src/widgets/image/lv_image.c ****     a.y2 += obj->coords.y1;
 2149              		.loc 1 348 5 is_stmt 1 view .LVU680
 348:Drivers/lvgl/src/widgets/image/lv_image.c ****     a.y2 += obj->coords.y1;
 2150              		.loc 1 348 6 is_stmt 0 view .LVU681
 2151 007e 0899     		ldr	r1, [sp, #32]
 348:Drivers/lvgl/src/widgets/image/lv_image.c ****     a.y2 += obj->coords.y1;
 2152              		.loc 1 348 10 view .LVU682
 2153 0080 0A44     		add	r2, r2, r1
 2154 0082 0892     		str	r2, [sp, #32]
 349:Drivers/lvgl/src/widgets/image/lv_image.c ****     lv_obj_invalidate_area(obj, &a);
 2155              		.loc 1 349 5 is_stmt 1 view .LVU683
 349:Drivers/lvgl/src/widgets/image/lv_image.c ****     lv_obj_invalidate_area(obj, &a);
 2156              		.loc 1 349 6 is_stmt 0 view .LVU684
 2157 0084 099A     		ldr	r2, [sp, #36]
 349:Drivers/lvgl/src/widgets/image/lv_image.c ****     lv_obj_invalidate_area(obj, &a);
 2158              		.loc 1 349 10 view .LVU685
 2159 0086 1344     		add	r3, r3, r2
 2160 0088 0993     		str	r3, [sp, #36]
 350:Drivers/lvgl/src/widgets/image/lv_image.c **** 
 2161              		.loc 1 350 5 is_stmt 1 view .LVU686
 2162 008a 3946     		mov	r1, r7
 2163 008c 2046     		mov	r0, r4
 2164 008e FFF7FEFF 		bl	lv_obj_invalidate_area
 2165              	.LVL194:
 352:Drivers/lvgl/src/widgets/image/lv_image.c **** 
 2166              		.loc 1 352 5 view .LVU687
 2167 0092 3246     		mov	r2, r6
 2168 0094 2946     		mov	r1, r5
 2169 0096 04F15000 		add	r0, r4, #80
 2170 009a FFF7FEFF 		bl	lv_point_set
 2171              	.LVL195:
 356:Drivers/lvgl/src/widgets/image/lv_image.c ****     lv_display_enable_invalidation(disp, false);
 2172              		.loc 1 356 5 view .LVU688
 356:Drivers/lvgl/src/widgets/image/lv_image.c ****     lv_display_enable_invalidation(disp, false);
ARM GAS  /tmp/cc58L00o.s 			page 75


 2173              		.loc 1 356 27 is_stmt 0 view .LVU689
 2174 009e 2046     		mov	r0, r4
 2175 00a0 FFF7FEFF 		bl	lv_obj_get_display
 2176              	.LVL196:
 2177 00a4 0546     		mov	r5, r0
 2178              	.LVL197:
 357:Drivers/lvgl/src/widgets/image/lv_image.c ****     lv_obj_refresh_ext_draw_size(obj);
 2179              		.loc 1 357 5 is_stmt 1 view .LVU690
 2180 00a6 0021     		movs	r1, #0
 2181 00a8 FFF7FEFF 		bl	lv_display_enable_invalidation
 2182              	.LVL198:
 358:Drivers/lvgl/src/widgets/image/lv_image.c ****     lv_display_enable_invalidation(disp, true);
 2183              		.loc 1 358 5 view .LVU691
 2184 00ac 2046     		mov	r0, r4
 2185 00ae FFF7FEFF 		bl	lv_obj_refresh_ext_draw_size
 2186              	.LVL199:
 359:Drivers/lvgl/src/widgets/image/lv_image.c **** 
 2187              		.loc 1 359 5 view .LVU692
 2188 00b2 0121     		movs	r1, #1
 2189 00b4 2846     		mov	r0, r5
 2190 00b6 FFF7FEFF 		bl	lv_display_enable_invalidation
 2191              	.LVL200:
 361:Drivers/lvgl/src/widgets/image/lv_image.c ****     lv_image_buf_get_transformed_area(&a, w, h, img->rotation, img->scale_x, img->scale_y, &pivot_p
 2192              		.loc 1 361 5 view .LVU693
 2193 00ba 5146     		mov	r1, r10
 2194 00bc 2046     		mov	r0, r4
 2195 00be FFF7FEFF 		bl	lv_image_get_pivot
 2196              	.LVL201:
 362:Drivers/lvgl/src/widgets/image/lv_image.c ****     a.x1 += obj->coords.x1;
 2197              		.loc 1 362 5 view .LVU694
 2198 00c2 CDF808A0 		str	r10, [sp, #8]
 2199 00c6 B4F84C30 		ldrh	r3, [r4, #76]
 2200 00ca 0193     		str	r3, [sp, #4]
 2201 00cc B4F84830 		ldrh	r3, [r4, #72]
 2202 00d0 0093     		str	r3, [sp]
 2203 00d2 636C     		ldr	r3, [r4, #68]
 2204 00d4 4A46     		mov	r2, r9
 2205 00d6 4146     		mov	r1, r8
 2206 00d8 3846     		mov	r0, r7
 2207 00da FFF7FEFF 		bl	lv_image_buf_get_transformed_area
 2208              	.LVL202:
 363:Drivers/lvgl/src/widgets/image/lv_image.c ****     a.y1 += obj->coords.y1;
 2209              		.loc 1 363 5 view .LVU695
 363:Drivers/lvgl/src/widgets/image/lv_image.c ****     a.y1 += obj->coords.y1;
 2210              		.loc 1 363 24 is_stmt 0 view .LVU696
 2211 00de 6269     		ldr	r2, [r4, #20]
 363:Drivers/lvgl/src/widgets/image/lv_image.c ****     a.y1 += obj->coords.y1;
 2212              		.loc 1 363 10 view .LVU697
 2213 00e0 069B     		ldr	r3, [sp, #24]
 2214 00e2 1344     		add	r3, r3, r2
 2215 00e4 0693     		str	r3, [sp, #24]
 364:Drivers/lvgl/src/widgets/image/lv_image.c ****     a.x2 += obj->coords.x1;
 2216              		.loc 1 364 5 is_stmt 1 view .LVU698
 364:Drivers/lvgl/src/widgets/image/lv_image.c ****     a.x2 += obj->coords.x1;
 2217              		.loc 1 364 24 is_stmt 0 view .LVU699
 2218 00e6 A369     		ldr	r3, [r4, #24]
 364:Drivers/lvgl/src/widgets/image/lv_image.c ****     a.x2 += obj->coords.x1;
ARM GAS  /tmp/cc58L00o.s 			page 76


 2219              		.loc 1 364 10 view .LVU700
 2220 00e8 0799     		ldr	r1, [sp, #28]
 2221 00ea 1944     		add	r1, r1, r3
 2222 00ec 0791     		str	r1, [sp, #28]
 365:Drivers/lvgl/src/widgets/image/lv_image.c ****     a.y2 += obj->coords.y1;
 2223              		.loc 1 365 5 is_stmt 1 view .LVU701
 365:Drivers/lvgl/src/widgets/image/lv_image.c ****     a.y2 += obj->coords.y1;
 2224              		.loc 1 365 6 is_stmt 0 view .LVU702
 2225 00ee 0899     		ldr	r1, [sp, #32]
 365:Drivers/lvgl/src/widgets/image/lv_image.c ****     a.y2 += obj->coords.y1;
 2226              		.loc 1 365 10 view .LVU703
 2227 00f0 0A44     		add	r2, r2, r1
 2228 00f2 0892     		str	r2, [sp, #32]
 366:Drivers/lvgl/src/widgets/image/lv_image.c ****     lv_obj_invalidate_area(obj, &a);
 2229              		.loc 1 366 5 is_stmt 1 view .LVU704
 366:Drivers/lvgl/src/widgets/image/lv_image.c ****     lv_obj_invalidate_area(obj, &a);
 2230              		.loc 1 366 6 is_stmt 0 view .LVU705
 2231 00f4 099A     		ldr	r2, [sp, #36]
 366:Drivers/lvgl/src/widgets/image/lv_image.c ****     lv_obj_invalidate_area(obj, &a);
 2232              		.loc 1 366 10 view .LVU706
 2233 00f6 1344     		add	r3, r3, r2
 2234 00f8 0993     		str	r3, [sp, #36]
 367:Drivers/lvgl/src/widgets/image/lv_image.c **** }
 2235              		.loc 1 367 5 is_stmt 1 view .LVU707
 2236 00fa 3946     		mov	r1, r7
 2237 00fc 2046     		mov	r0, r4
 2238 00fe FFF7FEFF 		bl	lv_obj_invalidate_area
 2239              	.LVL203:
 2240              	.L124:
 368:Drivers/lvgl/src/widgets/image/lv_image.c **** 
 2241              		.loc 1 368 1 is_stmt 0 view .LVU708
 2242 0102 0AB0     		add	sp, sp, #40
 2243              	.LCFI36:
 2244              		.cfi_def_cfa_offset 32
 2245              		@ sp needed
 2246 0104 BDE8F087 		pop	{r4, r5, r6, r7, r8, r9, r10, pc}
 2247              	.LVL204:
 2248              	.L126:
 2249              	.LCFI37:
 2250              		.cfi_def_cfa_offset 0
 2251              		.cfi_restore 4
 2252              		.cfi_restore 5
 2253              		.cfi_restore 6
 2254              		.cfi_restore 7
 2255              		.cfi_restore 8
 2256              		.cfi_restore 9
 2257              		.cfi_restore 10
 2258              		.cfi_restore 14
 329:Drivers/lvgl/src/widgets/image/lv_image.c **** 
 2259              		.loc 1 329 5 is_stmt 1 discriminator 1 view .LVU709
 329:Drivers/lvgl/src/widgets/image/lv_image.c **** 
 2260              		.loc 1 329 5 discriminator 1 view .LVU710
 329:Drivers/lvgl/src/widgets/image/lv_image.c **** 
 2261              		.loc 1 329 5 discriminator 1 view .LVU711
 329:Drivers/lvgl/src/widgets/image/lv_image.c **** 
 2262              		.loc 1 329 5 discriminator 1 view .LVU712
 329:Drivers/lvgl/src/widgets/image/lv_image.c **** 
ARM GAS  /tmp/cc58L00o.s 			page 77


 2263              		.loc 1 329 5 discriminator 1 view .LVU713
 2264 0108 FEE7     		b	.L126
 2265              		.cfi_endproc
 2266              	.LFE191:
 2268              		.section	.text.update_align,"ax",%progbits
 2269              		.align	1
 2270              		.syntax unified
 2271              		.thumb
 2272              		.thumb_func
 2274              	update_align:
 2275              	.LVL205:
 2276              	.LFB216:
 871:Drivers/lvgl/src/widgets/image/lv_image.c **** 
 872:Drivers/lvgl/src/widgets/image/lv_image.c **** static void update_align(lv_obj_t * obj)
 873:Drivers/lvgl/src/widgets/image/lv_image.c **** {
 2277              		.loc 1 873 1 view -0
 2278              		.cfi_startproc
 2279              		@ args = 0, pretend = 0, frame = 0
 2280              		@ frame_needed = 0, uses_anonymous_args = 0
 2281              		.loc 1 873 1 is_stmt 0 view .LVU715
 2282 0000 38B5     		push	{r3, r4, r5, lr}
 2283              	.LCFI38:
 2284              		.cfi_def_cfa_offset 16
 2285              		.cfi_offset 3, -16
 2286              		.cfi_offset 4, -12
 2287              		.cfi_offset 5, -8
 2288              		.cfi_offset 14, -4
 2289 0002 0446     		mov	r4, r0
 874:Drivers/lvgl/src/widgets/image/lv_image.c ****     lv_image_t * img = (lv_image_t *)obj;
 2290              		.loc 1 874 5 is_stmt 1 view .LVU716
 2291              	.LVL206:
 875:Drivers/lvgl/src/widgets/image/lv_image.c ****     if(img->align == LV_IMAGE_ALIGN_STRETCH) {
 2292              		.loc 1 875 5 view .LVU717
 2293              		.loc 1 875 19 is_stmt 0 view .LVU718
 2294 0004 90F85930 		ldrb	r3, [r0, #89]	@ zero_extendqisi2
 2295 0008 03F00F03 		and	r3, r3, #15
 2296              		.loc 1 875 7 view .LVU719
 2297 000c 0B2B     		cmp	r3, #11
 2298 000e 02D0     		beq	.L137
 876:Drivers/lvgl/src/widgets/image/lv_image.c ****         lv_image_set_rotation(obj, 0);
 877:Drivers/lvgl/src/widgets/image/lv_image.c ****         lv_image_set_pivot(obj, 0, 0);
 878:Drivers/lvgl/src/widgets/image/lv_image.c ****         if(img->w != 0 && img->h != 0) {
 879:Drivers/lvgl/src/widgets/image/lv_image.c ****             lv_obj_update_layout(obj);
 880:Drivers/lvgl/src/widgets/image/lv_image.c ****             int32_t scale_x = lv_obj_get_width(obj) * LV_SCALE_NONE / img->w;
 881:Drivers/lvgl/src/widgets/image/lv_image.c ****             int32_t scale_y = lv_obj_get_height(obj) * LV_SCALE_NONE / img->h;
 882:Drivers/lvgl/src/widgets/image/lv_image.c ****             scale_update(obj, scale_x, scale_y);
 883:Drivers/lvgl/src/widgets/image/lv_image.c ****         }
 884:Drivers/lvgl/src/widgets/image/lv_image.c ****     }
 885:Drivers/lvgl/src/widgets/image/lv_image.c ****     else if(img->align == LV_IMAGE_ALIGN_TILE) {
 2299              		.loc 1 885 10 is_stmt 1 view .LVU720
 2300              		.loc 1 885 12 is_stmt 0 view .LVU721
 2301 0010 0C2B     		cmp	r3, #12
 2302 0012 24D0     		beq	.L138
 2303              	.LVL207:
 2304              	.L133:
 886:Drivers/lvgl/src/widgets/image/lv_image.c ****         lv_image_set_rotation(obj, 0);
 887:Drivers/lvgl/src/widgets/image/lv_image.c ****         lv_image_set_pivot(obj, 0, 0);
ARM GAS  /tmp/cc58L00o.s 			page 78


 888:Drivers/lvgl/src/widgets/image/lv_image.c ****         scale_update(obj, LV_SCALE_NONE, LV_SCALE_NONE);
 889:Drivers/lvgl/src/widgets/image/lv_image.c ****     }
 890:Drivers/lvgl/src/widgets/image/lv_image.c **** }
 2305              		.loc 1 890 1 view .LVU722
 2306 0014 38BD     		pop	{r3, r4, r5, pc}
 2307              	.LVL208:
 2308              	.L137:
 876:Drivers/lvgl/src/widgets/image/lv_image.c ****         lv_image_set_rotation(obj, 0);
 2309              		.loc 1 876 9 is_stmt 1 view .LVU723
 2310 0016 0021     		movs	r1, #0
 2311 0018 FFF7FEFF 		bl	lv_image_set_rotation
 2312              	.LVL209:
 877:Drivers/lvgl/src/widgets/image/lv_image.c ****         if(img->w != 0 && img->h != 0) {
 2313              		.loc 1 877 9 view .LVU724
 2314 001c 0022     		movs	r2, #0
 2315 001e 1146     		mov	r1, r2
 2316 0020 2046     		mov	r0, r4
 2317 0022 FFF7FEFF 		bl	lv_image_set_pivot
 2318              	.LVL210:
 878:Drivers/lvgl/src/widgets/image/lv_image.c ****             lv_obj_update_layout(obj);
 2319              		.loc 1 878 9 view .LVU725
 878:Drivers/lvgl/src/widgets/image/lv_image.c ****             lv_obj_update_layout(obj);
 2320              		.loc 1 878 15 is_stmt 0 view .LVU726
 2321 0026 E36B     		ldr	r3, [r4, #60]
 878:Drivers/lvgl/src/widgets/image/lv_image.c ****             lv_obj_update_layout(obj);
 2322              		.loc 1 878 11 view .LVU727
 2323 0028 002B     		cmp	r3, #0
 2324 002a F3D0     		beq	.L133
 878:Drivers/lvgl/src/widgets/image/lv_image.c ****             lv_obj_update_layout(obj);
 2325              		.loc 1 878 30 discriminator 1 view .LVU728
 2326 002c 236C     		ldr	r3, [r4, #64]
 878:Drivers/lvgl/src/widgets/image/lv_image.c ****             lv_obj_update_layout(obj);
 2327              		.loc 1 878 24 discriminator 1 view .LVU729
 2328 002e 002B     		cmp	r3, #0
 2329 0030 F0D0     		beq	.L133
 2330              	.LBB31:
 879:Drivers/lvgl/src/widgets/image/lv_image.c ****             int32_t scale_x = lv_obj_get_width(obj) * LV_SCALE_NONE / img->w;
 2331              		.loc 1 879 13 is_stmt 1 view .LVU730
 2332 0032 2046     		mov	r0, r4
 2333 0034 FFF7FEFF 		bl	lv_obj_update_layout
 2334              	.LVL211:
 880:Drivers/lvgl/src/widgets/image/lv_image.c ****             int32_t scale_y = lv_obj_get_height(obj) * LV_SCALE_NONE / img->h;
 2335              		.loc 1 880 13 view .LVU731
 880:Drivers/lvgl/src/widgets/image/lv_image.c ****             int32_t scale_y = lv_obj_get_height(obj) * LV_SCALE_NONE / img->h;
 2336              		.loc 1 880 31 is_stmt 0 view .LVU732
 2337 0038 2046     		mov	r0, r4
 2338 003a FFF7FEFF 		bl	lv_obj_get_width
 2339              	.LVL212:
 880:Drivers/lvgl/src/widgets/image/lv_image.c ****             int32_t scale_y = lv_obj_get_height(obj) * LV_SCALE_NONE / img->h;
 2340              		.loc 1 880 53 discriminator 1 view .LVU733
 2341 003e 0502     		lsls	r5, r0, #8
 880:Drivers/lvgl/src/widgets/image/lv_image.c ****             int32_t scale_y = lv_obj_get_height(obj) * LV_SCALE_NONE / img->h;
 2342              		.loc 1 880 74 discriminator 1 view .LVU734
 2343 0040 E36B     		ldr	r3, [r4, #60]
 880:Drivers/lvgl/src/widgets/image/lv_image.c ****             int32_t scale_y = lv_obj_get_height(obj) * LV_SCALE_NONE / img->h;
 2344              		.loc 1 880 21 discriminator 1 view .LVU735
 2345 0042 95FBF3F5 		sdiv	r5, r5, r3
ARM GAS  /tmp/cc58L00o.s 			page 79


 2346              	.LVL213:
 881:Drivers/lvgl/src/widgets/image/lv_image.c ****             scale_update(obj, scale_x, scale_y);
 2347              		.loc 1 881 13 is_stmt 1 view .LVU736
 881:Drivers/lvgl/src/widgets/image/lv_image.c ****             scale_update(obj, scale_x, scale_y);
 2348              		.loc 1 881 31 is_stmt 0 view .LVU737
 2349 0046 2046     		mov	r0, r4
 2350 0048 FFF7FEFF 		bl	lv_obj_get_height
 2351              	.LVL214:
 881:Drivers/lvgl/src/widgets/image/lv_image.c ****             scale_update(obj, scale_x, scale_y);
 2352              		.loc 1 881 54 discriminator 1 view .LVU738
 2353 004c 0002     		lsls	r0, r0, #8
 881:Drivers/lvgl/src/widgets/image/lv_image.c ****             scale_update(obj, scale_x, scale_y);
 2354              		.loc 1 881 75 discriminator 1 view .LVU739
 2355 004e 226C     		ldr	r2, [r4, #64]
 2356              	.LVL215:
 882:Drivers/lvgl/src/widgets/image/lv_image.c ****         }
 2357              		.loc 1 882 13 is_stmt 1 view .LVU740
 2358 0050 90FBF2F2 		sdiv	r2, r0, r2
 2359              	.LVL216:
 882:Drivers/lvgl/src/widgets/image/lv_image.c ****         }
 2360              		.loc 1 882 13 is_stmt 0 view .LVU741
 2361 0054 2946     		mov	r1, r5
 2362 0056 2046     		mov	r0, r4
 2363 0058 FFF7FEFF 		bl	scale_update
 2364              	.LVL217:
 882:Drivers/lvgl/src/widgets/image/lv_image.c ****         }
 2365              		.loc 1 882 13 view .LVU742
 2366 005c DAE7     		b	.L133
 2367              	.LVL218:
 2368              	.L138:
 882:Drivers/lvgl/src/widgets/image/lv_image.c ****         }
 2369              		.loc 1 882 13 view .LVU743
 2370              	.LBE31:
 886:Drivers/lvgl/src/widgets/image/lv_image.c ****         lv_image_set_pivot(obj, 0, 0);
 2371              		.loc 1 886 9 is_stmt 1 view .LVU744
 2372 005e 0021     		movs	r1, #0
 2373 0060 FFF7FEFF 		bl	lv_image_set_rotation
 2374              	.LVL219:
 887:Drivers/lvgl/src/widgets/image/lv_image.c ****         scale_update(obj, LV_SCALE_NONE, LV_SCALE_NONE);
 2375              		.loc 1 887 9 view .LVU745
 2376 0064 0022     		movs	r2, #0
 2377 0066 1146     		mov	r1, r2
 2378 0068 2046     		mov	r0, r4
 2379 006a FFF7FEFF 		bl	lv_image_set_pivot
 2380              	.LVL220:
 888:Drivers/lvgl/src/widgets/image/lv_image.c ****     }
 2381              		.loc 1 888 9 view .LVU746
 2382 006e 4FF48072 		mov	r2, #256
 2383 0072 1146     		mov	r1, r2
 2384 0074 2046     		mov	r0, r4
 2385 0076 FFF7FEFF 		bl	scale_update
 2386              	.LVL221:
 2387              		.loc 1 890 1 is_stmt 0 view .LVU747
 2388 007a CBE7     		b	.L133
 2389              		.cfi_endproc
 2390              	.LFE216:
 2392              		.section	.text.lv_image_set_src,"ax",%progbits
ARM GAS  /tmp/cc58L00o.s 			page 80


 2393              		.align	1
 2394              		.global	lv_image_set_src
 2395              		.syntax unified
 2396              		.thumb
 2397              		.thumb_func
 2399              	lv_image_set_src:
 2400              	.LVL222:
 2401              	.LFB187:
 152:Drivers/lvgl/src/widgets/image/lv_image.c ****     LV_ASSERT_OBJ(obj, MY_CLASS);
 2402              		.loc 1 152 1 is_stmt 1 view -0
 2403              		.cfi_startproc
 2404              		@ args = 0, pretend = 0, frame = 32
 2405              		@ frame_needed = 0, uses_anonymous_args = 0
 153:Drivers/lvgl/src/widgets/image/lv_image.c **** 
 2406              		.loc 1 153 5 view .LVU749
 153:Drivers/lvgl/src/widgets/image/lv_image.c **** 
 2407              		.loc 1 153 5 view .LVU750
 2408 0000 0028     		cmp	r0, #0
 2409 0002 50D0     		beq	.L141
 152:Drivers/lvgl/src/widgets/image/lv_image.c ****     LV_ASSERT_OBJ(obj, MY_CLASS);
 2410              		.loc 1 152 1 is_stmt 0 view .LVU751
 2411 0004 F0B5     		push	{r4, r5, r6, r7, lr}
 2412              	.LCFI39:
 2413              		.cfi_def_cfa_offset 20
 2414              		.cfi_offset 4, -20
 2415              		.cfi_offset 5, -16
 2416              		.cfi_offset 6, -12
 2417              		.cfi_offset 7, -8
 2418              		.cfi_offset 14, -4
 2419 0006 8DB0     		sub	sp, sp, #52
 2420              	.LCFI40:
 2421              		.cfi_def_cfa_offset 72
 2422 0008 0D46     		mov	r5, r1
 2423 000a 0446     		mov	r4, r0
 153:Drivers/lvgl/src/widgets/image/lv_image.c **** 
 2424              		.loc 1 153 5 is_stmt 1 discriminator 2 view .LVU752
 153:Drivers/lvgl/src/widgets/image/lv_image.c **** 
 2425              		.loc 1 153 33 discriminator 2 view .LVU753
 155:Drivers/lvgl/src/widgets/image/lv_image.c **** 
 2426              		.loc 1 155 5 view .LVU754
 2427 000c FFF7FEFF 		bl	lv_obj_invalidate
 2428              	.LVL223:
 157:Drivers/lvgl/src/widgets/image/lv_image.c ****     lv_image_t * img = (lv_image_t *)obj;
 2429              		.loc 1 157 5 view .LVU755
 157:Drivers/lvgl/src/widgets/image/lv_image.c ****     lv_image_t * img = (lv_image_t *)obj;
 2430              		.loc 1 157 31 is_stmt 0 view .LVU756
 2431 0010 2846     		mov	r0, r5
 2432 0012 FFF7FEFF 		bl	lv_image_src_get_type
 2433              	.LVL224:
 2434 0016 0646     		mov	r6, r0
 2435              	.LVL225:
 158:Drivers/lvgl/src/widgets/image/lv_image.c **** 
 2436              		.loc 1 158 5 is_stmt 1 view .LVU757
 177:Drivers/lvgl/src/widgets/image/lv_image.c ****         if(src) LV_LOG_WARN("unknown image type");
 2437              		.loc 1 177 5 view .LVU758
 177:Drivers/lvgl/src/widgets/image/lv_image.c ****         if(src) LV_LOG_WARN("unknown image type");
 2438              		.loc 1 177 7 is_stmt 0 view .LVU759
ARM GAS  /tmp/cc58L00o.s 			page 81


 2439 0018 0328     		cmp	r0, #3
 2440 001a 45D0     		beq	.L158
 187:Drivers/lvgl/src/widgets/image/lv_image.c ****     lv_result_t res = lv_image_decoder_get_info(src, &header);
 2441              		.loc 1 187 5 is_stmt 1 view .LVU760
 188:Drivers/lvgl/src/widgets/image/lv_image.c ****     if(res != LV_RESULT_OK) {
 2442              		.loc 1 188 5 view .LVU761
 188:Drivers/lvgl/src/widgets/image/lv_image.c ****     if(res != LV_RESULT_OK) {
 2443              		.loc 1 188 23 is_stmt 0 view .LVU762
 2444 001c 09A9     		add	r1, sp, #36
 2445 001e 2846     		mov	r0, r5
 2446              	.LVL226:
 188:Drivers/lvgl/src/widgets/image/lv_image.c ****     if(res != LV_RESULT_OK) {
 2447              		.loc 1 188 23 view .LVU763
 2448 0020 FFF7FEFF 		bl	lv_image_decoder_get_info
 2449              	.LVL227:
 189:Drivers/lvgl/src/widgets/image/lv_image.c **** #if LV_USE_LOG
 2450              		.loc 1 189 5 is_stmt 1 view .LVU764
 189:Drivers/lvgl/src/widgets/image/lv_image.c **** #if LV_USE_LOG
 2451              		.loc 1 189 7 is_stmt 0 view .LVU765
 2452 0024 0128     		cmp	r0, #1
 2453 0026 4FD1     		bne	.L139
 199:Drivers/lvgl/src/widgets/image/lv_image.c ****         if(header.flags & LV_IMAGE_FLAGS_ALLOCATED) {
 2454              		.loc 1 199 5 is_stmt 1 view .LVU766
 199:Drivers/lvgl/src/widgets/image/lv_image.c ****         if(header.flags & LV_IMAGE_FLAGS_ALLOCATED) {
 2455              		.loc 1 199 7 is_stmt 0 view .LVU767
 2456 0028 002E     		cmp	r6, #0
 2457 002a 57D1     		bne	.L145
 200:Drivers/lvgl/src/widgets/image/lv_image.c ****             lv_draw_buf_t * buf = (lv_draw_buf_t *)src;
 2458              		.loc 1 200 9 is_stmt 1 view .LVU768
 200:Drivers/lvgl/src/widgets/image/lv_image.c ****             lv_draw_buf_t * buf = (lv_draw_buf_t *)src;
 2459              		.loc 1 200 18 is_stmt 0 view .LVU769
 2460 002c BDF82630 		ldrh	r3, [sp, #38]
 200:Drivers/lvgl/src/widgets/image/lv_image.c ****             lv_draw_buf_t * buf = (lv_draw_buf_t *)src;
 2461              		.loc 1 200 11 view .LVU770
 2462 0030 13F0100F 		tst	r3, #16
 2463 0034 05D0     		beq	.L146
 2464              	.LBB32:
 201:Drivers/lvgl/src/widgets/image/lv_image.c ****             if(!buf->unaligned_data || !buf->handlers) {
 2465              		.loc 1 201 13 is_stmt 1 view .LVU771
 2466              	.LVL228:
 202:Drivers/lvgl/src/widgets/image/lv_image.c ****                 LV_LOG_ERROR("Invalid draw buffer, unaligned_data: %p, handlers: %p",
 2467              		.loc 1 202 13 view .LVU772
 202:Drivers/lvgl/src/widgets/image/lv_image.c ****                 LV_LOG_ERROR("Invalid draw buffer, unaligned_data: %p, handlers: %p",
 2468              		.loc 1 202 20 is_stmt 0 view .LVU773
 2469 0036 6B69     		ldr	r3, [r5, #20]
 202:Drivers/lvgl/src/widgets/image/lv_image.c ****                 LV_LOG_ERROR("Invalid draw buffer, unaligned_data: %p, handlers: %p",
 2470              		.loc 1 202 15 view .LVU774
 2471 0038 002B     		cmp	r3, #0
 2472 003a 45D0     		beq	.L139
 202:Drivers/lvgl/src/widgets/image/lv_image.c ****                 LV_LOG_ERROR("Invalid draw buffer, unaligned_data: %p, handlers: %p",
 2473              		.loc 1 202 44 discriminator 1 view .LVU775
 2474 003c AB69     		ldr	r3, [r5, #24]
 202:Drivers/lvgl/src/widgets/image/lv_image.c ****                 LV_LOG_ERROR("Invalid draw buffer, unaligned_data: %p, handlers: %p",
 2475              		.loc 1 202 37 discriminator 1 view .LVU776
 2476 003e 002B     		cmp	r3, #0
 2477 0040 42D0     		beq	.L139
 2478              	.LVL229:
ARM GAS  /tmp/cc58L00o.s 			page 82


 2479              	.L146:
 202:Drivers/lvgl/src/widgets/image/lv_image.c ****                 LV_LOG_ERROR("Invalid draw buffer, unaligned_data: %p, handlers: %p",
 2480              		.loc 1 202 37 discriminator 1 view .LVU777
 2481              	.LBE32:
 210:Drivers/lvgl/src/widgets/image/lv_image.c ****             lv_free((void *)img->src);
 2482              		.loc 1 210 9 is_stmt 1 view .LVU778
 210:Drivers/lvgl/src/widgets/image/lv_image.c ****             lv_free((void *)img->src);
 2483              		.loc 1 210 26 is_stmt 0 view .LVU779
 2484 0042 94F85830 		ldrb	r3, [r4, #88]	@ zero_extendqisi2
 210:Drivers/lvgl/src/widgets/image/lv_image.c ****             lv_free((void *)img->src);
 2485              		.loc 1 210 47 view .LVU780
 2486 0046 03F00303 		and	r3, r3, #3
 2487 004a 013B     		subs	r3, r3, #1
 2488 004c DBB2     		uxtb	r3, r3
 210:Drivers/lvgl/src/widgets/image/lv_image.c ****             lv_free((void *)img->src);
 2489              		.loc 1 210 11 view .LVU781
 2490 004e 012B     		cmp	r3, #1
 2491 0050 40D9     		bls	.L159
 2492              	.LVL230:
 2493              	.L147:
 213:Drivers/lvgl/src/widgets/image/lv_image.c ****     }
 2494              		.loc 1 213 9 is_stmt 1 view .LVU782
 213:Drivers/lvgl/src/widgets/image/lv_image.c ****     }
 2495              		.loc 1 213 18 is_stmt 0 view .LVU783
 2496 0052 E562     		str	r5, [r4, #44]
 2497              	.L148:
 234:Drivers/lvgl/src/widgets/image/lv_image.c ****         /*`lv_image_dsc_get_info` couldn't set the width and height of a font so set it here*/
 2498              		.loc 1 234 5 is_stmt 1 view .LVU784
 234:Drivers/lvgl/src/widgets/image/lv_image.c ****         /*`lv_image_dsc_get_info` couldn't set the width and height of a font so set it here*/
 2499              		.loc 1 234 7 is_stmt 0 view .LVU785
 2500 0054 022E     		cmp	r6, #2
 2501 0056 5DD0     		beq	.L160
 2502              	.L149:
 245:Drivers/lvgl/src/widgets/image/lv_image.c ****     img->w        = header.w;
 2503              		.loc 1 245 5 is_stmt 1 view .LVU786
 245:Drivers/lvgl/src/widgets/image/lv_image.c ****     img->w        = header.w;
 2504              		.loc 1 245 19 is_stmt 0 view .LVU787
 2505 0058 94F85830 		ldrb	r3, [r4, #88]	@ zero_extendqisi2
 2506 005c 66F30103 		bfi	r3, r6, #0, #2
 2507 0060 84F85830 		strb	r3, [r4, #88]
 246:Drivers/lvgl/src/widgets/image/lv_image.c ****     img->h        = header.h;
 2508              		.loc 1 246 5 is_stmt 1 view .LVU788
 246:Drivers/lvgl/src/widgets/image/lv_image.c ****     img->h        = header.h;
 2509              		.loc 1 246 27 is_stmt 0 view .LVU789
 2510 0064 BDF82830 		ldrh	r3, [sp, #40]
 246:Drivers/lvgl/src/widgets/image/lv_image.c ****     img->h        = header.h;
 2511              		.loc 1 246 19 view .LVU790
 2512 0068 E363     		str	r3, [r4, #60]
 247:Drivers/lvgl/src/widgets/image/lv_image.c ****     img->cf       = header.cf;
 2513              		.loc 1 247 5 is_stmt 1 view .LVU791
 247:Drivers/lvgl/src/widgets/image/lv_image.c ****     img->cf       = header.cf;
 2514              		.loc 1 247 27 is_stmt 0 view .LVU792
 2515 006a BDF82A30 		ldrh	r3, [sp, #42]
 247:Drivers/lvgl/src/widgets/image/lv_image.c ****     img->cf       = header.cf;
 2516              		.loc 1 247 19 view .LVU793
 2517 006e 2364     		str	r3, [r4, #64]
 248:Drivers/lvgl/src/widgets/image/lv_image.c **** 
ARM GAS  /tmp/cc58L00o.s 			page 83


 2518              		.loc 1 248 5 is_stmt 1 view .LVU794
 248:Drivers/lvgl/src/widgets/image/lv_image.c **** 
 2519              		.loc 1 248 27 is_stmt 0 view .LVU795
 2520 0070 9DF82520 		ldrb	r2, [sp, #37]	@ zero_extendqisi2
 248:Drivers/lvgl/src/widgets/image/lv_image.c **** 
 2521              		.loc 1 248 19 view .LVU796
 2522 0074 94F85830 		ldrb	r3, [r4, #88]	@ zero_extendqisi2
 2523 0078 62F38603 		bfi	r3, r2, #2, #5
 2524 007c 84F85830 		strb	r3, [r4, #88]
 250:Drivers/lvgl/src/widgets/image/lv_image.c **** 
 2525              		.loc 1 250 5 is_stmt 1 view .LVU797
 2526 0080 2046     		mov	r0, r4
 2527 0082 FFF7FEFF 		bl	lv_obj_refresh_self_size
 2528              	.LVL231:
 252:Drivers/lvgl/src/widgets/image/lv_image.c **** 
 2529              		.loc 1 252 5 view .LVU798
 2530 0086 2046     		mov	r0, r4
 2531 0088 FFF7FEFF 		bl	update_align
 2532              	.LVL232:
 255:Drivers/lvgl/src/widgets/image/lv_image.c ****         lv_obj_refresh_ext_draw_size(obj);
 2533              		.loc 1 255 5 view .LVU799
 255:Drivers/lvgl/src/widgets/image/lv_image.c ****         lv_obj_refresh_ext_draw_size(obj);
 2534              		.loc 1 255 11 is_stmt 0 view .LVU800
 2535 008c 636C     		ldr	r3, [r4, #68]
 255:Drivers/lvgl/src/widgets/image/lv_image.c ****         lv_obj_refresh_ext_draw_size(obj);
 2536              		.loc 1 255 7 view .LVU801
 2537 008e 1BB9     		cbnz	r3, .L153
 255:Drivers/lvgl/src/widgets/image/lv_image.c ****         lv_obj_refresh_ext_draw_size(obj);
 2538              		.loc 1 255 28 discriminator 1 view .LVU802
 2539 0090 A36C     		ldr	r3, [r4, #72]
 255:Drivers/lvgl/src/widgets/image/lv_image.c ****         lv_obj_refresh_ext_draw_size(obj);
 2540              		.loc 1 255 22 discriminator 1 view .LVU803
 2541 0092 B3F5807F 		cmp	r3, #256
 2542 0096 64D0     		beq	.L161
 2543              	.L153:
 256:Drivers/lvgl/src/widgets/image/lv_image.c ****     }
 2544              		.loc 1 256 9 is_stmt 1 view .LVU804
 2545 0098 2046     		mov	r0, r4
 2546 009a FFF7FEFF 		bl	lv_obj_refresh_ext_draw_size
 2547              	.LVL233:
 2548              	.L154:
 259:Drivers/lvgl/src/widgets/image/lv_image.c **** }
 2549              		.loc 1 259 5 view .LVU805
 2550 009e 2046     		mov	r0, r4
 2551 00a0 FFF7FEFF 		bl	lv_obj_invalidate
 2552              	.LVL234:
 2553 00a4 10E0     		b	.L139
 2554              	.LVL235:
 2555              	.L141:
 2556              	.LCFI41:
 2557              		.cfi_def_cfa_offset 0
 2558              		.cfi_restore 4
 2559              		.cfi_restore 5
 2560              		.cfi_restore 6
 2561              		.cfi_restore 7
 2562              		.cfi_restore 14
 153:Drivers/lvgl/src/widgets/image/lv_image.c **** 
ARM GAS  /tmp/cc58L00o.s 			page 84


 2563              		.loc 1 153 5 discriminator 1 view .LVU806
 153:Drivers/lvgl/src/widgets/image/lv_image.c **** 
 2564              		.loc 1 153 5 discriminator 1 view .LVU807
 153:Drivers/lvgl/src/widgets/image/lv_image.c **** 
 2565              		.loc 1 153 5 discriminator 1 view .LVU808
 153:Drivers/lvgl/src/widgets/image/lv_image.c **** 
 2566              		.loc 1 153 5 discriminator 1 view .LVU809
 153:Drivers/lvgl/src/widgets/image/lv_image.c **** 
 2567              		.loc 1 153 5 discriminator 1 view .LVU810
 2568 00a6 FEE7     		b	.L141
 2569              	.LVL236:
 2570              	.L158:
 2571              	.LCFI42:
 2572              		.cfi_def_cfa_offset 72
 2573              		.cfi_offset 4, -20
 2574              		.cfi_offset 5, -16
 2575              		.cfi_offset 6, -12
 2576              		.cfi_offset 7, -8
 2577              		.cfi_offset 14, -4
 178:Drivers/lvgl/src/widgets/image/lv_image.c ****         if(img->src_type == LV_IMAGE_SRC_SYMBOL || img->src_type == LV_IMAGE_SRC_FILE) {
 2578              		.loc 1 178 9 view .LVU811
 178:Drivers/lvgl/src/widgets/image/lv_image.c ****         if(img->src_type == LV_IMAGE_SRC_SYMBOL || img->src_type == LV_IMAGE_SRC_FILE) {
 2579              		.loc 1 178 17 discriminator 1 view .LVU812
 178:Drivers/lvgl/src/widgets/image/lv_image.c ****         if(img->src_type == LV_IMAGE_SRC_SYMBOL || img->src_type == LV_IMAGE_SRC_FILE) {
 2580              		.loc 1 178 17 discriminator 1 view .LVU813
 178:Drivers/lvgl/src/widgets/image/lv_image.c ****         if(img->src_type == LV_IMAGE_SRC_SYMBOL || img->src_type == LV_IMAGE_SRC_FILE) {
 2581              		.loc 1 178 17 discriminator 1 view .LVU814
 179:Drivers/lvgl/src/widgets/image/lv_image.c ****             lv_free((void *)img->src);
 2582              		.loc 1 179 9 view .LVU815
 179:Drivers/lvgl/src/widgets/image/lv_image.c ****             lv_free((void *)img->src);
 2583              		.loc 1 179 26 is_stmt 0 view .LVU816
 2584 00a8 94F85830 		ldrb	r3, [r4, #88]	@ zero_extendqisi2
 179:Drivers/lvgl/src/widgets/image/lv_image.c ****             lv_free((void *)img->src);
 2585              		.loc 1 179 49 view .LVU817
 2586 00ac 03F00303 		and	r3, r3, #3
 2587 00b0 013B     		subs	r3, r3, #1
 2588 00b2 DBB2     		uxtb	r3, r3
 179:Drivers/lvgl/src/widgets/image/lv_image.c ****             lv_free((void *)img->src);
 2589              		.loc 1 179 11 view .LVU818
 2590 00b4 012B     		cmp	r3, #1
 2591 00b6 09D9     		bls	.L162
 2592              	.LVL237:
 2593              	.L143:
 182:Drivers/lvgl/src/widgets/image/lv_image.c ****         img->src_type = LV_IMAGE_SRC_UNKNOWN;
 2594              		.loc 1 182 9 is_stmt 1 view .LVU819
 182:Drivers/lvgl/src/widgets/image/lv_image.c ****         img->src_type = LV_IMAGE_SRC_UNKNOWN;
 2595              		.loc 1 182 23 is_stmt 0 view .LVU820
 2596 00b8 0023     		movs	r3, #0
 2597 00ba E362     		str	r3, [r4, #44]
 183:Drivers/lvgl/src/widgets/image/lv_image.c ****         return;
 2598              		.loc 1 183 9 is_stmt 1 view .LVU821
 183:Drivers/lvgl/src/widgets/image/lv_image.c ****         return;
 2599              		.loc 1 183 23 is_stmt 0 view .LVU822
 2600 00bc 94F85830 		ldrb	r3, [r4, #88]	@ zero_extendqisi2
 2601 00c0 43F00303 		orr	r3, r3, #3
 2602 00c4 84F85830 		strb	r3, [r4, #88]
 184:Drivers/lvgl/src/widgets/image/lv_image.c ****     }
ARM GAS  /tmp/cc58L00o.s 			page 85


 2603              		.loc 1 184 9 is_stmt 1 view .LVU823
 2604              	.L139:
 260:Drivers/lvgl/src/widgets/image/lv_image.c **** 
 2605              		.loc 1 260 1 is_stmt 0 view .LVU824
 2606 00c8 0DB0     		add	sp, sp, #52
 2607              	.LCFI43:
 2608              		.cfi_remember_state
 2609              		.cfi_def_cfa_offset 20
 2610              		@ sp needed
 2611 00ca F0BD     		pop	{r4, r5, r6, r7, pc}
 2612              	.LVL238:
 2613              	.L162:
 2614              	.LCFI44:
 2615              		.cfi_restore_state
 180:Drivers/lvgl/src/widgets/image/lv_image.c ****         }
 2616              		.loc 1 180 13 is_stmt 1 view .LVU825
 2617 00cc E06A     		ldr	r0, [r4, #44]
 2618              	.LVL239:
 180:Drivers/lvgl/src/widgets/image/lv_image.c ****         }
 2619              		.loc 1 180 13 is_stmt 0 view .LVU826
 2620 00ce FFF7FEFF 		bl	lv_free
 2621              	.LVL240:
 2622 00d2 F1E7     		b	.L143
 2623              	.LVL241:
 2624              	.L159:
 211:Drivers/lvgl/src/widgets/image/lv_image.c ****         }
 2625              		.loc 1 211 13 is_stmt 1 view .LVU827
 2626 00d4 E06A     		ldr	r0, [r4, #44]
 2627              	.LVL242:
 211:Drivers/lvgl/src/widgets/image/lv_image.c ****         }
 2628              		.loc 1 211 13 is_stmt 0 view .LVU828
 2629 00d6 FFF7FEFF 		bl	lv_free
 2630              	.LVL243:
 2631 00da BAE7     		b	.L147
 2632              	.LVL244:
 2633              	.L145:
 215:Drivers/lvgl/src/widgets/image/lv_image.c ****         /*If the new and the old src are the same then it was only a refresh.*/
 2634              		.loc 1 215 10 is_stmt 1 view .LVU829
 215:Drivers/lvgl/src/widgets/image/lv_image.c ****         /*If the new and the old src are the same then it was only a refresh.*/
 2635              		.loc 1 215 43 is_stmt 0 view .LVU830
 2636 00dc 731E     		subs	r3, r6, #1
 2637 00de DBB2     		uxtb	r3, r3
 215:Drivers/lvgl/src/widgets/image/lv_image.c ****         /*If the new and the old src are the same then it was only a refresh.*/
 2638              		.loc 1 215 12 view .LVU831
 2639 00e0 012B     		cmp	r3, #1
 2640 00e2 B9D8     		bhi	.L149
 217:Drivers/lvgl/src/widgets/image/lv_image.c ****             const void * old_src = NULL;
 2641              		.loc 1 217 9 is_stmt 1 view .LVU832
 217:Drivers/lvgl/src/widgets/image/lv_image.c ****             const void * old_src = NULL;
 2642              		.loc 1 217 15 is_stmt 0 view .LVU833
 2643 00e4 E76A     		ldr	r7, [r4, #44]
 217:Drivers/lvgl/src/widgets/image/lv_image.c ****             const void * old_src = NULL;
 2644              		.loc 1 217 11 view .LVU834
 2645 00e6 AF42     		cmp	r7, r5
 2646 00e8 B4D0     		beq	.L148
 2647              	.LBB33:
 218:Drivers/lvgl/src/widgets/image/lv_image.c ****             /*If memory was allocated because of the previous `src_type` then save its pointer and 
ARM GAS  /tmp/cc58L00o.s 			page 86


 2648              		.loc 1 218 13 is_stmt 1 view .LVU835
 2649              	.LVL245:
 222:Drivers/lvgl/src/widgets/image/lv_image.c ****                 old_src = img->src;
 2650              		.loc 1 222 13 view .LVU836
 222:Drivers/lvgl/src/widgets/image/lv_image.c ****                 old_src = img->src;
 2651              		.loc 1 222 30 is_stmt 0 view .LVU837
 2652 00ea 94F85830 		ldrb	r3, [r4, #88]	@ zero_extendqisi2
 222:Drivers/lvgl/src/widgets/image/lv_image.c ****                 old_src = img->src;
 2653              		.loc 1 222 51 view .LVU838
 2654 00ee 03F00303 		and	r3, r3, #3
 2655 00f2 013B     		subs	r3, r3, #1
 2656 00f4 DBB2     		uxtb	r3, r3
 222:Drivers/lvgl/src/widgets/image/lv_image.c ****                 old_src = img->src;
 2657              		.loc 1 222 15 view .LVU839
 2658 00f6 012B     		cmp	r3, #1
 2659 00f8 00D9     		bls	.L150
 218:Drivers/lvgl/src/widgets/image/lv_image.c ****             /*If memory was allocated because of the previous `src_type` then save its pointer and 
 2660              		.loc 1 218 26 view .LVU840
 2661 00fa 0027     		movs	r7, #0
 2662              	.L150:
 2663              	.LVL246:
 225:Drivers/lvgl/src/widgets/image/lv_image.c ****             LV_ASSERT_MALLOC(new_str);
 2664              		.loc 1 225 13 is_stmt 1 view .LVU841
 225:Drivers/lvgl/src/widgets/image/lv_image.c ****             LV_ASSERT_MALLOC(new_str);
 2665              		.loc 1 225 30 is_stmt 0 view .LVU842
 2666 00fc 2846     		mov	r0, r5
 2667              	.LVL247:
 225:Drivers/lvgl/src/widgets/image/lv_image.c ****             LV_ASSERT_MALLOC(new_str);
 2668              		.loc 1 225 30 view .LVU843
 2669 00fe FFF7FEFF 		bl	lv_strdup
 2670              	.LVL248:
 226:Drivers/lvgl/src/widgets/image/lv_image.c ****             if(new_str == NULL) return;
 2671              		.loc 1 226 13 is_stmt 1 view .LVU844
 226:Drivers/lvgl/src/widgets/image/lv_image.c ****             if(new_str == NULL) return;
 2672              		.loc 1 226 13 view .LVU845
 2673 0102 30B1     		cbz	r0, .L152
 226:Drivers/lvgl/src/widgets/image/lv_image.c ****             if(new_str == NULL) return;
 2674              		.loc 1 226 13 discriminator 2 view .LVU846
 226:Drivers/lvgl/src/widgets/image/lv_image.c ****             if(new_str == NULL) return;
 2675              		.loc 1 226 38 discriminator 2 view .LVU847
 227:Drivers/lvgl/src/widgets/image/lv_image.c ****             img->src = new_str;
 2676              		.loc 1 227 13 view .LVU848
 228:Drivers/lvgl/src/widgets/image/lv_image.c **** 
 2677              		.loc 1 228 13 view .LVU849
 228:Drivers/lvgl/src/widgets/image/lv_image.c **** 
 2678              		.loc 1 228 22 is_stmt 0 view .LVU850
 2679 0104 E062     		str	r0, [r4, #44]
 230:Drivers/lvgl/src/widgets/image/lv_image.c ****         }
 2680              		.loc 1 230 13 is_stmt 1 view .LVU851
 230:Drivers/lvgl/src/widgets/image/lv_image.c ****         }
 2681              		.loc 1 230 15 is_stmt 0 view .LVU852
 2682 0106 002F     		cmp	r7, #0
 2683 0108 A4D0     		beq	.L148
 230:Drivers/lvgl/src/widgets/image/lv_image.c ****         }
 2684              		.loc 1 230 25 is_stmt 1 discriminator 1 view .LVU853
 2685 010a 3846     		mov	r0, r7
 2686              	.LVL249:
ARM GAS  /tmp/cc58L00o.s 			page 87


 230:Drivers/lvgl/src/widgets/image/lv_image.c ****         }
 2687              		.loc 1 230 25 is_stmt 0 discriminator 1 view .LVU854
 2688 010c FFF7FEFF 		bl	lv_free
 2689              	.LVL250:
 230:Drivers/lvgl/src/widgets/image/lv_image.c ****         }
 2690              		.loc 1 230 25 discriminator 1 view .LVU855
 2691 0110 A0E7     		b	.L148
 2692              	.LVL251:
 2693              	.L152:
 226:Drivers/lvgl/src/widgets/image/lv_image.c ****             if(new_str == NULL) return;
 2694              		.loc 1 226 13 is_stmt 1 discriminator 1 view .LVU856
 226:Drivers/lvgl/src/widgets/image/lv_image.c ****             if(new_str == NULL) return;
 2695              		.loc 1 226 13 discriminator 1 view .LVU857
 226:Drivers/lvgl/src/widgets/image/lv_image.c ****             if(new_str == NULL) return;
 2696              		.loc 1 226 13 discriminator 1 view .LVU858
 226:Drivers/lvgl/src/widgets/image/lv_image.c ****             if(new_str == NULL) return;
 2697              		.loc 1 226 13 discriminator 1 view .LVU859
 226:Drivers/lvgl/src/widgets/image/lv_image.c ****             if(new_str == NULL) return;
 2698              		.loc 1 226 13 discriminator 1 view .LVU860
 2699 0112 FEE7     		b	.L152
 2700              	.LVL252:
 2701              	.L160:
 226:Drivers/lvgl/src/widgets/image/lv_image.c ****             if(new_str == NULL) return;
 2702              		.loc 1 226 13 is_stmt 0 discriminator 1 view .LVU861
 2703              	.LBE33:
 2704              	.LBB34:
 236:Drivers/lvgl/src/widgets/image/lv_image.c ****         int32_t letter_space = lv_obj_get_style_text_letter_space(obj, LV_PART_MAIN);
 2705              		.loc 1 236 9 is_stmt 1 view .LVU862
 2706              	.LBB35:
 2707              	.LBI35:
 550:Drivers/lvgl/src/widgets/image/../../core/lv_obj_style_gen.h **** {
 2708              		.loc 2 550 33 view .LVU863
 2709              	.LBB36:
 552:Drivers/lvgl/src/widgets/image/../../core/lv_obj_style_gen.h ****     return (const lv_font_t *)v.ptr;
 2710              		.loc 2 552 5 view .LVU864
 552:Drivers/lvgl/src/widgets/image/../../core/lv_obj_style_gen.h ****     return (const lv_font_t *)v.ptr;
 2711              		.loc 2 552 26 is_stmt 0 view .LVU865
 2712 0114 5A22     		movs	r2, #90
 2713 0116 0021     		movs	r1, #0
 2714 0118 2046     		mov	r0, r4
 2715 011a FFF7FEFF 		bl	lv_obj_get_style_prop
 2716              	.LVL253:
 2717 011e 0746     		mov	r7, r0
 2718 0120 0790     		str	r0, [sp, #28]
 553:Drivers/lvgl/src/widgets/image/../../core/lv_obj_style_gen.h **** }
 2719              		.loc 2 553 5 is_stmt 1 view .LVU866
 2720              	.LVL254:
 553:Drivers/lvgl/src/widgets/image/../../core/lv_obj_style_gen.h **** }
 2721              		.loc 2 553 5 is_stmt 0 view .LVU867
 2722              	.LBE36:
 2723              	.LBE35:
 237:Drivers/lvgl/src/widgets/image/lv_image.c ****         int32_t line_space = lv_obj_get_style_text_line_space(obj, LV_PART_MAIN);
 2724              		.loc 1 237 9 is_stmt 1 view .LVU868
 2725              	.LBB37:
 2726              	.LBI37:
 556:Drivers/lvgl/src/widgets/image/../../core/lv_obj_style_gen.h **** {
 2727              		.loc 2 556 23 view .LVU869
ARM GAS  /tmp/cc58L00o.s 			page 88


 2728              	.LBB38:
 558:Drivers/lvgl/src/widgets/image/../../core/lv_obj_style_gen.h ****     return (int32_t)v.num;
 2729              		.loc 2 558 5 view .LVU870
 558:Drivers/lvgl/src/widgets/image/../../core/lv_obj_style_gen.h ****     return (int32_t)v.num;
 2730              		.loc 2 558 26 is_stmt 0 view .LVU871
 2731 0122 5B22     		movs	r2, #91
 2732 0124 0021     		movs	r1, #0
 2733 0126 2046     		mov	r0, r4
 2734              	.LVL255:
 558:Drivers/lvgl/src/widgets/image/../../core/lv_obj_style_gen.h ****     return (int32_t)v.num;
 2735              		.loc 2 558 26 view .LVU872
 2736 0128 FFF7FEFF 		bl	lv_obj_get_style_prop
 2737              	.LVL256:
 2738 012c 0590     		str	r0, [sp, #20]
 2739 012e 0790     		str	r0, [sp, #28]
 559:Drivers/lvgl/src/widgets/image/../../core/lv_obj_style_gen.h **** }
 2740              		.loc 2 559 5 is_stmt 1 view .LVU873
 2741              	.LVL257:
 559:Drivers/lvgl/src/widgets/image/../../core/lv_obj_style_gen.h **** }
 2742              		.loc 2 559 5 is_stmt 0 view .LVU874
 2743              	.LBE38:
 2744              	.LBE37:
 238:Drivers/lvgl/src/widgets/image/lv_image.c ****         lv_point_t size;
 2745              		.loc 1 238 9 is_stmt 1 view .LVU875
 2746              	.LBB39:
 2747              	.LBI39:
 562:Drivers/lvgl/src/widgets/image/../../core/lv_obj_style_gen.h **** {
 2748              		.loc 2 562 23 view .LVU876
 2749              	.LBB40:
 564:Drivers/lvgl/src/widgets/image/../../core/lv_obj_style_gen.h ****     return (int32_t)v.num;
 2750              		.loc 2 564 5 view .LVU877
 564:Drivers/lvgl/src/widgets/image/../../core/lv_obj_style_gen.h ****     return (int32_t)v.num;
 2751              		.loc 2 564 26 is_stmt 0 view .LVU878
 2752 0130 5C22     		movs	r2, #92
 2753 0132 0021     		movs	r1, #0
 2754 0134 2046     		mov	r0, r4
 2755              	.LVL258:
 564:Drivers/lvgl/src/widgets/image/../../core/lv_obj_style_gen.h ****     return (int32_t)v.num;
 2756              		.loc 2 564 26 view .LVU879
 2757 0136 FFF7FEFF 		bl	lv_obj_get_style_prop
 2758              	.LVL259:
 564:Drivers/lvgl/src/widgets/image/../../core/lv_obj_style_gen.h ****     return (int32_t)v.num;
 2759              		.loc 2 564 26 view .LVU880
 2760 013a 0790     		str	r0, [sp, #28]
 565:Drivers/lvgl/src/widgets/image/../../core/lv_obj_style_gen.h **** }
 2761              		.loc 2 565 5 is_stmt 1 view .LVU881
 2762              	.LVL260:
 565:Drivers/lvgl/src/widgets/image/../../core/lv_obj_style_gen.h **** }
 2763              		.loc 2 565 5 is_stmt 0 view .LVU882
 2764              	.LBE40:
 2765              	.LBE39:
 239:Drivers/lvgl/src/widgets/image/lv_image.c ****         lv_text_get_size(&size, src, font, letter_space, line_space, LV_COORD_MAX, LV_TEXT_FLAG_NON
 2766              		.loc 1 239 9 is_stmt 1 view .LVU883
 240:Drivers/lvgl/src/widgets/image/lv_image.c ****         header.w = size.x;
 2767              		.loc 1 240 9 view .LVU884
 2768 013c 0022     		movs	r2, #0
 2769 013e 0292     		str	r2, [sp, #8]
ARM GAS  /tmp/cc58L00o.s 			page 89


 2770 0140 6FF06042 		mvn	r2, #-536870912
 2771 0144 0192     		str	r2, [sp, #4]
 2772 0146 0090     		str	r0, [sp]
 2773 0148 059B     		ldr	r3, [sp, #20]
 2774 014a 3A46     		mov	r2, r7
 2775 014c 2946     		mov	r1, r5
 2776 014e 07A8     		add	r0, sp, #28
 2777              	.LVL261:
 240:Drivers/lvgl/src/widgets/image/lv_image.c ****         header.w = size.x;
 2778              		.loc 1 240 9 is_stmt 0 view .LVU885
 2779 0150 FFF7FEFF 		bl	lv_text_get_size
 2780              	.LVL262:
 241:Drivers/lvgl/src/widgets/image/lv_image.c ****         header.h = size.y;
 2781              		.loc 1 241 9 is_stmt 1 view .LVU886
 241:Drivers/lvgl/src/widgets/image/lv_image.c ****         header.h = size.y;
 2782              		.loc 1 241 24 is_stmt 0 view .LVU887
 2783 0154 079B     		ldr	r3, [sp, #28]
 241:Drivers/lvgl/src/widgets/image/lv_image.c ****         header.h = size.y;
 2784              		.loc 1 241 18 view .LVU888
 2785 0156 ADF82830 		strh	r3, [sp, #40]	@ movhi
 242:Drivers/lvgl/src/widgets/image/lv_image.c ****     }
 2786              		.loc 1 242 9 is_stmt 1 view .LVU889
 242:Drivers/lvgl/src/widgets/image/lv_image.c ****     }
 2787              		.loc 1 242 24 is_stmt 0 view .LVU890
 2788 015a 089B     		ldr	r3, [sp, #32]
 242:Drivers/lvgl/src/widgets/image/lv_image.c ****     }
 2789              		.loc 1 242 18 view .LVU891
 2790 015c ADF82A30 		strh	r3, [sp, #42]	@ movhi
 2791 0160 7AE7     		b	.L149
 2792              	.LVL263:
 2793              	.L161:
 242:Drivers/lvgl/src/widgets/image/lv_image.c ****     }
 2794              		.loc 1 242 18 view .LVU892
 2795              	.LBE34:
 255:Drivers/lvgl/src/widgets/image/lv_image.c ****         lv_obj_refresh_ext_draw_size(obj);
 2796              		.loc 1 255 61 discriminator 2 view .LVU893
 2797 0162 E36C     		ldr	r3, [r4, #76]
 255:Drivers/lvgl/src/widgets/image/lv_image.c ****         lv_obj_refresh_ext_draw_size(obj);
 2798              		.loc 1 255 55 discriminator 2 view .LVU894
 2799 0164 B3F5807F 		cmp	r3, #256
 2800 0168 96D1     		bne	.L153
 2801 016a 98E7     		b	.L154
 2802              		.cfi_endproc
 2803              	.LFE187:
 2805              		.section	.text.lv_image_set_inner_align,"ax",%progbits
 2806              		.align	1
 2807              		.global	lv_image_set_inner_align
 2808              		.syntax unified
 2809              		.thumb
 2810              		.thumb_func
 2812              	lv_image_set_inner_align:
 2813              	.LVL264:
 2814              	.LFB197:
 444:Drivers/lvgl/src/widgets/image/lv_image.c ****     LV_ASSERT_OBJ(obj, MY_CLASS);
 2815              		.loc 1 444 1 is_stmt 1 view -0
 2816              		.cfi_startproc
 2817              		@ args = 0, pretend = 0, frame = 0
ARM GAS  /tmp/cc58L00o.s 			page 90


 2818              		@ frame_needed = 0, uses_anonymous_args = 0
 445:Drivers/lvgl/src/widgets/image/lv_image.c **** 
 2819              		.loc 1 445 5 view .LVU896
 445:Drivers/lvgl/src/widgets/image/lv_image.c **** 
 2820              		.loc 1 445 5 view .LVU897
 2821 0000 D8B1     		cbz	r0, .L165
 444:Drivers/lvgl/src/widgets/image/lv_image.c ****     LV_ASSERT_OBJ(obj, MY_CLASS);
 2822              		.loc 1 444 1 is_stmt 0 view .LVU898
 2823 0002 38B5     		push	{r3, r4, r5, lr}
 2824              	.LCFI45:
 2825              		.cfi_def_cfa_offset 16
 2826              		.cfi_offset 3, -16
 2827              		.cfi_offset 4, -12
 2828              		.cfi_offset 5, -8
 2829              		.cfi_offset 14, -4
 2830 0004 0D46     		mov	r5, r1
 2831 0006 0446     		mov	r4, r0
 445:Drivers/lvgl/src/widgets/image/lv_image.c **** 
 2832              		.loc 1 445 5 is_stmt 1 discriminator 2 view .LVU899
 445:Drivers/lvgl/src/widgets/image/lv_image.c **** 
 2833              		.loc 1 445 33 discriminator 2 view .LVU900
 447:Drivers/lvgl/src/widgets/image/lv_image.c ****     if(align == img->align) return;
 2834              		.loc 1 447 5 view .LVU901
 2835              	.LVL265:
 448:Drivers/lvgl/src/widgets/image/lv_image.c **** 
 2836              		.loc 1 448 5 view .LVU902
 448:Drivers/lvgl/src/widgets/image/lv_image.c **** 
 2837              		.loc 1 448 20 is_stmt 0 view .LVU903
 2838 0008 90F85930 		ldrb	r3, [r0, #89]	@ zero_extendqisi2
 2839 000c 03F00F03 		and	r3, r3, #15
 448:Drivers/lvgl/src/widgets/image/lv_image.c **** 
 2840              		.loc 1 448 7 view .LVU904
 2841 0010 8B42     		cmp	r3, r1
 2842 0012 11D0     		beq	.L163
 451:Drivers/lvgl/src/widgets/image/lv_image.c ****         lv_image_set_scale(obj, LV_SCALE_NONE);
 2843              		.loc 1 451 5 is_stmt 1 view .LVU905
 451:Drivers/lvgl/src/widgets/image/lv_image.c ****         lv_image_set_scale(obj, LV_SCALE_NONE);
 2844              		.loc 1 451 19 is_stmt 0 view .LVU906
 2845 0014 90F85930 		ldrb	r3, [r0, #89]	@ zero_extendqisi2
 2846 0018 03F00F03 		and	r3, r3, #15
 451:Drivers/lvgl/src/widgets/image/lv_image.c ****         lv_image_set_scale(obj, LV_SCALE_NONE);
 2847              		.loc 1 451 7 view .LVU907
 2848 001c 0B2B     		cmp	r3, #11
 2849 001e 0DD0     		beq	.L170
 2850              	.LVL266:
 2851              	.L167:
 455:Drivers/lvgl/src/widgets/image/lv_image.c ****     update_align(obj);
 2852              		.loc 1 455 5 is_stmt 1 view .LVU908
 455:Drivers/lvgl/src/widgets/image/lv_image.c ****     update_align(obj);
 2853              		.loc 1 455 16 is_stmt 0 view .LVU909
 2854 0020 94F85930 		ldrb	r3, [r4, #89]	@ zero_extendqisi2
 2855 0024 65F30303 		bfi	r3, r5, #0, #4
 2856              	.LVL267:
 455:Drivers/lvgl/src/widgets/image/lv_image.c ****     update_align(obj);
 2857              		.loc 1 455 16 view .LVU910
 2858 0028 84F85930 		strb	r3, [r4, #89]
 456:Drivers/lvgl/src/widgets/image/lv_image.c **** 
ARM GAS  /tmp/cc58L00o.s 			page 91


 2859              		.loc 1 456 5 is_stmt 1 view .LVU911
 2860 002c 2046     		mov	r0, r4
 2861 002e FFF7FEFF 		bl	update_align
 2862              	.LVL268:
 458:Drivers/lvgl/src/widgets/image/lv_image.c **** }
 2863              		.loc 1 458 5 view .LVU912
 2864 0032 2046     		mov	r0, r4
 2865 0034 FFF7FEFF 		bl	lv_obj_invalidate
 2866              	.LVL269:
 2867              	.L163:
 459:Drivers/lvgl/src/widgets/image/lv_image.c **** 
 2868              		.loc 1 459 1 is_stmt 0 view .LVU913
 2869 0038 38BD     		pop	{r3, r4, r5, pc}
 2870              	.LVL270:
 2871              	.L165:
 2872              	.LCFI46:
 2873              		.cfi_def_cfa_offset 0
 2874              		.cfi_restore 3
 2875              		.cfi_restore 4
 2876              		.cfi_restore 5
 2877              		.cfi_restore 14
 445:Drivers/lvgl/src/widgets/image/lv_image.c **** 
 2878              		.loc 1 445 5 is_stmt 1 discriminator 1 view .LVU914
 445:Drivers/lvgl/src/widgets/image/lv_image.c **** 
 2879              		.loc 1 445 5 discriminator 1 view .LVU915
 445:Drivers/lvgl/src/widgets/image/lv_image.c **** 
 2880              		.loc 1 445 5 discriminator 1 view .LVU916
 445:Drivers/lvgl/src/widgets/image/lv_image.c **** 
 2881              		.loc 1 445 5 discriminator 1 view .LVU917
 445:Drivers/lvgl/src/widgets/image/lv_image.c **** 
 2882              		.loc 1 445 5 discriminator 1 view .LVU918
 2883 003a FEE7     		b	.L165
 2884              	.LVL271:
 2885              	.L170:
 2886              	.LCFI47:
 2887              		.cfi_def_cfa_offset 16
 2888              		.cfi_offset 3, -16
 2889              		.cfi_offset 4, -12
 2890              		.cfi_offset 5, -8
 2891              		.cfi_offset 14, -4
 452:Drivers/lvgl/src/widgets/image/lv_image.c ****     }
 2892              		.loc 1 452 9 view .LVU919
 2893 003c 4FF48071 		mov	r1, #256
 2894              	.LVL272:
 452:Drivers/lvgl/src/widgets/image/lv_image.c ****     }
 2895              		.loc 1 452 9 is_stmt 0 view .LVU920
 2896 0040 FFF7FEFF 		bl	lv_image_set_scale
 2897              	.LVL273:
 452:Drivers/lvgl/src/widgets/image/lv_image.c ****     }
 2898              		.loc 1 452 9 view .LVU921
 2899 0044 ECE7     		b	.L167
 2900              		.cfi_endproc
 2901              	.LFE197:
 2903              		.section	.text.lv_image_event,"ax",%progbits
 2904              		.align	1
 2905              		.syntax unified
 2906              		.thumb
ARM GAS  /tmp/cc58L00o.s 			page 92


 2907              		.thumb_func
 2909              	lv_image_event:
 2910              	.LVL274:
 2911              	.LFB213:
 624:Drivers/lvgl/src/widgets/image/lv_image.c ****     LV_UNUSED(class_p);
 2912              		.loc 1 624 1 is_stmt 1 view -0
 2913              		.cfi_startproc
 2914              		@ args = 0, pretend = 0, frame = 24
 2915              		@ frame_needed = 0, uses_anonymous_args = 0
 624:Drivers/lvgl/src/widgets/image/lv_image.c ****     LV_UNUSED(class_p);
 2916              		.loc 1 624 1 is_stmt 0 view .LVU923
 2917 0000 F0B5     		push	{r4, r5, r6, r7, lr}
 2918              	.LCFI48:
 2919              		.cfi_def_cfa_offset 20
 2920              		.cfi_offset 4, -20
 2921              		.cfi_offset 5, -16
 2922              		.cfi_offset 6, -12
 2923              		.cfi_offset 7, -8
 2924              		.cfi_offset 14, -4
 2925 0002 8BB0     		sub	sp, sp, #44
 2926              	.LCFI49:
 2927              		.cfi_def_cfa_offset 64
 2928 0004 0C46     		mov	r4, r1
 625:Drivers/lvgl/src/widgets/image/lv_image.c **** 
 2929              		.loc 1 625 5 is_stmt 1 view .LVU924
 627:Drivers/lvgl/src/widgets/image/lv_image.c **** 
 2930              		.loc 1 627 5 view .LVU925
 627:Drivers/lvgl/src/widgets/image/lv_image.c **** 
 2931              		.loc 1 627 28 is_stmt 0 view .LVU926
 2932 0006 0846     		mov	r0, r1
 2933              	.LVL275:
 627:Drivers/lvgl/src/widgets/image/lv_image.c **** 
 2934              		.loc 1 627 28 view .LVU927
 2935 0008 FFF7FEFF 		bl	lv_event_get_code
 2936              	.LVL276:
 627:Drivers/lvgl/src/widgets/image/lv_image.c **** 
 2937              		.loc 1 627 28 view .LVU928
 2938 000c 0546     		mov	r5, r0
 2939              	.LVL277:
 630:Drivers/lvgl/src/widgets/image/lv_image.c ****     if(res != LV_RESULT_OK) return;
 2940              		.loc 1 630 5 is_stmt 1 view .LVU929
 630:Drivers/lvgl/src/widgets/image/lv_image.c ****     if(res != LV_RESULT_OK) return;
 2941              		.loc 1 630 23 is_stmt 0 view .LVU930
 2942 000e 2146     		mov	r1, r4
 2943 0010 8D48     		ldr	r0, .L195
 2944              	.LVL278:
 630:Drivers/lvgl/src/widgets/image/lv_image.c ****     if(res != LV_RESULT_OK) return;
 2945              		.loc 1 630 23 view .LVU931
 2946 0012 FFF7FEFF 		bl	lv_obj_event_base
 2947              	.LVL279:
 631:Drivers/lvgl/src/widgets/image/lv_image.c **** 
 2948              		.loc 1 631 5 is_stmt 1 view .LVU932
 631:Drivers/lvgl/src/widgets/image/lv_image.c **** 
 2949              		.loc 1 631 7 is_stmt 0 view .LVU933
 2950 0016 0128     		cmp	r0, #1
 2951 0018 01D0     		beq	.L189
 2952              	.LVL280:
ARM GAS  /tmp/cc58L00o.s 			page 93


 2953              	.L171:
 706:Drivers/lvgl/src/widgets/image/lv_image.c **** 
 2954              		.loc 1 706 1 view .LVU934
 2955 001a 0BB0     		add	sp, sp, #44
 2956              	.LCFI50:
 2957              		.cfi_remember_state
 2958              		.cfi_def_cfa_offset 20
 2959              		@ sp needed
 2960 001c F0BD     		pop	{r4, r5, r6, r7, pc}
 2961              	.LVL281:
 2962              	.L189:
 2963              	.LCFI51:
 2964              		.cfi_restore_state
 633:Drivers/lvgl/src/widgets/image/lv_image.c ****     lv_image_t * img = (lv_image_t *)obj;
 2965              		.loc 1 633 5 is_stmt 1 view .LVU935
 633:Drivers/lvgl/src/widgets/image/lv_image.c ****     lv_image_t * img = (lv_image_t *)obj;
 2966              		.loc 1 633 22 is_stmt 0 view .LVU936
 2967 001e 2046     		mov	r0, r4
 2968              	.LVL282:
 633:Drivers/lvgl/src/widgets/image/lv_image.c ****     lv_image_t * img = (lv_image_t *)obj;
 2969              		.loc 1 633 22 view .LVU937
 2970 0020 FFF7FEFF 		bl	lv_event_get_current_target
 2971              	.LVL283:
 2972 0024 0646     		mov	r6, r0
 2973              	.LVL284:
 634:Drivers/lvgl/src/widgets/image/lv_image.c ****     lv_point_t pivot_px;
 2974              		.loc 1 634 5 is_stmt 1 view .LVU938
 635:Drivers/lvgl/src/widgets/image/lv_image.c ****     lv_image_get_pivot(obj, &pivot_px);
 2975              		.loc 1 635 5 view .LVU939
 636:Drivers/lvgl/src/widgets/image/lv_image.c **** 
 2976              		.loc 1 636 5 view .LVU940
 2977 0026 08A9     		add	r1, sp, #32
 2978 0028 FFF7FEFF 		bl	lv_image_get_pivot
 2979              	.LVL285:
 638:Drivers/lvgl/src/widgets/image/lv_image.c ****         /*Refresh the file name to refresh the symbol text size*/
 2980              		.loc 1 638 5 view .LVU941
 2981 002c 163D     		subs	r5, r5, #22
 2982              	.LVL286:
 638:Drivers/lvgl/src/widgets/image/lv_image.c ****         /*Refresh the file name to refresh the symbol text size*/
 2983              		.loc 1 638 5 is_stmt 0 view .LVU942
 2984 002e 1E2D     		cmp	r5, #30
 2985 0030 F3D8     		bhi	.L171
 2986 0032 01A3     		adr	r3, .L176
 2987 0034 53F825F0 		ldr	pc, [r3, r5, lsl #2]
 2988              		.p2align 2
 2989              	.L176:
 2990 0038 83010000 		.word	.L181+1
 2991 003c 1B000000 		.word	.L171+1
 2992 0040 1B000000 		.word	.L171+1
 2993 0044 1B000000 		.word	.L171+1
 2994 0048 3F020000 		.word	.L179+1
 2995 004c D3000000 		.word	.L180+1
 2996 0050 1B000000 		.word	.L171+1
 2997 0054 3F020000 		.word	.L179+1
 2998 0058 1B000000 		.word	.L171+1
 2999 005c 1B000000 		.word	.L171+1
 3000 0060 3F020000 		.word	.L179+1
ARM GAS  /tmp/cc58L00o.s 			page 94


 3001 0064 1B000000 		.word	.L171+1
 3002 0068 1B000000 		.word	.L171+1
 3003 006c 1B000000 		.word	.L171+1
 3004 0070 1B000000 		.word	.L171+1
 3005 0074 1B000000 		.word	.L171+1
 3006 0078 1B000000 		.word	.L171+1
 3007 007c 1B000000 		.word	.L171+1
 3008 0080 1B000000 		.word	.L171+1
 3009 0084 1B000000 		.word	.L171+1
 3010 0088 1B000000 		.word	.L171+1
 3011 008c 1B000000 		.word	.L171+1
 3012 0090 1B000000 		.word	.L171+1
 3013 0094 1B000000 		.word	.L171+1
 3014 0098 1B000000 		.word	.L171+1
 3015 009c 1B000000 		.word	.L171+1
 3016 00a0 1B000000 		.word	.L171+1
 3017 00a4 51010000 		.word	.L178+1
 3018 00a8 B5000000 		.word	.L177+1
 3019 00ac 1B000000 		.word	.L171+1
 3020 00b0 2F020000 		.word	.L175+1
 3021              		.p2align 1
 3022              	.L177:
 640:Drivers/lvgl/src/widgets/image/lv_image.c ****             lv_image_set_src(obj, img->src);
 3023              		.loc 1 640 9 is_stmt 1 view .LVU943
 640:Drivers/lvgl/src/widgets/image/lv_image.c ****             lv_image_set_src(obj, img->src);
 3024              		.loc 1 640 26 is_stmt 0 view .LVU944
 3025 00b4 96F85830 		ldrb	r3, [r6, #88]	@ zero_extendqisi2
 3026 00b8 03F00303 		and	r3, r3, #3
 640:Drivers/lvgl/src/widgets/image/lv_image.c ****             lv_image_set_src(obj, img->src);
 3027              		.loc 1 640 11 view .LVU945
 3028 00bc 022B     		cmp	r3, #2
 3029 00be 03D0     		beq	.L190
 645:Drivers/lvgl/src/widgets/image/lv_image.c ****         }
 3030              		.loc 1 645 13 is_stmt 1 view .LVU946
 3031 00c0 3046     		mov	r0, r6
 3032 00c2 FFF7FEFF 		bl	lv_obj_refresh_ext_draw_size
 3033              	.LVL287:
 3034 00c6 A8E7     		b	.L171
 3035              	.L190:
 641:Drivers/lvgl/src/widgets/image/lv_image.c ****         }
 3036              		.loc 1 641 13 view .LVU947
 3037 00c8 F16A     		ldr	r1, [r6, #44]
 3038 00ca 3046     		mov	r0, r6
 3039 00cc FFF7FEFF 		bl	lv_image_set_src
 3040              	.LVL288:
 3041 00d0 A3E7     		b	.L171
 3042              	.L180:
 3043              	.LBB41:
 650:Drivers/lvgl/src/widgets/image/lv_image.c **** 
 3044              		.loc 1 650 9 view .LVU948
 650:Drivers/lvgl/src/widgets/image/lv_image.c **** 
 3045              		.loc 1 650 23 is_stmt 0 view .LVU949
 3046 00d2 2046     		mov	r0, r4
 3047 00d4 FFF7FEFF 		bl	lv_event_get_param
 3048              	.LVL289:
 3049 00d8 0446     		mov	r4, r0
 3050              	.LVL290:
ARM GAS  /tmp/cc58L00o.s 			page 95


 653:Drivers/lvgl/src/widgets/image/lv_image.c ****             lv_area_t a;
 3051              		.loc 1 653 9 is_stmt 1 view .LVU950
 653:Drivers/lvgl/src/widgets/image/lv_image.c ****             lv_area_t a;
 3052              		.loc 1 653 15 is_stmt 0 view .LVU951
 3053 00da 736C     		ldr	r3, [r6, #68]
 653:Drivers/lvgl/src/widgets/image/lv_image.c ****             lv_area_t a;
 3054              		.loc 1 653 11 view .LVU952
 3055 00dc 1BB9     		cbnz	r3, .L183
 653:Drivers/lvgl/src/widgets/image/lv_image.c ****             lv_area_t a;
 3056              		.loc 1 653 32 discriminator 1 view .LVU953
 3057 00de B36C     		ldr	r3, [r6, #72]
 653:Drivers/lvgl/src/widgets/image/lv_image.c ****             lv_area_t a;
 3058              		.loc 1 653 26 discriminator 1 view .LVU954
 3059 00e0 B3F5807F 		cmp	r3, #256
 3060 00e4 2FD0     		beq	.L191
 3061              	.L183:
 3062              	.LBB42:
 654:Drivers/lvgl/src/widgets/image/lv_image.c ****             int32_t w = lv_obj_get_width(obj);
 3063              		.loc 1 654 13 is_stmt 1 view .LVU955
 655:Drivers/lvgl/src/widgets/image/lv_image.c ****             int32_t h = lv_obj_get_height(obj);
 3064              		.loc 1 655 13 view .LVU956
 655:Drivers/lvgl/src/widgets/image/lv_image.c ****             int32_t h = lv_obj_get_height(obj);
 3065              		.loc 1 655 25 is_stmt 0 view .LVU957
 3066 00e6 3046     		mov	r0, r6
 3067              	.LVL291:
 655:Drivers/lvgl/src/widgets/image/lv_image.c ****             int32_t h = lv_obj_get_height(obj);
 3068              		.loc 1 655 25 view .LVU958
 3069 00e8 FFF7FEFF 		bl	lv_obj_get_width
 3070              	.LVL292:
 3071 00ec 0746     		mov	r7, r0
 3072              	.LVL293:
 656:Drivers/lvgl/src/widgets/image/lv_image.c ****             lv_image_buf_get_transformed_area(&a, w, h, img->rotation, img->scale_x, img->scale_y, 
 3073              		.loc 1 656 13 is_stmt 1 view .LVU959
 656:Drivers/lvgl/src/widgets/image/lv_image.c ****             lv_image_buf_get_transformed_area(&a, w, h, img->rotation, img->scale_x, img->scale_y, 
 3074              		.loc 1 656 25 is_stmt 0 view .LVU960
 3075 00ee 3046     		mov	r0, r6
 3076              	.LVL294:
 656:Drivers/lvgl/src/widgets/image/lv_image.c ****             lv_image_buf_get_transformed_area(&a, w, h, img->rotation, img->scale_x, img->scale_y, 
 3077              		.loc 1 656 25 view .LVU961
 3078 00f0 FFF7FEFF 		bl	lv_obj_get_height
 3079              	.LVL295:
 3080 00f4 0546     		mov	r5, r0
 3081              	.LVL296:
 657:Drivers/lvgl/src/widgets/image/lv_image.c ****             *s = LV_MAX(*s, -a.x1);
 3082              		.loc 1 657 13 is_stmt 1 view .LVU962
 657:Drivers/lvgl/src/widgets/image/lv_image.c ****             *s = LV_MAX(*s, -a.x1);
 3083              		.loc 1 657 60 is_stmt 0 view .LVU963
 3084 00f6 736C     		ldr	r3, [r6, #68]
 657:Drivers/lvgl/src/widgets/image/lv_image.c ****             *s = LV_MAX(*s, -a.x1);
 3085              		.loc 1 657 75 view .LVU964
 3086 00f8 B26C     		ldr	r2, [r6, #72]
 657:Drivers/lvgl/src/widgets/image/lv_image.c ****             *s = LV_MAX(*s, -a.x1);
 3087              		.loc 1 657 89 view .LVU965
 3088 00fa F16C     		ldr	r1, [r6, #76]
 657:Drivers/lvgl/src/widgets/image/lv_image.c ****             *s = LV_MAX(*s, -a.x1);
 3089              		.loc 1 657 13 view .LVU966
 3090 00fc 08A8     		add	r0, sp, #32
ARM GAS  /tmp/cc58L00o.s 			page 96


 3091              	.LVL297:
 657:Drivers/lvgl/src/widgets/image/lv_image.c ****             *s = LV_MAX(*s, -a.x1);
 3092              		.loc 1 657 13 view .LVU967
 3093 00fe 0290     		str	r0, [sp, #8]
 3094 0100 89B2     		uxth	r1, r1
 3095 0102 0191     		str	r1, [sp, #4]
 3096 0104 92B2     		uxth	r2, r2
 3097 0106 0092     		str	r2, [sp]
 3098 0108 2A46     		mov	r2, r5
 3099 010a 3946     		mov	r1, r7
 3100 010c 04A8     		add	r0, sp, #16
 3101 010e FFF7FEFF 		bl	lv_image_buf_get_transformed_area
 3102              	.LVL298:
 658:Drivers/lvgl/src/widgets/image/lv_image.c ****             *s = LV_MAX(*s, -a.y1);
 3103              		.loc 1 658 13 is_stmt 1 view .LVU968
 658:Drivers/lvgl/src/widgets/image/lv_image.c ****             *s = LV_MAX(*s, -a.y1);
 3104              		.loc 1 658 18 is_stmt 0 view .LVU969
 3105 0112 049B     		ldr	r3, [sp, #16]
 3106 0114 5942     		rsbs	r1, r3, #0
 3107 0116 2368     		ldr	r3, [r4]
 3108 0118 9942     		cmp	r1, r3
 3109 011a B8BF     		it	lt
 3110 011c 1946     		movlt	r1, r3
 658:Drivers/lvgl/src/widgets/image/lv_image.c ****             *s = LV_MAX(*s, -a.y1);
 3111              		.loc 1 658 16 view .LVU970
 3112 011e 2160     		str	r1, [r4]
 659:Drivers/lvgl/src/widgets/image/lv_image.c ****             *s = LV_MAX(*s, a.x2 - w);
 3113              		.loc 1 659 13 is_stmt 1 view .LVU971
 659:Drivers/lvgl/src/widgets/image/lv_image.c ****             *s = LV_MAX(*s, a.x2 - w);
 3114              		.loc 1 659 18 is_stmt 0 view .LVU972
 3115 0120 059B     		ldr	r3, [sp, #20]
 3116 0122 5A42     		rsbs	r2, r3, #0
 3117 0124 8A42     		cmp	r2, r1
 3118 0126 B8BF     		it	lt
 3119 0128 0A46     		movlt	r2, r1
 659:Drivers/lvgl/src/widgets/image/lv_image.c ****             *s = LV_MAX(*s, a.x2 - w);
 3120              		.loc 1 659 16 view .LVU973
 3121 012a 2260     		str	r2, [r4]
 660:Drivers/lvgl/src/widgets/image/lv_image.c ****             *s = LV_MAX(*s, a.y2 - h);
 3122              		.loc 1 660 13 is_stmt 1 view .LVU974
 660:Drivers/lvgl/src/widgets/image/lv_image.c ****             *s = LV_MAX(*s, a.y2 - h);
 3123              		.loc 1 660 18 is_stmt 0 view .LVU975
 3124 012c 069B     		ldr	r3, [sp, #24]
 3125 012e DB1B     		subs	r3, r3, r7
 3126 0130 9342     		cmp	r3, r2
 3127 0132 B8BF     		it	lt
 3128 0134 1346     		movlt	r3, r2
 660:Drivers/lvgl/src/widgets/image/lv_image.c ****             *s = LV_MAX(*s, a.y2 - h);
 3129              		.loc 1 660 16 view .LVU976
 3130 0136 2360     		str	r3, [r4]
 661:Drivers/lvgl/src/widgets/image/lv_image.c ****         }
 3131              		.loc 1 661 13 is_stmt 1 view .LVU977
 661:Drivers/lvgl/src/widgets/image/lv_image.c ****         }
 3132              		.loc 1 661 18 is_stmt 0 view .LVU978
 3133 0138 079A     		ldr	r2, [sp, #28]
 3134 013a 521B     		subs	r2, r2, r5
 3135 013c 9A42     		cmp	r2, r3
ARM GAS  /tmp/cc58L00o.s 			page 97


 3136 013e B8BF     		it	lt
 3137 0140 1A46     		movlt	r2, r3
 661:Drivers/lvgl/src/widgets/image/lv_image.c ****         }
 3138              		.loc 1 661 16 view .LVU979
 3139 0142 2260     		str	r2, [r4]
 3140 0144 69E7     		b	.L171
 3141              	.LVL299:
 3142              	.L191:
 661:Drivers/lvgl/src/widgets/image/lv_image.c ****         }
 3143              		.loc 1 661 16 view .LVU980
 3144              	.LBE42:
 653:Drivers/lvgl/src/widgets/image/lv_image.c ****             lv_area_t a;
 3145              		.loc 1 653 65 discriminator 2 view .LVU981
 3146 0146 F36C     		ldr	r3, [r6, #76]
 653:Drivers/lvgl/src/widgets/image/lv_image.c ****             lv_area_t a;
 3147              		.loc 1 653 59 discriminator 2 view .LVU982
 3148 0148 B3F5807F 		cmp	r3, #256
 3149 014c CBD1     		bne	.L183
 3150 014e 64E7     		b	.L171
 3151              	.LVL300:
 3152              	.L178:
 653:Drivers/lvgl/src/widgets/image/lv_image.c ****             lv_area_t a;
 3153              		.loc 1 653 59 discriminator 2 view .LVU983
 3154              	.LBE41:
 665:Drivers/lvgl/src/widgets/image/lv_image.c ****             update_align(obj);
 3155              		.loc 1 665 9 is_stmt 1 view .LVU984
 665:Drivers/lvgl/src/widgets/image/lv_image.c ****             update_align(obj);
 3156              		.loc 1 665 23 is_stmt 0 view .LVU985
 3157 0150 96F85930 		ldrb	r3, [r6, #89]	@ zero_extendqisi2
 3158 0154 03F00F03 		and	r3, r3, #15
 665:Drivers/lvgl/src/widgets/image/lv_image.c ****             update_align(obj);
 3159              		.loc 1 665 11 view .LVU986
 3160 0158 0B2B     		cmp	r3, #11
 3161 015a 7FF45EAF 		bne	.L171
 666:Drivers/lvgl/src/widgets/image/lv_image.c ****             if(img->rotation || img->scale_x != LV_SCALE_NONE || img->scale_y != LV_SCALE_NONE) {
 3162              		.loc 1 666 13 is_stmt 1 view .LVU987
 3163 015e 3046     		mov	r0, r6
 3164 0160 FFF7FEFF 		bl	update_align
 3165              	.LVL301:
 667:Drivers/lvgl/src/widgets/image/lv_image.c ****                 lv_obj_refresh_ext_draw_size(obj);
 3166              		.loc 1 667 13 view .LVU988
 667:Drivers/lvgl/src/widgets/image/lv_image.c ****                 lv_obj_refresh_ext_draw_size(obj);
 3167              		.loc 1 667 19 is_stmt 0 view .LVU989
 3168 0164 736C     		ldr	r3, [r6, #68]
 667:Drivers/lvgl/src/widgets/image/lv_image.c ****                 lv_obj_refresh_ext_draw_size(obj);
 3169              		.loc 1 667 15 view .LVU990
 3170 0166 1BB9     		cbnz	r3, .L184
 667:Drivers/lvgl/src/widgets/image/lv_image.c ****                 lv_obj_refresh_ext_draw_size(obj);
 3171              		.loc 1 667 36 discriminator 1 view .LVU991
 3172 0168 B36C     		ldr	r3, [r6, #72]
 667:Drivers/lvgl/src/widgets/image/lv_image.c ****                 lv_obj_refresh_ext_draw_size(obj);
 3173              		.loc 1 667 30 discriminator 1 view .LVU992
 3174 016a B3F5807F 		cmp	r3, #256
 3175 016e 03D0     		beq	.L192
 3176              	.L184:
 668:Drivers/lvgl/src/widgets/image/lv_image.c ****             }
 3177              		.loc 1 668 17 is_stmt 1 view .LVU993
ARM GAS  /tmp/cc58L00o.s 			page 98


 3178 0170 3046     		mov	r0, r6
 3179 0172 FFF7FEFF 		bl	lv_obj_refresh_ext_draw_size
 3180              	.LVL302:
 3181 0176 50E7     		b	.L171
 3182              	.L192:
 667:Drivers/lvgl/src/widgets/image/lv_image.c ****                 lv_obj_refresh_ext_draw_size(obj);
 3183              		.loc 1 667 69 is_stmt 0 discriminator 2 view .LVU994
 3184 0178 F36C     		ldr	r3, [r6, #76]
 667:Drivers/lvgl/src/widgets/image/lv_image.c ****                 lv_obj_refresh_ext_draw_size(obj);
 3185              		.loc 1 667 63 discriminator 2 view .LVU995
 3186 017a B3F5807F 		cmp	r3, #256
 3187 017e F7D1     		bne	.L184
 3188 0180 4BE7     		b	.L171
 3189              	.L181:
 3190              	.LBB43:
 673:Drivers/lvgl/src/widgets/image/lv_image.c **** 
 3191              		.loc 1 673 9 is_stmt 1 view .LVU996
 673:Drivers/lvgl/src/widgets/image/lv_image.c **** 
 3192              		.loc 1 673 37 is_stmt 0 view .LVU997
 3193 0182 2046     		mov	r0, r4
 3194 0184 FFF7FEFF 		bl	lv_event_get_param
 3195              	.LVL303:
 3196 0188 0446     		mov	r4, r0
 3197              	.LVL304:
 677:Drivers/lvgl/src/widgets/image/lv_image.c ****            (img->scale_x != LV_SCALE_NONE || img->scale_y != LV_SCALE_NONE ||
 3198              		.loc 1 677 9 is_stmt 1 view .LVU998
 677:Drivers/lvgl/src/widgets/image/lv_image.c ****            (img->scale_x != LV_SCALE_NONE || img->scale_y != LV_SCALE_NONE ||
 3199              		.loc 1 677 15 is_stmt 0 view .LVU999
 3200 018a F56B     		ldr	r5, [r6, #60]
 3201              	.LVL305:
 677:Drivers/lvgl/src/widgets/image/lv_image.c ****            (img->scale_x != LV_SCALE_NONE || img->scale_y != LV_SCALE_NONE ||
 3202              		.loc 1 677 22 view .LVU1000
 3203 018c 3046     		mov	r0, r6
 3204              	.LVL306:
 677:Drivers/lvgl/src/widgets/image/lv_image.c ****            (img->scale_x != LV_SCALE_NONE || img->scale_y != LV_SCALE_NONE ||
 3205              		.loc 1 677 22 view .LVU1001
 3206 018e FFF7FEFF 		bl	lv_obj_get_width
 3207              	.LVL307:
 677:Drivers/lvgl/src/widgets/image/lv_image.c ****            (img->scale_x != LV_SCALE_NONE || img->scale_y != LV_SCALE_NONE ||
 3208              		.loc 1 677 11 discriminator 1 view .LVU1002
 3209 0192 8542     		cmp	r5, r0
 3210 0194 0BD0     		beq	.L193
 3211              	.L185:
 3212              	.LBB44:
 693:Drivers/lvgl/src/widgets/image/lv_image.c ****             lv_obj_get_click_area(obj, &a);
 3213              		.loc 1 693 13 is_stmt 1 view .LVU1003
 694:Drivers/lvgl/src/widgets/image/lv_image.c ****             info->res = lv_area_is_point_on(&a, info->point, 0);
 3214              		.loc 1 694 13 view .LVU1004
 3215 0196 04AD     		add	r5, sp, #16
 3216 0198 2946     		mov	r1, r5
 3217 019a 3046     		mov	r0, r6
 3218 019c FFF7FEFF 		bl	lv_obj_get_click_area
 3219              	.LVL308:
 695:Drivers/lvgl/src/widgets/image/lv_image.c ****         }
 3220              		.loc 1 695 13 view .LVU1005
 695:Drivers/lvgl/src/widgets/image/lv_image.c ****         }
 3221              		.loc 1 695 25 is_stmt 0 view .LVU1006
ARM GAS  /tmp/cc58L00o.s 			page 99


 3222 01a0 0022     		movs	r2, #0
 3223 01a2 2168     		ldr	r1, [r4]
 3224 01a4 2846     		mov	r0, r5
 3225 01a6 FFF7FEFF 		bl	lv_area_is_point_on
 3226              	.LVL309:
 695:Drivers/lvgl/src/widgets/image/lv_image.c ****         }
 3227              		.loc 1 695 23 discriminator 1 view .LVU1007
 3228 01aa 2071     		strb	r0, [r4, #4]
 3229 01ac 35E7     		b	.L171
 3230              	.L193:
 695:Drivers/lvgl/src/widgets/image/lv_image.c ****         }
 3231              		.loc 1 695 23 discriminator 1 view .LVU1008
 3232              	.LBE44:
 677:Drivers/lvgl/src/widgets/image/lv_image.c ****            (img->scale_x != LV_SCALE_NONE || img->scale_y != LV_SCALE_NONE ||
 3233              		.loc 1 677 50 discriminator 1 view .LVU1009
 3234 01ae 356C     		ldr	r5, [r6, #64]
 677:Drivers/lvgl/src/widgets/image/lv_image.c ****            (img->scale_x != LV_SCALE_NONE || img->scale_y != LV_SCALE_NONE ||
 3235              		.loc 1 677 57 discriminator 1 view .LVU1010
 3236 01b0 3046     		mov	r0, r6
 3237 01b2 FFF7FEFF 		bl	lv_obj_get_height
 3238              	.LVL310:
 677:Drivers/lvgl/src/widgets/image/lv_image.c ****            (img->scale_x != LV_SCALE_NONE || img->scale_y != LV_SCALE_NONE ||
 3239              		.loc 1 677 44 discriminator 1 view .LVU1011
 3240 01b6 8542     		cmp	r5, r0
 3241 01b8 EDD1     		bne	.L185
 678:Drivers/lvgl/src/widgets/image/lv_image.c ****             img->rotation != 0)) {
 3242              		.loc 1 678 16 view .LVU1012
 3243 01ba B36C     		ldr	r3, [r6, #72]
 677:Drivers/lvgl/src/widgets/image/lv_image.c ****            (img->scale_x != LV_SCALE_NONE || img->scale_y != LV_SCALE_NONE ||
 3244              		.loc 1 677 80 discriminator 2 view .LVU1013
 3245 01bc B3F5807F 		cmp	r3, #256
 3246 01c0 03D1     		bne	.L186
 678:Drivers/lvgl/src/widgets/image/lv_image.c ****             img->rotation != 0)) {
 3247              		.loc 1 678 49 view .LVU1014
 3248 01c2 F36C     		ldr	r3, [r6, #76]
 678:Drivers/lvgl/src/widgets/image/lv_image.c ****             img->rotation != 0)) {
 3249              		.loc 1 678 43 view .LVU1015
 3250 01c4 B3F5807F 		cmp	r3, #256
 3251 01c8 2DD0     		beq	.L194
 3252              	.L186:
 3253              	.LBB45:
 681:Drivers/lvgl/src/widgets/image/lv_image.c ****             int32_t h = lv_obj_get_height(obj);
 3254              		.loc 1 681 13 is_stmt 1 view .LVU1016
 681:Drivers/lvgl/src/widgets/image/lv_image.c ****             int32_t h = lv_obj_get_height(obj);
 3255              		.loc 1 681 25 is_stmt 0 view .LVU1017
 3256 01ca 3046     		mov	r0, r6
 3257 01cc FFF7FEFF 		bl	lv_obj_get_width
 3258              	.LVL311:
 3259 01d0 0746     		mov	r7, r0
 3260              	.LVL312:
 682:Drivers/lvgl/src/widgets/image/lv_image.c ****             lv_area_t coords;
 3261              		.loc 1 682 13 is_stmt 1 view .LVU1018
 682:Drivers/lvgl/src/widgets/image/lv_image.c ****             lv_area_t coords;
 3262              		.loc 1 682 25 is_stmt 0 view .LVU1019
 3263 01d2 3046     		mov	r0, r6
 3264              	.LVL313:
 682:Drivers/lvgl/src/widgets/image/lv_image.c ****             lv_area_t coords;
ARM GAS  /tmp/cc58L00o.s 			page 100


 3265              		.loc 1 682 25 view .LVU1020
 3266 01d4 FFF7FEFF 		bl	lv_obj_get_height
 3267              	.LVL314:
 3268 01d8 0246     		mov	r2, r0
 3269              	.LVL315:
 683:Drivers/lvgl/src/widgets/image/lv_image.c ****             lv_image_buf_get_transformed_area(&coords, w, h, img->rotation, img->scale_x, img->scal
 3270              		.loc 1 683 13 is_stmt 1 view .LVU1021
 684:Drivers/lvgl/src/widgets/image/lv_image.c ****             coords.x1 += obj->coords.x1;
 3271              		.loc 1 684 13 view .LVU1022
 684:Drivers/lvgl/src/widgets/image/lv_image.c ****             coords.x1 += obj->coords.x1;
 3272              		.loc 1 684 65 is_stmt 0 view .LVU1023
 3273 01da 736C     		ldr	r3, [r6, #68]
 684:Drivers/lvgl/src/widgets/image/lv_image.c ****             coords.x1 += obj->coords.x1;
 3274              		.loc 1 684 80 view .LVU1024
 3275 01dc B16C     		ldr	r1, [r6, #72]
 684:Drivers/lvgl/src/widgets/image/lv_image.c ****             coords.x1 += obj->coords.x1;
 3276              		.loc 1 684 94 view .LVU1025
 3277 01de D6F84CC0 		ldr	ip, [r6, #76]
 684:Drivers/lvgl/src/widgets/image/lv_image.c ****             coords.x1 += obj->coords.x1;
 3278              		.loc 1 684 13 view .LVU1026
 3279 01e2 04AD     		add	r5, sp, #16
 3280 01e4 08A8     		add	r0, sp, #32
 3281              	.LVL316:
 684:Drivers/lvgl/src/widgets/image/lv_image.c ****             coords.x1 += obj->coords.x1;
 3282              		.loc 1 684 13 view .LVU1027
 3283 01e6 0290     		str	r0, [sp, #8]
 3284 01e8 1FFA8CFC 		uxth	ip, ip
 3285 01ec CDF804C0 		str	ip, [sp, #4]
 3286 01f0 89B2     		uxth	r1, r1
 3287 01f2 0091     		str	r1, [sp]
 3288 01f4 3946     		mov	r1, r7
 3289 01f6 2846     		mov	r0, r5
 3290 01f8 FFF7FEFF 		bl	lv_image_buf_get_transformed_area
 3291              	.LVL317:
 685:Drivers/lvgl/src/widgets/image/lv_image.c ****             coords.y1 += obj->coords.y1;
 3292              		.loc 1 685 13 is_stmt 1 view .LVU1028
 685:Drivers/lvgl/src/widgets/image/lv_image.c ****             coords.y1 += obj->coords.y1;
 3293              		.loc 1 685 37 is_stmt 0 view .LVU1029
 3294 01fc 7269     		ldr	r2, [r6, #20]
 685:Drivers/lvgl/src/widgets/image/lv_image.c ****             coords.y1 += obj->coords.y1;
 3295              		.loc 1 685 23 view .LVU1030
 3296 01fe 049B     		ldr	r3, [sp, #16]
 3297 0200 1344     		add	r3, r3, r2
 3298 0202 0493     		str	r3, [sp, #16]
 686:Drivers/lvgl/src/widgets/image/lv_image.c ****             coords.x2 += obj->coords.x1;
 3299              		.loc 1 686 13 is_stmt 1 view .LVU1031
 686:Drivers/lvgl/src/widgets/image/lv_image.c ****             coords.x2 += obj->coords.x1;
 3300              		.loc 1 686 37 is_stmt 0 view .LVU1032
 3301 0204 B369     		ldr	r3, [r6, #24]
 686:Drivers/lvgl/src/widgets/image/lv_image.c ****             coords.x2 += obj->coords.x1;
 3302              		.loc 1 686 23 view .LVU1033
 3303 0206 0599     		ldr	r1, [sp, #20]
 3304 0208 1944     		add	r1, r1, r3
 3305 020a 0591     		str	r1, [sp, #20]
 687:Drivers/lvgl/src/widgets/image/lv_image.c ****             coords.y2 += obj->coords.y1;
 3306              		.loc 1 687 13 is_stmt 1 view .LVU1034
 687:Drivers/lvgl/src/widgets/image/lv_image.c ****             coords.y2 += obj->coords.y1;
ARM GAS  /tmp/cc58L00o.s 			page 101


 3307              		.loc 1 687 19 is_stmt 0 view .LVU1035
 3308 020c 0699     		ldr	r1, [sp, #24]
 687:Drivers/lvgl/src/widgets/image/lv_image.c ****             coords.y2 += obj->coords.y1;
 3309              		.loc 1 687 23 view .LVU1036
 3310 020e 0A44     		add	r2, r2, r1
 3311 0210 0692     		str	r2, [sp, #24]
 688:Drivers/lvgl/src/widgets/image/lv_image.c **** 
 3312              		.loc 1 688 13 is_stmt 1 view .LVU1037
 688:Drivers/lvgl/src/widgets/image/lv_image.c **** 
 3313              		.loc 1 688 19 is_stmt 0 view .LVU1038
 3314 0212 079A     		ldr	r2, [sp, #28]
 688:Drivers/lvgl/src/widgets/image/lv_image.c **** 
 3315              		.loc 1 688 23 view .LVU1039
 3316 0214 1344     		add	r3, r3, r2
 3317 0216 0793     		str	r3, [sp, #28]
 690:Drivers/lvgl/src/widgets/image/lv_image.c ****         }
 3318              		.loc 1 690 13 is_stmt 1 view .LVU1040
 690:Drivers/lvgl/src/widgets/image/lv_image.c ****         }
 3319              		.loc 1 690 25 is_stmt 0 view .LVU1041
 3320 0218 0022     		movs	r2, #0
 3321 021a 2168     		ldr	r1, [r4]
 3322 021c 2846     		mov	r0, r5
 3323 021e FFF7FEFF 		bl	lv_area_is_point_on
 3324              	.LVL318:
 690:Drivers/lvgl/src/widgets/image/lv_image.c ****         }
 3325              		.loc 1 690 23 discriminator 1 view .LVU1042
 3326 0222 2071     		strb	r0, [r4, #4]
 3327              	.LBE45:
 679:Drivers/lvgl/src/widgets/image/lv_image.c **** 
 3328              		.loc 1 679 34 view .LVU1043
 3329 0224 F9E6     		b	.L171
 3330              	.LVL319:
 3331              	.L194:
 679:Drivers/lvgl/src/widgets/image/lv_image.c **** 
 3332              		.loc 1 679 16 view .LVU1044
 3333 0226 736C     		ldr	r3, [r6, #68]
 678:Drivers/lvgl/src/widgets/image/lv_image.c ****             img->rotation != 0)) {
 3334              		.loc 1 678 76 discriminator 1 view .LVU1045
 3335 0228 002B     		cmp	r3, #0
 3336 022a B4D0     		beq	.L185
 3337 022c CDE7     		b	.L186
 3338              	.LVL320:
 3339              	.L175:
 678:Drivers/lvgl/src/widgets/image/lv_image.c ****             img->rotation != 0)) {
 3340              		.loc 1 678 76 discriminator 1 view .LVU1046
 3341              	.LBE43:
 3342              	.LBB46:
 699:Drivers/lvgl/src/widgets/image/lv_image.c ****         p->x = img->w;
 3343              		.loc 1 699 9 is_stmt 1 view .LVU1047
 699:Drivers/lvgl/src/widgets/image/lv_image.c ****         p->x = img->w;
 3344              		.loc 1 699 26 is_stmt 0 view .LVU1048
 3345 022e 2046     		mov	r0, r4
 3346 0230 FFF7FEFF 		bl	lv_event_get_param
 3347              	.LVL321:
 700:Drivers/lvgl/src/widgets/image/lv_image.c ****         p->y = img->h;
 3348              		.loc 1 700 9 is_stmt 1 view .LVU1049
 700:Drivers/lvgl/src/widgets/image/lv_image.c ****         p->y = img->h;
ARM GAS  /tmp/cc58L00o.s 			page 102


 3349              		.loc 1 700 19 is_stmt 0 view .LVU1050
 3350 0234 F36B     		ldr	r3, [r6, #60]
 700:Drivers/lvgl/src/widgets/image/lv_image.c ****         p->y = img->h;
 3351              		.loc 1 700 14 view .LVU1051
 3352 0236 0360     		str	r3, [r0]
 701:Drivers/lvgl/src/widgets/image/lv_image.c ****     }
 3353              		.loc 1 701 9 is_stmt 1 view .LVU1052
 701:Drivers/lvgl/src/widgets/image/lv_image.c ****     }
 3354              		.loc 1 701 19 is_stmt 0 view .LVU1053
 3355 0238 336C     		ldr	r3, [r6, #64]
 701:Drivers/lvgl/src/widgets/image/lv_image.c ****     }
 3356              		.loc 1 701 14 view .LVU1054
 3357 023a 4360     		str	r3, [r0, #4]
 3358              	.LBE46:
 3359 023c EDE6     		b	.L171
 3360              	.LVL322:
 3361              	.L179:
 704:Drivers/lvgl/src/widgets/image/lv_image.c ****     }
 3362              		.loc 1 704 9 is_stmt 1 view .LVU1055
 3363 023e 2046     		mov	r0, r4
 3364 0240 FFF7FEFF 		bl	draw_image
 3365              	.LVL323:
 3366 0244 E9E6     		b	.L171
 3367              	.L196:
 3368 0246 00BF     		.align	2
 3369              	.L195:
 3370 0248 00000000 		.word	lv_image_class
 3371              		.cfi_endproc
 3372              	.LFE213:
 3374              		.section	.text.lv_image_get_scale,"ax",%progbits
 3375              		.align	1
 3376              		.global	lv_image_get_scale
 3377              		.syntax unified
 3378              		.thumb
 3379              		.thumb_func
 3381              	lv_image_get_scale:
 3382              	.LVL324:
 3383              	.LFB204:
 520:Drivers/lvgl/src/widgets/image/lv_image.c ****     LV_ASSERT_OBJ(obj, MY_CLASS);
 3384              		.loc 1 520 1 view -0
 3385              		.cfi_startproc
 3386              		@ args = 0, pretend = 0, frame = 0
 3387              		@ frame_needed = 0, uses_anonymous_args = 0
 3388              		@ link register save eliminated.
 521:Drivers/lvgl/src/widgets/image/lv_image.c **** 
 3389              		.loc 1 521 5 view .LVU1057
 521:Drivers/lvgl/src/widgets/image/lv_image.c **** 
 3390              		.loc 1 521 5 view .LVU1058
 3391 0000 08B1     		cbz	r0, .L199
 521:Drivers/lvgl/src/widgets/image/lv_image.c **** 
 3392              		.loc 1 521 5 discriminator 2 view .LVU1059
 521:Drivers/lvgl/src/widgets/image/lv_image.c **** 
 3393              		.loc 1 521 33 discriminator 2 view .LVU1060
 523:Drivers/lvgl/src/widgets/image/lv_image.c **** 
 3394              		.loc 1 523 5 view .LVU1061
 3395              	.LVL325:
 525:Drivers/lvgl/src/widgets/image/lv_image.c **** }
ARM GAS  /tmp/cc58L00o.s 			page 103


 3396              		.loc 1 525 5 view .LVU1062
 526:Drivers/lvgl/src/widgets/image/lv_image.c **** 
 3397              		.loc 1 526 1 is_stmt 0 view .LVU1063
 3398 0002 806C     		ldr	r0, [r0, #72]
 3399              	.LVL326:
 526:Drivers/lvgl/src/widgets/image/lv_image.c **** 
 3400              		.loc 1 526 1 view .LVU1064
 3401 0004 7047     		bx	lr
 3402              	.LVL327:
 3403              	.L199:
 521:Drivers/lvgl/src/widgets/image/lv_image.c **** 
 3404              		.loc 1 521 5 is_stmt 1 discriminator 1 view .LVU1065
 521:Drivers/lvgl/src/widgets/image/lv_image.c **** 
 3405              		.loc 1 521 5 discriminator 1 view .LVU1066
 521:Drivers/lvgl/src/widgets/image/lv_image.c **** 
 3406              		.loc 1 521 5 discriminator 1 view .LVU1067
 521:Drivers/lvgl/src/widgets/image/lv_image.c **** 
 3407              		.loc 1 521 5 discriminator 1 view .LVU1068
 521:Drivers/lvgl/src/widgets/image/lv_image.c **** 
 3408              		.loc 1 521 5 discriminator 1 view .LVU1069
 3409 0006 FEE7     		b	.L199
 3410              		.cfi_endproc
 3411              	.LFE204:
 3413              		.section	.text.lv_image_get_scale_x,"ax",%progbits
 3414              		.align	1
 3415              		.global	lv_image_get_scale_x
 3416              		.syntax unified
 3417              		.thumb
 3418              		.thumb_func
 3420              	lv_image_get_scale_x:
 3421              	.LVL328:
 3422              	.LFB205:
 529:Drivers/lvgl/src/widgets/image/lv_image.c ****     LV_ASSERT_OBJ(obj, MY_CLASS);
 3423              		.loc 1 529 1 view -0
 3424              		.cfi_startproc
 3425              		@ args = 0, pretend = 0, frame = 0
 3426              		@ frame_needed = 0, uses_anonymous_args = 0
 3427              		@ link register save eliminated.
 530:Drivers/lvgl/src/widgets/image/lv_image.c **** 
 3428              		.loc 1 530 5 view .LVU1071
 530:Drivers/lvgl/src/widgets/image/lv_image.c **** 
 3429              		.loc 1 530 5 view .LVU1072
 3430 0000 08B1     		cbz	r0, .L202
 530:Drivers/lvgl/src/widgets/image/lv_image.c **** 
 3431              		.loc 1 530 5 discriminator 2 view .LVU1073
 530:Drivers/lvgl/src/widgets/image/lv_image.c **** 
 3432              		.loc 1 530 33 discriminator 2 view .LVU1074
 532:Drivers/lvgl/src/widgets/image/lv_image.c **** 
 3433              		.loc 1 532 5 view .LVU1075
 3434              	.LVL329:
 534:Drivers/lvgl/src/widgets/image/lv_image.c **** }
 3435              		.loc 1 534 5 view .LVU1076
 535:Drivers/lvgl/src/widgets/image/lv_image.c **** 
 3436              		.loc 1 535 1 is_stmt 0 view .LVU1077
 3437 0002 806C     		ldr	r0, [r0, #72]
 3438              	.LVL330:
 535:Drivers/lvgl/src/widgets/image/lv_image.c **** 
ARM GAS  /tmp/cc58L00o.s 			page 104


 3439              		.loc 1 535 1 view .LVU1078
 3440 0004 7047     		bx	lr
 3441              	.LVL331:
 3442              	.L202:
 530:Drivers/lvgl/src/widgets/image/lv_image.c **** 
 3443              		.loc 1 530 5 is_stmt 1 discriminator 1 view .LVU1079
 530:Drivers/lvgl/src/widgets/image/lv_image.c **** 
 3444              		.loc 1 530 5 discriminator 1 view .LVU1080
 530:Drivers/lvgl/src/widgets/image/lv_image.c **** 
 3445              		.loc 1 530 5 discriminator 1 view .LVU1081
 530:Drivers/lvgl/src/widgets/image/lv_image.c **** 
 3446              		.loc 1 530 5 discriminator 1 view .LVU1082
 530:Drivers/lvgl/src/widgets/image/lv_image.c **** 
 3447              		.loc 1 530 5 discriminator 1 view .LVU1083
 3448 0006 FEE7     		b	.L202
 3449              		.cfi_endproc
 3450              	.LFE205:
 3452              		.section	.text.lv_image_get_scale_y,"ax",%progbits
 3453              		.align	1
 3454              		.global	lv_image_get_scale_y
 3455              		.syntax unified
 3456              		.thumb
 3457              		.thumb_func
 3459              	lv_image_get_scale_y:
 3460              	.LVL332:
 3461              	.LFB206:
 538:Drivers/lvgl/src/widgets/image/lv_image.c ****     LV_ASSERT_OBJ(obj, MY_CLASS);
 3462              		.loc 1 538 1 view -0
 3463              		.cfi_startproc
 3464              		@ args = 0, pretend = 0, frame = 0
 3465              		@ frame_needed = 0, uses_anonymous_args = 0
 3466              		@ link register save eliminated.
 539:Drivers/lvgl/src/widgets/image/lv_image.c **** 
 3467              		.loc 1 539 5 view .LVU1085
 539:Drivers/lvgl/src/widgets/image/lv_image.c **** 
 3468              		.loc 1 539 5 view .LVU1086
 3469 0000 08B1     		cbz	r0, .L205
 539:Drivers/lvgl/src/widgets/image/lv_image.c **** 
 3470              		.loc 1 539 5 discriminator 2 view .LVU1087
 539:Drivers/lvgl/src/widgets/image/lv_image.c **** 
 3471              		.loc 1 539 33 discriminator 2 view .LVU1088
 541:Drivers/lvgl/src/widgets/image/lv_image.c **** 
 3472              		.loc 1 541 5 view .LVU1089
 3473              	.LVL333:
 543:Drivers/lvgl/src/widgets/image/lv_image.c **** }
 3474              		.loc 1 543 5 view .LVU1090
 544:Drivers/lvgl/src/widgets/image/lv_image.c **** 
 3475              		.loc 1 544 1 is_stmt 0 view .LVU1091
 3476 0002 C06C     		ldr	r0, [r0, #76]
 3477              	.LVL334:
 544:Drivers/lvgl/src/widgets/image/lv_image.c **** 
 3478              		.loc 1 544 1 view .LVU1092
 3479 0004 7047     		bx	lr
 3480              	.LVL335:
 3481              	.L205:
 539:Drivers/lvgl/src/widgets/image/lv_image.c **** 
 3482              		.loc 1 539 5 is_stmt 1 discriminator 1 view .LVU1093
ARM GAS  /tmp/cc58L00o.s 			page 105


 539:Drivers/lvgl/src/widgets/image/lv_image.c **** 
 3483              		.loc 1 539 5 discriminator 1 view .LVU1094
 539:Drivers/lvgl/src/widgets/image/lv_image.c **** 
 3484              		.loc 1 539 5 discriminator 1 view .LVU1095
 539:Drivers/lvgl/src/widgets/image/lv_image.c **** 
 3485              		.loc 1 539 5 discriminator 1 view .LVU1096
 539:Drivers/lvgl/src/widgets/image/lv_image.c **** 
 3486              		.loc 1 539 5 discriminator 1 view .LVU1097
 3487 0006 FEE7     		b	.L205
 3488              		.cfi_endproc
 3489              	.LFE206:
 3491              		.section	.text.lv_image_get_blend_mode,"ax",%progbits
 3492              		.align	1
 3493              		.global	lv_image_get_blend_mode
 3494              		.syntax unified
 3495              		.thumb
 3496              		.thumb_func
 3498              	lv_image_get_blend_mode:
 3499              	.LVL336:
 3500              	.LFB207:
 547:Drivers/lvgl/src/widgets/image/lv_image.c ****     LV_ASSERT_OBJ(obj, MY_CLASS);
 3501              		.loc 1 547 1 view -0
 3502              		.cfi_startproc
 3503              		@ args = 0, pretend = 0, frame = 0
 3504              		@ frame_needed = 0, uses_anonymous_args = 0
 3505              		@ link register save eliminated.
 548:Drivers/lvgl/src/widgets/image/lv_image.c **** 
 3506              		.loc 1 548 5 view .LVU1099
 548:Drivers/lvgl/src/widgets/image/lv_image.c **** 
 3507              		.loc 1 548 5 view .LVU1100
 3508 0000 18B1     		cbz	r0, .L208
 548:Drivers/lvgl/src/widgets/image/lv_image.c **** 
 3509              		.loc 1 548 5 discriminator 2 view .LVU1101
 548:Drivers/lvgl/src/widgets/image/lv_image.c **** 
 3510              		.loc 1 548 33 discriminator 2 view .LVU1102
 550:Drivers/lvgl/src/widgets/image/lv_image.c **** 
 3511              		.loc 1 550 5 view .LVU1103
 3512              	.LVL337:
 552:Drivers/lvgl/src/widgets/image/lv_image.c **** }
 3513              		.loc 1 552 5 view .LVU1104
 552:Drivers/lvgl/src/widgets/image/lv_image.c **** }
 3514              		.loc 1 552 15 is_stmt 0 view .LVU1105
 3515 0002 90F85900 		ldrb	r0, [r0, #89]	@ zero_extendqisi2
 3516              	.LVL338:
 553:Drivers/lvgl/src/widgets/image/lv_image.c **** 
 3517              		.loc 1 553 1 view .LVU1106
 3518 0006 0009     		lsrs	r0, r0, #4
 3519 0008 7047     		bx	lr
 3520              	.LVL339:
 3521              	.L208:
 548:Drivers/lvgl/src/widgets/image/lv_image.c **** 
 3522              		.loc 1 548 5 is_stmt 1 discriminator 1 view .LVU1107
 548:Drivers/lvgl/src/widgets/image/lv_image.c **** 
 3523              		.loc 1 548 5 discriminator 1 view .LVU1108
 548:Drivers/lvgl/src/widgets/image/lv_image.c **** 
 3524              		.loc 1 548 5 discriminator 1 view .LVU1109
 548:Drivers/lvgl/src/widgets/image/lv_image.c **** 
ARM GAS  /tmp/cc58L00o.s 			page 106


 3525              		.loc 1 548 5 discriminator 1 view .LVU1110
 548:Drivers/lvgl/src/widgets/image/lv_image.c **** 
 3526              		.loc 1 548 5 discriminator 1 view .LVU1111
 3527 000a FEE7     		b	.L208
 3528              		.cfi_endproc
 3529              	.LFE207:
 3531              		.section	.text.lv_image_get_antialias,"ax",%progbits
 3532              		.align	1
 3533              		.global	lv_image_get_antialias
 3534              		.syntax unified
 3535              		.thumb
 3536              		.thumb_func
 3538              	lv_image_get_antialias:
 3539              	.LVL340:
 3540              	.LFB208:
 556:Drivers/lvgl/src/widgets/image/lv_image.c ****     LV_ASSERT_OBJ(obj, MY_CLASS);
 3541              		.loc 1 556 1 view -0
 3542              		.cfi_startproc
 3543              		@ args = 0, pretend = 0, frame = 0
 3544              		@ frame_needed = 0, uses_anonymous_args = 0
 3545              		@ link register save eliminated.
 557:Drivers/lvgl/src/widgets/image/lv_image.c **** 
 3546              		.loc 1 557 5 view .LVU1113
 557:Drivers/lvgl/src/widgets/image/lv_image.c **** 
 3547              		.loc 1 557 5 view .LVU1114
 3548 0000 18B1     		cbz	r0, .L211
 557:Drivers/lvgl/src/widgets/image/lv_image.c **** 
 3549              		.loc 1 557 5 discriminator 2 view .LVU1115
 557:Drivers/lvgl/src/widgets/image/lv_image.c **** 
 3550              		.loc 1 557 33 discriminator 2 view .LVU1116
 559:Drivers/lvgl/src/widgets/image/lv_image.c **** 
 3551              		.loc 1 559 5 view .LVU1117
 3552              	.LVL341:
 561:Drivers/lvgl/src/widgets/image/lv_image.c **** }
 3553              		.loc 1 561 5 view .LVU1118
 561:Drivers/lvgl/src/widgets/image/lv_image.c **** }
 3554              		.loc 1 561 27 is_stmt 0 view .LVU1119
 3555 0002 90F85800 		ldrb	r0, [r0, #88]	@ zero_extendqisi2
 3556              	.LVL342:
 562:Drivers/lvgl/src/widgets/image/lv_image.c **** 
 3557              		.loc 1 562 1 view .LVU1120
 3558 0006 C009     		lsrs	r0, r0, #7
 3559 0008 7047     		bx	lr
 3560              	.LVL343:
 3561              	.L211:
 557:Drivers/lvgl/src/widgets/image/lv_image.c **** 
 3562              		.loc 1 557 5 is_stmt 1 discriminator 1 view .LVU1121
 557:Drivers/lvgl/src/widgets/image/lv_image.c **** 
 3563              		.loc 1 557 5 discriminator 1 view .LVU1122
 557:Drivers/lvgl/src/widgets/image/lv_image.c **** 
 3564              		.loc 1 557 5 discriminator 1 view .LVU1123
 557:Drivers/lvgl/src/widgets/image/lv_image.c **** 
 3565              		.loc 1 557 5 discriminator 1 view .LVU1124
 557:Drivers/lvgl/src/widgets/image/lv_image.c **** 
 3566              		.loc 1 557 5 discriminator 1 view .LVU1125
 3567 000a FEE7     		b	.L211
 3568              		.cfi_endproc
ARM GAS  /tmp/cc58L00o.s 			page 107


 3569              	.LFE208:
 3571              		.section	.text.lv_image_get_inner_align,"ax",%progbits
 3572              		.align	1
 3573              		.global	lv_image_get_inner_align
 3574              		.syntax unified
 3575              		.thumb
 3576              		.thumb_func
 3578              	lv_image_get_inner_align:
 3579              	.LVL344:
 3580              	.LFB209:
 565:Drivers/lvgl/src/widgets/image/lv_image.c ****     LV_ASSERT_OBJ(obj, MY_CLASS);
 3581              		.loc 1 565 1 view -0
 3582              		.cfi_startproc
 3583              		@ args = 0, pretend = 0, frame = 0
 3584              		@ frame_needed = 0, uses_anonymous_args = 0
 3585              		@ link register save eliminated.
 566:Drivers/lvgl/src/widgets/image/lv_image.c **** 
 3586              		.loc 1 566 5 view .LVU1127
 566:Drivers/lvgl/src/widgets/image/lv_image.c **** 
 3587              		.loc 1 566 5 view .LVU1128
 3588 0000 20B1     		cbz	r0, .L214
 566:Drivers/lvgl/src/widgets/image/lv_image.c **** 
 3589              		.loc 1 566 5 discriminator 2 view .LVU1129
 566:Drivers/lvgl/src/widgets/image/lv_image.c **** 
 3590              		.loc 1 566 33 discriminator 2 view .LVU1130
 568:Drivers/lvgl/src/widgets/image/lv_image.c **** 
 3591              		.loc 1 568 5 view .LVU1131
 3592              	.LVL345:
 570:Drivers/lvgl/src/widgets/image/lv_image.c **** }
 3593              		.loc 1 570 5 view .LVU1132
 570:Drivers/lvgl/src/widgets/image/lv_image.c **** }
 3594              		.loc 1 570 15 is_stmt 0 view .LVU1133
 3595 0002 90F85900 		ldrb	r0, [r0, #89]	@ zero_extendqisi2
 3596              	.LVL346:
 571:Drivers/lvgl/src/widgets/image/lv_image.c **** 
 3597              		.loc 1 571 1 view .LVU1134
 3598 0006 00F00F00 		and	r0, r0, #15
 3599 000a 7047     		bx	lr
 3600              	.LVL347:
 3601              	.L214:
 566:Drivers/lvgl/src/widgets/image/lv_image.c **** 
 3602              		.loc 1 566 5 is_stmt 1 discriminator 1 view .LVU1135
 566:Drivers/lvgl/src/widgets/image/lv_image.c **** 
 3603              		.loc 1 566 5 discriminator 1 view .LVU1136
 566:Drivers/lvgl/src/widgets/image/lv_image.c **** 
 3604              		.loc 1 566 5 discriminator 1 view .LVU1137
 566:Drivers/lvgl/src/widgets/image/lv_image.c **** 
 3605              		.loc 1 566 5 discriminator 1 view .LVU1138
 566:Drivers/lvgl/src/widgets/image/lv_image.c **** 
 3606              		.loc 1 566 5 discriminator 1 view .LVU1139
 3607 000c FEE7     		b	.L214
 3608              		.cfi_endproc
 3609              	.LFE209:
 3611              		.section	.text.lv_image_get_bitmap_map_src,"ax",%progbits
 3612              		.align	1
 3613              		.global	lv_image_get_bitmap_map_src
 3614              		.syntax unified
ARM GAS  /tmp/cc58L00o.s 			page 108


 3615              		.thumb
 3616              		.thumb_func
 3618              	lv_image_get_bitmap_map_src:
 3619              	.LVL348:
 3620              	.LFB210:
 574:Drivers/lvgl/src/widgets/image/lv_image.c ****     LV_ASSERT_OBJ(obj, MY_CLASS);
 3621              		.loc 1 574 1 view -0
 3622              		.cfi_startproc
 3623              		@ args = 0, pretend = 0, frame = 0
 3624              		@ frame_needed = 0, uses_anonymous_args = 0
 3625              		@ link register save eliminated.
 575:Drivers/lvgl/src/widgets/image/lv_image.c **** 
 3626              		.loc 1 575 5 view .LVU1141
 575:Drivers/lvgl/src/widgets/image/lv_image.c **** 
 3627              		.loc 1 575 5 view .LVU1142
 3628 0000 08B1     		cbz	r0, .L217
 575:Drivers/lvgl/src/widgets/image/lv_image.c **** 
 3629              		.loc 1 575 5 discriminator 2 view .LVU1143
 575:Drivers/lvgl/src/widgets/image/lv_image.c **** 
 3630              		.loc 1 575 33 discriminator 2 view .LVU1144
 577:Drivers/lvgl/src/widgets/image/lv_image.c **** 
 3631              		.loc 1 577 5 view .LVU1145
 3632              	.LVL349:
 579:Drivers/lvgl/src/widgets/image/lv_image.c **** }
 3633              		.loc 1 579 5 view .LVU1146
 580:Drivers/lvgl/src/widgets/image/lv_image.c **** 
 3634              		.loc 1 580 1 is_stmt 0 view .LVU1147
 3635 0002 006B     		ldr	r0, [r0, #48]
 3636              	.LVL350:
 580:Drivers/lvgl/src/widgets/image/lv_image.c **** 
 3637              		.loc 1 580 1 view .LVU1148
 3638 0004 7047     		bx	lr
 3639              	.LVL351:
 3640              	.L217:
 575:Drivers/lvgl/src/widgets/image/lv_image.c **** 
 3641              		.loc 1 575 5 is_stmt 1 discriminator 1 view .LVU1149
 575:Drivers/lvgl/src/widgets/image/lv_image.c **** 
 3642              		.loc 1 575 5 discriminator 1 view .LVU1150
 575:Drivers/lvgl/src/widgets/image/lv_image.c **** 
 3643              		.loc 1 575 5 discriminator 1 view .LVU1151
 575:Drivers/lvgl/src/widgets/image/lv_image.c **** 
 3644              		.loc 1 575 5 discriminator 1 view .LVU1152
 575:Drivers/lvgl/src/widgets/image/lv_image.c **** 
 3645              		.loc 1 575 5 discriminator 1 view .LVU1153
 3646 0006 FEE7     		b	.L217
 3647              		.cfi_endproc
 3648              	.LFE210:
 3650              		.global	lv_image_class
 3651              		.section	.rodata.str1.4,"aMS",%progbits,1
 3652              		.align	2
 3653              	.LC0:
 3654 0000 6C765F69 		.ascii	"lv_image\000"
 3654      6D616765 
 3654      00
 3655              		.section	.rodata.lv_image_class,"a"
 3656              		.align	2
 3659              	lv_image_class:
ARM GAS  /tmp/cc58L00o.s 			page 109


 3660 0000 00000000 		.word	lv_obj_class
 3661 0004 00000000 		.word	lv_image_constructor
 3662 0008 00000000 		.word	lv_image_destructor
 3663 000c 00000000 		.word	lv_image_event
 3664 0010 00000000 		.space	4
 3665 0014 00000000 		.word	.LC0
 3666 0018 FFFFFF3F 		.word	1073741823
 3667 001c FFFFFF3F 		.word	1073741823
 3668 0020 C0       		.byte	192
 3669 0021 05       		.byte	5
 3670 0022 00       		.byte	0
 3671 0023 00       		.space	1
 3672              		.text
 3673              	.Letext0:
 3674              		.file 3 "/usr/arm-none-eabi/include/machine/_default_types.h"
 3675              		.file 4 "/usr/arm-none-eabi/include/sys/_stdint.h"
 3676              		.file 5 "/usr/lib/gcc/arm-none-eabi/14.2.0/include/stddef.h"
 3677              		.file 6 "Drivers/lvgl/src/widgets/image/../../core/../misc/lv_types.h"
 3678              		.file 7 "Drivers/lvgl/src/widgets/image/../../core/lv_obj_private.h"
 3679              		.file 8 "Drivers/lvgl/src/widgets/image/../../core/lv_obj_class_private.h"
 3680              		.file 9 "Drivers/lvgl/src/widgets/image/../../core/../draw/lv_draw.h"
 3681              		.file 10 "Drivers/lvgl/src/widgets/image/../../draw/lv_draw_private.h"
 3682              		.file 11 "Drivers/lvgl/src/widgets/image/../../core/../misc/../font/lv_font.h"
 3683              		.file 12 "Drivers/lvgl/src/widgets/image/../../core/../draw/lv_draw_image.h"
 3684              		.file 13 "Drivers/lvgl/src/widgets/image/../../draw/lv_draw_image_private.h"
 3685              		.file 14 "Drivers/lvgl/src/widgets/image/../../core/lv_obj_event_private.h"
 3686              		.file 15 "Drivers/lvgl/src/widgets/image/lv_image_private.h"
 3687              		.file 16 "Drivers/lvgl/src/widgets/image/../../core/../display/../misc/lv_array.h"
 3688              		.file 17 "Drivers/lvgl/src/widgets/image/../../core/../misc/../font/../draw/lv_draw_buf.h"
 3689              		.file 18 "Drivers/lvgl/src/widgets/image/../../core/../misc/../font/../draw/../misc/lv_area.h"
 3690              		.file 19 "Drivers/lvgl/src/widgets/image/../../core/../misc/../font/../draw/../misc/lv_color.h"
 3691              		.file 20 "Drivers/lvgl/src/widgets/image/../../core/../misc/../font/../draw/lv_image_dsc.h"
 3692              		.file 21 "Drivers/lvgl/src/widgets/image/../../core/../misc/lv_text.h"
 3693              		.file 22 "Drivers/lvgl/src/widgets/image/../../core/../misc/lv_bidi.h"
 3694              		.file 23 "Drivers/lvgl/src/widgets/image/../../core/../misc/lv_style.h"
 3695              		.file 24 "Drivers/lvgl/src/widgets/image/../../core/../display/../misc/lv_event.h"
 3696              		.file 25 "Drivers/lvgl/src/widgets/image/../../core/../draw/lv_image_decoder.h"
 3697              		.file 26 "Drivers/lvgl/src/widgets/image/../../core/../draw/lv_draw_label.h"
 3698              		.file 27 "Drivers/lvgl/src/widgets/image/../../core/../indev/lv_indev.h"
 3699              		.file 28 "Drivers/lvgl/src/widgets/image/../../core/lv_obj_event.h"
 3700              		.file 29 "Drivers/lvgl/src/widgets/image/../../core/lv_obj.h"
 3701              		.file 30 "Drivers/lvgl/src/widgets/image/lv_image.h"
 3702              		.file 31 "Drivers/lvgl/src/widgets/image/../../core/lv_obj_pos.h"
 3703              		.file 32 "Drivers/lvgl/src/widgets/image/../../core/../misc/../font/../draw/../misc/../stdlib/lv_s
 3704              		.file 33 "Drivers/lvgl/src/widgets/image/../../core/lv_obj_class.h"
 3705              		.file 34 "Drivers/lvgl/src/widgets/image/../../core/../misc/../font/../draw/../misc/../stdlib/lv_m
 3706              		.file 35 "Drivers/lvgl/src/widgets/image/../../core/lv_obj_style.h"
 3707              		.file 36 "Drivers/lvgl/src/widgets/image/../../core/lv_obj_draw.h"
 3708              		.file 37 "Drivers/lvgl/src/widgets/image/../../misc/lv_area_private.h"
 3709              		.file 38 "Drivers/lvgl/src/widgets/image/../../core/../display/lv_display.h"
 3710              		.file 39 "Drivers/lvgl/src/widgets/image/../../core/lv_obj_tree.h"
ARM GAS  /tmp/cc58L00o.s 			page 110


DEFINED SYMBOLS
                            *ABS*:00000000 lv_image.c
     /tmp/cc58L00o.s:21     .text.lv_image_destructor:00000000 $t
     /tmp/cc58L00o.s:26     .text.lv_image_destructor:00000000 lv_image_destructor
     /tmp/cc58L00o.s:76     .text.lv_image_constructor:00000000 $t
     /tmp/cc58L00o.s:81     .text.lv_image_constructor:00000000 lv_image_constructor
     /tmp/cc58L00o.s:182    .text.lv_image_constructor:00000080 $d
     /tmp/cc58L00o.s:187    .text.lv_image_create:00000000 $t
     /tmp/cc58L00o.s:193    .text.lv_image_create:00000000 lv_image_create
     /tmp/cc58L00o.s:232    .text.lv_image_create:00000014 $d
     /tmp/cc58L00o.s:3659   .rodata.lv_image_class:00000000 lv_image_class
     /tmp/cc58L00o.s:237    .text.lv_image_set_offset_x:00000000 $t
     /tmp/cc58L00o.s:243    .text.lv_image_set_offset_x:00000000 lv_image_set_offset_x
     /tmp/cc58L00o.s:287    .text.lv_image_set_offset_y:00000000 $t
     /tmp/cc58L00o.s:293    .text.lv_image_set_offset_y:00000000 lv_image_set_offset_y
     /tmp/cc58L00o.s:337    .text.lv_image_set_blend_mode:00000000 $t
     /tmp/cc58L00o.s:343    .text.lv_image_set_blend_mode:00000000 lv_image_set_blend_mode
     /tmp/cc58L00o.s:398    .text.lv_image_set_antialias:00000000 $t
     /tmp/cc58L00o.s:404    .text.lv_image_set_antialias:00000000 lv_image_set_antialias
     /tmp/cc58L00o.s:457    .text.lv_image_set_bitmap_map_src:00000000 $t
     /tmp/cc58L00o.s:463    .text.lv_image_set_bitmap_map_src:00000000 lv_image_set_bitmap_map_src
     /tmp/cc58L00o.s:507    .text.lv_image_get_src:00000000 $t
     /tmp/cc58L00o.s:513    .text.lv_image_get_src:00000000 lv_image_get_src
     /tmp/cc58L00o.s:546    .text.lv_image_get_offset_x:00000000 $t
     /tmp/cc58L00o.s:552    .text.lv_image_get_offset_x:00000000 lv_image_get_offset_x
     /tmp/cc58L00o.s:585    .text.lv_image_get_offset_y:00000000 $t
     /tmp/cc58L00o.s:591    .text.lv_image_get_offset_y:00000000 lv_image_get_offset_y
     /tmp/cc58L00o.s:624    .text.lv_image_get_rotation:00000000 $t
     /tmp/cc58L00o.s:630    .text.lv_image_get_rotation:00000000 lv_image_get_rotation
     /tmp/cc58L00o.s:663    .text.lv_image_get_pivot:00000000 $t
     /tmp/cc58L00o.s:669    .text.lv_image_get_pivot:00000000 lv_image_get_pivot
     /tmp/cc58L00o.s:733    .text.scale_update:00000000 $t
     /tmp/cc58L00o.s:738    .text.scale_update:00000000 scale_update
     /tmp/cc58L00o.s:930    .text.lv_image_set_scale:00000000 $t
     /tmp/cc58L00o.s:936    .text.lv_image_set_scale:00000000 lv_image_set_scale
     /tmp/cc58L00o.s:1016   .text.lv_image_set_scale_x:00000000 $t
     /tmp/cc58L00o.s:1022   .text.lv_image_set_scale_x:00000000 lv_image_set_scale_x
     /tmp/cc58L00o.s:1089   .text.lv_image_set_scale_y:00000000 $t
     /tmp/cc58L00o.s:1095   .text.lv_image_set_scale_y:00000000 lv_image_set_scale_y
     /tmp/cc58L00o.s:1165   .text.draw_image:00000000 $t
     /tmp/cc58L00o.s:1170   .text.draw_image:00000000 draw_image
     /tmp/cc58L00o.s:1772   .text.lv_image_set_rotation:00000000 $t
     /tmp/cc58L00o.s:1778   .text.lv_image_set_rotation:00000000 lv_image_set_rotation
     /tmp/cc58L00o.s:2026   .text.lv_image_set_pivot:00000000 $t
     /tmp/cc58L00o.s:2032   .text.lv_image_set_pivot:00000000 lv_image_set_pivot
     /tmp/cc58L00o.s:2269   .text.update_align:00000000 $t
     /tmp/cc58L00o.s:2274   .text.update_align:00000000 update_align
     /tmp/cc58L00o.s:2393   .text.lv_image_set_src:00000000 $t
     /tmp/cc58L00o.s:2399   .text.lv_image_set_src:00000000 lv_image_set_src
     /tmp/cc58L00o.s:2806   .text.lv_image_set_inner_align:00000000 $t
     /tmp/cc58L00o.s:2812   .text.lv_image_set_inner_align:00000000 lv_image_set_inner_align
     /tmp/cc58L00o.s:2904   .text.lv_image_event:00000000 $t
     /tmp/cc58L00o.s:2909   .text.lv_image_event:00000000 lv_image_event
     /tmp/cc58L00o.s:2990   .text.lv_image_event:00000038 $d
     /tmp/cc58L00o.s:3021   .text.lv_image_event:000000b4 $t
     /tmp/cc58L00o.s:3370   .text.lv_image_event:00000248 $d
     /tmp/cc58L00o.s:3375   .text.lv_image_get_scale:00000000 $t
ARM GAS  /tmp/cc58L00o.s 			page 111


     /tmp/cc58L00o.s:3381   .text.lv_image_get_scale:00000000 lv_image_get_scale
     /tmp/cc58L00o.s:3414   .text.lv_image_get_scale_x:00000000 $t
     /tmp/cc58L00o.s:3420   .text.lv_image_get_scale_x:00000000 lv_image_get_scale_x
     /tmp/cc58L00o.s:3453   .text.lv_image_get_scale_y:00000000 $t
     /tmp/cc58L00o.s:3459   .text.lv_image_get_scale_y:00000000 lv_image_get_scale_y
     /tmp/cc58L00o.s:3492   .text.lv_image_get_blend_mode:00000000 $t
     /tmp/cc58L00o.s:3498   .text.lv_image_get_blend_mode:00000000 lv_image_get_blend_mode
     /tmp/cc58L00o.s:3532   .text.lv_image_get_antialias:00000000 $t
     /tmp/cc58L00o.s:3538   .text.lv_image_get_antialias:00000000 lv_image_get_antialias
     /tmp/cc58L00o.s:3572   .text.lv_image_get_inner_align:00000000 $t
     /tmp/cc58L00o.s:3578   .text.lv_image_get_inner_align:00000000 lv_image_get_inner_align
     /tmp/cc58L00o.s:3612   .text.lv_image_get_bitmap_map_src:00000000 $t
     /tmp/cc58L00o.s:3618   .text.lv_image_get_bitmap_map_src:00000000 lv_image_get_bitmap_map_src
     /tmp/cc58L00o.s:3652   .rodata.str1.4:00000000 $d
     /tmp/cc58L00o.s:3656   .rodata.lv_image_class:00000000 $d

UNDEFINED SYMBOLS
lv_free
lv_obj_get_width
lv_obj_get_height
lv_point_set
lv_obj_remove_flag
lv_obj_add_flag
lv_obj_class_create_obj
lv_obj_class_init_obj
lv_obj_invalidate
lv_pct_to_px
lv_obj_update_layout
lv_image_buf_get_transformed_area
lv_obj_invalidate_area
lv_obj_get_display
lv_display_enable_invalidation
lv_obj_refresh_ext_draw_size
lv_event_get_code
lv_event_get_current_target
lv_event_get_param
lv_color_format_has_alpha
lv_obj_get_style_prop
lv_area_is_in
lv_event_get_layer
lv_draw_label_dsc_init
lv_obj_init_draw_label_dsc
lv_draw_label
lv_draw_image_dsc_init
lv_obj_init_draw_image_dsc
lv_area_set
lv_draw_image
lv_area_align
lv_area_intersect
lv_area_move
lv_image_src_get_type
lv_image_decoder_get_info
lv_obj_refresh_self_size
lv_strdup
lv_text_get_size
lv_obj_event_base
lv_obj_get_click_area
ARM GAS  /tmp/cc58L00o.s 			page 112


lv_area_is_point_on
lv_obj_class
