ARM GAS  /tmp/ccRW1zvv.s 			page 1


   1              		.cpu cortex-m7
   2              		.arch armv7e-m
   3              		.fpu fpv5-sp-d16
   4              		.eabi_attribute 27, 1
   5              		.eabi_attribute 28, 1
   6              		.eabi_attribute 20, 1
   7              		.eabi_attribute 21, 1
   8              		.eabi_attribute 23, 3
   9              		.eabi_attribute 24, 1
  10              		.eabi_attribute 25, 1
  11              		.eabi_attribute 26, 1
  12              		.eabi_attribute 30, 1
  13              		.eabi_attribute 34, 1
  14              		.eabi_attribute 18, 4
  15              		.file	"lv_iter.c"
  16              		.text
  17              	.Ltext0:
  18              		.cfi_sections	.debug_frame
  19              		.file 1 "Drivers/lvgl/src/misc/lv_iter.c"
  20              		.section	.text.peek_fill_cb,"ax",%progbits
  21              		.align	1
  22              		.syntax unified
  23              		.thumb
  24              		.thumb_func
  26              	peek_fill_cb:
  27              	.LVL0:
  28              	.LFB11:
   1:Drivers/lvgl/src/misc/lv_iter.c **** /**
   2:Drivers/lvgl/src/misc/lv_iter.c ****  * @file lv_iter.c
   3:Drivers/lvgl/src/misc/lv_iter.c ****  *
   4:Drivers/lvgl/src/misc/lv_iter.c ****  */
   5:Drivers/lvgl/src/misc/lv_iter.c **** 
   6:Drivers/lvgl/src/misc/lv_iter.c **** /*********************
   7:Drivers/lvgl/src/misc/lv_iter.c ****  *      INCLUDES
   8:Drivers/lvgl/src/misc/lv_iter.c ****  *********************/
   9:Drivers/lvgl/src/misc/lv_iter.c **** 
  10:Drivers/lvgl/src/misc/lv_iter.c **** #include "lv_assert.h"
  11:Drivers/lvgl/src/misc/lv_iter.c **** 
  12:Drivers/lvgl/src/misc/lv_iter.c **** #include "lv_iter.h"
  13:Drivers/lvgl/src/misc/lv_iter.c **** 
  14:Drivers/lvgl/src/misc/lv_iter.c **** #include "lv_circle_buf.h"
  15:Drivers/lvgl/src/misc/lv_iter.c **** 
  16:Drivers/lvgl/src/misc/lv_iter.c **** /*********************
  17:Drivers/lvgl/src/misc/lv_iter.c ****  *      DEFINES
  18:Drivers/lvgl/src/misc/lv_iter.c ****  *********************/
  19:Drivers/lvgl/src/misc/lv_iter.c **** 
  20:Drivers/lvgl/src/misc/lv_iter.c **** /**********************
  21:Drivers/lvgl/src/misc/lv_iter.c ****  *      TYPEDEFS
  22:Drivers/lvgl/src/misc/lv_iter.c ****  **********************/
  23:Drivers/lvgl/src/misc/lv_iter.c **** 
  24:Drivers/lvgl/src/misc/lv_iter.c **** struct _lv_iter_t {
  25:Drivers/lvgl/src/misc/lv_iter.c ****     /* Iterator state */
  26:Drivers/lvgl/src/misc/lv_iter.c ****     void  *  instance;        /**< Pointer to the object to iterate over */
  27:Drivers/lvgl/src/misc/lv_iter.c ****     uint32_t elem_size;       /**< Size of one element in bytes */
  28:Drivers/lvgl/src/misc/lv_iter.c ****     void  *  context;         /**< Custom context for the iteration */
  29:Drivers/lvgl/src/misc/lv_iter.c ****     uint32_t context_size;    /**< Size of the custom context in bytes */
  30:Drivers/lvgl/src/misc/lv_iter.c **** 
ARM GAS  /tmp/ccRW1zvv.s 			page 2


  31:Drivers/lvgl/src/misc/lv_iter.c ****     /* Peeking */
  32:Drivers/lvgl/src/misc/lv_iter.c ****     lv_circle_buf_t * peek_buf;   /**< Circular buffer for peeking */
  33:Drivers/lvgl/src/misc/lv_iter.c ****     uint32_t peek_offset;         /**< Offset in the peek buffer */
  34:Drivers/lvgl/src/misc/lv_iter.c **** 
  35:Drivers/lvgl/src/misc/lv_iter.c ****     /* Callbacks */
  36:Drivers/lvgl/src/misc/lv_iter.c ****     lv_iter_next_cb next_cb;  /**< Callback to get the next element */
  37:Drivers/lvgl/src/misc/lv_iter.c **** };
  38:Drivers/lvgl/src/misc/lv_iter.c **** 
  39:Drivers/lvgl/src/misc/lv_iter.c **** /**********************
  40:Drivers/lvgl/src/misc/lv_iter.c ****  *  STATIC PROTOTYPES
  41:Drivers/lvgl/src/misc/lv_iter.c ****  **********************/
  42:Drivers/lvgl/src/misc/lv_iter.c **** 
  43:Drivers/lvgl/src/misc/lv_iter.c **** static bool peek_fill_cb(void * buf, uint32_t buf_len, int32_t index, void * user_data);
  44:Drivers/lvgl/src/misc/lv_iter.c **** 
  45:Drivers/lvgl/src/misc/lv_iter.c **** /**********************
  46:Drivers/lvgl/src/misc/lv_iter.c ****  *  GLOBAL VARIABLES
  47:Drivers/lvgl/src/misc/lv_iter.c ****  **********************/
  48:Drivers/lvgl/src/misc/lv_iter.c **** 
  49:Drivers/lvgl/src/misc/lv_iter.c **** /**********************
  50:Drivers/lvgl/src/misc/lv_iter.c ****  *  STATIC VARIABLES
  51:Drivers/lvgl/src/misc/lv_iter.c ****  **********************/
  52:Drivers/lvgl/src/misc/lv_iter.c **** 
  53:Drivers/lvgl/src/misc/lv_iter.c **** /**********************
  54:Drivers/lvgl/src/misc/lv_iter.c ****  *      MACROS
  55:Drivers/lvgl/src/misc/lv_iter.c ****  **********************/
  56:Drivers/lvgl/src/misc/lv_iter.c **** 
  57:Drivers/lvgl/src/misc/lv_iter.c **** /**********************
  58:Drivers/lvgl/src/misc/lv_iter.c ****  *   GLOBAL FUNCTIONS
  59:Drivers/lvgl/src/misc/lv_iter.c ****  **********************/
  60:Drivers/lvgl/src/misc/lv_iter.c **** 
  61:Drivers/lvgl/src/misc/lv_iter.c **** lv_iter_t * lv_iter_create(void * instance, const uint32_t elem_size, const uint32_t context_size,
  62:Drivers/lvgl/src/misc/lv_iter.c ****                            lv_iter_next_cb next_cb)
  63:Drivers/lvgl/src/misc/lv_iter.c **** {
  64:Drivers/lvgl/src/misc/lv_iter.c ****     lv_iter_t * iter = lv_malloc_zeroed(sizeof(lv_iter_t));
  65:Drivers/lvgl/src/misc/lv_iter.c ****     LV_ASSERT_MALLOC(iter);
  66:Drivers/lvgl/src/misc/lv_iter.c **** 
  67:Drivers/lvgl/src/misc/lv_iter.c ****     if(iter == NULL) {
  68:Drivers/lvgl/src/misc/lv_iter.c ****         LV_LOG_ERROR("Could not allocate memory for iterator");
  69:Drivers/lvgl/src/misc/lv_iter.c ****         return NULL;
  70:Drivers/lvgl/src/misc/lv_iter.c ****     }
  71:Drivers/lvgl/src/misc/lv_iter.c **** 
  72:Drivers/lvgl/src/misc/lv_iter.c ****     iter->instance = instance;
  73:Drivers/lvgl/src/misc/lv_iter.c ****     iter->elem_size = elem_size;
  74:Drivers/lvgl/src/misc/lv_iter.c ****     iter->context_size = context_size;
  75:Drivers/lvgl/src/misc/lv_iter.c ****     iter->next_cb = next_cb;
  76:Drivers/lvgl/src/misc/lv_iter.c **** 
  77:Drivers/lvgl/src/misc/lv_iter.c ****     if(context_size > 0) {
  78:Drivers/lvgl/src/misc/lv_iter.c ****         iter->context = lv_malloc_zeroed(context_size);
  79:Drivers/lvgl/src/misc/lv_iter.c ****         LV_ASSERT_MALLOC(iter->context);
  80:Drivers/lvgl/src/misc/lv_iter.c ****     }
  81:Drivers/lvgl/src/misc/lv_iter.c **** 
  82:Drivers/lvgl/src/misc/lv_iter.c ****     return iter;
  83:Drivers/lvgl/src/misc/lv_iter.c **** }
  84:Drivers/lvgl/src/misc/lv_iter.c **** 
  85:Drivers/lvgl/src/misc/lv_iter.c **** void * lv_iter_get_context(const lv_iter_t * iter)
  86:Drivers/lvgl/src/misc/lv_iter.c **** {
  87:Drivers/lvgl/src/misc/lv_iter.c ****     LV_ASSERT_NULL(iter);
ARM GAS  /tmp/ccRW1zvv.s 			page 3


  88:Drivers/lvgl/src/misc/lv_iter.c **** 
  89:Drivers/lvgl/src/misc/lv_iter.c ****     return iter ? iter->context : NULL;
  90:Drivers/lvgl/src/misc/lv_iter.c **** }
  91:Drivers/lvgl/src/misc/lv_iter.c **** 
  92:Drivers/lvgl/src/misc/lv_iter.c **** void lv_iter_destroy(lv_iter_t * iter)
  93:Drivers/lvgl/src/misc/lv_iter.c **** {
  94:Drivers/lvgl/src/misc/lv_iter.c ****     LV_ASSERT_NULL(iter);
  95:Drivers/lvgl/src/misc/lv_iter.c ****     if(iter == NULL) return;
  96:Drivers/lvgl/src/misc/lv_iter.c **** 
  97:Drivers/lvgl/src/misc/lv_iter.c ****     if(iter->context_size > 0) lv_free(iter->context);
  98:Drivers/lvgl/src/misc/lv_iter.c ****     if(iter->peek_buf != NULL) lv_circle_buf_destroy(iter->peek_buf);
  99:Drivers/lvgl/src/misc/lv_iter.c **** 
 100:Drivers/lvgl/src/misc/lv_iter.c ****     iter->context = NULL;
 101:Drivers/lvgl/src/misc/lv_iter.c ****     iter->peek_buf = NULL;
 102:Drivers/lvgl/src/misc/lv_iter.c **** 
 103:Drivers/lvgl/src/misc/lv_iter.c ****     lv_free(iter);
 104:Drivers/lvgl/src/misc/lv_iter.c **** }
 105:Drivers/lvgl/src/misc/lv_iter.c **** 
 106:Drivers/lvgl/src/misc/lv_iter.c **** void lv_iter_make_peekable(lv_iter_t * iter, const uint32_t capacity)
 107:Drivers/lvgl/src/misc/lv_iter.c **** {
 108:Drivers/lvgl/src/misc/lv_iter.c ****     LV_ASSERT_NULL(iter);
 109:Drivers/lvgl/src/misc/lv_iter.c ****     if(iter == NULL) return;
 110:Drivers/lvgl/src/misc/lv_iter.c **** 
 111:Drivers/lvgl/src/misc/lv_iter.c ****     if(capacity == 0 || iter->peek_buf != NULL) return;
 112:Drivers/lvgl/src/misc/lv_iter.c ****     iter->peek_buf = lv_circle_buf_create(capacity, iter->elem_size);
 113:Drivers/lvgl/src/misc/lv_iter.c ****     LV_ASSERT_NULL(iter->peek_buf);
 114:Drivers/lvgl/src/misc/lv_iter.c **** }
 115:Drivers/lvgl/src/misc/lv_iter.c **** 
 116:Drivers/lvgl/src/misc/lv_iter.c **** lv_result_t lv_iter_next(lv_iter_t * iter, void * elem)
 117:Drivers/lvgl/src/misc/lv_iter.c **** {
 118:Drivers/lvgl/src/misc/lv_iter.c ****     LV_ASSERT_NULL(iter);
 119:Drivers/lvgl/src/misc/lv_iter.c ****     if(iter == NULL) return LV_RESULT_INVALID;
 120:Drivers/lvgl/src/misc/lv_iter.c **** 
 121:Drivers/lvgl/src/misc/lv_iter.c ****     lv_circle_buf_t * c_buf = iter->peek_buf;
 122:Drivers/lvgl/src/misc/lv_iter.c ****     if(c_buf != NULL && !lv_circle_buf_is_empty(c_buf)) {
 123:Drivers/lvgl/src/misc/lv_iter.c ****         if(elem) lv_circle_buf_read(c_buf, elem);
 124:Drivers/lvgl/src/misc/lv_iter.c ****         else lv_circle_buf_skip(c_buf);
 125:Drivers/lvgl/src/misc/lv_iter.c ****         iter->peek_offset = 0;
 126:Drivers/lvgl/src/misc/lv_iter.c ****         return LV_RESULT_OK;
 127:Drivers/lvgl/src/misc/lv_iter.c ****     }
 128:Drivers/lvgl/src/misc/lv_iter.c **** 
 129:Drivers/lvgl/src/misc/lv_iter.c ****     const lv_result_t iter_res = iter->next_cb(iter->instance, iter->context, elem);
 130:Drivers/lvgl/src/misc/lv_iter.c ****     if(iter_res == LV_RESULT_INVALID) return LV_RESULT_INVALID;
 131:Drivers/lvgl/src/misc/lv_iter.c **** 
 132:Drivers/lvgl/src/misc/lv_iter.c ****     if(c_buf != NULL) iter->peek_offset = 0;
 133:Drivers/lvgl/src/misc/lv_iter.c **** 
 134:Drivers/lvgl/src/misc/lv_iter.c ****     return iter_res;
 135:Drivers/lvgl/src/misc/lv_iter.c **** }
 136:Drivers/lvgl/src/misc/lv_iter.c **** 
 137:Drivers/lvgl/src/misc/lv_iter.c **** lv_result_t lv_iter_peek(lv_iter_t * iter, void * elem)
 138:Drivers/lvgl/src/misc/lv_iter.c **** {
 139:Drivers/lvgl/src/misc/lv_iter.c ****     LV_ASSERT_NULL(iter);
 140:Drivers/lvgl/src/misc/lv_iter.c ****     if(iter == NULL) return LV_RESULT_INVALID;
 141:Drivers/lvgl/src/misc/lv_iter.c **** 
 142:Drivers/lvgl/src/misc/lv_iter.c ****     lv_circle_buf_t * c_buf = iter->peek_buf;
 143:Drivers/lvgl/src/misc/lv_iter.c ****     if(c_buf == NULL) return LV_RESULT_INVALID;
 144:Drivers/lvgl/src/misc/lv_iter.c **** 
ARM GAS  /tmp/ccRW1zvv.s 			page 4


 145:Drivers/lvgl/src/misc/lv_iter.c ****     const uint32_t peek_count = lv_circle_buf_size(c_buf);
 146:Drivers/lvgl/src/misc/lv_iter.c ****     if(iter->peek_offset >= peek_count) {
 147:Drivers/lvgl/src/misc/lv_iter.c ****         const uint32_t required = iter->peek_offset + 1 - peek_count;
 148:Drivers/lvgl/src/misc/lv_iter.c ****         const uint32_t filled = lv_circle_buf_fill(c_buf, required, peek_fill_cb, iter);
 149:Drivers/lvgl/src/misc/lv_iter.c ****         if(filled != required) return LV_RESULT_INVALID;
 150:Drivers/lvgl/src/misc/lv_iter.c ****     }
 151:Drivers/lvgl/src/misc/lv_iter.c **** 
 152:Drivers/lvgl/src/misc/lv_iter.c ****     lv_circle_buf_peek_at(c_buf, iter->peek_offset, elem);
 153:Drivers/lvgl/src/misc/lv_iter.c **** 
 154:Drivers/lvgl/src/misc/lv_iter.c ****     return LV_RESULT_OK;
 155:Drivers/lvgl/src/misc/lv_iter.c **** }
 156:Drivers/lvgl/src/misc/lv_iter.c **** 
 157:Drivers/lvgl/src/misc/lv_iter.c **** lv_result_t lv_iter_peek_advance(lv_iter_t * iter)
 158:Drivers/lvgl/src/misc/lv_iter.c **** {
 159:Drivers/lvgl/src/misc/lv_iter.c ****     LV_ASSERT_NULL(iter);
 160:Drivers/lvgl/src/misc/lv_iter.c ****     if(iter == NULL) return LV_RESULT_INVALID;
 161:Drivers/lvgl/src/misc/lv_iter.c **** 
 162:Drivers/lvgl/src/misc/lv_iter.c ****     if(iter->peek_buf == NULL || iter->peek_offset + 1 >= lv_circle_buf_capacity(iter->peek_buf))
 163:Drivers/lvgl/src/misc/lv_iter.c ****         return LV_RESULT_INVALID;
 164:Drivers/lvgl/src/misc/lv_iter.c ****     iter->peek_offset++;
 165:Drivers/lvgl/src/misc/lv_iter.c ****     return LV_RESULT_OK;
 166:Drivers/lvgl/src/misc/lv_iter.c **** }
 167:Drivers/lvgl/src/misc/lv_iter.c **** 
 168:Drivers/lvgl/src/misc/lv_iter.c **** lv_result_t lv_iter_peek_reset(lv_iter_t * iter)
 169:Drivers/lvgl/src/misc/lv_iter.c **** {
 170:Drivers/lvgl/src/misc/lv_iter.c ****     LV_ASSERT_NULL(iter);
 171:Drivers/lvgl/src/misc/lv_iter.c ****     if(iter == NULL) return LV_RESULT_INVALID;
 172:Drivers/lvgl/src/misc/lv_iter.c **** 
 173:Drivers/lvgl/src/misc/lv_iter.c ****     if(iter->peek_buf == NULL) return LV_RESULT_INVALID;
 174:Drivers/lvgl/src/misc/lv_iter.c **** 
 175:Drivers/lvgl/src/misc/lv_iter.c ****     iter->peek_offset = 0;
 176:Drivers/lvgl/src/misc/lv_iter.c ****     return LV_RESULT_OK;
 177:Drivers/lvgl/src/misc/lv_iter.c **** }
 178:Drivers/lvgl/src/misc/lv_iter.c **** 
 179:Drivers/lvgl/src/misc/lv_iter.c **** void lv_iter_inspect(lv_iter_t * iter, const lv_iter_inspect_cb inspect_cb)
 180:Drivers/lvgl/src/misc/lv_iter.c **** {
 181:Drivers/lvgl/src/misc/lv_iter.c ****     LV_ASSERT_NULL(iter);
 182:Drivers/lvgl/src/misc/lv_iter.c ****     if(iter == NULL) return;
 183:Drivers/lvgl/src/misc/lv_iter.c **** 
 184:Drivers/lvgl/src/misc/lv_iter.c ****     void * elem = lv_malloc_zeroed(iter->elem_size);
 185:Drivers/lvgl/src/misc/lv_iter.c ****     LV_ASSERT_MALLOC(elem);
 186:Drivers/lvgl/src/misc/lv_iter.c **** 
 187:Drivers/lvgl/src/misc/lv_iter.c ****     if(elem == NULL) {
 188:Drivers/lvgl/src/misc/lv_iter.c ****         LV_LOG_ERROR("Could not allocate memory for element");
 189:Drivers/lvgl/src/misc/lv_iter.c ****         return;
 190:Drivers/lvgl/src/misc/lv_iter.c ****     }
 191:Drivers/lvgl/src/misc/lv_iter.c **** 
 192:Drivers/lvgl/src/misc/lv_iter.c ****     while(lv_iter_next(iter, elem) == LV_RESULT_OK) {
 193:Drivers/lvgl/src/misc/lv_iter.c ****         inspect_cb(elem);
 194:Drivers/lvgl/src/misc/lv_iter.c ****     }
 195:Drivers/lvgl/src/misc/lv_iter.c **** 
 196:Drivers/lvgl/src/misc/lv_iter.c ****     lv_free(elem);
 197:Drivers/lvgl/src/misc/lv_iter.c **** }
 198:Drivers/lvgl/src/misc/lv_iter.c **** 
 199:Drivers/lvgl/src/misc/lv_iter.c **** /**********************
 200:Drivers/lvgl/src/misc/lv_iter.c ****  *   STATIC FUNCTIONS
 201:Drivers/lvgl/src/misc/lv_iter.c ****  **********************/
ARM GAS  /tmp/ccRW1zvv.s 			page 5


 202:Drivers/lvgl/src/misc/lv_iter.c **** 
 203:Drivers/lvgl/src/misc/lv_iter.c **** static bool peek_fill_cb(void * buf, const uint32_t buf_len, const int32_t index, void * user_data)
 204:Drivers/lvgl/src/misc/lv_iter.c **** {
  29              		.loc 1 204 1 view -0
  30              		.cfi_startproc
  31              		@ args = 0, pretend = 0, frame = 0
  32              		@ frame_needed = 0, uses_anonymous_args = 0
  33              		.loc 1 204 1 is_stmt 0 view .LVU1
  34 0000 10B5     		push	{r4, lr}
  35              	.LCFI0:
  36              		.cfi_def_cfa_offset 8
  37              		.cfi_offset 4, -8
  38              		.cfi_offset 14, -4
  39 0002 0246     		mov	r2, r0
  40              	.LVL1:
 205:Drivers/lvgl/src/misc/lv_iter.c ****     LV_UNUSED(buf_len);
  41              		.loc 1 205 5 is_stmt 1 view .LVU2
 206:Drivers/lvgl/src/misc/lv_iter.c ****     LV_UNUSED(index);
  42              		.loc 1 206 5 view .LVU3
 207:Drivers/lvgl/src/misc/lv_iter.c **** 
 208:Drivers/lvgl/src/misc/lv_iter.c ****     const lv_iter_t * iter = user_data;
  43              		.loc 1 208 5 view .LVU4
 209:Drivers/lvgl/src/misc/lv_iter.c ****     const lv_result_t iter_res = iter->next_cb(iter->instance, iter->context, buf);
  44              		.loc 1 209 5 view .LVU5
  45              		.loc 1 209 38 is_stmt 0 view .LVU6
  46 0004 9C69     		ldr	r4, [r3, #24]
  47              		.loc 1 209 34 view .LVU7
  48 0006 9968     		ldr	r1, [r3, #8]
  49              	.LVL2:
  50              		.loc 1 209 34 view .LVU8
  51 0008 1868     		ldr	r0, [r3]
  52              	.LVL3:
  53              		.loc 1 209 34 view .LVU9
  54 000a A047     		blx	r4
  55              	.LVL4:
 210:Drivers/lvgl/src/misc/lv_iter.c ****     if(iter_res == LV_RESULT_INVALID) return false;
  56              		.loc 1 210 5 is_stmt 1 view .LVU10
  57              		.loc 1 210 7 is_stmt 0 view .LVU11
  58 000c 08B1     		cbz	r0, .L3
 211:Drivers/lvgl/src/misc/lv_iter.c **** 
 212:Drivers/lvgl/src/misc/lv_iter.c ****     return true;
  59              		.loc 1 212 12 view .LVU12
  60 000e 0120     		movs	r0, #1
  61              	.LVL5:
  62              	.L2:
 213:Drivers/lvgl/src/misc/lv_iter.c **** }
  63              		.loc 1 213 1 view .LVU13
  64 0010 10BD     		pop	{r4, pc}
  65              	.LVL6:
  66              	.L3:
 210:Drivers/lvgl/src/misc/lv_iter.c ****     if(iter_res == LV_RESULT_INVALID) return false;
  67              		.loc 1 210 46 discriminator 1 view .LVU14
  68 0012 0020     		movs	r0, #0
  69              	.LVL7:
 210:Drivers/lvgl/src/misc/lv_iter.c ****     if(iter_res == LV_RESULT_INVALID) return false;
  70              		.loc 1 210 46 discriminator 1 view .LVU15
  71 0014 FCE7     		b	.L2
ARM GAS  /tmp/ccRW1zvv.s 			page 6


  72              		.cfi_endproc
  73              	.LFE11:
  75              		.section	.text.lv_iter_create,"ax",%progbits
  76              		.align	1
  77              		.global	lv_iter_create
  78              		.syntax unified
  79              		.thumb
  80              		.thumb_func
  82              	lv_iter_create:
  83              	.LVL8:
  84              	.LFB2:
  63:Drivers/lvgl/src/misc/lv_iter.c ****     lv_iter_t * iter = lv_malloc_zeroed(sizeof(lv_iter_t));
  85              		.loc 1 63 1 is_stmt 1 view -0
  86              		.cfi_startproc
  87              		@ args = 0, pretend = 0, frame = 0
  88              		@ frame_needed = 0, uses_anonymous_args = 0
  63:Drivers/lvgl/src/misc/lv_iter.c ****     lv_iter_t * iter = lv_malloc_zeroed(sizeof(lv_iter_t));
  89              		.loc 1 63 1 is_stmt 0 view .LVU17
  90 0000 2DE9F041 		push	{r4, r5, r6, r7, r8, lr}
  91              	.LCFI1:
  92              		.cfi_def_cfa_offset 24
  93              		.cfi_offset 4, -24
  94              		.cfi_offset 5, -20
  95              		.cfi_offset 6, -16
  96              		.cfi_offset 7, -12
  97              		.cfi_offset 8, -8
  98              		.cfi_offset 14, -4
  99 0004 8046     		mov	r8, r0
 100 0006 0F46     		mov	r7, r1
 101 0008 1546     		mov	r5, r2
 102 000a 1E46     		mov	r6, r3
  64:Drivers/lvgl/src/misc/lv_iter.c ****     LV_ASSERT_MALLOC(iter);
 103              		.loc 1 64 5 is_stmt 1 view .LVU18
  64:Drivers/lvgl/src/misc/lv_iter.c ****     LV_ASSERT_MALLOC(iter);
 104              		.loc 1 64 24 is_stmt 0 view .LVU19
 105 000c 1C20     		movs	r0, #28
 106              	.LVL9:
  64:Drivers/lvgl/src/misc/lv_iter.c ****     LV_ASSERT_MALLOC(iter);
 107              		.loc 1 64 24 view .LVU20
 108 000e FFF7FEFF 		bl	lv_malloc_zeroed
 109              	.LVL10:
  65:Drivers/lvgl/src/misc/lv_iter.c **** 
 110              		.loc 1 65 5 is_stmt 1 view .LVU21
  65:Drivers/lvgl/src/misc/lv_iter.c **** 
 111              		.loc 1 65 5 view .LVU22
 112 0012 48B1     		cbz	r0, .L7
 113 0014 0446     		mov	r4, r0
  65:Drivers/lvgl/src/misc/lv_iter.c **** 
 114              		.loc 1 65 5 discriminator 2 view .LVU23
  65:Drivers/lvgl/src/misc/lv_iter.c **** 
 115              		.loc 1 65 27 discriminator 2 view .LVU24
  67:Drivers/lvgl/src/misc/lv_iter.c ****         LV_LOG_ERROR("Could not allocate memory for iterator");
 116              		.loc 1 67 5 view .LVU25
  72:Drivers/lvgl/src/misc/lv_iter.c ****     iter->elem_size = elem_size;
 117              		.loc 1 72 5 view .LVU26
  72:Drivers/lvgl/src/misc/lv_iter.c ****     iter->elem_size = elem_size;
 118              		.loc 1 72 20 is_stmt 0 view .LVU27
ARM GAS  /tmp/ccRW1zvv.s 			page 7


 119 0016 C0F80080 		str	r8, [r0]
  73:Drivers/lvgl/src/misc/lv_iter.c ****     iter->context_size = context_size;
 120              		.loc 1 73 5 is_stmt 1 view .LVU28
  73:Drivers/lvgl/src/misc/lv_iter.c ****     iter->context_size = context_size;
 121              		.loc 1 73 21 is_stmt 0 view .LVU29
 122 001a 4760     		str	r7, [r0, #4]
  74:Drivers/lvgl/src/misc/lv_iter.c ****     iter->next_cb = next_cb;
 123              		.loc 1 74 5 is_stmt 1 view .LVU30
  74:Drivers/lvgl/src/misc/lv_iter.c ****     iter->next_cb = next_cb;
 124              		.loc 1 74 24 is_stmt 0 view .LVU31
 125 001c C560     		str	r5, [r0, #12]
  75:Drivers/lvgl/src/misc/lv_iter.c **** 
 126              		.loc 1 75 5 is_stmt 1 view .LVU32
  75:Drivers/lvgl/src/misc/lv_iter.c **** 
 127              		.loc 1 75 19 is_stmt 0 view .LVU33
 128 001e 8661     		str	r6, [r0, #24]
  77:Drivers/lvgl/src/misc/lv_iter.c ****         iter->context = lv_malloc_zeroed(context_size);
 129              		.loc 1 77 5 is_stmt 1 view .LVU34
  77:Drivers/lvgl/src/misc/lv_iter.c ****         iter->context = lv_malloc_zeroed(context_size);
 130              		.loc 1 77 7 is_stmt 0 view .LVU35
 131 0020 1DB9     		cbnz	r5, .L11
 132              	.LVL11:
 133              	.L5:
  83:Drivers/lvgl/src/misc/lv_iter.c **** 
 134              		.loc 1 83 1 view .LVU36
 135 0022 2046     		mov	r0, r4
 136 0024 BDE8F081 		pop	{r4, r5, r6, r7, r8, pc}
 137              	.LVL12:
 138              	.L7:
  65:Drivers/lvgl/src/misc/lv_iter.c **** 
 139              		.loc 1 65 5 is_stmt 1 discriminator 1 view .LVU37
  65:Drivers/lvgl/src/misc/lv_iter.c **** 
 140              		.loc 1 65 5 discriminator 1 view .LVU38
  65:Drivers/lvgl/src/misc/lv_iter.c **** 
 141              		.loc 1 65 5 discriminator 1 view .LVU39
  65:Drivers/lvgl/src/misc/lv_iter.c **** 
 142              		.loc 1 65 5 discriminator 1 view .LVU40
  65:Drivers/lvgl/src/misc/lv_iter.c **** 
 143              		.loc 1 65 5 discriminator 1 view .LVU41
 144 0028 FEE7     		b	.L7
 145              	.L11:
  78:Drivers/lvgl/src/misc/lv_iter.c ****         LV_ASSERT_MALLOC(iter->context);
 146              		.loc 1 78 9 view .LVU42
  78:Drivers/lvgl/src/misc/lv_iter.c ****         LV_ASSERT_MALLOC(iter->context);
 147              		.loc 1 78 25 is_stmt 0 view .LVU43
 148 002a 2846     		mov	r0, r5
 149              	.LVL13:
  78:Drivers/lvgl/src/misc/lv_iter.c ****         LV_ASSERT_MALLOC(iter->context);
 150              		.loc 1 78 25 view .LVU44
 151 002c FFF7FEFF 		bl	lv_malloc_zeroed
 152              	.LVL14:
  78:Drivers/lvgl/src/misc/lv_iter.c ****         LV_ASSERT_MALLOC(iter->context);
 153              		.loc 1 78 23 discriminator 1 view .LVU45
 154 0030 A060     		str	r0, [r4, #8]
  79:Drivers/lvgl/src/misc/lv_iter.c ****     }
 155              		.loc 1 79 9 is_stmt 1 view .LVU46
  79:Drivers/lvgl/src/misc/lv_iter.c ****     }
ARM GAS  /tmp/ccRW1zvv.s 			page 8


 156              		.loc 1 79 9 view .LVU47
 157 0032 0028     		cmp	r0, #0
 158 0034 F5D1     		bne	.L5
 159              	.L9:
  79:Drivers/lvgl/src/misc/lv_iter.c ****     }
 160              		.loc 1 79 9 discriminator 1 view .LVU48
  79:Drivers/lvgl/src/misc/lv_iter.c ****     }
 161              		.loc 1 79 9 discriminator 1 view .LVU49
  79:Drivers/lvgl/src/misc/lv_iter.c ****     }
 162              		.loc 1 79 9 discriminator 1 view .LVU50
  79:Drivers/lvgl/src/misc/lv_iter.c ****     }
 163              		.loc 1 79 9 discriminator 1 view .LVU51
  79:Drivers/lvgl/src/misc/lv_iter.c ****     }
 164              		.loc 1 79 9 discriminator 1 view .LVU52
 165 0036 FEE7     		b	.L9
 166              		.cfi_endproc
 167              	.LFE2:
 169              		.section	.text.lv_iter_get_context,"ax",%progbits
 170              		.align	1
 171              		.global	lv_iter_get_context
 172              		.syntax unified
 173              		.thumb
 174              		.thumb_func
 176              	lv_iter_get_context:
 177              	.LVL15:
 178              	.LFB3:
  86:Drivers/lvgl/src/misc/lv_iter.c ****     LV_ASSERT_NULL(iter);
 179              		.loc 1 86 1 view -0
 180              		.cfi_startproc
 181              		@ args = 0, pretend = 0, frame = 0
 182              		@ frame_needed = 0, uses_anonymous_args = 0
 183              		@ link register save eliminated.
  87:Drivers/lvgl/src/misc/lv_iter.c **** 
 184              		.loc 1 87 5 view .LVU54
  87:Drivers/lvgl/src/misc/lv_iter.c **** 
 185              		.loc 1 87 5 view .LVU55
 186 0000 08B1     		cbz	r0, .L14
  87:Drivers/lvgl/src/misc/lv_iter.c **** 
 187              		.loc 1 87 5 discriminator 2 view .LVU56
  87:Drivers/lvgl/src/misc/lv_iter.c **** 
 188              		.loc 1 87 25 discriminator 2 view .LVU57
  89:Drivers/lvgl/src/misc/lv_iter.c **** }
 189              		.loc 1 89 5 view .LVU58
  90:Drivers/lvgl/src/misc/lv_iter.c **** 
 190              		.loc 1 90 1 is_stmt 0 view .LVU59
 191 0002 8068     		ldr	r0, [r0, #8]
 192              	.LVL16:
  90:Drivers/lvgl/src/misc/lv_iter.c **** 
 193              		.loc 1 90 1 view .LVU60
 194 0004 7047     		bx	lr
 195              	.LVL17:
 196              	.L14:
  87:Drivers/lvgl/src/misc/lv_iter.c **** 
 197              		.loc 1 87 5 is_stmt 1 discriminator 1 view .LVU61
  87:Drivers/lvgl/src/misc/lv_iter.c **** 
 198              		.loc 1 87 5 discriminator 1 view .LVU62
  87:Drivers/lvgl/src/misc/lv_iter.c **** 
ARM GAS  /tmp/ccRW1zvv.s 			page 9


 199              		.loc 1 87 5 discriminator 1 view .LVU63
  87:Drivers/lvgl/src/misc/lv_iter.c **** 
 200              		.loc 1 87 5 discriminator 1 view .LVU64
  87:Drivers/lvgl/src/misc/lv_iter.c **** 
 201              		.loc 1 87 5 discriminator 1 view .LVU65
 202 0006 FEE7     		b	.L14
 203              		.cfi_endproc
 204              	.LFE3:
 206              		.section	.text.lv_iter_destroy,"ax",%progbits
 207              		.align	1
 208              		.global	lv_iter_destroy
 209              		.syntax unified
 210              		.thumb
 211              		.thumb_func
 213              	lv_iter_destroy:
 214              	.LVL18:
 215              	.LFB4:
  93:Drivers/lvgl/src/misc/lv_iter.c ****     LV_ASSERT_NULL(iter);
 216              		.loc 1 93 1 view -0
 217              		.cfi_startproc
 218              		@ args = 0, pretend = 0, frame = 0
 219              		@ frame_needed = 0, uses_anonymous_args = 0
  94:Drivers/lvgl/src/misc/lv_iter.c ****     if(iter == NULL) return;
 220              		.loc 1 94 5 view .LVU67
  94:Drivers/lvgl/src/misc/lv_iter.c ****     if(iter == NULL) return;
 221              		.loc 1 94 5 view .LVU68
 222 0000 70B1     		cbz	r0, .L17
  93:Drivers/lvgl/src/misc/lv_iter.c ****     LV_ASSERT_NULL(iter);
 223              		.loc 1 93 1 is_stmt 0 view .LVU69
 224 0002 10B5     		push	{r4, lr}
 225              	.LCFI2:
 226              		.cfi_def_cfa_offset 8
 227              		.cfi_offset 4, -8
 228              		.cfi_offset 14, -4
 229 0004 0446     		mov	r4, r0
  94:Drivers/lvgl/src/misc/lv_iter.c ****     if(iter == NULL) return;
 230              		.loc 1 94 5 is_stmt 1 discriminator 2 view .LVU70
  94:Drivers/lvgl/src/misc/lv_iter.c ****     if(iter == NULL) return;
 231              		.loc 1 94 25 discriminator 2 view .LVU71
  95:Drivers/lvgl/src/misc/lv_iter.c **** 
 232              		.loc 1 95 5 view .LVU72
  97:Drivers/lvgl/src/misc/lv_iter.c ****     if(iter->peek_buf != NULL) lv_circle_buf_destroy(iter->peek_buf);
 233              		.loc 1 97 5 view .LVU73
  97:Drivers/lvgl/src/misc/lv_iter.c ****     if(iter->peek_buf != NULL) lv_circle_buf_destroy(iter->peek_buf);
 234              		.loc 1 97 12 is_stmt 0 view .LVU74
 235 0006 C368     		ldr	r3, [r0, #12]
  97:Drivers/lvgl/src/misc/lv_iter.c ****     if(iter->peek_buf != NULL) lv_circle_buf_destroy(iter->peek_buf);
 236              		.loc 1 97 7 view .LVU75
 237 0008 5BB9     		cbnz	r3, .L22
 238              	.LVL19:
 239              	.L18:
  98:Drivers/lvgl/src/misc/lv_iter.c **** 
 240              		.loc 1 98 5 is_stmt 1 view .LVU76
  98:Drivers/lvgl/src/misc/lv_iter.c **** 
 241              		.loc 1 98 12 is_stmt 0 view .LVU77
 242 000a 2069     		ldr	r0, [r4, #16]
  98:Drivers/lvgl/src/misc/lv_iter.c **** 
ARM GAS  /tmp/ccRW1zvv.s 			page 10


 243              		.loc 1 98 7 view .LVU78
 244 000c 08B1     		cbz	r0, .L19
  98:Drivers/lvgl/src/misc/lv_iter.c **** 
 245              		.loc 1 98 32 is_stmt 1 discriminator 1 view .LVU79
 246 000e FFF7FEFF 		bl	lv_circle_buf_destroy
 247              	.LVL20:
 248              	.L19:
 100:Drivers/lvgl/src/misc/lv_iter.c ****     iter->peek_buf = NULL;
 249              		.loc 1 100 5 view .LVU80
 100:Drivers/lvgl/src/misc/lv_iter.c ****     iter->peek_buf = NULL;
 250              		.loc 1 100 19 is_stmt 0 view .LVU81
 251 0012 0023     		movs	r3, #0
 252 0014 A360     		str	r3, [r4, #8]
 101:Drivers/lvgl/src/misc/lv_iter.c **** 
 253              		.loc 1 101 5 is_stmt 1 view .LVU82
 101:Drivers/lvgl/src/misc/lv_iter.c **** 
 254              		.loc 1 101 20 is_stmt 0 view .LVU83
 255 0016 2361     		str	r3, [r4, #16]
 103:Drivers/lvgl/src/misc/lv_iter.c **** }
 256              		.loc 1 103 5 is_stmt 1 view .LVU84
 257 0018 2046     		mov	r0, r4
 258 001a FFF7FEFF 		bl	lv_free
 259              	.LVL21:
 104:Drivers/lvgl/src/misc/lv_iter.c **** 
 260              		.loc 1 104 1 is_stmt 0 view .LVU85
 261 001e 10BD     		pop	{r4, pc}
 262              	.LVL22:
 263              	.L17:
 264              	.LCFI3:
 265              		.cfi_def_cfa_offset 0
 266              		.cfi_restore 4
 267              		.cfi_restore 14
  94:Drivers/lvgl/src/misc/lv_iter.c ****     if(iter == NULL) return;
 268              		.loc 1 94 5 is_stmt 1 discriminator 1 view .LVU86
  94:Drivers/lvgl/src/misc/lv_iter.c ****     if(iter == NULL) return;
 269              		.loc 1 94 5 discriminator 1 view .LVU87
  94:Drivers/lvgl/src/misc/lv_iter.c ****     if(iter == NULL) return;
 270              		.loc 1 94 5 discriminator 1 view .LVU88
  94:Drivers/lvgl/src/misc/lv_iter.c ****     if(iter == NULL) return;
 271              		.loc 1 94 5 discriminator 1 view .LVU89
  94:Drivers/lvgl/src/misc/lv_iter.c ****     if(iter == NULL) return;
 272              		.loc 1 94 5 discriminator 1 view .LVU90
 273 0020 FEE7     		b	.L17
 274              	.L22:
 275              	.LCFI4:
 276              		.cfi_def_cfa_offset 8
 277              		.cfi_offset 4, -8
 278              		.cfi_offset 14, -4
  97:Drivers/lvgl/src/misc/lv_iter.c ****     if(iter->peek_buf != NULL) lv_circle_buf_destroy(iter->peek_buf);
 279              		.loc 1 97 32 discriminator 1 view .LVU91
 280 0022 8068     		ldr	r0, [r0, #8]
 281              	.LVL23:
  97:Drivers/lvgl/src/misc/lv_iter.c ****     if(iter->peek_buf != NULL) lv_circle_buf_destroy(iter->peek_buf);
 282              		.loc 1 97 32 is_stmt 0 discriminator 1 view .LVU92
 283 0024 FFF7FEFF 		bl	lv_free
 284              	.LVL24:
 285 0028 EFE7     		b	.L18
ARM GAS  /tmp/ccRW1zvv.s 			page 11


 286              		.cfi_endproc
 287              	.LFE4:
 289              		.section	.text.lv_iter_make_peekable,"ax",%progbits
 290              		.align	1
 291              		.global	lv_iter_make_peekable
 292              		.syntax unified
 293              		.thumb
 294              		.thumb_func
 296              	lv_iter_make_peekable:
 297              	.LVL25:
 298              	.LFB5:
 107:Drivers/lvgl/src/misc/lv_iter.c ****     LV_ASSERT_NULL(iter);
 299              		.loc 1 107 1 is_stmt 1 view -0
 300              		.cfi_startproc
 301              		@ args = 0, pretend = 0, frame = 0
 302              		@ frame_needed = 0, uses_anonymous_args = 0
 108:Drivers/lvgl/src/misc/lv_iter.c ****     if(iter == NULL) return;
 303              		.loc 1 108 5 view .LVU94
 108:Drivers/lvgl/src/misc/lv_iter.c ****     if(iter == NULL) return;
 304              		.loc 1 108 5 view .LVU95
 305 0000 30B1     		cbz	r0, .L25
 107:Drivers/lvgl/src/misc/lv_iter.c ****     LV_ASSERT_NULL(iter);
 306              		.loc 1 107 1 is_stmt 0 view .LVU96
 307 0002 10B5     		push	{r4, lr}
 308              	.LCFI5:
 309              		.cfi_def_cfa_offset 8
 310              		.cfi_offset 4, -8
 311              		.cfi_offset 14, -4
 312 0004 0B46     		mov	r3, r1
 313 0006 0446     		mov	r4, r0
 108:Drivers/lvgl/src/misc/lv_iter.c ****     if(iter == NULL) return;
 314              		.loc 1 108 5 is_stmt 1 discriminator 2 view .LVU97
 108:Drivers/lvgl/src/misc/lv_iter.c ****     if(iter == NULL) return;
 315              		.loc 1 108 25 discriminator 2 view .LVU98
 109:Drivers/lvgl/src/misc/lv_iter.c **** 
 316              		.loc 1 109 5 view .LVU99
 111:Drivers/lvgl/src/misc/lv_iter.c ****     iter->peek_buf = lv_circle_buf_create(capacity, iter->elem_size);
 317              		.loc 1 111 5 view .LVU100
 111:Drivers/lvgl/src/misc/lv_iter.c ****     iter->peek_buf = lv_circle_buf_create(capacity, iter->elem_size);
 318              		.loc 1 111 7 is_stmt 0 view .LVU101
 319 0008 09B1     		cbz	r1, .L23
 111:Drivers/lvgl/src/misc/lv_iter.c ****     iter->peek_buf = lv_circle_buf_create(capacity, iter->elem_size);
 320              		.loc 1 111 29 discriminator 2 view .LVU102
 321 000a 0269     		ldr	r2, [r0, #16]
 111:Drivers/lvgl/src/misc/lv_iter.c ****     iter->peek_buf = lv_circle_buf_create(capacity, iter->elem_size);
 322              		.loc 1 111 22 discriminator 2 view .LVU103
 323 000c 0AB1     		cbz	r2, .L30
 324              	.LVL26:
 325              	.L23:
 114:Drivers/lvgl/src/misc/lv_iter.c **** 
 326              		.loc 1 114 1 view .LVU104
 327 000e 10BD     		pop	{r4, pc}
 328              	.LVL27:
 329              	.L25:
 330              	.LCFI6:
 331              		.cfi_def_cfa_offset 0
 332              		.cfi_restore 4
ARM GAS  /tmp/ccRW1zvv.s 			page 12


 333              		.cfi_restore 14
 108:Drivers/lvgl/src/misc/lv_iter.c ****     if(iter == NULL) return;
 334              		.loc 1 108 5 is_stmt 1 discriminator 1 view .LVU105
 108:Drivers/lvgl/src/misc/lv_iter.c ****     if(iter == NULL) return;
 335              		.loc 1 108 5 discriminator 1 view .LVU106
 108:Drivers/lvgl/src/misc/lv_iter.c ****     if(iter == NULL) return;
 336              		.loc 1 108 5 discriminator 1 view .LVU107
 108:Drivers/lvgl/src/misc/lv_iter.c ****     if(iter == NULL) return;
 337              		.loc 1 108 5 discriminator 1 view .LVU108
 108:Drivers/lvgl/src/misc/lv_iter.c ****     if(iter == NULL) return;
 338              		.loc 1 108 5 discriminator 1 view .LVU109
 339 0010 FEE7     		b	.L25
 340              	.L30:
 341              	.LCFI7:
 342              		.cfi_def_cfa_offset 8
 343              		.cfi_offset 4, -8
 344              		.cfi_offset 14, -4
 112:Drivers/lvgl/src/misc/lv_iter.c ****     LV_ASSERT_NULL(iter->peek_buf);
 345              		.loc 1 112 5 view .LVU110
 112:Drivers/lvgl/src/misc/lv_iter.c ****     LV_ASSERT_NULL(iter->peek_buf);
 346              		.loc 1 112 22 is_stmt 0 view .LVU111
 347 0012 4168     		ldr	r1, [r0, #4]
 348              	.LVL28:
 112:Drivers/lvgl/src/misc/lv_iter.c ****     LV_ASSERT_NULL(iter->peek_buf);
 349              		.loc 1 112 22 view .LVU112
 350 0014 1846     		mov	r0, r3
 351              	.LVL29:
 112:Drivers/lvgl/src/misc/lv_iter.c ****     LV_ASSERT_NULL(iter->peek_buf);
 352              		.loc 1 112 22 view .LVU113
 353 0016 FFF7FEFF 		bl	lv_circle_buf_create
 354              	.LVL30:
 112:Drivers/lvgl/src/misc/lv_iter.c ****     LV_ASSERT_NULL(iter->peek_buf);
 355              		.loc 1 112 20 discriminator 1 view .LVU114
 356 001a 2061     		str	r0, [r4, #16]
 113:Drivers/lvgl/src/misc/lv_iter.c **** }
 357              		.loc 1 113 5 is_stmt 1 view .LVU115
 113:Drivers/lvgl/src/misc/lv_iter.c **** }
 358              		.loc 1 113 5 view .LVU116
 359 001c 0028     		cmp	r0, #0
 360 001e F6D1     		bne	.L23
 361              	.L27:
 113:Drivers/lvgl/src/misc/lv_iter.c **** }
 362              		.loc 1 113 5 discriminator 1 view .LVU117
 113:Drivers/lvgl/src/misc/lv_iter.c **** }
 363              		.loc 1 113 5 discriminator 1 view .LVU118
 113:Drivers/lvgl/src/misc/lv_iter.c **** }
 364              		.loc 1 113 5 discriminator 1 view .LVU119
 113:Drivers/lvgl/src/misc/lv_iter.c **** }
 365              		.loc 1 113 5 discriminator 1 view .LVU120
 113:Drivers/lvgl/src/misc/lv_iter.c **** }
 366              		.loc 1 113 5 discriminator 1 view .LVU121
 367 0020 FEE7     		b	.L27
 368              		.cfi_endproc
 369              	.LFE5:
 371              		.section	.text.lv_iter_next,"ax",%progbits
 372              		.align	1
 373              		.global	lv_iter_next
ARM GAS  /tmp/ccRW1zvv.s 			page 13


 374              		.syntax unified
 375              		.thumb
 376              		.thumb_func
 378              	lv_iter_next:
 379              	.LVL31:
 380              	.LFB6:
 117:Drivers/lvgl/src/misc/lv_iter.c ****     LV_ASSERT_NULL(iter);
 381              		.loc 1 117 1 view -0
 382              		.cfi_startproc
 383              		@ args = 0, pretend = 0, frame = 0
 384              		@ frame_needed = 0, uses_anonymous_args = 0
 118:Drivers/lvgl/src/misc/lv_iter.c ****     if(iter == NULL) return LV_RESULT_INVALID;
 385              		.loc 1 118 5 view .LVU123
 118:Drivers/lvgl/src/misc/lv_iter.c ****     if(iter == NULL) return LV_RESULT_INVALID;
 386              		.loc 1 118 5 view .LVU124
 387 0000 90B1     		cbz	r0, .L33
 117:Drivers/lvgl/src/misc/lv_iter.c ****     LV_ASSERT_NULL(iter);
 388              		.loc 1 117 1 is_stmt 0 view .LVU125
 389 0002 70B5     		push	{r4, r5, r6, lr}
 390              	.LCFI8:
 391              		.cfi_def_cfa_offset 16
 392              		.cfi_offset 4, -16
 393              		.cfi_offset 5, -12
 394              		.cfi_offset 6, -8
 395              		.cfi_offset 14, -4
 396 0004 0C46     		mov	r4, r1
 397 0006 0546     		mov	r5, r0
 118:Drivers/lvgl/src/misc/lv_iter.c ****     if(iter == NULL) return LV_RESULT_INVALID;
 398              		.loc 1 118 5 is_stmt 1 discriminator 2 view .LVU126
 118:Drivers/lvgl/src/misc/lv_iter.c ****     if(iter == NULL) return LV_RESULT_INVALID;
 399              		.loc 1 118 25 discriminator 2 view .LVU127
 119:Drivers/lvgl/src/misc/lv_iter.c **** 
 400              		.loc 1 119 5 view .LVU128
 121:Drivers/lvgl/src/misc/lv_iter.c ****     if(c_buf != NULL && !lv_circle_buf_is_empty(c_buf)) {
 401              		.loc 1 121 5 view .LVU129
 121:Drivers/lvgl/src/misc/lv_iter.c ****     if(c_buf != NULL && !lv_circle_buf_is_empty(c_buf)) {
 402              		.loc 1 121 23 is_stmt 0 view .LVU130
 403 0008 0669     		ldr	r6, [r0, #16]
 404              	.LVL32:
 122:Drivers/lvgl/src/misc/lv_iter.c ****         if(elem) lv_circle_buf_read(c_buf, elem);
 405              		.loc 1 122 5 is_stmt 1 view .LVU131
 122:Drivers/lvgl/src/misc/lv_iter.c ****         if(elem) lv_circle_buf_read(c_buf, elem);
 406              		.loc 1 122 7 is_stmt 0 view .LVU132
 407 000a 1EB1     		cbz	r6, .L34
 122:Drivers/lvgl/src/misc/lv_iter.c ****         if(elem) lv_circle_buf_read(c_buf, elem);
 408              		.loc 1 122 26 discriminator 1 view .LVU133
 409 000c 3046     		mov	r0, r6
 410              	.LVL33:
 122:Drivers/lvgl/src/misc/lv_iter.c ****         if(elem) lv_circle_buf_read(c_buf, elem);
 411              		.loc 1 122 26 discriminator 1 view .LVU134
 412 000e FFF7FEFF 		bl	lv_circle_buf_is_empty
 413              	.LVL34:
 122:Drivers/lvgl/src/misc/lv_iter.c ****         if(elem) lv_circle_buf_read(c_buf, elem);
 414              		.loc 1 122 22 discriminator 1 view .LVU135
 415 0012 50B1     		cbz	r0, .L40
 416              	.L34:
 129:Drivers/lvgl/src/misc/lv_iter.c ****     if(iter_res == LV_RESULT_INVALID) return LV_RESULT_INVALID;
ARM GAS  /tmp/ccRW1zvv.s 			page 14


 417              		.loc 1 129 5 is_stmt 1 view .LVU136
 129:Drivers/lvgl/src/misc/lv_iter.c ****     if(iter_res == LV_RESULT_INVALID) return LV_RESULT_INVALID;
 418              		.loc 1 129 38 is_stmt 0 view .LVU137
 419 0014 AB69     		ldr	r3, [r5, #24]
 129:Drivers/lvgl/src/misc/lv_iter.c ****     if(iter_res == LV_RESULT_INVALID) return LV_RESULT_INVALID;
 420              		.loc 1 129 34 view .LVU138
 421 0016 2246     		mov	r2, r4
 422 0018 A968     		ldr	r1, [r5, #8]
 423 001a 2868     		ldr	r0, [r5]
 424 001c 9847     		blx	r3
 425              	.LVL35:
 130:Drivers/lvgl/src/misc/lv_iter.c **** 
 426              		.loc 1 130 5 is_stmt 1 view .LVU139
 130:Drivers/lvgl/src/misc/lv_iter.c **** 
 427              		.loc 1 130 7 is_stmt 0 view .LVU140
 428 001e 10B1     		cbz	r0, .L37
 132:Drivers/lvgl/src/misc/lv_iter.c **** 
 429              		.loc 1 132 5 is_stmt 1 view .LVU141
 132:Drivers/lvgl/src/misc/lv_iter.c **** 
 430              		.loc 1 132 7 is_stmt 0 view .LVU142
 431 0020 0EB1     		cbz	r6, .L37
 132:Drivers/lvgl/src/misc/lv_iter.c **** 
 432              		.loc 1 132 23 is_stmt 1 discriminator 1 view .LVU143
 132:Drivers/lvgl/src/misc/lv_iter.c **** 
 433              		.loc 1 132 41 is_stmt 0 discriminator 1 view .LVU144
 434 0022 0023     		movs	r3, #0
 435 0024 6B61     		str	r3, [r5, #20]
 436              	.LVL36:
 437              	.L37:
 135:Drivers/lvgl/src/misc/lv_iter.c **** 
 438              		.loc 1 135 1 view .LVU145
 439 0026 70BD     		pop	{r4, r5, r6, pc}
 440              	.LVL37:
 441              	.L33:
 442              	.LCFI9:
 443              		.cfi_def_cfa_offset 0
 444              		.cfi_restore 4
 445              		.cfi_restore 5
 446              		.cfi_restore 6
 447              		.cfi_restore 14
 118:Drivers/lvgl/src/misc/lv_iter.c ****     if(iter == NULL) return LV_RESULT_INVALID;
 448              		.loc 1 118 5 is_stmt 1 discriminator 1 view .LVU146
 118:Drivers/lvgl/src/misc/lv_iter.c ****     if(iter == NULL) return LV_RESULT_INVALID;
 449              		.loc 1 118 5 discriminator 1 view .LVU147
 118:Drivers/lvgl/src/misc/lv_iter.c ****     if(iter == NULL) return LV_RESULT_INVALID;
 450              		.loc 1 118 5 discriminator 1 view .LVU148
 118:Drivers/lvgl/src/misc/lv_iter.c ****     if(iter == NULL) return LV_RESULT_INVALID;
 451              		.loc 1 118 5 discriminator 1 view .LVU149
 118:Drivers/lvgl/src/misc/lv_iter.c ****     if(iter == NULL) return LV_RESULT_INVALID;
 452              		.loc 1 118 5 discriminator 1 view .LVU150
 453 0028 FEE7     		b	.L33
 454              	.LVL38:
 455              	.L40:
 456              	.LCFI10:
 457              		.cfi_def_cfa_offset 16
 458              		.cfi_offset 4, -16
 459              		.cfi_offset 5, -12
ARM GAS  /tmp/ccRW1zvv.s 			page 15


 460              		.cfi_offset 6, -8
 461              		.cfi_offset 14, -4
 123:Drivers/lvgl/src/misc/lv_iter.c ****         else lv_circle_buf_skip(c_buf);
 462              		.loc 1 123 9 view .LVU151
 123:Drivers/lvgl/src/misc/lv_iter.c ****         else lv_circle_buf_skip(c_buf);
 463              		.loc 1 123 11 is_stmt 0 view .LVU152
 464 002a 3CB1     		cbz	r4, .L35
 123:Drivers/lvgl/src/misc/lv_iter.c ****         else lv_circle_buf_skip(c_buf);
 465              		.loc 1 123 18 is_stmt 1 discriminator 1 view .LVU153
 466 002c 2146     		mov	r1, r4
 467 002e 3046     		mov	r0, r6
 468 0030 FFF7FEFF 		bl	lv_circle_buf_read
 469              	.LVL39:
 470              	.L36:
 125:Drivers/lvgl/src/misc/lv_iter.c ****         return LV_RESULT_OK;
 471              		.loc 1 125 9 view .LVU154
 125:Drivers/lvgl/src/misc/lv_iter.c ****         return LV_RESULT_OK;
 472              		.loc 1 125 27 is_stmt 0 view .LVU155
 473 0034 0023     		movs	r3, #0
 474 0036 6B61     		str	r3, [r5, #20]
 126:Drivers/lvgl/src/misc/lv_iter.c ****     }
 475              		.loc 1 126 9 is_stmt 1 view .LVU156
 126:Drivers/lvgl/src/misc/lv_iter.c ****     }
 476              		.loc 1 126 16 is_stmt 0 view .LVU157
 477 0038 0120     		movs	r0, #1
 478 003a F4E7     		b	.L37
 479              	.L35:
 124:Drivers/lvgl/src/misc/lv_iter.c ****         iter->peek_offset = 0;
 480              		.loc 1 124 14 is_stmt 1 view .LVU158
 481 003c 3046     		mov	r0, r6
 482 003e FFF7FEFF 		bl	lv_circle_buf_skip
 483              	.LVL40:
 484 0042 F7E7     		b	.L36
 485              		.cfi_endproc
 486              	.LFE6:
 488              		.section	.text.lv_iter_peek,"ax",%progbits
 489              		.align	1
 490              		.global	lv_iter_peek
 491              		.syntax unified
 492              		.thumb
 493              		.thumb_func
 495              	lv_iter_peek:
 496              	.LVL41:
 497              	.LFB7:
 138:Drivers/lvgl/src/misc/lv_iter.c ****     LV_ASSERT_NULL(iter);
 498              		.loc 1 138 1 view -0
 499              		.cfi_startproc
 500              		@ args = 0, pretend = 0, frame = 0
 501              		@ frame_needed = 0, uses_anonymous_args = 0
 139:Drivers/lvgl/src/misc/lv_iter.c ****     if(iter == NULL) return LV_RESULT_INVALID;
 502              		.loc 1 139 5 view .LVU160
 139:Drivers/lvgl/src/misc/lv_iter.c ****     if(iter == NULL) return LV_RESULT_INVALID;
 503              		.loc 1 139 5 view .LVU161
 504 0000 D8B1     		cbz	r0, .L43
 138:Drivers/lvgl/src/misc/lv_iter.c ****     LV_ASSERT_NULL(iter);
 505              		.loc 1 138 1 is_stmt 0 view .LVU162
 506 0002 F8B5     		push	{r3, r4, r5, r6, r7, lr}
ARM GAS  /tmp/ccRW1zvv.s 			page 16


 507              	.LCFI11:
 508              		.cfi_def_cfa_offset 24
 509              		.cfi_offset 3, -24
 510              		.cfi_offset 4, -20
 511              		.cfi_offset 5, -16
 512              		.cfi_offset 6, -12
 513              		.cfi_offset 7, -8
 514              		.cfi_offset 14, -4
 515 0004 0C46     		mov	r4, r1
 516 0006 0546     		mov	r5, r0
 139:Drivers/lvgl/src/misc/lv_iter.c ****     if(iter == NULL) return LV_RESULT_INVALID;
 517              		.loc 1 139 5 is_stmt 1 discriminator 2 view .LVU163
 139:Drivers/lvgl/src/misc/lv_iter.c ****     if(iter == NULL) return LV_RESULT_INVALID;
 518              		.loc 1 139 25 discriminator 2 view .LVU164
 140:Drivers/lvgl/src/misc/lv_iter.c **** 
 519              		.loc 1 140 5 view .LVU165
 142:Drivers/lvgl/src/misc/lv_iter.c ****     if(c_buf == NULL) return LV_RESULT_INVALID;
 520              		.loc 1 142 5 view .LVU166
 142:Drivers/lvgl/src/misc/lv_iter.c ****     if(c_buf == NULL) return LV_RESULT_INVALID;
 521              		.loc 1 142 23 is_stmt 0 view .LVU167
 522 0008 0669     		ldr	r6, [r0, #16]
 523              	.LVL42:
 143:Drivers/lvgl/src/misc/lv_iter.c **** 
 524              		.loc 1 143 5 is_stmt 1 view .LVU168
 143:Drivers/lvgl/src/misc/lv_iter.c **** 
 525              		.loc 1 143 7 is_stmt 0 view .LVU169
 526 000a BEB1     		cbz	r6, .L46
 145:Drivers/lvgl/src/misc/lv_iter.c ****     if(iter->peek_offset >= peek_count) {
 527              		.loc 1 145 5 is_stmt 1 view .LVU170
 145:Drivers/lvgl/src/misc/lv_iter.c ****     if(iter->peek_offset >= peek_count) {
 528              		.loc 1 145 33 is_stmt 0 view .LVU171
 529 000c 3046     		mov	r0, r6
 530              	.LVL43:
 145:Drivers/lvgl/src/misc/lv_iter.c ****     if(iter->peek_offset >= peek_count) {
 531              		.loc 1 145 33 view .LVU172
 532 000e FFF7FEFF 		bl	lv_circle_buf_size
 533              	.LVL44:
 146:Drivers/lvgl/src/misc/lv_iter.c ****         const uint32_t required = iter->peek_offset + 1 - peek_count;
 534              		.loc 1 146 5 is_stmt 1 view .LVU173
 146:Drivers/lvgl/src/misc/lv_iter.c ****         const uint32_t required = iter->peek_offset + 1 - peek_count;
 535              		.loc 1 146 12 is_stmt 0 view .LVU174
 536 0012 6B69     		ldr	r3, [r5, #20]
 146:Drivers/lvgl/src/misc/lv_iter.c ****         const uint32_t required = iter->peek_offset + 1 - peek_count;
 537              		.loc 1 146 7 view .LVU175
 538 0014 8342     		cmp	r3, r0
 539 0016 09D3     		bcc	.L45
 540              	.LBB2:
 147:Drivers/lvgl/src/misc/lv_iter.c ****         const uint32_t filled = lv_circle_buf_fill(c_buf, required, peek_fill_cb, iter);
 541              		.loc 1 147 9 is_stmt 1 view .LVU176
 147:Drivers/lvgl/src/misc/lv_iter.c ****         const uint32_t filled = lv_circle_buf_fill(c_buf, required, peek_fill_cb, iter);
 542              		.loc 1 147 57 is_stmt 0 view .LVU177
 543 0018 1B1A     		subs	r3, r3, r0
 147:Drivers/lvgl/src/misc/lv_iter.c ****         const uint32_t filled = lv_circle_buf_fill(c_buf, required, peek_fill_cb, iter);
 544              		.loc 1 147 24 view .LVU178
 545 001a 5F1C     		adds	r7, r3, #1
 546              	.LVL45:
 148:Drivers/lvgl/src/misc/lv_iter.c ****         if(filled != required) return LV_RESULT_INVALID;
ARM GAS  /tmp/ccRW1zvv.s 			page 17


 547              		.loc 1 148 9 is_stmt 1 view .LVU179
 148:Drivers/lvgl/src/misc/lv_iter.c ****         if(filled != required) return LV_RESULT_INVALID;
 548              		.loc 1 148 33 is_stmt 0 view .LVU180
 549 001c 2B46     		mov	r3, r5
 550 001e 094A     		ldr	r2, .L50
 551 0020 3946     		mov	r1, r7
 552 0022 3046     		mov	r0, r6
 553              	.LVL46:
 148:Drivers/lvgl/src/misc/lv_iter.c ****         if(filled != required) return LV_RESULT_INVALID;
 554              		.loc 1 148 33 view .LVU181
 555 0024 FFF7FEFF 		bl	lv_circle_buf_fill
 556              	.LVL47:
 149:Drivers/lvgl/src/misc/lv_iter.c ****     }
 557              		.loc 1 149 9 is_stmt 1 view .LVU182
 149:Drivers/lvgl/src/misc/lv_iter.c ****     }
 558              		.loc 1 149 11 is_stmt 0 view .LVU183
 559 0028 8742     		cmp	r7, r0
 560 002a 09D1     		bne	.L47
 561              	.LVL48:
 562              	.L45:
 149:Drivers/lvgl/src/misc/lv_iter.c ****     }
 563              		.loc 1 149 11 view .LVU184
 564              	.LBE2:
 152:Drivers/lvgl/src/misc/lv_iter.c **** 
 565              		.loc 1 152 5 is_stmt 1 view .LVU185
 566 002c 2246     		mov	r2, r4
 567 002e 6969     		ldr	r1, [r5, #20]
 568 0030 3046     		mov	r0, r6
 569 0032 FFF7FEFF 		bl	lv_circle_buf_peek_at
 570              	.LVL49:
 154:Drivers/lvgl/src/misc/lv_iter.c **** }
 571              		.loc 1 154 5 view .LVU186
 154:Drivers/lvgl/src/misc/lv_iter.c **** }
 572              		.loc 1 154 12 is_stmt 0 view .LVU187
 573 0036 0120     		movs	r0, #1
 574              	.LVL50:
 575              	.L44:
 155:Drivers/lvgl/src/misc/lv_iter.c **** 
 576              		.loc 1 155 1 view .LVU188
 577 0038 F8BD     		pop	{r3, r4, r5, r6, r7, pc}
 578              	.LVL51:
 579              	.L43:
 580              	.LCFI12:
 581              		.cfi_def_cfa_offset 0
 582              		.cfi_restore 3
 583              		.cfi_restore 4
 584              		.cfi_restore 5
 585              		.cfi_restore 6
 586              		.cfi_restore 7
 587              		.cfi_restore 14
 139:Drivers/lvgl/src/misc/lv_iter.c ****     if(iter == NULL) return LV_RESULT_INVALID;
 588              		.loc 1 139 5 is_stmt 1 discriminator 1 view .LVU189
 139:Drivers/lvgl/src/misc/lv_iter.c ****     if(iter == NULL) return LV_RESULT_INVALID;
 589              		.loc 1 139 5 discriminator 1 view .LVU190
 139:Drivers/lvgl/src/misc/lv_iter.c ****     if(iter == NULL) return LV_RESULT_INVALID;
 590              		.loc 1 139 5 discriminator 1 view .LVU191
 139:Drivers/lvgl/src/misc/lv_iter.c ****     if(iter == NULL) return LV_RESULT_INVALID;
ARM GAS  /tmp/ccRW1zvv.s 			page 18


 591              		.loc 1 139 5 discriminator 1 view .LVU192
 139:Drivers/lvgl/src/misc/lv_iter.c ****     if(iter == NULL) return LV_RESULT_INVALID;
 592              		.loc 1 139 5 discriminator 1 view .LVU193
 593 003a FEE7     		b	.L43
 594              	.LVL52:
 595              	.L46:
 596              	.LCFI13:
 597              		.cfi_def_cfa_offset 24
 598              		.cfi_offset 3, -24
 599              		.cfi_offset 4, -20
 600              		.cfi_offset 5, -16
 601              		.cfi_offset 6, -12
 602              		.cfi_offset 7, -8
 603              		.cfi_offset 14, -4
 143:Drivers/lvgl/src/misc/lv_iter.c **** 
 604              		.loc 1 143 30 is_stmt 0 discriminator 1 view .LVU194
 605 003c 0020     		movs	r0, #0
 606              	.LVL53:
 143:Drivers/lvgl/src/misc/lv_iter.c **** 
 607              		.loc 1 143 30 discriminator 1 view .LVU195
 608 003e FBE7     		b	.L44
 609              	.LVL54:
 610              	.L47:
 611              	.LBB3:
 149:Drivers/lvgl/src/misc/lv_iter.c ****     }
 612              		.loc 1 149 39 discriminator 1 view .LVU196
 613 0040 0020     		movs	r0, #0
 614              	.LVL55:
 149:Drivers/lvgl/src/misc/lv_iter.c ****     }
 615              		.loc 1 149 39 discriminator 1 view .LVU197
 616 0042 F9E7     		b	.L44
 617              	.L51:
 618              		.align	2
 619              	.L50:
 620 0044 00000000 		.word	peek_fill_cb
 621              	.LBE3:
 622              		.cfi_endproc
 623              	.LFE7:
 625              		.section	.text.lv_iter_peek_advance,"ax",%progbits
 626              		.align	1
 627              		.global	lv_iter_peek_advance
 628              		.syntax unified
 629              		.thumb
 630              		.thumb_func
 632              	lv_iter_peek_advance:
 633              	.LVL56:
 634              	.LFB8:
 158:Drivers/lvgl/src/misc/lv_iter.c ****     LV_ASSERT_NULL(iter);
 635              		.loc 1 158 1 is_stmt 1 view -0
 636              		.cfi_startproc
 637              		@ args = 0, pretend = 0, frame = 0
 638              		@ frame_needed = 0, uses_anonymous_args = 0
 159:Drivers/lvgl/src/misc/lv_iter.c ****     if(iter == NULL) return LV_RESULT_INVALID;
 639              		.loc 1 159 5 view .LVU199
 159:Drivers/lvgl/src/misc/lv_iter.c ****     if(iter == NULL) return LV_RESULT_INVALID;
 640              		.loc 1 159 5 view .LVU200
 641 0000 70B1     		cbz	r0, .L54
ARM GAS  /tmp/ccRW1zvv.s 			page 19


 158:Drivers/lvgl/src/misc/lv_iter.c ****     LV_ASSERT_NULL(iter);
 642              		.loc 1 158 1 is_stmt 0 view .LVU201
 643 0002 38B5     		push	{r3, r4, r5, lr}
 644              	.LCFI14:
 645              		.cfi_def_cfa_offset 16
 646              		.cfi_offset 3, -16
 647              		.cfi_offset 4, -12
 648              		.cfi_offset 5, -8
 649              		.cfi_offset 14, -4
 650 0004 0446     		mov	r4, r0
 159:Drivers/lvgl/src/misc/lv_iter.c ****     if(iter == NULL) return LV_RESULT_INVALID;
 651              		.loc 1 159 5 is_stmt 1 discriminator 2 view .LVU202
 159:Drivers/lvgl/src/misc/lv_iter.c ****     if(iter == NULL) return LV_RESULT_INVALID;
 652              		.loc 1 159 25 discriminator 2 view .LVU203
 160:Drivers/lvgl/src/misc/lv_iter.c **** 
 653              		.loc 1 160 5 view .LVU204
 162:Drivers/lvgl/src/misc/lv_iter.c ****         return LV_RESULT_INVALID;
 654              		.loc 1 162 5 view .LVU205
 162:Drivers/lvgl/src/misc/lv_iter.c ****         return LV_RESULT_INVALID;
 655              		.loc 1 162 12 is_stmt 0 view .LVU206
 656 0006 0069     		ldr	r0, [r0, #16]
 657              	.LVL57:
 162:Drivers/lvgl/src/misc/lv_iter.c ****         return LV_RESULT_INVALID;
 658              		.loc 1 162 7 view .LVU207
 659 0008 58B1     		cbz	r0, .L55
 162:Drivers/lvgl/src/misc/lv_iter.c ****         return LV_RESULT_INVALID;
 660              		.loc 1 162 38 discriminator 1 view .LVU208
 661 000a 6569     		ldr	r5, [r4, #20]
 162:Drivers/lvgl/src/misc/lv_iter.c ****         return LV_RESULT_INVALID;
 662              		.loc 1 162 52 discriminator 1 view .LVU209
 663 000c 0135     		adds	r5, r5, #1
 162:Drivers/lvgl/src/misc/lv_iter.c ****         return LV_RESULT_INVALID;
 664              		.loc 1 162 59 discriminator 1 view .LVU210
 665 000e FFF7FEFF 		bl	lv_circle_buf_capacity
 666              	.LVL58:
 162:Drivers/lvgl/src/misc/lv_iter.c ****         return LV_RESULT_INVALID;
 667              		.loc 1 162 31 discriminator 1 view .LVU211
 668 0012 8542     		cmp	r5, r0
 669 0014 05D2     		bcs	.L55
 164:Drivers/lvgl/src/misc/lv_iter.c ****     return LV_RESULT_OK;
 670              		.loc 1 164 5 is_stmt 1 view .LVU212
 164:Drivers/lvgl/src/misc/lv_iter.c ****     return LV_RESULT_OK;
 671              		.loc 1 164 9 is_stmt 0 view .LVU213
 672 0016 6369     		ldr	r3, [r4, #20]
 164:Drivers/lvgl/src/misc/lv_iter.c ****     return LV_RESULT_OK;
 673              		.loc 1 164 22 view .LVU214
 674 0018 0133     		adds	r3, r3, #1
 675 001a 6361     		str	r3, [r4, #20]
 165:Drivers/lvgl/src/misc/lv_iter.c **** }
 676              		.loc 1 165 5 is_stmt 1 view .LVU215
 165:Drivers/lvgl/src/misc/lv_iter.c **** }
 677              		.loc 1 165 12 is_stmt 0 view .LVU216
 678 001c 0120     		movs	r0, #1
 679 001e 01E0     		b	.L57
 680              	.LVL59:
 681              	.L54:
 682              	.LCFI15:
ARM GAS  /tmp/ccRW1zvv.s 			page 20


 683              		.cfi_def_cfa_offset 0
 684              		.cfi_restore 3
 685              		.cfi_restore 4
 686              		.cfi_restore 5
 687              		.cfi_restore 14
 159:Drivers/lvgl/src/misc/lv_iter.c ****     if(iter == NULL) return LV_RESULT_INVALID;
 688              		.loc 1 159 5 is_stmt 1 discriminator 1 view .LVU217
 159:Drivers/lvgl/src/misc/lv_iter.c ****     if(iter == NULL) return LV_RESULT_INVALID;
 689              		.loc 1 159 5 discriminator 1 view .LVU218
 159:Drivers/lvgl/src/misc/lv_iter.c ****     if(iter == NULL) return LV_RESULT_INVALID;
 690              		.loc 1 159 5 discriminator 1 view .LVU219
 159:Drivers/lvgl/src/misc/lv_iter.c ****     if(iter == NULL) return LV_RESULT_INVALID;
 691              		.loc 1 159 5 discriminator 1 view .LVU220
 159:Drivers/lvgl/src/misc/lv_iter.c ****     if(iter == NULL) return LV_RESULT_INVALID;
 692              		.loc 1 159 5 discriminator 1 view .LVU221
 693 0020 FEE7     		b	.L54
 694              	.LVL60:
 695              	.L55:
 696              	.LCFI16:
 697              		.cfi_def_cfa_offset 16
 698              		.cfi_offset 3, -16
 699              		.cfi_offset 4, -12
 700              		.cfi_offset 5, -8
 701              		.cfi_offset 14, -4
 163:Drivers/lvgl/src/misc/lv_iter.c ****     iter->peek_offset++;
 702              		.loc 1 163 9 view .LVU222
 163:Drivers/lvgl/src/misc/lv_iter.c ****     iter->peek_offset++;
 703              		.loc 1 163 16 is_stmt 0 view .LVU223
 704 0022 0020     		movs	r0, #0
 705              	.L57:
 166:Drivers/lvgl/src/misc/lv_iter.c **** 
 706              		.loc 1 166 1 view .LVU224
 707 0024 38BD     		pop	{r3, r4, r5, pc}
 166:Drivers/lvgl/src/misc/lv_iter.c **** 
 708              		.loc 1 166 1 view .LVU225
 709              		.cfi_endproc
 710              	.LFE8:
 712              		.section	.text.lv_iter_peek_reset,"ax",%progbits
 713              		.align	1
 714              		.global	lv_iter_peek_reset
 715              		.syntax unified
 716              		.thumb
 717              		.thumb_func
 719              	lv_iter_peek_reset:
 720              	.LVL61:
 721              	.LFB9:
 169:Drivers/lvgl/src/misc/lv_iter.c ****     LV_ASSERT_NULL(iter);
 722              		.loc 1 169 1 is_stmt 1 view -0
 723              		.cfi_startproc
 724              		@ args = 0, pretend = 0, frame = 0
 725              		@ frame_needed = 0, uses_anonymous_args = 0
 726              		@ link register save eliminated.
 170:Drivers/lvgl/src/misc/lv_iter.c ****     if(iter == NULL) return LV_RESULT_INVALID;
 727              		.loc 1 170 5 view .LVU227
 170:Drivers/lvgl/src/misc/lv_iter.c ****     if(iter == NULL) return LV_RESULT_INVALID;
 728              		.loc 1 170 5 view .LVU228
 729 0000 28B1     		cbz	r0, .L62
ARM GAS  /tmp/ccRW1zvv.s 			page 21


 170:Drivers/lvgl/src/misc/lv_iter.c ****     if(iter == NULL) return LV_RESULT_INVALID;
 730              		.loc 1 170 5 discriminator 2 view .LVU229
 170:Drivers/lvgl/src/misc/lv_iter.c ****     if(iter == NULL) return LV_RESULT_INVALID;
 731              		.loc 1 170 25 discriminator 2 view .LVU230
 171:Drivers/lvgl/src/misc/lv_iter.c **** 
 732              		.loc 1 171 5 view .LVU231
 173:Drivers/lvgl/src/misc/lv_iter.c **** 
 733              		.loc 1 173 5 view .LVU232
 173:Drivers/lvgl/src/misc/lv_iter.c **** 
 734              		.loc 1 173 12 is_stmt 0 view .LVU233
 735 0002 0269     		ldr	r2, [r0, #16]
 173:Drivers/lvgl/src/misc/lv_iter.c **** 
 736              		.loc 1 173 7 view .LVU234
 737 0004 22B1     		cbz	r2, .L64
 175:Drivers/lvgl/src/misc/lv_iter.c ****     return LV_RESULT_OK;
 738              		.loc 1 175 5 is_stmt 1 view .LVU235
 175:Drivers/lvgl/src/misc/lv_iter.c ****     return LV_RESULT_OK;
 739              		.loc 1 175 23 is_stmt 0 view .LVU236
 740 0006 0022     		movs	r2, #0
 741 0008 4261     		str	r2, [r0, #20]
 176:Drivers/lvgl/src/misc/lv_iter.c **** }
 742              		.loc 1 176 5 is_stmt 1 view .LVU237
 176:Drivers/lvgl/src/misc/lv_iter.c **** }
 743              		.loc 1 176 12 is_stmt 0 view .LVU238
 744 000a 0120     		movs	r0, #1
 745              	.LVL62:
 176:Drivers/lvgl/src/misc/lv_iter.c **** }
 746              		.loc 1 176 12 view .LVU239
 747 000c 7047     		bx	lr
 748              	.LVL63:
 749              	.L62:
 170:Drivers/lvgl/src/misc/lv_iter.c ****     if(iter == NULL) return LV_RESULT_INVALID;
 750              		.loc 1 170 5 is_stmt 1 discriminator 1 view .LVU240
 170:Drivers/lvgl/src/misc/lv_iter.c ****     if(iter == NULL) return LV_RESULT_INVALID;
 751              		.loc 1 170 5 discriminator 1 view .LVU241
 170:Drivers/lvgl/src/misc/lv_iter.c ****     if(iter == NULL) return LV_RESULT_INVALID;
 752              		.loc 1 170 5 discriminator 1 view .LVU242
 170:Drivers/lvgl/src/misc/lv_iter.c ****     if(iter == NULL) return LV_RESULT_INVALID;
 753              		.loc 1 170 5 discriminator 1 view .LVU243
 170:Drivers/lvgl/src/misc/lv_iter.c ****     if(iter == NULL) return LV_RESULT_INVALID;
 754              		.loc 1 170 5 discriminator 1 view .LVU244
 755 000e FEE7     		b	.L62
 756              	.L64:
 173:Drivers/lvgl/src/misc/lv_iter.c **** 
 757              		.loc 1 173 39 is_stmt 0 discriminator 1 view .LVU245
 758 0010 0020     		movs	r0, #0
 759              	.LVL64:
 177:Drivers/lvgl/src/misc/lv_iter.c **** 
 760              		.loc 1 177 1 view .LVU246
 761 0012 7047     		bx	lr
 762              		.cfi_endproc
 763              	.LFE9:
 765              		.section	.text.lv_iter_inspect,"ax",%progbits
 766              		.align	1
 767              		.global	lv_iter_inspect
 768              		.syntax unified
 769              		.thumb
ARM GAS  /tmp/ccRW1zvv.s 			page 22


 770              		.thumb_func
 772              	lv_iter_inspect:
 773              	.LVL65:
 774              	.LFB10:
 180:Drivers/lvgl/src/misc/lv_iter.c ****     LV_ASSERT_NULL(iter);
 775              		.loc 1 180 1 is_stmt 1 view -0
 776              		.cfi_startproc
 777              		@ args = 0, pretend = 0, frame = 0
 778              		@ frame_needed = 0, uses_anonymous_args = 0
 181:Drivers/lvgl/src/misc/lv_iter.c ****     if(iter == NULL) return;
 779              		.loc 1 181 5 view .LVU248
 181:Drivers/lvgl/src/misc/lv_iter.c ****     if(iter == NULL) return;
 780              		.loc 1 181 5 view .LVU249
 781 0000 40B1     		cbz	r0, .L67
 180:Drivers/lvgl/src/misc/lv_iter.c ****     LV_ASSERT_NULL(iter);
 782              		.loc 1 180 1 is_stmt 0 view .LVU250
 783 0002 70B5     		push	{r4, r5, r6, lr}
 784              	.LCFI17:
 785              		.cfi_def_cfa_offset 16
 786              		.cfi_offset 4, -16
 787              		.cfi_offset 5, -12
 788              		.cfi_offset 6, -8
 789              		.cfi_offset 14, -4
 790 0004 0D46     		mov	r5, r1
 791 0006 0646     		mov	r6, r0
 181:Drivers/lvgl/src/misc/lv_iter.c ****     if(iter == NULL) return;
 792              		.loc 1 181 5 is_stmt 1 discriminator 2 view .LVU251
 181:Drivers/lvgl/src/misc/lv_iter.c ****     if(iter == NULL) return;
 793              		.loc 1 181 25 discriminator 2 view .LVU252
 182:Drivers/lvgl/src/misc/lv_iter.c **** 
 794              		.loc 1 182 5 view .LVU253
 184:Drivers/lvgl/src/misc/lv_iter.c ****     LV_ASSERT_MALLOC(elem);
 795              		.loc 1 184 5 view .LVU254
 184:Drivers/lvgl/src/misc/lv_iter.c ****     LV_ASSERT_MALLOC(elem);
 796              		.loc 1 184 19 is_stmt 0 view .LVU255
 797 0008 4068     		ldr	r0, [r0, #4]
 798              	.LVL66:
 184:Drivers/lvgl/src/misc/lv_iter.c ****     LV_ASSERT_MALLOC(elem);
 799              		.loc 1 184 19 view .LVU256
 800 000a FFF7FEFF 		bl	lv_malloc_zeroed
 801              	.LVL67:
 185:Drivers/lvgl/src/misc/lv_iter.c **** 
 802              		.loc 1 185 5 is_stmt 1 view .LVU257
 185:Drivers/lvgl/src/misc/lv_iter.c **** 
 803              		.loc 1 185 5 view .LVU258
 804 000e 0446     		mov	r4, r0
 805 0010 18B9     		cbnz	r0, .L68
 806              	.L69:
 185:Drivers/lvgl/src/misc/lv_iter.c **** 
 807              		.loc 1 185 5 discriminator 1 view .LVU259
 185:Drivers/lvgl/src/misc/lv_iter.c **** 
 808              		.loc 1 185 5 discriminator 1 view .LVU260
 185:Drivers/lvgl/src/misc/lv_iter.c **** 
 809              		.loc 1 185 5 discriminator 1 view .LVU261
 185:Drivers/lvgl/src/misc/lv_iter.c **** 
 810              		.loc 1 185 5 discriminator 1 view .LVU262
 185:Drivers/lvgl/src/misc/lv_iter.c **** 
ARM GAS  /tmp/ccRW1zvv.s 			page 23


 811              		.loc 1 185 5 discriminator 1 view .LVU263
 812 0012 FEE7     		b	.L69
 813              	.LVL68:
 814              	.L67:
 815              	.LCFI18:
 816              		.cfi_def_cfa_offset 0
 817              		.cfi_restore 4
 818              		.cfi_restore 5
 819              		.cfi_restore 6
 820              		.cfi_restore 14
 181:Drivers/lvgl/src/misc/lv_iter.c ****     if(iter == NULL) return;
 821              		.loc 1 181 5 discriminator 1 view .LVU264
 181:Drivers/lvgl/src/misc/lv_iter.c ****     if(iter == NULL) return;
 822              		.loc 1 181 5 discriminator 1 view .LVU265
 181:Drivers/lvgl/src/misc/lv_iter.c ****     if(iter == NULL) return;
 823              		.loc 1 181 5 discriminator 1 view .LVU266
 181:Drivers/lvgl/src/misc/lv_iter.c ****     if(iter == NULL) return;
 824              		.loc 1 181 5 discriminator 1 view .LVU267
 181:Drivers/lvgl/src/misc/lv_iter.c ****     if(iter == NULL) return;
 825              		.loc 1 181 5 discriminator 1 view .LVU268
 826 0014 FEE7     		b	.L67
 827              	.LVL69:
 828              	.L70:
 829              	.LCFI19:
 830              		.cfi_def_cfa_offset 16
 831              		.cfi_offset 4, -16
 832              		.cfi_offset 5, -12
 833              		.cfi_offset 6, -8
 834              		.cfi_offset 14, -4
 193:Drivers/lvgl/src/misc/lv_iter.c ****     }
 835              		.loc 1 193 9 view .LVU269
 836 0016 2046     		mov	r0, r4
 837 0018 A847     		blx	r5
 838              	.LVL70:
 839              	.L68:
 192:Drivers/lvgl/src/misc/lv_iter.c ****         inspect_cb(elem);
 840              		.loc 1 192 36 view .LVU270
 192:Drivers/lvgl/src/misc/lv_iter.c ****         inspect_cb(elem);
 841              		.loc 1 192 11 is_stmt 0 view .LVU271
 842 001a 2146     		mov	r1, r4
 843 001c 3046     		mov	r0, r6
 844 001e FFF7FEFF 		bl	lv_iter_next
 845              	.LVL71:
 192:Drivers/lvgl/src/misc/lv_iter.c ****         inspect_cb(elem);
 846              		.loc 1 192 36 discriminator 1 view .LVU272
 847 0022 0128     		cmp	r0, #1
 848 0024 F7D0     		beq	.L70
 196:Drivers/lvgl/src/misc/lv_iter.c **** }
 849              		.loc 1 196 5 is_stmt 1 view .LVU273
 850 0026 2046     		mov	r0, r4
 851 0028 FFF7FEFF 		bl	lv_free
 852              	.LVL72:
 197:Drivers/lvgl/src/misc/lv_iter.c **** 
 853              		.loc 1 197 1 is_stmt 0 view .LVU274
 854 002c 70BD     		pop	{r4, r5, r6, pc}
 197:Drivers/lvgl/src/misc/lv_iter.c **** 
 855              		.loc 1 197 1 view .LVU275
ARM GAS  /tmp/ccRW1zvv.s 			page 24


 856              		.cfi_endproc
 857              	.LFE10:
 859              		.text
 860              	.Letext0:
 861              		.file 2 "/usr/arm-none-eabi/include/machine/_default_types.h"
 862              		.file 3 "/usr/arm-none-eabi/include/sys/_stdint.h"
 863              		.file 4 "/usr/lib/gcc/arm-none-eabi/14.2.0/include/stddef.h"
 864              		.file 5 "Drivers/lvgl/src/misc/lv_types.h"
 865              		.file 6 "Drivers/lvgl/src/misc/lv_iter.h"
 866              		.file 7 "Drivers/lvgl/src/misc/lv_circle_buf.h"
 867              		.file 8 "Drivers/lvgl/src/misc/../stdlib/lv_mem.h"
ARM GAS  /tmp/ccRW1zvv.s 			page 25

