ARM GAS  /tmp/cc8wCd6s.s 			page 1


   1              		.cpu cortex-m7
   2              		.arch armv7e-m
   3              		.fpu fpv5-sp-d16
   4              		.eabi_attribute 27, 1
   5              		.eabi_attribute 28, 1
   6              		.eabi_attribute 20, 1
   7              		.eabi_attribute 21, 1
   8              		.eabi_attribute 23, 3
   9              		.eabi_attribute 24, 1
  10              		.eabi_attribute 25, 1
  11              		.eabi_attribute 26, 1
  12              		.eabi_attribute 30, 1
  13              		.eabi_attribute 34, 1
  14              		.eabi_attribute 18, 4
  15              		.file	"lv_init.c"
  16              		.text
  17              	.Ltext0:
  18              		.cfi_sections	.debug_frame
  19              		.file 1 "Drivers/lvgl/src/lv_init.c"
  20              		.section	.text.lv_global_init,"ax",%progbits
  21              		.align	1
  22              		.syntax unified
  23              		.thumb
  24              		.thumb_func
  26              	lv_global_init:
  27              	.LVL0:
  28              	.LFB186:
   1:Drivers/lvgl/src/lv_init.c **** /**
   2:Drivers/lvgl/src/lv_init.c ****  * @file lv_init.c
   3:Drivers/lvgl/src/lv_init.c ****  *
   4:Drivers/lvgl/src/lv_init.c ****  */
   5:Drivers/lvgl/src/lv_init.c **** 
   6:Drivers/lvgl/src/lv_init.c **** /*********************
   7:Drivers/lvgl/src/lv_init.c ****  *      INCLUDES
   8:Drivers/lvgl/src/lv_init.c ****  *********************/
   9:Drivers/lvgl/src/lv_init.c **** #include "misc/lv_timer_private.h"
  10:Drivers/lvgl/src/lv_init.c **** #include "misc/lv_profiler_builtin_private.h"
  11:Drivers/lvgl/src/lv_init.c **** #include "misc/lv_anim_private.h"
  12:Drivers/lvgl/src/lv_init.c **** #include "draw/lv_image_decoder_private.h"
  13:Drivers/lvgl/src/lv_init.c **** #include "draw/lv_draw_buf_private.h"
  14:Drivers/lvgl/src/lv_init.c **** #include "core/lv_refr_private.h"
  15:Drivers/lvgl/src/lv_init.c **** #include "core/lv_obj_style_private.h"
  16:Drivers/lvgl/src/lv_init.c **** #include "core/lv_group_private.h"
  17:Drivers/lvgl/src/lv_init.c **** #include "lv_init.h"
  18:Drivers/lvgl/src/lv_init.c **** #include "core/lv_global.h"
  19:Drivers/lvgl/src/lv_init.c **** #include "core/lv_obj.h"
  20:Drivers/lvgl/src/lv_init.c **** #include "display/lv_display_private.h"
  21:Drivers/lvgl/src/lv_init.c **** #include "indev/lv_indev_private.h"
  22:Drivers/lvgl/src/lv_init.c **** #include "layouts/lv_layout_private.h"
  23:Drivers/lvgl/src/lv_init.c **** #include "libs/bin_decoder/lv_bin_decoder.h"
  24:Drivers/lvgl/src/lv_init.c **** #include "libs/bmp/lv_bmp.h"
  25:Drivers/lvgl/src/lv_init.c **** #include "libs/ffmpeg/lv_ffmpeg.h"
  26:Drivers/lvgl/src/lv_init.c **** #include "libs/freetype/lv_freetype.h"
  27:Drivers/lvgl/src/lv_init.c **** #include "libs/fsdrv/lv_fsdrv.h"
  28:Drivers/lvgl/src/lv_init.c **** #include "libs/gif/lv_gif.h"
  29:Drivers/lvgl/src/lv_init.c **** #include "libs/tjpgd/lv_tjpgd.h"
  30:Drivers/lvgl/src/lv_init.c **** #include "libs/libjpeg_turbo/lv_libjpeg_turbo.h"
ARM GAS  /tmp/cc8wCd6s.s 			page 2


  31:Drivers/lvgl/src/lv_init.c **** #include "libs/lodepng/lv_lodepng.h"
  32:Drivers/lvgl/src/lv_init.c **** #include "libs/libpng/lv_libpng.h"
  33:Drivers/lvgl/src/lv_init.c **** #include "libs/tiny_ttf/lv_tiny_ttf.h"
  34:Drivers/lvgl/src/lv_init.c **** #include "draw/lv_draw.h"
  35:Drivers/lvgl/src/lv_init.c **** #include "misc/lv_async.h"
  36:Drivers/lvgl/src/lv_init.c **** #include "misc/lv_fs_private.h"
  37:Drivers/lvgl/src/lv_init.c **** #include "widgets/span/lv_span.h"
  38:Drivers/lvgl/src/lv_init.c **** #include "themes/simple/lv_theme_simple.h"
  39:Drivers/lvgl/src/lv_init.c **** #include "misc/lv_fs.h"
  40:Drivers/lvgl/src/lv_init.c **** #include "osal/lv_os_private.h"
  41:Drivers/lvgl/src/lv_init.c **** #include "others/sysmon/lv_sysmon_private.h"
  42:Drivers/lvgl/src/lv_init.c **** #include "others/xml/lv_xml.h"
  43:Drivers/lvgl/src/lv_init.c **** 
  44:Drivers/lvgl/src/lv_init.c **** #if LV_USE_SVG
  45:Drivers/lvgl/src/lv_init.c ****     #include "libs/svg/lv_svg_decoder.h"
  46:Drivers/lvgl/src/lv_init.c **** #endif
  47:Drivers/lvgl/src/lv_init.c **** 
  48:Drivers/lvgl/src/lv_init.c **** #if LV_USE_NEMA_GFX
  49:Drivers/lvgl/src/lv_init.c ****     #include "draw/nema_gfx/lv_draw_nema_gfx.h"
  50:Drivers/lvgl/src/lv_init.c **** #endif
  51:Drivers/lvgl/src/lv_init.c **** #if LV_USE_DRAW_VGLITE
  52:Drivers/lvgl/src/lv_init.c ****     #include "draw/nxp/vglite/lv_draw_vglite.h"
  53:Drivers/lvgl/src/lv_init.c **** #endif
  54:Drivers/lvgl/src/lv_init.c **** #if LV_USE_PXP
  55:Drivers/lvgl/src/lv_init.c ****     #if LV_USE_DRAW_PXP || LV_USE_ROTATE_PXP
  56:Drivers/lvgl/src/lv_init.c ****         #include "draw/nxp/pxp/lv_draw_pxp.h"
  57:Drivers/lvgl/src/lv_init.c ****     #endif
  58:Drivers/lvgl/src/lv_init.c **** #endif
  59:Drivers/lvgl/src/lv_init.c **** #if LV_USE_DRAW_G2D
  60:Drivers/lvgl/src/lv_init.c ****     #include "draw/nxp/g2d/lv_draw_g2d.h"
  61:Drivers/lvgl/src/lv_init.c **** #endif
  62:Drivers/lvgl/src/lv_init.c **** #if LV_USE_DRAW_DAVE2D
  63:Drivers/lvgl/src/lv_init.c ****     #include "draw/renesas/dave2d/lv_draw_dave2d.h"
  64:Drivers/lvgl/src/lv_init.c **** #endif
  65:Drivers/lvgl/src/lv_init.c **** #if LV_USE_DRAW_SDL
  66:Drivers/lvgl/src/lv_init.c ****     #include "draw/sdl/lv_draw_sdl.h"
  67:Drivers/lvgl/src/lv_init.c **** #endif
  68:Drivers/lvgl/src/lv_init.c **** #if LV_USE_DRAW_VG_LITE
  69:Drivers/lvgl/src/lv_init.c ****     #include "draw/vg_lite/lv_draw_vg_lite.h"
  70:Drivers/lvgl/src/lv_init.c **** #endif
  71:Drivers/lvgl/src/lv_init.c **** #if LV_USE_DRAW_DMA2D
  72:Drivers/lvgl/src/lv_init.c ****     #include "draw/dma2d/lv_draw_dma2d.h"
  73:Drivers/lvgl/src/lv_init.c **** #endif
  74:Drivers/lvgl/src/lv_init.c **** #if LV_USE_DRAW_OPENGLES
  75:Drivers/lvgl/src/lv_init.c ****     #include "draw/opengles/lv_draw_opengles.h"
  76:Drivers/lvgl/src/lv_init.c **** #endif
  77:Drivers/lvgl/src/lv_init.c **** #if LV_USE_WINDOWS
  78:Drivers/lvgl/src/lv_init.c ****     #include "drivers/windows/lv_windows_context.h"
  79:Drivers/lvgl/src/lv_init.c **** #endif
  80:Drivers/lvgl/src/lv_init.c **** #if LV_USE_UEFI
  81:Drivers/lvgl/src/lv_init.c ****     #include "drivers/uefi/lv_uefi_context.h"
  82:Drivers/lvgl/src/lv_init.c **** #endif
  83:Drivers/lvgl/src/lv_init.c **** #if LV_USE_EVDEV
  84:Drivers/lvgl/src/lv_init.c ****     #include "drivers/evdev/lv_evdev_private.h"
  85:Drivers/lvgl/src/lv_init.c **** #endif
  86:Drivers/lvgl/src/lv_init.c **** 
  87:Drivers/lvgl/src/lv_init.c **** /*********************
ARM GAS  /tmp/cc8wCd6s.s 			page 3


  88:Drivers/lvgl/src/lv_init.c ****  *      DEFINES
  89:Drivers/lvgl/src/lv_init.c ****  *********************/
  90:Drivers/lvgl/src/lv_init.c **** #define lv_initialized  LV_GLOBAL_DEFAULT()->inited
  91:Drivers/lvgl/src/lv_init.c **** #define lv_deinit_in_progress  LV_GLOBAL_DEFAULT()->deinit_in_progress
  92:Drivers/lvgl/src/lv_init.c **** 
  93:Drivers/lvgl/src/lv_init.c **** /**********************
  94:Drivers/lvgl/src/lv_init.c ****  *      TYPEDEFS
  95:Drivers/lvgl/src/lv_init.c ****  **********************/
  96:Drivers/lvgl/src/lv_init.c **** 
  97:Drivers/lvgl/src/lv_init.c **** /**********************
  98:Drivers/lvgl/src/lv_init.c ****  *  STATIC PROTOTYPES
  99:Drivers/lvgl/src/lv_init.c ****  **********************/
 100:Drivers/lvgl/src/lv_init.c **** 
 101:Drivers/lvgl/src/lv_init.c **** /**********************
 102:Drivers/lvgl/src/lv_init.c ****  *  STATIC VARIABLES
 103:Drivers/lvgl/src/lv_init.c ****  **********************/
 104:Drivers/lvgl/src/lv_init.c **** #if LV_ENABLE_GLOBAL_CUSTOM == 0
 105:Drivers/lvgl/src/lv_init.c ****     lv_global_t lv_global;
 106:Drivers/lvgl/src/lv_init.c **** #endif
 107:Drivers/lvgl/src/lv_init.c **** 
 108:Drivers/lvgl/src/lv_init.c **** /**********************
 109:Drivers/lvgl/src/lv_init.c ****  *      MACROS
 110:Drivers/lvgl/src/lv_init.c ****  **********************/
 111:Drivers/lvgl/src/lv_init.c **** 
 112:Drivers/lvgl/src/lv_init.c **** #ifndef LV_GLOBAL_INIT
 113:Drivers/lvgl/src/lv_init.c ****     #define LV_GLOBAL_INIT(__GLOBAL_PTR)    lv_global_init((lv_global_t *)(__GLOBAL_PTR))
 114:Drivers/lvgl/src/lv_init.c **** #endif
 115:Drivers/lvgl/src/lv_init.c **** 
 116:Drivers/lvgl/src/lv_init.c **** /**********************
 117:Drivers/lvgl/src/lv_init.c ****  *   GLOBAL FUNCTIONS
 118:Drivers/lvgl/src/lv_init.c ****  **********************/
 119:Drivers/lvgl/src/lv_init.c **** static inline void lv_global_init(lv_global_t * global)
 120:Drivers/lvgl/src/lv_init.c **** {
  29              		.loc 1 120 1 view -0
  30              		.cfi_startproc
  31              		@ args = 0, pretend = 0, frame = 0
  32              		@ frame_needed = 0, uses_anonymous_args = 0
 121:Drivers/lvgl/src/lv_init.c ****     LV_ASSERT_NULL(global);
  33              		.loc 1 121 5 view .LVU1
  34              		.loc 1 121 5 view .LVU2
  35 0000 F8B1     		cbz	r0, .L3
 120:Drivers/lvgl/src/lv_init.c ****     LV_ASSERT_NULL(global);
  36              		.loc 1 120 1 is_stmt 0 view .LVU3
  37 0002 10B5     		push	{r4, lr}
  38              	.LCFI0:
  39              		.cfi_def_cfa_offset 8
  40              		.cfi_offset 4, -8
  41              		.cfi_offset 14, -4
  42 0004 0446     		mov	r4, r0
  43              		.loc 1 121 5 is_stmt 1 discriminator 2 view .LVU4
  44              		.loc 1 121 27 discriminator 2 view .LVU5
 122:Drivers/lvgl/src/lv_init.c **** 
 123:Drivers/lvgl/src/lv_init.c ****     if(global == NULL) {
  45              		.loc 1 123 5 view .LVU6
 124:Drivers/lvgl/src/lv_init.c ****         LV_LOG_ERROR("lv_global cannot be null");
 125:Drivers/lvgl/src/lv_init.c ****         return;
 126:Drivers/lvgl/src/lv_init.c ****     }
ARM GAS  /tmp/cc8wCd6s.s 			page 4


 127:Drivers/lvgl/src/lv_init.c **** 
 128:Drivers/lvgl/src/lv_init.c ****     lv_memzero(global, sizeof(lv_global_t));
  46              		.loc 1 128 5 view .LVU7
  47              	.LVL1:
  48              	.LBB4:
  49              	.LBI4:
  50              		.file 2 "Drivers/lvgl/src/draw/../misc/../stdlib/lv_string.h"
   1:Drivers/lvgl/src/draw/../misc/../stdlib/lv_string.h **** /**
   2:Drivers/lvgl/src/draw/../misc/../stdlib/lv_string.h ****  * @file lv_string.h
   3:Drivers/lvgl/src/draw/../misc/../stdlib/lv_string.h ****  *
   4:Drivers/lvgl/src/draw/../misc/../stdlib/lv_string.h ****  */
   5:Drivers/lvgl/src/draw/../misc/../stdlib/lv_string.h **** 
   6:Drivers/lvgl/src/draw/../misc/../stdlib/lv_string.h **** #ifndef LV_STRING_H
   7:Drivers/lvgl/src/draw/../misc/../stdlib/lv_string.h **** #define LV_STRING_H
   8:Drivers/lvgl/src/draw/../misc/../stdlib/lv_string.h **** 
   9:Drivers/lvgl/src/draw/../misc/../stdlib/lv_string.h **** #ifdef __cplusplus
  10:Drivers/lvgl/src/draw/../misc/../stdlib/lv_string.h **** extern "C" {
  11:Drivers/lvgl/src/draw/../misc/../stdlib/lv_string.h **** #endif
  12:Drivers/lvgl/src/draw/../misc/../stdlib/lv_string.h **** 
  13:Drivers/lvgl/src/draw/../misc/../stdlib/lv_string.h **** /*********************
  14:Drivers/lvgl/src/draw/../misc/../stdlib/lv_string.h ****  *      INCLUDES
  15:Drivers/lvgl/src/draw/../misc/../stdlib/lv_string.h ****  *********************/
  16:Drivers/lvgl/src/draw/../misc/../stdlib/lv_string.h **** #include "../lv_conf_internal.h"
  17:Drivers/lvgl/src/draw/../misc/../stdlib/lv_string.h **** #include "../misc/lv_types.h"
  18:Drivers/lvgl/src/draw/../misc/../stdlib/lv_string.h **** 
  19:Drivers/lvgl/src/draw/../misc/../stdlib/lv_string.h **** /*********************
  20:Drivers/lvgl/src/draw/../misc/../stdlib/lv_string.h ****  *      DEFINES
  21:Drivers/lvgl/src/draw/../misc/../stdlib/lv_string.h ****  *********************/
  22:Drivers/lvgl/src/draw/../misc/../stdlib/lv_string.h **** 
  23:Drivers/lvgl/src/draw/../misc/../stdlib/lv_string.h **** /**********************
  24:Drivers/lvgl/src/draw/../misc/../stdlib/lv_string.h ****  *      TYPEDEFS
  25:Drivers/lvgl/src/draw/../misc/../stdlib/lv_string.h ****  **********************/
  26:Drivers/lvgl/src/draw/../misc/../stdlib/lv_string.h **** 
  27:Drivers/lvgl/src/draw/../misc/../stdlib/lv_string.h **** /**********************
  28:Drivers/lvgl/src/draw/../misc/../stdlib/lv_string.h ****  * GLOBAL PROTOTYPES
  29:Drivers/lvgl/src/draw/../misc/../stdlib/lv_string.h ****  **********************/
  30:Drivers/lvgl/src/draw/../misc/../stdlib/lv_string.h **** 
  31:Drivers/lvgl/src/draw/../misc/../stdlib/lv_string.h **** /**
  32:Drivers/lvgl/src/draw/../misc/../stdlib/lv_string.h ****  * @brief Copies a block of memory from a source address to a destination address.
  33:Drivers/lvgl/src/draw/../misc/../stdlib/lv_string.h ****  * @param dst Pointer to the destination array where the content is to be copied.
  34:Drivers/lvgl/src/draw/../misc/../stdlib/lv_string.h ****  * @param src Pointer to the source of data to be copied.
  35:Drivers/lvgl/src/draw/../misc/../stdlib/lv_string.h ****  * @param len Number of bytes to copy.
  36:Drivers/lvgl/src/draw/../misc/../stdlib/lv_string.h ****  * @return Pointer to the destination array.
  37:Drivers/lvgl/src/draw/../misc/../stdlib/lv_string.h ****  * @note The function does not check for any overlapping of the source and destination memory block
  38:Drivers/lvgl/src/draw/../misc/../stdlib/lv_string.h ****  */
  39:Drivers/lvgl/src/draw/../misc/../stdlib/lv_string.h **** void * lv_memcpy(void * dst, const void * src, size_t len);
  40:Drivers/lvgl/src/draw/../misc/../stdlib/lv_string.h **** 
  41:Drivers/lvgl/src/draw/../misc/../stdlib/lv_string.h **** /**
  42:Drivers/lvgl/src/draw/../misc/../stdlib/lv_string.h ****  * @brief Fills a block of memory with a specified value.
  43:Drivers/lvgl/src/draw/../misc/../stdlib/lv_string.h ****  * @param dst Pointer to the destination array to fill with the specified value.
  44:Drivers/lvgl/src/draw/../misc/../stdlib/lv_string.h ****  * @param v Value to be set. The value is passed as an int, but the function fills
  45:Drivers/lvgl/src/draw/../misc/../stdlib/lv_string.h ****  *          the block of memory using the unsigned char conversion of this value.
  46:Drivers/lvgl/src/draw/../misc/../stdlib/lv_string.h ****  * @param len Number of bytes to be set to the value.
  47:Drivers/lvgl/src/draw/../misc/../stdlib/lv_string.h ****  */
  48:Drivers/lvgl/src/draw/../misc/../stdlib/lv_string.h **** void lv_memset(void * dst, uint8_t v, size_t len);
  49:Drivers/lvgl/src/draw/../misc/../stdlib/lv_string.h **** 
  50:Drivers/lvgl/src/draw/../misc/../stdlib/lv_string.h **** /**
ARM GAS  /tmp/cc8wCd6s.s 			page 5


  51:Drivers/lvgl/src/draw/../misc/../stdlib/lv_string.h ****  * @brief Move a block of memory from source to destination
  52:Drivers/lvgl/src/draw/../misc/../stdlib/lv_string.h ****  * @param dst Pointer to the destination array where the content is to be copied.
  53:Drivers/lvgl/src/draw/../misc/../stdlib/lv_string.h ****  * @param src Pointer to the source of data to be copied.
  54:Drivers/lvgl/src/draw/../misc/../stdlib/lv_string.h ****  * @param len Number of bytes to copy
  55:Drivers/lvgl/src/draw/../misc/../stdlib/lv_string.h ****  * @return Pointer to the destination array.
  56:Drivers/lvgl/src/draw/../misc/../stdlib/lv_string.h ****  */
  57:Drivers/lvgl/src/draw/../misc/../stdlib/lv_string.h **** void * lv_memmove(void * dst, const void * src, size_t len);
  58:Drivers/lvgl/src/draw/../misc/../stdlib/lv_string.h **** 
  59:Drivers/lvgl/src/draw/../misc/../stdlib/lv_string.h **** /**
  60:Drivers/lvgl/src/draw/../misc/../stdlib/lv_string.h ****  * @brief This function will compare two memory blocks
  61:Drivers/lvgl/src/draw/../misc/../stdlib/lv_string.h ****  * @param p1 Pointer to the first memory block
  62:Drivers/lvgl/src/draw/../misc/../stdlib/lv_string.h ****  * @param p2 Pointer to the second memory block
  63:Drivers/lvgl/src/draw/../misc/../stdlib/lv_string.h ****  * @param len Number of bytes to compare
  64:Drivers/lvgl/src/draw/../misc/../stdlib/lv_string.h ****  * @return The difference between the value of the first unmatching byte.
  65:Drivers/lvgl/src/draw/../misc/../stdlib/lv_string.h ****  */
  66:Drivers/lvgl/src/draw/../misc/../stdlib/lv_string.h **** int lv_memcmp(const void * p1, const void * p2, size_t len);
  67:Drivers/lvgl/src/draw/../misc/../stdlib/lv_string.h **** 
  68:Drivers/lvgl/src/draw/../misc/../stdlib/lv_string.h **** /**
  69:Drivers/lvgl/src/draw/../misc/../stdlib/lv_string.h ****  * Same as `memset(dst, 0x00, len)`.
  70:Drivers/lvgl/src/draw/../misc/../stdlib/lv_string.h ****  * @param dst pointer to the destination buffer
  71:Drivers/lvgl/src/draw/../misc/../stdlib/lv_string.h ****  * @param len number of byte to set
  72:Drivers/lvgl/src/draw/../misc/../stdlib/lv_string.h ****  */
  73:Drivers/lvgl/src/draw/../misc/../stdlib/lv_string.h **** static inline void lv_memzero(void * dst, size_t len)
  51              		.loc 2 73 20 view .LVU8
  52              	.LBB5:
  74:Drivers/lvgl/src/draw/../misc/../stdlib/lv_string.h **** {
  75:Drivers/lvgl/src/draw/../misc/../stdlib/lv_string.h ****     lv_memset(dst, 0x00, len);
  53              		.loc 2 75 5 view .LVU9
  54 0006 4FF4F072 		mov	r2, #480
  55 000a 0021     		movs	r1, #0
  56 000c FFF7FEFF 		bl	lv_memset
  57              	.LVL2:
  58              		.loc 2 75 5 is_stmt 0 view .LVU10
  59              	.LBE5:
  60              	.LBE4:
 129:Drivers/lvgl/src/lv_init.c **** 
 130:Drivers/lvgl/src/lv_init.c ****     lv_ll_init(&(global->disp_ll), sizeof(lv_display_t));
  61              		.loc 1 130 5 is_stmt 1 view .LVU11
  62 0010 4FF44871 		mov	r1, #800
  63 0014 201D     		adds	r0, r4, #4
  64 0016 FFF7FEFF 		bl	lv_ll_init
  65              	.LVL3:
 131:Drivers/lvgl/src/lv_init.c ****     lv_ll_init(&(global->indev_ll), sizeof(lv_indev_t));
  66              		.loc 1 131 5 view .LVU12
  67 001a DC21     		movs	r1, #220
  68 001c 04F14400 		add	r0, r4, #68
  69 0020 FFF7FEFF 		bl	lv_ll_init
  70              	.LVL4:
 132:Drivers/lvgl/src/lv_init.c **** 
 133:Drivers/lvgl/src/lv_init.c ****     global->memory_zero = ZERO_MEM_SENTINEL;
  71              		.loc 1 133 5 view .LVU13
  72              		.loc 1 133 25 is_stmt 0 view .LVU14
  73 0024 074B     		ldr	r3, .L6
  74 0026 6366     		str	r3, [r4, #100]
 134:Drivers/lvgl/src/lv_init.c ****     global->style_refresh = true;
  75              		.loc 1 134 5 is_stmt 1 view .LVU15
  76              		.loc 1 134 27 is_stmt 0 view .LVU16
ARM GAS  /tmp/cc8wCd6s.s 			page 6


  77 0028 0123     		movs	r3, #1
  78 002a 84F82430 		strb	r3, [r4, #36]
 135:Drivers/lvgl/src/lv_init.c ****     global->layout_count = LV_LAYOUT_LAST;
  79              		.loc 1 135 5 is_stmt 1 view .LVU17
  80              		.loc 1 135 26 is_stmt 0 view .LVU18
  81 002e 0323     		movs	r3, #3
  82 0030 A365     		str	r3, [r4, #88]
 136:Drivers/lvgl/src/lv_init.c ****     global->style_last_custom_prop_id = (uint32_t)LV_STYLE_LAST_BUILT_IN_PROP;
  83              		.loc 1 136 5 is_stmt 1 view .LVU19
  84              		.loc 1 136 39 is_stmt 0 view .LVU20
  85 0032 8923     		movs	r3, #137
  86 0034 E362     		str	r3, [r4, #44]
 137:Drivers/lvgl/src/lv_init.c ****     global->event_last_register_id = LV_EVENT_LAST;
  87              		.loc 1 137 5 is_stmt 1 view .LVU21
  88              		.loc 1 137 36 is_stmt 0 view .LVU22
  89 0036 4323     		movs	r3, #67
  90 0038 2367     		str	r3, [r4, #112]
 138:Drivers/lvgl/src/lv_init.c ****     lv_rand_set_seed(0x1234ABCD);
  91              		.loc 1 138 5 is_stmt 1 view .LVU23
  92 003a 0348     		ldr	r0, .L6+4
  93 003c FFF7FEFF 		bl	lv_rand_set_seed
  94              	.LVL5:
 139:Drivers/lvgl/src/lv_init.c **** 
 140:Drivers/lvgl/src/lv_init.c **** #ifdef LV_LOG_PRINT_CB
 141:Drivers/lvgl/src/lv_init.c ****     void LV_LOG_PRINT_CB(lv_log_level_t, const char * txt);
 142:Drivers/lvgl/src/lv_init.c ****     global->custom_log_print_cb = LV_LOG_PRINT_CB;
 143:Drivers/lvgl/src/lv_init.c **** #endif
 144:Drivers/lvgl/src/lv_init.c **** 
 145:Drivers/lvgl/src/lv_init.c **** #if defined(LV_DRAW_SW_SHADOW_CACHE_SIZE) && LV_DRAW_SW_SHADOW_CACHE_SIZE > 0
 146:Drivers/lvgl/src/lv_init.c ****     global->sw_shadow_cache.cache_size = -1;
 147:Drivers/lvgl/src/lv_init.c ****     global->sw_shadow_cache.cache_r = -1;
 148:Drivers/lvgl/src/lv_init.c **** #endif
 149:Drivers/lvgl/src/lv_init.c **** }
  95              		.loc 1 149 1 is_stmt 0 view .LVU24
  96 0040 10BD     		pop	{r4, pc}
  97              	.LVL6:
  98              	.L3:
  99              	.LCFI1:
 100              		.cfi_def_cfa_offset 0
 101              		.cfi_restore 4
 102              		.cfi_restore 14
 121:Drivers/lvgl/src/lv_init.c **** 
 103              		.loc 1 121 5 is_stmt 1 discriminator 1 view .LVU25
 121:Drivers/lvgl/src/lv_init.c **** 
 104              		.loc 1 121 5 discriminator 1 view .LVU26
 121:Drivers/lvgl/src/lv_init.c **** 
 105              		.loc 1 121 5 discriminator 1 view .LVU27
 121:Drivers/lvgl/src/lv_init.c **** 
 106              		.loc 1 121 5 discriminator 1 view .LVU28
 121:Drivers/lvgl/src/lv_init.c **** 
 107              		.loc 1 121 5 discriminator 1 view .LVU29
 108 0042 FEE7     		b	.L3
 109              	.L7:
 110              		.align	2
 111              	.L6:
 112 0044 D4C3B2A1 		.word	-1582119980
 113 0048 CDAB3412 		.word	305441741
ARM GAS  /tmp/cc8wCd6s.s 			page 7


 114              		.cfi_endproc
 115              	.LFE186:
 117              		.section	.text.lv_cleanup_devices,"ax",%progbits
 118              		.align	1
 119              		.syntax unified
 120              		.thumb
 121              		.thumb_func
 123              	lv_cleanup_devices:
 124              	.LVL7:
 125              	.LFB187:
 150:Drivers/lvgl/src/lv_init.c **** 
 151:Drivers/lvgl/src/lv_init.c **** static inline void lv_cleanup_devices(lv_global_t * global)
 152:Drivers/lvgl/src/lv_init.c **** {
 126              		.loc 1 152 1 view -0
 127              		.cfi_startproc
 128              		@ args = 0, pretend = 0, frame = 0
 129              		@ frame_needed = 0, uses_anonymous_args = 0
 153:Drivers/lvgl/src/lv_init.c ****     LV_ASSERT_NULL(global);
 130              		.loc 1 153 5 view .LVU31
 131              		.loc 1 153 5 view .LVU32
 132 0000 50B1     		cbz	r0, .L10
 152:Drivers/lvgl/src/lv_init.c ****     LV_ASSERT_NULL(global);
 133              		.loc 1 152 1 is_stmt 0 view .LVU33
 134 0002 10B5     		push	{r4, lr}
 135              	.LCFI2:
 136              		.cfi_def_cfa_offset 8
 137              		.cfi_offset 4, -8
 138              		.cfi_offset 14, -4
 139 0004 0446     		mov	r4, r0
 140              		.loc 1 153 5 is_stmt 1 discriminator 2 view .LVU34
 141              		.loc 1 153 27 discriminator 2 view .LVU35
 154:Drivers/lvgl/src/lv_init.c **** 
 155:Drivers/lvgl/src/lv_init.c ****     if(global) {
 142              		.loc 1 155 5 view .LVU36
 156:Drivers/lvgl/src/lv_init.c ****         /* cleanup indev and display */
 157:Drivers/lvgl/src/lv_init.c ****         lv_ll_clear_custom(&(global->indev_ll), (void (*)(void *)) lv_indev_delete);
 143              		.loc 1 157 9 view .LVU37
 144 0006 0549     		ldr	r1, .L13
 145 0008 4430     		adds	r0, r0, #68
 146              	.LVL8:
 147              		.loc 1 157 9 is_stmt 0 view .LVU38
 148 000a FFF7FEFF 		bl	lv_ll_clear_custom
 149              	.LVL9:
 158:Drivers/lvgl/src/lv_init.c ****         lv_ll_clear_custom(&(global->disp_ll), (void (*)(void *)) lv_display_delete);
 150              		.loc 1 158 9 is_stmt 1 view .LVU39
 151 000e 0449     		ldr	r1, .L13+4
 152 0010 201D     		adds	r0, r4, #4
 153 0012 FFF7FEFF 		bl	lv_ll_clear_custom
 154              	.LVL10:
 159:Drivers/lvgl/src/lv_init.c ****     }
 160:Drivers/lvgl/src/lv_init.c **** }
 155              		.loc 1 160 1 is_stmt 0 view .LVU40
 156 0016 10BD     		pop	{r4, pc}
 157              	.LVL11:
 158              	.L10:
 159              	.LCFI3:
 160              		.cfi_def_cfa_offset 0
ARM GAS  /tmp/cc8wCd6s.s 			page 8


 161              		.cfi_restore 4
 162              		.cfi_restore 14
 153:Drivers/lvgl/src/lv_init.c **** 
 163              		.loc 1 153 5 is_stmt 1 discriminator 1 view .LVU41
 153:Drivers/lvgl/src/lv_init.c **** 
 164              		.loc 1 153 5 discriminator 1 view .LVU42
 153:Drivers/lvgl/src/lv_init.c **** 
 165              		.loc 1 153 5 discriminator 1 view .LVU43
 153:Drivers/lvgl/src/lv_init.c **** 
 166              		.loc 1 153 5 discriminator 1 view .LVU44
 153:Drivers/lvgl/src/lv_init.c **** 
 167              		.loc 1 153 5 discriminator 1 view .LVU45
 168 0018 FEE7     		b	.L10
 169              	.L14:
 170 001a 00BF     		.align	2
 171              	.L13:
 172 001c 00000000 		.word	lv_indev_delete
 173 0020 00000000 		.word	lv_display_delete
 174              		.cfi_endproc
 175              	.LFE187:
 177              		.section	.text.lv_is_initialized,"ax",%progbits
 178              		.align	1
 179              		.global	lv_is_initialized
 180              		.syntax unified
 181              		.thumb
 182              		.thumb_func
 184              	lv_is_initialized:
 185              	.LFB188:
 161:Drivers/lvgl/src/lv_init.c **** 
 162:Drivers/lvgl/src/lv_init.c **** bool lv_is_initialized(void)
 163:Drivers/lvgl/src/lv_init.c **** {
 186              		.loc 1 163 1 view -0
 187              		.cfi_startproc
 188              		@ args = 0, pretend = 0, frame = 0
 189              		@ frame_needed = 0, uses_anonymous_args = 0
 190              		@ link register save eliminated.
 164:Drivers/lvgl/src/lv_init.c **** #if LV_ENABLE_GLOBAL_CUSTOM
 165:Drivers/lvgl/src/lv_init.c ****     if(LV_GLOBAL_DEFAULT()) return lv_initialized;
 166:Drivers/lvgl/src/lv_init.c ****     else return false;
 167:Drivers/lvgl/src/lv_init.c **** #else
 168:Drivers/lvgl/src/lv_init.c ****     return lv_initialized;
 191              		.loc 1 168 5 view .LVU47
 169:Drivers/lvgl/src/lv_init.c **** #endif
 170:Drivers/lvgl/src/lv_init.c **** }
 192              		.loc 1 170 1 is_stmt 0 view .LVU48
 193 0000 014B     		ldr	r3, .L16
 194 0002 1878     		ldrb	r0, [r3]	@ zero_extendqisi2
 195 0004 7047     		bx	lr
 196              	.L17:
 197 0006 00BF     		.align	2
 198              	.L16:
 199 0008 00000000 		.word	lv_global
 200              		.cfi_endproc
 201              	.LFE188:
 203              		.section	.text.lv_init,"ax",%progbits
 204              		.align	1
 205              		.global	lv_init
ARM GAS  /tmp/cc8wCd6s.s 			page 9


 206              		.syntax unified
 207              		.thumb
 208              		.thumb_func
 210              	lv_init:
 211              	.LFB189:
 171:Drivers/lvgl/src/lv_init.c **** 
 172:Drivers/lvgl/src/lv_init.c **** void lv_init(void)
 173:Drivers/lvgl/src/lv_init.c **** {
 212              		.loc 1 173 1 is_stmt 1 view -0
 213              		.cfi_startproc
 214              		@ args = 0, pretend = 0, frame = 0
 215              		@ frame_needed = 0, uses_anonymous_args = 0
 174:Drivers/lvgl/src/lv_init.c ****     /*First initialize Garbage Collection if needed*/
 175:Drivers/lvgl/src/lv_init.c **** #ifdef LV_GC_INIT
 176:Drivers/lvgl/src/lv_init.c ****     LV_GC_INIT();
 177:Drivers/lvgl/src/lv_init.c **** #endif
 178:Drivers/lvgl/src/lv_init.c **** 
 179:Drivers/lvgl/src/lv_init.c ****     /*Do nothing if already initialized*/
 180:Drivers/lvgl/src/lv_init.c ****     if(lv_initialized) {
 216              		.loc 1 180 5 view .LVU50
 217              		.loc 1 180 8 is_stmt 0 view .LVU51
 218 0000 154B     		ldr	r3, .L25
 219 0002 1B78     		ldrb	r3, [r3]	@ zero_extendqisi2
 220              		.loc 1 180 7 view .LVU52
 221 0004 03B1     		cbz	r3, .L24
 222 0006 7047     		bx	lr
 223              	.L24:
 173:Drivers/lvgl/src/lv_init.c ****     /*First initialize Garbage Collection if needed*/
 224              		.loc 1 173 1 view .LVU53
 225 0008 10B5     		push	{r4, lr}
 226              	.LCFI4:
 227              		.cfi_def_cfa_offset 8
 228              		.cfi_offset 4, -8
 229              		.cfi_offset 14, -4
 181:Drivers/lvgl/src/lv_init.c ****         LV_LOG_WARN("lv_init: already initialized");
 182:Drivers/lvgl/src/lv_init.c ****         return;
 183:Drivers/lvgl/src/lv_init.c ****     }
 184:Drivers/lvgl/src/lv_init.c **** 
 185:Drivers/lvgl/src/lv_init.c ****     LV_LOG_INFO("begin");
 230              		.loc 1 185 5 is_stmt 1 view .LVU54
 231              		.loc 1 185 5 view .LVU55
 232              		.loc 1 185 5 view .LVU56
 186:Drivers/lvgl/src/lv_init.c **** 
 187:Drivers/lvgl/src/lv_init.c ****     /*Initialize members of static variable lv_global */
 188:Drivers/lvgl/src/lv_init.c ****     LV_GLOBAL_INIT(LV_GLOBAL_DEFAULT());
 233              		.loc 1 188 5 view .LVU57
 234 000a 134C     		ldr	r4, .L25
 235 000c 2046     		mov	r0, r4
 236 000e FFF7FEFF 		bl	lv_global_init
 237              	.LVL12:
 189:Drivers/lvgl/src/lv_init.c **** 
 190:Drivers/lvgl/src/lv_init.c ****     lv_mem_init();
 238              		.loc 1 190 5 view .LVU58
 239 0012 FFF7FEFF 		bl	lv_mem_init
 240              	.LVL13:
 191:Drivers/lvgl/src/lv_init.c **** 
 192:Drivers/lvgl/src/lv_init.c ****     lv_draw_buf_init_handlers();
ARM GAS  /tmp/cc8wCd6s.s 			page 10


 241              		.loc 1 192 5 view .LVU59
 242 0016 FFF7FEFF 		bl	lv_draw_buf_init_handlers
 243              	.LVL14:
 193:Drivers/lvgl/src/lv_init.c **** 
 194:Drivers/lvgl/src/lv_init.c **** #if LV_USE_SPAN != 0
 195:Drivers/lvgl/src/lv_init.c ****     lv_span_stack_init();
 244              		.loc 1 195 5 view .LVU60
 245 001a FFF7FEFF 		bl	lv_span_stack_init
 246              	.LVL15:
 196:Drivers/lvgl/src/lv_init.c **** #endif
 197:Drivers/lvgl/src/lv_init.c **** 
 198:Drivers/lvgl/src/lv_init.c **** #if LV_USE_PROFILER && LV_USE_PROFILER_BUILTIN
 199:Drivers/lvgl/src/lv_init.c ****     lv_profiler_builtin_config_t profiler_config;
 200:Drivers/lvgl/src/lv_init.c ****     lv_profiler_builtin_config_init(&profiler_config);
 201:Drivers/lvgl/src/lv_init.c ****     lv_profiler_builtin_init(&profiler_config);
 202:Drivers/lvgl/src/lv_init.c **** #endif
 203:Drivers/lvgl/src/lv_init.c **** 
 204:Drivers/lvgl/src/lv_init.c ****     lv_os_init();
 247              		.loc 1 204 5 view .LVU61
 248 001e FFF7FEFF 		bl	lv_os_init
 249              	.LVL16:
 205:Drivers/lvgl/src/lv_init.c **** 
 206:Drivers/lvgl/src/lv_init.c ****     lv_timer_core_init();
 250              		.loc 1 206 5 view .LVU62
 251 0022 FFF7FEFF 		bl	lv_timer_core_init
 252              	.LVL17:
 207:Drivers/lvgl/src/lv_init.c **** 
 208:Drivers/lvgl/src/lv_init.c ****     lv_fs_init();
 253              		.loc 1 208 5 view .LVU63
 254 0026 FFF7FEFF 		bl	lv_fs_init
 255              	.LVL18:
 209:Drivers/lvgl/src/lv_init.c **** 
 210:Drivers/lvgl/src/lv_init.c ****     lv_layout_init();
 256              		.loc 1 210 5 view .LVU64
 257 002a FFF7FEFF 		bl	lv_layout_init
 258              	.LVL19:
 211:Drivers/lvgl/src/lv_init.c **** 
 212:Drivers/lvgl/src/lv_init.c ****     lv_anim_core_init();
 259              		.loc 1 212 5 view .LVU65
 260 002e FFF7FEFF 		bl	lv_anim_core_init
 261              	.LVL20:
 213:Drivers/lvgl/src/lv_init.c **** 
 214:Drivers/lvgl/src/lv_init.c ****     lv_group_init();
 262              		.loc 1 214 5 view .LVU66
 263 0032 FFF7FEFF 		bl	lv_group_init
 264              	.LVL21:
 215:Drivers/lvgl/src/lv_init.c **** 
 216:Drivers/lvgl/src/lv_init.c **** #if LV_USE_FREETYPE
 217:Drivers/lvgl/src/lv_init.c ****     /* Since the drawing unit needs to register the freetype event,
 218:Drivers/lvgl/src/lv_init.c ****      * initialize the freetype module first
 219:Drivers/lvgl/src/lv_init.c ****      */
 220:Drivers/lvgl/src/lv_init.c ****     lv_freetype_init(LV_FREETYPE_CACHE_FT_GLYPH_CNT);
 221:Drivers/lvgl/src/lv_init.c **** #endif
 222:Drivers/lvgl/src/lv_init.c **** 
 223:Drivers/lvgl/src/lv_init.c ****     lv_draw_init();
 265              		.loc 1 223 5 view .LVU67
 266 0036 FFF7FEFF 		bl	lv_draw_init
ARM GAS  /tmp/cc8wCd6s.s 			page 11


 267              	.LVL22:
 224:Drivers/lvgl/src/lv_init.c **** 
 225:Drivers/lvgl/src/lv_init.c **** #if LV_USE_DRAW_SW
 226:Drivers/lvgl/src/lv_init.c ****     lv_draw_sw_init();
 268              		.loc 1 226 5 view .LVU68
 269 003a FFF7FEFF 		bl	lv_draw_sw_init
 270              	.LVL23:
 227:Drivers/lvgl/src/lv_init.c **** #endif
 228:Drivers/lvgl/src/lv_init.c **** 
 229:Drivers/lvgl/src/lv_init.c **** #if LV_USE_NEMA_GFX
 230:Drivers/lvgl/src/lv_init.c ****     lv_draw_nema_gfx_init();
 231:Drivers/lvgl/src/lv_init.c **** #endif
 232:Drivers/lvgl/src/lv_init.c **** 
 233:Drivers/lvgl/src/lv_init.c **** #if LV_USE_DRAW_VGLITE
 234:Drivers/lvgl/src/lv_init.c ****     lv_draw_vglite_init();
 235:Drivers/lvgl/src/lv_init.c **** #endif
 236:Drivers/lvgl/src/lv_init.c **** 
 237:Drivers/lvgl/src/lv_init.c **** #if LV_USE_PXP
 238:Drivers/lvgl/src/lv_init.c **** #if LV_USE_DRAW_PXP || LV_USE_ROTATE_PXP
 239:Drivers/lvgl/src/lv_init.c ****     lv_draw_pxp_init();
 240:Drivers/lvgl/src/lv_init.c **** #endif
 241:Drivers/lvgl/src/lv_init.c **** #endif
 242:Drivers/lvgl/src/lv_init.c **** 
 243:Drivers/lvgl/src/lv_init.c **** #if LV_USE_DRAW_G2D
 244:Drivers/lvgl/src/lv_init.c ****     lv_draw_g2d_init();
 245:Drivers/lvgl/src/lv_init.c **** #endif
 246:Drivers/lvgl/src/lv_init.c **** 
 247:Drivers/lvgl/src/lv_init.c **** #if LV_USE_DRAW_DAVE2D
 248:Drivers/lvgl/src/lv_init.c ****     lv_draw_dave2d_init();
 249:Drivers/lvgl/src/lv_init.c **** #endif
 250:Drivers/lvgl/src/lv_init.c **** 
 251:Drivers/lvgl/src/lv_init.c **** #if LV_USE_DRAW_SDL
 252:Drivers/lvgl/src/lv_init.c ****     lv_draw_sdl_init();
 253:Drivers/lvgl/src/lv_init.c **** #endif
 254:Drivers/lvgl/src/lv_init.c **** 
 255:Drivers/lvgl/src/lv_init.c **** #if LV_USE_DRAW_DMA2D
 256:Drivers/lvgl/src/lv_init.c ****     lv_draw_dma2d_init();
 257:Drivers/lvgl/src/lv_init.c **** #endif
 258:Drivers/lvgl/src/lv_init.c **** 
 259:Drivers/lvgl/src/lv_init.c **** #if LV_USE_DRAW_OPENGLES
 260:Drivers/lvgl/src/lv_init.c ****     lv_draw_opengles_init();
 261:Drivers/lvgl/src/lv_init.c **** #endif
 262:Drivers/lvgl/src/lv_init.c **** 
 263:Drivers/lvgl/src/lv_init.c **** #if LV_USE_WINDOWS
 264:Drivers/lvgl/src/lv_init.c ****     lv_windows_platform_init();
 265:Drivers/lvgl/src/lv_init.c **** #endif
 266:Drivers/lvgl/src/lv_init.c **** 
 267:Drivers/lvgl/src/lv_init.c **** #if LV_USE_UEFI
 268:Drivers/lvgl/src/lv_init.c ****     lv_uefi_platform_init();
 269:Drivers/lvgl/src/lv_init.c **** #endif
 270:Drivers/lvgl/src/lv_init.c **** 
 271:Drivers/lvgl/src/lv_init.c ****     lv_obj_style_init();
 271              		.loc 1 271 5 view .LVU69
 272 003e FFF7FEFF 		bl	lv_obj_style_init
 273              	.LVL24:
 272:Drivers/lvgl/src/lv_init.c **** 
 273:Drivers/lvgl/src/lv_init.c ****     /*Initialize the screen refresh system*/
ARM GAS  /tmp/cc8wCd6s.s 			page 12


 274:Drivers/lvgl/src/lv_init.c ****     lv_refr_init();
 274              		.loc 1 274 5 view .LVU70
 275 0042 FFF7FEFF 		bl	lv_refr_init
 276              	.LVL25:
 275:Drivers/lvgl/src/lv_init.c **** 
 276:Drivers/lvgl/src/lv_init.c **** #if LV_USE_SYSMON
 277:Drivers/lvgl/src/lv_init.c ****     lv_sysmon_builtin_init();
 278:Drivers/lvgl/src/lv_init.c **** #endif
 279:Drivers/lvgl/src/lv_init.c **** 
 280:Drivers/lvgl/src/lv_init.c ****     lv_image_decoder_init(LV_CACHE_DEF_SIZE, LV_IMAGE_HEADER_CACHE_DEF_CNT);
 277              		.loc 1 280 5 view .LVU71
 278 0046 0021     		movs	r1, #0
 279 0048 0846     		mov	r0, r1
 280 004a FFF7FEFF 		bl	lv_image_decoder_init
 281              	.LVL26:
 281:Drivers/lvgl/src/lv_init.c ****     lv_bin_decoder_init();  /*LVGL built-in binary image decoder*/
 282              		.loc 1 281 5 view .LVU72
 283 004e FFF7FEFF 		bl	lv_bin_decoder_init
 284              	.LVL27:
 282:Drivers/lvgl/src/lv_init.c **** 
 283:Drivers/lvgl/src/lv_init.c **** #if LV_USE_DRAW_VG_LITE
 284:Drivers/lvgl/src/lv_init.c ****     lv_draw_vg_lite_init();
 285:Drivers/lvgl/src/lv_init.c **** #endif
 286:Drivers/lvgl/src/lv_init.c **** 
 287:Drivers/lvgl/src/lv_init.c ****     /*Test if the IDE has UTF-8 encoding*/
 288:Drivers/lvgl/src/lv_init.c ****     const char * txt = "Á";
 285              		.loc 1 288 5 view .LVU73
 289:Drivers/lvgl/src/lv_init.c **** 
 290:Drivers/lvgl/src/lv_init.c ****     uint8_t * txt_u8 = (uint8_t *)txt;
 286              		.loc 1 290 5 view .LVU74
 291:Drivers/lvgl/src/lv_init.c ****     if(txt_u8[0] != 0xc3 || txt_u8[1] != 0x81 || txt_u8[2] != 0x00) {
 287              		.loc 1 291 5 view .LVU75
 292:Drivers/lvgl/src/lv_init.c ****         LV_LOG_WARN("The strings have no UTF-8 encoding. Non-ASCII characters won't be displayed.")
 288              		.loc 1 292 9 view .LVU76
 289              		.loc 1 292 9 view .LVU77
 290              		.loc 1 292 9 view .LVU78
 293:Drivers/lvgl/src/lv_init.c ****     }
 294:Drivers/lvgl/src/lv_init.c **** 
 295:Drivers/lvgl/src/lv_init.c ****     uint32_t endianness_test = 0x11223344;
 291              		.loc 1 295 5 view .LVU79
 296:Drivers/lvgl/src/lv_init.c ****     uint8_t * endianness_test_p = (uint8_t *) &endianness_test;
 292              		.loc 1 296 5 view .LVU80
 297:Drivers/lvgl/src/lv_init.c ****     bool big_endian = endianness_test_p[0] == 0x11;
 293              		.loc 1 297 5 view .LVU81
 298:Drivers/lvgl/src/lv_init.c **** 
 299:Drivers/lvgl/src/lv_init.c ****     if(big_endian) {
 294              		.loc 1 299 5 view .LVU82
 300:Drivers/lvgl/src/lv_init.c ****         LV_ASSERT_MSG(LV_BIG_ENDIAN_SYSTEM == 1,
 301:Drivers/lvgl/src/lv_init.c ****                       "It's a big endian system but LV_BIG_ENDIAN_SYSTEM is not enabled in lv_conf.
 302:Drivers/lvgl/src/lv_init.c ****     }
 303:Drivers/lvgl/src/lv_init.c ****     else {
 304:Drivers/lvgl/src/lv_init.c ****         LV_ASSERT_MSG(LV_BIG_ENDIAN_SYSTEM == 0,
 295              		.loc 1 304 9 view .LVU83
 296              		.loc 1 304 9 view .LVU84
 297              		.loc 1 304 9 discriminator 2 view .LVU85
 305:Drivers/lvgl/src/lv_init.c ****                       "It's a little endian system but LV_BIG_ENDIAN_SYSTEM is enabled in lv_conf.h
 306:Drivers/lvgl/src/lv_init.c ****     }
ARM GAS  /tmp/cc8wCd6s.s 			page 13


 307:Drivers/lvgl/src/lv_init.c **** 
 308:Drivers/lvgl/src/lv_init.c **** #if LV_USE_ASSERT_MEM_INTEGRITY
 309:Drivers/lvgl/src/lv_init.c ****     LV_LOG_WARN("Memory integrity checks are enabled via LV_USE_ASSERT_MEM_INTEGRITY which makes LV
 310:Drivers/lvgl/src/lv_init.c **** #endif
 311:Drivers/lvgl/src/lv_init.c **** 
 312:Drivers/lvgl/src/lv_init.c **** #if LV_USE_ASSERT_OBJ
 313:Drivers/lvgl/src/lv_init.c ****     LV_LOG_WARN("Object sanity checks are enabled via LV_USE_ASSERT_OBJ which makes LVGL much slowe
 314:Drivers/lvgl/src/lv_init.c **** #endif
 315:Drivers/lvgl/src/lv_init.c **** 
 316:Drivers/lvgl/src/lv_init.c **** #if LV_USE_ASSERT_STYLE
 317:Drivers/lvgl/src/lv_init.c ****     LV_LOG_WARN("Style sanity checks are enabled that uses more RAM");
 318:Drivers/lvgl/src/lv_init.c **** #endif
 319:Drivers/lvgl/src/lv_init.c **** 
 320:Drivers/lvgl/src/lv_init.c **** #if LV_LOG_LEVEL == LV_LOG_LEVEL_TRACE
 321:Drivers/lvgl/src/lv_init.c ****     LV_LOG_WARN("Log level is set to 'Trace' which makes LVGL much slower");
 322:Drivers/lvgl/src/lv_init.c **** #endif
 323:Drivers/lvgl/src/lv_init.c **** 
 324:Drivers/lvgl/src/lv_init.c **** #if LV_USE_FS_FATFS != '\0'
 325:Drivers/lvgl/src/lv_init.c ****     lv_fs_fatfs_init();
 326:Drivers/lvgl/src/lv_init.c **** #endif
 327:Drivers/lvgl/src/lv_init.c **** 
 328:Drivers/lvgl/src/lv_init.c **** #if LV_USE_FS_STDIO != '\0'
 329:Drivers/lvgl/src/lv_init.c ****     lv_fs_stdio_init();
 330:Drivers/lvgl/src/lv_init.c **** #endif
 331:Drivers/lvgl/src/lv_init.c **** 
 332:Drivers/lvgl/src/lv_init.c **** #if LV_USE_FS_POSIX != '\0'
 333:Drivers/lvgl/src/lv_init.c ****     lv_fs_posix_init();
 334:Drivers/lvgl/src/lv_init.c **** #endif
 335:Drivers/lvgl/src/lv_init.c **** 
 336:Drivers/lvgl/src/lv_init.c **** #if LV_USE_FS_WIN32 != '\0'
 337:Drivers/lvgl/src/lv_init.c ****     lv_fs_win32_init();
 338:Drivers/lvgl/src/lv_init.c **** #endif
 339:Drivers/lvgl/src/lv_init.c **** 
 340:Drivers/lvgl/src/lv_init.c **** #if LV_USE_FS_MEMFS
 341:Drivers/lvgl/src/lv_init.c ****     lv_fs_memfs_init();
 342:Drivers/lvgl/src/lv_init.c **** #endif
 343:Drivers/lvgl/src/lv_init.c **** 
 344:Drivers/lvgl/src/lv_init.c **** #if LV_USE_FS_LITTLEFS
 345:Drivers/lvgl/src/lv_init.c ****     lv_fs_littlefs_init();
 346:Drivers/lvgl/src/lv_init.c **** #endif
 347:Drivers/lvgl/src/lv_init.c **** 
 348:Drivers/lvgl/src/lv_init.c **** #if LV_USE_FS_ARDUINO_ESP_LITTLEFS
 349:Drivers/lvgl/src/lv_init.c ****     lv_fs_arduino_esp_littlefs_init();
 350:Drivers/lvgl/src/lv_init.c **** #endif
 351:Drivers/lvgl/src/lv_init.c **** 
 352:Drivers/lvgl/src/lv_init.c **** #if LV_USE_FS_ARDUINO_SD
 353:Drivers/lvgl/src/lv_init.c ****     lv_fs_arduino_sd_init();
 354:Drivers/lvgl/src/lv_init.c **** #endif
 355:Drivers/lvgl/src/lv_init.c **** 
 356:Drivers/lvgl/src/lv_init.c **** #if LV_USE_FS_UEFI
 357:Drivers/lvgl/src/lv_init.c ****     lv_fs_uefi_init();
 358:Drivers/lvgl/src/lv_init.c **** #endif
 359:Drivers/lvgl/src/lv_init.c **** 
 360:Drivers/lvgl/src/lv_init.c **** #if LV_USE_LODEPNG
 361:Drivers/lvgl/src/lv_init.c ****     lv_lodepng_init();
 362:Drivers/lvgl/src/lv_init.c **** #endif
 363:Drivers/lvgl/src/lv_init.c **** 
ARM GAS  /tmp/cc8wCd6s.s 			page 14


 364:Drivers/lvgl/src/lv_init.c **** #if LV_USE_LIBPNG
 365:Drivers/lvgl/src/lv_init.c ****     lv_libpng_init();
 366:Drivers/lvgl/src/lv_init.c **** #endif
 367:Drivers/lvgl/src/lv_init.c **** 
 368:Drivers/lvgl/src/lv_init.c **** #if LV_USE_TJPGD
 369:Drivers/lvgl/src/lv_init.c ****     lv_tjpgd_init();
 370:Drivers/lvgl/src/lv_init.c **** #endif
 371:Drivers/lvgl/src/lv_init.c **** 
 372:Drivers/lvgl/src/lv_init.c **** #if LV_USE_LIBJPEG_TURBO
 373:Drivers/lvgl/src/lv_init.c ****     lv_libjpeg_turbo_init();
 374:Drivers/lvgl/src/lv_init.c **** #endif
 375:Drivers/lvgl/src/lv_init.c **** 
 376:Drivers/lvgl/src/lv_init.c **** #if LV_USE_BMP
 377:Drivers/lvgl/src/lv_init.c ****     lv_bmp_init();
 378:Drivers/lvgl/src/lv_init.c **** #endif
 379:Drivers/lvgl/src/lv_init.c **** 
 380:Drivers/lvgl/src/lv_init.c **** #if LV_USE_SVG
 381:Drivers/lvgl/src/lv_init.c ****     lv_svg_decoder_init();
 382:Drivers/lvgl/src/lv_init.c **** #endif
 383:Drivers/lvgl/src/lv_init.c **** 
 384:Drivers/lvgl/src/lv_init.c ****     /*Make FFMPEG last because the last converter will be checked first and
 385:Drivers/lvgl/src/lv_init.c ****      *it's superior to any other */
 386:Drivers/lvgl/src/lv_init.c **** #if LV_USE_FFMPEG
 387:Drivers/lvgl/src/lv_init.c ****     lv_ffmpeg_init();
 388:Drivers/lvgl/src/lv_init.c **** #endif
 389:Drivers/lvgl/src/lv_init.c **** 
 390:Drivers/lvgl/src/lv_init.c **** #if LV_USE_XML
 391:Drivers/lvgl/src/lv_init.c ****     lv_xml_init();
 392:Drivers/lvgl/src/lv_init.c **** #endif
 393:Drivers/lvgl/src/lv_init.c **** 
 394:Drivers/lvgl/src/lv_init.c ****     lv_initialized = true;
 298              		.loc 1 394 5 view .LVU86
 299              		.loc 1 394 20 is_stmt 0 view .LVU87
 300 0052 0123     		movs	r3, #1
 301 0054 2370     		strb	r3, [r4]
 395:Drivers/lvgl/src/lv_init.c **** 
 396:Drivers/lvgl/src/lv_init.c ****     LV_LOG_TRACE("finished");
 302              		.loc 1 396 5 is_stmt 1 view .LVU88
 303              		.loc 1 396 5 view .LVU89
 304              		.loc 1 396 5 view .LVU90
 305              	.LVL28:
 397:Drivers/lvgl/src/lv_init.c **** }
 306              		.loc 1 397 1 is_stmt 0 view .LVU91
 307 0056 10BD     		pop	{r4, pc}
 308              	.L26:
 309              		.align	2
 310              	.L25:
 311 0058 00000000 		.word	lv_global
 312              		.cfi_endproc
 313              	.LFE189:
 315              		.section	.text.lv_deinit,"ax",%progbits
 316              		.align	1
 317              		.global	lv_deinit
 318              		.syntax unified
 319              		.thumb
 320              		.thumb_func
 322              	lv_deinit:
ARM GAS  /tmp/cc8wCd6s.s 			page 15


 323              	.LFB190:
 398:Drivers/lvgl/src/lv_init.c **** 
 399:Drivers/lvgl/src/lv_init.c **** void lv_deinit(void)
 400:Drivers/lvgl/src/lv_init.c **** {
 324              		.loc 1 400 1 is_stmt 1 view -0
 325              		.cfi_startproc
 326              		@ args = 0, pretend = 0, frame = 0
 327              		@ frame_needed = 0, uses_anonymous_args = 0
 401:Drivers/lvgl/src/lv_init.c ****     /*Do nothing if already deinit*/
 402:Drivers/lvgl/src/lv_init.c ****     if(!lv_initialized) {
 328              		.loc 1 402 5 view .LVU93
 329              		.loc 1 402 9 is_stmt 0 view .LVU94
 330 0000 184B     		ldr	r3, .L34
 331 0002 1B78     		ldrb	r3, [r3]	@ zero_extendqisi2
 332              		.loc 1 402 7 view .LVU95
 333 0004 13B1     		cbz	r3, .L30
 403:Drivers/lvgl/src/lv_init.c ****         LV_LOG_WARN("lv_deinit: already deinit!");
 404:Drivers/lvgl/src/lv_init.c ****         return;
 405:Drivers/lvgl/src/lv_init.c ****     }
 406:Drivers/lvgl/src/lv_init.c **** 
 407:Drivers/lvgl/src/lv_init.c ****     if(lv_deinit_in_progress) return;
 334              		.loc 1 407 5 is_stmt 1 view .LVU96
 335              		.loc 1 407 8 is_stmt 0 view .LVU97
 336 0006 174B     		ldr	r3, .L34
 337 0008 5B78     		ldrb	r3, [r3, #1]	@ zero_extendqisi2
 338              		.loc 1 407 7 view .LVU98
 339 000a 03B1     		cbz	r3, .L33
 340              	.L30:
 341 000c 7047     		bx	lr
 342              	.L33:
 400:Drivers/lvgl/src/lv_init.c ****     /*Do nothing if already deinit*/
 343              		.loc 1 400 1 view .LVU99
 344 000e 10B5     		push	{r4, lr}
 345              	.LCFI5:
 346              		.cfi_def_cfa_offset 8
 347              		.cfi_offset 4, -8
 348              		.cfi_offset 14, -4
 408:Drivers/lvgl/src/lv_init.c **** 
 409:Drivers/lvgl/src/lv_init.c ****     lv_deinit_in_progress = true;
 349              		.loc 1 409 5 is_stmt 1 view .LVU100
 350              		.loc 1 409 27 is_stmt 0 view .LVU101
 351 0010 144C     		ldr	r4, .L34
 352 0012 0123     		movs	r3, #1
 353 0014 6370     		strb	r3, [r4, #1]
 410:Drivers/lvgl/src/lv_init.c **** 
 411:Drivers/lvgl/src/lv_init.c **** #if LV_USE_SYSMON
 412:Drivers/lvgl/src/lv_init.c ****     lv_sysmon_builtin_deinit();
 413:Drivers/lvgl/src/lv_init.c **** #endif
 414:Drivers/lvgl/src/lv_init.c **** 
 415:Drivers/lvgl/src/lv_init.c ****     lv_display_set_default(NULL);
 354              		.loc 1 415 5 is_stmt 1 view .LVU102
 355 0016 0020     		movs	r0, #0
 356 0018 FFF7FEFF 		bl	lv_display_set_default
 357              	.LVL29:
 416:Drivers/lvgl/src/lv_init.c **** 
 417:Drivers/lvgl/src/lv_init.c ****     lv_cleanup_devices(LV_GLOBAL_DEFAULT());
 358              		.loc 1 417 5 view .LVU103
ARM GAS  /tmp/cc8wCd6s.s 			page 16


 359 001c 2046     		mov	r0, r4
 360 001e FFF7FEFF 		bl	lv_cleanup_devices
 361              	.LVL30:
 418:Drivers/lvgl/src/lv_init.c **** 
 419:Drivers/lvgl/src/lv_init.c **** #if LV_USE_EVDEV
 420:Drivers/lvgl/src/lv_init.c ****     lv_evdev_deinit();
 421:Drivers/lvgl/src/lv_init.c **** #endif
 422:Drivers/lvgl/src/lv_init.c **** 
 423:Drivers/lvgl/src/lv_init.c **** #if LV_USE_SPAN != 0
 424:Drivers/lvgl/src/lv_init.c ****     lv_span_stack_deinit();
 362              		.loc 1 424 5 view .LVU104
 363 0022 FFF7FEFF 		bl	lv_span_stack_deinit
 364              	.LVL31:
 425:Drivers/lvgl/src/lv_init.c **** #endif
 426:Drivers/lvgl/src/lv_init.c **** 
 427:Drivers/lvgl/src/lv_init.c **** #if LV_USE_FREETYPE
 428:Drivers/lvgl/src/lv_init.c ****     lv_freetype_uninit();
 429:Drivers/lvgl/src/lv_init.c **** #endif
 430:Drivers/lvgl/src/lv_init.c **** 
 431:Drivers/lvgl/src/lv_init.c **** #if LV_USE_THEME_DEFAULT
 432:Drivers/lvgl/src/lv_init.c ****     lv_theme_default_deinit();
 365              		.loc 1 432 5 view .LVU105
 366 0026 FFF7FEFF 		bl	lv_theme_default_deinit
 367              	.LVL32:
 433:Drivers/lvgl/src/lv_init.c **** #endif
 434:Drivers/lvgl/src/lv_init.c **** 
 435:Drivers/lvgl/src/lv_init.c **** #if LV_USE_THEME_SIMPLE
 436:Drivers/lvgl/src/lv_init.c ****     lv_theme_simple_deinit();
 368              		.loc 1 436 5 view .LVU106
 369 002a FFF7FEFF 		bl	lv_theme_simple_deinit
 370              	.LVL33:
 437:Drivers/lvgl/src/lv_init.c **** #endif
 438:Drivers/lvgl/src/lv_init.c **** 
 439:Drivers/lvgl/src/lv_init.c **** #if LV_USE_THEME_MONO
 440:Drivers/lvgl/src/lv_init.c ****     lv_theme_mono_deinit();
 371              		.loc 1 440 5 view .LVU107
 372 002e FFF7FEFF 		bl	lv_theme_mono_deinit
 373              	.LVL34:
 441:Drivers/lvgl/src/lv_init.c **** #endif
 442:Drivers/lvgl/src/lv_init.c **** 
 443:Drivers/lvgl/src/lv_init.c ****     lv_image_decoder_deinit();
 374              		.loc 1 443 5 view .LVU108
 375 0032 FFF7FEFF 		bl	lv_image_decoder_deinit
 376              	.LVL35:
 444:Drivers/lvgl/src/lv_init.c **** 
 445:Drivers/lvgl/src/lv_init.c ****     lv_refr_deinit();
 377              		.loc 1 445 5 view .LVU109
 378 0036 FFF7FEFF 		bl	lv_refr_deinit
 379              	.LVL36:
 446:Drivers/lvgl/src/lv_init.c **** 
 447:Drivers/lvgl/src/lv_init.c ****     lv_obj_style_deinit();
 380              		.loc 1 447 5 view .LVU110
 381 003a FFF7FEFF 		bl	lv_obj_style_deinit
 382              	.LVL37:
 448:Drivers/lvgl/src/lv_init.c **** 
 449:Drivers/lvgl/src/lv_init.c **** #if LV_USE_UEFI
 450:Drivers/lvgl/src/lv_init.c ****     lv_uefi_platform_deinit();
ARM GAS  /tmp/cc8wCd6s.s 			page 17


 451:Drivers/lvgl/src/lv_init.c **** #endif
 452:Drivers/lvgl/src/lv_init.c **** 
 453:Drivers/lvgl/src/lv_init.c **** #if LV_USE_PXP
 454:Drivers/lvgl/src/lv_init.c **** #if LV_USE_DRAW_PXP || LV_USE_ROTATE_PXP
 455:Drivers/lvgl/src/lv_init.c ****     lv_draw_pxp_deinit();
 456:Drivers/lvgl/src/lv_init.c **** #endif
 457:Drivers/lvgl/src/lv_init.c **** #endif
 458:Drivers/lvgl/src/lv_init.c **** 
 459:Drivers/lvgl/src/lv_init.c **** #if LV_USE_DRAW_VGLITE
 460:Drivers/lvgl/src/lv_init.c ****     lv_draw_vglite_deinit();
 461:Drivers/lvgl/src/lv_init.c **** #endif
 462:Drivers/lvgl/src/lv_init.c **** 
 463:Drivers/lvgl/src/lv_init.c **** #if LV_USE_DRAW_G2D
 464:Drivers/lvgl/src/lv_init.c ****     lv_draw_g2d_deinit();
 465:Drivers/lvgl/src/lv_init.c **** #endif
 466:Drivers/lvgl/src/lv_init.c **** 
 467:Drivers/lvgl/src/lv_init.c **** #if LV_USE_DRAW_VG_LITE
 468:Drivers/lvgl/src/lv_init.c ****     lv_draw_vg_lite_deinit();
 469:Drivers/lvgl/src/lv_init.c **** #endif
 470:Drivers/lvgl/src/lv_init.c **** 
 471:Drivers/lvgl/src/lv_init.c **** #if LV_USE_DRAW_DMA2D
 472:Drivers/lvgl/src/lv_init.c ****     lv_draw_dma2d_deinit();
 473:Drivers/lvgl/src/lv_init.c **** #endif
 474:Drivers/lvgl/src/lv_init.c **** 
 475:Drivers/lvgl/src/lv_init.c **** #if LV_USE_DRAW_OPENGLES
 476:Drivers/lvgl/src/lv_init.c ****     lv_draw_opengles_deinit();
 477:Drivers/lvgl/src/lv_init.c **** #endif
 478:Drivers/lvgl/src/lv_init.c **** 
 479:Drivers/lvgl/src/lv_init.c **** #if LV_USE_DRAW_SW
 480:Drivers/lvgl/src/lv_init.c ****     lv_draw_sw_deinit();
 383              		.loc 1 480 5 view .LVU111
 384 003e FFF7FEFF 		bl	lv_draw_sw_deinit
 385              	.LVL38:
 481:Drivers/lvgl/src/lv_init.c **** #endif
 482:Drivers/lvgl/src/lv_init.c **** 
 483:Drivers/lvgl/src/lv_init.c ****     lv_draw_deinit();
 386              		.loc 1 483 5 view .LVU112
 387 0042 FFF7FEFF 		bl	lv_draw_deinit
 388              	.LVL39:
 484:Drivers/lvgl/src/lv_init.c **** 
 485:Drivers/lvgl/src/lv_init.c ****     lv_group_deinit();
 389              		.loc 1 485 5 view .LVU113
 390 0046 FFF7FEFF 		bl	lv_group_deinit
 391              	.LVL40:
 486:Drivers/lvgl/src/lv_init.c **** 
 487:Drivers/lvgl/src/lv_init.c ****     lv_anim_core_deinit();
 392              		.loc 1 487 5 view .LVU114
 393 004a FFF7FEFF 		bl	lv_anim_core_deinit
 394              	.LVL41:
 488:Drivers/lvgl/src/lv_init.c **** 
 489:Drivers/lvgl/src/lv_init.c ****     lv_layout_deinit();
 395              		.loc 1 489 5 view .LVU115
 396 004e FFF7FEFF 		bl	lv_layout_deinit
 397              	.LVL42:
 490:Drivers/lvgl/src/lv_init.c **** 
 491:Drivers/lvgl/src/lv_init.c ****     lv_fs_deinit();
 398              		.loc 1 491 5 view .LVU116
ARM GAS  /tmp/cc8wCd6s.s 			page 18


 399 0052 FFF7FEFF 		bl	lv_fs_deinit
 400              	.LVL43:
 492:Drivers/lvgl/src/lv_init.c **** 
 493:Drivers/lvgl/src/lv_init.c ****     lv_timer_core_deinit();
 401              		.loc 1 493 5 view .LVU117
 402 0056 FFF7FEFF 		bl	lv_timer_core_deinit
 403              	.LVL44:
 494:Drivers/lvgl/src/lv_init.c **** 
 495:Drivers/lvgl/src/lv_init.c **** #if LV_USE_PROFILER && LV_USE_PROFILER_BUILTIN
 496:Drivers/lvgl/src/lv_init.c ****     lv_profiler_builtin_uninit();
 497:Drivers/lvgl/src/lv_init.c **** #endif
 498:Drivers/lvgl/src/lv_init.c **** 
 499:Drivers/lvgl/src/lv_init.c **** #if LV_USE_OBJ_ID && LV_USE_OBJ_ID_BUILTIN
 500:Drivers/lvgl/src/lv_init.c ****     lv_objid_builtin_destroy();
 501:Drivers/lvgl/src/lv_init.c **** #endif
 502:Drivers/lvgl/src/lv_init.c **** 
 503:Drivers/lvgl/src/lv_init.c ****     lv_mem_deinit();
 404              		.loc 1 503 5 view .LVU118
 405 005a FFF7FEFF 		bl	lv_mem_deinit
 406              	.LVL45:
 504:Drivers/lvgl/src/lv_init.c **** 
 505:Drivers/lvgl/src/lv_init.c ****     lv_initialized = false;
 407              		.loc 1 505 5 view .LVU119
 408              		.loc 1 505 20 is_stmt 0 view .LVU120
 409 005e 0023     		movs	r3, #0
 410 0060 2370     		strb	r3, [r4]
 506:Drivers/lvgl/src/lv_init.c **** 
 507:Drivers/lvgl/src/lv_init.c ****     LV_LOG_INFO("lv_deinit done");
 411              		.loc 1 507 5 is_stmt 1 view .LVU121
 412              		.loc 1 507 5 view .LVU122
 413              		.loc 1 507 5 view .LVU123
 508:Drivers/lvgl/src/lv_init.c **** 
 509:Drivers/lvgl/src/lv_init.c **** #if LV_USE_LOG
 510:Drivers/lvgl/src/lv_init.c ****     lv_log_register_print_cb(NULL);
 511:Drivers/lvgl/src/lv_init.c **** #endif
 512:Drivers/lvgl/src/lv_init.c **** 
 513:Drivers/lvgl/src/lv_init.c **** #ifdef LV_GC_DEINIT
 514:Drivers/lvgl/src/lv_init.c ****     LV_GC_DEINIT();
 515:Drivers/lvgl/src/lv_init.c **** #endif
 516:Drivers/lvgl/src/lv_init.c **** 
 517:Drivers/lvgl/src/lv_init.c **** }
 414              		.loc 1 517 1 is_stmt 0 view .LVU124
 415 0062 10BD     		pop	{r4, pc}
 416              	.L35:
 417              		.align	2
 418              	.L34:
 419 0064 00000000 		.word	lv_global
 420              		.cfi_endproc
 421              	.LFE190:
 423              		.global	lv_global
 424              		.section	.bss.lv_global,"aw",%nobits
 425              		.align	2
 428              	lv_global:
 429 0000 00000000 		.space	480
 429      00000000 
 429      00000000 
 429      00000000 
ARM GAS  /tmp/cc8wCd6s.s 			page 19


 429      00000000 
 430              		.text
 431              	.Letext0:
 432              		.file 3 "/usr/arm-none-eabi/include/machine/_default_types.h"
 433              		.file 4 "/usr/arm-none-eabi/include/sys/_stdint.h"
 434              		.file 5 "/usr/lib/gcc/arm-none-eabi/14.2.0/include/stddef.h"
 435              		.file 6 "Drivers/lvgl/src/misc/../tick/../misc/lv_types.h"
 436              		.file 7 "Drivers/lvgl/src/core/lv_group_private.h"
 437              		.file 8 "Drivers/lvgl/src/display/lv_display_private.h"
 438              		.file 9 "Drivers/lvgl/src/core/../draw/lv_draw.h"
 439              		.file 10 "Drivers/lvgl/src/core/../draw/lv_draw_private.h"
 440              		.file 11 "Drivers/lvgl/src/indev/lv_indev_private.h"
 441              		.file 12 "Drivers/lvgl/src/misc/lv_timer_private.h"
 442              		.file 13 "Drivers/lvgl/src/misc/lv_anim.h"
 443              		.file 14 "Drivers/lvgl/src/draw/../misc/cache/lv_cache_private.h"
 444              		.file 15 "Drivers/lvgl/src/draw/lv_draw_buf_private.h"
 445              		.file 16 "Drivers/lvgl/src/core/../display/../misc/lv_array.h"
 446              		.file 17 "Drivers/lvgl/src/draw/lv_draw_buf.h"
 447              		.file 18 "Drivers/lvgl/src/misc/../tick/lv_tick.h"
 448              		.file 19 "Drivers/lvgl/src/misc/lv_ll.h"
 449              		.file 20 "Drivers/lvgl/src/misc/lv_timer.h"
 450              		.file 21 "Drivers/lvgl/src/misc/lv_anim_private.h"
 451              		.file 22 "Drivers/lvgl/src/draw/../misc/lv_area.h"
 452              		.file 23 "Drivers/lvgl/src/draw/../misc/lv_color.h"
 453              		.file 24 "Drivers/lvgl/src/draw/lv_image_dsc.h"
 454              		.file 25 "Drivers/lvgl/src/draw/../misc/cache/../../osal/lv_os_none.h"
 455              		.file 26 "Drivers/lvgl/src/core/../misc/../layouts/lv_layout.h"
 456              		.file 27 "Drivers/lvgl/src/core/../misc/lv_style.h"
 457              		.file 28 "Drivers/lvgl/src/core/../display/../misc/lv_event.h"
 458              		.file 29 "Drivers/lvgl/src/core/../display/lv_display.h"
 459              		.file 30 "Drivers/lvgl/src/core/../indev/../core/lv_group.h"
 460              		.file 31 "Drivers/lvgl/src/core/../indev/lv_indev.h"
 461              		.file 32 "Drivers/lvgl/src/core/../tick/lv_tick_private.h"
 462              		.file 33 "Drivers/lvgl/src/core/../draw/sw/lv_draw_sw_mask_private.h"
 463              		.file 34 "Drivers/lvgl/src/core/../layouts/lv_layout_private.h"
 464              		.file 35 "Drivers/lvgl/src/core/lv_global.h"
 465              		.file 36 "Drivers/lvgl/src/draw/../misc/../stdlib/lv_mem.h"
 466              		.file 37 "Drivers/lvgl/src/misc/lv_fs_private.h"
 467              		.file 38 "Drivers/lvgl/src/core/../draw/sw/lv_draw_sw.h"
 468              		.file 39 "Drivers/lvgl/src/core/lv_obj_style_private.h"
 469              		.file 40 "Drivers/lvgl/src/core/lv_refr_private.h"
 470              		.file 41 "Drivers/lvgl/src/draw/lv_image_decoder_private.h"
 471              		.file 42 "Drivers/lvgl/src/themes/simple/../mono/lv_theme_mono.h"
 472              		.file 43 "Drivers/lvgl/src/themes/simple/lv_theme_simple.h"
 473              		.file 44 "Drivers/lvgl/src/themes/simple/../default/lv_theme_default.h"
 474              		.file 45 "Drivers/lvgl/src/widgets/span/lv_span.h"
 475              		.file 46 "Drivers/lvgl/src/misc/lv_math.h"
 476              		.file 47 "Drivers/lvgl/src/libs/bin_decoder/lv_bin_decoder.h"
 477              		.file 48 "Drivers/lvgl/src/osal/lv_os_private.h"
ARM GAS  /tmp/cc8wCd6s.s 			page 20

