ARM GAS  /tmp/ccpQad6v.s 			page 1


   1              		.cpu cortex-m7
   2              		.arch armv7e-m
   3              		.fpu fpv5-sp-d16
   4              		.eabi_attribute 27, 1
   5              		.eabi_attribute 28, 1
   6              		.eabi_attribute 20, 1
   7              		.eabi_attribute 21, 1
   8              		.eabi_attribute 23, 3
   9              		.eabi_attribute 24, 1
  10              		.eabi_attribute 25, 1
  11              		.eabi_attribute 26, 1
  12              		.eabi_attribute 30, 1
  13              		.eabi_attribute 34, 1
  14              		.eabi_attribute 18, 4
  15              		.file	"lv_indev_scroll.c"
  16              		.text
  17              	.Ltext0:
  18              		.cfi_sections	.debug_frame
  19              		.file 1 "Drivers/lvgl/src/indev/lv_indev_scroll.c"
  20              		.section	.text.scroll_limit_diff,"ax",%progbits
  21              		.align	1
  22              		.syntax unified
  23              		.thumb
  24              		.thumb_func
  26              	scroll_limit_diff:
  27              	.LVL0:
  28              	.LFB179:
   1:Drivers/lvgl/src/indev/lv_indev_scroll.c **** /**
   2:Drivers/lvgl/src/indev/lv_indev_scroll.c ****  * @file lv_indev_scroll.c
   3:Drivers/lvgl/src/indev/lv_indev_scroll.c ****  *
   4:Drivers/lvgl/src/indev/lv_indev_scroll.c ****  */
   5:Drivers/lvgl/src/indev/lv_indev_scroll.c **** 
   6:Drivers/lvgl/src/indev/lv_indev_scroll.c **** /*********************
   7:Drivers/lvgl/src/indev/lv_indev_scroll.c ****  *      INCLUDES
   8:Drivers/lvgl/src/indev/lv_indev_scroll.c ****  *********************/
   9:Drivers/lvgl/src/indev/lv_indev_scroll.c **** #include "../core/lv_obj_scroll_private.h"
  10:Drivers/lvgl/src/indev/lv_indev_scroll.c **** #include "../core/lv_obj_private.h"
  11:Drivers/lvgl/src/indev/lv_indev_scroll.c **** #include "lv_indev.h"
  12:Drivers/lvgl/src/indev/lv_indev_scroll.c **** #include "lv_indev_private.h"
  13:Drivers/lvgl/src/indev/lv_indev_scroll.c **** #include "lv_indev_scroll.h"
  14:Drivers/lvgl/src/indev/lv_indev_scroll.c **** 
  15:Drivers/lvgl/src/indev/lv_indev_scroll.c **** /*********************
  16:Drivers/lvgl/src/indev/lv_indev_scroll.c ****  *      DEFINES
  17:Drivers/lvgl/src/indev/lv_indev_scroll.c ****  *********************/
  18:Drivers/lvgl/src/indev/lv_indev_scroll.c **** #define ELASTIC_SLOWNESS_FACTOR 4   /*Scrolling on elastic parts are slower by this factor*/
  19:Drivers/lvgl/src/indev/lv_indev_scroll.c **** 
  20:Drivers/lvgl/src/indev/lv_indev_scroll.c **** /**********************
  21:Drivers/lvgl/src/indev/lv_indev_scroll.c ****  *      TYPEDEFS
  22:Drivers/lvgl/src/indev/lv_indev_scroll.c ****  **********************/
  23:Drivers/lvgl/src/indev/lv_indev_scroll.c **** 
  24:Drivers/lvgl/src/indev/lv_indev_scroll.c **** /**********************
  25:Drivers/lvgl/src/indev/lv_indev_scroll.c ****  *  STATIC PROTOTYPES
  26:Drivers/lvgl/src/indev/lv_indev_scroll.c ****  **********************/
  27:Drivers/lvgl/src/indev/lv_indev_scroll.c **** static void init_scroll_limits(lv_indev_t * indev);
  28:Drivers/lvgl/src/indev/lv_indev_scroll.c **** static int32_t find_snap_point_x(const lv_obj_t * obj, int32_t min, int32_t max, int32_t ofs);
  29:Drivers/lvgl/src/indev/lv_indev_scroll.c **** static int32_t find_snap_point_y(const lv_obj_t * obj, int32_t min, int32_t max, int32_t ofs);
  30:Drivers/lvgl/src/indev/lv_indev_scroll.c **** static void scroll_limit_diff(lv_indev_t * indev, int32_t * diff_x, int32_t * diff_y);
ARM GAS  /tmp/ccpQad6v.s 			page 2


  31:Drivers/lvgl/src/indev/lv_indev_scroll.c **** static int32_t elastic_diff(lv_obj_t * scroll_obj, int32_t diff, int32_t scroll_start, int32_t scro
  32:Drivers/lvgl/src/indev/lv_indev_scroll.c ****                             lv_dir_t dir);
  33:Drivers/lvgl/src/indev/lv_indev_scroll.c **** static void has_more_snap_points(lv_obj_t * scroll_obj, lv_dir_t dir, bool * has_start_snap, bool *
  34:Drivers/lvgl/src/indev/lv_indev_scroll.c **** 
  35:Drivers/lvgl/src/indev/lv_indev_scroll.c **** /**********************
  36:Drivers/lvgl/src/indev/lv_indev_scroll.c ****  *  STATIC VARIABLES
  37:Drivers/lvgl/src/indev/lv_indev_scroll.c ****  **********************/
  38:Drivers/lvgl/src/indev/lv_indev_scroll.c **** 
  39:Drivers/lvgl/src/indev/lv_indev_scroll.c **** /**********************
  40:Drivers/lvgl/src/indev/lv_indev_scroll.c ****  *      MACROS
  41:Drivers/lvgl/src/indev/lv_indev_scroll.c ****  **********************/
  42:Drivers/lvgl/src/indev/lv_indev_scroll.c **** 
  43:Drivers/lvgl/src/indev/lv_indev_scroll.c **** /**********************
  44:Drivers/lvgl/src/indev/lv_indev_scroll.c ****  *   GLOBAL FUNCTIONS
  45:Drivers/lvgl/src/indev/lv_indev_scroll.c ****  **********************/
  46:Drivers/lvgl/src/indev/lv_indev_scroll.c **** 
  47:Drivers/lvgl/src/indev/lv_indev_scroll.c **** void lv_indev_scroll_handler(lv_indev_t * indev)
  48:Drivers/lvgl/src/indev/lv_indev_scroll.c **** {
  49:Drivers/lvgl/src/indev/lv_indev_scroll.c ****     if(indev->pointer.vect.x == 0 && indev->pointer.vect.y == 0) {
  50:Drivers/lvgl/src/indev/lv_indev_scroll.c ****         return;
  51:Drivers/lvgl/src/indev/lv_indev_scroll.c ****     }
  52:Drivers/lvgl/src/indev/lv_indev_scroll.c **** 
  53:Drivers/lvgl/src/indev/lv_indev_scroll.c ****     lv_obj_t * scroll_obj = indev->pointer.scroll_obj;
  54:Drivers/lvgl/src/indev/lv_indev_scroll.c ****     /*If there is no scroll object yet try to find one*/
  55:Drivers/lvgl/src/indev/lv_indev_scroll.c ****     if(scroll_obj == NULL) {
  56:Drivers/lvgl/src/indev/lv_indev_scroll.c ****         scroll_obj = lv_indev_find_scroll_obj(indev);
  57:Drivers/lvgl/src/indev/lv_indev_scroll.c ****         if(scroll_obj == NULL) return;
  58:Drivers/lvgl/src/indev/lv_indev_scroll.c **** 
  59:Drivers/lvgl/src/indev/lv_indev_scroll.c ****         init_scroll_limits(indev);
  60:Drivers/lvgl/src/indev/lv_indev_scroll.c **** 
  61:Drivers/lvgl/src/indev/lv_indev_scroll.c ****         lv_obj_remove_state(indev->pointer.act_obj, LV_STATE_PRESSED);
  62:Drivers/lvgl/src/indev/lv_indev_scroll.c ****         lv_obj_send_event(scroll_obj, LV_EVENT_SCROLL_BEGIN, NULL);
  63:Drivers/lvgl/src/indev/lv_indev_scroll.c ****         if(indev->reset_query) return;
  64:Drivers/lvgl/src/indev/lv_indev_scroll.c ****     }
  65:Drivers/lvgl/src/indev/lv_indev_scroll.c **** 
  66:Drivers/lvgl/src/indev/lv_indev_scroll.c ****     /*Set new position or scroll if the vector is not zero*/
  67:Drivers/lvgl/src/indev/lv_indev_scroll.c ****     int16_t angle = 0;
  68:Drivers/lvgl/src/indev/lv_indev_scroll.c ****     int16_t scale_x = 256;
  69:Drivers/lvgl/src/indev/lv_indev_scroll.c ****     int16_t scale_y = 256;
  70:Drivers/lvgl/src/indev/lv_indev_scroll.c ****     lv_obj_t * parent = scroll_obj;
  71:Drivers/lvgl/src/indev/lv_indev_scroll.c ****     while(parent) {
  72:Drivers/lvgl/src/indev/lv_indev_scroll.c ****         angle += lv_obj_get_style_transform_rotation(parent, 0);
  73:Drivers/lvgl/src/indev/lv_indev_scroll.c ****         int32_t zoom_act_x = lv_obj_get_style_transform_scale_x_safe(parent, 0);
  74:Drivers/lvgl/src/indev/lv_indev_scroll.c ****         int32_t zoom_act_y = lv_obj_get_style_transform_scale_y_safe(parent, 0);
  75:Drivers/lvgl/src/indev/lv_indev_scroll.c ****         scale_x = (scale_x * zoom_act_x) >> 8;
  76:Drivers/lvgl/src/indev/lv_indev_scroll.c ****         scale_y = (scale_y * zoom_act_y) >> 8;
  77:Drivers/lvgl/src/indev/lv_indev_scroll.c ****         parent = lv_obj_get_parent(parent);
  78:Drivers/lvgl/src/indev/lv_indev_scroll.c ****     }
  79:Drivers/lvgl/src/indev/lv_indev_scroll.c **** 
  80:Drivers/lvgl/src/indev/lv_indev_scroll.c ****     if(scale_x == 0) {
  81:Drivers/lvgl/src/indev/lv_indev_scroll.c ****         scale_x = 1;
  82:Drivers/lvgl/src/indev/lv_indev_scroll.c ****     }
  83:Drivers/lvgl/src/indev/lv_indev_scroll.c **** 
  84:Drivers/lvgl/src/indev/lv_indev_scroll.c ****     if(scale_y == 0) {
  85:Drivers/lvgl/src/indev/lv_indev_scroll.c ****         scale_y = 1;
  86:Drivers/lvgl/src/indev/lv_indev_scroll.c ****     }
  87:Drivers/lvgl/src/indev/lv_indev_scroll.c **** 
ARM GAS  /tmp/ccpQad6v.s 			page 3


  88:Drivers/lvgl/src/indev/lv_indev_scroll.c ****     if(angle != 0 || scale_x != LV_SCALE_NONE || scale_y != LV_SCALE_NONE) {
  89:Drivers/lvgl/src/indev/lv_indev_scroll.c ****         angle = -angle;
  90:Drivers/lvgl/src/indev/lv_indev_scroll.c ****         scale_x = (256 * 256) / scale_x;
  91:Drivers/lvgl/src/indev/lv_indev_scroll.c ****         scale_y = (256 * 256) / scale_y;
  92:Drivers/lvgl/src/indev/lv_indev_scroll.c ****         lv_point_t pivot = { 0, 0 };
  93:Drivers/lvgl/src/indev/lv_indev_scroll.c ****         lv_point_transform(&indev->pointer.vect, angle, scale_x, scale_y, &pivot, false);
  94:Drivers/lvgl/src/indev/lv_indev_scroll.c ****     }
  95:Drivers/lvgl/src/indev/lv_indev_scroll.c **** 
  96:Drivers/lvgl/src/indev/lv_indev_scroll.c ****     int32_t diff_x = 0;
  97:Drivers/lvgl/src/indev/lv_indev_scroll.c ****     int32_t diff_y = 0;
  98:Drivers/lvgl/src/indev/lv_indev_scroll.c ****     if(indev->pointer.scroll_dir == LV_DIR_HOR) {
  99:Drivers/lvgl/src/indev/lv_indev_scroll.c ****         int32_t sr = lv_obj_get_scroll_right(scroll_obj);
 100:Drivers/lvgl/src/indev/lv_indev_scroll.c ****         int32_t sl = lv_obj_get_scroll_left(scroll_obj);
 101:Drivers/lvgl/src/indev/lv_indev_scroll.c ****         diff_x = elastic_diff(scroll_obj, indev->pointer.vect.x, sl, sr, LV_DIR_HOR);
 102:Drivers/lvgl/src/indev/lv_indev_scroll.c ****     }
 103:Drivers/lvgl/src/indev/lv_indev_scroll.c ****     else {
 104:Drivers/lvgl/src/indev/lv_indev_scroll.c ****         int32_t st = lv_obj_get_scroll_top(scroll_obj);
 105:Drivers/lvgl/src/indev/lv_indev_scroll.c ****         int32_t sb = lv_obj_get_scroll_bottom(scroll_obj);
 106:Drivers/lvgl/src/indev/lv_indev_scroll.c ****         diff_y = elastic_diff(scroll_obj, indev->pointer.vect.y, st, sb, LV_DIR_VER);
 107:Drivers/lvgl/src/indev/lv_indev_scroll.c ****     }
 108:Drivers/lvgl/src/indev/lv_indev_scroll.c **** 
 109:Drivers/lvgl/src/indev/lv_indev_scroll.c ****     lv_dir_t scroll_dir = lv_obj_get_scroll_dir(scroll_obj);
 110:Drivers/lvgl/src/indev/lv_indev_scroll.c ****     if((scroll_dir & LV_DIR_LEFT)   == 0 && diff_x > 0) diff_x = 0;
 111:Drivers/lvgl/src/indev/lv_indev_scroll.c ****     if((scroll_dir & LV_DIR_RIGHT)  == 0 && diff_x < 0) diff_x = 0;
 112:Drivers/lvgl/src/indev/lv_indev_scroll.c ****     if((scroll_dir & LV_DIR_TOP)    == 0 && diff_y > 0) diff_y = 0;
 113:Drivers/lvgl/src/indev/lv_indev_scroll.c ****     if((scroll_dir & LV_DIR_BOTTOM) == 0 && diff_y < 0) diff_y = 0;
 114:Drivers/lvgl/src/indev/lv_indev_scroll.c **** 
 115:Drivers/lvgl/src/indev/lv_indev_scroll.c ****     /*Respect the scroll limit area*/
 116:Drivers/lvgl/src/indev/lv_indev_scroll.c ****     scroll_limit_diff(indev, &diff_x, &diff_y);
 117:Drivers/lvgl/src/indev/lv_indev_scroll.c **** 
 118:Drivers/lvgl/src/indev/lv_indev_scroll.c ****     lv_obj_scroll_by_raw(scroll_obj, diff_x, diff_y);
 119:Drivers/lvgl/src/indev/lv_indev_scroll.c ****     if(indev->reset_query) return;
 120:Drivers/lvgl/src/indev/lv_indev_scroll.c ****     indev->pointer.scroll_sum.x += diff_x;
 121:Drivers/lvgl/src/indev/lv_indev_scroll.c ****     indev->pointer.scroll_sum.y += diff_y;
 122:Drivers/lvgl/src/indev/lv_indev_scroll.c **** }
 123:Drivers/lvgl/src/indev/lv_indev_scroll.c **** 
 124:Drivers/lvgl/src/indev/lv_indev_scroll.c **** void lv_indev_scroll_throw_handler(lv_indev_t * indev)
 125:Drivers/lvgl/src/indev/lv_indev_scroll.c **** {
 126:Drivers/lvgl/src/indev/lv_indev_scroll.c ****     lv_obj_t * scroll_obj = indev->pointer.scroll_obj;
 127:Drivers/lvgl/src/indev/lv_indev_scroll.c ****     if(scroll_obj == NULL) return;
 128:Drivers/lvgl/src/indev/lv_indev_scroll.c ****     if(indev->pointer.scroll_dir == LV_DIR_NONE) return;
 129:Drivers/lvgl/src/indev/lv_indev_scroll.c **** 
 130:Drivers/lvgl/src/indev/lv_indev_scroll.c ****     int32_t scroll_throw = indev->scroll_throw;
 131:Drivers/lvgl/src/indev/lv_indev_scroll.c **** 
 132:Drivers/lvgl/src/indev/lv_indev_scroll.c ****     if(lv_obj_has_flag(scroll_obj, LV_OBJ_FLAG_SCROLL_MOMENTUM) == false) {
 133:Drivers/lvgl/src/indev/lv_indev_scroll.c ****         indev->pointer.scroll_throw_vect.y = 0;
 134:Drivers/lvgl/src/indev/lv_indev_scroll.c ****         indev->pointer.scroll_throw_vect.x = 0;
 135:Drivers/lvgl/src/indev/lv_indev_scroll.c ****     }
 136:Drivers/lvgl/src/indev/lv_indev_scroll.c **** 
 137:Drivers/lvgl/src/indev/lv_indev_scroll.c ****     lv_scroll_snap_t align_x = lv_obj_get_scroll_snap_x(scroll_obj);
 138:Drivers/lvgl/src/indev/lv_indev_scroll.c ****     lv_scroll_snap_t align_y = lv_obj_get_scroll_snap_y(scroll_obj);
 139:Drivers/lvgl/src/indev/lv_indev_scroll.c **** 
 140:Drivers/lvgl/src/indev/lv_indev_scroll.c ****     if(indev->pointer.scroll_dir == LV_DIR_VER) {
 141:Drivers/lvgl/src/indev/lv_indev_scroll.c ****         indev->pointer.scroll_throw_vect.x = 0;
 142:Drivers/lvgl/src/indev/lv_indev_scroll.c ****         /*If no snapping "throw"*/
 143:Drivers/lvgl/src/indev/lv_indev_scroll.c ****         if(align_y == LV_SCROLL_SNAP_NONE) {
 144:Drivers/lvgl/src/indev/lv_indev_scroll.c ****             indev->pointer.scroll_throw_vect.y =
ARM GAS  /tmp/ccpQad6v.s 			page 4


 145:Drivers/lvgl/src/indev/lv_indev_scroll.c ****                 indev->pointer.scroll_throw_vect.y * (100 - scroll_throw) / 100;
 146:Drivers/lvgl/src/indev/lv_indev_scroll.c **** 
 147:Drivers/lvgl/src/indev/lv_indev_scroll.c ****             int32_t sb = lv_obj_get_scroll_bottom(scroll_obj);
 148:Drivers/lvgl/src/indev/lv_indev_scroll.c ****             int32_t st = lv_obj_get_scroll_top(scroll_obj);
 149:Drivers/lvgl/src/indev/lv_indev_scroll.c **** 
 150:Drivers/lvgl/src/indev/lv_indev_scroll.c ****             indev->pointer.scroll_throw_vect.y = elastic_diff(scroll_obj, indev->pointer.scroll_thr
 151:Drivers/lvgl/src/indev/lv_indev_scroll.c ****                                                               LV_DIR_VER);
 152:Drivers/lvgl/src/indev/lv_indev_scroll.c **** 
 153:Drivers/lvgl/src/indev/lv_indev_scroll.c ****             lv_obj_scroll_by_raw(scroll_obj, 0,  indev->pointer.scroll_throw_vect.y);
 154:Drivers/lvgl/src/indev/lv_indev_scroll.c ****             if(indev->reset_query) return;
 155:Drivers/lvgl/src/indev/lv_indev_scroll.c ****         }
 156:Drivers/lvgl/src/indev/lv_indev_scroll.c ****         /*With snapping find the nearest snap point and scroll there*/
 157:Drivers/lvgl/src/indev/lv_indev_scroll.c ****         else {
 158:Drivers/lvgl/src/indev/lv_indev_scroll.c ****             int32_t diff_y = lv_indev_scroll_throw_predict(indev, LV_DIR_VER);
 159:Drivers/lvgl/src/indev/lv_indev_scroll.c ****             indev->pointer.scroll_throw_vect.y = 0;
 160:Drivers/lvgl/src/indev/lv_indev_scroll.c ****             scroll_limit_diff(indev, NULL, &diff_y);
 161:Drivers/lvgl/src/indev/lv_indev_scroll.c ****             int32_t y = find_snap_point_y(scroll_obj, LV_COORD_MIN, LV_COORD_MAX, diff_y);
 162:Drivers/lvgl/src/indev/lv_indev_scroll.c ****             lv_obj_scroll_by(scroll_obj, 0, diff_y + y, LV_ANIM_ON);
 163:Drivers/lvgl/src/indev/lv_indev_scroll.c ****             if(indev->reset_query) return;
 164:Drivers/lvgl/src/indev/lv_indev_scroll.c ****         }
 165:Drivers/lvgl/src/indev/lv_indev_scroll.c ****     }
 166:Drivers/lvgl/src/indev/lv_indev_scroll.c ****     else if(indev->pointer.scroll_dir == LV_DIR_HOR) {
 167:Drivers/lvgl/src/indev/lv_indev_scroll.c ****         indev->pointer.scroll_throw_vect.y = 0;
 168:Drivers/lvgl/src/indev/lv_indev_scroll.c ****         /*If no snapping "throw"*/
 169:Drivers/lvgl/src/indev/lv_indev_scroll.c ****         if(align_x == LV_SCROLL_SNAP_NONE) {
 170:Drivers/lvgl/src/indev/lv_indev_scroll.c ****             indev->pointer.scroll_throw_vect.x =
 171:Drivers/lvgl/src/indev/lv_indev_scroll.c ****                 indev->pointer.scroll_throw_vect.x * (100 - scroll_throw) / 100;
 172:Drivers/lvgl/src/indev/lv_indev_scroll.c **** 
 173:Drivers/lvgl/src/indev/lv_indev_scroll.c ****             int32_t sl = lv_obj_get_scroll_left(scroll_obj);
 174:Drivers/lvgl/src/indev/lv_indev_scroll.c ****             int32_t sr = lv_obj_get_scroll_right(scroll_obj);
 175:Drivers/lvgl/src/indev/lv_indev_scroll.c **** 
 176:Drivers/lvgl/src/indev/lv_indev_scroll.c ****             indev->pointer.scroll_throw_vect.x = elastic_diff(scroll_obj, indev->pointer.scroll_thr
 177:Drivers/lvgl/src/indev/lv_indev_scroll.c ****                                                               LV_DIR_HOR);
 178:Drivers/lvgl/src/indev/lv_indev_scroll.c **** 
 179:Drivers/lvgl/src/indev/lv_indev_scroll.c ****             lv_obj_scroll_by_raw(scroll_obj, indev->pointer.scroll_throw_vect.x, 0);
 180:Drivers/lvgl/src/indev/lv_indev_scroll.c ****             if(indev->reset_query) return;
 181:Drivers/lvgl/src/indev/lv_indev_scroll.c ****         }
 182:Drivers/lvgl/src/indev/lv_indev_scroll.c ****         /*With snapping find the nearest snap point and scroll there*/
 183:Drivers/lvgl/src/indev/lv_indev_scroll.c ****         else {
 184:Drivers/lvgl/src/indev/lv_indev_scroll.c ****             int32_t diff_x = lv_indev_scroll_throw_predict(indev, LV_DIR_HOR);
 185:Drivers/lvgl/src/indev/lv_indev_scroll.c ****             indev->pointer.scroll_throw_vect.x = 0;
 186:Drivers/lvgl/src/indev/lv_indev_scroll.c ****             scroll_limit_diff(indev, &diff_x, NULL);
 187:Drivers/lvgl/src/indev/lv_indev_scroll.c ****             int32_t x = find_snap_point_x(scroll_obj, LV_COORD_MIN, LV_COORD_MAX, diff_x);
 188:Drivers/lvgl/src/indev/lv_indev_scroll.c ****             lv_obj_scroll_by(scroll_obj, x + diff_x, 0, LV_ANIM_ON);
 189:Drivers/lvgl/src/indev/lv_indev_scroll.c ****             if(indev->reset_query) return;
 190:Drivers/lvgl/src/indev/lv_indev_scroll.c ****         }
 191:Drivers/lvgl/src/indev/lv_indev_scroll.c ****     }
 192:Drivers/lvgl/src/indev/lv_indev_scroll.c **** 
 193:Drivers/lvgl/src/indev/lv_indev_scroll.c ****     /*Check if the scroll has finished*/
 194:Drivers/lvgl/src/indev/lv_indev_scroll.c ****     if(indev->pointer.scroll_throw_vect.x == 0 && indev->pointer.scroll_throw_vect.y == 0) {
 195:Drivers/lvgl/src/indev/lv_indev_scroll.c ****         /*Revert if scrolled in*/
 196:Drivers/lvgl/src/indev/lv_indev_scroll.c ****         /*If vertically scrollable and not controlled by snap*/
 197:Drivers/lvgl/src/indev/lv_indev_scroll.c ****         if(align_y == LV_SCROLL_SNAP_NONE) {
 198:Drivers/lvgl/src/indev/lv_indev_scroll.c ****             int32_t st = lv_obj_get_scroll_top(scroll_obj);
 199:Drivers/lvgl/src/indev/lv_indev_scroll.c ****             int32_t sb = lv_obj_get_scroll_bottom(scroll_obj);
 200:Drivers/lvgl/src/indev/lv_indev_scroll.c ****             if(st > 0 || sb > 0) {
 201:Drivers/lvgl/src/indev/lv_indev_scroll.c ****                 if(st < 0) {
ARM GAS  /tmp/ccpQad6v.s 			page 5


 202:Drivers/lvgl/src/indev/lv_indev_scroll.c ****                     lv_obj_scroll_by(scroll_obj, 0, st, LV_ANIM_ON);
 203:Drivers/lvgl/src/indev/lv_indev_scroll.c ****                     if(indev->reset_query) return;
 204:Drivers/lvgl/src/indev/lv_indev_scroll.c ****                 }
 205:Drivers/lvgl/src/indev/lv_indev_scroll.c ****                 else if(sb < 0) {
 206:Drivers/lvgl/src/indev/lv_indev_scroll.c ****                     lv_obj_scroll_by(scroll_obj, 0, -sb, LV_ANIM_ON);
 207:Drivers/lvgl/src/indev/lv_indev_scroll.c ****                     if(indev->reset_query) return;
 208:Drivers/lvgl/src/indev/lv_indev_scroll.c ****                 }
 209:Drivers/lvgl/src/indev/lv_indev_scroll.c ****             }
 210:Drivers/lvgl/src/indev/lv_indev_scroll.c ****         }
 211:Drivers/lvgl/src/indev/lv_indev_scroll.c **** 
 212:Drivers/lvgl/src/indev/lv_indev_scroll.c ****         /*If horizontally scrollable and not controlled by snap*/
 213:Drivers/lvgl/src/indev/lv_indev_scroll.c ****         if(align_x == LV_SCROLL_SNAP_NONE) {
 214:Drivers/lvgl/src/indev/lv_indev_scroll.c ****             int32_t sl = lv_obj_get_scroll_left(scroll_obj);
 215:Drivers/lvgl/src/indev/lv_indev_scroll.c ****             int32_t sr = lv_obj_get_scroll_right(scroll_obj);
 216:Drivers/lvgl/src/indev/lv_indev_scroll.c ****             if(sl > 0 || sr > 0) {
 217:Drivers/lvgl/src/indev/lv_indev_scroll.c ****                 if(sl < 0) {
 218:Drivers/lvgl/src/indev/lv_indev_scroll.c ****                     lv_obj_scroll_by(scroll_obj, sl, 0, LV_ANIM_ON);
 219:Drivers/lvgl/src/indev/lv_indev_scroll.c ****                     if(indev->reset_query) return;
 220:Drivers/lvgl/src/indev/lv_indev_scroll.c ****                 }
 221:Drivers/lvgl/src/indev/lv_indev_scroll.c ****                 else if(sr < 0) {
 222:Drivers/lvgl/src/indev/lv_indev_scroll.c ****                     lv_obj_scroll_by(scroll_obj, -sr, 0, LV_ANIM_ON);
 223:Drivers/lvgl/src/indev/lv_indev_scroll.c ****                     if(indev->reset_query) return;
 224:Drivers/lvgl/src/indev/lv_indev_scroll.c ****                 }
 225:Drivers/lvgl/src/indev/lv_indev_scroll.c ****             }
 226:Drivers/lvgl/src/indev/lv_indev_scroll.c ****         }
 227:Drivers/lvgl/src/indev/lv_indev_scroll.c **** 
 228:Drivers/lvgl/src/indev/lv_indev_scroll.c ****         lv_obj_send_event(scroll_obj, LV_EVENT_SCROLL_END, indev);
 229:Drivers/lvgl/src/indev/lv_indev_scroll.c ****         if(indev->reset_query) return;
 230:Drivers/lvgl/src/indev/lv_indev_scroll.c **** 
 231:Drivers/lvgl/src/indev/lv_indev_scroll.c ****         indev->pointer.scroll_dir = LV_DIR_NONE;
 232:Drivers/lvgl/src/indev/lv_indev_scroll.c ****         indev->pointer.scroll_obj = NULL;
 233:Drivers/lvgl/src/indev/lv_indev_scroll.c ****     }
 234:Drivers/lvgl/src/indev/lv_indev_scroll.c **** }
 235:Drivers/lvgl/src/indev/lv_indev_scroll.c **** 
 236:Drivers/lvgl/src/indev/lv_indev_scroll.c **** int32_t lv_indev_scroll_throw_predict(lv_indev_t * indev, lv_dir_t dir)
 237:Drivers/lvgl/src/indev/lv_indev_scroll.c **** {
 238:Drivers/lvgl/src/indev/lv_indev_scroll.c ****     if(indev == NULL) return 0;
 239:Drivers/lvgl/src/indev/lv_indev_scroll.c ****     int32_t v;
 240:Drivers/lvgl/src/indev/lv_indev_scroll.c ****     switch(dir) {
 241:Drivers/lvgl/src/indev/lv_indev_scroll.c ****         case LV_DIR_VER:
 242:Drivers/lvgl/src/indev/lv_indev_scroll.c ****             v = indev->pointer.scroll_throw_vect_ori.y;
 243:Drivers/lvgl/src/indev/lv_indev_scroll.c ****             break;
 244:Drivers/lvgl/src/indev/lv_indev_scroll.c ****         case LV_DIR_HOR:
 245:Drivers/lvgl/src/indev/lv_indev_scroll.c ****             v = indev->pointer.scroll_throw_vect_ori.x;
 246:Drivers/lvgl/src/indev/lv_indev_scroll.c ****             break;
 247:Drivers/lvgl/src/indev/lv_indev_scroll.c ****         default:
 248:Drivers/lvgl/src/indev/lv_indev_scroll.c ****             return 0;
 249:Drivers/lvgl/src/indev/lv_indev_scroll.c ****     }
 250:Drivers/lvgl/src/indev/lv_indev_scroll.c **** 
 251:Drivers/lvgl/src/indev/lv_indev_scroll.c ****     int32_t scroll_throw = indev->scroll_throw;
 252:Drivers/lvgl/src/indev/lv_indev_scroll.c ****     int32_t sum = 0;
 253:Drivers/lvgl/src/indev/lv_indev_scroll.c ****     while(v) {
 254:Drivers/lvgl/src/indev/lv_indev_scroll.c ****         sum += v;
 255:Drivers/lvgl/src/indev/lv_indev_scroll.c ****         v = v * (100 - scroll_throw) / 100;
 256:Drivers/lvgl/src/indev/lv_indev_scroll.c ****     }
 257:Drivers/lvgl/src/indev/lv_indev_scroll.c **** 
 258:Drivers/lvgl/src/indev/lv_indev_scroll.c ****     return sum;
ARM GAS  /tmp/ccpQad6v.s 			page 6


 259:Drivers/lvgl/src/indev/lv_indev_scroll.c **** }
 260:Drivers/lvgl/src/indev/lv_indev_scroll.c **** 
 261:Drivers/lvgl/src/indev/lv_indev_scroll.c **** void lv_indev_scroll_get_snap_dist(lv_obj_t * obj, lv_point_t * p)
 262:Drivers/lvgl/src/indev/lv_indev_scroll.c **** {
 263:Drivers/lvgl/src/indev/lv_indev_scroll.c ****     p->x = find_snap_point_x(obj, obj->coords.x1, obj->coords.x2, 0);
 264:Drivers/lvgl/src/indev/lv_indev_scroll.c ****     p->y = find_snap_point_y(obj, obj->coords.y1, obj->coords.y2, 0);
 265:Drivers/lvgl/src/indev/lv_indev_scroll.c **** }
 266:Drivers/lvgl/src/indev/lv_indev_scroll.c **** 
 267:Drivers/lvgl/src/indev/lv_indev_scroll.c **** lv_obj_t * lv_indev_find_scroll_obj(lv_indev_t * indev)
 268:Drivers/lvgl/src/indev/lv_indev_scroll.c **** {
 269:Drivers/lvgl/src/indev/lv_indev_scroll.c ****     lv_obj_t * obj_candidate = NULL;
 270:Drivers/lvgl/src/indev/lv_indev_scroll.c ****     lv_dir_t dir_candidate = LV_DIR_NONE;
 271:Drivers/lvgl/src/indev/lv_indev_scroll.c ****     int32_t scroll_limit = indev->scroll_limit;
 272:Drivers/lvgl/src/indev/lv_indev_scroll.c **** 
 273:Drivers/lvgl/src/indev/lv_indev_scroll.c ****     /*Go until find a scrollable object in the current direction
 274:Drivers/lvgl/src/indev/lv_indev_scroll.c ****      *More precisely:
 275:Drivers/lvgl/src/indev/lv_indev_scroll.c ****      * 1. Check the pressed object and all of its ancestors and try to find an object which is scro
 276:Drivers/lvgl/src/indev/lv_indev_scroll.c ****      * 2. Scrollable means it has some content out of its area
 277:Drivers/lvgl/src/indev/lv_indev_scroll.c ****      * 3. If an object can be scrolled into the current direction then use it ("real match"")
 278:Drivers/lvgl/src/indev/lv_indev_scroll.c ****      * 4. If can be scrolled on the current axis (hor/ver) save it as candidate (at least show an e
 279:Drivers/lvgl/src/indev/lv_indev_scroll.c ****      * 5. Use the last candidate. Always the "deepest" parent or the object from point 3*/
 280:Drivers/lvgl/src/indev/lv_indev_scroll.c ****     lv_obj_t * obj_act = indev->pointer.act_obj;
 281:Drivers/lvgl/src/indev/lv_indev_scroll.c **** 
 282:Drivers/lvgl/src/indev/lv_indev_scroll.c ****     /*Decide if it's a horizontal or vertical scroll*/
 283:Drivers/lvgl/src/indev/lv_indev_scroll.c ****     bool hor_en = false;
 284:Drivers/lvgl/src/indev/lv_indev_scroll.c ****     bool ver_en = false;
 285:Drivers/lvgl/src/indev/lv_indev_scroll.c ****     indev->pointer.scroll_sum.x += indev->pointer.vect.x;
 286:Drivers/lvgl/src/indev/lv_indev_scroll.c ****     indev->pointer.scroll_sum.y += indev->pointer.vect.y;
 287:Drivers/lvgl/src/indev/lv_indev_scroll.c **** 
 288:Drivers/lvgl/src/indev/lv_indev_scroll.c ****     while(obj_act) {
 289:Drivers/lvgl/src/indev/lv_indev_scroll.c ****         /*Get the transformed scroll_sum with this object*/
 290:Drivers/lvgl/src/indev/lv_indev_scroll.c ****         int16_t angle = 0;
 291:Drivers/lvgl/src/indev/lv_indev_scroll.c ****         int32_t scale_x = 256;
 292:Drivers/lvgl/src/indev/lv_indev_scroll.c ****         int32_t scale_y = 256;
 293:Drivers/lvgl/src/indev/lv_indev_scroll.c ****         lv_point_t pivot = { 0, 0 };
 294:Drivers/lvgl/src/indev/lv_indev_scroll.c ****         lv_obj_t * parent = obj_act;
 295:Drivers/lvgl/src/indev/lv_indev_scroll.c ****         while(parent) {
 296:Drivers/lvgl/src/indev/lv_indev_scroll.c ****             angle += lv_obj_get_style_transform_rotation(parent, 0);
 297:Drivers/lvgl/src/indev/lv_indev_scroll.c ****             int32_t zoom_act_x = lv_obj_get_style_transform_scale_x_safe(parent, 0);
 298:Drivers/lvgl/src/indev/lv_indev_scroll.c ****             int32_t zoom_act_y = lv_obj_get_style_transform_scale_y_safe(parent, 0);
 299:Drivers/lvgl/src/indev/lv_indev_scroll.c ****             scale_x = (scale_x * zoom_act_x) >> 8;
 300:Drivers/lvgl/src/indev/lv_indev_scroll.c ****             scale_y = (scale_y * zoom_act_y) >> 8;
 301:Drivers/lvgl/src/indev/lv_indev_scroll.c ****             parent = lv_obj_get_parent(parent);
 302:Drivers/lvgl/src/indev/lv_indev_scroll.c ****         }
 303:Drivers/lvgl/src/indev/lv_indev_scroll.c **** 
 304:Drivers/lvgl/src/indev/lv_indev_scroll.c ****         if(scale_x == 0) {
 305:Drivers/lvgl/src/indev/lv_indev_scroll.c ****             scale_x = 1;
 306:Drivers/lvgl/src/indev/lv_indev_scroll.c ****         }
 307:Drivers/lvgl/src/indev/lv_indev_scroll.c **** 
 308:Drivers/lvgl/src/indev/lv_indev_scroll.c ****         if(scale_y == 0) {
 309:Drivers/lvgl/src/indev/lv_indev_scroll.c ****             scale_y = 1;
 310:Drivers/lvgl/src/indev/lv_indev_scroll.c ****         }
 311:Drivers/lvgl/src/indev/lv_indev_scroll.c **** 
 312:Drivers/lvgl/src/indev/lv_indev_scroll.c ****         lv_point_t obj_scroll_sum = indev->pointer.scroll_sum;
 313:Drivers/lvgl/src/indev/lv_indev_scroll.c ****         if(angle != 0 || scale_x != LV_SCALE_NONE || scale_y != LV_SCALE_NONE) {
 314:Drivers/lvgl/src/indev/lv_indev_scroll.c ****             angle = -angle;
 315:Drivers/lvgl/src/indev/lv_indev_scroll.c ****             scale_x = (256 * 256) / scale_x;
ARM GAS  /tmp/ccpQad6v.s 			page 7


 316:Drivers/lvgl/src/indev/lv_indev_scroll.c ****             scale_y = (256 * 256) / scale_y;
 317:Drivers/lvgl/src/indev/lv_indev_scroll.c ****             lv_point_transform(&obj_scroll_sum, angle, scale_x, scale_y, &pivot, false);
 318:Drivers/lvgl/src/indev/lv_indev_scroll.c ****         }
 319:Drivers/lvgl/src/indev/lv_indev_scroll.c **** 
 320:Drivers/lvgl/src/indev/lv_indev_scroll.c ****         if(LV_ABS(obj_scroll_sum.x) > LV_ABS(obj_scroll_sum.y)) {
 321:Drivers/lvgl/src/indev/lv_indev_scroll.c ****             hor_en = true;
 322:Drivers/lvgl/src/indev/lv_indev_scroll.c ****         }
 323:Drivers/lvgl/src/indev/lv_indev_scroll.c ****         else {
 324:Drivers/lvgl/src/indev/lv_indev_scroll.c ****             ver_en = true;
 325:Drivers/lvgl/src/indev/lv_indev_scroll.c ****         }
 326:Drivers/lvgl/src/indev/lv_indev_scroll.c **** 
 327:Drivers/lvgl/src/indev/lv_indev_scroll.c ****         if(lv_obj_has_flag(obj_act, LV_OBJ_FLAG_SCROLLABLE) == false) {
 328:Drivers/lvgl/src/indev/lv_indev_scroll.c ****             /*If this object don't want to chain the scroll to the parent stop searching*/
 329:Drivers/lvgl/src/indev/lv_indev_scroll.c ****             if(lv_obj_has_flag(obj_act, LV_OBJ_FLAG_SCROLL_CHAIN_HOR) == false && hor_en) break;
 330:Drivers/lvgl/src/indev/lv_indev_scroll.c ****             if(lv_obj_has_flag(obj_act, LV_OBJ_FLAG_SCROLL_CHAIN_VER) == false && ver_en) break;
 331:Drivers/lvgl/src/indev/lv_indev_scroll.c **** 
 332:Drivers/lvgl/src/indev/lv_indev_scroll.c ****             obj_act = lv_obj_get_parent(obj_act);
 333:Drivers/lvgl/src/indev/lv_indev_scroll.c ****             continue;
 334:Drivers/lvgl/src/indev/lv_indev_scroll.c ****         }
 335:Drivers/lvgl/src/indev/lv_indev_scroll.c **** 
 336:Drivers/lvgl/src/indev/lv_indev_scroll.c ****         /*Consider both up-down or left/right scrollable according to the current direction*/
 337:Drivers/lvgl/src/indev/lv_indev_scroll.c ****         bool up_en = ver_en;
 338:Drivers/lvgl/src/indev/lv_indev_scroll.c ****         bool down_en = ver_en;
 339:Drivers/lvgl/src/indev/lv_indev_scroll.c ****         bool left_en = hor_en;
 340:Drivers/lvgl/src/indev/lv_indev_scroll.c ****         bool right_en = hor_en;
 341:Drivers/lvgl/src/indev/lv_indev_scroll.c **** 
 342:Drivers/lvgl/src/indev/lv_indev_scroll.c ****         /*The object might have disabled some directions.*/
 343:Drivers/lvgl/src/indev/lv_indev_scroll.c ****         lv_dir_t scroll_dir = lv_obj_get_scroll_dir(obj_act);
 344:Drivers/lvgl/src/indev/lv_indev_scroll.c ****         if((scroll_dir & LV_DIR_LEFT) == 0) left_en = false;
 345:Drivers/lvgl/src/indev/lv_indev_scroll.c ****         if((scroll_dir & LV_DIR_RIGHT) == 0) right_en = false;
 346:Drivers/lvgl/src/indev/lv_indev_scroll.c ****         if((scroll_dir & LV_DIR_TOP) == 0) up_en = false;
 347:Drivers/lvgl/src/indev/lv_indev_scroll.c ****         if((scroll_dir & LV_DIR_BOTTOM) == 0) down_en = false;
 348:Drivers/lvgl/src/indev/lv_indev_scroll.c **** 
 349:Drivers/lvgl/src/indev/lv_indev_scroll.c ****         /*Horizontal scroll*/
 350:Drivers/lvgl/src/indev/lv_indev_scroll.c ****         int32_t sl = 0;
 351:Drivers/lvgl/src/indev/lv_indev_scroll.c ****         int32_t sr = 0;
 352:Drivers/lvgl/src/indev/lv_indev_scroll.c ****         lv_scroll_snap_t snap_x = lv_obj_get_scroll_snap_x(obj_act);
 353:Drivers/lvgl/src/indev/lv_indev_scroll.c ****         if(snap_x == LV_SCROLL_SNAP_NONE) {
 354:Drivers/lvgl/src/indev/lv_indev_scroll.c ****             sl = lv_obj_get_scroll_left(obj_act);
 355:Drivers/lvgl/src/indev/lv_indev_scroll.c ****             sr = lv_obj_get_scroll_right(obj_act);
 356:Drivers/lvgl/src/indev/lv_indev_scroll.c ****         }
 357:Drivers/lvgl/src/indev/lv_indev_scroll.c ****         else {
 358:Drivers/lvgl/src/indev/lv_indev_scroll.c ****             bool has_start_snap;
 359:Drivers/lvgl/src/indev/lv_indev_scroll.c ****             bool has_end_snap;
 360:Drivers/lvgl/src/indev/lv_indev_scroll.c ****             has_more_snap_points(obj_act, LV_DIR_HOR, &has_start_snap, &has_end_snap);
 361:Drivers/lvgl/src/indev/lv_indev_scroll.c **** 
 362:Drivers/lvgl/src/indev/lv_indev_scroll.c ****             /*Assume scrolling is there are more snap point
 363:Drivers/lvgl/src/indev/lv_indev_scroll.c ****              *Assumed scroll in if there are NO more nap points*/
 364:Drivers/lvgl/src/indev/lv_indev_scroll.c ****             sl = has_start_snap ? 1 : -1;
 365:Drivers/lvgl/src/indev/lv_indev_scroll.c ****             sr = has_end_snap ? 1 : -1;
 366:Drivers/lvgl/src/indev/lv_indev_scroll.c ****         }
 367:Drivers/lvgl/src/indev/lv_indev_scroll.c **** 
 368:Drivers/lvgl/src/indev/lv_indev_scroll.c ****         /*Vertical scroll*/
 369:Drivers/lvgl/src/indev/lv_indev_scroll.c ****         int32_t st = 0;
 370:Drivers/lvgl/src/indev/lv_indev_scroll.c ****         int32_t sb = 0;
 371:Drivers/lvgl/src/indev/lv_indev_scroll.c ****         lv_scroll_snap_t snap_y = lv_obj_get_scroll_snap_y(obj_act);
 372:Drivers/lvgl/src/indev/lv_indev_scroll.c ****         if(snap_y == LV_SCROLL_SNAP_NONE) {
ARM GAS  /tmp/ccpQad6v.s 			page 8


 373:Drivers/lvgl/src/indev/lv_indev_scroll.c ****             st = lv_obj_get_scroll_top(obj_act);
 374:Drivers/lvgl/src/indev/lv_indev_scroll.c ****             sb = lv_obj_get_scroll_bottom(obj_act);
 375:Drivers/lvgl/src/indev/lv_indev_scroll.c ****         }
 376:Drivers/lvgl/src/indev/lv_indev_scroll.c ****         else {
 377:Drivers/lvgl/src/indev/lv_indev_scroll.c ****             bool has_start_snap;
 378:Drivers/lvgl/src/indev/lv_indev_scroll.c ****             bool has_end_snap;
 379:Drivers/lvgl/src/indev/lv_indev_scroll.c ****             has_more_snap_points(obj_act, LV_DIR_VER, &has_start_snap, &has_end_snap);
 380:Drivers/lvgl/src/indev/lv_indev_scroll.c **** 
 381:Drivers/lvgl/src/indev/lv_indev_scroll.c ****             /*Assume scrolling is there are more snap point
 382:Drivers/lvgl/src/indev/lv_indev_scroll.c ****              *Assumed scroll in if there are NO more nap points*/
 383:Drivers/lvgl/src/indev/lv_indev_scroll.c ****             st = has_start_snap ? 1 : -1;
 384:Drivers/lvgl/src/indev/lv_indev_scroll.c ****             sb = has_end_snap ? 1 : -1;
 385:Drivers/lvgl/src/indev/lv_indev_scroll.c ****         }
 386:Drivers/lvgl/src/indev/lv_indev_scroll.c **** 
 387:Drivers/lvgl/src/indev/lv_indev_scroll.c ****         /*If this object is scrollable into the current scroll direction then save it as a candidat
 388:Drivers/lvgl/src/indev/lv_indev_scroll.c ****          *It's important only to be scrollable on the current axis (hor/ver) because if the scroll
 389:Drivers/lvgl/src/indev/lv_indev_scroll.c ****          *is propagated to this object it can show at least elastic scroll effect.
 390:Drivers/lvgl/src/indev/lv_indev_scroll.c ****          *But if not hor/ver scrollable do not scroll it at all (so it's not a good candidate)*/
 391:Drivers/lvgl/src/indev/lv_indev_scroll.c ****         if((st > 0 || sb > 0)  &&
 392:Drivers/lvgl/src/indev/lv_indev_scroll.c ****            ((up_en    && obj_scroll_sum.y >=   scroll_limit) ||
 393:Drivers/lvgl/src/indev/lv_indev_scroll.c ****             (down_en  && obj_scroll_sum.y <= - scroll_limit))) {
 394:Drivers/lvgl/src/indev/lv_indev_scroll.c ****             obj_candidate = obj_act;
 395:Drivers/lvgl/src/indev/lv_indev_scroll.c ****             dir_candidate = LV_DIR_VER;
 396:Drivers/lvgl/src/indev/lv_indev_scroll.c ****         }
 397:Drivers/lvgl/src/indev/lv_indev_scroll.c **** 
 398:Drivers/lvgl/src/indev/lv_indev_scroll.c ****         if((sl > 0 || sr > 0)  &&
 399:Drivers/lvgl/src/indev/lv_indev_scroll.c ****            ((left_en   && obj_scroll_sum.x >=   scroll_limit) ||
 400:Drivers/lvgl/src/indev/lv_indev_scroll.c ****             (right_en  && obj_scroll_sum.x <= - scroll_limit))) {
 401:Drivers/lvgl/src/indev/lv_indev_scroll.c ****             obj_candidate = obj_act;
 402:Drivers/lvgl/src/indev/lv_indev_scroll.c ****             dir_candidate = LV_DIR_HOR;
 403:Drivers/lvgl/src/indev/lv_indev_scroll.c ****         }
 404:Drivers/lvgl/src/indev/lv_indev_scroll.c **** 
 405:Drivers/lvgl/src/indev/lv_indev_scroll.c ****         if(st <= 0) up_en = false;
 406:Drivers/lvgl/src/indev/lv_indev_scroll.c ****         if(sb <= 0) down_en = false;
 407:Drivers/lvgl/src/indev/lv_indev_scroll.c ****         if(sl <= 0) left_en = false;
 408:Drivers/lvgl/src/indev/lv_indev_scroll.c ****         if(sr <= 0) right_en = false;
 409:Drivers/lvgl/src/indev/lv_indev_scroll.c **** 
 410:Drivers/lvgl/src/indev/lv_indev_scroll.c ****         /*If the object really can be scrolled into the current direction then use it.*/
 411:Drivers/lvgl/src/indev/lv_indev_scroll.c ****         if((left_en  && obj_scroll_sum.x >=   scroll_limit) ||
 412:Drivers/lvgl/src/indev/lv_indev_scroll.c ****            (right_en && obj_scroll_sum.x <= - scroll_limit) ||
 413:Drivers/lvgl/src/indev/lv_indev_scroll.c ****            (up_en    && obj_scroll_sum.y >=   scroll_limit) ||
 414:Drivers/lvgl/src/indev/lv_indev_scroll.c ****            (down_en  && obj_scroll_sum.y <= - scroll_limit)) {
 415:Drivers/lvgl/src/indev/lv_indev_scroll.c ****             indev->pointer.scroll_dir = hor_en ? LV_DIR_HOR : LV_DIR_VER;
 416:Drivers/lvgl/src/indev/lv_indev_scroll.c ****             break;
 417:Drivers/lvgl/src/indev/lv_indev_scroll.c ****         }
 418:Drivers/lvgl/src/indev/lv_indev_scroll.c **** 
 419:Drivers/lvgl/src/indev/lv_indev_scroll.c ****         /*If this object don't want to chain the scroll to the parent stop searching*/
 420:Drivers/lvgl/src/indev/lv_indev_scroll.c ****         if(lv_obj_has_flag(obj_act, LV_OBJ_FLAG_SCROLL_CHAIN_HOR) == false && hor_en) break;
 421:Drivers/lvgl/src/indev/lv_indev_scroll.c ****         if(lv_obj_has_flag(obj_act, LV_OBJ_FLAG_SCROLL_CHAIN_VER) == false && ver_en) break;
 422:Drivers/lvgl/src/indev/lv_indev_scroll.c **** 
 423:Drivers/lvgl/src/indev/lv_indev_scroll.c ****         /*Try the parent*/
 424:Drivers/lvgl/src/indev/lv_indev_scroll.c ****         obj_act = lv_obj_get_parent(obj_act);
 425:Drivers/lvgl/src/indev/lv_indev_scroll.c ****     }
 426:Drivers/lvgl/src/indev/lv_indev_scroll.c **** 
 427:Drivers/lvgl/src/indev/lv_indev_scroll.c ****     /*Use the last candidate*/
 428:Drivers/lvgl/src/indev/lv_indev_scroll.c ****     if(obj_candidate) {
 429:Drivers/lvgl/src/indev/lv_indev_scroll.c ****         indev->pointer.scroll_dir = dir_candidate;
ARM GAS  /tmp/ccpQad6v.s 			page 9


 430:Drivers/lvgl/src/indev/lv_indev_scroll.c ****         indev->pointer.scroll_obj = obj_candidate;
 431:Drivers/lvgl/src/indev/lv_indev_scroll.c ****         indev->pointer.scroll_sum.x = 0;
 432:Drivers/lvgl/src/indev/lv_indev_scroll.c ****         indev->pointer.scroll_sum.y = 0;
 433:Drivers/lvgl/src/indev/lv_indev_scroll.c ****     }
 434:Drivers/lvgl/src/indev/lv_indev_scroll.c **** 
 435:Drivers/lvgl/src/indev/lv_indev_scroll.c ****     return obj_candidate;
 436:Drivers/lvgl/src/indev/lv_indev_scroll.c **** }
 437:Drivers/lvgl/src/indev/lv_indev_scroll.c **** 
 438:Drivers/lvgl/src/indev/lv_indev_scroll.c **** /**********************
 439:Drivers/lvgl/src/indev/lv_indev_scroll.c ****  *   STATIC FUNCTIONS
 440:Drivers/lvgl/src/indev/lv_indev_scroll.c ****  **********************/
 441:Drivers/lvgl/src/indev/lv_indev_scroll.c **** 
 442:Drivers/lvgl/src/indev/lv_indev_scroll.c **** static void init_scroll_limits(lv_indev_t * indev)
 443:Drivers/lvgl/src/indev/lv_indev_scroll.c **** {
 444:Drivers/lvgl/src/indev/lv_indev_scroll.c ****     lv_obj_t * obj = indev->pointer.scroll_obj;
 445:Drivers/lvgl/src/indev/lv_indev_scroll.c ****     /*If there no STOP allow scrolling anywhere*/
 446:Drivers/lvgl/src/indev/lv_indev_scroll.c ****     if(lv_obj_has_flag(obj, LV_OBJ_FLAG_SCROLL_ONE) == false) {
 447:Drivers/lvgl/src/indev/lv_indev_scroll.c ****         lv_area_set(&indev->pointer.scroll_area, LV_COORD_MIN, LV_COORD_MIN, LV_COORD_MAX, LV_COORD
 448:Drivers/lvgl/src/indev/lv_indev_scroll.c ****     }
 449:Drivers/lvgl/src/indev/lv_indev_scroll.c ****     /*With STOP limit the scrolling to the perv and next snap point*/
 450:Drivers/lvgl/src/indev/lv_indev_scroll.c ****     else {
 451:Drivers/lvgl/src/indev/lv_indev_scroll.c ****         switch(lv_obj_get_scroll_snap_y(obj)) {
 452:Drivers/lvgl/src/indev/lv_indev_scroll.c ****             case LV_SCROLL_SNAP_START:
 453:Drivers/lvgl/src/indev/lv_indev_scroll.c ****                 indev->pointer.scroll_area.y1 = find_snap_point_y(obj, obj->coords.y1 + 1, LV_COORD
 454:Drivers/lvgl/src/indev/lv_indev_scroll.c ****                 indev->pointer.scroll_area.y2 = find_snap_point_y(obj, LV_COORD_MIN, obj->coords.y1
 455:Drivers/lvgl/src/indev/lv_indev_scroll.c ****                 break;
 456:Drivers/lvgl/src/indev/lv_indev_scroll.c ****             case LV_SCROLL_SNAP_END:
 457:Drivers/lvgl/src/indev/lv_indev_scroll.c ****                 indev->pointer.scroll_area.y1 = find_snap_point_y(obj, obj->coords.y2, LV_COORD_MAX
 458:Drivers/lvgl/src/indev/lv_indev_scroll.c ****                 indev->pointer.scroll_area.y2 = find_snap_point_y(obj, LV_COORD_MIN, obj->coords.y2
 459:Drivers/lvgl/src/indev/lv_indev_scroll.c ****                 break;
 460:Drivers/lvgl/src/indev/lv_indev_scroll.c ****             case LV_SCROLL_SNAP_CENTER: {
 461:Drivers/lvgl/src/indev/lv_indev_scroll.c ****                     int32_t y_mid = obj->coords.y1 + lv_area_get_height(&obj->coords) / 2;
 462:Drivers/lvgl/src/indev/lv_indev_scroll.c ****                     indev->pointer.scroll_area.y1 = find_snap_point_y(obj, y_mid + 1, LV_COORD_MAX,
 463:Drivers/lvgl/src/indev/lv_indev_scroll.c ****                     indev->pointer.scroll_area.y2 = find_snap_point_y(obj, LV_COORD_MIN, y_mid - 1,
 464:Drivers/lvgl/src/indev/lv_indev_scroll.c ****                     break;
 465:Drivers/lvgl/src/indev/lv_indev_scroll.c ****                 }
 466:Drivers/lvgl/src/indev/lv_indev_scroll.c ****             default:
 467:Drivers/lvgl/src/indev/lv_indev_scroll.c ****                 indev->pointer.scroll_area.y1 = LV_COORD_MIN;
 468:Drivers/lvgl/src/indev/lv_indev_scroll.c ****                 indev->pointer.scroll_area.y2 = LV_COORD_MAX;
 469:Drivers/lvgl/src/indev/lv_indev_scroll.c ****                 break;
 470:Drivers/lvgl/src/indev/lv_indev_scroll.c ****         }
 471:Drivers/lvgl/src/indev/lv_indev_scroll.c **** 
 472:Drivers/lvgl/src/indev/lv_indev_scroll.c ****         switch(lv_obj_get_scroll_snap_x(obj)) {
 473:Drivers/lvgl/src/indev/lv_indev_scroll.c ****             case LV_SCROLL_SNAP_START:
 474:Drivers/lvgl/src/indev/lv_indev_scroll.c ****                 indev->pointer.scroll_area.x1 = find_snap_point_x(obj, obj->coords.x1, LV_COORD_MAX
 475:Drivers/lvgl/src/indev/lv_indev_scroll.c ****                 indev->pointer.scroll_area.x2 = find_snap_point_x(obj, LV_COORD_MIN, obj->coords.x1
 476:Drivers/lvgl/src/indev/lv_indev_scroll.c ****                 break;
 477:Drivers/lvgl/src/indev/lv_indev_scroll.c ****             case LV_SCROLL_SNAP_END:
 478:Drivers/lvgl/src/indev/lv_indev_scroll.c ****                 indev->pointer.scroll_area.x1 = find_snap_point_x(obj, obj->coords.x2, LV_COORD_MAX
 479:Drivers/lvgl/src/indev/lv_indev_scroll.c ****                 indev->pointer.scroll_area.x2 = find_snap_point_x(obj, LV_COORD_MIN, obj->coords.x2
 480:Drivers/lvgl/src/indev/lv_indev_scroll.c ****                 break;
 481:Drivers/lvgl/src/indev/lv_indev_scroll.c ****             case LV_SCROLL_SNAP_CENTER: {
 482:Drivers/lvgl/src/indev/lv_indev_scroll.c ****                     int32_t x_mid = obj->coords.x1 + lv_area_get_width(&obj->coords) / 2;
 483:Drivers/lvgl/src/indev/lv_indev_scroll.c ****                     indev->pointer.scroll_area.x1 = find_snap_point_x(obj, x_mid + 1, LV_COORD_MAX,
 484:Drivers/lvgl/src/indev/lv_indev_scroll.c ****                     indev->pointer.scroll_area.x2 = find_snap_point_x(obj, LV_COORD_MIN, x_mid - 1,
 485:Drivers/lvgl/src/indev/lv_indev_scroll.c ****                     break;
 486:Drivers/lvgl/src/indev/lv_indev_scroll.c ****                 }
ARM GAS  /tmp/ccpQad6v.s 			page 10


 487:Drivers/lvgl/src/indev/lv_indev_scroll.c ****             default:
 488:Drivers/lvgl/src/indev/lv_indev_scroll.c ****                 indev->pointer.scroll_area.x1 = LV_COORD_MIN;
 489:Drivers/lvgl/src/indev/lv_indev_scroll.c ****                 indev->pointer.scroll_area.x2 = LV_COORD_MAX;
 490:Drivers/lvgl/src/indev/lv_indev_scroll.c ****                 break;
 491:Drivers/lvgl/src/indev/lv_indev_scroll.c ****         }
 492:Drivers/lvgl/src/indev/lv_indev_scroll.c ****     }
 493:Drivers/lvgl/src/indev/lv_indev_scroll.c **** 
 494:Drivers/lvgl/src/indev/lv_indev_scroll.c ****     /*`find_snap_point_x/y()` return LV_COORD_MAX is not snap point was found,
 495:Drivers/lvgl/src/indev/lv_indev_scroll.c ****      *but x1/y1 should be small. */
 496:Drivers/lvgl/src/indev/lv_indev_scroll.c ****     if(indev->pointer.scroll_area.x1 == LV_COORD_MAX) indev->pointer.scroll_area.x1 = LV_COORD_MIN;
 497:Drivers/lvgl/src/indev/lv_indev_scroll.c ****     if(indev->pointer.scroll_area.y1 == LV_COORD_MAX) indev->pointer.scroll_area.y1 = LV_COORD_MIN;
 498:Drivers/lvgl/src/indev/lv_indev_scroll.c **** 
 499:Drivers/lvgl/src/indev/lv_indev_scroll.c ****     /*Allow scrolling on the edges. It will be reverted to the edge due to snapping anyway*/
 500:Drivers/lvgl/src/indev/lv_indev_scroll.c ****     if(indev->pointer.scroll_area.x1 == 0) indev->pointer.scroll_area.x1 = LV_COORD_MIN;
 501:Drivers/lvgl/src/indev/lv_indev_scroll.c ****     if(indev->pointer.scroll_area.x2 == 0) indev->pointer.scroll_area.x2 = LV_COORD_MAX;
 502:Drivers/lvgl/src/indev/lv_indev_scroll.c ****     if(indev->pointer.scroll_area.y1 == 0) indev->pointer.scroll_area.y1 = LV_COORD_MIN;
 503:Drivers/lvgl/src/indev/lv_indev_scroll.c ****     if(indev->pointer.scroll_area.y2 == 0) indev->pointer.scroll_area.y2 = LV_COORD_MAX;
 504:Drivers/lvgl/src/indev/lv_indev_scroll.c **** }
 505:Drivers/lvgl/src/indev/lv_indev_scroll.c **** 
 506:Drivers/lvgl/src/indev/lv_indev_scroll.c **** /**
 507:Drivers/lvgl/src/indev/lv_indev_scroll.c ****  * Search for snap point in the min..max range.
 508:Drivers/lvgl/src/indev/lv_indev_scroll.c ****  * @param obj the object on which snap point should be found
 509:Drivers/lvgl/src/indev/lv_indev_scroll.c ****  * @param min ignore snap points smaller than this. (Absolute coordinate)
 510:Drivers/lvgl/src/indev/lv_indev_scroll.c ****  * @param max ignore snap points greater than this. (Absolute coordinate)
 511:Drivers/lvgl/src/indev/lv_indev_scroll.c ****  * @param ofs offset to snap points. Useful the get a snap point in an imagined case
 512:Drivers/lvgl/src/indev/lv_indev_scroll.c ****  *            what if children are already moved by this value
 513:Drivers/lvgl/src/indev/lv_indev_scroll.c ****  * @return the absolute x coordinate of the nearest snap point
 514:Drivers/lvgl/src/indev/lv_indev_scroll.c ****  *         or `LV_COORD_MAX` if there is no snap point in the min..max range
 515:Drivers/lvgl/src/indev/lv_indev_scroll.c ****  */
 516:Drivers/lvgl/src/indev/lv_indev_scroll.c **** static int32_t find_snap_point_x(const lv_obj_t * obj, int32_t min, int32_t max, int32_t ofs)
 517:Drivers/lvgl/src/indev/lv_indev_scroll.c **** {
 518:Drivers/lvgl/src/indev/lv_indev_scroll.c ****     lv_scroll_snap_t align = lv_obj_get_scroll_snap_x(obj);
 519:Drivers/lvgl/src/indev/lv_indev_scroll.c ****     if(align == LV_SCROLL_SNAP_NONE) return LV_COORD_MAX;
 520:Drivers/lvgl/src/indev/lv_indev_scroll.c **** 
 521:Drivers/lvgl/src/indev/lv_indev_scroll.c ****     int32_t dist = LV_COORD_MAX;
 522:Drivers/lvgl/src/indev/lv_indev_scroll.c **** 
 523:Drivers/lvgl/src/indev/lv_indev_scroll.c ****     int32_t pad_left = lv_obj_get_style_pad_left(obj, LV_PART_MAIN);
 524:Drivers/lvgl/src/indev/lv_indev_scroll.c ****     int32_t pad_right = lv_obj_get_style_pad_right(obj, LV_PART_MAIN);
 525:Drivers/lvgl/src/indev/lv_indev_scroll.c **** 
 526:Drivers/lvgl/src/indev/lv_indev_scroll.c ****     uint32_t i;
 527:Drivers/lvgl/src/indev/lv_indev_scroll.c ****     uint32_t child_cnt = lv_obj_get_child_count(obj);
 528:Drivers/lvgl/src/indev/lv_indev_scroll.c ****     for(i = 0; i < child_cnt; i++) {
 529:Drivers/lvgl/src/indev/lv_indev_scroll.c ****         lv_obj_t * child = obj->spec_attr->children[i];
 530:Drivers/lvgl/src/indev/lv_indev_scroll.c ****         if(lv_obj_has_flag_any(child, LV_OBJ_FLAG_HIDDEN | LV_OBJ_FLAG_FLOATING)) continue;
 531:Drivers/lvgl/src/indev/lv_indev_scroll.c ****         if(lv_obj_has_flag(child, LV_OBJ_FLAG_SNAPPABLE)) {
 532:Drivers/lvgl/src/indev/lv_indev_scroll.c ****             int32_t x_child = 0;
 533:Drivers/lvgl/src/indev/lv_indev_scroll.c ****             int32_t x_parent = 0;
 534:Drivers/lvgl/src/indev/lv_indev_scroll.c ****             switch(align) {
 535:Drivers/lvgl/src/indev/lv_indev_scroll.c ****                 case LV_SCROLL_SNAP_START:
 536:Drivers/lvgl/src/indev/lv_indev_scroll.c ****                     x_child = child->coords.x1;
 537:Drivers/lvgl/src/indev/lv_indev_scroll.c ****                     x_parent = obj->coords.x1 + pad_left;
 538:Drivers/lvgl/src/indev/lv_indev_scroll.c ****                     break;
 539:Drivers/lvgl/src/indev/lv_indev_scroll.c ****                 case LV_SCROLL_SNAP_END:
 540:Drivers/lvgl/src/indev/lv_indev_scroll.c ****                     x_child = child->coords.x2;
 541:Drivers/lvgl/src/indev/lv_indev_scroll.c ****                     x_parent = obj->coords.x2 - pad_right;
 542:Drivers/lvgl/src/indev/lv_indev_scroll.c ****                     break;
 543:Drivers/lvgl/src/indev/lv_indev_scroll.c ****                 case LV_SCROLL_SNAP_CENTER:
ARM GAS  /tmp/ccpQad6v.s 			page 11


 544:Drivers/lvgl/src/indev/lv_indev_scroll.c ****                     x_child = child->coords.x1 + lv_area_get_width(&child->coords) / 2;
 545:Drivers/lvgl/src/indev/lv_indev_scroll.c ****                     x_parent = obj->coords.x1 + pad_left + (lv_area_get_width(&obj->coords) - pad_l
 546:Drivers/lvgl/src/indev/lv_indev_scroll.c ****                     break;
 547:Drivers/lvgl/src/indev/lv_indev_scroll.c ****                 default:
 548:Drivers/lvgl/src/indev/lv_indev_scroll.c ****                     continue;
 549:Drivers/lvgl/src/indev/lv_indev_scroll.c ****             }
 550:Drivers/lvgl/src/indev/lv_indev_scroll.c **** 
 551:Drivers/lvgl/src/indev/lv_indev_scroll.c ****             x_child += ofs;
 552:Drivers/lvgl/src/indev/lv_indev_scroll.c ****             if(x_child >= min && x_child <= max) {
 553:Drivers/lvgl/src/indev/lv_indev_scroll.c ****                 int32_t x = x_child -  x_parent;
 554:Drivers/lvgl/src/indev/lv_indev_scroll.c ****                 if(LV_ABS(x) < LV_ABS(dist)) dist = x;
 555:Drivers/lvgl/src/indev/lv_indev_scroll.c ****             }
 556:Drivers/lvgl/src/indev/lv_indev_scroll.c ****         }
 557:Drivers/lvgl/src/indev/lv_indev_scroll.c ****     }
 558:Drivers/lvgl/src/indev/lv_indev_scroll.c **** 
 559:Drivers/lvgl/src/indev/lv_indev_scroll.c ****     return dist == LV_COORD_MAX ? LV_COORD_MAX : -dist;
 560:Drivers/lvgl/src/indev/lv_indev_scroll.c **** }
 561:Drivers/lvgl/src/indev/lv_indev_scroll.c **** 
 562:Drivers/lvgl/src/indev/lv_indev_scroll.c **** /**
 563:Drivers/lvgl/src/indev/lv_indev_scroll.c ****  * Search for snap point in the min..max range.
 564:Drivers/lvgl/src/indev/lv_indev_scroll.c ****  * @param obj the object on which snap point should be found
 565:Drivers/lvgl/src/indev/lv_indev_scroll.c ****  * @param min ignore snap points smaller than this. (Absolute coordinate)
 566:Drivers/lvgl/src/indev/lv_indev_scroll.c ****  * @param max ignore snap points greater than this. (Absolute coordinate)
 567:Drivers/lvgl/src/indev/lv_indev_scroll.c ****  * @param ofs offset to snap points. Useful to get a snap point in an imagined case
 568:Drivers/lvgl/src/indev/lv_indev_scroll.c ****  *            what if children are already moved by this value
 569:Drivers/lvgl/src/indev/lv_indev_scroll.c ****  * @return the absolute y coordinate of the nearest snap point
 570:Drivers/lvgl/src/indev/lv_indev_scroll.c ****  *         or `LV_COORD_MAX` if there is no snap point in the min..max range
 571:Drivers/lvgl/src/indev/lv_indev_scroll.c ****  */
 572:Drivers/lvgl/src/indev/lv_indev_scroll.c **** static int32_t find_snap_point_y(const lv_obj_t * obj, int32_t min, int32_t max, int32_t ofs)
 573:Drivers/lvgl/src/indev/lv_indev_scroll.c **** {
 574:Drivers/lvgl/src/indev/lv_indev_scroll.c ****     lv_scroll_snap_t align = lv_obj_get_scroll_snap_y(obj);
 575:Drivers/lvgl/src/indev/lv_indev_scroll.c ****     if(align == LV_SCROLL_SNAP_NONE) return LV_COORD_MAX;
 576:Drivers/lvgl/src/indev/lv_indev_scroll.c **** 
 577:Drivers/lvgl/src/indev/lv_indev_scroll.c ****     int32_t dist = LV_COORD_MAX;
 578:Drivers/lvgl/src/indev/lv_indev_scroll.c **** 
 579:Drivers/lvgl/src/indev/lv_indev_scroll.c ****     int32_t pad_top = lv_obj_get_style_pad_top(obj, LV_PART_MAIN);
 580:Drivers/lvgl/src/indev/lv_indev_scroll.c ****     int32_t pad_bottom = lv_obj_get_style_pad_bottom(obj, LV_PART_MAIN);
 581:Drivers/lvgl/src/indev/lv_indev_scroll.c **** 
 582:Drivers/lvgl/src/indev/lv_indev_scroll.c ****     uint32_t i;
 583:Drivers/lvgl/src/indev/lv_indev_scroll.c ****     uint32_t child_cnt = lv_obj_get_child_count(obj);
 584:Drivers/lvgl/src/indev/lv_indev_scroll.c ****     for(i = 0; i < child_cnt; i++) {
 585:Drivers/lvgl/src/indev/lv_indev_scroll.c ****         lv_obj_t * child = obj->spec_attr->children[i];
 586:Drivers/lvgl/src/indev/lv_indev_scroll.c ****         if(lv_obj_has_flag_any(child, LV_OBJ_FLAG_HIDDEN | LV_OBJ_FLAG_FLOATING)) continue;
 587:Drivers/lvgl/src/indev/lv_indev_scroll.c ****         if(lv_obj_has_flag(child, LV_OBJ_FLAG_SNAPPABLE)) {
 588:Drivers/lvgl/src/indev/lv_indev_scroll.c ****             int32_t y_child = 0;
 589:Drivers/lvgl/src/indev/lv_indev_scroll.c ****             int32_t y_parent = 0;
 590:Drivers/lvgl/src/indev/lv_indev_scroll.c ****             switch(align) {
 591:Drivers/lvgl/src/indev/lv_indev_scroll.c ****                 case LV_SCROLL_SNAP_START:
 592:Drivers/lvgl/src/indev/lv_indev_scroll.c ****                     y_child = child->coords.y1;
 593:Drivers/lvgl/src/indev/lv_indev_scroll.c ****                     y_parent = obj->coords.y1 + pad_top;
 594:Drivers/lvgl/src/indev/lv_indev_scroll.c ****                     break;
 595:Drivers/lvgl/src/indev/lv_indev_scroll.c ****                 case LV_SCROLL_SNAP_END:
 596:Drivers/lvgl/src/indev/lv_indev_scroll.c ****                     y_child = child->coords.y2;
 597:Drivers/lvgl/src/indev/lv_indev_scroll.c ****                     y_parent = obj->coords.y2 - pad_bottom;
 598:Drivers/lvgl/src/indev/lv_indev_scroll.c ****                     break;
 599:Drivers/lvgl/src/indev/lv_indev_scroll.c ****                 case LV_SCROLL_SNAP_CENTER:
 600:Drivers/lvgl/src/indev/lv_indev_scroll.c ****                     y_child = child->coords.y1 + lv_area_get_height(&child->coords) / 2;
ARM GAS  /tmp/ccpQad6v.s 			page 12


 601:Drivers/lvgl/src/indev/lv_indev_scroll.c ****                     y_parent = obj->coords.y1 + pad_top + (lv_area_get_height(&obj->coords) - pad_t
 602:Drivers/lvgl/src/indev/lv_indev_scroll.c ****                     break;
 603:Drivers/lvgl/src/indev/lv_indev_scroll.c ****                 default:
 604:Drivers/lvgl/src/indev/lv_indev_scroll.c ****                     continue;
 605:Drivers/lvgl/src/indev/lv_indev_scroll.c ****             }
 606:Drivers/lvgl/src/indev/lv_indev_scroll.c **** 
 607:Drivers/lvgl/src/indev/lv_indev_scroll.c ****             y_child += ofs;
 608:Drivers/lvgl/src/indev/lv_indev_scroll.c ****             if(y_child >= min && y_child <= max) {
 609:Drivers/lvgl/src/indev/lv_indev_scroll.c ****                 int32_t y = y_child -  y_parent;
 610:Drivers/lvgl/src/indev/lv_indev_scroll.c ****                 if(LV_ABS(y) < LV_ABS(dist)) dist = y;
 611:Drivers/lvgl/src/indev/lv_indev_scroll.c ****             }
 612:Drivers/lvgl/src/indev/lv_indev_scroll.c ****         }
 613:Drivers/lvgl/src/indev/lv_indev_scroll.c ****     }
 614:Drivers/lvgl/src/indev/lv_indev_scroll.c **** 
 615:Drivers/lvgl/src/indev/lv_indev_scroll.c ****     return dist == LV_COORD_MAX ? LV_COORD_MAX : -dist;
 616:Drivers/lvgl/src/indev/lv_indev_scroll.c **** }
 617:Drivers/lvgl/src/indev/lv_indev_scroll.c **** 
 618:Drivers/lvgl/src/indev/lv_indev_scroll.c **** static void scroll_limit_diff(lv_indev_t * indev, int32_t * diff_x, int32_t * diff_y)
 619:Drivers/lvgl/src/indev/lv_indev_scroll.c **** {
  29              		.loc 1 619 1 view -0
  30              		.cfi_startproc
  31              		@ args = 0, pretend = 0, frame = 0
  32              		@ frame_needed = 0, uses_anonymous_args = 0
  33              		@ link register save eliminated.
  34              		.loc 1 619 1 is_stmt 0 view .LVU1
  35 0000 30B4     		push	{r4, r5}
  36              	.LCFI0:
  37              		.cfi_def_cfa_offset 8
  38              		.cfi_offset 4, -8
  39              		.cfi_offset 5, -4
 620:Drivers/lvgl/src/indev/lv_indev_scroll.c ****     if(diff_y) {
  40              		.loc 1 620 5 is_stmt 1 view .LVU2
  41              		.loc 1 620 7 is_stmt 0 view .LVU3
  42 0002 92B1     		cbz	r2, .L2
  43 0004 1346     		mov	r3, r2
 621:Drivers/lvgl/src/indev/lv_indev_scroll.c ****         if(indev->pointer.scroll_sum.y + *diff_y < indev->pointer.scroll_area.y1) {
  44              		.loc 1 621 9 is_stmt 1 view .LVU4
  45              		.loc 1 621 37 is_stmt 0 view .LVU5
  46 0006 456D     		ldr	r5, [r0, #84]
  47              		.loc 1 621 42 view .LVU6
  48 0008 1268     		ldr	r2, [r2]
  49              	.LVL1:
  50              		.loc 1 621 40 view .LVU7
  51 000a 2A44     		add	r2, r2, r5
  52              		.loc 1 621 78 view .LVU8
  53 000c D0F88040 		ldr	r4, [r0, #128]
  54              		.loc 1 621 11 view .LVU9
  55 0010 A242     		cmp	r2, r4
  56 0012 01DA     		bge	.L3
 622:Drivers/lvgl/src/indev/lv_indev_scroll.c ****             *diff_y = indev->pointer.scroll_area.y1 - indev->pointer.scroll_sum.y;
  57              		.loc 1 622 13 is_stmt 1 view .LVU10
  58              		.loc 1 622 53 is_stmt 0 view .LVU11
  59 0014 641B     		subs	r4, r4, r5
  60              		.loc 1 622 21 view .LVU12
  61 0016 1C60     		str	r4, [r3]
  62              	.L3:
 623:Drivers/lvgl/src/indev/lv_indev_scroll.c ****         }
ARM GAS  /tmp/ccpQad6v.s 			page 13


 624:Drivers/lvgl/src/indev/lv_indev_scroll.c **** 
 625:Drivers/lvgl/src/indev/lv_indev_scroll.c ****         if(indev->pointer.scroll_sum.y + *diff_y > indev->pointer.scroll_area.y2) {
  63              		.loc 1 625 9 is_stmt 1 view .LVU13
  64              		.loc 1 625 37 is_stmt 0 view .LVU14
  65 0018 456D     		ldr	r5, [r0, #84]
  66              		.loc 1 625 42 view .LVU15
  67 001a 1A68     		ldr	r2, [r3]
  68              		.loc 1 625 40 view .LVU16
  69 001c 2A44     		add	r2, r2, r5
  70              		.loc 1 625 78 view .LVU17
  71 001e D0F88840 		ldr	r4, [r0, #136]
  72              		.loc 1 625 11 view .LVU18
  73 0022 A242     		cmp	r2, r4
  74 0024 01DD     		ble	.L2
 626:Drivers/lvgl/src/indev/lv_indev_scroll.c ****             *diff_y = indev->pointer.scroll_area.y2 - indev->pointer.scroll_sum.y;
  75              		.loc 1 626 13 is_stmt 1 view .LVU19
  76              		.loc 1 626 53 is_stmt 0 view .LVU20
  77 0026 641B     		subs	r4, r4, r5
  78              		.loc 1 626 21 view .LVU21
  79 0028 1C60     		str	r4, [r3]
  80              	.LVL2:
  81              	.L2:
 627:Drivers/lvgl/src/indev/lv_indev_scroll.c ****         }
 628:Drivers/lvgl/src/indev/lv_indev_scroll.c ****     }
 629:Drivers/lvgl/src/indev/lv_indev_scroll.c **** 
 630:Drivers/lvgl/src/indev/lv_indev_scroll.c ****     if(diff_x) {
  82              		.loc 1 630 5 is_stmt 1 view .LVU22
  83              		.loc 1 630 7 is_stmt 0 view .LVU23
  84 002a 81B1     		cbz	r1, .L1
 631:Drivers/lvgl/src/indev/lv_indev_scroll.c ****         if(indev->pointer.scroll_sum.x + *diff_x < indev->pointer.scroll_area.x1) {
  85              		.loc 1 631 9 is_stmt 1 view .LVU24
  86              		.loc 1 631 37 is_stmt 0 view .LVU25
  87 002c 046D     		ldr	r4, [r0, #80]
  88              		.loc 1 631 42 view .LVU26
  89 002e 0B68     		ldr	r3, [r1]
  90              		.loc 1 631 40 view .LVU27
  91 0030 2344     		add	r3, r3, r4
  92              		.loc 1 631 78 view .LVU28
  93 0032 C26F     		ldr	r2, [r0, #124]
  94              		.loc 1 631 11 view .LVU29
  95 0034 9342     		cmp	r3, r2
  96 0036 01DA     		bge	.L5
 632:Drivers/lvgl/src/indev/lv_indev_scroll.c ****             *diff_x = indev->pointer.scroll_area.x1 - indev->pointer.scroll_sum.x;
  97              		.loc 1 632 13 is_stmt 1 view .LVU30
  98              		.loc 1 632 53 is_stmt 0 view .LVU31
  99 0038 121B     		subs	r2, r2, r4
 100              		.loc 1 632 21 view .LVU32
 101 003a 0A60     		str	r2, [r1]
 102              	.L5:
 633:Drivers/lvgl/src/indev/lv_indev_scroll.c ****         }
 634:Drivers/lvgl/src/indev/lv_indev_scroll.c **** 
 635:Drivers/lvgl/src/indev/lv_indev_scroll.c ****         if(indev->pointer.scroll_sum.x + *diff_x > indev->pointer.scroll_area.x2) {
 103              		.loc 1 635 9 is_stmt 1 view .LVU33
 104              		.loc 1 635 37 is_stmt 0 view .LVU34
 105 003c 046D     		ldr	r4, [r0, #80]
 106              		.loc 1 635 42 view .LVU35
 107 003e 0B68     		ldr	r3, [r1]
ARM GAS  /tmp/ccpQad6v.s 			page 14


 108              		.loc 1 635 40 view .LVU36
 109 0040 2344     		add	r3, r3, r4
 110              		.loc 1 635 78 view .LVU37
 111 0042 D0F88420 		ldr	r2, [r0, #132]
 112              		.loc 1 635 11 view .LVU38
 113 0046 9342     		cmp	r3, r2
 114 0048 01DD     		ble	.L1
 636:Drivers/lvgl/src/indev/lv_indev_scroll.c ****             *diff_x = indev->pointer.scroll_area.x2 - indev->pointer.scroll_sum.x;
 115              		.loc 1 636 13 is_stmt 1 view .LVU39
 116              		.loc 1 636 53 is_stmt 0 view .LVU40
 117 004a 121B     		subs	r2, r2, r4
 118              		.loc 1 636 21 view .LVU41
 119 004c 0A60     		str	r2, [r1]
 120              	.L1:
 637:Drivers/lvgl/src/indev/lv_indev_scroll.c ****         }
 638:Drivers/lvgl/src/indev/lv_indev_scroll.c ****     }
 639:Drivers/lvgl/src/indev/lv_indev_scroll.c **** }
 121              		.loc 1 639 1 view .LVU42
 122 004e 30BC     		pop	{r4, r5}
 123              	.LCFI1:
 124              		.cfi_restore 5
 125              		.cfi_restore 4
 126              		.cfi_def_cfa_offset 0
 127 0050 7047     		bx	lr
 128              		.cfi_endproc
 129              	.LFE179:
 131              		.section	.text.find_snap_point_y,"ax",%progbits
 132              		.align	1
 133              		.syntax unified
 134              		.thumb
 135              		.thumb_func
 137              	find_snap_point_y:
 138              	.LVL3:
 139              	.LFB178:
 573:Drivers/lvgl/src/indev/lv_indev_scroll.c ****     lv_scroll_snap_t align = lv_obj_get_scroll_snap_y(obj);
 140              		.loc 1 573 1 is_stmt 1 view -0
 141              		.cfi_startproc
 142              		@ args = 0, pretend = 0, frame = 24
 143              		@ frame_needed = 0, uses_anonymous_args = 0
 573:Drivers/lvgl/src/indev/lv_indev_scroll.c ****     lv_scroll_snap_t align = lv_obj_get_scroll_snap_y(obj);
 144              		.loc 1 573 1 is_stmt 0 view .LVU44
 145 0000 2DE9F04F 		push	{r4, r5, r6, r7, r8, r9, r10, fp, lr}
 146              	.LCFI2:
 147              		.cfi_def_cfa_offset 36
 148              		.cfi_offset 4, -36
 149              		.cfi_offset 5, -32
 150              		.cfi_offset 6, -28
 151              		.cfi_offset 7, -24
 152              		.cfi_offset 8, -20
 153              		.cfi_offset 9, -16
 154              		.cfi_offset 10, -12
 155              		.cfi_offset 11, -8
 156              		.cfi_offset 14, -4
 157 0004 87B0     		sub	sp, sp, #28
 158              	.LCFI3:
 159              		.cfi_def_cfa_offset 64
 160 0006 0646     		mov	r6, r0
ARM GAS  /tmp/ccpQad6v.s 			page 15


 161 0008 0091     		str	r1, [sp]
 162 000a 0192     		str	r2, [sp, #4]
 163 000c 0293     		str	r3, [sp, #8]
 574:Drivers/lvgl/src/indev/lv_indev_scroll.c ****     if(align == LV_SCROLL_SNAP_NONE) return LV_COORD_MAX;
 164              		.loc 1 574 5 is_stmt 1 view .LVU45
 574:Drivers/lvgl/src/indev/lv_indev_scroll.c ****     if(align == LV_SCROLL_SNAP_NONE) return LV_COORD_MAX;
 165              		.loc 1 574 30 is_stmt 0 view .LVU46
 166 000e FFF7FEFF 		bl	lv_obj_get_scroll_snap_y
 167              	.LVL4:
 575:Drivers/lvgl/src/indev/lv_indev_scroll.c **** 
 168              		.loc 1 575 5 is_stmt 1 view .LVU47
 575:Drivers/lvgl/src/indev/lv_indev_scroll.c **** 
 169              		.loc 1 575 7 is_stmt 0 view .LVU48
 170 0012 0028     		cmp	r0, #0
 171 0014 7FD0     		beq	.L17
 172 0016 8046     		mov	r8, r0
 577:Drivers/lvgl/src/indev/lv_indev_scroll.c **** 
 173              		.loc 1 577 5 is_stmt 1 view .LVU49
 174              	.LVL5:
 579:Drivers/lvgl/src/indev/lv_indev_scroll.c ****     int32_t pad_bottom = lv_obj_get_style_pad_bottom(obj, LV_PART_MAIN);
 175              		.loc 1 579 5 view .LVU50
 176              	.LBB68:
 177              	.LBI68:
 178              		.file 2 "Drivers/lvgl/src/indev/../core/lv_obj_style_gen.h"
   1:Drivers/lvgl/src/indev/../core/lv_obj_style_gen.h **** 
   2:Drivers/lvgl/src/indev/../core/lv_obj_style_gen.h **** /*
   3:Drivers/lvgl/src/indev/../core/lv_obj_style_gen.h ****  **********************************************************************
   4:Drivers/lvgl/src/indev/../core/lv_obj_style_gen.h ****  *                            DO NOT EDIT
   5:Drivers/lvgl/src/indev/../core/lv_obj_style_gen.h ****  * This file is automatically generated by "style_api_gen.py"
   6:Drivers/lvgl/src/indev/../core/lv_obj_style_gen.h ****  **********************************************************************
   7:Drivers/lvgl/src/indev/../core/lv_obj_style_gen.h ****  */
   8:Drivers/lvgl/src/indev/../core/lv_obj_style_gen.h **** 
   9:Drivers/lvgl/src/indev/../core/lv_obj_style_gen.h **** 
  10:Drivers/lvgl/src/indev/../core/lv_obj_style_gen.h **** #ifndef LV_OBJ_STYLE_GEN_H
  11:Drivers/lvgl/src/indev/../core/lv_obj_style_gen.h **** #define LV_OBJ_STYLE_GEN_H
  12:Drivers/lvgl/src/indev/../core/lv_obj_style_gen.h **** 
  13:Drivers/lvgl/src/indev/../core/lv_obj_style_gen.h **** #ifdef __cplusplus
  14:Drivers/lvgl/src/indev/../core/lv_obj_style_gen.h **** extern "C" {
  15:Drivers/lvgl/src/indev/../core/lv_obj_style_gen.h **** #endif
  16:Drivers/lvgl/src/indev/../core/lv_obj_style_gen.h **** 
  17:Drivers/lvgl/src/indev/../core/lv_obj_style_gen.h **** #include "../misc/lv_area.h"
  18:Drivers/lvgl/src/indev/../core/lv_obj_style_gen.h **** #include "../misc/lv_style.h"
  19:Drivers/lvgl/src/indev/../core/lv_obj_style_gen.h **** #include "../core/lv_obj_style.h"
  20:Drivers/lvgl/src/indev/../core/lv_obj_style_gen.h **** #include "../misc/lv_types.h"
  21:Drivers/lvgl/src/indev/../core/lv_obj_style_gen.h **** 
  22:Drivers/lvgl/src/indev/../core/lv_obj_style_gen.h **** static inline int32_t lv_obj_get_style_width(const lv_obj_t * obj, lv_part_t part)
  23:Drivers/lvgl/src/indev/../core/lv_obj_style_gen.h **** {
  24:Drivers/lvgl/src/indev/../core/lv_obj_style_gen.h ****     lv_style_value_t v = lv_obj_get_style_prop(obj, part, LV_STYLE_WIDTH);
  25:Drivers/lvgl/src/indev/../core/lv_obj_style_gen.h ****     return (int32_t)v.num;
  26:Drivers/lvgl/src/indev/../core/lv_obj_style_gen.h **** }
  27:Drivers/lvgl/src/indev/../core/lv_obj_style_gen.h **** 
  28:Drivers/lvgl/src/indev/../core/lv_obj_style_gen.h **** static inline int32_t lv_obj_get_style_min_width(const lv_obj_t * obj, lv_part_t part)
  29:Drivers/lvgl/src/indev/../core/lv_obj_style_gen.h **** {
  30:Drivers/lvgl/src/indev/../core/lv_obj_style_gen.h ****     lv_style_value_t v = lv_obj_get_style_prop(obj, part, LV_STYLE_MIN_WIDTH);
  31:Drivers/lvgl/src/indev/../core/lv_obj_style_gen.h ****     return (int32_t)v.num;
  32:Drivers/lvgl/src/indev/../core/lv_obj_style_gen.h **** }
  33:Drivers/lvgl/src/indev/../core/lv_obj_style_gen.h **** 
ARM GAS  /tmp/ccpQad6v.s 			page 16


  34:Drivers/lvgl/src/indev/../core/lv_obj_style_gen.h **** static inline int32_t lv_obj_get_style_max_width(const lv_obj_t * obj, lv_part_t part)
  35:Drivers/lvgl/src/indev/../core/lv_obj_style_gen.h **** {
  36:Drivers/lvgl/src/indev/../core/lv_obj_style_gen.h ****     lv_style_value_t v = lv_obj_get_style_prop(obj, part, LV_STYLE_MAX_WIDTH);
  37:Drivers/lvgl/src/indev/../core/lv_obj_style_gen.h ****     return (int32_t)v.num;
  38:Drivers/lvgl/src/indev/../core/lv_obj_style_gen.h **** }
  39:Drivers/lvgl/src/indev/../core/lv_obj_style_gen.h **** 
  40:Drivers/lvgl/src/indev/../core/lv_obj_style_gen.h **** static inline int32_t lv_obj_get_style_height(const lv_obj_t * obj, lv_part_t part)
  41:Drivers/lvgl/src/indev/../core/lv_obj_style_gen.h **** {
  42:Drivers/lvgl/src/indev/../core/lv_obj_style_gen.h ****     lv_style_value_t v = lv_obj_get_style_prop(obj, part, LV_STYLE_HEIGHT);
  43:Drivers/lvgl/src/indev/../core/lv_obj_style_gen.h ****     return (int32_t)v.num;
  44:Drivers/lvgl/src/indev/../core/lv_obj_style_gen.h **** }
  45:Drivers/lvgl/src/indev/../core/lv_obj_style_gen.h **** 
  46:Drivers/lvgl/src/indev/../core/lv_obj_style_gen.h **** static inline int32_t lv_obj_get_style_min_height(const lv_obj_t * obj, lv_part_t part)
  47:Drivers/lvgl/src/indev/../core/lv_obj_style_gen.h **** {
  48:Drivers/lvgl/src/indev/../core/lv_obj_style_gen.h ****     lv_style_value_t v = lv_obj_get_style_prop(obj, part, LV_STYLE_MIN_HEIGHT);
  49:Drivers/lvgl/src/indev/../core/lv_obj_style_gen.h ****     return (int32_t)v.num;
  50:Drivers/lvgl/src/indev/../core/lv_obj_style_gen.h **** }
  51:Drivers/lvgl/src/indev/../core/lv_obj_style_gen.h **** 
  52:Drivers/lvgl/src/indev/../core/lv_obj_style_gen.h **** static inline int32_t lv_obj_get_style_max_height(const lv_obj_t * obj, lv_part_t part)
  53:Drivers/lvgl/src/indev/../core/lv_obj_style_gen.h **** {
  54:Drivers/lvgl/src/indev/../core/lv_obj_style_gen.h ****     lv_style_value_t v = lv_obj_get_style_prop(obj, part, LV_STYLE_MAX_HEIGHT);
  55:Drivers/lvgl/src/indev/../core/lv_obj_style_gen.h ****     return (int32_t)v.num;
  56:Drivers/lvgl/src/indev/../core/lv_obj_style_gen.h **** }
  57:Drivers/lvgl/src/indev/../core/lv_obj_style_gen.h **** 
  58:Drivers/lvgl/src/indev/../core/lv_obj_style_gen.h **** static inline int32_t lv_obj_get_style_length(const lv_obj_t * obj, lv_part_t part)
  59:Drivers/lvgl/src/indev/../core/lv_obj_style_gen.h **** {
  60:Drivers/lvgl/src/indev/../core/lv_obj_style_gen.h ****     lv_style_value_t v = lv_obj_get_style_prop(obj, part, LV_STYLE_LENGTH);
  61:Drivers/lvgl/src/indev/../core/lv_obj_style_gen.h ****     return (int32_t)v.num;
  62:Drivers/lvgl/src/indev/../core/lv_obj_style_gen.h **** }
  63:Drivers/lvgl/src/indev/../core/lv_obj_style_gen.h **** 
  64:Drivers/lvgl/src/indev/../core/lv_obj_style_gen.h **** static inline int32_t lv_obj_get_style_x(const lv_obj_t * obj, lv_part_t part)
  65:Drivers/lvgl/src/indev/../core/lv_obj_style_gen.h **** {
  66:Drivers/lvgl/src/indev/../core/lv_obj_style_gen.h ****     lv_style_value_t v = lv_obj_get_style_prop(obj, part, LV_STYLE_X);
  67:Drivers/lvgl/src/indev/../core/lv_obj_style_gen.h ****     return (int32_t)v.num;
  68:Drivers/lvgl/src/indev/../core/lv_obj_style_gen.h **** }
  69:Drivers/lvgl/src/indev/../core/lv_obj_style_gen.h **** 
  70:Drivers/lvgl/src/indev/../core/lv_obj_style_gen.h **** static inline int32_t lv_obj_get_style_y(const lv_obj_t * obj, lv_part_t part)
  71:Drivers/lvgl/src/indev/../core/lv_obj_style_gen.h **** {
  72:Drivers/lvgl/src/indev/../core/lv_obj_style_gen.h ****     lv_style_value_t v = lv_obj_get_style_prop(obj, part, LV_STYLE_Y);
  73:Drivers/lvgl/src/indev/../core/lv_obj_style_gen.h ****     return (int32_t)v.num;
  74:Drivers/lvgl/src/indev/../core/lv_obj_style_gen.h **** }
  75:Drivers/lvgl/src/indev/../core/lv_obj_style_gen.h **** 
  76:Drivers/lvgl/src/indev/../core/lv_obj_style_gen.h **** static inline lv_align_t lv_obj_get_style_align(const lv_obj_t * obj, lv_part_t part)
  77:Drivers/lvgl/src/indev/../core/lv_obj_style_gen.h **** {
  78:Drivers/lvgl/src/indev/../core/lv_obj_style_gen.h ****     lv_style_value_t v = lv_obj_get_style_prop(obj, part, LV_STYLE_ALIGN);
  79:Drivers/lvgl/src/indev/../core/lv_obj_style_gen.h ****     return (lv_align_t)v.num;
  80:Drivers/lvgl/src/indev/../core/lv_obj_style_gen.h **** }
  81:Drivers/lvgl/src/indev/../core/lv_obj_style_gen.h **** 
  82:Drivers/lvgl/src/indev/../core/lv_obj_style_gen.h **** static inline int32_t lv_obj_get_style_transform_width(const lv_obj_t * obj, lv_part_t part)
  83:Drivers/lvgl/src/indev/../core/lv_obj_style_gen.h **** {
  84:Drivers/lvgl/src/indev/../core/lv_obj_style_gen.h ****     lv_style_value_t v = lv_obj_get_style_prop(obj, part, LV_STYLE_TRANSFORM_WIDTH);
  85:Drivers/lvgl/src/indev/../core/lv_obj_style_gen.h ****     return (int32_t)v.num;
  86:Drivers/lvgl/src/indev/../core/lv_obj_style_gen.h **** }
  87:Drivers/lvgl/src/indev/../core/lv_obj_style_gen.h **** 
  88:Drivers/lvgl/src/indev/../core/lv_obj_style_gen.h **** static inline int32_t lv_obj_get_style_transform_height(const lv_obj_t * obj, lv_part_t part)
  89:Drivers/lvgl/src/indev/../core/lv_obj_style_gen.h **** {
  90:Drivers/lvgl/src/indev/../core/lv_obj_style_gen.h ****     lv_style_value_t v = lv_obj_get_style_prop(obj, part, LV_STYLE_TRANSFORM_HEIGHT);
ARM GAS  /tmp/ccpQad6v.s 			page 17


  91:Drivers/lvgl/src/indev/../core/lv_obj_style_gen.h ****     return (int32_t)v.num;
  92:Drivers/lvgl/src/indev/../core/lv_obj_style_gen.h **** }
  93:Drivers/lvgl/src/indev/../core/lv_obj_style_gen.h **** 
  94:Drivers/lvgl/src/indev/../core/lv_obj_style_gen.h **** static inline int32_t lv_obj_get_style_translate_x(const lv_obj_t * obj, lv_part_t part)
  95:Drivers/lvgl/src/indev/../core/lv_obj_style_gen.h **** {
  96:Drivers/lvgl/src/indev/../core/lv_obj_style_gen.h ****     lv_style_value_t v = lv_obj_get_style_prop(obj, part, LV_STYLE_TRANSLATE_X);
  97:Drivers/lvgl/src/indev/../core/lv_obj_style_gen.h ****     return (int32_t)v.num;
  98:Drivers/lvgl/src/indev/../core/lv_obj_style_gen.h **** }
  99:Drivers/lvgl/src/indev/../core/lv_obj_style_gen.h **** 
 100:Drivers/lvgl/src/indev/../core/lv_obj_style_gen.h **** static inline int32_t lv_obj_get_style_translate_y(const lv_obj_t * obj, lv_part_t part)
 101:Drivers/lvgl/src/indev/../core/lv_obj_style_gen.h **** {
 102:Drivers/lvgl/src/indev/../core/lv_obj_style_gen.h ****     lv_style_value_t v = lv_obj_get_style_prop(obj, part, LV_STYLE_TRANSLATE_Y);
 103:Drivers/lvgl/src/indev/../core/lv_obj_style_gen.h ****     return (int32_t)v.num;
 104:Drivers/lvgl/src/indev/../core/lv_obj_style_gen.h **** }
 105:Drivers/lvgl/src/indev/../core/lv_obj_style_gen.h **** 
 106:Drivers/lvgl/src/indev/../core/lv_obj_style_gen.h **** static inline int32_t lv_obj_get_style_translate_radial(const lv_obj_t * obj, lv_part_t part)
 107:Drivers/lvgl/src/indev/../core/lv_obj_style_gen.h **** {
 108:Drivers/lvgl/src/indev/../core/lv_obj_style_gen.h ****     lv_style_value_t v = lv_obj_get_style_prop(obj, part, LV_STYLE_TRANSLATE_RADIAL);
 109:Drivers/lvgl/src/indev/../core/lv_obj_style_gen.h ****     return (int32_t)v.num;
 110:Drivers/lvgl/src/indev/../core/lv_obj_style_gen.h **** }
 111:Drivers/lvgl/src/indev/../core/lv_obj_style_gen.h **** 
 112:Drivers/lvgl/src/indev/../core/lv_obj_style_gen.h **** static inline int32_t lv_obj_get_style_transform_scale_x(const lv_obj_t * obj, lv_part_t part)
 113:Drivers/lvgl/src/indev/../core/lv_obj_style_gen.h **** {
 114:Drivers/lvgl/src/indev/../core/lv_obj_style_gen.h ****     lv_style_value_t v = lv_obj_get_style_prop(obj, part, LV_STYLE_TRANSFORM_SCALE_X);
 115:Drivers/lvgl/src/indev/../core/lv_obj_style_gen.h ****     return (int32_t)v.num;
 116:Drivers/lvgl/src/indev/../core/lv_obj_style_gen.h **** }
 117:Drivers/lvgl/src/indev/../core/lv_obj_style_gen.h **** 
 118:Drivers/lvgl/src/indev/../core/lv_obj_style_gen.h **** static inline int32_t lv_obj_get_style_transform_scale_y(const lv_obj_t * obj, lv_part_t part)
 119:Drivers/lvgl/src/indev/../core/lv_obj_style_gen.h **** {
 120:Drivers/lvgl/src/indev/../core/lv_obj_style_gen.h ****     lv_style_value_t v = lv_obj_get_style_prop(obj, part, LV_STYLE_TRANSFORM_SCALE_Y);
 121:Drivers/lvgl/src/indev/../core/lv_obj_style_gen.h ****     return (int32_t)v.num;
 122:Drivers/lvgl/src/indev/../core/lv_obj_style_gen.h **** }
 123:Drivers/lvgl/src/indev/../core/lv_obj_style_gen.h **** 
 124:Drivers/lvgl/src/indev/../core/lv_obj_style_gen.h **** static inline int32_t lv_obj_get_style_transform_rotation(const lv_obj_t * obj, lv_part_t part)
 125:Drivers/lvgl/src/indev/../core/lv_obj_style_gen.h **** {
 126:Drivers/lvgl/src/indev/../core/lv_obj_style_gen.h ****     lv_style_value_t v = lv_obj_get_style_prop(obj, part, LV_STYLE_TRANSFORM_ROTATION);
 127:Drivers/lvgl/src/indev/../core/lv_obj_style_gen.h ****     return (int32_t)v.num;
 128:Drivers/lvgl/src/indev/../core/lv_obj_style_gen.h **** }
 129:Drivers/lvgl/src/indev/../core/lv_obj_style_gen.h **** 
 130:Drivers/lvgl/src/indev/../core/lv_obj_style_gen.h **** static inline int32_t lv_obj_get_style_transform_pivot_x(const lv_obj_t * obj, lv_part_t part)
 131:Drivers/lvgl/src/indev/../core/lv_obj_style_gen.h **** {
 132:Drivers/lvgl/src/indev/../core/lv_obj_style_gen.h ****     lv_style_value_t v = lv_obj_get_style_prop(obj, part, LV_STYLE_TRANSFORM_PIVOT_X);
 133:Drivers/lvgl/src/indev/../core/lv_obj_style_gen.h ****     return (int32_t)v.num;
 134:Drivers/lvgl/src/indev/../core/lv_obj_style_gen.h **** }
 135:Drivers/lvgl/src/indev/../core/lv_obj_style_gen.h **** 
 136:Drivers/lvgl/src/indev/../core/lv_obj_style_gen.h **** static inline int32_t lv_obj_get_style_transform_pivot_y(const lv_obj_t * obj, lv_part_t part)
 137:Drivers/lvgl/src/indev/../core/lv_obj_style_gen.h **** {
 138:Drivers/lvgl/src/indev/../core/lv_obj_style_gen.h ****     lv_style_value_t v = lv_obj_get_style_prop(obj, part, LV_STYLE_TRANSFORM_PIVOT_Y);
 139:Drivers/lvgl/src/indev/../core/lv_obj_style_gen.h ****     return (int32_t)v.num;
 140:Drivers/lvgl/src/indev/../core/lv_obj_style_gen.h **** }
 141:Drivers/lvgl/src/indev/../core/lv_obj_style_gen.h **** 
 142:Drivers/lvgl/src/indev/../core/lv_obj_style_gen.h **** static inline int32_t lv_obj_get_style_transform_skew_x(const lv_obj_t * obj, lv_part_t part)
 143:Drivers/lvgl/src/indev/../core/lv_obj_style_gen.h **** {
 144:Drivers/lvgl/src/indev/../core/lv_obj_style_gen.h ****     lv_style_value_t v = lv_obj_get_style_prop(obj, part, LV_STYLE_TRANSFORM_SKEW_X);
 145:Drivers/lvgl/src/indev/../core/lv_obj_style_gen.h ****     return (int32_t)v.num;
 146:Drivers/lvgl/src/indev/../core/lv_obj_style_gen.h **** }
 147:Drivers/lvgl/src/indev/../core/lv_obj_style_gen.h **** 
ARM GAS  /tmp/ccpQad6v.s 			page 18


 148:Drivers/lvgl/src/indev/../core/lv_obj_style_gen.h **** static inline int32_t lv_obj_get_style_transform_skew_y(const lv_obj_t * obj, lv_part_t part)
 149:Drivers/lvgl/src/indev/../core/lv_obj_style_gen.h **** {
 150:Drivers/lvgl/src/indev/../core/lv_obj_style_gen.h ****     lv_style_value_t v = lv_obj_get_style_prop(obj, part, LV_STYLE_TRANSFORM_SKEW_Y);
 151:Drivers/lvgl/src/indev/../core/lv_obj_style_gen.h ****     return (int32_t)v.num;
 152:Drivers/lvgl/src/indev/../core/lv_obj_style_gen.h **** }
 153:Drivers/lvgl/src/indev/../core/lv_obj_style_gen.h **** 
 154:Drivers/lvgl/src/indev/../core/lv_obj_style_gen.h **** static inline int32_t lv_obj_get_style_pad_top(const lv_obj_t * obj, lv_part_t part)
 179              		.loc 2 154 23 view .LVU51
 180              	.LBB69:
 155:Drivers/lvgl/src/indev/../core/lv_obj_style_gen.h **** {
 156:Drivers/lvgl/src/indev/../core/lv_obj_style_gen.h ****     lv_style_value_t v = lv_obj_get_style_prop(obj, part, LV_STYLE_PAD_TOP);
 181              		.loc 2 156 5 view .LVU52
 182              		.loc 2 156 26 is_stmt 0 view .LVU53
 183 0018 1022     		movs	r2, #16
 184 001a 0021     		movs	r1, #0
 185 001c 3046     		mov	r0, r6
 186              	.LVL6:
 187              		.loc 2 156 26 view .LVU54
 188 001e FFF7FEFF 		bl	lv_obj_get_style_prop
 189              	.LVL7:
 190 0022 8246     		mov	r10, r0
 191 0024 0590     		str	r0, [sp, #20]
 157:Drivers/lvgl/src/indev/../core/lv_obj_style_gen.h ****     return (int32_t)v.num;
 192              		.loc 2 157 5 is_stmt 1 view .LVU55
 193              	.LVL8:
 194              		.loc 2 157 5 is_stmt 0 view .LVU56
 195              	.LBE69:
 196              	.LBE68:
 580:Drivers/lvgl/src/indev/lv_indev_scroll.c **** 
 197              		.loc 1 580 5 is_stmt 1 view .LVU57
 198              	.LBB70:
 199              	.LBI70:
 158:Drivers/lvgl/src/indev/../core/lv_obj_style_gen.h **** }
 159:Drivers/lvgl/src/indev/../core/lv_obj_style_gen.h **** 
 160:Drivers/lvgl/src/indev/../core/lv_obj_style_gen.h **** static inline int32_t lv_obj_get_style_pad_bottom(const lv_obj_t * obj, lv_part_t part)
 200              		.loc 2 160 23 view .LVU58
 201              	.LBB71:
 161:Drivers/lvgl/src/indev/../core/lv_obj_style_gen.h **** {
 162:Drivers/lvgl/src/indev/../core/lv_obj_style_gen.h ****     lv_style_value_t v = lv_obj_get_style_prop(obj, part, LV_STYLE_PAD_BOTTOM);
 202              		.loc 2 162 5 view .LVU59
 203              		.loc 2 162 26 is_stmt 0 view .LVU60
 204 0026 1122     		movs	r2, #17
 205 0028 0021     		movs	r1, #0
 206 002a 3046     		mov	r0, r6
 207              	.LVL9:
 208              		.loc 2 162 26 view .LVU61
 209 002c FFF7FEFF 		bl	lv_obj_get_style_prop
 210              	.LVL10:
 211 0030 0390     		str	r0, [sp, #12]
 212 0032 0590     		str	r0, [sp, #20]
 163:Drivers/lvgl/src/indev/../core/lv_obj_style_gen.h ****     return (int32_t)v.num;
 213              		.loc 2 163 5 is_stmt 1 view .LVU62
 214              	.LVL11:
 215              		.loc 2 163 5 is_stmt 0 view .LVU63
 216              	.LBE71:
 217              	.LBE70:
 582:Drivers/lvgl/src/indev/lv_indev_scroll.c ****     uint32_t child_cnt = lv_obj_get_child_count(obj);
ARM GAS  /tmp/ccpQad6v.s 			page 19


 218              		.loc 1 582 5 is_stmt 1 view .LVU64
 583:Drivers/lvgl/src/indev/lv_indev_scroll.c ****     for(i = 0; i < child_cnt; i++) {
 219              		.loc 1 583 5 view .LVU65
 583:Drivers/lvgl/src/indev/lv_indev_scroll.c ****     for(i = 0; i < child_cnt; i++) {
 220              		.loc 1 583 26 is_stmt 0 view .LVU66
 221 0034 3046     		mov	r0, r6
 222              	.LVL12:
 583:Drivers/lvgl/src/indev/lv_indev_scroll.c ****     for(i = 0; i < child_cnt; i++) {
 223              		.loc 1 583 26 view .LVU67
 224 0036 FFF7FEFF 		bl	lv_obj_get_child_count
 225              	.LVL13:
 583:Drivers/lvgl/src/indev/lv_indev_scroll.c ****     for(i = 0; i < child_cnt; i++) {
 226              		.loc 1 583 26 view .LVU68
 227 003a 0746     		mov	r7, r0
 228              	.LVL14:
 584:Drivers/lvgl/src/indev/lv_indev_scroll.c ****         lv_obj_t * child = obj->spec_attr->children[i];
 229              		.loc 1 584 5 is_stmt 1 view .LVU69
 584:Drivers/lvgl/src/indev/lv_indev_scroll.c ****         lv_obj_t * child = obj->spec_attr->children[i];
 230              		.loc 1 584 11 is_stmt 0 view .LVU70
 231 003c 0024     		movs	r4, #0
 577:Drivers/lvgl/src/indev/lv_indev_scroll.c **** 
 232              		.loc 1 577 13 view .LVU71
 233 003e 6FF06049 		mvn	r9, #-536870912
 584:Drivers/lvgl/src/indev/lv_indev_scroll.c ****         lv_obj_t * child = obj->spec_attr->children[i];
 234              		.loc 1 584 5 view .LVU72
 235 0042 23E0     		b	.L9
 236              	.LVL15:
 237              	.L11:
 238              	.LBB72:
 239              	.LBB73:
 596:Drivers/lvgl/src/indev/lv_indev_scroll.c ****                     y_parent = obj->coords.y2 - pad_bottom;
 240              		.loc 1 596 21 is_stmt 1 view .LVU73
 596:Drivers/lvgl/src/indev/lv_indev_scroll.c ****                     y_parent = obj->coords.y2 - pad_bottom;
 241              		.loc 1 596 29 is_stmt 0 view .LVU74
 242 0044 2D6A     		ldr	r5, [r5, #32]
 243              	.LVL16:
 597:Drivers/lvgl/src/indev/lv_indev_scroll.c ****                     break;
 244              		.loc 1 597 21 is_stmt 1 view .LVU75
 597:Drivers/lvgl/src/indev/lv_indev_scroll.c ****                     break;
 245              		.loc 1 597 43 is_stmt 0 view .LVU76
 246 0046 336A     		ldr	r3, [r6, #32]
 597:Drivers/lvgl/src/indev/lv_indev_scroll.c ****                     break;
 247              		.loc 1 597 30 view .LVU77
 248 0048 039A     		ldr	r2, [sp, #12]
 249 004a A3EB020B 		sub	fp, r3, r2
 250              	.LVL17:
 598:Drivers/lvgl/src/indev/lv_indev_scroll.c ****                 case LV_SCROLL_SNAP_CENTER:
 251              		.loc 1 598 21 is_stmt 1 view .LVU78
 252 004e 3DE0     		b	.L13
 253              	.LVL18:
 254              	.L12:
 600:Drivers/lvgl/src/indev/lv_indev_scroll.c ****                     y_parent = obj->coords.y1 + pad_top + (lv_area_get_height(&obj->coords) - pad_t
 255              		.loc 1 600 21 view .LVU79
 600:Drivers/lvgl/src/indev/lv_indev_scroll.c ****                     y_parent = obj->coords.y1 + pad_top + (lv_area_get_height(&obj->coords) - pad_t
 256              		.loc 1 600 44 is_stmt 0 view .LVU80
 257 0050 D5F818B0 		ldr	fp, [r5, #24]
 600:Drivers/lvgl/src/indev/lv_indev_scroll.c ****                     y_parent = obj->coords.y1 + pad_top + (lv_area_get_height(&obj->coords) - pad_t
ARM GAS  /tmp/ccpQad6v.s 			page 20


 258              		.loc 1 600 50 view .LVU81
 259 0054 05F11400 		add	r0, r5, #20
 260 0058 FFF7FEFF 		bl	lv_area_get_height
 261              	.LVL19:
 600:Drivers/lvgl/src/indev/lv_indev_scroll.c ****                     y_parent = obj->coords.y1 + pad_top + (lv_area_get_height(&obj->coords) - pad_t
 262              		.loc 1 600 85 discriminator 1 view .LVU82
 263 005c 0028     		cmp	r0, #0
 264 005e 10DB     		blt	.L20
 265              	.L14:
 600:Drivers/lvgl/src/indev/lv_indev_scroll.c ****                     y_parent = obj->coords.y1 + pad_top + (lv_area_get_height(&obj->coords) - pad_t
 266              		.loc 1 600 29 discriminator 1 view .LVU83
 267 0060 0BEB6005 		add	r5, fp, r0, asr #1
 268              	.LVL20:
 601:Drivers/lvgl/src/indev/lv_indev_scroll.c ****                     break;
 269              		.loc 1 601 21 is_stmt 1 view .LVU84
 601:Drivers/lvgl/src/indev/lv_indev_scroll.c ****                     break;
 270              		.loc 1 601 43 is_stmt 0 view .LVU85
 271 0064 B369     		ldr	r3, [r6, #24]
 601:Drivers/lvgl/src/indev/lv_indev_scroll.c ****                     break;
 272              		.loc 1 601 47 view .LVU86
 273 0066 03EB0A0B 		add	fp, r3, r10
 601:Drivers/lvgl/src/indev/lv_indev_scroll.c ****                     break;
 274              		.loc 1 601 60 view .LVU87
 275 006a 06F11400 		add	r0, r6, #20
 276 006e FFF7FEFF 		bl	lv_area_get_height
 277              	.LVL21:
 601:Drivers/lvgl/src/indev/lv_indev_scroll.c ****                     break;
 278              		.loc 1 601 93 discriminator 1 view .LVU88
 279 0072 A0EB0A00 		sub	r0, r0, r10
 601:Drivers/lvgl/src/indev/lv_indev_scroll.c ****                     break;
 280              		.loc 1 601 117 discriminator 1 view .LVU89
 281 0076 039B     		ldr	r3, [sp, #12]
 282 0078 C01A     		subs	r0, r0, r3
 283 007a 04D4     		bmi	.L21
 284              	.L15:
 601:Drivers/lvgl/src/indev/lv_indev_scroll.c ****                     break;
 285              		.loc 1 601 30 discriminator 1 view .LVU90
 286 007c 0BEB600B 		add	fp, fp, r0, asr #1
 287              	.LVL22:
 602:Drivers/lvgl/src/indev/lv_indev_scroll.c ****                 default:
 288              		.loc 1 602 21 is_stmt 1 view .LVU91
 289 0080 24E0     		b	.L13
 290              	.LVL23:
 291              	.L20:
 600:Drivers/lvgl/src/indev/lv_indev_scroll.c ****                     y_parent = obj->coords.y1 + pad_top + (lv_area_get_height(&obj->coords) - pad_t
 292              		.loc 1 600 85 is_stmt 0 discriminator 1 view .LVU92
 293 0082 0130     		adds	r0, r0, #1
 294 0084 ECE7     		b	.L14
 295              	.LVL24:
 296              	.L21:
 601:Drivers/lvgl/src/indev/lv_indev_scroll.c ****                     break;
 297              		.loc 1 601 117 discriminator 1 view .LVU93
 298 0086 0130     		adds	r0, r0, #1
 299 0088 F8E7     		b	.L15
 300              	.LVL25:
 301              	.L10:
 601:Drivers/lvgl/src/indev/lv_indev_scroll.c ****                     break;
ARM GAS  /tmp/ccpQad6v.s 			page 21


 302              		.loc 1 601 117 discriminator 1 view .LVU94
 303              	.LBE73:
 304              	.LBE72:
 584:Drivers/lvgl/src/indev/lv_indev_scroll.c ****         lv_obj_t * child = obj->spec_attr->children[i];
 305              		.loc 1 584 32 is_stmt 1 discriminator 2 view .LVU95
 306 008a 0134     		adds	r4, r4, #1
 307              	.LVL26:
 308              	.L9:
 584:Drivers/lvgl/src/indev/lv_indev_scroll.c ****         lv_obj_t * child = obj->spec_attr->children[i];
 309              		.loc 1 584 18 discriminator 1 view .LVU96
 310 008c BC42     		cmp	r4, r7
 311 008e 38D2     		bcs	.L22
 312              	.LBB76:
 585:Drivers/lvgl/src/indev/lv_indev_scroll.c ****         if(lv_obj_has_flag_any(child, LV_OBJ_FLAG_HIDDEN | LV_OBJ_FLAG_FLOATING)) continue;
 313              		.loc 1 585 9 view .LVU97
 585:Drivers/lvgl/src/indev/lv_indev_scroll.c ****         if(lv_obj_has_flag_any(child, LV_OBJ_FLAG_HIDDEN | LV_OBJ_FLAG_FLOATING)) continue;
 314              		.loc 1 585 31 is_stmt 0 view .LVU98
 315 0090 B368     		ldr	r3, [r6, #8]
 585:Drivers/lvgl/src/indev/lv_indev_scroll.c ****         if(lv_obj_has_flag_any(child, LV_OBJ_FLAG_HIDDEN | LV_OBJ_FLAG_FLOATING)) continue;
 316              		.loc 1 585 42 view .LVU99
 317 0092 1B68     		ldr	r3, [r3]
 585:Drivers/lvgl/src/indev/lv_indev_scroll.c ****         if(lv_obj_has_flag_any(child, LV_OBJ_FLAG_HIDDEN | LV_OBJ_FLAG_FLOATING)) continue;
 318              		.loc 1 585 20 view .LVU100
 319 0094 53F82450 		ldr	r5, [r3, r4, lsl #2]
 320              	.LVL27:
 586:Drivers/lvgl/src/indev/lv_indev_scroll.c ****         if(lv_obj_has_flag(child, LV_OBJ_FLAG_SNAPPABLE)) {
 321              		.loc 1 586 9 is_stmt 1 view .LVU101
 586:Drivers/lvgl/src/indev/lv_indev_scroll.c ****         if(lv_obj_has_flag(child, LV_OBJ_FLAG_SNAPPABLE)) {
 322              		.loc 1 586 12 is_stmt 0 view .LVU102
 323 0098 2049     		ldr	r1, .L23
 324 009a 2846     		mov	r0, r5
 325 009c FFF7FEFF 		bl	lv_obj_has_flag_any
 326              	.LVL28:
 586:Drivers/lvgl/src/indev/lv_indev_scroll.c ****         if(lv_obj_has_flag(child, LV_OBJ_FLAG_SNAPPABLE)) {
 327              		.loc 1 586 11 discriminator 1 view .LVU103
 328 00a0 0028     		cmp	r0, #0
 329 00a2 F2D1     		bne	.L10
 587:Drivers/lvgl/src/indev/lv_indev_scroll.c ****             int32_t y_child = 0;
 330              		.loc 1 587 9 is_stmt 1 view .LVU104
 587:Drivers/lvgl/src/indev/lv_indev_scroll.c ****             int32_t y_child = 0;
 331              		.loc 1 587 12 is_stmt 0 view .LVU105
 332 00a4 4FF48051 		mov	r1, #4096
 333 00a8 2846     		mov	r0, r5
 334 00aa FFF7FEFF 		bl	lv_obj_has_flag
 335              	.LVL29:
 587:Drivers/lvgl/src/indev/lv_indev_scroll.c ****             int32_t y_child = 0;
 336              		.loc 1 587 11 discriminator 1 view .LVU106
 337 00ae 0028     		cmp	r0, #0
 338 00b0 EBD0     		beq	.L10
 339              	.LBB75:
 588:Drivers/lvgl/src/indev/lv_indev_scroll.c ****             int32_t y_parent = 0;
 340              		.loc 1 588 13 is_stmt 1 view .LVU107
 341              	.LVL30:
 589:Drivers/lvgl/src/indev/lv_indev_scroll.c ****             switch(align) {
 342              		.loc 1 589 13 view .LVU108
 590:Drivers/lvgl/src/indev/lv_indev_scroll.c ****                 case LV_SCROLL_SNAP_START:
 343              		.loc 1 590 13 view .LVU109
ARM GAS  /tmp/ccpQad6v.s 			page 22


 344 00b2 B8F1020F 		cmp	r8, #2
 345 00b6 C5D0     		beq	.L11
 346 00b8 B8F1030F 		cmp	r8, #3
 347 00bc C8D0     		beq	.L12
 348 00be B8F1010F 		cmp	r8, #1
 349 00c2 E2D1     		bne	.L10
 592:Drivers/lvgl/src/indev/lv_indev_scroll.c ****                     y_parent = obj->coords.y1 + pad_top;
 350              		.loc 1 592 21 view .LVU110
 592:Drivers/lvgl/src/indev/lv_indev_scroll.c ****                     y_parent = obj->coords.y1 + pad_top;
 351              		.loc 1 592 29 is_stmt 0 view .LVU111
 352 00c4 AD69     		ldr	r5, [r5, #24]
 353              	.LVL31:
 593:Drivers/lvgl/src/indev/lv_indev_scroll.c ****                     break;
 354              		.loc 1 593 21 is_stmt 1 view .LVU112
 593:Drivers/lvgl/src/indev/lv_indev_scroll.c ****                     break;
 355              		.loc 1 593 43 is_stmt 0 view .LVU113
 356 00c6 B369     		ldr	r3, [r6, #24]
 593:Drivers/lvgl/src/indev/lv_indev_scroll.c ****                     break;
 357              		.loc 1 593 30 view .LVU114
 358 00c8 03EB0A0B 		add	fp, r3, r10
 359              	.LVL32:
 594:Drivers/lvgl/src/indev/lv_indev_scroll.c ****                 case LV_SCROLL_SNAP_END:
 360              		.loc 1 594 21 is_stmt 1 view .LVU115
 361              	.L13:
 607:Drivers/lvgl/src/indev/lv_indev_scroll.c ****             if(y_child >= min && y_child <= max) {
 362              		.loc 1 607 13 view .LVU116
 607:Drivers/lvgl/src/indev/lv_indev_scroll.c ****             if(y_child >= min && y_child <= max) {
 363              		.loc 1 607 21 is_stmt 0 view .LVU117
 364 00cc 029B     		ldr	r3, [sp, #8]
 365 00ce 1D44     		add	r5, r5, r3
 366              	.LVL33:
 608:Drivers/lvgl/src/indev/lv_indev_scroll.c ****                 int32_t y = y_child -  y_parent;
 367              		.loc 1 608 13 is_stmt 1 view .LVU118
 608:Drivers/lvgl/src/indev/lv_indev_scroll.c ****                 int32_t y = y_child -  y_parent;
 368              		.loc 1 608 31 is_stmt 0 view .LVU119
 369 00d0 009B     		ldr	r3, [sp]
 370 00d2 019A     		ldr	r2, [sp, #4]
 371 00d4 9D42     		cmp	r5, r3
 372 00d6 B4BF     		ite	lt
 373 00d8 0023     		movlt	r3, #0
 374 00da 0123     		movge	r3, #1
 375 00dc 9542     		cmp	r5, r2
 376 00de C8BF     		it	gt
 377 00e0 0023     		movgt	r3, #0
 608:Drivers/lvgl/src/indev/lv_indev_scroll.c ****                 int32_t y = y_child -  y_parent;
 378              		.loc 1 608 15 view .LVU120
 379 00e2 002B     		cmp	r3, #0
 380 00e4 D1D0     		beq	.L10
 381              	.LBB74:
 609:Drivers/lvgl/src/indev/lv_indev_scroll.c ****                 if(LV_ABS(y) < LV_ABS(dist)) dist = y;
 382              		.loc 1 609 17 is_stmt 1 view .LVU121
 609:Drivers/lvgl/src/indev/lv_indev_scroll.c ****                 if(LV_ABS(y) < LV_ABS(dist)) dist = y;
 383              		.loc 1 609 25 is_stmt 0 view .LVU122
 384 00e6 A5EB0B05 		sub	r5, r5, fp
 385              	.LVL34:
 610:Drivers/lvgl/src/indev/lv_indev_scroll.c ****             }
 386              		.loc 1 610 17 is_stmt 1 view .LVU123
ARM GAS  /tmp/ccpQad6v.s 			page 23


 610:Drivers/lvgl/src/indev/lv_indev_scroll.c ****             }
 387              		.loc 1 610 20 is_stmt 0 view .LVU124
 388 00ea 85EAE572 		eor	r2, r5, r5, asr #31
 389 00ee A2EBE572 		sub	r2, r2, r5, asr #31
 610:Drivers/lvgl/src/indev/lv_indev_scroll.c ****             }
 390              		.loc 1 610 32 view .LVU125
 391 00f2 89EAE973 		eor	r3, r9, r9, asr #31
 392 00f6 A3EBE973 		sub	r3, r3, r9, asr #31
 610:Drivers/lvgl/src/indev/lv_indev_scroll.c ****             }
 393              		.loc 1 610 19 view .LVU126
 394 00fa 9A42     		cmp	r2, r3
 395 00fc C5DA     		bge	.L10
 610:Drivers/lvgl/src/indev/lv_indev_scroll.c ****             }
 396              		.loc 1 610 51 discriminator 1 view .LVU127
 397 00fe A946     		mov	r9, r5
 398              	.LVL35:
 610:Drivers/lvgl/src/indev/lv_indev_scroll.c ****             }
 399              		.loc 1 610 51 discriminator 1 view .LVU128
 400 0100 C3E7     		b	.L10
 401              	.LVL36:
 402              	.L22:
 610:Drivers/lvgl/src/indev/lv_indev_scroll.c ****             }
 403              		.loc 1 610 51 discriminator 1 view .LVU129
 404              	.LBE74:
 405              	.LBE75:
 406              	.LBE76:
 615:Drivers/lvgl/src/indev/lv_indev_scroll.c **** }
 407              		.loc 1 615 5 is_stmt 1 view .LVU130
 615:Drivers/lvgl/src/indev/lv_indev_scroll.c **** }
 408              		.loc 1 615 48 is_stmt 0 view .LVU131
 409 0102 6FF06043 		mvn	r3, #-536870912
 410 0106 9945     		cmp	r9, r3
 411 0108 01D0     		beq	.L7
 615:Drivers/lvgl/src/indev/lv_indev_scroll.c **** }
 412              		.loc 1 615 48 discriminator 1 view .LVU132
 413 010a C9F10009 		rsb	r9, r9, #0
 414              	.LVL37:
 415              	.L7:
 616:Drivers/lvgl/src/indev/lv_indev_scroll.c **** 
 416              		.loc 1 616 1 view .LVU133
 417 010e 4846     		mov	r0, r9
 418 0110 07B0     		add	sp, sp, #28
 419              	.LCFI4:
 420              		.cfi_remember_state
 421              		.cfi_def_cfa_offset 36
 422              	.LVL38:
 616:Drivers/lvgl/src/indev/lv_indev_scroll.c **** 
 423              		.loc 1 616 1 view .LVU134
 424              		@ sp needed
 425 0112 BDE8F08F 		pop	{r4, r5, r6, r7, r8, r9, r10, fp, pc}
 426              	.LVL39:
 427              	.L17:
 428              	.LCFI5:
 429              		.cfi_restore_state
 575:Drivers/lvgl/src/indev/lv_indev_scroll.c **** 
 430              		.loc 1 575 45 discriminator 1 view .LVU135
 431 0116 6FF06049 		mvn	r9, #-536870912
ARM GAS  /tmp/ccpQad6v.s 			page 24


 432 011a F8E7     		b	.L7
 433              	.L24:
 434              		.align	2
 435              	.L23:
 436 011c 01000400 		.word	262145
 437              		.cfi_endproc
 438              	.LFE178:
 440              		.section	.text.find_snap_point_x,"ax",%progbits
 441              		.align	1
 442              		.syntax unified
 443              		.thumb
 444              		.thumb_func
 446              	find_snap_point_x:
 447              	.LVL40:
 448              	.LFB177:
 517:Drivers/lvgl/src/indev/lv_indev_scroll.c ****     lv_scroll_snap_t align = lv_obj_get_scroll_snap_x(obj);
 449              		.loc 1 517 1 is_stmt 1 view -0
 450              		.cfi_startproc
 451              		@ args = 0, pretend = 0, frame = 24
 452              		@ frame_needed = 0, uses_anonymous_args = 0
 517:Drivers/lvgl/src/indev/lv_indev_scroll.c ****     lv_scroll_snap_t align = lv_obj_get_scroll_snap_x(obj);
 453              		.loc 1 517 1 is_stmt 0 view .LVU137
 454 0000 2DE9F04F 		push	{r4, r5, r6, r7, r8, r9, r10, fp, lr}
 455              	.LCFI6:
 456              		.cfi_def_cfa_offset 36
 457              		.cfi_offset 4, -36
 458              		.cfi_offset 5, -32
 459              		.cfi_offset 6, -28
 460              		.cfi_offset 7, -24
 461              		.cfi_offset 8, -20
 462              		.cfi_offset 9, -16
 463              		.cfi_offset 10, -12
 464              		.cfi_offset 11, -8
 465              		.cfi_offset 14, -4
 466 0004 87B0     		sub	sp, sp, #28
 467              	.LCFI7:
 468              		.cfi_def_cfa_offset 64
 469 0006 0546     		mov	r5, r0
 470 0008 0091     		str	r1, [sp]
 471 000a 0192     		str	r2, [sp, #4]
 472 000c 0293     		str	r3, [sp, #8]
 518:Drivers/lvgl/src/indev/lv_indev_scroll.c ****     if(align == LV_SCROLL_SNAP_NONE) return LV_COORD_MAX;
 473              		.loc 1 518 5 is_stmt 1 view .LVU138
 518:Drivers/lvgl/src/indev/lv_indev_scroll.c ****     if(align == LV_SCROLL_SNAP_NONE) return LV_COORD_MAX;
 474              		.loc 1 518 30 is_stmt 0 view .LVU139
 475 000e FFF7FEFF 		bl	lv_obj_get_scroll_snap_x
 476              	.LVL41:
 519:Drivers/lvgl/src/indev/lv_indev_scroll.c **** 
 477              		.loc 1 519 5 is_stmt 1 view .LVU140
 519:Drivers/lvgl/src/indev/lv_indev_scroll.c **** 
 478              		.loc 1 519 7 is_stmt 0 view .LVU141
 479 0012 0028     		cmp	r0, #0
 480 0014 7ED0     		beq	.L35
 481 0016 8146     		mov	r9, r0
 521:Drivers/lvgl/src/indev/lv_indev_scroll.c **** 
 482              		.loc 1 521 5 is_stmt 1 view .LVU142
 483              	.LVL42:
ARM GAS  /tmp/ccpQad6v.s 			page 25


 523:Drivers/lvgl/src/indev/lv_indev_scroll.c ****     int32_t pad_right = lv_obj_get_style_pad_right(obj, LV_PART_MAIN);
 484              		.loc 1 523 5 view .LVU143
 485              	.LBB77:
 486              	.LBI77:
 164:Drivers/lvgl/src/indev/../core/lv_obj_style_gen.h **** }
 165:Drivers/lvgl/src/indev/../core/lv_obj_style_gen.h **** 
 166:Drivers/lvgl/src/indev/../core/lv_obj_style_gen.h **** static inline int32_t lv_obj_get_style_pad_left(const lv_obj_t * obj, lv_part_t part)
 487              		.loc 2 166 23 view .LVU144
 488              	.LBB78:
 167:Drivers/lvgl/src/indev/../core/lv_obj_style_gen.h **** {
 168:Drivers/lvgl/src/indev/../core/lv_obj_style_gen.h ****     lv_style_value_t v = lv_obj_get_style_prop(obj, part, LV_STYLE_PAD_LEFT);
 489              		.loc 2 168 5 view .LVU145
 490              		.loc 2 168 26 is_stmt 0 view .LVU146
 491 0018 1222     		movs	r2, #18
 492 001a 0021     		movs	r1, #0
 493 001c 2846     		mov	r0, r5
 494              	.LVL43:
 495              		.loc 2 168 26 view .LVU147
 496 001e FFF7FEFF 		bl	lv_obj_get_style_prop
 497              	.LVL44:
 498 0022 8346     		mov	fp, r0
 499 0024 0590     		str	r0, [sp, #20]
 169:Drivers/lvgl/src/indev/../core/lv_obj_style_gen.h ****     return (int32_t)v.num;
 500              		.loc 2 169 5 is_stmt 1 view .LVU148
 501              	.LVL45:
 502              		.loc 2 169 5 is_stmt 0 view .LVU149
 503              	.LBE78:
 504              	.LBE77:
 524:Drivers/lvgl/src/indev/lv_indev_scroll.c **** 
 505              		.loc 1 524 5 is_stmt 1 view .LVU150
 506              	.LBB79:
 507              	.LBI79:
 170:Drivers/lvgl/src/indev/../core/lv_obj_style_gen.h **** }
 171:Drivers/lvgl/src/indev/../core/lv_obj_style_gen.h **** 
 172:Drivers/lvgl/src/indev/../core/lv_obj_style_gen.h **** static inline int32_t lv_obj_get_style_pad_right(const lv_obj_t * obj, lv_part_t part)
 508              		.loc 2 172 23 view .LVU151
 509              	.LBB80:
 173:Drivers/lvgl/src/indev/../core/lv_obj_style_gen.h **** {
 174:Drivers/lvgl/src/indev/../core/lv_obj_style_gen.h ****     lv_style_value_t v = lv_obj_get_style_prop(obj, part, LV_STYLE_PAD_RIGHT);
 510              		.loc 2 174 5 view .LVU152
 511              		.loc 2 174 26 is_stmt 0 view .LVU153
 512 0026 1322     		movs	r2, #19
 513 0028 0021     		movs	r1, #0
 514 002a 2846     		mov	r0, r5
 515              	.LVL46:
 516              		.loc 2 174 26 view .LVU154
 517 002c FFF7FEFF 		bl	lv_obj_get_style_prop
 518              	.LVL47:
 519 0030 0390     		str	r0, [sp, #12]
 520 0032 0590     		str	r0, [sp, #20]
 175:Drivers/lvgl/src/indev/../core/lv_obj_style_gen.h ****     return (int32_t)v.num;
 521              		.loc 2 175 5 is_stmt 1 view .LVU155
 522              	.LVL48:
 523              		.loc 2 175 5 is_stmt 0 view .LVU156
 524              	.LBE80:
 525              	.LBE79:
 526:Drivers/lvgl/src/indev/lv_indev_scroll.c ****     uint32_t child_cnt = lv_obj_get_child_count(obj);
ARM GAS  /tmp/ccpQad6v.s 			page 26


 526              		.loc 1 526 5 is_stmt 1 view .LVU157
 527:Drivers/lvgl/src/indev/lv_indev_scroll.c ****     for(i = 0; i < child_cnt; i++) {
 527              		.loc 1 527 5 view .LVU158
 527:Drivers/lvgl/src/indev/lv_indev_scroll.c ****     for(i = 0; i < child_cnt; i++) {
 528              		.loc 1 527 26 is_stmt 0 view .LVU159
 529 0034 2846     		mov	r0, r5
 530              	.LVL49:
 527:Drivers/lvgl/src/indev/lv_indev_scroll.c ****     for(i = 0; i < child_cnt; i++) {
 531              		.loc 1 527 26 view .LVU160
 532 0036 FFF7FEFF 		bl	lv_obj_get_child_count
 533              	.LVL50:
 527:Drivers/lvgl/src/indev/lv_indev_scroll.c ****     for(i = 0; i < child_cnt; i++) {
 534              		.loc 1 527 26 view .LVU161
 535 003a 0646     		mov	r6, r0
 536              	.LVL51:
 528:Drivers/lvgl/src/indev/lv_indev_scroll.c ****         lv_obj_t * child = obj->spec_attr->children[i];
 537              		.loc 1 528 5 is_stmt 1 view .LVU162
 528:Drivers/lvgl/src/indev/lv_indev_scroll.c ****         lv_obj_t * child = obj->spec_attr->children[i];
 538              		.loc 1 528 11 is_stmt 0 view .LVU163
 539 003c 0024     		movs	r4, #0
 521:Drivers/lvgl/src/indev/lv_indev_scroll.c **** 
 540              		.loc 1 521 13 view .LVU164
 541 003e 6FF0604A 		mvn	r10, #-536870912
 528:Drivers/lvgl/src/indev/lv_indev_scroll.c ****         lv_obj_t * child = obj->spec_attr->children[i];
 542              		.loc 1 528 5 view .LVU165
 543 0042 22E0     		b	.L27
 544              	.LVL52:
 545              	.L29:
 546              	.LBB81:
 547              	.LBB82:
 540:Drivers/lvgl/src/indev/lv_indev_scroll.c ****                     x_parent = obj->coords.x2 - pad_right;
 548              		.loc 1 540 21 is_stmt 1 view .LVU166
 540:Drivers/lvgl/src/indev/lv_indev_scroll.c ****                     x_parent = obj->coords.x2 - pad_right;
 549              		.loc 1 540 29 is_stmt 0 view .LVU167
 550 0044 FF69     		ldr	r7, [r7, #28]
 551              	.LVL53:
 541:Drivers/lvgl/src/indev/lv_indev_scroll.c ****                     break;
 552              		.loc 1 541 21 is_stmt 1 view .LVU168
 541:Drivers/lvgl/src/indev/lv_indev_scroll.c ****                     break;
 553              		.loc 1 541 43 is_stmt 0 view .LVU169
 554 0046 EB69     		ldr	r3, [r5, #28]
 541:Drivers/lvgl/src/indev/lv_indev_scroll.c ****                     break;
 555              		.loc 1 541 30 view .LVU170
 556 0048 039A     		ldr	r2, [sp, #12]
 557 004a A3EB0208 		sub	r8, r3, r2
 558              	.LVL54:
 542:Drivers/lvgl/src/indev/lv_indev_scroll.c ****                 case LV_SCROLL_SNAP_CENTER:
 559              		.loc 1 542 21 is_stmt 1 view .LVU171
 560 004e 3CE0     		b	.L31
 561              	.LVL55:
 562              	.L30:
 544:Drivers/lvgl/src/indev/lv_indev_scroll.c ****                     x_parent = obj->coords.x1 + pad_left + (lv_area_get_width(&obj->coords) - pad_l
 563              		.loc 1 544 21 view .LVU172
 544:Drivers/lvgl/src/indev/lv_indev_scroll.c ****                     x_parent = obj->coords.x1 + pad_left + (lv_area_get_width(&obj->coords) - pad_l
 564              		.loc 1 544 44 is_stmt 0 view .LVU173
 565 0050 3846     		mov	r0, r7
 566 0052 50F8147F 		ldr	r7, [r0, #20]!
ARM GAS  /tmp/ccpQad6v.s 			page 27


 567              	.LVL56:
 544:Drivers/lvgl/src/indev/lv_indev_scroll.c ****                     x_parent = obj->coords.x1 + pad_left + (lv_area_get_width(&obj->coords) - pad_l
 568              		.loc 1 544 50 view .LVU174
 569 0056 FFF7FEFF 		bl	lv_area_get_width
 570              	.LVL57:
 544:Drivers/lvgl/src/indev/lv_indev_scroll.c ****                     x_parent = obj->coords.x1 + pad_left + (lv_area_get_width(&obj->coords) - pad_l
 571              		.loc 1 544 84 discriminator 1 view .LVU175
 572 005a 0028     		cmp	r0, #0
 573 005c 10DB     		blt	.L38
 574              	.L32:
 544:Drivers/lvgl/src/indev/lv_indev_scroll.c ****                     x_parent = obj->coords.x1 + pad_left + (lv_area_get_width(&obj->coords) - pad_l
 575              		.loc 1 544 29 discriminator 1 view .LVU176
 576 005e 07EB6007 		add	r7, r7, r0, asr #1
 577              	.LVL58:
 545:Drivers/lvgl/src/indev/lv_indev_scroll.c ****                     break;
 578              		.loc 1 545 21 is_stmt 1 view .LVU177
 545:Drivers/lvgl/src/indev/lv_indev_scroll.c ****                     break;
 579              		.loc 1 545 43 is_stmt 0 view .LVU178
 580 0062 2846     		mov	r0, r5
 581 0064 50F8143F 		ldr	r3, [r0, #20]!
 545:Drivers/lvgl/src/indev/lv_indev_scroll.c ****                     break;
 582              		.loc 1 545 47 view .LVU179
 583 0068 03EB0B08 		add	r8, r3, fp
 545:Drivers/lvgl/src/indev/lv_indev_scroll.c ****                     break;
 584              		.loc 1 545 61 view .LVU180
 585 006c FFF7FEFF 		bl	lv_area_get_width
 586              	.LVL59:
 545:Drivers/lvgl/src/indev/lv_indev_scroll.c ****                     break;
 587              		.loc 1 545 93 discriminator 1 view .LVU181
 588 0070 A0EB0B00 		sub	r0, r0, fp
 545:Drivers/lvgl/src/indev/lv_indev_scroll.c ****                     break;
 589              		.loc 1 545 117 discriminator 1 view .LVU182
 590 0074 039B     		ldr	r3, [sp, #12]
 591 0076 C01A     		subs	r0, r0, r3
 592 0078 04D4     		bmi	.L39
 593              	.L33:
 545:Drivers/lvgl/src/indev/lv_indev_scroll.c ****                     break;
 594              		.loc 1 545 30 discriminator 1 view .LVU183
 595 007a 08EB6008 		add	r8, r8, r0, asr #1
 596              	.LVL60:
 546:Drivers/lvgl/src/indev/lv_indev_scroll.c ****                 default:
 597              		.loc 1 546 21 is_stmt 1 view .LVU184
 598 007e 24E0     		b	.L31
 599              	.LVL61:
 600              	.L38:
 544:Drivers/lvgl/src/indev/lv_indev_scroll.c ****                     x_parent = obj->coords.x1 + pad_left + (lv_area_get_width(&obj->coords) - pad_l
 601              		.loc 1 544 84 is_stmt 0 discriminator 1 view .LVU185
 602 0080 0130     		adds	r0, r0, #1
 603 0082 ECE7     		b	.L32
 604              	.LVL62:
 605              	.L39:
 545:Drivers/lvgl/src/indev/lv_indev_scroll.c ****                     break;
 606              		.loc 1 545 117 discriminator 1 view .LVU186
 607 0084 0130     		adds	r0, r0, #1
 608 0086 F8E7     		b	.L33
 609              	.LVL63:
 610              	.L28:
ARM GAS  /tmp/ccpQad6v.s 			page 28


 545:Drivers/lvgl/src/indev/lv_indev_scroll.c ****                     break;
 611              		.loc 1 545 117 discriminator 1 view .LVU187
 612              	.LBE82:
 613              	.LBE81:
 528:Drivers/lvgl/src/indev/lv_indev_scroll.c ****         lv_obj_t * child = obj->spec_attr->children[i];
 614              		.loc 1 528 32 is_stmt 1 discriminator 2 view .LVU188
 615 0088 0134     		adds	r4, r4, #1
 616              	.LVL64:
 617              	.L27:
 528:Drivers/lvgl/src/indev/lv_indev_scroll.c ****         lv_obj_t * child = obj->spec_attr->children[i];
 618              		.loc 1 528 18 discriminator 1 view .LVU189
 619 008a B442     		cmp	r4, r6
 620 008c 38D2     		bcs	.L40
 621              	.LBB85:
 529:Drivers/lvgl/src/indev/lv_indev_scroll.c ****         if(lv_obj_has_flag_any(child, LV_OBJ_FLAG_HIDDEN | LV_OBJ_FLAG_FLOATING)) continue;
 622              		.loc 1 529 9 view .LVU190
 529:Drivers/lvgl/src/indev/lv_indev_scroll.c ****         if(lv_obj_has_flag_any(child, LV_OBJ_FLAG_HIDDEN | LV_OBJ_FLAG_FLOATING)) continue;
 623              		.loc 1 529 31 is_stmt 0 view .LVU191
 624 008e AB68     		ldr	r3, [r5, #8]
 529:Drivers/lvgl/src/indev/lv_indev_scroll.c ****         if(lv_obj_has_flag_any(child, LV_OBJ_FLAG_HIDDEN | LV_OBJ_FLAG_FLOATING)) continue;
 625              		.loc 1 529 42 view .LVU192
 626 0090 1B68     		ldr	r3, [r3]
 529:Drivers/lvgl/src/indev/lv_indev_scroll.c ****         if(lv_obj_has_flag_any(child, LV_OBJ_FLAG_HIDDEN | LV_OBJ_FLAG_FLOATING)) continue;
 627              		.loc 1 529 20 view .LVU193
 628 0092 53F82470 		ldr	r7, [r3, r4, lsl #2]
 629              	.LVL65:
 530:Drivers/lvgl/src/indev/lv_indev_scroll.c ****         if(lv_obj_has_flag(child, LV_OBJ_FLAG_SNAPPABLE)) {
 630              		.loc 1 530 9 is_stmt 1 view .LVU194
 530:Drivers/lvgl/src/indev/lv_indev_scroll.c ****         if(lv_obj_has_flag(child, LV_OBJ_FLAG_SNAPPABLE)) {
 631              		.loc 1 530 12 is_stmt 0 view .LVU195
 632 0096 2149     		ldr	r1, .L41
 633 0098 3846     		mov	r0, r7
 634 009a FFF7FEFF 		bl	lv_obj_has_flag_any
 635              	.LVL66:
 530:Drivers/lvgl/src/indev/lv_indev_scroll.c ****         if(lv_obj_has_flag(child, LV_OBJ_FLAG_SNAPPABLE)) {
 636              		.loc 1 530 11 discriminator 1 view .LVU196
 637 009e 0028     		cmp	r0, #0
 638 00a0 F2D1     		bne	.L28
 531:Drivers/lvgl/src/indev/lv_indev_scroll.c ****             int32_t x_child = 0;
 639              		.loc 1 531 9 is_stmt 1 view .LVU197
 531:Drivers/lvgl/src/indev/lv_indev_scroll.c ****             int32_t x_child = 0;
 640              		.loc 1 531 12 is_stmt 0 view .LVU198
 641 00a2 4FF48051 		mov	r1, #4096
 642 00a6 3846     		mov	r0, r7
 643 00a8 FFF7FEFF 		bl	lv_obj_has_flag
 644              	.LVL67:
 531:Drivers/lvgl/src/indev/lv_indev_scroll.c ****             int32_t x_child = 0;
 645              		.loc 1 531 11 discriminator 1 view .LVU199
 646 00ac 0028     		cmp	r0, #0
 647 00ae EBD0     		beq	.L28
 648              	.LBB84:
 532:Drivers/lvgl/src/indev/lv_indev_scroll.c ****             int32_t x_parent = 0;
 649              		.loc 1 532 13 is_stmt 1 view .LVU200
 650              	.LVL68:
 533:Drivers/lvgl/src/indev/lv_indev_scroll.c ****             switch(align) {
 651              		.loc 1 533 13 view .LVU201
 534:Drivers/lvgl/src/indev/lv_indev_scroll.c ****                 case LV_SCROLL_SNAP_START:
ARM GAS  /tmp/ccpQad6v.s 			page 29


 652              		.loc 1 534 13 view .LVU202
 653 00b0 B9F1020F 		cmp	r9, #2
 654 00b4 C6D0     		beq	.L29
 655 00b6 B9F1030F 		cmp	r9, #3
 656 00ba C9D0     		beq	.L30
 657 00bc B9F1010F 		cmp	r9, #1
 658 00c0 E2D1     		bne	.L28
 536:Drivers/lvgl/src/indev/lv_indev_scroll.c ****                     x_parent = obj->coords.x1 + pad_left;
 659              		.loc 1 536 21 view .LVU203
 536:Drivers/lvgl/src/indev/lv_indev_scroll.c ****                     x_parent = obj->coords.x1 + pad_left;
 660              		.loc 1 536 29 is_stmt 0 view .LVU204
 661 00c2 7F69     		ldr	r7, [r7, #20]
 662              	.LVL69:
 537:Drivers/lvgl/src/indev/lv_indev_scroll.c ****                     break;
 663              		.loc 1 537 21 is_stmt 1 view .LVU205
 537:Drivers/lvgl/src/indev/lv_indev_scroll.c ****                     break;
 664              		.loc 1 537 43 is_stmt 0 view .LVU206
 665 00c4 6B69     		ldr	r3, [r5, #20]
 537:Drivers/lvgl/src/indev/lv_indev_scroll.c ****                     break;
 666              		.loc 1 537 30 view .LVU207
 667 00c6 03EB0B08 		add	r8, r3, fp
 668              	.LVL70:
 538:Drivers/lvgl/src/indev/lv_indev_scroll.c ****                 case LV_SCROLL_SNAP_END:
 669              		.loc 1 538 21 is_stmt 1 view .LVU208
 670              	.L31:
 551:Drivers/lvgl/src/indev/lv_indev_scroll.c ****             if(x_child >= min && x_child <= max) {
 671              		.loc 1 551 13 view .LVU209
 551:Drivers/lvgl/src/indev/lv_indev_scroll.c ****             if(x_child >= min && x_child <= max) {
 672              		.loc 1 551 21 is_stmt 0 view .LVU210
 673 00ca 029B     		ldr	r3, [sp, #8]
 674 00cc 1F44     		add	r7, r7, r3
 675              	.LVL71:
 552:Drivers/lvgl/src/indev/lv_indev_scroll.c ****                 int32_t x = x_child -  x_parent;
 676              		.loc 1 552 13 is_stmt 1 view .LVU211
 552:Drivers/lvgl/src/indev/lv_indev_scroll.c ****                 int32_t x = x_child -  x_parent;
 677              		.loc 1 552 31 is_stmt 0 view .LVU212
 678 00ce 009B     		ldr	r3, [sp]
 679 00d0 019A     		ldr	r2, [sp, #4]
 680 00d2 9F42     		cmp	r7, r3
 681 00d4 B4BF     		ite	lt
 682 00d6 0023     		movlt	r3, #0
 683 00d8 0123     		movge	r3, #1
 684 00da 9742     		cmp	r7, r2
 685 00dc C8BF     		it	gt
 686 00de 0023     		movgt	r3, #0
 552:Drivers/lvgl/src/indev/lv_indev_scroll.c ****                 int32_t x = x_child -  x_parent;
 687              		.loc 1 552 15 view .LVU213
 688 00e0 002B     		cmp	r3, #0
 689 00e2 D1D0     		beq	.L28
 690              	.LBB83:
 553:Drivers/lvgl/src/indev/lv_indev_scroll.c ****                 if(LV_ABS(x) < LV_ABS(dist)) dist = x;
 691              		.loc 1 553 17 is_stmt 1 view .LVU214
 553:Drivers/lvgl/src/indev/lv_indev_scroll.c ****                 if(LV_ABS(x) < LV_ABS(dist)) dist = x;
 692              		.loc 1 553 25 is_stmt 0 view .LVU215
 693 00e4 A7EB0807 		sub	r7, r7, r8
 694              	.LVL72:
 554:Drivers/lvgl/src/indev/lv_indev_scroll.c ****             }
ARM GAS  /tmp/ccpQad6v.s 			page 30


 695              		.loc 1 554 17 is_stmt 1 view .LVU216
 554:Drivers/lvgl/src/indev/lv_indev_scroll.c ****             }
 696              		.loc 1 554 20 is_stmt 0 view .LVU217
 697 00e8 87EAE772 		eor	r2, r7, r7, asr #31
 698 00ec A2EBE772 		sub	r2, r2, r7, asr #31
 554:Drivers/lvgl/src/indev/lv_indev_scroll.c ****             }
 699              		.loc 1 554 32 view .LVU218
 700 00f0 8AEAEA73 		eor	r3, r10, r10, asr #31
 701 00f4 A3EBEA73 		sub	r3, r3, r10, asr #31
 554:Drivers/lvgl/src/indev/lv_indev_scroll.c ****             }
 702              		.loc 1 554 19 view .LVU219
 703 00f8 9A42     		cmp	r2, r3
 704 00fa C5DA     		bge	.L28
 554:Drivers/lvgl/src/indev/lv_indev_scroll.c ****             }
 705              		.loc 1 554 51 discriminator 1 view .LVU220
 706 00fc BA46     		mov	r10, r7
 707              	.LVL73:
 554:Drivers/lvgl/src/indev/lv_indev_scroll.c ****             }
 708              		.loc 1 554 51 discriminator 1 view .LVU221
 709 00fe C3E7     		b	.L28
 710              	.LVL74:
 711              	.L40:
 554:Drivers/lvgl/src/indev/lv_indev_scroll.c ****             }
 712              		.loc 1 554 51 discriminator 1 view .LVU222
 713              	.LBE83:
 714              	.LBE84:
 715              	.LBE85:
 559:Drivers/lvgl/src/indev/lv_indev_scroll.c **** }
 716              		.loc 1 559 5 is_stmt 1 view .LVU223
 559:Drivers/lvgl/src/indev/lv_indev_scroll.c **** }
 717              		.loc 1 559 48 is_stmt 0 view .LVU224
 718 0100 6FF06043 		mvn	r3, #-536870912
 719 0104 9A45     		cmp	r10, r3
 720 0106 01D0     		beq	.L25
 559:Drivers/lvgl/src/indev/lv_indev_scroll.c **** }
 721              		.loc 1 559 48 discriminator 1 view .LVU225
 722 0108 CAF1000A 		rsb	r10, r10, #0
 723              	.LVL75:
 724              	.L25:
 560:Drivers/lvgl/src/indev/lv_indev_scroll.c **** 
 725              		.loc 1 560 1 view .LVU226
 726 010c 5046     		mov	r0, r10
 727 010e 07B0     		add	sp, sp, #28
 728              	.LCFI8:
 729              		.cfi_remember_state
 730              		.cfi_def_cfa_offset 36
 731              	.LVL76:
 560:Drivers/lvgl/src/indev/lv_indev_scroll.c **** 
 732              		.loc 1 560 1 view .LVU227
 733              		@ sp needed
 734 0110 BDE8F08F 		pop	{r4, r5, r6, r7, r8, r9, r10, fp, pc}
 735              	.LVL77:
 736              	.L35:
 737              	.LCFI9:
 738              		.cfi_restore_state
 519:Drivers/lvgl/src/indev/lv_indev_scroll.c **** 
 739              		.loc 1 519 45 discriminator 1 view .LVU228
ARM GAS  /tmp/ccpQad6v.s 			page 31


 740 0114 6FF0604A 		mvn	r10, #-536870912
 741 0118 F8E7     		b	.L25
 742              	.L42:
 743 011a 00BF     		.align	2
 744              	.L41:
 745 011c 01000400 		.word	262145
 746              		.cfi_endproc
 747              	.LFE177:
 749              		.section	.text.init_scroll_limits,"ax",%progbits
 750              		.align	1
 751              		.syntax unified
 752              		.thumb
 753              		.thumb_func
 755              	init_scroll_limits:
 756              	.LVL78:
 757              	.LFB176:
 443:Drivers/lvgl/src/indev/lv_indev_scroll.c ****     lv_obj_t * obj = indev->pointer.scroll_obj;
 758              		.loc 1 443 1 is_stmt 1 view -0
 759              		.cfi_startproc
 760              		@ args = 0, pretend = 0, frame = 0
 761              		@ frame_needed = 0, uses_anonymous_args = 0
 443:Drivers/lvgl/src/indev/lv_indev_scroll.c ****     lv_obj_t * obj = indev->pointer.scroll_obj;
 762              		.loc 1 443 1 is_stmt 0 view .LVU230
 763 0000 70B5     		push	{r4, r5, r6, lr}
 764              	.LCFI10:
 765              		.cfi_def_cfa_offset 16
 766              		.cfi_offset 4, -16
 767              		.cfi_offset 5, -12
 768              		.cfi_offset 6, -8
 769              		.cfi_offset 14, -4
 770 0002 82B0     		sub	sp, sp, #8
 771              	.LCFI11:
 772              		.cfi_def_cfa_offset 24
 773 0004 0446     		mov	r4, r0
 444:Drivers/lvgl/src/indev/lv_indev_scroll.c ****     /*If there no STOP allow scrolling anywhere*/
 774              		.loc 1 444 5 is_stmt 1 view .LVU231
 444:Drivers/lvgl/src/indev/lv_indev_scroll.c ****     /*If there no STOP allow scrolling anywhere*/
 775              		.loc 1 444 16 is_stmt 0 view .LVU232
 776 0006 056F     		ldr	r5, [r0, #112]
 777              	.LVL79:
 446:Drivers/lvgl/src/indev/lv_indev_scroll.c ****         lv_area_set(&indev->pointer.scroll_area, LV_COORD_MIN, LV_COORD_MIN, LV_COORD_MAX, LV_COORD
 778              		.loc 1 446 5 is_stmt 1 view .LVU233
 446:Drivers/lvgl/src/indev/lv_indev_scroll.c ****         lv_area_set(&indev->pointer.scroll_area, LV_COORD_MIN, LV_COORD_MIN, LV_COORD_MAX, LV_COORD
 779              		.loc 1 446 8 is_stmt 0 view .LVU234
 780 0008 8021     		movs	r1, #128
 781 000a 2846     		mov	r0, r5
 782              	.LVL80:
 446:Drivers/lvgl/src/indev/lv_indev_scroll.c ****         lv_area_set(&indev->pointer.scroll_area, LV_COORD_MIN, LV_COORD_MIN, LV_COORD_MAX, LV_COORD
 783              		.loc 1 446 8 view .LVU235
 784 000c FFF7FEFF 		bl	lv_obj_has_flag
 785              	.LVL81:
 446:Drivers/lvgl/src/indev/lv_indev_scroll.c ****         lv_area_set(&indev->pointer.scroll_area, LV_COORD_MIN, LV_COORD_MIN, LV_COORD_MAX, LV_COORD
 786              		.loc 1 446 7 discriminator 1 view .LVU236
 787 0010 78BB     		cbnz	r0, .L44
 447:Drivers/lvgl/src/indev/lv_indev_scroll.c ****     }
 788              		.loc 1 447 9 is_stmt 1 view .LVU237
 789 0012 6C49     		ldr	r1, .L66
ARM GAS  /tmp/ccpQad6v.s 			page 32


 790 0014 6FF06043 		mvn	r3, #-536870912
 791 0018 0093     		str	r3, [sp]
 792 001a 0A46     		mov	r2, r1
 793 001c 04F17C00 		add	r0, r4, #124
 794 0020 FFF7FEFF 		bl	lv_area_set
 795              	.LVL82:
 796              	.L45:
 496:Drivers/lvgl/src/indev/lv_indev_scroll.c ****     if(indev->pointer.scroll_area.y1 == LV_COORD_MAX) indev->pointer.scroll_area.y1 = LV_COORD_MIN;
 797              		.loc 1 496 5 view .LVU238
 496:Drivers/lvgl/src/indev/lv_indev_scroll.c ****     if(indev->pointer.scroll_area.y1 == LV_COORD_MAX) indev->pointer.scroll_area.y1 = LV_COORD_MIN;
 798              		.loc 1 496 34 is_stmt 0 view .LVU239
 799 0024 E26F     		ldr	r2, [r4, #124]
 496:Drivers/lvgl/src/indev/lv_indev_scroll.c ****     if(indev->pointer.scroll_area.y1 == LV_COORD_MAX) indev->pointer.scroll_area.y1 = LV_COORD_MIN;
 800              		.loc 1 496 7 view .LVU240
 801 0026 6FF06043 		mvn	r3, #-536870912
 802 002a 9A42     		cmp	r2, r3
 803 002c 00F0C280 		beq	.L62
 804              	.L55:
 497:Drivers/lvgl/src/indev/lv_indev_scroll.c **** 
 805              		.loc 1 497 5 is_stmt 1 view .LVU241
 497:Drivers/lvgl/src/indev/lv_indev_scroll.c **** 
 806              		.loc 1 497 34 is_stmt 0 view .LVU242
 807 0030 D4F88020 		ldr	r2, [r4, #128]
 497:Drivers/lvgl/src/indev/lv_indev_scroll.c **** 
 808              		.loc 1 497 7 view .LVU243
 809 0034 6FF06043 		mvn	r3, #-536870912
 810 0038 9A42     		cmp	r2, r3
 811 003a 00F0BE80 		beq	.L63
 812              	.L56:
 500:Drivers/lvgl/src/indev/lv_indev_scroll.c ****     if(indev->pointer.scroll_area.x2 == 0) indev->pointer.scroll_area.x2 = LV_COORD_MAX;
 813              		.loc 1 500 5 is_stmt 1 view .LVU244
 500:Drivers/lvgl/src/indev/lv_indev_scroll.c ****     if(indev->pointer.scroll_area.x2 == 0) indev->pointer.scroll_area.x2 = LV_COORD_MAX;
 814              		.loc 1 500 34 is_stmt 0 view .LVU245
 815 003e E36F     		ldr	r3, [r4, #124]
 500:Drivers/lvgl/src/indev/lv_indev_scroll.c ****     if(indev->pointer.scroll_area.x2 == 0) indev->pointer.scroll_area.x2 = LV_COORD_MAX;
 816              		.loc 1 500 7 view .LVU246
 817 0040 0BB9     		cbnz	r3, .L57
 500:Drivers/lvgl/src/indev/lv_indev_scroll.c ****     if(indev->pointer.scroll_area.x2 == 0) indev->pointer.scroll_area.x2 = LV_COORD_MAX;
 818              		.loc 1 500 44 is_stmt 1 discriminator 1 view .LVU247
 500:Drivers/lvgl/src/indev/lv_indev_scroll.c ****     if(indev->pointer.scroll_area.x2 == 0) indev->pointer.scroll_area.x2 = LV_COORD_MAX;
 819              		.loc 1 500 74 is_stmt 0 discriminator 1 view .LVU248
 820 0042 604B     		ldr	r3, .L66
 821 0044 E367     		str	r3, [r4, #124]
 822              	.L57:
 501:Drivers/lvgl/src/indev/lv_indev_scroll.c ****     if(indev->pointer.scroll_area.y1 == 0) indev->pointer.scroll_area.y1 = LV_COORD_MIN;
 823              		.loc 1 501 5 is_stmt 1 view .LVU249
 501:Drivers/lvgl/src/indev/lv_indev_scroll.c ****     if(indev->pointer.scroll_area.y1 == 0) indev->pointer.scroll_area.y1 = LV_COORD_MIN;
 824              		.loc 1 501 34 is_stmt 0 view .LVU250
 825 0046 D4F88430 		ldr	r3, [r4, #132]
 501:Drivers/lvgl/src/indev/lv_indev_scroll.c ****     if(indev->pointer.scroll_area.y1 == 0) indev->pointer.scroll_area.y1 = LV_COORD_MIN;
 826              		.loc 1 501 7 view .LVU251
 827 004a 1BB9     		cbnz	r3, .L58
 501:Drivers/lvgl/src/indev/lv_indev_scroll.c ****     if(indev->pointer.scroll_area.y1 == 0) indev->pointer.scroll_area.y1 = LV_COORD_MIN;
 828              		.loc 1 501 44 is_stmt 1 discriminator 1 view .LVU252
 501:Drivers/lvgl/src/indev/lv_indev_scroll.c ****     if(indev->pointer.scroll_area.y1 == 0) indev->pointer.scroll_area.y1 = LV_COORD_MIN;
 829              		.loc 1 501 74 is_stmt 0 discriminator 1 view .LVU253
 830 004c 6FF06043 		mvn	r3, #-536870912
ARM GAS  /tmp/ccpQad6v.s 			page 33


 831 0050 C4F88430 		str	r3, [r4, #132]
 832              	.L58:
 502:Drivers/lvgl/src/indev/lv_indev_scroll.c ****     if(indev->pointer.scroll_area.y2 == 0) indev->pointer.scroll_area.y2 = LV_COORD_MAX;
 833              		.loc 1 502 5 is_stmt 1 view .LVU254
 502:Drivers/lvgl/src/indev/lv_indev_scroll.c ****     if(indev->pointer.scroll_area.y2 == 0) indev->pointer.scroll_area.y2 = LV_COORD_MAX;
 834              		.loc 1 502 34 is_stmt 0 view .LVU255
 835 0054 D4F88030 		ldr	r3, [r4, #128]
 502:Drivers/lvgl/src/indev/lv_indev_scroll.c ****     if(indev->pointer.scroll_area.y2 == 0) indev->pointer.scroll_area.y2 = LV_COORD_MAX;
 836              		.loc 1 502 7 view .LVU256
 837 0058 13B9     		cbnz	r3, .L59
 502:Drivers/lvgl/src/indev/lv_indev_scroll.c ****     if(indev->pointer.scroll_area.y2 == 0) indev->pointer.scroll_area.y2 = LV_COORD_MAX;
 838              		.loc 1 502 44 is_stmt 1 discriminator 1 view .LVU257
 502:Drivers/lvgl/src/indev/lv_indev_scroll.c ****     if(indev->pointer.scroll_area.y2 == 0) indev->pointer.scroll_area.y2 = LV_COORD_MAX;
 839              		.loc 1 502 74 is_stmt 0 discriminator 1 view .LVU258
 840 005a 5A4B     		ldr	r3, .L66
 841 005c C4F88030 		str	r3, [r4, #128]
 842              	.L59:
 503:Drivers/lvgl/src/indev/lv_indev_scroll.c **** }
 843              		.loc 1 503 5 is_stmt 1 view .LVU259
 503:Drivers/lvgl/src/indev/lv_indev_scroll.c **** }
 844              		.loc 1 503 34 is_stmt 0 view .LVU260
 845 0060 D4F88830 		ldr	r3, [r4, #136]
 503:Drivers/lvgl/src/indev/lv_indev_scroll.c **** }
 846              		.loc 1 503 7 view .LVU261
 847 0064 1BB9     		cbnz	r3, .L43
 503:Drivers/lvgl/src/indev/lv_indev_scroll.c **** }
 848              		.loc 1 503 44 is_stmt 1 discriminator 1 view .LVU262
 503:Drivers/lvgl/src/indev/lv_indev_scroll.c **** }
 849              		.loc 1 503 74 is_stmt 0 discriminator 1 view .LVU263
 850 0066 6FF06043 		mvn	r3, #-536870912
 851 006a C4F88830 		str	r3, [r4, #136]
 852              	.L43:
 504:Drivers/lvgl/src/indev/lv_indev_scroll.c **** 
 853              		.loc 1 504 1 view .LVU264
 854 006e 02B0     		add	sp, sp, #8
 855              	.LCFI12:
 856              		.cfi_remember_state
 857              		.cfi_def_cfa_offset 16
 858              		@ sp needed
 859 0070 70BD     		pop	{r4, r5, r6, pc}
 860              	.LVL83:
 861              	.L44:
 862              	.LCFI13:
 863              		.cfi_restore_state
 451:Drivers/lvgl/src/indev/lv_indev_scroll.c ****             case LV_SCROLL_SNAP_START:
 864              		.loc 1 451 9 is_stmt 1 view .LVU265
 451:Drivers/lvgl/src/indev/lv_indev_scroll.c ****             case LV_SCROLL_SNAP_START:
 865              		.loc 1 451 16 is_stmt 0 view .LVU266
 866 0072 2846     		mov	r0, r5
 867 0074 FFF7FEFF 		bl	lv_obj_get_scroll_snap_y
 868              	.LVL84:
 451:Drivers/lvgl/src/indev/lv_indev_scroll.c ****             case LV_SCROLL_SNAP_START:
 869              		.loc 1 451 9 discriminator 1 view .LVU267
 870 0078 0228     		cmp	r0, #2
 871 007a 30D0     		beq	.L46
 872 007c 0328     		cmp	r0, #3
 873 007e 40D0     		beq	.L47
ARM GAS  /tmp/ccpQad6v.s 			page 34


 874 0080 0128     		cmp	r0, #1
 875 0082 5BD1     		bne	.L48
 453:Drivers/lvgl/src/indev/lv_indev_scroll.c ****                 indev->pointer.scroll_area.y2 = find_snap_point_y(obj, LV_COORD_MIN, obj->coords.y1
 876              		.loc 1 453 17 is_stmt 1 view .LVU268
 453:Drivers/lvgl/src/indev/lv_indev_scroll.c ****                 indev->pointer.scroll_area.y2 = find_snap_point_y(obj, LV_COORD_MIN, obj->coords.y1
 877              		.loc 1 453 83 is_stmt 0 view .LVU269
 878 0084 A969     		ldr	r1, [r5, #24]
 453:Drivers/lvgl/src/indev/lv_indev_scroll.c ****                 indev->pointer.scroll_area.y2 = find_snap_point_y(obj, LV_COORD_MIN, obj->coords.y1
 879              		.loc 1 453 49 view .LVU270
 880 0086 0023     		movs	r3, #0
 881 0088 6FF06042 		mvn	r2, #-536870912
 882 008c 0131     		adds	r1, r1, #1
 883 008e 2846     		mov	r0, r5
 884 0090 FFF7FEFF 		bl	find_snap_point_y
 885              	.LVL85:
 453:Drivers/lvgl/src/indev/lv_indev_scroll.c ****                 indev->pointer.scroll_area.y2 = find_snap_point_y(obj, LV_COORD_MIN, obj->coords.y1
 886              		.loc 1 453 47 discriminator 1 view .LVU271
 887 0094 C4F88000 		str	r0, [r4, #128]
 454:Drivers/lvgl/src/indev/lv_indev_scroll.c ****                 break;
 888              		.loc 1 454 17 is_stmt 1 view .LVU272
 454:Drivers/lvgl/src/indev/lv_indev_scroll.c ****                 break;
 889              		.loc 1 454 97 is_stmt 0 view .LVU273
 890 0098 AA69     		ldr	r2, [r5, #24]
 454:Drivers/lvgl/src/indev/lv_indev_scroll.c ****                 break;
 891              		.loc 1 454 49 view .LVU274
 892 009a 0023     		movs	r3, #0
 893 009c 013A     		subs	r2, r2, #1
 894 009e 4949     		ldr	r1, .L66
 895 00a0 2846     		mov	r0, r5
 896 00a2 FFF7FEFF 		bl	find_snap_point_y
 897              	.LVL86:
 454:Drivers/lvgl/src/indev/lv_indev_scroll.c ****                 break;
 898              		.loc 1 454 47 discriminator 1 view .LVU275
 899 00a6 C4F88800 		str	r0, [r4, #136]
 455:Drivers/lvgl/src/indev/lv_indev_scroll.c ****             case LV_SCROLL_SNAP_END:
 900              		.loc 1 455 17 is_stmt 1 view .LVU276
 901              	.L49:
 472:Drivers/lvgl/src/indev/lv_indev_scroll.c ****             case LV_SCROLL_SNAP_START:
 902              		.loc 1 472 9 view .LVU277
 472:Drivers/lvgl/src/indev/lv_indev_scroll.c ****             case LV_SCROLL_SNAP_START:
 903              		.loc 1 472 16 is_stmt 0 view .LVU278
 904 00aa 2846     		mov	r0, r5
 905 00ac FFF7FEFF 		bl	lv_obj_get_scroll_snap_x
 906              	.LVL87:
 472:Drivers/lvgl/src/indev/lv_indev_scroll.c ****             case LV_SCROLL_SNAP_START:
 907              		.loc 1 472 9 discriminator 1 view .LVU279
 908 00b0 0228     		cmp	r0, #2
 909 00b2 4BD0     		beq	.L51
 910 00b4 0328     		cmp	r0, #3
 911 00b6 5AD0     		beq	.L52
 912 00b8 0128     		cmp	r0, #1
 913 00ba 74D1     		bne	.L53
 474:Drivers/lvgl/src/indev/lv_indev_scroll.c ****                 indev->pointer.scroll_area.x2 = find_snap_point_x(obj, LV_COORD_MIN, obj->coords.x1
 914              		.loc 1 474 17 is_stmt 1 view .LVU280
 474:Drivers/lvgl/src/indev/lv_indev_scroll.c ****                 indev->pointer.scroll_area.x2 = find_snap_point_x(obj, LV_COORD_MIN, obj->coords.x1
 915              		.loc 1 474 49 is_stmt 0 view .LVU281
 916 00bc 0023     		movs	r3, #0
ARM GAS  /tmp/ccpQad6v.s 			page 35


 917 00be 6FF06042 		mvn	r2, #-536870912
 918 00c2 6969     		ldr	r1, [r5, #20]
 919 00c4 2846     		mov	r0, r5
 920 00c6 FFF7FEFF 		bl	find_snap_point_x
 921              	.LVL88:
 474:Drivers/lvgl/src/indev/lv_indev_scroll.c ****                 indev->pointer.scroll_area.x2 = find_snap_point_x(obj, LV_COORD_MIN, obj->coords.x1
 922              		.loc 1 474 47 discriminator 1 view .LVU282
 923 00ca E067     		str	r0, [r4, #124]
 475:Drivers/lvgl/src/indev/lv_indev_scroll.c ****                 break;
 924              		.loc 1 475 17 is_stmt 1 view .LVU283
 475:Drivers/lvgl/src/indev/lv_indev_scroll.c ****                 break;
 925              		.loc 1 475 49 is_stmt 0 view .LVU284
 926 00cc 0023     		movs	r3, #0
 927 00ce 6A69     		ldr	r2, [r5, #20]
 928 00d0 3C49     		ldr	r1, .L66
 929 00d2 2846     		mov	r0, r5
 930 00d4 FFF7FEFF 		bl	find_snap_point_x
 931              	.LVL89:
 475:Drivers/lvgl/src/indev/lv_indev_scroll.c ****                 break;
 932              		.loc 1 475 47 discriminator 1 view .LVU285
 933 00d8 C4F88400 		str	r0, [r4, #132]
 476:Drivers/lvgl/src/indev/lv_indev_scroll.c ****             case LV_SCROLL_SNAP_END:
 934              		.loc 1 476 17 is_stmt 1 view .LVU286
 935 00dc A2E7     		b	.L45
 936              	.L46:
 457:Drivers/lvgl/src/indev/lv_indev_scroll.c ****                 indev->pointer.scroll_area.y2 = find_snap_point_y(obj, LV_COORD_MIN, obj->coords.y2
 937              		.loc 1 457 17 view .LVU287
 457:Drivers/lvgl/src/indev/lv_indev_scroll.c ****                 indev->pointer.scroll_area.y2 = find_snap_point_y(obj, LV_COORD_MIN, obj->coords.y2
 938              		.loc 1 457 49 is_stmt 0 view .LVU288
 939 00de 0023     		movs	r3, #0
 940 00e0 6FF06042 		mvn	r2, #-536870912
 941 00e4 296A     		ldr	r1, [r5, #32]
 942 00e6 2846     		mov	r0, r5
 943 00e8 FFF7FEFF 		bl	find_snap_point_y
 944              	.LVL90:
 457:Drivers/lvgl/src/indev/lv_indev_scroll.c ****                 indev->pointer.scroll_area.y2 = find_snap_point_y(obj, LV_COORD_MIN, obj->coords.y2
 945              		.loc 1 457 47 discriminator 1 view .LVU289
 946 00ec C4F88000 		str	r0, [r4, #128]
 458:Drivers/lvgl/src/indev/lv_indev_scroll.c ****                 break;
 947              		.loc 1 458 17 is_stmt 1 view .LVU290
 458:Drivers/lvgl/src/indev/lv_indev_scroll.c ****                 break;
 948              		.loc 1 458 49 is_stmt 0 view .LVU291
 949 00f0 0023     		movs	r3, #0
 950 00f2 2A6A     		ldr	r2, [r5, #32]
 951 00f4 3349     		ldr	r1, .L66
 952 00f6 2846     		mov	r0, r5
 953 00f8 FFF7FEFF 		bl	find_snap_point_y
 954              	.LVL91:
 458:Drivers/lvgl/src/indev/lv_indev_scroll.c ****                 break;
 955              		.loc 1 458 47 discriminator 1 view .LVU292
 956 00fc C4F88800 		str	r0, [r4, #136]
 459:Drivers/lvgl/src/indev/lv_indev_scroll.c ****             case LV_SCROLL_SNAP_CENTER: {
 957              		.loc 1 459 17 is_stmt 1 view .LVU293
 958 0100 D3E7     		b	.L49
 959              	.L47:
 960              	.LBB86:
 461:Drivers/lvgl/src/indev/lv_indev_scroll.c ****                     indev->pointer.scroll_area.y1 = find_snap_point_y(obj, y_mid + 1, LV_COORD_MAX,
ARM GAS  /tmp/ccpQad6v.s 			page 36


 961              		.loc 1 461 21 view .LVU294
 461:Drivers/lvgl/src/indev/lv_indev_scroll.c ****                     indev->pointer.scroll_area.y1 = find_snap_point_y(obj, y_mid + 1, LV_COORD_MAX,
 962              		.loc 1 461 48 is_stmt 0 view .LVU295
 963 0102 AE69     		ldr	r6, [r5, #24]
 461:Drivers/lvgl/src/indev/lv_indev_scroll.c ****                     indev->pointer.scroll_area.y1 = find_snap_point_y(obj, y_mid + 1, LV_COORD_MAX,
 964              		.loc 1 461 54 view .LVU296
 965 0104 05F11400 		add	r0, r5, #20
 966 0108 FFF7FEFF 		bl	lv_area_get_height
 967              	.LVL92:
 461:Drivers/lvgl/src/indev/lv_indev_scroll.c ****                     indev->pointer.scroll_area.y1 = find_snap_point_y(obj, y_mid + 1, LV_COORD_MAX,
 968              		.loc 1 461 87 discriminator 1 view .LVU297
 969 010c 0028     		cmp	r0, #0
 970 010e 13DB     		blt	.L64
 971              	.L50:
 461:Drivers/lvgl/src/indev/lv_indev_scroll.c ****                     indev->pointer.scroll_area.y1 = find_snap_point_y(obj, y_mid + 1, LV_COORD_MAX,
 972              		.loc 1 461 29 discriminator 1 view .LVU298
 973 0110 06EB6006 		add	r6, r6, r0, asr #1
 974              	.LVL93:
 462:Drivers/lvgl/src/indev/lv_indev_scroll.c ****                     indev->pointer.scroll_area.y2 = find_snap_point_y(obj, LV_COORD_MIN, y_mid - 1,
 975              		.loc 1 462 21 is_stmt 1 view .LVU299
 462:Drivers/lvgl/src/indev/lv_indev_scroll.c ****                     indev->pointer.scroll_area.y2 = find_snap_point_y(obj, LV_COORD_MIN, y_mid - 1,
 976              		.loc 1 462 53 is_stmt 0 view .LVU300
 977 0114 0023     		movs	r3, #0
 978 0116 6FF06042 		mvn	r2, #-536870912
 979 011a 711C     		adds	r1, r6, #1
 980 011c 2846     		mov	r0, r5
 981 011e FFF7FEFF 		bl	find_snap_point_y
 982              	.LVL94:
 462:Drivers/lvgl/src/indev/lv_indev_scroll.c ****                     indev->pointer.scroll_area.y2 = find_snap_point_y(obj, LV_COORD_MIN, y_mid - 1,
 983              		.loc 1 462 51 discriminator 1 view .LVU301
 984 0122 C4F88000 		str	r0, [r4, #128]
 463:Drivers/lvgl/src/indev/lv_indev_scroll.c ****                     break;
 985              		.loc 1 463 21 is_stmt 1 view .LVU302
 463:Drivers/lvgl/src/indev/lv_indev_scroll.c ****                     break;
 986              		.loc 1 463 53 is_stmt 0 view .LVU303
 987 0126 0023     		movs	r3, #0
 988 0128 721E     		subs	r2, r6, #1
 989 012a 2649     		ldr	r1, .L66
 990 012c 2846     		mov	r0, r5
 991 012e FFF7FEFF 		bl	find_snap_point_y
 992              	.LVL95:
 463:Drivers/lvgl/src/indev/lv_indev_scroll.c ****                     break;
 993              		.loc 1 463 51 discriminator 1 view .LVU304
 994 0132 C4F88800 		str	r0, [r4, #136]
 464:Drivers/lvgl/src/indev/lv_indev_scroll.c ****                 }
 995              		.loc 1 464 21 is_stmt 1 view .LVU305
 996 0136 B8E7     		b	.L49
 997              	.LVL96:
 998              	.L64:
 461:Drivers/lvgl/src/indev/lv_indev_scroll.c ****                     indev->pointer.scroll_area.y1 = find_snap_point_y(obj, y_mid + 1, LV_COORD_MAX,
 999              		.loc 1 461 87 is_stmt 0 discriminator 1 view .LVU306
 1000 0138 0130     		adds	r0, r0, #1
 1001 013a E9E7     		b	.L50
 1002              	.L48:
 461:Drivers/lvgl/src/indev/lv_indev_scroll.c ****                     indev->pointer.scroll_area.y1 = find_snap_point_y(obj, y_mid + 1, LV_COORD_MAX,
 1003              		.loc 1 461 87 discriminator 1 view .LVU307
 1004              	.LBE86:
ARM GAS  /tmp/ccpQad6v.s 			page 37


 467:Drivers/lvgl/src/indev/lv_indev_scroll.c ****                 indev->pointer.scroll_area.y2 = LV_COORD_MAX;
 1005              		.loc 1 467 17 is_stmt 1 view .LVU308
 467:Drivers/lvgl/src/indev/lv_indev_scroll.c ****                 indev->pointer.scroll_area.y2 = LV_COORD_MAX;
 1006              		.loc 1 467 47 is_stmt 0 view .LVU309
 1007 013c 214B     		ldr	r3, .L66
 1008 013e C4F88030 		str	r3, [r4, #128]
 468:Drivers/lvgl/src/indev/lv_indev_scroll.c ****                 break;
 1009              		.loc 1 468 17 is_stmt 1 view .LVU310
 468:Drivers/lvgl/src/indev/lv_indev_scroll.c ****                 break;
 1010              		.loc 1 468 47 is_stmt 0 view .LVU311
 1011 0142 6FF06043 		mvn	r3, #-536870912
 1012 0146 C4F88830 		str	r3, [r4, #136]
 469:Drivers/lvgl/src/indev/lv_indev_scroll.c ****         }
 1013              		.loc 1 469 17 is_stmt 1 view .LVU312
 1014 014a AEE7     		b	.L49
 1015              	.L51:
 478:Drivers/lvgl/src/indev/lv_indev_scroll.c ****                 indev->pointer.scroll_area.x2 = find_snap_point_x(obj, LV_COORD_MIN, obj->coords.x2
 1016              		.loc 1 478 17 view .LVU313
 478:Drivers/lvgl/src/indev/lv_indev_scroll.c ****                 indev->pointer.scroll_area.x2 = find_snap_point_x(obj, LV_COORD_MIN, obj->coords.x2
 1017              		.loc 1 478 49 is_stmt 0 view .LVU314
 1018 014c 0023     		movs	r3, #0
 1019 014e 6FF06042 		mvn	r2, #-536870912
 1020 0152 E969     		ldr	r1, [r5, #28]
 1021 0154 2846     		mov	r0, r5
 1022 0156 FFF7FEFF 		bl	find_snap_point_x
 1023              	.LVL97:
 478:Drivers/lvgl/src/indev/lv_indev_scroll.c ****                 indev->pointer.scroll_area.x2 = find_snap_point_x(obj, LV_COORD_MIN, obj->coords.x2
 1024              		.loc 1 478 47 discriminator 1 view .LVU315
 1025 015a E067     		str	r0, [r4, #124]
 479:Drivers/lvgl/src/indev/lv_indev_scroll.c ****                 break;
 1026              		.loc 1 479 17 is_stmt 1 view .LVU316
 479:Drivers/lvgl/src/indev/lv_indev_scroll.c ****                 break;
 1027              		.loc 1 479 49 is_stmt 0 view .LVU317
 1028 015c 0023     		movs	r3, #0
 1029 015e EA69     		ldr	r2, [r5, #28]
 1030 0160 1849     		ldr	r1, .L66
 1031 0162 2846     		mov	r0, r5
 1032 0164 FFF7FEFF 		bl	find_snap_point_x
 1033              	.LVL98:
 479:Drivers/lvgl/src/indev/lv_indev_scroll.c ****                 break;
 1034              		.loc 1 479 47 discriminator 1 view .LVU318
 1035 0168 C4F88400 		str	r0, [r4, #132]
 480:Drivers/lvgl/src/indev/lv_indev_scroll.c ****             case LV_SCROLL_SNAP_CENTER: {
 1036              		.loc 1 480 17 is_stmt 1 view .LVU319
 1037 016c 5AE7     		b	.L45
 1038              	.L52:
 1039              	.LBB87:
 482:Drivers/lvgl/src/indev/lv_indev_scroll.c ****                     indev->pointer.scroll_area.x1 = find_snap_point_x(obj, x_mid + 1, LV_COORD_MAX,
 1040              		.loc 1 482 21 view .LVU320
 482:Drivers/lvgl/src/indev/lv_indev_scroll.c ****                     indev->pointer.scroll_area.x1 = find_snap_point_x(obj, x_mid + 1, LV_COORD_MAX,
 1041              		.loc 1 482 48 is_stmt 0 view .LVU321
 1042 016e 2846     		mov	r0, r5
 1043 0170 50F8146F 		ldr	r6, [r0, #20]!
 482:Drivers/lvgl/src/indev/lv_indev_scroll.c ****                     indev->pointer.scroll_area.x1 = find_snap_point_x(obj, x_mid + 1, LV_COORD_MAX,
 1044              		.loc 1 482 54 view .LVU322
 1045 0174 FFF7FEFF 		bl	lv_area_get_width
 1046              	.LVL99:
ARM GAS  /tmp/ccpQad6v.s 			page 38


 482:Drivers/lvgl/src/indev/lv_indev_scroll.c ****                     indev->pointer.scroll_area.x1 = find_snap_point_x(obj, x_mid + 1, LV_COORD_MAX,
 1047              		.loc 1 482 86 discriminator 1 view .LVU323
 1048 0178 0028     		cmp	r0, #0
 1049 017a 12DB     		blt	.L65
 1050              	.L54:
 482:Drivers/lvgl/src/indev/lv_indev_scroll.c ****                     indev->pointer.scroll_area.x1 = find_snap_point_x(obj, x_mid + 1, LV_COORD_MAX,
 1051              		.loc 1 482 29 discriminator 1 view .LVU324
 1052 017c 06EB6006 		add	r6, r6, r0, asr #1
 1053              	.LVL100:
 483:Drivers/lvgl/src/indev/lv_indev_scroll.c ****                     indev->pointer.scroll_area.x2 = find_snap_point_x(obj, LV_COORD_MIN, x_mid - 1,
 1054              		.loc 1 483 21 is_stmt 1 view .LVU325
 483:Drivers/lvgl/src/indev/lv_indev_scroll.c ****                     indev->pointer.scroll_area.x2 = find_snap_point_x(obj, LV_COORD_MIN, x_mid - 1,
 1055              		.loc 1 483 53 is_stmt 0 view .LVU326
 1056 0180 0023     		movs	r3, #0
 1057 0182 6FF06042 		mvn	r2, #-536870912
 1058 0186 711C     		adds	r1, r6, #1
 1059 0188 2846     		mov	r0, r5
 1060 018a FFF7FEFF 		bl	find_snap_point_x
 1061              	.LVL101:
 483:Drivers/lvgl/src/indev/lv_indev_scroll.c ****                     indev->pointer.scroll_area.x2 = find_snap_point_x(obj, LV_COORD_MIN, x_mid - 1,
 1062              		.loc 1 483 51 discriminator 1 view .LVU327
 1063 018e E067     		str	r0, [r4, #124]
 484:Drivers/lvgl/src/indev/lv_indev_scroll.c ****                     break;
 1064              		.loc 1 484 21 is_stmt 1 view .LVU328
 484:Drivers/lvgl/src/indev/lv_indev_scroll.c ****                     break;
 1065              		.loc 1 484 53 is_stmt 0 view .LVU329
 1066 0190 0023     		movs	r3, #0
 1067 0192 721E     		subs	r2, r6, #1
 1068 0194 0B49     		ldr	r1, .L66
 1069 0196 2846     		mov	r0, r5
 1070 0198 FFF7FEFF 		bl	find_snap_point_x
 1071              	.LVL102:
 484:Drivers/lvgl/src/indev/lv_indev_scroll.c ****                     break;
 1072              		.loc 1 484 51 discriminator 1 view .LVU330
 1073 019c C4F88400 		str	r0, [r4, #132]
 485:Drivers/lvgl/src/indev/lv_indev_scroll.c ****                 }
 1074              		.loc 1 485 21 is_stmt 1 view .LVU331
 1075 01a0 40E7     		b	.L45
 1076              	.LVL103:
 1077              	.L65:
 482:Drivers/lvgl/src/indev/lv_indev_scroll.c ****                     indev->pointer.scroll_area.x1 = find_snap_point_x(obj, x_mid + 1, LV_COORD_MAX,
 1078              		.loc 1 482 86 is_stmt 0 discriminator 1 view .LVU332
 1079 01a2 0130     		adds	r0, r0, #1
 1080 01a4 EAE7     		b	.L54
 1081              	.L53:
 482:Drivers/lvgl/src/indev/lv_indev_scroll.c ****                     indev->pointer.scroll_area.x1 = find_snap_point_x(obj, x_mid + 1, LV_COORD_MAX,
 1082              		.loc 1 482 86 discriminator 1 view .LVU333
 1083              	.LBE87:
 488:Drivers/lvgl/src/indev/lv_indev_scroll.c ****                 indev->pointer.scroll_area.x2 = LV_COORD_MAX;
 1084              		.loc 1 488 17 is_stmt 1 view .LVU334
 488:Drivers/lvgl/src/indev/lv_indev_scroll.c ****                 indev->pointer.scroll_area.x2 = LV_COORD_MAX;
 1085              		.loc 1 488 47 is_stmt 0 view .LVU335
 1086 01a6 074B     		ldr	r3, .L66
 1087 01a8 E367     		str	r3, [r4, #124]
 489:Drivers/lvgl/src/indev/lv_indev_scroll.c ****                 break;
 1088              		.loc 1 489 17 is_stmt 1 view .LVU336
 489:Drivers/lvgl/src/indev/lv_indev_scroll.c ****                 break;
ARM GAS  /tmp/ccpQad6v.s 			page 39


 1089              		.loc 1 489 47 is_stmt 0 view .LVU337
 1090 01aa 6FF06043 		mvn	r3, #-536870912
 1091 01ae C4F88430 		str	r3, [r4, #132]
 490:Drivers/lvgl/src/indev/lv_indev_scroll.c ****         }
 1092              		.loc 1 490 17 is_stmt 1 view .LVU338
 1093 01b2 37E7     		b	.L45
 1094              	.L62:
 496:Drivers/lvgl/src/indev/lv_indev_scroll.c ****     if(indev->pointer.scroll_area.y1 == LV_COORD_MAX) indev->pointer.scroll_area.y1 = LV_COORD_MIN;
 1095              		.loc 1 496 55 discriminator 1 view .LVU339
 496:Drivers/lvgl/src/indev/lv_indev_scroll.c ****     if(indev->pointer.scroll_area.y1 == LV_COORD_MAX) indev->pointer.scroll_area.y1 = LV_COORD_MIN;
 1096              		.loc 1 496 85 is_stmt 0 discriminator 1 view .LVU340
 1097 01b4 034B     		ldr	r3, .L66
 1098 01b6 E367     		str	r3, [r4, #124]
 1099 01b8 3AE7     		b	.L55
 1100              	.L63:
 497:Drivers/lvgl/src/indev/lv_indev_scroll.c **** 
 1101              		.loc 1 497 55 is_stmt 1 discriminator 1 view .LVU341
 497:Drivers/lvgl/src/indev/lv_indev_scroll.c **** 
 1102              		.loc 1 497 85 is_stmt 0 discriminator 1 view .LVU342
 1103 01ba 024B     		ldr	r3, .L66
 1104 01bc C4F88030 		str	r3, [r4, #128]
 1105 01c0 3DE7     		b	.L56
 1106              	.L67:
 1107 01c2 00BF     		.align	2
 1108              	.L66:
 1109 01c4 010000E0 		.word	-536870911
 1110              		.cfi_endproc
 1111              	.LFE176:
 1113              		.section	.text.has_more_snap_points,"ax",%progbits
 1114              		.align	1
 1115              		.syntax unified
 1116              		.thumb
 1117              		.thumb_func
 1119              	has_more_snap_points:
 1120              	.LVL104:
 1121              	.LFB181:
 640:Drivers/lvgl/src/indev/lv_indev_scroll.c **** 
 641:Drivers/lvgl/src/indev/lv_indev_scroll.c **** static int32_t elastic_diff(lv_obj_t * scroll_obj, int32_t diff, int32_t scroll_start, int32_t scro
 642:Drivers/lvgl/src/indev/lv_indev_scroll.c ****                             lv_dir_t dir)
 643:Drivers/lvgl/src/indev/lv_indev_scroll.c **** {
 644:Drivers/lvgl/src/indev/lv_indev_scroll.c ****     if(diff == 0) return 0;
 645:Drivers/lvgl/src/indev/lv_indev_scroll.c **** 
 646:Drivers/lvgl/src/indev/lv_indev_scroll.c ****     /*Scroll back to the edge if required*/
 647:Drivers/lvgl/src/indev/lv_indev_scroll.c ****     if(!lv_obj_has_flag(scroll_obj, LV_OBJ_FLAG_SCROLL_ELASTIC)) {
 648:Drivers/lvgl/src/indev/lv_indev_scroll.c ****         /*
 649:Drivers/lvgl/src/indev/lv_indev_scroll.c ****          * If the scrolling object does not set the `LV_OBJ_FLAG_SCROLL_ELASTIC` flag,
 650:Drivers/lvgl/src/indev/lv_indev_scroll.c ****          * make sure that `diff` will not cause the scroll to exceed the `start` or `end` boundary 
 651:Drivers/lvgl/src/indev/lv_indev_scroll.c ****          * If the content has exceeded the boundary due to external factors like `LV_SCROLL_SNAP_CE
 652:Drivers/lvgl/src/indev/lv_indev_scroll.c ****          * then respect the current position instead of going straight back to 0.
 653:Drivers/lvgl/src/indev/lv_indev_scroll.c ****          */
 654:Drivers/lvgl/src/indev/lv_indev_scroll.c ****         const int32_t scroll_ended = diff > 0 ? scroll_start : scroll_end;
 655:Drivers/lvgl/src/indev/lv_indev_scroll.c ****         if(scroll_ended < 0) diff = 0;
 656:Drivers/lvgl/src/indev/lv_indev_scroll.c ****         else if(scroll_ended - diff < 0) diff = scroll_ended;
 657:Drivers/lvgl/src/indev/lv_indev_scroll.c ****     }
 658:Drivers/lvgl/src/indev/lv_indev_scroll.c ****     /*Handle elastic scrolling*/
 659:Drivers/lvgl/src/indev/lv_indev_scroll.c ****     else {
 660:Drivers/lvgl/src/indev/lv_indev_scroll.c **** 
ARM GAS  /tmp/ccpQad6v.s 			page 40


 661:Drivers/lvgl/src/indev/lv_indev_scroll.c ****         lv_scroll_snap_t snap;
 662:Drivers/lvgl/src/indev/lv_indev_scroll.c ****         snap = dir == LV_DIR_HOR ? lv_obj_get_scroll_snap_x(scroll_obj) : lv_obj_get_scroll_snap_y(
 663:Drivers/lvgl/src/indev/lv_indev_scroll.c **** 
 664:Drivers/lvgl/src/indev/lv_indev_scroll.c ****         /*Without snapping just scale down the diff when scrolled out*/
 665:Drivers/lvgl/src/indev/lv_indev_scroll.c ****         if(snap == LV_SCROLL_SNAP_NONE) {
 666:Drivers/lvgl/src/indev/lv_indev_scroll.c ****             if(scroll_end < 0 || scroll_start < 0) {
 667:Drivers/lvgl/src/indev/lv_indev_scroll.c ****                 /*Rounding*/
 668:Drivers/lvgl/src/indev/lv_indev_scroll.c ****                 if(diff < 0) diff -= ELASTIC_SLOWNESS_FACTOR / 2;
 669:Drivers/lvgl/src/indev/lv_indev_scroll.c ****                 if(diff > 0) diff += ELASTIC_SLOWNESS_FACTOR / 2;
 670:Drivers/lvgl/src/indev/lv_indev_scroll.c ****                 return diff / ELASTIC_SLOWNESS_FACTOR;
 671:Drivers/lvgl/src/indev/lv_indev_scroll.c ****             }
 672:Drivers/lvgl/src/indev/lv_indev_scroll.c ****             else {
 673:Drivers/lvgl/src/indev/lv_indev_scroll.c ****                 return diff;
 674:Drivers/lvgl/src/indev/lv_indev_scroll.c ****             }
 675:Drivers/lvgl/src/indev/lv_indev_scroll.c ****         }
 676:Drivers/lvgl/src/indev/lv_indev_scroll.c **** 
 677:Drivers/lvgl/src/indev/lv_indev_scroll.c ****         /*With snapping the widget is scrolled out if there are no more snap points
 678:Drivers/lvgl/src/indev/lv_indev_scroll.c ****          *at least in one direction (start or end)*/
 679:Drivers/lvgl/src/indev/lv_indev_scroll.c ****         bool has_start_snap;
 680:Drivers/lvgl/src/indev/lv_indev_scroll.c ****         bool has_end_snap;
 681:Drivers/lvgl/src/indev/lv_indev_scroll.c ****         has_more_snap_points(scroll_obj, dir, &has_start_snap, &has_end_snap);
 682:Drivers/lvgl/src/indev/lv_indev_scroll.c **** 
 683:Drivers/lvgl/src/indev/lv_indev_scroll.c ****         if(!has_start_snap || !has_end_snap) {
 684:Drivers/lvgl/src/indev/lv_indev_scroll.c ****             /*Rounding*/
 685:Drivers/lvgl/src/indev/lv_indev_scroll.c ****             if(diff < 0) diff -= ELASTIC_SLOWNESS_FACTOR / 2;
 686:Drivers/lvgl/src/indev/lv_indev_scroll.c ****             if(diff > 0) diff += ELASTIC_SLOWNESS_FACTOR / 2;
 687:Drivers/lvgl/src/indev/lv_indev_scroll.c ****             return diff / ELASTIC_SLOWNESS_FACTOR;
 688:Drivers/lvgl/src/indev/lv_indev_scroll.c ****         }
 689:Drivers/lvgl/src/indev/lv_indev_scroll.c ****         else {
 690:Drivers/lvgl/src/indev/lv_indev_scroll.c ****             return diff;
 691:Drivers/lvgl/src/indev/lv_indev_scroll.c ****         }
 692:Drivers/lvgl/src/indev/lv_indev_scroll.c ****     }
 693:Drivers/lvgl/src/indev/lv_indev_scroll.c **** 
 694:Drivers/lvgl/src/indev/lv_indev_scroll.c ****     return diff;
 695:Drivers/lvgl/src/indev/lv_indev_scroll.c **** }
 696:Drivers/lvgl/src/indev/lv_indev_scroll.c **** 
 697:Drivers/lvgl/src/indev/lv_indev_scroll.c **** /**
 698:Drivers/lvgl/src/indev/lv_indev_scroll.c ****  * Tell is there are more snap point in a given direction considering snap position.
 699:Drivers/lvgl/src/indev/lv_indev_scroll.c ****  * There is a snap point if there is a snapanble object in the given direction
 700:Drivers/lvgl/src/indev/lv_indev_scroll.c ****  * @param scroll_obj        the object on which snap points should be found
 701:Drivers/lvgl/src/indev/lv_indev_scroll.c ****  * @param dir               LV_DIR_HOR or LV_DIR_VER
 702:Drivers/lvgl/src/indev/lv_indev_scroll.c ****  * @param has_start_snap    true: there is snap point in the start direction (top or left depending
 703:Drivers/lvgl/src/indev/lv_indev_scroll.c ****  * @param has_end_snap      true: there is snap point in the end direction (bottom or right dependi
 704:Drivers/lvgl/src/indev/lv_indev_scroll.c ****  * @note snap points will be searched relative to the
 705:Drivers/lvgl/src/indev/lv_indev_scroll.c ****  *       center point in case of LV_SCROLL_SNAP_CENTER
 706:Drivers/lvgl/src/indev/lv_indev_scroll.c ****  *       start point (top or left) in case of LV_SCROLL_SNAP_START
 707:Drivers/lvgl/src/indev/lv_indev_scroll.c ****  *       end point (bottom or right) in case of LV_SCROLL_SNAP_END
 708:Drivers/lvgl/src/indev/lv_indev_scroll.c ****  */
 709:Drivers/lvgl/src/indev/lv_indev_scroll.c **** static void has_more_snap_points(lv_obj_t * scroll_obj, lv_dir_t dir, bool * has_start_snap, bool *
 710:Drivers/lvgl/src/indev/lv_indev_scroll.c **** {
 1122              		.loc 1 710 1 is_stmt 1 view -0
 1123              		.cfi_startproc
 1124              		@ args = 0, pretend = 0, frame = 8
 1125              		@ frame_needed = 0, uses_anonymous_args = 0
 1126              		.loc 1 710 1 is_stmt 0 view .LVU344
 1127 0000 2DE9F043 		push	{r4, r5, r6, r7, r8, r9, lr}
 1128              	.LCFI14:
ARM GAS  /tmp/ccpQad6v.s 			page 41


 1129              		.cfi_def_cfa_offset 28
 1130              		.cfi_offset 4, -28
 1131              		.cfi_offset 5, -24
 1132              		.cfi_offset 6, -20
 1133              		.cfi_offset 7, -16
 1134              		.cfi_offset 8, -12
 1135              		.cfi_offset 9, -8
 1136              		.cfi_offset 14, -4
 1137 0004 83B0     		sub	sp, sp, #12
 1138              	.LCFI15:
 1139              		.cfi_def_cfa_offset 40
 1140 0006 0446     		mov	r4, r0
 1141 0008 0D46     		mov	r5, r1
 1142 000a 1646     		mov	r6, r2
 1143 000c 1F46     		mov	r7, r3
 711:Drivers/lvgl/src/indev/lv_indev_scroll.c ****     *has_start_snap = true;
 1144              		.loc 1 711 5 is_stmt 1 view .LVU345
 1145              		.loc 1 711 21 is_stmt 0 view .LVU346
 1146 000e 0123     		movs	r3, #1
 1147              	.LVL105:
 1148              		.loc 1 711 21 view .LVU347
 1149 0010 1370     		strb	r3, [r2]
 712:Drivers/lvgl/src/indev/lv_indev_scroll.c ****     *has_end_snap = true;
 1150              		.loc 1 712 5 is_stmt 1 view .LVU348
 1151              		.loc 1 712 19 is_stmt 0 view .LVU349
 1152 0012 3B70     		strb	r3, [r7]
 713:Drivers/lvgl/src/indev/lv_indev_scroll.c ****     lv_scroll_snap_t snap;
 1153              		.loc 1 713 5 is_stmt 1 view .LVU350
 714:Drivers/lvgl/src/indev/lv_indev_scroll.c ****     snap = dir == LV_DIR_HOR ? lv_obj_get_scroll_snap_x(scroll_obj) : lv_obj_get_scroll_snap_y(scro
 1154              		.loc 1 714 5 view .LVU351
 1155              		.loc 1 714 69 is_stmt 0 view .LVU352
 1156 0014 0329     		cmp	r1, #3
 1157 0016 0DD0     		beq	.L86
 1158              		.loc 1 714 71 discriminator 2 view .LVU353
 1159 0018 FFF7FEFF 		bl	lv_obj_get_scroll_snap_y
 1160              	.LVL106:
 1161              	.L70:
 715:Drivers/lvgl/src/indev/lv_indev_scroll.c **** 
 716:Drivers/lvgl/src/indev/lv_indev_scroll.c ****     if(dir == LV_DIR_HOR) {
 1162              		.loc 1 716 5 is_stmt 1 view .LVU354
 1163              		.loc 1 716 7 is_stmt 0 view .LVU355
 1164 001c 032D     		cmp	r5, #3
 1165 001e 0CD0     		beq	.L87
 1166              	.LBB88:
 717:Drivers/lvgl/src/indev/lv_indev_scroll.c ****         int32_t x = 0;
 718:Drivers/lvgl/src/indev/lv_indev_scroll.c ****         switch(snap) {
 719:Drivers/lvgl/src/indev/lv_indev_scroll.c ****             case LV_SCROLL_SNAP_CENTER: {
 720:Drivers/lvgl/src/indev/lv_indev_scroll.c ****                     int32_t pad_left = lv_obj_get_style_pad_left(scroll_obj, 0);
 721:Drivers/lvgl/src/indev/lv_indev_scroll.c ****                     int32_t pad_right = lv_obj_get_style_pad_right(scroll_obj, 0);
 722:Drivers/lvgl/src/indev/lv_indev_scroll.c ****                     x = scroll_obj->coords.x1;
 723:Drivers/lvgl/src/indev/lv_indev_scroll.c ****                     x += (lv_area_get_width(&scroll_obj->coords) - pad_left - pad_right) / 2;
 724:Drivers/lvgl/src/indev/lv_indev_scroll.c ****                     x += pad_left;
 725:Drivers/lvgl/src/indev/lv_indev_scroll.c ****                 }
 726:Drivers/lvgl/src/indev/lv_indev_scroll.c ****                 break;
 727:Drivers/lvgl/src/indev/lv_indev_scroll.c ****             case LV_SCROLL_SNAP_START:
 728:Drivers/lvgl/src/indev/lv_indev_scroll.c ****                 x = scroll_obj->coords.x1 + lv_obj_get_style_pad_left(scroll_obj, 0);
 729:Drivers/lvgl/src/indev/lv_indev_scroll.c ****                 break;
ARM GAS  /tmp/ccpQad6v.s 			page 42


 730:Drivers/lvgl/src/indev/lv_indev_scroll.c ****             case LV_SCROLL_SNAP_END:
 731:Drivers/lvgl/src/indev/lv_indev_scroll.c ****                 x = scroll_obj->coords.x2 - lv_obj_get_style_pad_right(scroll_obj, 0);
 732:Drivers/lvgl/src/indev/lv_indev_scroll.c ****                 break;
 733:Drivers/lvgl/src/indev/lv_indev_scroll.c ****             default:
 734:Drivers/lvgl/src/indev/lv_indev_scroll.c ****                 break;
 735:Drivers/lvgl/src/indev/lv_indev_scroll.c ****         }
 736:Drivers/lvgl/src/indev/lv_indev_scroll.c ****         int32_t d;
 737:Drivers/lvgl/src/indev/lv_indev_scroll.c ****         d = find_snap_point_x(scroll_obj, x + 1, LV_COORD_MAX, 0);
 738:Drivers/lvgl/src/indev/lv_indev_scroll.c ****         if(d == LV_COORD_MAX) *has_end_snap = false;
 739:Drivers/lvgl/src/indev/lv_indev_scroll.c ****         d = find_snap_point_x(scroll_obj, LV_COORD_MIN, x - 1, 0);
 740:Drivers/lvgl/src/indev/lv_indev_scroll.c ****         if(d == LV_COORD_MAX) *has_start_snap = false;
 741:Drivers/lvgl/src/indev/lv_indev_scroll.c ****     }
 742:Drivers/lvgl/src/indev/lv_indev_scroll.c ****     else {
 743:Drivers/lvgl/src/indev/lv_indev_scroll.c ****         int32_t y = 0;
 1167              		.loc 1 743 9 is_stmt 1 view .LVU356
 1168              	.LVL107:
 744:Drivers/lvgl/src/indev/lv_indev_scroll.c ****         switch(snap) {
 1169              		.loc 1 744 9 view .LVU357
 1170 0020 0228     		cmp	r0, #2
 1171 0022 00F09A80 		beq	.L79
 1172 0026 0328     		cmp	r0, #3
 1173 0028 59D0     		beq	.L80
 1174 002a 0128     		cmp	r0, #1
 1175 002c 00F08C80 		beq	.L81
 1176 0030 0025     		movs	r5, #0
 1177              	.LVL108:
 1178              		.loc 1 744 9 is_stmt 0 view .LVU358
 1179 0032 6FE0     		b	.L82
 1180              	.LVL109:
 1181              	.L86:
 1182              		.loc 1 744 9 view .LVU359
 1183              	.LBE88:
 714:Drivers/lvgl/src/indev/lv_indev_scroll.c **** 
 1184              		.loc 1 714 32 discriminator 1 view .LVU360
 1185 0034 FFF7FEFF 		bl	lv_obj_get_scroll_snap_x
 1186              	.LVL110:
 714:Drivers/lvgl/src/indev/lv_indev_scroll.c **** 
 1187              		.loc 1 714 32 discriminator 1 view .LVU361
 1188 0038 F0E7     		b	.L70
 1189              	.LVL111:
 1190              	.L87:
 1191              	.LBB99:
 717:Drivers/lvgl/src/indev/lv_indev_scroll.c ****         int32_t x = 0;
 1192              		.loc 1 717 9 is_stmt 1 view .LVU362
 718:Drivers/lvgl/src/indev/lv_indev_scroll.c ****             case LV_SCROLL_SNAP_CENTER: {
 1193              		.loc 1 718 9 view .LVU363
 1194 003a 0228     		cmp	r0, #2
 1195 003c 43D0     		beq	.L72
 1196 003e 0328     		cmp	r0, #3
 1197 0040 1AD0     		beq	.L73
 1198 0042 0128     		cmp	r0, #1
 1199 0044 36D0     		beq	.L74
 1200 0046 0025     		movs	r5, #0
 1201              	.LVL112:
 1202              	.L75:
 736:Drivers/lvgl/src/indev/lv_indev_scroll.c ****         d = find_snap_point_x(scroll_obj, x + 1, LV_COORD_MAX, 0);
 1203              		.loc 1 736 9 view .LVU364
ARM GAS  /tmp/ccpQad6v.s 			page 43


 737:Drivers/lvgl/src/indev/lv_indev_scroll.c ****         if(d == LV_COORD_MAX) *has_end_snap = false;
 1204              		.loc 1 737 9 view .LVU365
 737:Drivers/lvgl/src/indev/lv_indev_scroll.c ****         if(d == LV_COORD_MAX) *has_end_snap = false;
 1205              		.loc 1 737 13 is_stmt 0 view .LVU366
 1206 0048 0023     		movs	r3, #0
 1207 004a 6FF06042 		mvn	r2, #-536870912
 1208 004e 691C     		adds	r1, r5, #1
 1209 0050 2046     		mov	r0, r4
 1210 0052 FFF7FEFF 		bl	find_snap_point_x
 1211              	.LVL113:
 738:Drivers/lvgl/src/indev/lv_indev_scroll.c ****         d = find_snap_point_x(scroll_obj, LV_COORD_MIN, x - 1, 0);
 1212              		.loc 1 738 9 is_stmt 1 view .LVU367
 738:Drivers/lvgl/src/indev/lv_indev_scroll.c ****         d = find_snap_point_x(scroll_obj, LV_COORD_MIN, x - 1, 0);
 1213              		.loc 1 738 11 is_stmt 0 view .LVU368
 1214 0056 6FF06043 		mvn	r3, #-536870912
 1215 005a 9842     		cmp	r0, r3
 1216 005c 3CD0     		beq	.L88
 1217              	.L77:
 739:Drivers/lvgl/src/indev/lv_indev_scroll.c ****         if(d == LV_COORD_MAX) *has_start_snap = false;
 1218              		.loc 1 739 9 is_stmt 1 view .LVU369
 739:Drivers/lvgl/src/indev/lv_indev_scroll.c ****         if(d == LV_COORD_MAX) *has_start_snap = false;
 1219              		.loc 1 739 13 is_stmt 0 view .LVU370
 1220 005e 0023     		movs	r3, #0
 1221 0060 6A1E     		subs	r2, r5, #1
 1222 0062 4549     		ldr	r1, .L93
 1223 0064 2046     		mov	r0, r4
 1224              	.LVL114:
 739:Drivers/lvgl/src/indev/lv_indev_scroll.c ****         if(d == LV_COORD_MAX) *has_start_snap = false;
 1225              		.loc 1 739 13 view .LVU371
 1226 0066 FFF7FEFF 		bl	find_snap_point_x
 1227              	.LVL115:
 740:Drivers/lvgl/src/indev/lv_indev_scroll.c ****     }
 1228              		.loc 1 740 9 is_stmt 1 view .LVU372
 740:Drivers/lvgl/src/indev/lv_indev_scroll.c ****     }
 1229              		.loc 1 740 11 is_stmt 0 view .LVU373
 1230 006a 6FF06043 		mvn	r3, #-536870912
 1231 006e 9842     		cmp	r0, r3
 1232 0070 65D1     		bne	.L68
 740:Drivers/lvgl/src/indev/lv_indev_scroll.c ****     }
 1233              		.loc 1 740 31 is_stmt 1 discriminator 1 view .LVU374
 740:Drivers/lvgl/src/indev/lv_indev_scroll.c ****     }
 1234              		.loc 1 740 47 is_stmt 0 discriminator 1 view .LVU375
 1235 0072 0023     		movs	r3, #0
 1236 0074 3370     		strb	r3, [r6]
 1237 0076 62E0     		b	.L68
 1238              	.LVL116:
 1239              	.L73:
 1240              	.LBB100:
 720:Drivers/lvgl/src/indev/lv_indev_scroll.c ****                     int32_t pad_right = lv_obj_get_style_pad_right(scroll_obj, 0);
 1241              		.loc 1 720 21 is_stmt 1 view .LVU376
 1242              	.LBB101:
 1243              	.LBI101:
 166:Drivers/lvgl/src/indev/../core/lv_obj_style_gen.h **** {
 1244              		.loc 2 166 23 view .LVU377
 1245              	.LBB102:
 168:Drivers/lvgl/src/indev/../core/lv_obj_style_gen.h ****     return (int32_t)v.num;
 1246              		.loc 2 168 5 view .LVU378
ARM GAS  /tmp/ccpQad6v.s 			page 44


 168:Drivers/lvgl/src/indev/../core/lv_obj_style_gen.h ****     return (int32_t)v.num;
 1247              		.loc 2 168 26 is_stmt 0 view .LVU379
 1248 0078 1222     		movs	r2, #18
 1249 007a 0021     		movs	r1, #0
 1250 007c 2046     		mov	r0, r4
 1251              	.LVL117:
 168:Drivers/lvgl/src/indev/../core/lv_obj_style_gen.h ****     return (int32_t)v.num;
 1252              		.loc 2 168 26 view .LVU380
 1253 007e FFF7FEFF 		bl	lv_obj_get_style_prop
 1254              	.LVL118:
 1255 0082 8046     		mov	r8, r0
 1256 0084 0190     		str	r0, [sp, #4]
 169:Drivers/lvgl/src/indev/../core/lv_obj_style_gen.h **** }
 1257              		.loc 2 169 5 is_stmt 1 view .LVU381
 1258              	.LVL119:
 169:Drivers/lvgl/src/indev/../core/lv_obj_style_gen.h **** }
 1259              		.loc 2 169 5 is_stmt 0 view .LVU382
 1260              	.LBE102:
 1261              	.LBE101:
 721:Drivers/lvgl/src/indev/lv_indev_scroll.c ****                     x = scroll_obj->coords.x1;
 1262              		.loc 1 721 21 is_stmt 1 view .LVU383
 1263              	.LBB103:
 1264              	.LBI103:
 172:Drivers/lvgl/src/indev/../core/lv_obj_style_gen.h **** {
 1265              		.loc 2 172 23 view .LVU384
 1266              	.LBB104:
 174:Drivers/lvgl/src/indev/../core/lv_obj_style_gen.h ****     return (int32_t)v.num;
 1267              		.loc 2 174 5 view .LVU385
 174:Drivers/lvgl/src/indev/../core/lv_obj_style_gen.h ****     return (int32_t)v.num;
 1268              		.loc 2 174 26 is_stmt 0 view .LVU386
 1269 0086 1322     		movs	r2, #19
 1270 0088 0021     		movs	r1, #0
 1271 008a 2046     		mov	r0, r4
 1272              	.LVL120:
 174:Drivers/lvgl/src/indev/../core/lv_obj_style_gen.h ****     return (int32_t)v.num;
 1273              		.loc 2 174 26 view .LVU387
 1274 008c FFF7FEFF 		bl	lv_obj_get_style_prop
 1275              	.LVL121:
 1276 0090 8146     		mov	r9, r0
 1277 0092 0190     		str	r0, [sp, #4]
 1278              		.loc 2 175 5 is_stmt 1 view .LVU388
 1279              	.LVL122:
 1280              		.loc 2 175 5 is_stmt 0 view .LVU389
 1281              	.LBE104:
 1282              	.LBE103:
 722:Drivers/lvgl/src/indev/lv_indev_scroll.c ****                     x += (lv_area_get_width(&scroll_obj->coords) - pad_left - pad_right) / 2;
 1283              		.loc 1 722 21 is_stmt 1 view .LVU390
 722:Drivers/lvgl/src/indev/lv_indev_scroll.c ****                     x += (lv_area_get_width(&scroll_obj->coords) - pad_left - pad_right) / 2;
 1284              		.loc 1 722 23 is_stmt 0 view .LVU391
 1285 0094 2046     		mov	r0, r4
 1286              	.LVL123:
 722:Drivers/lvgl/src/indev/lv_indev_scroll.c ****                     x += (lv_area_get_width(&scroll_obj->coords) - pad_left - pad_right) / 2;
 1287              		.loc 1 722 23 view .LVU392
 1288 0096 50F8145F 		ldr	r5, [r0, #20]!
 1289              	.LVL124:
 723:Drivers/lvgl/src/indev/lv_indev_scroll.c ****                     x += pad_left;
 1290              		.loc 1 723 21 is_stmt 1 view .LVU393
ARM GAS  /tmp/ccpQad6v.s 			page 45


 723:Drivers/lvgl/src/indev/lv_indev_scroll.c ****                     x += pad_left;
 1291              		.loc 1 723 27 is_stmt 0 view .LVU394
 1292 009a FFF7FEFF 		bl	lv_area_get_width
 1293              	.LVL125:
 723:Drivers/lvgl/src/indev/lv_indev_scroll.c ****                     x += pad_left;
 1294              		.loc 1 723 66 discriminator 1 view .LVU395
 1295 009e A0EB0803 		sub	r3, r0, r8
 723:Drivers/lvgl/src/indev/lv_indev_scroll.c ****                     x += pad_left;
 1296              		.loc 1 723 90 discriminator 1 view .LVU396
 1297 00a2 B3EB0903 		subs	r3, r3, r9
 1298 00a6 03D4     		bmi	.L89
 1299              	.L76:
 723:Drivers/lvgl/src/indev/lv_indev_scroll.c ****                     x += pad_left;
 1300              		.loc 1 723 23 discriminator 1 view .LVU397
 1301 00a8 05EB6305 		add	r5, r5, r3, asr #1
 1302              	.LVL126:
 724:Drivers/lvgl/src/indev/lv_indev_scroll.c ****                 }
 1303              		.loc 1 724 21 is_stmt 1 view .LVU398
 724:Drivers/lvgl/src/indev/lv_indev_scroll.c ****                 }
 1304              		.loc 1 724 23 is_stmt 0 view .LVU399
 1305 00ac 4544     		add	r5, r5, r8
 1306              	.LVL127:
 724:Drivers/lvgl/src/indev/lv_indev_scroll.c ****                 }
 1307              		.loc 1 724 23 view .LVU400
 1308              	.LBE100:
 726:Drivers/lvgl/src/indev/lv_indev_scroll.c ****             case LV_SCROLL_SNAP_START:
 1309              		.loc 1 726 17 is_stmt 1 view .LVU401
 1310 00ae CBE7     		b	.L75
 1311              	.L89:
 1312              	.LBB105:
 723:Drivers/lvgl/src/indev/lv_indev_scroll.c ****                     x += pad_left;
 1313              		.loc 1 723 90 is_stmt 0 discriminator 1 view .LVU402
 1314 00b0 0133     		adds	r3, r3, #1
 1315 00b2 F9E7     		b	.L76
 1316              	.LVL128:
 1317              	.L74:
 723:Drivers/lvgl/src/indev/lv_indev_scroll.c ****                     x += pad_left;
 1318              		.loc 1 723 90 discriminator 1 view .LVU403
 1319              	.LBE105:
 728:Drivers/lvgl/src/indev/lv_indev_scroll.c ****                 break;
 1320              		.loc 1 728 17 is_stmt 1 view .LVU404
 728:Drivers/lvgl/src/indev/lv_indev_scroll.c ****                 break;
 1321              		.loc 1 728 39 is_stmt 0 view .LVU405
 1322 00b4 6569     		ldr	r5, [r4, #20]
 1323              	.LVL129:
 1324              	.LBB106:
 1325              	.LBI106:
 166:Drivers/lvgl/src/indev/../core/lv_obj_style_gen.h **** {
 1326              		.loc 2 166 23 is_stmt 1 view .LVU406
 1327              	.LBB107:
 168:Drivers/lvgl/src/indev/../core/lv_obj_style_gen.h ****     return (int32_t)v.num;
 1328              		.loc 2 168 5 view .LVU407
 168:Drivers/lvgl/src/indev/../core/lv_obj_style_gen.h ****     return (int32_t)v.num;
 1329              		.loc 2 168 26 is_stmt 0 view .LVU408
 1330 00b6 1222     		movs	r2, #18
 1331 00b8 0021     		movs	r1, #0
 1332 00ba 2046     		mov	r0, r4
ARM GAS  /tmp/ccpQad6v.s 			page 46


 1333              	.LVL130:
 168:Drivers/lvgl/src/indev/../core/lv_obj_style_gen.h ****     return (int32_t)v.num;
 1334              		.loc 2 168 26 view .LVU409
 1335 00bc FFF7FEFF 		bl	lv_obj_get_style_prop
 1336              	.LVL131:
 1337 00c0 0190     		str	r0, [sp, #4]
 169:Drivers/lvgl/src/indev/../core/lv_obj_style_gen.h **** }
 1338              		.loc 2 169 5 is_stmt 1 view .LVU410
 1339              	.LVL132:
 169:Drivers/lvgl/src/indev/../core/lv_obj_style_gen.h **** }
 1340              		.loc 2 169 5 is_stmt 0 view .LVU411
 1341              	.LBE107:
 1342              	.LBE106:
 728:Drivers/lvgl/src/indev/lv_indev_scroll.c ****                 break;
 1343              		.loc 1 728 19 discriminator 1 view .LVU412
 1344 00c2 0544     		add	r5, r5, r0
 1345              	.LVL133:
 729:Drivers/lvgl/src/indev/lv_indev_scroll.c ****             case LV_SCROLL_SNAP_END:
 1346              		.loc 1 729 17 is_stmt 1 view .LVU413
 1347 00c4 C0E7     		b	.L75
 1348              	.LVL134:
 1349              	.L72:
 731:Drivers/lvgl/src/indev/lv_indev_scroll.c ****                 break;
 1350              		.loc 1 731 17 view .LVU414
 731:Drivers/lvgl/src/indev/lv_indev_scroll.c ****                 break;
 1351              		.loc 1 731 39 is_stmt 0 view .LVU415
 1352 00c6 E569     		ldr	r5, [r4, #28]
 1353              	.LVL135:
 1354              	.LBB108:
 1355              	.LBI108:
 172:Drivers/lvgl/src/indev/../core/lv_obj_style_gen.h **** {
 1356              		.loc 2 172 23 is_stmt 1 view .LVU416
 1357              	.LBB109:
 174:Drivers/lvgl/src/indev/../core/lv_obj_style_gen.h ****     return (int32_t)v.num;
 1358              		.loc 2 174 5 view .LVU417
 174:Drivers/lvgl/src/indev/../core/lv_obj_style_gen.h ****     return (int32_t)v.num;
 1359              		.loc 2 174 26 is_stmt 0 view .LVU418
 1360 00c8 1322     		movs	r2, #19
 1361 00ca 0021     		movs	r1, #0
 1362 00cc 2046     		mov	r0, r4
 1363              	.LVL136:
 174:Drivers/lvgl/src/indev/../core/lv_obj_style_gen.h ****     return (int32_t)v.num;
 1364              		.loc 2 174 26 view .LVU419
 1365 00ce FFF7FEFF 		bl	lv_obj_get_style_prop
 1366              	.LVL137:
 1367 00d2 0190     		str	r0, [sp, #4]
 1368              		.loc 2 175 5 is_stmt 1 view .LVU420
 1369              	.LVL138:
 1370              		.loc 2 175 5 is_stmt 0 view .LVU421
 1371              	.LBE109:
 1372              	.LBE108:
 731:Drivers/lvgl/src/indev/lv_indev_scroll.c ****                 break;
 1373              		.loc 1 731 19 discriminator 1 view .LVU422
 1374 00d4 2D1A     		subs	r5, r5, r0
 1375              	.LVL139:
 732:Drivers/lvgl/src/indev/lv_indev_scroll.c ****             default:
 1376              		.loc 1 732 17 is_stmt 1 view .LVU423
ARM GAS  /tmp/ccpQad6v.s 			page 47


 1377 00d6 B7E7     		b	.L75
 1378              	.LVL140:
 1379              	.L88:
 738:Drivers/lvgl/src/indev/lv_indev_scroll.c ****         d = find_snap_point_x(scroll_obj, LV_COORD_MIN, x - 1, 0);
 1380              		.loc 1 738 31 discriminator 1 view .LVU424
 738:Drivers/lvgl/src/indev/lv_indev_scroll.c ****         d = find_snap_point_x(scroll_obj, LV_COORD_MIN, x - 1, 0);
 1381              		.loc 1 738 45 is_stmt 0 discriminator 1 view .LVU425
 1382 00d8 0023     		movs	r3, #0
 1383 00da 3B70     		strb	r3, [r7]
 1384 00dc BFE7     		b	.L77
 1385              	.LVL141:
 1386              	.L80:
 738:Drivers/lvgl/src/indev/lv_indev_scroll.c ****         d = find_snap_point_x(scroll_obj, LV_COORD_MIN, x - 1, 0);
 1387              		.loc 1 738 45 discriminator 1 view .LVU426
 1388              	.LBE99:
 1389              	.LBB110:
 1390              	.LBB89:
 745:Drivers/lvgl/src/indev/lv_indev_scroll.c ****             case LV_SCROLL_SNAP_CENTER: {
 746:Drivers/lvgl/src/indev/lv_indev_scroll.c ****                     int32_t pad_top = lv_obj_get_style_pad_top(scroll_obj, 0);
 1391              		.loc 1 746 21 is_stmt 1 view .LVU427
 1392              	.LBB90:
 1393              	.LBI90:
 154:Drivers/lvgl/src/indev/../core/lv_obj_style_gen.h **** {
 1394              		.loc 2 154 23 view .LVU428
 1395              	.LBB91:
 156:Drivers/lvgl/src/indev/../core/lv_obj_style_gen.h ****     return (int32_t)v.num;
 1396              		.loc 2 156 5 view .LVU429
 156:Drivers/lvgl/src/indev/../core/lv_obj_style_gen.h ****     return (int32_t)v.num;
 1397              		.loc 2 156 26 is_stmt 0 view .LVU430
 1398 00de 1022     		movs	r2, #16
 1399 00e0 0021     		movs	r1, #0
 1400 00e2 2046     		mov	r0, r4
 1401              	.LVL142:
 156:Drivers/lvgl/src/indev/../core/lv_obj_style_gen.h ****     return (int32_t)v.num;
 1402              		.loc 2 156 26 view .LVU431
 1403 00e4 FFF7FEFF 		bl	lv_obj_get_style_prop
 1404              	.LVL143:
 1405 00e8 8046     		mov	r8, r0
 1406 00ea 0190     		str	r0, [sp, #4]
 157:Drivers/lvgl/src/indev/../core/lv_obj_style_gen.h **** }
 1407              		.loc 2 157 5 is_stmt 1 view .LVU432
 1408              	.LVL144:
 157:Drivers/lvgl/src/indev/../core/lv_obj_style_gen.h **** }
 1409              		.loc 2 157 5 is_stmt 0 view .LVU433
 1410              	.LBE91:
 1411              	.LBE90:
 747:Drivers/lvgl/src/indev/lv_indev_scroll.c ****                     int32_t pad_bottom = lv_obj_get_style_pad_bottom(scroll_obj, 0);
 1412              		.loc 1 747 21 is_stmt 1 view .LVU434
 1413              	.LBB92:
 1414              	.LBI92:
 160:Drivers/lvgl/src/indev/../core/lv_obj_style_gen.h **** {
 1415              		.loc 2 160 23 view .LVU435
 1416              	.LBB93:
 162:Drivers/lvgl/src/indev/../core/lv_obj_style_gen.h ****     return (int32_t)v.num;
 1417              		.loc 2 162 5 view .LVU436
 162:Drivers/lvgl/src/indev/../core/lv_obj_style_gen.h ****     return (int32_t)v.num;
 1418              		.loc 2 162 26 is_stmt 0 view .LVU437
ARM GAS  /tmp/ccpQad6v.s 			page 48


 1419 00ec 1122     		movs	r2, #17
 1420 00ee 0021     		movs	r1, #0
 1421 00f0 2046     		mov	r0, r4
 1422              	.LVL145:
 162:Drivers/lvgl/src/indev/../core/lv_obj_style_gen.h ****     return (int32_t)v.num;
 1423              		.loc 2 162 26 view .LVU438
 1424 00f2 FFF7FEFF 		bl	lv_obj_get_style_prop
 1425              	.LVL146:
 1426 00f6 8146     		mov	r9, r0
 1427 00f8 0190     		str	r0, [sp, #4]
 163:Drivers/lvgl/src/indev/../core/lv_obj_style_gen.h **** }
 1428              		.loc 2 163 5 is_stmt 1 view .LVU439
 1429              	.LVL147:
 163:Drivers/lvgl/src/indev/../core/lv_obj_style_gen.h **** }
 1430              		.loc 2 163 5 is_stmt 0 view .LVU440
 1431              	.LBE93:
 1432              	.LBE92:
 748:Drivers/lvgl/src/indev/lv_indev_scroll.c ****                     y = scroll_obj->coords.y1;
 1433              		.loc 1 748 21 is_stmt 1 view .LVU441
 1434              		.loc 1 748 23 is_stmt 0 view .LVU442
 1435 00fa A569     		ldr	r5, [r4, #24]
 1436              	.LVL148:
 749:Drivers/lvgl/src/indev/lv_indev_scroll.c ****                     y += (lv_area_get_height(&scroll_obj->coords) - pad_top - pad_bottom) / 2;
 1437              		.loc 1 749 21 is_stmt 1 view .LVU443
 1438              		.loc 1 749 27 is_stmt 0 view .LVU444
 1439 00fc 04F11400 		add	r0, r4, #20
 1440              	.LVL149:
 1441              		.loc 1 749 27 view .LVU445
 1442 0100 FFF7FEFF 		bl	lv_area_get_height
 1443              	.LVL150:
 1444              		.loc 1 749 67 discriminator 1 view .LVU446
 1445 0104 A0EB0803 		sub	r3, r0, r8
 1446              		.loc 1 749 91 discriminator 1 view .LVU447
 1447 0108 B3EB0903 		subs	r3, r3, r9
 1448 010c 1AD4     		bmi	.L90
 1449              	.L83:
 1450              		.loc 1 749 23 discriminator 1 view .LVU448
 1451 010e 05EB6305 		add	r5, r5, r3, asr #1
 1452              	.LVL151:
 750:Drivers/lvgl/src/indev/lv_indev_scroll.c ****                     y += pad_top;
 1453              		.loc 1 750 21 is_stmt 1 view .LVU449
 1454              		.loc 1 750 23 is_stmt 0 view .LVU450
 1455 0112 4544     		add	r5, r5, r8
 1456              	.LVL152:
 1457              		.loc 1 750 23 view .LVU451
 1458              	.LBE89:
 751:Drivers/lvgl/src/indev/lv_indev_scroll.c ****                 }
 752:Drivers/lvgl/src/indev/lv_indev_scroll.c ****                 break;
 1459              		.loc 1 752 17 is_stmt 1 view .LVU452
 1460              	.L82:
 753:Drivers/lvgl/src/indev/lv_indev_scroll.c ****             case LV_SCROLL_SNAP_START:
 754:Drivers/lvgl/src/indev/lv_indev_scroll.c ****                 y = scroll_obj->coords.y1 + lv_obj_get_style_pad_top(scroll_obj, 0);
 755:Drivers/lvgl/src/indev/lv_indev_scroll.c ****                 break;
 756:Drivers/lvgl/src/indev/lv_indev_scroll.c ****             case LV_SCROLL_SNAP_END:
 757:Drivers/lvgl/src/indev/lv_indev_scroll.c ****                 y = scroll_obj->coords.y2 - lv_obj_get_style_pad_bottom(scroll_obj, 0);
 758:Drivers/lvgl/src/indev/lv_indev_scroll.c ****                 break;
 759:Drivers/lvgl/src/indev/lv_indev_scroll.c ****             default:
ARM GAS  /tmp/ccpQad6v.s 			page 49


 760:Drivers/lvgl/src/indev/lv_indev_scroll.c ****                 break;
 761:Drivers/lvgl/src/indev/lv_indev_scroll.c ****         }
 762:Drivers/lvgl/src/indev/lv_indev_scroll.c ****         int32_t d;
 1461              		.loc 1 762 9 view .LVU453
 763:Drivers/lvgl/src/indev/lv_indev_scroll.c ****         d = find_snap_point_y(scroll_obj, y + 1, LV_COORD_MAX, 0);
 1462              		.loc 1 763 9 view .LVU454
 1463              		.loc 1 763 13 is_stmt 0 view .LVU455
 1464 0114 0023     		movs	r3, #0
 1465 0116 6FF06042 		mvn	r2, #-536870912
 1466 011a 691C     		adds	r1, r5, #1
 1467 011c 2046     		mov	r0, r4
 1468 011e FFF7FEFF 		bl	find_snap_point_y
 1469              	.LVL153:
 764:Drivers/lvgl/src/indev/lv_indev_scroll.c ****         if(d == LV_COORD_MAX) *has_end_snap = false;
 1470              		.loc 1 764 9 is_stmt 1 view .LVU456
 1471              		.loc 1 764 11 is_stmt 0 view .LVU457
 1472 0122 6FF06043 		mvn	r3, #-536870912
 1473 0126 9842     		cmp	r0, r3
 1474 0128 20D0     		beq	.L91
 1475              	.L84:
 765:Drivers/lvgl/src/indev/lv_indev_scroll.c ****         d = find_snap_point_y(scroll_obj, LV_COORD_MIN, y - 1, 0);
 1476              		.loc 1 765 9 is_stmt 1 view .LVU458
 1477              		.loc 1 765 13 is_stmt 0 view .LVU459
 1478 012a 0023     		movs	r3, #0
 1479 012c 6A1E     		subs	r2, r5, #1
 1480 012e 1249     		ldr	r1, .L93
 1481 0130 2046     		mov	r0, r4
 1482              	.LVL154:
 1483              		.loc 1 765 13 view .LVU460
 1484 0132 FFF7FEFF 		bl	find_snap_point_y
 1485              	.LVL155:
 766:Drivers/lvgl/src/indev/lv_indev_scroll.c ****         if(d == LV_COORD_MAX) *has_start_snap = false;
 1486              		.loc 1 766 9 is_stmt 1 view .LVU461
 1487              		.loc 1 766 11 is_stmt 0 view .LVU462
 1488 0136 6FF06043 		mvn	r3, #-536870912
 1489 013a 9842     		cmp	r0, r3
 1490 013c 19D0     		beq	.L92
 1491              	.LVL156:
 1492              	.L68:
 1493              		.loc 1 766 11 view .LVU463
 1494              	.LBE110:
 767:Drivers/lvgl/src/indev/lv_indev_scroll.c ****     }
 768:Drivers/lvgl/src/indev/lv_indev_scroll.c **** }
 1495              		.loc 1 768 1 view .LVU464
 1496 013e 03B0     		add	sp, sp, #12
 1497              	.LCFI16:
 1498              		.cfi_remember_state
 1499              		.cfi_def_cfa_offset 28
 1500              		@ sp needed
 1501 0140 BDE8F083 		pop	{r4, r5, r6, r7, r8, r9, pc}
 1502              	.LVL157:
 1503              	.L90:
 1504              	.LCFI17:
 1505              		.cfi_restore_state
 1506              	.LBB111:
 1507              	.LBB94:
 749:Drivers/lvgl/src/indev/lv_indev_scroll.c ****                     y += pad_top;
ARM GAS  /tmp/ccpQad6v.s 			page 50


 1508              		.loc 1 749 91 discriminator 1 view .LVU465
 1509 0144 0133     		adds	r3, r3, #1
 1510 0146 E2E7     		b	.L83
 1511              	.LVL158:
 1512              	.L81:
 749:Drivers/lvgl/src/indev/lv_indev_scroll.c ****                     y += pad_top;
 1513              		.loc 1 749 91 discriminator 1 view .LVU466
 1514              	.LBE94:
 754:Drivers/lvgl/src/indev/lv_indev_scroll.c ****                 break;
 1515              		.loc 1 754 17 is_stmt 1 view .LVU467
 754:Drivers/lvgl/src/indev/lv_indev_scroll.c ****                 break;
 1516              		.loc 1 754 39 is_stmt 0 view .LVU468
 1517 0148 A569     		ldr	r5, [r4, #24]
 1518              	.LVL159:
 1519              	.LBB95:
 1520              	.LBI95:
 154:Drivers/lvgl/src/indev/../core/lv_obj_style_gen.h **** {
 1521              		.loc 2 154 23 is_stmt 1 view .LVU469
 1522              	.LBB96:
 156:Drivers/lvgl/src/indev/../core/lv_obj_style_gen.h ****     return (int32_t)v.num;
 1523              		.loc 2 156 5 view .LVU470
 156:Drivers/lvgl/src/indev/../core/lv_obj_style_gen.h ****     return (int32_t)v.num;
 1524              		.loc 2 156 26 is_stmt 0 view .LVU471
 1525 014a 1022     		movs	r2, #16
 1526 014c 0021     		movs	r1, #0
 1527 014e 2046     		mov	r0, r4
 1528              	.LVL160:
 156:Drivers/lvgl/src/indev/../core/lv_obj_style_gen.h ****     return (int32_t)v.num;
 1529              		.loc 2 156 26 view .LVU472
 1530 0150 FFF7FEFF 		bl	lv_obj_get_style_prop
 1531              	.LVL161:
 1532 0154 0190     		str	r0, [sp, #4]
 157:Drivers/lvgl/src/indev/../core/lv_obj_style_gen.h **** }
 1533              		.loc 2 157 5 is_stmt 1 view .LVU473
 1534              	.LVL162:
 157:Drivers/lvgl/src/indev/../core/lv_obj_style_gen.h **** }
 1535              		.loc 2 157 5 is_stmt 0 view .LVU474
 1536              	.LBE96:
 1537              	.LBE95:
 754:Drivers/lvgl/src/indev/lv_indev_scroll.c ****                 break;
 1538              		.loc 1 754 19 discriminator 1 view .LVU475
 1539 0156 0544     		add	r5, r5, r0
 1540              	.LVL163:
 755:Drivers/lvgl/src/indev/lv_indev_scroll.c ****             case LV_SCROLL_SNAP_END:
 1541              		.loc 1 755 17 is_stmt 1 view .LVU476
 1542 0158 DCE7     		b	.L82
 1543              	.LVL164:
 1544              	.L79:
 757:Drivers/lvgl/src/indev/lv_indev_scroll.c ****                 break;
 1545              		.loc 1 757 17 view .LVU477
 757:Drivers/lvgl/src/indev/lv_indev_scroll.c ****                 break;
 1546              		.loc 1 757 39 is_stmt 0 view .LVU478
 1547 015a 256A     		ldr	r5, [r4, #32]
 1548              	.LVL165:
 1549              	.LBB97:
 1550              	.LBI97:
 160:Drivers/lvgl/src/indev/../core/lv_obj_style_gen.h **** {
ARM GAS  /tmp/ccpQad6v.s 			page 51


 1551              		.loc 2 160 23 is_stmt 1 view .LVU479
 1552              	.LBB98:
 162:Drivers/lvgl/src/indev/../core/lv_obj_style_gen.h ****     return (int32_t)v.num;
 1553              		.loc 2 162 5 view .LVU480
 162:Drivers/lvgl/src/indev/../core/lv_obj_style_gen.h ****     return (int32_t)v.num;
 1554              		.loc 2 162 26 is_stmt 0 view .LVU481
 1555 015c 1122     		movs	r2, #17
 1556 015e 0021     		movs	r1, #0
 1557 0160 2046     		mov	r0, r4
 1558              	.LVL166:
 162:Drivers/lvgl/src/indev/../core/lv_obj_style_gen.h ****     return (int32_t)v.num;
 1559              		.loc 2 162 26 view .LVU482
 1560 0162 FFF7FEFF 		bl	lv_obj_get_style_prop
 1561              	.LVL167:
 1562 0166 0190     		str	r0, [sp, #4]
 163:Drivers/lvgl/src/indev/../core/lv_obj_style_gen.h **** }
 1563              		.loc 2 163 5 is_stmt 1 view .LVU483
 1564              	.LVL168:
 163:Drivers/lvgl/src/indev/../core/lv_obj_style_gen.h **** }
 1565              		.loc 2 163 5 is_stmt 0 view .LVU484
 1566              	.LBE98:
 1567              	.LBE97:
 757:Drivers/lvgl/src/indev/lv_indev_scroll.c ****                 break;
 1568              		.loc 1 757 19 discriminator 1 view .LVU485
 1569 0168 2D1A     		subs	r5, r5, r0
 1570              	.LVL169:
 758:Drivers/lvgl/src/indev/lv_indev_scroll.c ****             default:
 1571              		.loc 1 758 17 is_stmt 1 view .LVU486
 1572 016a D3E7     		b	.L82
 1573              	.LVL170:
 1574              	.L91:
 764:Drivers/lvgl/src/indev/lv_indev_scroll.c ****         d = find_snap_point_y(scroll_obj, LV_COORD_MIN, y - 1, 0);
 1575              		.loc 1 764 31 discriminator 1 view .LVU487
 764:Drivers/lvgl/src/indev/lv_indev_scroll.c ****         d = find_snap_point_y(scroll_obj, LV_COORD_MIN, y - 1, 0);
 1576              		.loc 1 764 45 is_stmt 0 discriminator 1 view .LVU488
 1577 016c 0023     		movs	r3, #0
 1578 016e 3B70     		strb	r3, [r7]
 1579 0170 DBE7     		b	.L84
 1580              	.L92:
 766:Drivers/lvgl/src/indev/lv_indev_scroll.c ****     }
 1581              		.loc 1 766 31 is_stmt 1 discriminator 1 view .LVU489
 766:Drivers/lvgl/src/indev/lv_indev_scroll.c ****     }
 1582              		.loc 1 766 47 is_stmt 0 discriminator 1 view .LVU490
 1583 0172 0023     		movs	r3, #0
 1584 0174 3370     		strb	r3, [r6]
 1585              	.LBE111:
 1586              		.loc 1 768 1 view .LVU491
 1587 0176 E2E7     		b	.L68
 1588              	.L94:
 1589              		.align	2
 1590              	.L93:
 1591 0178 010000E0 		.word	-536870911
 1592              		.cfi_endproc
 1593              	.LFE181:
 1595              		.section	.text.elastic_diff,"ax",%progbits
 1596              		.align	1
 1597              		.syntax unified
ARM GAS  /tmp/ccpQad6v.s 			page 52


 1598              		.thumb
 1599              		.thumb_func
 1601              	elastic_diff:
 1602              	.LVL171:
 1603              	.LFB180:
 643:Drivers/lvgl/src/indev/lv_indev_scroll.c ****     if(diff == 0) return 0;
 1604              		.loc 1 643 1 is_stmt 1 view -0
 1605              		.cfi_startproc
 1606              		@ args = 4, pretend = 0, frame = 8
 1607              		@ frame_needed = 0, uses_anonymous_args = 0
 643:Drivers/lvgl/src/indev/lv_indev_scroll.c ****     if(diff == 0) return 0;
 1608              		.loc 1 643 1 is_stmt 0 view .LVU493
 1609 0000 2DE9F041 		push	{r4, r5, r6, r7, r8, lr}
 1610              	.LCFI18:
 1611              		.cfi_def_cfa_offset 24
 1612              		.cfi_offset 4, -24
 1613              		.cfi_offset 5, -20
 1614              		.cfi_offset 6, -16
 1615              		.cfi_offset 7, -12
 1616              		.cfi_offset 8, -8
 1617              		.cfi_offset 14, -4
 1618 0004 82B0     		sub	sp, sp, #8
 1619              	.LCFI19:
 1620              		.cfi_def_cfa_offset 32
 1621 0006 9DF82080 		ldrb	r8, [sp, #32]	@ zero_extendqisi2
 644:Drivers/lvgl/src/indev/lv_indev_scroll.c **** 
 1622              		.loc 1 644 5 is_stmt 1 view .LVU494
 644:Drivers/lvgl/src/indev/lv_indev_scroll.c **** 
 1623              		.loc 1 644 7 is_stmt 0 view .LVU495
 1624 000a 0C46     		mov	r4, r1
 1625 000c 19B9     		cbnz	r1, .L113
 1626              	.LVL172:
 1627              	.L96:
 695:Drivers/lvgl/src/indev/lv_indev_scroll.c **** 
 1628              		.loc 1 695 1 view .LVU496
 1629 000e 2046     		mov	r0, r4
 1630 0010 02B0     		add	sp, sp, #8
 1631              	.LCFI20:
 1632              		.cfi_remember_state
 1633              		.cfi_def_cfa_offset 24
 1634              		@ sp needed
 1635 0012 BDE8F081 		pop	{r4, r5, r6, r7, r8, pc}
 1636              	.LVL173:
 1637              	.L113:
 1638              	.LCFI21:
 1639              		.cfi_restore_state
 695:Drivers/lvgl/src/indev/lv_indev_scroll.c **** 
 1640              		.loc 1 695 1 view .LVU497
 1641 0016 0746     		mov	r7, r0
 1642 0018 1646     		mov	r6, r2
 1643 001a 1D46     		mov	r5, r3
 647:Drivers/lvgl/src/indev/lv_indev_scroll.c ****         /*
 1644              		.loc 1 647 5 is_stmt 1 view .LVU498
 647:Drivers/lvgl/src/indev/lv_indev_scroll.c ****         /*
 1645              		.loc 1 647 9 is_stmt 0 view .LVU499
 1646 001c 2021     		movs	r1, #32
 1647              	.LVL174:
ARM GAS  /tmp/ccpQad6v.s 			page 53


 647:Drivers/lvgl/src/indev/lv_indev_scroll.c ****         /*
 1648              		.loc 1 647 9 view .LVU500
 1649 001e FFF7FEFF 		bl	lv_obj_has_flag
 1650              	.LVL175:
 647:Drivers/lvgl/src/indev/lv_indev_scroll.c ****         /*
 1651              		.loc 1 647 7 discriminator 1 view .LVU501
 1652 0022 48B9     		cbnz	r0, .L97
 1653              	.LBB112:
 654:Drivers/lvgl/src/indev/lv_indev_scroll.c ****         if(scroll_ended < 0) diff = 0;
 1654              		.loc 1 654 9 is_stmt 1 view .LVU502
 654:Drivers/lvgl/src/indev/lv_indev_scroll.c ****         if(scroll_ended < 0) diff = 0;
 1655              		.loc 1 654 62 is_stmt 0 view .LVU503
 1656 0024 002C     		cmp	r4, #0
 1657 0026 00DD     		ble	.L98
 654:Drivers/lvgl/src/indev/lv_indev_scroll.c ****         if(scroll_ended < 0) diff = 0;
 1658              		.loc 1 654 62 discriminator 1 view .LVU504
 1659 0028 3546     		mov	r5, r6
 1660              	.LVL176:
 1661              	.L98:
 655:Drivers/lvgl/src/indev/lv_indev_scroll.c ****         else if(scroll_ended - diff < 0) diff = scroll_ended;
 1662              		.loc 1 655 9 is_stmt 1 view .LVU505
 655:Drivers/lvgl/src/indev/lv_indev_scroll.c ****         else if(scroll_ended - diff < 0) diff = scroll_ended;
 1663              		.loc 1 655 11 is_stmt 0 view .LVU506
 1664 002a 002D     		cmp	r5, #0
 1665 002c 3DDB     		blt	.L110
 656:Drivers/lvgl/src/indev/lv_indev_scroll.c ****     }
 1666              		.loc 1 656 14 is_stmt 1 view .LVU507
 656:Drivers/lvgl/src/indev/lv_indev_scroll.c ****     }
 1667              		.loc 1 656 30 is_stmt 0 view .LVU508
 1668 002e 2B1B     		subs	r3, r5, r4
 656:Drivers/lvgl/src/indev/lv_indev_scroll.c ****     }
 1669              		.loc 1 656 16 view .LVU509
 1670 0030 002B     		cmp	r3, #0
 1671 0032 ECDA     		bge	.L96
 656:Drivers/lvgl/src/indev/lv_indev_scroll.c ****     }
 1672              		.loc 1 656 47 discriminator 1 view .LVU510
 1673 0034 2C46     		mov	r4, r5
 1674              	.LVL177:
 656:Drivers/lvgl/src/indev/lv_indev_scroll.c ****     }
 1675              		.loc 1 656 47 discriminator 1 view .LVU511
 1676 0036 EAE7     		b	.L96
 1677              	.LVL178:
 1678              	.L97:
 656:Drivers/lvgl/src/indev/lv_indev_scroll.c ****     }
 1679              		.loc 1 656 47 discriminator 1 view .LVU512
 1680              	.LBE112:
 1681              	.LBB113:
 661:Drivers/lvgl/src/indev/lv_indev_scroll.c ****         snap = dir == LV_DIR_HOR ? lv_obj_get_scroll_snap_x(scroll_obj) : lv_obj_get_scroll_snap_y(
 1682              		.loc 1 661 9 is_stmt 1 view .LVU513
 662:Drivers/lvgl/src/indev/lv_indev_scroll.c **** 
 1683              		.loc 1 662 9 view .LVU514
 662:Drivers/lvgl/src/indev/lv_indev_scroll.c **** 
 1684              		.loc 1 662 73 is_stmt 0 view .LVU515
 1685 0038 B8F1030F 		cmp	r8, #3
 1686 003c 0CD0     		beq	.L114
 662:Drivers/lvgl/src/indev/lv_indev_scroll.c **** 
 1687              		.loc 1 662 75 discriminator 2 view .LVU516
ARM GAS  /tmp/ccpQad6v.s 			page 54


 1688 003e 3846     		mov	r0, r7
 1689 0040 FFF7FEFF 		bl	lv_obj_get_scroll_snap_y
 1690              	.LVL179:
 1691              	.L100:
 665:Drivers/lvgl/src/indev/lv_indev_scroll.c ****             if(scroll_end < 0 || scroll_start < 0) {
 1692              		.loc 1 665 9 is_stmt 1 view .LVU517
 665:Drivers/lvgl/src/indev/lv_indev_scroll.c ****             if(scroll_end < 0 || scroll_start < 0) {
 1693              		.loc 1 665 11 is_stmt 0 view .LVU518
 1694 0044 A0B9     		cbnz	r0, .L101
 666:Drivers/lvgl/src/indev/lv_indev_scroll.c ****                 /*Rounding*/
 1695              		.loc 1 666 13 is_stmt 1 view .LVU519
 666:Drivers/lvgl/src/indev/lv_indev_scroll.c ****                 /*Rounding*/
 1696              		.loc 1 666 15 is_stmt 0 view .LVU520
 1697 0046 55EA0603 		orrs	r3, r5, r6
 1698 004a E0D5     		bpl	.L96
 668:Drivers/lvgl/src/indev/lv_indev_scroll.c ****                 if(diff > 0) diff += ELASTIC_SLOWNESS_FACTOR / 2;
 1699              		.loc 1 668 17 is_stmt 1 view .LVU521
 668:Drivers/lvgl/src/indev/lv_indev_scroll.c ****                 if(diff > 0) diff += ELASTIC_SLOWNESS_FACTOR / 2;
 1700              		.loc 1 668 19 is_stmt 0 view .LVU522
 1701 004c 002C     		cmp	r4, #0
 1702 004e 07DB     		blt	.L115
 669:Drivers/lvgl/src/indev/lv_indev_scroll.c ****                 return diff / ELASTIC_SLOWNESS_FACTOR;
 1703              		.loc 1 669 17 is_stmt 1 view .LVU523
 669:Drivers/lvgl/src/indev/lv_indev_scroll.c ****                 return diff / ELASTIC_SLOWNESS_FACTOR;
 1704              		.loc 1 669 19 is_stmt 0 view .LVU524
 1705 0050 002C     		cmp	r4, #0
 1706 0052 06DD     		ble	.L104
 669:Drivers/lvgl/src/indev/lv_indev_scroll.c ****                 return diff / ELASTIC_SLOWNESS_FACTOR;
 1707              		.loc 1 669 30 is_stmt 1 discriminator 1 view .LVU525
 669:Drivers/lvgl/src/indev/lv_indev_scroll.c ****                 return diff / ELASTIC_SLOWNESS_FACTOR;
 1708              		.loc 1 669 35 is_stmt 0 discriminator 1 view .LVU526
 1709 0054 0234     		adds	r4, r4, #2
 1710              	.LVL180:
 669:Drivers/lvgl/src/indev/lv_indev_scroll.c ****                 return diff / ELASTIC_SLOWNESS_FACTOR;
 1711              		.loc 1 669 35 discriminator 1 view .LVU527
 1712 0056 04E0     		b	.L104
 1713              	.LVL181:
 1714              	.L114:
 662:Drivers/lvgl/src/indev/lv_indev_scroll.c **** 
 1715              		.loc 1 662 36 discriminator 1 view .LVU528
 1716 0058 3846     		mov	r0, r7
 1717 005a FFF7FEFF 		bl	lv_obj_get_scroll_snap_x
 1718              	.LVL182:
 1719 005e F1E7     		b	.L100
 1720              	.LVL183:
 1721              	.L115:
 668:Drivers/lvgl/src/indev/lv_indev_scroll.c ****                 if(diff > 0) diff += ELASTIC_SLOWNESS_FACTOR / 2;
 1722              		.loc 1 668 30 is_stmt 1 discriminator 1 view .LVU529
 668:Drivers/lvgl/src/indev/lv_indev_scroll.c ****                 if(diff > 0) diff += ELASTIC_SLOWNESS_FACTOR / 2;
 1723              		.loc 1 668 35 is_stmt 0 discriminator 1 view .LVU530
 1724 0060 023C     		subs	r4, r4, #2
 1725              	.LVL184:
 669:Drivers/lvgl/src/indev/lv_indev_scroll.c ****                 return diff / ELASTIC_SLOWNESS_FACTOR;
 1726              		.loc 1 669 17 is_stmt 1 view .LVU531
 1727              	.L104:
 670:Drivers/lvgl/src/indev/lv_indev_scroll.c ****             }
 1728              		.loc 1 670 17 view .LVU532
ARM GAS  /tmp/ccpQad6v.s 			page 55


 670:Drivers/lvgl/src/indev/lv_indev_scroll.c ****             }
 1729              		.loc 1 670 29 is_stmt 0 view .LVU533
 1730 0062 2346     		mov	r3, r4
 1731 0064 002C     		cmp	r4, #0
 1732 0066 01DB     		blt	.L116
 1733              	.L105:
 670:Drivers/lvgl/src/indev/lv_indev_scroll.c ****             }
 1734              		.loc 1 670 29 view .LVU534
 1735 0068 9C10     		asrs	r4, r3, #2
 1736              	.LVL185:
 670:Drivers/lvgl/src/indev/lv_indev_scroll.c ****             }
 1737              		.loc 1 670 29 view .LVU535
 1738 006a D0E7     		b	.L96
 1739              	.LVL186:
 1740              	.L116:
 670:Drivers/lvgl/src/indev/lv_indev_scroll.c ****             }
 1741              		.loc 1 670 29 view .LVU536
 1742 006c E31C     		adds	r3, r4, #3
 1743              	.LVL187:
 670:Drivers/lvgl/src/indev/lv_indev_scroll.c ****             }
 1744              		.loc 1 670 29 view .LVU537
 1745 006e FBE7     		b	.L105
 1746              	.L101:
 679:Drivers/lvgl/src/indev/lv_indev_scroll.c ****         bool has_end_snap;
 1747              		.loc 1 679 9 is_stmt 1 view .LVU538
 680:Drivers/lvgl/src/indev/lv_indev_scroll.c ****         has_more_snap_points(scroll_obj, dir, &has_start_snap, &has_end_snap);
 1748              		.loc 1 680 9 view .LVU539
 681:Drivers/lvgl/src/indev/lv_indev_scroll.c **** 
 1749              		.loc 1 681 9 view .LVU540
 1750 0070 0DF10703 		add	r3, sp, #7
 1751 0074 0DF10602 		add	r2, sp, #6
 1752 0078 4146     		mov	r1, r8
 1753 007a 3846     		mov	r0, r7
 1754              	.LVL188:
 681:Drivers/lvgl/src/indev/lv_indev_scroll.c **** 
 1755              		.loc 1 681 9 is_stmt 0 view .LVU541
 1756 007c FFF7FEFF 		bl	has_more_snap_points
 1757              	.LVL189:
 683:Drivers/lvgl/src/indev/lv_indev_scroll.c ****             /*Rounding*/
 1758              		.loc 1 683 9 is_stmt 1 view .LVU542
 683:Drivers/lvgl/src/indev/lv_indev_scroll.c ****             /*Rounding*/
 1759              		.loc 1 683 12 is_stmt 0 view .LVU543
 1760 0080 9DF80630 		ldrb	r3, [sp, #6]	@ zero_extendqisi2
 683:Drivers/lvgl/src/indev/lv_indev_scroll.c ****             /*Rounding*/
 1761              		.loc 1 683 11 view .LVU544
 1762 0084 1BB1     		cbz	r3, .L106
 683:Drivers/lvgl/src/indev/lv_indev_scroll.c ****             /*Rounding*/
 1763              		.loc 1 683 31 discriminator 1 view .LVU545
 1764 0086 9DF80730 		ldrb	r3, [sp, #7]	@ zero_extendqisi2
 683:Drivers/lvgl/src/indev/lv_indev_scroll.c ****             /*Rounding*/
 1765              		.loc 1 683 28 discriminator 1 view .LVU546
 1766 008a 002B     		cmp	r3, #0
 1767 008c BFD1     		bne	.L96
 1768              	.L106:
 685:Drivers/lvgl/src/indev/lv_indev_scroll.c ****             if(diff > 0) diff += ELASTIC_SLOWNESS_FACTOR / 2;
 1769              		.loc 1 685 13 is_stmt 1 view .LVU547
 685:Drivers/lvgl/src/indev/lv_indev_scroll.c ****             if(diff > 0) diff += ELASTIC_SLOWNESS_FACTOR / 2;
ARM GAS  /tmp/ccpQad6v.s 			page 56


 1770              		.loc 1 685 15 is_stmt 0 view .LVU548
 1771 008e 002C     		cmp	r4, #0
 1772 0090 03DB     		blt	.L117
 686:Drivers/lvgl/src/indev/lv_indev_scroll.c ****             return diff / ELASTIC_SLOWNESS_FACTOR;
 1773              		.loc 1 686 13 is_stmt 1 view .LVU549
 686:Drivers/lvgl/src/indev/lv_indev_scroll.c ****             return diff / ELASTIC_SLOWNESS_FACTOR;
 1774              		.loc 1 686 15 is_stmt 0 view .LVU550
 1775 0092 002C     		cmp	r4, #0
 1776 0094 02DD     		ble	.L108
 686:Drivers/lvgl/src/indev/lv_indev_scroll.c ****             return diff / ELASTIC_SLOWNESS_FACTOR;
 1777              		.loc 1 686 26 is_stmt 1 discriminator 1 view .LVU551
 686:Drivers/lvgl/src/indev/lv_indev_scroll.c ****             return diff / ELASTIC_SLOWNESS_FACTOR;
 1778              		.loc 1 686 31 is_stmt 0 discriminator 1 view .LVU552
 1779 0096 0234     		adds	r4, r4, #2
 1780              	.LVL190:
 686:Drivers/lvgl/src/indev/lv_indev_scroll.c ****             return diff / ELASTIC_SLOWNESS_FACTOR;
 1781              		.loc 1 686 31 discriminator 1 view .LVU553
 1782 0098 00E0     		b	.L108
 1783              	.LVL191:
 1784              	.L117:
 685:Drivers/lvgl/src/indev/lv_indev_scroll.c ****             if(diff > 0) diff += ELASTIC_SLOWNESS_FACTOR / 2;
 1785              		.loc 1 685 26 is_stmt 1 discriminator 1 view .LVU554
 685:Drivers/lvgl/src/indev/lv_indev_scroll.c ****             if(diff > 0) diff += ELASTIC_SLOWNESS_FACTOR / 2;
 1786              		.loc 1 685 31 is_stmt 0 discriminator 1 view .LVU555
 1787 009a 023C     		subs	r4, r4, #2
 1788              	.LVL192:
 686:Drivers/lvgl/src/indev/lv_indev_scroll.c ****             return diff / ELASTIC_SLOWNESS_FACTOR;
 1789              		.loc 1 686 13 is_stmt 1 view .LVU556
 1790              	.L108:
 687:Drivers/lvgl/src/indev/lv_indev_scroll.c ****         }
 1791              		.loc 1 687 13 view .LVU557
 687:Drivers/lvgl/src/indev/lv_indev_scroll.c ****         }
 1792              		.loc 1 687 25 is_stmt 0 view .LVU558
 1793 009c 2346     		mov	r3, r4
 1794 009e 002C     		cmp	r4, #0
 1795 00a0 01DB     		blt	.L118
 1796              	.L109:
 687:Drivers/lvgl/src/indev/lv_indev_scroll.c ****         }
 1797              		.loc 1 687 25 view .LVU559
 1798 00a2 9C10     		asrs	r4, r3, #2
 1799              	.LVL193:
 687:Drivers/lvgl/src/indev/lv_indev_scroll.c ****         }
 1800              		.loc 1 687 25 view .LVU560
 1801 00a4 B3E7     		b	.L96
 1802              	.LVL194:
 1803              	.L118:
 687:Drivers/lvgl/src/indev/lv_indev_scroll.c ****         }
 1804              		.loc 1 687 25 view .LVU561
 1805 00a6 E31C     		adds	r3, r4, #3
 1806              	.LVL195:
 687:Drivers/lvgl/src/indev/lv_indev_scroll.c ****         }
 1807              		.loc 1 687 25 view .LVU562
 1808 00a8 FBE7     		b	.L109
 1809              	.LVL196:
 1810              	.L110:
 687:Drivers/lvgl/src/indev/lv_indev_scroll.c ****         }
 1811              		.loc 1 687 25 view .LVU563
ARM GAS  /tmp/ccpQad6v.s 			page 57


 1812              	.LBE113:
 1813              	.LBB114:
 655:Drivers/lvgl/src/indev/lv_indev_scroll.c ****         else if(scroll_ended - diff < 0) diff = scroll_ended;
 1814              		.loc 1 655 35 discriminator 1 view .LVU564
 1815 00aa 0024     		movs	r4, #0
 1816              	.LVL197:
 655:Drivers/lvgl/src/indev/lv_indev_scroll.c ****         else if(scroll_ended - diff < 0) diff = scroll_ended;
 1817              		.loc 1 655 35 discriminator 1 view .LVU565
 1818 00ac AFE7     		b	.L96
 1819              	.LBE114:
 1820              		.cfi_endproc
 1821              	.LFE180:
 1823              		.section	.text.lv_indev_scroll_throw_predict,"ax",%progbits
 1824              		.align	1
 1825              		.global	lv_indev_scroll_throw_predict
 1826              		.syntax unified
 1827              		.thumb
 1828              		.thumb_func
 1830              	lv_indev_scroll_throw_predict:
 1831              	.LVL198:
 1832              	.LFB173:
 237:Drivers/lvgl/src/indev/lv_indev_scroll.c ****     if(indev == NULL) return 0;
 1833              		.loc 1 237 1 is_stmt 1 view -0
 1834              		.cfi_startproc
 1835              		@ args = 0, pretend = 0, frame = 0
 1836              		@ frame_needed = 0, uses_anonymous_args = 0
 1837              		@ link register save eliminated.
 238:Drivers/lvgl/src/indev/lv_indev_scroll.c ****     int32_t v;
 1838              		.loc 1 238 5 view .LVU567
 238:Drivers/lvgl/src/indev/lv_indev_scroll.c ****     int32_t v;
 1839              		.loc 1 238 7 is_stmt 0 view .LVU568
 1840 0000 0246     		mov	r2, r0
 1841 0002 C0B1     		cbz	r0, .L125
 239:Drivers/lvgl/src/indev/lv_indev_scroll.c ****     switch(dir) {
 1842              		.loc 1 239 5 is_stmt 1 view .LVU569
 240:Drivers/lvgl/src/indev/lv_indev_scroll.c ****         case LV_DIR_VER:
 1843              		.loc 1 240 5 view .LVU570
 1844 0004 0329     		cmp	r1, #3
 1845 0006 06D0     		beq	.L121
 1846 0008 0C29     		cmp	r1, #12
 1847 000a 16D1     		bne	.L126
 242:Drivers/lvgl/src/indev/lv_indev_scroll.c ****             break;
 1848              		.loc 1 242 13 view .LVU571
 242:Drivers/lvgl/src/indev/lv_indev_scroll.c ****             break;
 1849              		.loc 1 242 15 is_stmt 0 view .LVU572
 1850 000c 436E     		ldr	r3, [r0, #100]
 1851              	.LVL199:
 243:Drivers/lvgl/src/indev/lv_indev_scroll.c ****         case LV_DIR_HOR:
 1852              		.loc 1 243 13 is_stmt 1 view .LVU573
 1853              	.L122:
 251:Drivers/lvgl/src/indev/lv_indev_scroll.c ****     int32_t sum = 0;
 1854              		.loc 1 251 5 view .LVU574
 251:Drivers/lvgl/src/indev/lv_indev_scroll.c ****     int32_t sum = 0;
 1855              		.loc 1 251 33 is_stmt 0 view .LVU575
 1856 000e 92F82510 		ldrb	r1, [r2, #37]	@ zero_extendqisi2
 1857              	.LVL200:
 252:Drivers/lvgl/src/indev/lv_indev_scroll.c ****     while(v) {
ARM GAS  /tmp/ccpQad6v.s 			page 58


 1858              		.loc 1 252 5 is_stmt 1 view .LVU576
 253:Drivers/lvgl/src/indev/lv_indev_scroll.c ****         sum += v;
 1859              		.loc 1 253 5 view .LVU577
 252:Drivers/lvgl/src/indev/lv_indev_scroll.c ****     while(v) {
 1860              		.loc 1 252 13 is_stmt 0 view .LVU578
 1861 0012 0020     		movs	r0, #0
 1862              	.LVL201:
 253:Drivers/lvgl/src/indev/lv_indev_scroll.c ****         sum += v;
 1863              		.loc 1 253 10 view .LVU579
 1864 0014 0CE0     		b	.L123
 1865              	.LVL202:
 1866              	.L121:
 245:Drivers/lvgl/src/indev/lv_indev_scroll.c ****             break;
 1867              		.loc 1 245 13 is_stmt 1 view .LVU580
 245:Drivers/lvgl/src/indev/lv_indev_scroll.c ****             break;
 1868              		.loc 1 245 15 is_stmt 0 view .LVU581
 1869 0016 036E     		ldr	r3, [r0, #96]
 1870              	.LVL203:
 246:Drivers/lvgl/src/indev/lv_indev_scroll.c ****         default:
 1871              		.loc 1 246 13 is_stmt 1 view .LVU582
 1872 0018 F9E7     		b	.L122
 1873              	.LVL204:
 1874              	.L124:
 254:Drivers/lvgl/src/indev/lv_indev_scroll.c ****         v = v * (100 - scroll_throw) / 100;
 1875              		.loc 1 254 9 view .LVU583
 254:Drivers/lvgl/src/indev/lv_indev_scroll.c ****         v = v * (100 - scroll_throw) / 100;
 1876              		.loc 1 254 13 is_stmt 0 view .LVU584
 1877 001a 1844     		add	r0, r0, r3
 1878              	.LVL205:
 255:Drivers/lvgl/src/indev/lv_indev_scroll.c ****     }
 1879              		.loc 1 255 9 is_stmt 1 view .LVU585
 255:Drivers/lvgl/src/indev/lv_indev_scroll.c ****     }
 1880              		.loc 1 255 22 is_stmt 0 view .LVU586
 1881 001c C1F16402 		rsb	r2, r1, #100
 255:Drivers/lvgl/src/indev/lv_indev_scroll.c ****     }
 1882              		.loc 1 255 15 view .LVU587
 1883 0020 03FB02F2 		mul	r2, r3, r2
 255:Drivers/lvgl/src/indev/lv_indev_scroll.c ****     }
 1884              		.loc 1 255 11 view .LVU588
 1885 0024 064B     		ldr	r3, .L127
 1886              	.LVL206:
 255:Drivers/lvgl/src/indev/lv_indev_scroll.c ****     }
 1887              		.loc 1 255 11 view .LVU589
 1888 0026 83FB02C3 		smull	ip, r3, r3, r2
 1889 002a D217     		asrs	r2, r2, #31
 1890 002c C2EB6313 		rsb	r3, r2, r3, asr #5
 1891              	.LVL207:
 1892              	.L123:
 253:Drivers/lvgl/src/indev/lv_indev_scroll.c ****         sum += v;
 1893              		.loc 1 253 11 is_stmt 1 view .LVU590
 1894 0030 002B     		cmp	r3, #0
 1895 0032 F2D1     		bne	.L124
 1896 0034 7047     		bx	lr
 1897              	.LVL208:
 1898              	.L125:
 238:Drivers/lvgl/src/indev/lv_indev_scroll.c ****     int32_t v;
 1899              		.loc 1 238 30 is_stmt 0 discriminator 1 view .LVU591
ARM GAS  /tmp/ccpQad6v.s 			page 59


 1900 0036 0020     		movs	r0, #0
 1901              	.LVL209:
 238:Drivers/lvgl/src/indev/lv_indev_scroll.c ****     int32_t v;
 1902              		.loc 1 238 30 discriminator 1 view .LVU592
 1903 0038 7047     		bx	lr
 1904              	.LVL210:
 1905              	.L126:
 240:Drivers/lvgl/src/indev/lv_indev_scroll.c ****         case LV_DIR_VER:
 1906              		.loc 1 240 5 view .LVU593
 1907 003a 0020     		movs	r0, #0
 1908              	.LVL211:
 259:Drivers/lvgl/src/indev/lv_indev_scroll.c **** 
 1909              		.loc 1 259 1 view .LVU594
 1910 003c 7047     		bx	lr
 1911              	.L128:
 1912 003e 00BF     		.align	2
 1913              	.L127:
 1914 0040 1F85EB51 		.word	1374389535
 1915              		.cfi_endproc
 1916              	.LFE173:
 1918              		.section	.text.lv_indev_scroll_throw_handler,"ax",%progbits
 1919              		.align	1
 1920              		.global	lv_indev_scroll_throw_handler
 1921              		.syntax unified
 1922              		.thumb
 1923              		.thumb_func
 1925              	lv_indev_scroll_throw_handler:
 1926              	.LVL212:
 1927              	.LFB172:
 125:Drivers/lvgl/src/indev/lv_indev_scroll.c ****     lv_obj_t * scroll_obj = indev->pointer.scroll_obj;
 1928              		.loc 1 125 1 is_stmt 1 view -0
 1929              		.cfi_startproc
 1930              		@ args = 0, pretend = 0, frame = 8
 1931              		@ frame_needed = 0, uses_anonymous_args = 0
 125:Drivers/lvgl/src/indev/lv_indev_scroll.c ****     lv_obj_t * scroll_obj = indev->pointer.scroll_obj;
 1932              		.loc 1 125 1 is_stmt 0 view .LVU596
 1933 0000 2DE9F041 		push	{r4, r5, r6, r7, r8, lr}
 1934              	.LCFI22:
 1935              		.cfi_def_cfa_offset 24
 1936              		.cfi_offset 4, -24
 1937              		.cfi_offset 5, -20
 1938              		.cfi_offset 6, -16
 1939              		.cfi_offset 7, -12
 1940              		.cfi_offset 8, -8
 1941              		.cfi_offset 14, -4
 1942 0004 84B0     		sub	sp, sp, #16
 1943              	.LCFI23:
 1944              		.cfi_def_cfa_offset 40
 126:Drivers/lvgl/src/indev/lv_indev_scroll.c ****     if(scroll_obj == NULL) return;
 1945              		.loc 1 126 5 is_stmt 1 view .LVU597
 126:Drivers/lvgl/src/indev/lv_indev_scroll.c ****     if(scroll_obj == NULL) return;
 1946              		.loc 1 126 16 is_stmt 0 view .LVU598
 1947 0006 056F     		ldr	r5, [r0, #112]
 1948              	.LVL213:
 127:Drivers/lvgl/src/indev/lv_indev_scroll.c ****     if(indev->pointer.scroll_dir == LV_DIR_NONE) return;
 1949              		.loc 1 127 5 is_stmt 1 view .LVU599
 127:Drivers/lvgl/src/indev/lv_indev_scroll.c ****     if(indev->pointer.scroll_dir == LV_DIR_NONE) return;
ARM GAS  /tmp/ccpQad6v.s 			page 60


 1950              		.loc 1 127 7 is_stmt 0 view .LVU600
 1951 0008 2DB1     		cbz	r5, .L129
 1952 000a 0446     		mov	r4, r0
 128:Drivers/lvgl/src/indev/lv_indev_scroll.c **** 
 1953              		.loc 1 128 5 is_stmt 1 view .LVU601
 128:Drivers/lvgl/src/indev/lv_indev_scroll.c **** 
 1954              		.loc 1 128 34 is_stmt 0 view .LVU602
 1955 000c 90F8A830 		ldrb	r3, [r0, #168]	@ zero_extendqisi2
 128:Drivers/lvgl/src/indev/lv_indev_scroll.c **** 
 1956              		.loc 1 128 7 view .LVU603
 1957 0010 13F00F0F 		tst	r3, #15
 1958 0014 02D1     		bne	.L143
 1959              	.LVL214:
 1960              	.L129:
 234:Drivers/lvgl/src/indev/lv_indev_scroll.c **** 
 1961              		.loc 1 234 1 view .LVU604
 1962 0016 04B0     		add	sp, sp, #16
 1963              	.LCFI24:
 1964              		.cfi_remember_state
 1965              		.cfi_def_cfa_offset 24
 1966              		@ sp needed
 1967 0018 BDE8F081 		pop	{r4, r5, r6, r7, r8, pc}
 1968              	.LVL215:
 1969              	.L143:
 1970              	.LCFI25:
 1971              		.cfi_restore_state
 130:Drivers/lvgl/src/indev/lv_indev_scroll.c **** 
 1972              		.loc 1 130 5 is_stmt 1 view .LVU605
 130:Drivers/lvgl/src/indev/lv_indev_scroll.c **** 
 1973              		.loc 1 130 33 is_stmt 0 view .LVU606
 1974 001c 90F82570 		ldrb	r7, [r0, #37]	@ zero_extendqisi2
 1975              	.LVL216:
 132:Drivers/lvgl/src/indev/lv_indev_scroll.c ****         indev->pointer.scroll_throw_vect.y = 0;
 1976              		.loc 1 132 5 is_stmt 1 view .LVU607
 132:Drivers/lvgl/src/indev/lv_indev_scroll.c ****         indev->pointer.scroll_throw_vect.y = 0;
 1977              		.loc 1 132 8 is_stmt 0 view .LVU608
 1978 0020 4021     		movs	r1, #64
 1979 0022 2846     		mov	r0, r5
 1980              	.LVL217:
 132:Drivers/lvgl/src/indev/lv_indev_scroll.c ****         indev->pointer.scroll_throw_vect.y = 0;
 1981              		.loc 1 132 8 view .LVU609
 1982 0024 FFF7FEFF 		bl	lv_obj_has_flag
 1983              	.LVL218:
 132:Drivers/lvgl/src/indev/lv_indev_scroll.c ****         indev->pointer.scroll_throw_vect.y = 0;
 1984              		.loc 1 132 7 discriminator 1 view .LVU610
 1985 0028 10B9     		cbnz	r0, .L131
 133:Drivers/lvgl/src/indev/lv_indev_scroll.c ****         indev->pointer.scroll_throw_vect.x = 0;
 1986              		.loc 1 133 9 is_stmt 1 view .LVU611
 133:Drivers/lvgl/src/indev/lv_indev_scroll.c ****         indev->pointer.scroll_throw_vect.x = 0;
 1987              		.loc 1 133 44 is_stmt 0 view .LVU612
 1988 002a 0023     		movs	r3, #0
 1989 002c E365     		str	r3, [r4, #92]
 134:Drivers/lvgl/src/indev/lv_indev_scroll.c ****     }
 1990              		.loc 1 134 9 is_stmt 1 view .LVU613
 134:Drivers/lvgl/src/indev/lv_indev_scroll.c ****     }
 1991              		.loc 1 134 44 is_stmt 0 view .LVU614
 1992 002e A365     		str	r3, [r4, #88]
ARM GAS  /tmp/ccpQad6v.s 			page 61


 1993              	.L131:
 137:Drivers/lvgl/src/indev/lv_indev_scroll.c ****     lv_scroll_snap_t align_y = lv_obj_get_scroll_snap_y(scroll_obj);
 1994              		.loc 1 137 5 is_stmt 1 view .LVU615
 137:Drivers/lvgl/src/indev/lv_indev_scroll.c ****     lv_scroll_snap_t align_y = lv_obj_get_scroll_snap_y(scroll_obj);
 1995              		.loc 1 137 32 is_stmt 0 view .LVU616
 1996 0030 2846     		mov	r0, r5
 1997 0032 FFF7FEFF 		bl	lv_obj_get_scroll_snap_x
 1998              	.LVL219:
 1999 0036 8046     		mov	r8, r0
 2000              	.LVL220:
 138:Drivers/lvgl/src/indev/lv_indev_scroll.c **** 
 2001              		.loc 1 138 5 is_stmt 1 view .LVU617
 138:Drivers/lvgl/src/indev/lv_indev_scroll.c **** 
 2002              		.loc 1 138 32 is_stmt 0 view .LVU618
 2003 0038 2846     		mov	r0, r5
 2004 003a FFF7FEFF 		bl	lv_obj_get_scroll_snap_y
 2005              	.LVL221:
 2006 003e 0646     		mov	r6, r0
 2007              	.LVL222:
 140:Drivers/lvgl/src/indev/lv_indev_scroll.c ****         indev->pointer.scroll_throw_vect.x = 0;
 2008              		.loc 1 140 5 is_stmt 1 view .LVU619
 140:Drivers/lvgl/src/indev/lv_indev_scroll.c ****         indev->pointer.scroll_throw_vect.x = 0;
 2009              		.loc 1 140 34 is_stmt 0 view .LVU620
 2010 0040 94F8A830 		ldrb	r3, [r4, #168]	@ zero_extendqisi2
 2011 0044 03F00F03 		and	r3, r3, #15
 140:Drivers/lvgl/src/indev/lv_indev_scroll.c ****         indev->pointer.scroll_throw_vect.x = 0;
 2012              		.loc 1 140 7 view .LVU621
 2013 0048 0C2B     		cmp	r3, #12
 2014 004a 30D0     		beq	.L144
 166:Drivers/lvgl/src/indev/lv_indev_scroll.c ****         indev->pointer.scroll_throw_vect.y = 0;
 2015              		.loc 1 166 10 is_stmt 1 view .LVU622
 166:Drivers/lvgl/src/indev/lv_indev_scroll.c ****         indev->pointer.scroll_throw_vect.y = 0;
 2016              		.loc 1 166 12 is_stmt 0 view .LVU623
 2017 004c 032B     		cmp	r3, #3
 2018 004e 76D0     		beq	.L145
 2019              	.LVL223:
 2020              	.L134:
 194:Drivers/lvgl/src/indev/lv_indev_scroll.c ****         /*Revert if scrolled in*/
 2021              		.loc 1 194 5 is_stmt 1 view .LVU624
 194:Drivers/lvgl/src/indev/lv_indev_scroll.c ****         /*Revert if scrolled in*/
 2022              		.loc 1 194 40 is_stmt 0 view .LVU625
 2023 0050 A36D     		ldr	r3, [r4, #88]
 194:Drivers/lvgl/src/indev/lv_indev_scroll.c ****         /*Revert if scrolled in*/
 2024              		.loc 1 194 7 view .LVU626
 2025 0052 002B     		cmp	r3, #0
 2026 0054 DFD1     		bne	.L129
 194:Drivers/lvgl/src/indev/lv_indev_scroll.c ****         /*Revert if scrolled in*/
 2027              		.loc 1 194 83 discriminator 1 view .LVU627
 2028 0056 E36D     		ldr	r3, [r4, #92]
 194:Drivers/lvgl/src/indev/lv_indev_scroll.c ****         /*Revert if scrolled in*/
 2029              		.loc 1 194 48 discriminator 1 view .LVU628
 2030 0058 002B     		cmp	r3, #0
 2031 005a DCD1     		bne	.L129
 197:Drivers/lvgl/src/indev/lv_indev_scroll.c ****             int32_t st = lv_obj_get_scroll_top(scroll_obj);
 2032              		.loc 1 197 9 is_stmt 1 view .LVU629
 197:Drivers/lvgl/src/indev/lv_indev_scroll.c ****             int32_t st = lv_obj_get_scroll_top(scroll_obj);
 2033              		.loc 1 197 11 is_stmt 0 view .LVU630
ARM GAS  /tmp/ccpQad6v.s 			page 62


 2034 005c 002E     		cmp	r6, #0
 2035 005e 00F0BA80 		beq	.L146
 2036              	.L138:
 213:Drivers/lvgl/src/indev/lv_indev_scroll.c ****             int32_t sl = lv_obj_get_scroll_left(scroll_obj);
 2037              		.loc 1 213 9 is_stmt 1 view .LVU631
 213:Drivers/lvgl/src/indev/lv_indev_scroll.c ****             int32_t sl = lv_obj_get_scroll_left(scroll_obj);
 2038              		.loc 1 213 11 is_stmt 0 view .LVU632
 2039 0062 B8F1000F 		cmp	r8, #0
 2040 0066 10D1     		bne	.L140
 2041              	.LBB115:
 214:Drivers/lvgl/src/indev/lv_indev_scroll.c ****             int32_t sr = lv_obj_get_scroll_right(scroll_obj);
 2042              		.loc 1 214 13 is_stmt 1 view .LVU633
 214:Drivers/lvgl/src/indev/lv_indev_scroll.c ****             int32_t sr = lv_obj_get_scroll_right(scroll_obj);
 2043              		.loc 1 214 26 is_stmt 0 view .LVU634
 2044 0068 2846     		mov	r0, r5
 2045 006a FFF7FEFF 		bl	lv_obj_get_scroll_left
 2046              	.LVL224:
 2047 006e 0646     		mov	r6, r0
 2048              	.LVL225:
 215:Drivers/lvgl/src/indev/lv_indev_scroll.c ****             if(sl > 0 || sr > 0) {
 2049              		.loc 1 215 13 is_stmt 1 view .LVU635
 215:Drivers/lvgl/src/indev/lv_indev_scroll.c ****             if(sl > 0 || sr > 0) {
 2050              		.loc 1 215 26 is_stmt 0 view .LVU636
 2051 0070 2846     		mov	r0, r5
 2052              	.LVL226:
 215:Drivers/lvgl/src/indev/lv_indev_scroll.c ****             if(sl > 0 || sr > 0) {
 2053              		.loc 1 215 26 view .LVU637
 2054 0072 FFF7FEFF 		bl	lv_obj_get_scroll_right
 2055              	.LVL227:
 216:Drivers/lvgl/src/indev/lv_indev_scroll.c ****                 if(sl < 0) {
 2056              		.loc 1 216 13 is_stmt 1 view .LVU638
 216:Drivers/lvgl/src/indev/lv_indev_scroll.c ****                 if(sl < 0) {
 2057              		.loc 1 216 15 is_stmt 0 view .LVU639
 2058 0076 0028     		cmp	r0, #0
 2059 0078 D8BF     		it	le
 2060 007a 002E     		cmple	r6, #0
 2061 007c 05DD     		ble	.L140
 217:Drivers/lvgl/src/indev/lv_indev_scroll.c ****                     lv_obj_scroll_by(scroll_obj, sl, 0, LV_ANIM_ON);
 2062              		.loc 1 217 17 is_stmt 1 view .LVU640
 217:Drivers/lvgl/src/indev/lv_indev_scroll.c ****                     lv_obj_scroll_by(scroll_obj, sl, 0, LV_ANIM_ON);
 2063              		.loc 1 217 19 is_stmt 0 view .LVU641
 2064 007e 002E     		cmp	r6, #0
 2065 0080 C0F2D280 		blt	.L147
 221:Drivers/lvgl/src/indev/lv_indev_scroll.c ****                     lv_obj_scroll_by(scroll_obj, -sr, 0, LV_ANIM_ON);
 2066              		.loc 1 221 22 is_stmt 1 view .LVU642
 221:Drivers/lvgl/src/indev/lv_indev_scroll.c ****                     lv_obj_scroll_by(scroll_obj, -sr, 0, LV_ANIM_ON);
 2067              		.loc 1 221 24 is_stmt 0 view .LVU643
 2068 0084 0028     		cmp	r0, #0
 2069 0086 C0F2DB80 		blt	.L148
 2070              	.LVL228:
 2071              	.L140:
 221:Drivers/lvgl/src/indev/lv_indev_scroll.c ****                     lv_obj_scroll_by(scroll_obj, -sr, 0, LV_ANIM_ON);
 2072              		.loc 1 221 24 view .LVU644
 2073              	.LBE115:
 228:Drivers/lvgl/src/indev/lv_indev_scroll.c ****         if(indev->reset_query) return;
 2074              		.loc 1 228 9 is_stmt 1 view .LVU645
 2075 008a 2246     		mov	r2, r4
ARM GAS  /tmp/ccpQad6v.s 			page 63


 2076 008c 0E21     		movs	r1, #14
 2077 008e 2846     		mov	r0, r5
 2078 0090 FFF7FEFF 		bl	lv_obj_send_event
 2079              	.LVL229:
 229:Drivers/lvgl/src/indev/lv_indev_scroll.c **** 
 2080              		.loc 1 229 9 view .LVU646
 229:Drivers/lvgl/src/indev/lv_indev_scroll.c **** 
 2081              		.loc 1 229 12 is_stmt 0 view .LVU647
 2082 0094 E37A     		ldrb	r3, [r4, #11]	@ zero_extendqisi2
 229:Drivers/lvgl/src/indev/lv_indev_scroll.c **** 
 2083              		.loc 1 229 11 view .LVU648
 2084 0096 13F0020F 		tst	r3, #2
 2085 009a BCD1     		bne	.L129
 231:Drivers/lvgl/src/indev/lv_indev_scroll.c ****         indev->pointer.scroll_obj = NULL;
 2086              		.loc 1 231 9 is_stmt 1 view .LVU649
 231:Drivers/lvgl/src/indev/lv_indev_scroll.c ****         indev->pointer.scroll_obj = NULL;
 2087              		.loc 1 231 35 is_stmt 0 view .LVU650
 2088 009c 94F8A830 		ldrb	r3, [r4, #168]	@ zero_extendqisi2
 2089 00a0 23F00F03 		bic	r3, r3, #15
 2090 00a4 84F8A830 		strb	r3, [r4, #168]
 232:Drivers/lvgl/src/indev/lv_indev_scroll.c ****     }
 2091              		.loc 1 232 9 is_stmt 1 view .LVU651
 232:Drivers/lvgl/src/indev/lv_indev_scroll.c ****     }
 2092              		.loc 1 232 35 is_stmt 0 view .LVU652
 2093 00a8 0023     		movs	r3, #0
 2094 00aa 2367     		str	r3, [r4, #112]
 2095 00ac B3E7     		b	.L129
 2096              	.LVL230:
 2097              	.L144:
 141:Drivers/lvgl/src/indev/lv_indev_scroll.c ****         /*If no snapping "throw"*/
 2098              		.loc 1 141 9 is_stmt 1 view .LVU653
 141:Drivers/lvgl/src/indev/lv_indev_scroll.c ****         /*If no snapping "throw"*/
 2099              		.loc 1 141 44 is_stmt 0 view .LVU654
 2100 00ae 0023     		movs	r3, #0
 2101 00b0 A365     		str	r3, [r4, #88]
 143:Drivers/lvgl/src/indev/lv_indev_scroll.c ****             indev->pointer.scroll_throw_vect.y =
 2102              		.loc 1 143 9 is_stmt 1 view .LVU655
 143:Drivers/lvgl/src/indev/lv_indev_scroll.c ****             indev->pointer.scroll_throw_vect.y =
 2103              		.loc 1 143 11 is_stmt 0 view .LVU656
 2104 00b2 28BB     		cbnz	r0, .L133
 2105              	.LBB116:
 144:Drivers/lvgl/src/indev/lv_indev_scroll.c ****                 indev->pointer.scroll_throw_vect.y * (100 - scroll_throw) / 100;
 2106              		.loc 1 144 13 is_stmt 1 view .LVU657
 145:Drivers/lvgl/src/indev/lv_indev_scroll.c **** 
 2107              		.loc 1 145 49 is_stmt 0 view .LVU658
 2108 00b4 E36D     		ldr	r3, [r4, #92]
 145:Drivers/lvgl/src/indev/lv_indev_scroll.c **** 
 2109              		.loc 1 145 59 view .LVU659
 2110 00b6 C7F16407 		rsb	r7, r7, #100
 2111              	.LVL231:
 145:Drivers/lvgl/src/indev/lv_indev_scroll.c **** 
 2112              		.loc 1 145 52 view .LVU660
 2113 00ba 07FB03F3 		mul	r3, r7, r3
 145:Drivers/lvgl/src/indev/lv_indev_scroll.c **** 
 2114              		.loc 1 145 75 view .LVU661
 2115 00be 664A     		ldr	r2, .L150
 2116 00c0 82FB0312 		smull	r1, r2, r2, r3
ARM GAS  /tmp/ccpQad6v.s 			page 64


 2117 00c4 DB17     		asrs	r3, r3, #31
 2118 00c6 C3EB6213 		rsb	r3, r3, r2, asr #5
 144:Drivers/lvgl/src/indev/lv_indev_scroll.c ****                 indev->pointer.scroll_throw_vect.y * (100 - scroll_throw) / 100;
 2119              		.loc 1 144 48 view .LVU662
 2120 00ca E365     		str	r3, [r4, #92]
 147:Drivers/lvgl/src/indev/lv_indev_scroll.c ****             int32_t st = lv_obj_get_scroll_top(scroll_obj);
 2121              		.loc 1 147 13 is_stmt 1 view .LVU663
 147:Drivers/lvgl/src/indev/lv_indev_scroll.c ****             int32_t st = lv_obj_get_scroll_top(scroll_obj);
 2122              		.loc 1 147 26 is_stmt 0 view .LVU664
 2123 00cc 2846     		mov	r0, r5
 2124              	.LVL232:
 147:Drivers/lvgl/src/indev/lv_indev_scroll.c ****             int32_t st = lv_obj_get_scroll_top(scroll_obj);
 2125              		.loc 1 147 26 view .LVU665
 2126 00ce FFF7FEFF 		bl	lv_obj_get_scroll_bottom
 2127              	.LVL233:
 2128 00d2 0746     		mov	r7, r0
 2129              	.LVL234:
 148:Drivers/lvgl/src/indev/lv_indev_scroll.c **** 
 2130              		.loc 1 148 13 is_stmt 1 view .LVU666
 148:Drivers/lvgl/src/indev/lv_indev_scroll.c **** 
 2131              		.loc 1 148 26 is_stmt 0 view .LVU667
 2132 00d4 2846     		mov	r0, r5
 2133              	.LVL235:
 148:Drivers/lvgl/src/indev/lv_indev_scroll.c **** 
 2134              		.loc 1 148 26 view .LVU668
 2135 00d6 FFF7FEFF 		bl	lv_obj_get_scroll_top
 2136              	.LVL236:
 2137 00da 0246     		mov	r2, r0
 2138              	.LVL237:
 150:Drivers/lvgl/src/indev/lv_indev_scroll.c ****                                                               LV_DIR_VER);
 2139              		.loc 1 150 13 is_stmt 1 view .LVU669
 150:Drivers/lvgl/src/indev/lv_indev_scroll.c ****                                                               LV_DIR_VER);
 2140              		.loc 1 150 50 is_stmt 0 view .LVU670
 2141 00dc 0C23     		movs	r3, #12
 2142 00de 0093     		str	r3, [sp]
 2143 00e0 3B46     		mov	r3, r7
 2144 00e2 E16D     		ldr	r1, [r4, #92]
 2145 00e4 2846     		mov	r0, r5
 2146              	.LVL238:
 150:Drivers/lvgl/src/indev/lv_indev_scroll.c ****                                                               LV_DIR_VER);
 2147              		.loc 1 150 50 view .LVU671
 2148 00e6 FFF7FEFF 		bl	elastic_diff
 2149              	.LVL239:
 150:Drivers/lvgl/src/indev/lv_indev_scroll.c ****                                                               LV_DIR_VER);
 2150              		.loc 1 150 50 view .LVU672
 2151 00ea 0246     		mov	r2, r0
 150:Drivers/lvgl/src/indev/lv_indev_scroll.c ****                                                               LV_DIR_VER);
 2152              		.loc 1 150 48 discriminator 1 view .LVU673
 2153 00ec E065     		str	r0, [r4, #92]
 153:Drivers/lvgl/src/indev/lv_indev_scroll.c ****             if(indev->reset_query) return;
 2154              		.loc 1 153 13 is_stmt 1 view .LVU674
 2155 00ee 0021     		movs	r1, #0
 2156 00f0 2846     		mov	r0, r5
 2157 00f2 FFF7FEFF 		bl	lv_obj_scroll_by_raw
 2158              	.LVL240:
 154:Drivers/lvgl/src/indev/lv_indev_scroll.c ****         }
 2159              		.loc 1 154 13 view .LVU675
ARM GAS  /tmp/ccpQad6v.s 			page 65


 154:Drivers/lvgl/src/indev/lv_indev_scroll.c ****         }
 2160              		.loc 1 154 16 is_stmt 0 view .LVU676
 2161 00f6 E37A     		ldrb	r3, [r4, #11]	@ zero_extendqisi2
 154:Drivers/lvgl/src/indev/lv_indev_scroll.c ****         }
 2162              		.loc 1 154 15 view .LVU677
 2163 00f8 13F0020F 		tst	r3, #2
 2164 00fc A8D0     		beq	.L134
 2165 00fe 8AE7     		b	.L129
 2166              	.LVL241:
 2167              	.L133:
 154:Drivers/lvgl/src/indev/lv_indev_scroll.c ****         }
 2168              		.loc 1 154 15 view .LVU678
 2169              	.LBE116:
 2170              	.LBB117:
 158:Drivers/lvgl/src/indev/lv_indev_scroll.c ****             indev->pointer.scroll_throw_vect.y = 0;
 2171              		.loc 1 158 13 is_stmt 1 view .LVU679
 158:Drivers/lvgl/src/indev/lv_indev_scroll.c ****             indev->pointer.scroll_throw_vect.y = 0;
 2172              		.loc 1 158 30 is_stmt 0 view .LVU680
 2173 0100 0C21     		movs	r1, #12
 2174 0102 2046     		mov	r0, r4
 2175              	.LVL242:
 158:Drivers/lvgl/src/indev/lv_indev_scroll.c ****             indev->pointer.scroll_throw_vect.y = 0;
 2176              		.loc 1 158 30 view .LVU681
 2177 0104 FFF7FEFF 		bl	lv_indev_scroll_throw_predict
 2178              	.LVL243:
 158:Drivers/lvgl/src/indev/lv_indev_scroll.c ****             indev->pointer.scroll_throw_vect.y = 0;
 2179              		.loc 1 158 21 discriminator 1 view .LVU682
 2180 0108 0390     		str	r0, [sp, #12]
 159:Drivers/lvgl/src/indev/lv_indev_scroll.c ****             scroll_limit_diff(indev, NULL, &diff_y);
 2181              		.loc 1 159 13 is_stmt 1 view .LVU683
 159:Drivers/lvgl/src/indev/lv_indev_scroll.c ****             scroll_limit_diff(indev, NULL, &diff_y);
 2182              		.loc 1 159 48 is_stmt 0 view .LVU684
 2183 010a 0027     		movs	r7, #0
 2184              	.LVL244:
 159:Drivers/lvgl/src/indev/lv_indev_scroll.c ****             scroll_limit_diff(indev, NULL, &diff_y);
 2185              		.loc 1 159 48 view .LVU685
 2186 010c E765     		str	r7, [r4, #92]
 160:Drivers/lvgl/src/indev/lv_indev_scroll.c ****             int32_t y = find_snap_point_y(scroll_obj, LV_COORD_MIN, LV_COORD_MAX, diff_y);
 2187              		.loc 1 160 13 is_stmt 1 view .LVU686
 2188 010e 03AA     		add	r2, sp, #12
 2189 0110 3946     		mov	r1, r7
 2190 0112 2046     		mov	r0, r4
 2191 0114 FFF7FEFF 		bl	scroll_limit_diff
 2192              	.LVL245:
 161:Drivers/lvgl/src/indev/lv_indev_scroll.c ****             lv_obj_scroll_by(scroll_obj, 0, diff_y + y, LV_ANIM_ON);
 2193              		.loc 1 161 13 view .LVU687
 161:Drivers/lvgl/src/indev/lv_indev_scroll.c ****             lv_obj_scroll_by(scroll_obj, 0, diff_y + y, LV_ANIM_ON);
 2194              		.loc 1 161 25 is_stmt 0 view .LVU688
 2195 0118 039B     		ldr	r3, [sp, #12]
 2196 011a 6FF06042 		mvn	r2, #-536870912
 2197 011e 4F49     		ldr	r1, .L150+4
 2198 0120 2846     		mov	r0, r5
 2199 0122 FFF7FEFF 		bl	find_snap_point_y
 2200              	.LVL246:
 162:Drivers/lvgl/src/indev/lv_indev_scroll.c ****             if(indev->reset_query) return;
 2201              		.loc 1 162 13 is_stmt 1 view .LVU689
 2202 0126 0123     		movs	r3, #1
ARM GAS  /tmp/ccpQad6v.s 			page 66


 2203 0128 039A     		ldr	r2, [sp, #12]
 2204 012a 0244     		add	r2, r2, r0
 2205 012c 3946     		mov	r1, r7
 2206 012e 2846     		mov	r0, r5
 2207              	.LVL247:
 162:Drivers/lvgl/src/indev/lv_indev_scroll.c ****             if(indev->reset_query) return;
 2208              		.loc 1 162 13 is_stmt 0 view .LVU690
 2209 0130 FFF7FEFF 		bl	lv_obj_scroll_by
 2210              	.LVL248:
 163:Drivers/lvgl/src/indev/lv_indev_scroll.c ****         }
 2211              		.loc 1 163 13 is_stmt 1 view .LVU691
 163:Drivers/lvgl/src/indev/lv_indev_scroll.c ****         }
 2212              		.loc 1 163 16 is_stmt 0 view .LVU692
 2213 0134 E37A     		ldrb	r3, [r4, #11]	@ zero_extendqisi2
 163:Drivers/lvgl/src/indev/lv_indev_scroll.c ****         }
 2214              		.loc 1 163 15 view .LVU693
 2215 0136 13F0020F 		tst	r3, #2
 2216 013a 89D0     		beq	.L134
 2217 013c 6BE7     		b	.L129
 2218              	.LVL249:
 2219              	.L145:
 163:Drivers/lvgl/src/indev/lv_indev_scroll.c ****         }
 2220              		.loc 1 163 15 view .LVU694
 2221              	.LBE117:
 167:Drivers/lvgl/src/indev/lv_indev_scroll.c ****         /*If no snapping "throw"*/
 2222              		.loc 1 167 9 is_stmt 1 view .LVU695
 167:Drivers/lvgl/src/indev/lv_indev_scroll.c ****         /*If no snapping "throw"*/
 2223              		.loc 1 167 44 is_stmt 0 view .LVU696
 2224 013e 0023     		movs	r3, #0
 2225 0140 E365     		str	r3, [r4, #92]
 169:Drivers/lvgl/src/indev/lv_indev_scroll.c ****             indev->pointer.scroll_throw_vect.x =
 2226              		.loc 1 169 9 is_stmt 1 view .LVU697
 169:Drivers/lvgl/src/indev/lv_indev_scroll.c ****             indev->pointer.scroll_throw_vect.x =
 2227              		.loc 1 169 11 is_stmt 0 view .LVU698
 2228 0142 B8F1000F 		cmp	r8, #0
 2229 0146 26D1     		bne	.L136
 2230              	.LBB118:
 170:Drivers/lvgl/src/indev/lv_indev_scroll.c ****                 indev->pointer.scroll_throw_vect.x * (100 - scroll_throw) / 100;
 2231              		.loc 1 170 13 is_stmt 1 view .LVU699
 171:Drivers/lvgl/src/indev/lv_indev_scroll.c **** 
 2232              		.loc 1 171 49 is_stmt 0 view .LVU700
 2233 0148 A36D     		ldr	r3, [r4, #88]
 171:Drivers/lvgl/src/indev/lv_indev_scroll.c **** 
 2234              		.loc 1 171 59 view .LVU701
 2235 014a C7F16407 		rsb	r7, r7, #100
 2236              	.LVL250:
 171:Drivers/lvgl/src/indev/lv_indev_scroll.c **** 
 2237              		.loc 1 171 52 view .LVU702
 2238 014e 07FB03F3 		mul	r3, r7, r3
 171:Drivers/lvgl/src/indev/lv_indev_scroll.c **** 
 2239              		.loc 1 171 75 view .LVU703
 2240 0152 414A     		ldr	r2, .L150
 2241 0154 82FB0312 		smull	r1, r2, r2, r3
 2242 0158 DB17     		asrs	r3, r3, #31
 2243 015a C3EB6213 		rsb	r3, r3, r2, asr #5
 170:Drivers/lvgl/src/indev/lv_indev_scroll.c ****                 indev->pointer.scroll_throw_vect.x * (100 - scroll_throw) / 100;
 2244              		.loc 1 170 48 view .LVU704
ARM GAS  /tmp/ccpQad6v.s 			page 67


 2245 015e A365     		str	r3, [r4, #88]
 173:Drivers/lvgl/src/indev/lv_indev_scroll.c ****             int32_t sr = lv_obj_get_scroll_right(scroll_obj);
 2246              		.loc 1 173 13 is_stmt 1 view .LVU705
 173:Drivers/lvgl/src/indev/lv_indev_scroll.c ****             int32_t sr = lv_obj_get_scroll_right(scroll_obj);
 2247              		.loc 1 173 26 is_stmt 0 view .LVU706
 2248 0160 2846     		mov	r0, r5
 2249              	.LVL251:
 173:Drivers/lvgl/src/indev/lv_indev_scroll.c ****             int32_t sr = lv_obj_get_scroll_right(scroll_obj);
 2250              		.loc 1 173 26 view .LVU707
 2251 0162 FFF7FEFF 		bl	lv_obj_get_scroll_left
 2252              	.LVL252:
 2253 0166 0746     		mov	r7, r0
 2254              	.LVL253:
 174:Drivers/lvgl/src/indev/lv_indev_scroll.c **** 
 2255              		.loc 1 174 13 is_stmt 1 view .LVU708
 174:Drivers/lvgl/src/indev/lv_indev_scroll.c **** 
 2256              		.loc 1 174 26 is_stmt 0 view .LVU709
 2257 0168 2846     		mov	r0, r5
 2258              	.LVL254:
 174:Drivers/lvgl/src/indev/lv_indev_scroll.c **** 
 2259              		.loc 1 174 26 view .LVU710
 2260 016a FFF7FEFF 		bl	lv_obj_get_scroll_right
 2261              	.LVL255:
 2262 016e 0346     		mov	r3, r0
 2263              	.LVL256:
 176:Drivers/lvgl/src/indev/lv_indev_scroll.c ****                                                               LV_DIR_HOR);
 2264              		.loc 1 176 13 is_stmt 1 view .LVU711
 176:Drivers/lvgl/src/indev/lv_indev_scroll.c ****                                                               LV_DIR_HOR);
 2265              		.loc 1 176 50 is_stmt 0 view .LVU712
 2266 0170 0322     		movs	r2, #3
 2267 0172 0092     		str	r2, [sp]
 2268 0174 3A46     		mov	r2, r7
 2269 0176 A16D     		ldr	r1, [r4, #88]
 2270 0178 2846     		mov	r0, r5
 2271              	.LVL257:
 176:Drivers/lvgl/src/indev/lv_indev_scroll.c ****                                                               LV_DIR_HOR);
 2272              		.loc 1 176 50 view .LVU713
 2273 017a FFF7FEFF 		bl	elastic_diff
 2274              	.LVL258:
 176:Drivers/lvgl/src/indev/lv_indev_scroll.c ****                                                               LV_DIR_HOR);
 2275              		.loc 1 176 50 view .LVU714
 2276 017e 0146     		mov	r1, r0
 176:Drivers/lvgl/src/indev/lv_indev_scroll.c ****                                                               LV_DIR_HOR);
 2277              		.loc 1 176 48 discriminator 1 view .LVU715
 2278 0180 A065     		str	r0, [r4, #88]
 179:Drivers/lvgl/src/indev/lv_indev_scroll.c ****             if(indev->reset_query) return;
 2279              		.loc 1 179 13 is_stmt 1 view .LVU716
 2280 0182 0022     		movs	r2, #0
 2281 0184 2846     		mov	r0, r5
 2282 0186 FFF7FEFF 		bl	lv_obj_scroll_by_raw
 2283              	.LVL259:
 180:Drivers/lvgl/src/indev/lv_indev_scroll.c ****         }
 2284              		.loc 1 180 13 view .LVU717
 180:Drivers/lvgl/src/indev/lv_indev_scroll.c ****         }
 2285              		.loc 1 180 16 is_stmt 0 view .LVU718
 2286 018a E37A     		ldrb	r3, [r4, #11]	@ zero_extendqisi2
 180:Drivers/lvgl/src/indev/lv_indev_scroll.c ****         }
ARM GAS  /tmp/ccpQad6v.s 			page 68


 2287              		.loc 1 180 15 view .LVU719
 2288 018c 13F0020F 		tst	r3, #2
 2289 0190 3FF45EAF 		beq	.L134
 2290 0194 3FE7     		b	.L129
 2291              	.LVL260:
 2292              	.L136:
 180:Drivers/lvgl/src/indev/lv_indev_scroll.c ****         }
 2293              		.loc 1 180 15 view .LVU720
 2294              	.LBE118:
 2295              	.LBB119:
 184:Drivers/lvgl/src/indev/lv_indev_scroll.c ****             indev->pointer.scroll_throw_vect.x = 0;
 2296              		.loc 1 184 13 is_stmt 1 view .LVU721
 184:Drivers/lvgl/src/indev/lv_indev_scroll.c ****             indev->pointer.scroll_throw_vect.x = 0;
 2297              		.loc 1 184 30 is_stmt 0 view .LVU722
 2298 0196 0321     		movs	r1, #3
 2299 0198 2046     		mov	r0, r4
 2300              	.LVL261:
 184:Drivers/lvgl/src/indev/lv_indev_scroll.c ****             indev->pointer.scroll_throw_vect.x = 0;
 2301              		.loc 1 184 30 view .LVU723
 2302 019a FFF7FEFF 		bl	lv_indev_scroll_throw_predict
 2303              	.LVL262:
 184:Drivers/lvgl/src/indev/lv_indev_scroll.c ****             indev->pointer.scroll_throw_vect.x = 0;
 2304              		.loc 1 184 21 discriminator 1 view .LVU724
 2305 019e 0390     		str	r0, [sp, #12]
 185:Drivers/lvgl/src/indev/lv_indev_scroll.c ****             scroll_limit_diff(indev, &diff_x, NULL);
 2306              		.loc 1 185 13 is_stmt 1 view .LVU725
 185:Drivers/lvgl/src/indev/lv_indev_scroll.c ****             scroll_limit_diff(indev, &diff_x, NULL);
 2307              		.loc 1 185 48 is_stmt 0 view .LVU726
 2308 01a0 0027     		movs	r7, #0
 2309              	.LVL263:
 185:Drivers/lvgl/src/indev/lv_indev_scroll.c ****             scroll_limit_diff(indev, &diff_x, NULL);
 2310              		.loc 1 185 48 view .LVU727
 2311 01a2 A765     		str	r7, [r4, #88]
 186:Drivers/lvgl/src/indev/lv_indev_scroll.c ****             int32_t x = find_snap_point_x(scroll_obj, LV_COORD_MIN, LV_COORD_MAX, diff_x);
 2312              		.loc 1 186 13 is_stmt 1 view .LVU728
 2313 01a4 3A46     		mov	r2, r7
 2314 01a6 03A9     		add	r1, sp, #12
 2315 01a8 2046     		mov	r0, r4
 2316 01aa FFF7FEFF 		bl	scroll_limit_diff
 2317              	.LVL264:
 187:Drivers/lvgl/src/indev/lv_indev_scroll.c ****             lv_obj_scroll_by(scroll_obj, x + diff_x, 0, LV_ANIM_ON);
 2318              		.loc 1 187 13 view .LVU729
 187:Drivers/lvgl/src/indev/lv_indev_scroll.c ****             lv_obj_scroll_by(scroll_obj, x + diff_x, 0, LV_ANIM_ON);
 2319              		.loc 1 187 25 is_stmt 0 view .LVU730
 2320 01ae 039B     		ldr	r3, [sp, #12]
 2321 01b0 6FF06042 		mvn	r2, #-536870912
 2322 01b4 2949     		ldr	r1, .L150+4
 2323 01b6 2846     		mov	r0, r5
 2324 01b8 FFF7FEFF 		bl	find_snap_point_x
 2325              	.LVL265:
 188:Drivers/lvgl/src/indev/lv_indev_scroll.c ****             if(indev->reset_query) return;
 2326              		.loc 1 188 13 is_stmt 1 view .LVU731
 2327 01bc 0123     		movs	r3, #1
 2328 01be 3A46     		mov	r2, r7
 2329 01c0 0399     		ldr	r1, [sp, #12]
 2330 01c2 0144     		add	r1, r1, r0
 2331 01c4 2846     		mov	r0, r5
ARM GAS  /tmp/ccpQad6v.s 			page 69


 2332              	.LVL266:
 188:Drivers/lvgl/src/indev/lv_indev_scroll.c ****             if(indev->reset_query) return;
 2333              		.loc 1 188 13 is_stmt 0 view .LVU732
 2334 01c6 FFF7FEFF 		bl	lv_obj_scroll_by
 2335              	.LVL267:
 189:Drivers/lvgl/src/indev/lv_indev_scroll.c ****         }
 2336              		.loc 1 189 13 is_stmt 1 view .LVU733
 189:Drivers/lvgl/src/indev/lv_indev_scroll.c ****         }
 2337              		.loc 1 189 16 is_stmt 0 view .LVU734
 2338 01ca E37A     		ldrb	r3, [r4, #11]	@ zero_extendqisi2
 189:Drivers/lvgl/src/indev/lv_indev_scroll.c ****         }
 2339              		.loc 1 189 15 view .LVU735
 2340 01cc 13F0020F 		tst	r3, #2
 2341 01d0 3FF43EAF 		beq	.L134
 2342 01d4 1FE7     		b	.L129
 2343              	.LVL268:
 2344              	.L146:
 189:Drivers/lvgl/src/indev/lv_indev_scroll.c ****         }
 2345              		.loc 1 189 15 view .LVU736
 2346              	.LBE119:
 2347              	.LBB120:
 198:Drivers/lvgl/src/indev/lv_indev_scroll.c ****             int32_t sb = lv_obj_get_scroll_bottom(scroll_obj);
 2348              		.loc 1 198 13 is_stmt 1 view .LVU737
 198:Drivers/lvgl/src/indev/lv_indev_scroll.c ****             int32_t sb = lv_obj_get_scroll_bottom(scroll_obj);
 2349              		.loc 1 198 26 is_stmt 0 view .LVU738
 2350 01d6 2846     		mov	r0, r5
 2351 01d8 FFF7FEFF 		bl	lv_obj_get_scroll_top
 2352              	.LVL269:
 2353 01dc 0646     		mov	r6, r0
 2354              	.LVL270:
 199:Drivers/lvgl/src/indev/lv_indev_scroll.c ****             if(st > 0 || sb > 0) {
 2355              		.loc 1 199 13 is_stmt 1 view .LVU739
 199:Drivers/lvgl/src/indev/lv_indev_scroll.c ****             if(st > 0 || sb > 0) {
 2356              		.loc 1 199 26 is_stmt 0 view .LVU740
 2357 01de 2846     		mov	r0, r5
 2358              	.LVL271:
 199:Drivers/lvgl/src/indev/lv_indev_scroll.c ****             if(st > 0 || sb > 0) {
 2359              		.loc 1 199 26 view .LVU741
 2360 01e0 FFF7FEFF 		bl	lv_obj_get_scroll_bottom
 2361              	.LVL272:
 200:Drivers/lvgl/src/indev/lv_indev_scroll.c ****                 if(st < 0) {
 2362              		.loc 1 200 13 is_stmt 1 view .LVU742
 200:Drivers/lvgl/src/indev/lv_indev_scroll.c ****                 if(st < 0) {
 2363              		.loc 1 200 15 is_stmt 0 view .LVU743
 2364 01e4 0028     		cmp	r0, #0
 2365 01e6 D8BF     		it	le
 2366 01e8 002E     		cmple	r6, #0
 2367 01ea 7FF73AAF 		ble	.L138
 201:Drivers/lvgl/src/indev/lv_indev_scroll.c ****                     lv_obj_scroll_by(scroll_obj, 0, st, LV_ANIM_ON);
 2368              		.loc 1 201 17 is_stmt 1 view .LVU744
 201:Drivers/lvgl/src/indev/lv_indev_scroll.c ****                     lv_obj_scroll_by(scroll_obj, 0, st, LV_ANIM_ON);
 2369              		.loc 1 201 19 is_stmt 0 view .LVU745
 2370 01ee 002E     		cmp	r6, #0
 2371 01f0 0EDB     		blt	.L149
 205:Drivers/lvgl/src/indev/lv_indev_scroll.c ****                     lv_obj_scroll_by(scroll_obj, 0, -sb, LV_ANIM_ON);
 2372              		.loc 1 205 22 is_stmt 1 view .LVU746
 205:Drivers/lvgl/src/indev/lv_indev_scroll.c ****                     lv_obj_scroll_by(scroll_obj, 0, -sb, LV_ANIM_ON);
ARM GAS  /tmp/ccpQad6v.s 			page 70


 2373              		.loc 1 205 24 is_stmt 0 view .LVU747
 2374 01f2 0028     		cmp	r0, #0
 2375 01f4 BFF635AF 		bge	.L138
 206:Drivers/lvgl/src/indev/lv_indev_scroll.c ****                     if(indev->reset_query) return;
 2376              		.loc 1 206 21 is_stmt 1 view .LVU748
 2377 01f8 0123     		movs	r3, #1
 2378 01fa 4242     		rsbs	r2, r0, #0
 2379 01fc 0021     		movs	r1, #0
 2380 01fe 2846     		mov	r0, r5
 2381              	.LVL273:
 206:Drivers/lvgl/src/indev/lv_indev_scroll.c ****                     if(indev->reset_query) return;
 2382              		.loc 1 206 21 is_stmt 0 view .LVU749
 2383 0200 FFF7FEFF 		bl	lv_obj_scroll_by
 2384              	.LVL274:
 207:Drivers/lvgl/src/indev/lv_indev_scroll.c ****                 }
 2385              		.loc 1 207 21 is_stmt 1 view .LVU750
 207:Drivers/lvgl/src/indev/lv_indev_scroll.c ****                 }
 2386              		.loc 1 207 24 is_stmt 0 view .LVU751
 2387 0204 E37A     		ldrb	r3, [r4, #11]	@ zero_extendqisi2
 207:Drivers/lvgl/src/indev/lv_indev_scroll.c ****                 }
 2388              		.loc 1 207 23 view .LVU752
 2389 0206 13F0020F 		tst	r3, #2
 2390 020a 3FF42AAF 		beq	.L138
 2391 020e 02E7     		b	.L129
 2392              	.LVL275:
 2393              	.L149:
 202:Drivers/lvgl/src/indev/lv_indev_scroll.c ****                     if(indev->reset_query) return;
 2394              		.loc 1 202 21 is_stmt 1 view .LVU753
 2395 0210 0123     		movs	r3, #1
 2396 0212 3246     		mov	r2, r6
 2397 0214 0021     		movs	r1, #0
 2398 0216 2846     		mov	r0, r5
 2399              	.LVL276:
 202:Drivers/lvgl/src/indev/lv_indev_scroll.c ****                     if(indev->reset_query) return;
 2400              		.loc 1 202 21 is_stmt 0 view .LVU754
 2401 0218 FFF7FEFF 		bl	lv_obj_scroll_by
 2402              	.LVL277:
 203:Drivers/lvgl/src/indev/lv_indev_scroll.c ****                 }
 2403              		.loc 1 203 21 is_stmt 1 view .LVU755
 203:Drivers/lvgl/src/indev/lv_indev_scroll.c ****                 }
 2404              		.loc 1 203 24 is_stmt 0 view .LVU756
 2405 021c E37A     		ldrb	r3, [r4, #11]	@ zero_extendqisi2
 203:Drivers/lvgl/src/indev/lv_indev_scroll.c ****                 }
 2406              		.loc 1 203 23 view .LVU757
 2407 021e 13F0020F 		tst	r3, #2
 2408 0222 3FF41EAF 		beq	.L138
 2409 0226 F6E6     		b	.L129
 2410              	.LVL278:
 2411              	.L147:
 203:Drivers/lvgl/src/indev/lv_indev_scroll.c ****                 }
 2412              		.loc 1 203 23 view .LVU758
 2413              	.LBE120:
 2414              	.LBB121:
 218:Drivers/lvgl/src/indev/lv_indev_scroll.c ****                     if(indev->reset_query) return;
 2415              		.loc 1 218 21 is_stmt 1 view .LVU759
 2416 0228 0123     		movs	r3, #1
 2417 022a 0022     		movs	r2, #0
ARM GAS  /tmp/ccpQad6v.s 			page 71


 2418 022c 3146     		mov	r1, r6
 2419 022e 2846     		mov	r0, r5
 2420              	.LVL279:
 218:Drivers/lvgl/src/indev/lv_indev_scroll.c ****                     if(indev->reset_query) return;
 2421              		.loc 1 218 21 is_stmt 0 view .LVU760
 2422 0230 FFF7FEFF 		bl	lv_obj_scroll_by
 2423              	.LVL280:
 219:Drivers/lvgl/src/indev/lv_indev_scroll.c ****                 }
 2424              		.loc 1 219 21 is_stmt 1 view .LVU761
 219:Drivers/lvgl/src/indev/lv_indev_scroll.c ****                 }
 2425              		.loc 1 219 24 is_stmt 0 view .LVU762
 2426 0234 E37A     		ldrb	r3, [r4, #11]	@ zero_extendqisi2
 219:Drivers/lvgl/src/indev/lv_indev_scroll.c ****                 }
 2427              		.loc 1 219 23 view .LVU763
 2428 0236 13F0020F 		tst	r3, #2
 2429 023a 3FF426AF 		beq	.L140
 2430 023e EAE6     		b	.L129
 2431              	.LVL281:
 2432              	.L148:
 222:Drivers/lvgl/src/indev/lv_indev_scroll.c ****                     if(indev->reset_query) return;
 2433              		.loc 1 222 21 is_stmt 1 view .LVU764
 2434 0240 0123     		movs	r3, #1
 2435 0242 0022     		movs	r2, #0
 2436 0244 4142     		rsbs	r1, r0, #0
 2437 0246 2846     		mov	r0, r5
 2438              	.LVL282:
 222:Drivers/lvgl/src/indev/lv_indev_scroll.c ****                     if(indev->reset_query) return;
 2439              		.loc 1 222 21 is_stmt 0 view .LVU765
 2440 0248 FFF7FEFF 		bl	lv_obj_scroll_by
 2441              	.LVL283:
 223:Drivers/lvgl/src/indev/lv_indev_scroll.c ****                 }
 2442              		.loc 1 223 21 is_stmt 1 view .LVU766
 223:Drivers/lvgl/src/indev/lv_indev_scroll.c ****                 }
 2443              		.loc 1 223 24 is_stmt 0 view .LVU767
 2444 024c E37A     		ldrb	r3, [r4, #11]	@ zero_extendqisi2
 223:Drivers/lvgl/src/indev/lv_indev_scroll.c ****                 }
 2445              		.loc 1 223 23 view .LVU768
 2446 024e 13F0020F 		tst	r3, #2
 2447 0252 3FF41AAF 		beq	.L140
 2448 0256 DEE6     		b	.L129
 2449              	.L151:
 2450              		.align	2
 2451              	.L150:
 2452 0258 1F85EB51 		.word	1374389535
 2453 025c 010000E0 		.word	-536870911
 2454              	.LBE121:
 2455              		.cfi_endproc
 2456              	.LFE172:
 2458              		.section	.text.lv_indev_scroll_get_snap_dist,"ax",%progbits
 2459              		.align	1
 2460              		.global	lv_indev_scroll_get_snap_dist
 2461              		.syntax unified
 2462              		.thumb
 2463              		.thumb_func
 2465              	lv_indev_scroll_get_snap_dist:
 2466              	.LVL284:
 2467              	.LFB174:
ARM GAS  /tmp/ccpQad6v.s 			page 72


 262:Drivers/lvgl/src/indev/lv_indev_scroll.c ****     p->x = find_snap_point_x(obj, obj->coords.x1, obj->coords.x2, 0);
 2468              		.loc 1 262 1 is_stmt 1 view -0
 2469              		.cfi_startproc
 2470              		@ args = 0, pretend = 0, frame = 0
 2471              		@ frame_needed = 0, uses_anonymous_args = 0
 262:Drivers/lvgl/src/indev/lv_indev_scroll.c ****     p->x = find_snap_point_x(obj, obj->coords.x1, obj->coords.x2, 0);
 2472              		.loc 1 262 1 is_stmt 0 view .LVU770
 2473 0000 38B5     		push	{r3, r4, r5, lr}
 2474              	.LCFI26:
 2475              		.cfi_def_cfa_offset 16
 2476              		.cfi_offset 3, -16
 2477              		.cfi_offset 4, -12
 2478              		.cfi_offset 5, -8
 2479              		.cfi_offset 14, -4
 2480 0002 0446     		mov	r4, r0
 2481 0004 0D46     		mov	r5, r1
 263:Drivers/lvgl/src/indev/lv_indev_scroll.c ****     p->y = find_snap_point_y(obj, obj->coords.y1, obj->coords.y2, 0);
 2482              		.loc 1 263 5 is_stmt 1 view .LVU771
