ARM GAS  /tmp/ccTpAOHg.s 			page 1


   1              		.cpu cortex-m7
   2              		.arch armv7e-m
   3              		.fpu fpv5-sp-d16
   4              		.eabi_attribute 27, 1
   5              		.eabi_attribute 28, 1
   6              		.eabi_attribute 20, 1
   7              		.eabi_attribute 21, 1
   8              		.eabi_attribute 23, 3
   9              		.eabi_attribute 24, 1
  10              		.eabi_attribute 25, 1
  11              		.eabi_attribute 26, 1
  12              		.eabi_attribute 30, 1
  13              		.eabi_attribute 34, 1
  14              		.eabi_attribute 18, 4
  15              		.file	"lv_mem_core_clib.c"
  16              		.text
  17              	.Ltext0:
  18              		.cfi_sections	.debug_frame
  19              		.file 1 "Drivers/lvgl/src/stdlib/clib/lv_mem_core_clib.c"
  20              		.section	.text.lv_mem_init,"ax",%progbits
  21              		.align	1
  22              		.global	lv_mem_init
  23              		.syntax unified
  24              		.thumb
  25              		.thumb_func
  27              	lv_mem_init:
  28              	.LFB2:
   1:Drivers/lvgl/src/stdlib/clib/lv_mem_core_clib.c **** /**
   2:Drivers/lvgl/src/stdlib/clib/lv_mem_core_clib.c ****  * @file lv_malloc_core.c
   3:Drivers/lvgl/src/stdlib/clib/lv_mem_core_clib.c ****  */
   4:Drivers/lvgl/src/stdlib/clib/lv_mem_core_clib.c **** 
   5:Drivers/lvgl/src/stdlib/clib/lv_mem_core_clib.c **** /*********************
   6:Drivers/lvgl/src/stdlib/clib/lv_mem_core_clib.c ****  *      INCLUDES
   7:Drivers/lvgl/src/stdlib/clib/lv_mem_core_clib.c ****  *********************/
   8:Drivers/lvgl/src/stdlib/clib/lv_mem_core_clib.c **** #include "../lv_mem.h"
   9:Drivers/lvgl/src/stdlib/clib/lv_mem_core_clib.c **** #if LV_USE_STDLIB_MALLOC == LV_STDLIB_CLIB
  10:Drivers/lvgl/src/stdlib/clib/lv_mem_core_clib.c **** #include "../../stdlib/lv_mem.h"
  11:Drivers/lvgl/src/stdlib/clib/lv_mem_core_clib.c **** #include <stdlib.h>
  12:Drivers/lvgl/src/stdlib/clib/lv_mem_core_clib.c **** 
  13:Drivers/lvgl/src/stdlib/clib/lv_mem_core_clib.c **** /*********************
  14:Drivers/lvgl/src/stdlib/clib/lv_mem_core_clib.c ****  *      DEFINES
  15:Drivers/lvgl/src/stdlib/clib/lv_mem_core_clib.c ****  *********************/
  16:Drivers/lvgl/src/stdlib/clib/lv_mem_core_clib.c **** 
  17:Drivers/lvgl/src/stdlib/clib/lv_mem_core_clib.c **** /**********************
  18:Drivers/lvgl/src/stdlib/clib/lv_mem_core_clib.c ****  *      TYPEDEFS
  19:Drivers/lvgl/src/stdlib/clib/lv_mem_core_clib.c ****  **********************/
  20:Drivers/lvgl/src/stdlib/clib/lv_mem_core_clib.c **** 
  21:Drivers/lvgl/src/stdlib/clib/lv_mem_core_clib.c **** /**********************
  22:Drivers/lvgl/src/stdlib/clib/lv_mem_core_clib.c ****  *  STATIC PROTOTYPES
  23:Drivers/lvgl/src/stdlib/clib/lv_mem_core_clib.c ****  **********************/
  24:Drivers/lvgl/src/stdlib/clib/lv_mem_core_clib.c **** 
  25:Drivers/lvgl/src/stdlib/clib/lv_mem_core_clib.c **** /**********************
  26:Drivers/lvgl/src/stdlib/clib/lv_mem_core_clib.c ****  *  STATIC VARIABLES
  27:Drivers/lvgl/src/stdlib/clib/lv_mem_core_clib.c ****  **********************/
  28:Drivers/lvgl/src/stdlib/clib/lv_mem_core_clib.c **** 
  29:Drivers/lvgl/src/stdlib/clib/lv_mem_core_clib.c **** /**********************
  30:Drivers/lvgl/src/stdlib/clib/lv_mem_core_clib.c ****  *      MACROS
ARM GAS  /tmp/ccTpAOHg.s 			page 2


  31:Drivers/lvgl/src/stdlib/clib/lv_mem_core_clib.c ****  **********************/
  32:Drivers/lvgl/src/stdlib/clib/lv_mem_core_clib.c **** /**********************
  33:Drivers/lvgl/src/stdlib/clib/lv_mem_core_clib.c ****  *   GLOBAL FUNCTIONS
  34:Drivers/lvgl/src/stdlib/clib/lv_mem_core_clib.c ****  **********************/
  35:Drivers/lvgl/src/stdlib/clib/lv_mem_core_clib.c **** 
  36:Drivers/lvgl/src/stdlib/clib/lv_mem_core_clib.c **** void lv_mem_init(void)
  37:Drivers/lvgl/src/stdlib/clib/lv_mem_core_clib.c **** {
  29              		.loc 1 37 1 view -0
  30              		.cfi_startproc
  31              		@ args = 0, pretend = 0, frame = 0
  32              		@ frame_needed = 0, uses_anonymous_args = 0
  33              		@ link register save eliminated.
  38:Drivers/lvgl/src/stdlib/clib/lv_mem_core_clib.c ****     return; /*Nothing to init*/
  34              		.loc 1 38 5 view .LVU1
  39:Drivers/lvgl/src/stdlib/clib/lv_mem_core_clib.c **** }
  35              		.loc 1 39 1 is_stmt 0 view .LVU2
  36 0000 7047     		bx	lr
  37              		.cfi_endproc
  38              	.LFE2:
  40              		.section	.text.lv_mem_deinit,"ax",%progbits
  41              		.align	1
  42              		.global	lv_mem_deinit
  43              		.syntax unified
  44              		.thumb
  45              		.thumb_func
  47              	lv_mem_deinit:
  48              	.LFB3:
  40:Drivers/lvgl/src/stdlib/clib/lv_mem_core_clib.c **** 
  41:Drivers/lvgl/src/stdlib/clib/lv_mem_core_clib.c **** void lv_mem_deinit(void)
  42:Drivers/lvgl/src/stdlib/clib/lv_mem_core_clib.c **** {
  49              		.loc 1 42 1 is_stmt 1 view -0
  50              		.cfi_startproc
  51              		@ args = 0, pretend = 0, frame = 0
  52              		@ frame_needed = 0, uses_anonymous_args = 0
  53              		@ link register save eliminated.
  43:Drivers/lvgl/src/stdlib/clib/lv_mem_core_clib.c ****     return; /*Nothing to deinit*/
  54              		.loc 1 43 5 view .LVU4
  44:Drivers/lvgl/src/stdlib/clib/lv_mem_core_clib.c **** 
  45:Drivers/lvgl/src/stdlib/clib/lv_mem_core_clib.c **** }
  55              		.loc 1 45 1 is_stmt 0 view .LVU5
  56 0000 7047     		bx	lr
  57              		.cfi_endproc
  58              	.LFE3:
  60              		.section	.text.lv_mem_add_pool,"ax",%progbits
  61              		.align	1
  62              		.global	lv_mem_add_pool
  63              		.syntax unified
  64              		.thumb
  65              		.thumb_func
  67              	lv_mem_add_pool:
  68              	.LVL0:
  69              	.LFB4:
  46:Drivers/lvgl/src/stdlib/clib/lv_mem_core_clib.c **** 
  47:Drivers/lvgl/src/stdlib/clib/lv_mem_core_clib.c **** lv_mem_pool_t lv_mem_add_pool(void * mem, size_t bytes)
  48:Drivers/lvgl/src/stdlib/clib/lv_mem_core_clib.c **** {
  70              		.loc 1 48 1 is_stmt 1 view -0
  71              		.cfi_startproc
ARM GAS  /tmp/ccTpAOHg.s 			page 3


  72              		@ args = 0, pretend = 0, frame = 0
  73              		@ frame_needed = 0, uses_anonymous_args = 0
  74              		@ link register save eliminated.
  49:Drivers/lvgl/src/stdlib/clib/lv_mem_core_clib.c ****     /*Not supported*/
  50:Drivers/lvgl/src/stdlib/clib/lv_mem_core_clib.c ****     LV_UNUSED(mem);
  75              		.loc 1 50 5 view .LVU7
  51:Drivers/lvgl/src/stdlib/clib/lv_mem_core_clib.c ****     LV_UNUSED(bytes);
  76              		.loc 1 51 5 view .LVU8
  52:Drivers/lvgl/src/stdlib/clib/lv_mem_core_clib.c ****     return NULL;
  77              		.loc 1 52 5 view .LVU9
  53:Drivers/lvgl/src/stdlib/clib/lv_mem_core_clib.c **** }
  78              		.loc 1 53 1 is_stmt 0 view .LVU10
  79 0000 0020     		movs	r0, #0
  80              	.LVL1:
  81              		.loc 1 53 1 view .LVU11
  82 0002 7047     		bx	lr
  83              		.cfi_endproc
  84              	.LFE4:
  86              		.section	.text.lv_mem_remove_pool,"ax",%progbits
  87              		.align	1
  88              		.global	lv_mem_remove_pool
  89              		.syntax unified
  90              		.thumb
  91              		.thumb_func
  93              	lv_mem_remove_pool:
  94              	.LVL2:
  95              	.LFB5:
  54:Drivers/lvgl/src/stdlib/clib/lv_mem_core_clib.c **** 
  55:Drivers/lvgl/src/stdlib/clib/lv_mem_core_clib.c **** void lv_mem_remove_pool(lv_mem_pool_t pool)
  56:Drivers/lvgl/src/stdlib/clib/lv_mem_core_clib.c **** {
  96              		.loc 1 56 1 is_stmt 1 view -0
  97              		.cfi_startproc
  98              		@ args = 0, pretend = 0, frame = 0
  99              		@ frame_needed = 0, uses_anonymous_args = 0
 100              		@ link register save eliminated.
  57:Drivers/lvgl/src/stdlib/clib/lv_mem_core_clib.c ****     /*Not supported*/
  58:Drivers/lvgl/src/stdlib/clib/lv_mem_core_clib.c ****     LV_UNUSED(pool);
 101              		.loc 1 58 5 view .LVU13
  59:Drivers/lvgl/src/stdlib/clib/lv_mem_core_clib.c ****     return;
 102              		.loc 1 59 5 view .LVU14
  60:Drivers/lvgl/src/stdlib/clib/lv_mem_core_clib.c **** }
 103              		.loc 1 60 1 is_stmt 0 view .LVU15
 104 0000 7047     		bx	lr
 105              		.cfi_endproc
 106              	.LFE5:
 108              		.section	.text.lv_malloc_core,"ax",%progbits
 109              		.align	1
 110              		.global	lv_malloc_core
 111              		.syntax unified
 112              		.thumb
 113              		.thumb_func
 115              	lv_malloc_core:
 116              	.LVL3:
 117              	.LFB6:
  61:Drivers/lvgl/src/stdlib/clib/lv_mem_core_clib.c **** 
  62:Drivers/lvgl/src/stdlib/clib/lv_mem_core_clib.c **** void * lv_malloc_core(size_t size)
  63:Drivers/lvgl/src/stdlib/clib/lv_mem_core_clib.c **** {
ARM GAS  /tmp/ccTpAOHg.s 			page 4


 118              		.loc 1 63 1 is_stmt 1 view -0
 119              		.cfi_startproc
 120              		@ args = 0, pretend = 0, frame = 0
 121              		@ frame_needed = 0, uses_anonymous_args = 0
 122              		.loc 1 63 1 is_stmt 0 view .LVU17
 123 0000 08B5     		push	{r3, lr}
 124              	.LCFI0:
 125              		.cfi_def_cfa_offset 8
 126              		.cfi_offset 3, -8
 127              		.cfi_offset 14, -4
  64:Drivers/lvgl/src/stdlib/clib/lv_mem_core_clib.c ****     return malloc(size);
 128              		.loc 1 64 5 is_stmt 1 view .LVU18
 129              		.loc 1 64 12 is_stmt 0 view .LVU19
 130 0002 FFF7FEFF 		bl	malloc
 131              	.LVL4:
  65:Drivers/lvgl/src/stdlib/clib/lv_mem_core_clib.c **** }
 132              		.loc 1 65 1 view .LVU20
 133 0006 08BD     		pop	{r3, pc}
 134              		.cfi_endproc
 135              	.LFE6:
 137              		.section	.text.lv_realloc_core,"ax",%progbits
 138              		.align	1
 139              		.global	lv_realloc_core
 140              		.syntax unified
 141              		.thumb
 142              		.thumb_func
 144              	lv_realloc_core:
 145              	.LVL5:
 146              	.LFB7:
  66:Drivers/lvgl/src/stdlib/clib/lv_mem_core_clib.c **** 
  67:Drivers/lvgl/src/stdlib/clib/lv_mem_core_clib.c **** void * lv_realloc_core(void * p, size_t new_size)
  68:Drivers/lvgl/src/stdlib/clib/lv_mem_core_clib.c **** {
 147              		.loc 1 68 1 is_stmt 1 view -0
 148              		.cfi_startproc
 149              		@ args = 0, pretend = 0, frame = 0
 150              		@ frame_needed = 0, uses_anonymous_args = 0
 151              		.loc 1 68 1 is_stmt 0 view .LVU22
 152 0000 08B5     		push	{r3, lr}
 153              	.LCFI1:
 154              		.cfi_def_cfa_offset 8
 155              		.cfi_offset 3, -8
 156              		.cfi_offset 14, -4
  69:Drivers/lvgl/src/stdlib/clib/lv_mem_core_clib.c ****     return realloc(p, new_size);
 157              		.loc 1 69 5 is_stmt 1 view .LVU23
 158              		.loc 1 69 12 is_stmt 0 view .LVU24
 159 0002 FFF7FEFF 		bl	realloc
 160              	.LVL6:
  70:Drivers/lvgl/src/stdlib/clib/lv_mem_core_clib.c **** }
 161              		.loc 1 70 1 view .LVU25
 162 0006 08BD     		pop	{r3, pc}
 163              		.cfi_endproc
 164              	.LFE7:
 166              		.section	.text.lv_free_core,"ax",%progbits
 167              		.align	1
 168              		.global	lv_free_core
 169              		.syntax unified
 170              		.thumb
ARM GAS  /tmp/ccTpAOHg.s 			page 5


 171              		.thumb_func
 173              	lv_free_core:
 174              	.LVL7:
 175              	.LFB8:
  71:Drivers/lvgl/src/stdlib/clib/lv_mem_core_clib.c **** 
  72:Drivers/lvgl/src/stdlib/clib/lv_mem_core_clib.c **** void lv_free_core(void * p)
  73:Drivers/lvgl/src/stdlib/clib/lv_mem_core_clib.c **** {
 176              		.loc 1 73 1 is_stmt 1 view -0
 177              		.cfi_startproc
 178              		@ args = 0, pretend = 0, frame = 0
 179              		@ frame_needed = 0, uses_anonymous_args = 0
 180              		.loc 1 73 1 is_stmt 0 view .LVU27
 181 0000 08B5     		push	{r3, lr}
 182              	.LCFI2:
 183              		.cfi_def_cfa_offset 8
 184              		.cfi_offset 3, -8
 185              		.cfi_offset 14, -4
  74:Drivers/lvgl/src/stdlib/clib/lv_mem_core_clib.c ****     free(p);
 186              		.loc 1 74 5 is_stmt 1 view .LVU28
 187 0002 FFF7FEFF 		bl	free
 188              	.LVL8:
  75:Drivers/lvgl/src/stdlib/clib/lv_mem_core_clib.c **** }
 189              		.loc 1 75 1 is_stmt 0 view .LVU29
 190 0006 08BD     		pop	{r3, pc}
 191              		.cfi_endproc
 192              	.LFE8:
 194              		.section	.text.lv_mem_monitor_core,"ax",%progbits
 195              		.align	1
 196              		.global	lv_mem_monitor_core
 197              		.syntax unified
 198              		.thumb
 199              		.thumb_func
 201              	lv_mem_monitor_core:
 202              	.LVL9:
 203              	.LFB9:
  76:Drivers/lvgl/src/stdlib/clib/lv_mem_core_clib.c **** 
  77:Drivers/lvgl/src/stdlib/clib/lv_mem_core_clib.c **** void lv_mem_monitor_core(lv_mem_monitor_t * mon_p)
  78:Drivers/lvgl/src/stdlib/clib/lv_mem_core_clib.c **** {
 204              		.loc 1 78 1 is_stmt 1 view -0
 205              		.cfi_startproc
 206              		@ args = 0, pretend = 0, frame = 0
 207              		@ frame_needed = 0, uses_anonymous_args = 0
 208              		@ link register save eliminated.
  79:Drivers/lvgl/src/stdlib/clib/lv_mem_core_clib.c ****     /*Not supported*/
  80:Drivers/lvgl/src/stdlib/clib/lv_mem_core_clib.c ****     LV_UNUSED(mon_p);
 209              		.loc 1 80 5 view .LVU31
  81:Drivers/lvgl/src/stdlib/clib/lv_mem_core_clib.c ****     return;
 210              		.loc 1 81 5 view .LVU32
  82:Drivers/lvgl/src/stdlib/clib/lv_mem_core_clib.c **** }
 211              		.loc 1 82 1 is_stmt 0 view .LVU33
 212 0000 7047     		bx	lr
 213              		.cfi_endproc
 214              	.LFE9:
 216              		.section	.text.lv_mem_test_core,"ax",%progbits
 217              		.align	1
 218              		.global	lv_mem_test_core
 219              		.syntax unified
ARM GAS  /tmp/ccTpAOHg.s 			page 6


 220              		.thumb
 221              		.thumb_func
 223              	lv_mem_test_core:
 224              	.LFB10:
  83:Drivers/lvgl/src/stdlib/clib/lv_mem_core_clib.c **** 
  84:Drivers/lvgl/src/stdlib/clib/lv_mem_core_clib.c **** lv_result_t lv_mem_test_core(void)
  85:Drivers/lvgl/src/stdlib/clib/lv_mem_core_clib.c **** {
 225              		.loc 1 85 1 is_stmt 1 view -0
 226              		.cfi_startproc
 227              		@ args = 0, pretend = 0, frame = 0
 228              		@ frame_needed = 0, uses_anonymous_args = 0
 229              		@ link register save eliminated.
  86:Drivers/lvgl/src/stdlib/clib/lv_mem_core_clib.c ****     /*Not supported*/
  87:Drivers/lvgl/src/stdlib/clib/lv_mem_core_clib.c ****     return LV_RESULT_OK;
 230              		.loc 1 87 5 view .LVU35
  88:Drivers/lvgl/src/stdlib/clib/lv_mem_core_clib.c **** }
 231              		.loc 1 88 1 is_stmt 0 view .LVU36
 232 0000 0120     		movs	r0, #1
 233 0002 7047     		bx	lr
 234              		.cfi_endproc
 235              	.LFE10:
 237              		.text
 238              	.Letext0:
 239              		.file 2 "/usr/arm-none-eabi/include/machine/_default_types.h"
 240              		.file 3 "/usr/arm-none-eabi/include/sys/_stdint.h"
 241              		.file 4 "/usr/lib/gcc/arm-none-eabi/14.2.0/include/stddef.h"
 242              		.file 5 "Drivers/lvgl/src/stdlib/clib/../../misc/lv_types.h"
 243              		.file 6 "Drivers/lvgl/src/stdlib/clib/../lv_mem.h"
 244              		.file 7 "/usr/arm-none-eabi/include/stdlib.h"
ARM GAS  /tmp/ccTpAOHg.s 			page 7

