ARM GAS  /tmp/ccQztfG6.s 			page 1


   1              		.cpu cortex-m7
   2              		.arch armv7e-m
   3              		.fpu fpv5-sp-d16
   4              		.eabi_attribute 27, 1
   5              		.eabi_attribute 28, 1
   6              		.eabi_attribute 20, 1
   7              		.eabi_attribute 21, 1
   8              		.eabi_attribute 23, 3
   9              		.eabi_attribute 24, 1
  10              		.eabi_attribute 25, 1
  11              		.eabi_attribute 26, 1
  12              		.eabi_attribute 30, 1
  13              		.eabi_attribute 34, 1
  14              		.eabi_attribute 18, 4
  15              		.file	"lv_msgbox.c"
  16              		.text
  17              	.Ltext0:
  18              		.cfi_sections	.debug_frame
  19              		.file 1 "Drivers/lvgl/src/widgets/msgbox/lv_msgbox.c"
  20              		.section	.text.lv_msgbox_create,"ax",%progbits
  21              		.align	1
  22              		.global	lv_msgbox_create
  23              		.syntax unified
  24              		.thumb
  25              		.thumb_func
  27              	lv_msgbox_create:
  28              	.LVL0:
  29              	.LFB171:
   1:Drivers/lvgl/src/widgets/msgbox/lv_msgbox.c **** /**
   2:Drivers/lvgl/src/widgets/msgbox/lv_msgbox.c ****  * @file lv_msgbox.c
   3:Drivers/lvgl/src/widgets/msgbox/lv_msgbox.c ****  *
   4:Drivers/lvgl/src/widgets/msgbox/lv_msgbox.c ****  */
   5:Drivers/lvgl/src/widgets/msgbox/lv_msgbox.c **** 
   6:Drivers/lvgl/src/widgets/msgbox/lv_msgbox.c **** /*********************
   7:Drivers/lvgl/src/widgets/msgbox/lv_msgbox.c ****  *      INCLUDES
   8:Drivers/lvgl/src/widgets/msgbox/lv_msgbox.c ****  *********************/
   9:Drivers/lvgl/src/widgets/msgbox/lv_msgbox.c **** #include "lv_msgbox_private.h"
  10:Drivers/lvgl/src/widgets/msgbox/lv_msgbox.c **** #include "../../core/lv_obj_private.h"
  11:Drivers/lvgl/src/widgets/msgbox/lv_msgbox.c **** #include "../../core/lv_obj_class_private.h"
  12:Drivers/lvgl/src/widgets/msgbox/lv_msgbox.c **** #if LV_USE_MSGBOX
  13:Drivers/lvgl/src/widgets/msgbox/lv_msgbox.c **** 
  14:Drivers/lvgl/src/widgets/msgbox/lv_msgbox.c **** #include "../label/lv_label.h"
  15:Drivers/lvgl/src/widgets/msgbox/lv_msgbox.c **** #include "../button/lv_button.h"
  16:Drivers/lvgl/src/widgets/msgbox/lv_msgbox.c **** #include "../image/lv_image.h"
  17:Drivers/lvgl/src/widgets/msgbox/lv_msgbox.c **** #include "../../misc/lv_assert.h"
  18:Drivers/lvgl/src/widgets/msgbox/lv_msgbox.c **** #include "../../display/lv_display.h"
  19:Drivers/lvgl/src/widgets/msgbox/lv_msgbox.c **** #include "../../layouts/flex/lv_flex.h"
  20:Drivers/lvgl/src/widgets/msgbox/lv_msgbox.c **** #include "../../stdlib/lv_string.h"
  21:Drivers/lvgl/src/widgets/msgbox/lv_msgbox.c **** 
  22:Drivers/lvgl/src/widgets/msgbox/lv_msgbox.c **** /*********************
  23:Drivers/lvgl/src/widgets/msgbox/lv_msgbox.c ****  *      DEFINES
  24:Drivers/lvgl/src/widgets/msgbox/lv_msgbox.c ****  *********************/
  25:Drivers/lvgl/src/widgets/msgbox/lv_msgbox.c **** #define LV_MSGBOX_FLAG_AUTO_PARENT  LV_OBJ_FLAG_WIDGET_1        /*Mark that the parent was automati
  26:Drivers/lvgl/src/widgets/msgbox/lv_msgbox.c **** #define MY_CLASS (&lv_msgbox_class)
  27:Drivers/lvgl/src/widgets/msgbox/lv_msgbox.c **** 
  28:Drivers/lvgl/src/widgets/msgbox/lv_msgbox.c **** /**********************
  29:Drivers/lvgl/src/widgets/msgbox/lv_msgbox.c ****  *      TYPEDEFS
ARM GAS  /tmp/ccQztfG6.s 			page 2


  30:Drivers/lvgl/src/widgets/msgbox/lv_msgbox.c ****  **********************/
  31:Drivers/lvgl/src/widgets/msgbox/lv_msgbox.c **** 
  32:Drivers/lvgl/src/widgets/msgbox/lv_msgbox.c **** /**********************
  33:Drivers/lvgl/src/widgets/msgbox/lv_msgbox.c ****  *  STATIC PROTOTYPES
  34:Drivers/lvgl/src/widgets/msgbox/lv_msgbox.c ****  **********************/
  35:Drivers/lvgl/src/widgets/msgbox/lv_msgbox.c **** static void msgbox_close_click_event_cb(lv_event_t * e);
  36:Drivers/lvgl/src/widgets/msgbox/lv_msgbox.c **** static void msgbox_size_changed_event_cb(lv_event_t * e);
  37:Drivers/lvgl/src/widgets/msgbox/lv_msgbox.c **** 
  38:Drivers/lvgl/src/widgets/msgbox/lv_msgbox.c **** /**********************
  39:Drivers/lvgl/src/widgets/msgbox/lv_msgbox.c ****  *  STATIC VARIABLES
  40:Drivers/lvgl/src/widgets/msgbox/lv_msgbox.c ****  **********************/
  41:Drivers/lvgl/src/widgets/msgbox/lv_msgbox.c **** const lv_obj_class_t lv_msgbox_class = {
  42:Drivers/lvgl/src/widgets/msgbox/lv_msgbox.c ****     .base_class = &lv_obj_class,
  43:Drivers/lvgl/src/widgets/msgbox/lv_msgbox.c ****     .width_def = LV_DPI_DEF * 2,
  44:Drivers/lvgl/src/widgets/msgbox/lv_msgbox.c ****     .height_def = LV_SIZE_CONTENT,
  45:Drivers/lvgl/src/widgets/msgbox/lv_msgbox.c ****     .instance_size = sizeof(lv_msgbox_t),
  46:Drivers/lvgl/src/widgets/msgbox/lv_msgbox.c ****     .name = "lv_msgbox",
  47:Drivers/lvgl/src/widgets/msgbox/lv_msgbox.c **** };
  48:Drivers/lvgl/src/widgets/msgbox/lv_msgbox.c **** 
  49:Drivers/lvgl/src/widgets/msgbox/lv_msgbox.c **** const lv_obj_class_t lv_msgbox_header_class = {
  50:Drivers/lvgl/src/widgets/msgbox/lv_msgbox.c ****     .base_class = &lv_obj_class,
  51:Drivers/lvgl/src/widgets/msgbox/lv_msgbox.c ****     .width_def = LV_PCT(100),
  52:Drivers/lvgl/src/widgets/msgbox/lv_msgbox.c ****     .height_def = LV_DPI_DEF / 3,
  53:Drivers/lvgl/src/widgets/msgbox/lv_msgbox.c ****     .instance_size = sizeof(lv_obj_t),
  54:Drivers/lvgl/src/widgets/msgbox/lv_msgbox.c ****     .name = "lv_msgbox_header",
  55:Drivers/lvgl/src/widgets/msgbox/lv_msgbox.c **** };
  56:Drivers/lvgl/src/widgets/msgbox/lv_msgbox.c **** 
  57:Drivers/lvgl/src/widgets/msgbox/lv_msgbox.c **** const lv_obj_class_t lv_msgbox_content_class = {
  58:Drivers/lvgl/src/widgets/msgbox/lv_msgbox.c ****     .base_class = &lv_obj_class,
  59:Drivers/lvgl/src/widgets/msgbox/lv_msgbox.c ****     .width_def = LV_PCT(100),
  60:Drivers/lvgl/src/widgets/msgbox/lv_msgbox.c ****     .height_def = LV_SIZE_CONTENT,
  61:Drivers/lvgl/src/widgets/msgbox/lv_msgbox.c ****     .instance_size = sizeof(lv_obj_t),
  62:Drivers/lvgl/src/widgets/msgbox/lv_msgbox.c ****     .name = "lv_msgbox_content",
  63:Drivers/lvgl/src/widgets/msgbox/lv_msgbox.c **** };
  64:Drivers/lvgl/src/widgets/msgbox/lv_msgbox.c **** 
  65:Drivers/lvgl/src/widgets/msgbox/lv_msgbox.c **** const lv_obj_class_t lv_msgbox_footer_class = {
  66:Drivers/lvgl/src/widgets/msgbox/lv_msgbox.c ****     .base_class = &lv_obj_class,
  67:Drivers/lvgl/src/widgets/msgbox/lv_msgbox.c ****     .width_def = LV_PCT(100),
  68:Drivers/lvgl/src/widgets/msgbox/lv_msgbox.c ****     .height_def = LV_DPI_DEF / 3,
  69:Drivers/lvgl/src/widgets/msgbox/lv_msgbox.c ****     .instance_size = sizeof(lv_obj_t),
  70:Drivers/lvgl/src/widgets/msgbox/lv_msgbox.c ****     .name = "lv_msgbox_footer",
  71:Drivers/lvgl/src/widgets/msgbox/lv_msgbox.c **** };
  72:Drivers/lvgl/src/widgets/msgbox/lv_msgbox.c **** 
  73:Drivers/lvgl/src/widgets/msgbox/lv_msgbox.c **** const lv_obj_class_t lv_msgbox_footer_button_class = {
  74:Drivers/lvgl/src/widgets/msgbox/lv_msgbox.c ****     .base_class = &lv_obj_class,
  75:Drivers/lvgl/src/widgets/msgbox/lv_msgbox.c ****     .width_def = LV_SIZE_CONTENT,
  76:Drivers/lvgl/src/widgets/msgbox/lv_msgbox.c ****     .height_def = LV_PCT(100),
  77:Drivers/lvgl/src/widgets/msgbox/lv_msgbox.c ****     .instance_size = sizeof(lv_obj_t),
  78:Drivers/lvgl/src/widgets/msgbox/lv_msgbox.c ****     .group_def = LV_OBJ_CLASS_GROUP_DEF_TRUE,
  79:Drivers/lvgl/src/widgets/msgbox/lv_msgbox.c ****     .name = "lv_msgbox_footer_button",
  80:Drivers/lvgl/src/widgets/msgbox/lv_msgbox.c **** };
  81:Drivers/lvgl/src/widgets/msgbox/lv_msgbox.c **** 
  82:Drivers/lvgl/src/widgets/msgbox/lv_msgbox.c **** const lv_obj_class_t lv_msgbox_header_button_class = {
  83:Drivers/lvgl/src/widgets/msgbox/lv_msgbox.c ****     .base_class = &lv_obj_class,
  84:Drivers/lvgl/src/widgets/msgbox/lv_msgbox.c ****     .width_def = LV_DPI_DEF / 3,
  85:Drivers/lvgl/src/widgets/msgbox/lv_msgbox.c ****     .height_def = LV_PCT(100),
  86:Drivers/lvgl/src/widgets/msgbox/lv_msgbox.c ****     .instance_size = sizeof(lv_obj_t),
ARM GAS  /tmp/ccQztfG6.s 			page 3


  87:Drivers/lvgl/src/widgets/msgbox/lv_msgbox.c ****     .group_def = LV_OBJ_CLASS_GROUP_DEF_TRUE,
  88:Drivers/lvgl/src/widgets/msgbox/lv_msgbox.c ****     .name = "lv_msgbox_header_button",
  89:Drivers/lvgl/src/widgets/msgbox/lv_msgbox.c **** };
  90:Drivers/lvgl/src/widgets/msgbox/lv_msgbox.c **** 
  91:Drivers/lvgl/src/widgets/msgbox/lv_msgbox.c **** const lv_obj_class_t lv_msgbox_backdrop_class = {
  92:Drivers/lvgl/src/widgets/msgbox/lv_msgbox.c ****     .base_class = &lv_obj_class,
  93:Drivers/lvgl/src/widgets/msgbox/lv_msgbox.c ****     .width_def = LV_PCT(100),
  94:Drivers/lvgl/src/widgets/msgbox/lv_msgbox.c ****     .height_def = LV_PCT(100),
  95:Drivers/lvgl/src/widgets/msgbox/lv_msgbox.c ****     .instance_size = sizeof(lv_obj_t),
  96:Drivers/lvgl/src/widgets/msgbox/lv_msgbox.c ****     .name = "lv_msgbox_backdrop",
  97:Drivers/lvgl/src/widgets/msgbox/lv_msgbox.c **** };
  98:Drivers/lvgl/src/widgets/msgbox/lv_msgbox.c **** 
  99:Drivers/lvgl/src/widgets/msgbox/lv_msgbox.c **** /**********************
 100:Drivers/lvgl/src/widgets/msgbox/lv_msgbox.c ****  *      MACROS
 101:Drivers/lvgl/src/widgets/msgbox/lv_msgbox.c ****  **********************/
 102:Drivers/lvgl/src/widgets/msgbox/lv_msgbox.c **** 
 103:Drivers/lvgl/src/widgets/msgbox/lv_msgbox.c **** /**********************
 104:Drivers/lvgl/src/widgets/msgbox/lv_msgbox.c ****  *   GLOBAL FUNCTIONS
 105:Drivers/lvgl/src/widgets/msgbox/lv_msgbox.c ****  **********************/
 106:Drivers/lvgl/src/widgets/msgbox/lv_msgbox.c **** 
 107:Drivers/lvgl/src/widgets/msgbox/lv_msgbox.c **** lv_obj_t * lv_msgbox_create(lv_obj_t * parent)
 108:Drivers/lvgl/src/widgets/msgbox/lv_msgbox.c **** {
  30              		.loc 1 108 1 view -0
  31              		.cfi_startproc
  32              		@ args = 0, pretend = 0, frame = 0
  33              		@ frame_needed = 0, uses_anonymous_args = 0
  34              		.loc 1 108 1 is_stmt 0 view .LVU1
  35 0000 38B5     		push	{r3, r4, r5, lr}
  36              	.LCFI0:
  37              		.cfi_def_cfa_offset 16
  38              		.cfi_offset 3, -16
  39              		.cfi_offset 4, -12
  40              		.cfi_offset 5, -8
  41              		.cfi_offset 14, -4
 109:Drivers/lvgl/src/widgets/msgbox/lv_msgbox.c ****     LV_LOG_INFO("begin");
  42              		.loc 1 109 5 is_stmt 1 view .LVU2
  43              		.loc 1 109 5 view .LVU3
  44              		.loc 1 109 5 view .LVU4
 110:Drivers/lvgl/src/widgets/msgbox/lv_msgbox.c ****     bool auto_parent = false;
  45              		.loc 1 110 5 view .LVU5
  46              	.LVL1:
 111:Drivers/lvgl/src/widgets/msgbox/lv_msgbox.c ****     if(parent == NULL) {
  47              		.loc 1 111 5 view .LVU6
  48              		.loc 1 111 7 is_stmt 0 view .LVU7
  49 0002 28B3     		cbz	r0, .L12
  50 0004 0446     		mov	r4, r0
 110:Drivers/lvgl/src/widgets/msgbox/lv_msgbox.c ****     bool auto_parent = false;
  51              		.loc 1 110 10 view .LVU8
  52 0006 0025     		movs	r5, #0
  53              	.LVL2:
  54              	.L2:
 112:Drivers/lvgl/src/widgets/msgbox/lv_msgbox.c ****         auto_parent = true;
 113:Drivers/lvgl/src/widgets/msgbox/lv_msgbox.c ****         parent = lv_obj_class_create_obj(&lv_msgbox_backdrop_class, lv_layer_top());
 114:Drivers/lvgl/src/widgets/msgbox/lv_msgbox.c ****         LV_ASSERT_MALLOC(parent);
 115:Drivers/lvgl/src/widgets/msgbox/lv_msgbox.c ****         lv_obj_class_init_obj(parent);
 116:Drivers/lvgl/src/widgets/msgbox/lv_msgbox.c ****         lv_obj_remove_flag(parent, LV_OBJ_FLAG_IGNORE_LAYOUT);
 117:Drivers/lvgl/src/widgets/msgbox/lv_msgbox.c ****         lv_obj_set_size(parent, LV_PCT(100), LV_PCT(100));
ARM GAS  /tmp/ccQztfG6.s 			page 4


 118:Drivers/lvgl/src/widgets/msgbox/lv_msgbox.c ****     }
 119:Drivers/lvgl/src/widgets/msgbox/lv_msgbox.c **** 
 120:Drivers/lvgl/src/widgets/msgbox/lv_msgbox.c ****     lv_obj_t * obj = lv_obj_class_create_obj(&lv_msgbox_class, parent);
  55              		.loc 1 120 5 is_stmt 1 view .LVU9
  56              		.loc 1 120 22 is_stmt 0 view .LVU10
  57 0008 2146     		mov	r1, r4
  58 000a 2148     		ldr	r0, .L14
  59 000c FFF7FEFF 		bl	lv_obj_class_create_obj
  60              	.LVL3:
 121:Drivers/lvgl/src/widgets/msgbox/lv_msgbox.c ****     LV_ASSERT_MALLOC(obj);
  61              		.loc 1 121 5 is_stmt 1 view .LVU11
  62              		.loc 1 121 5 view .LVU12
  63 0010 0446     		mov	r4, r0
  64              	.LVL4:
  65              		.loc 1 121 5 is_stmt 0 view .LVU13
  66 0012 A0B3     		cbz	r0, .L6
  67              		.loc 1 121 5 is_stmt 1 discriminator 2 view .LVU14
  68              		.loc 1 121 26 discriminator 2 view .LVU15
 122:Drivers/lvgl/src/widgets/msgbox/lv_msgbox.c ****     if(obj == NULL) return NULL;
  69              		.loc 1 122 5 view .LVU16
 123:Drivers/lvgl/src/widgets/msgbox/lv_msgbox.c ****     lv_obj_class_init_obj(obj);
  70              		.loc 1 123 5 view .LVU17
  71 0014 FFF7FEFF 		bl	lv_obj_class_init_obj
  72              	.LVL5:
 124:Drivers/lvgl/src/widgets/msgbox/lv_msgbox.c ****     lv_msgbox_t * mbox = (lv_msgbox_t *)obj;
  73              		.loc 1 124 5 view .LVU18
 125:Drivers/lvgl/src/widgets/msgbox/lv_msgbox.c ****     lv_obj_set_flex_flow(obj, LV_FLEX_FLOW_COLUMN);
  74              		.loc 1 125 5 view .LVU19
  75 0018 0121     		movs	r1, #1
  76 001a 2046     		mov	r0, r4
  77 001c FFF7FEFF 		bl	lv_obj_set_flex_flow
  78              	.LVL6:
 126:Drivers/lvgl/src/widgets/msgbox/lv_msgbox.c **** 
 127:Drivers/lvgl/src/widgets/msgbox/lv_msgbox.c ****     if(auto_parent) lv_obj_add_flag(obj, LV_MSGBOX_FLAG_AUTO_PARENT);
  79              		.loc 1 127 5 view .LVU20
  80              		.loc 1 127 7 is_stmt 0 view .LVU21
  81 0020 75BB     		cbnz	r5, .L13
  82              	.L7:
 128:Drivers/lvgl/src/widgets/msgbox/lv_msgbox.c **** 
 129:Drivers/lvgl/src/widgets/msgbox/lv_msgbox.c ****     mbox->content = lv_obj_class_create_obj(&lv_msgbox_content_class, obj);
  83              		.loc 1 129 5 is_stmt 1 view .LVU22
  84              		.loc 1 129 21 is_stmt 0 view .LVU23
  85 0022 2146     		mov	r1, r4
  86 0024 1B48     		ldr	r0, .L14+4
  87 0026 FFF7FEFF 		bl	lv_obj_class_create_obj
  88              	.LVL7:
  89              		.loc 1 129 19 discriminator 1 view .LVU24
  90 002a 2063     		str	r0, [r4, #48]
 130:Drivers/lvgl/src/widgets/msgbox/lv_msgbox.c ****     LV_ASSERT_MALLOC(obj);
  91              		.loc 1 130 5 is_stmt 1 view .LVU25
  92              		.loc 1 130 5 view .LVU26
  93              		.loc 1 130 5 discriminator 2 view .LVU27
  94              		.loc 1 130 26 discriminator 2 view .LVU28
 131:Drivers/lvgl/src/widgets/msgbox/lv_msgbox.c ****     if(mbox->content == NULL) return NULL;
  95              		.loc 1 131 5 view .LVU29
  96              		.loc 1 131 7 is_stmt 0 view .LVU30
  97 002c 70B3     		cbz	r0, .L10
ARM GAS  /tmp/ccQztfG6.s 			page 5


 132:Drivers/lvgl/src/widgets/msgbox/lv_msgbox.c ****     lv_obj_class_init_obj(mbox->content);
  98              		.loc 1 132 5 is_stmt 1 view .LVU31
  99 002e FFF7FEFF 		bl	lv_obj_class_init_obj
 100              	.LVL8:
 133:Drivers/lvgl/src/widgets/msgbox/lv_msgbox.c ****     lv_obj_set_flex_flow(mbox->content, LV_FLEX_FLOW_COLUMN);
 101              		.loc 1 133 5 view .LVU32
 102 0032 0121     		movs	r1, #1
 103 0034 206B     		ldr	r0, [r4, #48]
 104 0036 FFF7FEFF 		bl	lv_obj_set_flex_flow
 105              	.LVL9:
 134:Drivers/lvgl/src/widgets/msgbox/lv_msgbox.c ****     lv_obj_add_event_cb(obj, msgbox_size_changed_event_cb, LV_EVENT_SIZE_CHANGED, 0);
 106              		.loc 1 134 5 view .LVU33
 107 003a 0023     		movs	r3, #0
 108 003c 3122     		movs	r2, #49
 109 003e 1649     		ldr	r1, .L14+8
 110 0040 2046     		mov	r0, r4
 111 0042 FFF7FEFF 		bl	lv_obj_add_event_cb
 112              	.LVL10:
 135:Drivers/lvgl/src/widgets/msgbox/lv_msgbox.c **** 
 136:Drivers/lvgl/src/widgets/msgbox/lv_msgbox.c ****     lv_obj_center(obj);
 113              		.loc 1 136 5 view .LVU34
 114 0046 2046     		mov	r0, r4
 115 0048 FFF7FEFF 		bl	lv_obj_center
 116              	.LVL11:
 137:Drivers/lvgl/src/widgets/msgbox/lv_msgbox.c ****     return obj;
 117              		.loc 1 137 5 view .LVU35
 118              	.L1:
 138:Drivers/lvgl/src/widgets/msgbox/lv_msgbox.c **** }
 119              		.loc 1 138 1 is_stmt 0 view .LVU36
 120 004c 2046     		mov	r0, r4
 121 004e 38BD     		pop	{r3, r4, r5, pc}
 122              	.LVL12:
 123              	.L12:
 112:Drivers/lvgl/src/widgets/msgbox/lv_msgbox.c ****         parent = lv_obj_class_create_obj(&lv_msgbox_backdrop_class, lv_layer_top());
 124              		.loc 1 112 9 is_stmt 1 view .LVU37
 113:Drivers/lvgl/src/widgets/msgbox/lv_msgbox.c ****         LV_ASSERT_MALLOC(parent);
 125              		.loc 1 113 9 view .LVU38
 113:Drivers/lvgl/src/widgets/msgbox/lv_msgbox.c ****         LV_ASSERT_MALLOC(parent);
 126              		.loc 1 113 18 is_stmt 0 view .LVU39
 127 0050 FFF7FEFF 		bl	lv_layer_top
 128              	.LVL13:
 113:Drivers/lvgl/src/widgets/msgbox/lv_msgbox.c ****         LV_ASSERT_MALLOC(parent);
 129              		.loc 1 113 18 view .LVU40
 130 0054 0146     		mov	r1, r0
 113:Drivers/lvgl/src/widgets/msgbox/lv_msgbox.c ****         LV_ASSERT_MALLOC(parent);
 131              		.loc 1 113 18 discriminator 1 view .LVU41
 132 0056 1148     		ldr	r0, .L14+12
 133 0058 FFF7FEFF 		bl	lv_obj_class_create_obj
 134              	.LVL14:
 114:Drivers/lvgl/src/widgets/msgbox/lv_msgbox.c ****         lv_obj_class_init_obj(parent);
 135              		.loc 1 114 9 is_stmt 1 view .LVU42
 114:Drivers/lvgl/src/widgets/msgbox/lv_msgbox.c ****         lv_obj_class_init_obj(parent);
 136              		.loc 1 114 9 view .LVU43
 137 005c 0446     		mov	r4, r0
 138 005e 68B1     		cbz	r0, .L4
 114:Drivers/lvgl/src/widgets/msgbox/lv_msgbox.c ****         lv_obj_class_init_obj(parent);
 139              		.loc 1 114 9 discriminator 2 view .LVU44
ARM GAS  /tmp/ccQztfG6.s 			page 6


 114:Drivers/lvgl/src/widgets/msgbox/lv_msgbox.c ****         lv_obj_class_init_obj(parent);
 140              		.loc 1 114 33 discriminator 2 view .LVU45
 115:Drivers/lvgl/src/widgets/msgbox/lv_msgbox.c ****         lv_obj_remove_flag(parent, LV_OBJ_FLAG_IGNORE_LAYOUT);
 141              		.loc 1 115 9 view .LVU46
 142 0060 FFF7FEFF 		bl	lv_obj_class_init_obj
 143              	.LVL15:
 116:Drivers/lvgl/src/widgets/msgbox/lv_msgbox.c ****         lv_obj_set_size(parent, LV_PCT(100), LV_PCT(100));
 144              		.loc 1 116 9 view .LVU47
 145 0064 4FF40031 		mov	r1, #131072
 146 0068 2046     		mov	r0, r4
 147 006a FFF7FEFF 		bl	lv_obj_remove_flag
 148              	.LVL16:
 117:Drivers/lvgl/src/widgets/msgbox/lv_msgbox.c ****     }
 149              		.loc 1 117 9 view .LVU48
 150 006e 0C49     		ldr	r1, .L14+16
 151 0070 0A46     		mov	r2, r1
 152 0072 2046     		mov	r0, r4
 153 0074 FFF7FEFF 		bl	lv_obj_set_size
 154              	.LVL17:
 112:Drivers/lvgl/src/widgets/msgbox/lv_msgbox.c ****         parent = lv_obj_class_create_obj(&lv_msgbox_backdrop_class, lv_layer_top());
 155              		.loc 1 112 21 is_stmt 0 view .LVU49
 156 0078 0125     		movs	r5, #1
 157 007a C5E7     		b	.L2
 158              	.LVL18:
 159              	.L4:
 114:Drivers/lvgl/src/widgets/msgbox/lv_msgbox.c ****         lv_obj_class_init_obj(parent);
 160              		.loc 1 114 9 is_stmt 1 discriminator 1 view .LVU50
 114:Drivers/lvgl/src/widgets/msgbox/lv_msgbox.c ****         lv_obj_class_init_obj(parent);
 161              		.loc 1 114 9 discriminator 1 view .LVU51
 114:Drivers/lvgl/src/widgets/msgbox/lv_msgbox.c ****         lv_obj_class_init_obj(parent);
 162              		.loc 1 114 9 discriminator 1 view .LVU52
 114:Drivers/lvgl/src/widgets/msgbox/lv_msgbox.c ****         lv_obj_class_init_obj(parent);
 163              		.loc 1 114 9 discriminator 1 view .LVU53
 114:Drivers/lvgl/src/widgets/msgbox/lv_msgbox.c ****         lv_obj_class_init_obj(parent);
 164              		.loc 1 114 9 discriminator 1 view .LVU54
 165 007c FEE7     		b	.L4
 166              	.LVL19:
 167              	.L6:
 121:Drivers/lvgl/src/widgets/msgbox/lv_msgbox.c ****     if(obj == NULL) return NULL;
 168              		.loc 1 121 5 discriminator 1 view .LVU55
 121:Drivers/lvgl/src/widgets/msgbox/lv_msgbox.c ****     if(obj == NULL) return NULL;
 169              		.loc 1 121 5 discriminator 1 view .LVU56
 121:Drivers/lvgl/src/widgets/msgbox/lv_msgbox.c ****     if(obj == NULL) return NULL;
 170              		.loc 1 121 5 discriminator 1 view .LVU57
 121:Drivers/lvgl/src/widgets/msgbox/lv_msgbox.c ****     if(obj == NULL) return NULL;
 171              		.loc 1 121 5 discriminator 1 view .LVU58
 121:Drivers/lvgl/src/widgets/msgbox/lv_msgbox.c ****     if(obj == NULL) return NULL;
 172              		.loc 1 121 5 discriminator 1 view .LVU59
 173 007e FEE7     		b	.L6
 174              	.LVL20:
 175              	.L13:
 127:Drivers/lvgl/src/widgets/msgbox/lv_msgbox.c **** 
 176              		.loc 1 127 21 discriminator 1 view .LVU60
 177 0080 4FF00071 		mov	r1, #33554432
 178 0084 2046     		mov	r0, r4
 179 0086 FFF7FEFF 		bl	lv_obj_add_flag
 180              	.LVL21:
ARM GAS  /tmp/ccQztfG6.s 			page 7


 181 008a CAE7     		b	.L7
 182              	.L10:
 131:Drivers/lvgl/src/widgets/msgbox/lv_msgbox.c ****     lv_obj_class_init_obj(mbox->content);
 183              		.loc 1 131 38 is_stmt 0 discriminator 1 view .LVU61
 184 008c 0446     		mov	r4, r0
 185              	.LVL22:
 131:Drivers/lvgl/src/widgets/msgbox/lv_msgbox.c ****     lv_obj_class_init_obj(mbox->content);
 186              		.loc 1 131 38 discriminator 1 view .LVU62
 187 008e DDE7     		b	.L1
 188              	.L15:
 189              		.align	2
 190              	.L14:
 191 0090 00000000 		.word	lv_msgbox_class
 192 0094 00000000 		.word	lv_msgbox_content_class
 193 0098 00000000 		.word	msgbox_size_changed_event_cb
 194 009c 00000000 		.word	lv_msgbox_backdrop_class
 195 00a0 64000020 		.word	536871012
 196              		.cfi_endproc
 197              	.LFE171:
 199              		.section	.text.lv_msgbox_add_title,"ax",%progbits
 200              		.align	1
 201              		.global	lv_msgbox_add_title
 202              		.syntax unified
 203              		.thumb
 204              		.thumb_func
 206              	lv_msgbox_add_title:
 207              	.LVL23:
 208              	.LFB172:
 139:Drivers/lvgl/src/widgets/msgbox/lv_msgbox.c **** 
 140:Drivers/lvgl/src/widgets/msgbox/lv_msgbox.c **** lv_obj_t * lv_msgbox_add_title(lv_obj_t * obj, const char * title)
 141:Drivers/lvgl/src/widgets/msgbox/lv_msgbox.c **** {
 209              		.loc 1 141 1 is_stmt 1 view -0
 210              		.cfi_startproc
 211              		@ args = 0, pretend = 0, frame = 0
 212              		@ frame_needed = 0, uses_anonymous_args = 0
 213              		.loc 1 141 1 is_stmt 0 view .LVU64
 214 0000 F8B5     		push	{r3, r4, r5, r6, r7, lr}
 215              	.LCFI1:
 216              		.cfi_def_cfa_offset 24
 217              		.cfi_offset 3, -24
 218              		.cfi_offset 4, -20
 219              		.cfi_offset 5, -16
 220              		.cfi_offset 6, -12
 221              		.cfi_offset 7, -8
 222              		.cfi_offset 14, -4
 223 0002 0446     		mov	r4, r0
 224 0004 0D46     		mov	r5, r1
 142:Drivers/lvgl/src/widgets/msgbox/lv_msgbox.c ****     lv_msgbox_t * mbox = (lv_msgbox_t *)obj;
 225              		.loc 1 142 5 is_stmt 1 view .LVU65
 226              	.LVL24:
 143:Drivers/lvgl/src/widgets/msgbox/lv_msgbox.c ****     if(mbox->header == NULL) {
 227              		.loc 1 143 5 view .LVU66
 228              		.loc 1 143 12 is_stmt 0 view .LVU67
 229 0006 C36A     		ldr	r3, [r0, #44]
 230              		.loc 1 143 7 view .LVU68
 231 0008 43B1     		cbz	r3, .L23
 232              	.LVL25:
ARM GAS  /tmp/ccQztfG6.s 			page 8


 233              	.L17:
 144:Drivers/lvgl/src/widgets/msgbox/lv_msgbox.c ****         mbox->header = lv_obj_class_create_obj(&lv_msgbox_header_class, obj);
 145:Drivers/lvgl/src/widgets/msgbox/lv_msgbox.c ****         LV_ASSERT_MALLOC(obj);
 146:Drivers/lvgl/src/widgets/msgbox/lv_msgbox.c ****         if(mbox->header == NULL) return NULL;
 147:Drivers/lvgl/src/widgets/msgbox/lv_msgbox.c ****         lv_obj_class_init_obj(mbox->header);
 148:Drivers/lvgl/src/widgets/msgbox/lv_msgbox.c **** 
 149:Drivers/lvgl/src/widgets/msgbox/lv_msgbox.c ****         lv_obj_set_size(mbox->header, lv_pct(100), lv_display_get_dpi(lv_obj_get_display(obj)) / 3)
 150:Drivers/lvgl/src/widgets/msgbox/lv_msgbox.c ****         lv_obj_set_flex_flow(mbox->header, LV_FLEX_FLOW_ROW);
 151:Drivers/lvgl/src/widgets/msgbox/lv_msgbox.c ****         lv_obj_set_flex_align(mbox->header, LV_FLEX_ALIGN_START, LV_FLEX_ALIGN_CENTER, LV_FLEX_ALIG
 152:Drivers/lvgl/src/widgets/msgbox/lv_msgbox.c ****         lv_obj_remove_flag(mbox->header, LV_OBJ_FLAG_SCROLLABLE);
 153:Drivers/lvgl/src/widgets/msgbox/lv_msgbox.c ****         lv_obj_move_to_index(mbox->header, 0);
 154:Drivers/lvgl/src/widgets/msgbox/lv_msgbox.c ****     }
 155:Drivers/lvgl/src/widgets/msgbox/lv_msgbox.c **** 
 156:Drivers/lvgl/src/widgets/msgbox/lv_msgbox.c ****     if(mbox->title == NULL) {
 234              		.loc 1 156 5 is_stmt 1 view .LVU69
 235              		.loc 1 156 12 is_stmt 0 view .LVU70
 236 000a A36B     		ldr	r3, [r4, #56]
 237              		.loc 1 156 7 view .LVU71
 238 000c 002B     		cmp	r3, #0
 239 000e 36D0     		beq	.L24
 240              	.L21:
 157:Drivers/lvgl/src/widgets/msgbox/lv_msgbox.c ****         mbox->title = lv_label_create(mbox->header);
 158:Drivers/lvgl/src/widgets/msgbox/lv_msgbox.c ****         lv_obj_set_flex_grow(mbox->title, 1);
 159:Drivers/lvgl/src/widgets/msgbox/lv_msgbox.c ****     }
 160:Drivers/lvgl/src/widgets/msgbox/lv_msgbox.c **** 
 161:Drivers/lvgl/src/widgets/msgbox/lv_msgbox.c ****     lv_label_set_text(mbox->title, title);
 241              		.loc 1 161 5 is_stmt 1 view .LVU72
 242 0010 2946     		mov	r1, r5
 243 0012 A06B     		ldr	r0, [r4, #56]
 244 0014 FFF7FEFF 		bl	lv_label_set_text
 245              	.LVL26:
 162:Drivers/lvgl/src/widgets/msgbox/lv_msgbox.c **** 
 163:Drivers/lvgl/src/widgets/msgbox/lv_msgbox.c ****     return mbox->title;
 246              		.loc 1 163 5 view .LVU73
 247              		.loc 1 163 16 is_stmt 0 view .LVU74
 248 0018 A06B     		ldr	r0, [r4, #56]
 249              	.L16:
 164:Drivers/lvgl/src/widgets/msgbox/lv_msgbox.c **** }
 250              		.loc 1 164 1 view .LVU75
 251 001a F8BD     		pop	{r3, r4, r5, r6, r7, pc}
 252              	.LVL27:
 253              	.L23:
 144:Drivers/lvgl/src/widgets/msgbox/lv_msgbox.c ****         LV_ASSERT_MALLOC(obj);
 254              		.loc 1 144 9 is_stmt 1 view .LVU76
 144:Drivers/lvgl/src/widgets/msgbox/lv_msgbox.c ****         LV_ASSERT_MALLOC(obj);
 255              		.loc 1 144 24 is_stmt 0 view .LVU77
 256 001c 0146     		mov	r1, r0
 257              	.LVL28:
 144:Drivers/lvgl/src/widgets/msgbox/lv_msgbox.c ****         LV_ASSERT_MALLOC(obj);
 258              		.loc 1 144 24 view .LVU78
 259 001e 1C48     		ldr	r0, .L25
 260              	.LVL29:
 144:Drivers/lvgl/src/widgets/msgbox/lv_msgbox.c ****         LV_ASSERT_MALLOC(obj);
 261              		.loc 1 144 24 view .LVU79
 262 0020 FFF7FEFF 		bl	lv_obj_class_create_obj
 263              	.LVL30:
 144:Drivers/lvgl/src/widgets/msgbox/lv_msgbox.c ****         LV_ASSERT_MALLOC(obj);
ARM GAS  /tmp/ccQztfG6.s 			page 9


 264              		.loc 1 144 22 discriminator 1 view .LVU80
 265 0024 E062     		str	r0, [r4, #44]
 145:Drivers/lvgl/src/widgets/msgbox/lv_msgbox.c ****         if(mbox->header == NULL) return NULL;
 266              		.loc 1 145 9 is_stmt 1 view .LVU81
 145:Drivers/lvgl/src/widgets/msgbox/lv_msgbox.c ****         if(mbox->header == NULL) return NULL;
 267              		.loc 1 145 9 view .LVU82
 268 0026 4CB3     		cbz	r4, .L19
 145:Drivers/lvgl/src/widgets/msgbox/lv_msgbox.c ****         if(mbox->header == NULL) return NULL;
 269              		.loc 1 145 9 discriminator 2 view .LVU83
 145:Drivers/lvgl/src/widgets/msgbox/lv_msgbox.c ****         if(mbox->header == NULL) return NULL;
 270              		.loc 1 145 30 discriminator 2 view .LVU84
 146:Drivers/lvgl/src/widgets/msgbox/lv_msgbox.c ****         lv_obj_class_init_obj(mbox->header);
 271              		.loc 1 146 9 view .LVU85
 146:Drivers/lvgl/src/widgets/msgbox/lv_msgbox.c ****         lv_obj_class_init_obj(mbox->header);
 272              		.loc 1 146 11 is_stmt 0 view .LVU86
 273 0028 0028     		cmp	r0, #0
 274 002a F6D0     		beq	.L16
 147:Drivers/lvgl/src/widgets/msgbox/lv_msgbox.c **** 
 275              		.loc 1 147 9 is_stmt 1 view .LVU87
 276 002c FFF7FEFF 		bl	lv_obj_class_init_obj
 277              	.LVL31:
 149:Drivers/lvgl/src/widgets/msgbox/lv_msgbox.c ****         lv_obj_set_flex_flow(mbox->header, LV_FLEX_FLOW_ROW);
 278              		.loc 1 149 9 view .LVU88
 279 0030 E76A     		ldr	r7, [r4, #44]
 280 0032 6420     		movs	r0, #100
 281 0034 FFF7FEFF 		bl	lv_pct
 282              	.LVL32:
 283 0038 0646     		mov	r6, r0
 149:Drivers/lvgl/src/widgets/msgbox/lv_msgbox.c ****         lv_obj_set_flex_flow(mbox->header, LV_FLEX_FLOW_ROW);
 284              		.loc 1 149 71 is_stmt 0 discriminator 1 view .LVU89
 285 003a 2046     		mov	r0, r4
 286 003c FFF7FEFF 		bl	lv_obj_get_display
 287              	.LVL33:
 149:Drivers/lvgl/src/widgets/msgbox/lv_msgbox.c ****         lv_obj_set_flex_flow(mbox->header, LV_FLEX_FLOW_ROW);
 288              		.loc 1 149 52 discriminator 2 view .LVU90
 289 0040 FFF7FEFF 		bl	lv_display_get_dpi
 290              	.LVL34:
 149:Drivers/lvgl/src/widgets/msgbox/lv_msgbox.c ****         lv_obj_set_flex_flow(mbox->header, LV_FLEX_FLOW_ROW);
 291              		.loc 1 149 9 discriminator 3 view .LVU91
 292 0044 134A     		ldr	r2, .L25+4
 293 0046 82FB0032 		smull	r3, r2, r2, r0
 294 004a A2EBE072 		sub	r2, r2, r0, asr #31
 295 004e 3146     		mov	r1, r6
 296 0050 3846     		mov	r0, r7
 297 0052 FFF7FEFF 		bl	lv_obj_set_size
 298              	.LVL35:
 150:Drivers/lvgl/src/widgets/msgbox/lv_msgbox.c ****         lv_obj_set_flex_align(mbox->header, LV_FLEX_ALIGN_START, LV_FLEX_ALIGN_CENTER, LV_FLEX_ALIG
 299              		.loc 1 150 9 is_stmt 1 view .LVU92
 300 0056 0021     		movs	r1, #0
 301 0058 E06A     		ldr	r0, [r4, #44]
 302 005a FFF7FEFF 		bl	lv_obj_set_flex_flow
 303              	.LVL36:
 151:Drivers/lvgl/src/widgets/msgbox/lv_msgbox.c ****         lv_obj_remove_flag(mbox->header, LV_OBJ_FLAG_SCROLLABLE);
 304              		.loc 1 151 9 view .LVU93
 305 005e 0223     		movs	r3, #2
 306 0060 1A46     		mov	r2, r3
 307 0062 0021     		movs	r1, #0
ARM GAS  /tmp/ccQztfG6.s 			page 10


 308 0064 E06A     		ldr	r0, [r4, #44]
 309 0066 FFF7FEFF 		bl	lv_obj_set_flex_align
 310              	.LVL37:
 152:Drivers/lvgl/src/widgets/msgbox/lv_msgbox.c ****         lv_obj_move_to_index(mbox->header, 0);
 311              		.loc 1 152 9 view .LVU94
 312 006a 1021     		movs	r1, #16
 313 006c E06A     		ldr	r0, [r4, #44]
 314 006e FFF7FEFF 		bl	lv_obj_remove_flag
 315              	.LVL38:
 153:Drivers/lvgl/src/widgets/msgbox/lv_msgbox.c ****     }
 316              		.loc 1 153 9 view .LVU95
 317 0072 0021     		movs	r1, #0
 318 0074 E06A     		ldr	r0, [r4, #44]
 319 0076 FFF7FEFF 		bl	lv_obj_move_to_index
 320              	.LVL39:
 321 007a C6E7     		b	.L17
 322              	.L19:
 145:Drivers/lvgl/src/widgets/msgbox/lv_msgbox.c ****         if(mbox->header == NULL) return NULL;
 323              		.loc 1 145 9 discriminator 1 view .LVU96
 145:Drivers/lvgl/src/widgets/msgbox/lv_msgbox.c ****         if(mbox->header == NULL) return NULL;
 324              		.loc 1 145 9 discriminator 1 view .LVU97
 145:Drivers/lvgl/src/widgets/msgbox/lv_msgbox.c ****         if(mbox->header == NULL) return NULL;
 325              		.loc 1 145 9 discriminator 1 view .LVU98
 145:Drivers/lvgl/src/widgets/msgbox/lv_msgbox.c ****         if(mbox->header == NULL) return NULL;
 326              		.loc 1 145 9 discriminator 1 view .LVU99
 145:Drivers/lvgl/src/widgets/msgbox/lv_msgbox.c ****         if(mbox->header == NULL) return NULL;
 327              		.loc 1 145 9 discriminator 1 view .LVU100
 328 007c FEE7     		b	.L19
 329              	.L24:
 157:Drivers/lvgl/src/widgets/msgbox/lv_msgbox.c ****         lv_obj_set_flex_grow(mbox->title, 1);
 330              		.loc 1 157 9 view .LVU101
 157:Drivers/lvgl/src/widgets/msgbox/lv_msgbox.c ****         lv_obj_set_flex_grow(mbox->title, 1);
 331              		.loc 1 157 23 is_stmt 0 view .LVU102
 332 007e E06A     		ldr	r0, [r4, #44]
 333 0080 FFF7FEFF 		bl	lv_label_create
 334              	.LVL40:
 157:Drivers/lvgl/src/widgets/msgbox/lv_msgbox.c ****         lv_obj_set_flex_grow(mbox->title, 1);
 335              		.loc 1 157 21 discriminator 1 view .LVU103
 336 0084 A063     		str	r0, [r4, #56]
 158:Drivers/lvgl/src/widgets/msgbox/lv_msgbox.c ****     }
 337              		.loc 1 158 9 is_stmt 1 view .LVU104
 338 0086 0121     		movs	r1, #1
 339 0088 FFF7FEFF 		bl	lv_obj_set_flex_grow
 340              	.LVL41:
 341 008c C0E7     		b	.L21
 342              	.L26:
 343 008e 00BF     		.align	2
 344              	.L25:
 345 0090 00000000 		.word	lv_msgbox_header_class
 346 0094 56555555 		.word	1431655766
 347              		.cfi_endproc
 348              	.LFE172:
 350              		.section	.rodata.lv_msgbox_add_header_button.str1.4,"aMS",%progbits,1
 351              		.align	2
 352              	.LC0:
 353 0000 00       		.ascii	"\000"
 354              		.section	.text.lv_msgbox_add_header_button,"ax",%progbits
ARM GAS  /tmp/ccQztfG6.s 			page 11


 355              		.align	1
 356              		.global	lv_msgbox_add_header_button
 357              		.syntax unified
 358              		.thumb
 359              		.thumb_func
 361              	lv_msgbox_add_header_button:
 362              	.LVL42:
 363              	.LFB173:
 165:Drivers/lvgl/src/widgets/msgbox/lv_msgbox.c **** 
 166:Drivers/lvgl/src/widgets/msgbox/lv_msgbox.c **** lv_obj_t * lv_msgbox_add_header_button(lv_obj_t * obj, const void * icon)
 167:Drivers/lvgl/src/widgets/msgbox/lv_msgbox.c **** {
 364              		.loc 1 167 1 view -0
 365              		.cfi_startproc
 366              		@ args = 0, pretend = 0, frame = 0
 367              		@ frame_needed = 0, uses_anonymous_args = 0
 368              		.loc 1 167 1 is_stmt 0 view .LVU106
 369 0000 70B5     		push	{r4, r5, r6, lr}
 370              	.LCFI2:
 371              		.cfi_def_cfa_offset 16
 372              		.cfi_offset 4, -16
 373              		.cfi_offset 5, -12
 374              		.cfi_offset 6, -8
 375              		.cfi_offset 14, -4
 376 0002 0446     		mov	r4, r0
 377 0004 0E46     		mov	r6, r1
 168:Drivers/lvgl/src/widgets/msgbox/lv_msgbox.c ****     lv_msgbox_t * mbox = (lv_msgbox_t *)obj;
 378              		.loc 1 168 5 is_stmt 1 view .LVU107
 379              	.LVL43:
 169:Drivers/lvgl/src/widgets/msgbox/lv_msgbox.c ****     if(mbox->header == NULL) {
 380              		.loc 1 169 5 view .LVU108
 381              		.loc 1 169 12 is_stmt 0 view .LVU109
 382 0006 C36A     		ldr	r3, [r0, #44]
 383              		.loc 1 169 7 view .LVU110
 384 0008 E3B1     		cbz	r3, .L33
 385              	.LVL44:
 386              	.L28:
 170:Drivers/lvgl/src/widgets/msgbox/lv_msgbox.c ****         lv_msgbox_add_title(obj, ""); /*Just to push the buttons to the right*/
 171:Drivers/lvgl/src/widgets/msgbox/lv_msgbox.c ****     }
 172:Drivers/lvgl/src/widgets/msgbox/lv_msgbox.c **** 
 173:Drivers/lvgl/src/widgets/msgbox/lv_msgbox.c ****     lv_obj_t * btn = lv_obj_class_create_obj(&lv_msgbox_header_button_class, mbox->header);
 387              		.loc 1 173 5 is_stmt 1 view .LVU111
 388              		.loc 1 173 22 is_stmt 0 view .LVU112
 389 000a E16A     		ldr	r1, [r4, #44]
 390 000c 1048     		ldr	r0, .L34
 391 000e FFF7FEFF 		bl	lv_obj_class_create_obj
 392              	.LVL45:
 393 0012 0546     		mov	r5, r0
 394              	.LVL46:
 174:Drivers/lvgl/src/widgets/msgbox/lv_msgbox.c ****     LV_ASSERT_MALLOC(obj);
 395              		.loc 1 174 5 is_stmt 1 view .LVU113
 396              		.loc 1 174 5 view .LVU114
 397 0014 D4B1     		cbz	r4, .L30
 398              		.loc 1 174 5 discriminator 2 view .LVU115
 399              		.loc 1 174 26 discriminator 2 view .LVU116
 175:Drivers/lvgl/src/widgets/msgbox/lv_msgbox.c ****     if(btn == NULL) return NULL;
 400              		.loc 1 175 5 view .LVU117
 401              		.loc 1 175 7 is_stmt 0 view .LVU118
ARM GAS  /tmp/ccQztfG6.s 			page 12


 402 0016 98B1     		cbz	r0, .L27
 176:Drivers/lvgl/src/widgets/msgbox/lv_msgbox.c ****     lv_obj_class_init_obj(btn);
 403              		.loc 1 176 5 is_stmt 1 view .LVU119
 404 0018 FFF7FEFF 		bl	lv_obj_class_init_obj
 405              	.LVL47:
 177:Drivers/lvgl/src/widgets/msgbox/lv_msgbox.c ****     lv_obj_remove_flag(btn, LV_OBJ_FLAG_SCROLLABLE);
 406              		.loc 1 177 5 view .LVU120
 407 001c 1021     		movs	r1, #16
 408 001e 2846     		mov	r0, r5
 409 0020 FFF7FEFF 		bl	lv_obj_remove_flag
 410              	.LVL48:
 178:Drivers/lvgl/src/widgets/msgbox/lv_msgbox.c **** 
 179:Drivers/lvgl/src/widgets/msgbox/lv_msgbox.c ****     if(icon) {
 411              		.loc 1 179 5 view .LVU121
 412              		.loc 1 179 7 is_stmt 0 view .LVU122
 413 0024 66B1     		cbz	r6, .L27
 414              	.LBB4:
 180:Drivers/lvgl/src/widgets/msgbox/lv_msgbox.c ****         lv_obj_t * img = lv_image_create(btn);
 415              		.loc 1 180 9 is_stmt 1 view .LVU123
 416              		.loc 1 180 26 is_stmt 0 view .LVU124
 417 0026 2846     		mov	r0, r5
 418 0028 FFF7FEFF 		bl	lv_image_create
 419              	.LVL49:
 420 002c 0446     		mov	r4, r0
 421              	.LVL50:
 181:Drivers/lvgl/src/widgets/msgbox/lv_msgbox.c ****         lv_image_set_src(img, icon);
 422              		.loc 1 181 9 is_stmt 1 view .LVU125
 423 002e 3146     		mov	r1, r6
 424 0030 FFF7FEFF 		bl	lv_image_set_src
 425              	.LVL51:
 182:Drivers/lvgl/src/widgets/msgbox/lv_msgbox.c ****         lv_obj_align(img, LV_ALIGN_CENTER, 0, 0);
 426              		.loc 1 182 9 view .LVU126
 427 0034 0023     		movs	r3, #0
 428 0036 1A46     		mov	r2, r3
 429 0038 0921     		movs	r1, #9
 430 003a 2046     		mov	r0, r4
 431 003c FFF7FEFF 		bl	lv_obj_align
 432              	.LVL52:
 433              	.L27:
 434              		.loc 1 182 9 is_stmt 0 view .LVU127
 435              	.LBE4:
 183:Drivers/lvgl/src/widgets/msgbox/lv_msgbox.c ****     }
 184:Drivers/lvgl/src/widgets/msgbox/lv_msgbox.c **** 
 185:Drivers/lvgl/src/widgets/msgbox/lv_msgbox.c ****     return btn;
 186:Drivers/lvgl/src/widgets/msgbox/lv_msgbox.c **** }
 436              		.loc 1 186 1 view .LVU128
 437 0040 2846     		mov	r0, r5
 438 0042 70BD     		pop	{r4, r5, r6, pc}
 439              	.LVL53:
 440              	.L33:
 170:Drivers/lvgl/src/widgets/msgbox/lv_msgbox.c ****     }
 441              		.loc 1 170 9 is_stmt 1 view .LVU129
 442 0044 0349     		ldr	r1, .L34+4
 443              	.LVL54:
 170:Drivers/lvgl/src/widgets/msgbox/lv_msgbox.c ****     }
 444              		.loc 1 170 9 is_stmt 0 view .LVU130
 445 0046 FFF7FEFF 		bl	lv_msgbox_add_title
ARM GAS  /tmp/ccQztfG6.s 			page 13


 446              	.LVL55:
 170:Drivers/lvgl/src/widgets/msgbox/lv_msgbox.c ****     }
 447              		.loc 1 170 9 view .LVU131
 448 004a DEE7     		b	.L28
 449              	.LVL56:
 450              	.L30:
 174:Drivers/lvgl/src/widgets/msgbox/lv_msgbox.c ****     if(btn == NULL) return NULL;
 451              		.loc 1 174 5 is_stmt 1 discriminator 1 view .LVU132
 174:Drivers/lvgl/src/widgets/msgbox/lv_msgbox.c ****     if(btn == NULL) return NULL;
 452              		.loc 1 174 5 discriminator 1 view .LVU133
 174:Drivers/lvgl/src/widgets/msgbox/lv_msgbox.c ****     if(btn == NULL) return NULL;
 453              		.loc 1 174 5 discriminator 1 view .LVU134
 174:Drivers/lvgl/src/widgets/msgbox/lv_msgbox.c ****     if(btn == NULL) return NULL;
 454              		.loc 1 174 5 discriminator 1 view .LVU135
 174:Drivers/lvgl/src/widgets/msgbox/lv_msgbox.c ****     if(btn == NULL) return NULL;
 455              		.loc 1 174 5 discriminator 1 view .LVU136
 456 004c FEE7     		b	.L30
 457              	.L35:
 458 004e 00BF     		.align	2
 459              	.L34:
 460 0050 00000000 		.word	lv_msgbox_header_button_class
 461 0054 00000000 		.word	.LC0
 462              		.cfi_endproc
 463              	.LFE173:
 465              		.section	.text.lv_msgbox_add_text,"ax",%progbits
 466              		.align	1
 467              		.global	lv_msgbox_add_text
 468              		.syntax unified
 469              		.thumb
 470              		.thumb_func
 472              	lv_msgbox_add_text:
 473              	.LVL57:
 474              	.LFB174:
 187:Drivers/lvgl/src/widgets/msgbox/lv_msgbox.c **** 
 188:Drivers/lvgl/src/widgets/msgbox/lv_msgbox.c **** lv_obj_t * lv_msgbox_add_text(lv_obj_t * obj, const char * text)
 189:Drivers/lvgl/src/widgets/msgbox/lv_msgbox.c **** {
 475              		.loc 1 189 1 view -0
 476              		.cfi_startproc
 477              		@ args = 0, pretend = 0, frame = 0
 478              		@ frame_needed = 0, uses_anonymous_args = 0
 479              		.loc 1 189 1 is_stmt 0 view .LVU138
 480 0000 38B5     		push	{r3, r4, r5, lr}
 481              	.LCFI3:
 482              		.cfi_def_cfa_offset 16
 483              		.cfi_offset 3, -16
 484              		.cfi_offset 4, -12
 485              		.cfi_offset 5, -8
 486              		.cfi_offset 14, -4
 487 0002 0D46     		mov	r5, r1
 190:Drivers/lvgl/src/widgets/msgbox/lv_msgbox.c ****     lv_msgbox_t * mbox = (lv_msgbox_t *)obj;
 488              		.loc 1 190 5 is_stmt 1 view .LVU139
 489              	.LVL58:
 191:Drivers/lvgl/src/widgets/msgbox/lv_msgbox.c **** 
 192:Drivers/lvgl/src/widgets/msgbox/lv_msgbox.c ****     lv_obj_t * label = lv_label_create(mbox->content);
 490              		.loc 1 192 5 view .LVU140
 491              		.loc 1 192 24 is_stmt 0 view .LVU141
 492 0004 006B     		ldr	r0, [r0, #48]
ARM GAS  /tmp/ccQztfG6.s 			page 14


 493              	.LVL59:
 494              		.loc 1 192 24 view .LVU142
 495 0006 FFF7FEFF 		bl	lv_label_create
 496              	.LVL60:
 497              		.loc 1 192 24 view .LVU143
 498 000a 0446     		mov	r4, r0
 499              	.LVL61:
 193:Drivers/lvgl/src/widgets/msgbox/lv_msgbox.c ****     lv_label_set_text(label, text);
 500              		.loc 1 193 5 is_stmt 1 view .LVU144
 501 000c 2946     		mov	r1, r5
 502 000e FFF7FEFF 		bl	lv_label_set_text
 503              	.LVL62:
 194:Drivers/lvgl/src/widgets/msgbox/lv_msgbox.c ****     lv_obj_set_width(label, lv_pct(100));
 504              		.loc 1 194 5 view .LVU145
 505 0012 6420     		movs	r0, #100
 506 0014 FFF7FEFF 		bl	lv_pct
 507              	.LVL63:
 508 0018 0146     		mov	r1, r0
 509              		.loc 1 194 5 is_stmt 0 discriminator 1 view .LVU146
 510 001a 2046     		mov	r0, r4
 511 001c FFF7FEFF 		bl	lv_obj_set_width
 512              	.LVL64:
 195:Drivers/lvgl/src/widgets/msgbox/lv_msgbox.c **** 
 196:Drivers/lvgl/src/widgets/msgbox/lv_msgbox.c ****     return label;
 513              		.loc 1 196 5 is_stmt 1 view .LVU147
 197:Drivers/lvgl/src/widgets/msgbox/lv_msgbox.c **** }
 514              		.loc 1 197 1 is_stmt 0 view .LVU148
 515 0020 2046     		mov	r0, r4
 516 0022 38BD     		pop	{r3, r4, r5, pc}
 517              		.loc 1 197 1 view .LVU149
 518              		.cfi_endproc
 519              	.LFE174:
 521              		.section	.text.lv_msgbox_add_footer_button,"ax",%progbits
 522              		.align	1
 523              		.global	lv_msgbox_add_footer_button
 524              		.syntax unified
 525              		.thumb
 526              		.thumb_func
 528              	lv_msgbox_add_footer_button:
 529              	.LVL65:
 530              	.LFB175:
 198:Drivers/lvgl/src/widgets/msgbox/lv_msgbox.c **** 
 199:Drivers/lvgl/src/widgets/msgbox/lv_msgbox.c **** lv_obj_t * lv_msgbox_add_footer_button(lv_obj_t * obj, const char * text)
 200:Drivers/lvgl/src/widgets/msgbox/lv_msgbox.c **** {
 531              		.loc 1 200 1 is_stmt 1 view -0
 532              		.cfi_startproc
 533              		@ args = 0, pretend = 0, frame = 0
 534              		@ frame_needed = 0, uses_anonymous_args = 0
 535              		.loc 1 200 1 is_stmt 0 view .LVU151
 536 0000 70B5     		push	{r4, r5, r6, lr}
 537              	.LCFI4:
 538              		.cfi_def_cfa_offset 16
 539              		.cfi_offset 4, -16
 540              		.cfi_offset 5, -12
 541              		.cfi_offset 6, -8
 542              		.cfi_offset 14, -4
 543 0002 0446     		mov	r4, r0
ARM GAS  /tmp/ccQztfG6.s 			page 15


 544 0004 0E46     		mov	r6, r1
 201:Drivers/lvgl/src/widgets/msgbox/lv_msgbox.c ****     lv_msgbox_t * mbox = (lv_msgbox_t *)obj;
 545              		.loc 1 201 5 is_stmt 1 view .LVU152
 546              	.LVL66:
 202:Drivers/lvgl/src/widgets/msgbox/lv_msgbox.c ****     if(mbox->footer == NULL) {
 547              		.loc 1 202 5 view .LVU153
 548              		.loc 1 202 12 is_stmt 0 view .LVU154
 549 0006 436B     		ldr	r3, [r0, #52]
 550              		.loc 1 202 7 view .LVU155
 551 0008 E3B1     		cbz	r3, .L46
 552              	.LVL67:
 553              	.L39:
 203:Drivers/lvgl/src/widgets/msgbox/lv_msgbox.c ****         mbox->footer = lv_obj_class_create_obj(&lv_msgbox_footer_class, obj);
 204:Drivers/lvgl/src/widgets/msgbox/lv_msgbox.c ****         LV_ASSERT_MALLOC(obj);
 205:Drivers/lvgl/src/widgets/msgbox/lv_msgbox.c ****         if(mbox->footer == NULL) return NULL;
 206:Drivers/lvgl/src/widgets/msgbox/lv_msgbox.c ****         lv_obj_class_init_obj(mbox->footer);
 207:Drivers/lvgl/src/widgets/msgbox/lv_msgbox.c **** 
 208:Drivers/lvgl/src/widgets/msgbox/lv_msgbox.c ****         lv_obj_set_flex_flow(mbox->footer, LV_FLEX_FLOW_ROW);
 209:Drivers/lvgl/src/widgets/msgbox/lv_msgbox.c ****         lv_obj_set_flex_align(mbox->footer, LV_FLEX_ALIGN_SPACE_EVENLY, LV_FLEX_ALIGN_CENTER, LV_FL
 210:Drivers/lvgl/src/widgets/msgbox/lv_msgbox.c ****         lv_obj_remove_flag(mbox->footer, LV_OBJ_FLAG_SCROLLABLE);
 211:Drivers/lvgl/src/widgets/msgbox/lv_msgbox.c ****     }
 212:Drivers/lvgl/src/widgets/msgbox/lv_msgbox.c **** 
 213:Drivers/lvgl/src/widgets/msgbox/lv_msgbox.c ****     lv_obj_t * btn = lv_obj_class_create_obj(&lv_msgbox_footer_button_class, mbox->footer);
 554              		.loc 1 213 5 is_stmt 1 view .LVU156
 555              		.loc 1 213 22 is_stmt 0 view .LVU157
 556 000a 616B     		ldr	r1, [r4, #52]
 557 000c 1B48     		ldr	r0, .L47
 558 000e FFF7FEFF 		bl	lv_obj_class_create_obj
 559              	.LVL68:
 560 0012 0546     		mov	r5, r0
 561              	.LVL69:
 214:Drivers/lvgl/src/widgets/msgbox/lv_msgbox.c ****     LV_ASSERT_MALLOC(obj);
 562              		.loc 1 214 5 is_stmt 1 view .LVU158
 563              		.loc 1 214 5 view .LVU159
 564 0014 8CB3     		cbz	r4, .L44
 565              		.loc 1 214 5 discriminator 2 view .LVU160
 566              		.loc 1 214 26 discriminator 2 view .LVU161
 215:Drivers/lvgl/src/widgets/msgbox/lv_msgbox.c ****     if(btn == NULL) return NULL;
 567              		.loc 1 215 5 view .LVU162
 568              		.loc 1 215 7 is_stmt 0 view .LVU163
 569 0016 98B1     		cbz	r0, .L38
 216:Drivers/lvgl/src/widgets/msgbox/lv_msgbox.c ****     lv_obj_class_init_obj(btn);
 570              		.loc 1 216 5 is_stmt 1 view .LVU164
 571 0018 FFF7FEFF 		bl	lv_obj_class_init_obj
 572              	.LVL70:
 217:Drivers/lvgl/src/widgets/msgbox/lv_msgbox.c ****     lv_obj_remove_flag(btn, LV_OBJ_FLAG_SCROLLABLE);
 573              		.loc 1 217 5 view .LVU165
 574 001c 1021     		movs	r1, #16
 575 001e 2846     		mov	r0, r5
 576 0020 FFF7FEFF 		bl	lv_obj_remove_flag
 577              	.LVL71:
 218:Drivers/lvgl/src/widgets/msgbox/lv_msgbox.c **** 
 219:Drivers/lvgl/src/widgets/msgbox/lv_msgbox.c ****     if(text) {
 578              		.loc 1 219 5 view .LVU166
 579              		.loc 1 219 7 is_stmt 0 view .LVU167
 580 0024 66B1     		cbz	r6, .L38
 581              	.LBB5:
ARM GAS  /tmp/ccQztfG6.s 			page 16


 220:Drivers/lvgl/src/widgets/msgbox/lv_msgbox.c ****         lv_obj_t * label = lv_label_create(btn);
 582              		.loc 1 220 9 is_stmt 1 view .LVU168
 583              		.loc 1 220 28 is_stmt 0 view .LVU169
 584 0026 2846     		mov	r0, r5
 585 0028 FFF7FEFF 		bl	lv_label_create
 586              	.LVL72:
 587 002c 0446     		mov	r4, r0
 588              	.LVL73:
 221:Drivers/lvgl/src/widgets/msgbox/lv_msgbox.c ****         lv_label_set_text(label, text);
 589              		.loc 1 221 9 is_stmt 1 view .LVU170
 590 002e 3146     		mov	r1, r6
 591 0030 FFF7FEFF 		bl	lv_label_set_text
 592              	.LVL74:
 222:Drivers/lvgl/src/widgets/msgbox/lv_msgbox.c ****         lv_obj_align(label, LV_ALIGN_CENTER, 0, 0);
 593              		.loc 1 222 9 view .LVU171
 594 0034 0023     		movs	r3, #0
 595 0036 1A46     		mov	r2, r3
 596 0038 0921     		movs	r1, #9
 597 003a 2046     		mov	r0, r4
 598 003c FFF7FEFF 		bl	lv_obj_align
 599              	.LVL75:
 600              	.L38:
 601              		.loc 1 222 9 is_stmt 0 view .LVU172
 602              	.LBE5:
 223:Drivers/lvgl/src/widgets/msgbox/lv_msgbox.c ****     }
 224:Drivers/lvgl/src/widgets/msgbox/lv_msgbox.c **** 
 225:Drivers/lvgl/src/widgets/msgbox/lv_msgbox.c ****     return btn;
 226:Drivers/lvgl/src/widgets/msgbox/lv_msgbox.c **** }
 603              		.loc 1 226 1 view .LVU173
 604 0040 2846     		mov	r0, r5
 605 0042 70BD     		pop	{r4, r5, r6, pc}
 606              	.LVL76:
 607              	.L46:
 203:Drivers/lvgl/src/widgets/msgbox/lv_msgbox.c ****         LV_ASSERT_MALLOC(obj);
 608              		.loc 1 203 9 is_stmt 1 view .LVU174
 203:Drivers/lvgl/src/widgets/msgbox/lv_msgbox.c ****         LV_ASSERT_MALLOC(obj);
 609              		.loc 1 203 24 is_stmt 0 view .LVU175
 610 0044 0146     		mov	r1, r0
 611              	.LVL77:
 203:Drivers/lvgl/src/widgets/msgbox/lv_msgbox.c ****         LV_ASSERT_MALLOC(obj);
 612              		.loc 1 203 24 view .LVU176
 613 0046 0E48     		ldr	r0, .L47+4
 614              	.LVL78:
 203:Drivers/lvgl/src/widgets/msgbox/lv_msgbox.c ****         LV_ASSERT_MALLOC(obj);
 615              		.loc 1 203 24 view .LVU177
 616 0048 FFF7FEFF 		bl	lv_obj_class_create_obj
 617              	.LVL79:
 618 004c 0546     		mov	r5, r0
 203:Drivers/lvgl/src/widgets/msgbox/lv_msgbox.c ****         LV_ASSERT_MALLOC(obj);
 619              		.loc 1 203 22 discriminator 1 view .LVU178
 620 004e 6063     		str	r0, [r4, #52]
 204:Drivers/lvgl/src/widgets/msgbox/lv_msgbox.c ****         if(mbox->footer == NULL) return NULL;
 621              		.loc 1 204 9 is_stmt 1 view .LVU179
 204:Drivers/lvgl/src/widgets/msgbox/lv_msgbox.c ****         if(mbox->footer == NULL) return NULL;
 622              		.loc 1 204 9 view .LVU180
 623 0050 94B1     		cbz	r4, .L41
 204:Drivers/lvgl/src/widgets/msgbox/lv_msgbox.c ****         if(mbox->footer == NULL) return NULL;
ARM GAS  /tmp/ccQztfG6.s 			page 17


 624              		.loc 1 204 9 discriminator 2 view .LVU181
 204:Drivers/lvgl/src/widgets/msgbox/lv_msgbox.c ****         if(mbox->footer == NULL) return NULL;
 625              		.loc 1 204 30 discriminator 2 view .LVU182
 205:Drivers/lvgl/src/widgets/msgbox/lv_msgbox.c ****         lv_obj_class_init_obj(mbox->footer);
 626              		.loc 1 205 9 view .LVU183
 205:Drivers/lvgl/src/widgets/msgbox/lv_msgbox.c ****         lv_obj_class_init_obj(mbox->footer);
 627              		.loc 1 205 11 is_stmt 0 view .LVU184
 628 0052 0028     		cmp	r0, #0
 629 0054 F4D0     		beq	.L38
 206:Drivers/lvgl/src/widgets/msgbox/lv_msgbox.c **** 
 630              		.loc 1 206 9 is_stmt 1 view .LVU185
 631 0056 FFF7FEFF 		bl	lv_obj_class_init_obj
 632              	.LVL80:
 208:Drivers/lvgl/src/widgets/msgbox/lv_msgbox.c ****         lv_obj_set_flex_align(mbox->footer, LV_FLEX_ALIGN_SPACE_EVENLY, LV_FLEX_ALIGN_CENTER, LV_FL
 633              		.loc 1 208 9 view .LVU186
 634 005a 0021     		movs	r1, #0
 635 005c 606B     		ldr	r0, [r4, #52]
 636 005e FFF7FEFF 		bl	lv_obj_set_flex_flow
 637              	.LVL81:
 209:Drivers/lvgl/src/widgets/msgbox/lv_msgbox.c ****         lv_obj_remove_flag(mbox->footer, LV_OBJ_FLAG_SCROLLABLE);
 638              		.loc 1 209 9 view .LVU187
 639 0062 0223     		movs	r3, #2
 640 0064 1A46     		mov	r2, r3
 641 0066 0321     		movs	r1, #3
 642 0068 606B     		ldr	r0, [r4, #52]
 643 006a FFF7FEFF 		bl	lv_obj_set_flex_align
 644              	.LVL82:
 210:Drivers/lvgl/src/widgets/msgbox/lv_msgbox.c ****     }
 645              		.loc 1 210 9 view .LVU188
 646 006e 1021     		movs	r1, #16
 647 0070 606B     		ldr	r0, [r4, #52]
 648 0072 FFF7FEFF 		bl	lv_obj_remove_flag
 649              	.LVL83:
 650 0076 C8E7     		b	.L39
 651              	.L41:
 204:Drivers/lvgl/src/widgets/msgbox/lv_msgbox.c ****         if(mbox->footer == NULL) return NULL;
 652              		.loc 1 204 9 discriminator 1 view .LVU189
 204:Drivers/lvgl/src/widgets/msgbox/lv_msgbox.c ****         if(mbox->footer == NULL) return NULL;
 653              		.loc 1 204 9 discriminator 1 view .LVU190
 204:Drivers/lvgl/src/widgets/msgbox/lv_msgbox.c ****         if(mbox->footer == NULL) return NULL;
 654              		.loc 1 204 9 discriminator 1 view .LVU191
 204:Drivers/lvgl/src/widgets/msgbox/lv_msgbox.c ****         if(mbox->footer == NULL) return NULL;
 655              		.loc 1 204 9 discriminator 1 view .LVU192
 204:Drivers/lvgl/src/widgets/msgbox/lv_msgbox.c ****         if(mbox->footer == NULL) return NULL;
 656              		.loc 1 204 9 discriminator 1 view .LVU193
 657 0078 FEE7     		b	.L41
 658              	.LVL84:
 659              	.L44:
 214:Drivers/lvgl/src/widgets/msgbox/lv_msgbox.c ****     if(btn == NULL) return NULL;
 660              		.loc 1 214 5 discriminator 1 view .LVU194
 214:Drivers/lvgl/src/widgets/msgbox/lv_msgbox.c ****     if(btn == NULL) return NULL;
 661              		.loc 1 214 5 discriminator 1 view .LVU195
 214:Drivers/lvgl/src/widgets/msgbox/lv_msgbox.c ****     if(btn == NULL) return NULL;
 662              		.loc 1 214 5 discriminator 1 view .LVU196
 214:Drivers/lvgl/src/widgets/msgbox/lv_msgbox.c ****     if(btn == NULL) return NULL;
 663              		.loc 1 214 5 discriminator 1 view .LVU197
 214:Drivers/lvgl/src/widgets/msgbox/lv_msgbox.c ****     if(btn == NULL) return NULL;
ARM GAS  /tmp/ccQztfG6.s 			page 18


 664              		.loc 1 214 5 discriminator 1 view .LVU198
 665 007a FEE7     		b	.L44
 666              	.L48:
 667              		.align	2
 668              	.L47:
 669 007c 00000000 		.word	lv_msgbox_footer_button_class
 670 0080 00000000 		.word	lv_msgbox_footer_class
 671              		.cfi_endproc
 672              	.LFE175:
 674              		.section	.rodata.lv_msgbox_add_close_button.str1.4,"aMS",%progbits,1
 675              		.align	2
 676              	.LC1:
 677 0000 EF808D00 		.ascii	"\357\200\215\000"
 678              		.section	.text.lv_msgbox_add_close_button,"ax",%progbits
 679              		.align	1
 680              		.global	lv_msgbox_add_close_button
 681              		.syntax unified
 682              		.thumb
 683              		.thumb_func
 685              	lv_msgbox_add_close_button:
 686              	.LVL85:
 687              	.LFB176:
 227:Drivers/lvgl/src/widgets/msgbox/lv_msgbox.c **** 
 228:Drivers/lvgl/src/widgets/msgbox/lv_msgbox.c **** lv_obj_t * lv_msgbox_add_close_button(lv_obj_t * obj)
 229:Drivers/lvgl/src/widgets/msgbox/lv_msgbox.c **** {
 688              		.loc 1 229 1 view -0
 689              		.cfi_startproc
 690              		@ args = 0, pretend = 0, frame = 0
 691              		@ frame_needed = 0, uses_anonymous_args = 0
 692              		.loc 1 229 1 is_stmt 0 view .LVU200
 693 0000 10B5     		push	{r4, lr}
 694              	.LCFI5:
 695              		.cfi_def_cfa_offset 8
 696              		.cfi_offset 4, -8
 697              		.cfi_offset 14, -4
 230:Drivers/lvgl/src/widgets/msgbox/lv_msgbox.c ****     lv_obj_t * btn = lv_msgbox_add_header_button(obj, LV_SYMBOL_CLOSE);
 698              		.loc 1 230 5 is_stmt 1 view .LVU201
 699              		.loc 1 230 22 is_stmt 0 view .LVU202
 700 0002 0549     		ldr	r1, .L51
 701 0004 FFF7FEFF 		bl	lv_msgbox_add_header_button
 702              	.LVL86:
 703              		.loc 1 230 22 view .LVU203
 704 0008 0446     		mov	r4, r0
 705              	.LVL87:
 231:Drivers/lvgl/src/widgets/msgbox/lv_msgbox.c ****     lv_obj_add_event_cb(btn, msgbox_close_click_event_cb, LV_EVENT_CLICKED, NULL);
 706              		.loc 1 231 5 is_stmt 1 view .LVU204
 707 000a 0023     		movs	r3, #0
 708 000c 0A22     		movs	r2, #10
 709 000e 0349     		ldr	r1, .L51+4
 710 0010 FFF7FEFF 		bl	lv_obj_add_event_cb
 711              	.LVL88:
 232:Drivers/lvgl/src/widgets/msgbox/lv_msgbox.c ****     return btn;
 712              		.loc 1 232 5 view .LVU205
 233:Drivers/lvgl/src/widgets/msgbox/lv_msgbox.c **** }
 713              		.loc 1 233 1 is_stmt 0 view .LVU206
 714 0014 2046     		mov	r0, r4
 715 0016 10BD     		pop	{r4, pc}
ARM GAS  /tmp/ccQztfG6.s 			page 19


 716              	.LVL89:
 717              	.L52:
 718              		.loc 1 233 1 view .LVU207
 719              		.align	2
 720              	.L51:
 721 0018 00000000 		.word	.LC1
 722 001c 00000000 		.word	msgbox_close_click_event_cb
 723              		.cfi_endproc
 724              	.LFE176:
 726              		.section	.text.lv_msgbox_get_header,"ax",%progbits
 727              		.align	1
 728              		.global	lv_msgbox_get_header
 729              		.syntax unified
 730              		.thumb
 731              		.thumb_func
 733              	lv_msgbox_get_header:
 734              	.LVL90:
 735              	.LFB177:
 234:Drivers/lvgl/src/widgets/msgbox/lv_msgbox.c **** 
 235:Drivers/lvgl/src/widgets/msgbox/lv_msgbox.c **** lv_obj_t * lv_msgbox_get_header(lv_obj_t * obj)
 236:Drivers/lvgl/src/widgets/msgbox/lv_msgbox.c **** {
 736              		.loc 1 236 1 is_stmt 1 view -0
 737              		.cfi_startproc
 738              		@ args = 0, pretend = 0, frame = 0
 739              		@ frame_needed = 0, uses_anonymous_args = 0
 740              		@ link register save eliminated.
 237:Drivers/lvgl/src/widgets/msgbox/lv_msgbox.c ****     LV_ASSERT_OBJ(obj, MY_CLASS);
 741              		.loc 1 237 5 view .LVU209
 742              		.loc 1 237 5 view .LVU210
 743 0000 08B1     		cbz	r0, .L55
 744              		.loc 1 237 5 discriminator 2 view .LVU211
 745              		.loc 1 237 33 discriminator 2 view .LVU212
 238:Drivers/lvgl/src/widgets/msgbox/lv_msgbox.c ****     lv_msgbox_t * mbox = (lv_msgbox_t *)obj;
 746              		.loc 1 238 5 view .LVU213
 747              	.LVL91:
 239:Drivers/lvgl/src/widgets/msgbox/lv_msgbox.c ****     return mbox->header;
 748              		.loc 1 239 5 view .LVU214
 240:Drivers/lvgl/src/widgets/msgbox/lv_msgbox.c **** }
 749              		.loc 1 240 1 is_stmt 0 view .LVU215
 750 0002 C06A     		ldr	r0, [r0, #44]
 751              	.LVL92:
 752              		.loc 1 240 1 view .LVU216
 753 0004 7047     		bx	lr
 754              	.LVL93:
 755              	.L55:
 237:Drivers/lvgl/src/widgets/msgbox/lv_msgbox.c ****     lv_msgbox_t * mbox = (lv_msgbox_t *)obj;
 756              		.loc 1 237 5 is_stmt 1 discriminator 1 view .LVU217
 237:Drivers/lvgl/src/widgets/msgbox/lv_msgbox.c ****     lv_msgbox_t * mbox = (lv_msgbox_t *)obj;
 757              		.loc 1 237 5 discriminator 1 view .LVU218
 237:Drivers/lvgl/src/widgets/msgbox/lv_msgbox.c ****     lv_msgbox_t * mbox = (lv_msgbox_t *)obj;
 758              		.loc 1 237 5 discriminator 1 view .LVU219
 237:Drivers/lvgl/src/widgets/msgbox/lv_msgbox.c ****     lv_msgbox_t * mbox = (lv_msgbox_t *)obj;
 759              		.loc 1 237 5 discriminator 1 view .LVU220
 237:Drivers/lvgl/src/widgets/msgbox/lv_msgbox.c ****     lv_msgbox_t * mbox = (lv_msgbox_t *)obj;
 760              		.loc 1 237 5 discriminator 1 view .LVU221
 761 0006 FEE7     		b	.L55
 762              		.cfi_endproc
ARM GAS  /tmp/ccQztfG6.s 			page 20


 763              	.LFE177:
 765              		.section	.text.lv_msgbox_get_footer,"ax",%progbits
 766              		.align	1
 767              		.global	lv_msgbox_get_footer
 768              		.syntax unified
 769              		.thumb
 770              		.thumb_func
 772              	lv_msgbox_get_footer:
 773              	.LVL94:
 774              	.LFB178:
 241:Drivers/lvgl/src/widgets/msgbox/lv_msgbox.c **** 
 242:Drivers/lvgl/src/widgets/msgbox/lv_msgbox.c **** lv_obj_t * lv_msgbox_get_footer(lv_obj_t * obj)
 243:Drivers/lvgl/src/widgets/msgbox/lv_msgbox.c **** {
 775              		.loc 1 243 1 view -0
 776              		.cfi_startproc
 777              		@ args = 0, pretend = 0, frame = 0
 778              		@ frame_needed = 0, uses_anonymous_args = 0
 779              		@ link register save eliminated.
 244:Drivers/lvgl/src/widgets/msgbox/lv_msgbox.c ****     LV_ASSERT_OBJ(obj, MY_CLASS);
 780              		.loc 1 244 5 view .LVU223
 781              		.loc 1 244 5 view .LVU224
 782 0000 08B1     		cbz	r0, .L58
 783              		.loc 1 244 5 discriminator 2 view .LVU225
 784              		.loc 1 244 33 discriminator 2 view .LVU226
 245:Drivers/lvgl/src/widgets/msgbox/lv_msgbox.c ****     lv_msgbox_t * mbox = (lv_msgbox_t *)obj;
 785              		.loc 1 245 5 view .LVU227
 786              	.LVL95:
 246:Drivers/lvgl/src/widgets/msgbox/lv_msgbox.c ****     return mbox->footer;
 787              		.loc 1 246 5 view .LVU228
 247:Drivers/lvgl/src/widgets/msgbox/lv_msgbox.c **** }
 788              		.loc 1 247 1 is_stmt 0 view .LVU229
 789 0002 406B     		ldr	r0, [r0, #52]
 790              	.LVL96:
 791              		.loc 1 247 1 view .LVU230
 792 0004 7047     		bx	lr
 793              	.LVL97:
 794              	.L58:
 244:Drivers/lvgl/src/widgets/msgbox/lv_msgbox.c ****     lv_msgbox_t * mbox = (lv_msgbox_t *)obj;
 795              		.loc 1 244 5 is_stmt 1 discriminator 1 view .LVU231
 244:Drivers/lvgl/src/widgets/msgbox/lv_msgbox.c ****     lv_msgbox_t * mbox = (lv_msgbox_t *)obj;
 796              		.loc 1 244 5 discriminator 1 view .LVU232
 244:Drivers/lvgl/src/widgets/msgbox/lv_msgbox.c ****     lv_msgbox_t * mbox = (lv_msgbox_t *)obj;
 797              		.loc 1 244 5 discriminator 1 view .LVU233
 244:Drivers/lvgl/src/widgets/msgbox/lv_msgbox.c ****     lv_msgbox_t * mbox = (lv_msgbox_t *)obj;
 798              		.loc 1 244 5 discriminator 1 view .LVU234
 244:Drivers/lvgl/src/widgets/msgbox/lv_msgbox.c ****     lv_msgbox_t * mbox = (lv_msgbox_t *)obj;
 799              		.loc 1 244 5 discriminator 1 view .LVU235
 800 0006 FEE7     		b	.L58
 801              		.cfi_endproc
 802              	.LFE178:
 804              		.section	.text.lv_msgbox_get_content,"ax",%progbits
 805              		.align	1
 806              		.global	lv_msgbox_get_content
 807              		.syntax unified
 808              		.thumb
 809              		.thumb_func
 811              	lv_msgbox_get_content:
ARM GAS  /tmp/ccQztfG6.s 			page 21


 812              	.LVL98:
 813              	.LFB179:
 248:Drivers/lvgl/src/widgets/msgbox/lv_msgbox.c **** 
 249:Drivers/lvgl/src/widgets/msgbox/lv_msgbox.c **** lv_obj_t * lv_msgbox_get_content(lv_obj_t * obj)
 250:Drivers/lvgl/src/widgets/msgbox/lv_msgbox.c **** {
 814              		.loc 1 250 1 view -0
 815              		.cfi_startproc
 816              		@ args = 0, pretend = 0, frame = 0
 817              		@ frame_needed = 0, uses_anonymous_args = 0
 818              		@ link register save eliminated.
 251:Drivers/lvgl/src/widgets/msgbox/lv_msgbox.c ****     LV_ASSERT_OBJ(obj, MY_CLASS);
 819              		.loc 1 251 5 view .LVU237
 820              		.loc 1 251 5 view .LVU238
 821 0000 08B1     		cbz	r0, .L61
 822              		.loc 1 251 5 discriminator 2 view .LVU239
 823              		.loc 1 251 33 discriminator 2 view .LVU240
 252:Drivers/lvgl/src/widgets/msgbox/lv_msgbox.c ****     lv_msgbox_t * mbox = (lv_msgbox_t *)obj;
 824              		.loc 1 252 5 view .LVU241
 825              	.LVL99:
 253:Drivers/lvgl/src/widgets/msgbox/lv_msgbox.c ****     return mbox->content;
 826              		.loc 1 253 5 view .LVU242
 254:Drivers/lvgl/src/widgets/msgbox/lv_msgbox.c **** }
 827              		.loc 1 254 1 is_stmt 0 view .LVU243
 828 0002 006B     		ldr	r0, [r0, #48]
 829              	.LVL100:
 830              		.loc 1 254 1 view .LVU244
 831 0004 7047     		bx	lr
 832              	.LVL101:
 833              	.L61:
 251:Drivers/lvgl/src/widgets/msgbox/lv_msgbox.c ****     lv_msgbox_t * mbox = (lv_msgbox_t *)obj;
 834              		.loc 1 251 5 is_stmt 1 discriminator 1 view .LVU245
 251:Drivers/lvgl/src/widgets/msgbox/lv_msgbox.c ****     lv_msgbox_t * mbox = (lv_msgbox_t *)obj;
 835              		.loc 1 251 5 discriminator 1 view .LVU246
 251:Drivers/lvgl/src/widgets/msgbox/lv_msgbox.c ****     lv_msgbox_t * mbox = (lv_msgbox_t *)obj;
 836              		.loc 1 251 5 discriminator 1 view .LVU247
 251:Drivers/lvgl/src/widgets/msgbox/lv_msgbox.c ****     lv_msgbox_t * mbox = (lv_msgbox_t *)obj;
 837              		.loc 1 251 5 discriminator 1 view .LVU248
 251:Drivers/lvgl/src/widgets/msgbox/lv_msgbox.c ****     lv_msgbox_t * mbox = (lv_msgbox_t *)obj;
 838              		.loc 1 251 5 discriminator 1 view .LVU249
 839 0006 FEE7     		b	.L61
 840              		.cfi_endproc
 841              	.LFE179:
 843              		.section	.text.msgbox_size_changed_event_cb,"ax",%progbits
 844              		.align	1
 845              		.syntax unified
 846              		.thumb
 847              		.thumb_func
 849              	msgbox_size_changed_event_cb:
 850              	.LVL102:
 851              	.LFB184:
 255:Drivers/lvgl/src/widgets/msgbox/lv_msgbox.c **** 
 256:Drivers/lvgl/src/widgets/msgbox/lv_msgbox.c **** lv_obj_t * lv_msgbox_get_title(lv_obj_t * obj)
 257:Drivers/lvgl/src/widgets/msgbox/lv_msgbox.c **** {
 258:Drivers/lvgl/src/widgets/msgbox/lv_msgbox.c ****     LV_ASSERT_OBJ(obj, MY_CLASS);
 259:Drivers/lvgl/src/widgets/msgbox/lv_msgbox.c ****     lv_msgbox_t * mbox = (lv_msgbox_t *)obj;
 260:Drivers/lvgl/src/widgets/msgbox/lv_msgbox.c ****     return mbox->title;
 261:Drivers/lvgl/src/widgets/msgbox/lv_msgbox.c **** }
ARM GAS  /tmp/ccQztfG6.s 			page 22


 262:Drivers/lvgl/src/widgets/msgbox/lv_msgbox.c **** 
 263:Drivers/lvgl/src/widgets/msgbox/lv_msgbox.c **** void lv_msgbox_close(lv_obj_t * obj)
 264:Drivers/lvgl/src/widgets/msgbox/lv_msgbox.c **** {
 265:Drivers/lvgl/src/widgets/msgbox/lv_msgbox.c ****     if(lv_obj_has_flag(obj, LV_MSGBOX_FLAG_AUTO_PARENT)) lv_obj_delete(lv_obj_get_parent(obj));
 266:Drivers/lvgl/src/widgets/msgbox/lv_msgbox.c ****     else lv_obj_delete(obj);
 267:Drivers/lvgl/src/widgets/msgbox/lv_msgbox.c **** }
 268:Drivers/lvgl/src/widgets/msgbox/lv_msgbox.c **** 
 269:Drivers/lvgl/src/widgets/msgbox/lv_msgbox.c **** void lv_msgbox_close_async(lv_obj_t * obj)
 270:Drivers/lvgl/src/widgets/msgbox/lv_msgbox.c **** {
 271:Drivers/lvgl/src/widgets/msgbox/lv_msgbox.c ****     if(lv_obj_has_flag(obj, LV_MSGBOX_FLAG_AUTO_PARENT)) lv_obj_delete_async(lv_obj_get_parent(obj)
 272:Drivers/lvgl/src/widgets/msgbox/lv_msgbox.c ****     else lv_obj_delete_async(obj);
 273:Drivers/lvgl/src/widgets/msgbox/lv_msgbox.c **** }
 274:Drivers/lvgl/src/widgets/msgbox/lv_msgbox.c **** 
 275:Drivers/lvgl/src/widgets/msgbox/lv_msgbox.c **** /**********************
 276:Drivers/lvgl/src/widgets/msgbox/lv_msgbox.c ****  *   STATIC FUNCTIONS
 277:Drivers/lvgl/src/widgets/msgbox/lv_msgbox.c ****  **********************/
 278:Drivers/lvgl/src/widgets/msgbox/lv_msgbox.c **** 
 279:Drivers/lvgl/src/widgets/msgbox/lv_msgbox.c **** static void msgbox_close_click_event_cb(lv_event_t * e)
 280:Drivers/lvgl/src/widgets/msgbox/lv_msgbox.c **** {
 281:Drivers/lvgl/src/widgets/msgbox/lv_msgbox.c ****     lv_obj_t * btn = lv_event_get_current_target(e);
 282:Drivers/lvgl/src/widgets/msgbox/lv_msgbox.c ****     lv_obj_t * mbox = lv_obj_get_parent(lv_obj_get_parent(btn));
 283:Drivers/lvgl/src/widgets/msgbox/lv_msgbox.c ****     lv_msgbox_close(mbox);
 284:Drivers/lvgl/src/widgets/msgbox/lv_msgbox.c **** }
 285:Drivers/lvgl/src/widgets/msgbox/lv_msgbox.c **** 
 286:Drivers/lvgl/src/widgets/msgbox/lv_msgbox.c **** static void msgbox_size_changed_event_cb(lv_event_t * e)
 287:Drivers/lvgl/src/widgets/msgbox/lv_msgbox.c **** {
 852              		.loc 1 287 1 view -0
 853              		.cfi_startproc
 854              		@ args = 0, pretend = 0, frame = 8
 855              		@ frame_needed = 0, uses_anonymous_args = 0
 856              		.loc 1 287 1 is_stmt 0 view .LVU251
 857 0000 30B5     		push	{r4, r5, lr}
 858              	.LCFI6:
 859              		.cfi_def_cfa_offset 12
 860              		.cfi_offset 4, -12
 861              		.cfi_offset 5, -8
 862              		.cfi_offset 14, -4
 863 0002 83B0     		sub	sp, sp, #12
 864              	.LCFI7:
 865              		.cfi_def_cfa_offset 24
 288:Drivers/lvgl/src/widgets/msgbox/lv_msgbox.c ****     lv_obj_t * mbox = lv_event_get_target(e);
 866              		.loc 1 288 5 is_stmt 1 view .LVU252
 867              		.loc 1 288 23 is_stmt 0 view .LVU253
 868 0004 FFF7FEFF 		bl	lv_event_get_target
 869              	.LVL103:
 870              		.loc 1 288 23 view .LVU254
 871 0008 0546     		mov	r5, r0
 872              	.LVL104:
 289:Drivers/lvgl/src/widgets/msgbox/lv_msgbox.c ****     lv_obj_t * content = lv_msgbox_get_content(mbox);
 873              		.loc 1 289 5 is_stmt 1 view .LVU255
 874              		.loc 1 289 26 is_stmt 0 view .LVU256
 875 000a FFF7FEFF 		bl	lv_msgbox_get_content
 876              	.LVL105:
 877              		.loc 1 289 26 view .LVU257
 878 000e 0446     		mov	r4, r0
 879              	.LVL106:
 290:Drivers/lvgl/src/widgets/msgbox/lv_msgbox.c ****     bool is_msgbox_height_size_content = (lv_obj_get_style_height(mbox, 0) == LV_SIZE_CONTENT);
ARM GAS  /tmp/ccQztfG6.s 			page 23


 880              		.loc 1 290 5 is_stmt 1 view .LVU258
 881              	.LBB6:
 882              	.LBI6:
 883              		.file 2 "Drivers/lvgl/src/widgets/msgbox/../../core/lv_obj_style_gen.h"
   1:Drivers/lvgl/src/widgets/msgbox/../../core/lv_obj_style_gen.h **** 
   2:Drivers/lvgl/src/widgets/msgbox/../../core/lv_obj_style_gen.h **** /*
   3:Drivers/lvgl/src/widgets/msgbox/../../core/lv_obj_style_gen.h ****  **********************************************************************
   4:Drivers/lvgl/src/widgets/msgbox/../../core/lv_obj_style_gen.h ****  *                            DO NOT EDIT
   5:Drivers/lvgl/src/widgets/msgbox/../../core/lv_obj_style_gen.h ****  * This file is automatically generated by "style_api_gen.py"
   6:Drivers/lvgl/src/widgets/msgbox/../../core/lv_obj_style_gen.h ****  **********************************************************************
   7:Drivers/lvgl/src/widgets/msgbox/../../core/lv_obj_style_gen.h ****  */
   8:Drivers/lvgl/src/widgets/msgbox/../../core/lv_obj_style_gen.h **** 
   9:Drivers/lvgl/src/widgets/msgbox/../../core/lv_obj_style_gen.h **** 
  10:Drivers/lvgl/src/widgets/msgbox/../../core/lv_obj_style_gen.h **** #ifndef LV_OBJ_STYLE_GEN_H
  11:Drivers/lvgl/src/widgets/msgbox/../../core/lv_obj_style_gen.h **** #define LV_OBJ_STYLE_GEN_H
  12:Drivers/lvgl/src/widgets/msgbox/../../core/lv_obj_style_gen.h **** 
  13:Drivers/lvgl/src/widgets/msgbox/../../core/lv_obj_style_gen.h **** #ifdef __cplusplus
  14:Drivers/lvgl/src/widgets/msgbox/../../core/lv_obj_style_gen.h **** extern "C" {
  15:Drivers/lvgl/src/widgets/msgbox/../../core/lv_obj_style_gen.h **** #endif
  16:Drivers/lvgl/src/widgets/msgbox/../../core/lv_obj_style_gen.h **** 
  17:Drivers/lvgl/src/widgets/msgbox/../../core/lv_obj_style_gen.h **** #include "../misc/lv_area.h"
  18:Drivers/lvgl/src/widgets/msgbox/../../core/lv_obj_style_gen.h **** #include "../misc/lv_style.h"
  19:Drivers/lvgl/src/widgets/msgbox/../../core/lv_obj_style_gen.h **** #include "../core/lv_obj_style.h"
  20:Drivers/lvgl/src/widgets/msgbox/../../core/lv_obj_style_gen.h **** #include "../misc/lv_types.h"
  21:Drivers/lvgl/src/widgets/msgbox/../../core/lv_obj_style_gen.h **** 
  22:Drivers/lvgl/src/widgets/msgbox/../../core/lv_obj_style_gen.h **** static inline int32_t lv_obj_get_style_width(const lv_obj_t * obj, lv_part_t part)
  23:Drivers/lvgl/src/widgets/msgbox/../../core/lv_obj_style_gen.h **** {
  24:Drivers/lvgl/src/widgets/msgbox/../../core/lv_obj_style_gen.h ****     lv_style_value_t v = lv_obj_get_style_prop(obj, part, LV_STYLE_WIDTH);
  25:Drivers/lvgl/src/widgets/msgbox/../../core/lv_obj_style_gen.h ****     return (int32_t)v.num;
  26:Drivers/lvgl/src/widgets/msgbox/../../core/lv_obj_style_gen.h **** }
  27:Drivers/lvgl/src/widgets/msgbox/../../core/lv_obj_style_gen.h **** 
  28:Drivers/lvgl/src/widgets/msgbox/../../core/lv_obj_style_gen.h **** static inline int32_t lv_obj_get_style_min_width(const lv_obj_t * obj, lv_part_t part)
  29:Drivers/lvgl/src/widgets/msgbox/../../core/lv_obj_style_gen.h **** {
  30:Drivers/lvgl/src/widgets/msgbox/../../core/lv_obj_style_gen.h ****     lv_style_value_t v = lv_obj_get_style_prop(obj, part, LV_STYLE_MIN_WIDTH);
  31:Drivers/lvgl/src/widgets/msgbox/../../core/lv_obj_style_gen.h ****     return (int32_t)v.num;
  32:Drivers/lvgl/src/widgets/msgbox/../../core/lv_obj_style_gen.h **** }
  33:Drivers/lvgl/src/widgets/msgbox/../../core/lv_obj_style_gen.h **** 
  34:Drivers/lvgl/src/widgets/msgbox/../../core/lv_obj_style_gen.h **** static inline int32_t lv_obj_get_style_max_width(const lv_obj_t * obj, lv_part_t part)
  35:Drivers/lvgl/src/widgets/msgbox/../../core/lv_obj_style_gen.h **** {
  36:Drivers/lvgl/src/widgets/msgbox/../../core/lv_obj_style_gen.h ****     lv_style_value_t v = lv_obj_get_style_prop(obj, part, LV_STYLE_MAX_WIDTH);
  37:Drivers/lvgl/src/widgets/msgbox/../../core/lv_obj_style_gen.h ****     return (int32_t)v.num;
  38:Drivers/lvgl/src/widgets/msgbox/../../core/lv_obj_style_gen.h **** }
  39:Drivers/lvgl/src/widgets/msgbox/../../core/lv_obj_style_gen.h **** 
  40:Drivers/lvgl/src/widgets/msgbox/../../core/lv_obj_style_gen.h **** static inline int32_t lv_obj_get_style_height(const lv_obj_t * obj, lv_part_t part)
 884              		.loc 2 40 23 view .LVU259
 885              	.LBB7:
  41:Drivers/lvgl/src/widgets/msgbox/../../core/lv_obj_style_gen.h **** {
  42:Drivers/lvgl/src/widgets/msgbox/../../core/lv_obj_style_gen.h ****     lv_style_value_t v = lv_obj_get_style_prop(obj, part, LV_STYLE_HEIGHT);
 886              		.loc 2 42 5 view .LVU260
 887              		.loc 2 42 26 is_stmt 0 view .LVU261
 888 0010 0222     		movs	r2, #2
 889 0012 0021     		movs	r1, #0
 890 0014 2846     		mov	r0, r5
 891              	.LVL107:
 892              		.loc 2 42 26 view .LVU262
 893 0016 FFF7FEFF 		bl	lv_obj_get_style_prop
 894              	.LVL108:
ARM GAS  /tmp/ccQztfG6.s 			page 24


 895 001a 0190     		str	r0, [sp, #4]
  43:Drivers/lvgl/src/widgets/msgbox/../../core/lv_obj_style_gen.h ****     return (int32_t)v.num;
 896              		.loc 2 43 5 is_stmt 1 view .LVU263
 897              	.LVL109:
 898              		.loc 2 43 5 is_stmt 0 view .LVU264
 899              	.LBE7:
 900              	.LBE6:
 291:Drivers/lvgl/src/widgets/msgbox/lv_msgbox.c ****     lv_obj_set_flex_grow(content, !is_msgbox_height_size_content);
 901              		.loc 1 291 5 is_stmt 1 view .LVU265
 902 001c 6FF04041 		mvn	r1, #-1073741824
 903 0020 411A     		subs	r1, r0, r1
 904 0022 18BF     		it	ne
 905 0024 0121     		movne	r1, #1
 906 0026 2046     		mov	r0, r4
 907              	.LVL110:
 908              		.loc 1 291 5 is_stmt 0 view .LVU266
 909 0028 FFF7FEFF 		bl	lv_obj_set_flex_grow
 910              	.LVL111:
 292:Drivers/lvgl/src/widgets/msgbox/lv_msgbox.c **** }
 911              		.loc 1 292 1 view .LVU267
 912 002c 03B0     		add	sp, sp, #12
 913              	.LCFI8:
 914              		.cfi_def_cfa_offset 12
 915              		@ sp needed
 916 002e 30BD     		pop	{r4, r5, pc}
 917              		.loc 1 292 1 view .LVU268
 918              		.cfi_endproc
 919              	.LFE184:
 921              		.section	.text.lv_msgbox_get_title,"ax",%progbits
 922              		.align	1
 923              		.global	lv_msgbox_get_title
 924              		.syntax unified
 925              		.thumb
 926              		.thumb_func
 928              	lv_msgbox_get_title:
 929              	.LVL112:
 930              	.LFB180:
 257:Drivers/lvgl/src/widgets/msgbox/lv_msgbox.c ****     LV_ASSERT_OBJ(obj, MY_CLASS);
 931              		.loc 1 257 1 is_stmt 1 view -0
 932              		.cfi_startproc
 933              		@ args = 0, pretend = 0, frame = 0
 934              		@ frame_needed = 0, uses_anonymous_args = 0
 935              		@ link register save eliminated.
 258:Drivers/lvgl/src/widgets/msgbox/lv_msgbox.c ****     lv_msgbox_t * mbox = (lv_msgbox_t *)obj;
 936              		.loc 1 258 5 view .LVU270
 258:Drivers/lvgl/src/widgets/msgbox/lv_msgbox.c ****     lv_msgbox_t * mbox = (lv_msgbox_t *)obj;
 937              		.loc 1 258 5 view .LVU271
 938 0000 08B1     		cbz	r0, .L66
 258:Drivers/lvgl/src/widgets/msgbox/lv_msgbox.c ****     lv_msgbox_t * mbox = (lv_msgbox_t *)obj;
 939              		.loc 1 258 5 discriminator 2 view .LVU272
 258:Drivers/lvgl/src/widgets/msgbox/lv_msgbox.c ****     lv_msgbox_t * mbox = (lv_msgbox_t *)obj;
 940              		.loc 1 258 33 discriminator 2 view .LVU273
 259:Drivers/lvgl/src/widgets/msgbox/lv_msgbox.c ****     return mbox->title;
 941              		.loc 1 259 5 view .LVU274
 942              	.LVL113:
 260:Drivers/lvgl/src/widgets/msgbox/lv_msgbox.c **** }
 943              		.loc 1 260 5 view .LVU275
ARM GAS  /tmp/ccQztfG6.s 			page 25


 261:Drivers/lvgl/src/widgets/msgbox/lv_msgbox.c **** 
 944              		.loc 1 261 1 is_stmt 0 view .LVU276
 945 0002 806B     		ldr	r0, [r0, #56]
 946              	.LVL114:
 261:Drivers/lvgl/src/widgets/msgbox/lv_msgbox.c **** 
 947              		.loc 1 261 1 view .LVU277
 948 0004 7047     		bx	lr
 949              	.LVL115:
 950              	.L66:
 258:Drivers/lvgl/src/widgets/msgbox/lv_msgbox.c ****     lv_msgbox_t * mbox = (lv_msgbox_t *)obj;
 951              		.loc 1 258 5 is_stmt 1 discriminator 1 view .LVU278
 258:Drivers/lvgl/src/widgets/msgbox/lv_msgbox.c ****     lv_msgbox_t * mbox = (lv_msgbox_t *)obj;
 952              		.loc 1 258 5 discriminator 1 view .LVU279
 258:Drivers/lvgl/src/widgets/msgbox/lv_msgbox.c ****     lv_msgbox_t * mbox = (lv_msgbox_t *)obj;
 953              		.loc 1 258 5 discriminator 1 view .LVU280
 258:Drivers/lvgl/src/widgets/msgbox/lv_msgbox.c ****     lv_msgbox_t * mbox = (lv_msgbox_t *)obj;
 954              		.loc 1 258 5 discriminator 1 view .LVU281
 258:Drivers/lvgl/src/widgets/msgbox/lv_msgbox.c ****     lv_msgbox_t * mbox = (lv_msgbox_t *)obj;
 955              		.loc 1 258 5 discriminator 1 view .LVU282
 956 0006 FEE7     		b	.L66
 957              		.cfi_endproc
 958              	.LFE180:
 960              		.section	.text.lv_msgbox_close,"ax",%progbits
 961              		.align	1
 962              		.global	lv_msgbox_close
 963              		.syntax unified
 964              		.thumb
 965              		.thumb_func
 967              	lv_msgbox_close:
 968              	.LVL116:
 969              	.LFB181:
 264:Drivers/lvgl/src/widgets/msgbox/lv_msgbox.c ****     if(lv_obj_has_flag(obj, LV_MSGBOX_FLAG_AUTO_PARENT)) lv_obj_delete(lv_obj_get_parent(obj));
 970              		.loc 1 264 1 view -0
 971              		.cfi_startproc
 972              		@ args = 0, pretend = 0, frame = 0
 973              		@ frame_needed = 0, uses_anonymous_args = 0
 264:Drivers/lvgl/src/widgets/msgbox/lv_msgbox.c ****     if(lv_obj_has_flag(obj, LV_MSGBOX_FLAG_AUTO_PARENT)) lv_obj_delete(lv_obj_get_parent(obj));
 974              		.loc 1 264 1 is_stmt 0 view .LVU284
 975 0000 10B5     		push	{r4, lr}
 976              	.LCFI9:
 977              		.cfi_def_cfa_offset 8
 978              		.cfi_offset 4, -8
 979              		.cfi_offset 14, -4
 980 0002 0446     		mov	r4, r0
 265:Drivers/lvgl/src/widgets/msgbox/lv_msgbox.c ****     else lv_obj_delete(obj);
 981              		.loc 1 265 5 is_stmt 1 view .LVU285
 265:Drivers/lvgl/src/widgets/msgbox/lv_msgbox.c ****     else lv_obj_delete(obj);
 982              		.loc 1 265 8 is_stmt 0 view .LVU286
 983 0004 4FF00071 		mov	r1, #33554432
 984 0008 FFF7FEFF 		bl	lv_obj_has_flag
 985              	.LVL117:
 265:Drivers/lvgl/src/widgets/msgbox/lv_msgbox.c ****     else lv_obj_delete(obj);
 986              		.loc 1 265 7 discriminator 1 view .LVU287
 987 000c 28B1     		cbz	r0, .L68
 265:Drivers/lvgl/src/widgets/msgbox/lv_msgbox.c ****     else lv_obj_delete(obj);
 988              		.loc 1 265 58 is_stmt 1 discriminator 1 view .LVU288
 989 000e 2046     		mov	r0, r4
ARM GAS  /tmp/ccQztfG6.s 			page 26


 990 0010 FFF7FEFF 		bl	lv_obj_get_parent
 991              	.LVL118:
 992 0014 FFF7FEFF 		bl	lv_obj_delete
 993              	.LVL119:
 994              	.L67:
 267:Drivers/lvgl/src/widgets/msgbox/lv_msgbox.c **** 
 995              		.loc 1 267 1 is_stmt 0 view .LVU289
 996 0018 10BD     		pop	{r4, pc}
 997              	.LVL120:
 998              	.L68:
 266:Drivers/lvgl/src/widgets/msgbox/lv_msgbox.c **** }
 999              		.loc 1 266 10 is_stmt 1 view .LVU290
 1000 001a 2046     		mov	r0, r4
 1001 001c FFF7FEFF 		bl	lv_obj_delete
 1002              	.LVL121:
 267:Drivers/lvgl/src/widgets/msgbox/lv_msgbox.c **** 
 1003              		.loc 1 267 1 is_stmt 0 view .LVU291
 1004 0020 FAE7     		b	.L67
 1005              		.cfi_endproc
 1006              	.LFE181:
 1008              		.section	.text.msgbox_close_click_event_cb,"ax",%progbits
 1009              		.align	1
 1010              		.syntax unified
 1011              		.thumb
 1012              		.thumb_func
 1014              	msgbox_close_click_event_cb:
 1015              	.LVL122:
 1016              	.LFB183:
 280:Drivers/lvgl/src/widgets/msgbox/lv_msgbox.c ****     lv_obj_t * btn = lv_event_get_current_target(e);
 1017              		.loc 1 280 1 is_stmt 1 view -0
 1018              		.cfi_startproc
 1019              		@ args = 0, pretend = 0, frame = 0
 1020              		@ frame_needed = 0, uses_anonymous_args = 0
 280:Drivers/lvgl/src/widgets/msgbox/lv_msgbox.c ****     lv_obj_t * btn = lv_event_get_current_target(e);
 1021              		.loc 1 280 1 is_stmt 0 view .LVU293
 1022 0000 08B5     		push	{r3, lr}
 1023              	.LCFI10:
 1024              		.cfi_def_cfa_offset 8
 1025              		.cfi_offset 3, -8
 1026              		.cfi_offset 14, -4
 281:Drivers/lvgl/src/widgets/msgbox/lv_msgbox.c ****     lv_obj_t * mbox = lv_obj_get_parent(lv_obj_get_parent(btn));
 1027              		.loc 1 281 5 is_stmt 1 view .LVU294
 281:Drivers/lvgl/src/widgets/msgbox/lv_msgbox.c ****     lv_obj_t * mbox = lv_obj_get_parent(lv_obj_get_parent(btn));
 1028              		.loc 1 281 22 is_stmt 0 view .LVU295
 1029 0002 FFF7FEFF 		bl	lv_event_get_current_target
 1030              	.LVL123:
 282:Drivers/lvgl/src/widgets/msgbox/lv_msgbox.c ****     lv_msgbox_close(mbox);
 1031              		.loc 1 282 5 is_stmt 1 view .LVU296
 282:Drivers/lvgl/src/widgets/msgbox/lv_msgbox.c ****     lv_msgbox_close(mbox);
 1032              		.loc 1 282 41 is_stmt 0 view .LVU297
 1033 0006 FFF7FEFF 		bl	lv_obj_get_parent
 1034              	.LVL124:
 282:Drivers/lvgl/src/widgets/msgbox/lv_msgbox.c ****     lv_msgbox_close(mbox);
 1035              		.loc 1 282 23 discriminator 1 view .LVU298
 1036 000a FFF7FEFF 		bl	lv_obj_get_parent
 1037              	.LVL125:
 283:Drivers/lvgl/src/widgets/msgbox/lv_msgbox.c **** }
ARM GAS  /tmp/ccQztfG6.s 			page 27


 1038              		.loc 1 283 5 is_stmt 1 view .LVU299
 1039 000e FFF7FEFF 		bl	lv_msgbox_close
 1040              	.LVL126:
 284:Drivers/lvgl/src/widgets/msgbox/lv_msgbox.c **** 
 1041              		.loc 1 284 1 is_stmt 0 view .LVU300
 1042 0012 08BD     		pop	{r3, pc}
 1043              		.cfi_endproc
 1044              	.LFE183:
 1046              		.section	.text.lv_msgbox_close_async,"ax",%progbits
 1047              		.align	1
 1048              		.global	lv_msgbox_close_async
 1049              		.syntax unified
 1050              		.thumb
 1051              		.thumb_func
 1053              	lv_msgbox_close_async:
 1054              	.LVL127:
 1055              	.LFB182:
 270:Drivers/lvgl/src/widgets/msgbox/lv_msgbox.c ****     if(lv_obj_has_flag(obj, LV_MSGBOX_FLAG_AUTO_PARENT)) lv_obj_delete_async(lv_obj_get_parent(obj)
 1056              		.loc 1 270 1 is_stmt 1 view -0
 1057              		.cfi_startproc
 1058              		@ args = 0, pretend = 0, frame = 0
 1059              		@ frame_needed = 0, uses_anonymous_args = 0
 270:Drivers/lvgl/src/widgets/msgbox/lv_msgbox.c ****     if(lv_obj_has_flag(obj, LV_MSGBOX_FLAG_AUTO_PARENT)) lv_obj_delete_async(lv_obj_get_parent(obj)
 1060              		.loc 1 270 1 is_stmt 0 view .LVU302
 1061 0000 10B5     		push	{r4, lr}
 1062              	.LCFI11:
 1063              		.cfi_def_cfa_offset 8
 1064              		.cfi_offset 4, -8
 1065              		.cfi_offset 14, -4
 1066 0002 0446     		mov	r4, r0
 271:Drivers/lvgl/src/widgets/msgbox/lv_msgbox.c ****     else lv_obj_delete_async(obj);
 1067              		.loc 1 271 5 is_stmt 1 view .LVU303
 271:Drivers/lvgl/src/widgets/msgbox/lv_msgbox.c ****     else lv_obj_delete_async(obj);
 1068              		.loc 1 271 8 is_stmt 0 view .LVU304
 1069 0004 4FF00071 		mov	r1, #33554432
 1070 0008 FFF7FEFF 		bl	lv_obj_has_flag
 1071              	.LVL128:
 271:Drivers/lvgl/src/widgets/msgbox/lv_msgbox.c ****     else lv_obj_delete_async(obj);
 1072              		.loc 1 271 7 discriminator 1 view .LVU305
 1073 000c 28B1     		cbz	r0, .L74
 271:Drivers/lvgl/src/widgets/msgbox/lv_msgbox.c ****     else lv_obj_delete_async(obj);
 1074              		.loc 1 271 58 is_stmt 1 discriminator 1 view .LVU306
 1075 000e 2046     		mov	r0, r4
 1076 0010 FFF7FEFF 		bl	lv_obj_get_parent
 1077              	.LVL129:
 1078 0014 FFF7FEFF 		bl	lv_obj_delete_async
 1079              	.LVL130:
 1080              	.L73:
 273:Drivers/lvgl/src/widgets/msgbox/lv_msgbox.c **** 
 1081              		.loc 1 273 1 is_stmt 0 view .LVU307
 1082 0018 10BD     		pop	{r4, pc}
 1083              	.LVL131:
 1084              	.L74:
 272:Drivers/lvgl/src/widgets/msgbox/lv_msgbox.c **** }
 1085              		.loc 1 272 10 is_stmt 1 view .LVU308
 1086 001a 2046     		mov	r0, r4
 1087 001c FFF7FEFF 		bl	lv_obj_delete_async
ARM GAS  /tmp/ccQztfG6.s 			page 28


 1088              	.LVL132:
 273:Drivers/lvgl/src/widgets/msgbox/lv_msgbox.c **** 
 1089              		.loc 1 273 1 is_stmt 0 view .LVU309
 1090 0020 FAE7     		b	.L73
 1091              		.cfi_endproc
 1092              	.LFE182:
 1094              		.global	lv_msgbox_backdrop_class
 1095              		.section	.rodata.str1.4,"aMS",%progbits,1
 1096              		.align	2
 1097              	.LC2:
 1098 0000 6C765F6D 		.ascii	"lv_msgbox_backdrop\000"
 1098      7367626F 
 1098      785F6261 
 1098      636B6472 
 1098      6F7000
 1099              		.section	.rodata.lv_msgbox_backdrop_class,"a"
 1100              		.align	2
 1103              	lv_msgbox_backdrop_class:
 1104 0000 00000000 		.word	lv_obj_class
 1105 0004 00000000 		.space	16
 1105      00000000 
 1105      00000000 
 1105      00000000 
 1106 0014 00000000 		.word	.LC2
 1107 0018 64000020 		.word	536871012
 1108 001c 64000020 		.word	536871012
 1109 0020 C0       		.byte	192
 1110 0021 02       		.byte	2
 1111 0022 00       		.byte	0
 1112 0023 00       		.space	1
 1113              		.global	lv_msgbox_header_button_class
 1114              		.section	.rodata.str1.4
 1115 0013 00       		.align	2
 1116              	.LC3:
 1117 0014 6C765F6D 		.ascii	"lv_msgbox_header_button\000"
 1117      7367626F 
 1117      785F6865 
 1117      61646572 
 1117      5F627574 
 1118              		.section	.rodata.lv_msgbox_header_button_class,"a"
 1119              		.align	2
 1122              	lv_msgbox_header_button_class:
 1123 0000 00000000 		.word	lv_obj_class
 1124 0004 00000000 		.space	16
 1124      00000000 
 1124      00000000 
 1124      00000000 
 1125 0014 14000000 		.word	.LC3
 1126 0018 2B000000 		.word	43
 1127 001c 64000020 		.word	536871012
 1128 0020 C4       		.byte	196
 1129 0021 02       		.byte	2
 1130 0022 00       		.byte	0
 1131 0023 00       		.space	1
 1132              		.global	lv_msgbox_footer_button_class
 1133              		.section	.rodata.str1.4
 1134              		.align	2
ARM GAS  /tmp/ccQztfG6.s 			page 29


 1135              	.LC4:
 1136 002c 6C765F6D 		.ascii	"lv_msgbox_footer_button\000"
 1136      7367626F 
 1136      785F666F 
 1136      6F746572 
 1136      5F627574 
 1137              		.section	.rodata.lv_msgbox_footer_button_class,"a"
 1138              		.align	2
 1141              	lv_msgbox_footer_button_class:
 1142 0000 00000000 		.word	lv_obj_class
 1143 0004 00000000 		.space	16
 1143      00000000 
 1143      00000000 
 1143      00000000 
 1144 0014 2C000000 		.word	.LC4
 1145 0018 FFFFFF3F 		.word	1073741823
 1146 001c 64000020 		.word	536871012
 1147 0020 C4       		.byte	196
 1148 0021 02       		.byte	2
 1149 0022 00       		.byte	0
 1150 0023 00       		.space	1
 1151              		.global	lv_msgbox_footer_class
 1152              		.section	.rodata.str1.4
 1153              		.align	2
 1154              	.LC5:
 1155 0044 6C765F6D 		.ascii	"lv_msgbox_footer\000"
 1155      7367626F 
 1155      785F666F 
 1155      6F746572 
 1155      00
 1156              		.section	.rodata.lv_msgbox_footer_class,"a"
 1157              		.align	2
 1160              	lv_msgbox_footer_class:
 1161 0000 00000000 		.word	lv_obj_class
 1162 0004 00000000 		.space	16
 1162      00000000 
 1162      00000000 
 1162      00000000 
 1163 0014 44000000 		.word	.LC5
 1164 0018 64000020 		.word	536871012
 1165 001c 2B000000 		.word	43
 1166 0020 C0       		.byte	192
 1167 0021 02       		.byte	2
 1168 0022 00       		.byte	0
 1169 0023 00       		.space	1
 1170              		.global	lv_msgbox_content_class
 1171              		.section	.rodata.str1.4
 1172 0055 000000   		.align	2
 1173              	.LC6:
 1174 0058 6C765F6D 		.ascii	"lv_msgbox_content\000"
 1174      7367626F 
 1174      785F636F 
 1174      6E74656E 
 1174      7400
 1175              		.section	.rodata.lv_msgbox_content_class,"a"
 1176              		.align	2
 1179              	lv_msgbox_content_class:
ARM GAS  /tmp/ccQztfG6.s 			page 30


 1180 0000 00000000 		.word	lv_obj_class
 1181 0004 00000000 		.space	16
 1181      00000000 
 1181      00000000 
 1181      00000000 
 1182 0014 58000000 		.word	.LC6
 1183 0018 64000020 		.word	536871012
 1184 001c FFFFFF3F 		.word	1073741823
 1185 0020 C0       		.byte	192
 1186 0021 02       		.byte	2
 1187 0022 00       		.byte	0
 1188 0023 00       		.space	1
 1189              		.global	lv_msgbox_header_class
 1190              		.section	.rodata.str1.4
 1191 006a 0000     		.align	2
 1192              	.LC7:
 1193 006c 6C765F6D 		.ascii	"lv_msgbox_header\000"
 1193      7367626F 
 1193      785F6865 
 1193      61646572 
 1193      00
 1194              		.section	.rodata.lv_msgbox_header_class,"a"
 1195              		.align	2
 1198              	lv_msgbox_header_class:
 1199 0000 00000000 		.word	lv_obj_class
 1200 0004 00000000 		.space	16
 1200      00000000 
 1200      00000000 
 1200      00000000 
 1201 0014 6C000000 		.word	.LC7
 1202 0018 64000020 		.word	536871012
 1203 001c 2B000000 		.word	43
 1204 0020 C0       		.byte	192
 1205 0021 02       		.byte	2
 1206 0022 00       		.byte	0
 1207 0023 00       		.space	1
 1208              		.global	lv_msgbox_class
 1209              		.section	.rodata.str1.4
 1210 007d 000000   		.align	2
 1211              	.LC8:
 1212 0080 6C765F6D 		.ascii	"lv_msgbox\000"
 1212      7367626F 
 1212      7800
 1213              		.section	.rodata.lv_msgbox_class,"a"
 1214              		.align	2
 1217              	lv_msgbox_class:
 1218 0000 00000000 		.word	lv_obj_class
 1219 0004 00000000 		.space	16
 1219      00000000 
 1219      00000000 
 1219      00000000 
 1220 0014 80000000 		.word	.LC8
 1221 0018 04010000 		.word	260
 1222 001c FFFFFF3F 		.word	1073741823
 1223 0020 C0       		.byte	192
 1224 0021 03       		.byte	3
 1225 0022 00       		.byte	0
ARM GAS  /tmp/ccQztfG6.s 			page 31


 1226 0023 00       		.space	1
 1227              		.text
 1228              	.Letext0:
 1229              		.file 3 "/usr/arm-none-eabi/include/machine/_default_types.h"
 1230              		.file 4 "/usr/arm-none-eabi/include/sys/_stdint.h"
 1231              		.file 5 "Drivers/lvgl/src/widgets/msgbox/../../core/../misc/lv_types.h"
 1232              		.file 6 "Drivers/lvgl/src/widgets/msgbox/../../core/lv_obj_private.h"
 1233              		.file 7 "Drivers/lvgl/src/widgets/msgbox/../../core/lv_obj_class_private.h"
 1234              		.file 8 "Drivers/lvgl/src/widgets/msgbox/lv_msgbox_private.h"
 1235              		.file 9 "Drivers/lvgl/src/widgets/msgbox/../../core/../display/../misc/lv_array.h"
 1236              		.file 10 "Drivers/lvgl/src/widgets/msgbox/../../core/../misc/../font/../draw/../misc/lv_area.h"
 1237              		.file 11 "Drivers/lvgl/src/widgets/msgbox/../../core/../misc/../font/../draw/../misc/lv_color.h"
 1238              		.file 12 "Drivers/lvgl/src/widgets/msgbox/../../core/../misc/../layouts/flex/lv_flex.h"
 1239              		.file 13 "Drivers/lvgl/src/widgets/msgbox/../../core/../misc/lv_style.h"
 1240              		.file 14 "Drivers/lvgl/src/widgets/msgbox/../../core/../display/../misc/lv_event.h"
 1241              		.file 15 "Drivers/lvgl/src/widgets/msgbox/../../core/lv_obj_class.h"
 1242              		.file 16 "Drivers/lvgl/src/widgets/msgbox/../../core/../indev/lv_indev.h"
 1243              		.file 17 "Drivers/lvgl/src/widgets/msgbox/../../core/lv_obj.h"
 1244              		.file 18 "Drivers/lvgl/src/widgets/msgbox/lv_msgbox.h"
 1245              		.file 19 "Drivers/lvgl/src/widgets/msgbox/../../core/lv_obj_tree.h"
 1246              		.file 20 "Drivers/lvgl/src/widgets/msgbox/../../core/lv_obj_pos.h"
 1247              		.file 21 "Drivers/lvgl/src/widgets/msgbox/../image/lv_image.h"
 1248              		.file 22 "Drivers/lvgl/src/widgets/msgbox/../label/lv_label.h"
 1249              		.file 23 "Drivers/lvgl/src/widgets/msgbox/../../core/../display/lv_display.h"
 1250              		.file 24 "Drivers/lvgl/src/widgets/msgbox/../../core/lv_obj_style.h"
 1251              		.file 25 "Drivers/lvgl/src/widgets/msgbox/../../core/lv_obj_event.h"
ARM GAS  /tmp/ccQztfG6.s 			page 32

