ARM GAS  /tmp/ccmLrI5c.s 			page 1


   1              		.cpu cortex-m7
   2              		.arch armv7e-m
   3              		.fpu fpv5-sp-d16
   4              		.eabi_attribute 27, 1
   5              		.eabi_attribute 28, 1
   6              		.eabi_attribute 20, 1
   7              		.eabi_attribute 21, 1
   8              		.eabi_attribute 23, 3
   9              		.eabi_attribute 24, 1
  10              		.eabi_attribute 25, 1
  11              		.eabi_attribute 26, 1
  12              		.eabi_attribute 30, 1
  13              		.eabi_attribute 34, 1
  14              		.eabi_attribute 18, 4
  15              		.file	"lv_obj_scroll.c"
  16              		.text
  17              	.Ltext0:
  18              		.cfi_sections	.debug_frame
  19              		.file 1 "Drivers/lvgl/src/core/lv_obj_scroll.c"
  20              		.section	.text.lv_obj_get_style_space_top,"ax",%progbits
  21              		.align	1
  22              		.syntax unified
  23              		.thumb
  24              		.thumb_func
  26              	lv_obj_get_style_space_top:
  27              	.LVL0:
  28              	.LFB167:
  29              		.file 2 "Drivers/lvgl/src/core/lv_obj_style.h"
   1:Drivers/lvgl/src/core/lv_obj_style.h **** /**
   2:Drivers/lvgl/src/core/lv_obj_style.h ****  * @file lv_obj_style.h
   3:Drivers/lvgl/src/core/lv_obj_style.h ****  *
   4:Drivers/lvgl/src/core/lv_obj_style.h ****  */
   5:Drivers/lvgl/src/core/lv_obj_style.h **** 
   6:Drivers/lvgl/src/core/lv_obj_style.h **** #ifndef LV_OBJ_STYLE_H
   7:Drivers/lvgl/src/core/lv_obj_style.h **** #define LV_OBJ_STYLE_H
   8:Drivers/lvgl/src/core/lv_obj_style.h **** 
   9:Drivers/lvgl/src/core/lv_obj_style.h **** #ifdef __cplusplus
  10:Drivers/lvgl/src/core/lv_obj_style.h **** extern "C" {
  11:Drivers/lvgl/src/core/lv_obj_style.h **** #endif
  12:Drivers/lvgl/src/core/lv_obj_style.h **** 
  13:Drivers/lvgl/src/core/lv_obj_style.h **** /*********************
  14:Drivers/lvgl/src/core/lv_obj_style.h ****  *      INCLUDES
  15:Drivers/lvgl/src/core/lv_obj_style.h ****  *********************/
  16:Drivers/lvgl/src/core/lv_obj_style.h **** #include "../misc/lv_bidi.h"
  17:Drivers/lvgl/src/core/lv_obj_style.h **** #include "../misc/lv_style.h"
  18:Drivers/lvgl/src/core/lv_obj_style.h **** #include "../misc/lv_types.h"
  19:Drivers/lvgl/src/core/lv_obj_style.h **** 
  20:Drivers/lvgl/src/core/lv_obj_style.h **** /*********************
  21:Drivers/lvgl/src/core/lv_obj_style.h ****  *      DEFINES
  22:Drivers/lvgl/src/core/lv_obj_style.h ****  *********************/
  23:Drivers/lvgl/src/core/lv_obj_style.h **** 
  24:Drivers/lvgl/src/core/lv_obj_style.h **** /**********************
  25:Drivers/lvgl/src/core/lv_obj_style.h ****  *      TYPEDEFS
  26:Drivers/lvgl/src/core/lv_obj_style.h ****  **********************/
  27:Drivers/lvgl/src/core/lv_obj_style.h **** 
  28:Drivers/lvgl/src/core/lv_obj_style.h **** typedef enum {
  29:Drivers/lvgl/src/core/lv_obj_style.h ****     LV_STYLE_STATE_CMP_SAME,           /**< The style properties in the 2 states are identical */
ARM GAS  /tmp/ccmLrI5c.s 			page 2


  30:Drivers/lvgl/src/core/lv_obj_style.h ****     LV_STYLE_STATE_CMP_DIFF_REDRAW,    /**< The differences can be shown with a simple redraw */
  31:Drivers/lvgl/src/core/lv_obj_style.h ****     LV_STYLE_STATE_CMP_DIFF_DRAW_PAD,  /**< The differences can be shown with a simple redraw */
  32:Drivers/lvgl/src/core/lv_obj_style.h ****     LV_STYLE_STATE_CMP_DIFF_LAYOUT,    /**< The differences can be shown with a simple redraw */
  33:Drivers/lvgl/src/core/lv_obj_style.h **** } lv_style_state_cmp_t;
  34:Drivers/lvgl/src/core/lv_obj_style.h **** 
  35:Drivers/lvgl/src/core/lv_obj_style.h **** typedef uint32_t lv_style_selector_t;
  36:Drivers/lvgl/src/core/lv_obj_style.h **** 
  37:Drivers/lvgl/src/core/lv_obj_style.h **** /**********************
  38:Drivers/lvgl/src/core/lv_obj_style.h ****  * GLOBAL PROTOTYPES
  39:Drivers/lvgl/src/core/lv_obj_style.h ****  **********************/
  40:Drivers/lvgl/src/core/lv_obj_style.h **** 
  41:Drivers/lvgl/src/core/lv_obj_style.h **** /**
  42:Drivers/lvgl/src/core/lv_obj_style.h ****  * Add a style to an object.
  43:Drivers/lvgl/src/core/lv_obj_style.h ****  * @param obj       pointer to an object
  44:Drivers/lvgl/src/core/lv_obj_style.h ****  * @param style     pointer to a style to add
  45:Drivers/lvgl/src/core/lv_obj_style.h ****  * @param selector  OR-ed value of parts and state to which the style should be added
  46:Drivers/lvgl/src/core/lv_obj_style.h ****  *
  47:Drivers/lvgl/src/core/lv_obj_style.h ****  * Examples:
  48:Drivers/lvgl/src/core/lv_obj_style.h ****  * @code
  49:Drivers/lvgl/src/core/lv_obj_style.h ****  * lv_obj_add_style(btn, &style_btn, 0); //Default button style
  50:Drivers/lvgl/src/core/lv_obj_style.h ****  *
  51:Drivers/lvgl/src/core/lv_obj_style.h ****  * lv_obj_add_style(btn, &btn_red, LV_STATE_PRESSED); //Overwrite only some colors to red when pres
  52:Drivers/lvgl/src/core/lv_obj_style.h ****  * @endcode
  53:Drivers/lvgl/src/core/lv_obj_style.h ****  */
  54:Drivers/lvgl/src/core/lv_obj_style.h **** void lv_obj_add_style(lv_obj_t * obj, const lv_style_t * style, lv_style_selector_t selector);
  55:Drivers/lvgl/src/core/lv_obj_style.h **** 
  56:Drivers/lvgl/src/core/lv_obj_style.h **** /**
  57:Drivers/lvgl/src/core/lv_obj_style.h ****  * Replaces a style of an object, preserving the order of the style stack (local styles and transit
  58:Drivers/lvgl/src/core/lv_obj_style.h ****  * @param obj           pointer to an object
  59:Drivers/lvgl/src/core/lv_obj_style.h ****  * @param old_style     pointer to a style to replace.
  60:Drivers/lvgl/src/core/lv_obj_style.h ****  * @param new_style     pointer to a style to replace the old style with.
  61:Drivers/lvgl/src/core/lv_obj_style.h ****  * @param selector      OR-ed values of states and a part to replace only styles with matching sele
  62:Drivers/lvgl/src/core/lv_obj_style.h ****  *
  63:Drivers/lvgl/src/core/lv_obj_style.h ****  * Examples:
  64:Drivers/lvgl/src/core/lv_obj_style.h ****  * @code
  65:Drivers/lvgl/src/core/lv_obj_style.h ****  * lv_obj_replace_style(obj, &yellow_style, &blue_style, LV_PART_ANY | LV_STATE_ANY); //Replace a s
  66:Drivers/lvgl/src/core/lv_obj_style.h ****  *
  67:Drivers/lvgl/src/core/lv_obj_style.h ****  * lv_obj_replace_style(obj, &yellow_style, &blue_style, LV_PART_MAIN | LV_STATE_PRESSED); //Replac
  68:Drivers/lvgl/src/core/lv_obj_style.h ****  * @endcode
  69:Drivers/lvgl/src/core/lv_obj_style.h ****  */
  70:Drivers/lvgl/src/core/lv_obj_style.h **** bool lv_obj_replace_style(lv_obj_t * obj, const lv_style_t * old_style, const lv_style_t * new_styl
  71:Drivers/lvgl/src/core/lv_obj_style.h ****                           lv_style_selector_t selector);
  72:Drivers/lvgl/src/core/lv_obj_style.h **** 
  73:Drivers/lvgl/src/core/lv_obj_style.h **** /**
  74:Drivers/lvgl/src/core/lv_obj_style.h ****  * Remove a style from an object.
  75:Drivers/lvgl/src/core/lv_obj_style.h ****  * @param obj       pointer to an object
  76:Drivers/lvgl/src/core/lv_obj_style.h ****  * @param style     pointer to a style to remove. Can be NULL to check only the selector
  77:Drivers/lvgl/src/core/lv_obj_style.h ****  * @param selector  OR-ed values of states and a part to remove only styles with matching selectors
  78:Drivers/lvgl/src/core/lv_obj_style.h ****  *
  79:Drivers/lvgl/src/core/lv_obj_style.h ****  * Examples:
  80:Drivers/lvgl/src/core/lv_obj_style.h ****  * @code
  81:Drivers/lvgl/src/core/lv_obj_style.h ****  * lv_obj_remove_style(obj, &style, LV_PART_ANY | LV_STATE_ANY); //Remove a specific style
  82:Drivers/lvgl/src/core/lv_obj_style.h ****  *
  83:Drivers/lvgl/src/core/lv_obj_style.h ****  * lv_obj_remove_style(obj, NULL, LV_PART_MAIN | LV_STATE_ANY); //Remove all styles from the main p
  84:Drivers/lvgl/src/core/lv_obj_style.h ****  *
  85:Drivers/lvgl/src/core/lv_obj_style.h ****  * lv_obj_remove_style(obj, NULL, LV_PART_ANY | LV_STATE_ANY); //Remove all styles
  86:Drivers/lvgl/src/core/lv_obj_style.h ****  * @endcode
ARM GAS  /tmp/ccmLrI5c.s 			page 3


  87:Drivers/lvgl/src/core/lv_obj_style.h ****  */
  88:Drivers/lvgl/src/core/lv_obj_style.h **** void lv_obj_remove_style(lv_obj_t * obj, const lv_style_t * style, lv_style_selector_t selector);
  89:Drivers/lvgl/src/core/lv_obj_style.h **** 
  90:Drivers/lvgl/src/core/lv_obj_style.h **** /**
  91:Drivers/lvgl/src/core/lv_obj_style.h ****  * Remove all styles from an object
  92:Drivers/lvgl/src/core/lv_obj_style.h ****  * @param obj       pointer to an object
  93:Drivers/lvgl/src/core/lv_obj_style.h ****  */
  94:Drivers/lvgl/src/core/lv_obj_style.h **** void lv_obj_remove_style_all(lv_obj_t * obj);
  95:Drivers/lvgl/src/core/lv_obj_style.h **** 
  96:Drivers/lvgl/src/core/lv_obj_style.h **** /**
  97:Drivers/lvgl/src/core/lv_obj_style.h ****  * Notify all object if a style is modified
  98:Drivers/lvgl/src/core/lv_obj_style.h ****  * @param style     pointer to a style. Only the objects with this style will be notified
  99:Drivers/lvgl/src/core/lv_obj_style.h ****  *                  (NULL to notify all objects)
 100:Drivers/lvgl/src/core/lv_obj_style.h ****  */
 101:Drivers/lvgl/src/core/lv_obj_style.h **** void lv_obj_report_style_change(lv_style_t * style);
 102:Drivers/lvgl/src/core/lv_obj_style.h **** 
 103:Drivers/lvgl/src/core/lv_obj_style.h **** /**
 104:Drivers/lvgl/src/core/lv_obj_style.h ****  * Notify an object and its children about its style is modified.
 105:Drivers/lvgl/src/core/lv_obj_style.h ****  * @param obj       pointer to an object
 106:Drivers/lvgl/src/core/lv_obj_style.h ****  * @param part      the part whose style was changed. E.g. `LV_PART_ANY`, `LV_PART_MAIN`
 107:Drivers/lvgl/src/core/lv_obj_style.h ****  * @param prop      `LV_STYLE_PROP_ANY` or an `LV_STYLE_...` property.
 108:Drivers/lvgl/src/core/lv_obj_style.h ****  *                  It is used to optimize what needs to be refreshed.
 109:Drivers/lvgl/src/core/lv_obj_style.h ****  *                  `LV_STYLE_PROP_INV` to perform only a style cache update
 110:Drivers/lvgl/src/core/lv_obj_style.h ****  */
 111:Drivers/lvgl/src/core/lv_obj_style.h **** void lv_obj_refresh_style(lv_obj_t * obj, lv_part_t part, lv_style_prop_t prop);
 112:Drivers/lvgl/src/core/lv_obj_style.h **** 
 113:Drivers/lvgl/src/core/lv_obj_style.h **** /**
 114:Drivers/lvgl/src/core/lv_obj_style.h ****  * Enable or disable automatic style refreshing when a new style is added/removed to/from an object
 115:Drivers/lvgl/src/core/lv_obj_style.h ****  * or any other style change happens.
 116:Drivers/lvgl/src/core/lv_obj_style.h ****  * @param en        true: enable refreshing; false: disable refreshing
 117:Drivers/lvgl/src/core/lv_obj_style.h ****  */
 118:Drivers/lvgl/src/core/lv_obj_style.h **** void lv_obj_enable_style_refresh(bool en);
 119:Drivers/lvgl/src/core/lv_obj_style.h **** 
 120:Drivers/lvgl/src/core/lv_obj_style.h **** /**
 121:Drivers/lvgl/src/core/lv_obj_style.h ****  * Get the value of a style property. The current state of the object will be considered.
 122:Drivers/lvgl/src/core/lv_obj_style.h ****  * Inherited properties will be inherited.
 123:Drivers/lvgl/src/core/lv_obj_style.h ****  * If a property is not set a default value will be returned.
 124:Drivers/lvgl/src/core/lv_obj_style.h ****  * @param obj       pointer to an object
 125:Drivers/lvgl/src/core/lv_obj_style.h ****  * @param part      a part from which the property should be get
 126:Drivers/lvgl/src/core/lv_obj_style.h ****  * @param prop      the property to get
 127:Drivers/lvgl/src/core/lv_obj_style.h ****  * @return          the value of the property.
 128:Drivers/lvgl/src/core/lv_obj_style.h ****  *                  Should be read from the correct field of the `lv_style_value_t` according to th
 129:Drivers/lvgl/src/core/lv_obj_style.h ****  */
 130:Drivers/lvgl/src/core/lv_obj_style.h **** lv_style_value_t lv_obj_get_style_prop(const lv_obj_t * obj, lv_part_t part, lv_style_prop_t prop);
 131:Drivers/lvgl/src/core/lv_obj_style.h **** 
 132:Drivers/lvgl/src/core/lv_obj_style.h **** /**
 133:Drivers/lvgl/src/core/lv_obj_style.h ****  * Check if an object has a specified style property for a given style selector.
 134:Drivers/lvgl/src/core/lv_obj_style.h ****  * @param obj       pointer to an object
 135:Drivers/lvgl/src/core/lv_obj_style.h ****  * @param selector  the style selector to be checked, defining the scope of the style to be examine
 136:Drivers/lvgl/src/core/lv_obj_style.h ****  * @param prop      the property to be checked.
 137:Drivers/lvgl/src/core/lv_obj_style.h ****  * @return          true if the object has the specified selector and property, false otherwise.
 138:Drivers/lvgl/src/core/lv_obj_style.h ****  */
 139:Drivers/lvgl/src/core/lv_obj_style.h **** bool lv_obj_has_style_prop(const lv_obj_t * obj, lv_style_selector_t selector, lv_style_prop_t prop
 140:Drivers/lvgl/src/core/lv_obj_style.h **** 
 141:Drivers/lvgl/src/core/lv_obj_style.h **** /**
 142:Drivers/lvgl/src/core/lv_obj_style.h ****  * Set local style property on an object's part and state.
 143:Drivers/lvgl/src/core/lv_obj_style.h ****  * @param obj       pointer to an object
ARM GAS  /tmp/ccmLrI5c.s 			page 4


 144:Drivers/lvgl/src/core/lv_obj_style.h ****  * @param prop      the property
 145:Drivers/lvgl/src/core/lv_obj_style.h ****  * @param value     value of the property. The correct element should be set according to the type 
 146:Drivers/lvgl/src/core/lv_obj_style.h ****  * @param selector  OR-ed value of parts and state for which the style should be set
 147:Drivers/lvgl/src/core/lv_obj_style.h ****  */
 148:Drivers/lvgl/src/core/lv_obj_style.h **** void lv_obj_set_local_style_prop(lv_obj_t * obj, lv_style_prop_t prop, lv_style_value_t value,
 149:Drivers/lvgl/src/core/lv_obj_style.h ****                                  lv_style_selector_t selector);
 150:Drivers/lvgl/src/core/lv_obj_style.h **** 
 151:Drivers/lvgl/src/core/lv_obj_style.h **** lv_style_res_t lv_obj_get_local_style_prop(lv_obj_t * obj, lv_style_prop_t prop, lv_style_value_t *
 152:Drivers/lvgl/src/core/lv_obj_style.h ****                                            lv_style_selector_t selector);
 153:Drivers/lvgl/src/core/lv_obj_style.h **** 
 154:Drivers/lvgl/src/core/lv_obj_style.h **** /**
 155:Drivers/lvgl/src/core/lv_obj_style.h ****  * Remove a local style property from a part of an object with a given state.
 156:Drivers/lvgl/src/core/lv_obj_style.h ****  * @param obj       pointer to an object
 157:Drivers/lvgl/src/core/lv_obj_style.h ****  * @param prop      a style property to remove.
 158:Drivers/lvgl/src/core/lv_obj_style.h ****  * @param selector  OR-ed value of parts and state for which the style should be removed
 159:Drivers/lvgl/src/core/lv_obj_style.h ****  * @return true     the property was found and removed; false: the property was not found
 160:Drivers/lvgl/src/core/lv_obj_style.h ****  */
 161:Drivers/lvgl/src/core/lv_obj_style.h **** bool lv_obj_remove_local_style_prop(lv_obj_t * obj, lv_style_prop_t prop, lv_style_selector_t selec
 162:Drivers/lvgl/src/core/lv_obj_style.h **** 
 163:Drivers/lvgl/src/core/lv_obj_style.h **** /**
 164:Drivers/lvgl/src/core/lv_obj_style.h ****  * Used internally for color filtering
 165:Drivers/lvgl/src/core/lv_obj_style.h ****  */
 166:Drivers/lvgl/src/core/lv_obj_style.h **** lv_style_value_t lv_obj_style_apply_color_filter(const lv_obj_t * obj, lv_part_t part, lv_style_val
 167:Drivers/lvgl/src/core/lv_obj_style.h **** 
 168:Drivers/lvgl/src/core/lv_obj_style.h **** /**
 169:Drivers/lvgl/src/core/lv_obj_style.h ****  * Fade in an an object and all its children.
 170:Drivers/lvgl/src/core/lv_obj_style.h ****  * @param obj       the object to fade in
 171:Drivers/lvgl/src/core/lv_obj_style.h ****  * @param time      time of fade
 172:Drivers/lvgl/src/core/lv_obj_style.h ****  * @param delay     delay to start the animation
 173:Drivers/lvgl/src/core/lv_obj_style.h ****  */
 174:Drivers/lvgl/src/core/lv_obj_style.h **** void lv_obj_fade_in(lv_obj_t * obj, uint32_t time, uint32_t delay);
 175:Drivers/lvgl/src/core/lv_obj_style.h **** 
 176:Drivers/lvgl/src/core/lv_obj_style.h **** /**
 177:Drivers/lvgl/src/core/lv_obj_style.h ****  * Fade out an an object and all its children.
 178:Drivers/lvgl/src/core/lv_obj_style.h ****  * @param obj       the object to fade out
 179:Drivers/lvgl/src/core/lv_obj_style.h ****  * @param time      time of fade
 180:Drivers/lvgl/src/core/lv_obj_style.h ****  * @param delay     delay to start the animation
 181:Drivers/lvgl/src/core/lv_obj_style.h ****  */
 182:Drivers/lvgl/src/core/lv_obj_style.h **** void lv_obj_fade_out(lv_obj_t * obj, uint32_t time, uint32_t delay);
 183:Drivers/lvgl/src/core/lv_obj_style.h **** 
 184:Drivers/lvgl/src/core/lv_obj_style.h **** static inline lv_state_t lv_obj_style_get_selector_state(lv_style_selector_t selector)
 185:Drivers/lvgl/src/core/lv_obj_style.h **** {
 186:Drivers/lvgl/src/core/lv_obj_style.h ****     return selector & 0xFFFF;
 187:Drivers/lvgl/src/core/lv_obj_style.h **** }
 188:Drivers/lvgl/src/core/lv_obj_style.h **** 
 189:Drivers/lvgl/src/core/lv_obj_style.h **** static inline lv_part_t lv_obj_style_get_selector_part(lv_style_selector_t selector)
 190:Drivers/lvgl/src/core/lv_obj_style.h **** {
 191:Drivers/lvgl/src/core/lv_obj_style.h ****     return selector & 0xFF0000;
 192:Drivers/lvgl/src/core/lv_obj_style.h **** }
 193:Drivers/lvgl/src/core/lv_obj_style.h **** 
 194:Drivers/lvgl/src/core/lv_obj_style.h **** #include "lv_obj_style_gen.h"
 195:Drivers/lvgl/src/core/lv_obj_style.h **** 
 196:Drivers/lvgl/src/core/lv_obj_style.h **** static inline void lv_obj_set_style_pad_all(lv_obj_t * obj, int32_t value, lv_style_selector_t sele
 197:Drivers/lvgl/src/core/lv_obj_style.h **** {
 198:Drivers/lvgl/src/core/lv_obj_style.h ****     lv_obj_set_style_pad_left(obj, value, selector);
 199:Drivers/lvgl/src/core/lv_obj_style.h ****     lv_obj_set_style_pad_right(obj, value, selector);
 200:Drivers/lvgl/src/core/lv_obj_style.h ****     lv_obj_set_style_pad_top(obj, value, selector);
ARM GAS  /tmp/ccmLrI5c.s 			page 5


 201:Drivers/lvgl/src/core/lv_obj_style.h ****     lv_obj_set_style_pad_bottom(obj, value, selector);
 202:Drivers/lvgl/src/core/lv_obj_style.h **** }
 203:Drivers/lvgl/src/core/lv_obj_style.h **** 
 204:Drivers/lvgl/src/core/lv_obj_style.h **** static inline void lv_obj_set_style_pad_hor(lv_obj_t * obj, int32_t value, lv_style_selector_t sele
 205:Drivers/lvgl/src/core/lv_obj_style.h **** {
 206:Drivers/lvgl/src/core/lv_obj_style.h ****     lv_obj_set_style_pad_left(obj, value, selector);
 207:Drivers/lvgl/src/core/lv_obj_style.h ****     lv_obj_set_style_pad_right(obj, value, selector);
 208:Drivers/lvgl/src/core/lv_obj_style.h **** }
 209:Drivers/lvgl/src/core/lv_obj_style.h **** 
 210:Drivers/lvgl/src/core/lv_obj_style.h **** static inline void lv_obj_set_style_pad_ver(lv_obj_t * obj, int32_t value, lv_style_selector_t sele
 211:Drivers/lvgl/src/core/lv_obj_style.h **** {
 212:Drivers/lvgl/src/core/lv_obj_style.h ****     lv_obj_set_style_pad_top(obj, value, selector);
 213:Drivers/lvgl/src/core/lv_obj_style.h ****     lv_obj_set_style_pad_bottom(obj, value, selector);
 214:Drivers/lvgl/src/core/lv_obj_style.h **** }
 215:Drivers/lvgl/src/core/lv_obj_style.h **** 
 216:Drivers/lvgl/src/core/lv_obj_style.h **** static inline void lv_obj_set_style_margin_all(lv_obj_t * obj, int32_t value, lv_style_selector_t s
 217:Drivers/lvgl/src/core/lv_obj_style.h **** {
 218:Drivers/lvgl/src/core/lv_obj_style.h ****     lv_obj_set_style_margin_left(obj, value, selector);
 219:Drivers/lvgl/src/core/lv_obj_style.h ****     lv_obj_set_style_margin_right(obj, value, selector);
 220:Drivers/lvgl/src/core/lv_obj_style.h ****     lv_obj_set_style_margin_top(obj, value, selector);
 221:Drivers/lvgl/src/core/lv_obj_style.h ****     lv_obj_set_style_margin_bottom(obj, value, selector);
 222:Drivers/lvgl/src/core/lv_obj_style.h **** }
 223:Drivers/lvgl/src/core/lv_obj_style.h **** 
 224:Drivers/lvgl/src/core/lv_obj_style.h **** static inline void lv_obj_set_style_margin_hor(lv_obj_t * obj, int32_t value, lv_style_selector_t s
 225:Drivers/lvgl/src/core/lv_obj_style.h **** {
 226:Drivers/lvgl/src/core/lv_obj_style.h ****     lv_obj_set_style_margin_left(obj, value, selector);
 227:Drivers/lvgl/src/core/lv_obj_style.h ****     lv_obj_set_style_margin_right(obj, value, selector);
 228:Drivers/lvgl/src/core/lv_obj_style.h **** }
 229:Drivers/lvgl/src/core/lv_obj_style.h **** 
 230:Drivers/lvgl/src/core/lv_obj_style.h **** static inline void lv_obj_set_style_margin_ver(lv_obj_t * obj, int32_t value, lv_style_selector_t s
 231:Drivers/lvgl/src/core/lv_obj_style.h **** {
 232:Drivers/lvgl/src/core/lv_obj_style.h ****     lv_obj_set_style_margin_top(obj, value, selector);
 233:Drivers/lvgl/src/core/lv_obj_style.h ****     lv_obj_set_style_margin_bottom(obj, value, selector);
 234:Drivers/lvgl/src/core/lv_obj_style.h **** }
 235:Drivers/lvgl/src/core/lv_obj_style.h **** 
 236:Drivers/lvgl/src/core/lv_obj_style.h **** static inline void lv_obj_set_style_pad_gap(lv_obj_t * obj, int32_t value, lv_style_selector_t sele
 237:Drivers/lvgl/src/core/lv_obj_style.h **** {
 238:Drivers/lvgl/src/core/lv_obj_style.h ****     lv_obj_set_style_pad_row(obj, value, selector);
 239:Drivers/lvgl/src/core/lv_obj_style.h ****     lv_obj_set_style_pad_column(obj, value, selector);
 240:Drivers/lvgl/src/core/lv_obj_style.h **** }
 241:Drivers/lvgl/src/core/lv_obj_style.h **** 
 242:Drivers/lvgl/src/core/lv_obj_style.h **** static inline void lv_obj_set_style_size(lv_obj_t * obj, int32_t width, int32_t height,
 243:Drivers/lvgl/src/core/lv_obj_style.h ****                                          lv_style_selector_t selector)
 244:Drivers/lvgl/src/core/lv_obj_style.h **** {
 245:Drivers/lvgl/src/core/lv_obj_style.h ****     lv_obj_set_style_width(obj, width, selector);
 246:Drivers/lvgl/src/core/lv_obj_style.h ****     lv_obj_set_style_height(obj, height, selector);
 247:Drivers/lvgl/src/core/lv_obj_style.h **** }
 248:Drivers/lvgl/src/core/lv_obj_style.h **** 
 249:Drivers/lvgl/src/core/lv_obj_style.h **** static inline void lv_obj_set_style_transform_scale(lv_obj_t * obj, int32_t value,
 250:Drivers/lvgl/src/core/lv_obj_style.h ****                                                     lv_style_selector_t selector)
 251:Drivers/lvgl/src/core/lv_obj_style.h **** {
 252:Drivers/lvgl/src/core/lv_obj_style.h ****     lv_obj_set_style_transform_scale_x(obj, value, selector);
 253:Drivers/lvgl/src/core/lv_obj_style.h ****     lv_obj_set_style_transform_scale_y(obj, value, selector);
 254:Drivers/lvgl/src/core/lv_obj_style.h **** }
 255:Drivers/lvgl/src/core/lv_obj_style.h **** 
 256:Drivers/lvgl/src/core/lv_obj_style.h **** static inline int32_t lv_obj_get_style_space_left(const lv_obj_t * obj, lv_part_t part)
 257:Drivers/lvgl/src/core/lv_obj_style.h **** {
ARM GAS  /tmp/ccmLrI5c.s 			page 6


 258:Drivers/lvgl/src/core/lv_obj_style.h ****     int32_t padding = lv_obj_get_style_pad_left(obj, part);
 259:Drivers/lvgl/src/core/lv_obj_style.h ****     int32_t border_width = lv_obj_get_style_border_width(obj, part);
 260:Drivers/lvgl/src/core/lv_obj_style.h ****     lv_border_side_t border_side = lv_obj_get_style_border_side(obj, part);
 261:Drivers/lvgl/src/core/lv_obj_style.h ****     return (border_side & LV_BORDER_SIDE_LEFT) ? padding + border_width : padding;
 262:Drivers/lvgl/src/core/lv_obj_style.h **** }
 263:Drivers/lvgl/src/core/lv_obj_style.h **** 
 264:Drivers/lvgl/src/core/lv_obj_style.h **** static inline int32_t lv_obj_get_style_space_right(const lv_obj_t * obj, lv_part_t part)
 265:Drivers/lvgl/src/core/lv_obj_style.h **** {
 266:Drivers/lvgl/src/core/lv_obj_style.h ****     int32_t padding = lv_obj_get_style_pad_right(obj, part);
 267:Drivers/lvgl/src/core/lv_obj_style.h ****     int32_t border_width = lv_obj_get_style_border_width(obj, part);
 268:Drivers/lvgl/src/core/lv_obj_style.h ****     lv_border_side_t border_side = lv_obj_get_style_border_side(obj, part);
 269:Drivers/lvgl/src/core/lv_obj_style.h ****     return (border_side & LV_BORDER_SIDE_RIGHT) ? padding + border_width : padding;
 270:Drivers/lvgl/src/core/lv_obj_style.h **** }
 271:Drivers/lvgl/src/core/lv_obj_style.h **** 
 272:Drivers/lvgl/src/core/lv_obj_style.h **** static inline int32_t lv_obj_get_style_space_top(const lv_obj_t * obj, lv_part_t part)
 273:Drivers/lvgl/src/core/lv_obj_style.h **** {
  30              		.loc 2 273 1 view -0
  31              		.cfi_startproc
  32              		@ args = 0, pretend = 0, frame = 8
  33              		@ frame_needed = 0, uses_anonymous_args = 0
  34              		.loc 2 273 1 is_stmt 0 view .LVU1
  35 0000 2DE9F041 		push	{r4, r5, r6, r7, r8, lr}
  36              	.LCFI0:
  37              		.cfi_def_cfa_offset 24
  38              		.cfi_offset 4, -24
  39              		.cfi_offset 5, -20
  40              		.cfi_offset 6, -16
  41              		.cfi_offset 7, -12
  42              		.cfi_offset 8, -8
  43              		.cfi_offset 14, -4
  44 0004 82B0     		sub	sp, sp, #8
  45              	.LCFI1:
  46              		.cfi_def_cfa_offset 32
  47 0006 0546     		mov	r5, r0
  48 0008 0E46     		mov	r6, r1
 274:Drivers/lvgl/src/core/lv_obj_style.h ****     int32_t padding = lv_obj_get_style_pad_top(obj, part);
  49              		.loc 2 274 5 is_stmt 1 view .LVU2
  50              	.LVL1:
  51              	.LBB70:
  52              	.LBI70:
  53              		.file 3 "Drivers/lvgl/src/core/lv_obj_style_gen.h"
   1:Drivers/lvgl/src/core/lv_obj_style_gen.h **** 
   2:Drivers/lvgl/src/core/lv_obj_style_gen.h **** /*
   3:Drivers/lvgl/src/core/lv_obj_style_gen.h ****  **********************************************************************
   4:Drivers/lvgl/src/core/lv_obj_style_gen.h ****  *                            DO NOT EDIT
   5:Drivers/lvgl/src/core/lv_obj_style_gen.h ****  * This file is automatically generated by "style_api_gen.py"
   6:Drivers/lvgl/src/core/lv_obj_style_gen.h ****  **********************************************************************
   7:Drivers/lvgl/src/core/lv_obj_style_gen.h ****  */
   8:Drivers/lvgl/src/core/lv_obj_style_gen.h **** 
   9:Drivers/lvgl/src/core/lv_obj_style_gen.h **** 
  10:Drivers/lvgl/src/core/lv_obj_style_gen.h **** #ifndef LV_OBJ_STYLE_GEN_H
  11:Drivers/lvgl/src/core/lv_obj_style_gen.h **** #define LV_OBJ_STYLE_GEN_H
  12:Drivers/lvgl/src/core/lv_obj_style_gen.h **** 
  13:Drivers/lvgl/src/core/lv_obj_style_gen.h **** #ifdef __cplusplus
  14:Drivers/lvgl/src/core/lv_obj_style_gen.h **** extern "C" {
  15:Drivers/lvgl/src/core/lv_obj_style_gen.h **** #endif
  16:Drivers/lvgl/src/core/lv_obj_style_gen.h **** 
ARM GAS  /tmp/ccmLrI5c.s 			page 7


  17:Drivers/lvgl/src/core/lv_obj_style_gen.h **** #include "../misc/lv_area.h"
  18:Drivers/lvgl/src/core/lv_obj_style_gen.h **** #include "../misc/lv_style.h"
  19:Drivers/lvgl/src/core/lv_obj_style_gen.h **** #include "../core/lv_obj_style.h"
  20:Drivers/lvgl/src/core/lv_obj_style_gen.h **** #include "../misc/lv_types.h"
  21:Drivers/lvgl/src/core/lv_obj_style_gen.h **** 
  22:Drivers/lvgl/src/core/lv_obj_style_gen.h **** static inline int32_t lv_obj_get_style_width(const lv_obj_t * obj, lv_part_t part)
  23:Drivers/lvgl/src/core/lv_obj_style_gen.h **** {
  24:Drivers/lvgl/src/core/lv_obj_style_gen.h ****     lv_style_value_t v = lv_obj_get_style_prop(obj, part, LV_STYLE_WIDTH);
  25:Drivers/lvgl/src/core/lv_obj_style_gen.h ****     return (int32_t)v.num;
  26:Drivers/lvgl/src/core/lv_obj_style_gen.h **** }
  27:Drivers/lvgl/src/core/lv_obj_style_gen.h **** 
  28:Drivers/lvgl/src/core/lv_obj_style_gen.h **** static inline int32_t lv_obj_get_style_min_width(const lv_obj_t * obj, lv_part_t part)
  29:Drivers/lvgl/src/core/lv_obj_style_gen.h **** {
  30:Drivers/lvgl/src/core/lv_obj_style_gen.h ****     lv_style_value_t v = lv_obj_get_style_prop(obj, part, LV_STYLE_MIN_WIDTH);
  31:Drivers/lvgl/src/core/lv_obj_style_gen.h ****     return (int32_t)v.num;
  32:Drivers/lvgl/src/core/lv_obj_style_gen.h **** }
  33:Drivers/lvgl/src/core/lv_obj_style_gen.h **** 
  34:Drivers/lvgl/src/core/lv_obj_style_gen.h **** static inline int32_t lv_obj_get_style_max_width(const lv_obj_t * obj, lv_part_t part)
  35:Drivers/lvgl/src/core/lv_obj_style_gen.h **** {
  36:Drivers/lvgl/src/core/lv_obj_style_gen.h ****     lv_style_value_t v = lv_obj_get_style_prop(obj, part, LV_STYLE_MAX_WIDTH);
  37:Drivers/lvgl/src/core/lv_obj_style_gen.h ****     return (int32_t)v.num;
  38:Drivers/lvgl/src/core/lv_obj_style_gen.h **** }
  39:Drivers/lvgl/src/core/lv_obj_style_gen.h **** 
  40:Drivers/lvgl/src/core/lv_obj_style_gen.h **** static inline int32_t lv_obj_get_style_height(const lv_obj_t * obj, lv_part_t part)
  41:Drivers/lvgl/src/core/lv_obj_style_gen.h **** {
  42:Drivers/lvgl/src/core/lv_obj_style_gen.h ****     lv_style_value_t v = lv_obj_get_style_prop(obj, part, LV_STYLE_HEIGHT);
  43:Drivers/lvgl/src/core/lv_obj_style_gen.h ****     return (int32_t)v.num;
  44:Drivers/lvgl/src/core/lv_obj_style_gen.h **** }
  45:Drivers/lvgl/src/core/lv_obj_style_gen.h **** 
  46:Drivers/lvgl/src/core/lv_obj_style_gen.h **** static inline int32_t lv_obj_get_style_min_height(const lv_obj_t * obj, lv_part_t part)
  47:Drivers/lvgl/src/core/lv_obj_style_gen.h **** {
  48:Drivers/lvgl/src/core/lv_obj_style_gen.h ****     lv_style_value_t v = lv_obj_get_style_prop(obj, part, LV_STYLE_MIN_HEIGHT);
  49:Drivers/lvgl/src/core/lv_obj_style_gen.h ****     return (int32_t)v.num;
  50:Drivers/lvgl/src/core/lv_obj_style_gen.h **** }
  51:Drivers/lvgl/src/core/lv_obj_style_gen.h **** 
  52:Drivers/lvgl/src/core/lv_obj_style_gen.h **** static inline int32_t lv_obj_get_style_max_height(const lv_obj_t * obj, lv_part_t part)
  53:Drivers/lvgl/src/core/lv_obj_style_gen.h **** {
  54:Drivers/lvgl/src/core/lv_obj_style_gen.h ****     lv_style_value_t v = lv_obj_get_style_prop(obj, part, LV_STYLE_MAX_HEIGHT);
  55:Drivers/lvgl/src/core/lv_obj_style_gen.h ****     return (int32_t)v.num;
  56:Drivers/lvgl/src/core/lv_obj_style_gen.h **** }
  57:Drivers/lvgl/src/core/lv_obj_style_gen.h **** 
  58:Drivers/lvgl/src/core/lv_obj_style_gen.h **** static inline int32_t lv_obj_get_style_length(const lv_obj_t * obj, lv_part_t part)
  59:Drivers/lvgl/src/core/lv_obj_style_gen.h **** {
  60:Drivers/lvgl/src/core/lv_obj_style_gen.h ****     lv_style_value_t v = lv_obj_get_style_prop(obj, part, LV_STYLE_LENGTH);
  61:Drivers/lvgl/src/core/lv_obj_style_gen.h ****     return (int32_t)v.num;
  62:Drivers/lvgl/src/core/lv_obj_style_gen.h **** }
  63:Drivers/lvgl/src/core/lv_obj_style_gen.h **** 
  64:Drivers/lvgl/src/core/lv_obj_style_gen.h **** static inline int32_t lv_obj_get_style_x(const lv_obj_t * obj, lv_part_t part)
  65:Drivers/lvgl/src/core/lv_obj_style_gen.h **** {
  66:Drivers/lvgl/src/core/lv_obj_style_gen.h ****     lv_style_value_t v = lv_obj_get_style_prop(obj, part, LV_STYLE_X);
  67:Drivers/lvgl/src/core/lv_obj_style_gen.h ****     return (int32_t)v.num;
  68:Drivers/lvgl/src/core/lv_obj_style_gen.h **** }
  69:Drivers/lvgl/src/core/lv_obj_style_gen.h **** 
  70:Drivers/lvgl/src/core/lv_obj_style_gen.h **** static inline int32_t lv_obj_get_style_y(const lv_obj_t * obj, lv_part_t part)
  71:Drivers/lvgl/src/core/lv_obj_style_gen.h **** {
  72:Drivers/lvgl/src/core/lv_obj_style_gen.h ****     lv_style_value_t v = lv_obj_get_style_prop(obj, part, LV_STYLE_Y);
  73:Drivers/lvgl/src/core/lv_obj_style_gen.h ****     return (int32_t)v.num;
ARM GAS  /tmp/ccmLrI5c.s 			page 8


  74:Drivers/lvgl/src/core/lv_obj_style_gen.h **** }
  75:Drivers/lvgl/src/core/lv_obj_style_gen.h **** 
  76:Drivers/lvgl/src/core/lv_obj_style_gen.h **** static inline lv_align_t lv_obj_get_style_align(const lv_obj_t * obj, lv_part_t part)
  77:Drivers/lvgl/src/core/lv_obj_style_gen.h **** {
  78:Drivers/lvgl/src/core/lv_obj_style_gen.h ****     lv_style_value_t v = lv_obj_get_style_prop(obj, part, LV_STYLE_ALIGN);
  79:Drivers/lvgl/src/core/lv_obj_style_gen.h ****     return (lv_align_t)v.num;
  80:Drivers/lvgl/src/core/lv_obj_style_gen.h **** }
  81:Drivers/lvgl/src/core/lv_obj_style_gen.h **** 
  82:Drivers/lvgl/src/core/lv_obj_style_gen.h **** static inline int32_t lv_obj_get_style_transform_width(const lv_obj_t * obj, lv_part_t part)
  83:Drivers/lvgl/src/core/lv_obj_style_gen.h **** {
  84:Drivers/lvgl/src/core/lv_obj_style_gen.h ****     lv_style_value_t v = lv_obj_get_style_prop(obj, part, LV_STYLE_TRANSFORM_WIDTH);
  85:Drivers/lvgl/src/core/lv_obj_style_gen.h ****     return (int32_t)v.num;
  86:Drivers/lvgl/src/core/lv_obj_style_gen.h **** }
  87:Drivers/lvgl/src/core/lv_obj_style_gen.h **** 
  88:Drivers/lvgl/src/core/lv_obj_style_gen.h **** static inline int32_t lv_obj_get_style_transform_height(const lv_obj_t * obj, lv_part_t part)
  89:Drivers/lvgl/src/core/lv_obj_style_gen.h **** {
  90:Drivers/lvgl/src/core/lv_obj_style_gen.h ****     lv_style_value_t v = lv_obj_get_style_prop(obj, part, LV_STYLE_TRANSFORM_HEIGHT);
  91:Drivers/lvgl/src/core/lv_obj_style_gen.h ****     return (int32_t)v.num;
  92:Drivers/lvgl/src/core/lv_obj_style_gen.h **** }
  93:Drivers/lvgl/src/core/lv_obj_style_gen.h **** 
  94:Drivers/lvgl/src/core/lv_obj_style_gen.h **** static inline int32_t lv_obj_get_style_translate_x(const lv_obj_t * obj, lv_part_t part)
  95:Drivers/lvgl/src/core/lv_obj_style_gen.h **** {
  96:Drivers/lvgl/src/core/lv_obj_style_gen.h ****     lv_style_value_t v = lv_obj_get_style_prop(obj, part, LV_STYLE_TRANSLATE_X);
  97:Drivers/lvgl/src/core/lv_obj_style_gen.h ****     return (int32_t)v.num;
  98:Drivers/lvgl/src/core/lv_obj_style_gen.h **** }
  99:Drivers/lvgl/src/core/lv_obj_style_gen.h **** 
 100:Drivers/lvgl/src/core/lv_obj_style_gen.h **** static inline int32_t lv_obj_get_style_translate_y(const lv_obj_t * obj, lv_part_t part)
 101:Drivers/lvgl/src/core/lv_obj_style_gen.h **** {
 102:Drivers/lvgl/src/core/lv_obj_style_gen.h ****     lv_style_value_t v = lv_obj_get_style_prop(obj, part, LV_STYLE_TRANSLATE_Y);
 103:Drivers/lvgl/src/core/lv_obj_style_gen.h ****     return (int32_t)v.num;
 104:Drivers/lvgl/src/core/lv_obj_style_gen.h **** }
 105:Drivers/lvgl/src/core/lv_obj_style_gen.h **** 
 106:Drivers/lvgl/src/core/lv_obj_style_gen.h **** static inline int32_t lv_obj_get_style_translate_radial(const lv_obj_t * obj, lv_part_t part)
 107:Drivers/lvgl/src/core/lv_obj_style_gen.h **** {
 108:Drivers/lvgl/src/core/lv_obj_style_gen.h ****     lv_style_value_t v = lv_obj_get_style_prop(obj, part, LV_STYLE_TRANSLATE_RADIAL);
 109:Drivers/lvgl/src/core/lv_obj_style_gen.h ****     return (int32_t)v.num;
 110:Drivers/lvgl/src/core/lv_obj_style_gen.h **** }
 111:Drivers/lvgl/src/core/lv_obj_style_gen.h **** 
 112:Drivers/lvgl/src/core/lv_obj_style_gen.h **** static inline int32_t lv_obj_get_style_transform_scale_x(const lv_obj_t * obj, lv_part_t part)
 113:Drivers/lvgl/src/core/lv_obj_style_gen.h **** {
 114:Drivers/lvgl/src/core/lv_obj_style_gen.h ****     lv_style_value_t v = lv_obj_get_style_prop(obj, part, LV_STYLE_TRANSFORM_SCALE_X);
 115:Drivers/lvgl/src/core/lv_obj_style_gen.h ****     return (int32_t)v.num;
 116:Drivers/lvgl/src/core/lv_obj_style_gen.h **** }
 117:Drivers/lvgl/src/core/lv_obj_style_gen.h **** 
 118:Drivers/lvgl/src/core/lv_obj_style_gen.h **** static inline int32_t lv_obj_get_style_transform_scale_y(const lv_obj_t * obj, lv_part_t part)
 119:Drivers/lvgl/src/core/lv_obj_style_gen.h **** {
 120:Drivers/lvgl/src/core/lv_obj_style_gen.h ****     lv_style_value_t v = lv_obj_get_style_prop(obj, part, LV_STYLE_TRANSFORM_SCALE_Y);
 121:Drivers/lvgl/src/core/lv_obj_style_gen.h ****     return (int32_t)v.num;
 122:Drivers/lvgl/src/core/lv_obj_style_gen.h **** }
 123:Drivers/lvgl/src/core/lv_obj_style_gen.h **** 
 124:Drivers/lvgl/src/core/lv_obj_style_gen.h **** static inline int32_t lv_obj_get_style_transform_rotation(const lv_obj_t * obj, lv_part_t part)
 125:Drivers/lvgl/src/core/lv_obj_style_gen.h **** {
 126:Drivers/lvgl/src/core/lv_obj_style_gen.h ****     lv_style_value_t v = lv_obj_get_style_prop(obj, part, LV_STYLE_TRANSFORM_ROTATION);
 127:Drivers/lvgl/src/core/lv_obj_style_gen.h ****     return (int32_t)v.num;
 128:Drivers/lvgl/src/core/lv_obj_style_gen.h **** }
 129:Drivers/lvgl/src/core/lv_obj_style_gen.h **** 
 130:Drivers/lvgl/src/core/lv_obj_style_gen.h **** static inline int32_t lv_obj_get_style_transform_pivot_x(const lv_obj_t * obj, lv_part_t part)
ARM GAS  /tmp/ccmLrI5c.s 			page 9


 131:Drivers/lvgl/src/core/lv_obj_style_gen.h **** {
 132:Drivers/lvgl/src/core/lv_obj_style_gen.h ****     lv_style_value_t v = lv_obj_get_style_prop(obj, part, LV_STYLE_TRANSFORM_PIVOT_X);
 133:Drivers/lvgl/src/core/lv_obj_style_gen.h ****     return (int32_t)v.num;
 134:Drivers/lvgl/src/core/lv_obj_style_gen.h **** }
 135:Drivers/lvgl/src/core/lv_obj_style_gen.h **** 
 136:Drivers/lvgl/src/core/lv_obj_style_gen.h **** static inline int32_t lv_obj_get_style_transform_pivot_y(const lv_obj_t * obj, lv_part_t part)
 137:Drivers/lvgl/src/core/lv_obj_style_gen.h **** {
 138:Drivers/lvgl/src/core/lv_obj_style_gen.h ****     lv_style_value_t v = lv_obj_get_style_prop(obj, part, LV_STYLE_TRANSFORM_PIVOT_Y);
 139:Drivers/lvgl/src/core/lv_obj_style_gen.h ****     return (int32_t)v.num;
 140:Drivers/lvgl/src/core/lv_obj_style_gen.h **** }
 141:Drivers/lvgl/src/core/lv_obj_style_gen.h **** 
 142:Drivers/lvgl/src/core/lv_obj_style_gen.h **** static inline int32_t lv_obj_get_style_transform_skew_x(const lv_obj_t * obj, lv_part_t part)
 143:Drivers/lvgl/src/core/lv_obj_style_gen.h **** {
 144:Drivers/lvgl/src/core/lv_obj_style_gen.h ****     lv_style_value_t v = lv_obj_get_style_prop(obj, part, LV_STYLE_TRANSFORM_SKEW_X);
 145:Drivers/lvgl/src/core/lv_obj_style_gen.h ****     return (int32_t)v.num;
 146:Drivers/lvgl/src/core/lv_obj_style_gen.h **** }
 147:Drivers/lvgl/src/core/lv_obj_style_gen.h **** 
 148:Drivers/lvgl/src/core/lv_obj_style_gen.h **** static inline int32_t lv_obj_get_style_transform_skew_y(const lv_obj_t * obj, lv_part_t part)
 149:Drivers/lvgl/src/core/lv_obj_style_gen.h **** {
 150:Drivers/lvgl/src/core/lv_obj_style_gen.h ****     lv_style_value_t v = lv_obj_get_style_prop(obj, part, LV_STYLE_TRANSFORM_SKEW_Y);
 151:Drivers/lvgl/src/core/lv_obj_style_gen.h ****     return (int32_t)v.num;
 152:Drivers/lvgl/src/core/lv_obj_style_gen.h **** }
 153:Drivers/lvgl/src/core/lv_obj_style_gen.h **** 
 154:Drivers/lvgl/src/core/lv_obj_style_gen.h **** static inline int32_t lv_obj_get_style_pad_top(const lv_obj_t * obj, lv_part_t part)
  54              		.loc 3 154 23 view .LVU3
  55              	.LBB71:
 155:Drivers/lvgl/src/core/lv_obj_style_gen.h **** {
 156:Drivers/lvgl/src/core/lv_obj_style_gen.h ****     lv_style_value_t v = lv_obj_get_style_prop(obj, part, LV_STYLE_PAD_TOP);
  56              		.loc 3 156 5 view .LVU4
  57              		.loc 3 156 26 is_stmt 0 view .LVU5
  58 000a 1022     		movs	r2, #16
  59 000c FFF7FEFF 		bl	lv_obj_get_style_prop
  60              	.LVL2:
  61              		.loc 3 156 26 view .LVU6
  62 0010 0446     		mov	r4, r0
  63 0012 0190     		str	r0, [sp, #4]
 157:Drivers/lvgl/src/core/lv_obj_style_gen.h ****     return (int32_t)v.num;
  64              		.loc 3 157 5 is_stmt 1 view .LVU7
  65              		.loc 3 157 12 is_stmt 0 view .LVU8
  66 0014 8046     		mov	r8, r0
  67              	.LVL3:
  68              		.loc 3 157 12 view .LVU9
  69              	.LBE71:
  70              	.LBE70:
 275:Drivers/lvgl/src/core/lv_obj_style.h ****     int32_t border_width = lv_obj_get_style_border_width(obj, part);
  71              		.loc 2 275 5 is_stmt 1 view .LVU10
  72              	.LBB72:
  73              	.LBI72:
 158:Drivers/lvgl/src/core/lv_obj_style_gen.h **** }
 159:Drivers/lvgl/src/core/lv_obj_style_gen.h **** 
 160:Drivers/lvgl/src/core/lv_obj_style_gen.h **** static inline int32_t lv_obj_get_style_pad_bottom(const lv_obj_t * obj, lv_part_t part)
 161:Drivers/lvgl/src/core/lv_obj_style_gen.h **** {
 162:Drivers/lvgl/src/core/lv_obj_style_gen.h ****     lv_style_value_t v = lv_obj_get_style_prop(obj, part, LV_STYLE_PAD_BOTTOM);
 163:Drivers/lvgl/src/core/lv_obj_style_gen.h ****     return (int32_t)v.num;
 164:Drivers/lvgl/src/core/lv_obj_style_gen.h **** }
 165:Drivers/lvgl/src/core/lv_obj_style_gen.h **** 
 166:Drivers/lvgl/src/core/lv_obj_style_gen.h **** static inline int32_t lv_obj_get_style_pad_left(const lv_obj_t * obj, lv_part_t part)
ARM GAS  /tmp/ccmLrI5c.s 			page 10


 167:Drivers/lvgl/src/core/lv_obj_style_gen.h **** {
 168:Drivers/lvgl/src/core/lv_obj_style_gen.h ****     lv_style_value_t v = lv_obj_get_style_prop(obj, part, LV_STYLE_PAD_LEFT);
 169:Drivers/lvgl/src/core/lv_obj_style_gen.h ****     return (int32_t)v.num;
 170:Drivers/lvgl/src/core/lv_obj_style_gen.h **** }
 171:Drivers/lvgl/src/core/lv_obj_style_gen.h **** 
 172:Drivers/lvgl/src/core/lv_obj_style_gen.h **** static inline int32_t lv_obj_get_style_pad_right(const lv_obj_t * obj, lv_part_t part)
 173:Drivers/lvgl/src/core/lv_obj_style_gen.h **** {
 174:Drivers/lvgl/src/core/lv_obj_style_gen.h ****     lv_style_value_t v = lv_obj_get_style_prop(obj, part, LV_STYLE_PAD_RIGHT);
 175:Drivers/lvgl/src/core/lv_obj_style_gen.h ****     return (int32_t)v.num;
 176:Drivers/lvgl/src/core/lv_obj_style_gen.h **** }
 177:Drivers/lvgl/src/core/lv_obj_style_gen.h **** 
 178:Drivers/lvgl/src/core/lv_obj_style_gen.h **** static inline int32_t lv_obj_get_style_pad_row(const lv_obj_t * obj, lv_part_t part)
 179:Drivers/lvgl/src/core/lv_obj_style_gen.h **** {
 180:Drivers/lvgl/src/core/lv_obj_style_gen.h ****     lv_style_value_t v = lv_obj_get_style_prop(obj, part, LV_STYLE_PAD_ROW);
 181:Drivers/lvgl/src/core/lv_obj_style_gen.h ****     return (int32_t)v.num;
 182:Drivers/lvgl/src/core/lv_obj_style_gen.h **** }
 183:Drivers/lvgl/src/core/lv_obj_style_gen.h **** 
 184:Drivers/lvgl/src/core/lv_obj_style_gen.h **** static inline int32_t lv_obj_get_style_pad_column(const lv_obj_t * obj, lv_part_t part)
 185:Drivers/lvgl/src/core/lv_obj_style_gen.h **** {
 186:Drivers/lvgl/src/core/lv_obj_style_gen.h ****     lv_style_value_t v = lv_obj_get_style_prop(obj, part, LV_STYLE_PAD_COLUMN);
 187:Drivers/lvgl/src/core/lv_obj_style_gen.h ****     return (int32_t)v.num;
 188:Drivers/lvgl/src/core/lv_obj_style_gen.h **** }
 189:Drivers/lvgl/src/core/lv_obj_style_gen.h **** 
 190:Drivers/lvgl/src/core/lv_obj_style_gen.h **** static inline int32_t lv_obj_get_style_pad_radial(const lv_obj_t * obj, lv_part_t part)
 191:Drivers/lvgl/src/core/lv_obj_style_gen.h **** {
 192:Drivers/lvgl/src/core/lv_obj_style_gen.h ****     lv_style_value_t v = lv_obj_get_style_prop(obj, part, LV_STYLE_PAD_RADIAL);
 193:Drivers/lvgl/src/core/lv_obj_style_gen.h ****     return (int32_t)v.num;
 194:Drivers/lvgl/src/core/lv_obj_style_gen.h **** }
 195:Drivers/lvgl/src/core/lv_obj_style_gen.h **** 
 196:Drivers/lvgl/src/core/lv_obj_style_gen.h **** static inline int32_t lv_obj_get_style_margin_top(const lv_obj_t * obj, lv_part_t part)
 197:Drivers/lvgl/src/core/lv_obj_style_gen.h **** {
 198:Drivers/lvgl/src/core/lv_obj_style_gen.h ****     lv_style_value_t v = lv_obj_get_style_prop(obj, part, LV_STYLE_MARGIN_TOP);
 199:Drivers/lvgl/src/core/lv_obj_style_gen.h ****     return (int32_t)v.num;
 200:Drivers/lvgl/src/core/lv_obj_style_gen.h **** }
 201:Drivers/lvgl/src/core/lv_obj_style_gen.h **** 
 202:Drivers/lvgl/src/core/lv_obj_style_gen.h **** static inline int32_t lv_obj_get_style_margin_bottom(const lv_obj_t * obj, lv_part_t part)
 203:Drivers/lvgl/src/core/lv_obj_style_gen.h **** {
 204:Drivers/lvgl/src/core/lv_obj_style_gen.h ****     lv_style_value_t v = lv_obj_get_style_prop(obj, part, LV_STYLE_MARGIN_BOTTOM);
 205:Drivers/lvgl/src/core/lv_obj_style_gen.h ****     return (int32_t)v.num;
 206:Drivers/lvgl/src/core/lv_obj_style_gen.h **** }
 207:Drivers/lvgl/src/core/lv_obj_style_gen.h **** 
 208:Drivers/lvgl/src/core/lv_obj_style_gen.h **** static inline int32_t lv_obj_get_style_margin_left(const lv_obj_t * obj, lv_part_t part)
 209:Drivers/lvgl/src/core/lv_obj_style_gen.h **** {
 210:Drivers/lvgl/src/core/lv_obj_style_gen.h ****     lv_style_value_t v = lv_obj_get_style_prop(obj, part, LV_STYLE_MARGIN_LEFT);
 211:Drivers/lvgl/src/core/lv_obj_style_gen.h ****     return (int32_t)v.num;
 212:Drivers/lvgl/src/core/lv_obj_style_gen.h **** }
 213:Drivers/lvgl/src/core/lv_obj_style_gen.h **** 
 214:Drivers/lvgl/src/core/lv_obj_style_gen.h **** static inline int32_t lv_obj_get_style_margin_right(const lv_obj_t * obj, lv_part_t part)
 215:Drivers/lvgl/src/core/lv_obj_style_gen.h **** {
 216:Drivers/lvgl/src/core/lv_obj_style_gen.h ****     lv_style_value_t v = lv_obj_get_style_prop(obj, part, LV_STYLE_MARGIN_RIGHT);
 217:Drivers/lvgl/src/core/lv_obj_style_gen.h ****     return (int32_t)v.num;
 218:Drivers/lvgl/src/core/lv_obj_style_gen.h **** }
 219:Drivers/lvgl/src/core/lv_obj_style_gen.h **** 
 220:Drivers/lvgl/src/core/lv_obj_style_gen.h **** static inline lv_color_t lv_obj_get_style_bg_color(const lv_obj_t * obj, lv_part_t part)
 221:Drivers/lvgl/src/core/lv_obj_style_gen.h **** {
 222:Drivers/lvgl/src/core/lv_obj_style_gen.h ****     lv_style_value_t v = lv_obj_get_style_prop(obj, part, LV_STYLE_BG_COLOR);
 223:Drivers/lvgl/src/core/lv_obj_style_gen.h ****     return v.color;
ARM GAS  /tmp/ccmLrI5c.s 			page 11


 224:Drivers/lvgl/src/core/lv_obj_style_gen.h **** }
 225:Drivers/lvgl/src/core/lv_obj_style_gen.h **** 
 226:Drivers/lvgl/src/core/lv_obj_style_gen.h **** static inline lv_color_t lv_obj_get_style_bg_color_filtered(const lv_obj_t * obj, lv_part_t part)
 227:Drivers/lvgl/src/core/lv_obj_style_gen.h **** {
 228:Drivers/lvgl/src/core/lv_obj_style_gen.h ****     lv_style_value_t v = lv_obj_style_apply_color_filter(obj, part, lv_obj_get_style_prop(obj, part
 229:Drivers/lvgl/src/core/lv_obj_style_gen.h ****     return v.color;
 230:Drivers/lvgl/src/core/lv_obj_style_gen.h **** }
 231:Drivers/lvgl/src/core/lv_obj_style_gen.h **** 
 232:Drivers/lvgl/src/core/lv_obj_style_gen.h **** static inline lv_opa_t lv_obj_get_style_bg_opa(const lv_obj_t * obj, lv_part_t part)
 233:Drivers/lvgl/src/core/lv_obj_style_gen.h **** {
 234:Drivers/lvgl/src/core/lv_obj_style_gen.h ****     lv_style_value_t v = lv_obj_get_style_prop(obj, part, LV_STYLE_BG_OPA);
 235:Drivers/lvgl/src/core/lv_obj_style_gen.h ****     return (lv_opa_t)v.num;
 236:Drivers/lvgl/src/core/lv_obj_style_gen.h **** }
 237:Drivers/lvgl/src/core/lv_obj_style_gen.h **** 
 238:Drivers/lvgl/src/core/lv_obj_style_gen.h **** static inline lv_color_t lv_obj_get_style_bg_grad_color(const lv_obj_t * obj, lv_part_t part)
 239:Drivers/lvgl/src/core/lv_obj_style_gen.h **** {
 240:Drivers/lvgl/src/core/lv_obj_style_gen.h ****     lv_style_value_t v = lv_obj_get_style_prop(obj, part, LV_STYLE_BG_GRAD_COLOR);
 241:Drivers/lvgl/src/core/lv_obj_style_gen.h ****     return v.color;
 242:Drivers/lvgl/src/core/lv_obj_style_gen.h **** }
 243:Drivers/lvgl/src/core/lv_obj_style_gen.h **** 
 244:Drivers/lvgl/src/core/lv_obj_style_gen.h **** static inline lv_color_t lv_obj_get_style_bg_grad_color_filtered(const lv_obj_t * obj, lv_part_t pa
 245:Drivers/lvgl/src/core/lv_obj_style_gen.h **** {
 246:Drivers/lvgl/src/core/lv_obj_style_gen.h ****     lv_style_value_t v = lv_obj_style_apply_color_filter(obj, part, lv_obj_get_style_prop(obj, part
 247:Drivers/lvgl/src/core/lv_obj_style_gen.h ****     return v.color;
 248:Drivers/lvgl/src/core/lv_obj_style_gen.h **** }
 249:Drivers/lvgl/src/core/lv_obj_style_gen.h **** 
 250:Drivers/lvgl/src/core/lv_obj_style_gen.h **** static inline lv_grad_dir_t lv_obj_get_style_bg_grad_dir(const lv_obj_t * obj, lv_part_t part)
 251:Drivers/lvgl/src/core/lv_obj_style_gen.h **** {
 252:Drivers/lvgl/src/core/lv_obj_style_gen.h ****     lv_style_value_t v = lv_obj_get_style_prop(obj, part, LV_STYLE_BG_GRAD_DIR);
 253:Drivers/lvgl/src/core/lv_obj_style_gen.h ****     return (lv_grad_dir_t)v.num;
 254:Drivers/lvgl/src/core/lv_obj_style_gen.h **** }
 255:Drivers/lvgl/src/core/lv_obj_style_gen.h **** 
 256:Drivers/lvgl/src/core/lv_obj_style_gen.h **** static inline int32_t lv_obj_get_style_bg_main_stop(const lv_obj_t * obj, lv_part_t part)
 257:Drivers/lvgl/src/core/lv_obj_style_gen.h **** {
 258:Drivers/lvgl/src/core/lv_obj_style_gen.h ****     lv_style_value_t v = lv_obj_get_style_prop(obj, part, LV_STYLE_BG_MAIN_STOP);
 259:Drivers/lvgl/src/core/lv_obj_style_gen.h ****     return (int32_t)v.num;
 260:Drivers/lvgl/src/core/lv_obj_style_gen.h **** }
 261:Drivers/lvgl/src/core/lv_obj_style_gen.h **** 
 262:Drivers/lvgl/src/core/lv_obj_style_gen.h **** static inline int32_t lv_obj_get_style_bg_grad_stop(const lv_obj_t * obj, lv_part_t part)
 263:Drivers/lvgl/src/core/lv_obj_style_gen.h **** {
 264:Drivers/lvgl/src/core/lv_obj_style_gen.h ****     lv_style_value_t v = lv_obj_get_style_prop(obj, part, LV_STYLE_BG_GRAD_STOP);
 265:Drivers/lvgl/src/core/lv_obj_style_gen.h ****     return (int32_t)v.num;
 266:Drivers/lvgl/src/core/lv_obj_style_gen.h **** }
 267:Drivers/lvgl/src/core/lv_obj_style_gen.h **** 
 268:Drivers/lvgl/src/core/lv_obj_style_gen.h **** static inline lv_opa_t lv_obj_get_style_bg_main_opa(const lv_obj_t * obj, lv_part_t part)
 269:Drivers/lvgl/src/core/lv_obj_style_gen.h **** {
 270:Drivers/lvgl/src/core/lv_obj_style_gen.h ****     lv_style_value_t v = lv_obj_get_style_prop(obj, part, LV_STYLE_BG_MAIN_OPA);
 271:Drivers/lvgl/src/core/lv_obj_style_gen.h ****     return (lv_opa_t)v.num;
 272:Drivers/lvgl/src/core/lv_obj_style_gen.h **** }
 273:Drivers/lvgl/src/core/lv_obj_style_gen.h **** 
 274:Drivers/lvgl/src/core/lv_obj_style_gen.h **** static inline lv_opa_t lv_obj_get_style_bg_grad_opa(const lv_obj_t * obj, lv_part_t part)
 275:Drivers/lvgl/src/core/lv_obj_style_gen.h **** {
 276:Drivers/lvgl/src/core/lv_obj_style_gen.h ****     lv_style_value_t v = lv_obj_get_style_prop(obj, part, LV_STYLE_BG_GRAD_OPA);
 277:Drivers/lvgl/src/core/lv_obj_style_gen.h ****     return (lv_opa_t)v.num;
 278:Drivers/lvgl/src/core/lv_obj_style_gen.h **** }
 279:Drivers/lvgl/src/core/lv_obj_style_gen.h **** 
 280:Drivers/lvgl/src/core/lv_obj_style_gen.h **** static inline const lv_grad_dsc_t * lv_obj_get_style_bg_grad(const lv_obj_t * obj, lv_part_t part)
ARM GAS  /tmp/ccmLrI5c.s 			page 12


 281:Drivers/lvgl/src/core/lv_obj_style_gen.h **** {
 282:Drivers/lvgl/src/core/lv_obj_style_gen.h ****     lv_style_value_t v = lv_obj_get_style_prop(obj, part, LV_STYLE_BG_GRAD);
 283:Drivers/lvgl/src/core/lv_obj_style_gen.h ****     return (const lv_grad_dsc_t *)v.ptr;
 284:Drivers/lvgl/src/core/lv_obj_style_gen.h **** }
 285:Drivers/lvgl/src/core/lv_obj_style_gen.h **** 
 286:Drivers/lvgl/src/core/lv_obj_style_gen.h **** static inline const void * lv_obj_get_style_bg_image_src(const lv_obj_t * obj, lv_part_t part)
 287:Drivers/lvgl/src/core/lv_obj_style_gen.h **** {
 288:Drivers/lvgl/src/core/lv_obj_style_gen.h ****     lv_style_value_t v = lv_obj_get_style_prop(obj, part, LV_STYLE_BG_IMAGE_SRC);
 289:Drivers/lvgl/src/core/lv_obj_style_gen.h ****     return (const void *)v.ptr;
 290:Drivers/lvgl/src/core/lv_obj_style_gen.h **** }
 291:Drivers/lvgl/src/core/lv_obj_style_gen.h **** 
 292:Drivers/lvgl/src/core/lv_obj_style_gen.h **** static inline lv_opa_t lv_obj_get_style_bg_image_opa(const lv_obj_t * obj, lv_part_t part)
 293:Drivers/lvgl/src/core/lv_obj_style_gen.h **** {
 294:Drivers/lvgl/src/core/lv_obj_style_gen.h ****     lv_style_value_t v = lv_obj_get_style_prop(obj, part, LV_STYLE_BG_IMAGE_OPA);
 295:Drivers/lvgl/src/core/lv_obj_style_gen.h ****     return (lv_opa_t)v.num;
 296:Drivers/lvgl/src/core/lv_obj_style_gen.h **** }
 297:Drivers/lvgl/src/core/lv_obj_style_gen.h **** 
 298:Drivers/lvgl/src/core/lv_obj_style_gen.h **** static inline lv_color_t lv_obj_get_style_bg_image_recolor(const lv_obj_t * obj, lv_part_t part)
 299:Drivers/lvgl/src/core/lv_obj_style_gen.h **** {
 300:Drivers/lvgl/src/core/lv_obj_style_gen.h ****     lv_style_value_t v = lv_obj_get_style_prop(obj, part, LV_STYLE_BG_IMAGE_RECOLOR);
 301:Drivers/lvgl/src/core/lv_obj_style_gen.h ****     return v.color;
 302:Drivers/lvgl/src/core/lv_obj_style_gen.h **** }
 303:Drivers/lvgl/src/core/lv_obj_style_gen.h **** 
 304:Drivers/lvgl/src/core/lv_obj_style_gen.h **** static inline lv_color_t lv_obj_get_style_bg_image_recolor_filtered(const lv_obj_t * obj, lv_part_t
 305:Drivers/lvgl/src/core/lv_obj_style_gen.h **** {
 306:Drivers/lvgl/src/core/lv_obj_style_gen.h ****     lv_style_value_t v = lv_obj_style_apply_color_filter(obj, part, lv_obj_get_style_prop(obj, part
 307:Drivers/lvgl/src/core/lv_obj_style_gen.h ****     return v.color;
 308:Drivers/lvgl/src/core/lv_obj_style_gen.h **** }
 309:Drivers/lvgl/src/core/lv_obj_style_gen.h **** 
 310:Drivers/lvgl/src/core/lv_obj_style_gen.h **** static inline lv_opa_t lv_obj_get_style_bg_image_recolor_opa(const lv_obj_t * obj, lv_part_t part)
 311:Drivers/lvgl/src/core/lv_obj_style_gen.h **** {
 312:Drivers/lvgl/src/core/lv_obj_style_gen.h ****     lv_style_value_t v = lv_obj_get_style_prop(obj, part, LV_STYLE_BG_IMAGE_RECOLOR_OPA);
 313:Drivers/lvgl/src/core/lv_obj_style_gen.h ****     return (lv_opa_t)v.num;
 314:Drivers/lvgl/src/core/lv_obj_style_gen.h **** }
 315:Drivers/lvgl/src/core/lv_obj_style_gen.h **** 
 316:Drivers/lvgl/src/core/lv_obj_style_gen.h **** static inline bool lv_obj_get_style_bg_image_tiled(const lv_obj_t * obj, lv_part_t part)
 317:Drivers/lvgl/src/core/lv_obj_style_gen.h **** {
 318:Drivers/lvgl/src/core/lv_obj_style_gen.h ****     lv_style_value_t v = lv_obj_get_style_prop(obj, part, LV_STYLE_BG_IMAGE_TILED);
 319:Drivers/lvgl/src/core/lv_obj_style_gen.h ****     return (bool)v.num;
 320:Drivers/lvgl/src/core/lv_obj_style_gen.h **** }
 321:Drivers/lvgl/src/core/lv_obj_style_gen.h **** 
 322:Drivers/lvgl/src/core/lv_obj_style_gen.h **** static inline lv_color_t lv_obj_get_style_border_color(const lv_obj_t * obj, lv_part_t part)
 323:Drivers/lvgl/src/core/lv_obj_style_gen.h **** {
 324:Drivers/lvgl/src/core/lv_obj_style_gen.h ****     lv_style_value_t v = lv_obj_get_style_prop(obj, part, LV_STYLE_BORDER_COLOR);
 325:Drivers/lvgl/src/core/lv_obj_style_gen.h ****     return v.color;
 326:Drivers/lvgl/src/core/lv_obj_style_gen.h **** }
 327:Drivers/lvgl/src/core/lv_obj_style_gen.h **** 
 328:Drivers/lvgl/src/core/lv_obj_style_gen.h **** static inline lv_color_t lv_obj_get_style_border_color_filtered(const lv_obj_t * obj, lv_part_t par
 329:Drivers/lvgl/src/core/lv_obj_style_gen.h **** {
 330:Drivers/lvgl/src/core/lv_obj_style_gen.h ****     lv_style_value_t v = lv_obj_style_apply_color_filter(obj, part, lv_obj_get_style_prop(obj, part
 331:Drivers/lvgl/src/core/lv_obj_style_gen.h ****     return v.color;
 332:Drivers/lvgl/src/core/lv_obj_style_gen.h **** }
 333:Drivers/lvgl/src/core/lv_obj_style_gen.h **** 
 334:Drivers/lvgl/src/core/lv_obj_style_gen.h **** static inline lv_opa_t lv_obj_get_style_border_opa(const lv_obj_t * obj, lv_part_t part)
 335:Drivers/lvgl/src/core/lv_obj_style_gen.h **** {
 336:Drivers/lvgl/src/core/lv_obj_style_gen.h ****     lv_style_value_t v = lv_obj_get_style_prop(obj, part, LV_STYLE_BORDER_OPA);
 337:Drivers/lvgl/src/core/lv_obj_style_gen.h ****     return (lv_opa_t)v.num;
ARM GAS  /tmp/ccmLrI5c.s 			page 13


 338:Drivers/lvgl/src/core/lv_obj_style_gen.h **** }
 339:Drivers/lvgl/src/core/lv_obj_style_gen.h **** 
 340:Drivers/lvgl/src/core/lv_obj_style_gen.h **** static inline int32_t lv_obj_get_style_border_width(const lv_obj_t * obj, lv_part_t part)
  74              		.loc 3 340 23 view .LVU11
  75              	.LBB73:
 341:Drivers/lvgl/src/core/lv_obj_style_gen.h **** {
 342:Drivers/lvgl/src/core/lv_obj_style_gen.h ****     lv_style_value_t v = lv_obj_get_style_prop(obj, part, LV_STYLE_BORDER_WIDTH);
  76              		.loc 3 342 5 view .LVU12
  77              		.loc 3 342 26 is_stmt 0 view .LVU13
  78 0016 3022     		movs	r2, #48
  79 0018 3146     		mov	r1, r6
  80 001a 2846     		mov	r0, r5
  81              	.LVL4:
  82              		.loc 3 342 26 view .LVU14
  83 001c FFF7FEFF 		bl	lv_obj_get_style_prop
  84              	.LVL5:
  85 0020 0746     		mov	r7, r0
  86 0022 0190     		str	r0, [sp, #4]
 343:Drivers/lvgl/src/core/lv_obj_style_gen.h ****     return (int32_t)v.num;
  87              		.loc 3 343 5 is_stmt 1 view .LVU15
  88              	.LVL6:
  89              		.loc 3 343 5 is_stmt 0 view .LVU16
  90              	.LBE73:
  91              	.LBE72:
 276:Drivers/lvgl/src/core/lv_obj_style.h ****     lv_border_side_t border_side = lv_obj_get_style_border_side(obj, part);
  92              		.loc 2 276 5 is_stmt 1 view .LVU17
  93              	.LBB74:
  94              	.LBI74:
 344:Drivers/lvgl/src/core/lv_obj_style_gen.h **** }
 345:Drivers/lvgl/src/core/lv_obj_style_gen.h **** 
 346:Drivers/lvgl/src/core/lv_obj_style_gen.h **** static inline lv_border_side_t lv_obj_get_style_border_side(const lv_obj_t * obj, lv_part_t part)
  95              		.loc 3 346 32 view .LVU18
  96              	.LBB75:
 347:Drivers/lvgl/src/core/lv_obj_style_gen.h **** {
 348:Drivers/lvgl/src/core/lv_obj_style_gen.h ****     lv_style_value_t v = lv_obj_get_style_prop(obj, part, LV_STYLE_BORDER_SIDE);
  97              		.loc 3 348 5 view .LVU19
  98              		.loc 3 348 26 is_stmt 0 view .LVU20
  99 0024 3422     		movs	r2, #52
 100 0026 3146     		mov	r1, r6
 101 0028 2846     		mov	r0, r5
 102              	.LVL7:
 103              		.loc 3 348 26 view .LVU21
 104 002a FFF7FEFF 		bl	lv_obj_get_style_prop
 105              	.LVL8:
 106 002e 0190     		str	r0, [sp, #4]
 349:Drivers/lvgl/src/core/lv_obj_style_gen.h ****     return (lv_border_side_t)v.num;
 107              		.loc 3 349 5 is_stmt 1 view .LVU22
 108              	.LVL9:
 109              		.loc 3 349 5 is_stmt 0 view .LVU23
 110              	.LBE75:
 111              	.LBE74:
 277:Drivers/lvgl/src/core/lv_obj_style.h ****     return (border_side & LV_BORDER_SIDE_TOP) ? padding + border_width : padding;
 112              		.loc 2 277 5 is_stmt 1 view .LVU24
 113              		.loc 2 277 72 is_stmt 0 view .LVU25
 114 0030 10F0020F 		tst	r0, #2
 115 0034 01D0     		beq	.L1
 116              		.loc 2 277 72 discriminator 1 view .LVU26
ARM GAS  /tmp/ccmLrI5c.s 			page 14


 117 0036 04EB0708 		add	r8, r4, r7
 118              	.L1:
 278:Drivers/lvgl/src/core/lv_obj_style.h **** }
 119              		.loc 2 278 1 view .LVU27
 120 003a 4046     		mov	r0, r8
 121              	.LVL10:
 122              		.loc 2 278 1 view .LVU28
 123 003c 02B0     		add	sp, sp, #8
 124              	.LCFI2:
 125              		.cfi_def_cfa_offset 24
 126              		@ sp needed
 127 003e BDE8F081 		pop	{r4, r5, r6, r7, r8, pc}
 128              		.loc 2 278 1 view .LVU29
 129              		.cfi_endproc
 130              	.LFE167:
 132              		.section	.text.lv_obj_get_style_space_bottom,"ax",%progbits
 133              		.align	1
 134              		.syntax unified
 135              		.thumb
 136              		.thumb_func
 138              	lv_obj_get_style_space_bottom:
 139              	.LVL11:
 140              	.LFB168:
 279:Drivers/lvgl/src/core/lv_obj_style.h **** 
 280:Drivers/lvgl/src/core/lv_obj_style.h **** static inline int32_t lv_obj_get_style_space_bottom(const lv_obj_t * obj, lv_part_t part)
 281:Drivers/lvgl/src/core/lv_obj_style.h **** {
 141              		.loc 2 281 1 is_stmt 1 view -0
 142              		.cfi_startproc
 143              		@ args = 0, pretend = 0, frame = 8
 144              		@ frame_needed = 0, uses_anonymous_args = 0
 145              		.loc 2 281 1 is_stmt 0 view .LVU31
 146 0000 F0B5     		push	{r4, r5, r6, r7, lr}
 147              	.LCFI3:
 148              		.cfi_def_cfa_offset 20
 149              		.cfi_offset 4, -20
 150              		.cfi_offset 5, -16
 151              		.cfi_offset 6, -12
 152              		.cfi_offset 7, -8
 153              		.cfi_offset 14, -4
 154 0002 83B0     		sub	sp, sp, #12
 155              	.LCFI4:
 156              		.cfi_def_cfa_offset 32
 157 0004 0646     		mov	r6, r0
 158 0006 0F46     		mov	r7, r1
 282:Drivers/lvgl/src/core/lv_obj_style.h ****     int32_t padding = lv_obj_get_style_pad_bottom(obj, part);
 159              		.loc 2 282 5 is_stmt 1 view .LVU32
 160              	.LVL12:
 161              	.LBB76:
 162              	.LBI76:
 160:Drivers/lvgl/src/core/lv_obj_style_gen.h **** {
 163              		.loc 3 160 23 view .LVU33
 164              	.LBB77:
 162:Drivers/lvgl/src/core/lv_obj_style_gen.h ****     return (int32_t)v.num;
 165              		.loc 3 162 5 view .LVU34
 162:Drivers/lvgl/src/core/lv_obj_style_gen.h ****     return (int32_t)v.num;
 166              		.loc 3 162 26 is_stmt 0 view .LVU35
 167 0008 1122     		movs	r2, #17
ARM GAS  /tmp/ccmLrI5c.s 			page 15


 168 000a FFF7FEFF 		bl	lv_obj_get_style_prop
 169              	.LVL13:
 162:Drivers/lvgl/src/core/lv_obj_style_gen.h ****     return (int32_t)v.num;
 170              		.loc 3 162 26 view .LVU36
 171 000e 0446     		mov	r4, r0
 172 0010 0190     		str	r0, [sp, #4]
 163:Drivers/lvgl/src/core/lv_obj_style_gen.h **** }
 173              		.loc 3 163 5 is_stmt 1 view .LVU37
 174              	.LVL14:
 163:Drivers/lvgl/src/core/lv_obj_style_gen.h **** }
 175              		.loc 3 163 5 is_stmt 0 view .LVU38
 176              	.LBE77:
 177              	.LBE76:
 283:Drivers/lvgl/src/core/lv_obj_style.h ****     int32_t border_width = lv_obj_get_style_border_width(obj, part);
 178              		.loc 2 283 5 is_stmt 1 view .LVU39
 179              	.LBB78:
 180              	.LBI78:
 340:Drivers/lvgl/src/core/lv_obj_style_gen.h **** {
 181              		.loc 3 340 23 view .LVU40
 182              	.LBB79:
 342:Drivers/lvgl/src/core/lv_obj_style_gen.h ****     return (int32_t)v.num;
 183              		.loc 3 342 5 view .LVU41
 342:Drivers/lvgl/src/core/lv_obj_style_gen.h ****     return (int32_t)v.num;
 184              		.loc 3 342 26 is_stmt 0 view .LVU42
 185 0012 3022     		movs	r2, #48
 186 0014 3946     		mov	r1, r7
 187 0016 3046     		mov	r0, r6
 188              	.LVL15:
 342:Drivers/lvgl/src/core/lv_obj_style_gen.h ****     return (int32_t)v.num;
 189              		.loc 3 342 26 view .LVU43
 190 0018 FFF7FEFF 		bl	lv_obj_get_style_prop
 191              	.LVL16:
 192 001c 0546     		mov	r5, r0
 193 001e 0190     		str	r0, [sp, #4]
 343:Drivers/lvgl/src/core/lv_obj_style_gen.h **** }
 194              		.loc 3 343 5 is_stmt 1 view .LVU44
 195              	.LVL17:
 343:Drivers/lvgl/src/core/lv_obj_style_gen.h **** }
 196              		.loc 3 343 5 is_stmt 0 view .LVU45
 197              	.LBE79:
 198              	.LBE78:
 284:Drivers/lvgl/src/core/lv_obj_style.h ****     lv_border_side_t border_side = lv_obj_get_style_border_side(obj, part);
 199              		.loc 2 284 5 is_stmt 1 view .LVU46
 200              	.LBB80:
 201              	.LBI80:
 346:Drivers/lvgl/src/core/lv_obj_style_gen.h **** {
 202              		.loc 3 346 32 view .LVU47
 203              	.LBB81:
 348:Drivers/lvgl/src/core/lv_obj_style_gen.h ****     return (lv_border_side_t)v.num;
 204              		.loc 3 348 5 view .LVU48
 348:Drivers/lvgl/src/core/lv_obj_style_gen.h ****     return (lv_border_side_t)v.num;
 205              		.loc 3 348 26 is_stmt 0 view .LVU49
 206 0020 3422     		movs	r2, #52
 207 0022 3946     		mov	r1, r7
 208 0024 3046     		mov	r0, r6
 209              	.LVL18:
 348:Drivers/lvgl/src/core/lv_obj_style_gen.h ****     return (lv_border_side_t)v.num;
ARM GAS  /tmp/ccmLrI5c.s 			page 16


 210              		.loc 3 348 26 view .LVU50
 211 0026 FFF7FEFF 		bl	lv_obj_get_style_prop
 212              	.LVL19:
 213 002a 0190     		str	r0, [sp, #4]
 214              		.loc 3 349 5 is_stmt 1 view .LVU51
 215              	.LVL20:
 216              		.loc 3 349 5 is_stmt 0 view .LVU52
 217              	.LBE81:
 218              	.LBE80:
 285:Drivers/lvgl/src/core/lv_obj_style.h ****     return (border_side & LV_BORDER_SIDE_BOTTOM) ? padding + border_width : padding;
 219              		.loc 2 285 5 is_stmt 1 view .LVU53
 220              		.loc 2 285 75 is_stmt 0 view .LVU54
 221 002c 00F00100 		and	r0, r0, #1
 222              	.LVL21:
 286:Drivers/lvgl/src/core/lv_obj_style.h **** }
 223              		.loc 2 286 1 view .LVU55
 224 0030 05FB0040 		mla	r0, r5, r0, r4
 225 0034 03B0     		add	sp, sp, #12
 226              	.LCFI5:
 227              		.cfi_def_cfa_offset 20
 228              		@ sp needed
 229 0036 F0BD     		pop	{r4, r5, r6, r7, pc}
 230              		.loc 2 286 1 view .LVU56
 231              		.cfi_endproc
 232              	.LFE168:
 234              		.section	.text.lv_obj_get_style_space_right,"ax",%progbits
 235              		.align	1
 236              		.syntax unified
 237              		.thumb
 238              		.thumb_func
 240              	lv_obj_get_style_space_right:
 241              	.LVL22:
 242              	.LFB166:
 265:Drivers/lvgl/src/core/lv_obj_style.h ****     int32_t padding = lv_obj_get_style_pad_right(obj, part);
 243              		.loc 2 265 1 is_stmt 1 view -0
 244              		.cfi_startproc
 245              		@ args = 0, pretend = 0, frame = 8
 246              		@ frame_needed = 0, uses_anonymous_args = 0
 265:Drivers/lvgl/src/core/lv_obj_style.h ****     int32_t padding = lv_obj_get_style_pad_right(obj, part);
 247              		.loc 2 265 1 is_stmt 0 view .LVU58
 248 0000 2DE9F041 		push	{r4, r5, r6, r7, r8, lr}
 249              	.LCFI6:
 250              		.cfi_def_cfa_offset 24
 251              		.cfi_offset 4, -24
 252              		.cfi_offset 5, -20
 253              		.cfi_offset 6, -16
 254              		.cfi_offset 7, -12
 255              		.cfi_offset 8, -8
 256              		.cfi_offset 14, -4
 257 0004 82B0     		sub	sp, sp, #8
 258              	.LCFI7:
 259              		.cfi_def_cfa_offset 32
 260 0006 0546     		mov	r5, r0
 261 0008 0E46     		mov	r6, r1
 266:Drivers/lvgl/src/core/lv_obj_style.h ****     int32_t border_width = lv_obj_get_style_border_width(obj, part);
 262              		.loc 2 266 5 is_stmt 1 view .LVU59
 263              	.LVL23:
ARM GAS  /tmp/ccmLrI5c.s 			page 17


 264              	.LBB82:
 265              	.LBI82:
 172:Drivers/lvgl/src/core/lv_obj_style_gen.h **** {
 266              		.loc 3 172 23 view .LVU60
 267              	.LBB83:
 174:Drivers/lvgl/src/core/lv_obj_style_gen.h ****     return (int32_t)v.num;
 268              		.loc 3 174 5 view .LVU61
 174:Drivers/lvgl/src/core/lv_obj_style_gen.h ****     return (int32_t)v.num;
 269              		.loc 3 174 26 is_stmt 0 view .LVU62
 270 000a 1322     		movs	r2, #19
 271 000c FFF7FEFF 		bl	lv_obj_get_style_prop
 272              	.LVL24:
 174:Drivers/lvgl/src/core/lv_obj_style_gen.h ****     return (int32_t)v.num;
 273              		.loc 3 174 26 view .LVU63
 274 0010 0446     		mov	r4, r0
 275 0012 0190     		str	r0, [sp, #4]
 175:Drivers/lvgl/src/core/lv_obj_style_gen.h **** }
 276              		.loc 3 175 5 is_stmt 1 view .LVU64
 175:Drivers/lvgl/src/core/lv_obj_style_gen.h **** }
 277              		.loc 3 175 12 is_stmt 0 view .LVU65
 278 0014 8046     		mov	r8, r0
 279              	.LVL25:
 175:Drivers/lvgl/src/core/lv_obj_style_gen.h **** }
 280              		.loc 3 175 12 view .LVU66
 281              	.LBE83:
 282              	.LBE82:
 267:Drivers/lvgl/src/core/lv_obj_style.h ****     lv_border_side_t border_side = lv_obj_get_style_border_side(obj, part);
 283              		.loc 2 267 5 is_stmt 1 view .LVU67
 284              	.LBB84:
 285              	.LBI84:
 340:Drivers/lvgl/src/core/lv_obj_style_gen.h **** {
 286              		.loc 3 340 23 view .LVU68
 287              	.LBB85:
 342:Drivers/lvgl/src/core/lv_obj_style_gen.h ****     return (int32_t)v.num;
 288              		.loc 3 342 5 view .LVU69
 342:Drivers/lvgl/src/core/lv_obj_style_gen.h ****     return (int32_t)v.num;
 289              		.loc 3 342 26 is_stmt 0 view .LVU70
 290 0016 3022     		movs	r2, #48
 291 0018 3146     		mov	r1, r6
 292 001a 2846     		mov	r0, r5
 293              	.LVL26:
 342:Drivers/lvgl/src/core/lv_obj_style_gen.h ****     return (int32_t)v.num;
 294              		.loc 3 342 26 view .LVU71
 295 001c FFF7FEFF 		bl	lv_obj_get_style_prop
 296              	.LVL27:
 297 0020 0746     		mov	r7, r0
 298 0022 0190     		str	r0, [sp, #4]
 343:Drivers/lvgl/src/core/lv_obj_style_gen.h **** }
 299              		.loc 3 343 5 is_stmt 1 view .LVU72
 300              	.LVL28:
 343:Drivers/lvgl/src/core/lv_obj_style_gen.h **** }
 301              		.loc 3 343 5 is_stmt 0 view .LVU73
 302              	.LBE85:
 303              	.LBE84:
 268:Drivers/lvgl/src/core/lv_obj_style.h ****     return (border_side & LV_BORDER_SIDE_RIGHT) ? padding + border_width : padding;
 304              		.loc 2 268 5 is_stmt 1 view .LVU74
 305              	.LBB86:
ARM GAS  /tmp/ccmLrI5c.s 			page 18


 306              	.LBI86:
 346:Drivers/lvgl/src/core/lv_obj_style_gen.h **** {
 307              		.loc 3 346 32 view .LVU75
 308              	.LBB87:
 348:Drivers/lvgl/src/core/lv_obj_style_gen.h ****     return (lv_border_side_t)v.num;
 309              		.loc 3 348 5 view .LVU76
 348:Drivers/lvgl/src/core/lv_obj_style_gen.h ****     return (lv_border_side_t)v.num;
 310              		.loc 3 348 26 is_stmt 0 view .LVU77
 311 0024 3422     		movs	r2, #52
 312 0026 3146     		mov	r1, r6
 313 0028 2846     		mov	r0, r5
 314              	.LVL29:
 348:Drivers/lvgl/src/core/lv_obj_style_gen.h ****     return (lv_border_side_t)v.num;
 315              		.loc 3 348 26 view .LVU78
 316 002a FFF7FEFF 		bl	lv_obj_get_style_prop
 317              	.LVL30:
 318 002e 0190     		str	r0, [sp, #4]
 319              		.loc 3 349 5 is_stmt 1 view .LVU79
 320              	.LVL31:
 321              		.loc 3 349 5 is_stmt 0 view .LVU80
 322              	.LBE87:
 323              	.LBE86:
 269:Drivers/lvgl/src/core/lv_obj_style.h **** }
 324              		.loc 2 269 5 is_stmt 1 view .LVU81
 269:Drivers/lvgl/src/core/lv_obj_style.h **** }
 325              		.loc 2 269 74 is_stmt 0 view .LVU82
 326 0030 10F0080F 		tst	r0, #8
 327 0034 01D0     		beq	.L6
 269:Drivers/lvgl/src/core/lv_obj_style.h **** }
 328              		.loc 2 269 74 discriminator 1 view .LVU83
 329 0036 04EB0708 		add	r8, r4, r7
 330              	.L6:
 270:Drivers/lvgl/src/core/lv_obj_style.h **** 
 331              		.loc 2 270 1 view .LVU84
 332 003a 4046     		mov	r0, r8
 333              	.LVL32:
 270:Drivers/lvgl/src/core/lv_obj_style.h **** 
 334              		.loc 2 270 1 view .LVU85
 335 003c 02B0     		add	sp, sp, #8
 336              	.LCFI8:
 337              		.cfi_def_cfa_offset 24
 338              		@ sp needed
 339 003e BDE8F081 		pop	{r4, r5, r6, r7, r8, pc}
 270:Drivers/lvgl/src/core/lv_obj_style.h **** 
 340              		.loc 2 270 1 view .LVU86
 341              		.cfi_endproc
 342              	.LFE166:
 344              		.section	.text.lv_obj_get_style_space_left,"ax",%progbits
 345              		.align	1
 346              		.syntax unified
 347              		.thumb
 348              		.thumb_func
 350              	lv_obj_get_style_space_left:
 351              	.LVL33:
 352              	.LFB165:
 257:Drivers/lvgl/src/core/lv_obj_style.h ****     int32_t padding = lv_obj_get_style_pad_left(obj, part);
 353              		.loc 2 257 1 is_stmt 1 view -0
ARM GAS  /tmp/ccmLrI5c.s 			page 19


 354              		.cfi_startproc
 355              		@ args = 0, pretend = 0, frame = 8
 356              		@ frame_needed = 0, uses_anonymous_args = 0
 257:Drivers/lvgl/src/core/lv_obj_style.h ****     int32_t padding = lv_obj_get_style_pad_left(obj, part);
 357              		.loc 2 257 1 is_stmt 0 view .LVU88
 358 0000 2DE9F041 		push	{r4, r5, r6, r7, r8, lr}
 359              	.LCFI9:
 360              		.cfi_def_cfa_offset 24
 361              		.cfi_offset 4, -24
 362              		.cfi_offset 5, -20
 363              		.cfi_offset 6, -16
 364              		.cfi_offset 7, -12
 365              		.cfi_offset 8, -8
 366              		.cfi_offset 14, -4
 367 0004 82B0     		sub	sp, sp, #8
 368              	.LCFI10:
 369              		.cfi_def_cfa_offset 32
 370 0006 0546     		mov	r5, r0
 371 0008 0E46     		mov	r6, r1
 258:Drivers/lvgl/src/core/lv_obj_style.h ****     int32_t border_width = lv_obj_get_style_border_width(obj, part);
 372              		.loc 2 258 5 is_stmt 1 view .LVU89
 373              	.LVL34:
 374              	.LBB88:
 375              	.LBI88:
 166:Drivers/lvgl/src/core/lv_obj_style_gen.h **** {
 376              		.loc 3 166 23 view .LVU90
 377              	.LBB89:
 168:Drivers/lvgl/src/core/lv_obj_style_gen.h ****     return (int32_t)v.num;
 378              		.loc 3 168 5 view .LVU91
 168:Drivers/lvgl/src/core/lv_obj_style_gen.h ****     return (int32_t)v.num;
 379              		.loc 3 168 26 is_stmt 0 view .LVU92
 380 000a 1222     		movs	r2, #18
 381 000c FFF7FEFF 		bl	lv_obj_get_style_prop
 382              	.LVL35:
 168:Drivers/lvgl/src/core/lv_obj_style_gen.h ****     return (int32_t)v.num;
 383              		.loc 3 168 26 view .LVU93
 384 0010 0446     		mov	r4, r0
 385 0012 0190     		str	r0, [sp, #4]
 169:Drivers/lvgl/src/core/lv_obj_style_gen.h **** }
 386              		.loc 3 169 5 is_stmt 1 view .LVU94
 169:Drivers/lvgl/src/core/lv_obj_style_gen.h **** }
 387              		.loc 3 169 12 is_stmt 0 view .LVU95
 388 0014 8046     		mov	r8, r0
 389              	.LVL36:
 169:Drivers/lvgl/src/core/lv_obj_style_gen.h **** }
 390              		.loc 3 169 12 view .LVU96
 391              	.LBE89:
 392              	.LBE88:
 259:Drivers/lvgl/src/core/lv_obj_style.h ****     lv_border_side_t border_side = lv_obj_get_style_border_side(obj, part);
 393              		.loc 2 259 5 is_stmt 1 view .LVU97
 394              	.LBB90:
 395              	.LBI90:
 340:Drivers/lvgl/src/core/lv_obj_style_gen.h **** {
 396              		.loc 3 340 23 view .LVU98
 397              	.LBB91:
 342:Drivers/lvgl/src/core/lv_obj_style_gen.h ****     return (int32_t)v.num;
 398              		.loc 3 342 5 view .LVU99
ARM GAS  /tmp/ccmLrI5c.s 			page 20


 342:Drivers/lvgl/src/core/lv_obj_style_gen.h ****     return (int32_t)v.num;
 399              		.loc 3 342 26 is_stmt 0 view .LVU100
 400 0016 3022     		movs	r2, #48
 401 0018 3146     		mov	r1, r6
 402 001a 2846     		mov	r0, r5
 403              	.LVL37:
 342:Drivers/lvgl/src/core/lv_obj_style_gen.h ****     return (int32_t)v.num;
 404              		.loc 3 342 26 view .LVU101
 405 001c FFF7FEFF 		bl	lv_obj_get_style_prop
 406              	.LVL38:
 407 0020 0746     		mov	r7, r0
 408 0022 0190     		str	r0, [sp, #4]
 343:Drivers/lvgl/src/core/lv_obj_style_gen.h **** }
 409              		.loc 3 343 5 is_stmt 1 view .LVU102
 410              	.LVL39:
 343:Drivers/lvgl/src/core/lv_obj_style_gen.h **** }
 411              		.loc 3 343 5 is_stmt 0 view .LVU103
 412              	.LBE91:
 413              	.LBE90:
 260:Drivers/lvgl/src/core/lv_obj_style.h ****     return (border_side & LV_BORDER_SIDE_LEFT) ? padding + border_width : padding;
 414              		.loc 2 260 5 is_stmt 1 view .LVU104
 415              	.LBB92:
 416              	.LBI92:
 346:Drivers/lvgl/src/core/lv_obj_style_gen.h **** {
 417              		.loc 3 346 32 view .LVU105
 418              	.LBB93:
 348:Drivers/lvgl/src/core/lv_obj_style_gen.h ****     return (lv_border_side_t)v.num;
 419              		.loc 3 348 5 view .LVU106
 348:Drivers/lvgl/src/core/lv_obj_style_gen.h ****     return (lv_border_side_t)v.num;
 420              		.loc 3 348 26 is_stmt 0 view .LVU107
 421 0024 3422     		movs	r2, #52
 422 0026 3146     		mov	r1, r6
 423 0028 2846     		mov	r0, r5
 424              	.LVL40:
 348:Drivers/lvgl/src/core/lv_obj_style_gen.h ****     return (lv_border_side_t)v.num;
 425              		.loc 3 348 26 view .LVU108
 426 002a FFF7FEFF 		bl	lv_obj_get_style_prop
 427              	.LVL41:
 428 002e 0190     		str	r0, [sp, #4]
 429              		.loc 3 349 5 is_stmt 1 view .LVU109
 430              	.LVL42:
 431              		.loc 3 349 5 is_stmt 0 view .LVU110
 432              	.LBE93:
 433              	.LBE92:
 261:Drivers/lvgl/src/core/lv_obj_style.h **** }
 434              		.loc 2 261 5 is_stmt 1 view .LVU111
 261:Drivers/lvgl/src/core/lv_obj_style.h **** }
 435              		.loc 2 261 73 is_stmt 0 view .LVU112
 436 0030 10F0040F 		tst	r0, #4
 437 0034 01D0     		beq	.L9
 261:Drivers/lvgl/src/core/lv_obj_style.h **** }
 438              		.loc 2 261 73 discriminator 1 view .LVU113
 439 0036 04EB0708 		add	r8, r4, r7
 440              	.L9:
 262:Drivers/lvgl/src/core/lv_obj_style.h **** 
 441              		.loc 2 262 1 view .LVU114
 442 003a 4046     		mov	r0, r8
ARM GAS  /tmp/ccmLrI5c.s 			page 21


 443              	.LVL43:
 262:Drivers/lvgl/src/core/lv_obj_style.h **** 
 444              		.loc 2 262 1 view .LVU115
 445 003c 02B0     		add	sp, sp, #8
 446              	.LCFI11:
 447              		.cfi_def_cfa_offset 24
 448              		@ sp needed
 449 003e BDE8F081 		pop	{r4, r5, r6, r7, r8, pc}
 262:Drivers/lvgl/src/core/lv_obj_style.h **** 
 450              		.loc 2 262 1 view .LVU116
 451              		.cfi_endproc
 452              	.LFE165:
 454              		.section	.text.scroll_end_cb,"ax",%progbits
 455              		.align	1
 456              		.syntax unified
 457              		.thumb
 458              		.thumb_func
 460              	scroll_end_cb:
 461              	.LVL44:
 462              	.LFB202:
   1:Drivers/lvgl/src/core/lv_obj_scroll.c **** /**
   2:Drivers/lvgl/src/core/lv_obj_scroll.c ****  * @file lv_obj_scroll.c
   3:Drivers/lvgl/src/core/lv_obj_scroll.c ****  *
   4:Drivers/lvgl/src/core/lv_obj_scroll.c ****  */
   5:Drivers/lvgl/src/core/lv_obj_scroll.c **** 
   6:Drivers/lvgl/src/core/lv_obj_scroll.c **** /*********************
   7:Drivers/lvgl/src/core/lv_obj_scroll.c ****  *      INCLUDES
   8:Drivers/lvgl/src/core/lv_obj_scroll.c ****  *********************/
   9:Drivers/lvgl/src/core/lv_obj_scroll.c **** #include "lv_obj_scroll_private.h"
  10:Drivers/lvgl/src/core/lv_obj_scroll.c **** #include "../misc/lv_anim_private.h"
  11:Drivers/lvgl/src/core/lv_obj_scroll.c **** #include "lv_obj_private.h"
  12:Drivers/lvgl/src/core/lv_obj_scroll.c **** #include "../indev/lv_indev.h"
  13:Drivers/lvgl/src/core/lv_obj_scroll.c **** #include "../indev/lv_indev_scroll.h"
  14:Drivers/lvgl/src/core/lv_obj_scroll.c **** #include "../display/lv_display.h"
  15:Drivers/lvgl/src/core/lv_obj_scroll.c **** #include "../misc/lv_area.h"
  16:Drivers/lvgl/src/core/lv_obj_scroll.c **** 
  17:Drivers/lvgl/src/core/lv_obj_scroll.c **** /*********************
  18:Drivers/lvgl/src/core/lv_obj_scroll.c ****  *      DEFINES
  19:Drivers/lvgl/src/core/lv_obj_scroll.c ****  *********************/
  20:Drivers/lvgl/src/core/lv_obj_scroll.c **** #define MY_CLASS (&lv_obj_class)
  21:Drivers/lvgl/src/core/lv_obj_scroll.c **** #define SCROLL_ANIM_TIME_MIN    200    /*ms*/
  22:Drivers/lvgl/src/core/lv_obj_scroll.c **** #define SCROLL_ANIM_TIME_MAX    400    /*ms*/
  23:Drivers/lvgl/src/core/lv_obj_scroll.c **** #define SCROLLBAR_MIN_SIZE      (LV_DPX(10))
  24:Drivers/lvgl/src/core/lv_obj_scroll.c **** 
  25:Drivers/lvgl/src/core/lv_obj_scroll.c **** /**********************
  26:Drivers/lvgl/src/core/lv_obj_scroll.c ****  *      TYPEDEFS
  27:Drivers/lvgl/src/core/lv_obj_scroll.c ****  **********************/
  28:Drivers/lvgl/src/core/lv_obj_scroll.c **** 
  29:Drivers/lvgl/src/core/lv_obj_scroll.c **** /**********************
  30:Drivers/lvgl/src/core/lv_obj_scroll.c ****  *  GLOBAL PROTOTYPES
  31:Drivers/lvgl/src/core/lv_obj_scroll.c ****  **********************/
  32:Drivers/lvgl/src/core/lv_obj_scroll.c **** 
  33:Drivers/lvgl/src/core/lv_obj_scroll.c **** /**********************
  34:Drivers/lvgl/src/core/lv_obj_scroll.c ****  *  STATIC PROTOTYPES
  35:Drivers/lvgl/src/core/lv_obj_scroll.c ****  **********************/
  36:Drivers/lvgl/src/core/lv_obj_scroll.c **** static void scroll_x_anim(void * obj, int32_t v);
  37:Drivers/lvgl/src/core/lv_obj_scroll.c **** static void scroll_y_anim(void * obj, int32_t v);
ARM GAS  /tmp/ccmLrI5c.s 			page 22


  38:Drivers/lvgl/src/core/lv_obj_scroll.c **** static void scroll_end_cb(lv_anim_t * a);
  39:Drivers/lvgl/src/core/lv_obj_scroll.c **** static void scroll_area_into_view(const lv_area_t * area, lv_obj_t * child, lv_point_t * scroll_val
  40:Drivers/lvgl/src/core/lv_obj_scroll.c ****                                   lv_anim_enable_t anim_en);
  41:Drivers/lvgl/src/core/lv_obj_scroll.c **** 
  42:Drivers/lvgl/src/core/lv_obj_scroll.c **** /**********************
  43:Drivers/lvgl/src/core/lv_obj_scroll.c ****  *  STATIC VARIABLES
  44:Drivers/lvgl/src/core/lv_obj_scroll.c ****  **********************/
  45:Drivers/lvgl/src/core/lv_obj_scroll.c **** 
  46:Drivers/lvgl/src/core/lv_obj_scroll.c **** /**********************
  47:Drivers/lvgl/src/core/lv_obj_scroll.c ****  *      MACROS
  48:Drivers/lvgl/src/core/lv_obj_scroll.c ****  **********************/
  49:Drivers/lvgl/src/core/lv_obj_scroll.c **** 
  50:Drivers/lvgl/src/core/lv_obj_scroll.c **** /**********************
  51:Drivers/lvgl/src/core/lv_obj_scroll.c ****  *   GLOBAL FUNCTIONS
  52:Drivers/lvgl/src/core/lv_obj_scroll.c ****  **********************/
  53:Drivers/lvgl/src/core/lv_obj_scroll.c **** 
  54:Drivers/lvgl/src/core/lv_obj_scroll.c **** /*=====================
  55:Drivers/lvgl/src/core/lv_obj_scroll.c ****  * Setter functions
  56:Drivers/lvgl/src/core/lv_obj_scroll.c ****  *====================*/
  57:Drivers/lvgl/src/core/lv_obj_scroll.c **** 
  58:Drivers/lvgl/src/core/lv_obj_scroll.c **** void lv_obj_set_scrollbar_mode(lv_obj_t * obj, lv_scrollbar_mode_t mode)
  59:Drivers/lvgl/src/core/lv_obj_scroll.c **** {
  60:Drivers/lvgl/src/core/lv_obj_scroll.c ****     LV_ASSERT_OBJ(obj, MY_CLASS);
  61:Drivers/lvgl/src/core/lv_obj_scroll.c **** 
  62:Drivers/lvgl/src/core/lv_obj_scroll.c ****     lv_obj_allocate_spec_attr(obj);
  63:Drivers/lvgl/src/core/lv_obj_scroll.c **** 
  64:Drivers/lvgl/src/core/lv_obj_scroll.c ****     if(obj->spec_attr->scrollbar_mode == mode) return;
  65:Drivers/lvgl/src/core/lv_obj_scroll.c ****     obj->spec_attr->scrollbar_mode = mode;
  66:Drivers/lvgl/src/core/lv_obj_scroll.c ****     lv_obj_invalidate(obj);
  67:Drivers/lvgl/src/core/lv_obj_scroll.c **** }
  68:Drivers/lvgl/src/core/lv_obj_scroll.c **** 
  69:Drivers/lvgl/src/core/lv_obj_scroll.c **** void lv_obj_set_scroll_dir(lv_obj_t * obj, lv_dir_t dir)
  70:Drivers/lvgl/src/core/lv_obj_scroll.c **** {
  71:Drivers/lvgl/src/core/lv_obj_scroll.c ****     lv_obj_allocate_spec_attr(obj);
  72:Drivers/lvgl/src/core/lv_obj_scroll.c **** 
  73:Drivers/lvgl/src/core/lv_obj_scroll.c ****     if(dir != obj->spec_attr->scroll_dir) {
  74:Drivers/lvgl/src/core/lv_obj_scroll.c ****         obj->spec_attr->scroll_dir = dir;
  75:Drivers/lvgl/src/core/lv_obj_scroll.c ****     }
  76:Drivers/lvgl/src/core/lv_obj_scroll.c **** }
  77:Drivers/lvgl/src/core/lv_obj_scroll.c **** 
  78:Drivers/lvgl/src/core/lv_obj_scroll.c **** void lv_obj_set_scroll_snap_x(lv_obj_t * obj, lv_scroll_snap_t align)
  79:Drivers/lvgl/src/core/lv_obj_scroll.c **** {
  80:Drivers/lvgl/src/core/lv_obj_scroll.c ****     lv_obj_allocate_spec_attr(obj);
  81:Drivers/lvgl/src/core/lv_obj_scroll.c ****     obj->spec_attr->scroll_snap_x = align;
  82:Drivers/lvgl/src/core/lv_obj_scroll.c **** }
  83:Drivers/lvgl/src/core/lv_obj_scroll.c **** 
  84:Drivers/lvgl/src/core/lv_obj_scroll.c **** void lv_obj_set_scroll_snap_y(lv_obj_t * obj, lv_scroll_snap_t align)
  85:Drivers/lvgl/src/core/lv_obj_scroll.c **** {
  86:Drivers/lvgl/src/core/lv_obj_scroll.c ****     lv_obj_allocate_spec_attr(obj);
  87:Drivers/lvgl/src/core/lv_obj_scroll.c ****     obj->spec_attr->scroll_snap_y = align;
  88:Drivers/lvgl/src/core/lv_obj_scroll.c **** }
  89:Drivers/lvgl/src/core/lv_obj_scroll.c **** 
  90:Drivers/lvgl/src/core/lv_obj_scroll.c **** /*=====================
  91:Drivers/lvgl/src/core/lv_obj_scroll.c ****  * Getter functions
  92:Drivers/lvgl/src/core/lv_obj_scroll.c ****  *====================*/
  93:Drivers/lvgl/src/core/lv_obj_scroll.c **** 
  94:Drivers/lvgl/src/core/lv_obj_scroll.c **** lv_scrollbar_mode_t lv_obj_get_scrollbar_mode(const lv_obj_t * obj)
ARM GAS  /tmp/ccmLrI5c.s 			page 23


  95:Drivers/lvgl/src/core/lv_obj_scroll.c **** {
  96:Drivers/lvgl/src/core/lv_obj_scroll.c ****     if(obj->spec_attr) return (lv_scrollbar_mode_t) obj->spec_attr->scrollbar_mode;
  97:Drivers/lvgl/src/core/lv_obj_scroll.c ****     else return LV_SCROLLBAR_MODE_AUTO;
  98:Drivers/lvgl/src/core/lv_obj_scroll.c **** }
  99:Drivers/lvgl/src/core/lv_obj_scroll.c **** 
 100:Drivers/lvgl/src/core/lv_obj_scroll.c **** lv_dir_t lv_obj_get_scroll_dir(const lv_obj_t * obj)
 101:Drivers/lvgl/src/core/lv_obj_scroll.c **** {
 102:Drivers/lvgl/src/core/lv_obj_scroll.c ****     if(obj->spec_attr) return (lv_dir_t) obj->spec_attr->scroll_dir;
 103:Drivers/lvgl/src/core/lv_obj_scroll.c ****     else return LV_DIR_ALL;
 104:Drivers/lvgl/src/core/lv_obj_scroll.c **** }
 105:Drivers/lvgl/src/core/lv_obj_scroll.c **** 
 106:Drivers/lvgl/src/core/lv_obj_scroll.c **** lv_scroll_snap_t lv_obj_get_scroll_snap_x(const lv_obj_t * obj)
 107:Drivers/lvgl/src/core/lv_obj_scroll.c **** {
 108:Drivers/lvgl/src/core/lv_obj_scroll.c ****     if(obj->spec_attr) return (lv_scroll_snap_t) obj->spec_attr->scroll_snap_x;
 109:Drivers/lvgl/src/core/lv_obj_scroll.c ****     else return LV_SCROLL_SNAP_NONE;
 110:Drivers/lvgl/src/core/lv_obj_scroll.c **** }
 111:Drivers/lvgl/src/core/lv_obj_scroll.c **** 
 112:Drivers/lvgl/src/core/lv_obj_scroll.c **** lv_scroll_snap_t lv_obj_get_scroll_snap_y(const lv_obj_t * obj)
 113:Drivers/lvgl/src/core/lv_obj_scroll.c **** {
 114:Drivers/lvgl/src/core/lv_obj_scroll.c ****     if(obj->spec_attr) return (lv_scroll_snap_t) obj->spec_attr->scroll_snap_y;
 115:Drivers/lvgl/src/core/lv_obj_scroll.c ****     else return LV_SCROLL_SNAP_NONE;
 116:Drivers/lvgl/src/core/lv_obj_scroll.c **** }
 117:Drivers/lvgl/src/core/lv_obj_scroll.c **** 
 118:Drivers/lvgl/src/core/lv_obj_scroll.c **** int32_t lv_obj_get_scroll_x(const lv_obj_t * obj)
 119:Drivers/lvgl/src/core/lv_obj_scroll.c **** {
 120:Drivers/lvgl/src/core/lv_obj_scroll.c ****     if(obj->spec_attr == NULL) return 0;
 121:Drivers/lvgl/src/core/lv_obj_scroll.c ****     return -obj->spec_attr->scroll.x;
 122:Drivers/lvgl/src/core/lv_obj_scroll.c **** }
 123:Drivers/lvgl/src/core/lv_obj_scroll.c **** 
 124:Drivers/lvgl/src/core/lv_obj_scroll.c **** int32_t lv_obj_get_scroll_y(const lv_obj_t * obj)
 125:Drivers/lvgl/src/core/lv_obj_scroll.c **** {
 126:Drivers/lvgl/src/core/lv_obj_scroll.c ****     if(obj->spec_attr == NULL) return 0;
 127:Drivers/lvgl/src/core/lv_obj_scroll.c ****     return -obj->spec_attr->scroll.y;
 128:Drivers/lvgl/src/core/lv_obj_scroll.c **** }
 129:Drivers/lvgl/src/core/lv_obj_scroll.c **** 
 130:Drivers/lvgl/src/core/lv_obj_scroll.c **** int32_t lv_obj_get_scroll_top(const lv_obj_t * obj)
 131:Drivers/lvgl/src/core/lv_obj_scroll.c **** {
 132:Drivers/lvgl/src/core/lv_obj_scroll.c ****     if(obj->spec_attr == NULL) return 0;
 133:Drivers/lvgl/src/core/lv_obj_scroll.c ****     return -obj->spec_attr->scroll.y;
 134:Drivers/lvgl/src/core/lv_obj_scroll.c **** }
 135:Drivers/lvgl/src/core/lv_obj_scroll.c **** 
 136:Drivers/lvgl/src/core/lv_obj_scroll.c **** int32_t lv_obj_get_scroll_bottom(const lv_obj_t * obj)
 137:Drivers/lvgl/src/core/lv_obj_scroll.c **** {
 138:Drivers/lvgl/src/core/lv_obj_scroll.c ****     LV_ASSERT_OBJ(obj, MY_CLASS);
 139:Drivers/lvgl/src/core/lv_obj_scroll.c **** 
 140:Drivers/lvgl/src/core/lv_obj_scroll.c ****     int32_t child_res = LV_COORD_MIN;
 141:Drivers/lvgl/src/core/lv_obj_scroll.c ****     uint32_t i;
 142:Drivers/lvgl/src/core/lv_obj_scroll.c ****     uint32_t child_cnt = lv_obj_get_child_count(obj);
 143:Drivers/lvgl/src/core/lv_obj_scroll.c ****     for(i = 0; i < child_cnt; i++) {
 144:Drivers/lvgl/src/core/lv_obj_scroll.c ****         const lv_obj_t * child = obj->spec_attr->children[i];
 145:Drivers/lvgl/src/core/lv_obj_scroll.c ****         if(lv_obj_has_flag_any(child,  LV_OBJ_FLAG_HIDDEN | LV_OBJ_FLAG_FLOATING)) continue;
 146:Drivers/lvgl/src/core/lv_obj_scroll.c **** 
 147:Drivers/lvgl/src/core/lv_obj_scroll.c ****         int32_t tmp_y = child->coords.y2 + lv_obj_get_style_margin_bottom(child, LV_PART_MAIN);
 148:Drivers/lvgl/src/core/lv_obj_scroll.c ****         child_res = LV_MAX(child_res, tmp_y);
 149:Drivers/lvgl/src/core/lv_obj_scroll.c ****     }
 150:Drivers/lvgl/src/core/lv_obj_scroll.c **** 
 151:Drivers/lvgl/src/core/lv_obj_scroll.c ****     int32_t space_top = lv_obj_get_style_space_top(obj, LV_PART_MAIN);
ARM GAS  /tmp/ccmLrI5c.s 			page 24


 152:Drivers/lvgl/src/core/lv_obj_scroll.c ****     int32_t space_bottom = lv_obj_get_style_space_bottom(obj, LV_PART_MAIN);
 153:Drivers/lvgl/src/core/lv_obj_scroll.c **** 
 154:Drivers/lvgl/src/core/lv_obj_scroll.c ****     if(child_res != LV_COORD_MIN) {
 155:Drivers/lvgl/src/core/lv_obj_scroll.c ****         child_res -= (obj->coords.y2 - space_bottom);
 156:Drivers/lvgl/src/core/lv_obj_scroll.c ****     }
 157:Drivers/lvgl/src/core/lv_obj_scroll.c **** 
 158:Drivers/lvgl/src/core/lv_obj_scroll.c ****     int32_t self_h = lv_obj_get_self_height(obj);
 159:Drivers/lvgl/src/core/lv_obj_scroll.c ****     self_h = self_h - (lv_obj_get_height(obj) - space_top - space_bottom);
 160:Drivers/lvgl/src/core/lv_obj_scroll.c ****     self_h -= lv_obj_get_scroll_y(obj);
 161:Drivers/lvgl/src/core/lv_obj_scroll.c ****     return LV_MAX(child_res, self_h);
 162:Drivers/lvgl/src/core/lv_obj_scroll.c **** }
 163:Drivers/lvgl/src/core/lv_obj_scroll.c **** 
 164:Drivers/lvgl/src/core/lv_obj_scroll.c **** int32_t lv_obj_get_scroll_left(const lv_obj_t * obj)
 165:Drivers/lvgl/src/core/lv_obj_scroll.c **** {
 166:Drivers/lvgl/src/core/lv_obj_scroll.c ****     LV_ASSERT_OBJ(obj, MY_CLASS);
 167:Drivers/lvgl/src/core/lv_obj_scroll.c **** 
 168:Drivers/lvgl/src/core/lv_obj_scroll.c ****     /*Normally can't scroll the object out on the left.
 169:Drivers/lvgl/src/core/lv_obj_scroll.c ****      *So simply use the current scroll position as "left size"*/
 170:Drivers/lvgl/src/core/lv_obj_scroll.c ****     if(lv_obj_get_style_base_dir(obj, LV_PART_MAIN) != LV_BASE_DIR_RTL) {
 171:Drivers/lvgl/src/core/lv_obj_scroll.c ****         if(obj->spec_attr == NULL) return 0;
 172:Drivers/lvgl/src/core/lv_obj_scroll.c ****         return -obj->spec_attr->scroll.x;
 173:Drivers/lvgl/src/core/lv_obj_scroll.c ****     }
 174:Drivers/lvgl/src/core/lv_obj_scroll.c **** 
 175:Drivers/lvgl/src/core/lv_obj_scroll.c ****     /*With RTL base direction scrolling the left is normal so find the left most coordinate*/
 176:Drivers/lvgl/src/core/lv_obj_scroll.c ****     int32_t space_right = lv_obj_get_style_space_right(obj, LV_PART_MAIN);
 177:Drivers/lvgl/src/core/lv_obj_scroll.c ****     int32_t space_left = lv_obj_get_style_space_left(obj, LV_PART_MAIN);
 178:Drivers/lvgl/src/core/lv_obj_scroll.c **** 
 179:Drivers/lvgl/src/core/lv_obj_scroll.c ****     int32_t child_res = 0;
 180:Drivers/lvgl/src/core/lv_obj_scroll.c **** 
 181:Drivers/lvgl/src/core/lv_obj_scroll.c ****     uint32_t i;
 182:Drivers/lvgl/src/core/lv_obj_scroll.c ****     int32_t x1 = LV_COORD_MAX;
 183:Drivers/lvgl/src/core/lv_obj_scroll.c ****     uint32_t child_cnt = lv_obj_get_child_count(obj);
 184:Drivers/lvgl/src/core/lv_obj_scroll.c ****     for(i = 0; i < child_cnt; i++) {
 185:Drivers/lvgl/src/core/lv_obj_scroll.c ****         const lv_obj_t * child = obj->spec_attr->children[i];
 186:Drivers/lvgl/src/core/lv_obj_scroll.c ****         if(lv_obj_has_flag_any(child,  LV_OBJ_FLAG_HIDDEN | LV_OBJ_FLAG_FLOATING)) continue;
 187:Drivers/lvgl/src/core/lv_obj_scroll.c **** 
 188:Drivers/lvgl/src/core/lv_obj_scroll.c ****         int32_t tmp_x = child->coords.x1 - lv_obj_get_style_margin_left(child, LV_PART_MAIN);
 189:Drivers/lvgl/src/core/lv_obj_scroll.c ****         x1 = LV_MIN(x1, tmp_x);
 190:Drivers/lvgl/src/core/lv_obj_scroll.c ****     }
 191:Drivers/lvgl/src/core/lv_obj_scroll.c **** 
 192:Drivers/lvgl/src/core/lv_obj_scroll.c ****     if(x1 != LV_COORD_MAX) {
 193:Drivers/lvgl/src/core/lv_obj_scroll.c ****         child_res = x1;
 194:Drivers/lvgl/src/core/lv_obj_scroll.c ****         child_res = (obj->coords.x1 + space_left) - child_res;
 195:Drivers/lvgl/src/core/lv_obj_scroll.c ****     }
 196:Drivers/lvgl/src/core/lv_obj_scroll.c ****     else {
 197:Drivers/lvgl/src/core/lv_obj_scroll.c ****         child_res = LV_COORD_MIN;
 198:Drivers/lvgl/src/core/lv_obj_scroll.c ****     }
 199:Drivers/lvgl/src/core/lv_obj_scroll.c **** 
 200:Drivers/lvgl/src/core/lv_obj_scroll.c ****     int32_t self_w = lv_obj_get_self_width(obj);
 201:Drivers/lvgl/src/core/lv_obj_scroll.c ****     self_w = self_w - (lv_obj_get_width(obj) - space_right - space_left);
 202:Drivers/lvgl/src/core/lv_obj_scroll.c ****     self_w += lv_obj_get_scroll_x(obj);
 203:Drivers/lvgl/src/core/lv_obj_scroll.c **** 
 204:Drivers/lvgl/src/core/lv_obj_scroll.c ****     return LV_MAX(child_res, self_w);
 205:Drivers/lvgl/src/core/lv_obj_scroll.c **** }
 206:Drivers/lvgl/src/core/lv_obj_scroll.c **** 
 207:Drivers/lvgl/src/core/lv_obj_scroll.c **** int32_t lv_obj_get_scroll_right(const lv_obj_t * obj)
 208:Drivers/lvgl/src/core/lv_obj_scroll.c **** {
ARM GAS  /tmp/ccmLrI5c.s 			page 25


 209:Drivers/lvgl/src/core/lv_obj_scroll.c ****     LV_ASSERT_OBJ(obj, MY_CLASS);
 210:Drivers/lvgl/src/core/lv_obj_scroll.c **** 
 211:Drivers/lvgl/src/core/lv_obj_scroll.c ****     /*With RTL base dir can't scroll to the object out on the right.
 212:Drivers/lvgl/src/core/lv_obj_scroll.c ****      *So simply use the current scroll position as "right size"*/
 213:Drivers/lvgl/src/core/lv_obj_scroll.c ****     if(lv_obj_get_style_base_dir(obj, LV_PART_MAIN) == LV_BASE_DIR_RTL) {
 214:Drivers/lvgl/src/core/lv_obj_scroll.c ****         if(obj->spec_attr == NULL) return 0;
 215:Drivers/lvgl/src/core/lv_obj_scroll.c ****         return obj->spec_attr->scroll.x;
 216:Drivers/lvgl/src/core/lv_obj_scroll.c ****     }
 217:Drivers/lvgl/src/core/lv_obj_scroll.c **** 
 218:Drivers/lvgl/src/core/lv_obj_scroll.c ****     /*With other base direction (LTR) scrolling to the right is normal so find the right most coord
 219:Drivers/lvgl/src/core/lv_obj_scroll.c ****     int32_t child_res = LV_COORD_MIN;
 220:Drivers/lvgl/src/core/lv_obj_scroll.c ****     uint32_t i;
 221:Drivers/lvgl/src/core/lv_obj_scroll.c ****     uint32_t child_cnt = lv_obj_get_child_count(obj);
 222:Drivers/lvgl/src/core/lv_obj_scroll.c ****     for(i = 0; i < child_cnt; i++) {
 223:Drivers/lvgl/src/core/lv_obj_scroll.c ****         const lv_obj_t * child = obj->spec_attr->children[i];
 224:Drivers/lvgl/src/core/lv_obj_scroll.c ****         if(lv_obj_has_flag_any(child,  LV_OBJ_FLAG_HIDDEN | LV_OBJ_FLAG_FLOATING)) continue;
 225:Drivers/lvgl/src/core/lv_obj_scroll.c **** 
 226:Drivers/lvgl/src/core/lv_obj_scroll.c ****         int32_t tmp_x = child->coords.x2 + lv_obj_get_style_margin_right(child, LV_PART_MAIN);
 227:Drivers/lvgl/src/core/lv_obj_scroll.c ****         child_res = LV_MAX(child_res, tmp_x);
 228:Drivers/lvgl/src/core/lv_obj_scroll.c ****     }
 229:Drivers/lvgl/src/core/lv_obj_scroll.c **** 
 230:Drivers/lvgl/src/core/lv_obj_scroll.c ****     int32_t space_right = lv_obj_get_style_space_right(obj, LV_PART_MAIN);
 231:Drivers/lvgl/src/core/lv_obj_scroll.c ****     int32_t space_left = lv_obj_get_style_space_left(obj, LV_PART_MAIN);
 232:Drivers/lvgl/src/core/lv_obj_scroll.c **** 
 233:Drivers/lvgl/src/core/lv_obj_scroll.c ****     if(child_res != LV_COORD_MIN) {
 234:Drivers/lvgl/src/core/lv_obj_scroll.c ****         child_res -= (obj->coords.x2 - space_right);
 235:Drivers/lvgl/src/core/lv_obj_scroll.c ****     }
 236:Drivers/lvgl/src/core/lv_obj_scroll.c **** 
 237:Drivers/lvgl/src/core/lv_obj_scroll.c ****     int32_t self_w;
 238:Drivers/lvgl/src/core/lv_obj_scroll.c ****     self_w = lv_obj_get_self_width(obj);
 239:Drivers/lvgl/src/core/lv_obj_scroll.c ****     self_w = self_w - (lv_obj_get_width(obj) - space_right - space_left);
 240:Drivers/lvgl/src/core/lv_obj_scroll.c ****     self_w -= lv_obj_get_scroll_x(obj);
 241:Drivers/lvgl/src/core/lv_obj_scroll.c ****     return LV_MAX(child_res, self_w);
 242:Drivers/lvgl/src/core/lv_obj_scroll.c **** }
 243:Drivers/lvgl/src/core/lv_obj_scroll.c **** 
 244:Drivers/lvgl/src/core/lv_obj_scroll.c **** void lv_obj_get_scroll_end(lv_obj_t * obj, lv_point_t * end)
 245:Drivers/lvgl/src/core/lv_obj_scroll.c **** {
 246:Drivers/lvgl/src/core/lv_obj_scroll.c ****     lv_anim_t * a;
 247:Drivers/lvgl/src/core/lv_obj_scroll.c ****     a = lv_anim_get(obj, scroll_x_anim);
 248:Drivers/lvgl/src/core/lv_obj_scroll.c ****     end->x = a ? -a->end_value : lv_obj_get_scroll_x(obj);
 249:Drivers/lvgl/src/core/lv_obj_scroll.c **** 
 250:Drivers/lvgl/src/core/lv_obj_scroll.c ****     a = lv_anim_get(obj, scroll_y_anim);
 251:Drivers/lvgl/src/core/lv_obj_scroll.c ****     end->y = a ? -a->end_value : lv_obj_get_scroll_y(obj);
 252:Drivers/lvgl/src/core/lv_obj_scroll.c **** }
 253:Drivers/lvgl/src/core/lv_obj_scroll.c **** 
 254:Drivers/lvgl/src/core/lv_obj_scroll.c **** /*=====================
 255:Drivers/lvgl/src/core/lv_obj_scroll.c ****  * Other functions
 256:Drivers/lvgl/src/core/lv_obj_scroll.c ****  *====================*/
 257:Drivers/lvgl/src/core/lv_obj_scroll.c **** 
 258:Drivers/lvgl/src/core/lv_obj_scroll.c **** void lv_obj_scroll_by_bounded(lv_obj_t * obj, int32_t dx, int32_t dy, lv_anim_enable_t anim_en)
 259:Drivers/lvgl/src/core/lv_obj_scroll.c **** {
 260:Drivers/lvgl/src/core/lv_obj_scroll.c ****     if(dx == 0 && dy == 0) return;
 261:Drivers/lvgl/src/core/lv_obj_scroll.c **** 
 262:Drivers/lvgl/src/core/lv_obj_scroll.c ****     /*We need to know the final sizes for bound check*/
 263:Drivers/lvgl/src/core/lv_obj_scroll.c ****     lv_obj_update_layout(obj);
 264:Drivers/lvgl/src/core/lv_obj_scroll.c **** 
 265:Drivers/lvgl/src/core/lv_obj_scroll.c ****     /*Don't let scroll more than naturally possible by the size of the content*/
ARM GAS  /tmp/ccmLrI5c.s 			page 26


 266:Drivers/lvgl/src/core/lv_obj_scroll.c ****     int32_t x_current = -lv_obj_get_scroll_x(obj);
 267:Drivers/lvgl/src/core/lv_obj_scroll.c ****     int32_t x_bounded = x_current + dx;
 268:Drivers/lvgl/src/core/lv_obj_scroll.c **** 
 269:Drivers/lvgl/src/core/lv_obj_scroll.c ****     if(lv_obj_get_style_base_dir(obj, LV_PART_MAIN) != LV_BASE_DIR_RTL) {
 270:Drivers/lvgl/src/core/lv_obj_scroll.c ****         if(x_bounded > 0) x_bounded = 0;
 271:Drivers/lvgl/src/core/lv_obj_scroll.c ****         if(x_bounded < 0) {
 272:Drivers/lvgl/src/core/lv_obj_scroll.c ****             int32_t  scroll_max = lv_obj_get_scroll_left(obj) + lv_obj_get_scroll_right(obj);
 273:Drivers/lvgl/src/core/lv_obj_scroll.c ****             if(scroll_max < 0) scroll_max = 0;
 274:Drivers/lvgl/src/core/lv_obj_scroll.c **** 
 275:Drivers/lvgl/src/core/lv_obj_scroll.c ****             if(x_bounded < -scroll_max) x_bounded = -scroll_max;
 276:Drivers/lvgl/src/core/lv_obj_scroll.c ****         }
 277:Drivers/lvgl/src/core/lv_obj_scroll.c ****     }
 278:Drivers/lvgl/src/core/lv_obj_scroll.c ****     else {
 279:Drivers/lvgl/src/core/lv_obj_scroll.c ****         if(x_bounded < 0) x_bounded = 0;
 280:Drivers/lvgl/src/core/lv_obj_scroll.c ****         if(x_bounded > 0) {
 281:Drivers/lvgl/src/core/lv_obj_scroll.c ****             int32_t  scroll_max = lv_obj_get_scroll_left(obj) + lv_obj_get_scroll_right(obj);
 282:Drivers/lvgl/src/core/lv_obj_scroll.c ****             if(scroll_max < 0) scroll_max = 0;
 283:Drivers/lvgl/src/core/lv_obj_scroll.c **** 
 284:Drivers/lvgl/src/core/lv_obj_scroll.c ****             if(x_bounded > scroll_max) x_bounded = scroll_max;
 285:Drivers/lvgl/src/core/lv_obj_scroll.c ****         }
 286:Drivers/lvgl/src/core/lv_obj_scroll.c ****     }
 287:Drivers/lvgl/src/core/lv_obj_scroll.c **** 
 288:Drivers/lvgl/src/core/lv_obj_scroll.c ****     /*Don't let scroll more than naturally possible by the size of the content*/
 289:Drivers/lvgl/src/core/lv_obj_scroll.c ****     int32_t y_current = -lv_obj_get_scroll_y(obj);
 290:Drivers/lvgl/src/core/lv_obj_scroll.c ****     int32_t y_bounded = y_current + dy;
 291:Drivers/lvgl/src/core/lv_obj_scroll.c **** 
 292:Drivers/lvgl/src/core/lv_obj_scroll.c ****     if(y_bounded > 0) y_bounded = 0;
 293:Drivers/lvgl/src/core/lv_obj_scroll.c ****     if(y_bounded < 0) {
 294:Drivers/lvgl/src/core/lv_obj_scroll.c ****         int32_t  scroll_max = lv_obj_get_scroll_top(obj) + lv_obj_get_scroll_bottom(obj);
 295:Drivers/lvgl/src/core/lv_obj_scroll.c ****         if(scroll_max < 0) scroll_max = 0;
 296:Drivers/lvgl/src/core/lv_obj_scroll.c ****         if(y_bounded < -scroll_max) y_bounded = -scroll_max;
 297:Drivers/lvgl/src/core/lv_obj_scroll.c ****     }
 298:Drivers/lvgl/src/core/lv_obj_scroll.c **** 
 299:Drivers/lvgl/src/core/lv_obj_scroll.c ****     dx = x_bounded - x_current;
 300:Drivers/lvgl/src/core/lv_obj_scroll.c ****     dy = y_bounded - y_current;
 301:Drivers/lvgl/src/core/lv_obj_scroll.c ****     if(dx || dy) {
 302:Drivers/lvgl/src/core/lv_obj_scroll.c ****         lv_obj_scroll_by(obj, dx, dy, anim_en);
 303:Drivers/lvgl/src/core/lv_obj_scroll.c ****     }
 304:Drivers/lvgl/src/core/lv_obj_scroll.c **** }
 305:Drivers/lvgl/src/core/lv_obj_scroll.c **** 
 306:Drivers/lvgl/src/core/lv_obj_scroll.c **** void lv_obj_scroll_by(lv_obj_t * obj, int32_t dx, int32_t dy, lv_anim_enable_t anim_en)
 307:Drivers/lvgl/src/core/lv_obj_scroll.c **** {
 308:Drivers/lvgl/src/core/lv_obj_scroll.c ****     if(dx == 0 && dy == 0) return;
 309:Drivers/lvgl/src/core/lv_obj_scroll.c ****     if(anim_en) {
 310:Drivers/lvgl/src/core/lv_obj_scroll.c ****         lv_display_t * d = lv_obj_get_display(obj);
 311:Drivers/lvgl/src/core/lv_obj_scroll.c ****         lv_anim_t a;
 312:Drivers/lvgl/src/core/lv_obj_scroll.c ****         lv_anim_init(&a);
 313:Drivers/lvgl/src/core/lv_obj_scroll.c ****         lv_anim_set_var(&a, obj);
 314:Drivers/lvgl/src/core/lv_obj_scroll.c ****         lv_anim_set_deleted_cb(&a, scroll_end_cb);
 315:Drivers/lvgl/src/core/lv_obj_scroll.c **** 
 316:Drivers/lvgl/src/core/lv_obj_scroll.c ****         if(dx) {
 317:Drivers/lvgl/src/core/lv_obj_scroll.c ****             uint32_t t = lv_anim_speed_clamped((lv_display_get_horizontal_resolution(d)) >> 1, SCRO
 318:Drivers/lvgl/src/core/lv_obj_scroll.c ****                                                SCROLL_ANIM_TIME_MAX);
 319:Drivers/lvgl/src/core/lv_obj_scroll.c ****             lv_anim_set_duration(&a, t);
 320:Drivers/lvgl/src/core/lv_obj_scroll.c ****             int32_t sx = lv_obj_get_scroll_x(obj);
 321:Drivers/lvgl/src/core/lv_obj_scroll.c ****             lv_anim_set_values(&a, -sx, -sx + dx);
 322:Drivers/lvgl/src/core/lv_obj_scroll.c ****             lv_anim_set_exec_cb(&a, scroll_x_anim);
ARM GAS  /tmp/ccmLrI5c.s 			page 27


 323:Drivers/lvgl/src/core/lv_obj_scroll.c ****             lv_anim_set_path_cb(&a, lv_anim_path_ease_out);
 324:Drivers/lvgl/src/core/lv_obj_scroll.c **** 
 325:Drivers/lvgl/src/core/lv_obj_scroll.c ****             lv_result_t res;
 326:Drivers/lvgl/src/core/lv_obj_scroll.c ****             res = lv_obj_send_event(obj, LV_EVENT_SCROLL_BEGIN, &a);
 327:Drivers/lvgl/src/core/lv_obj_scroll.c ****             if(res != LV_RESULT_OK) return;
 328:Drivers/lvgl/src/core/lv_obj_scroll.c ****             lv_anim_start(&a);
 329:Drivers/lvgl/src/core/lv_obj_scroll.c ****         }
 330:Drivers/lvgl/src/core/lv_obj_scroll.c **** 
 331:Drivers/lvgl/src/core/lv_obj_scroll.c ****         if(dy) {
 332:Drivers/lvgl/src/core/lv_obj_scroll.c ****             uint32_t t = lv_anim_speed_clamped((lv_display_get_vertical_resolution(d)) >> 1, SCROLL
 333:Drivers/lvgl/src/core/lv_obj_scroll.c ****                                                SCROLL_ANIM_TIME_MAX);
 334:Drivers/lvgl/src/core/lv_obj_scroll.c ****             lv_anim_set_duration(&a, t);
 335:Drivers/lvgl/src/core/lv_obj_scroll.c ****             int32_t sy = lv_obj_get_scroll_y(obj);
 336:Drivers/lvgl/src/core/lv_obj_scroll.c ****             lv_anim_set_values(&a, -sy, -sy + dy);
 337:Drivers/lvgl/src/core/lv_obj_scroll.c ****             lv_anim_set_exec_cb(&a,  scroll_y_anim);
 338:Drivers/lvgl/src/core/lv_obj_scroll.c ****             lv_anim_set_path_cb(&a, lv_anim_path_ease_out);
 339:Drivers/lvgl/src/core/lv_obj_scroll.c **** 
 340:Drivers/lvgl/src/core/lv_obj_scroll.c ****             lv_result_t res;
 341:Drivers/lvgl/src/core/lv_obj_scroll.c ****             res = lv_obj_send_event(obj, LV_EVENT_SCROLL_BEGIN, &a);
 342:Drivers/lvgl/src/core/lv_obj_scroll.c ****             if(res != LV_RESULT_OK) return;
 343:Drivers/lvgl/src/core/lv_obj_scroll.c ****             lv_anim_start(&a);
 344:Drivers/lvgl/src/core/lv_obj_scroll.c ****         }
 345:Drivers/lvgl/src/core/lv_obj_scroll.c ****     }
 346:Drivers/lvgl/src/core/lv_obj_scroll.c ****     else {
 347:Drivers/lvgl/src/core/lv_obj_scroll.c ****         /*Remove pending animations*/
 348:Drivers/lvgl/src/core/lv_obj_scroll.c ****         lv_anim_delete(obj, scroll_y_anim);
 349:Drivers/lvgl/src/core/lv_obj_scroll.c ****         lv_anim_delete(obj, scroll_x_anim);
 350:Drivers/lvgl/src/core/lv_obj_scroll.c **** 
 351:Drivers/lvgl/src/core/lv_obj_scroll.c ****         lv_result_t res;
 352:Drivers/lvgl/src/core/lv_obj_scroll.c ****         res = lv_obj_send_event(obj, LV_EVENT_SCROLL_BEGIN, NULL);
 353:Drivers/lvgl/src/core/lv_obj_scroll.c ****         if(res != LV_RESULT_OK) return;
 354:Drivers/lvgl/src/core/lv_obj_scroll.c **** 
 355:Drivers/lvgl/src/core/lv_obj_scroll.c ****         res = lv_obj_scroll_by_raw(obj, dx, dy);
 356:Drivers/lvgl/src/core/lv_obj_scroll.c ****         if(res != LV_RESULT_OK) return;
 357:Drivers/lvgl/src/core/lv_obj_scroll.c **** 
 358:Drivers/lvgl/src/core/lv_obj_scroll.c ****         res = lv_obj_send_event(obj, LV_EVENT_SCROLL_END, NULL);
 359:Drivers/lvgl/src/core/lv_obj_scroll.c ****         if(res != LV_RESULT_OK) return;
 360:Drivers/lvgl/src/core/lv_obj_scroll.c ****     }
 361:Drivers/lvgl/src/core/lv_obj_scroll.c **** }
 362:Drivers/lvgl/src/core/lv_obj_scroll.c **** 
 363:Drivers/lvgl/src/core/lv_obj_scroll.c **** void lv_obj_scroll_to(lv_obj_t * obj, int32_t x, int32_t y, lv_anim_enable_t anim_en)
 364:Drivers/lvgl/src/core/lv_obj_scroll.c **** {
 365:Drivers/lvgl/src/core/lv_obj_scroll.c ****     lv_obj_scroll_to_x(obj, x, anim_en);
 366:Drivers/lvgl/src/core/lv_obj_scroll.c ****     lv_obj_scroll_to_y(obj, y, anim_en);
 367:Drivers/lvgl/src/core/lv_obj_scroll.c **** }
 368:Drivers/lvgl/src/core/lv_obj_scroll.c **** 
 369:Drivers/lvgl/src/core/lv_obj_scroll.c **** void lv_obj_scroll_to_x(lv_obj_t * obj, int32_t x, lv_anim_enable_t anim_en)
 370:Drivers/lvgl/src/core/lv_obj_scroll.c **** {
 371:Drivers/lvgl/src/core/lv_obj_scroll.c ****     lv_anim_delete(obj, scroll_x_anim);
 372:Drivers/lvgl/src/core/lv_obj_scroll.c **** 
 373:Drivers/lvgl/src/core/lv_obj_scroll.c ****     int32_t scroll_x = lv_obj_get_scroll_x(obj);
 374:Drivers/lvgl/src/core/lv_obj_scroll.c ****     int32_t diff = -x + scroll_x;
 375:Drivers/lvgl/src/core/lv_obj_scroll.c **** 
 376:Drivers/lvgl/src/core/lv_obj_scroll.c ****     lv_obj_scroll_by_bounded(obj, diff, 0, anim_en);
 377:Drivers/lvgl/src/core/lv_obj_scroll.c **** }
 378:Drivers/lvgl/src/core/lv_obj_scroll.c **** 
 379:Drivers/lvgl/src/core/lv_obj_scroll.c **** void lv_obj_scroll_to_y(lv_obj_t * obj, int32_t y, lv_anim_enable_t anim_en)
ARM GAS  /tmp/ccmLrI5c.s 			page 28


 380:Drivers/lvgl/src/core/lv_obj_scroll.c **** {
 381:Drivers/lvgl/src/core/lv_obj_scroll.c ****     lv_anim_delete(obj, scroll_y_anim);
 382:Drivers/lvgl/src/core/lv_obj_scroll.c **** 
 383:Drivers/lvgl/src/core/lv_obj_scroll.c ****     int32_t scroll_y = lv_obj_get_scroll_y(obj);
 384:Drivers/lvgl/src/core/lv_obj_scroll.c ****     int32_t diff = -y + scroll_y;
 385:Drivers/lvgl/src/core/lv_obj_scroll.c **** 
 386:Drivers/lvgl/src/core/lv_obj_scroll.c ****     lv_obj_scroll_by_bounded(obj, 0, diff, anim_en);
 387:Drivers/lvgl/src/core/lv_obj_scroll.c **** }
 388:Drivers/lvgl/src/core/lv_obj_scroll.c **** 
 389:Drivers/lvgl/src/core/lv_obj_scroll.c **** void lv_obj_scroll_to_view(lv_obj_t * obj, lv_anim_enable_t anim_en)
 390:Drivers/lvgl/src/core/lv_obj_scroll.c **** {
 391:Drivers/lvgl/src/core/lv_obj_scroll.c ****     /*Be sure the screens layout is correct*/
 392:Drivers/lvgl/src/core/lv_obj_scroll.c ****     lv_obj_update_layout(obj);
 393:Drivers/lvgl/src/core/lv_obj_scroll.c **** 
 394:Drivers/lvgl/src/core/lv_obj_scroll.c ****     lv_point_t p = {0, 0};
 395:Drivers/lvgl/src/core/lv_obj_scroll.c ****     scroll_area_into_view(&obj->coords, obj, &p, anim_en);
 396:Drivers/lvgl/src/core/lv_obj_scroll.c **** }
 397:Drivers/lvgl/src/core/lv_obj_scroll.c **** 
 398:Drivers/lvgl/src/core/lv_obj_scroll.c **** void lv_obj_scroll_to_view_recursive(lv_obj_t * obj, lv_anim_enable_t anim_en)
 399:Drivers/lvgl/src/core/lv_obj_scroll.c **** {
 400:Drivers/lvgl/src/core/lv_obj_scroll.c ****     /*Be sure the screens layout is correct*/
 401:Drivers/lvgl/src/core/lv_obj_scroll.c ****     lv_obj_update_layout(obj);
 402:Drivers/lvgl/src/core/lv_obj_scroll.c **** 
 403:Drivers/lvgl/src/core/lv_obj_scroll.c ****     lv_point_t p = {0, 0};
 404:Drivers/lvgl/src/core/lv_obj_scroll.c ****     lv_obj_t * child = obj;
 405:Drivers/lvgl/src/core/lv_obj_scroll.c ****     lv_obj_t * parent = lv_obj_get_parent(child);
 406:Drivers/lvgl/src/core/lv_obj_scroll.c ****     while(parent) {
 407:Drivers/lvgl/src/core/lv_obj_scroll.c ****         scroll_area_into_view(&obj->coords, child, &p, anim_en);
 408:Drivers/lvgl/src/core/lv_obj_scroll.c ****         child = parent;
 409:Drivers/lvgl/src/core/lv_obj_scroll.c ****         parent = lv_obj_get_parent(parent);
 410:Drivers/lvgl/src/core/lv_obj_scroll.c ****     }
 411:Drivers/lvgl/src/core/lv_obj_scroll.c **** }
 412:Drivers/lvgl/src/core/lv_obj_scroll.c **** 
 413:Drivers/lvgl/src/core/lv_obj_scroll.c **** lv_result_t lv_obj_scroll_by_raw(lv_obj_t * obj, int32_t x, int32_t y)
 414:Drivers/lvgl/src/core/lv_obj_scroll.c **** {
 415:Drivers/lvgl/src/core/lv_obj_scroll.c ****     if(x == 0 && y == 0) return LV_RESULT_OK;
 416:Drivers/lvgl/src/core/lv_obj_scroll.c **** 
 417:Drivers/lvgl/src/core/lv_obj_scroll.c ****     lv_obj_allocate_spec_attr(obj);
 418:Drivers/lvgl/src/core/lv_obj_scroll.c **** 
 419:Drivers/lvgl/src/core/lv_obj_scroll.c ****     obj->spec_attr->scroll.x += x;
 420:Drivers/lvgl/src/core/lv_obj_scroll.c ****     obj->spec_attr->scroll.y += y;
 421:Drivers/lvgl/src/core/lv_obj_scroll.c **** 
 422:Drivers/lvgl/src/core/lv_obj_scroll.c ****     lv_obj_move_children_by(obj, x, y, true);
 423:Drivers/lvgl/src/core/lv_obj_scroll.c ****     lv_result_t res = lv_obj_send_event(obj, LV_EVENT_SCROLL, NULL);
 424:Drivers/lvgl/src/core/lv_obj_scroll.c ****     if(res != LV_RESULT_OK) return res;
 425:Drivers/lvgl/src/core/lv_obj_scroll.c ****     lv_obj_invalidate(obj);
 426:Drivers/lvgl/src/core/lv_obj_scroll.c ****     return LV_RESULT_OK;
 427:Drivers/lvgl/src/core/lv_obj_scroll.c **** }
 428:Drivers/lvgl/src/core/lv_obj_scroll.c **** 
 429:Drivers/lvgl/src/core/lv_obj_scroll.c **** bool lv_obj_is_scrolling(const lv_obj_t * obj)
 430:Drivers/lvgl/src/core/lv_obj_scroll.c **** {
 431:Drivers/lvgl/src/core/lv_obj_scroll.c ****     lv_indev_t * indev = lv_indev_get_next(NULL);
 432:Drivers/lvgl/src/core/lv_obj_scroll.c ****     while(indev) {
 433:Drivers/lvgl/src/core/lv_obj_scroll.c ****         if(lv_indev_get_scroll_obj(indev) == obj) return true;
 434:Drivers/lvgl/src/core/lv_obj_scroll.c ****         indev = lv_indev_get_next(indev);
 435:Drivers/lvgl/src/core/lv_obj_scroll.c ****     }
 436:Drivers/lvgl/src/core/lv_obj_scroll.c **** 
ARM GAS  /tmp/ccmLrI5c.s 			page 29


 437:Drivers/lvgl/src/core/lv_obj_scroll.c ****     if(lv_anim_get((lv_obj_t *)obj, scroll_x_anim) != NULL ||
 438:Drivers/lvgl/src/core/lv_obj_scroll.c ****        lv_anim_get((lv_obj_t *)obj, scroll_y_anim) != NULL) {
 439:Drivers/lvgl/src/core/lv_obj_scroll.c ****         return true;
 440:Drivers/lvgl/src/core/lv_obj_scroll.c ****     }
 441:Drivers/lvgl/src/core/lv_obj_scroll.c **** 
 442:Drivers/lvgl/src/core/lv_obj_scroll.c ****     return false;
 443:Drivers/lvgl/src/core/lv_obj_scroll.c **** }
 444:Drivers/lvgl/src/core/lv_obj_scroll.c **** 
 445:Drivers/lvgl/src/core/lv_obj_scroll.c **** void lv_obj_stop_scroll_anim(const lv_obj_t * obj)
 446:Drivers/lvgl/src/core/lv_obj_scroll.c **** {
 447:Drivers/lvgl/src/core/lv_obj_scroll.c ****     lv_anim_delete((lv_obj_t *)obj, scroll_y_anim);
 448:Drivers/lvgl/src/core/lv_obj_scroll.c ****     lv_anim_delete((lv_obj_t *)obj, scroll_x_anim);
 449:Drivers/lvgl/src/core/lv_obj_scroll.c **** }
 450:Drivers/lvgl/src/core/lv_obj_scroll.c **** 
 451:Drivers/lvgl/src/core/lv_obj_scroll.c **** void lv_obj_update_snap(lv_obj_t * obj, lv_anim_enable_t anim_en)
 452:Drivers/lvgl/src/core/lv_obj_scroll.c **** {
 453:Drivers/lvgl/src/core/lv_obj_scroll.c ****     lv_obj_update_layout(obj);
 454:Drivers/lvgl/src/core/lv_obj_scroll.c ****     lv_point_t p;
 455:Drivers/lvgl/src/core/lv_obj_scroll.c ****     lv_indev_scroll_get_snap_dist(obj, &p);
 456:Drivers/lvgl/src/core/lv_obj_scroll.c ****     if(p.x == LV_COORD_MAX || p.x == LV_COORD_MIN) p.x = 0;
 457:Drivers/lvgl/src/core/lv_obj_scroll.c ****     if(p.y == LV_COORD_MAX || p.y == LV_COORD_MIN) p.y = 0;
 458:Drivers/lvgl/src/core/lv_obj_scroll.c ****     lv_obj_scroll_by(obj, p.x, p.y, anim_en);
 459:Drivers/lvgl/src/core/lv_obj_scroll.c **** }
 460:Drivers/lvgl/src/core/lv_obj_scroll.c **** 
 461:Drivers/lvgl/src/core/lv_obj_scroll.c **** void lv_obj_get_scrollbar_area(lv_obj_t * obj, lv_area_t * hor_area, lv_area_t * ver_area)
 462:Drivers/lvgl/src/core/lv_obj_scroll.c **** {
 463:Drivers/lvgl/src/core/lv_obj_scroll.c ****     lv_area_set(hor_area, 0, 0, -1, -1);
 464:Drivers/lvgl/src/core/lv_obj_scroll.c ****     lv_area_set(ver_area, 0, 0, -1, -1);
 465:Drivers/lvgl/src/core/lv_obj_scroll.c **** 
 466:Drivers/lvgl/src/core/lv_obj_scroll.c ****     if(lv_obj_has_flag(obj, LV_OBJ_FLAG_SCROLLABLE) == false) return;
 467:Drivers/lvgl/src/core/lv_obj_scroll.c **** 
 468:Drivers/lvgl/src/core/lv_obj_scroll.c ****     lv_scrollbar_mode_t sm = lv_obj_get_scrollbar_mode(obj);
 469:Drivers/lvgl/src/core/lv_obj_scroll.c ****     if(sm == LV_SCROLLBAR_MODE_OFF)  return;
 470:Drivers/lvgl/src/core/lv_obj_scroll.c **** 
 471:Drivers/lvgl/src/core/lv_obj_scroll.c ****     /*If there is no indev scrolling this object but `mode==active` return*/
 472:Drivers/lvgl/src/core/lv_obj_scroll.c ****     lv_indev_t * indev = lv_indev_get_next(NULL);
 473:Drivers/lvgl/src/core/lv_obj_scroll.c ****     if(sm == LV_SCROLLBAR_MODE_ACTIVE) {
 474:Drivers/lvgl/src/core/lv_obj_scroll.c ****         while(indev) {
 475:Drivers/lvgl/src/core/lv_obj_scroll.c ****             if(lv_indev_get_scroll_obj(indev) == obj) break;
 476:Drivers/lvgl/src/core/lv_obj_scroll.c ****             indev = lv_indev_get_next(indev);
 477:Drivers/lvgl/src/core/lv_obj_scroll.c ****         }
 478:Drivers/lvgl/src/core/lv_obj_scroll.c ****         if(indev == NULL)  return;
 479:Drivers/lvgl/src/core/lv_obj_scroll.c ****     }
 480:Drivers/lvgl/src/core/lv_obj_scroll.c **** 
 481:Drivers/lvgl/src/core/lv_obj_scroll.c ****     int32_t st = lv_obj_get_scroll_top(obj);
 482:Drivers/lvgl/src/core/lv_obj_scroll.c ****     int32_t sb = lv_obj_get_scroll_bottom(obj);
 483:Drivers/lvgl/src/core/lv_obj_scroll.c ****     int32_t sl = lv_obj_get_scroll_left(obj);
 484:Drivers/lvgl/src/core/lv_obj_scroll.c ****     int32_t sr = lv_obj_get_scroll_right(obj);
 485:Drivers/lvgl/src/core/lv_obj_scroll.c **** 
 486:Drivers/lvgl/src/core/lv_obj_scroll.c ****     lv_dir_t dir = lv_obj_get_scroll_dir(obj);
 487:Drivers/lvgl/src/core/lv_obj_scroll.c **** 
 488:Drivers/lvgl/src/core/lv_obj_scroll.c ****     bool ver_draw = false;
 489:Drivers/lvgl/src/core/lv_obj_scroll.c ****     if((dir & LV_DIR_VER) &&
 490:Drivers/lvgl/src/core/lv_obj_scroll.c ****        ((sm == LV_SCROLLBAR_MODE_ON) ||
 491:Drivers/lvgl/src/core/lv_obj_scroll.c ****         (sm == LV_SCROLLBAR_MODE_AUTO && (st > 0 || sb > 0)) ||
 492:Drivers/lvgl/src/core/lv_obj_scroll.c ****         (sm == LV_SCROLLBAR_MODE_ACTIVE && lv_indev_get_scroll_dir(indev) == LV_DIR_VER))) {
 493:Drivers/lvgl/src/core/lv_obj_scroll.c ****         ver_draw = true;
ARM GAS  /tmp/ccmLrI5c.s 			page 30


 494:Drivers/lvgl/src/core/lv_obj_scroll.c ****     }
 495:Drivers/lvgl/src/core/lv_obj_scroll.c **** 
 496:Drivers/lvgl/src/core/lv_obj_scroll.c ****     bool hor_draw = false;
 497:Drivers/lvgl/src/core/lv_obj_scroll.c ****     if((dir & LV_DIR_HOR) &&
 498:Drivers/lvgl/src/core/lv_obj_scroll.c ****        ((sm == LV_SCROLLBAR_MODE_ON) ||
 499:Drivers/lvgl/src/core/lv_obj_scroll.c ****         (sm == LV_SCROLLBAR_MODE_AUTO && (sl > 0 || sr > 0)) ||
 500:Drivers/lvgl/src/core/lv_obj_scroll.c ****         (sm == LV_SCROLLBAR_MODE_ACTIVE && lv_indev_get_scroll_dir(indev) == LV_DIR_HOR))) {
 501:Drivers/lvgl/src/core/lv_obj_scroll.c ****         hor_draw = true;
 502:Drivers/lvgl/src/core/lv_obj_scroll.c ****     }
 503:Drivers/lvgl/src/core/lv_obj_scroll.c **** 
 504:Drivers/lvgl/src/core/lv_obj_scroll.c ****     if(!hor_draw && !ver_draw) return;
 505:Drivers/lvgl/src/core/lv_obj_scroll.c **** 
 506:Drivers/lvgl/src/core/lv_obj_scroll.c ****     bool rtl = lv_obj_get_style_base_dir(obj, LV_PART_SCROLLBAR) == LV_BASE_DIR_RTL;
 507:Drivers/lvgl/src/core/lv_obj_scroll.c **** 
 508:Drivers/lvgl/src/core/lv_obj_scroll.c ****     int32_t top_space = lv_obj_get_style_pad_top(obj, LV_PART_SCROLLBAR);
 509:Drivers/lvgl/src/core/lv_obj_scroll.c ****     int32_t bottom_space = lv_obj_get_style_pad_bottom(obj, LV_PART_SCROLLBAR);
 510:Drivers/lvgl/src/core/lv_obj_scroll.c ****     int32_t left_space = lv_obj_get_style_pad_left(obj, LV_PART_SCROLLBAR);
 511:Drivers/lvgl/src/core/lv_obj_scroll.c ****     int32_t right_space = lv_obj_get_style_pad_right(obj, LV_PART_SCROLLBAR);
 512:Drivers/lvgl/src/core/lv_obj_scroll.c ****     int32_t thickness = lv_obj_get_style_width(obj, LV_PART_SCROLLBAR);
 513:Drivers/lvgl/src/core/lv_obj_scroll.c ****     int32_t length = lv_obj_get_style_length(obj, LV_PART_SCROLLBAR);
 514:Drivers/lvgl/src/core/lv_obj_scroll.c **** 
 515:Drivers/lvgl/src/core/lv_obj_scroll.c ****     int32_t obj_h = lv_obj_get_height(obj);
 516:Drivers/lvgl/src/core/lv_obj_scroll.c ****     int32_t obj_w = lv_obj_get_width(obj);
 517:Drivers/lvgl/src/core/lv_obj_scroll.c **** 
 518:Drivers/lvgl/src/core/lv_obj_scroll.c ****     /*Space required for the vertical and horizontal scrollbars*/
 519:Drivers/lvgl/src/core/lv_obj_scroll.c ****     int32_t ver_reg_space = ver_draw ? thickness : 0;
 520:Drivers/lvgl/src/core/lv_obj_scroll.c ****     int32_t hor_req_space = hor_draw ? thickness : 0;
 521:Drivers/lvgl/src/core/lv_obj_scroll.c ****     int32_t rem;
 522:Drivers/lvgl/src/core/lv_obj_scroll.c **** 
 523:Drivers/lvgl/src/core/lv_obj_scroll.c ****     if(lv_obj_get_style_bg_opa(obj, LV_PART_SCROLLBAR) < LV_OPA_MIN &&
 524:Drivers/lvgl/src/core/lv_obj_scroll.c ****        lv_obj_get_style_border_opa(obj, LV_PART_SCROLLBAR) < LV_OPA_MIN) {
 525:Drivers/lvgl/src/core/lv_obj_scroll.c ****         return;
 526:Drivers/lvgl/src/core/lv_obj_scroll.c ****     }
 527:Drivers/lvgl/src/core/lv_obj_scroll.c **** 
 528:Drivers/lvgl/src/core/lv_obj_scroll.c ****     /*Draw vertical scrollbar if the mode is ON or can be scrolled in this direction*/
 529:Drivers/lvgl/src/core/lv_obj_scroll.c ****     int32_t content_h = obj_h + st + sb;
 530:Drivers/lvgl/src/core/lv_obj_scroll.c ****     if(ver_draw && content_h) {
 531:Drivers/lvgl/src/core/lv_obj_scroll.c ****         ver_area->y1 = obj->coords.y1;
 532:Drivers/lvgl/src/core/lv_obj_scroll.c ****         ver_area->y2 = obj->coords.y2;
 533:Drivers/lvgl/src/core/lv_obj_scroll.c ****         if(rtl) {
 534:Drivers/lvgl/src/core/lv_obj_scroll.c ****             ver_area->x1 = obj->coords.x1 + left_space;
 535:Drivers/lvgl/src/core/lv_obj_scroll.c ****             ver_area->x2 = ver_area->x1 + thickness - 1;
 536:Drivers/lvgl/src/core/lv_obj_scroll.c ****         }
 537:Drivers/lvgl/src/core/lv_obj_scroll.c ****         else {
 538:Drivers/lvgl/src/core/lv_obj_scroll.c ****             ver_area->x2 = obj->coords.x2 - right_space;
 539:Drivers/lvgl/src/core/lv_obj_scroll.c ****             ver_area->x1 = ver_area->x2 - thickness + 1;
 540:Drivers/lvgl/src/core/lv_obj_scroll.c ****         }
 541:Drivers/lvgl/src/core/lv_obj_scroll.c **** 
 542:Drivers/lvgl/src/core/lv_obj_scroll.c ****         int32_t sb_h = ((obj_h - top_space - bottom_space - hor_req_space) * obj_h) / content_h;
 543:Drivers/lvgl/src/core/lv_obj_scroll.c ****         sb_h = LV_MAX(length > 0 ? length : sb_h, SCROLLBAR_MIN_SIZE); /*Style-defined size, calcul
 544:Drivers/lvgl/src/core/lv_obj_scroll.c ****         sb_h = LV_MIN(sb_h, obj_h); /*Limit scrollbar length to parent height*/
 545:Drivers/lvgl/src/core/lv_obj_scroll.c ****         rem = (obj_h - top_space - bottom_space - hor_req_space) -
 546:Drivers/lvgl/src/core/lv_obj_scroll.c ****               sb_h;  /*Remaining size from the scrollbar track that is not the scrollbar itself*/
 547:Drivers/lvgl/src/core/lv_obj_scroll.c ****         int32_t scroll_h = content_h - obj_h; /*The size of the content which can be really scrolle
 548:Drivers/lvgl/src/core/lv_obj_scroll.c ****         if(scroll_h <= 0) {
 549:Drivers/lvgl/src/core/lv_obj_scroll.c ****             ver_area->y1 = obj->coords.y1 + top_space;
 550:Drivers/lvgl/src/core/lv_obj_scroll.c ****             ver_area->y2 = obj->coords.y2 - bottom_space - hor_req_space - 1;
ARM GAS  /tmp/ccmLrI5c.s 			page 31


 551:Drivers/lvgl/src/core/lv_obj_scroll.c ****         }
 552:Drivers/lvgl/src/core/lv_obj_scroll.c ****         else {
 553:Drivers/lvgl/src/core/lv_obj_scroll.c ****             int32_t sb_y = (rem * sb) / scroll_h;
 554:Drivers/lvgl/src/core/lv_obj_scroll.c ****             sb_y = rem - sb_y;
 555:Drivers/lvgl/src/core/lv_obj_scroll.c **** 
 556:Drivers/lvgl/src/core/lv_obj_scroll.c ****             ver_area->y1 = obj->coords.y1 + sb_y + top_space;
 557:Drivers/lvgl/src/core/lv_obj_scroll.c ****             ver_area->y2 = ver_area->y1 + sb_h - 1;
 558:Drivers/lvgl/src/core/lv_obj_scroll.c ****             if(ver_area->y1 < obj->coords.y1 + top_space) {
 559:Drivers/lvgl/src/core/lv_obj_scroll.c ****                 ver_area->y1 = obj->coords.y1 + top_space;
 560:Drivers/lvgl/src/core/lv_obj_scroll.c ****                 if(ver_area->y1 + SCROLLBAR_MIN_SIZE > ver_area->y2) {
 561:Drivers/lvgl/src/core/lv_obj_scroll.c ****                     ver_area->y2 = ver_area->y1 + SCROLLBAR_MIN_SIZE;
 562:Drivers/lvgl/src/core/lv_obj_scroll.c ****                 }
 563:Drivers/lvgl/src/core/lv_obj_scroll.c ****             }
 564:Drivers/lvgl/src/core/lv_obj_scroll.c ****             if(ver_area->y2 > obj->coords.y2 - hor_req_space - bottom_space) {
 565:Drivers/lvgl/src/core/lv_obj_scroll.c ****                 ver_area->y2 = obj->coords.y2 - hor_req_space - bottom_space;
 566:Drivers/lvgl/src/core/lv_obj_scroll.c ****                 if(ver_area->y2 - SCROLLBAR_MIN_SIZE < ver_area->y1) {
 567:Drivers/lvgl/src/core/lv_obj_scroll.c ****                     ver_area->y1 = ver_area->y2 - SCROLLBAR_MIN_SIZE;
 568:Drivers/lvgl/src/core/lv_obj_scroll.c ****                 }
 569:Drivers/lvgl/src/core/lv_obj_scroll.c ****             }
 570:Drivers/lvgl/src/core/lv_obj_scroll.c ****         }
 571:Drivers/lvgl/src/core/lv_obj_scroll.c ****     }
 572:Drivers/lvgl/src/core/lv_obj_scroll.c **** 
 573:Drivers/lvgl/src/core/lv_obj_scroll.c ****     /*Draw horizontal scrollbar if the mode is ON or can be scrolled in this direction*/
 574:Drivers/lvgl/src/core/lv_obj_scroll.c ****     int32_t content_w = obj_w + sl + sr;
 575:Drivers/lvgl/src/core/lv_obj_scroll.c ****     if(hor_draw && content_w) {
 576:Drivers/lvgl/src/core/lv_obj_scroll.c ****         hor_area->y2 = obj->coords.y2 - bottom_space;
 577:Drivers/lvgl/src/core/lv_obj_scroll.c ****         hor_area->y1 = hor_area->y2 - thickness + 1;
 578:Drivers/lvgl/src/core/lv_obj_scroll.c ****         hor_area->x1 = obj->coords.x1;
 579:Drivers/lvgl/src/core/lv_obj_scroll.c ****         hor_area->x2 = obj->coords.x2;
 580:Drivers/lvgl/src/core/lv_obj_scroll.c **** 
 581:Drivers/lvgl/src/core/lv_obj_scroll.c ****         int32_t sb_w = ((obj_w - left_space - right_space - ver_reg_space) * obj_w) / content_w;
 582:Drivers/lvgl/src/core/lv_obj_scroll.c ****         sb_w = LV_MAX(length > 0 ? length : sb_w, SCROLLBAR_MIN_SIZE); /*Style-defined size, calcul
 583:Drivers/lvgl/src/core/lv_obj_scroll.c ****         sb_w = LV_MIN(sb_w, obj_w); /*Limit scrollbar length to parent width*/
 584:Drivers/lvgl/src/core/lv_obj_scroll.c ****         rem = (obj_w - left_space - right_space - ver_reg_space) -
 585:Drivers/lvgl/src/core/lv_obj_scroll.c ****               sb_w;  /*Remaining size from the scrollbar track that is not the scrollbar itself*/
 586:Drivers/lvgl/src/core/lv_obj_scroll.c ****         int32_t scroll_w = content_w - obj_w; /*The size of the content which can be really scrolle
 587:Drivers/lvgl/src/core/lv_obj_scroll.c ****         if(scroll_w <= 0) {
 588:Drivers/lvgl/src/core/lv_obj_scroll.c ****             if(rtl) {
 589:Drivers/lvgl/src/core/lv_obj_scroll.c ****                 hor_area->x1 = obj->coords.x1 + left_space + ver_reg_space - 1;
 590:Drivers/lvgl/src/core/lv_obj_scroll.c ****                 hor_area->x2 = obj->coords.x2 - right_space;
 591:Drivers/lvgl/src/core/lv_obj_scroll.c ****             }
 592:Drivers/lvgl/src/core/lv_obj_scroll.c ****             else {
 593:Drivers/lvgl/src/core/lv_obj_scroll.c ****                 hor_area->x1 = obj->coords.x1 + left_space;
 594:Drivers/lvgl/src/core/lv_obj_scroll.c ****                 hor_area->x2 = obj->coords.x2 - right_space - ver_reg_space - 1;
 595:Drivers/lvgl/src/core/lv_obj_scroll.c ****             }
 596:Drivers/lvgl/src/core/lv_obj_scroll.c ****         }
 597:Drivers/lvgl/src/core/lv_obj_scroll.c ****         else {
 598:Drivers/lvgl/src/core/lv_obj_scroll.c ****             int32_t sb_x = (rem * sr) / scroll_w;
 599:Drivers/lvgl/src/core/lv_obj_scroll.c ****             sb_x = rem - sb_x;
 600:Drivers/lvgl/src/core/lv_obj_scroll.c **** 
 601:Drivers/lvgl/src/core/lv_obj_scroll.c ****             if(rtl) {
 602:Drivers/lvgl/src/core/lv_obj_scroll.c ****                 hor_area->x1 = obj->coords.x1 + sb_x + left_space + ver_reg_space;
 603:Drivers/lvgl/src/core/lv_obj_scroll.c ****                 hor_area->x2 = hor_area->x1 + sb_w - 1;
 604:Drivers/lvgl/src/core/lv_obj_scroll.c ****                 if(hor_area->x1 < obj->coords.x1 + left_space + ver_reg_space) {
 605:Drivers/lvgl/src/core/lv_obj_scroll.c ****                     hor_area->x1 = obj->coords.x1 + left_space + ver_reg_space;
 606:Drivers/lvgl/src/core/lv_obj_scroll.c ****                     if(hor_area->x1 + SCROLLBAR_MIN_SIZE > hor_area->x2) {
 607:Drivers/lvgl/src/core/lv_obj_scroll.c ****                         hor_area->x2 = hor_area->x1 + SCROLLBAR_MIN_SIZE;
ARM GAS  /tmp/ccmLrI5c.s 			page 32


 608:Drivers/lvgl/src/core/lv_obj_scroll.c ****                     }
 609:Drivers/lvgl/src/core/lv_obj_scroll.c ****                 }
 610:Drivers/lvgl/src/core/lv_obj_scroll.c ****                 if(hor_area->x2 > obj->coords.x2 - right_space) {
 611:Drivers/lvgl/src/core/lv_obj_scroll.c ****                     hor_area->x2 = obj->coords.x2 - right_space;
 612:Drivers/lvgl/src/core/lv_obj_scroll.c ****                     if(hor_area->x2 - SCROLLBAR_MIN_SIZE < hor_area->x1) {
 613:Drivers/lvgl/src/core/lv_obj_scroll.c ****                         hor_area->x1 = hor_area->x2 - SCROLLBAR_MIN_SIZE;
 614:Drivers/lvgl/src/core/lv_obj_scroll.c ****                     }
 615:Drivers/lvgl/src/core/lv_obj_scroll.c ****                 }
 616:Drivers/lvgl/src/core/lv_obj_scroll.c ****             }
 617:Drivers/lvgl/src/core/lv_obj_scroll.c ****             else {
 618:Drivers/lvgl/src/core/lv_obj_scroll.c ****                 hor_area->x1 = obj->coords.x1 + sb_x + left_space;
 619:Drivers/lvgl/src/core/lv_obj_scroll.c ****                 hor_area->x2 = hor_area->x1 + sb_w - 1;
 620:Drivers/lvgl/src/core/lv_obj_scroll.c ****                 if(hor_area->x1 < obj->coords.x1 + left_space) {
 621:Drivers/lvgl/src/core/lv_obj_scroll.c ****                     hor_area->x1 = obj->coords.x1 + left_space;
 622:Drivers/lvgl/src/core/lv_obj_scroll.c ****                     if(hor_area->x1 + SCROLLBAR_MIN_SIZE > hor_area->x2) {
 623:Drivers/lvgl/src/core/lv_obj_scroll.c ****                         hor_area->x2 = hor_area->x1 + SCROLLBAR_MIN_SIZE;
 624:Drivers/lvgl/src/core/lv_obj_scroll.c ****                     }
 625:Drivers/lvgl/src/core/lv_obj_scroll.c ****                 }
 626:Drivers/lvgl/src/core/lv_obj_scroll.c ****                 if(hor_area->x2 > obj->coords.x2 - ver_reg_space - right_space) {
 627:Drivers/lvgl/src/core/lv_obj_scroll.c ****                     hor_area->x2 = obj->coords.x2 - ver_reg_space - right_space;
 628:Drivers/lvgl/src/core/lv_obj_scroll.c ****                     if(hor_area->x2 - SCROLLBAR_MIN_SIZE < hor_area->x1) {
 629:Drivers/lvgl/src/core/lv_obj_scroll.c ****                         hor_area->x1 = hor_area->x2 - SCROLLBAR_MIN_SIZE;
 630:Drivers/lvgl/src/core/lv_obj_scroll.c ****                     }
 631:Drivers/lvgl/src/core/lv_obj_scroll.c ****                 }
 632:Drivers/lvgl/src/core/lv_obj_scroll.c ****             }
 633:Drivers/lvgl/src/core/lv_obj_scroll.c ****         }
 634:Drivers/lvgl/src/core/lv_obj_scroll.c ****     }
 635:Drivers/lvgl/src/core/lv_obj_scroll.c **** }
 636:Drivers/lvgl/src/core/lv_obj_scroll.c **** 
 637:Drivers/lvgl/src/core/lv_obj_scroll.c **** void lv_obj_scrollbar_invalidate(lv_obj_t * obj)
 638:Drivers/lvgl/src/core/lv_obj_scroll.c **** {
 639:Drivers/lvgl/src/core/lv_obj_scroll.c ****     lv_area_t hor_area;
 640:Drivers/lvgl/src/core/lv_obj_scroll.c ****     lv_area_t ver_area;
 641:Drivers/lvgl/src/core/lv_obj_scroll.c ****     lv_obj_get_scrollbar_area(obj, &hor_area, &ver_area);
 642:Drivers/lvgl/src/core/lv_obj_scroll.c **** 
 643:Drivers/lvgl/src/core/lv_obj_scroll.c ****     if(lv_area_get_size(&hor_area) <= 0 && lv_area_get_size(&ver_area) <= 0) return;
 644:Drivers/lvgl/src/core/lv_obj_scroll.c **** 
 645:Drivers/lvgl/src/core/lv_obj_scroll.c ****     if(lv_area_get_size(&hor_area) > 0) lv_obj_invalidate_area(obj, &hor_area);
 646:Drivers/lvgl/src/core/lv_obj_scroll.c ****     if(lv_area_get_size(&ver_area) > 0) lv_obj_invalidate_area(obj, &ver_area);
 647:Drivers/lvgl/src/core/lv_obj_scroll.c **** }
 648:Drivers/lvgl/src/core/lv_obj_scroll.c **** 
 649:Drivers/lvgl/src/core/lv_obj_scroll.c **** void lv_obj_readjust_scroll(lv_obj_t * obj, lv_anim_enable_t anim_en)
 650:Drivers/lvgl/src/core/lv_obj_scroll.c **** {
 651:Drivers/lvgl/src/core/lv_obj_scroll.c ****     /*Be sure the bottom side is not remains scrolled in*/
 652:Drivers/lvgl/src/core/lv_obj_scroll.c ****     /*With snapping the content can't be scrolled in*/
 653:Drivers/lvgl/src/core/lv_obj_scroll.c ****     if(lv_obj_get_scroll_snap_y(obj) == LV_SCROLL_SNAP_NONE) {
 654:Drivers/lvgl/src/core/lv_obj_scroll.c ****         int32_t st = lv_obj_get_scroll_top(obj);
 655:Drivers/lvgl/src/core/lv_obj_scroll.c ****         int32_t sb = lv_obj_get_scroll_bottom(obj);
 656:Drivers/lvgl/src/core/lv_obj_scroll.c ****         if(sb < 0 && st > 0) {
 657:Drivers/lvgl/src/core/lv_obj_scroll.c ****             sb = LV_MIN(st, -sb);
 658:Drivers/lvgl/src/core/lv_obj_scroll.c ****             lv_obj_scroll_by(obj, 0, sb, anim_en);
 659:Drivers/lvgl/src/core/lv_obj_scroll.c ****         }
 660:Drivers/lvgl/src/core/lv_obj_scroll.c ****     }
 661:Drivers/lvgl/src/core/lv_obj_scroll.c **** 
 662:Drivers/lvgl/src/core/lv_obj_scroll.c ****     if(lv_obj_get_scroll_snap_x(obj) == LV_SCROLL_SNAP_NONE) {
 663:Drivers/lvgl/src/core/lv_obj_scroll.c ****         int32_t sl = lv_obj_get_scroll_left(obj);
 664:Drivers/lvgl/src/core/lv_obj_scroll.c ****         int32_t sr = lv_obj_get_scroll_right(obj);
ARM GAS  /tmp/ccmLrI5c.s 			page 33


 665:Drivers/lvgl/src/core/lv_obj_scroll.c ****         if(lv_obj_get_style_base_dir(obj, LV_PART_MAIN) != LV_BASE_DIR_RTL) {
 666:Drivers/lvgl/src/core/lv_obj_scroll.c ****             /*Be sure the left side is not remains scrolled in*/
 667:Drivers/lvgl/src/core/lv_obj_scroll.c ****             if(sr < 0 && sl > 0) {
 668:Drivers/lvgl/src/core/lv_obj_scroll.c ****                 sr = LV_MIN(sl, -sr);
 669:Drivers/lvgl/src/core/lv_obj_scroll.c ****                 lv_obj_scroll_by(obj, sr, 0, anim_en);
 670:Drivers/lvgl/src/core/lv_obj_scroll.c ****             }
 671:Drivers/lvgl/src/core/lv_obj_scroll.c ****         }
 672:Drivers/lvgl/src/core/lv_obj_scroll.c ****         else {
 673:Drivers/lvgl/src/core/lv_obj_scroll.c ****             /*Be sure the right side is not remains scrolled in*/
 674:Drivers/lvgl/src/core/lv_obj_scroll.c ****             if(sl < 0 && sr > 0) {
 675:Drivers/lvgl/src/core/lv_obj_scroll.c ****                 sr = LV_MIN(sr, -sl);
 676:Drivers/lvgl/src/core/lv_obj_scroll.c ****                 lv_obj_scroll_by(obj, sl, 0, anim_en);
 677:Drivers/lvgl/src/core/lv_obj_scroll.c ****             }
 678:Drivers/lvgl/src/core/lv_obj_scroll.c ****         }
 679:Drivers/lvgl/src/core/lv_obj_scroll.c ****     }
 680:Drivers/lvgl/src/core/lv_obj_scroll.c **** }
 681:Drivers/lvgl/src/core/lv_obj_scroll.c **** 
 682:Drivers/lvgl/src/core/lv_obj_scroll.c **** /**********************
 683:Drivers/lvgl/src/core/lv_obj_scroll.c ****  *   STATIC FUNCTIONS
 684:Drivers/lvgl/src/core/lv_obj_scroll.c ****  **********************/
 685:Drivers/lvgl/src/core/lv_obj_scroll.c **** 
 686:Drivers/lvgl/src/core/lv_obj_scroll.c **** static void scroll_x_anim(void * obj, int32_t v)
 687:Drivers/lvgl/src/core/lv_obj_scroll.c **** {
 688:Drivers/lvgl/src/core/lv_obj_scroll.c ****     lv_obj_scroll_by_raw(obj, v + lv_obj_get_scroll_x(obj), 0);
 689:Drivers/lvgl/src/core/lv_obj_scroll.c **** }
 690:Drivers/lvgl/src/core/lv_obj_scroll.c **** 
 691:Drivers/lvgl/src/core/lv_obj_scroll.c **** static void scroll_y_anim(void * obj, int32_t v)
 692:Drivers/lvgl/src/core/lv_obj_scroll.c **** {
 693:Drivers/lvgl/src/core/lv_obj_scroll.c ****     lv_obj_scroll_by_raw(obj, 0, v + lv_obj_get_scroll_y(obj));
 694:Drivers/lvgl/src/core/lv_obj_scroll.c **** }
 695:Drivers/lvgl/src/core/lv_obj_scroll.c **** 
 696:Drivers/lvgl/src/core/lv_obj_scroll.c **** static void scroll_end_cb(lv_anim_t * a)
 697:Drivers/lvgl/src/core/lv_obj_scroll.c **** {
 463              		.loc 1 697 1 is_stmt 1 view -0
 464              		.cfi_startproc
 465              		@ args = 0, pretend = 0, frame = 0
 466              		@ frame_needed = 0, uses_anonymous_args = 0
 467              		.loc 1 697 1 is_stmt 0 view .LVU118
 468 0000 08B5     		push	{r3, lr}
 469              	.LCFI12:
 470              		.cfi_def_cfa_offset 8
 471              		.cfi_offset 3, -8
 472              		.cfi_offset 14, -4
 698:Drivers/lvgl/src/core/lv_obj_scroll.c ****     /*Do not sent END event if there wasn't a BEGIN*/
 699:Drivers/lvgl/src/core/lv_obj_scroll.c ****     if(a->start_cb_called) lv_obj_send_event(a->var, LV_EVENT_SCROLL_END, NULL);
 473              		.loc 1 699 5 is_stmt 1 view .LVU119
 474              		.loc 1 699 8 is_stmt 0 view .LVU120
 475 0002 90F85C30 		ldrb	r3, [r0, #92]	@ zero_extendqisi2
 476              		.loc 1 699 7 view .LVU121
 477 0006 13F0080F 		tst	r3, #8
 478 000a 00D1     		bne	.L15
 479              	.LVL45:
 480              	.L12:
 700:Drivers/lvgl/src/core/lv_obj_scroll.c **** }
 481              		.loc 1 700 1 view .LVU122
 482 000c 08BD     		pop	{r3, pc}
 483              	.LVL46:
ARM GAS  /tmp/ccmLrI5c.s 			page 34


 484              	.L15:
 699:Drivers/lvgl/src/core/lv_obj_scroll.c **** }
 485              		.loc 1 699 28 is_stmt 1 discriminator 1 view .LVU123
 486 000e 0022     		movs	r2, #0
 487 0010 0E21     		movs	r1, #14
 488 0012 0068     		ldr	r0, [r0]
 489              	.LVL47:
 699:Drivers/lvgl/src/core/lv_obj_scroll.c **** }
 490              		.loc 1 699 28 is_stmt 0 discriminator 1 view .LVU124
 491 0014 FFF7FEFF 		bl	lv_obj_send_event
 492              	.LVL48:
 493              		.loc 1 700 1 view .LVU125
 494 0018 F8E7     		b	.L12
 495              		.cfi_endproc
 496              	.LFE202:
 498              		.section	.text.lv_obj_set_scrollbar_mode,"ax",%progbits
 499              		.align	1
 500              		.global	lv_obj_set_scrollbar_mode
 501              		.syntax unified
 502              		.thumb
 503              		.thumb_func
 505              	lv_obj_set_scrollbar_mode:
 506              	.LVL49:
 507              	.LFB171:
  59:Drivers/lvgl/src/core/lv_obj_scroll.c ****     LV_ASSERT_OBJ(obj, MY_CLASS);
 508              		.loc 1 59 1 is_stmt 1 view -0
 509              		.cfi_startproc
 510              		@ args = 0, pretend = 0, frame = 0
 511              		@ frame_needed = 0, uses_anonymous_args = 0
  60:Drivers/lvgl/src/core/lv_obj_scroll.c **** 
 512              		.loc 1 60 5 view .LVU127
  60:Drivers/lvgl/src/core/lv_obj_scroll.c **** 
 513              		.loc 1 60 5 view .LVU128
 514 0000 A8B1     		cbz	r0, .L18
  59:Drivers/lvgl/src/core/lv_obj_scroll.c ****     LV_ASSERT_OBJ(obj, MY_CLASS);
 515              		.loc 1 59 1 is_stmt 0 view .LVU129
 516 0002 38B5     		push	{r3, r4, r5, lr}
 517              	.LCFI13:
 518              		.cfi_def_cfa_offset 16
 519              		.cfi_offset 3, -16
 520              		.cfi_offset 4, -12
 521              		.cfi_offset 5, -8
 522              		.cfi_offset 14, -4
 523 0004 0C46     		mov	r4, r1
 524 0006 0546     		mov	r5, r0
  60:Drivers/lvgl/src/core/lv_obj_scroll.c **** 
 525              		.loc 1 60 5 is_stmt 1 discriminator 2 view .LVU130
  60:Drivers/lvgl/src/core/lv_obj_scroll.c **** 
 526              		.loc 1 60 33 discriminator 2 view .LVU131
  62:Drivers/lvgl/src/core/lv_obj_scroll.c **** 
 527              		.loc 1 62 5 view .LVU132
 528 0008 FFF7FEFF 		bl	lv_obj_allocate_spec_attr
 529              	.LVL50:
  64:Drivers/lvgl/src/core/lv_obj_scroll.c ****     obj->spec_attr->scrollbar_mode = mode;
 530              		.loc 1 64 5 view .LVU133
  64:Drivers/lvgl/src/core/lv_obj_scroll.c ****     obj->spec_attr->scrollbar_mode = mode;
 531              		.loc 1 64 11 is_stmt 0 view .LVU134
ARM GAS  /tmp/ccmLrI5c.s 			page 35


 532 000c AA68     		ldr	r2, [r5, #8]
  64:Drivers/lvgl/src/core/lv_obj_scroll.c ****     obj->spec_attr->scrollbar_mode = mode;
 533              		.loc 1 64 22 view .LVU135
 534 000e 92F83230 		ldrb	r3, [r2, #50]	@ zero_extendqisi2
 535 0012 03F00303 		and	r3, r3, #3
  64:Drivers/lvgl/src/core/lv_obj_scroll.c ****     obj->spec_attr->scrollbar_mode = mode;
 536              		.loc 1 64 7 view .LVU136
 537 0016 A342     		cmp	r3, r4
 538 0018 08D0     		beq	.L16
  65:Drivers/lvgl/src/core/lv_obj_scroll.c ****     lv_obj_invalidate(obj);
 539              		.loc 1 65 5 is_stmt 1 view .LVU137
  65:Drivers/lvgl/src/core/lv_obj_scroll.c ****     lv_obj_invalidate(obj);
 540              		.loc 1 65 36 is_stmt 0 view .LVU138
 541 001a 92F83230 		ldrb	r3, [r2, #50]	@ zero_extendqisi2
 542 001e 64F30103 		bfi	r3, r4, #0, #2
 543 0022 82F83230 		strb	r3, [r2, #50]
  66:Drivers/lvgl/src/core/lv_obj_scroll.c **** }
 544              		.loc 1 66 5 is_stmt 1 view .LVU139
 545 0026 2846     		mov	r0, r5
 546 0028 FFF7FEFF 		bl	lv_obj_invalidate
 547              	.LVL51:
 548              	.L16:
  67:Drivers/lvgl/src/core/lv_obj_scroll.c **** 
 549              		.loc 1 67 1 is_stmt 0 view .LVU140
 550 002c 38BD     		pop	{r3, r4, r5, pc}
 551              	.LVL52:
 552              	.L18:
 553              	.LCFI14:
 554              		.cfi_def_cfa_offset 0
 555              		.cfi_restore 3
 556              		.cfi_restore 4
 557              		.cfi_restore 5
 558              		.cfi_restore 14
  60:Drivers/lvgl/src/core/lv_obj_scroll.c **** 
 559              		.loc 1 60 5 is_stmt 1 discriminator 1 view .LVU141
  60:Drivers/lvgl/src/core/lv_obj_scroll.c **** 
 560              		.loc 1 60 5 discriminator 1 view .LVU142
  60:Drivers/lvgl/src/core/lv_obj_scroll.c **** 
 561              		.loc 1 60 5 discriminator 1 view .LVU143
  60:Drivers/lvgl/src/core/lv_obj_scroll.c **** 
 562              		.loc 1 60 5 discriminator 1 view .LVU144
  60:Drivers/lvgl/src/core/lv_obj_scroll.c **** 
 563              		.loc 1 60 5 discriminator 1 view .LVU145
 564 002e FEE7     		b	.L18
 565              		.cfi_endproc
 566              	.LFE171:
 568              		.section	.text.lv_obj_set_scroll_dir,"ax",%progbits
 569              		.align	1
 570              		.global	lv_obj_set_scroll_dir
 571              		.syntax unified
 572              		.thumb
 573              		.thumb_func
 575              	lv_obj_set_scroll_dir:
 576              	.LVL53:
 577              	.LFB172:
  70:Drivers/lvgl/src/core/lv_obj_scroll.c ****     lv_obj_allocate_spec_attr(obj);
 578              		.loc 1 70 1 view -0
ARM GAS  /tmp/ccmLrI5c.s 			page 36


 579              		.cfi_startproc
 580              		@ args = 0, pretend = 0, frame = 0
 581              		@ frame_needed = 0, uses_anonymous_args = 0
  70:Drivers/lvgl/src/core/lv_obj_scroll.c ****     lv_obj_allocate_spec_attr(obj);
 582              		.loc 1 70 1 is_stmt 0 view .LVU147
 583 0000 38B5     		push	{r3, r4, r5, lr}
 584              	.LCFI15:
 585              		.cfi_def_cfa_offset 16
 586              		.cfi_offset 3, -16
 587              		.cfi_offset 4, -12
 588              		.cfi_offset 5, -8
 589              		.cfi_offset 14, -4
 590 0002 0546     		mov	r5, r0
 591 0004 0C46     		mov	r4, r1
  71:Drivers/lvgl/src/core/lv_obj_scroll.c **** 
 592              		.loc 1 71 5 is_stmt 1 view .LVU148
 593 0006 FFF7FEFF 		bl	lv_obj_allocate_spec_attr
 594              	.LVL54:
  73:Drivers/lvgl/src/core/lv_obj_scroll.c ****         obj->spec_attr->scroll_dir = dir;
 595              		.loc 1 73 5 view .LVU149
  73:Drivers/lvgl/src/core/lv_obj_scroll.c ****         obj->spec_attr->scroll_dir = dir;
 596              		.loc 1 73 18 is_stmt 0 view .LVU150
 597 000a AA68     		ldr	r2, [r5, #8]
  73:Drivers/lvgl/src/core/lv_obj_scroll.c ****         obj->spec_attr->scroll_dir = dir;
 598              		.loc 1 73 29 view .LVU151
 599 000c 538E     		ldrh	r3, [r2, #50]
 600 000e C3F38313 		ubfx	r3, r3, #6, #4
  73:Drivers/lvgl/src/core/lv_obj_scroll.c ****         obj->spec_attr->scroll_dir = dir;
 601              		.loc 1 73 7 view .LVU152
 602 0012 A342     		cmp	r3, r4
 603 0014 03D0     		beq	.L22
  74:Drivers/lvgl/src/core/lv_obj_scroll.c ****     }
 604              		.loc 1 74 9 is_stmt 1 view .LVU153
  74:Drivers/lvgl/src/core/lv_obj_scroll.c ****     }
 605              		.loc 1 74 36 is_stmt 0 view .LVU154
 606 0016 538E     		ldrh	r3, [r2, #50]
 607 0018 64F38913 		bfi	r3, r4, #6, #4
 608              	.LVL55:
  74:Drivers/lvgl/src/core/lv_obj_scroll.c ****     }
 609              		.loc 1 74 36 view .LVU155
 610 001c 5386     		strh	r3, [r2, #50]	@ movhi
 611              	.L22:
  76:Drivers/lvgl/src/core/lv_obj_scroll.c **** 
 612              		.loc 1 76 1 view .LVU156
 613 001e 38BD     		pop	{r3, r4, r5, pc}
  76:Drivers/lvgl/src/core/lv_obj_scroll.c **** 
 614              		.loc 1 76 1 view .LVU157
 615              		.cfi_endproc
 616              	.LFE172:
 618              		.section	.text.lv_obj_set_scroll_snap_x,"ax",%progbits
 619              		.align	1
 620              		.global	lv_obj_set_scroll_snap_x
 621              		.syntax unified
 622              		.thumb
 623              		.thumb_func
 625              	lv_obj_set_scroll_snap_x:
 626              	.LVL56:
ARM GAS  /tmp/ccmLrI5c.s 			page 37


 627              	.LFB173:
  79:Drivers/lvgl/src/core/lv_obj_scroll.c ****     lv_obj_allocate_spec_attr(obj);
 628              		.loc 1 79 1 is_stmt 1 view -0
 629              		.cfi_startproc
 630              		@ args = 0, pretend = 0, frame = 0
 631              		@ frame_needed = 0, uses_anonymous_args = 0
  79:Drivers/lvgl/src/core/lv_obj_scroll.c ****     lv_obj_allocate_spec_attr(obj);
 632              		.loc 1 79 1 is_stmt 0 view .LVU159
 633 0000 38B5     		push	{r3, r4, r5, lr}
 634              	.LCFI16:
 635              		.cfi_def_cfa_offset 16
 636              		.cfi_offset 3, -16
 637              		.cfi_offset 4, -12
 638              		.cfi_offset 5, -8
 639              		.cfi_offset 14, -4
 640 0002 0546     		mov	r5, r0
 641 0004 0C46     		mov	r4, r1
  80:Drivers/lvgl/src/core/lv_obj_scroll.c ****     obj->spec_attr->scroll_snap_x = align;
 642              		.loc 1 80 5 is_stmt 1 view .LVU160
 643 0006 FFF7FEFF 		bl	lv_obj_allocate_spec_attr
 644              	.LVL57:
  81:Drivers/lvgl/src/core/lv_obj_scroll.c **** }
 645              		.loc 1 81 5 view .LVU161
  81:Drivers/lvgl/src/core/lv_obj_scroll.c **** }
 646              		.loc 1 81 8 is_stmt 0 view .LVU162
 647 000a AB68     		ldr	r3, [r5, #8]
  81:Drivers/lvgl/src/core/lv_obj_scroll.c **** }
 648              		.loc 1 81 35 view .LVU163
 649 000c 93F83220 		ldrb	r2, [r3, #50]	@ zero_extendqisi2
 650 0010 64F38302 		bfi	r2, r4, #2, #2
 651 0014 83F83220 		strb	r2, [r3, #50]
  82:Drivers/lvgl/src/core/lv_obj_scroll.c **** 
 652              		.loc 1 82 1 view .LVU164
 653 0018 38BD     		pop	{r3, r4, r5, pc}
  82:Drivers/lvgl/src/core/lv_obj_scroll.c **** 
 654              		.loc 1 82 1 view .LVU165
 655              		.cfi_endproc
 656              	.LFE173:
 658              		.section	.text.lv_obj_set_scroll_snap_y,"ax",%progbits
 659              		.align	1
 660              		.global	lv_obj_set_scroll_snap_y
 661              		.syntax unified
 662              		.thumb
 663              		.thumb_func
 665              	lv_obj_set_scroll_snap_y:
 666              	.LVL58:
 667              	.LFB174:
  85:Drivers/lvgl/src/core/lv_obj_scroll.c ****     lv_obj_allocate_spec_attr(obj);
 668              		.loc 1 85 1 is_stmt 1 view -0
 669              		.cfi_startproc
 670              		@ args = 0, pretend = 0, frame = 0
 671              		@ frame_needed = 0, uses_anonymous_args = 0
  85:Drivers/lvgl/src/core/lv_obj_scroll.c ****     lv_obj_allocate_spec_attr(obj);
 672              		.loc 1 85 1 is_stmt 0 view .LVU167
 673 0000 38B5     		push	{r3, r4, r5, lr}
 674              	.LCFI17:
 675              		.cfi_def_cfa_offset 16
ARM GAS  /tmp/ccmLrI5c.s 			page 38


 676              		.cfi_offset 3, -16
 677              		.cfi_offset 4, -12
 678              		.cfi_offset 5, -8
 679              		.cfi_offset 14, -4
 680 0002 0546     		mov	r5, r0
 681 0004 0C46     		mov	r4, r1
  86:Drivers/lvgl/src/core/lv_obj_scroll.c ****     obj->spec_attr->scroll_snap_y = align;
 682              		.loc 1 86 5 is_stmt 1 view .LVU168
 683 0006 FFF7FEFF 		bl	lv_obj_allocate_spec_attr
 684              	.LVL59:
  87:Drivers/lvgl/src/core/lv_obj_scroll.c **** }
 685              		.loc 1 87 5 view .LVU169
  87:Drivers/lvgl/src/core/lv_obj_scroll.c **** }
 686              		.loc 1 87 8 is_stmt 0 view .LVU170
 687 000a AB68     		ldr	r3, [r5, #8]
  87:Drivers/lvgl/src/core/lv_obj_scroll.c **** }
 688              		.loc 1 87 35 view .LVU171
 689 000c 93F83220 		ldrb	r2, [r3, #50]	@ zero_extendqisi2
 690 0010 64F30512 		bfi	r2, r4, #4, #2
 691 0014 83F83220 		strb	r2, [r3, #50]
  88:Drivers/lvgl/src/core/lv_obj_scroll.c **** 
 692              		.loc 1 88 1 view .LVU172
 693 0018 38BD     		pop	{r3, r4, r5, pc}
  88:Drivers/lvgl/src/core/lv_obj_scroll.c **** 
 694              		.loc 1 88 1 view .LVU173
 695              		.cfi_endproc
 696              	.LFE174:
 698              		.section	.text.lv_obj_get_scrollbar_mode,"ax",%progbits
 699              		.align	1
 700              		.global	lv_obj_get_scrollbar_mode
 701              		.syntax unified
 702              		.thumb
 703              		.thumb_func
 705              	lv_obj_get_scrollbar_mode:
 706              	.LVL60:
 707              	.LFB175:
  95:Drivers/lvgl/src/core/lv_obj_scroll.c ****     if(obj->spec_attr) return (lv_scrollbar_mode_t) obj->spec_attr->scrollbar_mode;
 708              		.loc 1 95 1 is_stmt 1 view -0
 709              		.cfi_startproc
 710              		@ args = 0, pretend = 0, frame = 0
 711              		@ frame_needed = 0, uses_anonymous_args = 0
 712              		@ link register save eliminated.
  96:Drivers/lvgl/src/core/lv_obj_scroll.c ****     else return LV_SCROLLBAR_MODE_AUTO;
 713              		.loc 1 96 5 view .LVU175
  96:Drivers/lvgl/src/core/lv_obj_scroll.c ****     else return LV_SCROLLBAR_MODE_AUTO;
 714              		.loc 1 96 11 is_stmt 0 view .LVU176
 715 0000 8368     		ldr	r3, [r0, #8]
  96:Drivers/lvgl/src/core/lv_obj_scroll.c ****     else return LV_SCROLLBAR_MODE_AUTO;
 716              		.loc 1 96 7 view .LVU177
 717 0002 23B1     		cbz	r3, .L31
  96:Drivers/lvgl/src/core/lv_obj_scroll.c ****     else return LV_SCROLLBAR_MODE_AUTO;
 718              		.loc 1 96 24 is_stmt 1 discriminator 1 view .LVU178
  96:Drivers/lvgl/src/core/lv_obj_scroll.c ****     else return LV_SCROLLBAR_MODE_AUTO;
 719              		.loc 1 96 67 is_stmt 0 discriminator 1 view .LVU179
 720 0004 93F83200 		ldrb	r0, [r3, #50]	@ zero_extendqisi2
 721              	.LVL61:
  96:Drivers/lvgl/src/core/lv_obj_scroll.c ****     else return LV_SCROLLBAR_MODE_AUTO;
ARM GAS  /tmp/ccmLrI5c.s 			page 39


 722              		.loc 1 96 67 discriminator 1 view .LVU180
 723 0008 00F00300 		and	r0, r0, #3
  96:Drivers/lvgl/src/core/lv_obj_scroll.c ****     else return LV_SCROLLBAR_MODE_AUTO;
 724              		.loc 1 96 31 view .LVU181
 725 000c 7047     		bx	lr
 726              	.LVL62:
 727              	.L31:
  97:Drivers/lvgl/src/core/lv_obj_scroll.c **** }
 728              		.loc 1 97 17 view .LVU182
 729 000e 0320     		movs	r0, #3
 730              	.LVL63:
  98:Drivers/lvgl/src/core/lv_obj_scroll.c **** 
 731              		.loc 1 98 1 view .LVU183
 732 0010 7047     		bx	lr
 733              		.cfi_endproc
 734              	.LFE175:
 736              		.section	.text.lv_obj_get_scroll_dir,"ax",%progbits
 737              		.align	1
 738              		.global	lv_obj_get_scroll_dir
 739              		.syntax unified
 740              		.thumb
 741              		.thumb_func
 743              	lv_obj_get_scroll_dir:
 744              	.LVL64:
 745              	.LFB176:
 101:Drivers/lvgl/src/core/lv_obj_scroll.c ****     if(obj->spec_attr) return (lv_dir_t) obj->spec_attr->scroll_dir;
 746              		.loc 1 101 1 is_stmt 1 view -0
 747              		.cfi_startproc
 748              		@ args = 0, pretend = 0, frame = 0
 749              		@ frame_needed = 0, uses_anonymous_args = 0
 750              		@ link register save eliminated.
 102:Drivers/lvgl/src/core/lv_obj_scroll.c ****     else return LV_DIR_ALL;
 751              		.loc 1 102 5 view .LVU185
 102:Drivers/lvgl/src/core/lv_obj_scroll.c ****     else return LV_DIR_ALL;
 752              		.loc 1 102 11 is_stmt 0 view .LVU186
 753 0000 8368     		ldr	r3, [r0, #8]
 102:Drivers/lvgl/src/core/lv_obj_scroll.c ****     else return LV_DIR_ALL;
 754              		.loc 1 102 7 view .LVU187
 755 0002 1BB1     		cbz	r3, .L34
 102:Drivers/lvgl/src/core/lv_obj_scroll.c ****     else return LV_DIR_ALL;
 756              		.loc 1 102 24 is_stmt 1 discriminator 1 view .LVU188
 102:Drivers/lvgl/src/core/lv_obj_scroll.c ****     else return LV_DIR_ALL;
 757              		.loc 1 102 56 is_stmt 0 discriminator 1 view .LVU189
 758 0004 588E     		ldrh	r0, [r3, #50]
 759              	.LVL65:
 102:Drivers/lvgl/src/core/lv_obj_scroll.c ****     else return LV_DIR_ALL;
 760              		.loc 1 102 56 discriminator 1 view .LVU190
 761 0006 C0F38310 		ubfx	r0, r0, #6, #4
 102:Drivers/lvgl/src/core/lv_obj_scroll.c ****     else return LV_DIR_ALL;
 762              		.loc 1 102 31 view .LVU191
 763 000a 7047     		bx	lr
 764              	.LVL66:
 765              	.L34:
 103:Drivers/lvgl/src/core/lv_obj_scroll.c **** }
 766              		.loc 1 103 17 view .LVU192
 767 000c 0F20     		movs	r0, #15
 768              	.LVL67:
ARM GAS  /tmp/ccmLrI5c.s 			page 40


 104:Drivers/lvgl/src/core/lv_obj_scroll.c **** 
 769              		.loc 1 104 1 view .LVU193
 770 000e 7047     		bx	lr
 771              		.cfi_endproc
 772              	.LFE176:
 774              		.section	.text.lv_obj_get_scroll_snap_x,"ax",%progbits
 775              		.align	1
 776              		.global	lv_obj_get_scroll_snap_x
 777              		.syntax unified
 778              		.thumb
 779              		.thumb_func
 781              	lv_obj_get_scroll_snap_x:
 782              	.LVL68:
 783              	.LFB177:
 107:Drivers/lvgl/src/core/lv_obj_scroll.c ****     if(obj->spec_attr) return (lv_scroll_snap_t) obj->spec_attr->scroll_snap_x;
 784              		.loc 1 107 1 is_stmt 1 view -0
 785              		.cfi_startproc
 786              		@ args = 0, pretend = 0, frame = 0
 787              		@ frame_needed = 0, uses_anonymous_args = 0
 788              		@ link register save eliminated.
 108:Drivers/lvgl/src/core/lv_obj_scroll.c ****     else return LV_SCROLL_SNAP_NONE;
 789              		.loc 1 108 5 view .LVU195
 108:Drivers/lvgl/src/core/lv_obj_scroll.c ****     else return LV_SCROLL_SNAP_NONE;
 790              		.loc 1 108 11 is_stmt 0 view .LVU196
 791 0000 8368     		ldr	r3, [r0, #8]
 108:Drivers/lvgl/src/core/lv_obj_scroll.c ****     else return LV_SCROLL_SNAP_NONE;
 792              		.loc 1 108 7 view .LVU197
 793 0002 23B1     		cbz	r3, .L37
 108:Drivers/lvgl/src/core/lv_obj_scroll.c ****     else return LV_SCROLL_SNAP_NONE;
 794              		.loc 1 108 24 is_stmt 1 discriminator 1 view .LVU198
 108:Drivers/lvgl/src/core/lv_obj_scroll.c ****     else return LV_SCROLL_SNAP_NONE;
 795              		.loc 1 108 64 is_stmt 0 discriminator 1 view .LVU199
 796 0004 93F83200 		ldrb	r0, [r3, #50]	@ zero_extendqisi2
 797              	.LVL69:
 108:Drivers/lvgl/src/core/lv_obj_scroll.c ****     else return LV_SCROLL_SNAP_NONE;
 798              		.loc 1 108 64 discriminator 1 view .LVU200
 799 0008 C0F38100 		ubfx	r0, r0, #2, #2
 108:Drivers/lvgl/src/core/lv_obj_scroll.c ****     else return LV_SCROLL_SNAP_NONE;
 800              		.loc 1 108 31 view .LVU201
 801 000c 7047     		bx	lr
 802              	.LVL70:
 803              	.L37:
 109:Drivers/lvgl/src/core/lv_obj_scroll.c **** }
 804              		.loc 1 109 17 view .LVU202
 805 000e 0020     		movs	r0, #0
 806              	.LVL71:
 110:Drivers/lvgl/src/core/lv_obj_scroll.c **** 
 807              		.loc 1 110 1 view .LVU203
 808 0010 7047     		bx	lr
 809              		.cfi_endproc
 810              	.LFE177:
 812              		.section	.text.lv_obj_get_scroll_snap_y,"ax",%progbits
 813              		.align	1
 814              		.global	lv_obj_get_scroll_snap_y
 815              		.syntax unified
 816              		.thumb
 817              		.thumb_func
ARM GAS  /tmp/ccmLrI5c.s 			page 41


 819              	lv_obj_get_scroll_snap_y:
 820              	.LVL72:
 821              	.LFB178:
 113:Drivers/lvgl/src/core/lv_obj_scroll.c ****     if(obj->spec_attr) return (lv_scroll_snap_t) obj->spec_attr->scroll_snap_y;
 822              		.loc 1 113 1 is_stmt 1 view -0
 823              		.cfi_startproc
 824              		@ args = 0, pretend = 0, frame = 0
 825              		@ frame_needed = 0, uses_anonymous_args = 0
 826              		@ link register save eliminated.
 114:Drivers/lvgl/src/core/lv_obj_scroll.c ****     else return LV_SCROLL_SNAP_NONE;
 827              		.loc 1 114 5 view .LVU205
 114:Drivers/lvgl/src/core/lv_obj_scroll.c ****     else return LV_SCROLL_SNAP_NONE;
 828              		.loc 1 114 11 is_stmt 0 view .LVU206
 829 0000 8368     		ldr	r3, [r0, #8]
 114:Drivers/lvgl/src/core/lv_obj_scroll.c ****     else return LV_SCROLL_SNAP_NONE;
 830              		.loc 1 114 7 view .LVU207
 831 0002 23B1     		cbz	r3, .L40
 114:Drivers/lvgl/src/core/lv_obj_scroll.c ****     else return LV_SCROLL_SNAP_NONE;
 832              		.loc 1 114 24 is_stmt 1 discriminator 1 view .LVU208
 114:Drivers/lvgl/src/core/lv_obj_scroll.c ****     else return LV_SCROLL_SNAP_NONE;
 833              		.loc 1 114 64 is_stmt 0 discriminator 1 view .LVU209
 834 0004 93F83200 		ldrb	r0, [r3, #50]	@ zero_extendqisi2
 835              	.LVL73:
 114:Drivers/lvgl/src/core/lv_obj_scroll.c ****     else return LV_SCROLL_SNAP_NONE;
 836              		.loc 1 114 64 discriminator 1 view .LVU210
 837 0008 C0F30110 		ubfx	r0, r0, #4, #2
 114:Drivers/lvgl/src/core/lv_obj_scroll.c ****     else return LV_SCROLL_SNAP_NONE;
 838              		.loc 1 114 31 view .LVU211
 839 000c 7047     		bx	lr
 840              	.LVL74:
 841              	.L40:
 115:Drivers/lvgl/src/core/lv_obj_scroll.c **** }
 842              		.loc 1 115 17 view .LVU212
 843 000e 0020     		movs	r0, #0
 844              	.LVL75:
 116:Drivers/lvgl/src/core/lv_obj_scroll.c **** 
 845              		.loc 1 116 1 view .LVU213
 846 0010 7047     		bx	lr
 847              		.cfi_endproc
 848              	.LFE178:
 850              		.section	.text.lv_obj_get_scroll_x,"ax",%progbits
 851              		.align	1
 852              		.global	lv_obj_get_scroll_x
 853              		.syntax unified
 854              		.thumb
 855              		.thumb_func
 857              	lv_obj_get_scroll_x:
 858              	.LVL76:
 859              	.LFB179:
 119:Drivers/lvgl/src/core/lv_obj_scroll.c ****     if(obj->spec_attr == NULL) return 0;
 860              		.loc 1 119 1 is_stmt 1 view -0
 861              		.cfi_startproc
 862              		@ args = 0, pretend = 0, frame = 0
 863              		@ frame_needed = 0, uses_anonymous_args = 0
 864              		@ link register save eliminated.
 120:Drivers/lvgl/src/core/lv_obj_scroll.c ****     return -obj->spec_attr->scroll.x;
 865              		.loc 1 120 5 view .LVU215
ARM GAS  /tmp/ccmLrI5c.s 			page 42


 120:Drivers/lvgl/src/core/lv_obj_scroll.c ****     return -obj->spec_attr->scroll.x;
 866              		.loc 1 120 11 is_stmt 0 view .LVU216
 867 0000 8368     		ldr	r3, [r0, #8]
 120:Drivers/lvgl/src/core/lv_obj_scroll.c ****     return -obj->spec_attr->scroll.x;
 868              		.loc 1 120 7 view .LVU217
 869 0002 13B1     		cbz	r3, .L43
 121:Drivers/lvgl/src/core/lv_obj_scroll.c **** }
 870              		.loc 1 121 5 is_stmt 1 view .LVU218
 121:Drivers/lvgl/src/core/lv_obj_scroll.c **** }
 871              		.loc 1 121 35 is_stmt 0 view .LVU219
 872 0004 186A     		ldr	r0, [r3, #32]
 873              	.LVL77:
 121:Drivers/lvgl/src/core/lv_obj_scroll.c **** }
 874              		.loc 1 121 12 view .LVU220
 875 0006 4042     		rsbs	r0, r0, #0
 876 0008 7047     		bx	lr
 877              	.LVL78:
 878              	.L43:
 120:Drivers/lvgl/src/core/lv_obj_scroll.c ****     return -obj->spec_attr->scroll.x;
 879              		.loc 1 120 39 discriminator 1 view .LVU221
 880 000a 0020     		movs	r0, #0
 881              	.LVL79:
 122:Drivers/lvgl/src/core/lv_obj_scroll.c **** 
 882              		.loc 1 122 1 view .LVU222
 883 000c 7047     		bx	lr
 884              		.cfi_endproc
 885              	.LFE179:
 887              		.section	.text.lv_obj_get_scroll_y,"ax",%progbits
 888              		.align	1
 889              		.global	lv_obj_get_scroll_y
 890              		.syntax unified
 891              		.thumb
 892              		.thumb_func
 894              	lv_obj_get_scroll_y:
 895              	.LVL80:
 896              	.LFB180:
 125:Drivers/lvgl/src/core/lv_obj_scroll.c ****     if(obj->spec_attr == NULL) return 0;
 897              		.loc 1 125 1 is_stmt 1 view -0
 898              		.cfi_startproc
 899              		@ args = 0, pretend = 0, frame = 0
 900              		@ frame_needed = 0, uses_anonymous_args = 0
 901              		@ link register save eliminated.
 126:Drivers/lvgl/src/core/lv_obj_scroll.c ****     return -obj->spec_attr->scroll.y;
 902              		.loc 1 126 5 view .LVU224
 126:Drivers/lvgl/src/core/lv_obj_scroll.c ****     return -obj->spec_attr->scroll.y;
 903              		.loc 1 126 11 is_stmt 0 view .LVU225
 904 0000 8368     		ldr	r3, [r0, #8]
 126:Drivers/lvgl/src/core/lv_obj_scroll.c ****     return -obj->spec_attr->scroll.y;
 905              		.loc 1 126 7 view .LVU226
 906 0002 13B1     		cbz	r3, .L46
 127:Drivers/lvgl/src/core/lv_obj_scroll.c **** }
 907              		.loc 1 127 5 is_stmt 1 view .LVU227
 127:Drivers/lvgl/src/core/lv_obj_scroll.c **** }
 908              		.loc 1 127 35 is_stmt 0 view .LVU228
 909 0004 586A     		ldr	r0, [r3, #36]
 910              	.LVL81:
 127:Drivers/lvgl/src/core/lv_obj_scroll.c **** }
ARM GAS  /tmp/ccmLrI5c.s 			page 43


 911              		.loc 1 127 12 view .LVU229
 912 0006 4042     		rsbs	r0, r0, #0
 913 0008 7047     		bx	lr
 914              	.LVL82:
 915              	.L46:
 126:Drivers/lvgl/src/core/lv_obj_scroll.c ****     return -obj->spec_attr->scroll.y;
 916              		.loc 1 126 39 discriminator 1 view .LVU230
 917 000a 0020     		movs	r0, #0
 918              	.LVL83:
 128:Drivers/lvgl/src/core/lv_obj_scroll.c **** 
 919              		.loc 1 128 1 view .LVU231
 920 000c 7047     		bx	lr
 921              		.cfi_endproc
 922              	.LFE180:
 924              		.section	.text.lv_obj_get_scroll_top,"ax",%progbits
 925              		.align	1
 926              		.global	lv_obj_get_scroll_top
 927              		.syntax unified
 928              		.thumb
 929              		.thumb_func
 931              	lv_obj_get_scroll_top:
 932              	.LVL84:
 933              	.LFB181:
 131:Drivers/lvgl/src/core/lv_obj_scroll.c ****     if(obj->spec_attr == NULL) return 0;
 934              		.loc 1 131 1 is_stmt 1 view -0
 935              		.cfi_startproc
 936              		@ args = 0, pretend = 0, frame = 0
 937              		@ frame_needed = 0, uses_anonymous_args = 0
 938              		@ link register save eliminated.
 132:Drivers/lvgl/src/core/lv_obj_scroll.c ****     return -obj->spec_attr->scroll.y;
 939              		.loc 1 132 5 view .LVU233
 132:Drivers/lvgl/src/core/lv_obj_scroll.c ****     return -obj->spec_attr->scroll.y;
 940              		.loc 1 132 11 is_stmt 0 view .LVU234
 941 0000 8368     		ldr	r3, [r0, #8]
 132:Drivers/lvgl/src/core/lv_obj_scroll.c ****     return -obj->spec_attr->scroll.y;
 942              		.loc 1 132 7 view .LVU235
 943 0002 13B1     		cbz	r3, .L49
 133:Drivers/lvgl/src/core/lv_obj_scroll.c **** }
 944              		.loc 1 133 5 is_stmt 1 view .LVU236
 133:Drivers/lvgl/src/core/lv_obj_scroll.c **** }
 945              		.loc 1 133 35 is_stmt 0 view .LVU237
 946 0004 586A     		ldr	r0, [r3, #36]
 947              	.LVL85:
 133:Drivers/lvgl/src/core/lv_obj_scroll.c **** }
 948              		.loc 1 133 12 view .LVU238
 949 0006 4042     		rsbs	r0, r0, #0
 950 0008 7047     		bx	lr
 951              	.LVL86:
 952              	.L49:
 132:Drivers/lvgl/src/core/lv_obj_scroll.c ****     return -obj->spec_attr->scroll.y;
 953              		.loc 1 132 39 discriminator 1 view .LVU239
 954 000a 0020     		movs	r0, #0
 955              	.LVL87:
 134:Drivers/lvgl/src/core/lv_obj_scroll.c **** 
 956              		.loc 1 134 1 view .LVU240
 957 000c 7047     		bx	lr
 958              		.cfi_endproc
ARM GAS  /tmp/ccmLrI5c.s 			page 44


 959              	.LFE181:
 961              		.section	.text.lv_obj_get_scroll_bottom,"ax",%progbits
 962              		.align	1
 963              		.global	lv_obj_get_scroll_bottom
 964              		.syntax unified
 965              		.thumb
 966              		.thumb_func
 968              	lv_obj_get_scroll_bottom:
 969              	.LVL88:
 970              	.LFB182:
 137:Drivers/lvgl/src/core/lv_obj_scroll.c ****     LV_ASSERT_OBJ(obj, MY_CLASS);
 971              		.loc 1 137 1 is_stmt 1 view -0
 972              		.cfi_startproc
 973              		@ args = 0, pretend = 0, frame = 8
 974              		@ frame_needed = 0, uses_anonymous_args = 0
 138:Drivers/lvgl/src/core/lv_obj_scroll.c **** 
 975              		.loc 1 138 5 view .LVU242
 138:Drivers/lvgl/src/core/lv_obj_scroll.c **** 
 976              		.loc 1 138 5 view .LVU243
 977 0000 50B1     		cbz	r0, .L52
 137:Drivers/lvgl/src/core/lv_obj_scroll.c ****     LV_ASSERT_OBJ(obj, MY_CLASS);
 978              		.loc 1 137 1 is_stmt 0 view .LVU244
 979 0002 2DE9F043 		push	{r4, r5, r6, r7, r8, r9, lr}
 980              	.LCFI18:
 981              		.cfi_def_cfa_offset 28
 982              		.cfi_offset 4, -28
 983              		.cfi_offset 5, -24
 984              		.cfi_offset 6, -20
 985              		.cfi_offset 7, -16
 986              		.cfi_offset 8, -12
 987              		.cfi_offset 9, -8
 988              		.cfi_offset 14, -4
 989 0006 83B0     		sub	sp, sp, #12
 990              	.LCFI19:
 991              		.cfi_def_cfa_offset 40
 992 0008 0646     		mov	r6, r0
 138:Drivers/lvgl/src/core/lv_obj_scroll.c **** 
 993              		.loc 1 138 5 is_stmt 1 discriminator 2 view .LVU245
 138:Drivers/lvgl/src/core/lv_obj_scroll.c **** 
 994              		.loc 1 138 33 discriminator 2 view .LVU246
 140:Drivers/lvgl/src/core/lv_obj_scroll.c ****     uint32_t i;
 995              		.loc 1 140 5 view .LVU247
 996              	.LVL89:
 141:Drivers/lvgl/src/core/lv_obj_scroll.c ****     uint32_t child_cnt = lv_obj_get_child_count(obj);
 997              		.loc 1 141 5 view .LVU248
 142:Drivers/lvgl/src/core/lv_obj_scroll.c ****     for(i = 0; i < child_cnt; i++) {
 998              		.loc 1 142 5 view .LVU249
 142:Drivers/lvgl/src/core/lv_obj_scroll.c ****     for(i = 0; i < child_cnt; i++) {
 999              		.loc 1 142 26 is_stmt 0 view .LVU250
 1000 000a FFF7FEFF 		bl	lv_obj_get_child_count
 1001              	.LVL90:
 142:Drivers/lvgl/src/core/lv_obj_scroll.c ****     for(i = 0; i < child_cnt; i++) {
 1002              		.loc 1 142 26 view .LVU251
 1003 000e 8146     		mov	r9, r0
 1004              	.LVL91:
 143:Drivers/lvgl/src/core/lv_obj_scroll.c ****         const lv_obj_t * child = obj->spec_attr->children[i];
 1005              		.loc 1 143 5 is_stmt 1 view .LVU252
ARM GAS  /tmp/ccmLrI5c.s 			page 45


 143:Drivers/lvgl/src/core/lv_obj_scroll.c ****         const lv_obj_t * child = obj->spec_attr->children[i];
 1006              		.loc 1 143 11 is_stmt 0 view .LVU253
 1007 0010 0024     		movs	r4, #0
 140:Drivers/lvgl/src/core/lv_obj_scroll.c ****     uint32_t i;
 1008              		.loc 1 140 13 view .LVU254
 1009 0012 DFF88880 		ldr	r8, .L60+4
 143:Drivers/lvgl/src/core/lv_obj_scroll.c ****         const lv_obj_t * child = obj->spec_attr->children[i];
 1010              		.loc 1 143 5 view .LVU255
 1011 0016 01E0     		b	.L53
 1012              	.LVL92:
 1013              	.L52:
 1014              	.LCFI20:
 1015              		.cfi_def_cfa_offset 0
 1016              		.cfi_restore 4
 1017              		.cfi_restore 5
 1018              		.cfi_restore 6
 1019              		.cfi_restore 7
 1020              		.cfi_restore 8
 1021              		.cfi_restore 9
 1022              		.cfi_restore 14
 138:Drivers/lvgl/src/core/lv_obj_scroll.c **** 
 1023              		.loc 1 138 5 is_stmt 1 discriminator 1 view .LVU256
 138:Drivers/lvgl/src/core/lv_obj_scroll.c **** 
 1024              		.loc 1 138 5 discriminator 1 view .LVU257
 138:Drivers/lvgl/src/core/lv_obj_scroll.c **** 
 1025              		.loc 1 138 5 discriminator 1 view .LVU258
 138:Drivers/lvgl/src/core/lv_obj_scroll.c **** 
 1026              		.loc 1 138 5 discriminator 1 view .LVU259
 138:Drivers/lvgl/src/core/lv_obj_scroll.c **** 
 1027              		.loc 1 138 5 discriminator 1 view .LVU260
 1028 0018 FEE7     		b	.L52
 1029              	.LVL93:
 1030              	.L54:
 1031              	.LCFI21:
 1032              		.cfi_def_cfa_offset 40
 1033              		.cfi_offset 4, -28
 1034              		.cfi_offset 5, -24
 1035              		.cfi_offset 6, -20
 1036              		.cfi_offset 7, -16
 1037              		.cfi_offset 8, -12
 1038              		.cfi_offset 9, -8
 1039              		.cfi_offset 14, -4
 143:Drivers/lvgl/src/core/lv_obj_scroll.c ****         const lv_obj_t * child = obj->spec_attr->children[i];
 1040              		.loc 1 143 32 discriminator 2 view .LVU261
 1041 001a 0134     		adds	r4, r4, #1
 1042              	.LVL94:
 1043              	.L53:
 143:Drivers/lvgl/src/core/lv_obj_scroll.c ****         const lv_obj_t * child = obj->spec_attr->children[i];
 1044              		.loc 1 143 18 discriminator 1 view .LVU262
 1045 001c 4C45     		cmp	r4, r9
 1046 001e 15D2     		bcs	.L59
 1047              	.LBB94:
 144:Drivers/lvgl/src/core/lv_obj_scroll.c ****         if(lv_obj_has_flag_any(child,  LV_OBJ_FLAG_HIDDEN | LV_OBJ_FLAG_FLOATING)) continue;
 1048              		.loc 1 144 9 view .LVU263
 144:Drivers/lvgl/src/core/lv_obj_scroll.c ****         if(lv_obj_has_flag_any(child,  LV_OBJ_FLAG_HIDDEN | LV_OBJ_FLAG_FLOATING)) continue;
 1049              		.loc 1 144 37 is_stmt 0 view .LVU264
 1050 0020 B368     		ldr	r3, [r6, #8]
ARM GAS  /tmp/ccmLrI5c.s 			page 46


 144:Drivers/lvgl/src/core/lv_obj_scroll.c ****         if(lv_obj_has_flag_any(child,  LV_OBJ_FLAG_HIDDEN | LV_OBJ_FLAG_FLOATING)) continue;
 1051              		.loc 1 144 48 view .LVU265
 1052 0022 1B68     		ldr	r3, [r3]
 144:Drivers/lvgl/src/core/lv_obj_scroll.c ****         if(lv_obj_has_flag_any(child,  LV_OBJ_FLAG_HIDDEN | LV_OBJ_FLAG_FLOATING)) continue;
 1053              		.loc 1 144 26 view .LVU266
 1054 0024 53F82450 		ldr	r5, [r3, r4, lsl #2]
 1055              	.LVL95:
 145:Drivers/lvgl/src/core/lv_obj_scroll.c **** 
 1056              		.loc 1 145 9 is_stmt 1 view .LVU267
 145:Drivers/lvgl/src/core/lv_obj_scroll.c **** 
 1057              		.loc 1 145 12 is_stmt 0 view .LVU268
 1058 0028 1B49     		ldr	r1, .L60
 1059 002a 2846     		mov	r0, r5
 1060 002c FFF7FEFF 		bl	lv_obj_has_flag_any
 1061              	.LVL96:
 145:Drivers/lvgl/src/core/lv_obj_scroll.c **** 
 1062              		.loc 1 145 11 discriminator 1 view .LVU269
 1063 0030 0028     		cmp	r0, #0
 1064 0032 F2D1     		bne	.L54
 147:Drivers/lvgl/src/core/lv_obj_scroll.c ****         child_res = LV_MAX(child_res, tmp_y);
 1065              		.loc 1 147 9 is_stmt 1 view .LVU270
 147:Drivers/lvgl/src/core/lv_obj_scroll.c ****         child_res = LV_MAX(child_res, tmp_y);
 1066              		.loc 1 147 38 is_stmt 0 view .LVU271
 1067 0034 2F6A     		ldr	r7, [r5, #32]
 1068              	.LVL97:
 1069              	.LBB95:
 1070              	.LBI95:
 202:Drivers/lvgl/src/core/lv_obj_style_gen.h **** {
 1071              		.loc 3 202 23 is_stmt 1 view .LVU272
 1072              	.LBB96:
 204:Drivers/lvgl/src/core/lv_obj_style_gen.h ****     return (int32_t)v.num;
 1073              		.loc 3 204 5 view .LVU273
 204:Drivers/lvgl/src/core/lv_obj_style_gen.h ****     return (int32_t)v.num;
 1074              		.loc 3 204 26 is_stmt 0 view .LVU274
 1075 0036 1922     		movs	r2, #25
 1076 0038 0021     		movs	r1, #0
 1077 003a 2846     		mov	r0, r5
 1078 003c FFF7FEFF 		bl	lv_obj_get_style_prop
 1079              	.LVL98:
 1080 0040 0190     		str	r0, [sp, #4]
 205:Drivers/lvgl/src/core/lv_obj_style_gen.h **** }
 1081              		.loc 3 205 5 is_stmt 1 view .LVU275
 1082              	.LVL99:
 205:Drivers/lvgl/src/core/lv_obj_style_gen.h **** }
 1083              		.loc 3 205 5 is_stmt 0 view .LVU276
 1084              	.LBE96:
 1085              	.LBE95:
 147:Drivers/lvgl/src/core/lv_obj_scroll.c ****         child_res = LV_MAX(child_res, tmp_y);
 1086              		.loc 1 147 17 discriminator 1 view .LVU277
 1087 0042 0744     		add	r7, r7, r0
 1088              	.LVL100:
 148:Drivers/lvgl/src/core/lv_obj_scroll.c ****     }
 1089              		.loc 1 148 9 is_stmt 1 view .LVU278
 148:Drivers/lvgl/src/core/lv_obj_scroll.c ****     }
 1090              		.loc 1 148 19 is_stmt 0 view .LVU279
 1091 0044 B845     		cmp	r8, r7
 1092 0046 B8BF     		it	lt
ARM GAS  /tmp/ccmLrI5c.s 			page 47


 1093 0048 B846     		movlt	r8, r7
 1094              	.LVL101:
 148:Drivers/lvgl/src/core/lv_obj_scroll.c ****     }
 1095              		.loc 1 148 19 view .LVU280
 1096 004a E6E7     		b	.L54
 1097              	.LVL102:
 1098              	.L59:
 148:Drivers/lvgl/src/core/lv_obj_scroll.c ****     }
 1099              		.loc 1 148 19 view .LVU281
 1100              	.LBE94:
 151:Drivers/lvgl/src/core/lv_obj_scroll.c ****     int32_t space_bottom = lv_obj_get_style_space_bottom(obj, LV_PART_MAIN);
 1101              		.loc 1 151 5 is_stmt 1 view .LVU282
 151:Drivers/lvgl/src/core/lv_obj_scroll.c ****     int32_t space_bottom = lv_obj_get_style_space_bottom(obj, LV_PART_MAIN);
 1102              		.loc 1 151 25 is_stmt 0 view .LVU283
 1103 004c 0021     		movs	r1, #0
 1104 004e 3046     		mov	r0, r6
 1105 0050 FFF7FEFF 		bl	lv_obj_get_style_space_top
 1106              	.LVL103:
 1107 0054 0746     		mov	r7, r0
 1108              	.LVL104:
 152:Drivers/lvgl/src/core/lv_obj_scroll.c **** 
 1109              		.loc 1 152 5 is_stmt 1 view .LVU284
 152:Drivers/lvgl/src/core/lv_obj_scroll.c **** 
 1110              		.loc 1 152 28 is_stmt 0 view .LVU285
 1111 0056 0021     		movs	r1, #0
 1112 0058 3046     		mov	r0, r6
 1113              	.LVL105:
 152:Drivers/lvgl/src/core/lv_obj_scroll.c **** 
 1114              		.loc 1 152 28 view .LVU286
 1115 005a FFF7FEFF 		bl	lv_obj_get_style_space_bottom
 1116              	.LVL106:
 1117 005e 0546     		mov	r5, r0
 1118              	.LVL107:
 154:Drivers/lvgl/src/core/lv_obj_scroll.c ****         child_res -= (obj->coords.y2 - space_bottom);
 1119              		.loc 1 154 5 is_stmt 1 view .LVU287
 154:Drivers/lvgl/src/core/lv_obj_scroll.c ****         child_res -= (obj->coords.y2 - space_bottom);
 1120              		.loc 1 154 7 is_stmt 0 view .LVU288
 1121 0060 0E4B     		ldr	r3, .L60+4
 1122 0062 9845     		cmp	r8, r3
 1123 0064 03D0     		beq	.L56
 155:Drivers/lvgl/src/core/lv_obj_scroll.c ****     }
 1124              		.loc 1 155 9 is_stmt 1 view .LVU289
 155:Drivers/lvgl/src/core/lv_obj_scroll.c ****     }
 1125              		.loc 1 155 34 is_stmt 0 view .LVU290
 1126 0066 336A     		ldr	r3, [r6, #32]
 155:Drivers/lvgl/src/core/lv_obj_scroll.c ****     }
 1127              		.loc 1 155 38 view .LVU291
 1128 0068 1B1A     		subs	r3, r3, r0
 155:Drivers/lvgl/src/core/lv_obj_scroll.c ****     }
 1129              		.loc 1 155 19 view .LVU292
 1130 006a A8EB0308 		sub	r8, r8, r3
 1131              	.LVL108:
 1132              	.L56:
 158:Drivers/lvgl/src/core/lv_obj_scroll.c ****     self_h = self_h - (lv_obj_get_height(obj) - space_top - space_bottom);
 1133              		.loc 1 158 5 is_stmt 1 view .LVU293
 158:Drivers/lvgl/src/core/lv_obj_scroll.c ****     self_h = self_h - (lv_obj_get_height(obj) - space_top - space_bottom);
 1134              		.loc 1 158 22 is_stmt 0 view .LVU294
ARM GAS  /tmp/ccmLrI5c.s 			page 48


 1135 006e 3046     		mov	r0, r6
 1136              	.LVL109:
 158:Drivers/lvgl/src/core/lv_obj_scroll.c ****     self_h = self_h - (lv_obj_get_height(obj) - space_top - space_bottom);
 1137              		.loc 1 158 22 view .LVU295
 1138 0070 FFF7FEFF 		bl	lv_obj_get_self_height
 1139              	.LVL110:
 1140 0074 0446     		mov	r4, r0
 1141              	.LVL111:
 159:Drivers/lvgl/src/core/lv_obj_scroll.c ****     self_h -= lv_obj_get_scroll_y(obj);
 1142              		.loc 1 159 5 is_stmt 1 view .LVU296
 159:Drivers/lvgl/src/core/lv_obj_scroll.c ****     self_h -= lv_obj_get_scroll_y(obj);
 1143              		.loc 1 159 24 is_stmt 0 view .LVU297
 1144 0076 3046     		mov	r0, r6
 1145              	.LVL112:
 159:Drivers/lvgl/src/core/lv_obj_scroll.c ****     self_h -= lv_obj_get_scroll_y(obj);
 1146              		.loc 1 159 24 view .LVU298
 1147 0078 FFF7FEFF 		bl	lv_obj_get_height
 1148              	.LVL113:
 159:Drivers/lvgl/src/core/lv_obj_scroll.c ****     self_h -= lv_obj_get_scroll_y(obj);
 1149              		.loc 1 159 47 discriminator 1 view .LVU299
 1150 007c C31B     		subs	r3, r0, r7
 159:Drivers/lvgl/src/core/lv_obj_scroll.c ****     self_h -= lv_obj_get_scroll_y(obj);
 1151              		.loc 1 159 59 discriminator 1 view .LVU300
 1152 007e 581B     		subs	r0, r3, r5
 159:Drivers/lvgl/src/core/lv_obj_scroll.c ****     self_h -= lv_obj_get_scroll_y(obj);
 1153              		.loc 1 159 12 discriminator 1 view .LVU301
 1154 0080 241A     		subs	r4, r4, r0
 1155              	.LVL114:
 160:Drivers/lvgl/src/core/lv_obj_scroll.c ****     return LV_MAX(child_res, self_h);
 1156              		.loc 1 160 5 is_stmt 1 view .LVU302
 160:Drivers/lvgl/src/core/lv_obj_scroll.c ****     return LV_MAX(child_res, self_h);
 1157              		.loc 1 160 15 is_stmt 0 view .LVU303
 1158 0082 3046     		mov	r0, r6
 1159 0084 FFF7FEFF 		bl	lv_obj_get_scroll_y
 1160              	.LVL115:
 160:Drivers/lvgl/src/core/lv_obj_scroll.c ****     return LV_MAX(child_res, self_h);
 1161              		.loc 1 160 12 discriminator 1 view .LVU304
 1162 0088 201A     		subs	r0, r4, r0
 1163              	.LVL116:
 161:Drivers/lvgl/src/core/lv_obj_scroll.c **** }
 1164              		.loc 1 161 5 is_stmt 1 view .LVU305
 162:Drivers/lvgl/src/core/lv_obj_scroll.c **** 
 1165              		.loc 1 162 1 is_stmt 0 view .LVU306
 1166 008a 4045     		cmp	r0, r8
 1167 008c B8BF     		it	lt
 1168 008e 4046     		movlt	r0, r8
 1169              	.LVL117:
 162:Drivers/lvgl/src/core/lv_obj_scroll.c **** 
 1170              		.loc 1 162 1 view .LVU307
 1171 0090 03B0     		add	sp, sp, #12
 1172              	.LCFI22:
 1173              		.cfi_def_cfa_offset 28
 1174              		@ sp needed
 1175 0092 BDE8F083 		pop	{r4, r5, r6, r7, r8, r9, pc}
 1176              	.LVL118:
 1177              	.L61:
 162:Drivers/lvgl/src/core/lv_obj_scroll.c **** 
ARM GAS  /tmp/ccmLrI5c.s 			page 49


 1178              		.loc 1 162 1 view .LVU308
 1179 0096 00BF     		.align	2
 1180              	.L60:
 1181 0098 01000400 		.word	262145
 1182 009c 010000E0 		.word	-536870911
 1183              		.cfi_endproc
 1184              	.LFE182:
 1186              		.section	.text.lv_obj_get_scroll_left,"ax",%progbits
 1187              		.align	1
 1188              		.global	lv_obj_get_scroll_left
 1189              		.syntax unified
 1190              		.thumb
 1191              		.thumb_func
 1193              	lv_obj_get_scroll_left:
 1194              	.LVL119:
 1195              	.LFB183:
 165:Drivers/lvgl/src/core/lv_obj_scroll.c ****     LV_ASSERT_OBJ(obj, MY_CLASS);
 1196              		.loc 1 165 1 is_stmt 1 view -0
 1197              		.cfi_startproc
 1198              		@ args = 0, pretend = 0, frame = 8
 1199              		@ frame_needed = 0, uses_anonymous_args = 0
 166:Drivers/lvgl/src/core/lv_obj_scroll.c **** 
 1200              		.loc 1 166 5 view .LVU310
 166:Drivers/lvgl/src/core/lv_obj_scroll.c **** 
 1201              		.loc 1 166 5 view .LVU311
 1202 0000 98B1     		cbz	r0, .L64
 165:Drivers/lvgl/src/core/lv_obj_scroll.c ****     LV_ASSERT_OBJ(obj, MY_CLASS);
 1203              		.loc 1 165 1 is_stmt 0 view .LVU312
 1204 0002 2DE9F04F 		push	{r4, r5, r6, r7, r8, r9, r10, fp, lr}
 1205              	.LCFI23:
 1206              		.cfi_def_cfa_offset 36
 1207              		.cfi_offset 4, -36
 1208              		.cfi_offset 5, -32
 1209              		.cfi_offset 6, -28
 1210              		.cfi_offset 7, -24
 1211              		.cfi_offset 8, -20
 1212              		.cfi_offset 9, -16
 1213              		.cfi_offset 10, -12
 1214              		.cfi_offset 11, -8
 1215              		.cfi_offset 14, -4
 1216 0006 83B0     		sub	sp, sp, #12
 1217              	.LCFI24:
 1218              		.cfi_def_cfa_offset 48
 1219 0008 0546     		mov	r5, r0
 166:Drivers/lvgl/src/core/lv_obj_scroll.c **** 
 1220              		.loc 1 166 5 is_stmt 1 discriminator 2 view .LVU313
 166:Drivers/lvgl/src/core/lv_obj_scroll.c **** 
 1221              		.loc 1 166 33 discriminator 2 view .LVU314
 170:Drivers/lvgl/src/core/lv_obj_scroll.c ****         if(obj->spec_attr == NULL) return 0;
 1222              		.loc 1 170 5 view .LVU315
 1223              	.LVL120:
 1224              	.LBB97:
 1225              	.LBI97:
 350:Drivers/lvgl/src/core/lv_obj_style_gen.h **** }
 351:Drivers/lvgl/src/core/lv_obj_style_gen.h **** 
 352:Drivers/lvgl/src/core/lv_obj_style_gen.h **** static inline bool lv_obj_get_style_border_post(const lv_obj_t * obj, lv_part_t part)
 353:Drivers/lvgl/src/core/lv_obj_style_gen.h **** {
ARM GAS  /tmp/ccmLrI5c.s 			page 50


 354:Drivers/lvgl/src/core/lv_obj_style_gen.h ****     lv_style_value_t v = lv_obj_get_style_prop(obj, part, LV_STYLE_BORDER_POST);
 355:Drivers/lvgl/src/core/lv_obj_style_gen.h ****     return (bool)v.num;
 356:Drivers/lvgl/src/core/lv_obj_style_gen.h **** }
 357:Drivers/lvgl/src/core/lv_obj_style_gen.h **** 
 358:Drivers/lvgl/src/core/lv_obj_style_gen.h **** static inline int32_t lv_obj_get_style_outline_width(const lv_obj_t * obj, lv_part_t part)
 359:Drivers/lvgl/src/core/lv_obj_style_gen.h **** {
 360:Drivers/lvgl/src/core/lv_obj_style_gen.h ****     lv_style_value_t v = lv_obj_get_style_prop(obj, part, LV_STYLE_OUTLINE_WIDTH);
 361:Drivers/lvgl/src/core/lv_obj_style_gen.h ****     return (int32_t)v.num;
 362:Drivers/lvgl/src/core/lv_obj_style_gen.h **** }
 363:Drivers/lvgl/src/core/lv_obj_style_gen.h **** 
 364:Drivers/lvgl/src/core/lv_obj_style_gen.h **** static inline lv_color_t lv_obj_get_style_outline_color(const lv_obj_t * obj, lv_part_t part)
 365:Drivers/lvgl/src/core/lv_obj_style_gen.h **** {
 366:Drivers/lvgl/src/core/lv_obj_style_gen.h ****     lv_style_value_t v = lv_obj_get_style_prop(obj, part, LV_STYLE_OUTLINE_COLOR);
 367:Drivers/lvgl/src/core/lv_obj_style_gen.h ****     return v.color;
 368:Drivers/lvgl/src/core/lv_obj_style_gen.h **** }
 369:Drivers/lvgl/src/core/lv_obj_style_gen.h **** 
 370:Drivers/lvgl/src/core/lv_obj_style_gen.h **** static inline lv_color_t lv_obj_get_style_outline_color_filtered(const lv_obj_t * obj, lv_part_t pa
 371:Drivers/lvgl/src/core/lv_obj_style_gen.h **** {
 372:Drivers/lvgl/src/core/lv_obj_style_gen.h ****     lv_style_value_t v = lv_obj_style_apply_color_filter(obj, part, lv_obj_get_style_prop(obj, part
 373:Drivers/lvgl/src/core/lv_obj_style_gen.h ****     return v.color;
 374:Drivers/lvgl/src/core/lv_obj_style_gen.h **** }
 375:Drivers/lvgl/src/core/lv_obj_style_gen.h **** 
 376:Drivers/lvgl/src/core/lv_obj_style_gen.h **** static inline lv_opa_t lv_obj_get_style_outline_opa(const lv_obj_t * obj, lv_part_t part)
 377:Drivers/lvgl/src/core/lv_obj_style_gen.h **** {
 378:Drivers/lvgl/src/core/lv_obj_style_gen.h ****     lv_style_value_t v = lv_obj_get_style_prop(obj, part, LV_STYLE_OUTLINE_OPA);
 379:Drivers/lvgl/src/core/lv_obj_style_gen.h ****     return (lv_opa_t)v.num;
 380:Drivers/lvgl/src/core/lv_obj_style_gen.h **** }
 381:Drivers/lvgl/src/core/lv_obj_style_gen.h **** 
 382:Drivers/lvgl/src/core/lv_obj_style_gen.h **** static inline int32_t lv_obj_get_style_outline_pad(const lv_obj_t * obj, lv_part_t part)
 383:Drivers/lvgl/src/core/lv_obj_style_gen.h **** {
 384:Drivers/lvgl/src/core/lv_obj_style_gen.h ****     lv_style_value_t v = lv_obj_get_style_prop(obj, part, LV_STYLE_OUTLINE_PAD);
 385:Drivers/lvgl/src/core/lv_obj_style_gen.h ****     return (int32_t)v.num;
 386:Drivers/lvgl/src/core/lv_obj_style_gen.h **** }
 387:Drivers/lvgl/src/core/lv_obj_style_gen.h **** 
 388:Drivers/lvgl/src/core/lv_obj_style_gen.h **** static inline int32_t lv_obj_get_style_shadow_width(const lv_obj_t * obj, lv_part_t part)
 389:Drivers/lvgl/src/core/lv_obj_style_gen.h **** {
 390:Drivers/lvgl/src/core/lv_obj_style_gen.h ****     lv_style_value_t v = lv_obj_get_style_prop(obj, part, LV_STYLE_SHADOW_WIDTH);
 391:Drivers/lvgl/src/core/lv_obj_style_gen.h ****     return (int32_t)v.num;
 392:Drivers/lvgl/src/core/lv_obj_style_gen.h **** }
 393:Drivers/lvgl/src/core/lv_obj_style_gen.h **** 
 394:Drivers/lvgl/src/core/lv_obj_style_gen.h **** static inline int32_t lv_obj_get_style_shadow_offset_x(const lv_obj_t * obj, lv_part_t part)
 395:Drivers/lvgl/src/core/lv_obj_style_gen.h **** {
 396:Drivers/lvgl/src/core/lv_obj_style_gen.h ****     lv_style_value_t v = lv_obj_get_style_prop(obj, part, LV_STYLE_SHADOW_OFFSET_X);
 397:Drivers/lvgl/src/core/lv_obj_style_gen.h ****     return (int32_t)v.num;
 398:Drivers/lvgl/src/core/lv_obj_style_gen.h **** }
 399:Drivers/lvgl/src/core/lv_obj_style_gen.h **** 
 400:Drivers/lvgl/src/core/lv_obj_style_gen.h **** static inline int32_t lv_obj_get_style_shadow_offset_y(const lv_obj_t * obj, lv_part_t part)
 401:Drivers/lvgl/src/core/lv_obj_style_gen.h **** {
 402:Drivers/lvgl/src/core/lv_obj_style_gen.h ****     lv_style_value_t v = lv_obj_get_style_prop(obj, part, LV_STYLE_SHADOW_OFFSET_Y);
 403:Drivers/lvgl/src/core/lv_obj_style_gen.h ****     return (int32_t)v.num;
 404:Drivers/lvgl/src/core/lv_obj_style_gen.h **** }
 405:Drivers/lvgl/src/core/lv_obj_style_gen.h **** 
 406:Drivers/lvgl/src/core/lv_obj_style_gen.h **** static inline int32_t lv_obj_get_style_shadow_spread(const lv_obj_t * obj, lv_part_t part)
 407:Drivers/lvgl/src/core/lv_obj_style_gen.h **** {
 408:Drivers/lvgl/src/core/lv_obj_style_gen.h ****     lv_style_value_t v = lv_obj_get_style_prop(obj, part, LV_STYLE_SHADOW_SPREAD);
 409:Drivers/lvgl/src/core/lv_obj_style_gen.h ****     return (int32_t)v.num;
 410:Drivers/lvgl/src/core/lv_obj_style_gen.h **** }
ARM GAS  /tmp/ccmLrI5c.s 			page 51


 411:Drivers/lvgl/src/core/lv_obj_style_gen.h **** 
 412:Drivers/lvgl/src/core/lv_obj_style_gen.h **** static inline lv_color_t lv_obj_get_style_shadow_color(const lv_obj_t * obj, lv_part_t part)
 413:Drivers/lvgl/src/core/lv_obj_style_gen.h **** {
 414:Drivers/lvgl/src/core/lv_obj_style_gen.h ****     lv_style_value_t v = lv_obj_get_style_prop(obj, part, LV_STYLE_SHADOW_COLOR);
 415:Drivers/lvgl/src/core/lv_obj_style_gen.h ****     return v.color;
 416:Drivers/lvgl/src/core/lv_obj_style_gen.h **** }
 417:Drivers/lvgl/src/core/lv_obj_style_gen.h **** 
 418:Drivers/lvgl/src/core/lv_obj_style_gen.h **** static inline lv_color_t lv_obj_get_style_shadow_color_filtered(const lv_obj_t * obj, lv_part_t par
 419:Drivers/lvgl/src/core/lv_obj_style_gen.h **** {
 420:Drivers/lvgl/src/core/lv_obj_style_gen.h ****     lv_style_value_t v = lv_obj_style_apply_color_filter(obj, part, lv_obj_get_style_prop(obj, part
 421:Drivers/lvgl/src/core/lv_obj_style_gen.h ****     return v.color;
 422:Drivers/lvgl/src/core/lv_obj_style_gen.h **** }
 423:Drivers/lvgl/src/core/lv_obj_style_gen.h **** 
 424:Drivers/lvgl/src/core/lv_obj_style_gen.h **** static inline lv_opa_t lv_obj_get_style_shadow_opa(const lv_obj_t * obj, lv_part_t part)
 425:Drivers/lvgl/src/core/lv_obj_style_gen.h **** {
 426:Drivers/lvgl/src/core/lv_obj_style_gen.h ****     lv_style_value_t v = lv_obj_get_style_prop(obj, part, LV_STYLE_SHADOW_OPA);
 427:Drivers/lvgl/src/core/lv_obj_style_gen.h ****     return (lv_opa_t)v.num;
 428:Drivers/lvgl/src/core/lv_obj_style_gen.h **** }
 429:Drivers/lvgl/src/core/lv_obj_style_gen.h **** 
 430:Drivers/lvgl/src/core/lv_obj_style_gen.h **** static inline lv_opa_t lv_obj_get_style_image_opa(const lv_obj_t * obj, lv_part_t part)
 431:Drivers/lvgl/src/core/lv_obj_style_gen.h **** {
 432:Drivers/lvgl/src/core/lv_obj_style_gen.h ****     lv_style_value_t v = lv_obj_get_style_prop(obj, part, LV_STYLE_IMAGE_OPA);
 433:Drivers/lvgl/src/core/lv_obj_style_gen.h ****     return (lv_opa_t)v.num;
 434:Drivers/lvgl/src/core/lv_obj_style_gen.h **** }
 435:Drivers/lvgl/src/core/lv_obj_style_gen.h **** 
 436:Drivers/lvgl/src/core/lv_obj_style_gen.h **** static inline lv_color_t lv_obj_get_style_image_recolor(const lv_obj_t * obj, lv_part_t part)
 437:Drivers/lvgl/src/core/lv_obj_style_gen.h **** {
 438:Drivers/lvgl/src/core/lv_obj_style_gen.h ****     lv_style_value_t v = lv_obj_get_style_prop(obj, part, LV_STYLE_IMAGE_RECOLOR);
 439:Drivers/lvgl/src/core/lv_obj_style_gen.h ****     return v.color;
 440:Drivers/lvgl/src/core/lv_obj_style_gen.h **** }
 441:Drivers/lvgl/src/core/lv_obj_style_gen.h **** 
 442:Drivers/lvgl/src/core/lv_obj_style_gen.h **** static inline lv_color_t lv_obj_get_style_image_recolor_filtered(const lv_obj_t * obj, lv_part_t pa
 443:Drivers/lvgl/src/core/lv_obj_style_gen.h **** {
 444:Drivers/lvgl/src/core/lv_obj_style_gen.h ****     lv_style_value_t v = lv_obj_style_apply_color_filter(obj, part, lv_obj_get_style_prop(obj, part
 445:Drivers/lvgl/src/core/lv_obj_style_gen.h ****     return v.color;
 446:Drivers/lvgl/src/core/lv_obj_style_gen.h **** }
 447:Drivers/lvgl/src/core/lv_obj_style_gen.h **** 
 448:Drivers/lvgl/src/core/lv_obj_style_gen.h **** static inline lv_opa_t lv_obj_get_style_image_recolor_opa(const lv_obj_t * obj, lv_part_t part)
 449:Drivers/lvgl/src/core/lv_obj_style_gen.h **** {
 450:Drivers/lvgl/src/core/lv_obj_style_gen.h ****     lv_style_value_t v = lv_obj_get_style_prop(obj, part, LV_STYLE_IMAGE_RECOLOR_OPA);
 451:Drivers/lvgl/src/core/lv_obj_style_gen.h ****     return (lv_opa_t)v.num;
 452:Drivers/lvgl/src/core/lv_obj_style_gen.h **** }
 453:Drivers/lvgl/src/core/lv_obj_style_gen.h **** 
 454:Drivers/lvgl/src/core/lv_obj_style_gen.h **** static inline int32_t lv_obj_get_style_line_width(const lv_obj_t * obj, lv_part_t part)
 455:Drivers/lvgl/src/core/lv_obj_style_gen.h **** {
 456:Drivers/lvgl/src/core/lv_obj_style_gen.h ****     lv_style_value_t v = lv_obj_get_style_prop(obj, part, LV_STYLE_LINE_WIDTH);
 457:Drivers/lvgl/src/core/lv_obj_style_gen.h ****     return (int32_t)v.num;
 458:Drivers/lvgl/src/core/lv_obj_style_gen.h **** }
 459:Drivers/lvgl/src/core/lv_obj_style_gen.h **** 
 460:Drivers/lvgl/src/core/lv_obj_style_gen.h **** static inline int32_t lv_obj_get_style_line_dash_width(const lv_obj_t * obj, lv_part_t part)
 461:Drivers/lvgl/src/core/lv_obj_style_gen.h **** {
 462:Drivers/lvgl/src/core/lv_obj_style_gen.h ****     lv_style_value_t v = lv_obj_get_style_prop(obj, part, LV_STYLE_LINE_DASH_WIDTH);
 463:Drivers/lvgl/src/core/lv_obj_style_gen.h ****     return (int32_t)v.num;
 464:Drivers/lvgl/src/core/lv_obj_style_gen.h **** }
 465:Drivers/lvgl/src/core/lv_obj_style_gen.h **** 
 466:Drivers/lvgl/src/core/lv_obj_style_gen.h **** static inline int32_t lv_obj_get_style_line_dash_gap(const lv_obj_t * obj, lv_part_t part)
 467:Drivers/lvgl/src/core/lv_obj_style_gen.h **** {
ARM GAS  /tmp/ccmLrI5c.s 			page 52


 468:Drivers/lvgl/src/core/lv_obj_style_gen.h ****     lv_style_value_t v = lv_obj_get_style_prop(obj, part, LV_STYLE_LINE_DASH_GAP);
 469:Drivers/lvgl/src/core/lv_obj_style_gen.h ****     return (int32_t)v.num;
 470:Drivers/lvgl/src/core/lv_obj_style_gen.h **** }
 471:Drivers/lvgl/src/core/lv_obj_style_gen.h **** 
 472:Drivers/lvgl/src/core/lv_obj_style_gen.h **** static inline bool lv_obj_get_style_line_rounded(const lv_obj_t * obj, lv_part_t part)
 473:Drivers/lvgl/src/core/lv_obj_style_gen.h **** {
 474:Drivers/lvgl/src/core/lv_obj_style_gen.h ****     lv_style_value_t v = lv_obj_get_style_prop(obj, part, LV_STYLE_LINE_ROUNDED);
 475:Drivers/lvgl/src/core/lv_obj_style_gen.h ****     return (bool)v.num;
 476:Drivers/lvgl/src/core/lv_obj_style_gen.h **** }
 477:Drivers/lvgl/src/core/lv_obj_style_gen.h **** 
 478:Drivers/lvgl/src/core/lv_obj_style_gen.h **** static inline lv_color_t lv_obj_get_style_line_color(const lv_obj_t * obj, lv_part_t part)
 479:Drivers/lvgl/src/core/lv_obj_style_gen.h **** {
 480:Drivers/lvgl/src/core/lv_obj_style_gen.h ****     lv_style_value_t v = lv_obj_get_style_prop(obj, part, LV_STYLE_LINE_COLOR);
 481:Drivers/lvgl/src/core/lv_obj_style_gen.h ****     return v.color;
 482:Drivers/lvgl/src/core/lv_obj_style_gen.h **** }
 483:Drivers/lvgl/src/core/lv_obj_style_gen.h **** 
 484:Drivers/lvgl/src/core/lv_obj_style_gen.h **** static inline lv_color_t lv_obj_get_style_line_color_filtered(const lv_obj_t * obj, lv_part_t part)
 485:Drivers/lvgl/src/core/lv_obj_style_gen.h **** {
 486:Drivers/lvgl/src/core/lv_obj_style_gen.h ****     lv_style_value_t v = lv_obj_style_apply_color_filter(obj, part, lv_obj_get_style_prop(obj, part
 487:Drivers/lvgl/src/core/lv_obj_style_gen.h ****     return v.color;
 488:Drivers/lvgl/src/core/lv_obj_style_gen.h **** }
 489:Drivers/lvgl/src/core/lv_obj_style_gen.h **** 
 490:Drivers/lvgl/src/core/lv_obj_style_gen.h **** static inline lv_opa_t lv_obj_get_style_line_opa(const lv_obj_t * obj, lv_part_t part)
 491:Drivers/lvgl/src/core/lv_obj_style_gen.h **** {
 492:Drivers/lvgl/src/core/lv_obj_style_gen.h ****     lv_style_value_t v = lv_obj_get_style_prop(obj, part, LV_STYLE_LINE_OPA);
 493:Drivers/lvgl/src/core/lv_obj_style_gen.h ****     return (lv_opa_t)v.num;
 494:Drivers/lvgl/src/core/lv_obj_style_gen.h **** }
 495:Drivers/lvgl/src/core/lv_obj_style_gen.h **** 
 496:Drivers/lvgl/src/core/lv_obj_style_gen.h **** static inline int32_t lv_obj_get_style_arc_width(const lv_obj_t * obj, lv_part_t part)
 497:Drivers/lvgl/src/core/lv_obj_style_gen.h **** {
 498:Drivers/lvgl/src/core/lv_obj_style_gen.h ****     lv_style_value_t v = lv_obj_get_style_prop(obj, part, LV_STYLE_ARC_WIDTH);
 499:Drivers/lvgl/src/core/lv_obj_style_gen.h ****     return (int32_t)v.num;
 500:Drivers/lvgl/src/core/lv_obj_style_gen.h **** }
 501:Drivers/lvgl/src/core/lv_obj_style_gen.h **** 
 502:Drivers/lvgl/src/core/lv_obj_style_gen.h **** static inline bool lv_obj_get_style_arc_rounded(const lv_obj_t * obj, lv_part_t part)
 503:Drivers/lvgl/src/core/lv_obj_style_gen.h **** {
 504:Drivers/lvgl/src/core/lv_obj_style_gen.h ****     lv_style_value_t v = lv_obj_get_style_prop(obj, part, LV_STYLE_ARC_ROUNDED);
 505:Drivers/lvgl/src/core/lv_obj_style_gen.h ****     return (bool)v.num;
 506:Drivers/lvgl/src/core/lv_obj_style_gen.h **** }
 507:Drivers/lvgl/src/core/lv_obj_style_gen.h **** 
 508:Drivers/lvgl/src/core/lv_obj_style_gen.h **** static inline lv_color_t lv_obj_get_style_arc_color(const lv_obj_t * obj, lv_part_t part)
 509:Drivers/lvgl/src/core/lv_obj_style_gen.h **** {
 510:Drivers/lvgl/src/core/lv_obj_style_gen.h ****     lv_style_value_t v = lv_obj_get_style_prop(obj, part, LV_STYLE_ARC_COLOR);
 511:Drivers/lvgl/src/core/lv_obj_style_gen.h ****     return v.color;
 512:Drivers/lvgl/src/core/lv_obj_style_gen.h **** }
 513:Drivers/lvgl/src/core/lv_obj_style_gen.h **** 
 514:Drivers/lvgl/src/core/lv_obj_style_gen.h **** static inline lv_color_t lv_obj_get_style_arc_color_filtered(const lv_obj_t * obj, lv_part_t part)
 515:Drivers/lvgl/src/core/lv_obj_style_gen.h **** {
 516:Drivers/lvgl/src/core/lv_obj_style_gen.h ****     lv_style_value_t v = lv_obj_style_apply_color_filter(obj, part, lv_obj_get_style_prop(obj, part
 517:Drivers/lvgl/src/core/lv_obj_style_gen.h ****     return v.color;
 518:Drivers/lvgl/src/core/lv_obj_style_gen.h **** }
 519:Drivers/lvgl/src/core/lv_obj_style_gen.h **** 
 520:Drivers/lvgl/src/core/lv_obj_style_gen.h **** static inline lv_opa_t lv_obj_get_style_arc_opa(const lv_obj_t * obj, lv_part_t part)
 521:Drivers/lvgl/src/core/lv_obj_style_gen.h **** {
 522:Drivers/lvgl/src/core/lv_obj_style_gen.h ****     lv_style_value_t v = lv_obj_get_style_prop(obj, part, LV_STYLE_ARC_OPA);
 523:Drivers/lvgl/src/core/lv_obj_style_gen.h ****     return (lv_opa_t)v.num;
 524:Drivers/lvgl/src/core/lv_obj_style_gen.h **** }
ARM GAS  /tmp/ccmLrI5c.s 			page 53


 525:Drivers/lvgl/src/core/lv_obj_style_gen.h **** 
 526:Drivers/lvgl/src/core/lv_obj_style_gen.h **** static inline const void * lv_obj_get_style_arc_image_src(const lv_obj_t * obj, lv_part_t part)
 527:Drivers/lvgl/src/core/lv_obj_style_gen.h **** {
 528:Drivers/lvgl/src/core/lv_obj_style_gen.h ****     lv_style_value_t v = lv_obj_get_style_prop(obj, part, LV_STYLE_ARC_IMAGE_SRC);
 529:Drivers/lvgl/src/core/lv_obj_style_gen.h ****     return (const void *)v.ptr;
 530:Drivers/lvgl/src/core/lv_obj_style_gen.h **** }
 531:Drivers/lvgl/src/core/lv_obj_style_gen.h **** 
 532:Drivers/lvgl/src/core/lv_obj_style_gen.h **** static inline lv_color_t lv_obj_get_style_text_color(const lv_obj_t * obj, lv_part_t part)
 533:Drivers/lvgl/src/core/lv_obj_style_gen.h **** {
 534:Drivers/lvgl/src/core/lv_obj_style_gen.h ****     lv_style_value_t v = lv_obj_get_style_prop(obj, part, LV_STYLE_TEXT_COLOR);
 535:Drivers/lvgl/src/core/lv_obj_style_gen.h ****     return v.color;
 536:Drivers/lvgl/src/core/lv_obj_style_gen.h **** }
 537:Drivers/lvgl/src/core/lv_obj_style_gen.h **** 
 538:Drivers/lvgl/src/core/lv_obj_style_gen.h **** static inline lv_color_t lv_obj_get_style_text_color_filtered(const lv_obj_t * obj, lv_part_t part)
 539:Drivers/lvgl/src/core/lv_obj_style_gen.h **** {
 540:Drivers/lvgl/src/core/lv_obj_style_gen.h ****     lv_style_value_t v = lv_obj_style_apply_color_filter(obj, part, lv_obj_get_style_prop(obj, part
 541:Drivers/lvgl/src/core/lv_obj_style_gen.h ****     return v.color;
 542:Drivers/lvgl/src/core/lv_obj_style_gen.h **** }
 543:Drivers/lvgl/src/core/lv_obj_style_gen.h **** 
 544:Drivers/lvgl/src/core/lv_obj_style_gen.h **** static inline lv_opa_t lv_obj_get_style_text_opa(const lv_obj_t * obj, lv_part_t part)
 545:Drivers/lvgl/src/core/lv_obj_style_gen.h **** {
 546:Drivers/lvgl/src/core/lv_obj_style_gen.h ****     lv_style_value_t v = lv_obj_get_style_prop(obj, part, LV_STYLE_TEXT_OPA);
 547:Drivers/lvgl/src/core/lv_obj_style_gen.h ****     return (lv_opa_t)v.num;
 548:Drivers/lvgl/src/core/lv_obj_style_gen.h **** }
 549:Drivers/lvgl/src/core/lv_obj_style_gen.h **** 
 550:Drivers/lvgl/src/core/lv_obj_style_gen.h **** static inline const lv_font_t * lv_obj_get_style_text_font(const lv_obj_t * obj, lv_part_t part)
 551:Drivers/lvgl/src/core/lv_obj_style_gen.h **** {
 552:Drivers/lvgl/src/core/lv_obj_style_gen.h ****     lv_style_value_t v = lv_obj_get_style_prop(obj, part, LV_STYLE_TEXT_FONT);
 553:Drivers/lvgl/src/core/lv_obj_style_gen.h ****     return (const lv_font_t *)v.ptr;
 554:Drivers/lvgl/src/core/lv_obj_style_gen.h **** }
 555:Drivers/lvgl/src/core/lv_obj_style_gen.h **** 
 556:Drivers/lvgl/src/core/lv_obj_style_gen.h **** static inline int32_t lv_obj_get_style_text_letter_space(const lv_obj_t * obj, lv_part_t part)
 557:Drivers/lvgl/src/core/lv_obj_style_gen.h **** {
 558:Drivers/lvgl/src/core/lv_obj_style_gen.h ****     lv_style_value_t v = lv_obj_get_style_prop(obj, part, LV_STYLE_TEXT_LETTER_SPACE);
 559:Drivers/lvgl/src/core/lv_obj_style_gen.h ****     return (int32_t)v.num;
 560:Drivers/lvgl/src/core/lv_obj_style_gen.h **** }
 561:Drivers/lvgl/src/core/lv_obj_style_gen.h **** 
 562:Drivers/lvgl/src/core/lv_obj_style_gen.h **** static inline int32_t lv_obj_get_style_text_line_space(const lv_obj_t * obj, lv_part_t part)
 563:Drivers/lvgl/src/core/lv_obj_style_gen.h **** {
 564:Drivers/lvgl/src/core/lv_obj_style_gen.h ****     lv_style_value_t v = lv_obj_get_style_prop(obj, part, LV_STYLE_TEXT_LINE_SPACE);
 565:Drivers/lvgl/src/core/lv_obj_style_gen.h ****     return (int32_t)v.num;
 566:Drivers/lvgl/src/core/lv_obj_style_gen.h **** }
 567:Drivers/lvgl/src/core/lv_obj_style_gen.h **** 
 568:Drivers/lvgl/src/core/lv_obj_style_gen.h **** static inline lv_text_decor_t lv_obj_get_style_text_decor(const lv_obj_t * obj, lv_part_t part)
 569:Drivers/lvgl/src/core/lv_obj_style_gen.h **** {
 570:Drivers/lvgl/src/core/lv_obj_style_gen.h ****     lv_style_value_t v = lv_obj_get_style_prop(obj, part, LV_STYLE_TEXT_DECOR);
 571:Drivers/lvgl/src/core/lv_obj_style_gen.h ****     return (lv_text_decor_t)v.num;
 572:Drivers/lvgl/src/core/lv_obj_style_gen.h **** }
 573:Drivers/lvgl/src/core/lv_obj_style_gen.h **** 
 574:Drivers/lvgl/src/core/lv_obj_style_gen.h **** static inline lv_text_align_t lv_obj_get_style_text_align(const lv_obj_t * obj, lv_part_t part)
 575:Drivers/lvgl/src/core/lv_obj_style_gen.h **** {
 576:Drivers/lvgl/src/core/lv_obj_style_gen.h ****     lv_style_value_t v = lv_obj_get_style_prop(obj, part, LV_STYLE_TEXT_ALIGN);
 577:Drivers/lvgl/src/core/lv_obj_style_gen.h ****     return (lv_text_align_t)v.num;
 578:Drivers/lvgl/src/core/lv_obj_style_gen.h **** }
 579:Drivers/lvgl/src/core/lv_obj_style_gen.h **** 
 580:Drivers/lvgl/src/core/lv_obj_style_gen.h **** static inline lv_color_t lv_obj_get_style_text_outline_stroke_color(const lv_obj_t * obj, lv_part_t
 581:Drivers/lvgl/src/core/lv_obj_style_gen.h **** {
ARM GAS  /tmp/ccmLrI5c.s 			page 54


 582:Drivers/lvgl/src/core/lv_obj_style_gen.h ****     lv_style_value_t v = lv_obj_get_style_prop(obj, part, LV_STYLE_TEXT_OUTLINE_STROKE_COLOR);
 583:Drivers/lvgl/src/core/lv_obj_style_gen.h ****     return v.color;
 584:Drivers/lvgl/src/core/lv_obj_style_gen.h **** }
 585:Drivers/lvgl/src/core/lv_obj_style_gen.h **** 
 586:Drivers/lvgl/src/core/lv_obj_style_gen.h **** static inline lv_color_t lv_obj_get_style_text_outline_stroke_color_filtered(const lv_obj_t * obj, 
 587:Drivers/lvgl/src/core/lv_obj_style_gen.h **** {
 588:Drivers/lvgl/src/core/lv_obj_style_gen.h ****     lv_style_value_t v = lv_obj_style_apply_color_filter(obj, part, lv_obj_get_style_prop(obj, part
 589:Drivers/lvgl/src/core/lv_obj_style_gen.h ****     return v.color;
 590:Drivers/lvgl/src/core/lv_obj_style_gen.h **** }
 591:Drivers/lvgl/src/core/lv_obj_style_gen.h **** 
 592:Drivers/lvgl/src/core/lv_obj_style_gen.h **** static inline int32_t lv_obj_get_style_text_outline_stroke_width(const lv_obj_t * obj, lv_part_t pa
 593:Drivers/lvgl/src/core/lv_obj_style_gen.h **** {
 594:Drivers/lvgl/src/core/lv_obj_style_gen.h ****     lv_style_value_t v = lv_obj_get_style_prop(obj, part, LV_STYLE_TEXT_OUTLINE_STROKE_WIDTH);
 595:Drivers/lvgl/src/core/lv_obj_style_gen.h ****     return (int32_t)v.num;
 596:Drivers/lvgl/src/core/lv_obj_style_gen.h **** }
 597:Drivers/lvgl/src/core/lv_obj_style_gen.h **** 
 598:Drivers/lvgl/src/core/lv_obj_style_gen.h **** static inline lv_opa_t lv_obj_get_style_text_outline_stroke_opa(const lv_obj_t * obj, lv_part_t par
 599:Drivers/lvgl/src/core/lv_obj_style_gen.h **** {
 600:Drivers/lvgl/src/core/lv_obj_style_gen.h ****     lv_style_value_t v = lv_obj_get_style_prop(obj, part, LV_STYLE_TEXT_OUTLINE_STROKE_OPA);
 601:Drivers/lvgl/src/core/lv_obj_style_gen.h ****     return (lv_opa_t)v.num;
 602:Drivers/lvgl/src/core/lv_obj_style_gen.h **** }
 603:Drivers/lvgl/src/core/lv_obj_style_gen.h **** 
 604:Drivers/lvgl/src/core/lv_obj_style_gen.h **** static inline int32_t lv_obj_get_style_radius(const lv_obj_t * obj, lv_part_t part)
 605:Drivers/lvgl/src/core/lv_obj_style_gen.h **** {
 606:Drivers/lvgl/src/core/lv_obj_style_gen.h ****     lv_style_value_t v = lv_obj_get_style_prop(obj, part, LV_STYLE_RADIUS);
 607:Drivers/lvgl/src/core/lv_obj_style_gen.h ****     return (int32_t)v.num;
 608:Drivers/lvgl/src/core/lv_obj_style_gen.h **** }
 609:Drivers/lvgl/src/core/lv_obj_style_gen.h **** 
 610:Drivers/lvgl/src/core/lv_obj_style_gen.h **** static inline int32_t lv_obj_get_style_radial_offset(const lv_obj_t * obj, lv_part_t part)
 611:Drivers/lvgl/src/core/lv_obj_style_gen.h **** {
 612:Drivers/lvgl/src/core/lv_obj_style_gen.h ****     lv_style_value_t v = lv_obj_get_style_prop(obj, part, LV_STYLE_RADIAL_OFFSET);
 613:Drivers/lvgl/src/core/lv_obj_style_gen.h ****     return (int32_t)v.num;
 614:Drivers/lvgl/src/core/lv_obj_style_gen.h **** }
 615:Drivers/lvgl/src/core/lv_obj_style_gen.h **** 
 616:Drivers/lvgl/src/core/lv_obj_style_gen.h **** static inline bool lv_obj_get_style_clip_corner(const lv_obj_t * obj, lv_part_t part)
 617:Drivers/lvgl/src/core/lv_obj_style_gen.h **** {
 618:Drivers/lvgl/src/core/lv_obj_style_gen.h ****     lv_style_value_t v = lv_obj_get_style_prop(obj, part, LV_STYLE_CLIP_CORNER);
 619:Drivers/lvgl/src/core/lv_obj_style_gen.h ****     return (bool)v.num;
 620:Drivers/lvgl/src/core/lv_obj_style_gen.h **** }
 621:Drivers/lvgl/src/core/lv_obj_style_gen.h **** 
 622:Drivers/lvgl/src/core/lv_obj_style_gen.h **** static inline lv_opa_t lv_obj_get_style_opa(const lv_obj_t * obj, lv_part_t part)
 623:Drivers/lvgl/src/core/lv_obj_style_gen.h **** {
 624:Drivers/lvgl/src/core/lv_obj_style_gen.h ****     lv_style_value_t v = lv_obj_get_style_prop(obj, part, LV_STYLE_OPA);
 625:Drivers/lvgl/src/core/lv_obj_style_gen.h ****     return (lv_opa_t)v.num;
 626:Drivers/lvgl/src/core/lv_obj_style_gen.h **** }
 627:Drivers/lvgl/src/core/lv_obj_style_gen.h **** 
 628:Drivers/lvgl/src/core/lv_obj_style_gen.h **** static inline lv_opa_t lv_obj_get_style_opa_layered(const lv_obj_t * obj, lv_part_t part)
 629:Drivers/lvgl/src/core/lv_obj_style_gen.h **** {
 630:Drivers/lvgl/src/core/lv_obj_style_gen.h ****     lv_style_value_t v = lv_obj_get_style_prop(obj, part, LV_STYLE_OPA_LAYERED);
 631:Drivers/lvgl/src/core/lv_obj_style_gen.h ****     return (lv_opa_t)v.num;
 632:Drivers/lvgl/src/core/lv_obj_style_gen.h **** }
 633:Drivers/lvgl/src/core/lv_obj_style_gen.h **** 
 634:Drivers/lvgl/src/core/lv_obj_style_gen.h **** static inline const lv_color_filter_dsc_t * lv_obj_get_style_color_filter_dsc(const lv_obj_t * obj,
 635:Drivers/lvgl/src/core/lv_obj_style_gen.h **** {
 636:Drivers/lvgl/src/core/lv_obj_style_gen.h ****     lv_style_value_t v = lv_obj_get_style_prop(obj, part, LV_STYLE_COLOR_FILTER_DSC);
 637:Drivers/lvgl/src/core/lv_obj_style_gen.h ****     return (const lv_color_filter_dsc_t *)v.ptr;
 638:Drivers/lvgl/src/core/lv_obj_style_gen.h **** }
ARM GAS  /tmp/ccmLrI5c.s 			page 55


 639:Drivers/lvgl/src/core/lv_obj_style_gen.h **** 
 640:Drivers/lvgl/src/core/lv_obj_style_gen.h **** static inline lv_opa_t lv_obj_get_style_color_filter_opa(const lv_obj_t * obj, lv_part_t part)
 641:Drivers/lvgl/src/core/lv_obj_style_gen.h **** {
 642:Drivers/lvgl/src/core/lv_obj_style_gen.h ****     lv_style_value_t v = lv_obj_get_style_prop(obj, part, LV_STYLE_COLOR_FILTER_OPA);
 643:Drivers/lvgl/src/core/lv_obj_style_gen.h ****     return (lv_opa_t)v.num;
 644:Drivers/lvgl/src/core/lv_obj_style_gen.h **** }
 645:Drivers/lvgl/src/core/lv_obj_style_gen.h **** 
 646:Drivers/lvgl/src/core/lv_obj_style_gen.h **** static inline lv_color_t lv_obj_get_style_recolor(const lv_obj_t * obj, lv_part_t part)
 647:Drivers/lvgl/src/core/lv_obj_style_gen.h **** {
 648:Drivers/lvgl/src/core/lv_obj_style_gen.h ****     lv_style_value_t v = lv_obj_get_style_prop(obj, part, LV_STYLE_RECOLOR);
 649:Drivers/lvgl/src/core/lv_obj_style_gen.h ****     return v.color;
 650:Drivers/lvgl/src/core/lv_obj_style_gen.h **** }
 651:Drivers/lvgl/src/core/lv_obj_style_gen.h **** 
 652:Drivers/lvgl/src/core/lv_obj_style_gen.h **** static inline lv_opa_t lv_obj_get_style_recolor_opa(const lv_obj_t * obj, lv_part_t part)
 653:Drivers/lvgl/src/core/lv_obj_style_gen.h **** {
 654:Drivers/lvgl/src/core/lv_obj_style_gen.h ****     lv_style_value_t v = lv_obj_get_style_prop(obj, part, LV_STYLE_RECOLOR_OPA);
 655:Drivers/lvgl/src/core/lv_obj_style_gen.h ****     return (lv_opa_t)v.num;
 656:Drivers/lvgl/src/core/lv_obj_style_gen.h **** }
 657:Drivers/lvgl/src/core/lv_obj_style_gen.h **** 
 658:Drivers/lvgl/src/core/lv_obj_style_gen.h **** static inline const lv_anim_t * lv_obj_get_style_anim(const lv_obj_t * obj, lv_part_t part)
 659:Drivers/lvgl/src/core/lv_obj_style_gen.h **** {
 660:Drivers/lvgl/src/core/lv_obj_style_gen.h ****     lv_style_value_t v = lv_obj_get_style_prop(obj, part, LV_STYLE_ANIM);
 661:Drivers/lvgl/src/core/lv_obj_style_gen.h ****     return (const lv_anim_t *)v.ptr;
 662:Drivers/lvgl/src/core/lv_obj_style_gen.h **** }
 663:Drivers/lvgl/src/core/lv_obj_style_gen.h **** 
 664:Drivers/lvgl/src/core/lv_obj_style_gen.h **** static inline uint32_t lv_obj_get_style_anim_duration(const lv_obj_t * obj, lv_part_t part)
 665:Drivers/lvgl/src/core/lv_obj_style_gen.h **** {
 666:Drivers/lvgl/src/core/lv_obj_style_gen.h ****     lv_style_value_t v = lv_obj_get_style_prop(obj, part, LV_STYLE_ANIM_DURATION);
 667:Drivers/lvgl/src/core/lv_obj_style_gen.h ****     return (uint32_t)v.num;
 668:Drivers/lvgl/src/core/lv_obj_style_gen.h **** }
 669:Drivers/lvgl/src/core/lv_obj_style_gen.h **** 
 670:Drivers/lvgl/src/core/lv_obj_style_gen.h **** static inline const lv_style_transition_dsc_t * lv_obj_get_style_transition(const lv_obj_t * obj, l
 671:Drivers/lvgl/src/core/lv_obj_style_gen.h **** {
 672:Drivers/lvgl/src/core/lv_obj_style_gen.h ****     lv_style_value_t v = lv_obj_get_style_prop(obj, part, LV_STYLE_TRANSITION);
 673:Drivers/lvgl/src/core/lv_obj_style_gen.h ****     return (const lv_style_transition_dsc_t *)v.ptr;
 674:Drivers/lvgl/src/core/lv_obj_style_gen.h **** }
 675:Drivers/lvgl/src/core/lv_obj_style_gen.h **** 
 676:Drivers/lvgl/src/core/lv_obj_style_gen.h **** static inline lv_blend_mode_t lv_obj_get_style_blend_mode(const lv_obj_t * obj, lv_part_t part)
 677:Drivers/lvgl/src/core/lv_obj_style_gen.h **** {
 678:Drivers/lvgl/src/core/lv_obj_style_gen.h ****     lv_style_value_t v = lv_obj_get_style_prop(obj, part, LV_STYLE_BLEND_MODE);
 679:Drivers/lvgl/src/core/lv_obj_style_gen.h ****     return (lv_blend_mode_t)v.num;
 680:Drivers/lvgl/src/core/lv_obj_style_gen.h **** }
 681:Drivers/lvgl/src/core/lv_obj_style_gen.h **** 
 682:Drivers/lvgl/src/core/lv_obj_style_gen.h **** static inline uint16_t lv_obj_get_style_layout(const lv_obj_t * obj, lv_part_t part)
 683:Drivers/lvgl/src/core/lv_obj_style_gen.h **** {
 684:Drivers/lvgl/src/core/lv_obj_style_gen.h ****     lv_style_value_t v = lv_obj_get_style_prop(obj, part, LV_STYLE_LAYOUT);
 685:Drivers/lvgl/src/core/lv_obj_style_gen.h ****     return (uint16_t)v.num;
 686:Drivers/lvgl/src/core/lv_obj_style_gen.h **** }
 687:Drivers/lvgl/src/core/lv_obj_style_gen.h **** 
 688:Drivers/lvgl/src/core/lv_obj_style_gen.h **** static inline lv_base_dir_t lv_obj_get_style_base_dir(const lv_obj_t * obj, lv_part_t part)
 1226              		.loc 3 688 29 view .LVU316
 1227              	.LBB98:
 689:Drivers/lvgl/src/core/lv_obj_style_gen.h **** {
 690:Drivers/lvgl/src/core/lv_obj_style_gen.h ****     lv_style_value_t v = lv_obj_get_style_prop(obj, part, LV_STYLE_BASE_DIR);
 1228              		.loc 3 690 5 view .LVU317
 1229              		.loc 3 690 26 is_stmt 0 view .LVU318
 1230 000a 2722     		movs	r2, #39
ARM GAS  /tmp/ccmLrI5c.s 			page 56


 1231 000c 0021     		movs	r1, #0
 1232 000e FFF7FEFF 		bl	lv_obj_get_style_prop
 1233              	.LVL121:
 1234              		.loc 3 690 26 view .LVU319
 1235 0012 0190     		str	r0, [sp, #4]
 691:Drivers/lvgl/src/core/lv_obj_style_gen.h ****     return (lv_base_dir_t)v.num;
 1236              		.loc 3 691 5 is_stmt 1 view .LVU320
 1237              		.loc 3 691 12 is_stmt 0 view .LVU321
 1238 0014 C0B2     		uxtb	r0, r0
 1239              	.LVL122:
 1240              		.loc 3 691 12 view .LVU322
 1241              	.LBE98:
 1242              	.LBE97:
 170:Drivers/lvgl/src/core/lv_obj_scroll.c ****         if(obj->spec_attr == NULL) return 0;
 1243              		.loc 1 170 7 discriminator 1 view .LVU323
 1244 0016 0128     		cmp	r0, #1
 1245 0018 08D0     		beq	.L65
 171:Drivers/lvgl/src/core/lv_obj_scroll.c ****         return -obj->spec_attr->scroll.x;
 1246              		.loc 1 171 9 is_stmt 1 view .LVU324
 171:Drivers/lvgl/src/core/lv_obj_scroll.c ****         return -obj->spec_attr->scroll.x;
 1247              		.loc 1 171 15 is_stmt 0 view .LVU325
 1248 001a AB68     		ldr	r3, [r5, #8]
 171:Drivers/lvgl/src/core/lv_obj_scroll.c ****         return -obj->spec_attr->scroll.x;
 1249              		.loc 1 171 11 view .LVU326
 1250 001c 002B     		cmp	r3, #0
 1251 001e 4ED0     		beq	.L71
 172:Drivers/lvgl/src/core/lv_obj_scroll.c ****     }
 1252              		.loc 1 172 9 is_stmt 1 view .LVU327
 172:Drivers/lvgl/src/core/lv_obj_scroll.c ****     }
 1253              		.loc 1 172 39 is_stmt 0 view .LVU328
 1254 0020 186A     		ldr	r0, [r3, #32]
 172:Drivers/lvgl/src/core/lv_obj_scroll.c ****     }
 1255              		.loc 1 172 16 view .LVU329
 1256 0022 4042     		rsbs	r0, r0, #0
 1257              	.L62:
 205:Drivers/lvgl/src/core/lv_obj_scroll.c **** 
 1258              		.loc 1 205 1 view .LVU330
 1259 0024 03B0     		add	sp, sp, #12
 1260              	.LCFI25:
 1261              		.cfi_def_cfa_offset 36
 1262              		@ sp needed
 1263 0026 BDE8F08F 		pop	{r4, r5, r6, r7, r8, r9, r10, fp, pc}
 1264              	.LVL123:
 1265              	.L64:
 1266              	.LCFI26:
 1267              		.cfi_def_cfa_offset 0
 1268              		.cfi_restore 4
 1269              		.cfi_restore 5
 1270              		.cfi_restore 6
 1271              		.cfi_restore 7
 1272              		.cfi_restore 8
 1273              		.cfi_restore 9
 1274              		.cfi_restore 10
 1275              		.cfi_restore 11
 1276              		.cfi_restore 14
 166:Drivers/lvgl/src/core/lv_obj_scroll.c **** 
 1277              		.loc 1 166 5 is_stmt 1 discriminator 1 view .LVU331
ARM GAS  /tmp/ccmLrI5c.s 			page 57


 166:Drivers/lvgl/src/core/lv_obj_scroll.c **** 
 1278              		.loc 1 166 5 discriminator 1 view .LVU332
 166:Drivers/lvgl/src/core/lv_obj_scroll.c **** 
 1279              		.loc 1 166 5 discriminator 1 view .LVU333
 166:Drivers/lvgl/src/core/lv_obj_scroll.c **** 
 1280              		.loc 1 166 5 discriminator 1 view .LVU334
 166:Drivers/lvgl/src/core/lv_obj_scroll.c **** 
 1281              		.loc 1 166 5 discriminator 1 view .LVU335
 1282 002a FEE7     		b	.L64
 1283              	.LVL124:
 1284              	.L65:
 1285              	.LCFI27:
 1286              		.cfi_def_cfa_offset 48
 1287              		.cfi_offset 4, -36
 1288              		.cfi_offset 5, -32
 1289              		.cfi_offset 6, -28
 1290              		.cfi_offset 7, -24
 1291              		.cfi_offset 8, -20
 1292              		.cfi_offset 9, -16
 1293              		.cfi_offset 10, -12
 1294              		.cfi_offset 11, -8
 1295              		.cfi_offset 14, -4
 176:Drivers/lvgl/src/core/lv_obj_scroll.c ****     int32_t space_left = lv_obj_get_style_space_left(obj, LV_PART_MAIN);
 1296              		.loc 1 176 5 view .LVU336
 176:Drivers/lvgl/src/core/lv_obj_scroll.c ****     int32_t space_left = lv_obj_get_style_space_left(obj, LV_PART_MAIN);
 1297              		.loc 1 176 27 is_stmt 0 view .LVU337
 1298 002c 0021     		movs	r1, #0
 1299 002e 2846     		mov	r0, r5
 1300 0030 FFF7FEFF 		bl	lv_obj_get_style_space_right
 1301              	.LVL125:
 1302 0034 8146     		mov	r9, r0
 1303              	.LVL126:
 177:Drivers/lvgl/src/core/lv_obj_scroll.c **** 
 1304              		.loc 1 177 5 is_stmt 1 view .LVU338
 177:Drivers/lvgl/src/core/lv_obj_scroll.c **** 
 1305              		.loc 1 177 26 is_stmt 0 view .LVU339
 1306 0036 0021     		movs	r1, #0
 1307 0038 2846     		mov	r0, r5
 1308              	.LVL127:
 177:Drivers/lvgl/src/core/lv_obj_scroll.c **** 
 1309              		.loc 1 177 26 view .LVU340
 1310 003a FFF7FEFF 		bl	lv_obj_get_style_space_left
 1311              	.LVL128:
 1312 003e 8046     		mov	r8, r0
 1313              	.LVL129:
 179:Drivers/lvgl/src/core/lv_obj_scroll.c **** 
 1314              		.loc 1 179 5 is_stmt 1 view .LVU341
 181:Drivers/lvgl/src/core/lv_obj_scroll.c ****     int32_t x1 = LV_COORD_MAX;
 1315              		.loc 1 181 5 view .LVU342
 182:Drivers/lvgl/src/core/lv_obj_scroll.c ****     uint32_t child_cnt = lv_obj_get_child_count(obj);
 1316              		.loc 1 182 5 view .LVU343
 183:Drivers/lvgl/src/core/lv_obj_scroll.c ****     for(i = 0; i < child_cnt; i++) {
 1317              		.loc 1 183 5 view .LVU344
 183:Drivers/lvgl/src/core/lv_obj_scroll.c ****     for(i = 0; i < child_cnt; i++) {
 1318              		.loc 1 183 26 is_stmt 0 view .LVU345
 1319 0040 2846     		mov	r0, r5
 1320              	.LVL130:
ARM GAS  /tmp/ccmLrI5c.s 			page 58


 183:Drivers/lvgl/src/core/lv_obj_scroll.c ****     for(i = 0; i < child_cnt; i++) {
 1321              		.loc 1 183 26 view .LVU346
 1322 0042 FFF7FEFF 		bl	lv_obj_get_child_count
 1323              	.LVL131:
 1324 0046 8246     		mov	r10, r0
 1325              	.LVL132:
 184:Drivers/lvgl/src/core/lv_obj_scroll.c ****         const lv_obj_t * child = obj->spec_attr->children[i];
 1326              		.loc 1 184 5 is_stmt 1 view .LVU347
 182:Drivers/lvgl/src/core/lv_obj_scroll.c ****     uint32_t child_cnt = lv_obj_get_child_count(obj);
 1327              		.loc 1 182 13 is_stmt 0 view .LVU348
 1328 0048 6FF0604B 		mvn	fp, #-536870912
 184:Drivers/lvgl/src/core/lv_obj_scroll.c ****         const lv_obj_t * child = obj->spec_attr->children[i];
 1329              		.loc 1 184 11 view .LVU349
 1330 004c 0024     		movs	r4, #0
 184:Drivers/lvgl/src/core/lv_obj_scroll.c ****         const lv_obj_t * child = obj->spec_attr->children[i];
 1331              		.loc 1 184 5 view .LVU350
 1332 004e 00E0     		b	.L67
 1333              	.LVL133:
 1334              	.L68:
 184:Drivers/lvgl/src/core/lv_obj_scroll.c ****         const lv_obj_t * child = obj->spec_attr->children[i];
 1335              		.loc 1 184 32 is_stmt 1 discriminator 2 view .LVU351
 1336 0050 0134     		adds	r4, r4, #1
 1337              	.LVL134:
 1338              	.L67:
 184:Drivers/lvgl/src/core/lv_obj_scroll.c ****         const lv_obj_t * child = obj->spec_attr->children[i];
 1339              		.loc 1 184 18 discriminator 1 view .LVU352
 1340 0052 5445     		cmp	r4, r10
 1341 0054 15D2     		bcs	.L75
 1342              	.LBB99:
 185:Drivers/lvgl/src/core/lv_obj_scroll.c ****         if(lv_obj_has_flag_any(child,  LV_OBJ_FLAG_HIDDEN | LV_OBJ_FLAG_FLOATING)) continue;
 1343              		.loc 1 185 9 view .LVU353
 185:Drivers/lvgl/src/core/lv_obj_scroll.c ****         if(lv_obj_has_flag_any(child,  LV_OBJ_FLAG_HIDDEN | LV_OBJ_FLAG_FLOATING)) continue;
 1344              		.loc 1 185 37 is_stmt 0 view .LVU354
 1345 0056 AB68     		ldr	r3, [r5, #8]
 185:Drivers/lvgl/src/core/lv_obj_scroll.c ****         if(lv_obj_has_flag_any(child,  LV_OBJ_FLAG_HIDDEN | LV_OBJ_FLAG_FLOATING)) continue;
 1346              		.loc 1 185 48 view .LVU355
 1347 0058 1B68     		ldr	r3, [r3]
 185:Drivers/lvgl/src/core/lv_obj_scroll.c ****         if(lv_obj_has_flag_any(child,  LV_OBJ_FLAG_HIDDEN | LV_OBJ_FLAG_FLOATING)) continue;
 1348              		.loc 1 185 26 view .LVU356
 1349 005a 53F82460 		ldr	r6, [r3, r4, lsl #2]
 1350              	.LVL135:
 186:Drivers/lvgl/src/core/lv_obj_scroll.c **** 
 1351              		.loc 1 186 9 is_stmt 1 view .LVU357
 186:Drivers/lvgl/src/core/lv_obj_scroll.c **** 
 1352              		.loc 1 186 12 is_stmt 0 view .LVU358
 1353 005e 1949     		ldr	r1, .L76
 1354 0060 3046     		mov	r0, r6
 1355 0062 FFF7FEFF 		bl	lv_obj_has_flag_any
 1356              	.LVL136:
 186:Drivers/lvgl/src/core/lv_obj_scroll.c **** 
 1357              		.loc 1 186 11 discriminator 1 view .LVU359
 1358 0066 0028     		cmp	r0, #0
 1359 0068 F2D1     		bne	.L68
 188:Drivers/lvgl/src/core/lv_obj_scroll.c ****         x1 = LV_MIN(x1, tmp_x);
 1360              		.loc 1 188 9 is_stmt 1 view .LVU360
 188:Drivers/lvgl/src/core/lv_obj_scroll.c ****         x1 = LV_MIN(x1, tmp_x);
 1361              		.loc 1 188 38 is_stmt 0 view .LVU361
ARM GAS  /tmp/ccmLrI5c.s 			page 59


 1362 006a 7769     		ldr	r7, [r6, #20]
 1363              	.LVL137:
 1364              	.LBB100:
 1365              	.LBI100:
 208:Drivers/lvgl/src/core/lv_obj_style_gen.h **** {
 1366              		.loc 3 208 23 is_stmt 1 view .LVU362
 1367              	.LBB101:
 210:Drivers/lvgl/src/core/lv_obj_style_gen.h ****     return (int32_t)v.num;
 1368              		.loc 3 210 5 view .LVU363
 210:Drivers/lvgl/src/core/lv_obj_style_gen.h ****     return (int32_t)v.num;
 1369              		.loc 3 210 26 is_stmt 0 view .LVU364
 1370 006c 1A22     		movs	r2, #26
 1371 006e 0021     		movs	r1, #0
 1372 0070 3046     		mov	r0, r6
 1373 0072 FFF7FEFF 		bl	lv_obj_get_style_prop
 1374              	.LVL138:
 1375 0076 0190     		str	r0, [sp, #4]
 211:Drivers/lvgl/src/core/lv_obj_style_gen.h **** }
 1376              		.loc 3 211 5 is_stmt 1 view .LVU365
 1377              	.LVL139:
 211:Drivers/lvgl/src/core/lv_obj_style_gen.h **** }
 1378              		.loc 3 211 5 is_stmt 0 view .LVU366
 1379              	.LBE101:
 1380              	.LBE100:
 188:Drivers/lvgl/src/core/lv_obj_scroll.c ****         x1 = LV_MIN(x1, tmp_x);
 1381              		.loc 1 188 17 discriminator 1 view .LVU367
 1382 0078 3F1A     		subs	r7, r7, r0
 1383              	.LVL140:
 189:Drivers/lvgl/src/core/lv_obj_scroll.c ****     }
 1384              		.loc 1 189 9 is_stmt 1 view .LVU368
 189:Drivers/lvgl/src/core/lv_obj_scroll.c ****     }
 1385              		.loc 1 189 12 is_stmt 0 view .LVU369
 1386 007a BB45     		cmp	fp, r7
 1387 007c A8BF     		it	ge
 1388 007e BB46     		movge	fp, r7
 1389              	.LVL141:
 189:Drivers/lvgl/src/core/lv_obj_scroll.c ****     }
 1390              		.loc 1 189 12 view .LVU370
 1391 0080 E6E7     		b	.L68
 1392              	.LVL142:
 1393              	.L75:
 189:Drivers/lvgl/src/core/lv_obj_scroll.c ****     }
 1394              		.loc 1 189 12 view .LVU371
 1395              	.LBE99:
 192:Drivers/lvgl/src/core/lv_obj_scroll.c ****         child_res = x1;
 1396              		.loc 1 192 5 is_stmt 1 view .LVU372
 192:Drivers/lvgl/src/core/lv_obj_scroll.c ****         child_res = x1;
 1397              		.loc 1 192 7 is_stmt 0 view .LVU373
 1398 0082 6FF06043 		mvn	r3, #-536870912
 1399 0086 9B45     		cmp	fp, r3
 1400 0088 17D0     		beq	.L72
 193:Drivers/lvgl/src/core/lv_obj_scroll.c ****         child_res = (obj->coords.x1 + space_left) - child_res;
 1401              		.loc 1 193 9 is_stmt 1 view .LVU374
 1402              	.LVL143:
 194:Drivers/lvgl/src/core/lv_obj_scroll.c ****     }
 1403              		.loc 1 194 9 view .LVU375
 194:Drivers/lvgl/src/core/lv_obj_scroll.c ****     }
ARM GAS  /tmp/ccmLrI5c.s 			page 60


 1404              		.loc 1 194 33 is_stmt 0 view .LVU376
 1405 008a 6B69     		ldr	r3, [r5, #20]
 194:Drivers/lvgl/src/core/lv_obj_scroll.c ****     }
 1406              		.loc 1 194 37 view .LVU377
 1407 008c 4344     		add	r3, r3, r8
 194:Drivers/lvgl/src/core/lv_obj_scroll.c ****     }
 1408              		.loc 1 194 19 view .LVU378
 1409 008e A3EB0B06 		sub	r6, r3, fp
 1410              	.LVL144:
 1411              	.L70:
 200:Drivers/lvgl/src/core/lv_obj_scroll.c ****     self_w = self_w - (lv_obj_get_width(obj) - space_right - space_left);
 1412              		.loc 1 200 5 is_stmt 1 view .LVU379
 200:Drivers/lvgl/src/core/lv_obj_scroll.c ****     self_w = self_w - (lv_obj_get_width(obj) - space_right - space_left);
 1413              		.loc 1 200 22 is_stmt 0 view .LVU380
 1414 0092 2846     		mov	r0, r5
 1415 0094 FFF7FEFF 		bl	lv_obj_get_self_width
 1416              	.LVL145:
 1417 0098 0446     		mov	r4, r0
 1418              	.LVL146:
 201:Drivers/lvgl/src/core/lv_obj_scroll.c ****     self_w += lv_obj_get_scroll_x(obj);
 1419              		.loc 1 201 5 is_stmt 1 view .LVU381
 201:Drivers/lvgl/src/core/lv_obj_scroll.c ****     self_w += lv_obj_get_scroll_x(obj);
 1420              		.loc 1 201 24 is_stmt 0 view .LVU382
 1421 009a 2846     		mov	r0, r5
 1422              	.LVL147:
 201:Drivers/lvgl/src/core/lv_obj_scroll.c ****     self_w += lv_obj_get_scroll_x(obj);
 1423              		.loc 1 201 24 view .LVU383
 1424 009c FFF7FEFF 		bl	lv_obj_get_width
 1425              	.LVL148:
 201:Drivers/lvgl/src/core/lv_obj_scroll.c ****     self_w += lv_obj_get_scroll_x(obj);
 1426              		.loc 1 201 46 discriminator 1 view .LVU384
 1427 00a0 A0EB0903 		sub	r3, r0, r9
 201:Drivers/lvgl/src/core/lv_obj_scroll.c ****     self_w += lv_obj_get_scroll_x(obj);
 1428              		.loc 1 201 60 discriminator 1 view .LVU385
 1429 00a4 A3EB0803 		sub	r3, r3, r8
 201:Drivers/lvgl/src/core/lv_obj_scroll.c ****     self_w += lv_obj_get_scroll_x(obj);
 1430              		.loc 1 201 12 discriminator 1 view .LVU386
 1431 00a8 E41A     		subs	r4, r4, r3
 1432              	.LVL149:
 202:Drivers/lvgl/src/core/lv_obj_scroll.c **** 
 1433              		.loc 1 202 5 is_stmt 1 view .LVU387
 202:Drivers/lvgl/src/core/lv_obj_scroll.c **** 
 1434              		.loc 1 202 15 is_stmt 0 view .LVU388
 1435 00aa 2846     		mov	r0, r5
 1436 00ac FFF7FEFF 		bl	lv_obj_get_scroll_x
 1437              	.LVL150:
 202:Drivers/lvgl/src/core/lv_obj_scroll.c **** 
 1438              		.loc 1 202 12 discriminator 1 view .LVU389
 1439 00b0 2044     		add	r0, r0, r4
 1440              	.LVL151:
 204:Drivers/lvgl/src/core/lv_obj_scroll.c **** }
 1441              		.loc 1 204 5 is_stmt 1 view .LVU390
 204:Drivers/lvgl/src/core/lv_obj_scroll.c **** }
 1442              		.loc 1 204 12 is_stmt 0 view .LVU391
 1443 00b2 B042     		cmp	r0, r6
 1444 00b4 B8BF     		it	lt
 1445 00b6 3046     		movlt	r0, r6
ARM GAS  /tmp/ccmLrI5c.s 			page 61


 1446              	.LVL152:
 204:Drivers/lvgl/src/core/lv_obj_scroll.c **** }
 1447              		.loc 1 204 12 view .LVU392
 1448 00b8 B4E7     		b	.L62
 1449              	.LVL153:
 1450              	.L72:
 197:Drivers/lvgl/src/core/lv_obj_scroll.c ****     }
 1451              		.loc 1 197 19 view .LVU393
 1452 00ba 034E     		ldr	r6, .L76+4
 1453 00bc E9E7     		b	.L70
 1454              	.LVL154:
 1455              	.L71:
 171:Drivers/lvgl/src/core/lv_obj_scroll.c ****         return -obj->spec_attr->scroll.x;
 1456              		.loc 1 171 43 discriminator 1 view .LVU394
 1457 00be 0020     		movs	r0, #0
 1458 00c0 B0E7     		b	.L62
 1459              	.L77:
 1460 00c2 00BF     		.align	2
 1461              	.L76:
 1462 00c4 01000400 		.word	262145
 1463 00c8 010000E0 		.word	-536870911
 1464              		.cfi_endproc
 1465              	.LFE183:
 1467              		.section	.text.lv_obj_get_scroll_right,"ax",%progbits
 1468              		.align	1
 1469              		.global	lv_obj_get_scroll_right
 1470              		.syntax unified
 1471              		.thumb
 1472              		.thumb_func
 1474              	lv_obj_get_scroll_right:
 1475              	.LVL155:
 1476              	.LFB184:
 208:Drivers/lvgl/src/core/lv_obj_scroll.c ****     LV_ASSERT_OBJ(obj, MY_CLASS);
 1477              		.loc 1 208 1 is_stmt 1 view -0
 1478              		.cfi_startproc
 1479              		@ args = 0, pretend = 0, frame = 8
 1480              		@ frame_needed = 0, uses_anonymous_args = 0
 209:Drivers/lvgl/src/core/lv_obj_scroll.c **** 
 1481              		.loc 1 209 5 view .LVU396
 209:Drivers/lvgl/src/core/lv_obj_scroll.c **** 
 1482              		.loc 1 209 5 view .LVU397
 1483 0000 80B1     		cbz	r0, .L80
 208:Drivers/lvgl/src/core/lv_obj_scroll.c ****     LV_ASSERT_OBJ(obj, MY_CLASS);
 1484              		.loc 1 208 1 is_stmt 0 view .LVU398
 1485 0002 2DE9F043 		push	{r4, r5, r6, r7, r8, r9, lr}
 1486              	.LCFI28:
 1487              		.cfi_def_cfa_offset 28
 1488              		.cfi_offset 4, -28
 1489              		.cfi_offset 5, -24
 1490              		.cfi_offset 6, -20
 1491              		.cfi_offset 7, -16
 1492              		.cfi_offset 8, -12
 1493              		.cfi_offset 9, -8
 1494              		.cfi_offset 14, -4
 1495 0006 83B0     		sub	sp, sp, #12
 1496              	.LCFI29:
 1497              		.cfi_def_cfa_offset 40
ARM GAS  /tmp/ccmLrI5c.s 			page 62


 1498 0008 0646     		mov	r6, r0
 209:Drivers/lvgl/src/core/lv_obj_scroll.c **** 
 1499              		.loc 1 209 5 is_stmt 1 discriminator 2 view .LVU399
 209:Drivers/lvgl/src/core/lv_obj_scroll.c **** 
 1500              		.loc 1 209 33 discriminator 2 view .LVU400
 213:Drivers/lvgl/src/core/lv_obj_scroll.c ****         if(obj->spec_attr == NULL) return 0;
 1501              		.loc 1 213 5 view .LVU401
 1502              	.LVL156:
 1503              	.LBB102:
 1504              	.LBI102:
 688:Drivers/lvgl/src/core/lv_obj_style_gen.h **** {
 1505              		.loc 3 688 29 view .LVU402
 1506              	.LBB103:
 690:Drivers/lvgl/src/core/lv_obj_style_gen.h ****     return (lv_base_dir_t)v.num;
 1507              		.loc 3 690 5 view .LVU403
 690:Drivers/lvgl/src/core/lv_obj_style_gen.h ****     return (lv_base_dir_t)v.num;
 1508              		.loc 3 690 26 is_stmt 0 view .LVU404
 1509 000a 2722     		movs	r2, #39
 1510 000c 0021     		movs	r1, #0
 1511 000e FFF7FEFF 		bl	lv_obj_get_style_prop
 1512              	.LVL157:
 690:Drivers/lvgl/src/core/lv_obj_style_gen.h ****     return (lv_base_dir_t)v.num;
 1513              		.loc 3 690 26 view .LVU405
 1514 0012 0190     		str	r0, [sp, #4]
 1515              		.loc 3 691 5 is_stmt 1 view .LVU406
 1516              		.loc 3 691 12 is_stmt 0 view .LVU407
 1517 0014 C0B2     		uxtb	r0, r0
 1518              	.LVL158:
 1519              		.loc 3 691 12 view .LVU408
 1520              	.LBE103:
 1521              	.LBE102:
 213:Drivers/lvgl/src/core/lv_obj_scroll.c ****         if(obj->spec_attr == NULL) return 0;
 1522              		.loc 1 213 7 discriminator 1 view .LVU409
 1523 0016 0128     		cmp	r0, #1
 1524 0018 05D1     		bne	.L81
 214:Drivers/lvgl/src/core/lv_obj_scroll.c ****         return obj->spec_attr->scroll.x;
 1525              		.loc 1 214 9 is_stmt 1 view .LVU410
 214:Drivers/lvgl/src/core/lv_obj_scroll.c ****         return obj->spec_attr->scroll.x;
 1526              		.loc 1 214 15 is_stmt 0 view .LVU411
 1527 001a B368     		ldr	r3, [r6, #8]
 214:Drivers/lvgl/src/core/lv_obj_scroll.c ****         return obj->spec_attr->scroll.x;
 1528              		.loc 1 214 11 view .LVU412
 1529 001c 002B     		cmp	r3, #0
 1530 001e 48D0     		beq	.L87
 215:Drivers/lvgl/src/core/lv_obj_scroll.c ****     }
 1531              		.loc 1 215 9 is_stmt 1 view .LVU413
 215:Drivers/lvgl/src/core/lv_obj_scroll.c ****     }
 1532              		.loc 1 215 38 is_stmt 0 view .LVU414
 1533 0020 186A     		ldr	r0, [r3, #32]
 1534 0022 43E0     		b	.L78
 1535              	.LVL159:
 1536              	.L80:
 1537              	.LCFI30:
 1538              		.cfi_def_cfa_offset 0
 1539              		.cfi_restore 4
 1540              		.cfi_restore 5
 1541              		.cfi_restore 6
ARM GAS  /tmp/ccmLrI5c.s 			page 63


 1542              		.cfi_restore 7
 1543              		.cfi_restore 8
 1544              		.cfi_restore 9
 1545              		.cfi_restore 14
 209:Drivers/lvgl/src/core/lv_obj_scroll.c **** 
 1546              		.loc 1 209 5 is_stmt 1 discriminator 1 view .LVU415
 209:Drivers/lvgl/src/core/lv_obj_scroll.c **** 
 1547              		.loc 1 209 5 discriminator 1 view .LVU416
 209:Drivers/lvgl/src/core/lv_obj_scroll.c **** 
 1548              		.loc 1 209 5 discriminator 1 view .LVU417
 209:Drivers/lvgl/src/core/lv_obj_scroll.c **** 
 1549              		.loc 1 209 5 discriminator 1 view .LVU418
 209:Drivers/lvgl/src/core/lv_obj_scroll.c **** 
 1550              		.loc 1 209 5 discriminator 1 view .LVU419
 1551 0024 FEE7     		b	.L80
 1552              	.LVL160:
 1553              	.L81:
 1554              	.LCFI31:
 1555              		.cfi_def_cfa_offset 40
 1556              		.cfi_offset 4, -28
 1557              		.cfi_offset 5, -24
 1558              		.cfi_offset 6, -20
 1559              		.cfi_offset 7, -16
 1560              		.cfi_offset 8, -12
 1561              		.cfi_offset 9, -8
 1562              		.cfi_offset 14, -4
 219:Drivers/lvgl/src/core/lv_obj_scroll.c ****     uint32_t i;
 1563              		.loc 1 219 5 view .LVU420
 220:Drivers/lvgl/src/core/lv_obj_scroll.c ****     uint32_t child_cnt = lv_obj_get_child_count(obj);
 1564              		.loc 1 220 5 view .LVU421
 221:Drivers/lvgl/src/core/lv_obj_scroll.c ****     for(i = 0; i < child_cnt; i++) {
 1565              		.loc 1 221 5 view .LVU422
 221:Drivers/lvgl/src/core/lv_obj_scroll.c ****     for(i = 0; i < child_cnt; i++) {
 1566              		.loc 1 221 26 is_stmt 0 view .LVU423
 1567 0026 3046     		mov	r0, r6
 1568 0028 FFF7FEFF 		bl	lv_obj_get_child_count
 1569              	.LVL161:
 1570 002c 8046     		mov	r8, r0
 1571              	.LVL162:
 222:Drivers/lvgl/src/core/lv_obj_scroll.c ****         const lv_obj_t * child = obj->spec_attr->children[i];
 1572              		.loc 1 222 5 is_stmt 1 view .LVU424
 222:Drivers/lvgl/src/core/lv_obj_scroll.c ****         const lv_obj_t * child = obj->spec_attr->children[i];
 1573              		.loc 1 222 11 is_stmt 0 view .LVU425
 1574 002e 0024     		movs	r4, #0
 219:Drivers/lvgl/src/core/lv_obj_scroll.c ****     uint32_t i;
 1575              		.loc 1 219 13 view .LVU426
 1576 0030 214F     		ldr	r7, .L91
 222:Drivers/lvgl/src/core/lv_obj_scroll.c ****         const lv_obj_t * child = obj->spec_attr->children[i];
 1577              		.loc 1 222 5 view .LVU427
 1578 0032 00E0     		b	.L83
 1579              	.LVL163:
 1580              	.L84:
 222:Drivers/lvgl/src/core/lv_obj_scroll.c ****         const lv_obj_t * child = obj->spec_attr->children[i];
 1581              		.loc 1 222 32 is_stmt 1 discriminator 2 view .LVU428
 1582 0034 0134     		adds	r4, r4, #1
 1583              	.LVL164:
 1584              	.L83:
ARM GAS  /tmp/ccmLrI5c.s 			page 64


 222:Drivers/lvgl/src/core/lv_obj_scroll.c ****         const lv_obj_t * child = obj->spec_attr->children[i];
 1585              		.loc 1 222 18 discriminator 1 view .LVU429
 1586 0036 4445     		cmp	r4, r8
 1587 0038 16D2     		bcs	.L90
 1588              	.LBB104:
 223:Drivers/lvgl/src/core/lv_obj_scroll.c ****         if(lv_obj_has_flag_any(child,  LV_OBJ_FLAG_HIDDEN | LV_OBJ_FLAG_FLOATING)) continue;
 1589              		.loc 1 223 9 view .LVU430
 223:Drivers/lvgl/src/core/lv_obj_scroll.c ****         if(lv_obj_has_flag_any(child,  LV_OBJ_FLAG_HIDDEN | LV_OBJ_FLAG_FLOATING)) continue;
 1590              		.loc 1 223 37 is_stmt 0 view .LVU431
 1591 003a B368     		ldr	r3, [r6, #8]
 223:Drivers/lvgl/src/core/lv_obj_scroll.c ****         if(lv_obj_has_flag_any(child,  LV_OBJ_FLAG_HIDDEN | LV_OBJ_FLAG_FLOATING)) continue;
 1592              		.loc 1 223 48 view .LVU432
 1593 003c 1B68     		ldr	r3, [r3]
 223:Drivers/lvgl/src/core/lv_obj_scroll.c ****         if(lv_obj_has_flag_any(child,  LV_OBJ_FLAG_HIDDEN | LV_OBJ_FLAG_FLOATING)) continue;
 1594              		.loc 1 223 26 view .LVU433
 1595 003e 53F82450 		ldr	r5, [r3, r4, lsl #2]
 1596              	.LVL165:
 224:Drivers/lvgl/src/core/lv_obj_scroll.c **** 
 1597              		.loc 1 224 9 is_stmt 1 view .LVU434
 224:Drivers/lvgl/src/core/lv_obj_scroll.c **** 
 1598              		.loc 1 224 12 is_stmt 0 view .LVU435
 1599 0042 1E49     		ldr	r1, .L91+4
 1600 0044 2846     		mov	r0, r5
 1601 0046 FFF7FEFF 		bl	lv_obj_has_flag_any
 1602              	.LVL166:
 224:Drivers/lvgl/src/core/lv_obj_scroll.c **** 
 1603              		.loc 1 224 11 discriminator 1 view .LVU436
 1604 004a 0028     		cmp	r0, #0
 1605 004c F2D1     		bne	.L84
 226:Drivers/lvgl/src/core/lv_obj_scroll.c ****         child_res = LV_MAX(child_res, tmp_x);
 1606              		.loc 1 226 9 is_stmt 1 view .LVU437
 226:Drivers/lvgl/src/core/lv_obj_scroll.c ****         child_res = LV_MAX(child_res, tmp_x);
 1607              		.loc 1 226 38 is_stmt 0 view .LVU438
 1608 004e D5F81C90 		ldr	r9, [r5, #28]
 1609              	.LVL167:
 1610              	.LBB105:
 1611              	.LBI105:
 214:Drivers/lvgl/src/core/lv_obj_style_gen.h **** {
 1612              		.loc 3 214 23 is_stmt 1 view .LVU439
 1613              	.LBB106:
 216:Drivers/lvgl/src/core/lv_obj_style_gen.h ****     return (int32_t)v.num;
 1614              		.loc 3 216 5 view .LVU440
 216:Drivers/lvgl/src/core/lv_obj_style_gen.h ****     return (int32_t)v.num;
 1615              		.loc 3 216 26 is_stmt 0 view .LVU441
 1616 0052 1B22     		movs	r2, #27
 1617 0054 0021     		movs	r1, #0
 1618 0056 2846     		mov	r0, r5
 1619 0058 FFF7FEFF 		bl	lv_obj_get_style_prop
 1620              	.LVL168:
 1621 005c 0190     		str	r0, [sp, #4]
 217:Drivers/lvgl/src/core/lv_obj_style_gen.h **** }
 1622              		.loc 3 217 5 is_stmt 1 view .LVU442
 1623              	.LVL169:
 217:Drivers/lvgl/src/core/lv_obj_style_gen.h **** }
 1624              		.loc 3 217 5 is_stmt 0 view .LVU443
 1625              	.LBE106:
 1626              	.LBE105:
ARM GAS  /tmp/ccmLrI5c.s 			page 65


 226:Drivers/lvgl/src/core/lv_obj_scroll.c ****         child_res = LV_MAX(child_res, tmp_x);
 1627              		.loc 1 226 17 discriminator 1 view .LVU444
 1628 005e 8144     		add	r9, r9, r0
 1629              	.LVL170:
 227:Drivers/lvgl/src/core/lv_obj_scroll.c ****     }
 1630              		.loc 1 227 9 is_stmt 1 view .LVU445
 227:Drivers/lvgl/src/core/lv_obj_scroll.c ****     }
 1631              		.loc 1 227 19 is_stmt 0 view .LVU446
 1632 0060 4F45     		cmp	r7, r9
 1633 0062 B8BF     		it	lt
 1634 0064 4F46     		movlt	r7, r9
 1635              	.LVL171:
 227:Drivers/lvgl/src/core/lv_obj_scroll.c ****     }
 1636              		.loc 1 227 19 view .LVU447
 1637 0066 E5E7     		b	.L84
 1638              	.LVL172:
 1639              	.L90:
 227:Drivers/lvgl/src/core/lv_obj_scroll.c ****     }
 1640              		.loc 1 227 19 view .LVU448
 1641              	.LBE104:
 230:Drivers/lvgl/src/core/lv_obj_scroll.c ****     int32_t space_left = lv_obj_get_style_space_left(obj, LV_PART_MAIN);
 1642              		.loc 1 230 5 is_stmt 1 view .LVU449
 230:Drivers/lvgl/src/core/lv_obj_scroll.c ****     int32_t space_left = lv_obj_get_style_space_left(obj, LV_PART_MAIN);
 1643              		.loc 1 230 27 is_stmt 0 view .LVU450
 1644 0068 0021     		movs	r1, #0
 1645 006a 3046     		mov	r0, r6
 1646 006c FFF7FEFF 		bl	lv_obj_get_style_space_right
 1647              	.LVL173:
 1648 0070 0546     		mov	r5, r0
 1649              	.LVL174:
 231:Drivers/lvgl/src/core/lv_obj_scroll.c **** 
 1650              		.loc 1 231 5 is_stmt 1 view .LVU451
 231:Drivers/lvgl/src/core/lv_obj_scroll.c **** 
 1651              		.loc 1 231 26 is_stmt 0 view .LVU452
 1652 0072 0021     		movs	r1, #0
 1653 0074 3046     		mov	r0, r6
 1654              	.LVL175:
 231:Drivers/lvgl/src/core/lv_obj_scroll.c **** 
 1655              		.loc 1 231 26 view .LVU453
 1656 0076 FFF7FEFF 		bl	lv_obj_get_style_space_left
 1657              	.LVL176:
 1658 007a 8046     		mov	r8, r0
 1659              	.LVL177:
 233:Drivers/lvgl/src/core/lv_obj_scroll.c ****         child_res -= (obj->coords.x2 - space_right);
 1660              		.loc 1 233 5 is_stmt 1 view .LVU454
 233:Drivers/lvgl/src/core/lv_obj_scroll.c ****         child_res -= (obj->coords.x2 - space_right);
 1661              		.loc 1 233 7 is_stmt 0 view .LVU455
 1662 007c 0E4B     		ldr	r3, .L91
 1663 007e 9F42     		cmp	r7, r3
 1664 0080 02D0     		beq	.L86
 234:Drivers/lvgl/src/core/lv_obj_scroll.c ****     }
 1665              		.loc 1 234 9 is_stmt 1 view .LVU456
 234:Drivers/lvgl/src/core/lv_obj_scroll.c ****     }
 1666              		.loc 1 234 34 is_stmt 0 view .LVU457
 1667 0082 F369     		ldr	r3, [r6, #28]
 234:Drivers/lvgl/src/core/lv_obj_scroll.c ****     }
 1668              		.loc 1 234 38 view .LVU458
ARM GAS  /tmp/ccmLrI5c.s 			page 66


 1669 0084 5B1B     		subs	r3, r3, r5
 234:Drivers/lvgl/src/core/lv_obj_scroll.c ****     }
 1670              		.loc 1 234 19 view .LVU459
 1671 0086 FF1A     		subs	r7, r7, r3
 1672              	.LVL178:
 1673              	.L86:
 237:Drivers/lvgl/src/core/lv_obj_scroll.c ****     self_w = lv_obj_get_self_width(obj);
 1674              		.loc 1 237 5 is_stmt 1 view .LVU460
 238:Drivers/lvgl/src/core/lv_obj_scroll.c ****     self_w = self_w - (lv_obj_get_width(obj) - space_right - space_left);
 1675              		.loc 1 238 5 view .LVU461
 238:Drivers/lvgl/src/core/lv_obj_scroll.c ****     self_w = self_w - (lv_obj_get_width(obj) - space_right - space_left);
 1676              		.loc 1 238 14 is_stmt 0 view .LVU462
 1677 0088 3046     		mov	r0, r6
 1678              	.LVL179:
 238:Drivers/lvgl/src/core/lv_obj_scroll.c ****     self_w = self_w - (lv_obj_get_width(obj) - space_right - space_left);
 1679              		.loc 1 238 14 view .LVU463
 1680 008a FFF7FEFF 		bl	lv_obj_get_self_width
 1681              	.LVL180:
 1682 008e 0446     		mov	r4, r0
 1683              	.LVL181:
 239:Drivers/lvgl/src/core/lv_obj_scroll.c ****     self_w -= lv_obj_get_scroll_x(obj);
 1684              		.loc 1 239 5 is_stmt 1 view .LVU464
 239:Drivers/lvgl/src/core/lv_obj_scroll.c ****     self_w -= lv_obj_get_scroll_x(obj);
 1685              		.loc 1 239 24 is_stmt 0 view .LVU465
 1686 0090 3046     		mov	r0, r6
 1687              	.LVL182:
 239:Drivers/lvgl/src/core/lv_obj_scroll.c ****     self_w -= lv_obj_get_scroll_x(obj);
 1688              		.loc 1 239 24 view .LVU466
 1689 0092 FFF7FEFF 		bl	lv_obj_get_width
 1690              	.LVL183:
 239:Drivers/lvgl/src/core/lv_obj_scroll.c ****     self_w -= lv_obj_get_scroll_x(obj);
 1691              		.loc 1 239 46 discriminator 1 view .LVU467
 1692 0096 431B     		subs	r3, r0, r5
 239:Drivers/lvgl/src/core/lv_obj_scroll.c ****     self_w -= lv_obj_get_scroll_x(obj);
 1693              		.loc 1 239 60 discriminator 1 view .LVU468
 1694 0098 A3EB0803 		sub	r3, r3, r8
 239:Drivers/lvgl/src/core/lv_obj_scroll.c ****     self_w -= lv_obj_get_scroll_x(obj);
 1695              		.loc 1 239 12 discriminator 1 view .LVU469
 1696 009c E41A     		subs	r4, r4, r3
 1697              	.LVL184:
 240:Drivers/lvgl/src/core/lv_obj_scroll.c ****     return LV_MAX(child_res, self_w);
 1698              		.loc 1 240 5 is_stmt 1 view .LVU470
 240:Drivers/lvgl/src/core/lv_obj_scroll.c ****     return LV_MAX(child_res, self_w);
 1699              		.loc 1 240 15 is_stmt 0 view .LVU471
 1700 009e 3046     		mov	r0, r6
 1701 00a0 FFF7FEFF 		bl	lv_obj_get_scroll_x
 1702              	.LVL185:
 240:Drivers/lvgl/src/core/lv_obj_scroll.c ****     return LV_MAX(child_res, self_w);
 1703              		.loc 1 240 12 discriminator 1 view .LVU472
 1704 00a4 201A     		subs	r0, r4, r0
 1705              	.LVL186:
 241:Drivers/lvgl/src/core/lv_obj_scroll.c **** }
 1706              		.loc 1 241 5 is_stmt 1 view .LVU473
 241:Drivers/lvgl/src/core/lv_obj_scroll.c **** }
 1707              		.loc 1 241 12 is_stmt 0 view .LVU474
 1708 00a6 B842     		cmp	r0, r7
 1709 00a8 B8BF     		it	lt
ARM GAS  /tmp/ccmLrI5c.s 			page 67


 1710 00aa 3846     		movlt	r0, r7
 1711              	.LVL187:
 1712              	.L78:
 242:Drivers/lvgl/src/core/lv_obj_scroll.c **** 
 1713              		.loc 1 242 1 view .LVU475
 1714 00ac 03B0     		add	sp, sp, #12
 1715              	.LCFI32:
 1716              		.cfi_remember_state
 1717              		.cfi_def_cfa_offset 28
 1718              		@ sp needed
 1719 00ae BDE8F083 		pop	{r4, r5, r6, r7, r8, r9, pc}
 1720              	.LVL188:
 1721              	.L87:
 1722              	.LCFI33:
 1723              		.cfi_restore_state
 214:Drivers/lvgl/src/core/lv_obj_scroll.c ****         return obj->spec_attr->scroll.x;
 1724              		.loc 1 214 43 discriminator 1 view .LVU476
 1725 00b2 0020     		movs	r0, #0
 1726 00b4 FAE7     		b	.L78
 1727              	.L92:
 1728 00b6 00BF     		.align	2
 1729              	.L91:
 1730 00b8 010000E0 		.word	-536870911
 1731 00bc 01000400 		.word	262145
 1732              		.cfi_endproc
 1733              	.LFE184:
 1735              		.section	.text.lv_obj_get_scroll_end,"ax",%progbits
 1736              		.align	1
 1737              		.global	lv_obj_get_scroll_end
 1738              		.syntax unified
 1739              		.thumb
 1740              		.thumb_func
 1742              	lv_obj_get_scroll_end:
 1743              	.LVL189:
 1744              	.LFB185:
 245:Drivers/lvgl/src/core/lv_obj_scroll.c ****     lv_anim_t * a;
 1745              		.loc 1 245 1 is_stmt 1 view -0
 1746              		.cfi_startproc
 1747              		@ args = 0, pretend = 0, frame = 0
 1748              		@ frame_needed = 0, uses_anonymous_args = 0
 245:Drivers/lvgl/src/core/lv_obj_scroll.c ****     lv_anim_t * a;
 1749              		.loc 1 245 1 is_stmt 0 view .LVU478
 1750 0000 38B5     		push	{r3, r4, r5, lr}
 1751              	.LCFI34:
 1752              		.cfi_def_cfa_offset 16
 1753              		.cfi_offset 3, -16
 1754              		.cfi_offset 4, -12
 1755              		.cfi_offset 5, -8
 1756              		.cfi_offset 14, -4
 1757 0002 0546     		mov	r5, r0
 1758 0004 0C46     		mov	r4, r1
 246:Drivers/lvgl/src/core/lv_obj_scroll.c ****     a = lv_anim_get(obj, scroll_x_anim);
 1759              		.loc 1 246 5 is_stmt 1 view .LVU479
 247:Drivers/lvgl/src/core/lv_obj_scroll.c ****     end->x = a ? -a->end_value : lv_obj_get_scroll_x(obj);
 1760              		.loc 1 247 5 view .LVU480
 247:Drivers/lvgl/src/core/lv_obj_scroll.c ****     end->x = a ? -a->end_value : lv_obj_get_scroll_x(obj);
 1761              		.loc 1 247 9 is_stmt 0 view .LVU481
ARM GAS  /tmp/ccmLrI5c.s 			page 68


 1762 0006 0C49     		ldr	r1, .L99
 1763              	.LVL190:
 247:Drivers/lvgl/src/core/lv_obj_scroll.c ****     end->x = a ? -a->end_value : lv_obj_get_scroll_x(obj);
 1764              		.loc 1 247 9 view .LVU482
 1765 0008 FFF7FEFF 		bl	lv_anim_get
 1766              	.LVL191:
 248:Drivers/lvgl/src/core/lv_obj_scroll.c **** 
 1767              		.loc 1 248 5 is_stmt 1 view .LVU483
 248:Drivers/lvgl/src/core/lv_obj_scroll.c **** 
 1768              		.loc 1 248 32 is_stmt 0 view .LVU484
 1769 000c 58B1     		cbz	r0, .L94
 248:Drivers/lvgl/src/core/lv_obj_scroll.c **** 
 1770              		.loc 1 248 20 discriminator 1 view .LVU485
 1771 000e C06A     		ldr	r0, [r0, #44]
 1772              	.LVL192:
 248:Drivers/lvgl/src/core/lv_obj_scroll.c **** 
 1773              		.loc 1 248 32 discriminator 1 view .LVU486
 1774 0010 4042     		rsbs	r0, r0, #0
 1775              	.L95:
 248:Drivers/lvgl/src/core/lv_obj_scroll.c **** 
 1776              		.loc 1 248 12 discriminator 4 view .LVU487
 1777 0012 2060     		str	r0, [r4]
 250:Drivers/lvgl/src/core/lv_obj_scroll.c ****     end->y = a ? -a->end_value : lv_obj_get_scroll_y(obj);
 1778              		.loc 1 250 5 is_stmt 1 view .LVU488
 250:Drivers/lvgl/src/core/lv_obj_scroll.c ****     end->y = a ? -a->end_value : lv_obj_get_scroll_y(obj);
 1779              		.loc 1 250 9 is_stmt 0 view .LVU489
 1780 0014 0949     		ldr	r1, .L99+4
 1781 0016 2846     		mov	r0, r5
 1782 0018 FFF7FEFF 		bl	lv_anim_get
 1783              	.LVL193:
 251:Drivers/lvgl/src/core/lv_obj_scroll.c **** }
 1784              		.loc 1 251 5 is_stmt 1 view .LVU490
 251:Drivers/lvgl/src/core/lv_obj_scroll.c **** }
 1785              		.loc 1 251 32 is_stmt 0 view .LVU491
 1786 001c 38B1     		cbz	r0, .L96
 251:Drivers/lvgl/src/core/lv_obj_scroll.c **** }
 1787              		.loc 1 251 20 discriminator 1 view .LVU492
 1788 001e C06A     		ldr	r0, [r0, #44]
 1789              	.LVL194:
 251:Drivers/lvgl/src/core/lv_obj_scroll.c **** }
 1790              		.loc 1 251 32 discriminator 1 view .LVU493
 1791 0020 4042     		rsbs	r0, r0, #0
 1792              	.L97:
 251:Drivers/lvgl/src/core/lv_obj_scroll.c **** }
 1793              		.loc 1 251 12 discriminator 4 view .LVU494
 1794 0022 6060     		str	r0, [r4, #4]
 252:Drivers/lvgl/src/core/lv_obj_scroll.c **** 
 1795              		.loc 1 252 1 view .LVU495
 1796 0024 38BD     		pop	{r3, r4, r5, pc}
 1797              	.LVL195:
 1798              	.L94:
 248:Drivers/lvgl/src/core/lv_obj_scroll.c **** 
 1799              		.loc 1 248 34 discriminator 2 view .LVU496
 1800 0026 2846     		mov	r0, r5
 1801              	.LVL196:
 248:Drivers/lvgl/src/core/lv_obj_scroll.c **** 
 1802              		.loc 1 248 34 discriminator 2 view .LVU497
ARM GAS  /tmp/ccmLrI5c.s 			page 69


 1803 0028 FFF7FEFF 		bl	lv_obj_get_scroll_x
 1804              	.LVL197:
 1805 002c F1E7     		b	.L95
 1806              	.LVL198:
 1807              	.L96:
 251:Drivers/lvgl/src/core/lv_obj_scroll.c **** }
 1808              		.loc 1 251 34 discriminator 2 view .LVU498
 1809 002e 2846     		mov	r0, r5
 1810              	.LVL199:
 251:Drivers/lvgl/src/core/lv_obj_scroll.c **** }
 1811              		.loc 1 251 34 discriminator 2 view .LVU499
 1812 0030 FFF7FEFF 		bl	lv_obj_get_scroll_y
 1813              	.LVL200:
 1814 0034 F5E7     		b	.L97
 1815              	.L100:
 1816 0036 00BF     		.align	2
 1817              	.L99:
 1818 0038 00000000 		.word	scroll_x_anim
 1819 003c 00000000 		.word	scroll_y_anim
 1820              		.cfi_endproc
 1821              	.LFE185:
 1823              		.section	.text.lv_obj_scroll_by_raw,"ax",%progbits
 1824              		.align	1
 1825              		.global	lv_obj_scroll_by_raw
 1826              		.syntax unified
 1827              		.thumb
 1828              		.thumb_func
 1830              	lv_obj_scroll_by_raw:
 1831              	.LVL201:
 1832              	.LFB193:
 414:Drivers/lvgl/src/core/lv_obj_scroll.c ****     if(x == 0 && y == 0) return LV_RESULT_OK;
 1833              		.loc 1 414 1 is_stmt 1 view -0
 1834              		.cfi_startproc
 1835              		@ args = 0, pretend = 0, frame = 0
 1836              		@ frame_needed = 0, uses_anonymous_args = 0
 414:Drivers/lvgl/src/core/lv_obj_scroll.c ****     if(x == 0 && y == 0) return LV_RESULT_OK;
 1837              		.loc 1 414 1 is_stmt 0 view .LVU501
 1838 0000 70B5     		push	{r4, r5, r6, lr}
 1839              	.LCFI35:
 1840              		.cfi_def_cfa_offset 16
 1841              		.cfi_offset 4, -16
 1842              		.cfi_offset 5, -12
 1843              		.cfi_offset 6, -8
 1844              		.cfi_offset 14, -4
 415:Drivers/lvgl/src/core/lv_obj_scroll.c **** 
 1845              		.loc 1 415 5 is_stmt 1 view .LVU502
 415:Drivers/lvgl/src/core/lv_obj_scroll.c **** 
 1846              		.loc 1 415 7 is_stmt 0 view .LVU503
 1847 0002 51EA0203 		orrs	r3, r1, r2
 1848 0006 02D1     		bne	.L105
 415:Drivers/lvgl/src/core/lv_obj_scroll.c **** 
 1849              		.loc 1 415 33 discriminator 1 view .LVU504
 1850 0008 0125     		movs	r5, #1
 1851              	.LVL202:
 1852              	.L102:
