ARM GAS  /tmp/cckNWXvG.s 			page 1


   1              		.cpu cortex-m7
   2              		.arch armv7e-m
   3              		.fpu fpv5-sp-d16
   4              		.eabi_attribute 27, 1
   5              		.eabi_attribute 28, 1
   6              		.eabi_attribute 20, 1
   7              		.eabi_attribute 21, 1
   8              		.eabi_attribute 23, 3
   9              		.eabi_attribute 24, 1
  10              		.eabi_attribute 25, 1
  11              		.eabi_attribute 26, 1
  12              		.eabi_attribute 30, 1
  13              		.eabi_attribute 34, 1
  14              		.eabi_attribute 18, 4
  15              		.file	"lv_obj_style_gen.c"
  16              		.text
  17              	.Ltext0:
  18              		.cfi_sections	.debug_frame
  19              		.file 1 "Drivers/lvgl/src/core/lv_obj_style_gen.c"
  20              		.section	.text.lv_obj_set_style_width,"ax",%progbits
  21              		.align	1
  22              		.global	lv_obj_set_style_width
  23              		.syntax unified
  24              		.thumb
  25              		.thumb_func
  27              	lv_obj_set_style_width:
  28              	.LVL0:
  29              	.LFB171:
   1:Drivers/lvgl/src/core/lv_obj_style_gen.c **** 
   2:Drivers/lvgl/src/core/lv_obj_style_gen.c **** /*
   3:Drivers/lvgl/src/core/lv_obj_style_gen.c ****  **********************************************************************
   4:Drivers/lvgl/src/core/lv_obj_style_gen.c ****  *                            DO NOT EDIT
   5:Drivers/lvgl/src/core/lv_obj_style_gen.c ****  * This file is automatically generated by "style_api_gen.py"
   6:Drivers/lvgl/src/core/lv_obj_style_gen.c ****  **********************************************************************
   7:Drivers/lvgl/src/core/lv_obj_style_gen.c ****  */
   8:Drivers/lvgl/src/core/lv_obj_style_gen.c **** 
   9:Drivers/lvgl/src/core/lv_obj_style_gen.c **** 
  10:Drivers/lvgl/src/core/lv_obj_style_gen.c **** #include "lv_obj.h"
  11:Drivers/lvgl/src/core/lv_obj_style_gen.c **** 
  12:Drivers/lvgl/src/core/lv_obj_style_gen.c **** 
  13:Drivers/lvgl/src/core/lv_obj_style_gen.c **** void lv_obj_set_style_width(lv_obj_t * obj, int32_t value, lv_style_selector_t selector)
  14:Drivers/lvgl/src/core/lv_obj_style_gen.c **** {
  30              		.loc 1 14 1 view -0
  31              		.cfi_startproc
  32              		@ args = 0, pretend = 0, frame = 8
  33              		@ frame_needed = 0, uses_anonymous_args = 0
  34              		.loc 1 14 1 is_stmt 0 view .LVU1
  35 0000 00B5     		push	{lr}
  36              	.LCFI0:
  37              		.cfi_def_cfa_offset 4
  38              		.cfi_offset 14, -4
  39 0002 83B0     		sub	sp, sp, #12
  40              	.LCFI1:
  41              		.cfi_def_cfa_offset 16
  42 0004 1346     		mov	r3, r2
  15:Drivers/lvgl/src/core/lv_obj_style_gen.c ****     lv_style_value_t v = {
  43              		.loc 1 15 5 is_stmt 1 view .LVU2
ARM GAS  /tmp/cckNWXvG.s 			page 2


  44              		.loc 1 15 22 is_stmt 0 view .LVU3
  45 0006 0191     		str	r1, [sp, #4]
  16:Drivers/lvgl/src/core/lv_obj_style_gen.c ****         .num = (int32_t)value
  17:Drivers/lvgl/src/core/lv_obj_style_gen.c ****     };
  18:Drivers/lvgl/src/core/lv_obj_style_gen.c ****     lv_obj_set_local_style_prop(obj, LV_STYLE_WIDTH, v, selector);
  46              		.loc 1 18 5 is_stmt 1 view .LVU4
  47 0008 0A46     		mov	r2, r1
  48              	.LVL1:
  49              		.loc 1 18 5 is_stmt 0 view .LVU5
  50 000a 0121     		movs	r1, #1
  51              	.LVL2:
  52              		.loc 1 18 5 view .LVU6
  53 000c FFF7FEFF 		bl	lv_obj_set_local_style_prop
  54              	.LVL3:
  19:Drivers/lvgl/src/core/lv_obj_style_gen.c **** }
  55              		.loc 1 19 1 view .LVU7
  56 0010 03B0     		add	sp, sp, #12
  57              	.LCFI2:
  58              		.cfi_def_cfa_offset 4
  59              		@ sp needed
  60 0012 5DF804FB 		ldr	pc, [sp], #4
  61              		.loc 1 19 1 view .LVU8
  62              		.cfi_endproc
  63              	.LFE171:
  65              		.section	.text.lv_obj_set_style_min_width,"ax",%progbits
  66              		.align	1
  67              		.global	lv_obj_set_style_min_width
  68              		.syntax unified
  69              		.thumb
  70              		.thumb_func
  72              	lv_obj_set_style_min_width:
  73              	.LVL4:
  74              	.LFB172:
  20:Drivers/lvgl/src/core/lv_obj_style_gen.c **** 
  21:Drivers/lvgl/src/core/lv_obj_style_gen.c **** void lv_obj_set_style_min_width(lv_obj_t * obj, int32_t value, lv_style_selector_t selector)
  22:Drivers/lvgl/src/core/lv_obj_style_gen.c **** {
  75              		.loc 1 22 1 is_stmt 1 view -0
  76              		.cfi_startproc
  77              		@ args = 0, pretend = 0, frame = 8
  78              		@ frame_needed = 0, uses_anonymous_args = 0
  79              		.loc 1 22 1 is_stmt 0 view .LVU10
  80 0000 00B5     		push	{lr}
  81              	.LCFI3:
  82              		.cfi_def_cfa_offset 4
  83              		.cfi_offset 14, -4
  84 0002 83B0     		sub	sp, sp, #12
  85              	.LCFI4:
  86              		.cfi_def_cfa_offset 16
  87 0004 1346     		mov	r3, r2
  23:Drivers/lvgl/src/core/lv_obj_style_gen.c ****     lv_style_value_t v = {
  88              		.loc 1 23 5 is_stmt 1 view .LVU11
  89              		.loc 1 23 22 is_stmt 0 view .LVU12
  90 0006 0191     		str	r1, [sp, #4]
  24:Drivers/lvgl/src/core/lv_obj_style_gen.c ****         .num = (int32_t)value
  25:Drivers/lvgl/src/core/lv_obj_style_gen.c ****     };
  26:Drivers/lvgl/src/core/lv_obj_style_gen.c ****     lv_obj_set_local_style_prop(obj, LV_STYLE_MIN_WIDTH, v, selector);
  91              		.loc 1 26 5 is_stmt 1 view .LVU13
ARM GAS  /tmp/cckNWXvG.s 			page 3


  92 0008 0A46     		mov	r2, r1
  93              	.LVL5:
  94              		.loc 1 26 5 is_stmt 0 view .LVU14
  95 000a 0421     		movs	r1, #4
  96              	.LVL6:
  97              		.loc 1 26 5 view .LVU15
  98 000c FFF7FEFF 		bl	lv_obj_set_local_style_prop
  99              	.LVL7:
  27:Drivers/lvgl/src/core/lv_obj_style_gen.c **** }
 100              		.loc 1 27 1 view .LVU16
 101 0010 03B0     		add	sp, sp, #12
 102              	.LCFI5:
 103              		.cfi_def_cfa_offset 4
 104              		@ sp needed
 105 0012 5DF804FB 		ldr	pc, [sp], #4
 106              		.loc 1 27 1 view .LVU17
 107              		.cfi_endproc
 108              	.LFE172:
 110              		.section	.text.lv_obj_set_style_max_width,"ax",%progbits
 111              		.align	1
 112              		.global	lv_obj_set_style_max_width
 113              		.syntax unified
 114              		.thumb
 115              		.thumb_func
 117              	lv_obj_set_style_max_width:
 118              	.LVL8:
 119              	.LFB173:
  28:Drivers/lvgl/src/core/lv_obj_style_gen.c **** 
  29:Drivers/lvgl/src/core/lv_obj_style_gen.c **** void lv_obj_set_style_max_width(lv_obj_t * obj, int32_t value, lv_style_selector_t selector)
  30:Drivers/lvgl/src/core/lv_obj_style_gen.c **** {
 120              		.loc 1 30 1 is_stmt 1 view -0
 121              		.cfi_startproc
 122              		@ args = 0, pretend = 0, frame = 8
 123              		@ frame_needed = 0, uses_anonymous_args = 0
 124              		.loc 1 30 1 is_stmt 0 view .LVU19
 125 0000 00B5     		push	{lr}
 126              	.LCFI6:
 127              		.cfi_def_cfa_offset 4
 128              		.cfi_offset 14, -4
 129 0002 83B0     		sub	sp, sp, #12
 130              	.LCFI7:
 131              		.cfi_def_cfa_offset 16
 132 0004 1346     		mov	r3, r2
  31:Drivers/lvgl/src/core/lv_obj_style_gen.c ****     lv_style_value_t v = {
 133              		.loc 1 31 5 is_stmt 1 view .LVU20
 134              		.loc 1 31 22 is_stmt 0 view .LVU21
 135 0006 0191     		str	r1, [sp, #4]
  32:Drivers/lvgl/src/core/lv_obj_style_gen.c ****         .num = (int32_t)value
  33:Drivers/lvgl/src/core/lv_obj_style_gen.c ****     };
  34:Drivers/lvgl/src/core/lv_obj_style_gen.c ****     lv_obj_set_local_style_prop(obj, LV_STYLE_MAX_WIDTH, v, selector);
 136              		.loc 1 34 5 is_stmt 1 view .LVU22
 137 0008 0A46     		mov	r2, r1
 138              	.LVL9:
 139              		.loc 1 34 5 is_stmt 0 view .LVU23
 140 000a 0521     		movs	r1, #5
 141              	.LVL10:
 142              		.loc 1 34 5 view .LVU24
ARM GAS  /tmp/cckNWXvG.s 			page 4


 143 000c FFF7FEFF 		bl	lv_obj_set_local_style_prop
 144              	.LVL11:
  35:Drivers/lvgl/src/core/lv_obj_style_gen.c **** }
 145              		.loc 1 35 1 view .LVU25
 146 0010 03B0     		add	sp, sp, #12
 147              	.LCFI8:
 148              		.cfi_def_cfa_offset 4
 149              		@ sp needed
 150 0012 5DF804FB 		ldr	pc, [sp], #4
 151              		.loc 1 35 1 view .LVU26
 152              		.cfi_endproc
 153              	.LFE173:
 155              		.section	.text.lv_obj_set_style_height,"ax",%progbits
 156              		.align	1
 157              		.global	lv_obj_set_style_height
 158              		.syntax unified
 159              		.thumb
 160              		.thumb_func
 162              	lv_obj_set_style_height:
 163              	.LVL12:
 164              	.LFB174:
  36:Drivers/lvgl/src/core/lv_obj_style_gen.c **** 
  37:Drivers/lvgl/src/core/lv_obj_style_gen.c **** void lv_obj_set_style_height(lv_obj_t * obj, int32_t value, lv_style_selector_t selector)
  38:Drivers/lvgl/src/core/lv_obj_style_gen.c **** {
 165              		.loc 1 38 1 is_stmt 1 view -0
 166              		.cfi_startproc
 167              		@ args = 0, pretend = 0, frame = 8
 168              		@ frame_needed = 0, uses_anonymous_args = 0
 169              		.loc 1 38 1 is_stmt 0 view .LVU28
 170 0000 00B5     		push	{lr}
 171              	.LCFI9:
 172              		.cfi_def_cfa_offset 4
 173              		.cfi_offset 14, -4
 174 0002 83B0     		sub	sp, sp, #12
 175              	.LCFI10:
 176              		.cfi_def_cfa_offset 16
 177 0004 1346     		mov	r3, r2
  39:Drivers/lvgl/src/core/lv_obj_style_gen.c ****     lv_style_value_t v = {
 178              		.loc 1 39 5 is_stmt 1 view .LVU29
 179              		.loc 1 39 22 is_stmt 0 view .LVU30
 180 0006 0191     		str	r1, [sp, #4]
  40:Drivers/lvgl/src/core/lv_obj_style_gen.c ****         .num = (int32_t)value
  41:Drivers/lvgl/src/core/lv_obj_style_gen.c ****     };
  42:Drivers/lvgl/src/core/lv_obj_style_gen.c ****     lv_obj_set_local_style_prop(obj, LV_STYLE_HEIGHT, v, selector);
 181              		.loc 1 42 5 is_stmt 1 view .LVU31
 182 0008 0A46     		mov	r2, r1
 183              	.LVL13:
 184              		.loc 1 42 5 is_stmt 0 view .LVU32
 185 000a 0221     		movs	r1, #2
 186              	.LVL14:
 187              		.loc 1 42 5 view .LVU33
 188 000c FFF7FEFF 		bl	lv_obj_set_local_style_prop
 189              	.LVL15:
  43:Drivers/lvgl/src/core/lv_obj_style_gen.c **** }
 190              		.loc 1 43 1 view .LVU34
 191 0010 03B0     		add	sp, sp, #12
 192              	.LCFI11:
ARM GAS  /tmp/cckNWXvG.s 			page 5


 193              		.cfi_def_cfa_offset 4
 194              		@ sp needed
 195 0012 5DF804FB 		ldr	pc, [sp], #4
 196              		.loc 1 43 1 view .LVU35
 197              		.cfi_endproc
 198              	.LFE174:
 200              		.section	.text.lv_obj_set_style_min_height,"ax",%progbits
 201              		.align	1
 202              		.global	lv_obj_set_style_min_height
 203              		.syntax unified
 204              		.thumb
 205              		.thumb_func
 207              	lv_obj_set_style_min_height:
 208              	.LVL16:
 209              	.LFB175:
  44:Drivers/lvgl/src/core/lv_obj_style_gen.c **** 
  45:Drivers/lvgl/src/core/lv_obj_style_gen.c **** void lv_obj_set_style_min_height(lv_obj_t * obj, int32_t value, lv_style_selector_t selector)
  46:Drivers/lvgl/src/core/lv_obj_style_gen.c **** {
 210              		.loc 1 46 1 is_stmt 1 view -0
 211              		.cfi_startproc
 212              		@ args = 0, pretend = 0, frame = 8
 213              		@ frame_needed = 0, uses_anonymous_args = 0
 214              		.loc 1 46 1 is_stmt 0 view .LVU37
 215 0000 00B5     		push	{lr}
 216              	.LCFI12:
 217              		.cfi_def_cfa_offset 4
 218              		.cfi_offset 14, -4
 219 0002 83B0     		sub	sp, sp, #12
 220              	.LCFI13:
 221              		.cfi_def_cfa_offset 16
 222 0004 1346     		mov	r3, r2
  47:Drivers/lvgl/src/core/lv_obj_style_gen.c ****     lv_style_value_t v = {
 223              		.loc 1 47 5 is_stmt 1 view .LVU38
 224              		.loc 1 47 22 is_stmt 0 view .LVU39
 225 0006 0191     		str	r1, [sp, #4]
  48:Drivers/lvgl/src/core/lv_obj_style_gen.c ****         .num = (int32_t)value
  49:Drivers/lvgl/src/core/lv_obj_style_gen.c ****     };
  50:Drivers/lvgl/src/core/lv_obj_style_gen.c ****     lv_obj_set_local_style_prop(obj, LV_STYLE_MIN_HEIGHT, v, selector);
 226              		.loc 1 50 5 is_stmt 1 view .LVU40
 227 0008 0A46     		mov	r2, r1
 228              	.LVL17:
 229              		.loc 1 50 5 is_stmt 0 view .LVU41
 230 000a 0621     		movs	r1, #6
 231              	.LVL18:
 232              		.loc 1 50 5 view .LVU42
 233 000c FFF7FEFF 		bl	lv_obj_set_local_style_prop
 234              	.LVL19:
  51:Drivers/lvgl/src/core/lv_obj_style_gen.c **** }
 235              		.loc 1 51 1 view .LVU43
 236 0010 03B0     		add	sp, sp, #12
 237              	.LCFI14:
 238              		.cfi_def_cfa_offset 4
 239              		@ sp needed
 240 0012 5DF804FB 		ldr	pc, [sp], #4
 241              		.loc 1 51 1 view .LVU44
 242              		.cfi_endproc
 243              	.LFE175:
ARM GAS  /tmp/cckNWXvG.s 			page 6


 245              		.section	.text.lv_obj_set_style_max_height,"ax",%progbits
 246              		.align	1
 247              		.global	lv_obj_set_style_max_height
 248              		.syntax unified
 249              		.thumb
 250              		.thumb_func
 252              	lv_obj_set_style_max_height:
 253              	.LVL20:
 254              	.LFB176:
  52:Drivers/lvgl/src/core/lv_obj_style_gen.c **** 
  53:Drivers/lvgl/src/core/lv_obj_style_gen.c **** void lv_obj_set_style_max_height(lv_obj_t * obj, int32_t value, lv_style_selector_t selector)
  54:Drivers/lvgl/src/core/lv_obj_style_gen.c **** {
 255              		.loc 1 54 1 is_stmt 1 view -0
 256              		.cfi_startproc
 257              		@ args = 0, pretend = 0, frame = 8
 258              		@ frame_needed = 0, uses_anonymous_args = 0
 259              		.loc 1 54 1 is_stmt 0 view .LVU46
 260 0000 00B5     		push	{lr}
 261              	.LCFI15:
 262              		.cfi_def_cfa_offset 4
 263              		.cfi_offset 14, -4
 264 0002 83B0     		sub	sp, sp, #12
 265              	.LCFI16:
 266              		.cfi_def_cfa_offset 16
 267 0004 1346     		mov	r3, r2
  55:Drivers/lvgl/src/core/lv_obj_style_gen.c ****     lv_style_value_t v = {
 268              		.loc 1 55 5 is_stmt 1 view .LVU47
 269              		.loc 1 55 22 is_stmt 0 view .LVU48
 270 0006 0191     		str	r1, [sp, #4]
  56:Drivers/lvgl/src/core/lv_obj_style_gen.c ****         .num = (int32_t)value
  57:Drivers/lvgl/src/core/lv_obj_style_gen.c ****     };
  58:Drivers/lvgl/src/core/lv_obj_style_gen.c ****     lv_obj_set_local_style_prop(obj, LV_STYLE_MAX_HEIGHT, v, selector);
 271              		.loc 1 58 5 is_stmt 1 view .LVU49
 272 0008 0A46     		mov	r2, r1
 273              	.LVL21:
 274              		.loc 1 58 5 is_stmt 0 view .LVU50
 275 000a 0721     		movs	r1, #7
 276              	.LVL22:
 277              		.loc 1 58 5 view .LVU51
 278 000c FFF7FEFF 		bl	lv_obj_set_local_style_prop
 279              	.LVL23:
  59:Drivers/lvgl/src/core/lv_obj_style_gen.c **** }
 280              		.loc 1 59 1 view .LVU52
 281 0010 03B0     		add	sp, sp, #12
 282              	.LCFI17:
 283              		.cfi_def_cfa_offset 4
 284              		@ sp needed
 285 0012 5DF804FB 		ldr	pc, [sp], #4
 286              		.loc 1 59 1 view .LVU53
 287              		.cfi_endproc
 288              	.LFE176:
 290              		.section	.text.lv_obj_set_style_length,"ax",%progbits
 291              		.align	1
 292              		.global	lv_obj_set_style_length
 293              		.syntax unified
 294              		.thumb
 295              		.thumb_func
ARM GAS  /tmp/cckNWXvG.s 			page 7


 297              	lv_obj_set_style_length:
 298              	.LVL24:
 299              	.LFB177:
  60:Drivers/lvgl/src/core/lv_obj_style_gen.c **** 
  61:Drivers/lvgl/src/core/lv_obj_style_gen.c **** void lv_obj_set_style_length(lv_obj_t * obj, int32_t value, lv_style_selector_t selector)
  62:Drivers/lvgl/src/core/lv_obj_style_gen.c **** {
 300              		.loc 1 62 1 is_stmt 1 view -0
 301              		.cfi_startproc
 302              		@ args = 0, pretend = 0, frame = 8
 303              		@ frame_needed = 0, uses_anonymous_args = 0
 304              		.loc 1 62 1 is_stmt 0 view .LVU55
 305 0000 00B5     		push	{lr}
 306              	.LCFI18:
 307              		.cfi_def_cfa_offset 4
 308              		.cfi_offset 14, -4
 309 0002 83B0     		sub	sp, sp, #12
 310              	.LCFI19:
 311              		.cfi_def_cfa_offset 16
 312 0004 1346     		mov	r3, r2
  63:Drivers/lvgl/src/core/lv_obj_style_gen.c ****     lv_style_value_t v = {
 313              		.loc 1 63 5 is_stmt 1 view .LVU56
 314              		.loc 1 63 22 is_stmt 0 view .LVU57
 315 0006 0191     		str	r1, [sp, #4]
  64:Drivers/lvgl/src/core/lv_obj_style_gen.c ****         .num = (int32_t)value
  65:Drivers/lvgl/src/core/lv_obj_style_gen.c ****     };
  66:Drivers/lvgl/src/core/lv_obj_style_gen.c ****     lv_obj_set_local_style_prop(obj, LV_STYLE_LENGTH, v, selector);
 316              		.loc 1 66 5 is_stmt 1 view .LVU58
 317 0008 0A46     		mov	r2, r1
 318              	.LVL25:
 319              		.loc 1 66 5 is_stmt 0 view .LVU59
 320 000a 0321     		movs	r1, #3
 321              	.LVL26:
 322              		.loc 1 66 5 view .LVU60
 323 000c FFF7FEFF 		bl	lv_obj_set_local_style_prop
 324              	.LVL27:
  67:Drivers/lvgl/src/core/lv_obj_style_gen.c **** }
 325              		.loc 1 67 1 view .LVU61
 326 0010 03B0     		add	sp, sp, #12
 327              	.LCFI20:
 328              		.cfi_def_cfa_offset 4
 329              		@ sp needed
 330 0012 5DF804FB 		ldr	pc, [sp], #4
 331              		.loc 1 67 1 view .LVU62
 332              		.cfi_endproc
 333              	.LFE177:
 335              		.section	.text.lv_obj_set_style_x,"ax",%progbits
 336              		.align	1
 337              		.global	lv_obj_set_style_x
 338              		.syntax unified
 339              		.thumb
 340              		.thumb_func
 342              	lv_obj_set_style_x:
 343              	.LVL28:
 344              	.LFB178:
  68:Drivers/lvgl/src/core/lv_obj_style_gen.c **** 
  69:Drivers/lvgl/src/core/lv_obj_style_gen.c **** void lv_obj_set_style_x(lv_obj_t * obj, int32_t value, lv_style_selector_t selector)
  70:Drivers/lvgl/src/core/lv_obj_style_gen.c **** {
ARM GAS  /tmp/cckNWXvG.s 			page 8


 345              		.loc 1 70 1 is_stmt 1 view -0
 346              		.cfi_startproc
 347              		@ args = 0, pretend = 0, frame = 8
 348              		@ frame_needed = 0, uses_anonymous_args = 0
 349              		.loc 1 70 1 is_stmt 0 view .LVU64
 350 0000 00B5     		push	{lr}
 351              	.LCFI21:
 352              		.cfi_def_cfa_offset 4
 353              		.cfi_offset 14, -4
 354 0002 83B0     		sub	sp, sp, #12
 355              	.LCFI22:
 356              		.cfi_def_cfa_offset 16
 357 0004 1346     		mov	r3, r2
  71:Drivers/lvgl/src/core/lv_obj_style_gen.c ****     lv_style_value_t v = {
 358              		.loc 1 71 5 is_stmt 1 view .LVU65
 359              		.loc 1 71 22 is_stmt 0 view .LVU66
 360 0006 0191     		str	r1, [sp, #4]
  72:Drivers/lvgl/src/core/lv_obj_style_gen.c ****         .num = (int32_t)value
  73:Drivers/lvgl/src/core/lv_obj_style_gen.c ****     };
  74:Drivers/lvgl/src/core/lv_obj_style_gen.c ****     lv_obj_set_local_style_prop(obj, LV_STYLE_X, v, selector);
 361              		.loc 1 74 5 is_stmt 1 view .LVU67
 362 0008 0A46     		mov	r2, r1
 363              	.LVL29:
 364              		.loc 1 74 5 is_stmt 0 view .LVU68
 365 000a 0821     		movs	r1, #8
 366              	.LVL30:
 367              		.loc 1 74 5 view .LVU69
 368 000c FFF7FEFF 		bl	lv_obj_set_local_style_prop
 369              	.LVL31:
  75:Drivers/lvgl/src/core/lv_obj_style_gen.c **** }
 370              		.loc 1 75 1 view .LVU70
 371 0010 03B0     		add	sp, sp, #12
 372              	.LCFI23:
 373              		.cfi_def_cfa_offset 4
 374              		@ sp needed
 375 0012 5DF804FB 		ldr	pc, [sp], #4
 376              		.loc 1 75 1 view .LVU71
 377              		.cfi_endproc
 378              	.LFE178:
 380              		.section	.text.lv_obj_set_style_y,"ax",%progbits
 381              		.align	1
 382              		.global	lv_obj_set_style_y
 383              		.syntax unified
 384              		.thumb
 385              		.thumb_func
 387              	lv_obj_set_style_y:
 388              	.LVL32:
 389              	.LFB179:
  76:Drivers/lvgl/src/core/lv_obj_style_gen.c **** 
  77:Drivers/lvgl/src/core/lv_obj_style_gen.c **** void lv_obj_set_style_y(lv_obj_t * obj, int32_t value, lv_style_selector_t selector)
  78:Drivers/lvgl/src/core/lv_obj_style_gen.c **** {
 390              		.loc 1 78 1 is_stmt 1 view -0
 391              		.cfi_startproc
 392              		@ args = 0, pretend = 0, frame = 8
 393              		@ frame_needed = 0, uses_anonymous_args = 0
 394              		.loc 1 78 1 is_stmt 0 view .LVU73
 395 0000 00B5     		push	{lr}
ARM GAS  /tmp/cckNWXvG.s 			page 9


 396              	.LCFI24:
 397              		.cfi_def_cfa_offset 4
 398              		.cfi_offset 14, -4
 399 0002 83B0     		sub	sp, sp, #12
 400              	.LCFI25:
 401              		.cfi_def_cfa_offset 16
 402 0004 1346     		mov	r3, r2
  79:Drivers/lvgl/src/core/lv_obj_style_gen.c ****     lv_style_value_t v = {
 403              		.loc 1 79 5 is_stmt 1 view .LVU74
 404              		.loc 1 79 22 is_stmt 0 view .LVU75
 405 0006 0191     		str	r1, [sp, #4]
  80:Drivers/lvgl/src/core/lv_obj_style_gen.c ****         .num = (int32_t)value
  81:Drivers/lvgl/src/core/lv_obj_style_gen.c ****     };
  82:Drivers/lvgl/src/core/lv_obj_style_gen.c ****     lv_obj_set_local_style_prop(obj, LV_STYLE_Y, v, selector);
 406              		.loc 1 82 5 is_stmt 1 view .LVU76
 407 0008 0A46     		mov	r2, r1
 408              	.LVL33:
 409              		.loc 1 82 5 is_stmt 0 view .LVU77
 410 000a 0921     		movs	r1, #9
 411              	.LVL34:
 412              		.loc 1 82 5 view .LVU78
 413 000c FFF7FEFF 		bl	lv_obj_set_local_style_prop
 414              	.LVL35:
  83:Drivers/lvgl/src/core/lv_obj_style_gen.c **** }
 415              		.loc 1 83 1 view .LVU79
 416 0010 03B0     		add	sp, sp, #12
 417              	.LCFI26:
 418              		.cfi_def_cfa_offset 4
 419              		@ sp needed
 420 0012 5DF804FB 		ldr	pc, [sp], #4
 421              		.loc 1 83 1 view .LVU80
 422              		.cfi_endproc
 423              	.LFE179:
 425              		.section	.text.lv_obj_set_style_align,"ax",%progbits
 426              		.align	1
 427              		.global	lv_obj_set_style_align
 428              		.syntax unified
 429              		.thumb
 430              		.thumb_func
 432              	lv_obj_set_style_align:
 433              	.LVL36:
 434              	.LFB180:
  84:Drivers/lvgl/src/core/lv_obj_style_gen.c **** 
  85:Drivers/lvgl/src/core/lv_obj_style_gen.c **** void lv_obj_set_style_align(lv_obj_t * obj, lv_align_t value, lv_style_selector_t selector)
  86:Drivers/lvgl/src/core/lv_obj_style_gen.c **** {
 435              		.loc 1 86 1 is_stmt 1 view -0
 436              		.cfi_startproc
 437              		@ args = 0, pretend = 0, frame = 8
 438              		@ frame_needed = 0, uses_anonymous_args = 0
 439              		.loc 1 86 1 is_stmt 0 view .LVU82
 440 0000 00B5     		push	{lr}
 441              	.LCFI27:
 442              		.cfi_def_cfa_offset 4
 443              		.cfi_offset 14, -4
 444 0002 83B0     		sub	sp, sp, #12
 445              	.LCFI28:
 446              		.cfi_def_cfa_offset 16
ARM GAS  /tmp/cckNWXvG.s 			page 10


 447 0004 1346     		mov	r3, r2
  87:Drivers/lvgl/src/core/lv_obj_style_gen.c ****     lv_style_value_t v = {
 448              		.loc 1 87 5 is_stmt 1 view .LVU83
 449              		.loc 1 87 22 is_stmt 0 view .LVU84
 450 0006 0191     		str	r1, [sp, #4]
  88:Drivers/lvgl/src/core/lv_obj_style_gen.c ****         .num = (int32_t)value
  89:Drivers/lvgl/src/core/lv_obj_style_gen.c ****     };
  90:Drivers/lvgl/src/core/lv_obj_style_gen.c ****     lv_obj_set_local_style_prop(obj, LV_STYLE_ALIGN, v, selector);
 451              		.loc 1 90 5 is_stmt 1 view .LVU85
 452 0008 0A46     		mov	r2, r1
 453              	.LVL37:
 454              		.loc 1 90 5 is_stmt 0 view .LVU86
 455 000a 0A21     		movs	r1, #10
 456              	.LVL38:
 457              		.loc 1 90 5 view .LVU87
 458 000c FFF7FEFF 		bl	lv_obj_set_local_style_prop
 459              	.LVL39:
  91:Drivers/lvgl/src/core/lv_obj_style_gen.c **** }
 460              		.loc 1 91 1 view .LVU88
 461 0010 03B0     		add	sp, sp, #12
 462              	.LCFI29:
 463              		.cfi_def_cfa_offset 4
 464              		@ sp needed
 465 0012 5DF804FB 		ldr	pc, [sp], #4
 466              		.loc 1 91 1 view .LVU89
 467              		.cfi_endproc
 468              	.LFE180:
 470              		.section	.text.lv_obj_set_style_transform_width,"ax",%progbits
 471              		.align	1
 472              		.global	lv_obj_set_style_transform_width
 473              		.syntax unified
 474              		.thumb
 475              		.thumb_func
 477              	lv_obj_set_style_transform_width:
 478              	.LVL40:
 479              	.LFB181:
  92:Drivers/lvgl/src/core/lv_obj_style_gen.c **** 
  93:Drivers/lvgl/src/core/lv_obj_style_gen.c **** void lv_obj_set_style_transform_width(lv_obj_t * obj, int32_t value, lv_style_selector_t selector)
  94:Drivers/lvgl/src/core/lv_obj_style_gen.c **** {
 480              		.loc 1 94 1 is_stmt 1 view -0
 481              		.cfi_startproc
 482              		@ args = 0, pretend = 0, frame = 8
 483              		@ frame_needed = 0, uses_anonymous_args = 0
 484              		.loc 1 94 1 is_stmt 0 view .LVU91
 485 0000 00B5     		push	{lr}
 486              	.LCFI30:
 487              		.cfi_def_cfa_offset 4
 488              		.cfi_offset 14, -4
 489 0002 83B0     		sub	sp, sp, #12
 490              	.LCFI31:
 491              		.cfi_def_cfa_offset 16
 492 0004 1346     		mov	r3, r2
  95:Drivers/lvgl/src/core/lv_obj_style_gen.c ****     lv_style_value_t v = {
 493              		.loc 1 95 5 is_stmt 1 view .LVU92
 494              		.loc 1 95 22 is_stmt 0 view .LVU93
 495 0006 0191     		str	r1, [sp, #4]
  96:Drivers/lvgl/src/core/lv_obj_style_gen.c ****         .num = (int32_t)value
ARM GAS  /tmp/cckNWXvG.s 			page 11


  97:Drivers/lvgl/src/core/lv_obj_style_gen.c ****     };
  98:Drivers/lvgl/src/core/lv_obj_style_gen.c ****     lv_obj_set_local_style_prop(obj, LV_STYLE_TRANSFORM_WIDTH, v, selector);
 496              		.loc 1 98 5 is_stmt 1 view .LVU94
 497 0008 0A46     		mov	r2, r1
 498              	.LVL41:
 499              		.loc 1 98 5 is_stmt 0 view .LVU95
 500 000a 6A21     		movs	r1, #106
 501              	.LVL42:
 502              		.loc 1 98 5 view .LVU96
 503 000c FFF7FEFF 		bl	lv_obj_set_local_style_prop
 504              	.LVL43:
  99:Drivers/lvgl/src/core/lv_obj_style_gen.c **** }
 505              		.loc 1 99 1 view .LVU97
 506 0010 03B0     		add	sp, sp, #12
 507              	.LCFI32:
 508              		.cfi_def_cfa_offset 4
 509              		@ sp needed
 510 0012 5DF804FB 		ldr	pc, [sp], #4
 511              		.loc 1 99 1 view .LVU98
 512              		.cfi_endproc
 513              	.LFE181:
 515              		.section	.text.lv_obj_set_style_transform_height,"ax",%progbits
 516              		.align	1
 517              		.global	lv_obj_set_style_transform_height
 518              		.syntax unified
 519              		.thumb
 520              		.thumb_func
 522              	lv_obj_set_style_transform_height:
 523              	.LVL44:
 524              	.LFB182:
 100:Drivers/lvgl/src/core/lv_obj_style_gen.c **** 
 101:Drivers/lvgl/src/core/lv_obj_style_gen.c **** void lv_obj_set_style_transform_height(lv_obj_t * obj, int32_t value, lv_style_selector_t selector)
 102:Drivers/lvgl/src/core/lv_obj_style_gen.c **** {
 525              		.loc 1 102 1 is_stmt 1 view -0
 526              		.cfi_startproc
 527              		@ args = 0, pretend = 0, frame = 8
 528              		@ frame_needed = 0, uses_anonymous_args = 0
 529              		.loc 1 102 1 is_stmt 0 view .LVU100
 530 0000 00B5     		push	{lr}
 531              	.LCFI33:
 532              		.cfi_def_cfa_offset 4
 533              		.cfi_offset 14, -4
 534 0002 83B0     		sub	sp, sp, #12
 535              	.LCFI34:
 536              		.cfi_def_cfa_offset 16
 537 0004 1346     		mov	r3, r2
 103:Drivers/lvgl/src/core/lv_obj_style_gen.c ****     lv_style_value_t v = {
 538              		.loc 1 103 5 is_stmt 1 view .LVU101
 539              		.loc 1 103 22 is_stmt 0 view .LVU102
 540 0006 0191     		str	r1, [sp, #4]
 104:Drivers/lvgl/src/core/lv_obj_style_gen.c ****         .num = (int32_t)value
 105:Drivers/lvgl/src/core/lv_obj_style_gen.c ****     };
 106:Drivers/lvgl/src/core/lv_obj_style_gen.c ****     lv_obj_set_local_style_prop(obj, LV_STYLE_TRANSFORM_HEIGHT, v, selector);
 541              		.loc 1 106 5 is_stmt 1 view .LVU103
 542 0008 0A46     		mov	r2, r1
 543              	.LVL45:
 544              		.loc 1 106 5 is_stmt 0 view .LVU104
ARM GAS  /tmp/cckNWXvG.s 			page 12


 545 000a 6B21     		movs	r1, #107
 546              	.LVL46:
 547              		.loc 1 106 5 view .LVU105
 548 000c FFF7FEFF 		bl	lv_obj_set_local_style_prop
 549              	.LVL47:
 107:Drivers/lvgl/src/core/lv_obj_style_gen.c **** }
 550              		.loc 1 107 1 view .LVU106
 551 0010 03B0     		add	sp, sp, #12
 552              	.LCFI35:
 553              		.cfi_def_cfa_offset 4
 554              		@ sp needed
 555 0012 5DF804FB 		ldr	pc, [sp], #4
 556              		.loc 1 107 1 view .LVU107
 557              		.cfi_endproc
 558              	.LFE182:
 560              		.section	.text.lv_obj_set_style_translate_x,"ax",%progbits
 561              		.align	1
 562              		.global	lv_obj_set_style_translate_x
 563              		.syntax unified
 564              		.thumb
 565              		.thumb_func
 567              	lv_obj_set_style_translate_x:
 568              	.LVL48:
 569              	.LFB183:
 108:Drivers/lvgl/src/core/lv_obj_style_gen.c **** 
 109:Drivers/lvgl/src/core/lv_obj_style_gen.c **** void lv_obj_set_style_translate_x(lv_obj_t * obj, int32_t value, lv_style_selector_t selector)
 110:Drivers/lvgl/src/core/lv_obj_style_gen.c **** {
 570              		.loc 1 110 1 is_stmt 1 view -0
 571              		.cfi_startproc
 572              		@ args = 0, pretend = 0, frame = 8
 573              		@ frame_needed = 0, uses_anonymous_args = 0
 574              		.loc 1 110 1 is_stmt 0 view .LVU109
 575 0000 00B5     		push	{lr}
 576              	.LCFI36:
 577              		.cfi_def_cfa_offset 4
 578              		.cfi_offset 14, -4
 579 0002 83B0     		sub	sp, sp, #12
 580              	.LCFI37:
 581              		.cfi_def_cfa_offset 16
 582 0004 1346     		mov	r3, r2
 111:Drivers/lvgl/src/core/lv_obj_style_gen.c ****     lv_style_value_t v = {
 583              		.loc 1 111 5 is_stmt 1 view .LVU110
 584              		.loc 1 111 22 is_stmt 0 view .LVU111
 585 0006 0191     		str	r1, [sp, #4]
 112:Drivers/lvgl/src/core/lv_obj_style_gen.c ****         .num = (int32_t)value
 113:Drivers/lvgl/src/core/lv_obj_style_gen.c ****     };
 114:Drivers/lvgl/src/core/lv_obj_style_gen.c ****     lv_obj_set_local_style_prop(obj, LV_STYLE_TRANSLATE_X, v, selector);
 586              		.loc 1 114 5 is_stmt 1 view .LVU112
 587 0008 0A46     		mov	r2, r1
 588              	.LVL49:
 589              		.loc 1 114 5 is_stmt 0 view .LVU113
 590 000a 6C21     		movs	r1, #108
 591              	.LVL50:
 592              		.loc 1 114 5 view .LVU114
 593 000c FFF7FEFF 		bl	lv_obj_set_local_style_prop
 594              	.LVL51:
 115:Drivers/lvgl/src/core/lv_obj_style_gen.c **** }
ARM GAS  /tmp/cckNWXvG.s 			page 13


 595              		.loc 1 115 1 view .LVU115
 596 0010 03B0     		add	sp, sp, #12
 597              	.LCFI38:
 598              		.cfi_def_cfa_offset 4
 599              		@ sp needed
 600 0012 5DF804FB 		ldr	pc, [sp], #4
 601              		.loc 1 115 1 view .LVU116
 602              		.cfi_endproc
 603              	.LFE183:
 605              		.section	.text.lv_obj_set_style_translate_y,"ax",%progbits
 606              		.align	1
 607              		.global	lv_obj_set_style_translate_y
 608              		.syntax unified
 609              		.thumb
 610              		.thumb_func
 612              	lv_obj_set_style_translate_y:
 613              	.LVL52:
 614              	.LFB184:
 116:Drivers/lvgl/src/core/lv_obj_style_gen.c **** 
 117:Drivers/lvgl/src/core/lv_obj_style_gen.c **** void lv_obj_set_style_translate_y(lv_obj_t * obj, int32_t value, lv_style_selector_t selector)
 118:Drivers/lvgl/src/core/lv_obj_style_gen.c **** {
 615              		.loc 1 118 1 is_stmt 1 view -0
 616              		.cfi_startproc
 617              		@ args = 0, pretend = 0, frame = 8
 618              		@ frame_needed = 0, uses_anonymous_args = 0
 619              		.loc 1 118 1 is_stmt 0 view .LVU118
 620 0000 00B5     		push	{lr}
 621              	.LCFI39:
 622              		.cfi_def_cfa_offset 4
 623              		.cfi_offset 14, -4
 624 0002 83B0     		sub	sp, sp, #12
 625              	.LCFI40:
 626              		.cfi_def_cfa_offset 16
 627 0004 1346     		mov	r3, r2
 119:Drivers/lvgl/src/core/lv_obj_style_gen.c ****     lv_style_value_t v = {
 628              		.loc 1 119 5 is_stmt 1 view .LVU119
 629              		.loc 1 119 22 is_stmt 0 view .LVU120
 630 0006 0191     		str	r1, [sp, #4]
 120:Drivers/lvgl/src/core/lv_obj_style_gen.c ****         .num = (int32_t)value
 121:Drivers/lvgl/src/core/lv_obj_style_gen.c ****     };
 122:Drivers/lvgl/src/core/lv_obj_style_gen.c ****     lv_obj_set_local_style_prop(obj, LV_STYLE_TRANSLATE_Y, v, selector);
 631              		.loc 1 122 5 is_stmt 1 view .LVU121
 632 0008 0A46     		mov	r2, r1
 633              	.LVL53:
 634              		.loc 1 122 5 is_stmt 0 view .LVU122
 635 000a 6D21     		movs	r1, #109
 636              	.LVL54:
 637              		.loc 1 122 5 view .LVU123
 638 000c FFF7FEFF 		bl	lv_obj_set_local_style_prop
 639              	.LVL55:
 123:Drivers/lvgl/src/core/lv_obj_style_gen.c **** }
 640              		.loc 1 123 1 view .LVU124
 641 0010 03B0     		add	sp, sp, #12
 642              	.LCFI41:
 643              		.cfi_def_cfa_offset 4
 644              		@ sp needed
 645 0012 5DF804FB 		ldr	pc, [sp], #4
ARM GAS  /tmp/cckNWXvG.s 			page 14


 646              		.loc 1 123 1 view .LVU125
 647              		.cfi_endproc
 648              	.LFE184:
 650              		.section	.text.lv_obj_set_style_translate_radial,"ax",%progbits
 651              		.align	1
 652              		.global	lv_obj_set_style_translate_radial
 653              		.syntax unified
 654              		.thumb
 655              		.thumb_func
 657              	lv_obj_set_style_translate_radial:
 658              	.LVL56:
 659              	.LFB185:
 124:Drivers/lvgl/src/core/lv_obj_style_gen.c **** 
 125:Drivers/lvgl/src/core/lv_obj_style_gen.c **** void lv_obj_set_style_translate_radial(lv_obj_t * obj, int32_t value, lv_style_selector_t selector)
 126:Drivers/lvgl/src/core/lv_obj_style_gen.c **** {
 660              		.loc 1 126 1 is_stmt 1 view -0
 661              		.cfi_startproc
 662              		@ args = 0, pretend = 0, frame = 8
 663              		@ frame_needed = 0, uses_anonymous_args = 0
 664              		.loc 1 126 1 is_stmt 0 view .LVU127
 665 0000 00B5     		push	{lr}
 666              	.LCFI42:
 667              		.cfi_def_cfa_offset 4
 668              		.cfi_offset 14, -4
 669 0002 83B0     		sub	sp, sp, #12
 670              	.LCFI43:
 671              		.cfi_def_cfa_offset 16
 672 0004 1346     		mov	r3, r2
 127:Drivers/lvgl/src/core/lv_obj_style_gen.c ****     lv_style_value_t v = {
 673              		.loc 1 127 5 is_stmt 1 view .LVU128
 674              		.loc 1 127 22 is_stmt 0 view .LVU129
 675 0006 0191     		str	r1, [sp, #4]
 128:Drivers/lvgl/src/core/lv_obj_style_gen.c ****         .num = (int32_t)value
 129:Drivers/lvgl/src/core/lv_obj_style_gen.c ****     };
 130:Drivers/lvgl/src/core/lv_obj_style_gen.c ****     lv_obj_set_local_style_prop(obj, LV_STYLE_TRANSLATE_RADIAL, v, selector);
 676              		.loc 1 130 5 is_stmt 1 view .LVU130
 677 0008 0A46     		mov	r2, r1
 678              	.LVL57:
 679              		.loc 1 130 5 is_stmt 0 view .LVU131
 680 000a 7721     		movs	r1, #119
 681              	.LVL58:
 682              		.loc 1 130 5 view .LVU132
 683 000c FFF7FEFF 		bl	lv_obj_set_local_style_prop
 684              	.LVL59:
 131:Drivers/lvgl/src/core/lv_obj_style_gen.c **** }
 685              		.loc 1 131 1 view .LVU133
 686 0010 03B0     		add	sp, sp, #12
 687              	.LCFI44:
 688              		.cfi_def_cfa_offset 4
 689              		@ sp needed
 690 0012 5DF804FB 		ldr	pc, [sp], #4
 691              		.loc 1 131 1 view .LVU134
 692              		.cfi_endproc
 693              	.LFE185:
 695              		.section	.text.lv_obj_set_style_transform_scale_x,"ax",%progbits
 696              		.align	1
 697              		.global	lv_obj_set_style_transform_scale_x
ARM GAS  /tmp/cckNWXvG.s 			page 15


 698              		.syntax unified
 699              		.thumb
 700              		.thumb_func
 702              	lv_obj_set_style_transform_scale_x:
 703              	.LVL60:
 704              	.LFB186:
 132:Drivers/lvgl/src/core/lv_obj_style_gen.c **** 
 133:Drivers/lvgl/src/core/lv_obj_style_gen.c **** void lv_obj_set_style_transform_scale_x(lv_obj_t * obj, int32_t value, lv_style_selector_t selector
 134:Drivers/lvgl/src/core/lv_obj_style_gen.c **** {
 705              		.loc 1 134 1 is_stmt 1 view -0
 706              		.cfi_startproc
 707              		@ args = 0, pretend = 0, frame = 8
 708              		@ frame_needed = 0, uses_anonymous_args = 0
 709              		.loc 1 134 1 is_stmt 0 view .LVU136
 710 0000 00B5     		push	{lr}
 711              	.LCFI45:
 712              		.cfi_def_cfa_offset 4
 713              		.cfi_offset 14, -4
 714 0002 83B0     		sub	sp, sp, #12
 715              	.LCFI46:
 716              		.cfi_def_cfa_offset 16
 717 0004 1346     		mov	r3, r2
 135:Drivers/lvgl/src/core/lv_obj_style_gen.c ****     lv_style_value_t v = {
 718              		.loc 1 135 5 is_stmt 1 view .LVU137
 719              		.loc 1 135 22 is_stmt 0 view .LVU138
 720 0006 0191     		str	r1, [sp, #4]
 136:Drivers/lvgl/src/core/lv_obj_style_gen.c ****         .num = (int32_t)value
 137:Drivers/lvgl/src/core/lv_obj_style_gen.c ****     };
 138:Drivers/lvgl/src/core/lv_obj_style_gen.c ****     lv_obj_set_local_style_prop(obj, LV_STYLE_TRANSFORM_SCALE_X, v, selector);
 721              		.loc 1 138 5 is_stmt 1 view .LVU139
 722 0008 0A46     		mov	r2, r1
 723              	.LVL61:
 724              		.loc 1 138 5 is_stmt 0 view .LVU140
 725 000a 6E21     		movs	r1, #110
 726              	.LVL62:
 727              		.loc 1 138 5 view .LVU141
 728 000c FFF7FEFF 		bl	lv_obj_set_local_style_prop
 729              	.LVL63:
 139:Drivers/lvgl/src/core/lv_obj_style_gen.c **** }
 730              		.loc 1 139 1 view .LVU142
 731 0010 03B0     		add	sp, sp, #12
 732              	.LCFI47:
 733              		.cfi_def_cfa_offset 4
 734              		@ sp needed
 735 0012 5DF804FB 		ldr	pc, [sp], #4
 736              		.loc 1 139 1 view .LVU143
 737              		.cfi_endproc
 738              	.LFE186:
 740              		.section	.text.lv_obj_set_style_transform_scale_y,"ax",%progbits
 741              		.align	1
 742              		.global	lv_obj_set_style_transform_scale_y
 743              		.syntax unified
 744              		.thumb
 745              		.thumb_func
 747              	lv_obj_set_style_transform_scale_y:
 748              	.LVL64:
 749              	.LFB187:
ARM GAS  /tmp/cckNWXvG.s 			page 16


 140:Drivers/lvgl/src/core/lv_obj_style_gen.c **** 
 141:Drivers/lvgl/src/core/lv_obj_style_gen.c **** void lv_obj_set_style_transform_scale_y(lv_obj_t * obj, int32_t value, lv_style_selector_t selector
 142:Drivers/lvgl/src/core/lv_obj_style_gen.c **** {
 750              		.loc 1 142 1 is_stmt 1 view -0
 751              		.cfi_startproc
 752              		@ args = 0, pretend = 0, frame = 8
 753              		@ frame_needed = 0, uses_anonymous_args = 0
 754              		.loc 1 142 1 is_stmt 0 view .LVU145
 755 0000 00B5     		push	{lr}
 756              	.LCFI48:
 757              		.cfi_def_cfa_offset 4
 758              		.cfi_offset 14, -4
 759 0002 83B0     		sub	sp, sp, #12
 760              	.LCFI49:
 761              		.cfi_def_cfa_offset 16
 762 0004 1346     		mov	r3, r2
 143:Drivers/lvgl/src/core/lv_obj_style_gen.c ****     lv_style_value_t v = {
 763              		.loc 1 143 5 is_stmt 1 view .LVU146
 764              		.loc 1 143 22 is_stmt 0 view .LVU147
 765 0006 0191     		str	r1, [sp, #4]
 144:Drivers/lvgl/src/core/lv_obj_style_gen.c ****         .num = (int32_t)value
 145:Drivers/lvgl/src/core/lv_obj_style_gen.c ****     };
 146:Drivers/lvgl/src/core/lv_obj_style_gen.c ****     lv_obj_set_local_style_prop(obj, LV_STYLE_TRANSFORM_SCALE_Y, v, selector);
 766              		.loc 1 146 5 is_stmt 1 view .LVU148
 767 0008 0A46     		mov	r2, r1
 768              	.LVL65:
 769              		.loc 1 146 5 is_stmt 0 view .LVU149
 770 000a 6F21     		movs	r1, #111
 771              	.LVL66:
 772              		.loc 1 146 5 view .LVU150
 773 000c FFF7FEFF 		bl	lv_obj_set_local_style_prop
 774              	.LVL67:
 147:Drivers/lvgl/src/core/lv_obj_style_gen.c **** }
 775              		.loc 1 147 1 view .LVU151
 776 0010 03B0     		add	sp, sp, #12
 777              	.LCFI50:
 778              		.cfi_def_cfa_offset 4
 779              		@ sp needed
 780 0012 5DF804FB 		ldr	pc, [sp], #4
 781              		.loc 1 147 1 view .LVU152
 782              		.cfi_endproc
 783              	.LFE187:
 785              		.section	.text.lv_obj_set_style_transform_rotation,"ax",%progbits
 786              		.align	1
 787              		.global	lv_obj_set_style_transform_rotation
 788              		.syntax unified
 789              		.thumb
 790              		.thumb_func
 792              	lv_obj_set_style_transform_rotation:
 793              	.LVL68:
 794              	.LFB188:
 148:Drivers/lvgl/src/core/lv_obj_style_gen.c **** 
 149:Drivers/lvgl/src/core/lv_obj_style_gen.c **** void lv_obj_set_style_transform_rotation(lv_obj_t * obj, int32_t value, lv_style_selector_t selecto
 150:Drivers/lvgl/src/core/lv_obj_style_gen.c **** {
 795              		.loc 1 150 1 is_stmt 1 view -0
 796              		.cfi_startproc
 797              		@ args = 0, pretend = 0, frame = 8
ARM GAS  /tmp/cckNWXvG.s 			page 17


 798              		@ frame_needed = 0, uses_anonymous_args = 0
 799              		.loc 1 150 1 is_stmt 0 view .LVU154
 800 0000 00B5     		push	{lr}
 801              	.LCFI51:
 802              		.cfi_def_cfa_offset 4
 803              		.cfi_offset 14, -4
 804 0002 83B0     		sub	sp, sp, #12
 805              	.LCFI52:
 806              		.cfi_def_cfa_offset 16
 807 0004 1346     		mov	r3, r2
 151:Drivers/lvgl/src/core/lv_obj_style_gen.c ****     lv_style_value_t v = {
 808              		.loc 1 151 5 is_stmt 1 view .LVU155
 809              		.loc 1 151 22 is_stmt 0 view .LVU156
 810 0006 0191     		str	r1, [sp, #4]
 152:Drivers/lvgl/src/core/lv_obj_style_gen.c ****         .num = (int32_t)value
 153:Drivers/lvgl/src/core/lv_obj_style_gen.c ****     };
 154:Drivers/lvgl/src/core/lv_obj_style_gen.c ****     lv_obj_set_local_style_prop(obj, LV_STYLE_TRANSFORM_ROTATION, v, selector);
 811              		.loc 1 154 5 is_stmt 1 view .LVU157
 812 0008 0A46     		mov	r2, r1
 813              	.LVL69:
 814              		.loc 1 154 5 is_stmt 0 view .LVU158
 815 000a 7021     		movs	r1, #112
 816              	.LVL70:
 817              		.loc 1 154 5 view .LVU159
 818 000c FFF7FEFF 		bl	lv_obj_set_local_style_prop
 819              	.LVL71:
 155:Drivers/lvgl/src/core/lv_obj_style_gen.c **** }
 820              		.loc 1 155 1 view .LVU160
 821 0010 03B0     		add	sp, sp, #12
 822              	.LCFI53:
 823              		.cfi_def_cfa_offset 4
 824              		@ sp needed
 825 0012 5DF804FB 		ldr	pc, [sp], #4
 826              		.loc 1 155 1 view .LVU161
 827              		.cfi_endproc
 828              	.LFE188:
 830              		.section	.text.lv_obj_set_style_transform_pivot_x,"ax",%progbits
 831              		.align	1
 832              		.global	lv_obj_set_style_transform_pivot_x
 833              		.syntax unified
 834              		.thumb
 835              		.thumb_func
 837              	lv_obj_set_style_transform_pivot_x:
 838              	.LVL72:
 839              	.LFB189:
 156:Drivers/lvgl/src/core/lv_obj_style_gen.c **** 
 157:Drivers/lvgl/src/core/lv_obj_style_gen.c **** void lv_obj_set_style_transform_pivot_x(lv_obj_t * obj, int32_t value, lv_style_selector_t selector
 158:Drivers/lvgl/src/core/lv_obj_style_gen.c **** {
 840              		.loc 1 158 1 is_stmt 1 view -0
 841              		.cfi_startproc
 842              		@ args = 0, pretend = 0, frame = 8
 843              		@ frame_needed = 0, uses_anonymous_args = 0
 844              		.loc 1 158 1 is_stmt 0 view .LVU163
 845 0000 00B5     		push	{lr}
 846              	.LCFI54:
 847              		.cfi_def_cfa_offset 4
 848              		.cfi_offset 14, -4
ARM GAS  /tmp/cckNWXvG.s 			page 18


 849 0002 83B0     		sub	sp, sp, #12
 850              	.LCFI55:
 851              		.cfi_def_cfa_offset 16
 852 0004 1346     		mov	r3, r2
 159:Drivers/lvgl/src/core/lv_obj_style_gen.c ****     lv_style_value_t v = {
 853              		.loc 1 159 5 is_stmt 1 view .LVU164
 854              		.loc 1 159 22 is_stmt 0 view .LVU165
 855 0006 0191     		str	r1, [sp, #4]
 160:Drivers/lvgl/src/core/lv_obj_style_gen.c ****         .num = (int32_t)value
 161:Drivers/lvgl/src/core/lv_obj_style_gen.c ****     };
 162:Drivers/lvgl/src/core/lv_obj_style_gen.c ****     lv_obj_set_local_style_prop(obj, LV_STYLE_TRANSFORM_PIVOT_X, v, selector);
 856              		.loc 1 162 5 is_stmt 1 view .LVU166
 857 0008 0A46     		mov	r2, r1
 858              	.LVL73:
 859              		.loc 1 162 5 is_stmt 0 view .LVU167
 860 000a 7121     		movs	r1, #113
 861              	.LVL74:
 862              		.loc 1 162 5 view .LVU168
 863 000c FFF7FEFF 		bl	lv_obj_set_local_style_prop
 864              	.LVL75:
 163:Drivers/lvgl/src/core/lv_obj_style_gen.c **** }
 865              		.loc 1 163 1 view .LVU169
 866 0010 03B0     		add	sp, sp, #12
 867              	.LCFI56:
 868              		.cfi_def_cfa_offset 4
 869              		@ sp needed
 870 0012 5DF804FB 		ldr	pc, [sp], #4
 871              		.loc 1 163 1 view .LVU170
 872              		.cfi_endproc
 873              	.LFE189:
 875              		.section	.text.lv_obj_set_style_transform_pivot_y,"ax",%progbits
 876              		.align	1
 877              		.global	lv_obj_set_style_transform_pivot_y
 878              		.syntax unified
 879              		.thumb
 880              		.thumb_func
 882              	lv_obj_set_style_transform_pivot_y:
 883              	.LVL76:
 884              	.LFB190:
 164:Drivers/lvgl/src/core/lv_obj_style_gen.c **** 
 165:Drivers/lvgl/src/core/lv_obj_style_gen.c **** void lv_obj_set_style_transform_pivot_y(lv_obj_t * obj, int32_t value, lv_style_selector_t selector
 166:Drivers/lvgl/src/core/lv_obj_style_gen.c **** {
 885              		.loc 1 166 1 is_stmt 1 view -0
 886              		.cfi_startproc
 887              		@ args = 0, pretend = 0, frame = 8
 888              		@ frame_needed = 0, uses_anonymous_args = 0
 889              		.loc 1 166 1 is_stmt 0 view .LVU172
 890 0000 00B5     		push	{lr}
 891              	.LCFI57:
 892              		.cfi_def_cfa_offset 4
 893              		.cfi_offset 14, -4
 894 0002 83B0     		sub	sp, sp, #12
 895              	.LCFI58:
 896              		.cfi_def_cfa_offset 16
 897 0004 1346     		mov	r3, r2
 167:Drivers/lvgl/src/core/lv_obj_style_gen.c ****     lv_style_value_t v = {
 898              		.loc 1 167 5 is_stmt 1 view .LVU173
ARM GAS  /tmp/cckNWXvG.s 			page 19


 899              		.loc 1 167 22 is_stmt 0 view .LVU174
 900 0006 0191     		str	r1, [sp, #4]
 168:Drivers/lvgl/src/core/lv_obj_style_gen.c ****         .num = (int32_t)value
 169:Drivers/lvgl/src/core/lv_obj_style_gen.c ****     };
 170:Drivers/lvgl/src/core/lv_obj_style_gen.c ****     lv_obj_set_local_style_prop(obj, LV_STYLE_TRANSFORM_PIVOT_Y, v, selector);
 901              		.loc 1 170 5 is_stmt 1 view .LVU175
 902 0008 0A46     		mov	r2, r1
 903              	.LVL77:
 904              		.loc 1 170 5 is_stmt 0 view .LVU176
 905 000a 7221     		movs	r1, #114
 906              	.LVL78:
 907              		.loc 1 170 5 view .LVU177
 908 000c FFF7FEFF 		bl	lv_obj_set_local_style_prop
 909              	.LVL79:
 171:Drivers/lvgl/src/core/lv_obj_style_gen.c **** }
 910              		.loc 1 171 1 view .LVU178
 911 0010 03B0     		add	sp, sp, #12
 912              	.LCFI59:
 913              		.cfi_def_cfa_offset 4
 914              		@ sp needed
 915 0012 5DF804FB 		ldr	pc, [sp], #4
 916              		.loc 1 171 1 view .LVU179
 917              		.cfi_endproc
 918              	.LFE190:
 920              		.section	.text.lv_obj_set_style_transform_skew_x,"ax",%progbits
 921              		.align	1
 922              		.global	lv_obj_set_style_transform_skew_x
 923              		.syntax unified
 924              		.thumb
 925              		.thumb_func
 927              	lv_obj_set_style_transform_skew_x:
 928              	.LVL80:
 929              	.LFB191:
 172:Drivers/lvgl/src/core/lv_obj_style_gen.c **** 
 173:Drivers/lvgl/src/core/lv_obj_style_gen.c **** void lv_obj_set_style_transform_skew_x(lv_obj_t * obj, int32_t value, lv_style_selector_t selector)
 174:Drivers/lvgl/src/core/lv_obj_style_gen.c **** {
 930              		.loc 1 174 1 is_stmt 1 view -0
 931              		.cfi_startproc
 932              		@ args = 0, pretend = 0, frame = 8
 933              		@ frame_needed = 0, uses_anonymous_args = 0
 934              		.loc 1 174 1 is_stmt 0 view .LVU181
 935 0000 00B5     		push	{lr}
 936              	.LCFI60:
 937              		.cfi_def_cfa_offset 4
 938              		.cfi_offset 14, -4
 939 0002 83B0     		sub	sp, sp, #12
 940              	.LCFI61:
 941              		.cfi_def_cfa_offset 16
 942 0004 1346     		mov	r3, r2
 175:Drivers/lvgl/src/core/lv_obj_style_gen.c ****     lv_style_value_t v = {
 943              		.loc 1 175 5 is_stmt 1 view .LVU182
 944              		.loc 1 175 22 is_stmt 0 view .LVU183
 945 0006 0191     		str	r1, [sp, #4]
 176:Drivers/lvgl/src/core/lv_obj_style_gen.c ****         .num = (int32_t)value
 177:Drivers/lvgl/src/core/lv_obj_style_gen.c ****     };
 178:Drivers/lvgl/src/core/lv_obj_style_gen.c ****     lv_obj_set_local_style_prop(obj, LV_STYLE_TRANSFORM_SKEW_X, v, selector);
 946              		.loc 1 178 5 is_stmt 1 view .LVU184
ARM GAS  /tmp/cckNWXvG.s 			page 20


 947 0008 0A46     		mov	r2, r1
 948              	.LVL81:
 949              		.loc 1 178 5 is_stmt 0 view .LVU185
 950 000a 7321     		movs	r1, #115
 951              	.LVL82:
 952              		.loc 1 178 5 view .LVU186
 953 000c FFF7FEFF 		bl	lv_obj_set_local_style_prop
 954              	.LVL83:
 179:Drivers/lvgl/src/core/lv_obj_style_gen.c **** }
 955              		.loc 1 179 1 view .LVU187
 956 0010 03B0     		add	sp, sp, #12
 957              	.LCFI62:
 958              		.cfi_def_cfa_offset 4
 959              		@ sp needed
 960 0012 5DF804FB 		ldr	pc, [sp], #4
 961              		.loc 1 179 1 view .LVU188
 962              		.cfi_endproc
 963              	.LFE191:
 965              		.section	.text.lv_obj_set_style_transform_skew_y,"ax",%progbits
 966              		.align	1
 967              		.global	lv_obj_set_style_transform_skew_y
 968              		.syntax unified
 969              		.thumb
 970              		.thumb_func
 972              	lv_obj_set_style_transform_skew_y:
 973              	.LVL84:
 974              	.LFB192:
 180:Drivers/lvgl/src/core/lv_obj_style_gen.c **** 
 181:Drivers/lvgl/src/core/lv_obj_style_gen.c **** void lv_obj_set_style_transform_skew_y(lv_obj_t * obj, int32_t value, lv_style_selector_t selector)
 182:Drivers/lvgl/src/core/lv_obj_style_gen.c **** {
 975              		.loc 1 182 1 is_stmt 1 view -0
 976              		.cfi_startproc
 977              		@ args = 0, pretend = 0, frame = 8
 978              		@ frame_needed = 0, uses_anonymous_args = 0
 979              		.loc 1 182 1 is_stmt 0 view .LVU190
 980 0000 00B5     		push	{lr}
 981              	.LCFI63:
 982              		.cfi_def_cfa_offset 4
 983              		.cfi_offset 14, -4
 984 0002 83B0     		sub	sp, sp, #12
 985              	.LCFI64:
 986              		.cfi_def_cfa_offset 16
 987 0004 1346     		mov	r3, r2
 183:Drivers/lvgl/src/core/lv_obj_style_gen.c ****     lv_style_value_t v = {
 988              		.loc 1 183 5 is_stmt 1 view .LVU191
 989              		.loc 1 183 22 is_stmt 0 view .LVU192
 990 0006 0191     		str	r1, [sp, #4]
 184:Drivers/lvgl/src/core/lv_obj_style_gen.c ****         .num = (int32_t)value
 185:Drivers/lvgl/src/core/lv_obj_style_gen.c ****     };
 186:Drivers/lvgl/src/core/lv_obj_style_gen.c ****     lv_obj_set_local_style_prop(obj, LV_STYLE_TRANSFORM_SKEW_Y, v, selector);
 991              		.loc 1 186 5 is_stmt 1 view .LVU193
 992 0008 0A46     		mov	r2, r1
 993              	.LVL85:
 994              		.loc 1 186 5 is_stmt 0 view .LVU194
 995 000a 7421     		movs	r1, #116
 996              	.LVL86:
 997              		.loc 1 186 5 view .LVU195
ARM GAS  /tmp/cckNWXvG.s 			page 21


 998 000c FFF7FEFF 		bl	lv_obj_set_local_style_prop
 999              	.LVL87:
 187:Drivers/lvgl/src/core/lv_obj_style_gen.c **** }
 1000              		.loc 1 187 1 view .LVU196
 1001 0010 03B0     		add	sp, sp, #12
 1002              	.LCFI65:
 1003              		.cfi_def_cfa_offset 4
 1004              		@ sp needed
 1005 0012 5DF804FB 		ldr	pc, [sp], #4
 1006              		.loc 1 187 1 view .LVU197
 1007              		.cfi_endproc
 1008              	.LFE192:
 1010              		.section	.text.lv_obj_set_style_pad_top,"ax",%progbits
 1011              		.align	1
 1012              		.global	lv_obj_set_style_pad_top
 1013              		.syntax unified
 1014              		.thumb
 1015              		.thumb_func
 1017              	lv_obj_set_style_pad_top:
 1018              	.LVL88:
 1019              	.LFB193:
 188:Drivers/lvgl/src/core/lv_obj_style_gen.c **** 
 189:Drivers/lvgl/src/core/lv_obj_style_gen.c **** void lv_obj_set_style_pad_top(lv_obj_t * obj, int32_t value, lv_style_selector_t selector)
 190:Drivers/lvgl/src/core/lv_obj_style_gen.c **** {
 1020              		.loc 1 190 1 is_stmt 1 view -0
 1021              		.cfi_startproc
 1022              		@ args = 0, pretend = 0, frame = 8
 1023              		@ frame_needed = 0, uses_anonymous_args = 0
 1024              		.loc 1 190 1 is_stmt 0 view .LVU199
 1025 0000 00B5     		push	{lr}
 1026              	.LCFI66:
 1027              		.cfi_def_cfa_offset 4
 1028              		.cfi_offset 14, -4
 1029 0002 83B0     		sub	sp, sp, #12
 1030              	.LCFI67:
 1031              		.cfi_def_cfa_offset 16
 1032 0004 1346     		mov	r3, r2
 191:Drivers/lvgl/src/core/lv_obj_style_gen.c ****     lv_style_value_t v = {
 1033              		.loc 1 191 5 is_stmt 1 view .LVU200
 1034              		.loc 1 191 22 is_stmt 0 view .LVU201
 1035 0006 0191     		str	r1, [sp, #4]
 192:Drivers/lvgl/src/core/lv_obj_style_gen.c ****         .num = (int32_t)value
 193:Drivers/lvgl/src/core/lv_obj_style_gen.c ****     };
 194:Drivers/lvgl/src/core/lv_obj_style_gen.c ****     lv_obj_set_local_style_prop(obj, LV_STYLE_PAD_TOP, v, selector);
 1036              		.loc 1 194 5 is_stmt 1 view .LVU202
 1037 0008 0A46     		mov	r2, r1
 1038              	.LVL89:
 1039              		.loc 1 194 5 is_stmt 0 view .LVU203
 1040 000a 1021     		movs	r1, #16
 1041              	.LVL90:
 1042              		.loc 1 194 5 view .LVU204
 1043 000c FFF7FEFF 		bl	lv_obj_set_local_style_prop
 1044              	.LVL91:
 195:Drivers/lvgl/src/core/lv_obj_style_gen.c **** }
 1045              		.loc 1 195 1 view .LVU205
 1046 0010 03B0     		add	sp, sp, #12
 1047              	.LCFI68:
ARM GAS  /tmp/cckNWXvG.s 			page 22


 1048              		.cfi_def_cfa_offset 4
 1049              		@ sp needed
 1050 0012 5DF804FB 		ldr	pc, [sp], #4
 1051              		.loc 1 195 1 view .LVU206
 1052              		.cfi_endproc
 1053              	.LFE193:
 1055              		.section	.text.lv_obj_set_style_pad_bottom,"ax",%progbits
 1056              		.align	1
 1057              		.global	lv_obj_set_style_pad_bottom
 1058              		.syntax unified
 1059              		.thumb
 1060              		.thumb_func
 1062              	lv_obj_set_style_pad_bottom:
 1063              	.LVL92:
 1064              	.LFB194:
 196:Drivers/lvgl/src/core/lv_obj_style_gen.c **** 
 197:Drivers/lvgl/src/core/lv_obj_style_gen.c **** void lv_obj_set_style_pad_bottom(lv_obj_t * obj, int32_t value, lv_style_selector_t selector)
 198:Drivers/lvgl/src/core/lv_obj_style_gen.c **** {
 1065              		.loc 1 198 1 is_stmt 1 view -0
 1066              		.cfi_startproc
 1067              		@ args = 0, pretend = 0, frame = 8
 1068              		@ frame_needed = 0, uses_anonymous_args = 0
 1069              		.loc 1 198 1 is_stmt 0 view .LVU208
 1070 0000 00B5     		push	{lr}
 1071              	.LCFI69:
 1072              		.cfi_def_cfa_offset 4
 1073              		.cfi_offset 14, -4
 1074 0002 83B0     		sub	sp, sp, #12
 1075              	.LCFI70:
 1076              		.cfi_def_cfa_offset 16
 1077 0004 1346     		mov	r3, r2
 199:Drivers/lvgl/src/core/lv_obj_style_gen.c ****     lv_style_value_t v = {
 1078              		.loc 1 199 5 is_stmt 1 view .LVU209
 1079              		.loc 1 199 22 is_stmt 0 view .LVU210
 1080 0006 0191     		str	r1, [sp, #4]
 200:Drivers/lvgl/src/core/lv_obj_style_gen.c ****         .num = (int32_t)value
 201:Drivers/lvgl/src/core/lv_obj_style_gen.c ****     };
 202:Drivers/lvgl/src/core/lv_obj_style_gen.c ****     lv_obj_set_local_style_prop(obj, LV_STYLE_PAD_BOTTOM, v, selector);
 1081              		.loc 1 202 5 is_stmt 1 view .LVU211
 1082 0008 0A46     		mov	r2, r1
 1083              	.LVL93:
 1084              		.loc 1 202 5 is_stmt 0 view .LVU212
 1085 000a 1121     		movs	r1, #17
 1086              	.LVL94:
 1087              		.loc 1 202 5 view .LVU213
 1088 000c FFF7FEFF 		bl	lv_obj_set_local_style_prop
 1089              	.LVL95:
 203:Drivers/lvgl/src/core/lv_obj_style_gen.c **** }
 1090              		.loc 1 203 1 view .LVU214
 1091 0010 03B0     		add	sp, sp, #12
 1092              	.LCFI71:
 1093              		.cfi_def_cfa_offset 4
 1094              		@ sp needed
 1095 0012 5DF804FB 		ldr	pc, [sp], #4
 1096              		.loc 1 203 1 view .LVU215
 1097              		.cfi_endproc
 1098              	.LFE194:
ARM GAS  /tmp/cckNWXvG.s 			page 23


 1100              		.section	.text.lv_obj_set_style_pad_left,"ax",%progbits
 1101              		.align	1
 1102              		.global	lv_obj_set_style_pad_left
 1103              		.syntax unified
 1104              		.thumb
 1105              		.thumb_func
 1107              	lv_obj_set_style_pad_left:
 1108              	.LVL96:
 1109              	.LFB195:
 204:Drivers/lvgl/src/core/lv_obj_style_gen.c **** 
 205:Drivers/lvgl/src/core/lv_obj_style_gen.c **** void lv_obj_set_style_pad_left(lv_obj_t * obj, int32_t value, lv_style_selector_t selector)
 206:Drivers/lvgl/src/core/lv_obj_style_gen.c **** {
 1110              		.loc 1 206 1 is_stmt 1 view -0
 1111              		.cfi_startproc
 1112              		@ args = 0, pretend = 0, frame = 8
 1113              		@ frame_needed = 0, uses_anonymous_args = 0
 1114              		.loc 1 206 1 is_stmt 0 view .LVU217
 1115 0000 00B5     		push	{lr}
 1116              	.LCFI72:
 1117              		.cfi_def_cfa_offset 4
 1118              		.cfi_offset 14, -4
 1119 0002 83B0     		sub	sp, sp, #12
 1120              	.LCFI73:
 1121              		.cfi_def_cfa_offset 16
 1122 0004 1346     		mov	r3, r2
 207:Drivers/lvgl/src/core/lv_obj_style_gen.c ****     lv_style_value_t v = {
 1123              		.loc 1 207 5 is_stmt 1 view .LVU218
 1124              		.loc 1 207 22 is_stmt 0 view .LVU219
 1125 0006 0191     		str	r1, [sp, #4]
 208:Drivers/lvgl/src/core/lv_obj_style_gen.c ****         .num = (int32_t)value
 209:Drivers/lvgl/src/core/lv_obj_style_gen.c ****     };
 210:Drivers/lvgl/src/core/lv_obj_style_gen.c ****     lv_obj_set_local_style_prop(obj, LV_STYLE_PAD_LEFT, v, selector);
 1126              		.loc 1 210 5 is_stmt 1 view .LVU220
 1127 0008 0A46     		mov	r2, r1
 1128              	.LVL97:
 1129              		.loc 1 210 5 is_stmt 0 view .LVU221
 1130 000a 1221     		movs	r1, #18
 1131              	.LVL98:
 1132              		.loc 1 210 5 view .LVU222
 1133 000c FFF7FEFF 		bl	lv_obj_set_local_style_prop
 1134              	.LVL99:
 211:Drivers/lvgl/src/core/lv_obj_style_gen.c **** }
 1135              		.loc 1 211 1 view .LVU223
 1136 0010 03B0     		add	sp, sp, #12
 1137              	.LCFI74:
 1138              		.cfi_def_cfa_offset 4
 1139              		@ sp needed
 1140 0012 5DF804FB 		ldr	pc, [sp], #4
 1141              		.loc 1 211 1 view .LVU224
 1142              		.cfi_endproc
 1143              	.LFE195:
 1145              		.section	.text.lv_obj_set_style_pad_right,"ax",%progbits
 1146              		.align	1
 1147              		.global	lv_obj_set_style_pad_right
 1148              		.syntax unified
 1149              		.thumb
 1150              		.thumb_func
ARM GAS  /tmp/cckNWXvG.s 			page 24


 1152              	lv_obj_set_style_pad_right:
 1153              	.LVL100:
 1154              	.LFB196:
 212:Drivers/lvgl/src/core/lv_obj_style_gen.c **** 
 213:Drivers/lvgl/src/core/lv_obj_style_gen.c **** void lv_obj_set_style_pad_right(lv_obj_t * obj, int32_t value, lv_style_selector_t selector)
 214:Drivers/lvgl/src/core/lv_obj_style_gen.c **** {
 1155              		.loc 1 214 1 is_stmt 1 view -0
 1156              		.cfi_startproc
 1157              		@ args = 0, pretend = 0, frame = 8
 1158              		@ frame_needed = 0, uses_anonymous_args = 0
 1159              		.loc 1 214 1 is_stmt 0 view .LVU226
 1160 0000 00B5     		push	{lr}
 1161              	.LCFI75:
 1162              		.cfi_def_cfa_offset 4
 1163              		.cfi_offset 14, -4
 1164 0002 83B0     		sub	sp, sp, #12
 1165              	.LCFI76:
 1166              		.cfi_def_cfa_offset 16
 1167 0004 1346     		mov	r3, r2
 215:Drivers/lvgl/src/core/lv_obj_style_gen.c ****     lv_style_value_t v = {
 1168              		.loc 1 215 5 is_stmt 1 view .LVU227
 1169              		.loc 1 215 22 is_stmt 0 view .LVU228
 1170 0006 0191     		str	r1, [sp, #4]
 216:Drivers/lvgl/src/core/lv_obj_style_gen.c ****         .num = (int32_t)value
 217:Drivers/lvgl/src/core/lv_obj_style_gen.c ****     };
 218:Drivers/lvgl/src/core/lv_obj_style_gen.c ****     lv_obj_set_local_style_prop(obj, LV_STYLE_PAD_RIGHT, v, selector);
 1171              		.loc 1 218 5 is_stmt 1 view .LVU229
 1172 0008 0A46     		mov	r2, r1
 1173              	.LVL101:
 1174              		.loc 1 218 5 is_stmt 0 view .LVU230
 1175 000a 1321     		movs	r1, #19
 1176              	.LVL102:
 1177              		.loc 1 218 5 view .LVU231
 1178 000c FFF7FEFF 		bl	lv_obj_set_local_style_prop
 1179              	.LVL103:
 219:Drivers/lvgl/src/core/lv_obj_style_gen.c **** }
 1180              		.loc 1 219 1 view .LVU232
 1181 0010 03B0     		add	sp, sp, #12
 1182              	.LCFI77:
 1183              		.cfi_def_cfa_offset 4
 1184              		@ sp needed
 1185 0012 5DF804FB 		ldr	pc, [sp], #4
 1186              		.loc 1 219 1 view .LVU233
 1187              		.cfi_endproc
 1188              	.LFE196:
 1190              		.section	.text.lv_obj_set_style_pad_row,"ax",%progbits
 1191              		.align	1
 1192              		.global	lv_obj_set_style_pad_row
 1193              		.syntax unified
 1194              		.thumb
 1195              		.thumb_func
 1197              	lv_obj_set_style_pad_row:
 1198              	.LVL104:
 1199              	.LFB197:
 220:Drivers/lvgl/src/core/lv_obj_style_gen.c **** 
 221:Drivers/lvgl/src/core/lv_obj_style_gen.c **** void lv_obj_set_style_pad_row(lv_obj_t * obj, int32_t value, lv_style_selector_t selector)
 222:Drivers/lvgl/src/core/lv_obj_style_gen.c **** {
ARM GAS  /tmp/cckNWXvG.s 			page 25


 1200              		.loc 1 222 1 is_stmt 1 view -0
 1201              		.cfi_startproc
 1202              		@ args = 0, pretend = 0, frame = 8
 1203              		@ frame_needed = 0, uses_anonymous_args = 0
 1204              		.loc 1 222 1 is_stmt 0 view .LVU235
 1205 0000 00B5     		push	{lr}
 1206              	.LCFI78:
 1207              		.cfi_def_cfa_offset 4
 1208              		.cfi_offset 14, -4
 1209 0002 83B0     		sub	sp, sp, #12
 1210              	.LCFI79:
 1211              		.cfi_def_cfa_offset 16
 1212 0004 1346     		mov	r3, r2
 223:Drivers/lvgl/src/core/lv_obj_style_gen.c ****     lv_style_value_t v = {
 1213              		.loc 1 223 5 is_stmt 1 view .LVU236
 1214              		.loc 1 223 22 is_stmt 0 view .LVU237
 1215 0006 0191     		str	r1, [sp, #4]
 224:Drivers/lvgl/src/core/lv_obj_style_gen.c ****         .num = (int32_t)value
 225:Drivers/lvgl/src/core/lv_obj_style_gen.c ****     };
 226:Drivers/lvgl/src/core/lv_obj_style_gen.c ****     lv_obj_set_local_style_prop(obj, LV_STYLE_PAD_ROW, v, selector);
 1216              		.loc 1 226 5 is_stmt 1 view .LVU238
 1217 0008 0A46     		mov	r2, r1
 1218              	.LVL105:
 1219              		.loc 1 226 5 is_stmt 0 view .LVU239
 1220 000a 1421     		movs	r1, #20
 1221              	.LVL106:
 1222              		.loc 1 226 5 view .LVU240
 1223 000c FFF7FEFF 		bl	lv_obj_set_local_style_prop
 1224              	.LVL107:
 227:Drivers/lvgl/src/core/lv_obj_style_gen.c **** }
 1225              		.loc 1 227 1 view .LVU241
 1226 0010 03B0     		add	sp, sp, #12
 1227              	.LCFI80:
 1228              		.cfi_def_cfa_offset 4
 1229              		@ sp needed
 1230 0012 5DF804FB 		ldr	pc, [sp], #4
 1231              		.loc 1 227 1 view .LVU242
 1232              		.cfi_endproc
 1233              	.LFE197:
 1235              		.section	.text.lv_obj_set_style_pad_column,"ax",%progbits
 1236              		.align	1
 1237              		.global	lv_obj_set_style_pad_column
 1238              		.syntax unified
 1239              		.thumb
 1240              		.thumb_func
 1242              	lv_obj_set_style_pad_column:
 1243              	.LVL108:
 1244              	.LFB198:
 228:Drivers/lvgl/src/core/lv_obj_style_gen.c **** 
 229:Drivers/lvgl/src/core/lv_obj_style_gen.c **** void lv_obj_set_style_pad_column(lv_obj_t * obj, int32_t value, lv_style_selector_t selector)
 230:Drivers/lvgl/src/core/lv_obj_style_gen.c **** {
 1245              		.loc 1 230 1 is_stmt 1 view -0
 1246              		.cfi_startproc
 1247              		@ args = 0, pretend = 0, frame = 8
 1248              		@ frame_needed = 0, uses_anonymous_args = 0
 1249              		.loc 1 230 1 is_stmt 0 view .LVU244
 1250 0000 00B5     		push	{lr}
ARM GAS  /tmp/cckNWXvG.s 			page 26


 1251              	.LCFI81:
 1252              		.cfi_def_cfa_offset 4
 1253              		.cfi_offset 14, -4
 1254 0002 83B0     		sub	sp, sp, #12
 1255              	.LCFI82:
 1256              		.cfi_def_cfa_offset 16
 1257 0004 1346     		mov	r3, r2
 231:Drivers/lvgl/src/core/lv_obj_style_gen.c ****     lv_style_value_t v = {
 1258              		.loc 1 231 5 is_stmt 1 view .LVU245
 1259              		.loc 1 231 22 is_stmt 0 view .LVU246
 1260 0006 0191     		str	r1, [sp, #4]
 232:Drivers/lvgl/src/core/lv_obj_style_gen.c ****         .num = (int32_t)value
 233:Drivers/lvgl/src/core/lv_obj_style_gen.c ****     };
 234:Drivers/lvgl/src/core/lv_obj_style_gen.c ****     lv_obj_set_local_style_prop(obj, LV_STYLE_PAD_COLUMN, v, selector);
 1261              		.loc 1 234 5 is_stmt 1 view .LVU247
 1262 0008 0A46     		mov	r2, r1
 1263              	.LVL109:
 1264              		.loc 1 234 5 is_stmt 0 view .LVU248
 1265 000a 1521     		movs	r1, #21
 1266              	.LVL110:
 1267              		.loc 1 234 5 view .LVU249
 1268 000c FFF7FEFF 		bl	lv_obj_set_local_style_prop
 1269              	.LVL111:
 235:Drivers/lvgl/src/core/lv_obj_style_gen.c **** }
 1270              		.loc 1 235 1 view .LVU250
 1271 0010 03B0     		add	sp, sp, #12
 1272              	.LCFI83:
 1273              		.cfi_def_cfa_offset 4
 1274              		@ sp needed
 1275 0012 5DF804FB 		ldr	pc, [sp], #4
 1276              		.loc 1 235 1 view .LVU251
 1277              		.cfi_endproc
 1278              	.LFE198:
 1280              		.section	.text.lv_obj_set_style_pad_radial,"ax",%progbits
 1281              		.align	1
 1282              		.global	lv_obj_set_style_pad_radial
 1283              		.syntax unified
 1284              		.thumb
 1285              		.thumb_func
 1287              	lv_obj_set_style_pad_radial:
 1288              	.LVL112:
 1289              	.LFB199:
 236:Drivers/lvgl/src/core/lv_obj_style_gen.c **** 
 237:Drivers/lvgl/src/core/lv_obj_style_gen.c **** void lv_obj_set_style_pad_radial(lv_obj_t * obj, int32_t value, lv_style_selector_t selector)
 238:Drivers/lvgl/src/core/lv_obj_style_gen.c **** {
 1290              		.loc 1 238 1 is_stmt 1 view -0
 1291              		.cfi_startproc
 1292              		@ args = 0, pretend = 0, frame = 8
 1293              		@ frame_needed = 0, uses_anonymous_args = 0
 1294              		.loc 1 238 1 is_stmt 0 view .LVU253
 1295 0000 00B5     		push	{lr}
 1296              	.LCFI84:
 1297              		.cfi_def_cfa_offset 4
 1298              		.cfi_offset 14, -4
 1299 0002 83B0     		sub	sp, sp, #12
 1300              	.LCFI85:
 1301              		.cfi_def_cfa_offset 16
ARM GAS  /tmp/cckNWXvG.s 			page 27


 1302 0004 1346     		mov	r3, r2
 239:Drivers/lvgl/src/core/lv_obj_style_gen.c ****     lv_style_value_t v = {
 1303              		.loc 1 239 5 is_stmt 1 view .LVU254
 1304              		.loc 1 239 22 is_stmt 0 view .LVU255
 1305 0006 0191     		str	r1, [sp, #4]
 240:Drivers/lvgl/src/core/lv_obj_style_gen.c ****         .num = (int32_t)value
 241:Drivers/lvgl/src/core/lv_obj_style_gen.c ****     };
 242:Drivers/lvgl/src/core/lv_obj_style_gen.c ****     lv_obj_set_local_style_prop(obj, LV_STYLE_PAD_RADIAL, v, selector);
 1306              		.loc 1 242 5 is_stmt 1 view .LVU256
 1307 0008 0A46     		mov	r2, r1
 1308              	.LVL113:
 1309              		.loc 1 242 5 is_stmt 0 view .LVU257
 1310 000a 0E21     		movs	r1, #14
 1311              	.LVL114:
 1312              		.loc 1 242 5 view .LVU258
 1313 000c FFF7FEFF 		bl	lv_obj_set_local_style_prop
 1314              	.LVL115:
 243:Drivers/lvgl/src/core/lv_obj_style_gen.c **** }
 1315              		.loc 1 243 1 view .LVU259
 1316 0010 03B0     		add	sp, sp, #12
 1317              	.LCFI86:
 1318              		.cfi_def_cfa_offset 4
 1319              		@ sp needed
 1320 0012 5DF804FB 		ldr	pc, [sp], #4
 1321              		.loc 1 243 1 view .LVU260
 1322              		.cfi_endproc
 1323              	.LFE199:
 1325              		.section	.text.lv_obj_set_style_margin_top,"ax",%progbits
 1326              		.align	1
 1327              		.global	lv_obj_set_style_margin_top
 1328              		.syntax unified
 1329              		.thumb
 1330              		.thumb_func
 1332              	lv_obj_set_style_margin_top:
 1333              	.LVL116:
 1334              	.LFB200:
 244:Drivers/lvgl/src/core/lv_obj_style_gen.c **** 
 245:Drivers/lvgl/src/core/lv_obj_style_gen.c **** void lv_obj_set_style_margin_top(lv_obj_t * obj, int32_t value, lv_style_selector_t selector)
 246:Drivers/lvgl/src/core/lv_obj_style_gen.c **** {
 1335              		.loc 1 246 1 is_stmt 1 view -0
 1336              		.cfi_startproc
 1337              		@ args = 0, pretend = 0, frame = 8
 1338              		@ frame_needed = 0, uses_anonymous_args = 0
 1339              		.loc 1 246 1 is_stmt 0 view .LVU262
 1340 0000 00B5     		push	{lr}
 1341              	.LCFI87:
 1342              		.cfi_def_cfa_offset 4
 1343              		.cfi_offset 14, -4
 1344 0002 83B0     		sub	sp, sp, #12
 1345              	.LCFI88:
 1346              		.cfi_def_cfa_offset 16
 1347 0004 1346     		mov	r3, r2
 247:Drivers/lvgl/src/core/lv_obj_style_gen.c ****     lv_style_value_t v = {
 1348              		.loc 1 247 5 is_stmt 1 view .LVU263
 1349              		.loc 1 247 22 is_stmt 0 view .LVU264
 1350 0006 0191     		str	r1, [sp, #4]
 248:Drivers/lvgl/src/core/lv_obj_style_gen.c ****         .num = (int32_t)value
ARM GAS  /tmp/cckNWXvG.s 			page 28


 249:Drivers/lvgl/src/core/lv_obj_style_gen.c ****     };
 250:Drivers/lvgl/src/core/lv_obj_style_gen.c ****     lv_obj_set_local_style_prop(obj, LV_STYLE_MARGIN_TOP, v, selector);
 1351              		.loc 1 250 5 is_stmt 1 view .LVU265
 1352 0008 0A46     		mov	r2, r1
 1353              	.LVL117:
 1354              		.loc 1 250 5 is_stmt 0 view .LVU266
 1355 000a 1821     		movs	r1, #24
 1356              	.LVL118:
 1357              		.loc 1 250 5 view .LVU267
 1358 000c FFF7FEFF 		bl	lv_obj_set_local_style_prop
 1359              	.LVL119:
 251:Drivers/lvgl/src/core/lv_obj_style_gen.c **** }
 1360              		.loc 1 251 1 view .LVU268
 1361 0010 03B0     		add	sp, sp, #12
 1362              	.LCFI89:
 1363              		.cfi_def_cfa_offset 4
 1364              		@ sp needed
 1365 0012 5DF804FB 		ldr	pc, [sp], #4
 1366              		.loc 1 251 1 view .LVU269
 1367              		.cfi_endproc
 1368              	.LFE200:
 1370              		.section	.text.lv_obj_set_style_margin_bottom,"ax",%progbits
 1371              		.align	1
 1372              		.global	lv_obj_set_style_margin_bottom
 1373              		.syntax unified
 1374              		.thumb
 1375              		.thumb_func
 1377              	lv_obj_set_style_margin_bottom:
 1378              	.LVL120:
 1379              	.LFB201:
 252:Drivers/lvgl/src/core/lv_obj_style_gen.c **** 
 253:Drivers/lvgl/src/core/lv_obj_style_gen.c **** void lv_obj_set_style_margin_bottom(lv_obj_t * obj, int32_t value, lv_style_selector_t selector)
 254:Drivers/lvgl/src/core/lv_obj_style_gen.c **** {
 1380              		.loc 1 254 1 is_stmt 1 view -0
 1381              		.cfi_startproc
 1382              		@ args = 0, pretend = 0, frame = 8
 1383              		@ frame_needed = 0, uses_anonymous_args = 0
 1384              		.loc 1 254 1 is_stmt 0 view .LVU271
 1385 0000 00B5     		push	{lr}
 1386              	.LCFI90:
 1387              		.cfi_def_cfa_offset 4
 1388              		.cfi_offset 14, -4
 1389 0002 83B0     		sub	sp, sp, #12
 1390              	.LCFI91:
 1391              		.cfi_def_cfa_offset 16
 1392 0004 1346     		mov	r3, r2
 255:Drivers/lvgl/src/core/lv_obj_style_gen.c ****     lv_style_value_t v = {
 1393              		.loc 1 255 5 is_stmt 1 view .LVU272
 1394              		.loc 1 255 22 is_stmt 0 view .LVU273
 1395 0006 0191     		str	r1, [sp, #4]
 256:Drivers/lvgl/src/core/lv_obj_style_gen.c ****         .num = (int32_t)value
 257:Drivers/lvgl/src/core/lv_obj_style_gen.c ****     };
 258:Drivers/lvgl/src/core/lv_obj_style_gen.c ****     lv_obj_set_local_style_prop(obj, LV_STYLE_MARGIN_BOTTOM, v, selector);
 1396              		.loc 1 258 5 is_stmt 1 view .LVU274
 1397 0008 0A46     		mov	r2, r1
 1398              	.LVL121:
 1399              		.loc 1 258 5 is_stmt 0 view .LVU275
ARM GAS  /tmp/cckNWXvG.s 			page 29


 1400 000a 1921     		movs	r1, #25
 1401              	.LVL122:
 1402              		.loc 1 258 5 view .LVU276
 1403 000c FFF7FEFF 		bl	lv_obj_set_local_style_prop
 1404              	.LVL123:
 259:Drivers/lvgl/src/core/lv_obj_style_gen.c **** }
 1405              		.loc 1 259 1 view .LVU277
 1406 0010 03B0     		add	sp, sp, #12
 1407              	.LCFI92:
 1408              		.cfi_def_cfa_offset 4
 1409              		@ sp needed
 1410 0012 5DF804FB 		ldr	pc, [sp], #4
 1411              		.loc 1 259 1 view .LVU278
 1412              		.cfi_endproc
 1413              	.LFE201:
 1415              		.section	.text.lv_obj_set_style_margin_left,"ax",%progbits
 1416              		.align	1
 1417              		.global	lv_obj_set_style_margin_left
 1418              		.syntax unified
 1419              		.thumb
 1420              		.thumb_func
 1422              	lv_obj_set_style_margin_left:
 1423              	.LVL124:
 1424              	.LFB202:
 260:Drivers/lvgl/src/core/lv_obj_style_gen.c **** 
 261:Drivers/lvgl/src/core/lv_obj_style_gen.c **** void lv_obj_set_style_margin_left(lv_obj_t * obj, int32_t value, lv_style_selector_t selector)
 262:Drivers/lvgl/src/core/lv_obj_style_gen.c **** {
 1425              		.loc 1 262 1 is_stmt 1 view -0
 1426              		.cfi_startproc
 1427              		@ args = 0, pretend = 0, frame = 8
 1428              		@ frame_needed = 0, uses_anonymous_args = 0
 1429              		.loc 1 262 1 is_stmt 0 view .LVU280
 1430 0000 00B5     		push	{lr}
 1431              	.LCFI93:
 1432              		.cfi_def_cfa_offset 4
 1433              		.cfi_offset 14, -4
 1434 0002 83B0     		sub	sp, sp, #12
 1435              	.LCFI94:
 1436              		.cfi_def_cfa_offset 16
 1437 0004 1346     		mov	r3, r2
 263:Drivers/lvgl/src/core/lv_obj_style_gen.c ****     lv_style_value_t v = {
 1438              		.loc 1 263 5 is_stmt 1 view .LVU281
 1439              		.loc 1 263 22 is_stmt 0 view .LVU282
 1440 0006 0191     		str	r1, [sp, #4]
 264:Drivers/lvgl/src/core/lv_obj_style_gen.c ****         .num = (int32_t)value
 265:Drivers/lvgl/src/core/lv_obj_style_gen.c ****     };
 266:Drivers/lvgl/src/core/lv_obj_style_gen.c ****     lv_obj_set_local_style_prop(obj, LV_STYLE_MARGIN_LEFT, v, selector);
 1441              		.loc 1 266 5 is_stmt 1 view .LVU283
 1442 0008 0A46     		mov	r2, r1
 1443              	.LVL125:
 1444              		.loc 1 266 5 is_stmt 0 view .LVU284
 1445 000a 1A21     		movs	r1, #26
 1446              	.LVL126:
 1447              		.loc 1 266 5 view .LVU285
 1448 000c FFF7FEFF 		bl	lv_obj_set_local_style_prop
 1449              	.LVL127:
 267:Drivers/lvgl/src/core/lv_obj_style_gen.c **** }
ARM GAS  /tmp/cckNWXvG.s 			page 30


 1450              		.loc 1 267 1 view .LVU286
 1451 0010 03B0     		add	sp, sp, #12
 1452              	.LCFI95:
 1453              		.cfi_def_cfa_offset 4
 1454              		@ sp needed
 1455 0012 5DF804FB 		ldr	pc, [sp], #4
 1456              		.loc 1 267 1 view .LVU287
 1457              		.cfi_endproc
 1458              	.LFE202:
 1460              		.section	.text.lv_obj_set_style_margin_right,"ax",%progbits
 1461              		.align	1
 1462              		.global	lv_obj_set_style_margin_right
 1463              		.syntax unified
 1464              		.thumb
 1465              		.thumb_func
 1467              	lv_obj_set_style_margin_right:
 1468              	.LVL128:
 1469              	.LFB203:
 268:Drivers/lvgl/src/core/lv_obj_style_gen.c **** 
 269:Drivers/lvgl/src/core/lv_obj_style_gen.c **** void lv_obj_set_style_margin_right(lv_obj_t * obj, int32_t value, lv_style_selector_t selector)
 270:Drivers/lvgl/src/core/lv_obj_style_gen.c **** {
 1470              		.loc 1 270 1 is_stmt 1 view -0
 1471              		.cfi_startproc
 1472              		@ args = 0, pretend = 0, frame = 8
 1473              		@ frame_needed = 0, uses_anonymous_args = 0
 1474              		.loc 1 270 1 is_stmt 0 view .LVU289
 1475 0000 00B5     		push	{lr}
 1476              	.LCFI96:
 1477              		.cfi_def_cfa_offset 4
 1478              		.cfi_offset 14, -4
 1479 0002 83B0     		sub	sp, sp, #12
 1480              	.LCFI97:
 1481              		.cfi_def_cfa_offset 16
 1482 0004 1346     		mov	r3, r2
 271:Drivers/lvgl/src/core/lv_obj_style_gen.c ****     lv_style_value_t v = {
 1483              		.loc 1 271 5 is_stmt 1 view .LVU290
 1484              		.loc 1 271 22 is_stmt 0 view .LVU291
 1485 0006 0191     		str	r1, [sp, #4]
 272:Drivers/lvgl/src/core/lv_obj_style_gen.c ****         .num = (int32_t)value
 273:Drivers/lvgl/src/core/lv_obj_style_gen.c ****     };
 274:Drivers/lvgl/src/core/lv_obj_style_gen.c ****     lv_obj_set_local_style_prop(obj, LV_STYLE_MARGIN_RIGHT, v, selector);
 1486              		.loc 1 274 5 is_stmt 1 view .LVU292
 1487 0008 0A46     		mov	r2, r1
 1488              	.LVL129:
 1489              		.loc 1 274 5 is_stmt 0 view .LVU293
 1490 000a 1B21     		movs	r1, #27
 1491              	.LVL130:
 1492              		.loc 1 274 5 view .LVU294
 1493 000c FFF7FEFF 		bl	lv_obj_set_local_style_prop
 1494              	.LVL131:
 275:Drivers/lvgl/src/core/lv_obj_style_gen.c **** }
 1495              		.loc 1 275 1 view .LVU295
 1496 0010 03B0     		add	sp, sp, #12
 1497              	.LCFI98:
 1498              		.cfi_def_cfa_offset 4
 1499              		@ sp needed
 1500 0012 5DF804FB 		ldr	pc, [sp], #4
ARM GAS  /tmp/cckNWXvG.s 			page 31


 1501              		.loc 1 275 1 view .LVU296
 1502              		.cfi_endproc
 1503              	.LFE203:
 1505              		.section	.text.lv_obj_set_style_bg_color,"ax",%progbits
 1506              		.align	1
 1507              		.global	lv_obj_set_style_bg_color
 1508              		.syntax unified
 1509              		.thumb
 1510              		.thumb_func
 1512              	lv_obj_set_style_bg_color:
 1513              	.LVL132:
 1514              	.LFB204:
 276:Drivers/lvgl/src/core/lv_obj_style_gen.c **** 
 277:Drivers/lvgl/src/core/lv_obj_style_gen.c **** void lv_obj_set_style_bg_color(lv_obj_t * obj, lv_color_t value, lv_style_selector_t selector)
 278:Drivers/lvgl/src/core/lv_obj_style_gen.c **** {
 1515              		.loc 1 278 1 is_stmt 1 view -0
 1516              		.cfi_startproc
 1517              		@ args = 0, pretend = 0, frame = 16
 1518              		@ frame_needed = 0, uses_anonymous_args = 0
 1519              		.loc 1 278 1 is_stmt 0 view .LVU298
 1520 0000 00B5     		push	{lr}
 1521              	.LCFI99:
 1522              		.cfi_def_cfa_offset 4
 1523              		.cfi_offset 14, -4
 1524 0002 85B0     		sub	sp, sp, #20
 1525              	.LCFI100:
 1526              		.cfi_def_cfa_offset 24
 1527 0004 0191     		str	r1, [sp, #4]
 1528 0006 1346     		mov	r3, r2
 279:Drivers/lvgl/src/core/lv_obj_style_gen.c ****     lv_style_value_t v = {
 1529              		.loc 1 279 5 is_stmt 1 view .LVU299
 1530              		.loc 1 279 22 is_stmt 0 view .LVU300
 1531 0008 0022     		movs	r2, #0
 1532              	.LVL133:
 1533              		.loc 1 279 22 view .LVU301
 1534 000a 0392     		str	r2, [sp, #12]
 1535 000c ADF80C10 		strh	r1, [sp, #12]	@ movhi
 1536 0010 090C     		lsrs	r1, r1, #16
 1537 0012 8DF80E10 		strb	r1, [sp, #14]
 280:Drivers/lvgl/src/core/lv_obj_style_gen.c ****         .color = value
 281:Drivers/lvgl/src/core/lv_obj_style_gen.c ****     };
 282:Drivers/lvgl/src/core/lv_obj_style_gen.c ****     lv_obj_set_local_style_prop(obj, LV_STYLE_BG_COLOR, v, selector);
 1538              		.loc 1 282 5 is_stmt 1 view .LVU302
 1539 0016 039A     		ldr	r2, [sp, #12]
 1540 0018 1C21     		movs	r1, #28
 1541 001a FFF7FEFF 		bl	lv_obj_set_local_style_prop
 1542              	.LVL134:
 283:Drivers/lvgl/src/core/lv_obj_style_gen.c **** }
 1543              		.loc 1 283 1 is_stmt 0 view .LVU303
 1544 001e 05B0     		add	sp, sp, #20
 1545              	.LCFI101:
 1546              		.cfi_def_cfa_offset 4
 1547              		@ sp needed
 1548 0020 5DF804FB 		ldr	pc, [sp], #4
 1549              		.cfi_endproc
 1550              	.LFE204:
 1552              		.section	.text.lv_obj_set_style_bg_opa,"ax",%progbits
ARM GAS  /tmp/cckNWXvG.s 			page 32


 1553              		.align	1
 1554              		.global	lv_obj_set_style_bg_opa
 1555              		.syntax unified
 1556              		.thumb
 1557              		.thumb_func
 1559              	lv_obj_set_style_bg_opa:
 1560              	.LVL135:
 1561              	.LFB205:
 284:Drivers/lvgl/src/core/lv_obj_style_gen.c **** 
 285:Drivers/lvgl/src/core/lv_obj_style_gen.c **** void lv_obj_set_style_bg_opa(lv_obj_t * obj, lv_opa_t value, lv_style_selector_t selector)
 286:Drivers/lvgl/src/core/lv_obj_style_gen.c **** {
 1562              		.loc 1 286 1 is_stmt 1 view -0
 1563              		.cfi_startproc
 1564              		@ args = 0, pretend = 0, frame = 8
 1565              		@ frame_needed = 0, uses_anonymous_args = 0
 1566              		.loc 1 286 1 is_stmt 0 view .LVU305
 1567 0000 00B5     		push	{lr}
 1568              	.LCFI102:
 1569              		.cfi_def_cfa_offset 4
 1570              		.cfi_offset 14, -4
 1571 0002 83B0     		sub	sp, sp, #12
 1572              	.LCFI103:
 1573              		.cfi_def_cfa_offset 16
 1574 0004 1346     		mov	r3, r2
 287:Drivers/lvgl/src/core/lv_obj_style_gen.c ****     lv_style_value_t v = {
 1575              		.loc 1 287 5 is_stmt 1 view .LVU306
 1576              		.loc 1 287 22 is_stmt 0 view .LVU307
 1577 0006 0191     		str	r1, [sp, #4]
 288:Drivers/lvgl/src/core/lv_obj_style_gen.c ****         .num = (int32_t)value
 289:Drivers/lvgl/src/core/lv_obj_style_gen.c ****     };
 290:Drivers/lvgl/src/core/lv_obj_style_gen.c ****     lv_obj_set_local_style_prop(obj, LV_STYLE_BG_OPA, v, selector);
 1578              		.loc 1 290 5 is_stmt 1 view .LVU308
 1579 0008 0A46     		mov	r2, r1
 1580              	.LVL136:
 1581              		.loc 1 290 5 is_stmt 0 view .LVU309
 1582 000a 1D21     		movs	r1, #29
 1583              	.LVL137:
 1584              		.loc 1 290 5 view .LVU310
 1585 000c FFF7FEFF 		bl	lv_obj_set_local_style_prop
 1586              	.LVL138:
 291:Drivers/lvgl/src/core/lv_obj_style_gen.c **** }
 1587              		.loc 1 291 1 view .LVU311
 1588 0010 03B0     		add	sp, sp, #12
 1589              	.LCFI104:
 1590              		.cfi_def_cfa_offset 4
 1591              		@ sp needed
 1592 0012 5DF804FB 		ldr	pc, [sp], #4
 1593              		.loc 1 291 1 view .LVU312
 1594              		.cfi_endproc
 1595              	.LFE205:
 1597              		.section	.text.lv_obj_set_style_bg_grad_color,"ax",%progbits
 1598              		.align	1
 1599              		.global	lv_obj_set_style_bg_grad_color
 1600              		.syntax unified
 1601              		.thumb
 1602              		.thumb_func
 1604              	lv_obj_set_style_bg_grad_color:
ARM GAS  /tmp/cckNWXvG.s 			page 33


 1605              	.LVL139:
 1606              	.LFB206:
 292:Drivers/lvgl/src/core/lv_obj_style_gen.c **** 
 293:Drivers/lvgl/src/core/lv_obj_style_gen.c **** void lv_obj_set_style_bg_grad_color(lv_obj_t * obj, lv_color_t value, lv_style_selector_t selector)
 294:Drivers/lvgl/src/core/lv_obj_style_gen.c **** {
 1607              		.loc 1 294 1 is_stmt 1 view -0
 1608              		.cfi_startproc
 1609              		@ args = 0, pretend = 0, frame = 16
 1610              		@ frame_needed = 0, uses_anonymous_args = 0
 1611              		.loc 1 294 1 is_stmt 0 view .LVU314
 1612 0000 00B5     		push	{lr}
 1613              	.LCFI105:
 1614              		.cfi_def_cfa_offset 4
 1615              		.cfi_offset 14, -4
 1616 0002 85B0     		sub	sp, sp, #20
 1617              	.LCFI106:
 1618              		.cfi_def_cfa_offset 24
 1619 0004 0191     		str	r1, [sp, #4]
 1620 0006 1346     		mov	r3, r2
 295:Drivers/lvgl/src/core/lv_obj_style_gen.c ****     lv_style_value_t v = {
 1621              		.loc 1 295 5 is_stmt 1 view .LVU315
 1622              		.loc 1 295 22 is_stmt 0 view .LVU316
 1623 0008 0022     		movs	r2, #0
 1624              	.LVL140:
 1625              		.loc 1 295 22 view .LVU317
 1626 000a 0392     		str	r2, [sp, #12]
 1627 000c ADF80C10 		strh	r1, [sp, #12]	@ movhi
 1628 0010 090C     		lsrs	r1, r1, #16
 1629 0012 8DF80E10 		strb	r1, [sp, #14]
 296:Drivers/lvgl/src/core/lv_obj_style_gen.c ****         .color = value
 297:Drivers/lvgl/src/core/lv_obj_style_gen.c ****     };
 298:Drivers/lvgl/src/core/lv_obj_style_gen.c ****     lv_obj_set_local_style_prop(obj, LV_STYLE_BG_GRAD_COLOR, v, selector);
 1630              		.loc 1 298 5 is_stmt 1 view .LVU318
 1631 0016 039A     		ldr	r2, [sp, #12]
 1632 0018 2321     		movs	r1, #35
 1633 001a FFF7FEFF 		bl	lv_obj_set_local_style_prop
 1634              	.LVL141:
 299:Drivers/lvgl/src/core/lv_obj_style_gen.c **** }
 1635              		.loc 1 299 1 is_stmt 0 view .LVU319
 1636 001e 05B0     		add	sp, sp, #20
 1637              	.LCFI107:
 1638              		.cfi_def_cfa_offset 4
 1639              		@ sp needed
 1640 0020 5DF804FB 		ldr	pc, [sp], #4
 1641              		.cfi_endproc
 1642              	.LFE206:
 1644              		.section	.text.lv_obj_set_style_bg_grad_dir,"ax",%progbits
 1645              		.align	1
 1646              		.global	lv_obj_set_style_bg_grad_dir
 1647              		.syntax unified
 1648              		.thumb
 1649              		.thumb_func
 1651              	lv_obj_set_style_bg_grad_dir:
 1652              	.LVL142:
 1653              	.LFB207:
 300:Drivers/lvgl/src/core/lv_obj_style_gen.c **** 
 301:Drivers/lvgl/src/core/lv_obj_style_gen.c **** void lv_obj_set_style_bg_grad_dir(lv_obj_t * obj, lv_grad_dir_t value, lv_style_selector_t selector
ARM GAS  /tmp/cckNWXvG.s 			page 34


 302:Drivers/lvgl/src/core/lv_obj_style_gen.c **** {
 1654              		.loc 1 302 1 is_stmt 1 view -0
 1655              		.cfi_startproc
 1656              		@ args = 0, pretend = 0, frame = 8
 1657              		@ frame_needed = 0, uses_anonymous_args = 0
 1658              		.loc 1 302 1 is_stmt 0 view .LVU321
 1659 0000 00B5     		push	{lr}
 1660              	.LCFI108:
 1661              		.cfi_def_cfa_offset 4
 1662              		.cfi_offset 14, -4
 1663 0002 83B0     		sub	sp, sp, #12
 1664              	.LCFI109:
 1665              		.cfi_def_cfa_offset 16
 1666 0004 1346     		mov	r3, r2
 303:Drivers/lvgl/src/core/lv_obj_style_gen.c ****     lv_style_value_t v = {
 1667              		.loc 1 303 5 is_stmt 1 view .LVU322
 1668              		.loc 1 303 22 is_stmt 0 view .LVU323
 1669 0006 0191     		str	r1, [sp, #4]
 304:Drivers/lvgl/src/core/lv_obj_style_gen.c ****         .num = (int32_t)value
 305:Drivers/lvgl/src/core/lv_obj_style_gen.c ****     };
 306:Drivers/lvgl/src/core/lv_obj_style_gen.c ****     lv_obj_set_local_style_prop(obj, LV_STYLE_BG_GRAD_DIR, v, selector);
 1670              		.loc 1 306 5 is_stmt 1 view .LVU324
 1671 0008 0A46     		mov	r2, r1
 1672              	.LVL143:
 1673              		.loc 1 306 5 is_stmt 0 view .LVU325
 1674 000a 2021     		movs	r1, #32
 1675              	.LVL144:
 1676              		.loc 1 306 5 view .LVU326
 1677 000c FFF7FEFF 		bl	lv_obj_set_local_style_prop
 1678              	.LVL145:
 307:Drivers/lvgl/src/core/lv_obj_style_gen.c **** }
 1679              		.loc 1 307 1 view .LVU327
 1680 0010 03B0     		add	sp, sp, #12
 1681              	.LCFI110:
 1682              		.cfi_def_cfa_offset 4
 1683              		@ sp needed
 1684 0012 5DF804FB 		ldr	pc, [sp], #4
 1685              		.loc 1 307 1 view .LVU328
 1686              		.cfi_endproc
 1687              	.LFE207:
 1689              		.section	.text.lv_obj_set_style_bg_main_stop,"ax",%progbits
 1690              		.align	1
 1691              		.global	lv_obj_set_style_bg_main_stop
 1692              		.syntax unified
 1693              		.thumb
 1694              		.thumb_func
 1696              	lv_obj_set_style_bg_main_stop:
 1697              	.LVL146:
 1698              	.LFB208:
 308:Drivers/lvgl/src/core/lv_obj_style_gen.c **** 
 309:Drivers/lvgl/src/core/lv_obj_style_gen.c **** void lv_obj_set_style_bg_main_stop(lv_obj_t * obj, int32_t value, lv_style_selector_t selector)
 310:Drivers/lvgl/src/core/lv_obj_style_gen.c **** {
 1699              		.loc 1 310 1 is_stmt 1 view -0
 1700              		.cfi_startproc
 1701              		@ args = 0, pretend = 0, frame = 8
 1702              		@ frame_needed = 0, uses_anonymous_args = 0
 1703              		.loc 1 310 1 is_stmt 0 view .LVU330
ARM GAS  /tmp/cckNWXvG.s 			page 35


 1704 0000 00B5     		push	{lr}
 1705              	.LCFI111:
 1706              		.cfi_def_cfa_offset 4
 1707              		.cfi_offset 14, -4
 1708 0002 83B0     		sub	sp, sp, #12
 1709              	.LCFI112:
 1710              		.cfi_def_cfa_offset 16
 1711 0004 1346     		mov	r3, r2
 311:Drivers/lvgl/src/core/lv_obj_style_gen.c ****     lv_style_value_t v = {
 1712              		.loc 1 311 5 is_stmt 1 view .LVU331
 1713              		.loc 1 311 22 is_stmt 0 view .LVU332
 1714 0006 0191     		str	r1, [sp, #4]
 312:Drivers/lvgl/src/core/lv_obj_style_gen.c ****         .num = (int32_t)value
 313:Drivers/lvgl/src/core/lv_obj_style_gen.c ****     };
 314:Drivers/lvgl/src/core/lv_obj_style_gen.c ****     lv_obj_set_local_style_prop(obj, LV_STYLE_BG_MAIN_STOP, v, selector);
 1715              		.loc 1 314 5 is_stmt 1 view .LVU333
 1716 0008 0A46     		mov	r2, r1
 1717              	.LVL147:
 1718              		.loc 1 314 5 is_stmt 0 view .LVU334
 1719 000a 2121     		movs	r1, #33
 1720              	.LVL148:
 1721              		.loc 1 314 5 view .LVU335
 1722 000c FFF7FEFF 		bl	lv_obj_set_local_style_prop
 1723              	.LVL149:
 315:Drivers/lvgl/src/core/lv_obj_style_gen.c **** }
 1724              		.loc 1 315 1 view .LVU336
 1725 0010 03B0     		add	sp, sp, #12
 1726              	.LCFI113:
 1727              		.cfi_def_cfa_offset 4
 1728              		@ sp needed
 1729 0012 5DF804FB 		ldr	pc, [sp], #4
 1730              		.loc 1 315 1 view .LVU337
 1731              		.cfi_endproc
 1732              	.LFE208:
 1734              		.section	.text.lv_obj_set_style_bg_grad_stop,"ax",%progbits
 1735              		.align	1
 1736              		.global	lv_obj_set_style_bg_grad_stop
 1737              		.syntax unified
 1738              		.thumb
 1739              		.thumb_func
 1741              	lv_obj_set_style_bg_grad_stop:
 1742              	.LVL150:
 1743              	.LFB209:
 316:Drivers/lvgl/src/core/lv_obj_style_gen.c **** 
 317:Drivers/lvgl/src/core/lv_obj_style_gen.c **** void lv_obj_set_style_bg_grad_stop(lv_obj_t * obj, int32_t value, lv_style_selector_t selector)
 318:Drivers/lvgl/src/core/lv_obj_style_gen.c **** {
 1744              		.loc 1 318 1 is_stmt 1 view -0
 1745              		.cfi_startproc
 1746              		@ args = 0, pretend = 0, frame = 8
 1747              		@ frame_needed = 0, uses_anonymous_args = 0
 1748              		.loc 1 318 1 is_stmt 0 view .LVU339
 1749 0000 00B5     		push	{lr}
 1750              	.LCFI114:
 1751              		.cfi_def_cfa_offset 4
 1752              		.cfi_offset 14, -4
 1753 0002 83B0     		sub	sp, sp, #12
 1754              	.LCFI115:
ARM GAS  /tmp/cckNWXvG.s 			page 36


 1755              		.cfi_def_cfa_offset 16
 1756 0004 1346     		mov	r3, r2
 319:Drivers/lvgl/src/core/lv_obj_style_gen.c ****     lv_style_value_t v = {
 1757              		.loc 1 319 5 is_stmt 1 view .LVU340
 1758              		.loc 1 319 22 is_stmt 0 view .LVU341
 1759 0006 0191     		str	r1, [sp, #4]
 320:Drivers/lvgl/src/core/lv_obj_style_gen.c ****         .num = (int32_t)value
 321:Drivers/lvgl/src/core/lv_obj_style_gen.c ****     };
 322:Drivers/lvgl/src/core/lv_obj_style_gen.c ****     lv_obj_set_local_style_prop(obj, LV_STYLE_BG_GRAD_STOP, v, selector);
 1760              		.loc 1 322 5 is_stmt 1 view .LVU342
 1761 0008 0A46     		mov	r2, r1
 1762              	.LVL151:
 1763              		.loc 1 322 5 is_stmt 0 view .LVU343
 1764 000a 2221     		movs	r1, #34
 1765              	.LVL152:
 1766              		.loc 1 322 5 view .LVU344
 1767 000c FFF7FEFF 		bl	lv_obj_set_local_style_prop
 1768              	.LVL153:
 323:Drivers/lvgl/src/core/lv_obj_style_gen.c **** }
 1769              		.loc 1 323 1 view .LVU345
 1770 0010 03B0     		add	sp, sp, #12
 1771              	.LCFI116:
 1772              		.cfi_def_cfa_offset 4
 1773              		@ sp needed
 1774 0012 5DF804FB 		ldr	pc, [sp], #4
 1775              		.loc 1 323 1 view .LVU346
 1776              		.cfi_endproc
 1777              	.LFE209:
 1779              		.section	.text.lv_obj_set_style_bg_main_opa,"ax",%progbits
 1780              		.align	1
 1781              		.global	lv_obj_set_style_bg_main_opa
 1782              		.syntax unified
 1783              		.thumb
 1784              		.thumb_func
 1786              	lv_obj_set_style_bg_main_opa:
 1787              	.LVL154:
 1788              	.LFB210:
 324:Drivers/lvgl/src/core/lv_obj_style_gen.c **** 
 325:Drivers/lvgl/src/core/lv_obj_style_gen.c **** void lv_obj_set_style_bg_main_opa(lv_obj_t * obj, lv_opa_t value, lv_style_selector_t selector)
 326:Drivers/lvgl/src/core/lv_obj_style_gen.c **** {
 1789              		.loc 1 326 1 is_stmt 1 view -0
 1790              		.cfi_startproc
 1791              		@ args = 0, pretend = 0, frame = 8
 1792              		@ frame_needed = 0, uses_anonymous_args = 0
 1793              		.loc 1 326 1 is_stmt 0 view .LVU348
 1794 0000 00B5     		push	{lr}
 1795              	.LCFI117:
 1796              		.cfi_def_cfa_offset 4
 1797              		.cfi_offset 14, -4
 1798 0002 83B0     		sub	sp, sp, #12
 1799              	.LCFI118:
 1800              		.cfi_def_cfa_offset 16
 1801 0004 1346     		mov	r3, r2
 327:Drivers/lvgl/src/core/lv_obj_style_gen.c ****     lv_style_value_t v = {
 1802              		.loc 1 327 5 is_stmt 1 view .LVU349
 1803              		.loc 1 327 22 is_stmt 0 view .LVU350
 1804 0006 0191     		str	r1, [sp, #4]
ARM GAS  /tmp/cckNWXvG.s 			page 37


 328:Drivers/lvgl/src/core/lv_obj_style_gen.c ****         .num = (int32_t)value
 329:Drivers/lvgl/src/core/lv_obj_style_gen.c ****     };
 330:Drivers/lvgl/src/core/lv_obj_style_gen.c ****     lv_obj_set_local_style_prop(obj, LV_STYLE_BG_MAIN_OPA, v, selector);
 1805              		.loc 1 330 5 is_stmt 1 view .LVU351
 1806 0008 0A46     		mov	r2, r1
 1807              	.LVL155:
 1808              		.loc 1 330 5 is_stmt 0 view .LVU352
 1809 000a 2421     		movs	r1, #36
 1810              	.LVL156:
 1811              		.loc 1 330 5 view .LVU353
 1812 000c FFF7FEFF 		bl	lv_obj_set_local_style_prop
 1813              	.LVL157:
 331:Drivers/lvgl/src/core/lv_obj_style_gen.c **** }
 1814              		.loc 1 331 1 view .LVU354
 1815 0010 03B0     		add	sp, sp, #12
 1816              	.LCFI119:
 1817              		.cfi_def_cfa_offset 4
 1818              		@ sp needed
 1819 0012 5DF804FB 		ldr	pc, [sp], #4
 1820              		.loc 1 331 1 view .LVU355
 1821              		.cfi_endproc
 1822              	.LFE210:
 1824              		.section	.text.lv_obj_set_style_bg_grad_opa,"ax",%progbits
 1825              		.align	1
 1826              		.global	lv_obj_set_style_bg_grad_opa
 1827              		.syntax unified
 1828              		.thumb
 1829              		.thumb_func
 1831              	lv_obj_set_style_bg_grad_opa:
 1832              	.LVL158:
 1833              	.LFB211:
 332:Drivers/lvgl/src/core/lv_obj_style_gen.c **** 
 333:Drivers/lvgl/src/core/lv_obj_style_gen.c **** void lv_obj_set_style_bg_grad_opa(lv_obj_t * obj, lv_opa_t value, lv_style_selector_t selector)
 334:Drivers/lvgl/src/core/lv_obj_style_gen.c **** {
 1834              		.loc 1 334 1 is_stmt 1 view -0
 1835              		.cfi_startproc
 1836              		@ args = 0, pretend = 0, frame = 8
 1837              		@ frame_needed = 0, uses_anonymous_args = 0
 1838              		.loc 1 334 1 is_stmt 0 view .LVU357
 1839 0000 00B5     		push	{lr}
 1840              	.LCFI120:
 1841              		.cfi_def_cfa_offset 4
 1842              		.cfi_offset 14, -4
 1843 0002 83B0     		sub	sp, sp, #12
 1844              	.LCFI121:
 1845              		.cfi_def_cfa_offset 16
 1846 0004 1346     		mov	r3, r2
 335:Drivers/lvgl/src/core/lv_obj_style_gen.c ****     lv_style_value_t v = {
 1847              		.loc 1 335 5 is_stmt 1 view .LVU358
 1848              		.loc 1 335 22 is_stmt 0 view .LVU359
 1849 0006 0191     		str	r1, [sp, #4]
 336:Drivers/lvgl/src/core/lv_obj_style_gen.c ****         .num = (int32_t)value
 337:Drivers/lvgl/src/core/lv_obj_style_gen.c ****     };
 338:Drivers/lvgl/src/core/lv_obj_style_gen.c ****     lv_obj_set_local_style_prop(obj, LV_STYLE_BG_GRAD_OPA, v, selector);
 1850              		.loc 1 338 5 is_stmt 1 view .LVU360
 1851 0008 0A46     		mov	r2, r1
 1852              	.LVL159:
ARM GAS  /tmp/cckNWXvG.s 			page 38


 1853              		.loc 1 338 5 is_stmt 0 view .LVU361
 1854 000a 2521     		movs	r1, #37
 1855              	.LVL160:
 1856              		.loc 1 338 5 view .LVU362
 1857 000c FFF7FEFF 		bl	lv_obj_set_local_style_prop
 1858              	.LVL161:
 339:Drivers/lvgl/src/core/lv_obj_style_gen.c **** }
 1859              		.loc 1 339 1 view .LVU363
 1860 0010 03B0     		add	sp, sp, #12
 1861              	.LCFI122:
 1862              		.cfi_def_cfa_offset 4
 1863              		@ sp needed
 1864 0012 5DF804FB 		ldr	pc, [sp], #4
 1865              		.loc 1 339 1 view .LVU364
 1866              		.cfi_endproc
 1867              	.LFE211:
 1869              		.section	.text.lv_obj_set_style_bg_grad,"ax",%progbits
 1870              		.align	1
 1871              		.global	lv_obj_set_style_bg_grad
 1872              		.syntax unified
 1873              		.thumb
 1874              		.thumb_func
 1876              	lv_obj_set_style_bg_grad:
 1877              	.LVL162:
 1878              	.LFB212:
 340:Drivers/lvgl/src/core/lv_obj_style_gen.c **** 
 341:Drivers/lvgl/src/core/lv_obj_style_gen.c **** void lv_obj_set_style_bg_grad(lv_obj_t * obj, const lv_grad_dsc_t * value, lv_style_selector_t sele
 342:Drivers/lvgl/src/core/lv_obj_style_gen.c **** {
 1879              		.loc 1 342 1 is_stmt 1 view -0
 1880              		.cfi_startproc
 1881              		@ args = 0, pretend = 0, frame = 8
 1882              		@ frame_needed = 0, uses_anonymous_args = 0
 1883              		.loc 1 342 1 is_stmt 0 view .LVU366
 1884 0000 00B5     		push	{lr}
 1885              	.LCFI123:
 1886              		.cfi_def_cfa_offset 4
 1887              		.cfi_offset 14, -4
 1888 0002 83B0     		sub	sp, sp, #12
 1889              	.LCFI124:
 1890              		.cfi_def_cfa_offset 16
 1891 0004 1346     		mov	r3, r2
 343:Drivers/lvgl/src/core/lv_obj_style_gen.c ****     lv_style_value_t v = {
 1892              		.loc 1 343 5 is_stmt 1 view .LVU367
 1893              		.loc 1 343 22 is_stmt 0 view .LVU368
 1894 0006 0191     		str	r1, [sp, #4]
 344:Drivers/lvgl/src/core/lv_obj_style_gen.c ****         .ptr = value
 345:Drivers/lvgl/src/core/lv_obj_style_gen.c ****     };
 346:Drivers/lvgl/src/core/lv_obj_style_gen.c ****     lv_obj_set_local_style_prop(obj, LV_STYLE_BG_GRAD, v, selector);
 1895              		.loc 1 346 5 is_stmt 1 view .LVU369
 1896 0008 0A46     		mov	r2, r1
 1897              	.LVL163:
 1898              		.loc 1 346 5 is_stmt 0 view .LVU370
 1899 000a 2621     		movs	r1, #38
 1900              	.LVL164:
 1901              		.loc 1 346 5 view .LVU371
 1902 000c FFF7FEFF 		bl	lv_obj_set_local_style_prop
 1903              	.LVL165:
ARM GAS  /tmp/cckNWXvG.s 			page 39


 347:Drivers/lvgl/src/core/lv_obj_style_gen.c **** }
 1904              		.loc 1 347 1 view .LVU372
 1905 0010 03B0     		add	sp, sp, #12
 1906              	.LCFI125:
 1907              		.cfi_def_cfa_offset 4
 1908              		@ sp needed
 1909 0012 5DF804FB 		ldr	pc, [sp], #4
 1910              		.loc 1 347 1 view .LVU373
 1911              		.cfi_endproc
 1912              	.LFE212:
 1914              		.section	.text.lv_obj_set_style_bg_image_src,"ax",%progbits
 1915              		.align	1
 1916              		.global	lv_obj_set_style_bg_image_src
 1917              		.syntax unified
 1918              		.thumb
 1919              		.thumb_func
 1921              	lv_obj_set_style_bg_image_src:
 1922              	.LVL166:
 1923              	.LFB213:
 348:Drivers/lvgl/src/core/lv_obj_style_gen.c **** 
 349:Drivers/lvgl/src/core/lv_obj_style_gen.c **** void lv_obj_set_style_bg_image_src(lv_obj_t * obj, const void * value, lv_style_selector_t selector
 350:Drivers/lvgl/src/core/lv_obj_style_gen.c **** {
 1924              		.loc 1 350 1 is_stmt 1 view -0
 1925              		.cfi_startproc
 1926              		@ args = 0, pretend = 0, frame = 8
 1927              		@ frame_needed = 0, uses_anonymous_args = 0
 1928              		.loc 1 350 1 is_stmt 0 view .LVU375
 1929 0000 00B5     		push	{lr}
 1930              	.LCFI126:
 1931              		.cfi_def_cfa_offset 4
 1932              		.cfi_offset 14, -4
 1933 0002 83B0     		sub	sp, sp, #12
 1934              	.LCFI127:
 1935              		.cfi_def_cfa_offset 16
 1936 0004 1346     		mov	r3, r2
 351:Drivers/lvgl/src/core/lv_obj_style_gen.c ****     lv_style_value_t v = {
 1937              		.loc 1 351 5 is_stmt 1 view .LVU376
 1938              		.loc 1 351 22 is_stmt 0 view .LVU377
 1939 0006 0191     		str	r1, [sp, #4]
 352:Drivers/lvgl/src/core/lv_obj_style_gen.c ****         .ptr = value
 353:Drivers/lvgl/src/core/lv_obj_style_gen.c ****     };
 354:Drivers/lvgl/src/core/lv_obj_style_gen.c ****     lv_obj_set_local_style_prop(obj, LV_STYLE_BG_IMAGE_SRC, v, selector);
 1940              		.loc 1 354 5 is_stmt 1 view .LVU378
 1941 0008 0A46     		mov	r2, r1
 1942              	.LVL167:
 1943              		.loc 1 354 5 is_stmt 0 view .LVU379
 1944 000a 2821     		movs	r1, #40
 1945              	.LVL168:
 1946              		.loc 1 354 5 view .LVU380
 1947 000c FFF7FEFF 		bl	lv_obj_set_local_style_prop
 1948              	.LVL169:
 355:Drivers/lvgl/src/core/lv_obj_style_gen.c **** }
 1949              		.loc 1 355 1 view .LVU381
 1950 0010 03B0     		add	sp, sp, #12
 1951              	.LCFI128:
 1952              		.cfi_def_cfa_offset 4
 1953              		@ sp needed
ARM GAS  /tmp/cckNWXvG.s 			page 40


 1954 0012 5DF804FB 		ldr	pc, [sp], #4
 1955              		.loc 1 355 1 view .LVU382
 1956              		.cfi_endproc
 1957              	.LFE213:
 1959              		.section	.text.lv_obj_set_style_bg_image_opa,"ax",%progbits
 1960              		.align	1
 1961              		.global	lv_obj_set_style_bg_image_opa
 1962              		.syntax unified
 1963              		.thumb
 1964              		.thumb_func
 1966              	lv_obj_set_style_bg_image_opa:
 1967              	.LVL170:
 1968              	.LFB214:
 356:Drivers/lvgl/src/core/lv_obj_style_gen.c **** 
 357:Drivers/lvgl/src/core/lv_obj_style_gen.c **** void lv_obj_set_style_bg_image_opa(lv_obj_t * obj, lv_opa_t value, lv_style_selector_t selector)
 358:Drivers/lvgl/src/core/lv_obj_style_gen.c **** {
 1969              		.loc 1 358 1 is_stmt 1 view -0
 1970              		.cfi_startproc
 1971              		@ args = 0, pretend = 0, frame = 8
 1972              		@ frame_needed = 0, uses_anonymous_args = 0
 1973              		.loc 1 358 1 is_stmt 0 view .LVU384
 1974 0000 00B5     		push	{lr}
 1975              	.LCFI129:
 1976              		.cfi_def_cfa_offset 4
 1977              		.cfi_offset 14, -4
 1978 0002 83B0     		sub	sp, sp, #12
 1979              	.LCFI130:
 1980              		.cfi_def_cfa_offset 16
 1981 0004 1346     		mov	r3, r2
 359:Drivers/lvgl/src/core/lv_obj_style_gen.c ****     lv_style_value_t v = {
 1982              		.loc 1 359 5 is_stmt 1 view .LVU385
 1983              		.loc 1 359 22 is_stmt 0 view .LVU386
 1984 0006 0191     		str	r1, [sp, #4]
 360:Drivers/lvgl/src/core/lv_obj_style_gen.c ****         .num = (int32_t)value
 361:Drivers/lvgl/src/core/lv_obj_style_gen.c ****     };
 362:Drivers/lvgl/src/core/lv_obj_style_gen.c ****     lv_obj_set_local_style_prop(obj, LV_STYLE_BG_IMAGE_OPA, v, selector);
 1985              		.loc 1 362 5 is_stmt 1 view .LVU387
 1986 0008 0A46     		mov	r2, r1
 1987              	.LVL171:
 1988              		.loc 1 362 5 is_stmt 0 view .LVU388
 1989 000a 2921     		movs	r1, #41
 1990              	.LVL172:
 1991              		.loc 1 362 5 view .LVU389
 1992 000c FFF7FEFF 		bl	lv_obj_set_local_style_prop
 1993              	.LVL173:
 363:Drivers/lvgl/src/core/lv_obj_style_gen.c **** }
 1994              		.loc 1 363 1 view .LVU390
 1995 0010 03B0     		add	sp, sp, #12
 1996              	.LCFI131:
 1997              		.cfi_def_cfa_offset 4
 1998              		@ sp needed
 1999 0012 5DF804FB 		ldr	pc, [sp], #4
 2000              		.loc 1 363 1 view .LVU391
 2001              		.cfi_endproc
 2002              	.LFE214:
 2004              		.section	.text.lv_obj_set_style_bg_image_recolor,"ax",%progbits
 2005              		.align	1
ARM GAS  /tmp/cckNWXvG.s 			page 41


 2006              		.global	lv_obj_set_style_bg_image_recolor
 2007              		.syntax unified
 2008              		.thumb
 2009              		.thumb_func
 2011              	lv_obj_set_style_bg_image_recolor:
 2012              	.LVL174:
 2013              	.LFB215:
 364:Drivers/lvgl/src/core/lv_obj_style_gen.c **** 
 365:Drivers/lvgl/src/core/lv_obj_style_gen.c **** void lv_obj_set_style_bg_image_recolor(lv_obj_t * obj, lv_color_t value, lv_style_selector_t select
 366:Drivers/lvgl/src/core/lv_obj_style_gen.c **** {
 2014              		.loc 1 366 1 is_stmt 1 view -0
 2015              		.cfi_startproc
 2016              		@ args = 0, pretend = 0, frame = 16
 2017              		@ frame_needed = 0, uses_anonymous_args = 0
 2018              		.loc 1 366 1 is_stmt 0 view .LVU393
 2019 0000 00B5     		push	{lr}
 2020              	.LCFI132:
 2021              		.cfi_def_cfa_offset 4
 2022              		.cfi_offset 14, -4
 2023 0002 85B0     		sub	sp, sp, #20
 2024              	.LCFI133:
 2025              		.cfi_def_cfa_offset 24
 2026 0004 0191     		str	r1, [sp, #4]
 2027 0006 1346     		mov	r3, r2
 367:Drivers/lvgl/src/core/lv_obj_style_gen.c ****     lv_style_value_t v = {
 2028              		.loc 1 367 5 is_stmt 1 view .LVU394
 2029              		.loc 1 367 22 is_stmt 0 view .LVU395
 2030 0008 0022     		movs	r2, #0
 2031              	.LVL175:
 2032              		.loc 1 367 22 view .LVU396
 2033 000a 0392     		str	r2, [sp, #12]
 2034 000c ADF80C10 		strh	r1, [sp, #12]	@ movhi
 2035 0010 090C     		lsrs	r1, r1, #16
 2036 0012 8DF80E10 		strb	r1, [sp, #14]
 368:Drivers/lvgl/src/core/lv_obj_style_gen.c ****         .color = value
 369:Drivers/lvgl/src/core/lv_obj_style_gen.c ****     };
 370:Drivers/lvgl/src/core/lv_obj_style_gen.c ****     lv_obj_set_local_style_prop(obj, LV_STYLE_BG_IMAGE_RECOLOR, v, selector);
 2037              		.loc 1 370 5 is_stmt 1 view .LVU397
 2038 0016 039A     		ldr	r2, [sp, #12]
 2039 0018 2A21     		movs	r1, #42
 2040 001a FFF7FEFF 		bl	lv_obj_set_local_style_prop
 2041              	.LVL176:
 371:Drivers/lvgl/src/core/lv_obj_style_gen.c **** }
 2042              		.loc 1 371 1 is_stmt 0 view .LVU398
 2043 001e 05B0     		add	sp, sp, #20
 2044              	.LCFI134:
 2045              		.cfi_def_cfa_offset 4
 2046              		@ sp needed
 2047 0020 5DF804FB 		ldr	pc, [sp], #4
 2048              		.cfi_endproc
 2049              	.LFE215:
 2051              		.section	.text.lv_obj_set_style_bg_image_recolor_opa,"ax",%progbits
 2052              		.align	1
 2053              		.global	lv_obj_set_style_bg_image_recolor_opa
 2054              		.syntax unified
 2055              		.thumb
 2056              		.thumb_func
ARM GAS  /tmp/cckNWXvG.s 			page 42


 2058              	lv_obj_set_style_bg_image_recolor_opa:
 2059              	.LVL177:
 2060              	.LFB216:
 372:Drivers/lvgl/src/core/lv_obj_style_gen.c **** 
 373:Drivers/lvgl/src/core/lv_obj_style_gen.c **** void lv_obj_set_style_bg_image_recolor_opa(lv_obj_t * obj, lv_opa_t value, lv_style_selector_t sele
 374:Drivers/lvgl/src/core/lv_obj_style_gen.c **** {
 2061              		.loc 1 374 1 is_stmt 1 view -0
 2062              		.cfi_startproc
 2063              		@ args = 0, pretend = 0, frame = 8
 2064              		@ frame_needed = 0, uses_anonymous_args = 0
 2065              		.loc 1 374 1 is_stmt 0 view .LVU400
 2066 0000 00B5     		push	{lr}
 2067              	.LCFI135:
 2068              		.cfi_def_cfa_offset 4
 2069              		.cfi_offset 14, -4
 2070 0002 83B0     		sub	sp, sp, #12
 2071              	.LCFI136:
 2072              		.cfi_def_cfa_offset 16
 2073 0004 1346     		mov	r3, r2
 375:Drivers/lvgl/src/core/lv_obj_style_gen.c ****     lv_style_value_t v = {
 2074              		.loc 1 375 5 is_stmt 1 view .LVU401
 2075              		.loc 1 375 22 is_stmt 0 view .LVU402
 2076 0006 0191     		str	r1, [sp, #4]
 376:Drivers/lvgl/src/core/lv_obj_style_gen.c ****         .num = (int32_t)value
 377:Drivers/lvgl/src/core/lv_obj_style_gen.c ****     };
 378:Drivers/lvgl/src/core/lv_obj_style_gen.c ****     lv_obj_set_local_style_prop(obj, LV_STYLE_BG_IMAGE_RECOLOR_OPA, v, selector);
 2077              		.loc 1 378 5 is_stmt 1 view .LVU403
 2078 0008 0A46     		mov	r2, r1
 2079              	.LVL178:
 2080              		.loc 1 378 5 is_stmt 0 view .LVU404
 2081 000a 2B21     		movs	r1, #43
 2082              	.LVL179:
 2083              		.loc 1 378 5 view .LVU405
 2084 000c FFF7FEFF 		bl	lv_obj_set_local_style_prop
 2085              	.LVL180:
 379:Drivers/lvgl/src/core/lv_obj_style_gen.c **** }
 2086              		.loc 1 379 1 view .LVU406
 2087 0010 03B0     		add	sp, sp, #12
 2088              	.LCFI137:
 2089              		.cfi_def_cfa_offset 4
 2090              		@ sp needed
 2091 0012 5DF804FB 		ldr	pc, [sp], #4
 2092              		.loc 1 379 1 view .LVU407
 2093              		.cfi_endproc
 2094              	.LFE216:
 2096              		.section	.text.lv_obj_set_style_bg_image_tiled,"ax",%progbits
 2097              		.align	1
 2098              		.global	lv_obj_set_style_bg_image_tiled
 2099              		.syntax unified
 2100              		.thumb
 2101              		.thumb_func
 2103              	lv_obj_set_style_bg_image_tiled:
 2104              	.LVL181:
 2105              	.LFB217:
 380:Drivers/lvgl/src/core/lv_obj_style_gen.c **** 
 381:Drivers/lvgl/src/core/lv_obj_style_gen.c **** void lv_obj_set_style_bg_image_tiled(lv_obj_t * obj, bool value, lv_style_selector_t selector)
 382:Drivers/lvgl/src/core/lv_obj_style_gen.c **** {
ARM GAS  /tmp/cckNWXvG.s 			page 43


 2106              		.loc 1 382 1 is_stmt 1 view -0
 2107              		.cfi_startproc
 2108              		@ args = 0, pretend = 0, frame = 8
 2109              		@ frame_needed = 0, uses_anonymous_args = 0
 2110              		.loc 1 382 1 is_stmt 0 view .LVU409
 2111 0000 00B5     		push	{lr}
 2112              	.LCFI138:
 2113              		.cfi_def_cfa_offset 4
 2114              		.cfi_offset 14, -4
 2115 0002 83B0     		sub	sp, sp, #12
 2116              	.LCFI139:
 2117              		.cfi_def_cfa_offset 16
 2118 0004 1346     		mov	r3, r2
 383:Drivers/lvgl/src/core/lv_obj_style_gen.c ****     lv_style_value_t v = {
 2119              		.loc 1 383 5 is_stmt 1 view .LVU410
 2120              		.loc 1 383 22 is_stmt 0 view .LVU411
 2121 0006 0191     		str	r1, [sp, #4]
 384:Drivers/lvgl/src/core/lv_obj_style_gen.c ****         .num = (int32_t)value
 385:Drivers/lvgl/src/core/lv_obj_style_gen.c ****     };
 386:Drivers/lvgl/src/core/lv_obj_style_gen.c ****     lv_obj_set_local_style_prop(obj, LV_STYLE_BG_IMAGE_TILED, v, selector);
 2122              		.loc 1 386 5 is_stmt 1 view .LVU412
 2123 0008 0A46     		mov	r2, r1
 2124              	.LVL182:
 2125              		.loc 1 386 5 is_stmt 0 view .LVU413
 2126 000a 2C21     		movs	r1, #44
 2127              	.LVL183:
 2128              		.loc 1 386 5 view .LVU414
 2129 000c FFF7FEFF 		bl	lv_obj_set_local_style_prop
 2130              	.LVL184:
 387:Drivers/lvgl/src/core/lv_obj_style_gen.c **** }
 2131              		.loc 1 387 1 view .LVU415
 2132 0010 03B0     		add	sp, sp, #12
 2133              	.LCFI140:
 2134              		.cfi_def_cfa_offset 4
 2135              		@ sp needed
 2136 0012 5DF804FB 		ldr	pc, [sp], #4
 2137              		.loc 1 387 1 view .LVU416
 2138              		.cfi_endproc
 2139              	.LFE217:
 2141              		.section	.text.lv_obj_set_style_border_color,"ax",%progbits
 2142              		.align	1
 2143              		.global	lv_obj_set_style_border_color
 2144              		.syntax unified
 2145              		.thumb
 2146              		.thumb_func
 2148              	lv_obj_set_style_border_color:
 2149              	.LVL185:
 2150              	.LFB218:
 388:Drivers/lvgl/src/core/lv_obj_style_gen.c **** 
 389:Drivers/lvgl/src/core/lv_obj_style_gen.c **** void lv_obj_set_style_border_color(lv_obj_t * obj, lv_color_t value, lv_style_selector_t selector)
 390:Drivers/lvgl/src/core/lv_obj_style_gen.c **** {
 2151              		.loc 1 390 1 is_stmt 1 view -0
 2152              		.cfi_startproc
 2153              		@ args = 0, pretend = 0, frame = 16
 2154              		@ frame_needed = 0, uses_anonymous_args = 0
 2155              		.loc 1 390 1 is_stmt 0 view .LVU418
 2156 0000 00B5     		push	{lr}
ARM GAS  /tmp/cckNWXvG.s 			page 44


 2157              	.LCFI141:
 2158              		.cfi_def_cfa_offset 4
 2159              		.cfi_offset 14, -4
 2160 0002 85B0     		sub	sp, sp, #20
 2161              	.LCFI142:
 2162              		.cfi_def_cfa_offset 24
 2163 0004 0191     		str	r1, [sp, #4]
 2164 0006 1346     		mov	r3, r2
 391:Drivers/lvgl/src/core/lv_obj_style_gen.c ****     lv_style_value_t v = {
 2165              		.loc 1 391 5 is_stmt 1 view .LVU419
 2166              		.loc 1 391 22 is_stmt 0 view .LVU420
 2167 0008 0022     		movs	r2, #0
 2168              	.LVL186:
 2169              		.loc 1 391 22 view .LVU421
 2170 000a 0392     		str	r2, [sp, #12]
 2171 000c ADF80C10 		strh	r1, [sp, #12]	@ movhi
 2172 0010 090C     		lsrs	r1, r1, #16
 2173 0012 8DF80E10 		strb	r1, [sp, #14]
 392:Drivers/lvgl/src/core/lv_obj_style_gen.c ****         .color = value
 393:Drivers/lvgl/src/core/lv_obj_style_gen.c ****     };
 394:Drivers/lvgl/src/core/lv_obj_style_gen.c ****     lv_obj_set_local_style_prop(obj, LV_STYLE_BORDER_COLOR, v, selector);
 2174              		.loc 1 394 5 is_stmt 1 view .LVU422
 2175 0016 039A     		ldr	r2, [sp, #12]
 2176 0018 3121     		movs	r1, #49
 2177 001a FFF7FEFF 		bl	lv_obj_set_local_style_prop
 2178              	.LVL187:
 395:Drivers/lvgl/src/core/lv_obj_style_gen.c **** }
 2179              		.loc 1 395 1 is_stmt 0 view .LVU423
 2180 001e 05B0     		add	sp, sp, #20
 2181              	.LCFI143:
 2182              		.cfi_def_cfa_offset 4
 2183              		@ sp needed
 2184 0020 5DF804FB 		ldr	pc, [sp], #4
 2185              		.cfi_endproc
 2186              	.LFE218:
 2188              		.section	.text.lv_obj_set_style_border_opa,"ax",%progbits
 2189              		.align	1
 2190              		.global	lv_obj_set_style_border_opa
 2191              		.syntax unified
 2192              		.thumb
 2193              		.thumb_func
 2195              	lv_obj_set_style_border_opa:
 2196              	.LVL188:
 2197              	.LFB219:
 396:Drivers/lvgl/src/core/lv_obj_style_gen.c **** 
 397:Drivers/lvgl/src/core/lv_obj_style_gen.c **** void lv_obj_set_style_border_opa(lv_obj_t * obj, lv_opa_t value, lv_style_selector_t selector)
 398:Drivers/lvgl/src/core/lv_obj_style_gen.c **** {
 2198              		.loc 1 398 1 is_stmt 1 view -0
 2199              		.cfi_startproc
 2200              		@ args = 0, pretend = 0, frame = 8
 2201              		@ frame_needed = 0, uses_anonymous_args = 0
 2202              		.loc 1 398 1 is_stmt 0 view .LVU425
 2203 0000 00B5     		push	{lr}
 2204              	.LCFI144:
 2205              		.cfi_def_cfa_offset 4
 2206              		.cfi_offset 14, -4
 2207 0002 83B0     		sub	sp, sp, #12
ARM GAS  /tmp/cckNWXvG.s 			page 45


 2208              	.LCFI145:
 2209              		.cfi_def_cfa_offset 16
 2210 0004 1346     		mov	r3, r2
 399:Drivers/lvgl/src/core/lv_obj_style_gen.c ****     lv_style_value_t v = {
 2211              		.loc 1 399 5 is_stmt 1 view .LVU426
 2212              		.loc 1 399 22 is_stmt 0 view .LVU427
 2213 0006 0191     		str	r1, [sp, #4]
 400:Drivers/lvgl/src/core/lv_obj_style_gen.c ****         .num = (int32_t)value
 401:Drivers/lvgl/src/core/lv_obj_style_gen.c ****     };
 402:Drivers/lvgl/src/core/lv_obj_style_gen.c ****     lv_obj_set_local_style_prop(obj, LV_STYLE_BORDER_OPA, v, selector);
 2214              		.loc 1 402 5 is_stmt 1 view .LVU428
 2215 0008 0A46     		mov	r2, r1
 2216              	.LVL189:
 2217              		.loc 1 402 5 is_stmt 0 view .LVU429
 2218 000a 3221     		movs	r1, #50
 2219              	.LVL190:
 2220              		.loc 1 402 5 view .LVU430
 2221 000c FFF7FEFF 		bl	lv_obj_set_local_style_prop
 2222              	.LVL191:
 403:Drivers/lvgl/src/core/lv_obj_style_gen.c **** }
 2223              		.loc 1 403 1 view .LVU431
 2224 0010 03B0     		add	sp, sp, #12
 2225              	.LCFI146:
 2226              		.cfi_def_cfa_offset 4
 2227              		@ sp needed
 2228 0012 5DF804FB 		ldr	pc, [sp], #4
 2229              		.loc 1 403 1 view .LVU432
 2230              		.cfi_endproc
 2231              	.LFE219:
 2233              		.section	.text.lv_obj_set_style_border_width,"ax",%progbits
 2234              		.align	1
 2235              		.global	lv_obj_set_style_border_width
 2236              		.syntax unified
 2237              		.thumb
 2238              		.thumb_func
 2240              	lv_obj_set_style_border_width:
 2241              	.LVL192:
 2242              	.LFB220:
 404:Drivers/lvgl/src/core/lv_obj_style_gen.c **** 
 405:Drivers/lvgl/src/core/lv_obj_style_gen.c **** void lv_obj_set_style_border_width(lv_obj_t * obj, int32_t value, lv_style_selector_t selector)
 406:Drivers/lvgl/src/core/lv_obj_style_gen.c **** {
 2243              		.loc 1 406 1 is_stmt 1 view -0
 2244              		.cfi_startproc
 2245              		@ args = 0, pretend = 0, frame = 8
 2246              		@ frame_needed = 0, uses_anonymous_args = 0
 2247              		.loc 1 406 1 is_stmt 0 view .LVU434
 2248 0000 00B5     		push	{lr}
 2249              	.LCFI147:
 2250              		.cfi_def_cfa_offset 4
 2251              		.cfi_offset 14, -4
 2252 0002 83B0     		sub	sp, sp, #12
 2253              	.LCFI148:
 2254              		.cfi_def_cfa_offset 16
 2255 0004 1346     		mov	r3, r2
 407:Drivers/lvgl/src/core/lv_obj_style_gen.c ****     lv_style_value_t v = {
 2256              		.loc 1 407 5 is_stmt 1 view .LVU435
 2257              		.loc 1 407 22 is_stmt 0 view .LVU436
ARM GAS  /tmp/cckNWXvG.s 			page 46


 2258 0006 0191     		str	r1, [sp, #4]
 408:Drivers/lvgl/src/core/lv_obj_style_gen.c ****         .num = (int32_t)value
 409:Drivers/lvgl/src/core/lv_obj_style_gen.c ****     };
 410:Drivers/lvgl/src/core/lv_obj_style_gen.c ****     lv_obj_set_local_style_prop(obj, LV_STYLE_BORDER_WIDTH, v, selector);
 2259              		.loc 1 410 5 is_stmt 1 view .LVU437
 2260 0008 0A46     		mov	r2, r1
 2261              	.LVL193:
 2262              		.loc 1 410 5 is_stmt 0 view .LVU438
 2263 000a 3021     		movs	r1, #48
 2264              	.LVL194:
 2265              		.loc 1 410 5 view .LVU439
 2266 000c FFF7FEFF 		bl	lv_obj_set_local_style_prop
 2267              	.LVL195:
 411:Drivers/lvgl/src/core/lv_obj_style_gen.c **** }
 2268              		.loc 1 411 1 view .LVU440
 2269 0010 03B0     		add	sp, sp, #12
 2270              	.LCFI149:
 2271              		.cfi_def_cfa_offset 4
 2272              		@ sp needed
 2273 0012 5DF804FB 		ldr	pc, [sp], #4
 2274              		.loc 1 411 1 view .LVU441
 2275              		.cfi_endproc
 2276              	.LFE220:
 2278              		.section	.text.lv_obj_set_style_border_side,"ax",%progbits
 2279              		.align	1
 2280              		.global	lv_obj_set_style_border_side
 2281              		.syntax unified
 2282              		.thumb
 2283              		.thumb_func
 2285              	lv_obj_set_style_border_side:
 2286              	.LVL196:
 2287              	.LFB221:
 412:Drivers/lvgl/src/core/lv_obj_style_gen.c **** 
 413:Drivers/lvgl/src/core/lv_obj_style_gen.c **** void lv_obj_set_style_border_side(lv_obj_t * obj, lv_border_side_t value, lv_style_selector_t selec
 414:Drivers/lvgl/src/core/lv_obj_style_gen.c **** {
 2288              		.loc 1 414 1 is_stmt 1 view -0
 2289              		.cfi_startproc
 2290              		@ args = 0, pretend = 0, frame = 8
 2291              		@ frame_needed = 0, uses_anonymous_args = 0
 2292              		.loc 1 414 1 is_stmt 0 view .LVU443
 2293 0000 00B5     		push	{lr}
 2294              	.LCFI150:
 2295              		.cfi_def_cfa_offset 4
 2296              		.cfi_offset 14, -4
 2297 0002 83B0     		sub	sp, sp, #12
 2298              	.LCFI151:
 2299              		.cfi_def_cfa_offset 16
 2300 0004 1346     		mov	r3, r2
 415:Drivers/lvgl/src/core/lv_obj_style_gen.c ****     lv_style_value_t v = {
 2301              		.loc 1 415 5 is_stmt 1 view .LVU444
 2302              		.loc 1 415 22 is_stmt 0 view .LVU445
 2303 0006 0191     		str	r1, [sp, #4]
 416:Drivers/lvgl/src/core/lv_obj_style_gen.c ****         .num = (int32_t)value
 417:Drivers/lvgl/src/core/lv_obj_style_gen.c ****     };
 418:Drivers/lvgl/src/core/lv_obj_style_gen.c ****     lv_obj_set_local_style_prop(obj, LV_STYLE_BORDER_SIDE, v, selector);
 2304              		.loc 1 418 5 is_stmt 1 view .LVU446
 2305 0008 0A46     		mov	r2, r1
ARM GAS  /tmp/cckNWXvG.s 			page 47


 2306              	.LVL197:
 2307              		.loc 1 418 5 is_stmt 0 view .LVU447
 2308 000a 3421     		movs	r1, #52
 2309              	.LVL198:
 2310              		.loc 1 418 5 view .LVU448
 2311 000c FFF7FEFF 		bl	lv_obj_set_local_style_prop
 2312              	.LVL199:
 419:Drivers/lvgl/src/core/lv_obj_style_gen.c **** }
 2313              		.loc 1 419 1 view .LVU449
 2314 0010 03B0     		add	sp, sp, #12
 2315              	.LCFI152:
 2316              		.cfi_def_cfa_offset 4
 2317              		@ sp needed
 2318 0012 5DF804FB 		ldr	pc, [sp], #4
 2319              		.loc 1 419 1 view .LVU450
 2320              		.cfi_endproc
 2321              	.LFE221:
 2323              		.section	.text.lv_obj_set_style_border_post,"ax",%progbits
 2324              		.align	1
 2325              		.global	lv_obj_set_style_border_post
 2326              		.syntax unified
 2327              		.thumb
 2328              		.thumb_func
 2330              	lv_obj_set_style_border_post:
 2331              	.LVL200:
 2332              	.LFB222:
 420:Drivers/lvgl/src/core/lv_obj_style_gen.c **** 
 421:Drivers/lvgl/src/core/lv_obj_style_gen.c **** void lv_obj_set_style_border_post(lv_obj_t * obj, bool value, lv_style_selector_t selector)
 422:Drivers/lvgl/src/core/lv_obj_style_gen.c **** {
 2333              		.loc 1 422 1 is_stmt 1 view -0
 2334              		.cfi_startproc
 2335              		@ args = 0, pretend = 0, frame = 8
 2336              		@ frame_needed = 0, uses_anonymous_args = 0
 2337              		.loc 1 422 1 is_stmt 0 view .LVU452
 2338 0000 00B5     		push	{lr}
 2339              	.LCFI153:
 2340              		.cfi_def_cfa_offset 4
 2341              		.cfi_offset 14, -4
 2342 0002 83B0     		sub	sp, sp, #12
 2343              	.LCFI154:
 2344              		.cfi_def_cfa_offset 16
 2345 0004 1346     		mov	r3, r2
 423:Drivers/lvgl/src/core/lv_obj_style_gen.c ****     lv_style_value_t v = {
 2346              		.loc 1 423 5 is_stmt 1 view .LVU453
 2347              		.loc 1 423 22 is_stmt 0 view .LVU454
 2348 0006 0191     		str	r1, [sp, #4]
 424:Drivers/lvgl/src/core/lv_obj_style_gen.c ****         .num = (int32_t)value
 425:Drivers/lvgl/src/core/lv_obj_style_gen.c ****     };
 426:Drivers/lvgl/src/core/lv_obj_style_gen.c ****     lv_obj_set_local_style_prop(obj, LV_STYLE_BORDER_POST, v, selector);
 2349              		.loc 1 426 5 is_stmt 1 view .LVU455
 2350 0008 0A46     		mov	r2, r1
 2351              	.LVL201:
 2352              		.loc 1 426 5 is_stmt 0 view .LVU456
 2353 000a 3521     		movs	r1, #53
 2354              	.LVL202:
 2355              		.loc 1 426 5 view .LVU457
 2356 000c FFF7FEFF 		bl	lv_obj_set_local_style_prop
ARM GAS  /tmp/cckNWXvG.s 			page 48


 2357              	.LVL203:
 427:Drivers/lvgl/src/core/lv_obj_style_gen.c **** }
 2358              		.loc 1 427 1 view .LVU458
 2359 0010 03B0     		add	sp, sp, #12
 2360              	.LCFI155:
 2361              		.cfi_def_cfa_offset 4
 2362              		@ sp needed
 2363 0012 5DF804FB 		ldr	pc, [sp], #4
 2364              		.loc 1 427 1 view .LVU459
 2365              		.cfi_endproc
 2366              	.LFE222:
 2368              		.section	.text.lv_obj_set_style_outline_width,"ax",%progbits
 2369              		.align	1
 2370              		.global	lv_obj_set_style_outline_width
 2371              		.syntax unified
 2372              		.thumb
 2373              		.thumb_func
 2375              	lv_obj_set_style_outline_width:
 2376              	.LVL204:
 2377              	.LFB223:
 428:Drivers/lvgl/src/core/lv_obj_style_gen.c **** 
 429:Drivers/lvgl/src/core/lv_obj_style_gen.c **** void lv_obj_set_style_outline_width(lv_obj_t * obj, int32_t value, lv_style_selector_t selector)
 430:Drivers/lvgl/src/core/lv_obj_style_gen.c **** {
 2378              		.loc 1 430 1 is_stmt 1 view -0
 2379              		.cfi_startproc
 2380              		@ args = 0, pretend = 0, frame = 8
 2381              		@ frame_needed = 0, uses_anonymous_args = 0
 2382              		.loc 1 430 1 is_stmt 0 view .LVU461
 2383 0000 00B5     		push	{lr}
 2384              	.LCFI156:
 2385              		.cfi_def_cfa_offset 4
 2386              		.cfi_offset 14, -4
 2387 0002 83B0     		sub	sp, sp, #12
 2388              	.LCFI157:
 2389              		.cfi_def_cfa_offset 16
 2390 0004 1346     		mov	r3, r2
 431:Drivers/lvgl/src/core/lv_obj_style_gen.c ****     lv_style_value_t v = {
 2391              		.loc 1 431 5 is_stmt 1 view .LVU462
 2392              		.loc 1 431 22 is_stmt 0 view .LVU463
 2393 0006 0191     		str	r1, [sp, #4]
 432:Drivers/lvgl/src/core/lv_obj_style_gen.c ****         .num = (int32_t)value
 433:Drivers/lvgl/src/core/lv_obj_style_gen.c ****     };
 434:Drivers/lvgl/src/core/lv_obj_style_gen.c ****     lv_obj_set_local_style_prop(obj, LV_STYLE_OUTLINE_WIDTH, v, selector);
 2394              		.loc 1 434 5 is_stmt 1 view .LVU464
 2395 0008 0A46     		mov	r2, r1
 2396              	.LVL205:
 2397              		.loc 1 434 5 is_stmt 0 view .LVU465
 2398 000a 3821     		movs	r1, #56
 2399              	.LVL206:
 2400              		.loc 1 434 5 view .LVU466
 2401 000c FFF7FEFF 		bl	lv_obj_set_local_style_prop
 2402              	.LVL207:
 435:Drivers/lvgl/src/core/lv_obj_style_gen.c **** }
 2403              		.loc 1 435 1 view .LVU467
 2404 0010 03B0     		add	sp, sp, #12
 2405              	.LCFI158:
 2406              		.cfi_def_cfa_offset 4
ARM GAS  /tmp/cckNWXvG.s 			page 49


 2407              		@ sp needed
 2408 0012 5DF804FB 		ldr	pc, [sp], #4
 2409              		.loc 1 435 1 view .LVU468
 2410              		.cfi_endproc
 2411              	.LFE223:
 2413              		.section	.text.lv_obj_set_style_outline_color,"ax",%progbits
 2414              		.align	1
 2415              		.global	lv_obj_set_style_outline_color
 2416              		.syntax unified
 2417              		.thumb
 2418              		.thumb_func
 2420              	lv_obj_set_style_outline_color:
 2421              	.LVL208:
 2422              	.LFB224:
 436:Drivers/lvgl/src/core/lv_obj_style_gen.c **** 
 437:Drivers/lvgl/src/core/lv_obj_style_gen.c **** void lv_obj_set_style_outline_color(lv_obj_t * obj, lv_color_t value, lv_style_selector_t selector)
 438:Drivers/lvgl/src/core/lv_obj_style_gen.c **** {
 2423              		.loc 1 438 1 is_stmt 1 view -0
 2424              		.cfi_startproc
 2425              		@ args = 0, pretend = 0, frame = 16
 2426              		@ frame_needed = 0, uses_anonymous_args = 0
 2427              		.loc 1 438 1 is_stmt 0 view .LVU470
 2428 0000 00B5     		push	{lr}
 2429              	.LCFI159:
 2430              		.cfi_def_cfa_offset 4
 2431              		.cfi_offset 14, -4
 2432 0002 85B0     		sub	sp, sp, #20
 2433              	.LCFI160:
 2434              		.cfi_def_cfa_offset 24
 2435 0004 0191     		str	r1, [sp, #4]
 2436 0006 1346     		mov	r3, r2
 439:Drivers/lvgl/src/core/lv_obj_style_gen.c ****     lv_style_value_t v = {
 2437              		.loc 1 439 5 is_stmt 1 view .LVU471
 2438              		.loc 1 439 22 is_stmt 0 view .LVU472
 2439 0008 0022     		movs	r2, #0
 2440              	.LVL209:
 2441              		.loc 1 439 22 view .LVU473
 2442 000a 0392     		str	r2, [sp, #12]
 2443 000c ADF80C10 		strh	r1, [sp, #12]	@ movhi
 2444 0010 090C     		lsrs	r1, r1, #16
 2445 0012 8DF80E10 		strb	r1, [sp, #14]
 440:Drivers/lvgl/src/core/lv_obj_style_gen.c ****         .color = value
 441:Drivers/lvgl/src/core/lv_obj_style_gen.c ****     };
 442:Drivers/lvgl/src/core/lv_obj_style_gen.c ****     lv_obj_set_local_style_prop(obj, LV_STYLE_OUTLINE_COLOR, v, selector);
 2446              		.loc 1 442 5 is_stmt 1 view .LVU474
 2447 0016 039A     		ldr	r2, [sp, #12]
 2448 0018 3921     		movs	r1, #57
 2449 001a FFF7FEFF 		bl	lv_obj_set_local_style_prop
 2450              	.LVL210:
 443:Drivers/lvgl/src/core/lv_obj_style_gen.c **** }
 2451              		.loc 1 443 1 is_stmt 0 view .LVU475
 2452 001e 05B0     		add	sp, sp, #20
 2453              	.LCFI161:
 2454              		.cfi_def_cfa_offset 4
 2455              		@ sp needed
 2456 0020 5DF804FB 		ldr	pc, [sp], #4
 2457              		.cfi_endproc
ARM GAS  /tmp/cckNWXvG.s 			page 50


 2458              	.LFE224:
 2460              		.section	.text.lv_obj_set_style_outline_opa,"ax",%progbits
 2461              		.align	1
 2462              		.global	lv_obj_set_style_outline_opa
 2463              		.syntax unified
 2464              		.thumb
 2465              		.thumb_func
 2467              	lv_obj_set_style_outline_opa:
 2468              	.LVL211:
 2469              	.LFB225:
 444:Drivers/lvgl/src/core/lv_obj_style_gen.c **** 
 445:Drivers/lvgl/src/core/lv_obj_style_gen.c **** void lv_obj_set_style_outline_opa(lv_obj_t * obj, lv_opa_t value, lv_style_selector_t selector)
 446:Drivers/lvgl/src/core/lv_obj_style_gen.c **** {
 2470              		.loc 1 446 1 is_stmt 1 view -0
 2471              		.cfi_startproc
 2472              		@ args = 0, pretend = 0, frame = 8
 2473              		@ frame_needed = 0, uses_anonymous_args = 0
 2474              		.loc 1 446 1 is_stmt 0 view .LVU477
 2475 0000 00B5     		push	{lr}
 2476              	.LCFI162:
 2477              		.cfi_def_cfa_offset 4
 2478              		.cfi_offset 14, -4
 2479 0002 83B0     		sub	sp, sp, #12
 2480              	.LCFI163:
 2481              		.cfi_def_cfa_offset 16
 2482 0004 1346     		mov	r3, r2
 447:Drivers/lvgl/src/core/lv_obj_style_gen.c ****     lv_style_value_t v = {
 2483              		.loc 1 447 5 is_stmt 1 view .LVU478
 2484              		.loc 1 447 22 is_stmt 0 view .LVU479
 2485 0006 0191     		str	r1, [sp, #4]
 448:Drivers/lvgl/src/core/lv_obj_style_gen.c ****         .num = (int32_t)value
 449:Drivers/lvgl/src/core/lv_obj_style_gen.c ****     };
 450:Drivers/lvgl/src/core/lv_obj_style_gen.c ****     lv_obj_set_local_style_prop(obj, LV_STYLE_OUTLINE_OPA, v, selector);
 2486              		.loc 1 450 5 is_stmt 1 view .LVU480
 2487 0008 0A46     		mov	r2, r1
 2488              	.LVL212:
 2489              		.loc 1 450 5 is_stmt 0 view .LVU481
 2490 000a 3A21     		movs	r1, #58
 2491              	.LVL213:
 2492              		.loc 1 450 5 view .LVU482
 2493 000c FFF7FEFF 		bl	lv_obj_set_local_style_prop
 2494              	.LVL214:
 451:Drivers/lvgl/src/core/lv_obj_style_gen.c **** }
 2495              		.loc 1 451 1 view .LVU483
 2496 0010 03B0     		add	sp, sp, #12
 2497              	.LCFI164:
 2498              		.cfi_def_cfa_offset 4
 2499              		@ sp needed
 2500 0012 5DF804FB 		ldr	pc, [sp], #4
 2501              		.loc 1 451 1 view .LVU484
 2502              		.cfi_endproc
 2503              	.LFE225:
 2505              		.section	.text.lv_obj_set_style_outline_pad,"ax",%progbits
 2506              		.align	1
 2507              		.global	lv_obj_set_style_outline_pad
 2508              		.syntax unified
 2509              		.thumb
ARM GAS  /tmp/cckNWXvG.s 			page 51


 2510              		.thumb_func
 2512              	lv_obj_set_style_outline_pad:
 2513              	.LVL215:
 2514              	.LFB226:
 452:Drivers/lvgl/src/core/lv_obj_style_gen.c **** 
 453:Drivers/lvgl/src/core/lv_obj_style_gen.c **** void lv_obj_set_style_outline_pad(lv_obj_t * obj, int32_t value, lv_style_selector_t selector)
 454:Drivers/lvgl/src/core/lv_obj_style_gen.c **** {
 2515              		.loc 1 454 1 is_stmt 1 view -0
 2516              		.cfi_startproc
 2517              		@ args = 0, pretend = 0, frame = 8
 2518              		@ frame_needed = 0, uses_anonymous_args = 0
 2519              		.loc 1 454 1 is_stmt 0 view .LVU486
 2520 0000 00B5     		push	{lr}
 2521              	.LCFI165:
 2522              		.cfi_def_cfa_offset 4
 2523              		.cfi_offset 14, -4
 2524 0002 83B0     		sub	sp, sp, #12
 2525              	.LCFI166:
 2526              		.cfi_def_cfa_offset 16
 2527 0004 1346     		mov	r3, r2
 455:Drivers/lvgl/src/core/lv_obj_style_gen.c ****     lv_style_value_t v = {
 2528              		.loc 1 455 5 is_stmt 1 view .LVU487
 2529              		.loc 1 455 22 is_stmt 0 view .LVU488
 2530 0006 0191     		str	r1, [sp, #4]
 456:Drivers/lvgl/src/core/lv_obj_style_gen.c ****         .num = (int32_t)value
 457:Drivers/lvgl/src/core/lv_obj_style_gen.c ****     };
 458:Drivers/lvgl/src/core/lv_obj_style_gen.c ****     lv_obj_set_local_style_prop(obj, LV_STYLE_OUTLINE_PAD, v, selector);
 2531              		.loc 1 458 5 is_stmt 1 view .LVU489
 2532 0008 0A46     		mov	r2, r1
 2533              	.LVL216:
 2534              		.loc 1 458 5 is_stmt 0 view .LVU490
 2535 000a 3B21     		movs	r1, #59
 2536              	.LVL217:
 2537              		.loc 1 458 5 view .LVU491
 2538 000c FFF7FEFF 		bl	lv_obj_set_local_style_prop
 2539              	.LVL218:
 459:Drivers/lvgl/src/core/lv_obj_style_gen.c **** }
 2540              		.loc 1 459 1 view .LVU492
 2541 0010 03B0     		add	sp, sp, #12
 2542              	.LCFI167:
 2543              		.cfi_def_cfa_offset 4
 2544              		@ sp needed
 2545 0012 5DF804FB 		ldr	pc, [sp], #4
 2546              		.loc 1 459 1 view .LVU493
 2547              		.cfi_endproc
 2548              	.LFE226:
 2550              		.section	.text.lv_obj_set_style_shadow_width,"ax",%progbits
 2551              		.align	1
 2552              		.global	lv_obj_set_style_shadow_width
 2553              		.syntax unified
 2554              		.thumb
 2555              		.thumb_func
 2557              	lv_obj_set_style_shadow_width:
 2558              	.LVL219:
 2559              	.LFB227:
 460:Drivers/lvgl/src/core/lv_obj_style_gen.c **** 
 461:Drivers/lvgl/src/core/lv_obj_style_gen.c **** void lv_obj_set_style_shadow_width(lv_obj_t * obj, int32_t value, lv_style_selector_t selector)
ARM GAS  /tmp/cckNWXvG.s 			page 52


 462:Drivers/lvgl/src/core/lv_obj_style_gen.c **** {
 2560              		.loc 1 462 1 is_stmt 1 view -0
 2561              		.cfi_startproc
 2562              		@ args = 0, pretend = 0, frame = 8
 2563              		@ frame_needed = 0, uses_anonymous_args = 0
 2564              		.loc 1 462 1 is_stmt 0 view .LVU495
 2565 0000 00B5     		push	{lr}
 2566              	.LCFI168:
 2567              		.cfi_def_cfa_offset 4
 2568              		.cfi_offset 14, -4
 2569 0002 83B0     		sub	sp, sp, #12
 2570              	.LCFI169:
 2571              		.cfi_def_cfa_offset 16
 2572 0004 1346     		mov	r3, r2
 463:Drivers/lvgl/src/core/lv_obj_style_gen.c ****     lv_style_value_t v = {
 2573              		.loc 1 463 5 is_stmt 1 view .LVU496
 2574              		.loc 1 463 22 is_stmt 0 view .LVU497
 2575 0006 0191     		str	r1, [sp, #4]
 464:Drivers/lvgl/src/core/lv_obj_style_gen.c ****         .num = (int32_t)value
 465:Drivers/lvgl/src/core/lv_obj_style_gen.c ****     };
 466:Drivers/lvgl/src/core/lv_obj_style_gen.c ****     lv_obj_set_local_style_prop(obj, LV_STYLE_SHADOW_WIDTH, v, selector);
 2576              		.loc 1 466 5 is_stmt 1 view .LVU498
 2577 0008 0A46     		mov	r2, r1
 2578              	.LVL220:
 2579              		.loc 1 466 5 is_stmt 0 view .LVU499
 2580 000a 3C21     		movs	r1, #60
 2581              	.LVL221:
 2582              		.loc 1 466 5 view .LVU500
 2583 000c FFF7FEFF 		bl	lv_obj_set_local_style_prop
 2584              	.LVL222:
 467:Drivers/lvgl/src/core/lv_obj_style_gen.c **** }
 2585              		.loc 1 467 1 view .LVU501
 2586 0010 03B0     		add	sp, sp, #12
 2587              	.LCFI170:
 2588              		.cfi_def_cfa_offset 4
 2589              		@ sp needed
 2590 0012 5DF804FB 		ldr	pc, [sp], #4
 2591              		.loc 1 467 1 view .LVU502
 2592              		.cfi_endproc
 2593              	.LFE227:
 2595              		.section	.text.lv_obj_set_style_shadow_offset_x,"ax",%progbits
 2596              		.align	1
 2597              		.global	lv_obj_set_style_shadow_offset_x
 2598              		.syntax unified
 2599              		.thumb
 2600              		.thumb_func
 2602              	lv_obj_set_style_shadow_offset_x:
 2603              	.LVL223:
 2604              	.LFB228:
 468:Drivers/lvgl/src/core/lv_obj_style_gen.c **** 
 469:Drivers/lvgl/src/core/lv_obj_style_gen.c **** void lv_obj_set_style_shadow_offset_x(lv_obj_t * obj, int32_t value, lv_style_selector_t selector)
 470:Drivers/lvgl/src/core/lv_obj_style_gen.c **** {
 2605              		.loc 1 470 1 is_stmt 1 view -0
 2606              		.cfi_startproc
 2607              		@ args = 0, pretend = 0, frame = 8
 2608              		@ frame_needed = 0, uses_anonymous_args = 0
 2609              		.loc 1 470 1 is_stmt 0 view .LVU504
ARM GAS  /tmp/cckNWXvG.s 			page 53


 2610 0000 00B5     		push	{lr}
 2611              	.LCFI171:
 2612              		.cfi_def_cfa_offset 4
 2613              		.cfi_offset 14, -4
 2614 0002 83B0     		sub	sp, sp, #12
 2615              	.LCFI172:
 2616              		.cfi_def_cfa_offset 16
 2617 0004 1346     		mov	r3, r2
 471:Drivers/lvgl/src/core/lv_obj_style_gen.c ****     lv_style_value_t v = {
 2618              		.loc 1 471 5 is_stmt 1 view .LVU505
 2619              		.loc 1 471 22 is_stmt 0 view .LVU506
 2620 0006 0191     		str	r1, [sp, #4]
 472:Drivers/lvgl/src/core/lv_obj_style_gen.c ****         .num = (int32_t)value
 473:Drivers/lvgl/src/core/lv_obj_style_gen.c ****     };
 474:Drivers/lvgl/src/core/lv_obj_style_gen.c ****     lv_obj_set_local_style_prop(obj, LV_STYLE_SHADOW_OFFSET_X, v, selector);
 2621              		.loc 1 474 5 is_stmt 1 view .LVU507
 2622 0008 0A46     		mov	r2, r1
 2623              	.LVL224:
 2624              		.loc 1 474 5 is_stmt 0 view .LVU508
 2625 000a 4021     		movs	r1, #64
 2626              	.LVL225:
 2627              		.loc 1 474 5 view .LVU509
 2628 000c FFF7FEFF 		bl	lv_obj_set_local_style_prop
 2629              	.LVL226:
 475:Drivers/lvgl/src/core/lv_obj_style_gen.c **** }
 2630              		.loc 1 475 1 view .LVU510
 2631 0010 03B0     		add	sp, sp, #12
 2632              	.LCFI173:
 2633              		.cfi_def_cfa_offset 4
 2634              		@ sp needed
 2635 0012 5DF804FB 		ldr	pc, [sp], #4
 2636              		.loc 1 475 1 view .LVU511
 2637              		.cfi_endproc
 2638              	.LFE228:
 2640              		.section	.text.lv_obj_set_style_shadow_offset_y,"ax",%progbits
 2641              		.align	1
 2642              		.global	lv_obj_set_style_shadow_offset_y
 2643              		.syntax unified
 2644              		.thumb
 2645              		.thumb_func
 2647              	lv_obj_set_style_shadow_offset_y:
 2648              	.LVL227:
 2649              	.LFB229:
 476:Drivers/lvgl/src/core/lv_obj_style_gen.c **** 
 477:Drivers/lvgl/src/core/lv_obj_style_gen.c **** void lv_obj_set_style_shadow_offset_y(lv_obj_t * obj, int32_t value, lv_style_selector_t selector)
 478:Drivers/lvgl/src/core/lv_obj_style_gen.c **** {
 2650              		.loc 1 478 1 is_stmt 1 view -0
 2651              		.cfi_startproc
 2652              		@ args = 0, pretend = 0, frame = 8
 2653              		@ frame_needed = 0, uses_anonymous_args = 0
 2654              		.loc 1 478 1 is_stmt 0 view .LVU513
 2655 0000 00B5     		push	{lr}
 2656              	.LCFI174:
 2657              		.cfi_def_cfa_offset 4
 2658              		.cfi_offset 14, -4
 2659 0002 83B0     		sub	sp, sp, #12
 2660              	.LCFI175:
ARM GAS  /tmp/cckNWXvG.s 			page 54


 2661              		.cfi_def_cfa_offset 16
 2662 0004 1346     		mov	r3, r2
 479:Drivers/lvgl/src/core/lv_obj_style_gen.c ****     lv_style_value_t v = {
 2663              		.loc 1 479 5 is_stmt 1 view .LVU514
 2664              		.loc 1 479 22 is_stmt 0 view .LVU515
 2665 0006 0191     		str	r1, [sp, #4]
 480:Drivers/lvgl/src/core/lv_obj_style_gen.c ****         .num = (int32_t)value
 481:Drivers/lvgl/src/core/lv_obj_style_gen.c ****     };
 482:Drivers/lvgl/src/core/lv_obj_style_gen.c ****     lv_obj_set_local_style_prop(obj, LV_STYLE_SHADOW_OFFSET_Y, v, selector);
 2666              		.loc 1 482 5 is_stmt 1 view .LVU516
 2667 0008 0A46     		mov	r2, r1
 2668              	.LVL228:
 2669              		.loc 1 482 5 is_stmt 0 view .LVU517
 2670 000a 4121     		movs	r1, #65
 2671              	.LVL229:
 2672              		.loc 1 482 5 view .LVU518
 2673 000c FFF7FEFF 		bl	lv_obj_set_local_style_prop
 2674              	.LVL230:
 483:Drivers/lvgl/src/core/lv_obj_style_gen.c **** }
 2675              		.loc 1 483 1 view .LVU519
 2676 0010 03B0     		add	sp, sp, #12
 2677              	.LCFI176:
 2678              		.cfi_def_cfa_offset 4
 2679              		@ sp needed
 2680 0012 5DF804FB 		ldr	pc, [sp], #4
 2681              		.loc 1 483 1 view .LVU520
 2682              		.cfi_endproc
 2683              	.LFE229:
 2685              		.section	.text.lv_obj_set_style_shadow_spread,"ax",%progbits
 2686              		.align	1
 2687              		.global	lv_obj_set_style_shadow_spread
 2688              		.syntax unified
 2689              		.thumb
 2690              		.thumb_func
 2692              	lv_obj_set_style_shadow_spread:
 2693              	.LVL231:
 2694              	.LFB230:
 484:Drivers/lvgl/src/core/lv_obj_style_gen.c **** 
 485:Drivers/lvgl/src/core/lv_obj_style_gen.c **** void lv_obj_set_style_shadow_spread(lv_obj_t * obj, int32_t value, lv_style_selector_t selector)
 486:Drivers/lvgl/src/core/lv_obj_style_gen.c **** {
 2695              		.loc 1 486 1 is_stmt 1 view -0
 2696              		.cfi_startproc
 2697              		@ args = 0, pretend = 0, frame = 8
 2698              		@ frame_needed = 0, uses_anonymous_args = 0
 2699              		.loc 1 486 1 is_stmt 0 view .LVU522
 2700 0000 00B5     		push	{lr}
 2701              	.LCFI177:
 2702              		.cfi_def_cfa_offset 4
 2703              		.cfi_offset 14, -4
 2704 0002 83B0     		sub	sp, sp, #12
 2705              	.LCFI178:
 2706              		.cfi_def_cfa_offset 16
 2707 0004 1346     		mov	r3, r2
 487:Drivers/lvgl/src/core/lv_obj_style_gen.c ****     lv_style_value_t v = {
 2708              		.loc 1 487 5 is_stmt 1 view .LVU523
 2709              		.loc 1 487 22 is_stmt 0 view .LVU524
 2710 0006 0191     		str	r1, [sp, #4]
ARM GAS  /tmp/cckNWXvG.s 			page 55


 488:Drivers/lvgl/src/core/lv_obj_style_gen.c ****         .num = (int32_t)value
 489:Drivers/lvgl/src/core/lv_obj_style_gen.c ****     };
 490:Drivers/lvgl/src/core/lv_obj_style_gen.c ****     lv_obj_set_local_style_prop(obj, LV_STYLE_SHADOW_SPREAD, v, selector);
 2711              		.loc 1 490 5 is_stmt 1 view .LVU525
 2712 0008 0A46     		mov	r2, r1
 2713              	.LVL232:
 2714              		.loc 1 490 5 is_stmt 0 view .LVU526
 2715 000a 4221     		movs	r1, #66
 2716              	.LVL233:
 2717              		.loc 1 490 5 view .LVU527
 2718 000c FFF7FEFF 		bl	lv_obj_set_local_style_prop
 2719              	.LVL234:
 491:Drivers/lvgl/src/core/lv_obj_style_gen.c **** }
 2720              		.loc 1 491 1 view .LVU528
 2721 0010 03B0     		add	sp, sp, #12
 2722              	.LCFI179:
 2723              		.cfi_def_cfa_offset 4
 2724              		@ sp needed
 2725 0012 5DF804FB 		ldr	pc, [sp], #4
 2726              		.loc 1 491 1 view .LVU529
 2727              		.cfi_endproc
 2728              	.LFE230:
 2730              		.section	.text.lv_obj_set_style_shadow_color,"ax",%progbits
 2731              		.align	1
 2732              		.global	lv_obj_set_style_shadow_color
 2733              		.syntax unified
 2734              		.thumb
 2735              		.thumb_func
 2737              	lv_obj_set_style_shadow_color:
 2738              	.LVL235:
 2739              	.LFB231:
 492:Drivers/lvgl/src/core/lv_obj_style_gen.c **** 
 493:Drivers/lvgl/src/core/lv_obj_style_gen.c **** void lv_obj_set_style_shadow_color(lv_obj_t * obj, lv_color_t value, lv_style_selector_t selector)
 494:Drivers/lvgl/src/core/lv_obj_style_gen.c **** {
 2740              		.loc 1 494 1 is_stmt 1 view -0
 2741              		.cfi_startproc
 2742              		@ args = 0, pretend = 0, frame = 16
 2743              		@ frame_needed = 0, uses_anonymous_args = 0
 2744              		.loc 1 494 1 is_stmt 0 view .LVU531
 2745 0000 00B5     		push	{lr}
 2746              	.LCFI180:
 2747              		.cfi_def_cfa_offset 4
 2748              		.cfi_offset 14, -4
 2749 0002 85B0     		sub	sp, sp, #20
 2750              	.LCFI181:
 2751              		.cfi_def_cfa_offset 24
 2752 0004 0191     		str	r1, [sp, #4]
 2753 0006 1346     		mov	r3, r2
 495:Drivers/lvgl/src/core/lv_obj_style_gen.c ****     lv_style_value_t v = {
 2754              		.loc 1 495 5 is_stmt 1 view .LVU532
 2755              		.loc 1 495 22 is_stmt 0 view .LVU533
 2756 0008 0022     		movs	r2, #0
 2757              	.LVL236:
 2758              		.loc 1 495 22 view .LVU534
 2759 000a 0392     		str	r2, [sp, #12]
 2760 000c ADF80C10 		strh	r1, [sp, #12]	@ movhi
 2761 0010 090C     		lsrs	r1, r1, #16
ARM GAS  /tmp/cckNWXvG.s 			page 56


 2762 0012 8DF80E10 		strb	r1, [sp, #14]
 496:Drivers/lvgl/src/core/lv_obj_style_gen.c ****         .color = value
 497:Drivers/lvgl/src/core/lv_obj_style_gen.c ****     };
 498:Drivers/lvgl/src/core/lv_obj_style_gen.c ****     lv_obj_set_local_style_prop(obj, LV_STYLE_SHADOW_COLOR, v, selector);
 2763              		.loc 1 498 5 is_stmt 1 view .LVU535
 2764 0016 039A     		ldr	r2, [sp, #12]
 2765 0018 3D21     		movs	r1, #61
 2766 001a FFF7FEFF 		bl	lv_obj_set_local_style_prop
 2767              	.LVL237:
 499:Drivers/lvgl/src/core/lv_obj_style_gen.c **** }
 2768              		.loc 1 499 1 is_stmt 0 view .LVU536
 2769 001e 05B0     		add	sp, sp, #20
 2770              	.LCFI182:
 2771              		.cfi_def_cfa_offset 4
 2772              		@ sp needed
 2773 0020 5DF804FB 		ldr	pc, [sp], #4
 2774              		.cfi_endproc
 2775              	.LFE231:
 2777              		.section	.text.lv_obj_set_style_shadow_opa,"ax",%progbits
 2778              		.align	1
 2779              		.global	lv_obj_set_style_shadow_opa
 2780              		.syntax unified
 2781              		.thumb
 2782              		.thumb_func
 2784              	lv_obj_set_style_shadow_opa:
 2785              	.LVL238:
 2786              	.LFB232:
 500:Drivers/lvgl/src/core/lv_obj_style_gen.c **** 
 501:Drivers/lvgl/src/core/lv_obj_style_gen.c **** void lv_obj_set_style_shadow_opa(lv_obj_t * obj, lv_opa_t value, lv_style_selector_t selector)
 502:Drivers/lvgl/src/core/lv_obj_style_gen.c **** {
 2787              		.loc 1 502 1 is_stmt 1 view -0
 2788              		.cfi_startproc
 2789              		@ args = 0, pretend = 0, frame = 8
 2790              		@ frame_needed = 0, uses_anonymous_args = 0
 2791              		.loc 1 502 1 is_stmt 0 view .LVU538
 2792 0000 00B5     		push	{lr}
 2793              	.LCFI183:
 2794              		.cfi_def_cfa_offset 4
 2795              		.cfi_offset 14, -4
 2796 0002 83B0     		sub	sp, sp, #12
 2797              	.LCFI184:
 2798              		.cfi_def_cfa_offset 16
 2799 0004 1346     		mov	r3, r2
 503:Drivers/lvgl/src/core/lv_obj_style_gen.c ****     lv_style_value_t v = {
 2800              		.loc 1 503 5 is_stmt 1 view .LVU539
 2801              		.loc 1 503 22 is_stmt 0 view .LVU540
 2802 0006 0191     		str	r1, [sp, #4]
 504:Drivers/lvgl/src/core/lv_obj_style_gen.c ****         .num = (int32_t)value
 505:Drivers/lvgl/src/core/lv_obj_style_gen.c ****     };
 506:Drivers/lvgl/src/core/lv_obj_style_gen.c ****     lv_obj_set_local_style_prop(obj, LV_STYLE_SHADOW_OPA, v, selector);
 2803              		.loc 1 506 5 is_stmt 1 view .LVU541
 2804 0008 0A46     		mov	r2, r1
 2805              	.LVL239:
 2806              		.loc 1 506 5 is_stmt 0 view .LVU542
 2807 000a 3E21     		movs	r1, #62
 2808              	.LVL240:
 2809              		.loc 1 506 5 view .LVU543
ARM GAS  /tmp/cckNWXvG.s 			page 57


 2810 000c FFF7FEFF 		bl	lv_obj_set_local_style_prop
 2811              	.LVL241:
 507:Drivers/lvgl/src/core/lv_obj_style_gen.c **** }
 2812              		.loc 1 507 1 view .LVU544
 2813 0010 03B0     		add	sp, sp, #12
 2814              	.LCFI185:
 2815              		.cfi_def_cfa_offset 4
 2816              		@ sp needed
 2817 0012 5DF804FB 		ldr	pc, [sp], #4
 2818              		.loc 1 507 1 view .LVU545
 2819              		.cfi_endproc
 2820              	.LFE232:
 2822              		.section	.text.lv_obj_set_style_image_opa,"ax",%progbits
 2823              		.align	1
 2824              		.global	lv_obj_set_style_image_opa
 2825              		.syntax unified
 2826              		.thumb
 2827              		.thumb_func
 2829              	lv_obj_set_style_image_opa:
 2830              	.LVL242:
 2831              	.LFB233:
 508:Drivers/lvgl/src/core/lv_obj_style_gen.c **** 
 509:Drivers/lvgl/src/core/lv_obj_style_gen.c **** void lv_obj_set_style_image_opa(lv_obj_t * obj, lv_opa_t value, lv_style_selector_t selector)
 510:Drivers/lvgl/src/core/lv_obj_style_gen.c **** {
 2832              		.loc 1 510 1 is_stmt 1 view -0
 2833              		.cfi_startproc
 2834              		@ args = 0, pretend = 0, frame = 8
 2835              		@ frame_needed = 0, uses_anonymous_args = 0
 2836              		.loc 1 510 1 is_stmt 0 view .LVU547
 2837 0000 00B5     		push	{lr}
 2838              	.LCFI186:
 2839              		.cfi_def_cfa_offset 4
 2840              		.cfi_offset 14, -4
 2841 0002 83B0     		sub	sp, sp, #12
 2842              	.LCFI187:
 2843              		.cfi_def_cfa_offset 16
 2844 0004 1346     		mov	r3, r2
 511:Drivers/lvgl/src/core/lv_obj_style_gen.c ****     lv_style_value_t v = {
 2845              		.loc 1 511 5 is_stmt 1 view .LVU548
 2846              		.loc 1 511 22 is_stmt 0 view .LVU549
 2847 0006 0191     		str	r1, [sp, #4]
 512:Drivers/lvgl/src/core/lv_obj_style_gen.c ****         .num = (int32_t)value
 513:Drivers/lvgl/src/core/lv_obj_style_gen.c ****     };
 514:Drivers/lvgl/src/core/lv_obj_style_gen.c ****     lv_obj_set_local_style_prop(obj, LV_STYLE_IMAGE_OPA, v, selector);
 2848              		.loc 1 514 5 is_stmt 1 view .LVU550
 2849 0008 0A46     		mov	r2, r1
 2850              	.LVL243:
 2851              		.loc 1 514 5 is_stmt 0 view .LVU551
 2852 000a 4421     		movs	r1, #68
 2853              	.LVL244:
 2854              		.loc 1 514 5 view .LVU552
 2855 000c FFF7FEFF 		bl	lv_obj_set_local_style_prop
 2856              	.LVL245:
 515:Drivers/lvgl/src/core/lv_obj_style_gen.c **** }
 2857              		.loc 1 515 1 view .LVU553
 2858 0010 03B0     		add	sp, sp, #12
 2859              	.LCFI188:
ARM GAS  /tmp/cckNWXvG.s 			page 58


 2860              		.cfi_def_cfa_offset 4
 2861              		@ sp needed
 2862 0012 5DF804FB 		ldr	pc, [sp], #4
 2863              		.loc 1 515 1 view .LVU554
 2864              		.cfi_endproc
 2865              	.LFE233:
 2867              		.section	.text.lv_obj_set_style_image_recolor,"ax",%progbits
 2868              		.align	1
 2869              		.global	lv_obj_set_style_image_recolor
 2870              		.syntax unified
 2871              		.thumb
 2872              		.thumb_func
 2874              	lv_obj_set_style_image_recolor:
 2875              	.LVL246:
 2876              	.LFB234:
 516:Drivers/lvgl/src/core/lv_obj_style_gen.c **** 
 517:Drivers/lvgl/src/core/lv_obj_style_gen.c **** void lv_obj_set_style_image_recolor(lv_obj_t * obj, lv_color_t value, lv_style_selector_t selector)
 518:Drivers/lvgl/src/core/lv_obj_style_gen.c **** {
 2877              		.loc 1 518 1 is_stmt 1 view -0
 2878              		.cfi_startproc
 2879              		@ args = 0, pretend = 0, frame = 16
 2880              		@ frame_needed = 0, uses_anonymous_args = 0
 2881              		.loc 1 518 1 is_stmt 0 view .LVU556
 2882 0000 00B5     		push	{lr}
 2883              	.LCFI189:
 2884              		.cfi_def_cfa_offset 4
 2885              		.cfi_offset 14, -4
 2886 0002 85B0     		sub	sp, sp, #20
 2887              	.LCFI190:
 2888              		.cfi_def_cfa_offset 24
 2889 0004 0191     		str	r1, [sp, #4]
 2890 0006 1346     		mov	r3, r2
 519:Drivers/lvgl/src/core/lv_obj_style_gen.c ****     lv_style_value_t v = {
 2891              		.loc 1 519 5 is_stmt 1 view .LVU557
 2892              		.loc 1 519 22 is_stmt 0 view .LVU558
 2893 0008 0022     		movs	r2, #0
 2894              	.LVL247:
 2895              		.loc 1 519 22 view .LVU559
 2896 000a 0392     		str	r2, [sp, #12]
 2897 000c ADF80C10 		strh	r1, [sp, #12]	@ movhi
 2898 0010 090C     		lsrs	r1, r1, #16
 2899 0012 8DF80E10 		strb	r1, [sp, #14]
 520:Drivers/lvgl/src/core/lv_obj_style_gen.c ****         .color = value
 521:Drivers/lvgl/src/core/lv_obj_style_gen.c ****     };
 522:Drivers/lvgl/src/core/lv_obj_style_gen.c ****     lv_obj_set_local_style_prop(obj, LV_STYLE_IMAGE_RECOLOR, v, selector);
 2900              		.loc 1 522 5 is_stmt 1 view .LVU560
 2901 0016 039A     		ldr	r2, [sp, #12]
 2902 0018 4521     		movs	r1, #69
 2903 001a FFF7FEFF 		bl	lv_obj_set_local_style_prop
 2904              	.LVL248:
 523:Drivers/lvgl/src/core/lv_obj_style_gen.c **** }
 2905              		.loc 1 523 1 is_stmt 0 view .LVU561
 2906 001e 05B0     		add	sp, sp, #20
 2907              	.LCFI191:
 2908              		.cfi_def_cfa_offset 4
 2909              		@ sp needed
 2910 0020 5DF804FB 		ldr	pc, [sp], #4
ARM GAS  /tmp/cckNWXvG.s 			page 59


 2911              		.cfi_endproc
 2912              	.LFE234:
 2914              		.section	.text.lv_obj_set_style_image_recolor_opa,"ax",%progbits
 2915              		.align	1
 2916              		.global	lv_obj_set_style_image_recolor_opa
 2917              		.syntax unified
 2918              		.thumb
 2919              		.thumb_func
 2921              	lv_obj_set_style_image_recolor_opa:
 2922              	.LVL249:
 2923              	.LFB235:
 524:Drivers/lvgl/src/core/lv_obj_style_gen.c **** 
 525:Drivers/lvgl/src/core/lv_obj_style_gen.c **** void lv_obj_set_style_image_recolor_opa(lv_obj_t * obj, lv_opa_t value, lv_style_selector_t selecto
 526:Drivers/lvgl/src/core/lv_obj_style_gen.c **** {
 2924              		.loc 1 526 1 is_stmt 1 view -0
 2925              		.cfi_startproc
 2926              		@ args = 0, pretend = 0, frame = 8
 2927              		@ frame_needed = 0, uses_anonymous_args = 0
 2928              		.loc 1 526 1 is_stmt 0 view .LVU563
 2929 0000 00B5     		push	{lr}
 2930              	.LCFI192:
 2931              		.cfi_def_cfa_offset 4
 2932              		.cfi_offset 14, -4
 2933 0002 83B0     		sub	sp, sp, #12
 2934              	.LCFI193:
 2935              		.cfi_def_cfa_offset 16
 2936 0004 1346     		mov	r3, r2
 527:Drivers/lvgl/src/core/lv_obj_style_gen.c ****     lv_style_value_t v = {
 2937              		.loc 1 527 5 is_stmt 1 view .LVU564
 2938              		.loc 1 527 22 is_stmt 0 view .LVU565
 2939 0006 0191     		str	r1, [sp, #4]
 528:Drivers/lvgl/src/core/lv_obj_style_gen.c ****         .num = (int32_t)value
 529:Drivers/lvgl/src/core/lv_obj_style_gen.c ****     };
 530:Drivers/lvgl/src/core/lv_obj_style_gen.c ****     lv_obj_set_local_style_prop(obj, LV_STYLE_IMAGE_RECOLOR_OPA, v, selector);
 2940              		.loc 1 530 5 is_stmt 1 view .LVU566
 2941 0008 0A46     		mov	r2, r1
 2942              	.LVL250:
 2943              		.loc 1 530 5 is_stmt 0 view .LVU567
 2944 000a 4621     		movs	r1, #70
 2945              	.LVL251:
 2946              		.loc 1 530 5 view .LVU568
 2947 000c FFF7FEFF 		bl	lv_obj_set_local_style_prop
 2948              	.LVL252:
 531:Drivers/lvgl/src/core/lv_obj_style_gen.c **** }
 2949              		.loc 1 531 1 view .LVU569
 2950 0010 03B0     		add	sp, sp, #12
 2951              	.LCFI194:
 2952              		.cfi_def_cfa_offset 4
 2953              		@ sp needed
 2954 0012 5DF804FB 		ldr	pc, [sp], #4
 2955              		.loc 1 531 1 view .LVU570
 2956              		.cfi_endproc
 2957              	.LFE235:
 2959              		.section	.text.lv_obj_set_style_line_width,"ax",%progbits
 2960              		.align	1
 2961              		.global	lv_obj_set_style_line_width
 2962              		.syntax unified
ARM GAS  /tmp/cckNWXvG.s 			page 60


 2963              		.thumb
 2964              		.thumb_func
 2966              	lv_obj_set_style_line_width:
 2967              	.LVL253:
 2968              	.LFB236:
 532:Drivers/lvgl/src/core/lv_obj_style_gen.c **** 
 533:Drivers/lvgl/src/core/lv_obj_style_gen.c **** void lv_obj_set_style_line_width(lv_obj_t * obj, int32_t value, lv_style_selector_t selector)
 534:Drivers/lvgl/src/core/lv_obj_style_gen.c **** {
 2969              		.loc 1 534 1 is_stmt 1 view -0
 2970              		.cfi_startproc
 2971              		@ args = 0, pretend = 0, frame = 8
 2972              		@ frame_needed = 0, uses_anonymous_args = 0
 2973              		.loc 1 534 1 is_stmt 0 view .LVU572
 2974 0000 00B5     		push	{lr}
 2975              	.LCFI195:
 2976              		.cfi_def_cfa_offset 4
 2977              		.cfi_offset 14, -4
 2978 0002 83B0     		sub	sp, sp, #12
 2979              	.LCFI196:
 2980              		.cfi_def_cfa_offset 16
 2981 0004 1346     		mov	r3, r2
 535:Drivers/lvgl/src/core/lv_obj_style_gen.c ****     lv_style_value_t v = {
 2982              		.loc 1 535 5 is_stmt 1 view .LVU573
 2983              		.loc 1 535 22 is_stmt 0 view .LVU574
 2984 0006 0191     		str	r1, [sp, #4]
 536:Drivers/lvgl/src/core/lv_obj_style_gen.c ****         .num = (int32_t)value
 537:Drivers/lvgl/src/core/lv_obj_style_gen.c ****     };
 538:Drivers/lvgl/src/core/lv_obj_style_gen.c ****     lv_obj_set_local_style_prop(obj, LV_STYLE_LINE_WIDTH, v, selector);
 2985              		.loc 1 538 5 is_stmt 1 view .LVU575
 2986 0008 0A46     		mov	r2, r1
 2987              	.LVL254:
 2988              		.loc 1 538 5 is_stmt 0 view .LVU576
 2989 000a 4821     		movs	r1, #72
 2990              	.LVL255:
 2991              		.loc 1 538 5 view .LVU577
 2992 000c FFF7FEFF 		bl	lv_obj_set_local_style_prop
 2993              	.LVL256:
 539:Drivers/lvgl/src/core/lv_obj_style_gen.c **** }
 2994              		.loc 1 539 1 view .LVU578
 2995 0010 03B0     		add	sp, sp, #12
 2996              	.LCFI197:
 2997              		.cfi_def_cfa_offset 4
 2998              		@ sp needed
 2999 0012 5DF804FB 		ldr	pc, [sp], #4
 3000              		.loc 1 539 1 view .LVU579
 3001              		.cfi_endproc
 3002              	.LFE236:
 3004              		.section	.text.lv_obj_set_style_line_dash_width,"ax",%progbits
 3005              		.align	1
 3006              		.global	lv_obj_set_style_line_dash_width
 3007              		.syntax unified
 3008              		.thumb
 3009              		.thumb_func
 3011              	lv_obj_set_style_line_dash_width:
 3012              	.LVL257:
 3013              	.LFB237:
 540:Drivers/lvgl/src/core/lv_obj_style_gen.c **** 
ARM GAS  /tmp/cckNWXvG.s 			page 61


 541:Drivers/lvgl/src/core/lv_obj_style_gen.c **** void lv_obj_set_style_line_dash_width(lv_obj_t * obj, int32_t value, lv_style_selector_t selector)
 542:Drivers/lvgl/src/core/lv_obj_style_gen.c **** {
 3014              		.loc 1 542 1 is_stmt 1 view -0
 3015              		.cfi_startproc
 3016              		@ args = 0, pretend = 0, frame = 8
 3017              		@ frame_needed = 0, uses_anonymous_args = 0
 3018              		.loc 1 542 1 is_stmt 0 view .LVU581
 3019 0000 00B5     		push	{lr}
 3020              	.LCFI198:
 3021              		.cfi_def_cfa_offset 4
 3022              		.cfi_offset 14, -4
 3023 0002 83B0     		sub	sp, sp, #12
 3024              	.LCFI199:
 3025              		.cfi_def_cfa_offset 16
 3026 0004 1346     		mov	r3, r2
 543:Drivers/lvgl/src/core/lv_obj_style_gen.c ****     lv_style_value_t v = {
 3027              		.loc 1 543 5 is_stmt 1 view .LVU582
 3028              		.loc 1 543 22 is_stmt 0 view .LVU583
 3029 0006 0191     		str	r1, [sp, #4]
 544:Drivers/lvgl/src/core/lv_obj_style_gen.c ****         .num = (int32_t)value
 545:Drivers/lvgl/src/core/lv_obj_style_gen.c ****     };
 546:Drivers/lvgl/src/core/lv_obj_style_gen.c ****     lv_obj_set_local_style_prop(obj, LV_STYLE_LINE_DASH_WIDTH, v, selector);
 3030              		.loc 1 546 5 is_stmt 1 view .LVU584
 3031 0008 0A46     		mov	r2, r1
 3032              	.LVL258:
 3033              		.loc 1 546 5 is_stmt 0 view .LVU585
 3034 000a 4921     		movs	r1, #73
 3035              	.LVL259:
 3036              		.loc 1 546 5 view .LVU586
 3037 000c FFF7FEFF 		bl	lv_obj_set_local_style_prop
 3038              	.LVL260:
 547:Drivers/lvgl/src/core/lv_obj_style_gen.c **** }
 3039              		.loc 1 547 1 view .LVU587
 3040 0010 03B0     		add	sp, sp, #12
 3041              	.LCFI200:
 3042              		.cfi_def_cfa_offset 4
 3043              		@ sp needed
 3044 0012 5DF804FB 		ldr	pc, [sp], #4
 3045              		.loc 1 547 1 view .LVU588
 3046              		.cfi_endproc
 3047              	.LFE237:
 3049              		.section	.text.lv_obj_set_style_line_dash_gap,"ax",%progbits
 3050              		.align	1
 3051              		.global	lv_obj_set_style_line_dash_gap
 3052              		.syntax unified
 3053              		.thumb
 3054              		.thumb_func
 3056              	lv_obj_set_style_line_dash_gap:
 3057              	.LVL261:
 3058              	.LFB238:
 548:Drivers/lvgl/src/core/lv_obj_style_gen.c **** 
 549:Drivers/lvgl/src/core/lv_obj_style_gen.c **** void lv_obj_set_style_line_dash_gap(lv_obj_t * obj, int32_t value, lv_style_selector_t selector)
 550:Drivers/lvgl/src/core/lv_obj_style_gen.c **** {
 3059              		.loc 1 550 1 is_stmt 1 view -0
 3060              		.cfi_startproc
 3061              		@ args = 0, pretend = 0, frame = 8
 3062              		@ frame_needed = 0, uses_anonymous_args = 0
ARM GAS  /tmp/cckNWXvG.s 			page 62


 3063              		.loc 1 550 1 is_stmt 0 view .LVU590
 3064 0000 00B5     		push	{lr}
 3065              	.LCFI201:
 3066              		.cfi_def_cfa_offset 4
 3067              		.cfi_offset 14, -4
 3068 0002 83B0     		sub	sp, sp, #12
 3069              	.LCFI202:
 3070              		.cfi_def_cfa_offset 16
 3071 0004 1346     		mov	r3, r2
 551:Drivers/lvgl/src/core/lv_obj_style_gen.c ****     lv_style_value_t v = {
 3072              		.loc 1 551 5 is_stmt 1 view .LVU591
 3073              		.loc 1 551 22 is_stmt 0 view .LVU592
 3074 0006 0191     		str	r1, [sp, #4]
 552:Drivers/lvgl/src/core/lv_obj_style_gen.c ****         .num = (int32_t)value
 553:Drivers/lvgl/src/core/lv_obj_style_gen.c ****     };
 554:Drivers/lvgl/src/core/lv_obj_style_gen.c ****     lv_obj_set_local_style_prop(obj, LV_STYLE_LINE_DASH_GAP, v, selector);
 3075              		.loc 1 554 5 is_stmt 1 view .LVU593
 3076 0008 0A46     		mov	r2, r1
 3077              	.LVL262:
 3078              		.loc 1 554 5 is_stmt 0 view .LVU594
 3079 000a 4A21     		movs	r1, #74
 3080              	.LVL263:
 3081              		.loc 1 554 5 view .LVU595
 3082 000c FFF7FEFF 		bl	lv_obj_set_local_style_prop
 3083              	.LVL264:
 555:Drivers/lvgl/src/core/lv_obj_style_gen.c **** }
 3084              		.loc 1 555 1 view .LVU596
 3085 0010 03B0     		add	sp, sp, #12
 3086              	.LCFI203:
 3087              		.cfi_def_cfa_offset 4
 3088              		@ sp needed
 3089 0012 5DF804FB 		ldr	pc, [sp], #4
 3090              		.loc 1 555 1 view .LVU597
 3091              		.cfi_endproc
 3092              	.LFE238:
 3094              		.section	.text.lv_obj_set_style_line_rounded,"ax",%progbits
 3095              		.align	1
 3096              		.global	lv_obj_set_style_line_rounded
 3097              		.syntax unified
 3098              		.thumb
 3099              		.thumb_func
 3101              	lv_obj_set_style_line_rounded:
 3102              	.LVL265:
 3103              	.LFB239:
 556:Drivers/lvgl/src/core/lv_obj_style_gen.c **** 
 557:Drivers/lvgl/src/core/lv_obj_style_gen.c **** void lv_obj_set_style_line_rounded(lv_obj_t * obj, bool value, lv_style_selector_t selector)
 558:Drivers/lvgl/src/core/lv_obj_style_gen.c **** {
 3104              		.loc 1 558 1 is_stmt 1 view -0
 3105              		.cfi_startproc
 3106              		@ args = 0, pretend = 0, frame = 8
 3107              		@ frame_needed = 0, uses_anonymous_args = 0
 3108              		.loc 1 558 1 is_stmt 0 view .LVU599
 3109 0000 00B5     		push	{lr}
 3110              	.LCFI204:
 3111              		.cfi_def_cfa_offset 4
 3112              		.cfi_offset 14, -4
 3113 0002 83B0     		sub	sp, sp, #12
ARM GAS  /tmp/cckNWXvG.s 			page 63


 3114              	.LCFI205:
 3115              		.cfi_def_cfa_offset 16
 3116 0004 1346     		mov	r3, r2
 559:Drivers/lvgl/src/core/lv_obj_style_gen.c ****     lv_style_value_t v = {
 3117              		.loc 1 559 5 is_stmt 1 view .LVU600
 3118              		.loc 1 559 22 is_stmt 0 view .LVU601
 3119 0006 0191     		str	r1, [sp, #4]
 560:Drivers/lvgl/src/core/lv_obj_style_gen.c ****         .num = (int32_t)value
 561:Drivers/lvgl/src/core/lv_obj_style_gen.c ****     };
 562:Drivers/lvgl/src/core/lv_obj_style_gen.c ****     lv_obj_set_local_style_prop(obj, LV_STYLE_LINE_ROUNDED, v, selector);
 3120              		.loc 1 562 5 is_stmt 1 view .LVU602
 3121 0008 0A46     		mov	r2, r1
 3122              	.LVL266:
 3123              		.loc 1 562 5 is_stmt 0 view .LVU603
 3124 000a 4B21     		movs	r1, #75
 3125              	.LVL267:
 3126              		.loc 1 562 5 view .LVU604
 3127 000c FFF7FEFF 		bl	lv_obj_set_local_style_prop
 3128              	.LVL268:
 563:Drivers/lvgl/src/core/lv_obj_style_gen.c **** }
 3129              		.loc 1 563 1 view .LVU605
 3130 0010 03B0     		add	sp, sp, #12
 3131              	.LCFI206:
 3132              		.cfi_def_cfa_offset 4
 3133              		@ sp needed
 3134 0012 5DF804FB 		ldr	pc, [sp], #4
 3135              		.loc 1 563 1 view .LVU606
 3136              		.cfi_endproc
 3137              	.LFE239:
 3139              		.section	.text.lv_obj_set_style_line_color,"ax",%progbits
 3140              		.align	1
 3141              		.global	lv_obj_set_style_line_color
 3142              		.syntax unified
 3143              		.thumb
 3144              		.thumb_func
 3146              	lv_obj_set_style_line_color:
 3147              	.LVL269:
 3148              	.LFB240:
 564:Drivers/lvgl/src/core/lv_obj_style_gen.c **** 
 565:Drivers/lvgl/src/core/lv_obj_style_gen.c **** void lv_obj_set_style_line_color(lv_obj_t * obj, lv_color_t value, lv_style_selector_t selector)
 566:Drivers/lvgl/src/core/lv_obj_style_gen.c **** {
 3149              		.loc 1 566 1 is_stmt 1 view -0
 3150              		.cfi_startproc
 3151              		@ args = 0, pretend = 0, frame = 16
 3152              		@ frame_needed = 0, uses_anonymous_args = 0
 3153              		.loc 1 566 1 is_stmt 0 view .LVU608
 3154 0000 00B5     		push	{lr}
 3155              	.LCFI207:
 3156              		.cfi_def_cfa_offset 4
 3157              		.cfi_offset 14, -4
 3158 0002 85B0     		sub	sp, sp, #20
 3159              	.LCFI208:
 3160              		.cfi_def_cfa_offset 24
 3161 0004 0191     		str	r1, [sp, #4]
 3162 0006 1346     		mov	r3, r2
 567:Drivers/lvgl/src/core/lv_obj_style_gen.c ****     lv_style_value_t v = {
 3163              		.loc 1 567 5 is_stmt 1 view .LVU609
ARM GAS  /tmp/cckNWXvG.s 			page 64


 3164              		.loc 1 567 22 is_stmt 0 view .LVU610
 3165 0008 0022     		movs	r2, #0
 3166              	.LVL270:
 3167              		.loc 1 567 22 view .LVU611
 3168 000a 0392     		str	r2, [sp, #12]
 3169 000c ADF80C10 		strh	r1, [sp, #12]	@ movhi
 3170 0010 090C     		lsrs	r1, r1, #16
 3171 0012 8DF80E10 		strb	r1, [sp, #14]
 568:Drivers/lvgl/src/core/lv_obj_style_gen.c ****         .color = value
 569:Drivers/lvgl/src/core/lv_obj_style_gen.c ****     };
 570:Drivers/lvgl/src/core/lv_obj_style_gen.c ****     lv_obj_set_local_style_prop(obj, LV_STYLE_LINE_COLOR, v, selector);
 3172              		.loc 1 570 5 is_stmt 1 view .LVU612
 3173 0016 039A     		ldr	r2, [sp, #12]
 3174 0018 4C21     		movs	r1, #76
 3175 001a FFF7FEFF 		bl	lv_obj_set_local_style_prop
 3176              	.LVL271:
 571:Drivers/lvgl/src/core/lv_obj_style_gen.c **** }
 3177              		.loc 1 571 1 is_stmt 0 view .LVU613
 3178 001e 05B0     		add	sp, sp, #20
 3179              	.LCFI209:
 3180              		.cfi_def_cfa_offset 4
 3181              		@ sp needed
 3182 0020 5DF804FB 		ldr	pc, [sp], #4
 3183              		.cfi_endproc
 3184              	.LFE240:
 3186              		.section	.text.lv_obj_set_style_line_opa,"ax",%progbits
 3187              		.align	1
 3188              		.global	lv_obj_set_style_line_opa
 3189              		.syntax unified
 3190              		.thumb
 3191              		.thumb_func
 3193              	lv_obj_set_style_line_opa:
 3194              	.LVL272:
 3195              	.LFB241:
 572:Drivers/lvgl/src/core/lv_obj_style_gen.c **** 
 573:Drivers/lvgl/src/core/lv_obj_style_gen.c **** void lv_obj_set_style_line_opa(lv_obj_t * obj, lv_opa_t value, lv_style_selector_t selector)
 574:Drivers/lvgl/src/core/lv_obj_style_gen.c **** {
 3196              		.loc 1 574 1 is_stmt 1 view -0
 3197              		.cfi_startproc
 3198              		@ args = 0, pretend = 0, frame = 8
 3199              		@ frame_needed = 0, uses_anonymous_args = 0
 3200              		.loc 1 574 1 is_stmt 0 view .LVU615
 3201 0000 00B5     		push	{lr}
 3202              	.LCFI210:
 3203              		.cfi_def_cfa_offset 4
 3204              		.cfi_offset 14, -4
 3205 0002 83B0     		sub	sp, sp, #12
 3206              	.LCFI211:
 3207              		.cfi_def_cfa_offset 16
 3208 0004 1346     		mov	r3, r2
 575:Drivers/lvgl/src/core/lv_obj_style_gen.c ****     lv_style_value_t v = {
 3209              		.loc 1 575 5 is_stmt 1 view .LVU616
 3210              		.loc 1 575 22 is_stmt 0 view .LVU617
 3211 0006 0191     		str	r1, [sp, #4]
 576:Drivers/lvgl/src/core/lv_obj_style_gen.c ****         .num = (int32_t)value
 577:Drivers/lvgl/src/core/lv_obj_style_gen.c ****     };
 578:Drivers/lvgl/src/core/lv_obj_style_gen.c ****     lv_obj_set_local_style_prop(obj, LV_STYLE_LINE_OPA, v, selector);
ARM GAS  /tmp/cckNWXvG.s 			page 65


 3212              		.loc 1 578 5 is_stmt 1 view .LVU618
 3213 0008 0A46     		mov	r2, r1
 3214              	.LVL273:
 3215              		.loc 1 578 5 is_stmt 0 view .LVU619
 3216 000a 4D21     		movs	r1, #77
 3217              	.LVL274:
 3218              		.loc 1 578 5 view .LVU620
 3219 000c FFF7FEFF 		bl	lv_obj_set_local_style_prop
 3220              	.LVL275:
 579:Drivers/lvgl/src/core/lv_obj_style_gen.c **** }
 3221              		.loc 1 579 1 view .LVU621
 3222 0010 03B0     		add	sp, sp, #12
 3223              	.LCFI212:
 3224              		.cfi_def_cfa_offset 4
 3225              		@ sp needed
 3226 0012 5DF804FB 		ldr	pc, [sp], #4
 3227              		.loc 1 579 1 view .LVU622
 3228              		.cfi_endproc
 3229              	.LFE241:
 3231              		.section	.text.lv_obj_set_style_arc_width,"ax",%progbits
 3232              		.align	1
 3233              		.global	lv_obj_set_style_arc_width
 3234              		.syntax unified
 3235              		.thumb
 3236              		.thumb_func
 3238              	lv_obj_set_style_arc_width:
 3239              	.LVL276:
 3240              	.LFB242:
 580:Drivers/lvgl/src/core/lv_obj_style_gen.c **** 
 581:Drivers/lvgl/src/core/lv_obj_style_gen.c **** void lv_obj_set_style_arc_width(lv_obj_t * obj, int32_t value, lv_style_selector_t selector)
 582:Drivers/lvgl/src/core/lv_obj_style_gen.c **** {
 3241              		.loc 1 582 1 is_stmt 1 view -0
 3242              		.cfi_startproc
 3243              		@ args = 0, pretend = 0, frame = 8
 3244              		@ frame_needed = 0, uses_anonymous_args = 0
 3245              		.loc 1 582 1 is_stmt 0 view .LVU624
 3246 0000 00B5     		push	{lr}
 3247              	.LCFI213:
 3248              		.cfi_def_cfa_offset 4
 3249              		.cfi_offset 14, -4
 3250 0002 83B0     		sub	sp, sp, #12
 3251              	.LCFI214:
 3252              		.cfi_def_cfa_offset 16
 3253 0004 1346     		mov	r3, r2
 583:Drivers/lvgl/src/core/lv_obj_style_gen.c ****     lv_style_value_t v = {
 3254              		.loc 1 583 5 is_stmt 1 view .LVU625
 3255              		.loc 1 583 22 is_stmt 0 view .LVU626
 3256 0006 0191     		str	r1, [sp, #4]
 584:Drivers/lvgl/src/core/lv_obj_style_gen.c ****         .num = (int32_t)value
 585:Drivers/lvgl/src/core/lv_obj_style_gen.c ****     };
 586:Drivers/lvgl/src/core/lv_obj_style_gen.c ****     lv_obj_set_local_style_prop(obj, LV_STYLE_ARC_WIDTH, v, selector);
 3257              		.loc 1 586 5 is_stmt 1 view .LVU627
 3258 0008 0A46     		mov	r2, r1
 3259              	.LVL277:
 3260              		.loc 1 586 5 is_stmt 0 view .LVU628
 3261 000a 5021     		movs	r1, #80
 3262              	.LVL278:
ARM GAS  /tmp/cckNWXvG.s 			page 66


 3263              		.loc 1 586 5 view .LVU629
 3264 000c FFF7FEFF 		bl	lv_obj_set_local_style_prop
 3265              	.LVL279:
 587:Drivers/lvgl/src/core/lv_obj_style_gen.c **** }
 3266              		.loc 1 587 1 view .LVU630
 3267 0010 03B0     		add	sp, sp, #12
 3268              	.LCFI215:
 3269              		.cfi_def_cfa_offset 4
 3270              		@ sp needed
 3271 0012 5DF804FB 		ldr	pc, [sp], #4
 3272              		.loc 1 587 1 view .LVU631
 3273              		.cfi_endproc
 3274              	.LFE242:
 3276              		.section	.text.lv_obj_set_style_arc_rounded,"ax",%progbits
 3277              		.align	1
 3278              		.global	lv_obj_set_style_arc_rounded
 3279              		.syntax unified
 3280              		.thumb
 3281              		.thumb_func
 3283              	lv_obj_set_style_arc_rounded:
 3284              	.LVL280:
 3285              	.LFB243:
 588:Drivers/lvgl/src/core/lv_obj_style_gen.c **** 
 589:Drivers/lvgl/src/core/lv_obj_style_gen.c **** void lv_obj_set_style_arc_rounded(lv_obj_t * obj, bool value, lv_style_selector_t selector)
 590:Drivers/lvgl/src/core/lv_obj_style_gen.c **** {
 3286              		.loc 1 590 1 is_stmt 1 view -0
 3287              		.cfi_startproc
 3288              		@ args = 0, pretend = 0, frame = 8
 3289              		@ frame_needed = 0, uses_anonymous_args = 0
 3290              		.loc 1 590 1 is_stmt 0 view .LVU633
 3291 0000 00B5     		push	{lr}
 3292              	.LCFI216:
 3293              		.cfi_def_cfa_offset 4
 3294              		.cfi_offset 14, -4
 3295 0002 83B0     		sub	sp, sp, #12
 3296              	.LCFI217:
 3297              		.cfi_def_cfa_offset 16
 3298 0004 1346     		mov	r3, r2
 591:Drivers/lvgl/src/core/lv_obj_style_gen.c ****     lv_style_value_t v = {
 3299              		.loc 1 591 5 is_stmt 1 view .LVU634
 3300              		.loc 1 591 22 is_stmt 0 view .LVU635
 3301 0006 0191     		str	r1, [sp, #4]
 592:Drivers/lvgl/src/core/lv_obj_style_gen.c ****         .num = (int32_t)value
 593:Drivers/lvgl/src/core/lv_obj_style_gen.c ****     };
 594:Drivers/lvgl/src/core/lv_obj_style_gen.c ****     lv_obj_set_local_style_prop(obj, LV_STYLE_ARC_ROUNDED, v, selector);
 3302              		.loc 1 594 5 is_stmt 1 view .LVU636
 3303 0008 0A46     		mov	r2, r1
 3304              	.LVL281:
 3305              		.loc 1 594 5 is_stmt 0 view .LVU637
 3306 000a 5121     		movs	r1, #81
 3307              	.LVL282:
 3308              		.loc 1 594 5 view .LVU638
 3309 000c FFF7FEFF 		bl	lv_obj_set_local_style_prop
 3310              	.LVL283:
 595:Drivers/lvgl/src/core/lv_obj_style_gen.c **** }
 3311              		.loc 1 595 1 view .LVU639
 3312 0010 03B0     		add	sp, sp, #12
ARM GAS  /tmp/cckNWXvG.s 			page 67


 3313              	.LCFI218:
 3314              		.cfi_def_cfa_offset 4
 3315              		@ sp needed
 3316 0012 5DF804FB 		ldr	pc, [sp], #4
 3317              		.loc 1 595 1 view .LVU640
 3318              		.cfi_endproc
 3319              	.LFE243:
 3321              		.section	.text.lv_obj_set_style_arc_color,"ax",%progbits
 3322              		.align	1
 3323              		.global	lv_obj_set_style_arc_color
 3324              		.syntax unified
 3325              		.thumb
 3326              		.thumb_func
 3328              	lv_obj_set_style_arc_color:
 3329              	.LVL284:
 3330              	.LFB244:
 596:Drivers/lvgl/src/core/lv_obj_style_gen.c **** 
 597:Drivers/lvgl/src/core/lv_obj_style_gen.c **** void lv_obj_set_style_arc_color(lv_obj_t * obj, lv_color_t value, lv_style_selector_t selector)
 598:Drivers/lvgl/src/core/lv_obj_style_gen.c **** {
 3331              		.loc 1 598 1 is_stmt 1 view -0
 3332              		.cfi_startproc
 3333              		@ args = 0, pretend = 0, frame = 16
 3334              		@ frame_needed = 0, uses_anonymous_args = 0
 3335              		.loc 1 598 1 is_stmt 0 view .LVU642
 3336 0000 00B5     		push	{lr}
 3337              	.LCFI219:
 3338              		.cfi_def_cfa_offset 4
 3339              		.cfi_offset 14, -4
 3340 0002 85B0     		sub	sp, sp, #20
 3341              	.LCFI220:
 3342              		.cfi_def_cfa_offset 24
 3343 0004 0191     		str	r1, [sp, #4]
 3344 0006 1346     		mov	r3, r2
 599:Drivers/lvgl/src/core/lv_obj_style_gen.c ****     lv_style_value_t v = {
 3345              		.loc 1 599 5 is_stmt 1 view .LVU643
 3346              		.loc 1 599 22 is_stmt 0 view .LVU644
 3347 0008 0022     		movs	r2, #0
 3348              	.LVL285:
 3349              		.loc 1 599 22 view .LVU645
 3350 000a 0392     		str	r2, [sp, #12]
 3351 000c ADF80C10 		strh	r1, [sp, #12]	@ movhi
 3352 0010 090C     		lsrs	r1, r1, #16
 3353 0012 8DF80E10 		strb	r1, [sp, #14]
 600:Drivers/lvgl/src/core/lv_obj_style_gen.c ****         .color = value
 601:Drivers/lvgl/src/core/lv_obj_style_gen.c ****     };
 602:Drivers/lvgl/src/core/lv_obj_style_gen.c ****     lv_obj_set_local_style_prop(obj, LV_STYLE_ARC_COLOR, v, selector);
 3354              		.loc 1 602 5 is_stmt 1 view .LVU646
 3355 0016 039A     		ldr	r2, [sp, #12]
 3356 0018 5221     		movs	r1, #82
 3357 001a FFF7FEFF 		bl	lv_obj_set_local_style_prop
 3358              	.LVL286:
 603:Drivers/lvgl/src/core/lv_obj_style_gen.c **** }
 3359              		.loc 1 603 1 is_stmt 0 view .LVU647
 3360 001e 05B0     		add	sp, sp, #20
 3361              	.LCFI221:
 3362              		.cfi_def_cfa_offset 4
 3363              		@ sp needed
ARM GAS  /tmp/cckNWXvG.s 			page 68


 3364 0020 5DF804FB 		ldr	pc, [sp], #4
 3365              		.cfi_endproc
 3366              	.LFE244:
 3368              		.section	.text.lv_obj_set_style_arc_opa,"ax",%progbits
 3369              		.align	1
 3370              		.global	lv_obj_set_style_arc_opa
 3371              		.syntax unified
 3372              		.thumb
 3373              		.thumb_func
 3375              	lv_obj_set_style_arc_opa:
 3376              	.LVL287:
 3377              	.LFB245:
 604:Drivers/lvgl/src/core/lv_obj_style_gen.c **** 
 605:Drivers/lvgl/src/core/lv_obj_style_gen.c **** void lv_obj_set_style_arc_opa(lv_obj_t * obj, lv_opa_t value, lv_style_selector_t selector)
 606:Drivers/lvgl/src/core/lv_obj_style_gen.c **** {
 3378              		.loc 1 606 1 is_stmt 1 view -0
 3379              		.cfi_startproc
 3380              		@ args = 0, pretend = 0, frame = 8
 3381              		@ frame_needed = 0, uses_anonymous_args = 0
 3382              		.loc 1 606 1 is_stmt 0 view .LVU649
 3383 0000 00B5     		push	{lr}
 3384              	.LCFI222:
 3385              		.cfi_def_cfa_offset 4
 3386              		.cfi_offset 14, -4
 3387 0002 83B0     		sub	sp, sp, #12
 3388              	.LCFI223:
 3389              		.cfi_def_cfa_offset 16
 3390 0004 1346     		mov	r3, r2
 607:Drivers/lvgl/src/core/lv_obj_style_gen.c ****     lv_style_value_t v = {
 3391              		.loc 1 607 5 is_stmt 1 view .LVU650
 3392              		.loc 1 607 22 is_stmt 0 view .LVU651
 3393 0006 0191     		str	r1, [sp, #4]
 608:Drivers/lvgl/src/core/lv_obj_style_gen.c ****         .num = (int32_t)value
 609:Drivers/lvgl/src/core/lv_obj_style_gen.c ****     };
 610:Drivers/lvgl/src/core/lv_obj_style_gen.c ****     lv_obj_set_local_style_prop(obj, LV_STYLE_ARC_OPA, v, selector);
 3394              		.loc 1 610 5 is_stmt 1 view .LVU652
 3395 0008 0A46     		mov	r2, r1
 3396              	.LVL288:
 3397              		.loc 1 610 5 is_stmt 0 view .LVU653
 3398 000a 5321     		movs	r1, #83
 3399              	.LVL289:
 3400              		.loc 1 610 5 view .LVU654
 3401 000c FFF7FEFF 		bl	lv_obj_set_local_style_prop
 3402              	.LVL290:
 611:Drivers/lvgl/src/core/lv_obj_style_gen.c **** }
 3403              		.loc 1 611 1 view .LVU655
 3404 0010 03B0     		add	sp, sp, #12
 3405              	.LCFI224:
 3406              		.cfi_def_cfa_offset 4
 3407              		@ sp needed
 3408 0012 5DF804FB 		ldr	pc, [sp], #4
 3409              		.loc 1 611 1 view .LVU656
 3410              		.cfi_endproc
 3411              	.LFE245:
 3413              		.section	.text.lv_obj_set_style_arc_image_src,"ax",%progbits
 3414              		.align	1
 3415              		.global	lv_obj_set_style_arc_image_src
ARM GAS  /tmp/cckNWXvG.s 			page 69


 3416              		.syntax unified
 3417              		.thumb
 3418              		.thumb_func
 3420              	lv_obj_set_style_arc_image_src:
 3421              	.LVL291:
 3422              	.LFB246:
 612:Drivers/lvgl/src/core/lv_obj_style_gen.c **** 
 613:Drivers/lvgl/src/core/lv_obj_style_gen.c **** void lv_obj_set_style_arc_image_src(lv_obj_t * obj, const void * value, lv_style_selector_t selecto
 614:Drivers/lvgl/src/core/lv_obj_style_gen.c **** {
 3423              		.loc 1 614 1 is_stmt 1 view -0
 3424              		.cfi_startproc
 3425              		@ args = 0, pretend = 0, frame = 8
 3426              		@ frame_needed = 0, uses_anonymous_args = 0
 3427              		.loc 1 614 1 is_stmt 0 view .LVU658
 3428 0000 00B5     		push	{lr}
 3429              	.LCFI225:
 3430              		.cfi_def_cfa_offset 4
 3431              		.cfi_offset 14, -4
 3432 0002 83B0     		sub	sp, sp, #12
 3433              	.LCFI226:
 3434              		.cfi_def_cfa_offset 16
 3435 0004 1346     		mov	r3, r2
 615:Drivers/lvgl/src/core/lv_obj_style_gen.c ****     lv_style_value_t v = {
 3436              		.loc 1 615 5 is_stmt 1 view .LVU659
 3437              		.loc 1 615 22 is_stmt 0 view .LVU660
 3438 0006 0191     		str	r1, [sp, #4]
 616:Drivers/lvgl/src/core/lv_obj_style_gen.c ****         .ptr = value
 617:Drivers/lvgl/src/core/lv_obj_style_gen.c ****     };
 618:Drivers/lvgl/src/core/lv_obj_style_gen.c ****     lv_obj_set_local_style_prop(obj, LV_STYLE_ARC_IMAGE_SRC, v, selector);
 3439              		.loc 1 618 5 is_stmt 1 view .LVU661
 3440 0008 0A46     		mov	r2, r1
 3441              	.LVL292:
 3442              		.loc 1 618 5 is_stmt 0 view .LVU662
 3443 000a 5421     		movs	r1, #84
 3444              	.LVL293:
 3445              		.loc 1 618 5 view .LVU663
 3446 000c FFF7FEFF 		bl	lv_obj_set_local_style_prop
 3447              	.LVL294:
 619:Drivers/lvgl/src/core/lv_obj_style_gen.c **** }
 3448              		.loc 1 619 1 view .LVU664
 3449 0010 03B0     		add	sp, sp, #12
 3450              	.LCFI227:
 3451              		.cfi_def_cfa_offset 4
 3452              		@ sp needed
 3453 0012 5DF804FB 		ldr	pc, [sp], #4
 3454              		.loc 1 619 1 view .LVU665
 3455              		.cfi_endproc
 3456              	.LFE246:
 3458              		.section	.text.lv_obj_set_style_text_color,"ax",%progbits
 3459              		.align	1
 3460              		.global	lv_obj_set_style_text_color
 3461              		.syntax unified
 3462              		.thumb
 3463              		.thumb_func
 3465              	lv_obj_set_style_text_color:
 3466              	.LVL295:
 3467              	.LFB247:
ARM GAS  /tmp/cckNWXvG.s 			page 70


 620:Drivers/lvgl/src/core/lv_obj_style_gen.c **** 
 621:Drivers/lvgl/src/core/lv_obj_style_gen.c **** void lv_obj_set_style_text_color(lv_obj_t * obj, lv_color_t value, lv_style_selector_t selector)
 622:Drivers/lvgl/src/core/lv_obj_style_gen.c **** {
 3468              		.loc 1 622 1 is_stmt 1 view -0
 3469              		.cfi_startproc
 3470              		@ args = 0, pretend = 0, frame = 16
 3471              		@ frame_needed = 0, uses_anonymous_args = 0
 3472              		.loc 1 622 1 is_stmt 0 view .LVU667
 3473 0000 00B5     		push	{lr}
 3474              	.LCFI228:
 3475              		.cfi_def_cfa_offset 4
 3476              		.cfi_offset 14, -4
 3477 0002 85B0     		sub	sp, sp, #20
 3478              	.LCFI229:
 3479              		.cfi_def_cfa_offset 24
 3480 0004 0191     		str	r1, [sp, #4]
 3481 0006 1346     		mov	r3, r2
 623:Drivers/lvgl/src/core/lv_obj_style_gen.c ****     lv_style_value_t v = {
 3482              		.loc 1 623 5 is_stmt 1 view .LVU668
 3483              		.loc 1 623 22 is_stmt 0 view .LVU669
 3484 0008 0022     		movs	r2, #0
 3485              	.LVL296:
 3486              		.loc 1 623 22 view .LVU670
 3487 000a 0392     		str	r2, [sp, #12]
 3488 000c ADF80C10 		strh	r1, [sp, #12]	@ movhi
 3489 0010 090C     		lsrs	r1, r1, #16
 3490 0012 8DF80E10 		strb	r1, [sp, #14]
 624:Drivers/lvgl/src/core/lv_obj_style_gen.c ****         .color = value
 625:Drivers/lvgl/src/core/lv_obj_style_gen.c ****     };
 626:Drivers/lvgl/src/core/lv_obj_style_gen.c ****     lv_obj_set_local_style_prop(obj, LV_STYLE_TEXT_COLOR, v, selector);
 3491              		.loc 1 626 5 is_stmt 1 view .LVU671
 3492 0016 039A     		ldr	r2, [sp, #12]
 3493 0018 5821     		movs	r1, #88
 3494 001a FFF7FEFF 		bl	lv_obj_set_local_style_prop
 3495              	.LVL297:
 627:Drivers/lvgl/src/core/lv_obj_style_gen.c **** }
 3496              		.loc 1 627 1 is_stmt 0 view .LVU672
 3497 001e 05B0     		add	sp, sp, #20
 3498              	.LCFI230:
 3499              		.cfi_def_cfa_offset 4
 3500              		@ sp needed
 3501 0020 5DF804FB 		ldr	pc, [sp], #4
 3502              		.cfi_endproc
 3503              	.LFE247:
 3505              		.section	.text.lv_obj_set_style_text_opa,"ax",%progbits
 3506              		.align	1
 3507              		.global	lv_obj_set_style_text_opa
 3508              		.syntax unified
 3509              		.thumb
 3510              		.thumb_func
 3512              	lv_obj_set_style_text_opa:
 3513              	.LVL298:
 3514              	.LFB248:
 628:Drivers/lvgl/src/core/lv_obj_style_gen.c **** 
 629:Drivers/lvgl/src/core/lv_obj_style_gen.c **** void lv_obj_set_style_text_opa(lv_obj_t * obj, lv_opa_t value, lv_style_selector_t selector)
 630:Drivers/lvgl/src/core/lv_obj_style_gen.c **** {
 3515              		.loc 1 630 1 is_stmt 1 view -0
ARM GAS  /tmp/cckNWXvG.s 			page 71


 3516              		.cfi_startproc
 3517              		@ args = 0, pretend = 0, frame = 8
 3518              		@ frame_needed = 0, uses_anonymous_args = 0
 3519              		.loc 1 630 1 is_stmt 0 view .LVU674
 3520 0000 00B5     		push	{lr}
 3521              	.LCFI231:
 3522              		.cfi_def_cfa_offset 4
 3523              		.cfi_offset 14, -4
 3524 0002 83B0     		sub	sp, sp, #12
 3525              	.LCFI232:
 3526              		.cfi_def_cfa_offset 16
 3527 0004 1346     		mov	r3, r2
 631:Drivers/lvgl/src/core/lv_obj_style_gen.c ****     lv_style_value_t v = {
 3528              		.loc 1 631 5 is_stmt 1 view .LVU675
 3529              		.loc 1 631 22 is_stmt 0 view .LVU676
 3530 0006 0191     		str	r1, [sp, #4]
 632:Drivers/lvgl/src/core/lv_obj_style_gen.c ****         .num = (int32_t)value
 633:Drivers/lvgl/src/core/lv_obj_style_gen.c ****     };
 634:Drivers/lvgl/src/core/lv_obj_style_gen.c ****     lv_obj_set_local_style_prop(obj, LV_STYLE_TEXT_OPA, v, selector);
 3531              		.loc 1 634 5 is_stmt 1 view .LVU677
 3532 0008 0A46     		mov	r2, r1
 3533              	.LVL299:
 3534              		.loc 1 634 5 is_stmt 0 view .LVU678
 3535 000a 5921     		movs	r1, #89
 3536              	.LVL300:
 3537              		.loc 1 634 5 view .LVU679
 3538 000c FFF7FEFF 		bl	lv_obj_set_local_style_prop
 3539              	.LVL301:
 635:Drivers/lvgl/src/core/lv_obj_style_gen.c **** }
 3540              		.loc 1 635 1 view .LVU680
 3541 0010 03B0     		add	sp, sp, #12
 3542              	.LCFI233:
 3543              		.cfi_def_cfa_offset 4
 3544              		@ sp needed
 3545 0012 5DF804FB 		ldr	pc, [sp], #4
 3546              		.loc 1 635 1 view .LVU681
 3547              		.cfi_endproc
 3548              	.LFE248:
 3550              		.section	.text.lv_obj_set_style_text_font,"ax",%progbits
 3551              		.align	1
 3552              		.global	lv_obj_set_style_text_font
 3553              		.syntax unified
 3554              		.thumb
 3555              		.thumb_func
 3557              	lv_obj_set_style_text_font:
 3558              	.LVL302:
 3559              	.LFB249:
 636:Drivers/lvgl/src/core/lv_obj_style_gen.c **** 
 637:Drivers/lvgl/src/core/lv_obj_style_gen.c **** void lv_obj_set_style_text_font(lv_obj_t * obj, const lv_font_t * value, lv_style_selector_t select
 638:Drivers/lvgl/src/core/lv_obj_style_gen.c **** {
 3560              		.loc 1 638 1 is_stmt 1 view -0
 3561              		.cfi_startproc
 3562              		@ args = 0, pretend = 0, frame = 8
 3563              		@ frame_needed = 0, uses_anonymous_args = 0
 3564              		.loc 1 638 1 is_stmt 0 view .LVU683
 3565 0000 00B5     		push	{lr}
 3566              	.LCFI234:
ARM GAS  /tmp/cckNWXvG.s 			page 72


 3567              		.cfi_def_cfa_offset 4
 3568              		.cfi_offset 14, -4
 3569 0002 83B0     		sub	sp, sp, #12
 3570              	.LCFI235:
 3571              		.cfi_def_cfa_offset 16
 3572 0004 1346     		mov	r3, r2
 639:Drivers/lvgl/src/core/lv_obj_style_gen.c ****     lv_style_value_t v = {
 3573              		.loc 1 639 5 is_stmt 1 view .LVU684
 3574              		.loc 1 639 22 is_stmt 0 view .LVU685
 3575 0006 0191     		str	r1, [sp, #4]
 640:Drivers/lvgl/src/core/lv_obj_style_gen.c ****         .ptr = value
 641:Drivers/lvgl/src/core/lv_obj_style_gen.c ****     };
 642:Drivers/lvgl/src/core/lv_obj_style_gen.c ****     lv_obj_set_local_style_prop(obj, LV_STYLE_TEXT_FONT, v, selector);
 3576              		.loc 1 642 5 is_stmt 1 view .LVU686
 3577 0008 0A46     		mov	r2, r1
 3578              	.LVL303:
 3579              		.loc 1 642 5 is_stmt 0 view .LVU687
 3580 000a 5A21     		movs	r1, #90
 3581              	.LVL304:
 3582              		.loc 1 642 5 view .LVU688
 3583 000c FFF7FEFF 		bl	lv_obj_set_local_style_prop
 3584              	.LVL305:
 643:Drivers/lvgl/src/core/lv_obj_style_gen.c **** }
 3585              		.loc 1 643 1 view .LVU689
 3586 0010 03B0     		add	sp, sp, #12
 3587              	.LCFI236:
 3588              		.cfi_def_cfa_offset 4
 3589              		@ sp needed
 3590 0012 5DF804FB 		ldr	pc, [sp], #4
 3591              		.loc 1 643 1 view .LVU690
 3592              		.cfi_endproc
 3593              	.LFE249:
 3595              		.section	.text.lv_obj_set_style_text_letter_space,"ax",%progbits
 3596              		.align	1
 3597              		.global	lv_obj_set_style_text_letter_space
 3598              		.syntax unified
 3599              		.thumb
 3600              		.thumb_func
 3602              	lv_obj_set_style_text_letter_space:
 3603              	.LVL306:
 3604              	.LFB250:
 644:Drivers/lvgl/src/core/lv_obj_style_gen.c **** 
 645:Drivers/lvgl/src/core/lv_obj_style_gen.c **** void lv_obj_set_style_text_letter_space(lv_obj_t * obj, int32_t value, lv_style_selector_t selector
 646:Drivers/lvgl/src/core/lv_obj_style_gen.c **** {
 3605              		.loc 1 646 1 is_stmt 1 view -0
 3606              		.cfi_startproc
 3607              		@ args = 0, pretend = 0, frame = 8
 3608              		@ frame_needed = 0, uses_anonymous_args = 0
 3609              		.loc 1 646 1 is_stmt 0 view .LVU692
 3610 0000 00B5     		push	{lr}
 3611              	.LCFI237:
 3612              		.cfi_def_cfa_offset 4
 3613              		.cfi_offset 14, -4
 3614 0002 83B0     		sub	sp, sp, #12
 3615              	.LCFI238:
 3616              		.cfi_def_cfa_offset 16
 3617 0004 1346     		mov	r3, r2
ARM GAS  /tmp/cckNWXvG.s 			page 73


 647:Drivers/lvgl/src/core/lv_obj_style_gen.c ****     lv_style_value_t v = {
 3618              		.loc 1 647 5 is_stmt 1 view .LVU693
 3619              		.loc 1 647 22 is_stmt 0 view .LVU694
 3620 0006 0191     		str	r1, [sp, #4]
 648:Drivers/lvgl/src/core/lv_obj_style_gen.c ****         .num = (int32_t)value
 649:Drivers/lvgl/src/core/lv_obj_style_gen.c ****     };
 650:Drivers/lvgl/src/core/lv_obj_style_gen.c ****     lv_obj_set_local_style_prop(obj, LV_STYLE_TEXT_LETTER_SPACE, v, selector);
 3621              		.loc 1 650 5 is_stmt 1 view .LVU695
 3622 0008 0A46     		mov	r2, r1
 3623              	.LVL307:
 3624              		.loc 1 650 5 is_stmt 0 view .LVU696
 3625 000a 5B21     		movs	r1, #91
 3626              	.LVL308:
 3627              		.loc 1 650 5 view .LVU697
 3628 000c FFF7FEFF 		bl	lv_obj_set_local_style_prop
 3629              	.LVL309:
 651:Drivers/lvgl/src/core/lv_obj_style_gen.c **** }
 3630              		.loc 1 651 1 view .LVU698
 3631 0010 03B0     		add	sp, sp, #12
 3632              	.LCFI239:
 3633              		.cfi_def_cfa_offset 4
 3634              		@ sp needed
 3635 0012 5DF804FB 		ldr	pc, [sp], #4
 3636              		.loc 1 651 1 view .LVU699
 3637              		.cfi_endproc
 3638              	.LFE250:
 3640              		.section	.text.lv_obj_set_style_text_line_space,"ax",%progbits
 3641              		.align	1
 3642              		.global	lv_obj_set_style_text_line_space
 3643              		.syntax unified
 3644              		.thumb
 3645              		.thumb_func
 3647              	lv_obj_set_style_text_line_space:
 3648              	.LVL310:
 3649              	.LFB251:
 652:Drivers/lvgl/src/core/lv_obj_style_gen.c **** 
 653:Drivers/lvgl/src/core/lv_obj_style_gen.c **** void lv_obj_set_style_text_line_space(lv_obj_t * obj, int32_t value, lv_style_selector_t selector)
 654:Drivers/lvgl/src/core/lv_obj_style_gen.c **** {
 3650              		.loc 1 654 1 is_stmt 1 view -0
 3651              		.cfi_startproc
 3652              		@ args = 0, pretend = 0, frame = 8
 3653              		@ frame_needed = 0, uses_anonymous_args = 0
 3654              		.loc 1 654 1 is_stmt 0 view .LVU701
 3655 0000 00B5     		push	{lr}
 3656              	.LCFI240:
 3657              		.cfi_def_cfa_offset 4
 3658              		.cfi_offset 14, -4
 3659 0002 83B0     		sub	sp, sp, #12
 3660              	.LCFI241:
 3661              		.cfi_def_cfa_offset 16
 3662 0004 1346     		mov	r3, r2
 655:Drivers/lvgl/src/core/lv_obj_style_gen.c ****     lv_style_value_t v = {
 3663              		.loc 1 655 5 is_stmt 1 view .LVU702
 3664              		.loc 1 655 22 is_stmt 0 view .LVU703
 3665 0006 0191     		str	r1, [sp, #4]
 656:Drivers/lvgl/src/core/lv_obj_style_gen.c ****         .num = (int32_t)value
 657:Drivers/lvgl/src/core/lv_obj_style_gen.c ****     };
ARM GAS  /tmp/cckNWXvG.s 			page 74


 658:Drivers/lvgl/src/core/lv_obj_style_gen.c ****     lv_obj_set_local_style_prop(obj, LV_STYLE_TEXT_LINE_SPACE, v, selector);
 3666              		.loc 1 658 5 is_stmt 1 view .LVU704
 3667 0008 0A46     		mov	r2, r1
 3668              	.LVL311:
 3669              		.loc 1 658 5 is_stmt 0 view .LVU705
 3670 000a 5C21     		movs	r1, #92
 3671              	.LVL312:
 3672              		.loc 1 658 5 view .LVU706
 3673 000c FFF7FEFF 		bl	lv_obj_set_local_style_prop
 3674              	.LVL313:
 659:Drivers/lvgl/src/core/lv_obj_style_gen.c **** }
 3675              		.loc 1 659 1 view .LVU707
 3676 0010 03B0     		add	sp, sp, #12
 3677              	.LCFI242:
 3678              		.cfi_def_cfa_offset 4
 3679              		@ sp needed
 3680 0012 5DF804FB 		ldr	pc, [sp], #4
 3681              		.loc 1 659 1 view .LVU708
 3682              		.cfi_endproc
 3683              	.LFE251:
 3685              		.section	.text.lv_obj_set_style_text_decor,"ax",%progbits
 3686              		.align	1
 3687              		.global	lv_obj_set_style_text_decor
 3688              		.syntax unified
 3689              		.thumb
 3690              		.thumb_func
 3692              	lv_obj_set_style_text_decor:
 3693              	.LVL314:
 3694              	.LFB252:
 660:Drivers/lvgl/src/core/lv_obj_style_gen.c **** 
 661:Drivers/lvgl/src/core/lv_obj_style_gen.c **** void lv_obj_set_style_text_decor(lv_obj_t * obj, lv_text_decor_t value, lv_style_selector_t selecto
 662:Drivers/lvgl/src/core/lv_obj_style_gen.c **** {
 3695              		.loc 1 662 1 is_stmt 1 view -0
 3696              		.cfi_startproc
 3697              		@ args = 0, pretend = 0, frame = 8
 3698              		@ frame_needed = 0, uses_anonymous_args = 0
 3699              		.loc 1 662 1 is_stmt 0 view .LVU710
 3700 0000 00B5     		push	{lr}
 3701              	.LCFI243:
 3702              		.cfi_def_cfa_offset 4
 3703              		.cfi_offset 14, -4
 3704 0002 83B0     		sub	sp, sp, #12
 3705              	.LCFI244:
 3706              		.cfi_def_cfa_offset 16
 3707 0004 1346     		mov	r3, r2
 663:Drivers/lvgl/src/core/lv_obj_style_gen.c ****     lv_style_value_t v = {
 3708              		.loc 1 663 5 is_stmt 1 view .LVU711
 3709              		.loc 1 663 22 is_stmt 0 view .LVU712
 3710 0006 0191     		str	r1, [sp, #4]
 664:Drivers/lvgl/src/core/lv_obj_style_gen.c ****         .num = (int32_t)value
 665:Drivers/lvgl/src/core/lv_obj_style_gen.c ****     };
 666:Drivers/lvgl/src/core/lv_obj_style_gen.c ****     lv_obj_set_local_style_prop(obj, LV_STYLE_TEXT_DECOR, v, selector);
 3711              		.loc 1 666 5 is_stmt 1 view .LVU713
 3712 0008 0A46     		mov	r2, r1
 3713              	.LVL315:
 3714              		.loc 1 666 5 is_stmt 0 view .LVU714
 3715 000a 5D21     		movs	r1, #93
ARM GAS  /tmp/cckNWXvG.s 			page 75


 3716              	.LVL316:
 3717              		.loc 1 666 5 view .LVU715
 3718 000c FFF7FEFF 		bl	lv_obj_set_local_style_prop
 3719              	.LVL317:
 667:Drivers/lvgl/src/core/lv_obj_style_gen.c **** }
 3720              		.loc 1 667 1 view .LVU716
 3721 0010 03B0     		add	sp, sp, #12
 3722              	.LCFI245:
 3723              		.cfi_def_cfa_offset 4
 3724              		@ sp needed
 3725 0012 5DF804FB 		ldr	pc, [sp], #4
 3726              		.loc 1 667 1 view .LVU717
 3727              		.cfi_endproc
 3728              	.LFE252:
 3730              		.section	.text.lv_obj_set_style_text_align,"ax",%progbits
 3731              		.align	1
 3732              		.global	lv_obj_set_style_text_align
 3733              		.syntax unified
 3734              		.thumb
 3735              		.thumb_func
 3737              	lv_obj_set_style_text_align:
 3738              	.LVL318:
 3739              	.LFB253:
 668:Drivers/lvgl/src/core/lv_obj_style_gen.c **** 
 669:Drivers/lvgl/src/core/lv_obj_style_gen.c **** void lv_obj_set_style_text_align(lv_obj_t * obj, lv_text_align_t value, lv_style_selector_t selecto
 670:Drivers/lvgl/src/core/lv_obj_style_gen.c **** {
 3740              		.loc 1 670 1 is_stmt 1 view -0
 3741              		.cfi_startproc
 3742              		@ args = 0, pretend = 0, frame = 8
 3743              		@ frame_needed = 0, uses_anonymous_args = 0
 3744              		.loc 1 670 1 is_stmt 0 view .LVU719
 3745 0000 00B5     		push	{lr}
 3746              	.LCFI246:
 3747              		.cfi_def_cfa_offset 4
 3748              		.cfi_offset 14, -4
 3749 0002 83B0     		sub	sp, sp, #12
 3750              	.LCFI247:
 3751              		.cfi_def_cfa_offset 16
 3752 0004 1346     		mov	r3, r2
 671:Drivers/lvgl/src/core/lv_obj_style_gen.c ****     lv_style_value_t v = {
 3753              		.loc 1 671 5 is_stmt 1 view .LVU720
 3754              		.loc 1 671 22 is_stmt 0 view .LVU721
 3755 0006 0191     		str	r1, [sp, #4]
 672:Drivers/lvgl/src/core/lv_obj_style_gen.c ****         .num = (int32_t)value
 673:Drivers/lvgl/src/core/lv_obj_style_gen.c ****     };
 674:Drivers/lvgl/src/core/lv_obj_style_gen.c ****     lv_obj_set_local_style_prop(obj, LV_STYLE_TEXT_ALIGN, v, selector);
 3756              		.loc 1 674 5 is_stmt 1 view .LVU722
 3757 0008 0A46     		mov	r2, r1
 3758              	.LVL319:
 3759              		.loc 1 674 5 is_stmt 0 view .LVU723
 3760 000a 5E21     		movs	r1, #94
 3761              	.LVL320:
 3762              		.loc 1 674 5 view .LVU724
 3763 000c FFF7FEFF 		bl	lv_obj_set_local_style_prop
 3764              	.LVL321:
 675:Drivers/lvgl/src/core/lv_obj_style_gen.c **** }
 3765              		.loc 1 675 1 view .LVU725
ARM GAS  /tmp/cckNWXvG.s 			page 76


 3766 0010 03B0     		add	sp, sp, #12
 3767              	.LCFI248:
 3768              		.cfi_def_cfa_offset 4
 3769              		@ sp needed
 3770 0012 5DF804FB 		ldr	pc, [sp], #4
 3771              		.loc 1 675 1 view .LVU726
 3772              		.cfi_endproc
 3773              	.LFE253:
 3775              		.section	.text.lv_obj_set_style_text_outline_stroke_color,"ax",%progbits
 3776              		.align	1
 3777              		.global	lv_obj_set_style_text_outline_stroke_color
 3778              		.syntax unified
 3779              		.thumb
 3780              		.thumb_func
 3782              	lv_obj_set_style_text_outline_stroke_color:
 3783              	.LVL322:
 3784              	.LFB254:
 676:Drivers/lvgl/src/core/lv_obj_style_gen.c **** 
 677:Drivers/lvgl/src/core/lv_obj_style_gen.c **** void lv_obj_set_style_text_outline_stroke_color(lv_obj_t * obj, lv_color_t value, lv_style_selector
 678:Drivers/lvgl/src/core/lv_obj_style_gen.c **** {
 3785              		.loc 1 678 1 is_stmt 1 view -0
 3786              		.cfi_startproc
 3787              		@ args = 0, pretend = 0, frame = 16
 3788              		@ frame_needed = 0, uses_anonymous_args = 0
 3789              		.loc 1 678 1 is_stmt 0 view .LVU728
 3790 0000 00B5     		push	{lr}
 3791              	.LCFI249:
 3792              		.cfi_def_cfa_offset 4
 3793              		.cfi_offset 14, -4
 3794 0002 85B0     		sub	sp, sp, #20
 3795              	.LCFI250:
 3796              		.cfi_def_cfa_offset 24
 3797 0004 0191     		str	r1, [sp, #4]
 3798 0006 1346     		mov	r3, r2
 679:Drivers/lvgl/src/core/lv_obj_style_gen.c ****     lv_style_value_t v = {
 3799              		.loc 1 679 5 is_stmt 1 view .LVU729
 3800              		.loc 1 679 22 is_stmt 0 view .LVU730
 3801 0008 0022     		movs	r2, #0
 3802              	.LVL323:
 3803              		.loc 1 679 22 view .LVU731
 3804 000a 0392     		str	r2, [sp, #12]
 3805 000c ADF80C10 		strh	r1, [sp, #12]	@ movhi
 3806 0010 090C     		lsrs	r1, r1, #16
 3807 0012 8DF80E10 		strb	r1, [sp, #14]
 680:Drivers/lvgl/src/core/lv_obj_style_gen.c ****         .color = value
 681:Drivers/lvgl/src/core/lv_obj_style_gen.c ****     };
 682:Drivers/lvgl/src/core/lv_obj_style_gen.c ****     lv_obj_set_local_style_prop(obj, LV_STYLE_TEXT_OUTLINE_STROKE_COLOR, v, selector);
 3808              		.loc 1 682 5 is_stmt 1 view .LVU732
 3809 0016 039A     		ldr	r2, [sp, #12]
 3810 0018 6121     		movs	r1, #97
 3811 001a FFF7FEFF 		bl	lv_obj_set_local_style_prop
 3812              	.LVL324:
 683:Drivers/lvgl/src/core/lv_obj_style_gen.c **** }
 3813              		.loc 1 683 1 is_stmt 0 view .LVU733
 3814 001e 05B0     		add	sp, sp, #20
 3815              	.LCFI251:
 3816              		.cfi_def_cfa_offset 4
ARM GAS  /tmp/cckNWXvG.s 			page 77


 3817              		@ sp needed
 3818 0020 5DF804FB 		ldr	pc, [sp], #4
 3819              		.cfi_endproc
 3820              	.LFE254:
 3822              		.section	.text.lv_obj_set_style_text_outline_stroke_width,"ax",%progbits
 3823              		.align	1
 3824              		.global	lv_obj_set_style_text_outline_stroke_width
 3825              		.syntax unified
 3826              		.thumb
 3827              		.thumb_func
 3829              	lv_obj_set_style_text_outline_stroke_width:
 3830              	.LVL325:
 3831              	.LFB255:
 684:Drivers/lvgl/src/core/lv_obj_style_gen.c **** 
 685:Drivers/lvgl/src/core/lv_obj_style_gen.c **** void lv_obj_set_style_text_outline_stroke_width(lv_obj_t * obj, int32_t value, lv_style_selector_t 
 686:Drivers/lvgl/src/core/lv_obj_style_gen.c **** {
 3832              		.loc 1 686 1 is_stmt 1 view -0
 3833              		.cfi_startproc
 3834              		@ args = 0, pretend = 0, frame = 8
 3835              		@ frame_needed = 0, uses_anonymous_args = 0
 3836              		.loc 1 686 1 is_stmt 0 view .LVU735
 3837 0000 00B5     		push	{lr}
 3838              	.LCFI252:
 3839              		.cfi_def_cfa_offset 4
 3840              		.cfi_offset 14, -4
 3841 0002 83B0     		sub	sp, sp, #12
 3842              	.LCFI253:
 3843              		.cfi_def_cfa_offset 16
 3844 0004 1346     		mov	r3, r2
 687:Drivers/lvgl/src/core/lv_obj_style_gen.c ****     lv_style_value_t v = {
 3845              		.loc 1 687 5 is_stmt 1 view .LVU736
 3846              		.loc 1 687 22 is_stmt 0 view .LVU737
 3847 0006 0191     		str	r1, [sp, #4]
 688:Drivers/lvgl/src/core/lv_obj_style_gen.c ****         .num = (int32_t)value
 689:Drivers/lvgl/src/core/lv_obj_style_gen.c ****     };
 690:Drivers/lvgl/src/core/lv_obj_style_gen.c ****     lv_obj_set_local_style_prop(obj, LV_STYLE_TEXT_OUTLINE_STROKE_WIDTH, v, selector);
 3848              		.loc 1 690 5 is_stmt 1 view .LVU738
 3849 0008 0A46     		mov	r2, r1
 3850              	.LVL326:
 3851              		.loc 1 690 5 is_stmt 0 view .LVU739
 3852 000a 5F21     		movs	r1, #95
 3853              	.LVL327:
 3854              		.loc 1 690 5 view .LVU740
 3855 000c FFF7FEFF 		bl	lv_obj_set_local_style_prop
 3856              	.LVL328:
 691:Drivers/lvgl/src/core/lv_obj_style_gen.c **** }
 3857              		.loc 1 691 1 view .LVU741
 3858 0010 03B0     		add	sp, sp, #12
 3859              	.LCFI254:
 3860              		.cfi_def_cfa_offset 4
 3861              		@ sp needed
 3862 0012 5DF804FB 		ldr	pc, [sp], #4
 3863              		.loc 1 691 1 view .LVU742
 3864              		.cfi_endproc
 3865              	.LFE255:
 3867              		.section	.text.lv_obj_set_style_text_outline_stroke_opa,"ax",%progbits
 3868              		.align	1
ARM GAS  /tmp/cckNWXvG.s 			page 78


 3869              		.global	lv_obj_set_style_text_outline_stroke_opa
 3870              		.syntax unified
 3871              		.thumb
 3872              		.thumb_func
 3874              	lv_obj_set_style_text_outline_stroke_opa:
 3875              	.LVL329:
 3876              	.LFB256:
 692:Drivers/lvgl/src/core/lv_obj_style_gen.c **** 
 693:Drivers/lvgl/src/core/lv_obj_style_gen.c **** void lv_obj_set_style_text_outline_stroke_opa(lv_obj_t * obj, lv_opa_t value, lv_style_selector_t s
 694:Drivers/lvgl/src/core/lv_obj_style_gen.c **** {
 3877              		.loc 1 694 1 is_stmt 1 view -0
 3878              		.cfi_startproc
 3879              		@ args = 0, pretend = 0, frame = 8
 3880              		@ frame_needed = 0, uses_anonymous_args = 0
 3881              		.loc 1 694 1 is_stmt 0 view .LVU744
 3882 0000 00B5     		push	{lr}
 3883              	.LCFI255:
 3884              		.cfi_def_cfa_offset 4
 3885              		.cfi_offset 14, -4
 3886 0002 83B0     		sub	sp, sp, #12
 3887              	.LCFI256:
 3888              		.cfi_def_cfa_offset 16
 3889 0004 1346     		mov	r3, r2
 695:Drivers/lvgl/src/core/lv_obj_style_gen.c ****     lv_style_value_t v = {
 3890              		.loc 1 695 5 is_stmt 1 view .LVU745
 3891              		.loc 1 695 22 is_stmt 0 view .LVU746
 3892 0006 0191     		str	r1, [sp, #4]
 696:Drivers/lvgl/src/core/lv_obj_style_gen.c ****         .num = (int32_t)value
 697:Drivers/lvgl/src/core/lv_obj_style_gen.c ****     };
 698:Drivers/lvgl/src/core/lv_obj_style_gen.c ****     lv_obj_set_local_style_prop(obj, LV_STYLE_TEXT_OUTLINE_STROKE_OPA, v, selector);
 3893              		.loc 1 698 5 is_stmt 1 view .LVU747
 3894 0008 0A46     		mov	r2, r1
 3895              	.LVL330:
 3896              		.loc 1 698 5 is_stmt 0 view .LVU748
 3897 000a 6021     		movs	r1, #96
 3898              	.LVL331:
 3899              		.loc 1 698 5 view .LVU749
 3900 000c FFF7FEFF 		bl	lv_obj_set_local_style_prop
 3901              	.LVL332:
 699:Drivers/lvgl/src/core/lv_obj_style_gen.c **** }
 3902              		.loc 1 699 1 view .LVU750
 3903 0010 03B0     		add	sp, sp, #12
 3904              	.LCFI257:
 3905              		.cfi_def_cfa_offset 4
 3906              		@ sp needed
 3907 0012 5DF804FB 		ldr	pc, [sp], #4
 3908              		.loc 1 699 1 view .LVU751
 3909              		.cfi_endproc
 3910              	.LFE256:
 3912              		.section	.text.lv_obj_set_style_radius,"ax",%progbits
 3913              		.align	1
 3914              		.global	lv_obj_set_style_radius
 3915              		.syntax unified
 3916              		.thumb
 3917              		.thumb_func
 3919              	lv_obj_set_style_radius:
 3920              	.LVL333:
ARM GAS  /tmp/cckNWXvG.s 			page 79


 3921              	.LFB257:
 700:Drivers/lvgl/src/core/lv_obj_style_gen.c **** 
 701:Drivers/lvgl/src/core/lv_obj_style_gen.c **** void lv_obj_set_style_radius(lv_obj_t * obj, int32_t value, lv_style_selector_t selector)
 702:Drivers/lvgl/src/core/lv_obj_style_gen.c **** {
 3922              		.loc 1 702 1 is_stmt 1 view -0
 3923              		.cfi_startproc
 3924              		@ args = 0, pretend = 0, frame = 8
 3925              		@ frame_needed = 0, uses_anonymous_args = 0
 3926              		.loc 1 702 1 is_stmt 0 view .LVU753
 3927 0000 00B5     		push	{lr}
 3928              	.LCFI258:
 3929              		.cfi_def_cfa_offset 4
 3930              		.cfi_offset 14, -4
 3931 0002 83B0     		sub	sp, sp, #12
 3932              	.LCFI259:
 3933              		.cfi_def_cfa_offset 16
 3934 0004 1346     		mov	r3, r2
 703:Drivers/lvgl/src/core/lv_obj_style_gen.c ****     lv_style_value_t v = {
 3935              		.loc 1 703 5 is_stmt 1 view .LVU754
 3936              		.loc 1 703 22 is_stmt 0 view .LVU755
 3937 0006 0191     		str	r1, [sp, #4]
 704:Drivers/lvgl/src/core/lv_obj_style_gen.c ****         .num = (int32_t)value
 705:Drivers/lvgl/src/core/lv_obj_style_gen.c ****     };
 706:Drivers/lvgl/src/core/lv_obj_style_gen.c ****     lv_obj_set_local_style_prop(obj, LV_STYLE_RADIUS, v, selector);
 3938              		.loc 1 706 5 is_stmt 1 view .LVU756
 3939 0008 0A46     		mov	r2, r1
 3940              	.LVL334:
 3941              		.loc 1 706 5 is_stmt 0 view .LVU757
 3942 000a 0C21     		movs	r1, #12
 3943              	.LVL335:
 3944              		.loc 1 706 5 view .LVU758
 3945 000c FFF7FEFF 		bl	lv_obj_set_local_style_prop
 3946              	.LVL336:
 707:Drivers/lvgl/src/core/lv_obj_style_gen.c **** }
 3947              		.loc 1 707 1 view .LVU759
 3948 0010 03B0     		add	sp, sp, #12
 3949              	.LCFI260:
 3950              		.cfi_def_cfa_offset 4
 3951              		@ sp needed
 3952 0012 5DF804FB 		ldr	pc, [sp], #4
 3953              		.loc 1 707 1 view .LVU760
 3954              		.cfi_endproc
 3955              	.LFE257:
 3957              		.section	.text.lv_obj_set_style_radial_offset,"ax",%progbits
 3958              		.align	1
 3959              		.global	lv_obj_set_style_radial_offset
 3960              		.syntax unified
 3961              		.thumb
 3962              		.thumb_func
 3964              	lv_obj_set_style_radial_offset:
 3965              	.LVL337:
 3966              	.LFB258:
 708:Drivers/lvgl/src/core/lv_obj_style_gen.c **** 
 709:Drivers/lvgl/src/core/lv_obj_style_gen.c **** void lv_obj_set_style_radial_offset(lv_obj_t * obj, int32_t value, lv_style_selector_t selector)
 710:Drivers/lvgl/src/core/lv_obj_style_gen.c **** {
 3967              		.loc 1 710 1 is_stmt 1 view -0
 3968              		.cfi_startproc
ARM GAS  /tmp/cckNWXvG.s 			page 80


 3969              		@ args = 0, pretend = 0, frame = 8
 3970              		@ frame_needed = 0, uses_anonymous_args = 0
 3971              		.loc 1 710 1 is_stmt 0 view .LVU762
 3972 0000 00B5     		push	{lr}
 3973              	.LCFI261:
 3974              		.cfi_def_cfa_offset 4
 3975              		.cfi_offset 14, -4
 3976 0002 83B0     		sub	sp, sp, #12
 3977              	.LCFI262:
 3978              		.cfi_def_cfa_offset 16
 3979 0004 1346     		mov	r3, r2
 711:Drivers/lvgl/src/core/lv_obj_style_gen.c ****     lv_style_value_t v = {
 3980              		.loc 1 711 5 is_stmt 1 view .LVU763
 3981              		.loc 1 711 22 is_stmt 0 view .LVU764
 3982 0006 0191     		str	r1, [sp, #4]
 712:Drivers/lvgl/src/core/lv_obj_style_gen.c ****         .num = (int32_t)value
 713:Drivers/lvgl/src/core/lv_obj_style_gen.c ****     };
 714:Drivers/lvgl/src/core/lv_obj_style_gen.c ****     lv_obj_set_local_style_prop(obj, LV_STYLE_RADIAL_OFFSET, v, selector);
 3983              		.loc 1 714 5 is_stmt 1 view .LVU765
 3984 0008 0A46     		mov	r2, r1
 3985              	.LVL338:
 3986              		.loc 1 714 5 is_stmt 0 view .LVU766
 3987 000a 0D21     		movs	r1, #13
 3988              	.LVL339:
 3989              		.loc 1 714 5 view .LVU767
 3990 000c FFF7FEFF 		bl	lv_obj_set_local_style_prop
 3991              	.LVL340:
 715:Drivers/lvgl/src/core/lv_obj_style_gen.c **** }
 3992              		.loc 1 715 1 view .LVU768
 3993 0010 03B0     		add	sp, sp, #12
 3994              	.LCFI263:
 3995              		.cfi_def_cfa_offset 4
 3996              		@ sp needed
 3997 0012 5DF804FB 		ldr	pc, [sp], #4
 3998              		.loc 1 715 1 view .LVU769
 3999              		.cfi_endproc
 4000              	.LFE258:
 4002              		.section	.text.lv_obj_set_style_clip_corner,"ax",%progbits
 4003              		.align	1
 4004              		.global	lv_obj_set_style_clip_corner
 4005              		.syntax unified
 4006              		.thumb
 4007              		.thumb_func
 4009              	lv_obj_set_style_clip_corner:
 4010              	.LVL341:
 4011              	.LFB259:
 716:Drivers/lvgl/src/core/lv_obj_style_gen.c **** 
 717:Drivers/lvgl/src/core/lv_obj_style_gen.c **** void lv_obj_set_style_clip_corner(lv_obj_t * obj, bool value, lv_style_selector_t selector)
 718:Drivers/lvgl/src/core/lv_obj_style_gen.c **** {
 4012              		.loc 1 718 1 is_stmt 1 view -0
 4013              		.cfi_startproc
 4014              		@ args = 0, pretend = 0, frame = 8
 4015              		@ frame_needed = 0, uses_anonymous_args = 0
 4016              		.loc 1 718 1 is_stmt 0 view .LVU771
 4017 0000 00B5     		push	{lr}
 4018              	.LCFI264:
 4019              		.cfi_def_cfa_offset 4
ARM GAS  /tmp/cckNWXvG.s 			page 81


 4020              		.cfi_offset 14, -4
 4021 0002 83B0     		sub	sp, sp, #12
 4022              	.LCFI265:
 4023              		.cfi_def_cfa_offset 16
 4024 0004 1346     		mov	r3, r2
 719:Drivers/lvgl/src/core/lv_obj_style_gen.c ****     lv_style_value_t v = {
 4025              		.loc 1 719 5 is_stmt 1 view .LVU772
 4026              		.loc 1 719 22 is_stmt 0 view .LVU773
 4027 0006 0191     		str	r1, [sp, #4]
 720:Drivers/lvgl/src/core/lv_obj_style_gen.c ****         .num = (int32_t)value
 721:Drivers/lvgl/src/core/lv_obj_style_gen.c ****     };
 722:Drivers/lvgl/src/core/lv_obj_style_gen.c ****     lv_obj_set_local_style_prop(obj, LV_STYLE_CLIP_CORNER, v, selector);
 4028              		.loc 1 722 5 is_stmt 1 view .LVU774
 4029 0008 0A46     		mov	r2, r1
 4030              	.LVL342:
 4031              		.loc 1 722 5 is_stmt 0 view .LVU775
 4032 000a 2D21     		movs	r1, #45
 4033              	.LVL343:
 4034              		.loc 1 722 5 view .LVU776
 4035 000c FFF7FEFF 		bl	lv_obj_set_local_style_prop
 4036              	.LVL344:
 723:Drivers/lvgl/src/core/lv_obj_style_gen.c **** }
 4037              		.loc 1 723 1 view .LVU777
 4038 0010 03B0     		add	sp, sp, #12
 4039              	.LCFI266:
 4040              		.cfi_def_cfa_offset 4
 4041              		@ sp needed
 4042 0012 5DF804FB 		ldr	pc, [sp], #4
 4043              		.loc 1 723 1 view .LVU778
 4044              		.cfi_endproc
 4045              	.LFE259:
 4047              		.section	.text.lv_obj_set_style_opa,"ax",%progbits
 4048              		.align	1
 4049              		.global	lv_obj_set_style_opa
 4050              		.syntax unified
 4051              		.thumb
 4052              		.thumb_func
 4054              	lv_obj_set_style_opa:
 4055              	.LVL345:
 4056              	.LFB260:
 724:Drivers/lvgl/src/core/lv_obj_style_gen.c **** 
 725:Drivers/lvgl/src/core/lv_obj_style_gen.c **** void lv_obj_set_style_opa(lv_obj_t * obj, lv_opa_t value, lv_style_selector_t selector)
 726:Drivers/lvgl/src/core/lv_obj_style_gen.c **** {
 4057              		.loc 1 726 1 is_stmt 1 view -0
 4058              		.cfi_startproc
 4059              		@ args = 0, pretend = 0, frame = 8
 4060              		@ frame_needed = 0, uses_anonymous_args = 0
 4061              		.loc 1 726 1 is_stmt 0 view .LVU780
 4062 0000 00B5     		push	{lr}
 4063              	.LCFI267:
 4064              		.cfi_def_cfa_offset 4
 4065              		.cfi_offset 14, -4
 4066 0002 83B0     		sub	sp, sp, #12
 4067              	.LCFI268:
 4068              		.cfi_def_cfa_offset 16
 4069 0004 1346     		mov	r3, r2
 727:Drivers/lvgl/src/core/lv_obj_style_gen.c ****     lv_style_value_t v = {
ARM GAS  /tmp/cckNWXvG.s 			page 82


 4070              		.loc 1 727 5 is_stmt 1 view .LVU781
 4071              		.loc 1 727 22 is_stmt 0 view .LVU782
 4072 0006 0191     		str	r1, [sp, #4]
 728:Drivers/lvgl/src/core/lv_obj_style_gen.c ****         .num = (int32_t)value
 729:Drivers/lvgl/src/core/lv_obj_style_gen.c ****     };
 730:Drivers/lvgl/src/core/lv_obj_style_gen.c ****     lv_obj_set_local_style_prop(obj, LV_STYLE_OPA, v, selector);
 4073              		.loc 1 730 5 is_stmt 1 view .LVU783
 4074 0008 0A46     		mov	r2, r1
 4075              	.LVL346:
 4076              		.loc 1 730 5 is_stmt 0 view .LVU784
 4077 000a 6221     		movs	r1, #98
 4078              	.LVL347:
 4079              		.loc 1 730 5 view .LVU785
 4080 000c FFF7FEFF 		bl	lv_obj_set_local_style_prop
 4081              	.LVL348:
 731:Drivers/lvgl/src/core/lv_obj_style_gen.c **** }
 4082              		.loc 1 731 1 view .LVU786
 4083 0010 03B0     		add	sp, sp, #12
 4084              	.LCFI269:
 4085              		.cfi_def_cfa_offset 4
 4086              		@ sp needed
 4087 0012 5DF804FB 		ldr	pc, [sp], #4
 4088              		.loc 1 731 1 view .LVU787
 4089              		.cfi_endproc
 4090              	.LFE260:
 4092              		.section	.text.lv_obj_set_style_opa_layered,"ax",%progbits
 4093              		.align	1
 4094              		.global	lv_obj_set_style_opa_layered
 4095              		.syntax unified
 4096              		.thumb
 4097              		.thumb_func
 4099              	lv_obj_set_style_opa_layered:
 4100              	.LVL349:
 4101              	.LFB261:
 732:Drivers/lvgl/src/core/lv_obj_style_gen.c **** 
 733:Drivers/lvgl/src/core/lv_obj_style_gen.c **** void lv_obj_set_style_opa_layered(lv_obj_t * obj, lv_opa_t value, lv_style_selector_t selector)
 734:Drivers/lvgl/src/core/lv_obj_style_gen.c **** {
 4102              		.loc 1 734 1 is_stmt 1 view -0
 4103              		.cfi_startproc
 4104              		@ args = 0, pretend = 0, frame = 8
 4105              		@ frame_needed = 0, uses_anonymous_args = 0
 4106              		.loc 1 734 1 is_stmt 0 view .LVU789
 4107 0000 00B5     		push	{lr}
 4108              	.LCFI270:
 4109              		.cfi_def_cfa_offset 4
 4110              		.cfi_offset 14, -4
 4111 0002 83B0     		sub	sp, sp, #12
 4112              	.LCFI271:
 4113              		.cfi_def_cfa_offset 16
 4114 0004 1346     		mov	r3, r2
 735:Drivers/lvgl/src/core/lv_obj_style_gen.c ****     lv_style_value_t v = {
 4115              		.loc 1 735 5 is_stmt 1 view .LVU790
 4116              		.loc 1 735 22 is_stmt 0 view .LVU791
 4117 0006 0191     		str	r1, [sp, #4]
 736:Drivers/lvgl/src/core/lv_obj_style_gen.c ****         .num = (int32_t)value
 737:Drivers/lvgl/src/core/lv_obj_style_gen.c ****     };
 738:Drivers/lvgl/src/core/lv_obj_style_gen.c ****     lv_obj_set_local_style_prop(obj, LV_STYLE_OPA_LAYERED, v, selector);
ARM GAS  /tmp/cckNWXvG.s 			page 83


 4118              		.loc 1 738 5 is_stmt 1 view .LVU792
 4119 0008 0A46     		mov	r2, r1
 4120              	.LVL350:
 4121              		.loc 1 738 5 is_stmt 0 view .LVU793
 4122 000a 6321     		movs	r1, #99
 4123              	.LVL351:
 4124              		.loc 1 738 5 view .LVU794
 4125 000c FFF7FEFF 		bl	lv_obj_set_local_style_prop
 4126              	.LVL352:
 739:Drivers/lvgl/src/core/lv_obj_style_gen.c **** }
 4127              		.loc 1 739 1 view .LVU795
 4128 0010 03B0     		add	sp, sp, #12
 4129              	.LCFI272:
 4130              		.cfi_def_cfa_offset 4
 4131              		@ sp needed
 4132 0012 5DF804FB 		ldr	pc, [sp], #4
 4133              		.loc 1 739 1 view .LVU796
 4134              		.cfi_endproc
 4135              	.LFE261:
 4137              		.section	.text.lv_obj_set_style_color_filter_dsc,"ax",%progbits
 4138              		.align	1
 4139              		.global	lv_obj_set_style_color_filter_dsc
 4140              		.syntax unified
 4141              		.thumb
 4142              		.thumb_func
 4144              	lv_obj_set_style_color_filter_dsc:
 4145              	.LVL353:
 4146              	.LFB262:
 740:Drivers/lvgl/src/core/lv_obj_style_gen.c **** 
 741:Drivers/lvgl/src/core/lv_obj_style_gen.c **** void lv_obj_set_style_color_filter_dsc(lv_obj_t * obj, const lv_color_filter_dsc_t * value, lv_styl
 742:Drivers/lvgl/src/core/lv_obj_style_gen.c **** {
 4147              		.loc 1 742 1 is_stmt 1 view -0
 4148              		.cfi_startproc
 4149              		@ args = 0, pretend = 0, frame = 8
 4150              		@ frame_needed = 0, uses_anonymous_args = 0
 4151              		.loc 1 742 1 is_stmt 0 view .LVU798
 4152 0000 00B5     		push	{lr}
 4153              	.LCFI273:
 4154              		.cfi_def_cfa_offset 4
 4155              		.cfi_offset 14, -4
 4156 0002 83B0     		sub	sp, sp, #12
 4157              	.LCFI274:
 4158              		.cfi_def_cfa_offset 16
 4159 0004 1346     		mov	r3, r2
 743:Drivers/lvgl/src/core/lv_obj_style_gen.c ****     lv_style_value_t v = {
 4160              		.loc 1 743 5 is_stmt 1 view .LVU799
 4161              		.loc 1 743 22 is_stmt 0 view .LVU800
 4162 0006 0191     		str	r1, [sp, #4]
 744:Drivers/lvgl/src/core/lv_obj_style_gen.c ****         .ptr = value
 745:Drivers/lvgl/src/core/lv_obj_style_gen.c ****     };
 746:Drivers/lvgl/src/core/lv_obj_style_gen.c ****     lv_obj_set_local_style_prop(obj, LV_STYLE_COLOR_FILTER_DSC, v, selector);
 4163              		.loc 1 746 5 is_stmt 1 view .LVU801
 4164 0008 0A46     		mov	r2, r1
 4165              	.LVL354:
 4166              		.loc 1 746 5 is_stmt 0 view .LVU802
 4167 000a 6421     		movs	r1, #100
 4168              	.LVL355:
ARM GAS  /tmp/cckNWXvG.s 			page 84


 4169              		.loc 1 746 5 view .LVU803
 4170 000c FFF7FEFF 		bl	lv_obj_set_local_style_prop
 4171              	.LVL356:
 747:Drivers/lvgl/src/core/lv_obj_style_gen.c **** }
 4172              		.loc 1 747 1 view .LVU804
 4173 0010 03B0     		add	sp, sp, #12
 4174              	.LCFI275:
 4175              		.cfi_def_cfa_offset 4
 4176              		@ sp needed
 4177 0012 5DF804FB 		ldr	pc, [sp], #4
 4178              		.loc 1 747 1 view .LVU805
 4179              		.cfi_endproc
 4180              	.LFE262:
 4182              		.section	.text.lv_obj_set_style_color_filter_opa,"ax",%progbits
 4183              		.align	1
 4184              		.global	lv_obj_set_style_color_filter_opa
 4185              		.syntax unified
 4186              		.thumb
 4187              		.thumb_func
 4189              	lv_obj_set_style_color_filter_opa:
 4190              	.LVL357:
 4191              	.LFB263:
 748:Drivers/lvgl/src/core/lv_obj_style_gen.c **** 
 749:Drivers/lvgl/src/core/lv_obj_style_gen.c **** void lv_obj_set_style_color_filter_opa(lv_obj_t * obj, lv_opa_t value, lv_style_selector_t selector
 750:Drivers/lvgl/src/core/lv_obj_style_gen.c **** {
 4192              		.loc 1 750 1 is_stmt 1 view -0
 4193              		.cfi_startproc
 4194              		@ args = 0, pretend = 0, frame = 8
 4195              		@ frame_needed = 0, uses_anonymous_args = 0
 4196              		.loc 1 750 1 is_stmt 0 view .LVU807
 4197 0000 00B5     		push	{lr}
 4198              	.LCFI276:
 4199              		.cfi_def_cfa_offset 4
 4200              		.cfi_offset 14, -4
 4201 0002 83B0     		sub	sp, sp, #12
 4202              	.LCFI277:
 4203              		.cfi_def_cfa_offset 16
 4204 0004 1346     		mov	r3, r2
 751:Drivers/lvgl/src/core/lv_obj_style_gen.c ****     lv_style_value_t v = {
 4205              		.loc 1 751 5 is_stmt 1 view .LVU808
 4206              		.loc 1 751 22 is_stmt 0 view .LVU809
 4207 0006 0191     		str	r1, [sp, #4]
 752:Drivers/lvgl/src/core/lv_obj_style_gen.c ****         .num = (int32_t)value
 753:Drivers/lvgl/src/core/lv_obj_style_gen.c ****     };
 754:Drivers/lvgl/src/core/lv_obj_style_gen.c ****     lv_obj_set_local_style_prop(obj, LV_STYLE_COLOR_FILTER_OPA, v, selector);
 4208              		.loc 1 754 5 is_stmt 1 view .LVU810
 4209 0008 0A46     		mov	r2, r1
 4210              	.LVL358:
 4211              		.loc 1 754 5 is_stmt 0 view .LVU811
 4212 000a 6521     		movs	r1, #101
 4213              	.LVL359:
 4214              		.loc 1 754 5 view .LVU812
 4215 000c FFF7FEFF 		bl	lv_obj_set_local_style_prop
 4216              	.LVL360:
 755:Drivers/lvgl/src/core/lv_obj_style_gen.c **** }
 4217              		.loc 1 755 1 view .LVU813
 4218 0010 03B0     		add	sp, sp, #12
ARM GAS  /tmp/cckNWXvG.s 			page 85


 4219              	.LCFI278:
 4220              		.cfi_def_cfa_offset 4
 4221              		@ sp needed
 4222 0012 5DF804FB 		ldr	pc, [sp], #4
 4223              		.loc 1 755 1 view .LVU814
 4224              		.cfi_endproc
 4225              	.LFE263:
 4227              		.section	.text.lv_obj_set_style_recolor,"ax",%progbits
 4228              		.align	1
 4229              		.global	lv_obj_set_style_recolor
 4230              		.syntax unified
 4231              		.thumb
 4232              		.thumb_func
 4234              	lv_obj_set_style_recolor:
 4235              	.LVL361:
 4236              	.LFB264:
 756:Drivers/lvgl/src/core/lv_obj_style_gen.c **** 
 757:Drivers/lvgl/src/core/lv_obj_style_gen.c **** void lv_obj_set_style_recolor(lv_obj_t * obj, lv_color_t value, lv_style_selector_t selector)
 758:Drivers/lvgl/src/core/lv_obj_style_gen.c **** {
 4237              		.loc 1 758 1 is_stmt 1 view -0
 4238              		.cfi_startproc
 4239              		@ args = 0, pretend = 0, frame = 16
 4240              		@ frame_needed = 0, uses_anonymous_args = 0
 4241              		.loc 1 758 1 is_stmt 0 view .LVU816
 4242 0000 00B5     		push	{lr}
 4243              	.LCFI279:
 4244              		.cfi_def_cfa_offset 4
 4245              		.cfi_offset 14, -4
 4246 0002 85B0     		sub	sp, sp, #20
 4247              	.LCFI280:
 4248              		.cfi_def_cfa_offset 24
 4249 0004 0191     		str	r1, [sp, #4]
 4250 0006 1346     		mov	r3, r2
 759:Drivers/lvgl/src/core/lv_obj_style_gen.c ****     lv_style_value_t v = {
 4251              		.loc 1 759 5 is_stmt 1 view .LVU817
 4252              		.loc 1 759 22 is_stmt 0 view .LVU818
 4253 0008 0022     		movs	r2, #0
 4254              	.LVL362:
 4255              		.loc 1 759 22 view .LVU819
 4256 000a 0392     		str	r2, [sp, #12]
 4257 000c ADF80C10 		strh	r1, [sp, #12]	@ movhi
 4258 0010 090C     		lsrs	r1, r1, #16
 4259 0012 8DF80E10 		strb	r1, [sp, #14]
 760:Drivers/lvgl/src/core/lv_obj_style_gen.c ****         .color = value
 761:Drivers/lvgl/src/core/lv_obj_style_gen.c ****     };
 762:Drivers/lvgl/src/core/lv_obj_style_gen.c ****     lv_obj_set_local_style_prop(obj, LV_STYLE_RECOLOR, v, selector);
 4260              		.loc 1 762 5 is_stmt 1 view .LVU820
 4261 0016 039A     		ldr	r2, [sp, #12]
 4262 0018 7821     		movs	r1, #120
 4263 001a FFF7FEFF 		bl	lv_obj_set_local_style_prop
 4264              	.LVL363:
 763:Drivers/lvgl/src/core/lv_obj_style_gen.c **** }
 4265              		.loc 1 763 1 is_stmt 0 view .LVU821
 4266 001e 05B0     		add	sp, sp, #20
 4267              	.LCFI281:
 4268              		.cfi_def_cfa_offset 4
 4269              		@ sp needed
ARM GAS  /tmp/cckNWXvG.s 			page 86


 4270 0020 5DF804FB 		ldr	pc, [sp], #4
 4271              		.cfi_endproc
 4272              	.LFE264:
 4274              		.section	.text.lv_obj_set_style_recolor_opa,"ax",%progbits
 4275              		.align	1
 4276              		.global	lv_obj_set_style_recolor_opa
 4277              		.syntax unified
 4278              		.thumb
 4279              		.thumb_func
 4281              	lv_obj_set_style_recolor_opa:
 4282              	.LVL364:
 4283              	.LFB265:
 764:Drivers/lvgl/src/core/lv_obj_style_gen.c **** 
 765:Drivers/lvgl/src/core/lv_obj_style_gen.c **** void lv_obj_set_style_recolor_opa(lv_obj_t * obj, lv_opa_t value, lv_style_selector_t selector)
 766:Drivers/lvgl/src/core/lv_obj_style_gen.c **** {
 4284              		.loc 1 766 1 is_stmt 1 view -0
 4285              		.cfi_startproc
 4286              		@ args = 0, pretend = 0, frame = 8
 4287              		@ frame_needed = 0, uses_anonymous_args = 0
 4288              		.loc 1 766 1 is_stmt 0 view .LVU823
 4289 0000 00B5     		push	{lr}
 4290              	.LCFI282:
 4291              		.cfi_def_cfa_offset 4
 4292              		.cfi_offset 14, -4
 4293 0002 83B0     		sub	sp, sp, #12
 4294              	.LCFI283:
 4295              		.cfi_def_cfa_offset 16
 4296 0004 1346     		mov	r3, r2
 767:Drivers/lvgl/src/core/lv_obj_style_gen.c ****     lv_style_value_t v = {
 4297              		.loc 1 767 5 is_stmt 1 view .LVU824
 4298              		.loc 1 767 22 is_stmt 0 view .LVU825
 4299 0006 0191     		str	r1, [sp, #4]
 768:Drivers/lvgl/src/core/lv_obj_style_gen.c ****         .num = (int32_t)value
 769:Drivers/lvgl/src/core/lv_obj_style_gen.c ****     };
 770:Drivers/lvgl/src/core/lv_obj_style_gen.c ****     lv_obj_set_local_style_prop(obj, LV_STYLE_RECOLOR_OPA, v, selector);
 4300              		.loc 1 770 5 is_stmt 1 view .LVU826
 4301 0008 0A46     		mov	r2, r1
 4302              	.LVL365:
 4303              		.loc 1 770 5 is_stmt 0 view .LVU827
 4304 000a 7921     		movs	r1, #121
 4305              	.LVL366:
 4306              		.loc 1 770 5 view .LVU828
 4307 000c FFF7FEFF 		bl	lv_obj_set_local_style_prop
 4308              	.LVL367:
 771:Drivers/lvgl/src/core/lv_obj_style_gen.c **** }
 4309              		.loc 1 771 1 view .LVU829
 4310 0010 03B0     		add	sp, sp, #12
 4311              	.LCFI284:
 4312              		.cfi_def_cfa_offset 4
 4313              		@ sp needed
 4314 0012 5DF804FB 		ldr	pc, [sp], #4
 4315              		.loc 1 771 1 view .LVU830
 4316              		.cfi_endproc
 4317              	.LFE265:
 4319              		.section	.text.lv_obj_set_style_anim,"ax",%progbits
 4320              		.align	1
 4321              		.global	lv_obj_set_style_anim
ARM GAS  /tmp/cckNWXvG.s 			page 87


 4322              		.syntax unified
 4323              		.thumb
 4324              		.thumb_func
 4326              	lv_obj_set_style_anim:
 4327              	.LVL368:
 4328              	.LFB266:
 772:Drivers/lvgl/src/core/lv_obj_style_gen.c **** 
 773:Drivers/lvgl/src/core/lv_obj_style_gen.c **** void lv_obj_set_style_anim(lv_obj_t * obj, const lv_anim_t * value, lv_style_selector_t selector)
 774:Drivers/lvgl/src/core/lv_obj_style_gen.c **** {
 4329              		.loc 1 774 1 is_stmt 1 view -0
 4330              		.cfi_startproc
 4331              		@ args = 0, pretend = 0, frame = 8
 4332              		@ frame_needed = 0, uses_anonymous_args = 0
 4333              		.loc 1 774 1 is_stmt 0 view .LVU832
 4334 0000 00B5     		push	{lr}
 4335              	.LCFI285:
 4336              		.cfi_def_cfa_offset 4
 4337              		.cfi_offset 14, -4
 4338 0002 83B0     		sub	sp, sp, #12
 4339              	.LCFI286:
 4340              		.cfi_def_cfa_offset 16
 4341 0004 1346     		mov	r3, r2
 775:Drivers/lvgl/src/core/lv_obj_style_gen.c ****     lv_style_value_t v = {
 4342              		.loc 1 775 5 is_stmt 1 view .LVU833
 4343              		.loc 1 775 22 is_stmt 0 view .LVU834
 4344 0006 0191     		str	r1, [sp, #4]
 776:Drivers/lvgl/src/core/lv_obj_style_gen.c ****         .ptr = value
 777:Drivers/lvgl/src/core/lv_obj_style_gen.c ****     };
 778:Drivers/lvgl/src/core/lv_obj_style_gen.c ****     lv_obj_set_local_style_prop(obj, LV_STYLE_ANIM, v, selector);
 4345              		.loc 1 778 5 is_stmt 1 view .LVU835
 4346 0008 0A46     		mov	r2, r1
 4347              	.LVL369:
 4348              		.loc 1 778 5 is_stmt 0 view .LVU836
 4349 000a 6621     		movs	r1, #102
 4350              	.LVL370:
 4351              		.loc 1 778 5 view .LVU837
 4352 000c FFF7FEFF 		bl	lv_obj_set_local_style_prop
 4353              	.LVL371:
 779:Drivers/lvgl/src/core/lv_obj_style_gen.c **** }
 4354              		.loc 1 779 1 view .LVU838
 4355 0010 03B0     		add	sp, sp, #12
 4356              	.LCFI287:
 4357              		.cfi_def_cfa_offset 4
 4358              		@ sp needed
 4359 0012 5DF804FB 		ldr	pc, [sp], #4
 4360              		.loc 1 779 1 view .LVU839
 4361              		.cfi_endproc
 4362              	.LFE266:
 4364              		.section	.text.lv_obj_set_style_anim_duration,"ax",%progbits
 4365              		.align	1
 4366              		.global	lv_obj_set_style_anim_duration
 4367              		.syntax unified
 4368              		.thumb
 4369              		.thumb_func
 4371              	lv_obj_set_style_anim_duration:
 4372              	.LVL372:
 4373              	.LFB267:
ARM GAS  /tmp/cckNWXvG.s 			page 88


 780:Drivers/lvgl/src/core/lv_obj_style_gen.c **** 
 781:Drivers/lvgl/src/core/lv_obj_style_gen.c **** void lv_obj_set_style_anim_duration(lv_obj_t * obj, uint32_t value, lv_style_selector_t selector)
 782:Drivers/lvgl/src/core/lv_obj_style_gen.c **** {
 4374              		.loc 1 782 1 is_stmt 1 view -0
 4375              		.cfi_startproc
 4376              		@ args = 0, pretend = 0, frame = 8
 4377              		@ frame_needed = 0, uses_anonymous_args = 0
 4378              		.loc 1 782 1 is_stmt 0 view .LVU841
 4379 0000 00B5     		push	{lr}
 4380              	.LCFI288:
 4381              		.cfi_def_cfa_offset 4
 4382              		.cfi_offset 14, -4
 4383 0002 83B0     		sub	sp, sp, #12
 4384              	.LCFI289:
 4385              		.cfi_def_cfa_offset 16
 4386 0004 1346     		mov	r3, r2
 783:Drivers/lvgl/src/core/lv_obj_style_gen.c ****     lv_style_value_t v = {
 4387              		.loc 1 783 5 is_stmt 1 view .LVU842
 4388              		.loc 1 783 22 is_stmt 0 view .LVU843
 4389 0006 0191     		str	r1, [sp, #4]
 784:Drivers/lvgl/src/core/lv_obj_style_gen.c ****         .num = (int32_t)value
 785:Drivers/lvgl/src/core/lv_obj_style_gen.c ****     };
 786:Drivers/lvgl/src/core/lv_obj_style_gen.c ****     lv_obj_set_local_style_prop(obj, LV_STYLE_ANIM_DURATION, v, selector);
 4390              		.loc 1 786 5 is_stmt 1 view .LVU844
 4391 0008 0A46     		mov	r2, r1
 4392              	.LVL373:
 4393              		.loc 1 786 5 is_stmt 0 view .LVU845
 4394 000a 6721     		movs	r1, #103
 4395              	.LVL374:
 4396              		.loc 1 786 5 view .LVU846
 4397 000c FFF7FEFF 		bl	lv_obj_set_local_style_prop
 4398              	.LVL375:
 787:Drivers/lvgl/src/core/lv_obj_style_gen.c **** }
 4399              		.loc 1 787 1 view .LVU847
 4400 0010 03B0     		add	sp, sp, #12
 4401              	.LCFI290:
 4402              		.cfi_def_cfa_offset 4
 4403              		@ sp needed
 4404 0012 5DF804FB 		ldr	pc, [sp], #4
 4405              		.loc 1 787 1 view .LVU848
 4406              		.cfi_endproc
 4407              	.LFE267:
 4409              		.section	.text.lv_obj_set_style_transition,"ax",%progbits
 4410              		.align	1
 4411              		.global	lv_obj_set_style_transition
 4412              		.syntax unified
 4413              		.thumb
 4414              		.thumb_func
 4416              	lv_obj_set_style_transition:
 4417              	.LVL376:
 4418              	.LFB268:
 788:Drivers/lvgl/src/core/lv_obj_style_gen.c **** 
 789:Drivers/lvgl/src/core/lv_obj_style_gen.c **** void lv_obj_set_style_transition(lv_obj_t * obj, const lv_style_transition_dsc_t * value, lv_style_
 790:Drivers/lvgl/src/core/lv_obj_style_gen.c **** {
 4419              		.loc 1 790 1 is_stmt 1 view -0
 4420              		.cfi_startproc
 4421              		@ args = 0, pretend = 0, frame = 8
ARM GAS  /tmp/cckNWXvG.s 			page 89


 4422              		@ frame_needed = 0, uses_anonymous_args = 0
 4423              		.loc 1 790 1 is_stmt 0 view .LVU850
 4424 0000 00B5     		push	{lr}
 4425              	.LCFI291:
 4426              		.cfi_def_cfa_offset 4
 4427              		.cfi_offset 14, -4
 4428 0002 83B0     		sub	sp, sp, #12
 4429              	.LCFI292:
 4430              		.cfi_def_cfa_offset 16
 4431 0004 1346     		mov	r3, r2
 791:Drivers/lvgl/src/core/lv_obj_style_gen.c ****     lv_style_value_t v = {
 4432              		.loc 1 791 5 is_stmt 1 view .LVU851
 4433              		.loc 1 791 22 is_stmt 0 view .LVU852
 4434 0006 0191     		str	r1, [sp, #4]
 792:Drivers/lvgl/src/core/lv_obj_style_gen.c ****         .ptr = value
 793:Drivers/lvgl/src/core/lv_obj_style_gen.c ****     };
 794:Drivers/lvgl/src/core/lv_obj_style_gen.c ****     lv_obj_set_local_style_prop(obj, LV_STYLE_TRANSITION, v, selector);
 4435              		.loc 1 794 5 is_stmt 1 view .LVU853
 4436 0008 0A46     		mov	r2, r1
 4437              	.LVL377:
 4438              		.loc 1 794 5 is_stmt 0 view .LVU854
 4439 000a 6821     		movs	r1, #104
 4440              	.LVL378:
 4441              		.loc 1 794 5 view .LVU855
 4442 000c FFF7FEFF 		bl	lv_obj_set_local_style_prop
 4443              	.LVL379:
 795:Drivers/lvgl/src/core/lv_obj_style_gen.c **** }
 4444              		.loc 1 795 1 view .LVU856
 4445 0010 03B0     		add	sp, sp, #12
 4446              	.LCFI293:
 4447              		.cfi_def_cfa_offset 4
 4448              		@ sp needed
 4449 0012 5DF804FB 		ldr	pc, [sp], #4
 4450              		.loc 1 795 1 view .LVU857
 4451              		.cfi_endproc
 4452              	.LFE268:
 4454              		.section	.text.lv_obj_set_style_blend_mode,"ax",%progbits
 4455              		.align	1
 4456              		.global	lv_obj_set_style_blend_mode
 4457              		.syntax unified
 4458              		.thumb
 4459              		.thumb_func
 4461              	lv_obj_set_style_blend_mode:
 4462              	.LVL380:
 4463              	.LFB269:
 796:Drivers/lvgl/src/core/lv_obj_style_gen.c **** 
 797:Drivers/lvgl/src/core/lv_obj_style_gen.c **** void lv_obj_set_style_blend_mode(lv_obj_t * obj, lv_blend_mode_t value, lv_style_selector_t selecto
 798:Drivers/lvgl/src/core/lv_obj_style_gen.c **** {
 4464              		.loc 1 798 1 is_stmt 1 view -0
 4465              		.cfi_startproc
 4466              		@ args = 0, pretend = 0, frame = 8
 4467              		@ frame_needed = 0, uses_anonymous_args = 0
 4468              		.loc 1 798 1 is_stmt 0 view .LVU859
 4469 0000 00B5     		push	{lr}
 4470              	.LCFI294:
 4471              		.cfi_def_cfa_offset 4
 4472              		.cfi_offset 14, -4
ARM GAS  /tmp/cckNWXvG.s 			page 90


 4473 0002 83B0     		sub	sp, sp, #12
 4474              	.LCFI295:
 4475              		.cfi_def_cfa_offset 16
 4476 0004 1346     		mov	r3, r2
 799:Drivers/lvgl/src/core/lv_obj_style_gen.c ****     lv_style_value_t v = {
 4477              		.loc 1 799 5 is_stmt 1 view .LVU860
 4478              		.loc 1 799 22 is_stmt 0 view .LVU861
 4479 0006 0191     		str	r1, [sp, #4]
 800:Drivers/lvgl/src/core/lv_obj_style_gen.c ****         .num = (int32_t)value
 801:Drivers/lvgl/src/core/lv_obj_style_gen.c ****     };
 802:Drivers/lvgl/src/core/lv_obj_style_gen.c ****     lv_obj_set_local_style_prop(obj, LV_STYLE_BLEND_MODE, v, selector);
 4480              		.loc 1 802 5 is_stmt 1 view .LVU862
 4481 0008 0A46     		mov	r2, r1
 4482              	.LVL381:
 4483              		.loc 1 802 5 is_stmt 0 view .LVU863
 4484 000a 6921     		movs	r1, #105
 4485              	.LVL382:
 4486              		.loc 1 802 5 view .LVU864
 4487 000c FFF7FEFF 		bl	lv_obj_set_local_style_prop
 4488              	.LVL383:
 803:Drivers/lvgl/src/core/lv_obj_style_gen.c **** }
 4489              		.loc 1 803 1 view .LVU865
 4490 0010 03B0     		add	sp, sp, #12
 4491              	.LCFI296:
 4492              		.cfi_def_cfa_offset 4
 4493              		@ sp needed
 4494 0012 5DF804FB 		ldr	pc, [sp], #4
 4495              		.loc 1 803 1 view .LVU866
 4496              		.cfi_endproc
 4497              	.LFE269:
 4499              		.section	.text.lv_obj_set_style_layout,"ax",%progbits
 4500              		.align	1
 4501              		.global	lv_obj_set_style_layout
 4502              		.syntax unified
 4503              		.thumb
 4504              		.thumb_func
 4506              	lv_obj_set_style_layout:
 4507              	.LVL384:
 4508              	.LFB270:
 804:Drivers/lvgl/src/core/lv_obj_style_gen.c **** 
 805:Drivers/lvgl/src/core/lv_obj_style_gen.c **** void lv_obj_set_style_layout(lv_obj_t * obj, uint16_t value, lv_style_selector_t selector)
 806:Drivers/lvgl/src/core/lv_obj_style_gen.c **** {
 4509              		.loc 1 806 1 is_stmt 1 view -0
 4510              		.cfi_startproc
 4511              		@ args = 0, pretend = 0, frame = 8
 4512              		@ frame_needed = 0, uses_anonymous_args = 0
 4513              		.loc 1 806 1 is_stmt 0 view .LVU868
 4514 0000 00B5     		push	{lr}
 4515              	.LCFI297:
 4516              		.cfi_def_cfa_offset 4
 4517              		.cfi_offset 14, -4
 4518 0002 83B0     		sub	sp, sp, #12
 4519              	.LCFI298:
 4520              		.cfi_def_cfa_offset 16
 4521 0004 1346     		mov	r3, r2
 807:Drivers/lvgl/src/core/lv_obj_style_gen.c ****     lv_style_value_t v = {
 4522              		.loc 1 807 5 is_stmt 1 view .LVU869
ARM GAS  /tmp/cckNWXvG.s 			page 91


 4523              		.loc 1 807 22 is_stmt 0 view .LVU870
 4524 0006 0191     		str	r1, [sp, #4]
 808:Drivers/lvgl/src/core/lv_obj_style_gen.c ****         .num = (int32_t)value
 809:Drivers/lvgl/src/core/lv_obj_style_gen.c ****     };
 810:Drivers/lvgl/src/core/lv_obj_style_gen.c ****     lv_obj_set_local_style_prop(obj, LV_STYLE_LAYOUT, v, selector);
 4525              		.loc 1 810 5 is_stmt 1 view .LVU871
 4526 0008 0A46     		mov	r2, r1
 4527              	.LVL385:
 4528              		.loc 1 810 5 is_stmt 0 view .LVU872
 4529 000a 1621     		movs	r1, #22
 4530              	.LVL386:
 4531              		.loc 1 810 5 view .LVU873
 4532 000c FFF7FEFF 		bl	lv_obj_set_local_style_prop
 4533              	.LVL387:
 811:Drivers/lvgl/src/core/lv_obj_style_gen.c **** }
 4534              		.loc 1 811 1 view .LVU874
 4535 0010 03B0     		add	sp, sp, #12
 4536              	.LCFI299:
 4537              		.cfi_def_cfa_offset 4
 4538              		@ sp needed
 4539 0012 5DF804FB 		ldr	pc, [sp], #4
 4540              		.loc 1 811 1 view .LVU875
 4541              		.cfi_endproc
 4542              	.LFE270:
 4544              		.section	.text.lv_obj_set_style_base_dir,"ax",%progbits
 4545              		.align	1
 4546              		.global	lv_obj_set_style_base_dir
 4547              		.syntax unified
 4548              		.thumb
 4549              		.thumb_func
 4551              	lv_obj_set_style_base_dir:
 4552              	.LVL388:
 4553              	.LFB271:
 812:Drivers/lvgl/src/core/lv_obj_style_gen.c **** 
 813:Drivers/lvgl/src/core/lv_obj_style_gen.c **** void lv_obj_set_style_base_dir(lv_obj_t * obj, lv_base_dir_t value, lv_style_selector_t selector)
 814:Drivers/lvgl/src/core/lv_obj_style_gen.c **** {
 4554              		.loc 1 814 1 is_stmt 1 view -0
 4555              		.cfi_startproc
 4556              		@ args = 0, pretend = 0, frame = 8
 4557              		@ frame_needed = 0, uses_anonymous_args = 0
 4558              		.loc 1 814 1 is_stmt 0 view .LVU877
 4559 0000 00B5     		push	{lr}
 4560              	.LCFI300:
 4561              		.cfi_def_cfa_offset 4
 4562              		.cfi_offset 14, -4
 4563 0002 83B0     		sub	sp, sp, #12
 4564              	.LCFI301:
 4565              		.cfi_def_cfa_offset 16
