ARM GAS  /tmp/ccq5SmfP.s 			page 1


   1              		.cpu cortex-m7
   2              		.arch armv7e-m
   3              		.fpu fpv5-sp-d16
   4              		.eabi_attribute 27, 1
   5              		.eabi_attribute 28, 1
   6              		.eabi_attribute 20, 1
   7              		.eabi_attribute 21, 1
   8              		.eabi_attribute 23, 3
   9              		.eabi_attribute 24, 1
  10              		.eabi_attribute 25, 1
  11              		.eabi_attribute 26, 1
  12              		.eabi_attribute 30, 1
  13              		.eabi_attribute 34, 1
  14              		.eabi_attribute 18, 4
  15              		.file	"lv_obj_class.c"
  16              		.text
  17              	.Ltext0:
  18              		.cfi_sections	.debug_frame
  19              		.file 1 "Drivers/lvgl/src/core/lv_obj_class.c"
  20              		.section	.text.lv_obj_construct,"ax",%progbits
  21              		.align	1
  22              		.syntax unified
  23              		.thumb
  24              		.thumb_func
  26              	lv_obj_construct:
  27              	.LVL0:
  28              	.LFB176:
   1:Drivers/lvgl/src/core/lv_obj_class.c **** /**
   2:Drivers/lvgl/src/core/lv_obj_class.c ****  * @file lv_obj_class.c
   3:Drivers/lvgl/src/core/lv_obj_class.c ****  *
   4:Drivers/lvgl/src/core/lv_obj_class.c ****  */
   5:Drivers/lvgl/src/core/lv_obj_class.c **** 
   6:Drivers/lvgl/src/core/lv_obj_class.c **** /*********************
   7:Drivers/lvgl/src/core/lv_obj_class.c ****  *      INCLUDES
   8:Drivers/lvgl/src/core/lv_obj_class.c ****  *********************/
   9:Drivers/lvgl/src/core/lv_obj_class.c **** #include "lv_obj_class_private.h"
  10:Drivers/lvgl/src/core/lv_obj_class.c **** #include "lv_obj_private.h"
  11:Drivers/lvgl/src/core/lv_obj_class.c **** #include "../themes/lv_theme.h"
  12:Drivers/lvgl/src/core/lv_obj_class.c **** #include "../display/lv_display.h"
  13:Drivers/lvgl/src/core/lv_obj_class.c **** #include "../display/lv_display_private.h"
  14:Drivers/lvgl/src/core/lv_obj_class.c **** #include "../stdlib/lv_string.h"
  15:Drivers/lvgl/src/core/lv_obj_class.c **** 
  16:Drivers/lvgl/src/core/lv_obj_class.c **** /*********************
  17:Drivers/lvgl/src/core/lv_obj_class.c ****  *      DEFINES
  18:Drivers/lvgl/src/core/lv_obj_class.c ****  *********************/
  19:Drivers/lvgl/src/core/lv_obj_class.c **** #define MY_CLASS (&lv_obj_class)
  20:Drivers/lvgl/src/core/lv_obj_class.c **** 
  21:Drivers/lvgl/src/core/lv_obj_class.c **** /**********************
  22:Drivers/lvgl/src/core/lv_obj_class.c ****  *      TYPEDEFS
  23:Drivers/lvgl/src/core/lv_obj_class.c ****  **********************/
  24:Drivers/lvgl/src/core/lv_obj_class.c **** 
  25:Drivers/lvgl/src/core/lv_obj_class.c **** /**********************
  26:Drivers/lvgl/src/core/lv_obj_class.c ****  *  GLOBAL PROTOTYPES
  27:Drivers/lvgl/src/core/lv_obj_class.c ****  **********************/
  28:Drivers/lvgl/src/core/lv_obj_class.c **** 
  29:Drivers/lvgl/src/core/lv_obj_class.c **** /**********************
  30:Drivers/lvgl/src/core/lv_obj_class.c ****  *  STATIC PROTOTYPES
ARM GAS  /tmp/ccq5SmfP.s 			page 2


  31:Drivers/lvgl/src/core/lv_obj_class.c ****  **********************/
  32:Drivers/lvgl/src/core/lv_obj_class.c **** static void lv_obj_construct(const lv_obj_class_t * class_p, lv_obj_t * obj);
  33:Drivers/lvgl/src/core/lv_obj_class.c **** static uint32_t get_instance_size(const lv_obj_class_t * class_p);
  34:Drivers/lvgl/src/core/lv_obj_class.c **** 
  35:Drivers/lvgl/src/core/lv_obj_class.c **** /**********************
  36:Drivers/lvgl/src/core/lv_obj_class.c ****  *  STATIC VARIABLES
  37:Drivers/lvgl/src/core/lv_obj_class.c ****  **********************/
  38:Drivers/lvgl/src/core/lv_obj_class.c **** 
  39:Drivers/lvgl/src/core/lv_obj_class.c **** /**********************
  40:Drivers/lvgl/src/core/lv_obj_class.c ****  *      MACROS
  41:Drivers/lvgl/src/core/lv_obj_class.c ****  **********************/
  42:Drivers/lvgl/src/core/lv_obj_class.c **** 
  43:Drivers/lvgl/src/core/lv_obj_class.c **** /**********************
  44:Drivers/lvgl/src/core/lv_obj_class.c ****  *   GLOBAL FUNCTIONS
  45:Drivers/lvgl/src/core/lv_obj_class.c ****  **********************/
  46:Drivers/lvgl/src/core/lv_obj_class.c **** 
  47:Drivers/lvgl/src/core/lv_obj_class.c **** lv_obj_t * lv_obj_class_create_obj(const lv_obj_class_t * class_p, lv_obj_t * parent)
  48:Drivers/lvgl/src/core/lv_obj_class.c **** {
  49:Drivers/lvgl/src/core/lv_obj_class.c ****     LV_TRACE_OBJ_CREATE("Creating object with %p class on %p parent", (void *)class_p, (void *)pare
  50:Drivers/lvgl/src/core/lv_obj_class.c ****     uint32_t s = get_instance_size(class_p);
  51:Drivers/lvgl/src/core/lv_obj_class.c ****     lv_obj_t * obj = lv_malloc_zeroed(s);
  52:Drivers/lvgl/src/core/lv_obj_class.c ****     if(obj == NULL) return NULL;
  53:Drivers/lvgl/src/core/lv_obj_class.c ****     obj->class_p = class_p;
  54:Drivers/lvgl/src/core/lv_obj_class.c ****     obj->parent = parent;
  55:Drivers/lvgl/src/core/lv_obj_class.c **** 
  56:Drivers/lvgl/src/core/lv_obj_class.c ****     /*Create a screen*/
  57:Drivers/lvgl/src/core/lv_obj_class.c ****     if(parent == NULL) {
  58:Drivers/lvgl/src/core/lv_obj_class.c ****         LV_TRACE_OBJ_CREATE("creating a screen");
  59:Drivers/lvgl/src/core/lv_obj_class.c ****         lv_display_t * disp = lv_display_get_default();
  60:Drivers/lvgl/src/core/lv_obj_class.c ****         if(!disp) {
  61:Drivers/lvgl/src/core/lv_obj_class.c ****             LV_LOG_WARN("No display created yet. No place to assign the new screen");
  62:Drivers/lvgl/src/core/lv_obj_class.c ****             lv_free(obj);
  63:Drivers/lvgl/src/core/lv_obj_class.c ****             return NULL;
  64:Drivers/lvgl/src/core/lv_obj_class.c ****         }
  65:Drivers/lvgl/src/core/lv_obj_class.c **** 
  66:Drivers/lvgl/src/core/lv_obj_class.c ****         if(disp->screens == NULL) {
  67:Drivers/lvgl/src/core/lv_obj_class.c ****             disp->screen_cnt = 0;
  68:Drivers/lvgl/src/core/lv_obj_class.c ****         }
  69:Drivers/lvgl/src/core/lv_obj_class.c **** 
  70:Drivers/lvgl/src/core/lv_obj_class.c ****         lv_obj_t ** screens = lv_realloc(disp->screens, sizeof(lv_obj_t *) * (disp->screen_cnt + 1)
  71:Drivers/lvgl/src/core/lv_obj_class.c ****         LV_ASSERT_MALLOC(screens);
  72:Drivers/lvgl/src/core/lv_obj_class.c ****         if(screens == NULL) {
  73:Drivers/lvgl/src/core/lv_obj_class.c ****             lv_free(obj);
  74:Drivers/lvgl/src/core/lv_obj_class.c ****             return NULL;
  75:Drivers/lvgl/src/core/lv_obj_class.c ****         }
  76:Drivers/lvgl/src/core/lv_obj_class.c **** 
  77:Drivers/lvgl/src/core/lv_obj_class.c ****         disp->screen_cnt++;
  78:Drivers/lvgl/src/core/lv_obj_class.c ****         disp->screens = screens;
  79:Drivers/lvgl/src/core/lv_obj_class.c ****         disp->screens[disp->screen_cnt - 1] = obj;
  80:Drivers/lvgl/src/core/lv_obj_class.c **** 
  81:Drivers/lvgl/src/core/lv_obj_class.c ****         /*Set coordinates to full screen size*/
  82:Drivers/lvgl/src/core/lv_obj_class.c ****         obj->coords.x1 = 0;
  83:Drivers/lvgl/src/core/lv_obj_class.c ****         obj->coords.y1 = 0;
  84:Drivers/lvgl/src/core/lv_obj_class.c ****         obj->coords.x2 = lv_display_get_horizontal_resolution(NULL) - 1;
  85:Drivers/lvgl/src/core/lv_obj_class.c ****         obj->coords.y2 = lv_display_get_vertical_resolution(NULL) - 1;
  86:Drivers/lvgl/src/core/lv_obj_class.c ****     }
  87:Drivers/lvgl/src/core/lv_obj_class.c ****     /*Create a normal object*/
ARM GAS  /tmp/ccq5SmfP.s 			page 3


  88:Drivers/lvgl/src/core/lv_obj_class.c ****     else {
  89:Drivers/lvgl/src/core/lv_obj_class.c ****         LV_TRACE_OBJ_CREATE("creating normal object");
  90:Drivers/lvgl/src/core/lv_obj_class.c ****         LV_ASSERT_OBJ(parent, MY_CLASS);
  91:Drivers/lvgl/src/core/lv_obj_class.c ****         if(parent->spec_attr == NULL) {
  92:Drivers/lvgl/src/core/lv_obj_class.c ****             lv_obj_allocate_spec_attr(parent);
  93:Drivers/lvgl/src/core/lv_obj_class.c ****         }
  94:Drivers/lvgl/src/core/lv_obj_class.c **** 
  95:Drivers/lvgl/src/core/lv_obj_class.c ****         parent->spec_attr->child_cnt++;
  96:Drivers/lvgl/src/core/lv_obj_class.c ****         parent->spec_attr->children = lv_realloc(parent->spec_attr->children,
  97:Drivers/lvgl/src/core/lv_obj_class.c ****                                                  sizeof(lv_obj_t *) * parent->spec_attr->child_cnt)
  98:Drivers/lvgl/src/core/lv_obj_class.c ****         parent->spec_attr->children[parent->spec_attr->child_cnt - 1] = obj;
  99:Drivers/lvgl/src/core/lv_obj_class.c ****     }
 100:Drivers/lvgl/src/core/lv_obj_class.c **** 
 101:Drivers/lvgl/src/core/lv_obj_class.c ****     return obj;
 102:Drivers/lvgl/src/core/lv_obj_class.c **** }
 103:Drivers/lvgl/src/core/lv_obj_class.c **** 
 104:Drivers/lvgl/src/core/lv_obj_class.c **** void lv_obj_class_init_obj(lv_obj_t * obj)
 105:Drivers/lvgl/src/core/lv_obj_class.c **** {
 106:Drivers/lvgl/src/core/lv_obj_class.c ****     if(obj == NULL) return;
 107:Drivers/lvgl/src/core/lv_obj_class.c **** 
 108:Drivers/lvgl/src/core/lv_obj_class.c ****     lv_obj_mark_layout_as_dirty(obj);
 109:Drivers/lvgl/src/core/lv_obj_class.c ****     lv_obj_enable_style_refresh(false);
 110:Drivers/lvgl/src/core/lv_obj_class.c **** 
 111:Drivers/lvgl/src/core/lv_obj_class.c ****     lv_theme_apply(obj);
 112:Drivers/lvgl/src/core/lv_obj_class.c ****     lv_obj_construct(obj->class_p, obj);
 113:Drivers/lvgl/src/core/lv_obj_class.c **** 
 114:Drivers/lvgl/src/core/lv_obj_class.c ****     lv_obj_enable_style_refresh(true);
 115:Drivers/lvgl/src/core/lv_obj_class.c ****     lv_obj_refresh_style(obj, LV_PART_ANY, LV_STYLE_PROP_ANY);
 116:Drivers/lvgl/src/core/lv_obj_class.c **** 
 117:Drivers/lvgl/src/core/lv_obj_class.c ****     lv_obj_refresh_self_size(obj);
 118:Drivers/lvgl/src/core/lv_obj_class.c **** 
 119:Drivers/lvgl/src/core/lv_obj_class.c ****     lv_group_t * def_group = lv_group_get_default();
 120:Drivers/lvgl/src/core/lv_obj_class.c ****     if(def_group && lv_obj_is_group_def(obj)) {
 121:Drivers/lvgl/src/core/lv_obj_class.c ****         lv_group_add_obj(def_group, obj);
 122:Drivers/lvgl/src/core/lv_obj_class.c ****     }
 123:Drivers/lvgl/src/core/lv_obj_class.c **** 
 124:Drivers/lvgl/src/core/lv_obj_class.c ****     lv_obj_t * parent = lv_obj_get_parent(obj);
 125:Drivers/lvgl/src/core/lv_obj_class.c ****     if(parent) {
 126:Drivers/lvgl/src/core/lv_obj_class.c ****         /*Call the ancestor's event handler to the parent to notify it about the new child.
 127:Drivers/lvgl/src/core/lv_obj_class.c ****          *Also triggers layout update*/
 128:Drivers/lvgl/src/core/lv_obj_class.c ****         lv_obj_send_event(parent, LV_EVENT_CHILD_CHANGED, obj);
 129:Drivers/lvgl/src/core/lv_obj_class.c ****         lv_obj_send_event(parent, LV_EVENT_CHILD_CREATED, obj);
 130:Drivers/lvgl/src/core/lv_obj_class.c **** 
 131:Drivers/lvgl/src/core/lv_obj_class.c ****         /*Invalidate the area if not screen created*/
 132:Drivers/lvgl/src/core/lv_obj_class.c ****         lv_obj_invalidate(obj);
 133:Drivers/lvgl/src/core/lv_obj_class.c ****     }
 134:Drivers/lvgl/src/core/lv_obj_class.c **** }
 135:Drivers/lvgl/src/core/lv_obj_class.c **** 
 136:Drivers/lvgl/src/core/lv_obj_class.c **** void lv_obj_destruct(lv_obj_t * obj)
 137:Drivers/lvgl/src/core/lv_obj_class.c **** {
 138:Drivers/lvgl/src/core/lv_obj_class.c ****     if(obj->class_p->destructor_cb) obj->class_p->destructor_cb(obj->class_p, obj);
 139:Drivers/lvgl/src/core/lv_obj_class.c **** 
 140:Drivers/lvgl/src/core/lv_obj_class.c ****     if(obj->class_p->base_class) {
 141:Drivers/lvgl/src/core/lv_obj_class.c ****         /*Don't let the descendant methods run during destructing the ancestor type*/
 142:Drivers/lvgl/src/core/lv_obj_class.c ****         obj->class_p = obj->class_p->base_class;
 143:Drivers/lvgl/src/core/lv_obj_class.c **** 
 144:Drivers/lvgl/src/core/lv_obj_class.c ****         /*Call the base class's destructor too*/
ARM GAS  /tmp/ccq5SmfP.s 			page 4


 145:Drivers/lvgl/src/core/lv_obj_class.c ****         lv_obj_destruct(obj);
 146:Drivers/lvgl/src/core/lv_obj_class.c ****     }
 147:Drivers/lvgl/src/core/lv_obj_class.c **** }
 148:Drivers/lvgl/src/core/lv_obj_class.c **** 
 149:Drivers/lvgl/src/core/lv_obj_class.c **** bool lv_obj_is_editable(lv_obj_t * obj)
 150:Drivers/lvgl/src/core/lv_obj_class.c **** {
 151:Drivers/lvgl/src/core/lv_obj_class.c ****     const lv_obj_class_t * class_p = obj->class_p;
 152:Drivers/lvgl/src/core/lv_obj_class.c **** 
 153:Drivers/lvgl/src/core/lv_obj_class.c ****     /*Find a base in which editable is set*/
 154:Drivers/lvgl/src/core/lv_obj_class.c ****     while(class_p && class_p->editable == LV_OBJ_CLASS_EDITABLE_INHERIT) class_p = class_p->base_cl
 155:Drivers/lvgl/src/core/lv_obj_class.c **** 
 156:Drivers/lvgl/src/core/lv_obj_class.c ****     if(class_p == NULL) return false;
 157:Drivers/lvgl/src/core/lv_obj_class.c **** 
 158:Drivers/lvgl/src/core/lv_obj_class.c ****     return class_p->editable == LV_OBJ_CLASS_EDITABLE_TRUE;
 159:Drivers/lvgl/src/core/lv_obj_class.c **** }
 160:Drivers/lvgl/src/core/lv_obj_class.c **** 
 161:Drivers/lvgl/src/core/lv_obj_class.c **** bool lv_obj_is_group_def(lv_obj_t * obj)
 162:Drivers/lvgl/src/core/lv_obj_class.c **** {
 163:Drivers/lvgl/src/core/lv_obj_class.c ****     const lv_obj_class_t * class_p = obj->class_p;
 164:Drivers/lvgl/src/core/lv_obj_class.c **** 
 165:Drivers/lvgl/src/core/lv_obj_class.c ****     /*Find a base in which group_def is set*/
 166:Drivers/lvgl/src/core/lv_obj_class.c ****     while(class_p && class_p->group_def == LV_OBJ_CLASS_GROUP_DEF_INHERIT) class_p = class_p->base_
 167:Drivers/lvgl/src/core/lv_obj_class.c **** 
 168:Drivers/lvgl/src/core/lv_obj_class.c ****     if(class_p == NULL) return false;
 169:Drivers/lvgl/src/core/lv_obj_class.c **** 
 170:Drivers/lvgl/src/core/lv_obj_class.c ****     return class_p->group_def == LV_OBJ_CLASS_GROUP_DEF_TRUE;
 171:Drivers/lvgl/src/core/lv_obj_class.c **** }
 172:Drivers/lvgl/src/core/lv_obj_class.c **** 
 173:Drivers/lvgl/src/core/lv_obj_class.c **** /**********************
 174:Drivers/lvgl/src/core/lv_obj_class.c ****  *   STATIC FUNCTIONS
 175:Drivers/lvgl/src/core/lv_obj_class.c ****  **********************/
 176:Drivers/lvgl/src/core/lv_obj_class.c **** 
 177:Drivers/lvgl/src/core/lv_obj_class.c **** static void lv_obj_construct(const lv_obj_class_t * class_p, lv_obj_t * obj)
 178:Drivers/lvgl/src/core/lv_obj_class.c **** {
  29              		.loc 1 178 1 view -0
  30              		.cfi_startproc
  31              		@ args = 0, pretend = 0, frame = 0
  32              		@ frame_needed = 0, uses_anonymous_args = 0
  33              		.loc 1 178 1 is_stmt 0 view .LVU1
  34 0000 70B5     		push	{r4, r5, r6, lr}
  35              	.LCFI0:
  36              		.cfi_def_cfa_offset 16
  37              		.cfi_offset 4, -16
  38              		.cfi_offset 5, -12
  39              		.cfi_offset 6, -8
  40              		.cfi_offset 14, -4
  41 0002 0546     		mov	r5, r0
  42 0004 0C46     		mov	r4, r1
 179:Drivers/lvgl/src/core/lv_obj_class.c ****     if(obj->class_p->base_class) {
  43              		.loc 1 179 5 is_stmt 1 view .LVU2
  44              		.loc 1 179 11 is_stmt 0 view .LVU3
  45 0006 0E68     		ldr	r6, [r1]
  46              		.loc 1 179 20 view .LVU4
  47 0008 3368     		ldr	r3, [r6]
  48              		.loc 1 179 7 view .LVU5
  49 000a 1BB1     		cbz	r3, .L2
  50              	.LBB2:
ARM GAS  /tmp/ccq5SmfP.s 			page 5


 180:Drivers/lvgl/src/core/lv_obj_class.c ****         const lv_obj_class_t * original_class_p = obj->class_p;
  51              		.loc 1 180 9 is_stmt 1 view .LVU6
  52              	.LVL1:
 181:Drivers/lvgl/src/core/lv_obj_class.c **** 
 182:Drivers/lvgl/src/core/lv_obj_class.c ****         /*Don't let the descendant methods run during constructing the ancestor type*/
 183:Drivers/lvgl/src/core/lv_obj_class.c ****         obj->class_p = obj->class_p->base_class;
  53              		.loc 1 183 9 view .LVU7
  54              		.loc 1 183 22 is_stmt 0 view .LVU8
  55 000c 0B60     		str	r3, [r1]
 184:Drivers/lvgl/src/core/lv_obj_class.c **** 
 185:Drivers/lvgl/src/core/lv_obj_class.c ****         /*Construct the base first*/
 186:Drivers/lvgl/src/core/lv_obj_class.c ****         lv_obj_construct(class_p, obj);
  56              		.loc 1 186 9 is_stmt 1 view .LVU9
  57 000e FFF7F7FF 		bl	lv_obj_construct
  58              	.LVL2:
 187:Drivers/lvgl/src/core/lv_obj_class.c **** 
 188:Drivers/lvgl/src/core/lv_obj_class.c ****         /*Restore the original class*/
 189:Drivers/lvgl/src/core/lv_obj_class.c ****         obj->class_p = original_class_p;
  59              		.loc 1 189 9 view .LVU10
  60              		.loc 1 189 22 is_stmt 0 view .LVU11
  61 0012 2660     		str	r6, [r4]
  62              	.LVL3:
  63              	.L2:
  64              		.loc 1 189 22 view .LVU12
  65              	.LBE2:
 190:Drivers/lvgl/src/core/lv_obj_class.c ****     }
 191:Drivers/lvgl/src/core/lv_obj_class.c **** 
 192:Drivers/lvgl/src/core/lv_obj_class.c ****     if(obj->class_p->constructor_cb) obj->class_p->constructor_cb(class_p, obj);
  66              		.loc 1 192 5 is_stmt 1 view .LVU13
  67              		.loc 1 192 11 is_stmt 0 view .LVU14
  68 0014 2368     		ldr	r3, [r4]
  69              		.loc 1 192 20 view .LVU15
  70 0016 5B68     		ldr	r3, [r3, #4]
  71              		.loc 1 192 7 view .LVU16
  72 0018 13B1     		cbz	r3, .L1
  73              		.loc 1 192 38 is_stmt 1 discriminator 1 view .LVU17
  74 001a 2146     		mov	r1, r4
  75 001c 2846     		mov	r0, r5
  76 001e 9847     		blx	r3
  77              	.LVL4:
  78              	.L1:
 193:Drivers/lvgl/src/core/lv_obj_class.c **** }
  79              		.loc 1 193 1 is_stmt 0 view .LVU18
  80 0020 70BD     		pop	{r4, r5, r6, pc}
  81              		.loc 1 193 1 view .LVU19
  82              		.cfi_endproc
  83              	.LFE176:
  85              		.section	.text.get_instance_size,"ax",%progbits
  86              		.align	1
  87              		.syntax unified
  88              		.thumb
  89              		.thumb_func
  91              	get_instance_size:
  92              	.LVL5:
  93              	.LFB177:
 194:Drivers/lvgl/src/core/lv_obj_class.c **** 
 195:Drivers/lvgl/src/core/lv_obj_class.c **** static uint32_t get_instance_size(const lv_obj_class_t * class_p)
ARM GAS  /tmp/ccq5SmfP.s 			page 6


 196:Drivers/lvgl/src/core/lv_obj_class.c **** {
  94              		.loc 1 196 1 is_stmt 1 view -0
  95              		.cfi_startproc
  96              		@ args = 0, pretend = 0, frame = 0
  97              		@ frame_needed = 0, uses_anonymous_args = 0
  98              		@ link register save eliminated.
 197:Drivers/lvgl/src/core/lv_obj_class.c ****     /*Find a base in which instance size is set*/
 198:Drivers/lvgl/src/core/lv_obj_class.c ****     const lv_obj_class_t * base = class_p;
  99              		.loc 1 198 5 view .LVU21
 199:Drivers/lvgl/src/core/lv_obj_class.c ****     while(base && base->instance_size == 0) base = base->base_class;
 100              		.loc 1 199 5 view .LVU22
 101              		.loc 1 199 10 is_stmt 0 view .LVU23
 102 0000 00E0     		b	.L6
 103              	.LVL6:
 104              	.L8:
 105              		.loc 1 199 45 is_stmt 1 discriminator 3 view .LVU24
 106              		.loc 1 199 50 is_stmt 0 discriminator 3 view .LVU25
 107 0002 0068     		ldr	r0, [r0]
 108              	.LVL7:
 109              	.L6:
 110              		.loc 1 199 16 is_stmt 1 discriminator 1 view .LVU26
 111 0004 20B1     		cbz	r0, .L7
 112              		.loc 1 199 39 is_stmt 0 discriminator 2 view .LVU27
 113 0006 026A     		ldr	r2, [r0, #32]
 114 0008 054B     		ldr	r3, .L11
 115 000a 1340     		ands	r3, r3, r2
 116              		.loc 1 199 16 discriminator 2 view .LVU28
 117 000c 002B     		cmp	r3, #0
 118 000e F8D0     		beq	.L8
 119              	.L7:
 200:Drivers/lvgl/src/core/lv_obj_class.c **** 
 201:Drivers/lvgl/src/core/lv_obj_class.c ****     if(base == NULL) return 0;  /*Never happens: set at least in `lv_obj` class*/
 120              		.loc 1 201 5 is_stmt 1 view .LVU29
 121              		.loc 1 201 7 is_stmt 0 view .LVU30
 122 0010 18B1     		cbz	r0, .L10
 202:Drivers/lvgl/src/core/lv_obj_class.c **** 
 203:Drivers/lvgl/src/core/lv_obj_class.c ****     return base->instance_size;
 123              		.loc 1 203 5 is_stmt 1 view .LVU31
 124              		.loc 1 203 16 is_stmt 0 view .LVU32
 125 0012 006A     		ldr	r0, [r0, #32]
 126              	.LVL8:
 127              		.loc 1 203 16 view .LVU33
 128 0014 C0F30F10 		ubfx	r0, r0, #4, #16
 129 0018 7047     		bx	lr
 130              	.LVL9:
 131              	.L10:
 201:Drivers/lvgl/src/core/lv_obj_class.c **** 
 132              		.loc 1 201 29 discriminator 1 view .LVU34
 133 001a 0020     		movs	r0, #0
 134              	.LVL10:
 204:Drivers/lvgl/src/core/lv_obj_class.c **** }
 135              		.loc 1 204 1 view .LVU35
 136 001c 7047     		bx	lr
 137              	.L12:
 138 001e 00BF     		.align	2
 139              	.L11:
 140 0020 F0FF0F00 		.word	1048560
ARM GAS  /tmp/ccq5SmfP.s 			page 7


 141              		.cfi_endproc
 142              	.LFE177:
 144              		.section	.text.lv_obj_class_create_obj,"ax",%progbits
 145              		.align	1
 146              		.global	lv_obj_class_create_obj
 147              		.syntax unified
 148              		.thumb
 149              		.thumb_func
 151              	lv_obj_class_create_obj:
 152              	.LVL11:
 153              	.LFB171:
  48:Drivers/lvgl/src/core/lv_obj_class.c ****     LV_TRACE_OBJ_CREATE("Creating object with %p class on %p parent", (void *)class_p, (void *)pare
 154              		.loc 1 48 1 is_stmt 1 view -0
 155              		.cfi_startproc
 156              		@ args = 0, pretend = 0, frame = 0
 157              		@ frame_needed = 0, uses_anonymous_args = 0
  48:Drivers/lvgl/src/core/lv_obj_class.c ****     LV_TRACE_OBJ_CREATE("Creating object with %p class on %p parent", (void *)class_p, (void *)pare
 158              		.loc 1 48 1 is_stmt 0 view .LVU37
 159 0000 70B5     		push	{r4, r5, r6, lr}
 160              	.LCFI1:
 161              		.cfi_def_cfa_offset 16
 162              		.cfi_offset 4, -16
 163              		.cfi_offset 5, -12
 164              		.cfi_offset 6, -8
 165              		.cfi_offset 14, -4
 166 0002 0646     		mov	r6, r0
 167 0004 0C46     		mov	r4, r1
  49:Drivers/lvgl/src/core/lv_obj_class.c ****     uint32_t s = get_instance_size(class_p);
 168              		.loc 1 49 103 is_stmt 1 view .LVU38
  50:Drivers/lvgl/src/core/lv_obj_class.c ****     lv_obj_t * obj = lv_malloc_zeroed(s);
 169              		.loc 1 50 5 view .LVU39
  50:Drivers/lvgl/src/core/lv_obj_class.c ****     lv_obj_t * obj = lv_malloc_zeroed(s);
 170              		.loc 1 50 18 is_stmt 0 view .LVU40
 171 0006 FFF7FEFF 		bl	get_instance_size
 172              	.LVL12:
  51:Drivers/lvgl/src/core/lv_obj_class.c ****     if(obj == NULL) return NULL;
 173              		.loc 1 51 5 is_stmt 1 view .LVU41
  51:Drivers/lvgl/src/core/lv_obj_class.c ****     if(obj == NULL) return NULL;
 174              		.loc 1 51 22 is_stmt 0 view .LVU42
 175 000a FFF7FEFF 		bl	lv_malloc_zeroed
 176              	.LVL13:
  52:Drivers/lvgl/src/core/lv_obj_class.c ****     obj->class_p = class_p;
 177              		.loc 1 52 5 is_stmt 1 view .LVU43
  52:Drivers/lvgl/src/core/lv_obj_class.c ****     obj->class_p = class_p;
 178              		.loc 1 52 7 is_stmt 0 view .LVU44
 179 000e 0546     		mov	r5, r0
 180 0010 C0B1     		cbz	r0, .L13
  53:Drivers/lvgl/src/core/lv_obj_class.c ****     obj->parent = parent;
 181              		.loc 1 53 5 is_stmt 1 view .LVU45
  53:Drivers/lvgl/src/core/lv_obj_class.c ****     obj->parent = parent;
 182              		.loc 1 53 18 is_stmt 0 view .LVU46
 183 0012 0660     		str	r6, [r0]
  54:Drivers/lvgl/src/core/lv_obj_class.c **** 
 184              		.loc 1 54 5 is_stmt 1 view .LVU47
  54:Drivers/lvgl/src/core/lv_obj_class.c **** 
 185              		.loc 1 54 17 is_stmt 0 view .LVU48
 186 0014 4460     		str	r4, [r0, #4]
ARM GAS  /tmp/ccq5SmfP.s 			page 8


  57:Drivers/lvgl/src/core/lv_obj_class.c ****         LV_TRACE_OBJ_CREATE("creating a screen");
 187              		.loc 1 57 5 is_stmt 1 view .LVU49
  57:Drivers/lvgl/src/core/lv_obj_class.c ****         LV_TRACE_OBJ_CREATE("creating a screen");
 188              		.loc 1 57 7 is_stmt 0 view .LVU50
 189 0016 BCB1     		cbz	r4, .L22
  89:Drivers/lvgl/src/core/lv_obj_class.c ****         LV_ASSERT_OBJ(parent, MY_CLASS);
 190              		.loc 1 89 54 is_stmt 1 view .LVU51
  90:Drivers/lvgl/src/core/lv_obj_class.c ****         if(parent->spec_attr == NULL) {
 191              		.loc 1 90 9 view .LVU52
  90:Drivers/lvgl/src/core/lv_obj_class.c ****         if(parent->spec_attr == NULL) {
 192              		.loc 1 90 9 view .LVU53
  90:Drivers/lvgl/src/core/lv_obj_class.c ****         if(parent->spec_attr == NULL) {
 193              		.loc 1 90 9 discriminator 2 view .LVU54
  90:Drivers/lvgl/src/core/lv_obj_class.c ****         if(parent->spec_attr == NULL) {
 194              		.loc 1 90 40 discriminator 2 view .LVU55
  91:Drivers/lvgl/src/core/lv_obj_class.c ****             lv_obj_allocate_spec_attr(parent);
 195              		.loc 1 91 9 view .LVU56
  91:Drivers/lvgl/src/core/lv_obj_class.c ****             lv_obj_allocate_spec_attr(parent);
 196              		.loc 1 91 18 is_stmt 0 view .LVU57
 197 0018 A368     		ldr	r3, [r4, #8]
  91:Drivers/lvgl/src/core/lv_obj_class.c ****             lv_obj_allocate_spec_attr(parent);
 198              		.loc 1 91 11 view .LVU58
 199 001a 002B     		cmp	r3, #0
 200 001c 43D0     		beq	.L23
 201              	.LVL14:
 202              	.L20:
  95:Drivers/lvgl/src/core/lv_obj_class.c ****         parent->spec_attr->children = lv_realloc(parent->spec_attr->children,
 203              		.loc 1 95 9 is_stmt 1 view .LVU59
  95:Drivers/lvgl/src/core/lv_obj_class.c ****         parent->spec_attr->children = lv_realloc(parent->spec_attr->children,
 204              		.loc 1 95 15 is_stmt 0 view .LVU60
 205 001e A268     		ldr	r2, [r4, #8]
  95:Drivers/lvgl/src/core/lv_obj_class.c ****         parent->spec_attr->children = lv_realloc(parent->spec_attr->children,
 206              		.loc 1 95 26 view .LVU61
 207 0020 138E     		ldrh	r3, [r2, #48]
  95:Drivers/lvgl/src/core/lv_obj_class.c ****         parent->spec_attr->children = lv_realloc(parent->spec_attr->children,
 208              		.loc 1 95 37 view .LVU62
 209 0022 0133     		adds	r3, r3, #1
 210 0024 1386     		strh	r3, [r2, #48]	@ movhi
  96:Drivers/lvgl/src/core/lv_obj_class.c ****                                                  sizeof(lv_obj_t *) * parent->spec_attr->child_cnt)
 211              		.loc 1 96 9 is_stmt 1 view .LVU63
  96:Drivers/lvgl/src/core/lv_obj_class.c ****                                                  sizeof(lv_obj_t *) * parent->spec_attr->child_cnt)
 212              		.loc 1 96 56 is_stmt 0 view .LVU64
 213 0026 A668     		ldr	r6, [r4, #8]
 214              	.LVL15:
  97:Drivers/lvgl/src/core/lv_obj_class.c ****         parent->spec_attr->children[parent->spec_attr->child_cnt - 1] = obj;
 215              		.loc 1 97 88 view .LVU65
 216 0028 318E     		ldrh	r1, [r6, #48]
  96:Drivers/lvgl/src/core/lv_obj_class.c ****                                                  sizeof(lv_obj_t *) * parent->spec_attr->child_cnt)
 217              		.loc 1 96 39 view .LVU66
 218 002a 8900     		lsls	r1, r1, #2
 219 002c 3068     		ldr	r0, [r6]
 220 002e FFF7FEFF 		bl	lv_realloc
 221              	.LVL16:
  96:Drivers/lvgl/src/core/lv_obj_class.c ****                                                  sizeof(lv_obj_t *) * parent->spec_attr->child_cnt)
 222              		.loc 1 96 37 discriminator 1 view .LVU67
 223 0032 3060     		str	r0, [r6]
  98:Drivers/lvgl/src/core/lv_obj_class.c ****     }
ARM GAS  /tmp/ccq5SmfP.s 			page 9


 224              		.loc 1 98 9 is_stmt 1 view .LVU68
  98:Drivers/lvgl/src/core/lv_obj_class.c ****     }
 225              		.loc 1 98 15 is_stmt 0 view .LVU69
 226 0034 A368     		ldr	r3, [r4, #8]
  98:Drivers/lvgl/src/core/lv_obj_class.c ****     }
 227              		.loc 1 98 26 view .LVU70
 228 0036 1A68     		ldr	r2, [r3]
  98:Drivers/lvgl/src/core/lv_obj_class.c ****     }
 229              		.loc 1 98 54 view .LVU71
 230 0038 198E     		ldrh	r1, [r3, #48]
  98:Drivers/lvgl/src/core/lv_obj_class.c ****     }
 231              		.loc 1 98 36 view .LVU72
 232 003a 6FF04043 		mvn	r3, #-1073741824
 233 003e 0B44     		add	r3, r3, r1
  98:Drivers/lvgl/src/core/lv_obj_class.c ****     }
 234              		.loc 1 98 71 view .LVU73
 235 0040 42F82350 		str	r5, [r2, r3, lsl #2]
 236              	.LVL17:
 237              	.L13:
 102:Drivers/lvgl/src/core/lv_obj_class.c **** 
 238              		.loc 1 102 1 view .LVU74
 239 0044 2846     		mov	r0, r5
 240 0046 70BD     		pop	{r4, r5, r6, pc}
 241              	.LVL18:
 242              	.L22:
 243              	.LBB3:
  58:Drivers/lvgl/src/core/lv_obj_class.c ****         lv_display_t * disp = lv_display_get_default();
 244              		.loc 1 58 49 is_stmt 1 view .LVU75
  59:Drivers/lvgl/src/core/lv_obj_class.c ****         if(!disp) {
 245              		.loc 1 59 9 view .LVU76
  59:Drivers/lvgl/src/core/lv_obj_class.c ****         if(!disp) {
 246              		.loc 1 59 31 is_stmt 0 view .LVU77
 247 0048 FFF7FEFF 		bl	lv_display_get_default
 248              	.LVL19:
  60:Drivers/lvgl/src/core/lv_obj_class.c ****             LV_LOG_WARN("No display created yet. No place to assign the new screen");
 249              		.loc 1 60 9 is_stmt 1 view .LVU78
  60:Drivers/lvgl/src/core/lv_obj_class.c ****             LV_LOG_WARN("No display created yet. No place to assign the new screen");
 250              		.loc 1 60 11 is_stmt 0 view .LVU79
 251 004c 0446     		mov	r4, r0
 252              	.LVL20:
  60:Drivers/lvgl/src/core/lv_obj_class.c ****             LV_LOG_WARN("No display created yet. No place to assign the new screen");
 253              		.loc 1 60 11 view .LVU80
 254 004e 00B3     		cbz	r0, .L24
  66:Drivers/lvgl/src/core/lv_obj_class.c ****             disp->screen_cnt = 0;
 255              		.loc 1 66 9 is_stmt 1 view .LVU81
  66:Drivers/lvgl/src/core/lv_obj_class.c ****             disp->screen_cnt = 0;
 256              		.loc 1 66 16 is_stmt 0 view .LVU82
 257 0050 D0F8B802 		ldr	r0, [r0, #696]
 258              	.LVL21:
  66:Drivers/lvgl/src/core/lv_obj_class.c ****             disp->screen_cnt = 0;
 259              		.loc 1 66 11 view .LVU83
 260 0054 10B3     		cbz	r0, .L25
 261              	.L17:
  70:Drivers/lvgl/src/core/lv_obj_class.c ****         LV_ASSERT_MALLOC(screens);
 262              		.loc 1 70 9 is_stmt 1 view .LVU84
  70:Drivers/lvgl/src/core/lv_obj_class.c ****         LV_ASSERT_MALLOC(screens);
 263              		.loc 1 70 83 is_stmt 0 view .LVU85
ARM GAS  /tmp/ccq5SmfP.s 			page 10


 264 0056 D4F8D412 		ldr	r1, [r4, #724]
  70:Drivers/lvgl/src/core/lv_obj_class.c ****         LV_ASSERT_MALLOC(screens);
 265              		.loc 1 70 96 view .LVU86
 266 005a 0131     		adds	r1, r1, #1
  70:Drivers/lvgl/src/core/lv_obj_class.c ****         LV_ASSERT_MALLOC(screens);
 267              		.loc 1 70 31 view .LVU87
 268 005c 8900     		lsls	r1, r1, #2
 269 005e FFF7FEFF 		bl	lv_realloc
 270              	.LVL22:
  71:Drivers/lvgl/src/core/lv_obj_class.c ****         if(screens == NULL) {
 271              		.loc 1 71 9 is_stmt 1 view .LVU88
  71:Drivers/lvgl/src/core/lv_obj_class.c ****         if(screens == NULL) {
 272              		.loc 1 71 9 view .LVU89
 273 0062 F8B1     		cbz	r0, .L19
  71:Drivers/lvgl/src/core/lv_obj_class.c ****         if(screens == NULL) {
 274              		.loc 1 71 9 discriminator 2 view .LVU90
  71:Drivers/lvgl/src/core/lv_obj_class.c ****         if(screens == NULL) {
 275              		.loc 1 71 34 discriminator 2 view .LVU91
  72:Drivers/lvgl/src/core/lv_obj_class.c ****             lv_free(obj);
 276              		.loc 1 72 9 view .LVU92
  77:Drivers/lvgl/src/core/lv_obj_class.c ****         disp->screens = screens;
 277              		.loc 1 77 9 view .LVU93
  77:Drivers/lvgl/src/core/lv_obj_class.c ****         disp->screens = screens;
 278              		.loc 1 77 13 is_stmt 0 view .LVU94
 279 0064 D4F8D422 		ldr	r2, [r4, #724]
  77:Drivers/lvgl/src/core/lv_obj_class.c ****         disp->screens = screens;
 280              		.loc 1 77 25 view .LVU95
 281 0068 511C     		adds	r1, r2, #1
 282 006a C4F8D412 		str	r1, [r4, #724]
  78:Drivers/lvgl/src/core/lv_obj_class.c ****         disp->screens[disp->screen_cnt - 1] = obj;
 283              		.loc 1 78 9 is_stmt 1 view .LVU96
  78:Drivers/lvgl/src/core/lv_obj_class.c ****         disp->screens[disp->screen_cnt - 1] = obj;
 284              		.loc 1 78 23 is_stmt 0 view .LVU97
 285 006e C4F8B802 		str	r0, [r4, #696]
  79:Drivers/lvgl/src/core/lv_obj_class.c **** 
 286              		.loc 1 79 9 is_stmt 1 view .LVU98
  79:Drivers/lvgl/src/core/lv_obj_class.c **** 
 287              		.loc 1 79 45 is_stmt 0 view .LVU99
 288 0072 40F82250 		str	r5, [r0, r2, lsl #2]
  82:Drivers/lvgl/src/core/lv_obj_class.c ****         obj->coords.y1 = 0;
 289              		.loc 1 82 9 is_stmt 1 view .LVU100
  82:Drivers/lvgl/src/core/lv_obj_class.c ****         obj->coords.y1 = 0;
 290              		.loc 1 82 24 is_stmt 0 view .LVU101
 291 0076 0024     		movs	r4, #0
 292              	.LVL23:
  82:Drivers/lvgl/src/core/lv_obj_class.c ****         obj->coords.y1 = 0;
 293              		.loc 1 82 24 view .LVU102
 294 0078 6C61     		str	r4, [r5, #20]
  83:Drivers/lvgl/src/core/lv_obj_class.c ****         obj->coords.x2 = lv_display_get_horizontal_resolution(NULL) - 1;
 295              		.loc 1 83 9 is_stmt 1 view .LVU103
  83:Drivers/lvgl/src/core/lv_obj_class.c ****         obj->coords.x2 = lv_display_get_horizontal_resolution(NULL) - 1;
 296              		.loc 1 83 24 is_stmt 0 view .LVU104
 297 007a AC61     		str	r4, [r5, #24]
  84:Drivers/lvgl/src/core/lv_obj_class.c ****         obj->coords.y2 = lv_display_get_vertical_resolution(NULL) - 1;
 298              		.loc 1 84 9 is_stmt 1 view .LVU105
  84:Drivers/lvgl/src/core/lv_obj_class.c ****         obj->coords.y2 = lv_display_get_vertical_resolution(NULL) - 1;
 299              		.loc 1 84 26 is_stmt 0 view .LVU106
ARM GAS  /tmp/ccq5SmfP.s 			page 11


 300 007c 2046     		mov	r0, r4
 301              	.LVL24:
  84:Drivers/lvgl/src/core/lv_obj_class.c ****         obj->coords.y2 = lv_display_get_vertical_resolution(NULL) - 1;
 302              		.loc 1 84 26 view .LVU107
 303 007e FFF7FEFF 		bl	lv_display_get_horizontal_resolution
 304              	.LVL25:
  84:Drivers/lvgl/src/core/lv_obj_class.c ****         obj->coords.y2 = lv_display_get_vertical_resolution(NULL) - 1;
 305              		.loc 1 84 69 discriminator 1 view .LVU108
 306 0082 0138     		subs	r0, r0, #1
  84:Drivers/lvgl/src/core/lv_obj_class.c ****         obj->coords.y2 = lv_display_get_vertical_resolution(NULL) - 1;
 307              		.loc 1 84 24 discriminator 1 view .LVU109
 308 0084 E861     		str	r0, [r5, #28]
  85:Drivers/lvgl/src/core/lv_obj_class.c ****     }
 309              		.loc 1 85 9 is_stmt 1 view .LVU110
  85:Drivers/lvgl/src/core/lv_obj_class.c ****     }
 310              		.loc 1 85 26 is_stmt 0 view .LVU111
 311 0086 2046     		mov	r0, r4
 312 0088 FFF7FEFF 		bl	lv_display_get_vertical_resolution
 313              	.LVL26:
  85:Drivers/lvgl/src/core/lv_obj_class.c ****     }
 314              		.loc 1 85 67 discriminator 1 view .LVU112
 315 008c 0138     		subs	r0, r0, #1
  85:Drivers/lvgl/src/core/lv_obj_class.c ****     }
 316              		.loc 1 85 24 discriminator 1 view .LVU113
 317 008e 2862     		str	r0, [r5, #32]
 318              	.LBE3:
 319 0090 D8E7     		b	.L13
 320              	.LVL27:
 321              	.L24:
 322              	.LBB4:
  61:Drivers/lvgl/src/core/lv_obj_class.c ****             lv_free(obj);
 323              		.loc 1 61 13 is_stmt 1 view .LVU114
  61:Drivers/lvgl/src/core/lv_obj_class.c ****             lv_free(obj);
 324              		.loc 1 61 13 view .LVU115
  61:Drivers/lvgl/src/core/lv_obj_class.c ****             lv_free(obj);
 325              		.loc 1 61 13 view .LVU116
  62:Drivers/lvgl/src/core/lv_obj_class.c ****             return NULL;
 326              		.loc 1 62 13 view .LVU117
 327 0092 2846     		mov	r0, r5
 328              	.LVL28:
  62:Drivers/lvgl/src/core/lv_obj_class.c ****             return NULL;
 329              		.loc 1 62 13 is_stmt 0 view .LVU118
 330 0094 FFF7FEFF 		bl	lv_free
 331              	.LVL29:
  63:Drivers/lvgl/src/core/lv_obj_class.c ****         }
 332              		.loc 1 63 13 is_stmt 1 view .LVU119
  63:Drivers/lvgl/src/core/lv_obj_class.c ****         }
 333              		.loc 1 63 20 is_stmt 0 view .LVU120
 334 0098 2546     		mov	r5, r4
 335              	.LVL30:
  63:Drivers/lvgl/src/core/lv_obj_class.c ****         }
 336              		.loc 1 63 20 view .LVU121
 337 009a D3E7     		b	.L13
 338              	.LVL31:
 339              	.L25:
  67:Drivers/lvgl/src/core/lv_obj_class.c ****         }
 340              		.loc 1 67 13 is_stmt 1 view .LVU122
ARM GAS  /tmp/ccq5SmfP.s 			page 12


  67:Drivers/lvgl/src/core/lv_obj_class.c ****         }
 341              		.loc 1 67 30 is_stmt 0 view .LVU123
 342 009c 0023     		movs	r3, #0
 343 009e C4F8D432 		str	r3, [r4, #724]
 344 00a2 D8E7     		b	.L17
 345              	.LVL32:
 346              	.L19:
  71:Drivers/lvgl/src/core/lv_obj_class.c ****         if(screens == NULL) {
 347              		.loc 1 71 9 is_stmt 1 discriminator 1 view .LVU124
  71:Drivers/lvgl/src/core/lv_obj_class.c ****         if(screens == NULL) {
 348              		.loc 1 71 9 discriminator 1 view .LVU125
  71:Drivers/lvgl/src/core/lv_obj_class.c ****         if(screens == NULL) {
 349              		.loc 1 71 9 discriminator 1 view .LVU126
  71:Drivers/lvgl/src/core/lv_obj_class.c ****         if(screens == NULL) {
 350              		.loc 1 71 9 discriminator 1 view .LVU127
  71:Drivers/lvgl/src/core/lv_obj_class.c ****         if(screens == NULL) {
 351              		.loc 1 71 9 discriminator 1 view .LVU128
 352 00a4 FEE7     		b	.L19
 353              	.LVL33:
 354              	.L23:
  71:Drivers/lvgl/src/core/lv_obj_class.c ****         if(screens == NULL) {
 355              		.loc 1 71 9 is_stmt 0 discriminator 1 view .LVU129
 356              	.LBE4:
  92:Drivers/lvgl/src/core/lv_obj_class.c ****         }
 357              		.loc 1 92 13 is_stmt 1 view .LVU130
 358 00a6 2046     		mov	r0, r4
 359              	.LVL34:
  92:Drivers/lvgl/src/core/lv_obj_class.c ****         }
 360              		.loc 1 92 13 is_stmt 0 view .LVU131
 361 00a8 FFF7FEFF 		bl	lv_obj_allocate_spec_attr
 362              	.LVL35:
 363 00ac B7E7     		b	.L20
 364              		.cfi_endproc
 365              	.LFE171:
 367              		.section	.text.lv_obj_destruct,"ax",%progbits
 368              		.align	1
 369              		.global	lv_obj_destruct
 370              		.syntax unified
 371              		.thumb
 372              		.thumb_func
 374              	lv_obj_destruct:
 375              	.LVL36:
 376              	.LFB173:
 137:Drivers/lvgl/src/core/lv_obj_class.c ****     if(obj->class_p->destructor_cb) obj->class_p->destructor_cb(obj->class_p, obj);
 377              		.loc 1 137 1 is_stmt 1 view -0
 378              		.cfi_startproc
 379              		@ args = 0, pretend = 0, frame = 0
 380              		@ frame_needed = 0, uses_anonymous_args = 0
 137:Drivers/lvgl/src/core/lv_obj_class.c ****     if(obj->class_p->destructor_cb) obj->class_p->destructor_cb(obj->class_p, obj);
 381              		.loc 1 137 1 is_stmt 0 view .LVU133
 382 0000 10B5     		push	{r4, lr}
 383              	.LCFI2:
 384              		.cfi_def_cfa_offset 8
 385              		.cfi_offset 4, -8
 386              		.cfi_offset 14, -4
 387 0002 0446     		mov	r4, r0
 138:Drivers/lvgl/src/core/lv_obj_class.c **** 
ARM GAS  /tmp/ccq5SmfP.s 			page 13


 388              		.loc 1 138 5 is_stmt 1 view .LVU134
 138:Drivers/lvgl/src/core/lv_obj_class.c **** 
 389              		.loc 1 138 11 is_stmt 0 view .LVU135
 390 0004 0068     		ldr	r0, [r0]
 391              	.LVL37:
 138:Drivers/lvgl/src/core/lv_obj_class.c **** 
 392              		.loc 1 138 20 view .LVU136
 393 0006 8368     		ldr	r3, [r0, #8]
 138:Drivers/lvgl/src/core/lv_obj_class.c **** 
 394              		.loc 1 138 7 view .LVU137
 395 0008 0BB1     		cbz	r3, .L27
 138:Drivers/lvgl/src/core/lv_obj_class.c **** 
 396              		.loc 1 138 37 is_stmt 1 discriminator 1 view .LVU138
 397 000a 2146     		mov	r1, r4
 398 000c 9847     		blx	r3
 399              	.LVL38:
 400              	.L27:
 140:Drivers/lvgl/src/core/lv_obj_class.c ****         /*Don't let the descendant methods run during destructing the ancestor type*/
 401              		.loc 1 140 5 view .LVU139
 140:Drivers/lvgl/src/core/lv_obj_class.c ****         /*Don't let the descendant methods run during destructing the ancestor type*/
 402              		.loc 1 140 11 is_stmt 0 view .LVU140
 403 000e 2368     		ldr	r3, [r4]
 140:Drivers/lvgl/src/core/lv_obj_class.c ****         /*Don't let the descendant methods run during destructing the ancestor type*/
 404              		.loc 1 140 20 view .LVU141
 405 0010 1B68     		ldr	r3, [r3]
 140:Drivers/lvgl/src/core/lv_obj_class.c ****         /*Don't let the descendant methods run during destructing the ancestor type*/
 406              		.loc 1 140 7 view .LVU142
 407 0012 1BB1     		cbz	r3, .L26
 142:Drivers/lvgl/src/core/lv_obj_class.c **** 
 408              		.loc 1 142 9 is_stmt 1 view .LVU143
 142:Drivers/lvgl/src/core/lv_obj_class.c **** 
 409              		.loc 1 142 22 is_stmt 0 view .LVU144
 410 0014 2360     		str	r3, [r4]
 145:Drivers/lvgl/src/core/lv_obj_class.c ****     }
 411              		.loc 1 145 9 is_stmt 1 view .LVU145
 412 0016 2046     		mov	r0, r4
 413 0018 FFF7FEFF 		bl	lv_obj_destruct
 414              	.LVL39:
 415              	.L26:
 147:Drivers/lvgl/src/core/lv_obj_class.c **** 
 416              		.loc 1 147 1 is_stmt 0 view .LVU146
 417 001c 10BD     		pop	{r4, pc}
 147:Drivers/lvgl/src/core/lv_obj_class.c **** 
 418              		.loc 1 147 1 view .LVU147
 419              		.cfi_endproc
 420              	.LFE173:
 422              		.section	.text.lv_obj_is_editable,"ax",%progbits
 423              		.align	1
 424              		.global	lv_obj_is_editable
 425              		.syntax unified
 426              		.thumb
 427              		.thumb_func
 429              	lv_obj_is_editable:
 430              	.LVL40:
 431              	.LFB174:
 150:Drivers/lvgl/src/core/lv_obj_class.c ****     const lv_obj_class_t * class_p = obj->class_p;
 432              		.loc 1 150 1 is_stmt 1 view -0
ARM GAS  /tmp/ccq5SmfP.s 			page 14


 433              		.cfi_startproc
 434              		@ args = 0, pretend = 0, frame = 0
 435              		@ frame_needed = 0, uses_anonymous_args = 0
 436              		@ link register save eliminated.
 151:Drivers/lvgl/src/core/lv_obj_class.c **** 
 437              		.loc 1 151 5 view .LVU149
 151:Drivers/lvgl/src/core/lv_obj_class.c **** 
 438              		.loc 1 151 28 is_stmt 0 view .LVU150
 439 0000 0368     		ldr	r3, [r0]
 440              	.LVL41:
 154:Drivers/lvgl/src/core/lv_obj_class.c **** 
 441              		.loc 1 154 5 is_stmt 1 view .LVU151
 154:Drivers/lvgl/src/core/lv_obj_class.c **** 
 442              		.loc 1 154 10 is_stmt 0 view .LVU152
 443 0002 00E0     		b	.L31
 444              	.L33:
 154:Drivers/lvgl/src/core/lv_obj_class.c **** 
 445              		.loc 1 154 74 is_stmt 1 discriminator 3 view .LVU153
 154:Drivers/lvgl/src/core/lv_obj_class.c **** 
 446              		.loc 1 154 82 is_stmt 0 discriminator 3 view .LVU154
 447 0004 1B68     		ldr	r3, [r3]
 448              	.LVL42:
 449              	.L31:
 154:Drivers/lvgl/src/core/lv_obj_class.c **** 
 450              		.loc 1 154 19 is_stmt 1 discriminator 1 view .LVU155
 451 0006 23B1     		cbz	r3, .L32
 154:Drivers/lvgl/src/core/lv_obj_class.c **** 
 452              		.loc 1 154 40 is_stmt 0 discriminator 2 view .LVU156
 453 0008 93F82020 		ldrb	r2, [r3, #32]	@ zero_extendqisi2
 154:Drivers/lvgl/src/core/lv_obj_class.c **** 
 454              		.loc 1 154 19 discriminator 2 view .LVU157
 455 000c 12F0030F 		tst	r2, #3
 456 0010 F8D0     		beq	.L33
 457              	.L32:
 156:Drivers/lvgl/src/core/lv_obj_class.c **** 
 458              		.loc 1 156 5 is_stmt 1 view .LVU158
 156:Drivers/lvgl/src/core/lv_obj_class.c **** 
 459              		.loc 1 156 7 is_stmt 0 view .LVU159
 460 0012 43B1     		cbz	r3, .L35
 158:Drivers/lvgl/src/core/lv_obj_class.c **** }
 461              		.loc 1 158 5 is_stmt 1 view .LVU160
 158:Drivers/lvgl/src/core/lv_obj_class.c **** }
 462              		.loc 1 158 30 is_stmt 0 view .LVU161
 463 0014 93F82000 		ldrb	r0, [r3, #32]	@ zero_extendqisi2
 464              	.LVL43:
 158:Drivers/lvgl/src/core/lv_obj_class.c **** }
 465              		.loc 1 158 5 view .LVU162
 466 0018 00F00300 		and	r0, r0, #3
 158:Drivers/lvgl/src/core/lv_obj_class.c **** }
 467              		.loc 1 158 30 view .LVU163
 468 001c 0128     		cmp	r0, #1
 469 001e 14BF     		ite	ne
 470 0020 0020     		movne	r0, #0
 471 0022 0120     		moveq	r0, #1
 472 0024 7047     		bx	lr
 473              	.LVL44:
 474              	.L35:
ARM GAS  /tmp/ccq5SmfP.s 			page 15


 156:Drivers/lvgl/src/core/lv_obj_class.c **** 
 475              		.loc 1 156 32 discriminator 1 view .LVU164
 476 0026 0020     		movs	r0, #0
 477              	.LVL45:
 159:Drivers/lvgl/src/core/lv_obj_class.c **** 
 478              		.loc 1 159 1 view .LVU165
 479 0028 7047     		bx	lr
 480              		.cfi_endproc
 481              	.LFE174:
 483              		.section	.text.lv_obj_is_group_def,"ax",%progbits
 484              		.align	1
 485              		.global	lv_obj_is_group_def
 486              		.syntax unified
 487              		.thumb
 488              		.thumb_func
 490              	lv_obj_is_group_def:
 491              	.LVL46:
 492              	.LFB175:
 162:Drivers/lvgl/src/core/lv_obj_class.c ****     const lv_obj_class_t * class_p = obj->class_p;
 493              		.loc 1 162 1 is_stmt 1 view -0
 494              		.cfi_startproc
 495              		@ args = 0, pretend = 0, frame = 0
 496              		@ frame_needed = 0, uses_anonymous_args = 0
 497              		@ link register save eliminated.
 163:Drivers/lvgl/src/core/lv_obj_class.c **** 
 498              		.loc 1 163 5 view .LVU167
 163:Drivers/lvgl/src/core/lv_obj_class.c **** 
 499              		.loc 1 163 28 is_stmt 0 view .LVU168
 500 0000 0368     		ldr	r3, [r0]
 501              	.LVL47:
 166:Drivers/lvgl/src/core/lv_obj_class.c **** 
 502              		.loc 1 166 5 is_stmt 1 view .LVU169
 166:Drivers/lvgl/src/core/lv_obj_class.c **** 
 503              		.loc 1 166 10 is_stmt 0 view .LVU170
 504 0002 00E0     		b	.L37
 505              	.L39:
 166:Drivers/lvgl/src/core/lv_obj_class.c **** 
 506              		.loc 1 166 76 is_stmt 1 discriminator 3 view .LVU171
 166:Drivers/lvgl/src/core/lv_obj_class.c **** 
 507              		.loc 1 166 84 is_stmt 0 discriminator 3 view .LVU172
 508 0004 1B68     		ldr	r3, [r3]
 509              	.LVL48:
 510              	.L37:
 166:Drivers/lvgl/src/core/lv_obj_class.c **** 
 511              		.loc 1 166 19 is_stmt 1 discriminator 1 view .LVU173
 512 0006 23B1     		cbz	r3, .L38
 166:Drivers/lvgl/src/core/lv_obj_class.c **** 
 513              		.loc 1 166 41 is_stmt 0 discriminator 2 view .LVU174
 514 0008 93F82020 		ldrb	r2, [r3, #32]	@ zero_extendqisi2
 166:Drivers/lvgl/src/core/lv_obj_class.c **** 
 515              		.loc 1 166 19 discriminator 2 view .LVU175
 516 000c 12F00C0F 		tst	r2, #12
 517 0010 F8D0     		beq	.L39
 518              	.L38:
 168:Drivers/lvgl/src/core/lv_obj_class.c **** 
 519              		.loc 1 168 5 is_stmt 1 view .LVU176
 168:Drivers/lvgl/src/core/lv_obj_class.c **** 
ARM GAS  /tmp/ccq5SmfP.s 			page 16


 520              		.loc 1 168 7 is_stmt 0 view .LVU177
 521 0012 43B1     		cbz	r3, .L41
 170:Drivers/lvgl/src/core/lv_obj_class.c **** }
 522              		.loc 1 170 5 is_stmt 1 view .LVU178
 170:Drivers/lvgl/src/core/lv_obj_class.c **** }
 523              		.loc 1 170 31 is_stmt 0 view .LVU179
 524 0014 93F82000 		ldrb	r0, [r3, #32]	@ zero_extendqisi2
 525              	.LVL49:
 170:Drivers/lvgl/src/core/lv_obj_class.c **** }
 526              		.loc 1 170 5 view .LVU180
 527 0018 00F00C00 		and	r0, r0, #12
 170:Drivers/lvgl/src/core/lv_obj_class.c **** }
 528              		.loc 1 170 31 view .LVU181
 529 001c 0428     		cmp	r0, #4
 530 001e 14BF     		ite	ne
 531 0020 0020     		movne	r0, #0
 532 0022 0120     		moveq	r0, #1
 533 0024 7047     		bx	lr
 534              	.LVL50:
 535              	.L41:
 168:Drivers/lvgl/src/core/lv_obj_class.c **** 
 536              		.loc 1 168 32 discriminator 1 view .LVU182
 537 0026 0020     		movs	r0, #0
 538              	.LVL51:
 171:Drivers/lvgl/src/core/lv_obj_class.c **** 
 539              		.loc 1 171 1 view .LVU183
 540 0028 7047     		bx	lr
 541              		.cfi_endproc
 542              	.LFE175:
 544              		.section	.text.lv_obj_class_init_obj,"ax",%progbits
 545              		.align	1
 546              		.global	lv_obj_class_init_obj
 547              		.syntax unified
 548              		.thumb
 549              		.thumb_func
 551              	lv_obj_class_init_obj:
 552              	.LVL52:
 553              	.LFB172:
 105:Drivers/lvgl/src/core/lv_obj_class.c ****     if(obj == NULL) return;
 554              		.loc 1 105 1 is_stmt 1 view -0
 555              		.cfi_startproc
 556              		@ args = 0, pretend = 0, frame = 0
 557              		@ frame_needed = 0, uses_anonymous_args = 0
 106:Drivers/lvgl/src/core/lv_obj_class.c **** 
 558              		.loc 1 106 5 view .LVU185
 106:Drivers/lvgl/src/core/lv_obj_class.c **** 
 559              		.loc 1 106 7 is_stmt 0 view .LVU186
 560 0000 C0B3     		cbz	r0, .L46
 105:Drivers/lvgl/src/core/lv_obj_class.c ****     if(obj == NULL) return;
 561              		.loc 1 105 1 view .LVU187
 562 0002 38B5     		push	{r3, r4, r5, lr}
 563              	.LCFI3:
 564              		.cfi_def_cfa_offset 16
 565              		.cfi_offset 3, -16
 566              		.cfi_offset 4, -12
 567              		.cfi_offset 5, -8
 568              		.cfi_offset 14, -4
ARM GAS  /tmp/ccq5SmfP.s 			page 17


 569 0004 0446     		mov	r4, r0
 108:Drivers/lvgl/src/core/lv_obj_class.c ****     lv_obj_enable_style_refresh(false);
 570              		.loc 1 108 5 is_stmt 1 view .LVU188
 571 0006 FFF7FEFF 		bl	lv_obj_mark_layout_as_dirty
 572              	.LVL53:
 109:Drivers/lvgl/src/core/lv_obj_class.c **** 
 573              		.loc 1 109 5 view .LVU189
 574 000a 0020     		movs	r0, #0
 575 000c FFF7FEFF 		bl	lv_obj_enable_style_refresh
 576              	.LVL54:
 111:Drivers/lvgl/src/core/lv_obj_class.c ****     lv_obj_construct(obj->class_p, obj);
 577              		.loc 1 111 5 view .LVU190
 578 0010 2046     		mov	r0, r4
 579 0012 FFF7FEFF 		bl	lv_theme_apply
 580              	.LVL55:
 112:Drivers/lvgl/src/core/lv_obj_class.c **** 
 581              		.loc 1 112 5 view .LVU191
 582 0016 2146     		mov	r1, r4
 583 0018 2068     		ldr	r0, [r4]
 584 001a FFF7FEFF 		bl	lv_obj_construct
 585              	.LVL56:
 114:Drivers/lvgl/src/core/lv_obj_class.c ****     lv_obj_refresh_style(obj, LV_PART_ANY, LV_STYLE_PROP_ANY);
 586              		.loc 1 114 5 view .LVU192
 587 001e 0120     		movs	r0, #1
 588 0020 FFF7FEFF 		bl	lv_obj_enable_style_refresh
 589              	.LVL57:
 115:Drivers/lvgl/src/core/lv_obj_class.c **** 
 590              		.loc 1 115 5 view .LVU193
 591 0024 FF22     		movs	r2, #255
 592 0026 4FF47021 		mov	r1, #983040
 593 002a 2046     		mov	r0, r4
 594 002c FFF7FEFF 		bl	lv_obj_refresh_style
 595              	.LVL58:
 117:Drivers/lvgl/src/core/lv_obj_class.c **** 
 596              		.loc 1 117 5 view .LVU194
 597 0030 2046     		mov	r0, r4
 598 0032 FFF7FEFF 		bl	lv_obj_refresh_self_size
 599              	.LVL59:
 119:Drivers/lvgl/src/core/lv_obj_class.c ****     if(def_group && lv_obj_is_group_def(obj)) {
 600              		.loc 1 119 5 view .LVU195
 119:Drivers/lvgl/src/core/lv_obj_class.c ****     if(def_group && lv_obj_is_group_def(obj)) {
 601              		.loc 1 119 30 is_stmt 0 view .LVU196
 602 0036 FFF7FEFF 		bl	lv_group_get_default
 603              	.LVL60:
 120:Drivers/lvgl/src/core/lv_obj_class.c ****         lv_group_add_obj(def_group, obj);
 604              		.loc 1 120 5 is_stmt 1 view .LVU197
 120:Drivers/lvgl/src/core/lv_obj_class.c ****         lv_group_add_obj(def_group, obj);
 605              		.loc 1 120 7 is_stmt 0 view .LVU198
 606 003a 0546     		mov	r5, r0
 607 003c 18B1     		cbz	r0, .L44
 120:Drivers/lvgl/src/core/lv_obj_class.c ****         lv_group_add_obj(def_group, obj);
 608              		.loc 1 120 21 discriminator 1 view .LVU199
 609 003e 2046     		mov	r0, r4
 610              	.LVL61:
 120:Drivers/lvgl/src/core/lv_obj_class.c ****         lv_group_add_obj(def_group, obj);
 611              		.loc 1 120 21 discriminator 1 view .LVU200
 612 0040 FFF7FEFF 		bl	lv_obj_is_group_def
ARM GAS  /tmp/ccq5SmfP.s 			page 18


 613              	.LVL62:
 120:Drivers/lvgl/src/core/lv_obj_class.c ****         lv_group_add_obj(def_group, obj);
 614              		.loc 1 120 18 discriminator 1 view .LVU201
 615 0044 88B9     		cbnz	r0, .L49
 616              	.L44:
 124:Drivers/lvgl/src/core/lv_obj_class.c ****     if(parent) {
 617              		.loc 1 124 5 is_stmt 1 view .LVU202
 124:Drivers/lvgl/src/core/lv_obj_class.c ****     if(parent) {
 618              		.loc 1 124 25 is_stmt 0 view .LVU203
 619 0046 2046     		mov	r0, r4
 620 0048 FFF7FEFF 		bl	lv_obj_get_parent
 621              	.LVL63:
 125:Drivers/lvgl/src/core/lv_obj_class.c ****         /*Call the ancestor's event handler to the parent to notify it about the new child.
 622              		.loc 1 125 5 is_stmt 1 view .LVU204
 125:Drivers/lvgl/src/core/lv_obj_class.c ****         /*Call the ancestor's event handler to the parent to notify it about the new child.
 623              		.loc 1 125 7 is_stmt 0 view .LVU205
 624 004c 0546     		mov	r5, r0
 625              	.LVL64:
 125:Drivers/lvgl/src/core/lv_obj_class.c ****         /*Call the ancestor's event handler to the parent to notify it about the new child.
 626              		.loc 1 125 7 view .LVU206
 627 004e 58B1     		cbz	r0, .L42
 128:Drivers/lvgl/src/core/lv_obj_class.c ****         lv_obj_send_event(parent, LV_EVENT_CHILD_CREATED, obj);
 628              		.loc 1 128 9 is_stmt 1 view .LVU207
 629 0050 2246     		mov	r2, r4
 630 0052 2A21     		movs	r1, #42
 631 0054 FFF7FEFF 		bl	lv_obj_send_event
 632              	.LVL65:
 129:Drivers/lvgl/src/core/lv_obj_class.c **** 
 633              		.loc 1 129 9 view .LVU208
 634 0058 2246     		mov	r2, r4
 635 005a 2B21     		movs	r1, #43
 636 005c 2846     		mov	r0, r5
 637 005e FFF7FEFF 		bl	lv_obj_send_event
 638              	.LVL66:
 132:Drivers/lvgl/src/core/lv_obj_class.c ****     }
 639              		.loc 1 132 9 view .LVU209
 640 0062 2046     		mov	r0, r4
 641 0064 FFF7FEFF 		bl	lv_obj_invalidate
 642              	.LVL67:
 643              	.L42:
 134:Drivers/lvgl/src/core/lv_obj_class.c **** 
 644              		.loc 1 134 1 is_stmt 0 view .LVU210
 645 0068 38BD     		pop	{r3, r4, r5, pc}
 646              	.LVL68:
 647              	.L49:
 121:Drivers/lvgl/src/core/lv_obj_class.c ****     }
 648              		.loc 1 121 9 is_stmt 1 view .LVU211
 649 006a 2146     		mov	r1, r4
 650 006c 2846     		mov	r0, r5
 651 006e FFF7FEFF 		bl	lv_group_add_obj
 652              	.LVL69:
 653 0072 E8E7     		b	.L44
 654              	.LVL70:
 655              	.L46:
 656              	.LCFI4:
 657              		.cfi_def_cfa_offset 0
 658              		.cfi_restore 3
ARM GAS  /tmp/ccq5SmfP.s 			page 19


 659              		.cfi_restore 4
 660              		.cfi_restore 5
 661              		.cfi_restore 14
 121:Drivers/lvgl/src/core/lv_obj_class.c ****     }
 662              		.loc 1 121 9 is_stmt 0 view .LVU212
 663 0074 7047     		bx	lr
 664              		.cfi_endproc
 665              	.LFE172:
 667              		.text
 668              	.Letext0:
 669              		.file 2 "/usr/arm-none-eabi/include/machine/_default_types.h"
 670              		.file 3 "/usr/arm-none-eabi/include/sys/_stdint.h"
 671              		.file 4 "/usr/lib/gcc/arm-none-eabi/14.2.0/include/stddef.h"
 672              		.file 5 "Drivers/lvgl/src/core/../misc/lv_types.h"
 673              		.file 6 "Drivers/lvgl/src/core/lv_obj_private.h"
 674              		.file 7 "Drivers/lvgl/src/core/lv_obj_class_private.h"
 675              		.file 8 "Drivers/lvgl/src/core/../display/lv_display_private.h"
 676              		.file 9 "Drivers/lvgl/src/core/../draw/lv_draw.h"
 677              		.file 10 "Drivers/lvgl/src/core/../display/../misc/lv_array.h"
 678              		.file 11 "Drivers/lvgl/src/core/../misc/../font/../draw/lv_draw_buf.h"
 679              		.file 12 "Drivers/lvgl/src/core/../misc/lv_area.h"
 680              		.file 13 "Drivers/lvgl/src/core/../misc/../font/../draw/../misc/lv_color.h"
 681              		.file 14 "Drivers/lvgl/src/core/../misc/../font/../draw/lv_image_dsc.h"
 682              		.file 15 "Drivers/lvgl/src/core/../misc/lv_ll.h"
 683              		.file 16 "Drivers/lvgl/src/core/../misc/lv_style.h"
 684              		.file 17 "Drivers/lvgl/src/core/lv_obj_class.h"
 685              		.file 18 "Drivers/lvgl/src/core/../display/../misc/lv_event.h"
 686              		.file 19 "Drivers/lvgl/src/core/../display/lv_display.h"
 687              		.file 20 "Drivers/lvgl/src/core/lv_obj.h"
 688              		.file 21 "Drivers/lvgl/src/core/lv_obj_event.h"
 689              		.file 22 "Drivers/lvgl/src/core/lv_obj_tree.h"
 690              		.file 23 "Drivers/lvgl/src/core/lv_obj_pos.h"
 691              		.file 24 "Drivers/lvgl/src/core/../indev/../core/lv_group.h"
 692              		.file 25 "Drivers/lvgl/src/core/lv_obj_style.h"
 693              		.file 26 "Drivers/lvgl/src/core/../themes/lv_theme.h"
 694              		.file 27 "Drivers/lvgl/src/core/../misc/../font/../draw/../misc/../stdlib/lv_mem.h"
ARM GAS  /tmp/ccq5SmfP.s 			page 20

