ARM GAS  /tmp/cc972Q0K.s 			page 1


   1              		.cpu cortex-m7
   2              		.arch armv7e-m
   3              		.fpu fpv5-sp-d16
   4              		.eabi_attribute 27, 1
   5              		.eabi_attribute 28, 1
   6              		.eabi_attribute 20, 1
   7              		.eabi_attribute 21, 1
   8              		.eabi_attribute 23, 3
   9              		.eabi_attribute 24, 1
  10              		.eabi_attribute 25, 1
  11              		.eabi_attribute 26, 1
  12              		.eabi_attribute 30, 1
  13              		.eabi_attribute 34, 1
  14              		.eabi_attribute 18, 4
  15              		.file	"lv_observer.c"
  16              		.text
  17              	.Ltext0:
  18              		.cfi_sections	.debug_frame
  19              		.file 1 "Drivers/lvgl/src/others/observer/lv_observer.c"
  20              		.section	.text.obj_flag_observer_cb,"ax",%progbits
  21              		.align	1
  22              		.syntax unified
  23              		.thumb
  24              		.thumb_func
  26              	obj_flag_observer_cb:
  27              	.LVL0:
  28              	.LFB228:
   1:Drivers/lvgl/src/others/observer/lv_observer.c **** /**
   2:Drivers/lvgl/src/others/observer/lv_observer.c ****  * @file lv_observer.c
   3:Drivers/lvgl/src/others/observer/lv_observer.c ****  *
   4:Drivers/lvgl/src/others/observer/lv_observer.c ****  */
   5:Drivers/lvgl/src/others/observer/lv_observer.c **** 
   6:Drivers/lvgl/src/others/observer/lv_observer.c **** /*********************
   7:Drivers/lvgl/src/others/observer/lv_observer.c ****  *      INCLUDES
   8:Drivers/lvgl/src/others/observer/lv_observer.c ****  *********************/
   9:Drivers/lvgl/src/others/observer/lv_observer.c **** 
  10:Drivers/lvgl/src/others/observer/lv_observer.c **** #include "lv_observer_private.h"
  11:Drivers/lvgl/src/others/observer/lv_observer.c **** #if LV_USE_OBSERVER
  12:Drivers/lvgl/src/others/observer/lv_observer.c **** 
  13:Drivers/lvgl/src/others/observer/lv_observer.c **** #include "../../lvgl.h"
  14:Drivers/lvgl/src/others/observer/lv_observer.c **** #include "../../core/lv_obj_private.h"
  15:Drivers/lvgl/src/others/observer/lv_observer.c **** #include "../../misc/lv_event_private.h"
  16:Drivers/lvgl/src/others/observer/lv_observer.c **** 
  17:Drivers/lvgl/src/others/observer/lv_observer.c **** /*********************
  18:Drivers/lvgl/src/others/observer/lv_observer.c ****  *      DEFINES
  19:Drivers/lvgl/src/others/observer/lv_observer.c ****  *********************/
  20:Drivers/lvgl/src/others/observer/lv_observer.c **** 
  21:Drivers/lvgl/src/others/observer/lv_observer.c **** /**********************
  22:Drivers/lvgl/src/others/observer/lv_observer.c ****  *      TYPEDEFS
  23:Drivers/lvgl/src/others/observer/lv_observer.c ****  **********************/
  24:Drivers/lvgl/src/others/observer/lv_observer.c **** typedef enum {
  25:Drivers/lvgl/src/others/observer/lv_observer.c ****     FLAG_COND_EQ = 0,
  26:Drivers/lvgl/src/others/observer/lv_observer.c ****     FLAG_COND_GT = 1,
  27:Drivers/lvgl/src/others/observer/lv_observer.c ****     FLAG_COND_GE = 2
  28:Drivers/lvgl/src/others/observer/lv_observer.c **** } flag_cond_t;
  29:Drivers/lvgl/src/others/observer/lv_observer.c **** 
  30:Drivers/lvgl/src/others/observer/lv_observer.c **** typedef struct {
ARM GAS  /tmp/cc972Q0K.s 			page 2


  31:Drivers/lvgl/src/others/observer/lv_observer.c ****     uint32_t flag;
  32:Drivers/lvgl/src/others/observer/lv_observer.c ****     lv_subject_value_t value;
  33:Drivers/lvgl/src/others/observer/lv_observer.c ****     uint32_t inv     : 1;
  34:Drivers/lvgl/src/others/observer/lv_observer.c ****     flag_cond_t cond : 3;
  35:Drivers/lvgl/src/others/observer/lv_observer.c **** } flag_and_cond_t;
  36:Drivers/lvgl/src/others/observer/lv_observer.c **** 
  37:Drivers/lvgl/src/others/observer/lv_observer.c **** /**********************
  38:Drivers/lvgl/src/others/observer/lv_observer.c ****  *  STATIC PROTOTYPES
  39:Drivers/lvgl/src/others/observer/lv_observer.c ****  **********************/
  40:Drivers/lvgl/src/others/observer/lv_observer.c **** static void unsubscribe_on_delete_cb(lv_event_t * e);
  41:Drivers/lvgl/src/others/observer/lv_observer.c **** static void group_notify_cb(lv_observer_t * observer, lv_subject_t * subject);
  42:Drivers/lvgl/src/others/observer/lv_observer.c **** static lv_observer_t * bind_to_bitfield(lv_subject_t * subject, lv_obj_t * obj, lv_observer_cb_t cb
  43:Drivers/lvgl/src/others/observer/lv_observer.c ****                                         int32_t ref_value, bool inv, flag_cond_t cond);
  44:Drivers/lvgl/src/others/observer/lv_observer.c **** static void obj_flag_observer_cb(lv_observer_t * observer, lv_subject_t * subject);
  45:Drivers/lvgl/src/others/observer/lv_observer.c **** static void obj_state_observer_cb(lv_observer_t * observer, lv_subject_t * subject);
  46:Drivers/lvgl/src/others/observer/lv_observer.c **** static void obj_value_changed_event_cb(lv_event_t * e);
  47:Drivers/lvgl/src/others/observer/lv_observer.c **** 
  48:Drivers/lvgl/src/others/observer/lv_observer.c **** static void lv_subject_notify_if_changed(lv_subject_t * subject);
  49:Drivers/lvgl/src/others/observer/lv_observer.c **** 
  50:Drivers/lvgl/src/others/observer/lv_observer.c **** #if LV_USE_LABEL
  51:Drivers/lvgl/src/others/observer/lv_observer.c ****     static void label_text_observer_cb(lv_observer_t * observer, lv_subject_t * subject);
  52:Drivers/lvgl/src/others/observer/lv_observer.c **** #endif
  53:Drivers/lvgl/src/others/observer/lv_observer.c **** 
  54:Drivers/lvgl/src/others/observer/lv_observer.c **** #if LV_USE_ARC
  55:Drivers/lvgl/src/others/observer/lv_observer.c ****     static void arc_value_changed_event_cb(lv_event_t * e);
  56:Drivers/lvgl/src/others/observer/lv_observer.c ****     static void arc_value_observer_cb(lv_observer_t * observer, lv_subject_t * subject);
  57:Drivers/lvgl/src/others/observer/lv_observer.c **** #endif
  58:Drivers/lvgl/src/others/observer/lv_observer.c **** 
  59:Drivers/lvgl/src/others/observer/lv_observer.c **** #if LV_USE_SLIDER
  60:Drivers/lvgl/src/others/observer/lv_observer.c ****     static void slider_value_changed_event_cb(lv_event_t * e);
  61:Drivers/lvgl/src/others/observer/lv_observer.c ****     static void slider_value_observer_cb(lv_observer_t * observer, lv_subject_t * subject);
  62:Drivers/lvgl/src/others/observer/lv_observer.c **** #endif
  63:Drivers/lvgl/src/others/observer/lv_observer.c **** 
  64:Drivers/lvgl/src/others/observer/lv_observer.c **** #if LV_USE_ROLLER
  65:Drivers/lvgl/src/others/observer/lv_observer.c ****     static void roller_value_changed_event_cb(lv_event_t * e);
  66:Drivers/lvgl/src/others/observer/lv_observer.c ****     static void roller_value_observer_cb(lv_observer_t * observer, lv_subject_t * subject);
  67:Drivers/lvgl/src/others/observer/lv_observer.c **** #endif
  68:Drivers/lvgl/src/others/observer/lv_observer.c **** 
  69:Drivers/lvgl/src/others/observer/lv_observer.c **** #if LV_USE_DROPDOWN
  70:Drivers/lvgl/src/others/observer/lv_observer.c ****     static void dropdown_value_changed_event_cb(lv_event_t * e);
  71:Drivers/lvgl/src/others/observer/lv_observer.c ****     static void dropdown_value_observer_cb(lv_observer_t * observer, lv_subject_t * subject);
  72:Drivers/lvgl/src/others/observer/lv_observer.c **** #endif
  73:Drivers/lvgl/src/others/observer/lv_observer.c **** 
  74:Drivers/lvgl/src/others/observer/lv_observer.c **** /**********************
  75:Drivers/lvgl/src/others/observer/lv_observer.c ****  *  STATIC VARIABLES
  76:Drivers/lvgl/src/others/observer/lv_observer.c ****  **********************/
  77:Drivers/lvgl/src/others/observer/lv_observer.c **** 
  78:Drivers/lvgl/src/others/observer/lv_observer.c **** /**********************
  79:Drivers/lvgl/src/others/observer/lv_observer.c ****  *      MACROS
  80:Drivers/lvgl/src/others/observer/lv_observer.c ****  **********************/
  81:Drivers/lvgl/src/others/observer/lv_observer.c **** 
  82:Drivers/lvgl/src/others/observer/lv_observer.c **** /**********************
  83:Drivers/lvgl/src/others/observer/lv_observer.c ****  *   GLOBAL FUNCTIONS
  84:Drivers/lvgl/src/others/observer/lv_observer.c ****  **********************/
  85:Drivers/lvgl/src/others/observer/lv_observer.c **** 
  86:Drivers/lvgl/src/others/observer/lv_observer.c **** void lv_subject_init_int(lv_subject_t * subject, int32_t value)
  87:Drivers/lvgl/src/others/observer/lv_observer.c **** {
ARM GAS  /tmp/cc972Q0K.s 			page 3


  88:Drivers/lvgl/src/others/observer/lv_observer.c ****     lv_memzero(subject, sizeof(lv_subject_t));
  89:Drivers/lvgl/src/others/observer/lv_observer.c ****     subject->type = LV_SUBJECT_TYPE_INT;
  90:Drivers/lvgl/src/others/observer/lv_observer.c ****     subject->value.num = value;
  91:Drivers/lvgl/src/others/observer/lv_observer.c ****     subject->prev_value.num = value;
  92:Drivers/lvgl/src/others/observer/lv_observer.c ****     lv_ll_init(&(subject->subs_ll), sizeof(lv_observer_t));
  93:Drivers/lvgl/src/others/observer/lv_observer.c **** }
  94:Drivers/lvgl/src/others/observer/lv_observer.c **** 
  95:Drivers/lvgl/src/others/observer/lv_observer.c **** void lv_subject_set_int(lv_subject_t * subject, int32_t value)
  96:Drivers/lvgl/src/others/observer/lv_observer.c **** {
  97:Drivers/lvgl/src/others/observer/lv_observer.c ****     if(subject->type != LV_SUBJECT_TYPE_INT) {
  98:Drivers/lvgl/src/others/observer/lv_observer.c ****         LV_LOG_WARN("Subject type is not LV_SUBJECT_TYPE_INT");
  99:Drivers/lvgl/src/others/observer/lv_observer.c ****         return;
 100:Drivers/lvgl/src/others/observer/lv_observer.c ****     }
 101:Drivers/lvgl/src/others/observer/lv_observer.c **** 
 102:Drivers/lvgl/src/others/observer/lv_observer.c ****     subject->prev_value.num = subject->value.num;
 103:Drivers/lvgl/src/others/observer/lv_observer.c ****     subject->value.num = value;
 104:Drivers/lvgl/src/others/observer/lv_observer.c ****     lv_subject_notify_if_changed(subject);
 105:Drivers/lvgl/src/others/observer/lv_observer.c **** }
 106:Drivers/lvgl/src/others/observer/lv_observer.c **** 
 107:Drivers/lvgl/src/others/observer/lv_observer.c **** int32_t lv_subject_get_int(lv_subject_t * subject)
 108:Drivers/lvgl/src/others/observer/lv_observer.c **** {
 109:Drivers/lvgl/src/others/observer/lv_observer.c ****     if(subject->type != LV_SUBJECT_TYPE_INT) {
 110:Drivers/lvgl/src/others/observer/lv_observer.c ****         LV_LOG_WARN("Subject type is not LV_SUBJECT_TYPE_INT");
 111:Drivers/lvgl/src/others/observer/lv_observer.c ****         return 0;
 112:Drivers/lvgl/src/others/observer/lv_observer.c ****     }
 113:Drivers/lvgl/src/others/observer/lv_observer.c **** 
 114:Drivers/lvgl/src/others/observer/lv_observer.c ****     return subject->value.num;
 115:Drivers/lvgl/src/others/observer/lv_observer.c **** }
 116:Drivers/lvgl/src/others/observer/lv_observer.c **** 
 117:Drivers/lvgl/src/others/observer/lv_observer.c **** int32_t lv_subject_get_previous_int(lv_subject_t * subject)
 118:Drivers/lvgl/src/others/observer/lv_observer.c **** {
 119:Drivers/lvgl/src/others/observer/lv_observer.c ****     if(subject->type != LV_SUBJECT_TYPE_INT) {
 120:Drivers/lvgl/src/others/observer/lv_observer.c ****         LV_LOG_WARN("Subject type is not LV_SUBJECT_TYPE_INT");
 121:Drivers/lvgl/src/others/observer/lv_observer.c ****         return 0;
 122:Drivers/lvgl/src/others/observer/lv_observer.c ****     }
 123:Drivers/lvgl/src/others/observer/lv_observer.c **** 
 124:Drivers/lvgl/src/others/observer/lv_observer.c ****     return subject->prev_value.num;
 125:Drivers/lvgl/src/others/observer/lv_observer.c **** }
 126:Drivers/lvgl/src/others/observer/lv_observer.c **** 
 127:Drivers/lvgl/src/others/observer/lv_observer.c **** void lv_subject_init_string(lv_subject_t * subject, char * buf, char * prev_buf, size_t size, const
 128:Drivers/lvgl/src/others/observer/lv_observer.c **** {
 129:Drivers/lvgl/src/others/observer/lv_observer.c ****     lv_memzero(subject, sizeof(lv_subject_t));
 130:Drivers/lvgl/src/others/observer/lv_observer.c ****     lv_strlcpy(buf, value, size);
 131:Drivers/lvgl/src/others/observer/lv_observer.c ****     if(prev_buf) lv_strlcpy(prev_buf, value, size);
 132:Drivers/lvgl/src/others/observer/lv_observer.c **** 
 133:Drivers/lvgl/src/others/observer/lv_observer.c ****     subject->type = LV_SUBJECT_TYPE_STRING;
 134:Drivers/lvgl/src/others/observer/lv_observer.c ****     subject->size = (uint32_t)size;
 135:Drivers/lvgl/src/others/observer/lv_observer.c ****     subject->value.pointer = buf;
 136:Drivers/lvgl/src/others/observer/lv_observer.c ****     subject->prev_value.pointer = prev_buf;
 137:Drivers/lvgl/src/others/observer/lv_observer.c **** 
 138:Drivers/lvgl/src/others/observer/lv_observer.c ****     lv_ll_init(&(subject->subs_ll), sizeof(lv_observer_t));
 139:Drivers/lvgl/src/others/observer/lv_observer.c **** }
 140:Drivers/lvgl/src/others/observer/lv_observer.c **** 
 141:Drivers/lvgl/src/others/observer/lv_observer.c **** void lv_subject_copy_string(lv_subject_t * subject, const char * buf)
 142:Drivers/lvgl/src/others/observer/lv_observer.c **** {
 143:Drivers/lvgl/src/others/observer/lv_observer.c ****     if(subject->type != LV_SUBJECT_TYPE_STRING) {
 144:Drivers/lvgl/src/others/observer/lv_observer.c ****         LV_LOG_WARN("Subject type is not LV_SUBJECT_TYPE_STRING");
ARM GAS  /tmp/cc972Q0K.s 			page 4


 145:Drivers/lvgl/src/others/observer/lv_observer.c ****         return;
 146:Drivers/lvgl/src/others/observer/lv_observer.c ****     }
 147:Drivers/lvgl/src/others/observer/lv_observer.c **** 
 148:Drivers/lvgl/src/others/observer/lv_observer.c ****     if(subject->size < 1) return;
 149:Drivers/lvgl/src/others/observer/lv_observer.c ****     if(subject->prev_value.pointer) {
 150:Drivers/lvgl/src/others/observer/lv_observer.c ****         lv_strlcpy((char *)subject->prev_value.pointer, subject->value.pointer, subject->size);
 151:Drivers/lvgl/src/others/observer/lv_observer.c ****     }
 152:Drivers/lvgl/src/others/observer/lv_observer.c **** 
 153:Drivers/lvgl/src/others/observer/lv_observer.c ****     lv_strlcpy((char *)subject->value.pointer, buf, subject->size);
 154:Drivers/lvgl/src/others/observer/lv_observer.c **** 
 155:Drivers/lvgl/src/others/observer/lv_observer.c ****     lv_subject_notify_if_changed(subject);
 156:Drivers/lvgl/src/others/observer/lv_observer.c **** }
 157:Drivers/lvgl/src/others/observer/lv_observer.c **** 
 158:Drivers/lvgl/src/others/observer/lv_observer.c **** void lv_subject_snprintf(lv_subject_t * subject, const char * format, ...)
 159:Drivers/lvgl/src/others/observer/lv_observer.c **** {
 160:Drivers/lvgl/src/others/observer/lv_observer.c ****     if(subject->type != LV_SUBJECT_TYPE_STRING) {
 161:Drivers/lvgl/src/others/observer/lv_observer.c ****         LV_LOG_WARN("Subject type is not LV_SUBJECT_TYPE_STRING");
 162:Drivers/lvgl/src/others/observer/lv_observer.c ****         return;
 163:Drivers/lvgl/src/others/observer/lv_observer.c ****     }
 164:Drivers/lvgl/src/others/observer/lv_observer.c **** 
 165:Drivers/lvgl/src/others/observer/lv_observer.c ****     if(subject->size < 1U) return;
 166:Drivers/lvgl/src/others/observer/lv_observer.c **** 
 167:Drivers/lvgl/src/others/observer/lv_observer.c ****     if(subject->prev_value.pointer) {
 168:Drivers/lvgl/src/others/observer/lv_observer.c ****         lv_strlcpy((char *)subject->prev_value.pointer, subject->value.pointer, subject->size);
 169:Drivers/lvgl/src/others/observer/lv_observer.c ****     }
 170:Drivers/lvgl/src/others/observer/lv_observer.c **** 
 171:Drivers/lvgl/src/others/observer/lv_observer.c ****     va_list va;
 172:Drivers/lvgl/src/others/observer/lv_observer.c ****     va_start(va, format);
 173:Drivers/lvgl/src/others/observer/lv_observer.c ****     const int ret = lv_vsnprintf((char *)subject->value.pointer, subject->size, format, va);
 174:Drivers/lvgl/src/others/observer/lv_observer.c ****     LV_UNUSED(ret);
 175:Drivers/lvgl/src/others/observer/lv_observer.c ****     va_end(va);
 176:Drivers/lvgl/src/others/observer/lv_observer.c **** 
 177:Drivers/lvgl/src/others/observer/lv_observer.c ****     lv_subject_notify_if_changed(subject);
 178:Drivers/lvgl/src/others/observer/lv_observer.c **** }
 179:Drivers/lvgl/src/others/observer/lv_observer.c **** 
 180:Drivers/lvgl/src/others/observer/lv_observer.c **** const char * lv_subject_get_string(lv_subject_t * subject)
 181:Drivers/lvgl/src/others/observer/lv_observer.c **** {
 182:Drivers/lvgl/src/others/observer/lv_observer.c ****     if(subject->type != LV_SUBJECT_TYPE_STRING) {
 183:Drivers/lvgl/src/others/observer/lv_observer.c ****         LV_LOG_WARN("Subject type is not LV_SUBJECT_TYPE_STRING");
 184:Drivers/lvgl/src/others/observer/lv_observer.c ****         return "";
 185:Drivers/lvgl/src/others/observer/lv_observer.c ****     }
 186:Drivers/lvgl/src/others/observer/lv_observer.c **** 
 187:Drivers/lvgl/src/others/observer/lv_observer.c ****     return subject->value.pointer;
 188:Drivers/lvgl/src/others/observer/lv_observer.c **** }
 189:Drivers/lvgl/src/others/observer/lv_observer.c **** 
 190:Drivers/lvgl/src/others/observer/lv_observer.c **** const char * lv_subject_get_previous_string(lv_subject_t * subject)
 191:Drivers/lvgl/src/others/observer/lv_observer.c **** {
 192:Drivers/lvgl/src/others/observer/lv_observer.c ****     if(subject->type != LV_SUBJECT_TYPE_STRING) {
 193:Drivers/lvgl/src/others/observer/lv_observer.c ****         LV_LOG_WARN("Subject type is not LV_SUBJECT_TYPE_STRING");
 194:Drivers/lvgl/src/others/observer/lv_observer.c ****         return NULL;
 195:Drivers/lvgl/src/others/observer/lv_observer.c ****     }
 196:Drivers/lvgl/src/others/observer/lv_observer.c **** 
 197:Drivers/lvgl/src/others/observer/lv_observer.c ****     return subject->prev_value.pointer;
 198:Drivers/lvgl/src/others/observer/lv_observer.c **** }
 199:Drivers/lvgl/src/others/observer/lv_observer.c **** 
 200:Drivers/lvgl/src/others/observer/lv_observer.c **** void lv_subject_init_pointer(lv_subject_t * subject, void * value)
 201:Drivers/lvgl/src/others/observer/lv_observer.c **** {
ARM GAS  /tmp/cc972Q0K.s 			page 5


 202:Drivers/lvgl/src/others/observer/lv_observer.c ****     lv_memzero(subject, sizeof(lv_subject_t));
 203:Drivers/lvgl/src/others/observer/lv_observer.c ****     subject->type = LV_SUBJECT_TYPE_POINTER;
 204:Drivers/lvgl/src/others/observer/lv_observer.c ****     subject->value.pointer = value;
 205:Drivers/lvgl/src/others/observer/lv_observer.c ****     subject->prev_value.pointer = value;
 206:Drivers/lvgl/src/others/observer/lv_observer.c ****     lv_ll_init(&(subject->subs_ll), sizeof(lv_observer_t));
 207:Drivers/lvgl/src/others/observer/lv_observer.c **** }
 208:Drivers/lvgl/src/others/observer/lv_observer.c **** 
 209:Drivers/lvgl/src/others/observer/lv_observer.c **** void lv_subject_set_pointer(lv_subject_t * subject, void * ptr)
 210:Drivers/lvgl/src/others/observer/lv_observer.c **** {
 211:Drivers/lvgl/src/others/observer/lv_observer.c ****     if(subject->type != LV_SUBJECT_TYPE_POINTER) {
 212:Drivers/lvgl/src/others/observer/lv_observer.c ****         LV_LOG_WARN("Subject type is not LV_SUBJECT_TYPE_POINTER");
 213:Drivers/lvgl/src/others/observer/lv_observer.c ****         return;
 214:Drivers/lvgl/src/others/observer/lv_observer.c ****     }
 215:Drivers/lvgl/src/others/observer/lv_observer.c **** 
 216:Drivers/lvgl/src/others/observer/lv_observer.c ****     subject->prev_value.pointer = subject->value.pointer;
 217:Drivers/lvgl/src/others/observer/lv_observer.c ****     subject->value.pointer = ptr;
 218:Drivers/lvgl/src/others/observer/lv_observer.c ****     lv_subject_notify_if_changed(subject);
 219:Drivers/lvgl/src/others/observer/lv_observer.c **** }
 220:Drivers/lvgl/src/others/observer/lv_observer.c **** 
 221:Drivers/lvgl/src/others/observer/lv_observer.c **** const void * lv_subject_get_pointer(lv_subject_t * subject)
 222:Drivers/lvgl/src/others/observer/lv_observer.c **** {
 223:Drivers/lvgl/src/others/observer/lv_observer.c ****     if(subject->type != LV_SUBJECT_TYPE_POINTER) {
 224:Drivers/lvgl/src/others/observer/lv_observer.c ****         LV_LOG_WARN("Subject type is not LV_SUBJECT_TYPE_POINTER");
 225:Drivers/lvgl/src/others/observer/lv_observer.c ****         return NULL;
 226:Drivers/lvgl/src/others/observer/lv_observer.c ****     }
 227:Drivers/lvgl/src/others/observer/lv_observer.c **** 
 228:Drivers/lvgl/src/others/observer/lv_observer.c ****     return subject->value.pointer;
 229:Drivers/lvgl/src/others/observer/lv_observer.c **** }
 230:Drivers/lvgl/src/others/observer/lv_observer.c **** 
 231:Drivers/lvgl/src/others/observer/lv_observer.c **** const void * lv_subject_get_previous_pointer(lv_subject_t * subject)
 232:Drivers/lvgl/src/others/observer/lv_observer.c **** {
 233:Drivers/lvgl/src/others/observer/lv_observer.c ****     if(subject->type != LV_SUBJECT_TYPE_POINTER) {
 234:Drivers/lvgl/src/others/observer/lv_observer.c ****         LV_LOG_WARN("Subject type is not LV_SUBJECT_TYPE_POINTER");
 235:Drivers/lvgl/src/others/observer/lv_observer.c ****         return NULL;
 236:Drivers/lvgl/src/others/observer/lv_observer.c ****     }
 237:Drivers/lvgl/src/others/observer/lv_observer.c **** 
 238:Drivers/lvgl/src/others/observer/lv_observer.c ****     return subject->prev_value.pointer;
 239:Drivers/lvgl/src/others/observer/lv_observer.c **** }
 240:Drivers/lvgl/src/others/observer/lv_observer.c **** 
 241:Drivers/lvgl/src/others/observer/lv_observer.c **** void lv_subject_init_color(lv_subject_t * subject, lv_color_t color)
 242:Drivers/lvgl/src/others/observer/lv_observer.c **** {
 243:Drivers/lvgl/src/others/observer/lv_observer.c ****     lv_memzero(subject, sizeof(lv_subject_t));
 244:Drivers/lvgl/src/others/observer/lv_observer.c ****     subject->type = LV_SUBJECT_TYPE_COLOR;
 245:Drivers/lvgl/src/others/observer/lv_observer.c ****     subject->value.color = color;
 246:Drivers/lvgl/src/others/observer/lv_observer.c ****     subject->prev_value.color = color;
 247:Drivers/lvgl/src/others/observer/lv_observer.c ****     lv_ll_init(&(subject->subs_ll), sizeof(lv_observer_t));
 248:Drivers/lvgl/src/others/observer/lv_observer.c **** }
 249:Drivers/lvgl/src/others/observer/lv_observer.c **** 
 250:Drivers/lvgl/src/others/observer/lv_observer.c **** void lv_subject_set_color(lv_subject_t * subject, lv_color_t color)
 251:Drivers/lvgl/src/others/observer/lv_observer.c **** {
 252:Drivers/lvgl/src/others/observer/lv_observer.c ****     if(subject->type != LV_SUBJECT_TYPE_COLOR) {
 253:Drivers/lvgl/src/others/observer/lv_observer.c ****         LV_LOG_WARN("Subject type is not LV_SUBJECT_TYPE_COLOR");
 254:Drivers/lvgl/src/others/observer/lv_observer.c ****         return;
 255:Drivers/lvgl/src/others/observer/lv_observer.c ****     }
 256:Drivers/lvgl/src/others/observer/lv_observer.c **** 
 257:Drivers/lvgl/src/others/observer/lv_observer.c ****     subject->prev_value.color = subject->value.color;
 258:Drivers/lvgl/src/others/observer/lv_observer.c ****     subject->value.color = color;
ARM GAS  /tmp/cc972Q0K.s 			page 6


 259:Drivers/lvgl/src/others/observer/lv_observer.c ****     lv_subject_notify_if_changed(subject);
 260:Drivers/lvgl/src/others/observer/lv_observer.c **** }
 261:Drivers/lvgl/src/others/observer/lv_observer.c **** 
 262:Drivers/lvgl/src/others/observer/lv_observer.c **** lv_color_t lv_subject_get_color(lv_subject_t * subject)
 263:Drivers/lvgl/src/others/observer/lv_observer.c **** {
 264:Drivers/lvgl/src/others/observer/lv_observer.c ****     if(subject->type != LV_SUBJECT_TYPE_COLOR) {
 265:Drivers/lvgl/src/others/observer/lv_observer.c ****         LV_LOG_WARN("Subject type is not LV_SUBJECT_TYPE_COLOR");
 266:Drivers/lvgl/src/others/observer/lv_observer.c ****         return lv_color_black();
 267:Drivers/lvgl/src/others/observer/lv_observer.c ****     }
 268:Drivers/lvgl/src/others/observer/lv_observer.c **** 
 269:Drivers/lvgl/src/others/observer/lv_observer.c ****     return subject->value.color;
 270:Drivers/lvgl/src/others/observer/lv_observer.c **** }
 271:Drivers/lvgl/src/others/observer/lv_observer.c **** 
 272:Drivers/lvgl/src/others/observer/lv_observer.c **** lv_color_t lv_subject_get_previous_color(lv_subject_t * subject)
 273:Drivers/lvgl/src/others/observer/lv_observer.c **** {
 274:Drivers/lvgl/src/others/observer/lv_observer.c ****     if(subject->type != LV_SUBJECT_TYPE_COLOR) {
 275:Drivers/lvgl/src/others/observer/lv_observer.c ****         LV_LOG_WARN("Subject type is not LV_SUBJECT_TYPE_COLOR");
 276:Drivers/lvgl/src/others/observer/lv_observer.c ****         return lv_color_black();
 277:Drivers/lvgl/src/others/observer/lv_observer.c ****     }
 278:Drivers/lvgl/src/others/observer/lv_observer.c **** 
 279:Drivers/lvgl/src/others/observer/lv_observer.c ****     return subject->prev_value.color;
 280:Drivers/lvgl/src/others/observer/lv_observer.c **** }
 281:Drivers/lvgl/src/others/observer/lv_observer.c **** 
 282:Drivers/lvgl/src/others/observer/lv_observer.c **** void lv_subject_init_group(lv_subject_t * group_subject, lv_subject_t * list[], uint32_t list_len)
 283:Drivers/lvgl/src/others/observer/lv_observer.c **** {
 284:Drivers/lvgl/src/others/observer/lv_observer.c ****     group_subject->type = LV_SUBJECT_TYPE_GROUP;
 285:Drivers/lvgl/src/others/observer/lv_observer.c ****     group_subject->size = list_len;
 286:Drivers/lvgl/src/others/observer/lv_observer.c ****     lv_ll_init(&(group_subject->subs_ll), sizeof(lv_observer_t));
 287:Drivers/lvgl/src/others/observer/lv_observer.c ****     group_subject->value.pointer = list;
 288:Drivers/lvgl/src/others/observer/lv_observer.c **** 
 289:Drivers/lvgl/src/others/observer/lv_observer.c ****     /* Bind all list[] subjects to `group_subject`. */
 290:Drivers/lvgl/src/others/observer/lv_observer.c ****     uint32_t i;
 291:Drivers/lvgl/src/others/observer/lv_observer.c ****     for(i = 0; i < list_len; i++) {
 292:Drivers/lvgl/src/others/observer/lv_observer.c ****         /* If a subject in `list[]` changes, notify `group_subject`. */
 293:Drivers/lvgl/src/others/observer/lv_observer.c ****         lv_subject_add_observer(list[i], group_notify_cb, group_subject);
 294:Drivers/lvgl/src/others/observer/lv_observer.c ****     }
 295:Drivers/lvgl/src/others/observer/lv_observer.c **** }
 296:Drivers/lvgl/src/others/observer/lv_observer.c **** 
 297:Drivers/lvgl/src/others/observer/lv_observer.c **** void lv_subject_deinit(lv_subject_t * subject)
 298:Drivers/lvgl/src/others/observer/lv_observer.c **** {
 299:Drivers/lvgl/src/others/observer/lv_observer.c ****     lv_observer_t * observer = lv_ll_get_head(&subject->subs_ll);
 300:Drivers/lvgl/src/others/observer/lv_observer.c ****     while(observer) {
 301:Drivers/lvgl/src/others/observer/lv_observer.c ****         lv_observer_t * observer_next = lv_ll_get_next(&subject->subs_ll, observer);
 302:Drivers/lvgl/src/others/observer/lv_observer.c **** 
 303:Drivers/lvgl/src/others/observer/lv_observer.c ****         lv_observer_remove(observer);
 304:Drivers/lvgl/src/others/observer/lv_observer.c ****         observer = observer_next;
 305:Drivers/lvgl/src/others/observer/lv_observer.c ****     }
 306:Drivers/lvgl/src/others/observer/lv_observer.c **** 
 307:Drivers/lvgl/src/others/observer/lv_observer.c ****     lv_ll_clear(&subject->subs_ll);
 308:Drivers/lvgl/src/others/observer/lv_observer.c **** }
 309:Drivers/lvgl/src/others/observer/lv_observer.c **** 
 310:Drivers/lvgl/src/others/observer/lv_observer.c **** lv_subject_t * lv_subject_get_group_element(lv_subject_t * subject, int32_t index)
 311:Drivers/lvgl/src/others/observer/lv_observer.c **** {
 312:Drivers/lvgl/src/others/observer/lv_observer.c ****     if(subject->type != LV_SUBJECT_TYPE_GROUP) {
 313:Drivers/lvgl/src/others/observer/lv_observer.c ****         LV_LOG_WARN("Subject type is not LV_SUBJECT_TYPE_GROUP");
 314:Drivers/lvgl/src/others/observer/lv_observer.c ****         return NULL;
 315:Drivers/lvgl/src/others/observer/lv_observer.c ****     }
ARM GAS  /tmp/cc972Q0K.s 			page 7


 316:Drivers/lvgl/src/others/observer/lv_observer.c **** 
 317:Drivers/lvgl/src/others/observer/lv_observer.c ****     if(index >= (int32_t)subject->size)  return NULL;
 318:Drivers/lvgl/src/others/observer/lv_observer.c ****     if(index < 0)  return NULL;
 319:Drivers/lvgl/src/others/observer/lv_observer.c **** 
 320:Drivers/lvgl/src/others/observer/lv_observer.c ****     return ((lv_subject_t **)(subject->value.pointer))[index];
 321:Drivers/lvgl/src/others/observer/lv_observer.c **** }
 322:Drivers/lvgl/src/others/observer/lv_observer.c **** 
 323:Drivers/lvgl/src/others/observer/lv_observer.c **** lv_observer_t * lv_subject_add_observer(lv_subject_t * subject, lv_observer_cb_t cb, void * user_da
 324:Drivers/lvgl/src/others/observer/lv_observer.c **** {
 325:Drivers/lvgl/src/others/observer/lv_observer.c ****     lv_observer_t * observer = lv_subject_add_observer_obj(subject, cb, NULL, user_data);
 326:Drivers/lvgl/src/others/observer/lv_observer.c ****     if(observer == NULL) return NULL;
 327:Drivers/lvgl/src/others/observer/lv_observer.c **** 
 328:Drivers/lvgl/src/others/observer/lv_observer.c ****     observer->for_obj = 0;
 329:Drivers/lvgl/src/others/observer/lv_observer.c ****     return observer;
 330:Drivers/lvgl/src/others/observer/lv_observer.c **** }
 331:Drivers/lvgl/src/others/observer/lv_observer.c **** 
 332:Drivers/lvgl/src/others/observer/lv_observer.c **** lv_observer_t * lv_subject_add_observer_obj(lv_subject_t * subject, lv_observer_cb_t cb, lv_obj_t *
 333:Drivers/lvgl/src/others/observer/lv_observer.c ****                                             void * user_data)
 334:Drivers/lvgl/src/others/observer/lv_observer.c **** {
 335:Drivers/lvgl/src/others/observer/lv_observer.c ****     LV_ASSERT_NULL(subject);
 336:Drivers/lvgl/src/others/observer/lv_observer.c ****     if(subject->type == LV_SUBJECT_TYPE_INVALID) {
 337:Drivers/lvgl/src/others/observer/lv_observer.c ****         LV_LOG_WARN("Subject not initialized yet");
 338:Drivers/lvgl/src/others/observer/lv_observer.c ****         return NULL;
 339:Drivers/lvgl/src/others/observer/lv_observer.c ****     }
 340:Drivers/lvgl/src/others/observer/lv_observer.c ****     lv_observer_t * observer = lv_ll_ins_tail(&(subject->subs_ll));
 341:Drivers/lvgl/src/others/observer/lv_observer.c ****     LV_ASSERT_MALLOC(observer);
 342:Drivers/lvgl/src/others/observer/lv_observer.c ****     if(observer == NULL) return NULL;
 343:Drivers/lvgl/src/others/observer/lv_observer.c **** 
 344:Drivers/lvgl/src/others/observer/lv_observer.c ****     lv_memzero(observer, sizeof(*observer));
 345:Drivers/lvgl/src/others/observer/lv_observer.c **** 
 346:Drivers/lvgl/src/others/observer/lv_observer.c ****     observer->subject = subject;
 347:Drivers/lvgl/src/others/observer/lv_observer.c ****     observer->cb = cb;
 348:Drivers/lvgl/src/others/observer/lv_observer.c ****     observer->user_data = user_data;
 349:Drivers/lvgl/src/others/observer/lv_observer.c ****     observer->target = obj;
 350:Drivers/lvgl/src/others/observer/lv_observer.c ****     observer->for_obj = 1;
 351:Drivers/lvgl/src/others/observer/lv_observer.c ****     /* subscribe to delete event of the object */
 352:Drivers/lvgl/src/others/observer/lv_observer.c ****     if(obj != NULL) {
 353:Drivers/lvgl/src/others/observer/lv_observer.c ****         lv_obj_add_event_cb(obj, unsubscribe_on_delete_cb, LV_EVENT_DELETE, observer);
 354:Drivers/lvgl/src/others/observer/lv_observer.c ****     }
 355:Drivers/lvgl/src/others/observer/lv_observer.c **** 
 356:Drivers/lvgl/src/others/observer/lv_observer.c ****     /* Update Observer immediately. */
 357:Drivers/lvgl/src/others/observer/lv_observer.c ****     if(observer->cb) observer->cb(observer, subject);
 358:Drivers/lvgl/src/others/observer/lv_observer.c **** 
 359:Drivers/lvgl/src/others/observer/lv_observer.c ****     return observer;
 360:Drivers/lvgl/src/others/observer/lv_observer.c **** }
 361:Drivers/lvgl/src/others/observer/lv_observer.c **** 
 362:Drivers/lvgl/src/others/observer/lv_observer.c **** lv_observer_t * lv_subject_add_observer_with_target(lv_subject_t * subject, lv_observer_cb_t cb, vo
 363:Drivers/lvgl/src/others/observer/lv_observer.c ****                                                     void * user_data)
 364:Drivers/lvgl/src/others/observer/lv_observer.c **** {
 365:Drivers/lvgl/src/others/observer/lv_observer.c ****     LV_ASSERT_NULL(subject);
 366:Drivers/lvgl/src/others/observer/lv_observer.c ****     if(subject->type == LV_SUBJECT_TYPE_INVALID) {
 367:Drivers/lvgl/src/others/observer/lv_observer.c ****         LV_LOG_WARN("Subject not initialized yet");
 368:Drivers/lvgl/src/others/observer/lv_observer.c ****         return NULL;
 369:Drivers/lvgl/src/others/observer/lv_observer.c ****     }
 370:Drivers/lvgl/src/others/observer/lv_observer.c ****     lv_observer_t * observer = lv_ll_ins_tail(&(subject->subs_ll));
 371:Drivers/lvgl/src/others/observer/lv_observer.c ****     LV_ASSERT_MALLOC(observer);
 372:Drivers/lvgl/src/others/observer/lv_observer.c ****     if(observer == NULL) return NULL;
ARM GAS  /tmp/cc972Q0K.s 			page 8


 373:Drivers/lvgl/src/others/observer/lv_observer.c **** 
 374:Drivers/lvgl/src/others/observer/lv_observer.c ****     lv_memzero(observer, sizeof(*observer));
 375:Drivers/lvgl/src/others/observer/lv_observer.c **** 
 376:Drivers/lvgl/src/others/observer/lv_observer.c ****     observer->subject = subject;
 377:Drivers/lvgl/src/others/observer/lv_observer.c ****     observer->cb = cb;
 378:Drivers/lvgl/src/others/observer/lv_observer.c ****     observer->user_data = user_data;
 379:Drivers/lvgl/src/others/observer/lv_observer.c ****     observer->target = target;
 380:Drivers/lvgl/src/others/observer/lv_observer.c **** 
 381:Drivers/lvgl/src/others/observer/lv_observer.c ****     /* Update Observer immediately. */
 382:Drivers/lvgl/src/others/observer/lv_observer.c ****     if(observer->cb) observer->cb(observer, subject);
 383:Drivers/lvgl/src/others/observer/lv_observer.c **** 
 384:Drivers/lvgl/src/others/observer/lv_observer.c ****     return observer;
 385:Drivers/lvgl/src/others/observer/lv_observer.c **** }
 386:Drivers/lvgl/src/others/observer/lv_observer.c **** 
 387:Drivers/lvgl/src/others/observer/lv_observer.c **** 
 388:Drivers/lvgl/src/others/observer/lv_observer.c **** void lv_observer_remove(lv_observer_t * observer)
 389:Drivers/lvgl/src/others/observer/lv_observer.c **** {
 390:Drivers/lvgl/src/others/observer/lv_observer.c ****     LV_ASSERT_NULL(observer);
 391:Drivers/lvgl/src/others/observer/lv_observer.c **** 
 392:Drivers/lvgl/src/others/observer/lv_observer.c ****     if(observer->for_obj && observer->target) {
 393:Drivers/lvgl/src/others/observer/lv_observer.c ****         lv_obj_remove_event_cb_with_user_data(observer->target, unsubscribe_on_delete_cb, observer)
 394:Drivers/lvgl/src/others/observer/lv_observer.c ****         lv_obj_remove_event_cb_with_user_data(observer->target, NULL, observer->subject);
 395:Drivers/lvgl/src/others/observer/lv_observer.c ****     }
 396:Drivers/lvgl/src/others/observer/lv_observer.c **** 
 397:Drivers/lvgl/src/others/observer/lv_observer.c ****     observer->subject->notify_restart_query = 1;
 398:Drivers/lvgl/src/others/observer/lv_observer.c **** 
 399:Drivers/lvgl/src/others/observer/lv_observer.c ****     lv_ll_remove(&(observer->subject->subs_ll), observer);
 400:Drivers/lvgl/src/others/observer/lv_observer.c **** 
 401:Drivers/lvgl/src/others/observer/lv_observer.c ****     if(observer->auto_free_user_data) {
 402:Drivers/lvgl/src/others/observer/lv_observer.c ****         lv_free(observer->user_data);
 403:Drivers/lvgl/src/others/observer/lv_observer.c ****     }
 404:Drivers/lvgl/src/others/observer/lv_observer.c ****     lv_free(observer);
 405:Drivers/lvgl/src/others/observer/lv_observer.c **** }
 406:Drivers/lvgl/src/others/observer/lv_observer.c **** 
 407:Drivers/lvgl/src/others/observer/lv_observer.c **** void lv_obj_remove_from_subject(lv_obj_t * obj, lv_subject_t * subject)
 408:Drivers/lvgl/src/others/observer/lv_observer.c **** {
 409:Drivers/lvgl/src/others/observer/lv_observer.c ****     LV_ASSERT_NULL(obj);
 410:Drivers/lvgl/src/others/observer/lv_observer.c ****     /*
 411:Drivers/lvgl/src/others/observer/lv_observer.c ****      * Look for the `observer` that connects `obj` and `subject`
 412:Drivers/lvgl/src/others/observer/lv_observer.c ****      * Since the obj is associated with the subject,
 413:Drivers/lvgl/src/others/observer/lv_observer.c ****      *  the `obj` will have an LV_EVENT_REMOVE event with the `unsubscribe_on_delete_cb` callback
 414:Drivers/lvgl/src/others/observer/lv_observer.c ****      *  associated.
 415:Drivers/lvgl/src/others/observer/lv_observer.c ****      * From the event we can then find the observer in the event's `user_data` field
 416:Drivers/lvgl/src/others/observer/lv_observer.c ****      */
 417:Drivers/lvgl/src/others/observer/lv_observer.c ****     int32_t i;
 418:Drivers/lvgl/src/others/observer/lv_observer.c ****     int32_t event_cnt = (int32_t)(obj->spec_attr ? lv_event_get_count(&obj->spec_attr->event_list) 
 419:Drivers/lvgl/src/others/observer/lv_observer.c ****     for(i = event_cnt - 1; i >= 0; i--) {
 420:Drivers/lvgl/src/others/observer/lv_observer.c ****         lv_event_dsc_t * event_dsc = lv_obj_get_event_dsc(obj, i);
 421:Drivers/lvgl/src/others/observer/lv_observer.c ****         if(event_dsc->cb == unsubscribe_on_delete_cb) {
 422:Drivers/lvgl/src/others/observer/lv_observer.c ****             lv_observer_t * observer = event_dsc->user_data;
 423:Drivers/lvgl/src/others/observer/lv_observer.c ****             if(subject == NULL || subject == observer->subject) {
 424:Drivers/lvgl/src/others/observer/lv_observer.c ****                 /* lv_observer_remove handles the deletion of all possible event callbacks */
 425:Drivers/lvgl/src/others/observer/lv_observer.c ****                 lv_observer_remove(observer);
 426:Drivers/lvgl/src/others/observer/lv_observer.c ****             }
 427:Drivers/lvgl/src/others/observer/lv_observer.c ****         }
 428:Drivers/lvgl/src/others/observer/lv_observer.c ****     }
 429:Drivers/lvgl/src/others/observer/lv_observer.c ****     /* Gracefully de-couple `subject` from Widget by deleting any existing
ARM GAS  /tmp/cc972Q0K.s 			page 9


 430:Drivers/lvgl/src/others/observer/lv_observer.c ****      * `LV_EVENT_VALUE_CHANGED` event associated with `subject` in case
 431:Drivers/lvgl/src/others/observer/lv_observer.c ****      * one of the `..._bind_value()` functions was used. */
 432:Drivers/lvgl/src/others/observer/lv_observer.c ****     lv_obj_remove_event_cb_with_user_data(obj, NULL, subject);
 433:Drivers/lvgl/src/others/observer/lv_observer.c **** 
 434:Drivers/lvgl/src/others/observer/lv_observer.c **** }
 435:Drivers/lvgl/src/others/observer/lv_observer.c **** 
 436:Drivers/lvgl/src/others/observer/lv_observer.c **** void * lv_observer_get_target(lv_observer_t * observer)
 437:Drivers/lvgl/src/others/observer/lv_observer.c **** {
 438:Drivers/lvgl/src/others/observer/lv_observer.c ****     LV_ASSERT_NULL(observer);
 439:Drivers/lvgl/src/others/observer/lv_observer.c **** 
 440:Drivers/lvgl/src/others/observer/lv_observer.c ****     return observer->target;
 441:Drivers/lvgl/src/others/observer/lv_observer.c **** }
 442:Drivers/lvgl/src/others/observer/lv_observer.c **** 
 443:Drivers/lvgl/src/others/observer/lv_observer.c **** void lv_subject_notify(lv_subject_t * subject)
 444:Drivers/lvgl/src/others/observer/lv_observer.c **** {
 445:Drivers/lvgl/src/others/observer/lv_observer.c ****     LV_ASSERT_NULL(subject);
 446:Drivers/lvgl/src/others/observer/lv_observer.c **** 
 447:Drivers/lvgl/src/others/observer/lv_observer.c ****     lv_observer_t * observer;
 448:Drivers/lvgl/src/others/observer/lv_observer.c ****     LV_LL_READ(&(subject->subs_ll), observer) {
 449:Drivers/lvgl/src/others/observer/lv_observer.c ****         observer->notified = 0;
 450:Drivers/lvgl/src/others/observer/lv_observer.c ****     }
 451:Drivers/lvgl/src/others/observer/lv_observer.c **** 
 452:Drivers/lvgl/src/others/observer/lv_observer.c ****     do {
 453:Drivers/lvgl/src/others/observer/lv_observer.c ****         subject->notify_restart_query = 0;
 454:Drivers/lvgl/src/others/observer/lv_observer.c ****         LV_LL_READ(&(subject->subs_ll), observer) {
 455:Drivers/lvgl/src/others/observer/lv_observer.c ****             if(observer->cb && observer->notified == 0) {
 456:Drivers/lvgl/src/others/observer/lv_observer.c ****                 observer->cb(observer, subject);
 457:Drivers/lvgl/src/others/observer/lv_observer.c ****                 if(subject->notify_restart_query) break;
 458:Drivers/lvgl/src/others/observer/lv_observer.c ****                 observer->notified = 1;
 459:Drivers/lvgl/src/others/observer/lv_observer.c ****             }
 460:Drivers/lvgl/src/others/observer/lv_observer.c ****         }
 461:Drivers/lvgl/src/others/observer/lv_observer.c ****     } while(subject->notify_restart_query);
 462:Drivers/lvgl/src/others/observer/lv_observer.c **** }
 463:Drivers/lvgl/src/others/observer/lv_observer.c **** 
 464:Drivers/lvgl/src/others/observer/lv_observer.c **** lv_observer_t * lv_obj_bind_flag_if_eq(lv_obj_t * obj, lv_subject_t * subject, lv_obj_flag_t flag, 
 465:Drivers/lvgl/src/others/observer/lv_observer.c **** {
 466:Drivers/lvgl/src/others/observer/lv_observer.c ****     lv_observer_t * observable = bind_to_bitfield(subject, obj, obj_flag_observer_cb, flag, ref_val
 467:Drivers/lvgl/src/others/observer/lv_observer.c ****     return observable;
 468:Drivers/lvgl/src/others/observer/lv_observer.c **** }
 469:Drivers/lvgl/src/others/observer/lv_observer.c **** 
 470:Drivers/lvgl/src/others/observer/lv_observer.c **** lv_observer_t * lv_obj_bind_flag_if_not_eq(lv_obj_t * obj, lv_subject_t * subject, lv_obj_flag_t fl
 471:Drivers/lvgl/src/others/observer/lv_observer.c ****                                            int32_t ref_value)
 472:Drivers/lvgl/src/others/observer/lv_observer.c **** {
 473:Drivers/lvgl/src/others/observer/lv_observer.c ****     lv_observer_t * observable = bind_to_bitfield(subject, obj, obj_flag_observer_cb, flag, ref_val
 474:Drivers/lvgl/src/others/observer/lv_observer.c ****     return observable;
 475:Drivers/lvgl/src/others/observer/lv_observer.c **** }
 476:Drivers/lvgl/src/others/observer/lv_observer.c **** lv_observer_t * lv_obj_bind_flag_if_gt(lv_obj_t * obj, lv_subject_t * subject, lv_obj_flag_t flag, 
 477:Drivers/lvgl/src/others/observer/lv_observer.c **** {
 478:Drivers/lvgl/src/others/observer/lv_observer.c **** 
 479:Drivers/lvgl/src/others/observer/lv_observer.c ****     lv_observer_t * observable = bind_to_bitfield(subject, obj, obj_flag_observer_cb, flag, ref_val
 480:Drivers/lvgl/src/others/observer/lv_observer.c ****     return observable;
 481:Drivers/lvgl/src/others/observer/lv_observer.c **** }
 482:Drivers/lvgl/src/others/observer/lv_observer.c **** 
 483:Drivers/lvgl/src/others/observer/lv_observer.c **** lv_observer_t * lv_obj_bind_flag_if_ge(lv_obj_t * obj, lv_subject_t * subject, lv_obj_flag_t flag, 
 484:Drivers/lvgl/src/others/observer/lv_observer.c **** {
 485:Drivers/lvgl/src/others/observer/lv_observer.c **** 
 486:Drivers/lvgl/src/others/observer/lv_observer.c ****     lv_observer_t * observable = bind_to_bitfield(subject, obj, obj_flag_observer_cb, flag, ref_val
ARM GAS  /tmp/cc972Q0K.s 			page 10


 487:Drivers/lvgl/src/others/observer/lv_observer.c ****     return observable;
 488:Drivers/lvgl/src/others/observer/lv_observer.c **** }
 489:Drivers/lvgl/src/others/observer/lv_observer.c **** 
 490:Drivers/lvgl/src/others/observer/lv_observer.c **** lv_observer_t * lv_obj_bind_flag_if_lt(lv_obj_t * obj, lv_subject_t * subject, lv_obj_flag_t flag, 
 491:Drivers/lvgl/src/others/observer/lv_observer.c **** {
 492:Drivers/lvgl/src/others/observer/lv_observer.c ****     /* a < b == !(a >= b) */
 493:Drivers/lvgl/src/others/observer/lv_observer.c ****     lv_observer_t * observable = bind_to_bitfield(subject, obj, obj_flag_observer_cb, flag, ref_val
 494:Drivers/lvgl/src/others/observer/lv_observer.c ****     return observable;
 495:Drivers/lvgl/src/others/observer/lv_observer.c **** }
 496:Drivers/lvgl/src/others/observer/lv_observer.c **** 
 497:Drivers/lvgl/src/others/observer/lv_observer.c **** lv_observer_t * lv_obj_bind_flag_if_le(lv_obj_t * obj, lv_subject_t * subject, lv_obj_flag_t flag, 
 498:Drivers/lvgl/src/others/observer/lv_observer.c **** {
 499:Drivers/lvgl/src/others/observer/lv_observer.c ****     /* a <= b == !(a > b) */
 500:Drivers/lvgl/src/others/observer/lv_observer.c ****     lv_observer_t * observable = bind_to_bitfield(subject, obj, obj_flag_observer_cb, flag, ref_val
 501:Drivers/lvgl/src/others/observer/lv_observer.c ****     return observable;
 502:Drivers/lvgl/src/others/observer/lv_observer.c **** 
 503:Drivers/lvgl/src/others/observer/lv_observer.c **** }
 504:Drivers/lvgl/src/others/observer/lv_observer.c **** 
 505:Drivers/lvgl/src/others/observer/lv_observer.c **** lv_observer_t * lv_obj_bind_state_if_eq(lv_obj_t * obj, lv_subject_t * subject, lv_state_t state, i
 506:Drivers/lvgl/src/others/observer/lv_observer.c **** {
 507:Drivers/lvgl/src/others/observer/lv_observer.c ****     lv_observer_t * observable = bind_to_bitfield(subject, obj, obj_state_observer_cb, state, ref_v
 508:Drivers/lvgl/src/others/observer/lv_observer.c ****                                                   FLAG_COND_EQ);
 509:Drivers/lvgl/src/others/observer/lv_observer.c ****     return observable;
 510:Drivers/lvgl/src/others/observer/lv_observer.c **** }
 511:Drivers/lvgl/src/others/observer/lv_observer.c **** 
 512:Drivers/lvgl/src/others/observer/lv_observer.c **** lv_observer_t * lv_obj_bind_state_if_not_eq(lv_obj_t * obj, lv_subject_t * subject, lv_state_t stat
 513:Drivers/lvgl/src/others/observer/lv_observer.c **** {
 514:Drivers/lvgl/src/others/observer/lv_observer.c ****     lv_observer_t * observable = bind_to_bitfield(subject, obj, obj_state_observer_cb, state, ref_v
 515:Drivers/lvgl/src/others/observer/lv_observer.c ****                                                   FLAG_COND_EQ);
 516:Drivers/lvgl/src/others/observer/lv_observer.c ****     return observable;
 517:Drivers/lvgl/src/others/observer/lv_observer.c **** }
 518:Drivers/lvgl/src/others/observer/lv_observer.c **** 
 519:Drivers/lvgl/src/others/observer/lv_observer.c **** lv_observer_t * lv_obj_bind_state_if_gt(lv_obj_t * obj, lv_subject_t * subject, lv_state_t state, i
 520:Drivers/lvgl/src/others/observer/lv_observer.c **** {
 521:Drivers/lvgl/src/others/observer/lv_observer.c **** 
 522:Drivers/lvgl/src/others/observer/lv_observer.c ****     lv_observer_t * observable = bind_to_bitfield(subject, obj, obj_state_observer_cb, state, ref_v
 523:Drivers/lvgl/src/others/observer/lv_observer.c ****                                                   FLAG_COND_GT);
 524:Drivers/lvgl/src/others/observer/lv_observer.c ****     return observable;
 525:Drivers/lvgl/src/others/observer/lv_observer.c **** }
 526:Drivers/lvgl/src/others/observer/lv_observer.c **** 
 527:Drivers/lvgl/src/others/observer/lv_observer.c **** lv_observer_t * lv_obj_bind_state_if_ge(lv_obj_t * obj, lv_subject_t * subject, lv_state_t state, i
 528:Drivers/lvgl/src/others/observer/lv_observer.c **** {
 529:Drivers/lvgl/src/others/observer/lv_observer.c ****     lv_observer_t * observable = bind_to_bitfield(subject, obj, obj_state_observer_cb, state, ref_v
 530:Drivers/lvgl/src/others/observer/lv_observer.c ****                                                   FLAG_COND_GE);
 531:Drivers/lvgl/src/others/observer/lv_observer.c ****     return observable;
 532:Drivers/lvgl/src/others/observer/lv_observer.c **** }
 533:Drivers/lvgl/src/others/observer/lv_observer.c **** 
 534:Drivers/lvgl/src/others/observer/lv_observer.c **** lv_observer_t * lv_obj_bind_state_if_lt(lv_obj_t * obj, lv_subject_t * subject, lv_state_t state, i
 535:Drivers/lvgl/src/others/observer/lv_observer.c **** {
 536:Drivers/lvgl/src/others/observer/lv_observer.c ****     /* a < b == !(a >= b) */
 537:Drivers/lvgl/src/others/observer/lv_observer.c ****     lv_observer_t * observable = bind_to_bitfield(subject, obj, obj_state_observer_cb, state, ref_v
 538:Drivers/lvgl/src/others/observer/lv_observer.c ****                                                   FLAG_COND_GE);
 539:Drivers/lvgl/src/others/observer/lv_observer.c ****     return observable;
 540:Drivers/lvgl/src/others/observer/lv_observer.c **** 
 541:Drivers/lvgl/src/others/observer/lv_observer.c **** }
 542:Drivers/lvgl/src/others/observer/lv_observer.c **** 
 543:Drivers/lvgl/src/others/observer/lv_observer.c **** lv_observer_t * lv_obj_bind_state_if_le(lv_obj_t * obj, lv_subject_t * subject, lv_state_t state, i
ARM GAS  /tmp/cc972Q0K.s 			page 11


 544:Drivers/lvgl/src/others/observer/lv_observer.c **** {
 545:Drivers/lvgl/src/others/observer/lv_observer.c **** 
 546:Drivers/lvgl/src/others/observer/lv_observer.c ****     /* a <= b == !(a > b) */
 547:Drivers/lvgl/src/others/observer/lv_observer.c ****     lv_observer_t * observable = bind_to_bitfield(subject, obj, obj_state_observer_cb, state, ref_v
 548:Drivers/lvgl/src/others/observer/lv_observer.c ****                                                   FLAG_COND_GT);
 549:Drivers/lvgl/src/others/observer/lv_observer.c ****     return observable;
 550:Drivers/lvgl/src/others/observer/lv_observer.c **** }
 551:Drivers/lvgl/src/others/observer/lv_observer.c **** 
 552:Drivers/lvgl/src/others/observer/lv_observer.c **** 
 553:Drivers/lvgl/src/others/observer/lv_observer.c **** lv_observer_t * lv_obj_bind_checked(lv_obj_t * obj, lv_subject_t * subject)
 554:Drivers/lvgl/src/others/observer/lv_observer.c **** {
 555:Drivers/lvgl/src/others/observer/lv_observer.c ****     lv_observer_t * observable = bind_to_bitfield(subject, obj, obj_state_observer_cb, LV_STATE_CHE
 556:Drivers/lvgl/src/others/observer/lv_observer.c ****                                                   FLAG_COND_EQ);
 557:Drivers/lvgl/src/others/observer/lv_observer.c ****     lv_obj_add_event_cb(obj, obj_value_changed_event_cb, LV_EVENT_VALUE_CHANGED, subject);
 558:Drivers/lvgl/src/others/observer/lv_observer.c ****     return observable;
 559:Drivers/lvgl/src/others/observer/lv_observer.c **** }
 560:Drivers/lvgl/src/others/observer/lv_observer.c **** 
 561:Drivers/lvgl/src/others/observer/lv_observer.c **** #if LV_USE_LABEL
 562:Drivers/lvgl/src/others/observer/lv_observer.c **** lv_observer_t * lv_label_bind_text(lv_obj_t * obj, lv_subject_t * subject, const char * fmt)
 563:Drivers/lvgl/src/others/observer/lv_observer.c **** {
 564:Drivers/lvgl/src/others/observer/lv_observer.c ****     LV_ASSERT_NULL(subject);
 565:Drivers/lvgl/src/others/observer/lv_observer.c ****     LV_ASSERT_NULL(obj);
 566:Drivers/lvgl/src/others/observer/lv_observer.c **** 
 567:Drivers/lvgl/src/others/observer/lv_observer.c ****     if(fmt == NULL) {
 568:Drivers/lvgl/src/others/observer/lv_observer.c ****         if(subject->type == LV_SUBJECT_TYPE_INT) {
 569:Drivers/lvgl/src/others/observer/lv_observer.c ****             fmt = "%d";
 570:Drivers/lvgl/src/others/observer/lv_observer.c ****         }
 571:Drivers/lvgl/src/others/observer/lv_observer.c ****         else if(subject->type != LV_SUBJECT_TYPE_STRING && subject->type != LV_SUBJECT_TYPE_POINTER
 572:Drivers/lvgl/src/others/observer/lv_observer.c ****             LV_LOG_WARN("Incompatible subject type: %d", subject->type);
 573:Drivers/lvgl/src/others/observer/lv_observer.c ****             return NULL;
 574:Drivers/lvgl/src/others/observer/lv_observer.c ****         }
 575:Drivers/lvgl/src/others/observer/lv_observer.c ****     }
 576:Drivers/lvgl/src/others/observer/lv_observer.c ****     else {
 577:Drivers/lvgl/src/others/observer/lv_observer.c ****         if(subject->type != LV_SUBJECT_TYPE_STRING && subject->type != LV_SUBJECT_TYPE_POINTER &&
 578:Drivers/lvgl/src/others/observer/lv_observer.c ****            subject->type != LV_SUBJECT_TYPE_INT) {
 579:Drivers/lvgl/src/others/observer/lv_observer.c ****             LV_LOG_WARN("Incompatible subject type: %d", subject->type);
 580:Drivers/lvgl/src/others/observer/lv_observer.c ****             return NULL;
 581:Drivers/lvgl/src/others/observer/lv_observer.c ****         }
 582:Drivers/lvgl/src/others/observer/lv_observer.c ****     }
 583:Drivers/lvgl/src/others/observer/lv_observer.c **** 
 584:Drivers/lvgl/src/others/observer/lv_observer.c ****     lv_observer_t * observer = lv_subject_add_observer_obj(subject, label_text_observer_cb, obj, (v
 585:Drivers/lvgl/src/others/observer/lv_observer.c ****     return observer;
 586:Drivers/lvgl/src/others/observer/lv_observer.c **** }
 587:Drivers/lvgl/src/others/observer/lv_observer.c **** #endif /*LV_USE_LABEL*/
 588:Drivers/lvgl/src/others/observer/lv_observer.c **** 
 589:Drivers/lvgl/src/others/observer/lv_observer.c **** #if LV_USE_ARC
 590:Drivers/lvgl/src/others/observer/lv_observer.c **** lv_observer_t * lv_arc_bind_value(lv_obj_t * obj, lv_subject_t * subject)
 591:Drivers/lvgl/src/others/observer/lv_observer.c **** {
 592:Drivers/lvgl/src/others/observer/lv_observer.c ****     LV_ASSERT_NULL(subject);
 593:Drivers/lvgl/src/others/observer/lv_observer.c ****     LV_ASSERT_NULL(obj);
 594:Drivers/lvgl/src/others/observer/lv_observer.c **** 
 595:Drivers/lvgl/src/others/observer/lv_observer.c ****     if(subject->type != LV_SUBJECT_TYPE_INT) {
 596:Drivers/lvgl/src/others/observer/lv_observer.c ****         LV_LOG_WARN("Incompatible subject type: %d", subject->type);
 597:Drivers/lvgl/src/others/observer/lv_observer.c ****         return NULL;
 598:Drivers/lvgl/src/others/observer/lv_observer.c ****     }
 599:Drivers/lvgl/src/others/observer/lv_observer.c **** 
 600:Drivers/lvgl/src/others/observer/lv_observer.c ****     lv_obj_add_event_cb(obj, arc_value_changed_event_cb, LV_EVENT_VALUE_CHANGED, subject);
ARM GAS  /tmp/cc972Q0K.s 			page 12


 601:Drivers/lvgl/src/others/observer/lv_observer.c **** 
 602:Drivers/lvgl/src/others/observer/lv_observer.c ****     lv_observer_t * observer = lv_subject_add_observer_obj(subject, arc_value_observer_cb, obj, NUL
 603:Drivers/lvgl/src/others/observer/lv_observer.c ****     return observer;
 604:Drivers/lvgl/src/others/observer/lv_observer.c **** }
 605:Drivers/lvgl/src/others/observer/lv_observer.c **** #endif /*LV_USE_ARC*/
 606:Drivers/lvgl/src/others/observer/lv_observer.c **** 
 607:Drivers/lvgl/src/others/observer/lv_observer.c **** #if LV_USE_SLIDER
 608:Drivers/lvgl/src/others/observer/lv_observer.c **** lv_observer_t * lv_slider_bind_value(lv_obj_t * obj, lv_subject_t * subject)
 609:Drivers/lvgl/src/others/observer/lv_observer.c **** {
 610:Drivers/lvgl/src/others/observer/lv_observer.c ****     LV_ASSERT_NULL(subject);
 611:Drivers/lvgl/src/others/observer/lv_observer.c ****     LV_ASSERT_NULL(obj);
 612:Drivers/lvgl/src/others/observer/lv_observer.c **** 
 613:Drivers/lvgl/src/others/observer/lv_observer.c ****     if(subject->type != LV_SUBJECT_TYPE_INT) {
 614:Drivers/lvgl/src/others/observer/lv_observer.c ****         LV_LOG_WARN("Incompatible subject type: %d", subject->type);
 615:Drivers/lvgl/src/others/observer/lv_observer.c ****         return NULL;
 616:Drivers/lvgl/src/others/observer/lv_observer.c ****     }
 617:Drivers/lvgl/src/others/observer/lv_observer.c **** 
 618:Drivers/lvgl/src/others/observer/lv_observer.c ****     lv_obj_add_event_cb(obj, slider_value_changed_event_cb, LV_EVENT_VALUE_CHANGED, subject);
 619:Drivers/lvgl/src/others/observer/lv_observer.c **** 
 620:Drivers/lvgl/src/others/observer/lv_observer.c ****     lv_observer_t * observer = lv_subject_add_observer_obj(subject, slider_value_observer_cb, obj, 
 621:Drivers/lvgl/src/others/observer/lv_observer.c ****     return observer;
 622:Drivers/lvgl/src/others/observer/lv_observer.c **** }
 623:Drivers/lvgl/src/others/observer/lv_observer.c **** #endif /*LV_USE_SLIDER*/
 624:Drivers/lvgl/src/others/observer/lv_observer.c **** 
 625:Drivers/lvgl/src/others/observer/lv_observer.c **** #if LV_USE_ROLLER
 626:Drivers/lvgl/src/others/observer/lv_observer.c **** lv_observer_t * lv_roller_bind_value(lv_obj_t * obj, lv_subject_t * subject)
 627:Drivers/lvgl/src/others/observer/lv_observer.c **** {
 628:Drivers/lvgl/src/others/observer/lv_observer.c ****     LV_ASSERT_NULL(subject);
 629:Drivers/lvgl/src/others/observer/lv_observer.c ****     LV_ASSERT_NULL(obj);
 630:Drivers/lvgl/src/others/observer/lv_observer.c **** 
 631:Drivers/lvgl/src/others/observer/lv_observer.c ****     if(subject->type != LV_SUBJECT_TYPE_INT) {
 632:Drivers/lvgl/src/others/observer/lv_observer.c ****         LV_LOG_WARN("Incompatible subject type: %d", subject->type);
 633:Drivers/lvgl/src/others/observer/lv_observer.c ****         return NULL;
 634:Drivers/lvgl/src/others/observer/lv_observer.c ****     }
 635:Drivers/lvgl/src/others/observer/lv_observer.c **** 
 636:Drivers/lvgl/src/others/observer/lv_observer.c ****     lv_obj_add_event_cb(obj, roller_value_changed_event_cb, LV_EVENT_VALUE_CHANGED, subject);
 637:Drivers/lvgl/src/others/observer/lv_observer.c **** 
 638:Drivers/lvgl/src/others/observer/lv_observer.c ****     lv_observer_t * observer = lv_subject_add_observer_obj(subject, roller_value_observer_cb, obj, 
 639:Drivers/lvgl/src/others/observer/lv_observer.c ****     return observer;
 640:Drivers/lvgl/src/others/observer/lv_observer.c **** }
 641:Drivers/lvgl/src/others/observer/lv_observer.c **** #endif /*LV_USE_ROLLER*/
 642:Drivers/lvgl/src/others/observer/lv_observer.c **** 
 643:Drivers/lvgl/src/others/observer/lv_observer.c **** #if LV_USE_DROPDOWN
 644:Drivers/lvgl/src/others/observer/lv_observer.c **** lv_observer_t * lv_dropdown_bind_value(lv_obj_t * obj, lv_subject_t * subject)
 645:Drivers/lvgl/src/others/observer/lv_observer.c **** {
 646:Drivers/lvgl/src/others/observer/lv_observer.c ****     LV_ASSERT_NULL(subject);
 647:Drivers/lvgl/src/others/observer/lv_observer.c ****     LV_ASSERT_NULL(obj);
 648:Drivers/lvgl/src/others/observer/lv_observer.c **** 
 649:Drivers/lvgl/src/others/observer/lv_observer.c ****     if(subject->type != LV_SUBJECT_TYPE_INT) {
 650:Drivers/lvgl/src/others/observer/lv_observer.c ****         LV_LOG_WARN("Incompatible subject type: %d", subject->type);
 651:Drivers/lvgl/src/others/observer/lv_observer.c ****         return NULL;
 652:Drivers/lvgl/src/others/observer/lv_observer.c ****     }
 653:Drivers/lvgl/src/others/observer/lv_observer.c **** 
 654:Drivers/lvgl/src/others/observer/lv_observer.c ****     lv_obj_add_event_cb(obj, dropdown_value_changed_event_cb, LV_EVENT_VALUE_CHANGED, subject);
 655:Drivers/lvgl/src/others/observer/lv_observer.c **** 
 656:Drivers/lvgl/src/others/observer/lv_observer.c ****     lv_observer_t * observer = lv_subject_add_observer_obj(subject, dropdown_value_observer_cb, obj
 657:Drivers/lvgl/src/others/observer/lv_observer.c ****     return observer;
ARM GAS  /tmp/cc972Q0K.s 			page 13


 658:Drivers/lvgl/src/others/observer/lv_observer.c **** }
 659:Drivers/lvgl/src/others/observer/lv_observer.c **** #endif /*LV_USE_DROPDOWN*/
 660:Drivers/lvgl/src/others/observer/lv_observer.c **** 
 661:Drivers/lvgl/src/others/observer/lv_observer.c **** lv_obj_t * lv_observer_get_target_obj(lv_observer_t * observer)
 662:Drivers/lvgl/src/others/observer/lv_observer.c **** {
 663:Drivers/lvgl/src/others/observer/lv_observer.c ****     return (lv_obj_t *)lv_observer_get_target(observer);
 664:Drivers/lvgl/src/others/observer/lv_observer.c **** }
 665:Drivers/lvgl/src/others/observer/lv_observer.c **** 
 666:Drivers/lvgl/src/others/observer/lv_observer.c **** void * lv_observer_get_user_data(const lv_observer_t * observer)
 667:Drivers/lvgl/src/others/observer/lv_observer.c **** {
 668:Drivers/lvgl/src/others/observer/lv_observer.c ****     LV_ASSERT_NULL(observer);
 669:Drivers/lvgl/src/others/observer/lv_observer.c **** 
 670:Drivers/lvgl/src/others/observer/lv_observer.c ****     return observer->user_data;
 671:Drivers/lvgl/src/others/observer/lv_observer.c **** }
 672:Drivers/lvgl/src/others/observer/lv_observer.c **** 
 673:Drivers/lvgl/src/others/observer/lv_observer.c **** /**********************
 674:Drivers/lvgl/src/others/observer/lv_observer.c ****  *   STATIC FUNCTIONS
 675:Drivers/lvgl/src/others/observer/lv_observer.c ****  **********************/
 676:Drivers/lvgl/src/others/observer/lv_observer.c **** 
 677:Drivers/lvgl/src/others/observer/lv_observer.c **** static void group_notify_cb(lv_observer_t * observer, lv_subject_t * subject)
 678:Drivers/lvgl/src/others/observer/lv_observer.c **** {
 679:Drivers/lvgl/src/others/observer/lv_observer.c ****     LV_UNUSED(subject);
 680:Drivers/lvgl/src/others/observer/lv_observer.c ****     lv_subject_t * subject_group = observer->user_data;
 681:Drivers/lvgl/src/others/observer/lv_observer.c ****     lv_subject_notify(subject_group);
 682:Drivers/lvgl/src/others/observer/lv_observer.c **** }
 683:Drivers/lvgl/src/others/observer/lv_observer.c **** 
 684:Drivers/lvgl/src/others/observer/lv_observer.c **** static void unsubscribe_on_delete_cb(lv_event_t * e)
 685:Drivers/lvgl/src/others/observer/lv_observer.c **** {
 686:Drivers/lvgl/src/others/observer/lv_observer.c ****     lv_observer_t * observer = lv_event_get_user_data(e);
 687:Drivers/lvgl/src/others/observer/lv_observer.c ****     lv_observer_remove(observer);
 688:Drivers/lvgl/src/others/observer/lv_observer.c **** }
 689:Drivers/lvgl/src/others/observer/lv_observer.c **** 
 690:Drivers/lvgl/src/others/observer/lv_observer.c **** static lv_observer_t * bind_to_bitfield(lv_subject_t * subject, lv_obj_t * obj, lv_observer_cb_t cb
 691:Drivers/lvgl/src/others/observer/lv_observer.c ****                                         int32_t ref_value, bool inv, flag_cond_t cond)
 692:Drivers/lvgl/src/others/observer/lv_observer.c **** {
 693:Drivers/lvgl/src/others/observer/lv_observer.c ****     LV_ASSERT_NULL(subject);
 694:Drivers/lvgl/src/others/observer/lv_observer.c ****     LV_ASSERT_NULL(obj);
 695:Drivers/lvgl/src/others/observer/lv_observer.c **** 
 696:Drivers/lvgl/src/others/observer/lv_observer.c ****     if(subject->type != LV_SUBJECT_TYPE_INT) {
 697:Drivers/lvgl/src/others/observer/lv_observer.c ****         LV_LOG_WARN("Incompatible subject type: %d", subject->type);
 698:Drivers/lvgl/src/others/observer/lv_observer.c ****         return NULL;
 699:Drivers/lvgl/src/others/observer/lv_observer.c ****     }
 700:Drivers/lvgl/src/others/observer/lv_observer.c **** 
 701:Drivers/lvgl/src/others/observer/lv_observer.c ****     flag_and_cond_t * p = lv_malloc(sizeof(flag_and_cond_t));
 702:Drivers/lvgl/src/others/observer/lv_observer.c ****     if(p == NULL) {
 703:Drivers/lvgl/src/others/observer/lv_observer.c ****         LV_LOG_WARN("Out of memory");
 704:Drivers/lvgl/src/others/observer/lv_observer.c ****         return NULL;
 705:Drivers/lvgl/src/others/observer/lv_observer.c ****     }
 706:Drivers/lvgl/src/others/observer/lv_observer.c **** 
 707:Drivers/lvgl/src/others/observer/lv_observer.c ****     p->flag = flag;
 708:Drivers/lvgl/src/others/observer/lv_observer.c ****     p->value.num = ref_value;
 709:Drivers/lvgl/src/others/observer/lv_observer.c ****     p->inv = inv;
 710:Drivers/lvgl/src/others/observer/lv_observer.c ****     p->cond = cond;
 711:Drivers/lvgl/src/others/observer/lv_observer.c **** 
 712:Drivers/lvgl/src/others/observer/lv_observer.c ****     lv_observer_t * observable = lv_subject_add_observer_obj(subject, cb, obj, p);
 713:Drivers/lvgl/src/others/observer/lv_observer.c ****     observable->auto_free_user_data = 1;
 714:Drivers/lvgl/src/others/observer/lv_observer.c ****     return observable;
ARM GAS  /tmp/cc972Q0K.s 			page 14


 715:Drivers/lvgl/src/others/observer/lv_observer.c **** }
 716:Drivers/lvgl/src/others/observer/lv_observer.c **** 
 717:Drivers/lvgl/src/others/observer/lv_observer.c **** static void obj_flag_observer_cb(lv_observer_t * observer, lv_subject_t * subject)
 718:Drivers/lvgl/src/others/observer/lv_observer.c **** {
  29              		.loc 1 718 1 view -0
  30              		.cfi_startproc
  31              		@ args = 0, pretend = 0, frame = 0
  32              		@ frame_needed = 0, uses_anonymous_args = 0
  33              		.loc 1 718 1 is_stmt 0 view .LVU1
  34 0000 08B5     		push	{r3, lr}
  35              	.LCFI0:
  36              		.cfi_def_cfa_offset 8
  37              		.cfi_offset 3, -8
  38              		.cfi_offset 14, -4
 719:Drivers/lvgl/src/others/observer/lv_observer.c ****     flag_and_cond_t * p = observer->user_data;
  39              		.loc 1 719 5 is_stmt 1 view .LVU2
  40              		.loc 1 719 23 is_stmt 0 view .LVU3
  41 0002 C268     		ldr	r2, [r0, #12]
  42              	.LVL1:
 720:Drivers/lvgl/src/others/observer/lv_observer.c **** 
 721:Drivers/lvgl/src/others/observer/lv_observer.c ****     /* Initializing this keeps some compilers happy */
 722:Drivers/lvgl/src/others/observer/lv_observer.c ****     bool res = false;
  43              		.loc 1 722 5 is_stmt 1 view .LVU4
 723:Drivers/lvgl/src/others/observer/lv_observer.c ****     switch(p->cond) {
  44              		.loc 1 723 5 view .LVU5
  45              		.loc 1 723 13 is_stmt 0 view .LVU6
  46 0004 137A     		ldrb	r3, [r2, #8]	@ zero_extendqisi2
  47 0006 C3F34203 		ubfx	r3, r3, #1, #3
  48              		.loc 1 723 5 view .LVU7
  49 000a 012B     		cmp	r3, #1
  50 000c 14D0     		beq	.L2
  51 000e 022B     		cmp	r3, #2
  52 0010 19D0     		beq	.L3
  53 0012 FBB9     		cbnz	r3, .L8
 724:Drivers/lvgl/src/others/observer/lv_observer.c ****         case FLAG_COND_EQ:
 725:Drivers/lvgl/src/others/observer/lv_observer.c ****             res = subject->value.num == p->value.num;
  54              		.loc 1 725 13 is_stmt 1 view .LVU8
  55              		.loc 1 725 33 is_stmt 0 view .LVU9
  56 0014 CB68     		ldr	r3, [r1, #12]
  57              		.loc 1 725 49 view .LVU10
  58 0016 5168     		ldr	r1, [r2, #4]
  59              	.LVL2:
  60              		.loc 1 725 17 view .LVU11
  61 0018 8B42     		cmp	r3, r1
  62 001a 14BF     		ite	ne
  63 001c 0023     		movne	r3, #0
  64 001e 0123     		moveq	r3, #1
  65              	.LVL3:
 726:Drivers/lvgl/src/others/observer/lv_observer.c ****             break;
  66              		.loc 1 726 13 is_stmt 1 view .LVU12
  67              	.L4:
 727:Drivers/lvgl/src/others/observer/lv_observer.c ****         case FLAG_COND_GT:
 728:Drivers/lvgl/src/others/observer/lv_observer.c ****             res = subject->value.num > p->value.num;
 729:Drivers/lvgl/src/others/observer/lv_observer.c ****             break;
 730:Drivers/lvgl/src/others/observer/lv_observer.c ****         case FLAG_COND_GE:
 731:Drivers/lvgl/src/others/observer/lv_observer.c ****             res = subject->value.num >= p->value.num;
 732:Drivers/lvgl/src/others/observer/lv_observer.c ****             break;
ARM GAS  /tmp/cc972Q0K.s 			page 15


 733:Drivers/lvgl/src/others/observer/lv_observer.c ****     }
 734:Drivers/lvgl/src/others/observer/lv_observer.c ****     if(p->inv) res = !res;
  68              		.loc 1 734 5 view .LVU13
  69              		.loc 1 734 8 is_stmt 0 view .LVU14
  70 0020 117A     		ldrb	r1, [r2, #8]	@ zero_extendqisi2
  71              		.loc 1 734 7 view .LVU15
  72 0022 11F0010F 		tst	r1, #1
  73 0026 01D0     		beq	.L5
  74              		.loc 1 734 16 is_stmt 1 discriminator 1 view .LVU16
  75              		.loc 1 734 5 is_stmt 0 discriminator 1 view .LVU17
  76 0028 83F00103 		eor	r3, r3, #1
  77              	.LVL4:
  78              	.L5:
 735:Drivers/lvgl/src/others/observer/lv_observer.c **** 
 736:Drivers/lvgl/src/others/observer/lv_observer.c ****     if(res) {
  79              		.loc 1 736 5 is_stmt 1 view .LVU18
  80              		.loc 1 736 7 is_stmt 0 view .LVU19
  81 002c A3B1     		cbz	r3, .L6
 737:Drivers/lvgl/src/others/observer/lv_observer.c ****         lv_obj_add_flag(observer->target, p->flag);
  82              		.loc 1 737 9 is_stmt 1 view .LVU20
  83 002e 1168     		ldr	r1, [r2]
  84 0030 8068     		ldr	r0, [r0, #8]
  85              	.LVL5:
  86              		.loc 1 737 9 is_stmt 0 view .LVU21
  87 0032 FFF7FEFF 		bl	lv_obj_add_flag
  88              	.LVL6:
  89              	.L1:
 738:Drivers/lvgl/src/others/observer/lv_observer.c ****     }
 739:Drivers/lvgl/src/others/observer/lv_observer.c ****     else {
 740:Drivers/lvgl/src/others/observer/lv_observer.c ****         lv_obj_remove_flag(observer->target, p->flag);
 741:Drivers/lvgl/src/others/observer/lv_observer.c ****     }
 742:Drivers/lvgl/src/others/observer/lv_observer.c **** }
  90              		.loc 1 742 1 view .LVU22
  91 0036 08BD     		pop	{r3, pc}
  92              	.LVL7:
  93              	.L2:
 728:Drivers/lvgl/src/others/observer/lv_observer.c ****             break;
  94              		.loc 1 728 13 is_stmt 1 view .LVU23
 728:Drivers/lvgl/src/others/observer/lv_observer.c ****             break;
  95              		.loc 1 728 33 is_stmt 0 view .LVU24
  96 0038 CB68     		ldr	r3, [r1, #12]
 728:Drivers/lvgl/src/others/observer/lv_observer.c ****             break;
  97              		.loc 1 728 48 view .LVU25
  98 003a 5168     		ldr	r1, [r2, #4]
  99              	.LVL8:
 728:Drivers/lvgl/src/others/observer/lv_observer.c ****             break;
 100              		.loc 1 728 17 view .LVU26
 101 003c 8B42     		cmp	r3, r1
 102 003e D4BF     		ite	le
 103 0040 0023     		movle	r3, #0
 104 0042 0123     		movgt	r3, #1
 105              	.LVL9:
 729:Drivers/lvgl/src/others/observer/lv_observer.c ****         case FLAG_COND_GE:
 106              		.loc 1 729 13 is_stmt 1 view .LVU27
 107 0044 ECE7     		b	.L4
 108              	.LVL10:
 109              	.L3:
ARM GAS  /tmp/cc972Q0K.s 			page 16


 731:Drivers/lvgl/src/others/observer/lv_observer.c ****             break;
 110              		.loc 1 731 13 view .LVU28
 731:Drivers/lvgl/src/others/observer/lv_observer.c ****             break;
 111              		.loc 1 731 33 is_stmt 0 view .LVU29
 112 0046 CB68     		ldr	r3, [r1, #12]
 731:Drivers/lvgl/src/others/observer/lv_observer.c ****             break;
 113              		.loc 1 731 49 view .LVU30
 114 0048 5168     		ldr	r1, [r2, #4]
 115              	.LVL11:
 731:Drivers/lvgl/src/others/observer/lv_observer.c ****             break;
 116              		.loc 1 731 17 view .LVU31
 117 004a 8B42     		cmp	r3, r1
 118 004c B4BF     		ite	lt
 119 004e 0023     		movlt	r3, #0
 120 0050 0123     		movge	r3, #1
 121              	.LVL12:
 732:Drivers/lvgl/src/others/observer/lv_observer.c ****     }
 122              		.loc 1 732 13 is_stmt 1 view .LVU32
 123 0052 E5E7     		b	.L4
 124              	.LVL13:
 125              	.L8:
 723:Drivers/lvgl/src/others/observer/lv_observer.c ****         case FLAG_COND_EQ:
 126              		.loc 1 723 5 is_stmt 0 view .LVU33
 127 0054 0023     		movs	r3, #0
 128 0056 E3E7     		b	.L4
 129              	.LVL14:
 130              	.L6:
 740:Drivers/lvgl/src/others/observer/lv_observer.c ****     }
 131              		.loc 1 740 9 is_stmt 1 view .LVU34
 132 0058 1168     		ldr	r1, [r2]
 133 005a 8068     		ldr	r0, [r0, #8]
 134              	.LVL15:
 740:Drivers/lvgl/src/others/observer/lv_observer.c ****     }
 135              		.loc 1 740 9 is_stmt 0 view .LVU35
 136 005c FFF7FEFF 		bl	lv_obj_remove_flag
 137              	.LVL16:
 138              		.loc 1 742 1 view .LVU36
 139 0060 E9E7     		b	.L1
 140              		.cfi_endproc
 141              	.LFE228:
 143              		.section	.text.obj_state_observer_cb,"ax",%progbits
 144              		.align	1
 145              		.syntax unified
 146              		.thumb
 147              		.thumb_func
 149              	obj_state_observer_cb:
 150              	.LVL17:
 151              	.LFB229:
 743:Drivers/lvgl/src/others/observer/lv_observer.c **** 
 744:Drivers/lvgl/src/others/observer/lv_observer.c **** static void obj_state_observer_cb(lv_observer_t * observer, lv_subject_t * subject)
 745:Drivers/lvgl/src/others/observer/lv_observer.c **** {
 152              		.loc 1 745 1 is_stmt 1 view -0
 153              		.cfi_startproc
 154              		@ args = 0, pretend = 0, frame = 0
 155              		@ frame_needed = 0, uses_anonymous_args = 0
 156              		.loc 1 745 1 is_stmt 0 view .LVU38
 157 0000 08B5     		push	{r3, lr}
ARM GAS  /tmp/cc972Q0K.s 			page 17


 158              	.LCFI1:
 159              		.cfi_def_cfa_offset 8
 160              		.cfi_offset 3, -8
 161              		.cfi_offset 14, -4
 746:Drivers/lvgl/src/others/observer/lv_observer.c ****     flag_and_cond_t * p = observer->user_data;
 162              		.loc 1 746 5 is_stmt 1 view .LVU39
 163              		.loc 1 746 23 is_stmt 0 view .LVU40
 164 0002 C268     		ldr	r2, [r0, #12]
 165              	.LVL18:
 747:Drivers/lvgl/src/others/observer/lv_observer.c **** 
 748:Drivers/lvgl/src/others/observer/lv_observer.c ****     /* Initializing this keeps some compilers happy */
 749:Drivers/lvgl/src/others/observer/lv_observer.c ****     bool res = false;
 166              		.loc 1 749 5 is_stmt 1 view .LVU41
 750:Drivers/lvgl/src/others/observer/lv_observer.c ****     switch(p->cond) {
 167              		.loc 1 750 5 view .LVU42
 168              		.loc 1 750 13 is_stmt 0 view .LVU43
 169 0004 137A     		ldrb	r3, [r2, #8]	@ zero_extendqisi2
 170 0006 C3F34203 		ubfx	r3, r3, #1, #3
 171              		.loc 1 750 5 view .LVU44
 172 000a 012B     		cmp	r3, #1
 173 000c 14D0     		beq	.L11
 174 000e 022B     		cmp	r3, #2
 175 0010 19D0     		beq	.L12
 176 0012 FBB9     		cbnz	r3, .L17
 751:Drivers/lvgl/src/others/observer/lv_observer.c ****         case FLAG_COND_EQ:
 752:Drivers/lvgl/src/others/observer/lv_observer.c ****             res = subject->value.num == p->value.num;
 177              		.loc 1 752 13 is_stmt 1 view .LVU45
 178              		.loc 1 752 33 is_stmt 0 view .LVU46
 179 0014 CB68     		ldr	r3, [r1, #12]
 180              		.loc 1 752 49 view .LVU47
 181 0016 5168     		ldr	r1, [r2, #4]
 182              	.LVL19:
 183              		.loc 1 752 17 view .LVU48
 184 0018 8B42     		cmp	r3, r1
 185 001a 14BF     		ite	ne
 186 001c 0023     		movne	r3, #0
 187 001e 0123     		moveq	r3, #1
 188              	.LVL20:
 753:Drivers/lvgl/src/others/observer/lv_observer.c ****             break;
 189              		.loc 1 753 13 is_stmt 1 view .LVU49
 190              	.L13:
 754:Drivers/lvgl/src/others/observer/lv_observer.c ****         case FLAG_COND_GT:
 755:Drivers/lvgl/src/others/observer/lv_observer.c ****             res = subject->value.num > p->value.num;
 756:Drivers/lvgl/src/others/observer/lv_observer.c ****             break;
 757:Drivers/lvgl/src/others/observer/lv_observer.c ****         case FLAG_COND_GE:
 758:Drivers/lvgl/src/others/observer/lv_observer.c ****             res = subject->value.num >= p->value.num;
 759:Drivers/lvgl/src/others/observer/lv_observer.c ****             break;
 760:Drivers/lvgl/src/others/observer/lv_observer.c ****     }
 761:Drivers/lvgl/src/others/observer/lv_observer.c ****     if(p->inv) res = !res;
 191              		.loc 1 761 5 view .LVU50
 192              		.loc 1 761 8 is_stmt 0 view .LVU51
 193 0020 117A     		ldrb	r1, [r2, #8]	@ zero_extendqisi2
 194              		.loc 1 761 7 view .LVU52
 195 0022 11F0010F 		tst	r1, #1
 196 0026 01D0     		beq	.L14
 197              		.loc 1 761 16 is_stmt 1 discriminator 1 view .LVU53
 198              		.loc 1 761 5 is_stmt 0 discriminator 1 view .LVU54
ARM GAS  /tmp/cc972Q0K.s 			page 18


 199 0028 83F00103 		eor	r3, r3, #1
 200              	.LVL21:
 201              	.L14:
 762:Drivers/lvgl/src/others/observer/lv_observer.c **** 
 763:Drivers/lvgl/src/others/observer/lv_observer.c ****     if(res) {
 202              		.loc 1 763 5 is_stmt 1 view .LVU55
 203              		.loc 1 763 7 is_stmt 0 view .LVU56
 204 002c A3B1     		cbz	r3, .L15
 764:Drivers/lvgl/src/others/observer/lv_observer.c ****         lv_obj_add_state(observer->target, p->flag);
 205              		.loc 1 764 9 is_stmt 1 view .LVU57
 206 002e 1188     		ldrh	r1, [r2]
 207 0030 8068     		ldr	r0, [r0, #8]
 208              	.LVL22:
 209              		.loc 1 764 9 is_stmt 0 view .LVU58
 210 0032 FFF7FEFF 		bl	lv_obj_add_state
 211              	.LVL23:
 212              	.L10:
 765:Drivers/lvgl/src/others/observer/lv_observer.c ****     }
 766:Drivers/lvgl/src/others/observer/lv_observer.c ****     else {
 767:Drivers/lvgl/src/others/observer/lv_observer.c ****         lv_obj_remove_state(observer->target, p->flag);
 768:Drivers/lvgl/src/others/observer/lv_observer.c ****     }
 769:Drivers/lvgl/src/others/observer/lv_observer.c **** }
 213              		.loc 1 769 1 view .LVU59
 214 0036 08BD     		pop	{r3, pc}
 215              	.LVL24:
 216              	.L11:
 755:Drivers/lvgl/src/others/observer/lv_observer.c ****             break;
 217              		.loc 1 755 13 is_stmt 1 view .LVU60
 755:Drivers/lvgl/src/others/observer/lv_observer.c ****             break;
 218              		.loc 1 755 33 is_stmt 0 view .LVU61
 219 0038 CB68     		ldr	r3, [r1, #12]
 755:Drivers/lvgl/src/others/observer/lv_observer.c ****             break;
 220              		.loc 1 755 48 view .LVU62
 221 003a 5168     		ldr	r1, [r2, #4]
 222              	.LVL25:
 755:Drivers/lvgl/src/others/observer/lv_observer.c ****             break;
 223              		.loc 1 755 17 view .LVU63
 224 003c 8B42     		cmp	r3, r1
 225 003e D4BF     		ite	le
 226 0040 0023     		movle	r3, #0
 227 0042 0123     		movgt	r3, #1
 228              	.LVL26:
 756:Drivers/lvgl/src/others/observer/lv_observer.c ****         case FLAG_COND_GE:
 229              		.loc 1 756 13 is_stmt 1 view .LVU64
 230 0044 ECE7     		b	.L13
 231              	.LVL27:
 232              	.L12:
 758:Drivers/lvgl/src/others/observer/lv_observer.c ****             break;
 233              		.loc 1 758 13 view .LVU65
 758:Drivers/lvgl/src/others/observer/lv_observer.c ****             break;
 234              		.loc 1 758 33 is_stmt 0 view .LVU66
 235 0046 CB68     		ldr	r3, [r1, #12]
 758:Drivers/lvgl/src/others/observer/lv_observer.c ****             break;
 236              		.loc 1 758 49 view .LVU67
 237 0048 5168     		ldr	r1, [r2, #4]
 238              	.LVL28:
 758:Drivers/lvgl/src/others/observer/lv_observer.c ****             break;
ARM GAS  /tmp/cc972Q0K.s 			page 19


 239              		.loc 1 758 17 view .LVU68
 240 004a 8B42     		cmp	r3, r1
 241 004c B4BF     		ite	lt
 242 004e 0023     		movlt	r3, #0
 243 0050 0123     		movge	r3, #1
 244              	.LVL29:
 759:Drivers/lvgl/src/others/observer/lv_observer.c ****     }
 245              		.loc 1 759 13 is_stmt 1 view .LVU69
 246 0052 E5E7     		b	.L13
 247              	.LVL30:
 248              	.L17:
 750:Drivers/lvgl/src/others/observer/lv_observer.c ****         case FLAG_COND_EQ:
 249              		.loc 1 750 5 is_stmt 0 view .LVU70
 250 0054 0023     		movs	r3, #0
 251 0056 E3E7     		b	.L13
 252              	.LVL31:
 253              	.L15:
 767:Drivers/lvgl/src/others/observer/lv_observer.c ****     }
 254              		.loc 1 767 9 is_stmt 1 view .LVU71
 255 0058 1188     		ldrh	r1, [r2]
 256 005a 8068     		ldr	r0, [r0, #8]
 257              	.LVL32:
 767:Drivers/lvgl/src/others/observer/lv_observer.c ****     }
 258              		.loc 1 767 9 is_stmt 0 view .LVU72
 259 005c FFF7FEFF 		bl	lv_obj_remove_state
 260              	.LVL33:
 261              		.loc 1 769 1 view .LVU73
 262 0060 E9E7     		b	.L10
 263              		.cfi_endproc
 264              	.LFE229:
 266              		.section	.text.label_text_observer_cb,"ax",%progbits
 267              		.align	1
 268              		.syntax unified
 269              		.thumb
 270              		.thumb_func
 272              	label_text_observer_cb:
 273              	.LVL34:
 274              	.LFB232:
 770:Drivers/lvgl/src/others/observer/lv_observer.c **** 
 771:Drivers/lvgl/src/others/observer/lv_observer.c **** static void obj_value_changed_event_cb(lv_event_t * e)
 772:Drivers/lvgl/src/others/observer/lv_observer.c **** {
 773:Drivers/lvgl/src/others/observer/lv_observer.c ****     lv_obj_t * obj = lv_event_get_current_target(e);
 774:Drivers/lvgl/src/others/observer/lv_observer.c ****     lv_subject_t * subject = lv_event_get_user_data(e);
 775:Drivers/lvgl/src/others/observer/lv_observer.c **** 
 776:Drivers/lvgl/src/others/observer/lv_observer.c ****     lv_subject_set_int(subject, lv_obj_has_state(obj, LV_STATE_CHECKED));
 777:Drivers/lvgl/src/others/observer/lv_observer.c **** }
 778:Drivers/lvgl/src/others/observer/lv_observer.c **** 
 779:Drivers/lvgl/src/others/observer/lv_observer.c **** static void lv_subject_notify_if_changed(lv_subject_t * subject)
 780:Drivers/lvgl/src/others/observer/lv_observer.c **** {
 781:Drivers/lvgl/src/others/observer/lv_observer.c **** 
 782:Drivers/lvgl/src/others/observer/lv_observer.c ****     switch(subject->type) {
 783:Drivers/lvgl/src/others/observer/lv_observer.c ****         case LV_SUBJECT_TYPE_INVALID :
 784:Drivers/lvgl/src/others/observer/lv_observer.c ****         case LV_SUBJECT_TYPE_NONE :
 785:Drivers/lvgl/src/others/observer/lv_observer.c ****             return;
 786:Drivers/lvgl/src/others/observer/lv_observer.c ****         case LV_SUBJECT_TYPE_INT :
 787:Drivers/lvgl/src/others/observer/lv_observer.c ****             if(subject->value.num != subject->prev_value.num) {
 788:Drivers/lvgl/src/others/observer/lv_observer.c ****                 lv_subject_notify(subject);
ARM GAS  /tmp/cc972Q0K.s 			page 20


 789:Drivers/lvgl/src/others/observer/lv_observer.c ****             }
 790:Drivers/lvgl/src/others/observer/lv_observer.c ****             break;
 791:Drivers/lvgl/src/others/observer/lv_observer.c ****         case LV_SUBJECT_TYPE_GROUP :
 792:Drivers/lvgl/src/others/observer/lv_observer.c ****         case LV_SUBJECT_TYPE_POINTER :
 793:Drivers/lvgl/src/others/observer/lv_observer.c ****             /* Always notify as we don't know how to compare this */
 794:Drivers/lvgl/src/others/observer/lv_observer.c ****             lv_subject_notify(subject);
 795:Drivers/lvgl/src/others/observer/lv_observer.c ****             break;
 796:Drivers/lvgl/src/others/observer/lv_observer.c ****         case LV_SUBJECT_TYPE_COLOR  :
 797:Drivers/lvgl/src/others/observer/lv_observer.c ****             if(!lv_color_eq(subject->value.color, subject->prev_value.color)) {
 798:Drivers/lvgl/src/others/observer/lv_observer.c ****                 lv_subject_notify(subject);
 799:Drivers/lvgl/src/others/observer/lv_observer.c ****             }
 800:Drivers/lvgl/src/others/observer/lv_observer.c ****             break;
 801:Drivers/lvgl/src/others/observer/lv_observer.c ****         case LV_SUBJECT_TYPE_STRING:
 802:Drivers/lvgl/src/others/observer/lv_observer.c ****             if(!subject->prev_value.pointer ||
 803:Drivers/lvgl/src/others/observer/lv_observer.c ****                lv_strcmp(subject->value.pointer, subject->prev_value.pointer)) {
 804:Drivers/lvgl/src/others/observer/lv_observer.c ****                 lv_subject_notify(subject);
 805:Drivers/lvgl/src/others/observer/lv_observer.c ****             }
 806:Drivers/lvgl/src/others/observer/lv_observer.c ****             break;
 807:Drivers/lvgl/src/others/observer/lv_observer.c ****     }
 808:Drivers/lvgl/src/others/observer/lv_observer.c **** }
 809:Drivers/lvgl/src/others/observer/lv_observer.c **** 
 810:Drivers/lvgl/src/others/observer/lv_observer.c **** #if LV_USE_LABEL
 811:Drivers/lvgl/src/others/observer/lv_observer.c **** 
 812:Drivers/lvgl/src/others/observer/lv_observer.c **** static void label_text_observer_cb(lv_observer_t * observer, lv_subject_t * subject)
 813:Drivers/lvgl/src/others/observer/lv_observer.c **** {
 275              		.loc 1 813 1 is_stmt 1 view -0
 276              		.cfi_startproc
 277              		@ args = 0, pretend = 0, frame = 0
 278              		@ frame_needed = 0, uses_anonymous_args = 0
 279              		.loc 1 813 1 is_stmt 0 view .LVU75
 280 0000 08B5     		push	{r3, lr}
 281              	.LCFI2:
 282              		.cfi_def_cfa_offset 8
 283              		.cfi_offset 3, -8
 284              		.cfi_offset 14, -4
 285 0002 0B46     		mov	r3, r1
 814:Drivers/lvgl/src/others/observer/lv_observer.c ****     const char * fmt = observer->user_data;
 286              		.loc 1 814 5 is_stmt 1 view .LVU76
 287              		.loc 1 814 18 is_stmt 0 view .LVU77
 288 0004 C168     		ldr	r1, [r0, #12]
 289              	.LVL35:
 815:Drivers/lvgl/src/others/observer/lv_observer.c **** 
 816:Drivers/lvgl/src/others/observer/lv_observer.c ****     if(fmt == NULL) {
 290              		.loc 1 816 5 is_stmt 1 view .LVU78
 291              		.loc 1 816 7 is_stmt 0 view .LVU79
 292 0006 69B1     		cbz	r1, .L24
 817:Drivers/lvgl/src/others/observer/lv_observer.c ****         lv_label_set_text(observer->target, subject->value.pointer);
 818:Drivers/lvgl/src/others/observer/lv_observer.c ****     }
 819:Drivers/lvgl/src/others/observer/lv_observer.c ****     else {
 820:Drivers/lvgl/src/others/observer/lv_observer.c ****         switch(subject->type) {
 293              		.loc 1 820 9 is_stmt 1 view .LVU80
 294              		.loc 1 820 23 is_stmt 0 view .LVU81
 295 0008 1A7E     		ldrb	r2, [r3, #24]	@ zero_extendqisi2
 296 000a 02F00F02 		and	r2, r2, #15
 297              		.loc 1 820 9 view .LVU82
 298 000e 032A     		cmp	r2, #3
 299 0010 0DD0     		beq	.L22
ARM GAS  /tmp/cc972Q0K.s 			page 21


 300 0012 062A     		cmp	r2, #6
 301 0014 0BD0     		beq	.L22
 302 0016 022A     		cmp	r2, #2
 303 0018 03D1     		bne	.L19
 821:Drivers/lvgl/src/others/observer/lv_observer.c ****             case LV_SUBJECT_TYPE_INT:
 822:Drivers/lvgl/src/others/observer/lv_observer.c ****                 lv_label_set_text_fmt(observer->target, fmt, subject->value.num);
 304              		.loc 1 822 17 is_stmt 1 view .LVU83
 305 001a DA68     		ldr	r2, [r3, #12]
 306 001c 8068     		ldr	r0, [r0, #8]
 307              	.LVL36:
 308              		.loc 1 822 17 is_stmt 0 view .LVU84
 309 001e FFF7FEFF 		bl	lv_label_set_text_fmt
 310              	.LVL37:
 823:Drivers/lvgl/src/others/observer/lv_observer.c ****                 break;
 311              		.loc 1 823 17 is_stmt 1 view .LVU85
 312              	.L19:
 824:Drivers/lvgl/src/others/observer/lv_observer.c ****             case LV_SUBJECT_TYPE_STRING:
 825:Drivers/lvgl/src/others/observer/lv_observer.c ****             case LV_SUBJECT_TYPE_POINTER:
 826:Drivers/lvgl/src/others/observer/lv_observer.c ****                 lv_label_set_text_fmt(observer->target, fmt, subject->value.pointer);
 827:Drivers/lvgl/src/others/observer/lv_observer.c ****                 break;
 828:Drivers/lvgl/src/others/observer/lv_observer.c ****             default:
 829:Drivers/lvgl/src/others/observer/lv_observer.c ****                 break;
 830:Drivers/lvgl/src/others/observer/lv_observer.c ****         }
 831:Drivers/lvgl/src/others/observer/lv_observer.c ****     }
 832:Drivers/lvgl/src/others/observer/lv_observer.c **** }
 313              		.loc 1 832 1 is_stmt 0 view .LVU86
 314 0022 08BD     		pop	{r3, pc}
 315              	.LVL38:
 316              	.L24:
 817:Drivers/lvgl/src/others/observer/lv_observer.c ****     }
 317              		.loc 1 817 9 is_stmt 1 view .LVU87
 318 0024 D968     		ldr	r1, [r3, #12]
 319              	.LVL39:
 817:Drivers/lvgl/src/others/observer/lv_observer.c ****     }
 320              		.loc 1 817 9 is_stmt 0 view .LVU88
 321 0026 8068     		ldr	r0, [r0, #8]
 322              	.LVL40:
 817:Drivers/lvgl/src/others/observer/lv_observer.c ****     }
 323              		.loc 1 817 9 view .LVU89
 324 0028 FFF7FEFF 		bl	lv_label_set_text
 325              	.LVL41:
 817:Drivers/lvgl/src/others/observer/lv_observer.c ****     }
 326              		.loc 1 817 9 view .LVU90
 327 002c F9E7     		b	.L19
 328              	.LVL42:
 329              	.L22:
 826:Drivers/lvgl/src/others/observer/lv_observer.c ****                 break;
 330              		.loc 1 826 17 is_stmt 1 view .LVU91
 331 002e DA68     		ldr	r2, [r3, #12]
 332 0030 8068     		ldr	r0, [r0, #8]
 333              	.LVL43:
 826:Drivers/lvgl/src/others/observer/lv_observer.c ****                 break;
 334              		.loc 1 826 17 is_stmt 0 view .LVU92
 335 0032 FFF7FEFF 		bl	lv_label_set_text_fmt
 336              	.LVL44:
 827:Drivers/lvgl/src/others/observer/lv_observer.c ****             default:
 337              		.loc 1 827 17 is_stmt 1 view .LVU93
ARM GAS  /tmp/cc972Q0K.s 			page 22


 338              		.loc 1 832 1 is_stmt 0 view .LVU94
 339 0036 F4E7     		b	.L19
 340              		.cfi_endproc
 341              	.LFE232:
 343              		.section	.text.arc_value_observer_cb,"ax",%progbits
 344              		.align	1
 345              		.syntax unified
 346              		.thumb
 347              		.thumb_func
 349              	arc_value_observer_cb:
 350              	.LVL45:
 351              	.LFB234:
 833:Drivers/lvgl/src/others/observer/lv_observer.c **** 
 834:Drivers/lvgl/src/others/observer/lv_observer.c **** #endif /*LV_USE_LABEL*/
 835:Drivers/lvgl/src/others/observer/lv_observer.c **** 
 836:Drivers/lvgl/src/others/observer/lv_observer.c **** #if LV_USE_ARC
 837:Drivers/lvgl/src/others/observer/lv_observer.c **** 
 838:Drivers/lvgl/src/others/observer/lv_observer.c **** static void arc_value_changed_event_cb(lv_event_t * e)
 839:Drivers/lvgl/src/others/observer/lv_observer.c **** {
 840:Drivers/lvgl/src/others/observer/lv_observer.c ****     lv_obj_t * arc = lv_event_get_current_target(e);
 841:Drivers/lvgl/src/others/observer/lv_observer.c ****     lv_subject_t * subject = lv_event_get_user_data(e);
 842:Drivers/lvgl/src/others/observer/lv_observer.c **** 
 843:Drivers/lvgl/src/others/observer/lv_observer.c ****     lv_subject_set_int(subject, lv_arc_get_value(arc));
 844:Drivers/lvgl/src/others/observer/lv_observer.c **** }
 845:Drivers/lvgl/src/others/observer/lv_observer.c **** 
 846:Drivers/lvgl/src/others/observer/lv_observer.c **** static void arc_value_observer_cb(lv_observer_t * observer, lv_subject_t * subject)
 847:Drivers/lvgl/src/others/observer/lv_observer.c **** {
 352              		.loc 1 847 1 is_stmt 1 view -0
 353              		.cfi_startproc
 354              		@ args = 0, pretend = 0, frame = 0
 355              		@ frame_needed = 0, uses_anonymous_args = 0
 356              		.loc 1 847 1 is_stmt 0 view .LVU96
 357 0000 08B5     		push	{r3, lr}
 358              	.LCFI3:
 359              		.cfi_def_cfa_offset 8
 360              		.cfi_offset 3, -8
 361              		.cfi_offset 14, -4
 848:Drivers/lvgl/src/others/observer/lv_observer.c ****     lv_arc_set_value(observer->target, subject->value.num);
 362              		.loc 1 848 5 is_stmt 1 view .LVU97
 363 0002 C968     		ldr	r1, [r1, #12]
 364              	.LVL46:
 365              		.loc 1 848 5 is_stmt 0 view .LVU98
 366 0004 8068     		ldr	r0, [r0, #8]
 367              	.LVL47:
 368              		.loc 1 848 5 view .LVU99
 369 0006 FFF7FEFF 		bl	lv_arc_set_value
 370              	.LVL48:
 849:Drivers/lvgl/src/others/observer/lv_observer.c **** }
 371              		.loc 1 849 1 view .LVU100
 372 000a 08BD     		pop	{r3, pc}
 373              		.cfi_endproc
 374              	.LFE234:
 376              		.section	.text.slider_value_observer_cb,"ax",%progbits
 377              		.align	1
 378              		.syntax unified
 379              		.thumb
 380              		.thumb_func
ARM GAS  /tmp/cc972Q0K.s 			page 23


 382              	slider_value_observer_cb:
 383              	.LVL49:
 384              	.LFB236:
 850:Drivers/lvgl/src/others/observer/lv_observer.c **** 
 851:Drivers/lvgl/src/others/observer/lv_observer.c **** #endif /*LV_USE_ARC*/
 852:Drivers/lvgl/src/others/observer/lv_observer.c **** 
 853:Drivers/lvgl/src/others/observer/lv_observer.c **** #if LV_USE_SLIDER
 854:Drivers/lvgl/src/others/observer/lv_observer.c **** 
 855:Drivers/lvgl/src/others/observer/lv_observer.c **** static void slider_value_changed_event_cb(lv_event_t * e)
 856:Drivers/lvgl/src/others/observer/lv_observer.c **** {
 857:Drivers/lvgl/src/others/observer/lv_observer.c ****     lv_obj_t * slider = lv_event_get_current_target(e);
 858:Drivers/lvgl/src/others/observer/lv_observer.c ****     lv_subject_t * subject = lv_event_get_user_data(e);
 859:Drivers/lvgl/src/others/observer/lv_observer.c **** 
 860:Drivers/lvgl/src/others/observer/lv_observer.c ****     lv_subject_set_int(subject, lv_slider_get_value(slider));
 861:Drivers/lvgl/src/others/observer/lv_observer.c **** }
 862:Drivers/lvgl/src/others/observer/lv_observer.c **** 
 863:Drivers/lvgl/src/others/observer/lv_observer.c **** static void slider_value_observer_cb(lv_observer_t * observer, lv_subject_t * subject)
 864:Drivers/lvgl/src/others/observer/lv_observer.c **** {
 385              		.loc 1 864 1 is_stmt 1 view -0
 386              		.cfi_startproc
 387              		@ args = 0, pretend = 0, frame = 0
 388              		@ frame_needed = 0, uses_anonymous_args = 0
 389              		.loc 1 864 1 is_stmt 0 view .LVU102
 390 0000 08B5     		push	{r3, lr}
 391              	.LCFI4:
 392              		.cfi_def_cfa_offset 8
 393              		.cfi_offset 3, -8
 394              		.cfi_offset 14, -4
 865:Drivers/lvgl/src/others/observer/lv_observer.c ****     lv_slider_set_value(observer->target, subject->value.num, LV_ANIM_OFF);
 395              		.loc 1 865 5 is_stmt 1 view .LVU103
 396 0002 0022     		movs	r2, #0
 397 0004 C968     		ldr	r1, [r1, #12]
 398              	.LVL50:
 399              		.loc 1 865 5 is_stmt 0 view .LVU104
 400 0006 8068     		ldr	r0, [r0, #8]
 401              	.LVL51:
 402              		.loc 1 865 5 view .LVU105
 403 0008 FFF7FEFF 		bl	lv_slider_set_value
 404              	.LVL52:
 866:Drivers/lvgl/src/others/observer/lv_observer.c **** }
 405              		.loc 1 866 1 view .LVU106
 406 000c 08BD     		pop	{r3, pc}
 407              		.cfi_endproc
 408              	.LFE236:
 410              		.section	.text.roller_value_observer_cb,"ax",%progbits
 411              		.align	1
 412              		.syntax unified
 413              		.thumb
 414              		.thumb_func
 416              	roller_value_observer_cb:
 417              	.LVL53:
 418              	.LFB238:
 867:Drivers/lvgl/src/others/observer/lv_observer.c **** 
 868:Drivers/lvgl/src/others/observer/lv_observer.c **** #endif /*LV_USE_SLIDER*/
 869:Drivers/lvgl/src/others/observer/lv_observer.c **** 
 870:Drivers/lvgl/src/others/observer/lv_observer.c **** #if LV_USE_ROLLER
 871:Drivers/lvgl/src/others/observer/lv_observer.c **** 
ARM GAS  /tmp/cc972Q0K.s 			page 24


 872:Drivers/lvgl/src/others/observer/lv_observer.c **** static void roller_value_changed_event_cb(lv_event_t * e)
 873:Drivers/lvgl/src/others/observer/lv_observer.c **** {
 874:Drivers/lvgl/src/others/observer/lv_observer.c ****     lv_obj_t * roller = lv_event_get_current_target(e);
 875:Drivers/lvgl/src/others/observer/lv_observer.c ****     lv_subject_t * subject = lv_event_get_user_data(e);
 876:Drivers/lvgl/src/others/observer/lv_observer.c **** 
 877:Drivers/lvgl/src/others/observer/lv_observer.c ****     lv_subject_set_int(subject, lv_roller_get_selected(roller));
 878:Drivers/lvgl/src/others/observer/lv_observer.c **** }
 879:Drivers/lvgl/src/others/observer/lv_observer.c **** 
 880:Drivers/lvgl/src/others/observer/lv_observer.c **** static void roller_value_observer_cb(lv_observer_t * observer, lv_subject_t * subject)
 881:Drivers/lvgl/src/others/observer/lv_observer.c **** {
 419              		.loc 1 881 1 is_stmt 1 view -0
 420              		.cfi_startproc
 421              		@ args = 0, pretend = 0, frame = 0
 422              		@ frame_needed = 0, uses_anonymous_args = 0
 423              		.loc 1 881 1 is_stmt 0 view .LVU108
 424 0000 38B5     		push	{r3, r4, r5, lr}
 425              	.LCFI5:
 426              		.cfi_def_cfa_offset 16
 427              		.cfi_offset 3, -16
 428              		.cfi_offset 4, -12
 429              		.cfi_offset 5, -8
 430              		.cfi_offset 14, -4
 431 0002 0446     		mov	r4, r0
 432 0004 0D46     		mov	r5, r1
 882:Drivers/lvgl/src/others/observer/lv_observer.c ****     if((int32_t)lv_roller_get_selected(observer->target) != subject->value.num) {
 433              		.loc 1 882 5 is_stmt 1 view .LVU109
 434              		.loc 1 882 17 is_stmt 0 view .LVU110
 435 0006 8068     		ldr	r0, [r0, #8]
 436              	.LVL54:
 437              		.loc 1 882 17 view .LVU111
 438 0008 FFF7FEFF 		bl	lv_roller_get_selected
 439              	.LVL55:
 440              		.loc 1 882 75 discriminator 1 view .LVU112
 441 000c E968     		ldr	r1, [r5, #12]
 442              		.loc 1 882 7 discriminator 1 view .LVU113
 443 000e 8842     		cmp	r0, r1
 444 0010 00D1     		bne	.L32
 445              	.L29:
 883:Drivers/lvgl/src/others/observer/lv_observer.c ****         lv_roller_set_selected(observer->target, subject->value.num, LV_ANIM_OFF);
 884:Drivers/lvgl/src/others/observer/lv_observer.c ****     }
 885:Drivers/lvgl/src/others/observer/lv_observer.c **** }
 446              		.loc 1 885 1 view .LVU114
 447 0012 38BD     		pop	{r3, r4, r5, pc}
 448              	.LVL56:
 449              	.L32:
 883:Drivers/lvgl/src/others/observer/lv_observer.c ****         lv_roller_set_selected(observer->target, subject->value.num, LV_ANIM_OFF);
 450              		.loc 1 883 9 is_stmt 1 view .LVU115
 451 0014 0022     		movs	r2, #0
 452 0016 A068     		ldr	r0, [r4, #8]
 453 0018 FFF7FEFF 		bl	lv_roller_set_selected
 454              	.LVL57:
 455              		.loc 1 885 1 is_stmt 0 view .LVU116
 456 001c F9E7     		b	.L29
 457              		.cfi_endproc
 458              	.LFE238:
 460              		.section	.text.dropdown_value_observer_cb,"ax",%progbits
 461              		.align	1
ARM GAS  /tmp/cc972Q0K.s 			page 25


 462              		.syntax unified
 463              		.thumb
 464              		.thumb_func
 466              	dropdown_value_observer_cb:
 467              	.LVL58:
 468              	.LFB240:
 886:Drivers/lvgl/src/others/observer/lv_observer.c **** 
 887:Drivers/lvgl/src/others/observer/lv_observer.c **** #endif /*LV_USE_ROLLER*/
 888:Drivers/lvgl/src/others/observer/lv_observer.c **** 
 889:Drivers/lvgl/src/others/observer/lv_observer.c **** #if LV_USE_DROPDOWN
 890:Drivers/lvgl/src/others/observer/lv_observer.c **** 
 891:Drivers/lvgl/src/others/observer/lv_observer.c **** static void dropdown_value_changed_event_cb(lv_event_t * e)
 892:Drivers/lvgl/src/others/observer/lv_observer.c **** {
 893:Drivers/lvgl/src/others/observer/lv_observer.c ****     lv_obj_t * dropdown = lv_event_get_current_target(e);
 894:Drivers/lvgl/src/others/observer/lv_observer.c ****     lv_subject_t * subject = lv_event_get_user_data(e);
 895:Drivers/lvgl/src/others/observer/lv_observer.c **** 
 896:Drivers/lvgl/src/others/observer/lv_observer.c ****     lv_subject_set_int(subject, lv_dropdown_get_selected(dropdown));
 897:Drivers/lvgl/src/others/observer/lv_observer.c **** }
 898:Drivers/lvgl/src/others/observer/lv_observer.c **** 
 899:Drivers/lvgl/src/others/observer/lv_observer.c **** static void dropdown_value_observer_cb(lv_observer_t * observer, lv_subject_t * subject)
 900:Drivers/lvgl/src/others/observer/lv_observer.c **** {
 469              		.loc 1 900 1 is_stmt 1 view -0
 470              		.cfi_startproc
 471              		@ args = 0, pretend = 0, frame = 0
 472              		@ frame_needed = 0, uses_anonymous_args = 0
 473              		.loc 1 900 1 is_stmt 0 view .LVU118
 474 0000 08B5     		push	{r3, lr}
 475              	.LCFI6:
 476              		.cfi_def_cfa_offset 8
 477              		.cfi_offset 3, -8
 478              		.cfi_offset 14, -4
 901:Drivers/lvgl/src/others/observer/lv_observer.c ****     lv_dropdown_set_selected(observer->target, subject->value.num, LV_ANIM_OFF);
 479              		.loc 1 901 5 is_stmt 1 view .LVU119
 480 0002 0022     		movs	r2, #0
 481 0004 C968     		ldr	r1, [r1, #12]
 482              	.LVL59:
 483              		.loc 1 901 5 is_stmt 0 view .LVU120
 484 0006 8068     		ldr	r0, [r0, #8]
 485              	.LVL60:
 486              		.loc 1 901 5 view .LVU121
 487 0008 FFF7FEFF 		bl	lv_dropdown_set_selected
 488              	.LVL61:
 902:Drivers/lvgl/src/others/observer/lv_observer.c **** }
 489              		.loc 1 902 1 view .LVU122
 490 000c 08BD     		pop	{r3, pc}
 491              		.cfi_endproc
 492              	.LFE240:
 494              		.section	.text.lv_subject_init_int,"ax",%progbits
 495              		.align	1
 496              		.global	lv_subject_init_int
 497              		.syntax unified
 498              		.thumb
 499              		.thumb_func
 501              	lv_subject_init_int:
 502              	.LVL62:
 503              	.LFB178:
  87:Drivers/lvgl/src/others/observer/lv_observer.c ****     lv_memzero(subject, sizeof(lv_subject_t));
ARM GAS  /tmp/cc972Q0K.s 			page 26


 504              		.loc 1 87 1 is_stmt 1 view -0
 505              		.cfi_startproc
 506              		@ args = 0, pretend = 0, frame = 0
 507              		@ frame_needed = 0, uses_anonymous_args = 0
  87:Drivers/lvgl/src/others/observer/lv_observer.c ****     lv_memzero(subject, sizeof(lv_subject_t));
 508              		.loc 1 87 1 is_stmt 0 view .LVU124
 509 0000 38B5     		push	{r3, r4, r5, lr}
 510              	.LCFI7:
 511              		.cfi_def_cfa_offset 16
 512              		.cfi_offset 3, -16
 513              		.cfi_offset 4, -12
 514              		.cfi_offset 5, -8
 515              		.cfi_offset 14, -4
 516 0002 0446     		mov	r4, r0
 517 0004 0D46     		mov	r5, r1
  88:Drivers/lvgl/src/others/observer/lv_observer.c ****     subject->type = LV_SUBJECT_TYPE_INT;
 518              		.loc 1 88 5 is_stmt 1 view .LVU125
 519              	.LVL63:
 520              	.LBB14:
 521              	.LBI14:
 522              		.file 2 "Drivers/lvgl/src/others/observer/../../core/../misc/../font/../draw/../misc/../stdlib/lv_
   1:Drivers/lvgl/src/others/observer/../../core/../misc/../font/../draw/../misc/../stdlib/lv_string.h **** /**
   2:Drivers/lvgl/src/others/observer/../../core/../misc/../font/../draw/../misc/../stdlib/lv_string.h ****  * @file lv_string.h
   3:Drivers/lvgl/src/others/observer/../../core/../misc/../font/../draw/../misc/../stdlib/lv_string.h ****  *
   4:Drivers/lvgl/src/others/observer/../../core/../misc/../font/../draw/../misc/../stdlib/lv_string.h ****  */
   5:Drivers/lvgl/src/others/observer/../../core/../misc/../font/../draw/../misc/../stdlib/lv_string.h **** 
   6:Drivers/lvgl/src/others/observer/../../core/../misc/../font/../draw/../misc/../stdlib/lv_string.h **** #ifndef LV_STRING_H
   7:Drivers/lvgl/src/others/observer/../../core/../misc/../font/../draw/../misc/../stdlib/lv_string.h **** #define LV_STRING_H
   8:Drivers/lvgl/src/others/observer/../../core/../misc/../font/../draw/../misc/../stdlib/lv_string.h **** 
   9:Drivers/lvgl/src/others/observer/../../core/../misc/../font/../draw/../misc/../stdlib/lv_string.h **** #ifdef __cplusplus
  10:Drivers/lvgl/src/others/observer/../../core/../misc/../font/../draw/../misc/../stdlib/lv_string.h **** extern "C" {
  11:Drivers/lvgl/src/others/observer/../../core/../misc/../font/../draw/../misc/../stdlib/lv_string.h **** #endif
  12:Drivers/lvgl/src/others/observer/../../core/../misc/../font/../draw/../misc/../stdlib/lv_string.h **** 
  13:Drivers/lvgl/src/others/observer/../../core/../misc/../font/../draw/../misc/../stdlib/lv_string.h **** /*********************
  14:Drivers/lvgl/src/others/observer/../../core/../misc/../font/../draw/../misc/../stdlib/lv_string.h ****  *      INCLUDES
  15:Drivers/lvgl/src/others/observer/../../core/../misc/../font/../draw/../misc/../stdlib/lv_string.h ****  *********************/
  16:Drivers/lvgl/src/others/observer/../../core/../misc/../font/../draw/../misc/../stdlib/lv_string.h **** #include "../lv_conf_internal.h"
  17:Drivers/lvgl/src/others/observer/../../core/../misc/../font/../draw/../misc/../stdlib/lv_string.h **** #include "../misc/lv_types.h"
  18:Drivers/lvgl/src/others/observer/../../core/../misc/../font/../draw/../misc/../stdlib/lv_string.h **** 
  19:Drivers/lvgl/src/others/observer/../../core/../misc/../font/../draw/../misc/../stdlib/lv_string.h **** /*********************
  20:Drivers/lvgl/src/others/observer/../../core/../misc/../font/../draw/../misc/../stdlib/lv_string.h ****  *      DEFINES
  21:Drivers/lvgl/src/others/observer/../../core/../misc/../font/../draw/../misc/../stdlib/lv_string.h ****  *********************/
  22:Drivers/lvgl/src/others/observer/../../core/../misc/../font/../draw/../misc/../stdlib/lv_string.h **** 
  23:Drivers/lvgl/src/others/observer/../../core/../misc/../font/../draw/../misc/../stdlib/lv_string.h **** /**********************
  24:Drivers/lvgl/src/others/observer/../../core/../misc/../font/../draw/../misc/../stdlib/lv_string.h ****  *      TYPEDEFS
  25:Drivers/lvgl/src/others/observer/../../core/../misc/../font/../draw/../misc/../stdlib/lv_string.h ****  **********************/
  26:Drivers/lvgl/src/others/observer/../../core/../misc/../font/../draw/../misc/../stdlib/lv_string.h **** 
  27:Drivers/lvgl/src/others/observer/../../core/../misc/../font/../draw/../misc/../stdlib/lv_string.h **** /**********************
  28:Drivers/lvgl/src/others/observer/../../core/../misc/../font/../draw/../misc/../stdlib/lv_string.h ****  * GLOBAL PROTOTYPES
  29:Drivers/lvgl/src/others/observer/../../core/../misc/../font/../draw/../misc/../stdlib/lv_string.h ****  **********************/
  30:Drivers/lvgl/src/others/observer/../../core/../misc/../font/../draw/../misc/../stdlib/lv_string.h **** 
  31:Drivers/lvgl/src/others/observer/../../core/../misc/../font/../draw/../misc/../stdlib/lv_string.h **** /**
  32:Drivers/lvgl/src/others/observer/../../core/../misc/../font/../draw/../misc/../stdlib/lv_string.h ****  * @brief Copies a block of memory from a source address to a destination address.
  33:Drivers/lvgl/src/others/observer/../../core/../misc/../font/../draw/../misc/../stdlib/lv_string.h ****  * @param dst Pointer to the destination array where the content is to be copied.
  34:Drivers/lvgl/src/others/observer/../../core/../misc/../font/../draw/../misc/../stdlib/lv_string.h ****  * @param src Pointer to the source of data to be copied.
  35:Drivers/lvgl/src/others/observer/../../core/../misc/../font/../draw/../misc/../stdlib/lv_string.h ****  * @param len Number of bytes to copy.
  36:Drivers/lvgl/src/others/observer/../../core/../misc/../font/../draw/../misc/../stdlib/lv_string.h ****  * @return Pointer to the destination array.
ARM GAS  /tmp/cc972Q0K.s 			page 27


  37:Drivers/lvgl/src/others/observer/../../core/../misc/../font/../draw/../misc/../stdlib/lv_string.h ****  * @note The function does not check for any overlapping of the source and destination memory block
  38:Drivers/lvgl/src/others/observer/../../core/../misc/../font/../draw/../misc/../stdlib/lv_string.h ****  */
  39:Drivers/lvgl/src/others/observer/../../core/../misc/../font/../draw/../misc/../stdlib/lv_string.h **** void * lv_memcpy(void * dst, const void * src, size_t len);
  40:Drivers/lvgl/src/others/observer/../../core/../misc/../font/../draw/../misc/../stdlib/lv_string.h **** 
  41:Drivers/lvgl/src/others/observer/../../core/../misc/../font/../draw/../misc/../stdlib/lv_string.h **** /**
  42:Drivers/lvgl/src/others/observer/../../core/../misc/../font/../draw/../misc/../stdlib/lv_string.h ****  * @brief Fills a block of memory with a specified value.
  43:Drivers/lvgl/src/others/observer/../../core/../misc/../font/../draw/../misc/../stdlib/lv_string.h ****  * @param dst Pointer to the destination array to fill with the specified value.
  44:Drivers/lvgl/src/others/observer/../../core/../misc/../font/../draw/../misc/../stdlib/lv_string.h ****  * @param v Value to be set. The value is passed as an int, but the function fills
  45:Drivers/lvgl/src/others/observer/../../core/../misc/../font/../draw/../misc/../stdlib/lv_string.h ****  *          the block of memory using the unsigned char conversion of this value.
  46:Drivers/lvgl/src/others/observer/../../core/../misc/../font/../draw/../misc/../stdlib/lv_string.h ****  * @param len Number of bytes to be set to the value.
  47:Drivers/lvgl/src/others/observer/../../core/../misc/../font/../draw/../misc/../stdlib/lv_string.h ****  */
  48:Drivers/lvgl/src/others/observer/../../core/../misc/../font/../draw/../misc/../stdlib/lv_string.h **** void lv_memset(void * dst, uint8_t v, size_t len);
  49:Drivers/lvgl/src/others/observer/../../core/../misc/../font/../draw/../misc/../stdlib/lv_string.h **** 
  50:Drivers/lvgl/src/others/observer/../../core/../misc/../font/../draw/../misc/../stdlib/lv_string.h **** /**
  51:Drivers/lvgl/src/others/observer/../../core/../misc/../font/../draw/../misc/../stdlib/lv_string.h ****  * @brief Move a block of memory from source to destination
  52:Drivers/lvgl/src/others/observer/../../core/../misc/../font/../draw/../misc/../stdlib/lv_string.h ****  * @param dst Pointer to the destination array where the content is to be copied.
  53:Drivers/lvgl/src/others/observer/../../core/../misc/../font/../draw/../misc/../stdlib/lv_string.h ****  * @param src Pointer to the source of data to be copied.
  54:Drivers/lvgl/src/others/observer/../../core/../misc/../font/../draw/../misc/../stdlib/lv_string.h ****  * @param len Number of bytes to copy
  55:Drivers/lvgl/src/others/observer/../../core/../misc/../font/../draw/../misc/../stdlib/lv_string.h ****  * @return Pointer to the destination array.
  56:Drivers/lvgl/src/others/observer/../../core/../misc/../font/../draw/../misc/../stdlib/lv_string.h ****  */
  57:Drivers/lvgl/src/others/observer/../../core/../misc/../font/../draw/../misc/../stdlib/lv_string.h **** void * lv_memmove(void * dst, const void * src, size_t len);
  58:Drivers/lvgl/src/others/observer/../../core/../misc/../font/../draw/../misc/../stdlib/lv_string.h **** 
  59:Drivers/lvgl/src/others/observer/../../core/../misc/../font/../draw/../misc/../stdlib/lv_string.h **** /**
  60:Drivers/lvgl/src/others/observer/../../core/../misc/../font/../draw/../misc/../stdlib/lv_string.h ****  * @brief This function will compare two memory blocks
  61:Drivers/lvgl/src/others/observer/../../core/../misc/../font/../draw/../misc/../stdlib/lv_string.h ****  * @param p1 Pointer to the first memory block
  62:Drivers/lvgl/src/others/observer/../../core/../misc/../font/../draw/../misc/../stdlib/lv_string.h ****  * @param p2 Pointer to the second memory block
  63:Drivers/lvgl/src/others/observer/../../core/../misc/../font/../draw/../misc/../stdlib/lv_string.h ****  * @param len Number of bytes to compare
  64:Drivers/lvgl/src/others/observer/../../core/../misc/../font/../draw/../misc/../stdlib/lv_string.h ****  * @return The difference between the value of the first unmatching byte.
  65:Drivers/lvgl/src/others/observer/../../core/../misc/../font/../draw/../misc/../stdlib/lv_string.h ****  */
  66:Drivers/lvgl/src/others/observer/../../core/../misc/../font/../draw/../misc/../stdlib/lv_string.h **** int lv_memcmp(const void * p1, const void * p2, size_t len);
  67:Drivers/lvgl/src/others/observer/../../core/../misc/../font/../draw/../misc/../stdlib/lv_string.h **** 
  68:Drivers/lvgl/src/others/observer/../../core/../misc/../font/../draw/../misc/../stdlib/lv_string.h **** /**
  69:Drivers/lvgl/src/others/observer/../../core/../misc/../font/../draw/../misc/../stdlib/lv_string.h ****  * Same as `memset(dst, 0x00, len)`.
  70:Drivers/lvgl/src/others/observer/../../core/../misc/../font/../draw/../misc/../stdlib/lv_string.h ****  * @param dst pointer to the destination buffer
  71:Drivers/lvgl/src/others/observer/../../core/../misc/../font/../draw/../misc/../stdlib/lv_string.h ****  * @param len number of byte to set
  72:Drivers/lvgl/src/others/observer/../../core/../misc/../font/../draw/../misc/../stdlib/lv_string.h ****  */
  73:Drivers/lvgl/src/others/observer/../../core/../misc/../font/../draw/../misc/../stdlib/lv_string.h **** static inline void lv_memzero(void * dst, size_t len)
 523              		.loc 2 73 20 view .LVU126
 524              	.LBB15:
  74:Drivers/lvgl/src/others/observer/../../core/../misc/../font/../draw/../misc/../stdlib/lv_string.h **** {
  75:Drivers/lvgl/src/others/observer/../../core/../misc/../font/../draw/../misc/../stdlib/lv_string.h ****     lv_memset(dst, 0x00, len);
 525              		.loc 2 75 5 view .LVU127
 526 0006 1C22     		movs	r2, #28
 527 0008 0021     		movs	r1, #0
 528              	.LVL64:
 529              		.loc 2 75 5 is_stmt 0 view .LVU128
 530 000a FFF7FEFF 		bl	lv_memset
 531              	.LVL65:
 532              		.loc 2 75 5 view .LVU129
 533              	.LBE15:
 534              	.LBE14:
  89:Drivers/lvgl/src/others/observer/lv_observer.c ****     subject->value.num = value;
 535              		.loc 1 89 5 is_stmt 1 view .LVU130
  89:Drivers/lvgl/src/others/observer/lv_observer.c ****     subject->value.num = value;
 536              		.loc 1 89 19 is_stmt 0 view .LVU131
 537 000e 237E     		ldrb	r3, [r4, #24]	@ zero_extendqisi2
 538 0010 0222     		movs	r2, #2
ARM GAS  /tmp/cc972Q0K.s 			page 28


 539 0012 62F30303 		bfi	r3, r2, #0, #4
 540 0016 2376     		strb	r3, [r4, #24]
  90:Drivers/lvgl/src/others/observer/lv_observer.c ****     subject->prev_value.num = value;
 541              		.loc 1 90 5 is_stmt 1 view .LVU132
  90:Drivers/lvgl/src/others/observer/lv_observer.c ****     subject->prev_value.num = value;
 542              		.loc 1 90 24 is_stmt 0 view .LVU133
 543 0018 E560     		str	r5, [r4, #12]
  91:Drivers/lvgl/src/others/observer/lv_observer.c ****     lv_ll_init(&(subject->subs_ll), sizeof(lv_observer_t));
 544              		.loc 1 91 5 is_stmt 1 view .LVU134
  91:Drivers/lvgl/src/others/observer/lv_observer.c ****     lv_ll_init(&(subject->subs_ll), sizeof(lv_observer_t));
 545              		.loc 1 91 29 is_stmt 0 view .LVU135
 546 001a 2561     		str	r5, [r4, #16]
  92:Drivers/lvgl/src/others/observer/lv_observer.c **** }
 547              		.loc 1 92 5 is_stmt 1 view .LVU136
 548 001c 1421     		movs	r1, #20
 549 001e 2046     		mov	r0, r4
 550 0020 FFF7FEFF 		bl	lv_ll_init
 551              	.LVL66:
  93:Drivers/lvgl/src/others/observer/lv_observer.c **** 
 552              		.loc 1 93 1 is_stmt 0 view .LVU137
 553 0024 38BD     		pop	{r3, r4, r5, pc}
  93:Drivers/lvgl/src/others/observer/lv_observer.c **** 
 554              		.loc 1 93 1 view .LVU138
 555              		.cfi_endproc
 556              	.LFE178:
 558              		.section	.text.lv_subject_get_int,"ax",%progbits
 559              		.align	1
 560              		.global	lv_subject_get_int
 561              		.syntax unified
 562              		.thumb
 563              		.thumb_func
 565              	lv_subject_get_int:
 566              	.LVL67:
 567              	.LFB180:
 108:Drivers/lvgl/src/others/observer/lv_observer.c ****     if(subject->type != LV_SUBJECT_TYPE_INT) {
 568              		.loc 1 108 1 is_stmt 1 view -0
 569              		.cfi_startproc
 570              		@ args = 0, pretend = 0, frame = 0
 571              		@ frame_needed = 0, uses_anonymous_args = 0
 572              		@ link register save eliminated.
 109:Drivers/lvgl/src/others/observer/lv_observer.c ****         LV_LOG_WARN("Subject type is not LV_SUBJECT_TYPE_INT");
 573              		.loc 1 109 5 view .LVU140
 109:Drivers/lvgl/src/others/observer/lv_observer.c ****         LV_LOG_WARN("Subject type is not LV_SUBJECT_TYPE_INT");
 574              		.loc 1 109 22 is_stmt 0 view .LVU141
 575 0000 037E     		ldrb	r3, [r0, #24]	@ zero_extendqisi2
 576 0002 03F00F03 		and	r3, r3, #15
 109:Drivers/lvgl/src/others/observer/lv_observer.c ****         LV_LOG_WARN("Subject type is not LV_SUBJECT_TYPE_INT");
 577              		.loc 1 109 7 view .LVU142
 578 0006 022B     		cmp	r3, #2
 579 0008 01D1     		bne	.L39
 114:Drivers/lvgl/src/others/observer/lv_observer.c **** }
 580              		.loc 1 114 5 is_stmt 1 view .LVU143
 114:Drivers/lvgl/src/others/observer/lv_observer.c **** }
 581              		.loc 1 114 26 is_stmt 0 view .LVU144
 582 000a C068     		ldr	r0, [r0, #12]
 583              	.LVL68:
 114:Drivers/lvgl/src/others/observer/lv_observer.c **** }
ARM GAS  /tmp/cc972Q0K.s 			page 29


 584              		.loc 1 114 26 view .LVU145
 585 000c 7047     		bx	lr
 586              	.LVL69:
 587              	.L39:
 111:Drivers/lvgl/src/others/observer/lv_observer.c ****     }
 588              		.loc 1 111 16 view .LVU146
 589 000e 0020     		movs	r0, #0
 590              	.LVL70:
 115:Drivers/lvgl/src/others/observer/lv_observer.c **** 
 591              		.loc 1 115 1 view .LVU147
 592 0010 7047     		bx	lr
 593              		.cfi_endproc
 594              	.LFE180:
 596              		.section	.text.lv_subject_get_previous_int,"ax",%progbits
 597              		.align	1
 598              		.global	lv_subject_get_previous_int
 599              		.syntax unified
 600              		.thumb
 601              		.thumb_func
 603              	lv_subject_get_previous_int:
 604              	.LVL71:
 605              	.LFB181:
 118:Drivers/lvgl/src/others/observer/lv_observer.c ****     if(subject->type != LV_SUBJECT_TYPE_INT) {
 606              		.loc 1 118 1 is_stmt 1 view -0
 607              		.cfi_startproc
 608              		@ args = 0, pretend = 0, frame = 0
 609              		@ frame_needed = 0, uses_anonymous_args = 0
 610              		@ link register save eliminated.
 119:Drivers/lvgl/src/others/observer/lv_observer.c ****         LV_LOG_WARN("Subject type is not LV_SUBJECT_TYPE_INT");
 611              		.loc 1 119 5 view .LVU149
 119:Drivers/lvgl/src/others/observer/lv_observer.c ****         LV_LOG_WARN("Subject type is not LV_SUBJECT_TYPE_INT");
 612              		.loc 1 119 22 is_stmt 0 view .LVU150
 613 0000 037E     		ldrb	r3, [r0, #24]	@ zero_extendqisi2
 614 0002 03F00F03 		and	r3, r3, #15
 119:Drivers/lvgl/src/others/observer/lv_observer.c ****         LV_LOG_WARN("Subject type is not LV_SUBJECT_TYPE_INT");
 615              		.loc 1 119 7 view .LVU151
 616 0006 022B     		cmp	r3, #2
 617 0008 01D1     		bne	.L42
 124:Drivers/lvgl/src/others/observer/lv_observer.c **** }
 618              		.loc 1 124 5 is_stmt 1 view .LVU152
 124:Drivers/lvgl/src/others/observer/lv_observer.c **** }
 619              		.loc 1 124 31 is_stmt 0 view .LVU153
 620 000a 0069     		ldr	r0, [r0, #16]
 621              	.LVL72:
 124:Drivers/lvgl/src/others/observer/lv_observer.c **** }
 622              		.loc 1 124 31 view .LVU154
 623 000c 7047     		bx	lr
 624              	.LVL73:
 625              	.L42:
 121:Drivers/lvgl/src/others/observer/lv_observer.c ****     }
 626              		.loc 1 121 16 view .LVU155
 627 000e 0020     		movs	r0, #0
 628              	.LVL74:
 125:Drivers/lvgl/src/others/observer/lv_observer.c **** 
 629              		.loc 1 125 1 view .LVU156
 630 0010 7047     		bx	lr
 631              		.cfi_endproc
ARM GAS  /tmp/cc972Q0K.s 			page 30


 632              	.LFE181:
 634              		.section	.text.lv_subject_init_string,"ax",%progbits
 635              		.align	1
 636              		.global	lv_subject_init_string
 637              		.syntax unified
 638              		.thumb
 639              		.thumb_func
 641              	lv_subject_init_string:
 642              	.LVL75:
 643              	.LFB182:
 128:Drivers/lvgl/src/others/observer/lv_observer.c ****     lv_memzero(subject, sizeof(lv_subject_t));
 644              		.loc 1 128 1 is_stmt 1 view -0
 645              		.cfi_startproc
 646              		@ args = 4, pretend = 0, frame = 0
 647              		@ frame_needed = 0, uses_anonymous_args = 0
 128:Drivers/lvgl/src/others/observer/lv_observer.c ****     lv_memzero(subject, sizeof(lv_subject_t));
 648              		.loc 1 128 1 is_stmt 0 view .LVU158
 649 0000 2DE9F041 		push	{r4, r5, r6, r7, r8, lr}
 650              	.LCFI8:
 651              		.cfi_def_cfa_offset 24
 652              		.cfi_offset 4, -24
 653              		.cfi_offset 5, -20
 654              		.cfi_offset 6, -16
 655              		.cfi_offset 7, -12
 656              		.cfi_offset 8, -8
 657              		.cfi_offset 14, -4
 658 0004 0446     		mov	r4, r0
 659 0006 0F46     		mov	r7, r1
 660 0008 1546     		mov	r5, r2
 661 000a 1E46     		mov	r6, r3
 662 000c DDF81880 		ldr	r8, [sp, #24]
 129:Drivers/lvgl/src/others/observer/lv_observer.c ****     lv_strlcpy(buf, value, size);
 663              		.loc 1 129 5 is_stmt 1 view .LVU159
 664              	.LVL76:
 665              	.LBB16:
 666              	.LBI16:
  73:Drivers/lvgl/src/others/observer/../../core/../misc/../font/../draw/../misc/../stdlib/lv_string.h **** {
 667              		.loc 2 73 20 view .LVU160
 668              	.LBB17:
 669              		.loc 2 75 5 view .LVU161
 670 0010 1C22     		movs	r2, #28
 671              	.LVL77:
 672              		.loc 2 75 5 is_stmt 0 view .LVU162
 673 0012 0021     		movs	r1, #0
 674              	.LVL78:
 675              		.loc 2 75 5 view .LVU163
 676 0014 FFF7FEFF 		bl	lv_memset
 677              	.LVL79:
 678              		.loc 2 75 5 view .LVU164
 679              	.LBE17:
 680              	.LBE16:
 130:Drivers/lvgl/src/others/observer/lv_observer.c ****     if(prev_buf) lv_strlcpy(prev_buf, value, size);
 681              		.loc 1 130 5 is_stmt 1 view .LVU165
 682 0018 3246     		mov	r2, r6
 683 001a 4146     		mov	r1, r8
 684 001c 3846     		mov	r0, r7
 685 001e FFF7FEFF 		bl	lv_strlcpy
ARM GAS  /tmp/cc972Q0K.s 			page 31


 686              	.LVL80:
 131:Drivers/lvgl/src/others/observer/lv_observer.c **** 
 687              		.loc 1 131 5 view .LVU166
 131:Drivers/lvgl/src/others/observer/lv_observer.c **** 
 688              		.loc 1 131 7 is_stmt 0 view .LVU167
 689 0022 25B1     		cbz	r5, .L44
 131:Drivers/lvgl/src/others/observer/lv_observer.c **** 
 690              		.loc 1 131 18 is_stmt 1 discriminator 1 view .LVU168
 691 0024 3246     		mov	r2, r6
 692 0026 4146     		mov	r1, r8
 693 0028 2846     		mov	r0, r5
 694 002a FFF7FEFF 		bl	lv_strlcpy
 695              	.LVL81:
 696              	.L44:
 133:Drivers/lvgl/src/others/observer/lv_observer.c ****     subject->size = (uint32_t)size;
 697              		.loc 1 133 5 view .LVU169
 133:Drivers/lvgl/src/others/observer/lv_observer.c ****     subject->size = (uint32_t)size;
 698              		.loc 1 133 19 is_stmt 0 view .LVU170
 699 002e 237E     		ldrb	r3, [r4, #24]	@ zero_extendqisi2
 700 0030 0622     		movs	r2, #6
 701 0032 62F30303 		bfi	r3, r2, #0, #4
 702 0036 2376     		strb	r3, [r4, #24]
 134:Drivers/lvgl/src/others/observer/lv_observer.c ****     subject->value.pointer = buf;
 703              		.loc 1 134 5 is_stmt 1 view .LVU171
 134:Drivers/lvgl/src/others/observer/lv_observer.c ****     subject->value.pointer = buf;
 704              		.loc 1 134 19 is_stmt 0 view .LVU172
 705 0038 A369     		ldr	r3, [r4, #24]
 706 003a 66F31B13 		bfi	r3, r6, #4, #24
 707 003e A361     		str	r3, [r4, #24]
 708              	.LVL82:
 135:Drivers/lvgl/src/others/observer/lv_observer.c ****     subject->prev_value.pointer = prev_buf;
 709              		.loc 1 135 5 is_stmt 1 view .LVU173
 135:Drivers/lvgl/src/others/observer/lv_observer.c ****     subject->prev_value.pointer = prev_buf;
 710              		.loc 1 135 28 is_stmt 0 view .LVU174
 711 0040 E760     		str	r7, [r4, #12]
 136:Drivers/lvgl/src/others/observer/lv_observer.c **** 
 712              		.loc 1 136 5 is_stmt 1 view .LVU175
 136:Drivers/lvgl/src/others/observer/lv_observer.c **** 
 713              		.loc 1 136 33 is_stmt 0 view .LVU176
 714 0042 2561     		str	r5, [r4, #16]
 138:Drivers/lvgl/src/others/observer/lv_observer.c **** }
 715              		.loc 1 138 5 is_stmt 1 view .LVU177
 716 0044 1421     		movs	r1, #20
 717 0046 2046     		mov	r0, r4
 718 0048 FFF7FEFF 		bl	lv_ll_init
 719              	.LVL83:
 139:Drivers/lvgl/src/others/observer/lv_observer.c **** 
 720              		.loc 1 139 1 is_stmt 0 view .LVU178
 721 004c BDE8F081 		pop	{r4, r5, r6, r7, r8, pc}
 139:Drivers/lvgl/src/others/observer/lv_observer.c **** 
 722              		.loc 1 139 1 view .LVU179
 723              		.cfi_endproc
 724              	.LFE182:
 726              		.section	.rodata.lv_subject_get_string.str1.4,"aMS",%progbits,1
 727              		.align	2
 728              	.LC0:
 729 0000 00       		.ascii	"\000"
ARM GAS  /tmp/cc972Q0K.s 			page 32


 730              		.section	.text.lv_subject_get_string,"ax",%progbits
 731              		.align	1
 732              		.global	lv_subject_get_string
 733              		.syntax unified
 734              		.thumb
 735              		.thumb_func
 737              	lv_subject_get_string:
 738              	.LVL84:
 739              	.LFB185:
 181:Drivers/lvgl/src/others/observer/lv_observer.c ****     if(subject->type != LV_SUBJECT_TYPE_STRING) {
 740              		.loc 1 181 1 is_stmt 1 view -0
 741              		.cfi_startproc
 742              		@ args = 0, pretend = 0, frame = 0
 743              		@ frame_needed = 0, uses_anonymous_args = 0
 744              		@ link register save eliminated.
 182:Drivers/lvgl/src/others/observer/lv_observer.c ****         LV_LOG_WARN("Subject type is not LV_SUBJECT_TYPE_STRING");
 745              		.loc 1 182 5 view .LVU181
 182:Drivers/lvgl/src/others/observer/lv_observer.c ****         LV_LOG_WARN("Subject type is not LV_SUBJECT_TYPE_STRING");
 746              		.loc 1 182 22 is_stmt 0 view .LVU182
 747 0000 037E     		ldrb	r3, [r0, #24]	@ zero_extendqisi2
 748 0002 03F00F03 		and	r3, r3, #15
 182:Drivers/lvgl/src/others/observer/lv_observer.c ****         LV_LOG_WARN("Subject type is not LV_SUBJECT_TYPE_STRING");
 749              		.loc 1 182 7 view .LVU183
 750 0006 062B     		cmp	r3, #6
 751 0008 01D1     		bne	.L48
 187:Drivers/lvgl/src/others/observer/lv_observer.c **** }
 752              		.loc 1 187 5 is_stmt 1 view .LVU184
 187:Drivers/lvgl/src/others/observer/lv_observer.c **** }
 753              		.loc 1 187 26 is_stmt 0 view .LVU185
 754 000a C068     		ldr	r0, [r0, #12]
 755              	.LVL85:
 187:Drivers/lvgl/src/others/observer/lv_observer.c **** }
 756              		.loc 1 187 26 view .LVU186
 757 000c 7047     		bx	lr
 758              	.LVL86:
 759              	.L48:
 184:Drivers/lvgl/src/others/observer/lv_observer.c ****     }
 760              		.loc 1 184 16 view .LVU187
 761 000e 0148     		ldr	r0, .L49
 762              	.LVL87:
 188:Drivers/lvgl/src/others/observer/lv_observer.c **** 
 763              		.loc 1 188 1 view .LVU188
 764 0010 7047     		bx	lr
 765              	.L50:
 766 0012 00BF     		.align	2
 767              	.L49:
 768 0014 00000000 		.word	.LC0
 769              		.cfi_endproc
 770              	.LFE185:
 772              		.section	.text.lv_subject_get_previous_string,"ax",%progbits
 773              		.align	1
 774              		.global	lv_subject_get_previous_string
 775              		.syntax unified
 776              		.thumb
 777              		.thumb_func
 779              	lv_subject_get_previous_string:
 780              	.LVL88:
ARM GAS  /tmp/cc972Q0K.s 			page 33


 781              	.LFB186:
 191:Drivers/lvgl/src/others/observer/lv_observer.c ****     if(subject->type != LV_SUBJECT_TYPE_STRING) {
 782              		.loc 1 191 1 is_stmt 1 view -0
 783              		.cfi_startproc
 784              		@ args = 0, pretend = 0, frame = 0
 785              		@ frame_needed = 0, uses_anonymous_args = 0
 786              		@ link register save eliminated.
 192:Drivers/lvgl/src/others/observer/lv_observer.c ****         LV_LOG_WARN("Subject type is not LV_SUBJECT_TYPE_STRING");
 787              		.loc 1 192 5 view .LVU190
 192:Drivers/lvgl/src/others/observer/lv_observer.c ****         LV_LOG_WARN("Subject type is not LV_SUBJECT_TYPE_STRING");
 788              		.loc 1 192 22 is_stmt 0 view .LVU191
 789 0000 037E     		ldrb	r3, [r0, #24]	@ zero_extendqisi2
 790 0002 03F00F03 		and	r3, r3, #15
 192:Drivers/lvgl/src/others/observer/lv_observer.c ****         LV_LOG_WARN("Subject type is not LV_SUBJECT_TYPE_STRING");
 791              		.loc 1 192 7 view .LVU192
 792 0006 062B     		cmp	r3, #6
 793 0008 01D1     		bne	.L53
 197:Drivers/lvgl/src/others/observer/lv_observer.c **** }
 794              		.loc 1 197 5 is_stmt 1 view .LVU193
 197:Drivers/lvgl/src/others/observer/lv_observer.c **** }
 795              		.loc 1 197 31 is_stmt 0 view .LVU194
 796 000a 0069     		ldr	r0, [r0, #16]
 797              	.LVL89:
 197:Drivers/lvgl/src/others/observer/lv_observer.c **** }
 798              		.loc 1 197 31 view .LVU195
 799 000c 7047     		bx	lr
 800              	.LVL90:
 801              	.L53:
 194:Drivers/lvgl/src/others/observer/lv_observer.c ****     }
 802              		.loc 1 194 16 view .LVU196
 803 000e 0020     		movs	r0, #0
 804              	.LVL91:
 198:Drivers/lvgl/src/others/observer/lv_observer.c **** 
 805              		.loc 1 198 1 view .LVU197
 806 0010 7047     		bx	lr
 807              		.cfi_endproc
 808              	.LFE186:
 810              		.section	.text.lv_subject_init_pointer,"ax",%progbits
 811              		.align	1
 812              		.global	lv_subject_init_pointer
 813              		.syntax unified
 814              		.thumb
 815              		.thumb_func
 817              	lv_subject_init_pointer:
 818              	.LVL92:
 819              	.LFB187:
 201:Drivers/lvgl/src/others/observer/lv_observer.c ****     lv_memzero(subject, sizeof(lv_subject_t));
 820              		.loc 1 201 1 is_stmt 1 view -0
 821              		.cfi_startproc
 822              		@ args = 0, pretend = 0, frame = 0
 823              		@ frame_needed = 0, uses_anonymous_args = 0
 201:Drivers/lvgl/src/others/observer/lv_observer.c ****     lv_memzero(subject, sizeof(lv_subject_t));
 824              		.loc 1 201 1 is_stmt 0 view .LVU199
 825 0000 38B5     		push	{r3, r4, r5, lr}
 826              	.LCFI9:
 827              		.cfi_def_cfa_offset 16
 828              		.cfi_offset 3, -16
ARM GAS  /tmp/cc972Q0K.s 			page 34


 829              		.cfi_offset 4, -12
 830              		.cfi_offset 5, -8
 831              		.cfi_offset 14, -4
 832 0002 0446     		mov	r4, r0
 833 0004 0D46     		mov	r5, r1
 202:Drivers/lvgl/src/others/observer/lv_observer.c ****     subject->type = LV_SUBJECT_TYPE_POINTER;
 834              		.loc 1 202 5 is_stmt 1 view .LVU200
 835              	.LVL93:
 836              	.LBB18:
 837              	.LBI18:
  73:Drivers/lvgl/src/others/observer/../../core/../misc/../font/../draw/../misc/../stdlib/lv_string.h **** {
 838              		.loc 2 73 20 view .LVU201
 839              	.LBB19:
 840              		.loc 2 75 5 view .LVU202
 841 0006 1C22     		movs	r2, #28
 842 0008 0021     		movs	r1, #0
 843              	.LVL94:
 844              		.loc 2 75 5 is_stmt 0 view .LVU203
 845 000a FFF7FEFF 		bl	lv_memset
 846              	.LVL95:
 847              		.loc 2 75 5 view .LVU204
 848              	.LBE19:
 849              	.LBE18:
 203:Drivers/lvgl/src/others/observer/lv_observer.c ****     subject->value.pointer = value;
 850              		.loc 1 203 5 is_stmt 1 view .LVU205
 203:Drivers/lvgl/src/others/observer/lv_observer.c ****     subject->value.pointer = value;
 851              		.loc 1 203 19 is_stmt 0 view .LVU206
 852 000e 237E     		ldrb	r3, [r4, #24]	@ zero_extendqisi2
 853 0010 0322     		movs	r2, #3
 854 0012 62F30303 		bfi	r3, r2, #0, #4
 855 0016 2376     		strb	r3, [r4, #24]
 204:Drivers/lvgl/src/others/observer/lv_observer.c ****     subject->prev_value.pointer = value;
 856              		.loc 1 204 5 is_stmt 1 view .LVU207
 204:Drivers/lvgl/src/others/observer/lv_observer.c ****     subject->prev_value.pointer = value;
 857              		.loc 1 204 28 is_stmt 0 view .LVU208
 858 0018 E560     		str	r5, [r4, #12]
 205:Drivers/lvgl/src/others/observer/lv_observer.c ****     lv_ll_init(&(subject->subs_ll), sizeof(lv_observer_t));
 859              		.loc 1 205 5 is_stmt 1 view .LVU209
 205:Drivers/lvgl/src/others/observer/lv_observer.c ****     lv_ll_init(&(subject->subs_ll), sizeof(lv_observer_t));
 860              		.loc 1 205 33 is_stmt 0 view .LVU210
 861 001a 2561     		str	r5, [r4, #16]
 206:Drivers/lvgl/src/others/observer/lv_observer.c **** }
 862              		.loc 1 206 5 is_stmt 1 view .LVU211
 863 001c 1421     		movs	r1, #20
 864 001e 2046     		mov	r0, r4
 865 0020 FFF7FEFF 		bl	lv_ll_init
 866              	.LVL96:
 207:Drivers/lvgl/src/others/observer/lv_observer.c **** 
 867              		.loc 1 207 1 is_stmt 0 view .LVU212
 868 0024 38BD     		pop	{r3, r4, r5, pc}
 207:Drivers/lvgl/src/others/observer/lv_observer.c **** 
 869              		.loc 1 207 1 view .LVU213
 870              		.cfi_endproc
 871              	.LFE187:
 873              		.section	.text.lv_subject_get_pointer,"ax",%progbits
 874              		.align	1
 875              		.global	lv_subject_get_pointer
ARM GAS  /tmp/cc972Q0K.s 			page 35


 876              		.syntax unified
 877              		.thumb
 878              		.thumb_func
 880              	lv_subject_get_pointer:
 881              	.LVL97:
 882              	.LFB189:
 222:Drivers/lvgl/src/others/observer/lv_observer.c ****     if(subject->type != LV_SUBJECT_TYPE_POINTER) {
 883              		.loc 1 222 1 is_stmt 1 view -0
 884              		.cfi_startproc
 885              		@ args = 0, pretend = 0, frame = 0
 886              		@ frame_needed = 0, uses_anonymous_args = 0
 887              		@ link register save eliminated.
 223:Drivers/lvgl/src/others/observer/lv_observer.c ****         LV_LOG_WARN("Subject type is not LV_SUBJECT_TYPE_POINTER");
 888              		.loc 1 223 5 view .LVU215
 223:Drivers/lvgl/src/others/observer/lv_observer.c ****         LV_LOG_WARN("Subject type is not LV_SUBJECT_TYPE_POINTER");
 889              		.loc 1 223 22 is_stmt 0 view .LVU216
 890 0000 037E     		ldrb	r3, [r0, #24]	@ zero_extendqisi2
 891 0002 03F00F03 		and	r3, r3, #15
 223:Drivers/lvgl/src/others/observer/lv_observer.c ****         LV_LOG_WARN("Subject type is not LV_SUBJECT_TYPE_POINTER");
 892              		.loc 1 223 7 view .LVU217
 893 0006 032B     		cmp	r3, #3
 894 0008 01D1     		bne	.L58
 228:Drivers/lvgl/src/others/observer/lv_observer.c **** }
 895              		.loc 1 228 5 is_stmt 1 view .LVU218
 228:Drivers/lvgl/src/others/observer/lv_observer.c **** }
 896              		.loc 1 228 26 is_stmt 0 view .LVU219
 897 000a C068     		ldr	r0, [r0, #12]
 898              	.LVL98:
 228:Drivers/lvgl/src/others/observer/lv_observer.c **** }
 899              		.loc 1 228 26 view .LVU220
 900 000c 7047     		bx	lr
 901              	.LVL99:
 902              	.L58:
 225:Drivers/lvgl/src/others/observer/lv_observer.c ****     }
 903              		.loc 1 225 16 view .LVU221
 904 000e 0020     		movs	r0, #0
 905              	.LVL100:
 229:Drivers/lvgl/src/others/observer/lv_observer.c **** 
 906              		.loc 1 229 1 view .LVU222
 907 0010 7047     		bx	lr
 908              		.cfi_endproc
 909              	.LFE189:
 911              		.section	.text.lv_subject_get_previous_pointer,"ax",%progbits
 912              		.align	1
 913              		.global	lv_subject_get_previous_pointer
 914              		.syntax unified
 915              		.thumb
 916              		.thumb_func
 918              	lv_subject_get_previous_pointer:
 919              	.LVL101:
 920              	.LFB190:
 232:Drivers/lvgl/src/others/observer/lv_observer.c ****     if(subject->type != LV_SUBJECT_TYPE_POINTER) {
 921              		.loc 1 232 1 is_stmt 1 view -0
 922              		.cfi_startproc
 923              		@ args = 0, pretend = 0, frame = 0
 924              		@ frame_needed = 0, uses_anonymous_args = 0
 925              		@ link register save eliminated.
ARM GAS  /tmp/cc972Q0K.s 			page 36


 233:Drivers/lvgl/src/others/observer/lv_observer.c ****         LV_LOG_WARN("Subject type is not LV_SUBJECT_TYPE_POINTER");
 926              		.loc 1 233 5 view .LVU224
 233:Drivers/lvgl/src/others/observer/lv_observer.c ****         LV_LOG_WARN("Subject type is not LV_SUBJECT_TYPE_POINTER");
 927              		.loc 1 233 22 is_stmt 0 view .LVU225
 928 0000 037E     		ldrb	r3, [r0, #24]	@ zero_extendqisi2
 929 0002 03F00F03 		and	r3, r3, #15
 233:Drivers/lvgl/src/others/observer/lv_observer.c ****         LV_LOG_WARN("Subject type is not LV_SUBJECT_TYPE_POINTER");
 930              		.loc 1 233 7 view .LVU226
 931 0006 032B     		cmp	r3, #3
 932 0008 01D1     		bne	.L61
 238:Drivers/lvgl/src/others/observer/lv_observer.c **** }
 933              		.loc 1 238 5 is_stmt 1 view .LVU227
 238:Drivers/lvgl/src/others/observer/lv_observer.c **** }
 934              		.loc 1 238 31 is_stmt 0 view .LVU228
 935 000a 0069     		ldr	r0, [r0, #16]
 936              	.LVL102:
 238:Drivers/lvgl/src/others/observer/lv_observer.c **** }
 937              		.loc 1 238 31 view .LVU229
 938 000c 7047     		bx	lr
 939              	.LVL103:
 940              	.L61:
 235:Drivers/lvgl/src/others/observer/lv_observer.c ****     }
 941              		.loc 1 235 16 view .LVU230
 942 000e 0020     		movs	r0, #0
 943              	.LVL104:
 239:Drivers/lvgl/src/others/observer/lv_observer.c **** 
 944              		.loc 1 239 1 view .LVU231
 945 0010 7047     		bx	lr
 946              		.cfi_endproc
 947              	.LFE190:
 949              		.section	.text.lv_subject_init_color,"ax",%progbits
 950              		.align	1
 951              		.global	lv_subject_init_color
 952              		.syntax unified
 953              		.thumb
 954              		.thumb_func
 956              	lv_subject_init_color:
 957              	.LVL105:
 958              	.LFB191:
 242:Drivers/lvgl/src/others/observer/lv_observer.c ****     lv_memzero(subject, sizeof(lv_subject_t));
 959              		.loc 1 242 1 is_stmt 1 view -0
 960              		.cfi_startproc
 961              		@ args = 0, pretend = 0, frame = 8
 962              		@ frame_needed = 0, uses_anonymous_args = 0
 242:Drivers/lvgl/src/others/observer/lv_observer.c ****     lv_memzero(subject, sizeof(lv_subject_t));
 963              		.loc 1 242 1 is_stmt 0 view .LVU233
 964 0000 10B5     		push	{r4, lr}
 965              	.LCFI10:
 966              		.cfi_def_cfa_offset 8
 967              		.cfi_offset 4, -8
 968              		.cfi_offset 14, -4
 969 0002 82B0     		sub	sp, sp, #8
 970              	.LCFI11:
 971              		.cfi_def_cfa_offset 16
 972 0004 0446     		mov	r4, r0
 973 0006 0191     		str	r1, [sp, #4]
 243:Drivers/lvgl/src/others/observer/lv_observer.c ****     subject->type = LV_SUBJECT_TYPE_COLOR;
ARM GAS  /tmp/cc972Q0K.s 			page 37


 974              		.loc 1 243 5 is_stmt 1 view .LVU234
 975              	.LVL106:
 976              	.LBB20:
 977              	.LBI20:
  73:Drivers/lvgl/src/others/observer/../../core/../misc/../font/../draw/../misc/../stdlib/lv_string.h **** {
 978              		.loc 2 73 20 view .LVU235
 979              	.LBB21:
 980              		.loc 2 75 5 view .LVU236
 981 0008 1C22     		movs	r2, #28
 982 000a 0021     		movs	r1, #0
 983 000c FFF7FEFF 		bl	lv_memset
 984              	.LVL107:
 985              		.loc 2 75 5 is_stmt 0 view .LVU237
 986              	.LBE21:
 987              	.LBE20:
 244:Drivers/lvgl/src/others/observer/lv_observer.c ****     subject->value.color = color;
 988              		.loc 1 244 5 is_stmt 1 view .LVU238
 244:Drivers/lvgl/src/others/observer/lv_observer.c ****     subject->value.color = color;
 989              		.loc 1 244 19 is_stmt 0 view .LVU239
 990 0010 237E     		ldrb	r3, [r4, #24]	@ zero_extendqisi2
 991 0012 0422     		movs	r2, #4
 992 0014 62F30303 		bfi	r3, r2, #0, #4
 993 0018 2376     		strb	r3, [r4, #24]
 245:Drivers/lvgl/src/others/observer/lv_observer.c ****     subject->prev_value.color = color;
 994              		.loc 1 245 5 is_stmt 1 view .LVU240
 245:Drivers/lvgl/src/others/observer/lv_observer.c ****     subject->prev_value.color = color;
 995              		.loc 1 245 26 is_stmt 0 view .LVU241
 996 001a 019B     		ldr	r3, [sp, #4]
 997 001c A381     		strh	r3, [r4, #12]	@ movhi
 998 001e 1A0C     		lsrs	r2, r3, #16
 999 0020 A273     		strb	r2, [r4, #14]
 246:Drivers/lvgl/src/others/observer/lv_observer.c ****     lv_ll_init(&(subject->subs_ll), sizeof(lv_observer_t));
 1000              		.loc 1 246 5 is_stmt 1 view .LVU242
 246:Drivers/lvgl/src/others/observer/lv_observer.c ****     lv_ll_init(&(subject->subs_ll), sizeof(lv_observer_t));
 1001              		.loc 1 246 31 is_stmt 0 view .LVU243
 1002 0022 2382     		strh	r3, [r4, #16]	@ movhi
 1003 0024 A274     		strb	r2, [r4, #18]
 247:Drivers/lvgl/src/others/observer/lv_observer.c **** }
 1004              		.loc 1 247 5 is_stmt 1 view .LVU244
 1005 0026 1421     		movs	r1, #20
 1006 0028 2046     		mov	r0, r4
 1007 002a FFF7FEFF 		bl	lv_ll_init
 1008              	.LVL108:
 248:Drivers/lvgl/src/others/observer/lv_observer.c **** 
 1009              		.loc 1 248 1 is_stmt 0 view .LVU245
 1010 002e 02B0     		add	sp, sp, #8
 1011              	.LCFI12:
 1012              		.cfi_def_cfa_offset 8
 1013              		@ sp needed
 1014 0030 10BD     		pop	{r4, pc}
 248:Drivers/lvgl/src/others/observer/lv_observer.c **** 
 1015              		.loc 1 248 1 view .LVU246
 1016              		.cfi_endproc
 1017              	.LFE191:
 1019              		.section	.text.lv_subject_get_color,"ax",%progbits
 1020              		.align	1
 1021              		.global	lv_subject_get_color
ARM GAS  /tmp/cc972Q0K.s 			page 38


 1022              		.syntax unified
 1023              		.thumb
 1024              		.thumb_func
 1026              	lv_subject_get_color:
 1027              	.LVL109:
 1028              	.LFB193:
 263:Drivers/lvgl/src/others/observer/lv_observer.c ****     if(subject->type != LV_SUBJECT_TYPE_COLOR) {
 1029              		.loc 1 263 1 is_stmt 1 view -0
 1030              		.cfi_startproc
 1031              		@ args = 0, pretend = 0, frame = 8
 1032              		@ frame_needed = 0, uses_anonymous_args = 0
 263:Drivers/lvgl/src/others/observer/lv_observer.c ****     if(subject->type != LV_SUBJECT_TYPE_COLOR) {
 1033              		.loc 1 263 1 is_stmt 0 view .LVU248
 1034 0000 00B5     		push	{lr}
 1035              	.LCFI13:
 1036              		.cfi_def_cfa_offset 4
 1037              		.cfi_offset 14, -4
 1038 0002 83B0     		sub	sp, sp, #12
 1039              	.LCFI14:
 1040              		.cfi_def_cfa_offset 16
 264:Drivers/lvgl/src/others/observer/lv_observer.c ****         LV_LOG_WARN("Subject type is not LV_SUBJECT_TYPE_COLOR");
 1041              		.loc 1 264 5 is_stmt 1 view .LVU249
 264:Drivers/lvgl/src/others/observer/lv_observer.c ****         LV_LOG_WARN("Subject type is not LV_SUBJECT_TYPE_COLOR");
 1042              		.loc 1 264 22 is_stmt 0 view .LVU250
 1043 0004 037E     		ldrb	r3, [r0, #24]	@ zero_extendqisi2
 1044 0006 03F00F03 		and	r3, r3, #15
 264:Drivers/lvgl/src/others/observer/lv_observer.c ****         LV_LOG_WARN("Subject type is not LV_SUBJECT_TYPE_COLOR");
 1045              		.loc 1 264 7 view .LVU251
 1046 000a 042B     		cmp	r3, #4
 1047 000c 15D1     		bne	.L68
 269:Drivers/lvgl/src/others/observer/lv_observer.c **** }
 1048              		.loc 1 269 5 is_stmt 1 view .LVU252
 269:Drivers/lvgl/src/others/observer/lv_observer.c **** }
 1049              		.loc 1 269 26 is_stmt 0 view .LVU253
 1050 000e C368     		ldr	r3, [r0, #12]
 1051 0010 ADF80430 		strh	r3, [sp, #4]	@ movhi
 1052 0014 1B0C     		lsrs	r3, r3, #16
 1053 0016 8DF80630 		strb	r3, [sp, #6]
 1054              	.LVL110:
 1055              	.L66:
 270:Drivers/lvgl/src/others/observer/lv_observer.c **** 
 1056              		.loc 1 270 1 view .LVU254
 1057 001a 0020     		movs	r0, #0
 1058 001c 9DF80430 		ldrb	r3, [sp, #4]	@ zero_extendqisi2
 1059 0020 63F30700 		bfi	r0, r3, #0, #8
 1060 0024 9DF80530 		ldrb	r3, [sp, #5]	@ zero_extendqisi2
 1061 0028 63F30F20 		bfi	r0, r3, #8, #8
 1062 002c 9DF80630 		ldrb	r3, [sp, #6]	@ zero_extendqisi2
 1063 0030 63F31740 		bfi	r0, r3, #16, #8
 1064 0034 03B0     		add	sp, sp, #12
 1065              	.LCFI15:
 1066              		.cfi_remember_state
 1067              		.cfi_def_cfa_offset 4
 1068              		@ sp needed
 1069 0036 5DF804FB 		ldr	pc, [sp], #4
 1070              	.LVL111:
 1071              	.L68:
ARM GAS  /tmp/cc972Q0K.s 			page 39


 1072              	.LCFI16:
 1073              		.cfi_restore_state
 265:Drivers/lvgl/src/others/observer/lv_observer.c ****         return lv_color_black();
 1074              		.loc 1 265 9 is_stmt 1 view .LVU255
 265:Drivers/lvgl/src/others/observer/lv_observer.c ****         return lv_color_black();
 1075              		.loc 1 265 9 view .LVU256
 265:Drivers/lvgl/src/others/observer/lv_observer.c ****         return lv_color_black();
 1076              		.loc 1 265 9 view .LVU257
 266:Drivers/lvgl/src/others/observer/lv_observer.c ****     }
 1077              		.loc 1 266 9 view .LVU258
 266:Drivers/lvgl/src/others/observer/lv_observer.c ****     }
 1078              		.loc 1 266 16 is_stmt 0 view .LVU259
 1079 003a FFF7FEFF 		bl	lv_color_black
 1080              	.LVL112:
 266:Drivers/lvgl/src/others/observer/lv_observer.c ****     }
 1081              		.loc 1 266 16 view .LVU260
 1082 003e 8DF80400 		strb	r0, [sp, #4]
 1083 0042 C0F30723 		ubfx	r3, r0, #8, #8
 1084 0046 8DF80530 		strb	r3, [sp, #5]
 1085 004a C0F30740 		ubfx	r0, r0, #16, #8
 1086 004e 8DF80600 		strb	r0, [sp, #6]
 1087 0052 E2E7     		b	.L66
 1088              		.cfi_endproc
 1089              	.LFE193:
 1091              		.section	.text.lv_subject_get_previous_color,"ax",%progbits
 1092              		.align	1
 1093              		.global	lv_subject_get_previous_color
 1094              		.syntax unified
 1095              		.thumb
 1096              		.thumb_func
 1098              	lv_subject_get_previous_color:
 1099              	.LVL113:
 1100              	.LFB194:
 273:Drivers/lvgl/src/others/observer/lv_observer.c ****     if(subject->type != LV_SUBJECT_TYPE_COLOR) {
 1101              		.loc 1 273 1 is_stmt 1 view -0
 1102              		.cfi_startproc
 1103              		@ args = 0, pretend = 0, frame = 8
 1104              		@ frame_needed = 0, uses_anonymous_args = 0
 273:Drivers/lvgl/src/others/observer/lv_observer.c ****     if(subject->type != LV_SUBJECT_TYPE_COLOR) {
 1105              		.loc 1 273 1 is_stmt 0 view .LVU262
 1106 0000 00B5     		push	{lr}
 1107              	.LCFI17:
 1108              		.cfi_def_cfa_offset 4
 1109              		.cfi_offset 14, -4
 1110 0002 83B0     		sub	sp, sp, #12
 1111              	.LCFI18:
 1112              		.cfi_def_cfa_offset 16
 274:Drivers/lvgl/src/others/observer/lv_observer.c ****         LV_LOG_WARN("Subject type is not LV_SUBJECT_TYPE_COLOR");
 1113              		.loc 1 274 5 is_stmt 1 view .LVU263
 274:Drivers/lvgl/src/others/observer/lv_observer.c ****         LV_LOG_WARN("Subject type is not LV_SUBJECT_TYPE_COLOR");
 1114              		.loc 1 274 22 is_stmt 0 view .LVU264
 1115 0004 037E     		ldrb	r3, [r0, #24]	@ zero_extendqisi2
 1116 0006 03F00F03 		and	r3, r3, #15
 274:Drivers/lvgl/src/others/observer/lv_observer.c ****         LV_LOG_WARN("Subject type is not LV_SUBJECT_TYPE_COLOR");
 1117              		.loc 1 274 7 view .LVU265
 1118 000a 042B     		cmp	r3, #4
 1119 000c 15D1     		bne	.L73
ARM GAS  /tmp/cc972Q0K.s 			page 40


 279:Drivers/lvgl/src/others/observer/lv_observer.c **** }
 1120              		.loc 1 279 5 is_stmt 1 view .LVU266
 279:Drivers/lvgl/src/others/observer/lv_observer.c **** }
 1121              		.loc 1 279 31 is_stmt 0 view .LVU267
 1122 000e 0369     		ldr	r3, [r0, #16]
 1123 0010 ADF80430 		strh	r3, [sp, #4]	@ movhi
 1124 0014 1B0C     		lsrs	r3, r3, #16
 1125 0016 8DF80630 		strb	r3, [sp, #6]
 1126              	.LVL114:
 1127              	.L71:
 280:Drivers/lvgl/src/others/observer/lv_observer.c **** 
 1128              		.loc 1 280 1 view .LVU268
 1129 001a 0020     		movs	r0, #0
 1130 001c 9DF80430 		ldrb	r3, [sp, #4]	@ zero_extendqisi2
 1131 0020 63F30700 		bfi	r0, r3, #0, #8
 1132 0024 9DF80530 		ldrb	r3, [sp, #5]	@ zero_extendqisi2
 1133 0028 63F30F20 		bfi	r0, r3, #8, #8
 1134 002c 9DF80630 		ldrb	r3, [sp, #6]	@ zero_extendqisi2
 1135 0030 63F31740 		bfi	r0, r3, #16, #8
 1136 0034 03B0     		add	sp, sp, #12
 1137              	.LCFI19:
 1138              		.cfi_remember_state
 1139              		.cfi_def_cfa_offset 4
 1140              		@ sp needed
 1141 0036 5DF804FB 		ldr	pc, [sp], #4
 1142              	.LVL115:
 1143              	.L73:
 1144              	.LCFI20:
 1145              		.cfi_restore_state
 275:Drivers/lvgl/src/others/observer/lv_observer.c ****         return lv_color_black();
 1146              		.loc 1 275 9 is_stmt 1 view .LVU269
 275:Drivers/lvgl/src/others/observer/lv_observer.c ****         return lv_color_black();
 1147              		.loc 1 275 9 view .LVU270
 275:Drivers/lvgl/src/others/observer/lv_observer.c ****         return lv_color_black();
 1148              		.loc 1 275 9 view .LVU271
 276:Drivers/lvgl/src/others/observer/lv_observer.c ****     }
 1149              		.loc 1 276 9 view .LVU272
 276:Drivers/lvgl/src/others/observer/lv_observer.c ****     }
 1150              		.loc 1 276 16 is_stmt 0 view .LVU273
 1151 003a FFF7FEFF 		bl	lv_color_black
 1152              	.LVL116:
 276:Drivers/lvgl/src/others/observer/lv_observer.c ****     }
 1153              		.loc 1 276 16 view .LVU274
 1154 003e 8DF80400 		strb	r0, [sp, #4]
 1155 0042 C0F30723 		ubfx	r3, r0, #8, #8
 1156 0046 8DF80530 		strb	r3, [sp, #5]
 1157 004a C0F30740 		ubfx	r0, r0, #16, #8
 1158 004e 8DF80600 		strb	r0, [sp, #6]
 1159 0052 E2E7     		b	.L71
 1160              		.cfi_endproc
 1161              	.LFE194:
 1163              		.section	.text.lv_subject_get_group_element,"ax",%progbits
 1164              		.align	1
 1165              		.global	lv_subject_get_group_element
 1166              		.syntax unified
 1167              		.thumb
 1168              		.thumb_func
ARM GAS  /tmp/cc972Q0K.s 			page 41


 1170              	lv_subject_get_group_element:
 1171              	.LVL117:
 1172              	.LFB197:
 311:Drivers/lvgl/src/others/observer/lv_observer.c ****     if(subject->type != LV_SUBJECT_TYPE_GROUP) {
 1173              		.loc 1 311 1 is_stmt 1 view -0
 1174              		.cfi_startproc
 1175              		@ args = 0, pretend = 0, frame = 0
 1176              		@ frame_needed = 0, uses_anonymous_args = 0
 1177              		@ link register save eliminated.
 312:Drivers/lvgl/src/others/observer/lv_observer.c ****         LV_LOG_WARN("Subject type is not LV_SUBJECT_TYPE_GROUP");
 1178              		.loc 1 312 5 view .LVU276
 312:Drivers/lvgl/src/others/observer/lv_observer.c ****         LV_LOG_WARN("Subject type is not LV_SUBJECT_TYPE_GROUP");
 1179              		.loc 1 312 22 is_stmt 0 view .LVU277
 1180 0000 037E     		ldrb	r3, [r0, #24]	@ zero_extendqisi2
 1181 0002 03F00F03 		and	r3, r3, #15
 312:Drivers/lvgl/src/others/observer/lv_observer.c ****         LV_LOG_WARN("Subject type is not LV_SUBJECT_TYPE_GROUP");
 1182              		.loc 1 312 7 view .LVU278
 1183 0006 052B     		cmp	r3, #5
 1184 0008 0AD1     		bne	.L76
 317:Drivers/lvgl/src/others/observer/lv_observer.c ****     if(index < 0)  return NULL;
 1185              		.loc 1 317 5 is_stmt 1 view .LVU279
 317:Drivers/lvgl/src/others/observer/lv_observer.c ****     if(index < 0)  return NULL;
 1186              		.loc 1 317 33 is_stmt 0 view .LVU280
 1187 000a 8369     		ldr	r3, [r0, #24]
 1188 000c C3F31713 		ubfx	r3, r3, #4, #24
 317:Drivers/lvgl/src/others/observer/lv_observer.c ****     if(index < 0)  return NULL;
 1189              		.loc 1 317 7 view .LVU281
 1190 0010 8B42     		cmp	r3, r1
 1191 0012 07DD     		ble	.L77
 318:Drivers/lvgl/src/others/observer/lv_observer.c **** 
 1192              		.loc 1 318 5 is_stmt 1 view .LVU282
 318:Drivers/lvgl/src/others/observer/lv_observer.c **** 
 1193              		.loc 1 318 7 is_stmt 0 view .LVU283
 1194 0014 0029     		cmp	r1, #0
 1195 0016 07DB     		blt	.L78
 320:Drivers/lvgl/src/others/observer/lv_observer.c **** }
 1196              		.loc 1 320 5 is_stmt 1 view .LVU284
 320:Drivers/lvgl/src/others/observer/lv_observer.c **** }
 1197              		.loc 1 320 45 is_stmt 0 view .LVU285
 1198 0018 C368     		ldr	r3, [r0, #12]
 320:Drivers/lvgl/src/others/observer/lv_observer.c **** }
 1199              		.loc 1 320 55 view .LVU286
 1200 001a 53F82100 		ldr	r0, [r3, r1, lsl #2]
 1201              	.LVL118:
 320:Drivers/lvgl/src/others/observer/lv_observer.c **** }
 1202              		.loc 1 320 55 view .LVU287
 1203 001e 7047     		bx	lr
 1204              	.LVL119:
 1205              	.L76:
 314:Drivers/lvgl/src/others/observer/lv_observer.c ****     }
 1206              		.loc 1 314 16 view .LVU288
 1207 0020 0020     		movs	r0, #0
 1208              	.LVL120:
 314:Drivers/lvgl/src/others/observer/lv_observer.c ****     }
 1209              		.loc 1 314 16 view .LVU289
 1210 0022 7047     		bx	lr
 1211              	.LVL121:
ARM GAS  /tmp/cc972Q0K.s 			page 42


 1212              	.L77:
 317:Drivers/lvgl/src/others/observer/lv_observer.c ****     if(index < 0)  return NULL;
 1213              		.loc 1 317 49 discriminator 1 view .LVU290
 1214 0024 0020     		movs	r0, #0
 1215              	.LVL122:
 317:Drivers/lvgl/src/others/observer/lv_observer.c ****     if(index < 0)  return NULL;
 1216              		.loc 1 317 49 discriminator 1 view .LVU291
 1217 0026 7047     		bx	lr
 1218              	.LVL123:
 1219              	.L78:
 318:Drivers/lvgl/src/others/observer/lv_observer.c **** 
 1220              		.loc 1 318 27 discriminator 1 view .LVU292
 1221 0028 0020     		movs	r0, #0
 1222              	.LVL124:
 321:Drivers/lvgl/src/others/observer/lv_observer.c **** 
 1223              		.loc 1 321 1 view .LVU293
 1224 002a 7047     		bx	lr
 1225              		.cfi_endproc
 1226              	.LFE197:
 1228              		.section	.text.lv_subject_add_observer_obj,"ax",%progbits
 1229              		.align	1
 1230              		.global	lv_subject_add_observer_obj
 1231              		.syntax unified
 1232              		.thumb
 1233              		.thumb_func
 1235              	lv_subject_add_observer_obj:
 1236              	.LVL125:
 1237              	.LFB199:
 334:Drivers/lvgl/src/others/observer/lv_observer.c ****     LV_ASSERT_NULL(subject);
 1238              		.loc 1 334 1 is_stmt 1 view -0
 1239              		.cfi_startproc
 1240              		@ args = 0, pretend = 0, frame = 0
 1241              		@ frame_needed = 0, uses_anonymous_args = 0
 335:Drivers/lvgl/src/others/observer/lv_observer.c ****     if(subject->type == LV_SUBJECT_TYPE_INVALID) {
 1242              		.loc 1 335 5 view .LVU295
 335:Drivers/lvgl/src/others/observer/lv_observer.c ****     if(subject->type == LV_SUBJECT_TYPE_INVALID) {
 1243              		.loc 1 335 5 view .LVU296
 1244 0000 38B3     		cbz	r0, .L81
 334:Drivers/lvgl/src/others/observer/lv_observer.c ****     LV_ASSERT_NULL(subject);
 1245              		.loc 1 334 1 is_stmt 0 view .LVU297
 1246 0002 2DE9F041 		push	{r4, r5, r6, r7, r8, lr}
 1247              	.LCFI21:
 1248              		.cfi_def_cfa_offset 24
 1249              		.cfi_offset 4, -24
 1250              		.cfi_offset 5, -20
 1251              		.cfi_offset 6, -16
 1252              		.cfi_offset 7, -12
 1253              		.cfi_offset 8, -8
 1254              		.cfi_offset 14, -4
 1255 0006 8846     		mov	r8, r1
 1256 0008 1746     		mov	r7, r2
 1257 000a 1D46     		mov	r5, r3
 1258 000c 0646     		mov	r6, r0
 335:Drivers/lvgl/src/others/observer/lv_observer.c ****     if(subject->type == LV_SUBJECT_TYPE_INVALID) {
 1259              		.loc 1 335 5 is_stmt 1 discriminator 2 view .LVU298
 335:Drivers/lvgl/src/others/observer/lv_observer.c ****     if(subject->type == LV_SUBJECT_TYPE_INVALID) {
 1260              		.loc 1 335 28 discriminator 2 view .LVU299
ARM GAS  /tmp/cc972Q0K.s 			page 43


 336:Drivers/lvgl/src/others/observer/lv_observer.c ****         LV_LOG_WARN("Subject not initialized yet");
 1261              		.loc 1 336 5 view .LVU300
 336:Drivers/lvgl/src/others/observer/lv_observer.c ****         LV_LOG_WARN("Subject not initialized yet");
 1262              		.loc 1 336 22 is_stmt 0 view .LVU301
 1263 000e 037E     		ldrb	r3, [r0, #24]	@ zero_extendqisi2
 1264              	.LVL126:
 336:Drivers/lvgl/src/others/observer/lv_observer.c ****         LV_LOG_WARN("Subject not initialized yet");
 1265              		.loc 1 336 7 view .LVU302
 1266 0010 13F00F0F 		tst	r3, #15
 1267 0014 1FD0     		beq	.L86
 340:Drivers/lvgl/src/others/observer/lv_observer.c ****     LV_ASSERT_MALLOC(observer);
 1268              		.loc 1 340 5 is_stmt 1 view .LVU303
 340:Drivers/lvgl/src/others/observer/lv_observer.c ****     LV_ASSERT_MALLOC(observer);
 1269              		.loc 1 340 32 is_stmt 0 view .LVU304
 1270 0016 FFF7FEFF 		bl	lv_ll_ins_tail
 1271              	.LVL127:
 341:Drivers/lvgl/src/others/observer/lv_observer.c ****     if(observer == NULL) return NULL;
 1272              		.loc 1 341 5 is_stmt 1 view .LVU305
 341:Drivers/lvgl/src/others/observer/lv_observer.c ****     if(observer == NULL) return NULL;
 1273              		.loc 1 341 5 view .LVU306
 1274 001a 0446     		mov	r4, r0
 1275 001c D0B1     		cbz	r0, .L84
 341:Drivers/lvgl/src/others/observer/lv_observer.c ****     if(observer == NULL) return NULL;
 1276              		.loc 1 341 5 discriminator 2 view .LVU307
 341:Drivers/lvgl/src/others/observer/lv_observer.c ****     if(observer == NULL) return NULL;
 1277              		.loc 1 341 31 discriminator 2 view .LVU308
 342:Drivers/lvgl/src/others/observer/lv_observer.c **** 
 1278              		.loc 1 342 5 view .LVU309
 344:Drivers/lvgl/src/others/observer/lv_observer.c **** 
 1279              		.loc 1 344 5 view .LVU310
 1280              	.LVL128:
 1281              	.LBB22:
 1282              	.LBI22:
  73:Drivers/lvgl/src/others/observer/../../core/../misc/../font/../draw/../misc/../stdlib/lv_string.h **** {
 1283              		.loc 2 73 20 view .LVU311
 1284              	.LBB23:
 1285              		.loc 2 75 5 view .LVU312
 1286 001e 1422     		movs	r2, #20
 1287 0020 0021     		movs	r1, #0
 1288 0022 FFF7FEFF 		bl	lv_memset
 1289              	.LVL129:
 1290              		.loc 2 75 5 is_stmt 0 view .LVU313
 1291              	.LBE23:
 1292              	.LBE22:
 346:Drivers/lvgl/src/others/observer/lv_observer.c ****     observer->cb = cb;
 1293              		.loc 1 346 5 is_stmt 1 view .LVU314
 346:Drivers/lvgl/src/others/observer/lv_observer.c ****     observer->cb = cb;
 1294              		.loc 1 346 23 is_stmt 0 view .LVU315
 1295 0026 2660     		str	r6, [r4]
 347:Drivers/lvgl/src/others/observer/lv_observer.c ****     observer->user_data = user_data;
 1296              		.loc 1 347 5 is_stmt 1 view .LVU316
 347:Drivers/lvgl/src/others/observer/lv_observer.c ****     observer->user_data = user_data;
 1297              		.loc 1 347 18 is_stmt 0 view .LVU317
 1298 0028 C4F80480 		str	r8, [r4, #4]
 348:Drivers/lvgl/src/others/observer/lv_observer.c ****     observer->target = obj;
 1299              		.loc 1 348 5 is_stmt 1 view .LVU318
 348:Drivers/lvgl/src/others/observer/lv_observer.c ****     observer->target = obj;
ARM GAS  /tmp/cc972Q0K.s 			page 44


 1300              		.loc 1 348 25 is_stmt 0 view .LVU319
 1301 002c E560     		str	r5, [r4, #12]
 349:Drivers/lvgl/src/others/observer/lv_observer.c ****     observer->for_obj = 1;
 1302              		.loc 1 349 5 is_stmt 1 view .LVU320
 349:Drivers/lvgl/src/others/observer/lv_observer.c ****     observer->for_obj = 1;
 1303              		.loc 1 349 22 is_stmt 0 view .LVU321
 1304 002e A760     		str	r7, [r4, #8]
 350:Drivers/lvgl/src/others/observer/lv_observer.c ****     /* subscribe to delete event of the object */
 1305              		.loc 1 350 5 is_stmt 1 view .LVU322
 350:Drivers/lvgl/src/others/observer/lv_observer.c ****     /* subscribe to delete event of the object */
 1306              		.loc 1 350 23 is_stmt 0 view .LVU323
 1307 0030 237C     		ldrb	r3, [r4, #16]	@ zero_extendqisi2
 1308 0032 43F00403 		orr	r3, r3, #4
 1309 0036 2374     		strb	r3, [r4, #16]
 352:Drivers/lvgl/src/others/observer/lv_observer.c ****         lv_obj_add_event_cb(obj, unsubscribe_on_delete_cb, LV_EVENT_DELETE, observer);
 1310              		.loc 1 352 5 is_stmt 1 view .LVU324
 352:Drivers/lvgl/src/others/observer/lv_observer.c ****         lv_obj_add_event_cb(obj, unsubscribe_on_delete_cb, LV_EVENT_DELETE, observer);
 1311              		.loc 1 352 7 is_stmt 0 view .LVU325
 1312 0038 2FB1     		cbz	r7, .L85
 353:Drivers/lvgl/src/others/observer/lv_observer.c ****     }
 1313              		.loc 1 353 9 is_stmt 1 view .LVU326
 1314 003a 2346     		mov	r3, r4
 1315 003c 2922     		movs	r2, #41
 1316 003e 0849     		ldr	r1, .L89
 1317 0040 3846     		mov	r0, r7
 1318 0042 FFF7FEFF 		bl	lv_obj_add_event_cb
 1319              	.LVL130:
 1320              	.L85:
 357:Drivers/lvgl/src/others/observer/lv_observer.c **** 
 1321              		.loc 1 357 5 view .LVU327
 357:Drivers/lvgl/src/others/observer/lv_observer.c **** 
 1322              		.loc 1 357 16 is_stmt 0 view .LVU328
 1323 0046 6368     		ldr	r3, [r4, #4]
 357:Drivers/lvgl/src/others/observer/lv_observer.c **** 
 1324              		.loc 1 357 7 view .LVU329
 1325 0048 33B1     		cbz	r3, .L79
 357:Drivers/lvgl/src/others/observer/lv_observer.c **** 
 1326              		.loc 1 357 22 is_stmt 1 discriminator 1 view .LVU330
 1327 004a 3146     		mov	r1, r6
 1328 004c 2046     		mov	r0, r4
 1329 004e 9847     		blx	r3
 1330              	.LVL131:
 1331 0050 02E0     		b	.L79
 1332              	.LVL132:
 1333              	.L81:
 1334              	.LCFI22:
 1335              		.cfi_def_cfa_offset 0
 1336              		.cfi_restore 4
 1337              		.cfi_restore 5
 1338              		.cfi_restore 6
 1339              		.cfi_restore 7
 1340              		.cfi_restore 8
 1341              		.cfi_restore 14
 335:Drivers/lvgl/src/others/observer/lv_observer.c ****     if(subject->type == LV_SUBJECT_TYPE_INVALID) {
 1342              		.loc 1 335 5 discriminator 1 view .LVU331
 335:Drivers/lvgl/src/others/observer/lv_observer.c ****     if(subject->type == LV_SUBJECT_TYPE_INVALID) {
 1343              		.loc 1 335 5 discriminator 1 view .LVU332
ARM GAS  /tmp/cc972Q0K.s 			page 45


 335:Drivers/lvgl/src/others/observer/lv_observer.c ****     if(subject->type == LV_SUBJECT_TYPE_INVALID) {
 1344              		.loc 1 335 5 discriminator 1 view .LVU333
 335:Drivers/lvgl/src/others/observer/lv_observer.c ****     if(subject->type == LV_SUBJECT_TYPE_INVALID) {
 1345              		.loc 1 335 5 discriminator 1 view .LVU334
 335:Drivers/lvgl/src/others/observer/lv_observer.c ****     if(subject->type == LV_SUBJECT_TYPE_INVALID) {
 1346              		.loc 1 335 5 discriminator 1 view .LVU335
 1347 0052 FEE7     		b	.L81
 1348              	.LVL133:
 1349              	.L84:
 1350              	.LCFI23:
 1351              		.cfi_def_cfa_offset 24
 1352              		.cfi_offset 4, -24
 1353              		.cfi_offset 5, -20
 1354              		.cfi_offset 6, -16
 1355              		.cfi_offset 7, -12
 1356              		.cfi_offset 8, -8
 1357              		.cfi_offset 14, -4
 341:Drivers/lvgl/src/others/observer/lv_observer.c ****     if(observer == NULL) return NULL;
 1358              		.loc 1 341 5 discriminator 1 view .LVU336
 341:Drivers/lvgl/src/others/observer/lv_observer.c ****     if(observer == NULL) return NULL;
 1359              		.loc 1 341 5 discriminator 1 view .LVU337
 341:Drivers/lvgl/src/others/observer/lv_observer.c ****     if(observer == NULL) return NULL;
 1360              		.loc 1 341 5 discriminator 1 view .LVU338
 341:Drivers/lvgl/src/others/observer/lv_observer.c ****     if(observer == NULL) return NULL;
 1361              		.loc 1 341 5 discriminator 1 view .LVU339
 341:Drivers/lvgl/src/others/observer/lv_observer.c ****     if(observer == NULL) return NULL;
 1362              		.loc 1 341 5 discriminator 1 view .LVU340
 1363 0054 FEE7     		b	.L84
 1364              	.LVL134:
 1365              	.L86:
 338:Drivers/lvgl/src/others/observer/lv_observer.c ****     }
 1366              		.loc 1 338 16 is_stmt 0 view .LVU341
 1367 0056 0024     		movs	r4, #0
 1368              	.LVL135:
 1369              	.L79:
 360:Drivers/lvgl/src/others/observer/lv_observer.c **** 
 1370              		.loc 1 360 1 view .LVU342
 1371 0058 2046     		mov	r0, r4
 1372 005a BDE8F081 		pop	{r4, r5, r6, r7, r8, pc}
 1373              	.LVL136:
 1374              	.L90:
 360:Drivers/lvgl/src/others/observer/lv_observer.c **** 
 1375              		.loc 1 360 1 view .LVU343
 1376 005e 00BF     		.align	2
 1377              	.L89:
 1378 0060 00000000 		.word	unsubscribe_on_delete_cb
 1379              		.cfi_endproc
 1380              	.LFE199:
 1382              		.section	.text.lv_subject_add_observer,"ax",%progbits
 1383              		.align	1
 1384              		.global	lv_subject_add_observer
 1385              		.syntax unified
 1386              		.thumb
 1387              		.thumb_func
 1389              	lv_subject_add_observer:
 1390              	.LVL137:
 1391              	.LFB198:
ARM GAS  /tmp/cc972Q0K.s 			page 46


 324:Drivers/lvgl/src/others/observer/lv_observer.c ****     lv_observer_t * observer = lv_subject_add_observer_obj(subject, cb, NULL, user_data);
 1392              		.loc 1 324 1 is_stmt 1 view -0
 1393              		.cfi_startproc
 1394              		@ args = 0, pretend = 0, frame = 0
 1395              		@ frame_needed = 0, uses_anonymous_args = 0
 324:Drivers/lvgl/src/others/observer/lv_observer.c ****     lv_observer_t * observer = lv_subject_add_observer_obj(subject, cb, NULL, user_data);
 1396              		.loc 1 324 1 is_stmt 0 view .LVU345
 1397 0000 08B5     		push	{r3, lr}
 1398              	.LCFI24:
 1399              		.cfi_def_cfa_offset 8
 1400              		.cfi_offset 3, -8
 1401              		.cfi_offset 14, -4
 1402 0002 1346     		mov	r3, r2
 325:Drivers/lvgl/src/others/observer/lv_observer.c ****     if(observer == NULL) return NULL;
 1403              		.loc 1 325 5 is_stmt 1 view .LVU346
 325:Drivers/lvgl/src/others/observer/lv_observer.c ****     if(observer == NULL) return NULL;
 1404              		.loc 1 325 32 is_stmt 0 view .LVU347
 1405 0004 0022     		movs	r2, #0
 1406              	.LVL138:
 325:Drivers/lvgl/src/others/observer/lv_observer.c ****     if(observer == NULL) return NULL;
 1407              		.loc 1 325 32 view .LVU348
 1408 0006 FFF7FEFF 		bl	lv_subject_add_observer_obj
 1409              	.LVL139:
 326:Drivers/lvgl/src/others/observer/lv_observer.c **** 
 1410              		.loc 1 326 5 is_stmt 1 view .LVU349
 326:Drivers/lvgl/src/others/observer/lv_observer.c **** 
 1411              		.loc 1 326 7 is_stmt 0 view .LVU350
 1412 000a 0346     		mov	r3, r0
 1413 000c 18B1     		cbz	r0, .L91
 328:Drivers/lvgl/src/others/observer/lv_observer.c ****     return observer;
 1414              		.loc 1 328 5 is_stmt 1 view .LVU351
 328:Drivers/lvgl/src/others/observer/lv_observer.c ****     return observer;
 1415              		.loc 1 328 23 is_stmt 0 view .LVU352
 1416 000e 027C     		ldrb	r2, [r0, #16]	@ zero_extendqisi2
 1417 0010 22F00402 		bic	r2, r2, #4
 1418 0014 0274     		strb	r2, [r0, #16]
 329:Drivers/lvgl/src/others/observer/lv_observer.c **** }
 1419              		.loc 1 329 5 is_stmt 1 view .LVU353
 1420              	.L91:
 330:Drivers/lvgl/src/others/observer/lv_observer.c **** 
 1421              		.loc 1 330 1 is_stmt 0 view .LVU354
 1422 0016 1846     		mov	r0, r3
 1423              	.LVL140:
 330:Drivers/lvgl/src/others/observer/lv_observer.c **** 
 1424              		.loc 1 330 1 view .LVU355
 1425 0018 08BD     		pop	{r3, pc}
 330:Drivers/lvgl/src/others/observer/lv_observer.c **** 
 1426              		.loc 1 330 1 view .LVU356
 1427              		.cfi_endproc
 1428              	.LFE198:
 1430              		.section	.text.lv_subject_init_group,"ax",%progbits
 1431              		.align	1
 1432              		.global	lv_subject_init_group
 1433              		.syntax unified
 1434              		.thumb
 1435              		.thumb_func
 1437              	lv_subject_init_group:
ARM GAS  /tmp/cc972Q0K.s 			page 47


 1438              	.LVL141:
 1439              	.LFB195:
 283:Drivers/lvgl/src/others/observer/lv_observer.c ****     group_subject->type = LV_SUBJECT_TYPE_GROUP;
 1440              		.loc 1 283 1 is_stmt 1 view -0
 1441              		.cfi_startproc
 1442              		@ args = 0, pretend = 0, frame = 0
 1443              		@ frame_needed = 0, uses_anonymous_args = 0
 283:Drivers/lvgl/src/others/observer/lv_observer.c ****     group_subject->type = LV_SUBJECT_TYPE_GROUP;
 1444              		.loc 1 283 1 is_stmt 0 view .LVU358
 1445 0000 F8B5     		push	{r3, r4, r5, r6, r7, lr}
 1446              	.LCFI25:
 1447              		.cfi_def_cfa_offset 24
 1448              		.cfi_offset 3, -24
 1449              		.cfi_offset 4, -20
 1450              		.cfi_offset 5, -16
 1451              		.cfi_offset 6, -12
 1452              		.cfi_offset 7, -8
 1453              		.cfi_offset 14, -4
 1454 0002 0546     		mov	r5, r0
 1455 0004 0F46     		mov	r7, r1
 1456 0006 1646     		mov	r6, r2
 284:Drivers/lvgl/src/others/observer/lv_observer.c ****     group_subject->size = list_len;
 1457              		.loc 1 284 5 is_stmt 1 view .LVU359
 284:Drivers/lvgl/src/others/observer/lv_observer.c ****     group_subject->size = list_len;
 1458              		.loc 1 284 25 is_stmt 0 view .LVU360
 1459 0008 037E     		ldrb	r3, [r0, #24]	@ zero_extendqisi2
 1460 000a 0522     		movs	r2, #5
 1461              	.LVL142:
 284:Drivers/lvgl/src/others/observer/lv_observer.c ****     group_subject->size = list_len;
 1462              		.loc 1 284 25 view .LVU361
 1463 000c 62F30303 		bfi	r3, r2, #0, #4
 1464 0010 0376     		strb	r3, [r0, #24]
 285:Drivers/lvgl/src/others/observer/lv_observer.c ****     lv_ll_init(&(group_subject->subs_ll), sizeof(lv_observer_t));
 1465              		.loc 1 285 5 is_stmt 1 view .LVU362
 285:Drivers/lvgl/src/others/observer/lv_observer.c ****     lv_ll_init(&(group_subject->subs_ll), sizeof(lv_observer_t));
 1466              		.loc 1 285 25 is_stmt 0 view .LVU363
 1467 0012 8369     		ldr	r3, [r0, #24]
 1468 0014 66F31B13 		bfi	r3, r6, #4, #24
 1469              	.LVL143:
 285:Drivers/lvgl/src/others/observer/lv_observer.c ****     lv_ll_init(&(group_subject->subs_ll), sizeof(lv_observer_t));
 1470              		.loc 1 285 25 view .LVU364
 1471 0018 8361     		str	r3, [r0, #24]
 286:Drivers/lvgl/src/others/observer/lv_observer.c ****     group_subject->value.pointer = list;
 1472              		.loc 1 286 5 is_stmt 1 view .LVU365
 1473 001a 1421     		movs	r1, #20
 1474              	.LVL144:
 286:Drivers/lvgl/src/others/observer/lv_observer.c ****     group_subject->value.pointer = list;
 1475              		.loc 1 286 5 is_stmt 0 view .LVU366
 1476 001c FFF7FEFF 		bl	lv_ll_init
 1477              	.LVL145:
 287:Drivers/lvgl/src/others/observer/lv_observer.c **** 
 1478              		.loc 1 287 5 is_stmt 1 view .LVU367
 287:Drivers/lvgl/src/others/observer/lv_observer.c **** 
 1479              		.loc 1 287 34 is_stmt 0 view .LVU368
 1480 0020 EF60     		str	r7, [r5, #12]
 290:Drivers/lvgl/src/others/observer/lv_observer.c ****     for(i = 0; i < list_len; i++) {
 1481              		.loc 1 290 5 is_stmt 1 view .LVU369
ARM GAS  /tmp/cc972Q0K.s 			page 48


 291:Drivers/lvgl/src/others/observer/lv_observer.c ****         /* If a subject in `list[]` changes, notify `group_subject`. */
 1482              		.loc 1 291 5 view .LVU370
 1483              	.LVL146:
 291:Drivers/lvgl/src/others/observer/lv_observer.c ****         /* If a subject in `list[]` changes, notify `group_subject`. */
 1484              		.loc 1 291 11 is_stmt 0 view .LVU371
 1485 0022 0024     		movs	r4, #0
 291:Drivers/lvgl/src/others/observer/lv_observer.c ****         /* If a subject in `list[]` changes, notify `group_subject`. */
 1486              		.loc 1 291 5 view .LVU372
 1487 0024 06E0     		b	.L95
 1488              	.LVL147:
 1489              	.L96:
 293:Drivers/lvgl/src/others/observer/lv_observer.c ****     }
 1490              		.loc 1 293 9 is_stmt 1 view .LVU373
 1491 0026 2A46     		mov	r2, r5
 1492 0028 0449     		ldr	r1, .L98
 1493 002a 57F82400 		ldr	r0, [r7, r4, lsl #2]
 1494 002e FFF7FEFF 		bl	lv_subject_add_observer
 1495              	.LVL148:
 291:Drivers/lvgl/src/others/observer/lv_observer.c ****         /* If a subject in `list[]` changes, notify `group_subject`. */
 1496              		.loc 1 291 31 discriminator 3 view .LVU374
 1497 0032 0134     		adds	r4, r4, #1
 1498              	.LVL149:
 1499              	.L95:
 291:Drivers/lvgl/src/others/observer/lv_observer.c ****         /* If a subject in `list[]` changes, notify `group_subject`. */
 1500              		.loc 1 291 18 discriminator 1 view .LVU375
 1501 0034 B442     		cmp	r4, r6
 1502 0036 F6D3     		bcc	.L96
 295:Drivers/lvgl/src/others/observer/lv_observer.c **** 
 1503              		.loc 1 295 1 is_stmt 0 view .LVU376
 1504 0038 F8BD     		pop	{r3, r4, r5, r6, r7, pc}
 1505              	.LVL150:
 1506              	.L99:
 295:Drivers/lvgl/src/others/observer/lv_observer.c **** 
 1507              		.loc 1 295 1 view .LVU377
 1508 003a 00BF     		.align	2
 1509              	.L98:
 1510 003c 00000000 		.word	group_notify_cb
 1511              		.cfi_endproc
 1512              	.LFE195:
 1514              		.section	.text.bind_to_bitfield,"ax",%progbits
 1515              		.align	1
 1516              		.syntax unified
 1517              		.thumb
 1518              		.thumb_func
 1520              	bind_to_bitfield:
 1521              	.LVL151:
 1522              	.LFB227:
 692:Drivers/lvgl/src/others/observer/lv_observer.c ****     LV_ASSERT_NULL(subject);
 1523              		.loc 1 692 1 is_stmt 1 view -0
 1524              		.cfi_startproc
 1525              		@ args = 12, pretend = 0, frame = 0
 1526              		@ frame_needed = 0, uses_anonymous_args = 0
 693:Drivers/lvgl/src/others/observer/lv_observer.c ****     LV_ASSERT_NULL(obj);
 1527              		.loc 1 693 5 view .LVU379
 693:Drivers/lvgl/src/others/observer/lv_observer.c ****     LV_ASSERT_NULL(obj);
 1528              		.loc 1 693 5 view .LVU380
 1529 0000 40B3     		cbz	r0, .L102
ARM GAS  /tmp/cc972Q0K.s 			page 49


 692:Drivers/lvgl/src/others/observer/lv_observer.c ****     LV_ASSERT_NULL(subject);
 1530              		.loc 1 692 1 is_stmt 0 view .LVU381
 1531 0002 F8B5     		push	{r3, r4, r5, r6, r7, lr}
 1532              	.LCFI26:
 1533              		.cfi_def_cfa_offset 24
 1534              		.cfi_offset 3, -24
 1535              		.cfi_offset 4, -20
 1536              		.cfi_offset 5, -16
 1537              		.cfi_offset 6, -12
 1538              		.cfi_offset 7, -8
 1539              		.cfi_offset 14, -4
 1540 0004 0E46     		mov	r6, r1
 1541 0006 1546     		mov	r5, r2
 1542 0008 1C46     		mov	r4, r3
 1543 000a 0746     		mov	r7, r0
 693:Drivers/lvgl/src/others/observer/lv_observer.c ****     LV_ASSERT_NULL(obj);
 1544              		.loc 1 693 5 is_stmt 1 discriminator 2 view .LVU382
 693:Drivers/lvgl/src/others/observer/lv_observer.c ****     LV_ASSERT_NULL(obj);
 1545              		.loc 1 693 28 discriminator 2 view .LVU383
 694:Drivers/lvgl/src/others/observer/lv_observer.c **** 
 1546              		.loc 1 694 5 view .LVU384
 694:Drivers/lvgl/src/others/observer/lv_observer.c **** 
 1547              		.loc 1 694 5 view .LVU385
 1548 000c 19B3     		cbz	r1, .L104
 694:Drivers/lvgl/src/others/observer/lv_observer.c **** 
 1549              		.loc 1 694 5 discriminator 2 view .LVU386
 694:Drivers/lvgl/src/others/observer/lv_observer.c **** 
 1550              		.loc 1 694 24 discriminator 2 view .LVU387
 696:Drivers/lvgl/src/others/observer/lv_observer.c ****         LV_LOG_WARN("Incompatible subject type: %d", subject->type);
 1551              		.loc 1 696 5 view .LVU388
 696:Drivers/lvgl/src/others/observer/lv_observer.c ****         LV_LOG_WARN("Incompatible subject type: %d", subject->type);
 1552              		.loc 1 696 22 is_stmt 0 view .LVU389
 1553 000e 037E     		ldrb	r3, [r0, #24]	@ zero_extendqisi2
 1554              	.LVL152:
 696:Drivers/lvgl/src/others/observer/lv_observer.c ****         LV_LOG_WARN("Incompatible subject type: %d", subject->type);
 1555              		.loc 1 696 22 view .LVU390
 1556 0010 03F00F03 		and	r3, r3, #15
 696:Drivers/lvgl/src/others/observer/lv_observer.c ****         LV_LOG_WARN("Incompatible subject type: %d", subject->type);
 1557              		.loc 1 696 7 view .LVU391
 1558 0014 022B     		cmp	r3, #2
 1559 0016 1FD1     		bne	.L106
 701:Drivers/lvgl/src/others/observer/lv_observer.c ****     if(p == NULL) {
 1560              		.loc 1 701 5 is_stmt 1 view .LVU392
 701:Drivers/lvgl/src/others/observer/lv_observer.c ****     if(p == NULL) {
 1561              		.loc 1 701 27 is_stmt 0 view .LVU393
 1562 0018 0C20     		movs	r0, #12
 1563              	.LVL153:
 701:Drivers/lvgl/src/others/observer/lv_observer.c ****     if(p == NULL) {
 1564              		.loc 1 701 27 view .LVU394
 1565 001a FFF7FEFF 		bl	lv_malloc
 1566              	.LVL154:
 702:Drivers/lvgl/src/others/observer/lv_observer.c ****         LV_LOG_WARN("Out of memory");
 1567              		.loc 1 702 5 is_stmt 1 view .LVU395
 702:Drivers/lvgl/src/others/observer/lv_observer.c ****         LV_LOG_WARN("Out of memory");
 1568              		.loc 1 702 7 is_stmt 0 view .LVU396
 1569 001e C0B1     		cbz	r0, .L100
 707:Drivers/lvgl/src/others/observer/lv_observer.c ****     p->value.num = ref_value;
ARM GAS  /tmp/cc972Q0K.s 			page 50


 1570              		.loc 1 707 5 is_stmt 1 view .LVU397
 707:Drivers/lvgl/src/others/observer/lv_observer.c ****     p->value.num = ref_value;
 1571              		.loc 1 707 13 is_stmt 0 view .LVU398
 1572 0020 0460     		str	r4, [r0]
 708:Drivers/lvgl/src/others/observer/lv_observer.c ****     p->inv = inv;
 1573              		.loc 1 708 5 is_stmt 1 view .LVU399
 708:Drivers/lvgl/src/others/observer/lv_observer.c ****     p->inv = inv;
 1574              		.loc 1 708 18 is_stmt 0 view .LVU400
 1575 0022 069B     		ldr	r3, [sp, #24]
 1576 0024 4360     		str	r3, [r0, #4]
 709:Drivers/lvgl/src/others/observer/lv_observer.c ****     p->cond = cond;
 1577              		.loc 1 709 5 is_stmt 1 view .LVU401
 709:Drivers/lvgl/src/others/observer/lv_observer.c ****     p->cond = cond;
 1578              		.loc 1 709 12 is_stmt 0 view .LVU402
 1579 0026 037A     		ldrb	r3, [r0, #8]	@ zero_extendqisi2
 1580 0028 9DF81C20 		ldrb	r2, [sp, #28]	@ zero_extendqisi2
 1581 002c 62F30003 		bfi	r3, r2, #0, #1
 1582 0030 0372     		strb	r3, [r0, #8]
 710:Drivers/lvgl/src/others/observer/lv_observer.c **** 
 1583              		.loc 1 710 5 is_stmt 1 view .LVU403
 710:Drivers/lvgl/src/others/observer/lv_observer.c **** 
 1584              		.loc 1 710 13 is_stmt 0 view .LVU404
 1585 0032 DBB2     		uxtb	r3, r3
 1586 0034 9DF82020 		ldrb	r2, [sp, #32]	@ zero_extendqisi2
 1587 0038 62F34303 		bfi	r3, r2, #1, #3
 1588 003c 0372     		strb	r3, [r0, #8]
 712:Drivers/lvgl/src/others/observer/lv_observer.c ****     observable->auto_free_user_data = 1;
 1589              		.loc 1 712 5 is_stmt 1 view .LVU405
 712:Drivers/lvgl/src/others/observer/lv_observer.c ****     observable->auto_free_user_data = 1;
 1590              		.loc 1 712 34 is_stmt 0 view .LVU406
 1591 003e 0346     		mov	r3, r0
 1592 0040 3246     		mov	r2, r6
 1593 0042 2946     		mov	r1, r5
 1594 0044 3846     		mov	r0, r7
 1595              	.LVL155:
 712:Drivers/lvgl/src/others/observer/lv_observer.c ****     observable->auto_free_user_data = 1;
 1596              		.loc 1 712 34 view .LVU407
 1597 0046 FFF7FEFF 		bl	lv_subject_add_observer_obj
 1598              	.LVL156:
 713:Drivers/lvgl/src/others/observer/lv_observer.c ****     return observable;
 1599              		.loc 1 713 5 is_stmt 1 view .LVU408
 713:Drivers/lvgl/src/others/observer/lv_observer.c ****     return observable;
 1600              		.loc 1 713 37 is_stmt 0 view .LVU409
 1601 004a 037C     		ldrb	r3, [r0, #16]	@ zero_extendqisi2
 1602 004c 43F00103 		orr	r3, r3, #1
 1603 0050 0374     		strb	r3, [r0, #16]
 714:Drivers/lvgl/src/others/observer/lv_observer.c **** }
 1604              		.loc 1 714 5 is_stmt 1 view .LVU410
 1605              	.LVL157:
 1606              	.L100:
 715:Drivers/lvgl/src/others/observer/lv_observer.c **** 
 1607              		.loc 1 715 1 is_stmt 0 view .LVU411
 1608 0052 F8BD     		pop	{r3, r4, r5, r6, r7, pc}
 1609              	.LVL158:
 1610              	.L102:
 1611              	.LCFI27:
 1612              		.cfi_def_cfa_offset 0
ARM GAS  /tmp/cc972Q0K.s 			page 51


 1613              		.cfi_restore 3
 1614              		.cfi_restore 4
 1615              		.cfi_restore 5
 1616              		.cfi_restore 6
 1617              		.cfi_restore 7
 1618              		.cfi_restore 14
 693:Drivers/lvgl/src/others/observer/lv_observer.c ****     LV_ASSERT_NULL(obj);
 1619              		.loc 1 693 5 is_stmt 1 discriminator 1 view .LVU412
 693:Drivers/lvgl/src/others/observer/lv_observer.c ****     LV_ASSERT_NULL(obj);
 1620              		.loc 1 693 5 discriminator 1 view .LVU413
 693:Drivers/lvgl/src/others/observer/lv_observer.c ****     LV_ASSERT_NULL(obj);
 1621              		.loc 1 693 5 discriminator 1 view .LVU414
 693:Drivers/lvgl/src/others/observer/lv_observer.c ****     LV_ASSERT_NULL(obj);
 1622              		.loc 1 693 5 discriminator 1 view .LVU415
 693:Drivers/lvgl/src/others/observer/lv_observer.c ****     LV_ASSERT_NULL(obj);
 1623              		.loc 1 693 5 discriminator 1 view .LVU416
 1624 0054 FEE7     		b	.L102
 1625              	.L104:
 1626              	.LCFI28:
 1627              		.cfi_def_cfa_offset 24
 1628              		.cfi_offset 3, -24
 1629              		.cfi_offset 4, -20
 1630              		.cfi_offset 5, -16
 1631              		.cfi_offset 6, -12
 1632              		.cfi_offset 7, -8
 1633              		.cfi_offset 14, -4
 694:Drivers/lvgl/src/others/observer/lv_observer.c **** 
 1634              		.loc 1 694 5 discriminator 1 view .LVU417
 694:Drivers/lvgl/src/others/observer/lv_observer.c **** 
 1635              		.loc 1 694 5 discriminator 1 view .LVU418
 694:Drivers/lvgl/src/others/observer/lv_observer.c **** 
 1636              		.loc 1 694 5 discriminator 1 view .LVU419
 694:Drivers/lvgl/src/others/observer/lv_observer.c **** 
 1637              		.loc 1 694 5 discriminator 1 view .LVU420
 694:Drivers/lvgl/src/others/observer/lv_observer.c **** 
 1638              		.loc 1 694 5 discriminator 1 view .LVU421
 1639 0056 FEE7     		b	.L104
 1640              	.LVL159:
 1641              	.L106:
 698:Drivers/lvgl/src/others/observer/lv_observer.c ****     }
 1642              		.loc 1 698 16 is_stmt 0 view .LVU422
 1643 0058 0020     		movs	r0, #0
 1644              	.LVL160:
 698:Drivers/lvgl/src/others/observer/lv_observer.c ****     }
 1645              		.loc 1 698 16 view .LVU423
 1646 005a FAE7     		b	.L100
 1647              		.cfi_endproc
 1648              	.LFE227:
 1650              		.section	.text.lv_subject_add_observer_with_target,"ax",%progbits
 1651              		.align	1
 1652              		.global	lv_subject_add_observer_with_target
 1653              		.syntax unified
 1654              		.thumb
 1655              		.thumb_func
 1657              	lv_subject_add_observer_with_target:
 1658              	.LVL161:
 1659              	.LFB200:
ARM GAS  /tmp/cc972Q0K.s 			page 52


 364:Drivers/lvgl/src/others/observer/lv_observer.c ****     LV_ASSERT_NULL(subject);
 1660              		.loc 1 364 1 is_stmt 1 view -0
 1661              		.cfi_startproc
 1662              		@ args = 0, pretend = 0, frame = 0
 1663              		@ frame_needed = 0, uses_anonymous_args = 0
 365:Drivers/lvgl/src/others/observer/lv_observer.c ****     if(subject->type == LV_SUBJECT_TYPE_INVALID) {
 1664              		.loc 1 365 5 view .LVU425
 365:Drivers/lvgl/src/others/observer/lv_observer.c ****     if(subject->type == LV_SUBJECT_TYPE_INVALID) {
 1665              		.loc 1 365 5 view .LVU426
 1666 0000 E8B1     		cbz	r0, .L111
 364:Drivers/lvgl/src/others/observer/lv_observer.c ****     LV_ASSERT_NULL(subject);
 1667              		.loc 1 364 1 is_stmt 0 view .LVU427
 1668 0002 2DE9F041 		push	{r4, r5, r6, r7, r8, lr}
 1669              	.LCFI29:
 1670              		.cfi_def_cfa_offset 24
 1671              		.cfi_offset 4, -24
 1672              		.cfi_offset 5, -20
 1673              		.cfi_offset 6, -16
 1674              		.cfi_offset 7, -12
 1675              		.cfi_offset 8, -8
 1676              		.cfi_offset 14, -4
 1677 0006 8846     		mov	r8, r1
 1678 0008 1746     		mov	r7, r2
 1679 000a 1C46     		mov	r4, r3
 1680 000c 0546     		mov	r5, r0
 365:Drivers/lvgl/src/others/observer/lv_observer.c ****     if(subject->type == LV_SUBJECT_TYPE_INVALID) {
 1681              		.loc 1 365 5 is_stmt 1 discriminator 2 view .LVU428
 365:Drivers/lvgl/src/others/observer/lv_observer.c ****     if(subject->type == LV_SUBJECT_TYPE_INVALID) {
 1682              		.loc 1 365 28 discriminator 2 view .LVU429
 366:Drivers/lvgl/src/others/observer/lv_observer.c ****         LV_LOG_WARN("Subject not initialized yet");
 1683              		.loc 1 366 5 view .LVU430
 366:Drivers/lvgl/src/others/observer/lv_observer.c ****         LV_LOG_WARN("Subject not initialized yet");
 1684              		.loc 1 366 22 is_stmt 0 view .LVU431
 1685 000e 037E     		ldrb	r3, [r0, #24]	@ zero_extendqisi2
 1686              	.LVL162:
 366:Drivers/lvgl/src/others/observer/lv_observer.c ****         LV_LOG_WARN("Subject not initialized yet");
 1687              		.loc 1 366 7 view .LVU432
 1688 0010 13F00F0F 		tst	r3, #15
 1689 0014 15D0     		beq	.L115
 370:Drivers/lvgl/src/others/observer/lv_observer.c ****     LV_ASSERT_MALLOC(observer);
 1690              		.loc 1 370 5 is_stmt 1 view .LVU433
 370:Drivers/lvgl/src/others/observer/lv_observer.c ****     LV_ASSERT_MALLOC(observer);
 1691              		.loc 1 370 32 is_stmt 0 view .LVU434
 1692 0016 FFF7FEFF 		bl	lv_ll_ins_tail
 1693              	.LVL163:
 371:Drivers/lvgl/src/others/observer/lv_observer.c ****     if(observer == NULL) return NULL;
 1694              		.loc 1 371 5 is_stmt 1 view .LVU435
 371:Drivers/lvgl/src/others/observer/lv_observer.c ****     if(observer == NULL) return NULL;
 1695              		.loc 1 371 5 view .LVU436
 1696 001a 0646     		mov	r6, r0
 1697 001c 80B1     		cbz	r0, .L114
 371:Drivers/lvgl/src/others/observer/lv_observer.c ****     if(observer == NULL) return NULL;
 1698              		.loc 1 371 5 discriminator 2 view .LVU437
 371:Drivers/lvgl/src/others/observer/lv_observer.c ****     if(observer == NULL) return NULL;
 1699              		.loc 1 371 31 discriminator 2 view .LVU438
 372:Drivers/lvgl/src/others/observer/lv_observer.c **** 
 1700              		.loc 1 372 5 view .LVU439
ARM GAS  /tmp/cc972Q0K.s 			page 53


 374:Drivers/lvgl/src/others/observer/lv_observer.c **** 
 1701              		.loc 1 374 5 view .LVU440
 1702              	.LVL164:
 1703              	.LBB24:
 1704              	.LBI24:
  73:Drivers/lvgl/src/others/observer/../../core/../misc/../font/../draw/../misc/../stdlib/lv_string.h **** {
 1705              		.loc 2 73 20 view .LVU441
 1706              	.LBB25:
 1707              		.loc 2 75 5 view .LVU442
 1708 001e 1422     		movs	r2, #20
 1709 0020 0021     		movs	r1, #0
 1710 0022 FFF7FEFF 		bl	lv_memset
 1711              	.LVL165:
 1712              		.loc 2 75 5 is_stmt 0 view .LVU443
 1713              	.LBE25:
 1714              	.LBE24:
 376:Drivers/lvgl/src/others/observer/lv_observer.c ****     observer->cb = cb;
 1715              		.loc 1 376 5 is_stmt 1 view .LVU444
 376:Drivers/lvgl/src/others/observer/lv_observer.c ****     observer->cb = cb;
 1716              		.loc 1 376 23 is_stmt 0 view .LVU445
 1717 0026 3560     		str	r5, [r6]
 377:Drivers/lvgl/src/others/observer/lv_observer.c ****     observer->user_data = user_data;
 1718              		.loc 1 377 5 is_stmt 1 view .LVU446
 377:Drivers/lvgl/src/others/observer/lv_observer.c ****     observer->user_data = user_data;
 1719              		.loc 1 377 18 is_stmt 0 view .LVU447
 1720 0028 C6F80480 		str	r8, [r6, #4]
 378:Drivers/lvgl/src/others/observer/lv_observer.c ****     observer->target = target;
 1721              		.loc 1 378 5 is_stmt 1 view .LVU448
 378:Drivers/lvgl/src/others/observer/lv_observer.c ****     observer->target = target;
 1722              		.loc 1 378 25 is_stmt 0 view .LVU449
 1723 002c F460     		str	r4, [r6, #12]
 379:Drivers/lvgl/src/others/observer/lv_observer.c **** 
 1724              		.loc 1 379 5 is_stmt 1 view .LVU450
 379:Drivers/lvgl/src/others/observer/lv_observer.c **** 
 1725              		.loc 1 379 22 is_stmt 0 view .LVU451
 1726 002e B760     		str	r7, [r6, #8]
 382:Drivers/lvgl/src/others/observer/lv_observer.c **** 
 1727              		.loc 1 382 5 is_stmt 1 view .LVU452
 382:Drivers/lvgl/src/others/observer/lv_observer.c **** 
 1728              		.loc 1 382 7 is_stmt 0 view .LVU453
 1729 0030 B8F1000F 		cmp	r8, #0
 1730 0034 06D0     		beq	.L109
 382:Drivers/lvgl/src/others/observer/lv_observer.c **** 
 1731              		.loc 1 382 22 is_stmt 1 discriminator 1 view .LVU454
 1732 0036 2946     		mov	r1, r5
 1733 0038 3046     		mov	r0, r6
 1734 003a C047     		blx	r8
 1735              	.LVL166:
 1736 003c 02E0     		b	.L109
 1737              	.LVL167:
 1738              	.L111:
 1739              	.LCFI30:
 1740              		.cfi_def_cfa_offset 0
 1741              		.cfi_restore 4
 1742              		.cfi_restore 5
 1743              		.cfi_restore 6
 1744              		.cfi_restore 7
ARM GAS  /tmp/cc972Q0K.s 			page 54


 1745              		.cfi_restore 8
 1746              		.cfi_restore 14
 365:Drivers/lvgl/src/others/observer/lv_observer.c ****     if(subject->type == LV_SUBJECT_TYPE_INVALID) {
 1747              		.loc 1 365 5 discriminator 1 view .LVU455
 365:Drivers/lvgl/src/others/observer/lv_observer.c ****     if(subject->type == LV_SUBJECT_TYPE_INVALID) {
 1748              		.loc 1 365 5 discriminator 1 view .LVU456
 365:Drivers/lvgl/src/others/observer/lv_observer.c ****     if(subject->type == LV_SUBJECT_TYPE_INVALID) {
 1749              		.loc 1 365 5 discriminator 1 view .LVU457
 365:Drivers/lvgl/src/others/observer/lv_observer.c ****     if(subject->type == LV_SUBJECT_TYPE_INVALID) {
 1750              		.loc 1 365 5 discriminator 1 view .LVU458
 365:Drivers/lvgl/src/others/observer/lv_observer.c ****     if(subject->type == LV_SUBJECT_TYPE_INVALID) {
 1751              		.loc 1 365 5 discriminator 1 view .LVU459
 1752 003e FEE7     		b	.L111
 1753              	.LVL168:
 1754              	.L114:
 1755              	.LCFI31:
 1756              		.cfi_def_cfa_offset 24
 1757              		.cfi_offset 4, -24
 1758              		.cfi_offset 5, -20
 1759              		.cfi_offset 6, -16
 1760              		.cfi_offset 7, -12
 1761              		.cfi_offset 8, -8
 1762              		.cfi_offset 14, -4
 371:Drivers/lvgl/src/others/observer/lv_observer.c ****     if(observer == NULL) return NULL;
 1763              		.loc 1 371 5 discriminator 1 view .LVU460
 371:Drivers/lvgl/src/others/observer/lv_observer.c ****     if(observer == NULL) return NULL;
 1764              		.loc 1 371 5 discriminator 1 view .LVU461
 371:Drivers/lvgl/src/others/observer/lv_observer.c ****     if(observer == NULL) return NULL;
 1765              		.loc 1 371 5 discriminator 1 view .LVU462
 371:Drivers/lvgl/src/others/observer/lv_observer.c ****     if(observer == NULL) return NULL;
 1766              		.loc 1 371 5 discriminator 1 view .LVU463
 371:Drivers/lvgl/src/others/observer/lv_observer.c ****     if(observer == NULL) return NULL;
 1767              		.loc 1 371 5 discriminator 1 view .LVU464
 1768 0040 FEE7     		b	.L114
 1769              	.LVL169:
 1770              	.L115:
 368:Drivers/lvgl/src/others/observer/lv_observer.c ****     }
 1771              		.loc 1 368 16 is_stmt 0 view .LVU465
 1772 0042 0026     		movs	r6, #0
 1773              	.LVL170:
 1774              	.L109:
 385:Drivers/lvgl/src/others/observer/lv_observer.c **** 
 1775              		.loc 1 385 1 view .LVU466
 1776 0044 3046     		mov	r0, r6
 1777 0046 BDE8F081 		pop	{r4, r5, r6, r7, r8, pc}
 385:Drivers/lvgl/src/others/observer/lv_observer.c **** 
 1778              		.loc 1 385 1 view .LVU467
 1779              		.cfi_endproc
 1780              	.LFE200:
 1782              		.section	.text.lv_observer_remove,"ax",%progbits
 1783              		.align	1
 1784              		.global	lv_observer_remove
 1785              		.syntax unified
 1786              		.thumb
 1787              		.thumb_func
 1789              	lv_observer_remove:
 1790              	.LVL171:
ARM GAS  /tmp/cc972Q0K.s 			page 55


 1791              	.LFB201:
 389:Drivers/lvgl/src/others/observer/lv_observer.c ****     LV_ASSERT_NULL(observer);
 1792              		.loc 1 389 1 is_stmt 1 view -0
 1793              		.cfi_startproc
 1794              		@ args = 0, pretend = 0, frame = 0
 1795              		@ frame_needed = 0, uses_anonymous_args = 0
 390:Drivers/lvgl/src/others/observer/lv_observer.c **** 
 1796              		.loc 1 390 5 view .LVU469
 390:Drivers/lvgl/src/others/observer/lv_observer.c **** 
 1797              		.loc 1 390 5 view .LVU470
 1798 0000 08B3     		cbz	r0, .L120
 389:Drivers/lvgl/src/others/observer/lv_observer.c ****     LV_ASSERT_NULL(observer);
 1799              		.loc 1 389 1 is_stmt 0 view .LVU471
 1800 0002 10B5     		push	{r4, lr}
 1801              	.LCFI32:
 1802              		.cfi_def_cfa_offset 8
 1803              		.cfi_offset 4, -8
 1804              		.cfi_offset 14, -4
 1805 0004 0446     		mov	r4, r0
 390:Drivers/lvgl/src/others/observer/lv_observer.c **** 
 1806              		.loc 1 390 5 is_stmt 1 discriminator 2 view .LVU472
 390:Drivers/lvgl/src/others/observer/lv_observer.c **** 
 1807              		.loc 1 390 29 discriminator 2 view .LVU473
 392:Drivers/lvgl/src/others/observer/lv_observer.c ****         lv_obj_remove_event_cb_with_user_data(observer->target, unsubscribe_on_delete_cb, observer)
 1808              		.loc 1 392 5 view .LVU474
 392:Drivers/lvgl/src/others/observer/lv_observer.c ****         lv_obj_remove_event_cb_with_user_data(observer->target, unsubscribe_on_delete_cb, observer)
 1809              		.loc 1 392 8 is_stmt 0 view .LVU475
 1810 0006 037C     		ldrb	r3, [r0, #16]	@ zero_extendqisi2
 392:Drivers/lvgl/src/others/observer/lv_observer.c ****         lv_obj_remove_event_cb_with_user_data(observer->target, unsubscribe_on_delete_cb, observer)
 1811              		.loc 1 392 7 view .LVU476
 1812 0008 13F0040F 		tst	r3, #4
 1813 000c 0AD0     		beq	.L121
 392:Drivers/lvgl/src/others/observer/lv_observer.c ****         lv_obj_remove_event_cb_with_user_data(observer->target, unsubscribe_on_delete_cb, observer)
 1814              		.loc 1 392 37 discriminator 1 view .LVU477
 1815 000e 8068     		ldr	r0, [r0, #8]
 1816              	.LVL172:
 392:Drivers/lvgl/src/others/observer/lv_observer.c ****         lv_obj_remove_event_cb_with_user_data(observer->target, unsubscribe_on_delete_cb, observer)
 1817              		.loc 1 392 26 discriminator 1 view .LVU478
 1818 0010 40B1     		cbz	r0, .L121
 393:Drivers/lvgl/src/others/observer/lv_observer.c ****         lv_obj_remove_event_cb_with_user_data(observer->target, NULL, observer->subject);
 1819              		.loc 1 393 9 is_stmt 1 view .LVU479
 1820 0012 2246     		mov	r2, r4
 1821 0014 0E49     		ldr	r1, .L126
 1822 0016 FFF7FEFF 		bl	lv_obj_remove_event_cb_with_user_data
 1823              	.LVL173:
 394:Drivers/lvgl/src/others/observer/lv_observer.c ****     }
 1824              		.loc 1 394 9 view .LVU480
 1825 001a 2268     		ldr	r2, [r4]
 1826 001c 0021     		movs	r1, #0
 1827 001e A068     		ldr	r0, [r4, #8]
 1828 0020 FFF7FEFF 		bl	lv_obj_remove_event_cb_with_user_data
 1829              	.LVL174:
 1830              	.L121:
 397:Drivers/lvgl/src/others/observer/lv_observer.c **** 
 1831              		.loc 1 397 5 view .LVU481
 397:Drivers/lvgl/src/others/observer/lv_observer.c **** 
 1832              		.loc 1 397 13 is_stmt 0 view .LVU482
ARM GAS  /tmp/cc972Q0K.s 			page 56


 1833 0024 2268     		ldr	r2, [r4]
 397:Drivers/lvgl/src/others/observer/lv_observer.c **** 
 1834              		.loc 1 397 45 view .LVU483
 1835 0026 D37E     		ldrb	r3, [r2, #27]	@ zero_extendqisi2
 1836 0028 43F01003 		orr	r3, r3, #16
 1837 002c D376     		strb	r3, [r2, #27]
 399:Drivers/lvgl/src/others/observer/lv_observer.c **** 
 1838              		.loc 1 399 5 is_stmt 1 view .LVU484
 1839 002e 2146     		mov	r1, r4
 1840 0030 2068     		ldr	r0, [r4]
 1841 0032 FFF7FEFF 		bl	lv_ll_remove
 1842              	.LVL175:
 401:Drivers/lvgl/src/others/observer/lv_observer.c ****         lv_free(observer->user_data);
 1843              		.loc 1 401 5 view .LVU485
 401:Drivers/lvgl/src/others/observer/lv_observer.c ****         lv_free(observer->user_data);
 1844              		.loc 1 401 8 is_stmt 0 view .LVU486
 1845 0036 237C     		ldrb	r3, [r4, #16]	@ zero_extendqisi2
 401:Drivers/lvgl/src/others/observer/lv_observer.c ****         lv_free(observer->user_data);
 1846              		.loc 1 401 7 view .LVU487
 1847 0038 13F0010F 		tst	r3, #1
 1848 003c 04D1     		bne	.L125
 1849              	.L122:
 404:Drivers/lvgl/src/others/observer/lv_observer.c **** }
 1850              		.loc 1 404 5 is_stmt 1 view .LVU488
 1851 003e 2046     		mov	r0, r4
 1852 0040 FFF7FEFF 		bl	lv_free
 1853              	.LVL176:
 405:Drivers/lvgl/src/others/observer/lv_observer.c **** 
 1854              		.loc 1 405 1 is_stmt 0 view .LVU489
 1855 0044 10BD     		pop	{r4, pc}
 1856              	.LVL177:
 1857              	.L120:
 1858              	.LCFI33:
 1859              		.cfi_def_cfa_offset 0
 1860              		.cfi_restore 4
 1861              		.cfi_restore 14
 390:Drivers/lvgl/src/others/observer/lv_observer.c **** 
 1862              		.loc 1 390 5 is_stmt 1 discriminator 1 view .LVU490
 390:Drivers/lvgl/src/others/observer/lv_observer.c **** 
 1863              		.loc 1 390 5 discriminator 1 view .LVU491
 390:Drivers/lvgl/src/others/observer/lv_observer.c **** 
 1864              		.loc 1 390 5 discriminator 1 view .LVU492
 390:Drivers/lvgl/src/others/observer/lv_observer.c **** 
 1865              		.loc 1 390 5 discriminator 1 view .LVU493
 390:Drivers/lvgl/src/others/observer/lv_observer.c **** 
 1866              		.loc 1 390 5 discriminator 1 view .LVU494
 1867 0046 FEE7     		b	.L120
 1868              	.LVL178:
 1869              	.L125:
 1870              	.LCFI34:
 1871              		.cfi_def_cfa_offset 8
 1872              		.cfi_offset 4, -8
 1873              		.cfi_offset 14, -4
 402:Drivers/lvgl/src/others/observer/lv_observer.c ****     }
 1874              		.loc 1 402 9 view .LVU495
 1875 0048 E068     		ldr	r0, [r4, #12]
 1876 004a FFF7FEFF 		bl	lv_free
ARM GAS  /tmp/cc972Q0K.s 			page 57


 1877              	.LVL179:
 1878 004e F6E7     		b	.L122
 1879              	.L127:
 1880              		.align	2
 1881              	.L126:
 1882 0050 00000000 		.word	unsubscribe_on_delete_cb
 1883              		.cfi_endproc
 1884              	.LFE201:
 1886              		.section	.text.lv_subject_deinit,"ax",%progbits
 1887              		.align	1
 1888              		.global	lv_subject_deinit
 1889              		.syntax unified
 1890              		.thumb
 1891              		.thumb_func
 1893              	lv_subject_deinit:
 1894              	.LVL180:
 1895              	.LFB196:
 298:Drivers/lvgl/src/others/observer/lv_observer.c ****     lv_observer_t * observer = lv_ll_get_head(&subject->subs_ll);
 1896              		.loc 1 298 1 view -0
 1897              		.cfi_startproc
 1898              		@ args = 0, pretend = 0, frame = 0
 1899              		@ frame_needed = 0, uses_anonymous_args = 0
 298:Drivers/lvgl/src/others/observer/lv_observer.c ****     lv_observer_t * observer = lv_ll_get_head(&subject->subs_ll);
 1900              		.loc 1 298 1 is_stmt 0 view .LVU497
 1901 0000 70B5     		push	{r4, r5, r6, lr}
 1902              	.LCFI35:
 1903              		.cfi_def_cfa_offset 16
 1904              		.cfi_offset 4, -16
 1905              		.cfi_offset 5, -12
 1906              		.cfi_offset 6, -8
 1907              		.cfi_offset 14, -4
 1908 0002 0646     		mov	r6, r0
 299:Drivers/lvgl/src/others/observer/lv_observer.c ****     while(observer) {
 1909              		.loc 1 299 5 is_stmt 1 view .LVU498
 299:Drivers/lvgl/src/others/observer/lv_observer.c ****     while(observer) {
 1910              		.loc 1 299 32 is_stmt 0 view .LVU499
 1911 0004 FFF7FEFF 		bl	lv_ll_get_head
 1912              	.LVL181:
 299:Drivers/lvgl/src/others/observer/lv_observer.c ****     while(observer) {
 1913              		.loc 1 299 32 view .LVU500
 1914 0008 0446     		mov	r4, r0
 1915              	.LVL182:
 300:Drivers/lvgl/src/others/observer/lv_observer.c ****         lv_observer_t * observer_next = lv_ll_get_next(&subject->subs_ll, observer);
 1916              		.loc 1 300 5 is_stmt 1 view .LVU501
 300:Drivers/lvgl/src/others/observer/lv_observer.c ****         lv_observer_t * observer_next = lv_ll_get_next(&subject->subs_ll, observer);
 1917              		.loc 1 300 10 is_stmt 0 view .LVU502
 1918 000a 08E0     		b	.L129
 1919              	.LVL183:
 1920              	.L130:
 1921              	.LBB26:
 301:Drivers/lvgl/src/others/observer/lv_observer.c **** 
 1922              		.loc 1 301 9 is_stmt 1 view .LVU503
 301:Drivers/lvgl/src/others/observer/lv_observer.c **** 
 1923              		.loc 1 301 41 is_stmt 0 view .LVU504
 1924 000c 2146     		mov	r1, r4
 1925 000e 3046     		mov	r0, r6
 1926 0010 FFF7FEFF 		bl	lv_ll_get_next
ARM GAS  /tmp/cc972Q0K.s 			page 58


 1927              	.LVL184:
 1928 0014 0546     		mov	r5, r0
 1929              	.LVL185:
 303:Drivers/lvgl/src/others/observer/lv_observer.c ****         observer = observer_next;
 1930              		.loc 1 303 9 is_stmt 1 view .LVU505
 1931 0016 2046     		mov	r0, r4
 1932              	.LVL186:
 303:Drivers/lvgl/src/others/observer/lv_observer.c ****         observer = observer_next;
 1933              		.loc 1 303 9 is_stmt 0 view .LVU506
 1934 0018 FFF7FEFF 		bl	lv_observer_remove
 1935              	.LVL187:
 304:Drivers/lvgl/src/others/observer/lv_observer.c ****     }
 1936              		.loc 1 304 9 is_stmt 1 view .LVU507
 304:Drivers/lvgl/src/others/observer/lv_observer.c ****     }
 1937              		.loc 1 304 18 is_stmt 0 view .LVU508
 1938 001c 2C46     		mov	r4, r5
 1939              	.LVL188:
 1940              	.L129:
 304:Drivers/lvgl/src/others/observer/lv_observer.c ****     }
 1941              		.loc 1 304 18 view .LVU509
 1942              	.LBE26:
 300:Drivers/lvgl/src/others/observer/lv_observer.c ****         lv_observer_t * observer_next = lv_ll_get_next(&subject->subs_ll, observer);
 1943              		.loc 1 300 11 is_stmt 1 view .LVU510
 1944 001e 002C     		cmp	r4, #0
 1945 0020 F4D1     		bne	.L130
 307:Drivers/lvgl/src/others/observer/lv_observer.c **** }
 1946              		.loc 1 307 5 view .LVU511
 1947 0022 3046     		mov	r0, r6
 1948 0024 FFF7FEFF 		bl	lv_ll_clear
 1949              	.LVL189:
 308:Drivers/lvgl/src/others/observer/lv_observer.c **** 
 1950              		.loc 1 308 1 is_stmt 0 view .LVU512
 1951 0028 70BD     		pop	{r4, r5, r6, pc}
 308:Drivers/lvgl/src/others/observer/lv_observer.c **** 
 1952              		.loc 1 308 1 view .LVU513
 1953              		.cfi_endproc
 1954              	.LFE196:
 1956              		.section	.text.unsubscribe_on_delete_cb,"ax",%progbits
 1957              		.align	1
 1958              		.syntax unified
 1959              		.thumb
 1960              		.thumb_func
 1962              	unsubscribe_on_delete_cb:
 1963              	.LVL190:
 1964              	.LFB226:
 685:Drivers/lvgl/src/others/observer/lv_observer.c ****     lv_observer_t * observer = lv_event_get_user_data(e);
 1965              		.loc 1 685 1 is_stmt 1 view -0
 1966              		.cfi_startproc
 1967              		@ args = 0, pretend = 0, frame = 0
 1968              		@ frame_needed = 0, uses_anonymous_args = 0
 685:Drivers/lvgl/src/others/observer/lv_observer.c ****     lv_observer_t * observer = lv_event_get_user_data(e);
 1969              		.loc 1 685 1 is_stmt 0 view .LVU515
 1970 0000 08B5     		push	{r3, lr}
 1971              	.LCFI36:
 1972              		.cfi_def_cfa_offset 8
 1973              		.cfi_offset 3, -8
 1974              		.cfi_offset 14, -4
ARM GAS  /tmp/cc972Q0K.s 			page 59


 686:Drivers/lvgl/src/others/observer/lv_observer.c ****     lv_observer_remove(observer);
 1975              		.loc 1 686 5 is_stmt 1 view .LVU516
 686:Drivers/lvgl/src/others/observer/lv_observer.c ****     lv_observer_remove(observer);
 1976              		.loc 1 686 32 is_stmt 0 view .LVU517
 1977 0002 FFF7FEFF 		bl	lv_event_get_user_data
 1978              	.LVL191:
 687:Drivers/lvgl/src/others/observer/lv_observer.c **** }
 1979              		.loc 1 687 5 is_stmt 1 view .LVU518
 1980 0006 FFF7FEFF 		bl	lv_observer_remove
 1981              	.LVL192:
 688:Drivers/lvgl/src/others/observer/lv_observer.c **** 
 1982              		.loc 1 688 1 is_stmt 0 view .LVU519
 1983 000a 08BD     		pop	{r3, pc}
 1984              		.cfi_endproc
 1985              	.LFE226:
 1987              		.section	.text.lv_obj_remove_from_subject,"ax",%progbits
 1988              		.align	1
 1989              		.global	lv_obj_remove_from_subject
 1990              		.syntax unified
 1991              		.thumb
 1992              		.thumb_func
 1994              	lv_obj_remove_from_subject:
 1995              	.LVL193:
 1996              	.LFB202:
 408:Drivers/lvgl/src/others/observer/lv_observer.c ****     LV_ASSERT_NULL(obj);
 1997              		.loc 1 408 1 is_stmt 1 view -0
 1998              		.cfi_startproc
 1999              		@ args = 0, pretend = 0, frame = 0
 2000              		@ frame_needed = 0, uses_anonymous_args = 0
 409:Drivers/lvgl/src/others/observer/lv_observer.c ****     /*
 2001              		.loc 1 409 5 view .LVU521
 409:Drivers/lvgl/src/others/observer/lv_observer.c ****     /*
 2002              		.loc 1 409 5 view .LVU522
 2003 0000 48B1     		cbz	r0, .L136
 408:Drivers/lvgl/src/others/observer/lv_observer.c ****     LV_ASSERT_NULL(obj);
 2004              		.loc 1 408 1 is_stmt 0 view .LVU523
 2005 0002 70B5     		push	{r4, r5, r6, lr}
 2006              	.LCFI37:
 2007              		.cfi_def_cfa_offset 16
 2008              		.cfi_offset 4, -16
 2009              		.cfi_offset 5, -12
 2010              		.cfi_offset 6, -8
 2011              		.cfi_offset 14, -4
 2012 0004 0E46     		mov	r6, r1
 2013 0006 0546     		mov	r5, r0
 409:Drivers/lvgl/src/others/observer/lv_observer.c ****     /*
 2014              		.loc 1 409 5 is_stmt 1 discriminator 2 view .LVU524
 409:Drivers/lvgl/src/others/observer/lv_observer.c ****     /*
 2015              		.loc 1 409 24 discriminator 2 view .LVU525
 417:Drivers/lvgl/src/others/observer/lv_observer.c ****     int32_t event_cnt = (int32_t)(obj->spec_attr ? lv_event_get_count(&obj->spec_attr->event_list) 
 2016              		.loc 1 417 5 view .LVU526
 418:Drivers/lvgl/src/others/observer/lv_observer.c ****     for(i = event_cnt - 1; i >= 0; i--) {
 2017              		.loc 1 418 5 view .LVU527
 418:Drivers/lvgl/src/others/observer/lv_observer.c ****     for(i = event_cnt - 1; i >= 0; i--) {
 2018              		.loc 1 418 38 is_stmt 0 view .LVU528
 2019 0008 8068     		ldr	r0, [r0, #8]
 2020              	.LVL194:
ARM GAS  /tmp/cc972Q0K.s 			page 60


 418:Drivers/lvgl/src/others/observer/lv_observer.c ****     for(i = event_cnt - 1; i >= 0; i--) {
 2021              		.loc 1 418 25 view .LVU529
 2022 000a 28B1     		cbz	r0, .L142
 418:Drivers/lvgl/src/others/observer/lv_observer.c ****     for(i = event_cnt - 1; i >= 0; i--) {
 2023              		.loc 1 418 52 discriminator 1 view .LVU530
 2024 000c 0830     		adds	r0, r0, #8
 2025 000e FFF7FEFF 		bl	lv_event_get_count
 2026              	.LVL195:
 2027              	.L137:
 419:Drivers/lvgl/src/others/observer/lv_observer.c ****         lv_event_dsc_t * event_dsc = lv_obj_get_event_dsc(obj, i);
 2028              		.loc 1 419 5 is_stmt 1 view .LVU531
 419:Drivers/lvgl/src/others/observer/lv_observer.c ****         lv_event_dsc_t * event_dsc = lv_obj_get_event_dsc(obj, i);
 2029              		.loc 1 419 11 is_stmt 0 view .LVU532
 2030 0012 441E     		subs	r4, r0, #1
 2031              	.LVL196:
 419:Drivers/lvgl/src/others/observer/lv_observer.c ****         lv_event_dsc_t * event_dsc = lv_obj_get_event_dsc(obj, i);
 2032              		.loc 1 419 5 view .LVU533
 2033 0014 05E0     		b	.L138
 2034              	.LVL197:
 2035              	.L136:
 2036              	.LCFI38:
 2037              		.cfi_def_cfa_offset 0
 2038              		.cfi_restore 4
 2039              		.cfi_restore 5
 2040              		.cfi_restore 6
 2041              		.cfi_restore 14
 409:Drivers/lvgl/src/others/observer/lv_observer.c ****     /*
 2042              		.loc 1 409 5 is_stmt 1 discriminator 1 view .LVU534
 409:Drivers/lvgl/src/others/observer/lv_observer.c ****     /*
 2043              		.loc 1 409 5 discriminator 1 view .LVU535
 409:Drivers/lvgl/src/others/observer/lv_observer.c ****     /*
 2044              		.loc 1 409 5 discriminator 1 view .LVU536
 409:Drivers/lvgl/src/others/observer/lv_observer.c ****     /*
 2045              		.loc 1 409 5 discriminator 1 view .LVU537
 409:Drivers/lvgl/src/others/observer/lv_observer.c ****     /*
 2046              		.loc 1 409 5 discriminator 1 view .LVU538
 2047 0016 FEE7     		b	.L136
 2048              	.LVL198:
 2049              	.L142:
 2050              	.LCFI39:
 2051              		.cfi_def_cfa_offset 16
 2052              		.cfi_offset 4, -16
 2053              		.cfi_offset 5, -12
 2054              		.cfi_offset 6, -8
 2055              		.cfi_offset 14, -4
 418:Drivers/lvgl/src/others/observer/lv_observer.c ****     for(i = event_cnt - 1; i >= 0; i--) {
 2056              		.loc 1 418 25 is_stmt 0 discriminator 2 view .LVU539
 2057 0018 0020     		movs	r0, #0
 2058 001a FAE7     		b	.L137
 2059              	.LVL199:
 2060              	.L140:
 2061              	.LBB27:
 2062              	.LBB28:
 425:Drivers/lvgl/src/others/observer/lv_observer.c ****             }
 2063              		.loc 1 425 17 is_stmt 1 view .LVU540
 2064 001c FFF7FEFF 		bl	lv_observer_remove
 2065              	.LVL200:
ARM GAS  /tmp/cc972Q0K.s 			page 61


 2066              	.L139:
 425:Drivers/lvgl/src/others/observer/lv_observer.c ****             }
 2067              		.loc 1 425 17 is_stmt 0 view .LVU541
 2068              	.LBE28:
 2069              	.LBE27:
 419:Drivers/lvgl/src/others/observer/lv_observer.c ****         lv_event_dsc_t * event_dsc = lv_obj_get_event_dsc(obj, i);
 2070              		.loc 1 419 37 is_stmt 1 discriminator 2 view .LVU542
 2071 0020 013C     		subs	r4, r4, #1
 2072              	.LVL201:
 2073              	.L138:
 419:Drivers/lvgl/src/others/observer/lv_observer.c ****         lv_event_dsc_t * event_dsc = lv_obj_get_event_dsc(obj, i);
 2074              		.loc 1 419 30 discriminator 1 view .LVU543
 2075 0022 002C     		cmp	r4, #0
 2076 0024 0EDB     		blt	.L145
 2077              	.LBB30:
 420:Drivers/lvgl/src/others/observer/lv_observer.c ****         if(event_dsc->cb == unsubscribe_on_delete_cb) {
 2078              		.loc 1 420 9 view .LVU544
 420:Drivers/lvgl/src/others/observer/lv_observer.c ****         if(event_dsc->cb == unsubscribe_on_delete_cb) {
 2079              		.loc 1 420 38 is_stmt 0 view .LVU545
 2080 0026 2146     		mov	r1, r4
 2081 0028 2846     		mov	r0, r5
 2082 002a FFF7FEFF 		bl	lv_obj_get_event_dsc
 2083              	.LVL202:
 421:Drivers/lvgl/src/others/observer/lv_observer.c ****             lv_observer_t * observer = event_dsc->user_data;
 2084              		.loc 1 421 9 is_stmt 1 view .LVU546
 421:Drivers/lvgl/src/others/observer/lv_observer.c ****             lv_observer_t * observer = event_dsc->user_data;
 2085              		.loc 1 421 11 is_stmt 0 view .LVU547
 2086 002e 084B     		ldr	r3, .L146
 2087 0030 0268     		ldr	r2, [r0]
 2088 0032 9A42     		cmp	r2, r3
 2089 0034 F4D1     		bne	.L139
 2090              	.LBB29:
 422:Drivers/lvgl/src/others/observer/lv_observer.c ****             if(subject == NULL || subject == observer->subject) {
 2091              		.loc 1 422 13 is_stmt 1 view .LVU548
 422:Drivers/lvgl/src/others/observer/lv_observer.c ****             if(subject == NULL || subject == observer->subject) {
 2092              		.loc 1 422 29 is_stmt 0 view .LVU549
 2093 0036 4068     		ldr	r0, [r0, #4]
 2094              	.LVL203:
 423:Drivers/lvgl/src/others/observer/lv_observer.c ****                 /* lv_observer_remove handles the deletion of all possible event callbacks */
 2095              		.loc 1 423 13 is_stmt 1 view .LVU550
 423:Drivers/lvgl/src/others/observer/lv_observer.c ****                 /* lv_observer_remove handles the deletion of all possible event callbacks */
 2096              		.loc 1 423 15 is_stmt 0 view .LVU551
 2097 0038 002E     		cmp	r6, #0
 2098 003a EFD0     		beq	.L140
 423:Drivers/lvgl/src/others/observer/lv_observer.c ****                 /* lv_observer_remove handles the deletion of all possible event callbacks */
 2099              		.loc 1 423 54 discriminator 1 view .LVU552
 2100 003c 0368     		ldr	r3, [r0]
 423:Drivers/lvgl/src/others/observer/lv_observer.c ****                 /* lv_observer_remove handles the deletion of all possible event callbacks */
 2101              		.loc 1 423 32 discriminator 1 view .LVU553
 2102 003e B342     		cmp	r3, r6
 2103 0040 EED1     		bne	.L139
 2104 0042 EBE7     		b	.L140
 2105              	.LVL204:
 2106              	.L145:
 423:Drivers/lvgl/src/others/observer/lv_observer.c ****                 /* lv_observer_remove handles the deletion of all possible event callbacks */
 2107              		.loc 1 423 32 discriminator 1 view .LVU554
 2108              	.LBE29:
ARM GAS  /tmp/cc972Q0K.s 			page 62


 2109              	.LBE30:
 432:Drivers/lvgl/src/others/observer/lv_observer.c **** 
 2110              		.loc 1 432 5 is_stmt 1 view .LVU555
 2111 0044 3246     		mov	r2, r6
 2112 0046 0021     		movs	r1, #0
 2113 0048 2846     		mov	r0, r5
 2114 004a FFF7FEFF 		bl	lv_obj_remove_event_cb_with_user_data
 2115              	.LVL205:
 434:Drivers/lvgl/src/others/observer/lv_observer.c **** 
 2116              		.loc 1 434 1 is_stmt 0 view .LVU556
 2117 004e 70BD     		pop	{r4, r5, r6, pc}
 2118              	.LVL206:
 2119              	.L147:
 434:Drivers/lvgl/src/others/observer/lv_observer.c **** 
 2120              		.loc 1 434 1 view .LVU557
 2121              		.align	2
 2122              	.L146:
 2123 0050 00000000 		.word	unsubscribe_on_delete_cb
 2124              		.cfi_endproc
 2125              	.LFE202:
 2127              		.section	.text.lv_observer_get_target,"ax",%progbits
 2128              		.align	1
 2129              		.global	lv_observer_get_target
 2130              		.syntax unified
 2131              		.thumb
 2132              		.thumb_func
 2134              	lv_observer_get_target:
 2135              	.LVL207:
 2136              	.LFB203:
 437:Drivers/lvgl/src/others/observer/lv_observer.c ****     LV_ASSERT_NULL(observer);
 2137              		.loc 1 437 1 is_stmt 1 view -0
 2138              		.cfi_startproc
 2139              		@ args = 0, pretend = 0, frame = 0
 2140              		@ frame_needed = 0, uses_anonymous_args = 0
 2141              		@ link register save eliminated.
 438:Drivers/lvgl/src/others/observer/lv_observer.c **** 
 2142              		.loc 1 438 5 view .LVU559
 438:Drivers/lvgl/src/others/observer/lv_observer.c **** 
 2143              		.loc 1 438 5 view .LVU560
 2144 0000 08B1     		cbz	r0, .L150
 438:Drivers/lvgl/src/others/observer/lv_observer.c **** 
 2145              		.loc 1 438 5 discriminator 2 view .LVU561
 438:Drivers/lvgl/src/others/observer/lv_observer.c **** 
 2146              		.loc 1 438 29 discriminator 2 view .LVU562
 440:Drivers/lvgl/src/others/observer/lv_observer.c **** }
 2147              		.loc 1 440 5 view .LVU563
 441:Drivers/lvgl/src/others/observer/lv_observer.c **** 
 2148              		.loc 1 441 1 is_stmt 0 view .LVU564
 2149 0002 8068     		ldr	r0, [r0, #8]
 2150              	.LVL208:
 441:Drivers/lvgl/src/others/observer/lv_observer.c **** 
 2151              		.loc 1 441 1 view .LVU565
 2152 0004 7047     		bx	lr
 2153              	.LVL209:
 2154              	.L150:
 438:Drivers/lvgl/src/others/observer/lv_observer.c **** 
 2155              		.loc 1 438 5 is_stmt 1 discriminator 1 view .LVU566
ARM GAS  /tmp/cc972Q0K.s 			page 63


 438:Drivers/lvgl/src/others/observer/lv_observer.c **** 
 2156              		.loc 1 438 5 discriminator 1 view .LVU567
 438:Drivers/lvgl/src/others/observer/lv_observer.c **** 
 2157              		.loc 1 438 5 discriminator 1 view .LVU568
 438:Drivers/lvgl/src/others/observer/lv_observer.c **** 
 2158              		.loc 1 438 5 discriminator 1 view .LVU569
 438:Drivers/lvgl/src/others/observer/lv_observer.c **** 
 2159              		.loc 1 438 5 discriminator 1 view .LVU570
 2160 0006 FEE7     		b	.L150
 2161              		.cfi_endproc
 2162              	.LFE203:
 2164              		.section	.text.lv_subject_notify,"ax",%progbits
 2165              		.align	1
 2166              		.global	lv_subject_notify
 2167              		.syntax unified
 2168              		.thumb
 2169              		.thumb_func
 2171              	lv_subject_notify:
 2172              	.LVL210:
 2173              	.LFB204:
 444:Drivers/lvgl/src/others/observer/lv_observer.c ****     LV_ASSERT_NULL(subject);
 2174              		.loc 1 444 1 view -0
 2175              		.cfi_startproc
 2176              		@ args = 0, pretend = 0, frame = 0
 2177              		@ frame_needed = 0, uses_anonymous_args = 0
 445:Drivers/lvgl/src/others/observer/lv_observer.c **** 
 2178              		.loc 1 445 5 view .LVU572
 445:Drivers/lvgl/src/others/observer/lv_observer.c **** 
 2179              		.loc 1 445 5 view .LVU573
 2180 0000 28B1     		cbz	r0, .L153
 444:Drivers/lvgl/src/others/observer/lv_observer.c ****     LV_ASSERT_NULL(subject);
 2181              		.loc 1 444 1 is_stmt 0 view .LVU574
 2182 0002 38B5     		push	{r3, r4, r5, lr}
 2183              	.LCFI40:
 2184              		.cfi_def_cfa_offset 16
 2185              		.cfi_offset 3, -16
 2186              		.cfi_offset 4, -12
 2187              		.cfi_offset 5, -8
 2188              		.cfi_offset 14, -4
 2189 0004 0546     		mov	r5, r0
 445:Drivers/lvgl/src/others/observer/lv_observer.c **** 
 2190              		.loc 1 445 5 is_stmt 1 discriminator 2 view .LVU575
 445:Drivers/lvgl/src/others/observer/lv_observer.c **** 
 2191              		.loc 1 445 28 discriminator 2 view .LVU576
 447:Drivers/lvgl/src/others/observer/lv_observer.c ****     LV_LL_READ(&(subject->subs_ll), observer) {
 2192              		.loc 1 447 5 view .LVU577
 448:Drivers/lvgl/src/others/observer/lv_observer.c ****         observer->notified = 0;
 2193              		.loc 1 448 5 view .LVU578
 2194 0006 FFF7FEFF 		bl	lv_ll_get_head
 2195              	.LVL211:
 448:Drivers/lvgl/src/others/observer/lv_observer.c ****         observer->notified = 0;
 2196              		.loc 1 448 5 is_stmt 0 view .LVU579
 2197 000a 0146     		mov	r1, r0
 2198              	.LVL212:
 448:Drivers/lvgl/src/others/observer/lv_observer.c ****         observer->notified = 0;
 2199              		.loc 1 448 5 view .LVU580
 2200 000c 08E0     		b	.L154
ARM GAS  /tmp/cc972Q0K.s 			page 64


 2201              	.LVL213:
 2202              	.L153:
 2203              	.LCFI41:
 2204              		.cfi_def_cfa_offset 0
 2205              		.cfi_restore 3
 2206              		.cfi_restore 4
 2207              		.cfi_restore 5
 2208              		.cfi_restore 14
 445:Drivers/lvgl/src/others/observer/lv_observer.c **** 
 2209              		.loc 1 445 5 is_stmt 1 discriminator 1 view .LVU581
 445:Drivers/lvgl/src/others/observer/lv_observer.c **** 
 2210              		.loc 1 445 5 discriminator 1 view .LVU582
 445:Drivers/lvgl/src/others/observer/lv_observer.c **** 
 2211              		.loc 1 445 5 discriminator 1 view .LVU583
 445:Drivers/lvgl/src/others/observer/lv_observer.c **** 
 2212              		.loc 1 445 5 discriminator 1 view .LVU584
 445:Drivers/lvgl/src/others/observer/lv_observer.c **** 
 2213              		.loc 1 445 5 discriminator 1 view .LVU585
 2214 000e FEE7     		b	.L153
 2215              	.LVL214:
 2216              	.L155:
 2217              	.LCFI42:
 2218              		.cfi_def_cfa_offset 16
 2219              		.cfi_offset 3, -16
 2220              		.cfi_offset 4, -12
 2221              		.cfi_offset 5, -8
 2222              		.cfi_offset 14, -4
 449:Drivers/lvgl/src/others/observer/lv_observer.c ****     }
 2223              		.loc 1 449 9 view .LVU586
 449:Drivers/lvgl/src/others/observer/lv_observer.c ****     }
 2224              		.loc 1 449 28 is_stmt 0 view .LVU587
 2225 0010 0B7C     		ldrb	r3, [r1, #16]	@ zero_extendqisi2
 2226 0012 23F00203 		bic	r3, r3, #2
 2227 0016 0B74     		strb	r3, [r1, #16]
 448:Drivers/lvgl/src/others/observer/lv_observer.c ****         observer->notified = 0;
 2228              		.loc 1 448 5 is_stmt 1 discriminator 3 view .LVU588
 2229 0018 2846     		mov	r0, r5
 2230 001a FFF7FEFF 		bl	lv_ll_get_next
 2231              	.LVL215:
 448:Drivers/lvgl/src/others/observer/lv_observer.c ****         observer->notified = 0;
 2232              		.loc 1 448 5 is_stmt 0 discriminator 3 view .LVU589
 2233 001e 0146     		mov	r1, r0
 2234              	.LVL216:
 2235              	.L154:
 448:Drivers/lvgl/src/others/observer/lv_observer.c ****         observer->notified = 0;
 2236              		.loc 1 448 5 is_stmt 1 discriminator 1 view .LVU590
 2237 0020 0029     		cmp	r1, #0
 2238 0022 F5D1     		bne	.L155
 2239 0024 1CE0     		b	.L160
 2240              	.LVL217:
 2241              	.L157:
 454:Drivers/lvgl/src/others/observer/lv_observer.c ****             if(observer->cb && observer->notified == 0) {
 2242              		.loc 1 454 9 discriminator 2 view .LVU591
 2243 0026 2146     		mov	r1, r4
 2244 0028 2846     		mov	r0, r5
 2245 002a FFF7FEFF 		bl	lv_ll_get_next
 2246              	.LVL218:
ARM GAS  /tmp/cc972Q0K.s 			page 65


 2247 002e 0446     		mov	r4, r0
 2248              	.LVL219:
 2249              	.L156:
 454:Drivers/lvgl/src/others/observer/lv_observer.c ****             if(observer->cb && observer->notified == 0) {
 2250              		.loc 1 454 9 discriminator 1 view .LVU592
 2251 0030 94B1     		cbz	r4, .L158
 455:Drivers/lvgl/src/others/observer/lv_observer.c ****                 observer->cb(observer, subject);
 2252              		.loc 1 455 13 view .LVU593
 455:Drivers/lvgl/src/others/observer/lv_observer.c ****                 observer->cb(observer, subject);
 2253              		.loc 1 455 24 is_stmt 0 view .LVU594
 2254 0032 6368     		ldr	r3, [r4, #4]
 455:Drivers/lvgl/src/others/observer/lv_observer.c ****                 observer->cb(observer, subject);
 2255              		.loc 1 455 15 view .LVU595
 2256 0034 002B     		cmp	r3, #0
 2257 0036 F6D0     		beq	.L157
 455:Drivers/lvgl/src/others/observer/lv_observer.c ****                 observer->cb(observer, subject);
 2258              		.loc 1 455 51 discriminator 1 view .LVU596
 2259 0038 227C     		ldrb	r2, [r4, #16]	@ zero_extendqisi2
 455:Drivers/lvgl/src/others/observer/lv_observer.c ****                 observer->cb(observer, subject);
 2260              		.loc 1 455 29 discriminator 1 view .LVU597
 2261 003a 12F0020F 		tst	r2, #2
 2262 003e F2D1     		bne	.L157
 456:Drivers/lvgl/src/others/observer/lv_observer.c ****                 if(subject->notify_restart_query) break;
 2263              		.loc 1 456 17 is_stmt 1 view .LVU598
 2264 0040 2946     		mov	r1, r5
 2265 0042 2046     		mov	r0, r4
 2266 0044 9847     		blx	r3
 2267              	.LVL220:
 457:Drivers/lvgl/src/others/observer/lv_observer.c ****                 observer->notified = 1;
 2268              		.loc 1 457 17 view .LVU599
 457:Drivers/lvgl/src/others/observer/lv_observer.c ****                 observer->notified = 1;
 2269              		.loc 1 457 20 is_stmt 0 view .LVU600
 2270 0046 EB7E     		ldrb	r3, [r5, #27]	@ zero_extendqisi2
 457:Drivers/lvgl/src/others/observer/lv_observer.c ****                 observer->notified = 1;
 2271              		.loc 1 457 19 view .LVU601
 2272 0048 13F0100F 		tst	r3, #16
 2273 004c 04D1     		bne	.L158
 458:Drivers/lvgl/src/others/observer/lv_observer.c ****             }
 2274              		.loc 1 458 17 is_stmt 1 view .LVU602
 458:Drivers/lvgl/src/others/observer/lv_observer.c ****             }
 2275              		.loc 1 458 36 is_stmt 0 view .LVU603
 2276 004e 237C     		ldrb	r3, [r4, #16]	@ zero_extendqisi2
 2277 0050 43F00203 		orr	r3, r3, #2
 2278 0054 2374     		strb	r3, [r4, #16]
 2279 0056 E6E7     		b	.L157
 2280              	.L158:
 461:Drivers/lvgl/src/others/observer/lv_observer.c **** }
 2281              		.loc 1 461 13 is_stmt 1 view .LVU604
 2282 0058 EB7E     		ldrb	r3, [r5, #27]	@ zero_extendqisi2
 2283 005a 13F0100F 		tst	r3, #16
 2284 005e 08D0     		beq	.L163
 2285              	.LVL221:
 2286              	.L160:
 452:Drivers/lvgl/src/others/observer/lv_observer.c ****         subject->notify_restart_query = 0;
 2287              		.loc 1 452 5 view .LVU605
 453:Drivers/lvgl/src/others/observer/lv_observer.c ****         LV_LL_READ(&(subject->subs_ll), observer) {
 2288              		.loc 1 453 9 view .LVU606
ARM GAS  /tmp/cc972Q0K.s 			page 66


 453:Drivers/lvgl/src/others/observer/lv_observer.c ****         LV_LL_READ(&(subject->subs_ll), observer) {
 2289              		.loc 1 453 39 is_stmt 0 view .LVU607
 2290 0060 EB7E     		ldrb	r3, [r5, #27]	@ zero_extendqisi2
 2291 0062 23F01003 		bic	r3, r3, #16
 2292 0066 EB76     		strb	r3, [r5, #27]
 454:Drivers/lvgl/src/others/observer/lv_observer.c ****             if(observer->cb && observer->notified == 0) {
 2293              		.loc 1 454 9 is_stmt 1 view .LVU608
 2294 0068 2846     		mov	r0, r5
 2295 006a FFF7FEFF 		bl	lv_ll_get_head
 2296              	.LVL222:
 2297 006e 0446     		mov	r4, r0
 2298              	.LVL223:
 454:Drivers/lvgl/src/others/observer/lv_observer.c ****             if(observer->cb && observer->notified == 0) {
 2299              		.loc 1 454 9 is_stmt 0 view .LVU609
 2300 0070 DEE7     		b	.L156
 2301              	.LVL224:
 2302              	.L163:
 462:Drivers/lvgl/src/others/observer/lv_observer.c **** 
 2303              		.loc 1 462 1 view .LVU610
 2304 0072 38BD     		pop	{r3, r4, r5, pc}
 462:Drivers/lvgl/src/others/observer/lv_observer.c **** 
 2305              		.loc 1 462 1 view .LVU611
 2306              		.cfi_endproc
 2307              	.LFE204:
 2309              		.section	.text.lv_subject_notify_if_changed,"ax",%progbits
 2310              		.align	1
 2311              		.syntax unified
 2312              		.thumb
 2313              		.thumb_func
 2315              	lv_subject_notify_if_changed:
 2316              	.LVL225:
 2317              	.LFB231:
 780:Drivers/lvgl/src/others/observer/lv_observer.c **** 
 2318              		.loc 1 780 1 is_stmt 1 view -0
 2319              		.cfi_startproc
 2320              		@ args = 0, pretend = 0, frame = 0
 2321              		@ frame_needed = 0, uses_anonymous_args = 0
 780:Drivers/lvgl/src/others/observer/lv_observer.c **** 
 2322              		.loc 1 780 1 is_stmt 0 view .LVU613
 2323 0000 10B5     		push	{r4, lr}
 2324              	.LCFI43:
 2325              		.cfi_def_cfa_offset 8
 2326              		.cfi_offset 4, -8
 2327              		.cfi_offset 14, -4
 2328 0002 0446     		mov	r4, r0
 782:Drivers/lvgl/src/others/observer/lv_observer.c ****         case LV_SUBJECT_TYPE_INVALID :
 2329              		.loc 1 782 5 is_stmt 1 view .LVU614
 782:Drivers/lvgl/src/others/observer/lv_observer.c ****         case LV_SUBJECT_TYPE_INVALID :
 2330              		.loc 1 782 19 is_stmt 0 view .LVU615
 2331 0004 037E     		ldrb	r3, [r0, #24]	@ zero_extendqisi2
 2332 0006 03F00F03 		and	r3, r3, #15
 782:Drivers/lvgl/src/others/observer/lv_observer.c ****         case LV_SUBJECT_TYPE_INVALID :
 2333              		.loc 1 782 5 view .LVU616
 2334 000a 023B     		subs	r3, r3, #2
 2335 000c 042B     		cmp	r3, #4
 2336 000e 0DD8     		bhi	.L164
 2337 0010 DFE803F0 		tbb	[pc, r3]
ARM GAS  /tmp/cc972Q0K.s 			page 67


 2338              	.L167:
 2339 0014 03       		.byte	(.L170-.L167)/2
 2340 0015 0A       		.byte	(.L168-.L167)/2
 2341 0016 0D       		.byte	(.L169-.L167)/2
 2342 0017 0A       		.byte	(.L168-.L167)/2
 2343 0018 17       		.byte	(.L166-.L167)/2
 2344 0019 00       		.p2align 1
 2345              	.L170:
 787:Drivers/lvgl/src/others/observer/lv_observer.c ****                 lv_subject_notify(subject);
 2346              		.loc 1 787 13 is_stmt 1 view .LVU617
 787:Drivers/lvgl/src/others/observer/lv_observer.c ****                 lv_subject_notify(subject);
 2347              		.loc 1 787 30 is_stmt 0 view .LVU618
 2348 001a C268     		ldr	r2, [r0, #12]
 787:Drivers/lvgl/src/others/observer/lv_observer.c ****                 lv_subject_notify(subject);
 2349              		.loc 1 787 57 view .LVU619
 2350 001c 0369     		ldr	r3, [r0, #16]
 787:Drivers/lvgl/src/others/observer/lv_observer.c ****                 lv_subject_notify(subject);
 2351              		.loc 1 787 15 view .LVU620
 2352 001e 9A42     		cmp	r2, r3
 2353 0020 04D0     		beq	.L164
 788:Drivers/lvgl/src/others/observer/lv_observer.c ****             }
 2354              		.loc 1 788 17 is_stmt 1 view .LVU621
 2355 0022 FFF7FEFF 		bl	lv_subject_notify
 2356              	.LVL226:
 788:Drivers/lvgl/src/others/observer/lv_observer.c ****             }
 2357              		.loc 1 788 17 is_stmt 0 view .LVU622
 2358 0026 01E0     		b	.L164
 2359              	.LVL227:
 2360              	.L168:
 794:Drivers/lvgl/src/others/observer/lv_observer.c ****             break;
 2361              		.loc 1 794 13 is_stmt 1 view .LVU623
 2362 0028 FFF7FEFF 		bl	lv_subject_notify
 2363              	.LVL228:
 795:Drivers/lvgl/src/others/observer/lv_observer.c ****         case LV_SUBJECT_TYPE_COLOR  :
 2364              		.loc 1 795 13 view .LVU624
 2365              	.L164:
 808:Drivers/lvgl/src/others/observer/lv_observer.c **** 
 2366              		.loc 1 808 1 is_stmt 0 view .LVU625
 2367 002c 10BD     		pop	{r4, pc}
 2368              	.LVL229:
 2369              	.L169:
 797:Drivers/lvgl/src/others/observer/lv_observer.c ****                 lv_subject_notify(subject);
 2370              		.loc 1 797 13 is_stmt 1 view .LVU626
 797:Drivers/lvgl/src/others/observer/lv_observer.c ****                 lv_subject_notify(subject);
 2371              		.loc 1 797 17 is_stmt 0 view .LVU627
 2372 002e 0169     		ldr	r1, [r0, #16]
 2373 0030 C068     		ldr	r0, [r0, #12]
 2374              	.LVL230:
 797:Drivers/lvgl/src/others/observer/lv_observer.c ****                 lv_subject_notify(subject);
 2375              		.loc 1 797 17 view .LVU628
 2376 0032 FFF7FEFF 		bl	lv_color_eq
 2377              	.LVL231:
 797:Drivers/lvgl/src/others/observer/lv_observer.c ****                 lv_subject_notify(subject);
 2378              		.loc 1 797 15 discriminator 1 view .LVU629
 2379 0036 0028     		cmp	r0, #0
 2380 0038 F8D1     		bne	.L164
 798:Drivers/lvgl/src/others/observer/lv_observer.c ****             }
ARM GAS  /tmp/cc972Q0K.s 			page 68


 2381              		.loc 1 798 17 is_stmt 1 view .LVU630
 2382 003a 2046     		mov	r0, r4
 2383 003c FFF7FEFF 		bl	lv_subject_notify
 2384              	.LVL232:
 2385 0040 F4E7     		b	.L164
 2386              	.LVL233:
 2387              	.L166:
 802:Drivers/lvgl/src/others/observer/lv_observer.c ****                lv_strcmp(subject->value.pointer, subject->prev_value.pointer)) {
 2388              		.loc 1 802 13 view .LVU631
 802:Drivers/lvgl/src/others/observer/lv_observer.c ****                lv_strcmp(subject->value.pointer, subject->prev_value.pointer)) {
 2389              		.loc 1 802 36 is_stmt 0 view .LVU632
 2390 0042 0169     		ldr	r1, [r0, #16]
 802:Drivers/lvgl/src/others/observer/lv_observer.c ****                lv_strcmp(subject->value.pointer, subject->prev_value.pointer)) {
 2391              		.loc 1 802 15 view .LVU633
 2392 0044 21B1     		cbz	r1, .L171
 803:Drivers/lvgl/src/others/observer/lv_observer.c ****                 lv_subject_notify(subject);
 2393              		.loc 1 803 16 view .LVU634
 2394 0046 C068     		ldr	r0, [r0, #12]
 2395              	.LVL234:
 803:Drivers/lvgl/src/others/observer/lv_observer.c ****                 lv_subject_notify(subject);
 2396              		.loc 1 803 16 view .LVU635
 2397 0048 FFF7FEFF 		bl	lv_strcmp
 2398              	.LVL235:
 802:Drivers/lvgl/src/others/observer/lv_observer.c ****                lv_strcmp(subject->value.pointer, subject->prev_value.pointer)) {
 2399              		.loc 1 802 45 discriminator 1 view .LVU636
 2400 004c 0028     		cmp	r0, #0
 2401 004e EDD0     		beq	.L164
 2402              	.L171:
 804:Drivers/lvgl/src/others/observer/lv_observer.c ****             }
 2403              		.loc 1 804 17 is_stmt 1 view .LVU637
 2404 0050 2046     		mov	r0, r4
 2405 0052 FFF7FEFF 		bl	lv_subject_notify
 2406              	.LVL236:
 2407 0056 E9E7     		b	.L164
 2408              		.cfi_endproc
 2409              	.LFE231:
 2411              		.section	.text.lv_subject_set_int,"ax",%progbits
 2412              		.align	1
 2413              		.global	lv_subject_set_int
 2414              		.syntax unified
 2415              		.thumb
 2416              		.thumb_func
 2418              	lv_subject_set_int:
 2419              	.LVL237:
 2420              	.LFB179:
  96:Drivers/lvgl/src/others/observer/lv_observer.c ****     if(subject->type != LV_SUBJECT_TYPE_INT) {
 2421              		.loc 1 96 1 view -0
 2422              		.cfi_startproc
 2423              		@ args = 0, pretend = 0, frame = 0
 2424              		@ frame_needed = 0, uses_anonymous_args = 0
  96:Drivers/lvgl/src/others/observer/lv_observer.c ****     if(subject->type != LV_SUBJECT_TYPE_INT) {
 2425              		.loc 1 96 1 is_stmt 0 view .LVU639
 2426 0000 08B5     		push	{r3, lr}
 2427              	.LCFI44:
 2428              		.cfi_def_cfa_offset 8
 2429              		.cfi_offset 3, -8
 2430              		.cfi_offset 14, -4
ARM GAS  /tmp/cc972Q0K.s 			page 69


  97:Drivers/lvgl/src/others/observer/lv_observer.c ****         LV_LOG_WARN("Subject type is not LV_SUBJECT_TYPE_INT");
 2431              		.loc 1 97 5 is_stmt 1 view .LVU640
  97:Drivers/lvgl/src/others/observer/lv_observer.c ****         LV_LOG_WARN("Subject type is not LV_SUBJECT_TYPE_INT");
 2432              		.loc 1 97 22 is_stmt 0 view .LVU641
 2433 0002 037E     		ldrb	r3, [r0, #24]	@ zero_extendqisi2
 2434 0004 03F00F03 		and	r3, r3, #15
  97:Drivers/lvgl/src/others/observer/lv_observer.c ****         LV_LOG_WARN("Subject type is not LV_SUBJECT_TYPE_INT");
 2435              		.loc 1 97 7 view .LVU642
 2436 0008 022B     		cmp	r3, #2
 2437 000a 00D0     		beq	.L177
 2438              	.LVL238:
 2439              	.L174:
 105:Drivers/lvgl/src/others/observer/lv_observer.c **** 
 2440              		.loc 1 105 1 view .LVU643
 2441 000c 08BD     		pop	{r3, pc}
 2442              	.LVL239:
 2443              	.L177:
 102:Drivers/lvgl/src/others/observer/lv_observer.c ****     subject->value.num = value;
 2444              		.loc 1 102 5 is_stmt 1 view .LVU644
 102:Drivers/lvgl/src/others/observer/lv_observer.c ****     subject->value.num = value;
 2445              		.loc 1 102 45 is_stmt 0 view .LVU645
 2446 000e C368     		ldr	r3, [r0, #12]
 102:Drivers/lvgl/src/others/observer/lv_observer.c ****     subject->value.num = value;
 2447              		.loc 1 102 29 view .LVU646
 2448 0010 0361     		str	r3, [r0, #16]
 103:Drivers/lvgl/src/others/observer/lv_observer.c ****     lv_subject_notify_if_changed(subject);
 2449              		.loc 1 103 5 is_stmt 1 view .LVU647
 103:Drivers/lvgl/src/others/observer/lv_observer.c ****     lv_subject_notify_if_changed(subject);
 2450              		.loc 1 103 24 is_stmt 0 view .LVU648
 2451 0012 C160     		str	r1, [r0, #12]
 104:Drivers/lvgl/src/others/observer/lv_observer.c **** }
 2452              		.loc 1 104 5 is_stmt 1 view .LVU649
 2453 0014 FFF7FEFF 		bl	lv_subject_notify_if_changed
 2454              	.LVL240:
 104:Drivers/lvgl/src/others/observer/lv_observer.c **** }
 2455              		.loc 1 104 5 is_stmt 0 view .LVU650
 2456 0018 F8E7     		b	.L174
 2457              		.cfi_endproc
 2458              	.LFE179:
 2460              		.section	.text.obj_value_changed_event_cb,"ax",%progbits
 2461              		.align	1
 2462              		.syntax unified
 2463              		.thumb
 2464              		.thumb_func
 2466              	obj_value_changed_event_cb:
 2467              	.LVL241:
 2468              	.LFB230:
 772:Drivers/lvgl/src/others/observer/lv_observer.c ****     lv_obj_t * obj = lv_event_get_current_target(e);
 2469              		.loc 1 772 1 is_stmt 1 view -0
 2470              		.cfi_startproc
 2471              		@ args = 0, pretend = 0, frame = 0
 2472              		@ frame_needed = 0, uses_anonymous_args = 0
 772:Drivers/lvgl/src/others/observer/lv_observer.c ****     lv_obj_t * obj = lv_event_get_current_target(e);
 2473              		.loc 1 772 1 is_stmt 0 view .LVU652
 2474 0000 38B5     		push	{r3, r4, r5, lr}
 2475              	.LCFI45:
 2476              		.cfi_def_cfa_offset 16
ARM GAS  /tmp/cc972Q0K.s 			page 70


 2477              		.cfi_offset 3, -16
 2478              		.cfi_offset 4, -12
 2479              		.cfi_offset 5, -8
 2480              		.cfi_offset 14, -4
 2481 0002 0446     		mov	r4, r0
 773:Drivers/lvgl/src/others/observer/lv_observer.c ****     lv_subject_t * subject = lv_event_get_user_data(e);
 2482              		.loc 1 773 5 is_stmt 1 view .LVU653
 773:Drivers/lvgl/src/others/observer/lv_observer.c ****     lv_subject_t * subject = lv_event_get_user_data(e);
 2483              		.loc 1 773 22 is_stmt 0 view .LVU654
 2484 0004 FFF7FEFF 		bl	lv_event_get_current_target
 2485              	.LVL242:
 773:Drivers/lvgl/src/others/observer/lv_observer.c ****     lv_subject_t * subject = lv_event_get_user_data(e);
 2486              		.loc 1 773 22 view .LVU655
 2487 0008 0546     		mov	r5, r0
 2488              	.LVL243:
 774:Drivers/lvgl/src/others/observer/lv_observer.c **** 
 2489              		.loc 1 774 5 is_stmt 1 view .LVU656
 774:Drivers/lvgl/src/others/observer/lv_observer.c **** 
 2490              		.loc 1 774 30 is_stmt 0 view .LVU657
 2491 000a 2046     		mov	r0, r4
 2492              	.LVL244:
 774:Drivers/lvgl/src/others/observer/lv_observer.c **** 
 2493              		.loc 1 774 30 view .LVU658
 2494 000c FFF7FEFF 		bl	lv_event_get_user_data
 2495              	.LVL245:
 2496 0010 0446     		mov	r4, r0
 2497              	.LVL246:
 776:Drivers/lvgl/src/others/observer/lv_observer.c **** }
 2498              		.loc 1 776 5 is_stmt 1 view .LVU659
 776:Drivers/lvgl/src/others/observer/lv_observer.c **** }
 2499              		.loc 1 776 33 is_stmt 0 view .LVU660
 2500 0012 0121     		movs	r1, #1
 2501 0014 2846     		mov	r0, r5
 2502              	.LVL247:
 776:Drivers/lvgl/src/others/observer/lv_observer.c **** }
 2503              		.loc 1 776 33 view .LVU661
 2504 0016 FFF7FEFF 		bl	lv_obj_has_state
 2505              	.LVL248:
 2506 001a 0146     		mov	r1, r0
 776:Drivers/lvgl/src/others/observer/lv_observer.c **** }
 2507              		.loc 1 776 5 discriminator 1 view .LVU662
 2508 001c 2046     		mov	r0, r4
 2509 001e FFF7FEFF 		bl	lv_subject_set_int
 2510              	.LVL249:
 777:Drivers/lvgl/src/others/observer/lv_observer.c **** 
 2511              		.loc 1 777 1 view .LVU663
 2512 0022 38BD     		pop	{r3, r4, r5, pc}
 777:Drivers/lvgl/src/others/observer/lv_observer.c **** 
 2513              		.loc 1 777 1 view .LVU664
 2514              		.cfi_endproc
 2515              	.LFE230:
 2517              		.section	.text.arc_value_changed_event_cb,"ax",%progbits
 2518              		.align	1
 2519              		.syntax unified
 2520              		.thumb
 2521              		.thumb_func
 2523              	arc_value_changed_event_cb:
ARM GAS  /tmp/cc972Q0K.s 			page 71


 2524              	.LVL250:
 2525              	.LFB233:
 839:Drivers/lvgl/src/others/observer/lv_observer.c ****     lv_obj_t * arc = lv_event_get_current_target(e);
 2526              		.loc 1 839 1 is_stmt 1 view -0
 2527              		.cfi_startproc
 2528              		@ args = 0, pretend = 0, frame = 0
 2529              		@ frame_needed = 0, uses_anonymous_args = 0
 839:Drivers/lvgl/src/others/observer/lv_observer.c ****     lv_obj_t * arc = lv_event_get_current_target(e);
 2530              		.loc 1 839 1 is_stmt 0 view .LVU666
 2531 0000 38B5     		push	{r3, r4, r5, lr}
 2532              	.LCFI46:
 2533              		.cfi_def_cfa_offset 16
 2534              		.cfi_offset 3, -16
 2535              		.cfi_offset 4, -12
 2536              		.cfi_offset 5, -8
 2537              		.cfi_offset 14, -4
 2538 0002 0446     		mov	r4, r0
 840:Drivers/lvgl/src/others/observer/lv_observer.c ****     lv_subject_t * subject = lv_event_get_user_data(e);
 2539              		.loc 1 840 5 is_stmt 1 view .LVU667
 840:Drivers/lvgl/src/others/observer/lv_observer.c ****     lv_subject_t * subject = lv_event_get_user_data(e);
 2540              		.loc 1 840 22 is_stmt 0 view .LVU668
 2541 0004 FFF7FEFF 		bl	lv_event_get_current_target
 2542              	.LVL251:
 840:Drivers/lvgl/src/others/observer/lv_observer.c ****     lv_subject_t * subject = lv_event_get_user_data(e);
 2543              		.loc 1 840 22 view .LVU669
 2544 0008 0546     		mov	r5, r0
 2545              	.LVL252:
 841:Drivers/lvgl/src/others/observer/lv_observer.c **** 
 2546              		.loc 1 841 5 is_stmt 1 view .LVU670
 841:Drivers/lvgl/src/others/observer/lv_observer.c **** 
 2547              		.loc 1 841 30 is_stmt 0 view .LVU671
 2548 000a 2046     		mov	r0, r4
 2549              	.LVL253:
 841:Drivers/lvgl/src/others/observer/lv_observer.c **** 
 2550              		.loc 1 841 30 view .LVU672
 2551 000c FFF7FEFF 		bl	lv_event_get_user_data
 2552              	.LVL254:
 2553 0010 0446     		mov	r4, r0
 2554              	.LVL255:
 843:Drivers/lvgl/src/others/observer/lv_observer.c **** }
 2555              		.loc 1 843 5 is_stmt 1 view .LVU673
 2556 0012 2846     		mov	r0, r5
 2557              	.LVL256:
 843:Drivers/lvgl/src/others/observer/lv_observer.c **** }
 2558              		.loc 1 843 5 is_stmt 0 view .LVU674
 2559 0014 FFF7FEFF 		bl	lv_arc_get_value
 2560              	.LVL257:
 2561 0018 0146     		mov	r1, r0
 843:Drivers/lvgl/src/others/observer/lv_observer.c **** }
 2562              		.loc 1 843 5 discriminator 1 view .LVU675
 2563 001a 2046     		mov	r0, r4
 2564 001c FFF7FEFF 		bl	lv_subject_set_int
 2565              	.LVL258:
 844:Drivers/lvgl/src/others/observer/lv_observer.c **** 
 2566              		.loc 1 844 1 view .LVU676
 2567 0020 38BD     		pop	{r3, r4, r5, pc}
 844:Drivers/lvgl/src/others/observer/lv_observer.c **** 
ARM GAS  /tmp/cc972Q0K.s 			page 72


 2568              		.loc 1 844 1 view .LVU677
 2569              		.cfi_endproc
 2570              	.LFE233:
 2572              		.section	.text.slider_value_changed_event_cb,"ax",%progbits
 2573              		.align	1
 2574              		.syntax unified
 2575              		.thumb
 2576              		.thumb_func
 2578              	slider_value_changed_event_cb:
 2579              	.LVL259:
 2580              	.LFB235:
 856:Drivers/lvgl/src/others/observer/lv_observer.c ****     lv_obj_t * slider = lv_event_get_current_target(e);
 2581              		.loc 1 856 1 is_stmt 1 view -0
 2582              		.cfi_startproc
 2583              		@ args = 0, pretend = 0, frame = 0
 2584              		@ frame_needed = 0, uses_anonymous_args = 0
 856:Drivers/lvgl/src/others/observer/lv_observer.c ****     lv_obj_t * slider = lv_event_get_current_target(e);
 2585              		.loc 1 856 1 is_stmt 0 view .LVU679
 2586 0000 38B5     		push	{r3, r4, r5, lr}
 2587              	.LCFI47:
 2588              		.cfi_def_cfa_offset 16
 2589              		.cfi_offset 3, -16
 2590              		.cfi_offset 4, -12
 2591              		.cfi_offset 5, -8
 2592              		.cfi_offset 14, -4
 2593 0002 0446     		mov	r4, r0
 857:Drivers/lvgl/src/others/observer/lv_observer.c ****     lv_subject_t * subject = lv_event_get_user_data(e);
 2594              		.loc 1 857 5 is_stmt 1 view .LVU680
 857:Drivers/lvgl/src/others/observer/lv_observer.c ****     lv_subject_t * subject = lv_event_get_user_data(e);
 2595              		.loc 1 857 25 is_stmt 0 view .LVU681
 2596 0004 FFF7FEFF 		bl	lv_event_get_current_target
 2597              	.LVL260:
 857:Drivers/lvgl/src/others/observer/lv_observer.c ****     lv_subject_t * subject = lv_event_get_user_data(e);
 2598              		.loc 1 857 25 view .LVU682
 2599 0008 0546     		mov	r5, r0
 2600              	.LVL261:
 858:Drivers/lvgl/src/others/observer/lv_observer.c **** 
 2601              		.loc 1 858 5 is_stmt 1 view .LVU683
 858:Drivers/lvgl/src/others/observer/lv_observer.c **** 
 2602              		.loc 1 858 30 is_stmt 0 view .LVU684
 2603 000a 2046     		mov	r0, r4
 2604              	.LVL262:
 858:Drivers/lvgl/src/others/observer/lv_observer.c **** 
 2605              		.loc 1 858 30 view .LVU685
 2606 000c FFF7FEFF 		bl	lv_event_get_user_data
 2607              	.LVL263:
 2608 0010 0446     		mov	r4, r0
 2609              	.LVL264:
 860:Drivers/lvgl/src/others/observer/lv_observer.c **** }
 2610              		.loc 1 860 5 is_stmt 1 view .LVU686
 2611 0012 2846     		mov	r0, r5
 2612              	.LVL265:
 860:Drivers/lvgl/src/others/observer/lv_observer.c **** }
 2613              		.loc 1 860 5 is_stmt 0 view .LVU687
 2614 0014 FFF7FEFF 		bl	lv_slider_get_value
 2615              	.LVL266:
 2616 0018 0146     		mov	r1, r0
ARM GAS  /tmp/cc972Q0K.s 			page 73


 860:Drivers/lvgl/src/others/observer/lv_observer.c **** }
 2617              		.loc 1 860 5 discriminator 1 view .LVU688
 2618 001a 2046     		mov	r0, r4
 2619 001c FFF7FEFF 		bl	lv_subject_set_int
 2620              	.LVL267:
 861:Drivers/lvgl/src/others/observer/lv_observer.c **** 
 2621              		.loc 1 861 1 view .LVU689
 2622 0020 38BD     		pop	{r3, r4, r5, pc}
 861:Drivers/lvgl/src/others/observer/lv_observer.c **** 
 2623              		.loc 1 861 1 view .LVU690
 2624              		.cfi_endproc
 2625              	.LFE235:
 2627              		.section	.text.roller_value_changed_event_cb,"ax",%progbits
 2628              		.align	1
 2629              		.syntax unified
 2630              		.thumb
 2631              		.thumb_func
 2633              	roller_value_changed_event_cb:
 2634              	.LVL268:
 2635              	.LFB237:
 873:Drivers/lvgl/src/others/observer/lv_observer.c ****     lv_obj_t * roller = lv_event_get_current_target(e);
 2636              		.loc 1 873 1 is_stmt 1 view -0
 2637              		.cfi_startproc
 2638              		@ args = 0, pretend = 0, frame = 0
 2639              		@ frame_needed = 0, uses_anonymous_args = 0
 873:Drivers/lvgl/src/others/observer/lv_observer.c ****     lv_obj_t * roller = lv_event_get_current_target(e);
 2640              		.loc 1 873 1 is_stmt 0 view .LVU692
 2641 0000 38B5     		push	{r3, r4, r5, lr}
 2642              	.LCFI48:
 2643              		.cfi_def_cfa_offset 16
 2644              		.cfi_offset 3, -16
 2645              		.cfi_offset 4, -12
 2646              		.cfi_offset 5, -8
 2647              		.cfi_offset 14, -4
 2648 0002 0446     		mov	r4, r0
 874:Drivers/lvgl/src/others/observer/lv_observer.c ****     lv_subject_t * subject = lv_event_get_user_data(e);
 2649              		.loc 1 874 5 is_stmt 1 view .LVU693
 874:Drivers/lvgl/src/others/observer/lv_observer.c ****     lv_subject_t * subject = lv_event_get_user_data(e);
 2650              		.loc 1 874 25 is_stmt 0 view .LVU694
 2651 0004 FFF7FEFF 		bl	lv_event_get_current_target
 2652              	.LVL269:
 874:Drivers/lvgl/src/others/observer/lv_observer.c ****     lv_subject_t * subject = lv_event_get_user_data(e);
 2653              		.loc 1 874 25 view .LVU695
 2654 0008 0546     		mov	r5, r0
 2655              	.LVL270:
 875:Drivers/lvgl/src/others/observer/lv_observer.c **** 
 2656              		.loc 1 875 5 is_stmt 1 view .LVU696
 875:Drivers/lvgl/src/others/observer/lv_observer.c **** 
