ARM GAS  /tmp/cc3ln58M.s 			page 1


   1              		.cpu cortex-m7
   2              		.arch armv7e-m
   3              		.fpu fpv5-sp-d16
   4              		.eabi_attribute 27, 1
   5              		.eabi_attribute 28, 1
   6              		.eabi_attribute 20, 1
   7              		.eabi_attribute 21, 1
   8              		.eabi_attribute 23, 3
   9              		.eabi_attribute 24, 1
  10              		.eabi_attribute 25, 1
  11              		.eabi_attribute 26, 1
  12              		.eabi_attribute 30, 1
  13              		.eabi_attribute 34, 1
  14              		.eabi_attribute 18, 4
  15              		.file	"lv_refr.c"
  16              		.text
  17              	.Ltext0:
  18              		.cfi_sections	.debug_frame
  19              		.file 1 "Drivers/lvgl/src/core/lv_refr.c"
  20              		.section	.text.layer_get_area,"ax",%progbits
  21              		.align	1
  22              		.syntax unified
  23              		.thumb
  24              		.thumb_func
  26              	layer_get_area:
  27              	.LVL0:
  28              	.LFB202:
   1:Drivers/lvgl/src/core/lv_refr.c **** /**
   2:Drivers/lvgl/src/core/lv_refr.c ****  * @file lv_refr.c
   3:Drivers/lvgl/src/core/lv_refr.c ****  *
   4:Drivers/lvgl/src/core/lv_refr.c ****  */
   5:Drivers/lvgl/src/core/lv_refr.c **** 
   6:Drivers/lvgl/src/core/lv_refr.c **** /*********************
   7:Drivers/lvgl/src/core/lv_refr.c ****  *      INCLUDES
   8:Drivers/lvgl/src/core/lv_refr.c ****  *********************/
   9:Drivers/lvgl/src/core/lv_refr.c **** #include "lv_refr_private.h"
  10:Drivers/lvgl/src/core/lv_refr.c **** #include "lv_obj_draw_private.h"
  11:Drivers/lvgl/src/core/lv_refr.c **** #include "../misc/lv_area_private.h"
  12:Drivers/lvgl/src/core/lv_refr.c **** #include "../draw/sw/lv_draw_sw_mask_private.h"
  13:Drivers/lvgl/src/core/lv_refr.c **** #include "../draw/lv_draw_mask_private.h"
  14:Drivers/lvgl/src/core/lv_refr.c **** #include "lv_obj_private.h"
  15:Drivers/lvgl/src/core/lv_refr.c **** #include "lv_obj_event_private.h"
  16:Drivers/lvgl/src/core/lv_refr.c **** #include "../display/lv_display.h"
  17:Drivers/lvgl/src/core/lv_refr.c **** #include "../display/lv_display_private.h"
  18:Drivers/lvgl/src/core/lv_refr.c **** #include "../tick/lv_tick.h"
  19:Drivers/lvgl/src/core/lv_refr.c **** #include "../misc/lv_timer_private.h"
  20:Drivers/lvgl/src/core/lv_refr.c **** #include "../misc/lv_math.h"
  21:Drivers/lvgl/src/core/lv_refr.c **** #include "../misc/lv_profiler.h"
  22:Drivers/lvgl/src/core/lv_refr.c **** #include "../misc/lv_types.h"
  23:Drivers/lvgl/src/core/lv_refr.c **** #include "../draw/lv_draw_private.h"
  24:Drivers/lvgl/src/core/lv_refr.c **** #include "../font/lv_font_fmt_txt.h"
  25:Drivers/lvgl/src/core/lv_refr.c **** #include "../stdlib/lv_string.h"
  26:Drivers/lvgl/src/core/lv_refr.c **** #include "lv_global.h"
  27:Drivers/lvgl/src/core/lv_refr.c **** 
  28:Drivers/lvgl/src/core/lv_refr.c **** /*********************
  29:Drivers/lvgl/src/core/lv_refr.c ****  *      DEFINES
  30:Drivers/lvgl/src/core/lv_refr.c ****  *********************/
ARM GAS  /tmp/cc3ln58M.s 			page 2


  31:Drivers/lvgl/src/core/lv_refr.c **** 
  32:Drivers/lvgl/src/core/lv_refr.c **** /*Display being refreshed*/
  33:Drivers/lvgl/src/core/lv_refr.c **** #define disp_refr LV_GLOBAL_DEFAULT()->disp_refresh
  34:Drivers/lvgl/src/core/lv_refr.c **** 
  35:Drivers/lvgl/src/core/lv_refr.c **** /**********************
  36:Drivers/lvgl/src/core/lv_refr.c ****  *      TYPEDEFS
  37:Drivers/lvgl/src/core/lv_refr.c ****  **********************/
  38:Drivers/lvgl/src/core/lv_refr.c **** 
  39:Drivers/lvgl/src/core/lv_refr.c **** /**********************
  40:Drivers/lvgl/src/core/lv_refr.c ****  *  STATIC PROTOTYPES
  41:Drivers/lvgl/src/core/lv_refr.c ****  **********************/
  42:Drivers/lvgl/src/core/lv_refr.c **** static void lv_refr_join_area(void);
  43:Drivers/lvgl/src/core/lv_refr.c **** static void refr_invalid_areas(void);
  44:Drivers/lvgl/src/core/lv_refr.c **** static void refr_sync_areas(void);
  45:Drivers/lvgl/src/core/lv_refr.c **** static void refr_area(const lv_area_t * area_p, int32_t y_offset);
  46:Drivers/lvgl/src/core/lv_refr.c **** static void refr_configured_layer(lv_layer_t * layer);
  47:Drivers/lvgl/src/core/lv_refr.c **** static lv_obj_t * lv_refr_get_top_obj(const lv_area_t * area_p, lv_obj_t * obj);
  48:Drivers/lvgl/src/core/lv_refr.c **** static void refr_obj_and_children(lv_layer_t * layer, lv_obj_t * top_obj);
  49:Drivers/lvgl/src/core/lv_refr.c **** static void refr_obj(lv_layer_t * layer, lv_obj_t * obj);
  50:Drivers/lvgl/src/core/lv_refr.c **** static uint32_t get_max_row(lv_display_t * disp, int32_t area_w, int32_t area_h);
  51:Drivers/lvgl/src/core/lv_refr.c **** static void draw_buf_flush(lv_display_t * disp);
  52:Drivers/lvgl/src/core/lv_refr.c **** static void call_flush_cb(lv_display_t * disp, const lv_area_t * area, uint8_t * px_map);
  53:Drivers/lvgl/src/core/lv_refr.c **** static void wait_for_flushing(lv_display_t * disp);
  54:Drivers/lvgl/src/core/lv_refr.c **** 
  55:Drivers/lvgl/src/core/lv_refr.c **** /**********************
  56:Drivers/lvgl/src/core/lv_refr.c ****  *  STATIC VARIABLES
  57:Drivers/lvgl/src/core/lv_refr.c ****  **********************/
  58:Drivers/lvgl/src/core/lv_refr.c **** 
  59:Drivers/lvgl/src/core/lv_refr.c **** /**********************
  60:Drivers/lvgl/src/core/lv_refr.c ****  *      MACROS
  61:Drivers/lvgl/src/core/lv_refr.c ****  **********************/
  62:Drivers/lvgl/src/core/lv_refr.c **** #if LV_USE_LOG && LV_LOG_TRACE_DISP_REFR
  63:Drivers/lvgl/src/core/lv_refr.c ****     #define LV_TRACE_REFR(...) LV_LOG_TRACE(__VA_ARGS__)
  64:Drivers/lvgl/src/core/lv_refr.c **** #else
  65:Drivers/lvgl/src/core/lv_refr.c ****     #define LV_TRACE_REFR(...)
  66:Drivers/lvgl/src/core/lv_refr.c **** #endif
  67:Drivers/lvgl/src/core/lv_refr.c **** 
  68:Drivers/lvgl/src/core/lv_refr.c **** /**********************
  69:Drivers/lvgl/src/core/lv_refr.c ****  *   GLOBAL FUNCTIONS
  70:Drivers/lvgl/src/core/lv_refr.c ****  **********************/
  71:Drivers/lvgl/src/core/lv_refr.c **** 
  72:Drivers/lvgl/src/core/lv_refr.c **** /**
  73:Drivers/lvgl/src/core/lv_refr.c ****  * Initialize the screen refresh subsystem
  74:Drivers/lvgl/src/core/lv_refr.c ****  */
  75:Drivers/lvgl/src/core/lv_refr.c **** void lv_refr_init(void)
  76:Drivers/lvgl/src/core/lv_refr.c **** {
  77:Drivers/lvgl/src/core/lv_refr.c **** }
  78:Drivers/lvgl/src/core/lv_refr.c **** 
  79:Drivers/lvgl/src/core/lv_refr.c **** void lv_refr_deinit(void)
  80:Drivers/lvgl/src/core/lv_refr.c **** {
  81:Drivers/lvgl/src/core/lv_refr.c **** }
  82:Drivers/lvgl/src/core/lv_refr.c **** 
  83:Drivers/lvgl/src/core/lv_refr.c **** void lv_refr_now(lv_display_t * disp)
  84:Drivers/lvgl/src/core/lv_refr.c **** {
  85:Drivers/lvgl/src/core/lv_refr.c ****     lv_anim_refr_now();
  86:Drivers/lvgl/src/core/lv_refr.c **** 
  87:Drivers/lvgl/src/core/lv_refr.c ****     if(disp) {
ARM GAS  /tmp/cc3ln58M.s 			page 3


  88:Drivers/lvgl/src/core/lv_refr.c ****         if(disp->refr_timer) lv_display_refr_timer(disp->refr_timer);
  89:Drivers/lvgl/src/core/lv_refr.c ****     }
  90:Drivers/lvgl/src/core/lv_refr.c ****     else {
  91:Drivers/lvgl/src/core/lv_refr.c ****         lv_display_t * d;
  92:Drivers/lvgl/src/core/lv_refr.c ****         d = lv_display_get_next(NULL);
  93:Drivers/lvgl/src/core/lv_refr.c ****         while(d) {
  94:Drivers/lvgl/src/core/lv_refr.c ****             if(d->refr_timer) lv_display_refr_timer(d->refr_timer);
  95:Drivers/lvgl/src/core/lv_refr.c ****             d = lv_display_get_next(d);
  96:Drivers/lvgl/src/core/lv_refr.c ****         }
  97:Drivers/lvgl/src/core/lv_refr.c ****     }
  98:Drivers/lvgl/src/core/lv_refr.c **** }
  99:Drivers/lvgl/src/core/lv_refr.c **** 
 100:Drivers/lvgl/src/core/lv_refr.c **** void lv_obj_redraw(lv_layer_t * layer, lv_obj_t * obj)
 101:Drivers/lvgl/src/core/lv_refr.c **** {
 102:Drivers/lvgl/src/core/lv_refr.c ****     LV_PROFILER_REFR_BEGIN;
 103:Drivers/lvgl/src/core/lv_refr.c ****     lv_area_t clip_area_ori = layer->_clip_area;
 104:Drivers/lvgl/src/core/lv_refr.c ****     lv_area_t clip_coords_for_obj;
 105:Drivers/lvgl/src/core/lv_refr.c **** 
 106:Drivers/lvgl/src/core/lv_refr.c ****     /*Truncate the clip area to `obj size + ext size` area*/
 107:Drivers/lvgl/src/core/lv_refr.c ****     lv_area_t obj_coords_ext;
 108:Drivers/lvgl/src/core/lv_refr.c ****     lv_obj_get_coords(obj, &obj_coords_ext);
 109:Drivers/lvgl/src/core/lv_refr.c ****     int32_t ext_draw_size = lv_obj_get_ext_draw_size(obj);
 110:Drivers/lvgl/src/core/lv_refr.c ****     lv_area_increase(&obj_coords_ext, ext_draw_size, ext_draw_size);
 111:Drivers/lvgl/src/core/lv_refr.c **** 
 112:Drivers/lvgl/src/core/lv_refr.c ****     if(!lv_area_intersect(&clip_coords_for_obj, &clip_area_ori, &obj_coords_ext)) {
 113:Drivers/lvgl/src/core/lv_refr.c ****         LV_PROFILER_REFR_END;
 114:Drivers/lvgl/src/core/lv_refr.c ****         return;
 115:Drivers/lvgl/src/core/lv_refr.c ****     }
 116:Drivers/lvgl/src/core/lv_refr.c ****     /*If the object is visible on the current clip area*/
 117:Drivers/lvgl/src/core/lv_refr.c ****     layer->_clip_area = clip_coords_for_obj;
 118:Drivers/lvgl/src/core/lv_refr.c **** 
 119:Drivers/lvgl/src/core/lv_refr.c ****     lv_obj_send_event(obj, LV_EVENT_DRAW_MAIN_BEGIN, layer);
 120:Drivers/lvgl/src/core/lv_refr.c ****     lv_obj_send_event(obj, LV_EVENT_DRAW_MAIN, layer);
 121:Drivers/lvgl/src/core/lv_refr.c ****     lv_obj_send_event(obj, LV_EVENT_DRAW_MAIN_END, layer);
 122:Drivers/lvgl/src/core/lv_refr.c **** #if LV_USE_REFR_DEBUG
 123:Drivers/lvgl/src/core/lv_refr.c ****     lv_color_t debug_color = lv_color_make(lv_rand(0, 0xFF), lv_rand(0, 0xFF), lv_rand(0, 0xFF));
 124:Drivers/lvgl/src/core/lv_refr.c ****     lv_draw_rect_dsc_t draw_dsc;
 125:Drivers/lvgl/src/core/lv_refr.c ****     lv_draw_rect_dsc_init(&draw_dsc);
 126:Drivers/lvgl/src/core/lv_refr.c ****     draw_dsc.bg_color = debug_color;
 127:Drivers/lvgl/src/core/lv_refr.c ****     draw_dsc.bg_opa = LV_OPA_20;
 128:Drivers/lvgl/src/core/lv_refr.c ****     draw_dsc.border_width = 1;
 129:Drivers/lvgl/src/core/lv_refr.c ****     draw_dsc.border_opa = LV_OPA_30;
 130:Drivers/lvgl/src/core/lv_refr.c ****     draw_dsc.border_color = debug_color;
 131:Drivers/lvgl/src/core/lv_refr.c ****     lv_draw_rect(layer, &draw_dsc, &obj_coords_ext);
 132:Drivers/lvgl/src/core/lv_refr.c **** #endif
 133:Drivers/lvgl/src/core/lv_refr.c **** 
 134:Drivers/lvgl/src/core/lv_refr.c ****     const lv_area_t * obj_coords;
 135:Drivers/lvgl/src/core/lv_refr.c ****     if(lv_obj_has_flag(obj, LV_OBJ_FLAG_OVERFLOW_VISIBLE)) {
 136:Drivers/lvgl/src/core/lv_refr.c ****         obj_coords = &obj_coords_ext;
 137:Drivers/lvgl/src/core/lv_refr.c ****     }
 138:Drivers/lvgl/src/core/lv_refr.c ****     else {
 139:Drivers/lvgl/src/core/lv_refr.c ****         obj_coords = &obj->coords;
 140:Drivers/lvgl/src/core/lv_refr.c ****     }
 141:Drivers/lvgl/src/core/lv_refr.c ****     lv_area_t clip_coords_for_children;
 142:Drivers/lvgl/src/core/lv_refr.c ****     bool refr_children = true;
 143:Drivers/lvgl/src/core/lv_refr.c ****     if(!lv_area_intersect(&clip_coords_for_children, &clip_area_ori, obj_coords)) {
 144:Drivers/lvgl/src/core/lv_refr.c ****         refr_children = false;
ARM GAS  /tmp/cc3ln58M.s 			page 4


 145:Drivers/lvgl/src/core/lv_refr.c ****     }
 146:Drivers/lvgl/src/core/lv_refr.c **** 
 147:Drivers/lvgl/src/core/lv_refr.c ****     if(refr_children) {
 148:Drivers/lvgl/src/core/lv_refr.c ****         uint32_t i;
 149:Drivers/lvgl/src/core/lv_refr.c ****         uint32_t child_cnt = lv_obj_get_child_count(obj);
 150:Drivers/lvgl/src/core/lv_refr.c ****         if(child_cnt == 0) {
 151:Drivers/lvgl/src/core/lv_refr.c ****             /*If the object was visible on the clip area call the post draw events too*/
 152:Drivers/lvgl/src/core/lv_refr.c ****             layer->_clip_area = clip_coords_for_obj;
 153:Drivers/lvgl/src/core/lv_refr.c ****             /*If all the children are redrawn make 'post draw' draw*/
 154:Drivers/lvgl/src/core/lv_refr.c ****             lv_obj_send_event(obj, LV_EVENT_DRAW_POST_BEGIN, layer);
 155:Drivers/lvgl/src/core/lv_refr.c ****             lv_obj_send_event(obj, LV_EVENT_DRAW_POST, layer);
 156:Drivers/lvgl/src/core/lv_refr.c ****             lv_obj_send_event(obj, LV_EVENT_DRAW_POST_END, layer);
 157:Drivers/lvgl/src/core/lv_refr.c ****         }
 158:Drivers/lvgl/src/core/lv_refr.c ****         else {
 159:Drivers/lvgl/src/core/lv_refr.c ****             layer->_clip_area = clip_coords_for_children;
 160:Drivers/lvgl/src/core/lv_refr.c ****             bool clip_corner = lv_obj_get_style_clip_corner(obj, LV_PART_MAIN);
 161:Drivers/lvgl/src/core/lv_refr.c **** 
 162:Drivers/lvgl/src/core/lv_refr.c ****             int32_t radius = 0;
 163:Drivers/lvgl/src/core/lv_refr.c ****             if(clip_corner) {
 164:Drivers/lvgl/src/core/lv_refr.c ****                 radius = lv_obj_get_style_radius(obj, LV_PART_MAIN);
 165:Drivers/lvgl/src/core/lv_refr.c ****                 if(radius == 0) clip_corner = false;
 166:Drivers/lvgl/src/core/lv_refr.c ****             }
 167:Drivers/lvgl/src/core/lv_refr.c **** 
 168:Drivers/lvgl/src/core/lv_refr.c ****             if(clip_corner == false) {
 169:Drivers/lvgl/src/core/lv_refr.c ****                 for(i = 0; i < child_cnt; i++) {
 170:Drivers/lvgl/src/core/lv_refr.c ****                     lv_obj_t * child = obj->spec_attr->children[i];
 171:Drivers/lvgl/src/core/lv_refr.c ****                     refr_obj(layer, child);
 172:Drivers/lvgl/src/core/lv_refr.c ****                 }
 173:Drivers/lvgl/src/core/lv_refr.c **** 
 174:Drivers/lvgl/src/core/lv_refr.c ****                 /*If the object was visible on the clip area call the post draw events too*/
 175:Drivers/lvgl/src/core/lv_refr.c ****                 layer->_clip_area = clip_coords_for_obj;
 176:Drivers/lvgl/src/core/lv_refr.c ****                 /*If all the children are redrawn make 'post draw' draw*/
 177:Drivers/lvgl/src/core/lv_refr.c ****                 lv_obj_send_event(obj, LV_EVENT_DRAW_POST_BEGIN, layer);
 178:Drivers/lvgl/src/core/lv_refr.c ****                 lv_obj_send_event(obj, LV_EVENT_DRAW_POST, layer);
 179:Drivers/lvgl/src/core/lv_refr.c ****                 lv_obj_send_event(obj, LV_EVENT_DRAW_POST_END, layer);
 180:Drivers/lvgl/src/core/lv_refr.c ****             }
 181:Drivers/lvgl/src/core/lv_refr.c ****             else {
 182:Drivers/lvgl/src/core/lv_refr.c ****                 lv_layer_t * layer_children;
 183:Drivers/lvgl/src/core/lv_refr.c ****                 lv_draw_mask_rect_dsc_t mask_draw_dsc;
 184:Drivers/lvgl/src/core/lv_refr.c ****                 lv_draw_mask_rect_dsc_init(&mask_draw_dsc);
 185:Drivers/lvgl/src/core/lv_refr.c ****                 mask_draw_dsc.radius = radius;
 186:Drivers/lvgl/src/core/lv_refr.c ****                 mask_draw_dsc.area = obj->coords;
 187:Drivers/lvgl/src/core/lv_refr.c **** 
 188:Drivers/lvgl/src/core/lv_refr.c ****                 lv_draw_image_dsc_t img_draw_dsc;
 189:Drivers/lvgl/src/core/lv_refr.c ****                 lv_draw_image_dsc_init(&img_draw_dsc);
 190:Drivers/lvgl/src/core/lv_refr.c **** 
 191:Drivers/lvgl/src/core/lv_refr.c ****                 int32_t short_side = LV_MIN(lv_area_get_width(&obj->coords), lv_area_get_height(&ob
 192:Drivers/lvgl/src/core/lv_refr.c ****                 int32_t rout = LV_MIN(radius, short_side >> 1);
 193:Drivers/lvgl/src/core/lv_refr.c **** 
 194:Drivers/lvgl/src/core/lv_refr.c ****                 lv_area_t bottom = obj->coords;
 195:Drivers/lvgl/src/core/lv_refr.c ****                 bottom.y1 = bottom.y2 - rout + 1;
 196:Drivers/lvgl/src/core/lv_refr.c ****                 if(lv_area_intersect(&bottom, &bottom, &clip_area_ori)) {
 197:Drivers/lvgl/src/core/lv_refr.c ****                     layer_children = lv_draw_layer_create(layer, LV_COLOR_FORMAT_ARGB8888, &bottom)
 198:Drivers/lvgl/src/core/lv_refr.c **** 
 199:Drivers/lvgl/src/core/lv_refr.c ****                     for(i = 0; i < child_cnt; i++) {
 200:Drivers/lvgl/src/core/lv_refr.c ****                         lv_obj_t * child = obj->spec_attr->children[i];
 201:Drivers/lvgl/src/core/lv_refr.c ****                         refr_obj(layer_children, child);
ARM GAS  /tmp/cc3ln58M.s 			page 5


 202:Drivers/lvgl/src/core/lv_refr.c ****                     }
 203:Drivers/lvgl/src/core/lv_refr.c **** 
 204:Drivers/lvgl/src/core/lv_refr.c ****                     /*If all the children are redrawn send 'post draw' draw*/
 205:Drivers/lvgl/src/core/lv_refr.c ****                     lv_obj_send_event(obj, LV_EVENT_DRAW_POST_BEGIN, layer_children);
 206:Drivers/lvgl/src/core/lv_refr.c ****                     lv_obj_send_event(obj, LV_EVENT_DRAW_POST, layer_children);
 207:Drivers/lvgl/src/core/lv_refr.c ****                     lv_obj_send_event(obj, LV_EVENT_DRAW_POST_END, layer_children);
 208:Drivers/lvgl/src/core/lv_refr.c **** 
 209:Drivers/lvgl/src/core/lv_refr.c ****                     lv_draw_mask_rect(layer_children, &mask_draw_dsc);
 210:Drivers/lvgl/src/core/lv_refr.c **** 
 211:Drivers/lvgl/src/core/lv_refr.c ****                     img_draw_dsc.src = layer_children;
 212:Drivers/lvgl/src/core/lv_refr.c ****                     lv_draw_layer(layer, &img_draw_dsc, &bottom);
 213:Drivers/lvgl/src/core/lv_refr.c ****                 }
 214:Drivers/lvgl/src/core/lv_refr.c **** 
 215:Drivers/lvgl/src/core/lv_refr.c ****                 lv_area_t top = obj->coords;
 216:Drivers/lvgl/src/core/lv_refr.c ****                 top.y2 = top.y1 + rout - 1;
 217:Drivers/lvgl/src/core/lv_refr.c ****                 if(lv_area_intersect(&top, &top, &clip_area_ori)) {
 218:Drivers/lvgl/src/core/lv_refr.c ****                     layer_children = lv_draw_layer_create(layer, LV_COLOR_FORMAT_ARGB8888, &top);
 219:Drivers/lvgl/src/core/lv_refr.c **** 
 220:Drivers/lvgl/src/core/lv_refr.c ****                     for(i = 0; i < child_cnt; i++) {
 221:Drivers/lvgl/src/core/lv_refr.c ****                         lv_obj_t * child = obj->spec_attr->children[i];
 222:Drivers/lvgl/src/core/lv_refr.c ****                         refr_obj(layer_children, child);
 223:Drivers/lvgl/src/core/lv_refr.c ****                     }
 224:Drivers/lvgl/src/core/lv_refr.c **** 
 225:Drivers/lvgl/src/core/lv_refr.c ****                     /*If all the children are redrawn send 'post draw' draw*/
 226:Drivers/lvgl/src/core/lv_refr.c ****                     lv_obj_send_event(obj, LV_EVENT_DRAW_POST_BEGIN, layer_children);
 227:Drivers/lvgl/src/core/lv_refr.c ****                     lv_obj_send_event(obj, LV_EVENT_DRAW_POST, layer_children);
 228:Drivers/lvgl/src/core/lv_refr.c ****                     lv_obj_send_event(obj, LV_EVENT_DRAW_POST_END, layer_children);
 229:Drivers/lvgl/src/core/lv_refr.c **** 
 230:Drivers/lvgl/src/core/lv_refr.c ****                     lv_draw_mask_rect(layer_children, &mask_draw_dsc);
 231:Drivers/lvgl/src/core/lv_refr.c **** 
 232:Drivers/lvgl/src/core/lv_refr.c ****                     img_draw_dsc.src = layer_children;
 233:Drivers/lvgl/src/core/lv_refr.c ****                     lv_draw_layer(layer, &img_draw_dsc, &top);
 234:Drivers/lvgl/src/core/lv_refr.c **** 
 235:Drivers/lvgl/src/core/lv_refr.c ****                 }
 236:Drivers/lvgl/src/core/lv_refr.c **** 
 237:Drivers/lvgl/src/core/lv_refr.c ****                 lv_area_t mid = obj->coords;
 238:Drivers/lvgl/src/core/lv_refr.c ****                 mid.y1 += rout;
 239:Drivers/lvgl/src/core/lv_refr.c ****                 mid.y2 -= rout;
 240:Drivers/lvgl/src/core/lv_refr.c ****                 if(lv_area_intersect(&mid, &mid, &clip_area_ori)) {
 241:Drivers/lvgl/src/core/lv_refr.c ****                     layer->_clip_area = mid;
 242:Drivers/lvgl/src/core/lv_refr.c ****                     for(i = 0; i < child_cnt; i++) {
 243:Drivers/lvgl/src/core/lv_refr.c ****                         lv_obj_t * child = obj->spec_attr->children[i];
 244:Drivers/lvgl/src/core/lv_refr.c ****                         refr_obj(layer, child);
 245:Drivers/lvgl/src/core/lv_refr.c ****                     }
 246:Drivers/lvgl/src/core/lv_refr.c **** 
 247:Drivers/lvgl/src/core/lv_refr.c ****                     /*If all the children are redrawn make 'post draw' draw*/
 248:Drivers/lvgl/src/core/lv_refr.c ****                     lv_obj_send_event(obj, LV_EVENT_DRAW_POST_BEGIN, layer);
 249:Drivers/lvgl/src/core/lv_refr.c ****                     lv_obj_send_event(obj, LV_EVENT_DRAW_POST, layer);
 250:Drivers/lvgl/src/core/lv_refr.c ****                     lv_obj_send_event(obj, LV_EVENT_DRAW_POST_END, layer);
 251:Drivers/lvgl/src/core/lv_refr.c **** 
 252:Drivers/lvgl/src/core/lv_refr.c ****                 }
 253:Drivers/lvgl/src/core/lv_refr.c **** 
 254:Drivers/lvgl/src/core/lv_refr.c ****             }
 255:Drivers/lvgl/src/core/lv_refr.c ****         }
 256:Drivers/lvgl/src/core/lv_refr.c ****     }
 257:Drivers/lvgl/src/core/lv_refr.c **** 
 258:Drivers/lvgl/src/core/lv_refr.c ****     layer->_clip_area = clip_area_ori;
ARM GAS  /tmp/cc3ln58M.s 			page 6


 259:Drivers/lvgl/src/core/lv_refr.c ****     LV_PROFILER_REFR_END;
 260:Drivers/lvgl/src/core/lv_refr.c **** }
 261:Drivers/lvgl/src/core/lv_refr.c **** 
 262:Drivers/lvgl/src/core/lv_refr.c **** void lv_inv_area(lv_display_t * disp, const lv_area_t * area_p)
 263:Drivers/lvgl/src/core/lv_refr.c **** {
 264:Drivers/lvgl/src/core/lv_refr.c ****     if(!disp) disp = lv_display_get_default();
 265:Drivers/lvgl/src/core/lv_refr.c ****     if(!disp) return;
 266:Drivers/lvgl/src/core/lv_refr.c ****     if(!lv_display_is_invalidation_enabled(disp)) return;
 267:Drivers/lvgl/src/core/lv_refr.c **** 
 268:Drivers/lvgl/src/core/lv_refr.c ****     /**
 269:Drivers/lvgl/src/core/lv_refr.c ****      * There are two reasons for this issue:
 270:Drivers/lvgl/src/core/lv_refr.c ****      *  1.LVGL API is being used across threads, such as modifying widget properties in another thr
 271:Drivers/lvgl/src/core/lv_refr.c ****      *    or within an interrupt handler during the main thread rendering process.
 272:Drivers/lvgl/src/core/lv_refr.c ****      *  2.User-customized widget modify widget properties/styles again within the DRAW event.
 273:Drivers/lvgl/src/core/lv_refr.c ****      *
 274:Drivers/lvgl/src/core/lv_refr.c ****      * Therefore, ensure that LVGL is used in a single-threaded manner, or refer to
 275:Drivers/lvgl/src/core/lv_refr.c ****      * documentation: https://docs.lvgl.io/master/porting/os.html for proper locking mechanisms.
 276:Drivers/lvgl/src/core/lv_refr.c ****      * Additionally, ensure that only drawing-related tasks are performed within the DRAW event,
 277:Drivers/lvgl/src/core/lv_refr.c ****      * and move widget property/style modifications to other events.
 278:Drivers/lvgl/src/core/lv_refr.c ****      */
 279:Drivers/lvgl/src/core/lv_refr.c ****     LV_ASSERT_MSG(!disp->rendering_in_progress, "Invalidate area is not allowed during rendering.")
 280:Drivers/lvgl/src/core/lv_refr.c **** 
 281:Drivers/lvgl/src/core/lv_refr.c ****     /*Clear the invalidate buffer if the parameter is NULL*/
 282:Drivers/lvgl/src/core/lv_refr.c ****     if(area_p == NULL) {
 283:Drivers/lvgl/src/core/lv_refr.c ****         disp->inv_p = 0;
 284:Drivers/lvgl/src/core/lv_refr.c ****         return;
 285:Drivers/lvgl/src/core/lv_refr.c ****     }
 286:Drivers/lvgl/src/core/lv_refr.c **** 
 287:Drivers/lvgl/src/core/lv_refr.c ****     lv_area_t scr_area;
 288:Drivers/lvgl/src/core/lv_refr.c ****     scr_area.x1 = 0;
 289:Drivers/lvgl/src/core/lv_refr.c ****     scr_area.y1 = 0;
 290:Drivers/lvgl/src/core/lv_refr.c ****     scr_area.x2 = lv_display_get_horizontal_resolution(disp) - 1;
 291:Drivers/lvgl/src/core/lv_refr.c ****     scr_area.y2 = lv_display_get_vertical_resolution(disp) - 1;
 292:Drivers/lvgl/src/core/lv_refr.c **** 
 293:Drivers/lvgl/src/core/lv_refr.c ****     lv_area_t com_area;
 294:Drivers/lvgl/src/core/lv_refr.c ****     bool suc;
 295:Drivers/lvgl/src/core/lv_refr.c **** 
 296:Drivers/lvgl/src/core/lv_refr.c ****     suc = lv_area_intersect(&com_area, area_p, &scr_area);
 297:Drivers/lvgl/src/core/lv_refr.c ****     if(suc == false)  return; /*Out of the screen*/
 298:Drivers/lvgl/src/core/lv_refr.c **** 
 299:Drivers/lvgl/src/core/lv_refr.c ****     if(disp->color_format == LV_COLOR_FORMAT_I1) {
 300:Drivers/lvgl/src/core/lv_refr.c ****         /*Make sure that the X coordinates start and end on byte boundary.
 301:Drivers/lvgl/src/core/lv_refr.c ****          *E.g. convert 11;27 to 8;31*/
 302:Drivers/lvgl/src/core/lv_refr.c ****         com_area.x1 &= ~0x7; /*Round down: Nx8*/
 303:Drivers/lvgl/src/core/lv_refr.c ****         com_area.x2 |= 0x7;    /*Round up: Nx8 - 1*/
 304:Drivers/lvgl/src/core/lv_refr.c ****     }
 305:Drivers/lvgl/src/core/lv_refr.c **** 
 306:Drivers/lvgl/src/core/lv_refr.c ****     /*If there were at least 1 invalid area in full refresh mode, redraw the whole screen*/
 307:Drivers/lvgl/src/core/lv_refr.c ****     if(disp->render_mode == LV_DISPLAY_RENDER_MODE_FULL) {
 308:Drivers/lvgl/src/core/lv_refr.c ****         disp->inv_areas[0] = scr_area;
 309:Drivers/lvgl/src/core/lv_refr.c ****         disp->inv_p = 1;
 310:Drivers/lvgl/src/core/lv_refr.c ****         lv_display_send_event(disp, LV_EVENT_REFR_REQUEST, NULL);
 311:Drivers/lvgl/src/core/lv_refr.c ****         return;
 312:Drivers/lvgl/src/core/lv_refr.c ****     }
 313:Drivers/lvgl/src/core/lv_refr.c **** 
 314:Drivers/lvgl/src/core/lv_refr.c ****     lv_result_t res = lv_display_send_event(disp, LV_EVENT_INVALIDATE_AREA, &com_area);
 315:Drivers/lvgl/src/core/lv_refr.c ****     if(res != LV_RESULT_OK) return;
ARM GAS  /tmp/cc3ln58M.s 			page 7


 316:Drivers/lvgl/src/core/lv_refr.c **** 
 317:Drivers/lvgl/src/core/lv_refr.c ****     /*Save only if this area is not in one of the saved areas*/
 318:Drivers/lvgl/src/core/lv_refr.c ****     uint16_t i;
 319:Drivers/lvgl/src/core/lv_refr.c ****     for(i = 0; i < disp->inv_p; i++) {
 320:Drivers/lvgl/src/core/lv_refr.c ****         if(lv_area_is_in(&com_area, &disp->inv_areas[i], 0) != false) return;
 321:Drivers/lvgl/src/core/lv_refr.c ****     }
 322:Drivers/lvgl/src/core/lv_refr.c **** 
 323:Drivers/lvgl/src/core/lv_refr.c ****     /*Save the area*/
 324:Drivers/lvgl/src/core/lv_refr.c ****     lv_area_t * tmp_area_p = &com_area;
 325:Drivers/lvgl/src/core/lv_refr.c ****     if(disp->inv_p >= LV_INV_BUF_SIZE) { /*If no place for the area add the screen*/
 326:Drivers/lvgl/src/core/lv_refr.c ****         disp->inv_p = 0;
 327:Drivers/lvgl/src/core/lv_refr.c ****         tmp_area_p = &scr_area;
 328:Drivers/lvgl/src/core/lv_refr.c ****     }
 329:Drivers/lvgl/src/core/lv_refr.c ****     lv_area_copy(&disp->inv_areas[disp->inv_p], tmp_area_p);
 330:Drivers/lvgl/src/core/lv_refr.c ****     disp->inv_p++;
 331:Drivers/lvgl/src/core/lv_refr.c **** 
 332:Drivers/lvgl/src/core/lv_refr.c ****     lv_display_send_event(disp, LV_EVENT_REFR_REQUEST, NULL);
 333:Drivers/lvgl/src/core/lv_refr.c **** }
 334:Drivers/lvgl/src/core/lv_refr.c **** 
 335:Drivers/lvgl/src/core/lv_refr.c **** /**
 336:Drivers/lvgl/src/core/lv_refr.c ****  * Get the display which is being refreshed
 337:Drivers/lvgl/src/core/lv_refr.c ****  * @return the display being refreshed
 338:Drivers/lvgl/src/core/lv_refr.c ****  */
 339:Drivers/lvgl/src/core/lv_refr.c **** lv_display_t * lv_refr_get_disp_refreshing(void)
 340:Drivers/lvgl/src/core/lv_refr.c **** {
 341:Drivers/lvgl/src/core/lv_refr.c ****     return disp_refr;
 342:Drivers/lvgl/src/core/lv_refr.c **** }
 343:Drivers/lvgl/src/core/lv_refr.c **** 
 344:Drivers/lvgl/src/core/lv_refr.c **** /**
 345:Drivers/lvgl/src/core/lv_refr.c ****  * Get the display which is being refreshed
 346:Drivers/lvgl/src/core/lv_refr.c ****  * @return the display being refreshed
 347:Drivers/lvgl/src/core/lv_refr.c ****  */
 348:Drivers/lvgl/src/core/lv_refr.c **** void lv_refr_set_disp_refreshing(lv_display_t * disp)
 349:Drivers/lvgl/src/core/lv_refr.c **** {
 350:Drivers/lvgl/src/core/lv_refr.c ****     disp_refr = disp;
 351:Drivers/lvgl/src/core/lv_refr.c **** }
 352:Drivers/lvgl/src/core/lv_refr.c **** 
 353:Drivers/lvgl/src/core/lv_refr.c **** void lv_display_refr_timer(lv_timer_t * tmr)
 354:Drivers/lvgl/src/core/lv_refr.c **** {
 355:Drivers/lvgl/src/core/lv_refr.c ****     LV_PROFILER_REFR_BEGIN;
 356:Drivers/lvgl/src/core/lv_refr.c ****     LV_TRACE_REFR("begin");
 357:Drivers/lvgl/src/core/lv_refr.c **** 
 358:Drivers/lvgl/src/core/lv_refr.c ****     if(tmr) {
 359:Drivers/lvgl/src/core/lv_refr.c ****         disp_refr = tmr->user_data;
 360:Drivers/lvgl/src/core/lv_refr.c ****         /* Ensure the timer does not run again automatically.
 361:Drivers/lvgl/src/core/lv_refr.c ****          * This is done before refreshing in case refreshing invalidates something else.
 362:Drivers/lvgl/src/core/lv_refr.c ****          * However if the performance monitor is enabled keep the timer running to count the FPS.*/
 363:Drivers/lvgl/src/core/lv_refr.c **** #if !LV_USE_PERF_MONITOR
 364:Drivers/lvgl/src/core/lv_refr.c ****         lv_timer_pause(tmr);
 365:Drivers/lvgl/src/core/lv_refr.c **** #endif
 366:Drivers/lvgl/src/core/lv_refr.c ****     }
 367:Drivers/lvgl/src/core/lv_refr.c ****     else {
 368:Drivers/lvgl/src/core/lv_refr.c ****         disp_refr = lv_display_get_default();
 369:Drivers/lvgl/src/core/lv_refr.c ****     }
 370:Drivers/lvgl/src/core/lv_refr.c **** 
 371:Drivers/lvgl/src/core/lv_refr.c ****     if(disp_refr == NULL) {
 372:Drivers/lvgl/src/core/lv_refr.c ****         LV_LOG_WARN("No display registered");
ARM GAS  /tmp/cc3ln58M.s 			page 8


 373:Drivers/lvgl/src/core/lv_refr.c ****         LV_PROFILER_REFR_END;
 374:Drivers/lvgl/src/core/lv_refr.c ****         return;
 375:Drivers/lvgl/src/core/lv_refr.c ****     }
 376:Drivers/lvgl/src/core/lv_refr.c **** 
 377:Drivers/lvgl/src/core/lv_refr.c ****     lv_draw_buf_t * buf_act = disp_refr->buf_act;
 378:Drivers/lvgl/src/core/lv_refr.c ****     if(!(buf_act && buf_act->data && buf_act->data_size)) {
 379:Drivers/lvgl/src/core/lv_refr.c ****         LV_LOG_WARN("No draw buffer");
 380:Drivers/lvgl/src/core/lv_refr.c ****         LV_PROFILER_REFR_END;
 381:Drivers/lvgl/src/core/lv_refr.c ****         return;
 382:Drivers/lvgl/src/core/lv_refr.c ****     }
 383:Drivers/lvgl/src/core/lv_refr.c **** 
 384:Drivers/lvgl/src/core/lv_refr.c ****     lv_display_send_event(disp_refr, LV_EVENT_REFR_START, NULL);
 385:Drivers/lvgl/src/core/lv_refr.c **** 
 386:Drivers/lvgl/src/core/lv_refr.c ****     /*Refresh the screen's layout if required*/
 387:Drivers/lvgl/src/core/lv_refr.c ****     LV_PROFILER_LAYOUT_BEGIN_TAG("layout");
 388:Drivers/lvgl/src/core/lv_refr.c ****     lv_obj_update_layout(disp_refr->act_scr);
 389:Drivers/lvgl/src/core/lv_refr.c ****     if(disp_refr->prev_scr) lv_obj_update_layout(disp_refr->prev_scr);
 390:Drivers/lvgl/src/core/lv_refr.c **** 
 391:Drivers/lvgl/src/core/lv_refr.c ****     lv_obj_update_layout(disp_refr->bottom_layer);
 392:Drivers/lvgl/src/core/lv_refr.c ****     lv_obj_update_layout(disp_refr->top_layer);
 393:Drivers/lvgl/src/core/lv_refr.c ****     lv_obj_update_layout(disp_refr->sys_layer);
 394:Drivers/lvgl/src/core/lv_refr.c ****     LV_PROFILER_LAYOUT_END_TAG("layout");
 395:Drivers/lvgl/src/core/lv_refr.c **** 
 396:Drivers/lvgl/src/core/lv_refr.c ****     /*Do nothing if there is no active screen*/
 397:Drivers/lvgl/src/core/lv_refr.c ****     if(disp_refr->act_scr == NULL) {
 398:Drivers/lvgl/src/core/lv_refr.c ****         disp_refr->inv_p = 0;
 399:Drivers/lvgl/src/core/lv_refr.c ****         LV_LOG_WARN("there is no active screen");
 400:Drivers/lvgl/src/core/lv_refr.c ****         goto refr_finish;
 401:Drivers/lvgl/src/core/lv_refr.c ****     }
 402:Drivers/lvgl/src/core/lv_refr.c **** 
 403:Drivers/lvgl/src/core/lv_refr.c ****     lv_refr_join_area();
 404:Drivers/lvgl/src/core/lv_refr.c ****     refr_sync_areas();
 405:Drivers/lvgl/src/core/lv_refr.c ****     refr_invalid_areas();
 406:Drivers/lvgl/src/core/lv_refr.c **** 
 407:Drivers/lvgl/src/core/lv_refr.c ****     if(disp_refr->inv_p == 0) goto refr_finish;
 408:Drivers/lvgl/src/core/lv_refr.c ****     /*In double buffered direct mode save the updated areas.
 409:Drivers/lvgl/src/core/lv_refr.c ****      *They will be used on the next call to synchronize the buffers.*/
 410:Drivers/lvgl/src/core/lv_refr.c ****     if(lv_display_is_double_buffered(disp_refr) && disp_refr->render_mode == LV_DISPLAY_RENDER_MODE
 411:Drivers/lvgl/src/core/lv_refr.c ****         uint32_t i;
 412:Drivers/lvgl/src/core/lv_refr.c ****         for(i = 0; i < disp_refr->inv_p; i++) {
 413:Drivers/lvgl/src/core/lv_refr.c ****             if(disp_refr->inv_area_joined[i])
 414:Drivers/lvgl/src/core/lv_refr.c ****                 continue;
 415:Drivers/lvgl/src/core/lv_refr.c **** 
 416:Drivers/lvgl/src/core/lv_refr.c ****             lv_area_t * sync_area = lv_ll_ins_tail(&disp_refr->sync_areas);
 417:Drivers/lvgl/src/core/lv_refr.c ****             *sync_area = disp_refr->inv_areas[i];
 418:Drivers/lvgl/src/core/lv_refr.c ****         }
 419:Drivers/lvgl/src/core/lv_refr.c ****     }
 420:Drivers/lvgl/src/core/lv_refr.c **** 
 421:Drivers/lvgl/src/core/lv_refr.c ****     lv_memzero(disp_refr->inv_areas, sizeof(disp_refr->inv_areas));
 422:Drivers/lvgl/src/core/lv_refr.c ****     lv_memzero(disp_refr->inv_area_joined, sizeof(disp_refr->inv_area_joined));
 423:Drivers/lvgl/src/core/lv_refr.c ****     disp_refr->inv_p = 0;
 424:Drivers/lvgl/src/core/lv_refr.c **** 
 425:Drivers/lvgl/src/core/lv_refr.c **** refr_finish:
 426:Drivers/lvgl/src/core/lv_refr.c **** 
 427:Drivers/lvgl/src/core/lv_refr.c **** #if LV_DRAW_SW_COMPLEX == 1
 428:Drivers/lvgl/src/core/lv_refr.c ****     lv_draw_sw_mask_cleanup();
 429:Drivers/lvgl/src/core/lv_refr.c **** #endif
ARM GAS  /tmp/cc3ln58M.s 			page 9


 430:Drivers/lvgl/src/core/lv_refr.c **** 
 431:Drivers/lvgl/src/core/lv_refr.c ****     lv_display_send_event(disp_refr, LV_EVENT_REFR_READY, NULL);
 432:Drivers/lvgl/src/core/lv_refr.c **** 
 433:Drivers/lvgl/src/core/lv_refr.c ****     LV_TRACE_REFR("finished");
 434:Drivers/lvgl/src/core/lv_refr.c ****     LV_PROFILER_REFR_END;
 435:Drivers/lvgl/src/core/lv_refr.c **** }
 436:Drivers/lvgl/src/core/lv_refr.c **** 
 437:Drivers/lvgl/src/core/lv_refr.c **** /**********************
 438:Drivers/lvgl/src/core/lv_refr.c ****  *   STATIC FUNCTIONS
 439:Drivers/lvgl/src/core/lv_refr.c ****  **********************/
 440:Drivers/lvgl/src/core/lv_refr.c **** 
 441:Drivers/lvgl/src/core/lv_refr.c **** /**
 442:Drivers/lvgl/src/core/lv_refr.c ****  * Join the areas which has got common parts
 443:Drivers/lvgl/src/core/lv_refr.c ****  */
 444:Drivers/lvgl/src/core/lv_refr.c **** static void lv_refr_join_area(void)
 445:Drivers/lvgl/src/core/lv_refr.c **** {
 446:Drivers/lvgl/src/core/lv_refr.c ****     LV_PROFILER_REFR_BEGIN;
 447:Drivers/lvgl/src/core/lv_refr.c ****     uint32_t join_from;
 448:Drivers/lvgl/src/core/lv_refr.c ****     uint32_t join_in;
 449:Drivers/lvgl/src/core/lv_refr.c ****     lv_area_t joined_area;
 450:Drivers/lvgl/src/core/lv_refr.c ****     for(join_in = 0; join_in < disp_refr->inv_p; join_in++) {
 451:Drivers/lvgl/src/core/lv_refr.c ****         if(disp_refr->inv_area_joined[join_in] != 0) continue;
 452:Drivers/lvgl/src/core/lv_refr.c **** 
 453:Drivers/lvgl/src/core/lv_refr.c ****         /*Check all areas to join them in 'join_in'*/
 454:Drivers/lvgl/src/core/lv_refr.c ****         for(join_from = 0; join_from < disp_refr->inv_p; join_from++) {
 455:Drivers/lvgl/src/core/lv_refr.c ****             /*Handle only unjoined areas and ignore itself*/
 456:Drivers/lvgl/src/core/lv_refr.c ****             if(disp_refr->inv_area_joined[join_from] != 0 || join_in == join_from) {
 457:Drivers/lvgl/src/core/lv_refr.c ****                 continue;
 458:Drivers/lvgl/src/core/lv_refr.c ****             }
 459:Drivers/lvgl/src/core/lv_refr.c **** 
 460:Drivers/lvgl/src/core/lv_refr.c ****             /*Check if the areas are on each other*/
 461:Drivers/lvgl/src/core/lv_refr.c ****             if(lv_area_is_on(&disp_refr->inv_areas[join_in], &disp_refr->inv_areas[join_from]) == f
 462:Drivers/lvgl/src/core/lv_refr.c ****                 continue;
 463:Drivers/lvgl/src/core/lv_refr.c ****             }
 464:Drivers/lvgl/src/core/lv_refr.c **** 
 465:Drivers/lvgl/src/core/lv_refr.c ****             lv_area_join(&joined_area, &disp_refr->inv_areas[join_in], &disp_refr->inv_areas[join_f
 466:Drivers/lvgl/src/core/lv_refr.c **** 
 467:Drivers/lvgl/src/core/lv_refr.c ****             /*Join two area only if the joined area size is smaller*/
 468:Drivers/lvgl/src/core/lv_refr.c ****             if(lv_area_get_size(&joined_area) < (lv_area_get_size(&disp_refr->inv_areas[join_in]) +
 469:Drivers/lvgl/src/core/lv_refr.c ****                                                  lv_area_get_size(&disp_refr->inv_areas[join_from])
 470:Drivers/lvgl/src/core/lv_refr.c ****                 lv_area_copy(&disp_refr->inv_areas[join_in], &joined_area);
 471:Drivers/lvgl/src/core/lv_refr.c **** 
 472:Drivers/lvgl/src/core/lv_refr.c ****                 /*Mark 'join_form' is joined into 'join_in'*/
 473:Drivers/lvgl/src/core/lv_refr.c ****                 disp_refr->inv_area_joined[join_from] = 1;
 474:Drivers/lvgl/src/core/lv_refr.c ****             }
 475:Drivers/lvgl/src/core/lv_refr.c ****         }
 476:Drivers/lvgl/src/core/lv_refr.c ****     }
 477:Drivers/lvgl/src/core/lv_refr.c ****     LV_PROFILER_REFR_END;
 478:Drivers/lvgl/src/core/lv_refr.c **** }
 479:Drivers/lvgl/src/core/lv_refr.c **** 
 480:Drivers/lvgl/src/core/lv_refr.c **** /**
 481:Drivers/lvgl/src/core/lv_refr.c ****  * Refresh the sync areas
 482:Drivers/lvgl/src/core/lv_refr.c ****  */
 483:Drivers/lvgl/src/core/lv_refr.c **** static void refr_sync_areas(void)
 484:Drivers/lvgl/src/core/lv_refr.c **** {
 485:Drivers/lvgl/src/core/lv_refr.c ****     /*Do not sync if not direct or double buffered*/
 486:Drivers/lvgl/src/core/lv_refr.c ****     if(disp_refr->render_mode != LV_DISPLAY_RENDER_MODE_DIRECT) return;
ARM GAS  /tmp/cc3ln58M.s 			page 10


 487:Drivers/lvgl/src/core/lv_refr.c **** 
 488:Drivers/lvgl/src/core/lv_refr.c ****     /*Do not sync if not double buffered*/
 489:Drivers/lvgl/src/core/lv_refr.c ****     if(!lv_display_is_double_buffered(disp_refr)) return;
 490:Drivers/lvgl/src/core/lv_refr.c **** 
 491:Drivers/lvgl/src/core/lv_refr.c ****     /*Do not sync if no sync areas*/
 492:Drivers/lvgl/src/core/lv_refr.c ****     if(lv_ll_is_empty(&disp_refr->sync_areas)) return;
 493:Drivers/lvgl/src/core/lv_refr.c **** 
 494:Drivers/lvgl/src/core/lv_refr.c ****     LV_PROFILER_REFR_BEGIN;
 495:Drivers/lvgl/src/core/lv_refr.c ****     /*With double buffered direct mode synchronize the rendered areas to the other buffer*/
 496:Drivers/lvgl/src/core/lv_refr.c ****     /*We need to wait for ready here to not mess up the active screen*/
 497:Drivers/lvgl/src/core/lv_refr.c ****     wait_for_flushing(disp_refr);
 498:Drivers/lvgl/src/core/lv_refr.c **** 
 499:Drivers/lvgl/src/core/lv_refr.c ****     /*The buffers are already swapped.
 500:Drivers/lvgl/src/core/lv_refr.c ****      *So the active buffer is the off screen buffer where LVGL will render*/
 501:Drivers/lvgl/src/core/lv_refr.c ****     lv_draw_buf_t * off_screen = disp_refr->buf_act;
 502:Drivers/lvgl/src/core/lv_refr.c ****     lv_draw_buf_t * on_screen = disp_refr->buf_act == disp_refr->buf_1 ? disp_refr->buf_2 : disp_re
 503:Drivers/lvgl/src/core/lv_refr.c **** 
 504:Drivers/lvgl/src/core/lv_refr.c ****     uint32_t hor_res = lv_display_get_horizontal_resolution(disp_refr);
 505:Drivers/lvgl/src/core/lv_refr.c ****     uint32_t ver_res = lv_display_get_vertical_resolution(disp_refr);
 506:Drivers/lvgl/src/core/lv_refr.c **** 
 507:Drivers/lvgl/src/core/lv_refr.c ****     /*Iterate through invalidated areas to see if sync area should be copied*/
 508:Drivers/lvgl/src/core/lv_refr.c ****     uint16_t i;
 509:Drivers/lvgl/src/core/lv_refr.c ****     int8_t j;
 510:Drivers/lvgl/src/core/lv_refr.c ****     lv_area_t res[4] = {0};
 511:Drivers/lvgl/src/core/lv_refr.c ****     int8_t res_c;
 512:Drivers/lvgl/src/core/lv_refr.c ****     lv_area_t * sync_area, * new_area, * next_area;
 513:Drivers/lvgl/src/core/lv_refr.c ****     for(i = 0; i < disp_refr->inv_p; i++) {
 514:Drivers/lvgl/src/core/lv_refr.c ****         /*Skip joined areas*/
 515:Drivers/lvgl/src/core/lv_refr.c ****         if(disp_refr->inv_area_joined[i]) continue;
 516:Drivers/lvgl/src/core/lv_refr.c **** 
 517:Drivers/lvgl/src/core/lv_refr.c ****         /*Iterate over sync areas*/
 518:Drivers/lvgl/src/core/lv_refr.c ****         sync_area = lv_ll_get_head(&disp_refr->sync_areas);
 519:Drivers/lvgl/src/core/lv_refr.c ****         while(sync_area != NULL) {
 520:Drivers/lvgl/src/core/lv_refr.c ****             /*Get next sync area*/
 521:Drivers/lvgl/src/core/lv_refr.c ****             next_area = lv_ll_get_next(&disp_refr->sync_areas, sync_area);
 522:Drivers/lvgl/src/core/lv_refr.c **** 
 523:Drivers/lvgl/src/core/lv_refr.c ****             /*Remove intersect of redraw area from sync area and get remaining areas*/
 524:Drivers/lvgl/src/core/lv_refr.c ****             res_c = lv_area_diff(res, sync_area, &disp_refr->inv_areas[i]);
 525:Drivers/lvgl/src/core/lv_refr.c **** 
 526:Drivers/lvgl/src/core/lv_refr.c ****             /*New sub areas created after removing intersect*/
 527:Drivers/lvgl/src/core/lv_refr.c ****             if(res_c != -1) {
 528:Drivers/lvgl/src/core/lv_refr.c ****                 /*Replace old sync area with new areas*/
 529:Drivers/lvgl/src/core/lv_refr.c ****                 for(j = 0; j < res_c; j++) {
 530:Drivers/lvgl/src/core/lv_refr.c ****                     new_area = lv_ll_ins_prev(&disp_refr->sync_areas, sync_area);
 531:Drivers/lvgl/src/core/lv_refr.c ****                     *new_area = res[j];
 532:Drivers/lvgl/src/core/lv_refr.c ****                 }
 533:Drivers/lvgl/src/core/lv_refr.c ****                 lv_ll_remove(&disp_refr->sync_areas, sync_area);
 534:Drivers/lvgl/src/core/lv_refr.c ****                 lv_free(sync_area);
 535:Drivers/lvgl/src/core/lv_refr.c ****             }
 536:Drivers/lvgl/src/core/lv_refr.c **** 
 537:Drivers/lvgl/src/core/lv_refr.c ****             /*Move on to next sync area*/
 538:Drivers/lvgl/src/core/lv_refr.c ****             sync_area = next_area;
 539:Drivers/lvgl/src/core/lv_refr.c ****         }
 540:Drivers/lvgl/src/core/lv_refr.c ****     }
 541:Drivers/lvgl/src/core/lv_refr.c **** 
 542:Drivers/lvgl/src/core/lv_refr.c ****     lv_area_t disp_area = {0, 0, (int32_t)hor_res - 1, (int32_t)ver_res - 1};
 543:Drivers/lvgl/src/core/lv_refr.c ****     /*Copy sync areas (if any remaining)*/
ARM GAS  /tmp/cc3ln58M.s 			page 11


 544:Drivers/lvgl/src/core/lv_refr.c ****     for(sync_area = lv_ll_get_head(&disp_refr->sync_areas); sync_area != NULL;
 545:Drivers/lvgl/src/core/lv_refr.c ****         sync_area = lv_ll_get_next(&disp_refr->sync_areas, sync_area)) {
 546:Drivers/lvgl/src/core/lv_refr.c ****         /**
 547:Drivers/lvgl/src/core/lv_refr.c ****          * @todo Resize SDL window will trigger crash because of sync_area is larger than disp_area
 548:Drivers/lvgl/src/core/lv_refr.c ****          */
 549:Drivers/lvgl/src/core/lv_refr.c ****         lv_area_intersect(sync_area, sync_area, &disp_area);
 550:Drivers/lvgl/src/core/lv_refr.c ****         lv_draw_buf_copy(off_screen, sync_area, on_screen, sync_area);
 551:Drivers/lvgl/src/core/lv_refr.c ****     }
 552:Drivers/lvgl/src/core/lv_refr.c **** 
 553:Drivers/lvgl/src/core/lv_refr.c ****     /*Clear sync areas*/
 554:Drivers/lvgl/src/core/lv_refr.c ****     lv_ll_clear(&disp_refr->sync_areas);
 555:Drivers/lvgl/src/core/lv_refr.c ****     LV_PROFILER_REFR_END;
 556:Drivers/lvgl/src/core/lv_refr.c **** }
 557:Drivers/lvgl/src/core/lv_refr.c **** 
 558:Drivers/lvgl/src/core/lv_refr.c **** /**
 559:Drivers/lvgl/src/core/lv_refr.c ****  * Refresh the joined areas
 560:Drivers/lvgl/src/core/lv_refr.c ****  */
 561:Drivers/lvgl/src/core/lv_refr.c **** static void refr_invalid_areas(void)
 562:Drivers/lvgl/src/core/lv_refr.c **** {
 563:Drivers/lvgl/src/core/lv_refr.c ****     if(disp_refr->inv_p == 0) return;
 564:Drivers/lvgl/src/core/lv_refr.c ****     LV_PROFILER_REFR_BEGIN;
 565:Drivers/lvgl/src/core/lv_refr.c **** 
 566:Drivers/lvgl/src/core/lv_refr.c ****     /*Find the last area which will be drawn*/
 567:Drivers/lvgl/src/core/lv_refr.c ****     int32_t i;
 568:Drivers/lvgl/src/core/lv_refr.c ****     int32_t last_i = 0;
 569:Drivers/lvgl/src/core/lv_refr.c ****     for(i = disp_refr->inv_p - 1; i >= 0; i--) {
 570:Drivers/lvgl/src/core/lv_refr.c ****         if(disp_refr->inv_area_joined[i] == 0) {
 571:Drivers/lvgl/src/core/lv_refr.c ****             last_i = i;
 572:Drivers/lvgl/src/core/lv_refr.c ****             break;
 573:Drivers/lvgl/src/core/lv_refr.c ****         }
 574:Drivers/lvgl/src/core/lv_refr.c ****     }
 575:Drivers/lvgl/src/core/lv_refr.c **** 
 576:Drivers/lvgl/src/core/lv_refr.c ****     /*Notify the display driven rendering has started*/
 577:Drivers/lvgl/src/core/lv_refr.c ****     lv_display_send_event(disp_refr, LV_EVENT_RENDER_START, NULL);
 578:Drivers/lvgl/src/core/lv_refr.c **** 
 579:Drivers/lvgl/src/core/lv_refr.c ****     disp_refr->last_area = 0;
 580:Drivers/lvgl/src/core/lv_refr.c ****     disp_refr->last_part = 0;
 581:Drivers/lvgl/src/core/lv_refr.c ****     disp_refr->rendering_in_progress = true;
 582:Drivers/lvgl/src/core/lv_refr.c **** 
 583:Drivers/lvgl/src/core/lv_refr.c ****     for(i = 0; i < (int32_t)disp_refr->inv_p; i++) {
 584:Drivers/lvgl/src/core/lv_refr.c ****         /*Refresh the unjoined areas*/
 585:Drivers/lvgl/src/core/lv_refr.c ****         if(disp_refr->inv_area_joined[i]) continue;
 586:Drivers/lvgl/src/core/lv_refr.c **** 
 587:Drivers/lvgl/src/core/lv_refr.c ****         if(i == last_i) disp_refr->last_area = 1;
 588:Drivers/lvgl/src/core/lv_refr.c ****         disp_refr->last_part = 0;
 589:Drivers/lvgl/src/core/lv_refr.c **** 
 590:Drivers/lvgl/src/core/lv_refr.c ****         lv_area_t inv_a = disp_refr->inv_areas[i];
 591:Drivers/lvgl/src/core/lv_refr.c ****         if(disp_refr->render_mode == LV_DISPLAY_RENDER_MODE_PARTIAL) {
 592:Drivers/lvgl/src/core/lv_refr.c ****             /*Calculate the max row num*/
 593:Drivers/lvgl/src/core/lv_refr.c ****             int32_t w = lv_area_get_width(&inv_a);
 594:Drivers/lvgl/src/core/lv_refr.c ****             int32_t h = lv_area_get_height(&inv_a);
 595:Drivers/lvgl/src/core/lv_refr.c **** 
 596:Drivers/lvgl/src/core/lv_refr.c ****             int32_t max_row = get_max_row(disp_refr, w, h);
 597:Drivers/lvgl/src/core/lv_refr.c **** 
 598:Drivers/lvgl/src/core/lv_refr.c ****             int32_t row;
 599:Drivers/lvgl/src/core/lv_refr.c ****             int32_t row_last = 0;
 600:Drivers/lvgl/src/core/lv_refr.c ****             lv_area_t sub_area;
ARM GAS  /tmp/cc3ln58M.s 			page 12


 601:Drivers/lvgl/src/core/lv_refr.c ****             sub_area.x1 = inv_a.x1;
 602:Drivers/lvgl/src/core/lv_refr.c ****             sub_area.x2 = inv_a.x2;
 603:Drivers/lvgl/src/core/lv_refr.c ****             int32_t y_off = 0;
 604:Drivers/lvgl/src/core/lv_refr.c ****             for(row = inv_a.y1; row + max_row - 1 <= inv_a.y2; row += max_row) {
 605:Drivers/lvgl/src/core/lv_refr.c ****                 /*Calc. the next y coordinates of draw_buf*/
 606:Drivers/lvgl/src/core/lv_refr.c ****                 sub_area.y1 = row;
 607:Drivers/lvgl/src/core/lv_refr.c ****                 sub_area.y2 = row + max_row - 1;
 608:Drivers/lvgl/src/core/lv_refr.c ****                 if(sub_area.y2 > inv_a.y2) sub_area.y2 = inv_a.y2;
 609:Drivers/lvgl/src/core/lv_refr.c ****                 row_last = sub_area.y2;
 610:Drivers/lvgl/src/core/lv_refr.c ****                 if(inv_a.y2 == row_last) disp_refr->last_part = 1;
 611:Drivers/lvgl/src/core/lv_refr.c ****                 refr_area(&sub_area, y_off);
 612:Drivers/lvgl/src/core/lv_refr.c ****                 y_off += lv_area_get_height(&sub_area);
 613:Drivers/lvgl/src/core/lv_refr.c ****                 draw_buf_flush(disp_refr);
 614:Drivers/lvgl/src/core/lv_refr.c ****             }
 615:Drivers/lvgl/src/core/lv_refr.c **** 
 616:Drivers/lvgl/src/core/lv_refr.c ****             /*If the last y coordinates are not handled yet ...*/
 617:Drivers/lvgl/src/core/lv_refr.c ****             if(inv_a.y2 != row_last) {
 618:Drivers/lvgl/src/core/lv_refr.c ****                 /*Calc. the next y coordinates of draw_buf*/
 619:Drivers/lvgl/src/core/lv_refr.c ****                 sub_area.y1 = row;
 620:Drivers/lvgl/src/core/lv_refr.c ****                 sub_area.y2 = inv_a.y2;
 621:Drivers/lvgl/src/core/lv_refr.c ****                 disp_refr->last_part = 1;
 622:Drivers/lvgl/src/core/lv_refr.c ****                 refr_area(&sub_area, y_off);
 623:Drivers/lvgl/src/core/lv_refr.c ****                 y_off += lv_area_get_height(&sub_area);
 624:Drivers/lvgl/src/core/lv_refr.c ****                 draw_buf_flush(disp_refr);
 625:Drivers/lvgl/src/core/lv_refr.c ****             }
 626:Drivers/lvgl/src/core/lv_refr.c ****         }
 627:Drivers/lvgl/src/core/lv_refr.c ****         else if(disp_refr->render_mode == LV_DISPLAY_RENDER_MODE_FULL ||
 628:Drivers/lvgl/src/core/lv_refr.c ****                 disp_refr->render_mode == LV_DISPLAY_RENDER_MODE_DIRECT) {
 629:Drivers/lvgl/src/core/lv_refr.c ****             disp_refr->last_part = 1;
 630:Drivers/lvgl/src/core/lv_refr.c ****             refr_area(&disp_refr->inv_areas[i], 0);
 631:Drivers/lvgl/src/core/lv_refr.c ****             draw_buf_flush(disp_refr);
 632:Drivers/lvgl/src/core/lv_refr.c ****         }
 633:Drivers/lvgl/src/core/lv_refr.c ****     }
 634:Drivers/lvgl/src/core/lv_refr.c **** 
 635:Drivers/lvgl/src/core/lv_refr.c ****     lv_display_send_event(disp_refr, LV_EVENT_RENDER_READY, NULL);
 636:Drivers/lvgl/src/core/lv_refr.c ****     disp_refr->rendering_in_progress = false;
 637:Drivers/lvgl/src/core/lv_refr.c ****     LV_PROFILER_REFR_END;
 638:Drivers/lvgl/src/core/lv_refr.c **** }
 639:Drivers/lvgl/src/core/lv_refr.c **** 
 640:Drivers/lvgl/src/core/lv_refr.c **** /**
 641:Drivers/lvgl/src/core/lv_refr.c ****  * Reshape the draw buffer if required
 642:Drivers/lvgl/src/core/lv_refr.c ****  * @param layer  pointer to a layer which will be drawn
 643:Drivers/lvgl/src/core/lv_refr.c ****  */
 644:Drivers/lvgl/src/core/lv_refr.c **** static void layer_reshape_draw_buf(lv_layer_t * layer, uint32_t stride)
 645:Drivers/lvgl/src/core/lv_refr.c **** {
 646:Drivers/lvgl/src/core/lv_refr.c ****     lv_draw_buf_t * ret = lv_draw_buf_reshape(
 647:Drivers/lvgl/src/core/lv_refr.c ****                               layer->draw_buf,
 648:Drivers/lvgl/src/core/lv_refr.c ****                               layer->color_format,
 649:Drivers/lvgl/src/core/lv_refr.c ****                               lv_area_get_width(&layer->buf_area),
 650:Drivers/lvgl/src/core/lv_refr.c ****                               lv_area_get_height(&layer->buf_area),
 651:Drivers/lvgl/src/core/lv_refr.c ****                               stride);
 652:Drivers/lvgl/src/core/lv_refr.c ****     LV_UNUSED(ret);
 653:Drivers/lvgl/src/core/lv_refr.c ****     LV_ASSERT_NULL(ret);
 654:Drivers/lvgl/src/core/lv_refr.c **** }
 655:Drivers/lvgl/src/core/lv_refr.c **** 
 656:Drivers/lvgl/src/core/lv_refr.c **** /**
 657:Drivers/lvgl/src/core/lv_refr.c ****  * Refresh an area if there is Virtual Display Buffer
ARM GAS  /tmp/cc3ln58M.s 			page 13


 658:Drivers/lvgl/src/core/lv_refr.c ****  * @param area_p  pointer to an area to refresh
 659:Drivers/lvgl/src/core/lv_refr.c ****  */
 660:Drivers/lvgl/src/core/lv_refr.c **** static void refr_area(const lv_area_t * area_p, int32_t y_offset)
 661:Drivers/lvgl/src/core/lv_refr.c **** {
 662:Drivers/lvgl/src/core/lv_refr.c ****     LV_PROFILER_REFR_BEGIN;
 663:Drivers/lvgl/src/core/lv_refr.c ****     lv_layer_t * layer = disp_refr->layer_head;
 664:Drivers/lvgl/src/core/lv_refr.c ****     layer->draw_buf = disp_refr->buf_act;
 665:Drivers/lvgl/src/core/lv_refr.c ****     layer->_clip_area = *area_p;
 666:Drivers/lvgl/src/core/lv_refr.c ****     layer->phy_clip_area = *area_p;
 667:Drivers/lvgl/src/core/lv_refr.c ****     layer->partial_y_offset = y_offset;
 668:Drivers/lvgl/src/core/lv_refr.c **** 
 669:Drivers/lvgl/src/core/lv_refr.c ****     if(disp_refr->render_mode == LV_DISPLAY_RENDER_MODE_FULL) {
 670:Drivers/lvgl/src/core/lv_refr.c ****         /*In full mode the area is always the full screen, so the buffer area to it too*/
 671:Drivers/lvgl/src/core/lv_refr.c ****         layer->buf_area = *area_p;
 672:Drivers/lvgl/src/core/lv_refr.c ****         layer_reshape_draw_buf(layer, layer->draw_buf->header.stride);
 673:Drivers/lvgl/src/core/lv_refr.c **** 
 674:Drivers/lvgl/src/core/lv_refr.c ****     }
 675:Drivers/lvgl/src/core/lv_refr.c ****     else if(disp_refr->render_mode == LV_DISPLAY_RENDER_MODE_PARTIAL) {
 676:Drivers/lvgl/src/core/lv_refr.c ****         /*In partial mode render this area to the buffer*/
 677:Drivers/lvgl/src/core/lv_refr.c ****         layer->buf_area = *area_p;
 678:Drivers/lvgl/src/core/lv_refr.c ****         layer_reshape_draw_buf(layer, LV_STRIDE_AUTO);
 679:Drivers/lvgl/src/core/lv_refr.c ****     }
 680:Drivers/lvgl/src/core/lv_refr.c ****     else if(disp_refr->render_mode == LV_DISPLAY_RENDER_MODE_DIRECT) {
 681:Drivers/lvgl/src/core/lv_refr.c ****         /*In direct mode the the buffer area is always the whole screen*/
 682:Drivers/lvgl/src/core/lv_refr.c ****         layer->buf_area.x1 = 0;
 683:Drivers/lvgl/src/core/lv_refr.c ****         layer->buf_area.y1 = 0;
 684:Drivers/lvgl/src/core/lv_refr.c ****         layer->buf_area.x2 = lv_display_get_horizontal_resolution(disp_refr) - 1;
 685:Drivers/lvgl/src/core/lv_refr.c ****         layer->buf_area.y2 = lv_display_get_vertical_resolution(disp_refr) - 1;
 686:Drivers/lvgl/src/core/lv_refr.c ****         layer_reshape_draw_buf(layer, layer->draw_buf->header.stride);
 687:Drivers/lvgl/src/core/lv_refr.c ****     }
 688:Drivers/lvgl/src/core/lv_refr.c **** 
 689:Drivers/lvgl/src/core/lv_refr.c ****     /*Try to divide the area to smaller tiles*/
 690:Drivers/lvgl/src/core/lv_refr.c ****     uint32_t tile_cnt = 1;
 691:Drivers/lvgl/src/core/lv_refr.c ****     int32_t tile_h = lv_area_get_height(area_p);
 692:Drivers/lvgl/src/core/lv_refr.c ****     if(LV_COLOR_FORMAT_IS_INDEXED(layer->color_format) == false) {
 693:Drivers/lvgl/src/core/lv_refr.c ****         /* Assume that the the buffer size (can be screen sized or smaller in case of partial mode)
 694:Drivers/lvgl/src/core/lv_refr.c ****          * and max tile size are the optimal scenario. From this calculate the ideal tile size
 695:Drivers/lvgl/src/core/lv_refr.c ****          * and set the tile count and tile height accordingly.
 696:Drivers/lvgl/src/core/lv_refr.c ****          */
 697:Drivers/lvgl/src/core/lv_refr.c ****         uint32_t max_tile_cnt = disp_refr->tile_cnt;
 698:Drivers/lvgl/src/core/lv_refr.c ****         uint32_t total_buf_size = layer->draw_buf->data_size;
 699:Drivers/lvgl/src/core/lv_refr.c ****         uint32_t ideal_tile_size = total_buf_size / max_tile_cnt;
 700:Drivers/lvgl/src/core/lv_refr.c ****         uint32_t area_buf_size = lv_area_get_size(area_p) * lv_color_format_get_size(layer->color_f
 701:Drivers/lvgl/src/core/lv_refr.c **** 
 702:Drivers/lvgl/src/core/lv_refr.c ****         tile_cnt = (area_buf_size + (ideal_tile_size - 1)) / ideal_tile_size; /*Round up*/
 703:Drivers/lvgl/src/core/lv_refr.c ****         tile_h = lv_area_get_height(area_p) / tile_cnt;
 704:Drivers/lvgl/src/core/lv_refr.c ****     }
 705:Drivers/lvgl/src/core/lv_refr.c **** 
 706:Drivers/lvgl/src/core/lv_refr.c ****     if(tile_cnt == 1) {
 707:Drivers/lvgl/src/core/lv_refr.c ****         refr_configured_layer(layer);
 708:Drivers/lvgl/src/core/lv_refr.c ****     }
 709:Drivers/lvgl/src/core/lv_refr.c ****     else {
 710:Drivers/lvgl/src/core/lv_refr.c ****         /* Don't draw to the layers buffer of the display but create smaller dummy layers which are
 711:Drivers/lvgl/src/core/lv_refr.c ****          * display's layer buffer. These will be the tiles. By using tiles it's more likely that th
 712:Drivers/lvgl/src/core/lv_refr.c ****          * be independent areas for each draw unit. */
 713:Drivers/lvgl/src/core/lv_refr.c ****         lv_layer_t * tile_layers = lv_malloc(tile_cnt * sizeof(lv_layer_t));
 714:Drivers/lvgl/src/core/lv_refr.c ****         LV_ASSERT_MALLOC(tile_layers);
ARM GAS  /tmp/cc3ln58M.s 			page 14


 715:Drivers/lvgl/src/core/lv_refr.c ****         if(tile_layers == NULL) {
 716:Drivers/lvgl/src/core/lv_refr.c ****             disp_refr->refreshed_area = *area_p;
 717:Drivers/lvgl/src/core/lv_refr.c ****             LV_PROFILER_REFR_END;
 718:Drivers/lvgl/src/core/lv_refr.c ****             return;
 719:Drivers/lvgl/src/core/lv_refr.c ****         }
 720:Drivers/lvgl/src/core/lv_refr.c ****         uint32_t i;
 721:Drivers/lvgl/src/core/lv_refr.c ****         for(i = 0; i < tile_cnt; i++) {
 722:Drivers/lvgl/src/core/lv_refr.c ****             lv_area_t tile_area;
 723:Drivers/lvgl/src/core/lv_refr.c ****             lv_area_set(&tile_area, area_p->x1, area_p->y1 + i * tile_h,
 724:Drivers/lvgl/src/core/lv_refr.c ****                         area_p->x2, area_p->y1 + (i + 1) * tile_h - 1);
 725:Drivers/lvgl/src/core/lv_refr.c **** 
 726:Drivers/lvgl/src/core/lv_refr.c ****             if(i == tile_cnt - 1) {
 727:Drivers/lvgl/src/core/lv_refr.c ****                 tile_area.y2 = area_p->y2;
 728:Drivers/lvgl/src/core/lv_refr.c ****             }
 729:Drivers/lvgl/src/core/lv_refr.c **** 
 730:Drivers/lvgl/src/core/lv_refr.c ****             lv_layer_t * tile_layer = &tile_layers[i];
 731:Drivers/lvgl/src/core/lv_refr.c ****             lv_draw_layer_init(tile_layer, NULL, layer->color_format, &tile_area);
 732:Drivers/lvgl/src/core/lv_refr.c ****             tile_layer->buf_area = layer->buf_area; /*the buffer is still large*/
 733:Drivers/lvgl/src/core/lv_refr.c ****             tile_layer->draw_buf = layer->draw_buf;
 734:Drivers/lvgl/src/core/lv_refr.c ****             refr_configured_layer(tile_layer);
 735:Drivers/lvgl/src/core/lv_refr.c ****         }
 736:Drivers/lvgl/src/core/lv_refr.c **** 
 737:Drivers/lvgl/src/core/lv_refr.c **** 
 738:Drivers/lvgl/src/core/lv_refr.c ****         /*Wait until all tiles are ready and destroy remove them*/
 739:Drivers/lvgl/src/core/lv_refr.c ****         for(i = 0; i < tile_cnt; i++) {
 740:Drivers/lvgl/src/core/lv_refr.c ****             lv_layer_t * tile_layer = &tile_layers[i];
 741:Drivers/lvgl/src/core/lv_refr.c ****             while(tile_layer->draw_task_head) {
 742:Drivers/lvgl/src/core/lv_refr.c ****                 lv_draw_dispatch_wait_for_request();
 743:Drivers/lvgl/src/core/lv_refr.c ****                 lv_draw_dispatch();
 744:Drivers/lvgl/src/core/lv_refr.c ****             }
 745:Drivers/lvgl/src/core/lv_refr.c **** 
 746:Drivers/lvgl/src/core/lv_refr.c ****             lv_layer_t * layer_i = disp_refr->layer_head;
 747:Drivers/lvgl/src/core/lv_refr.c ****             while(layer_i) {
 748:Drivers/lvgl/src/core/lv_refr.c ****                 if(layer_i->next == tile_layer) {
 749:Drivers/lvgl/src/core/lv_refr.c ****                     layer_i->next = tile_layer->next;
 750:Drivers/lvgl/src/core/lv_refr.c ****                     break;
 751:Drivers/lvgl/src/core/lv_refr.c ****                 }
 752:Drivers/lvgl/src/core/lv_refr.c ****                 layer_i = layer_i->next;
 753:Drivers/lvgl/src/core/lv_refr.c ****             }
 754:Drivers/lvgl/src/core/lv_refr.c **** 
 755:Drivers/lvgl/src/core/lv_refr.c ****             if(disp_refr->layer_deinit) disp_refr->layer_deinit(disp_refr, tile_layer);
 756:Drivers/lvgl/src/core/lv_refr.c ****         }
 757:Drivers/lvgl/src/core/lv_refr.c ****         lv_free(tile_layers);
 758:Drivers/lvgl/src/core/lv_refr.c ****     }
 759:Drivers/lvgl/src/core/lv_refr.c **** 
 760:Drivers/lvgl/src/core/lv_refr.c ****     disp_refr->refreshed_area = *area_p;
 761:Drivers/lvgl/src/core/lv_refr.c ****     LV_PROFILER_REFR_END;
 762:Drivers/lvgl/src/core/lv_refr.c **** }
 763:Drivers/lvgl/src/core/lv_refr.c **** 
 764:Drivers/lvgl/src/core/lv_refr.c **** static void refr_configured_layer(lv_layer_t * layer)
 765:Drivers/lvgl/src/core/lv_refr.c **** {
 766:Drivers/lvgl/src/core/lv_refr.c ****     LV_PROFILER_REFR_BEGIN;
 767:Drivers/lvgl/src/core/lv_refr.c **** 
 768:Drivers/lvgl/src/core/lv_refr.c ****     lv_layer_reset(layer);
 769:Drivers/lvgl/src/core/lv_refr.c **** 
 770:Drivers/lvgl/src/core/lv_refr.c ****     /* In single buffered mode wait here until the buffer is freed.
 771:Drivers/lvgl/src/core/lv_refr.c ****      * Else we would draw into the buffer while it's still being transferred to the display*/
ARM GAS  /tmp/cc3ln58M.s 			page 15


 772:Drivers/lvgl/src/core/lv_refr.c ****     if(!lv_display_is_double_buffered(disp_refr)) {
 773:Drivers/lvgl/src/core/lv_refr.c ****         wait_for_flushing(disp_refr);
 774:Drivers/lvgl/src/core/lv_refr.c ****     }
 775:Drivers/lvgl/src/core/lv_refr.c ****     /*If the screen is transparent initialize it when the flushing is ready*/
 776:Drivers/lvgl/src/core/lv_refr.c ****     if(lv_color_format_has_alpha(disp_refr->color_format)) {
 777:Drivers/lvgl/src/core/lv_refr.c ****         lv_area_t clear_area = layer->_clip_area;
 778:Drivers/lvgl/src/core/lv_refr.c ****         lv_area_move(&clear_area, -layer->buf_area.x1, -layer->buf_area.y1);
 779:Drivers/lvgl/src/core/lv_refr.c ****         lv_draw_buf_clear(layer->draw_buf, &clear_area);
 780:Drivers/lvgl/src/core/lv_refr.c ****     }
 781:Drivers/lvgl/src/core/lv_refr.c **** 
 782:Drivers/lvgl/src/core/lv_refr.c ****     lv_obj_t * top_act_scr = NULL;
 783:Drivers/lvgl/src/core/lv_refr.c ****     lv_obj_t * top_prev_scr = NULL;
 784:Drivers/lvgl/src/core/lv_refr.c **** 
 785:Drivers/lvgl/src/core/lv_refr.c ****     /*Get the most top object which is not covered by others*/
 786:Drivers/lvgl/src/core/lv_refr.c ****     top_act_scr = lv_refr_get_top_obj(&layer->_clip_area, lv_display_get_screen_active(disp_refr));
 787:Drivers/lvgl/src/core/lv_refr.c ****     if(disp_refr->prev_scr) {
 788:Drivers/lvgl/src/core/lv_refr.c ****         top_prev_scr = lv_refr_get_top_obj(&layer->_clip_area, disp_refr->prev_scr);
 789:Drivers/lvgl/src/core/lv_refr.c ****     }
 790:Drivers/lvgl/src/core/lv_refr.c **** 
 791:Drivers/lvgl/src/core/lv_refr.c ****     /*Draw a bottom layer background if there is no top object*/
 792:Drivers/lvgl/src/core/lv_refr.c ****     if(top_act_scr == NULL && top_prev_scr == NULL) {
 793:Drivers/lvgl/src/core/lv_refr.c ****         refr_obj_and_children(layer, lv_display_get_layer_bottom(disp_refr));
 794:Drivers/lvgl/src/core/lv_refr.c ****     }
 795:Drivers/lvgl/src/core/lv_refr.c **** 
 796:Drivers/lvgl/src/core/lv_refr.c ****     if(disp_refr->draw_prev_over_act) {
 797:Drivers/lvgl/src/core/lv_refr.c ****         if(top_act_scr == NULL) top_act_scr = disp_refr->act_scr;
 798:Drivers/lvgl/src/core/lv_refr.c ****         refr_obj_and_children(layer, top_act_scr);
 799:Drivers/lvgl/src/core/lv_refr.c **** 
 800:Drivers/lvgl/src/core/lv_refr.c ****         /*Refresh the previous screen if any*/
 801:Drivers/lvgl/src/core/lv_refr.c ****         if(disp_refr->prev_scr) {
 802:Drivers/lvgl/src/core/lv_refr.c ****             if(top_prev_scr == NULL) top_prev_scr = disp_refr->prev_scr;
 803:Drivers/lvgl/src/core/lv_refr.c ****             refr_obj_and_children(layer, top_prev_scr);
 804:Drivers/lvgl/src/core/lv_refr.c ****         }
 805:Drivers/lvgl/src/core/lv_refr.c ****     }
 806:Drivers/lvgl/src/core/lv_refr.c ****     else {
 807:Drivers/lvgl/src/core/lv_refr.c ****         /*Refresh the previous screen if any*/
 808:Drivers/lvgl/src/core/lv_refr.c ****         if(disp_refr->prev_scr) {
 809:Drivers/lvgl/src/core/lv_refr.c ****             if(top_prev_scr == NULL) top_prev_scr = disp_refr->prev_scr;
 810:Drivers/lvgl/src/core/lv_refr.c ****             refr_obj_and_children(layer, top_prev_scr);
 811:Drivers/lvgl/src/core/lv_refr.c ****         }
 812:Drivers/lvgl/src/core/lv_refr.c **** 
 813:Drivers/lvgl/src/core/lv_refr.c ****         if(top_act_scr == NULL) top_act_scr = disp_refr->act_scr;
 814:Drivers/lvgl/src/core/lv_refr.c ****         refr_obj_and_children(layer, top_act_scr);
 815:Drivers/lvgl/src/core/lv_refr.c ****     }
 816:Drivers/lvgl/src/core/lv_refr.c **** 
 817:Drivers/lvgl/src/core/lv_refr.c ****     /*Also refresh top and sys layer unconditionally*/
 818:Drivers/lvgl/src/core/lv_refr.c ****     refr_obj_and_children(layer, lv_display_get_layer_top(disp_refr));
 819:Drivers/lvgl/src/core/lv_refr.c ****     refr_obj_and_children(layer, lv_display_get_layer_sys(disp_refr));
 820:Drivers/lvgl/src/core/lv_refr.c **** 
 821:Drivers/lvgl/src/core/lv_refr.c ****     LV_PROFILER_REFR_END;
 822:Drivers/lvgl/src/core/lv_refr.c **** }
 823:Drivers/lvgl/src/core/lv_refr.c **** 
 824:Drivers/lvgl/src/core/lv_refr.c **** /**
 825:Drivers/lvgl/src/core/lv_refr.c ****  * Search the most top object which fully covers an area
 826:Drivers/lvgl/src/core/lv_refr.c ****  * @param area_p pointer to an area
 827:Drivers/lvgl/src/core/lv_refr.c ****  * @param obj the first object to start the searching (typically a screen)
 828:Drivers/lvgl/src/core/lv_refr.c ****  * @return
ARM GAS  /tmp/cc3ln58M.s 			page 16


 829:Drivers/lvgl/src/core/lv_refr.c ****  */
 830:Drivers/lvgl/src/core/lv_refr.c **** static lv_obj_t * lv_refr_get_top_obj(const lv_area_t * area_p, lv_obj_t * obj)
 831:Drivers/lvgl/src/core/lv_refr.c **** {
 832:Drivers/lvgl/src/core/lv_refr.c ****     lv_obj_t * found_p = NULL;
 833:Drivers/lvgl/src/core/lv_refr.c **** 
 834:Drivers/lvgl/src/core/lv_refr.c ****     if(lv_area_is_in(area_p, &obj->coords, 0) == false) return NULL;
 835:Drivers/lvgl/src/core/lv_refr.c ****     if(lv_obj_has_flag(obj, LV_OBJ_FLAG_HIDDEN)) return NULL;
 836:Drivers/lvgl/src/core/lv_refr.c ****     if(lv_obj_get_layer_type(obj) != LV_LAYER_TYPE_NONE) return NULL;
 837:Drivers/lvgl/src/core/lv_refr.c ****     if(lv_obj_get_style_opa(obj, LV_PART_MAIN) < LV_OPA_MAX) return NULL;
 838:Drivers/lvgl/src/core/lv_refr.c **** 
 839:Drivers/lvgl/src/core/lv_refr.c ****     /*If this object is fully cover the draw area then check the children too*/
 840:Drivers/lvgl/src/core/lv_refr.c ****     lv_cover_check_info_t info;
 841:Drivers/lvgl/src/core/lv_refr.c ****     info.res = LV_COVER_RES_COVER;
 842:Drivers/lvgl/src/core/lv_refr.c ****     info.area = area_p;
 843:Drivers/lvgl/src/core/lv_refr.c ****     lv_obj_send_event(obj, LV_EVENT_COVER_CHECK, &info);
 844:Drivers/lvgl/src/core/lv_refr.c ****     if(info.res == LV_COVER_RES_MASKED) return NULL;
 845:Drivers/lvgl/src/core/lv_refr.c **** 
 846:Drivers/lvgl/src/core/lv_refr.c ****     int32_t i;
 847:Drivers/lvgl/src/core/lv_refr.c ****     int32_t child_cnt = lv_obj_get_child_count(obj);
 848:Drivers/lvgl/src/core/lv_refr.c ****     for(i = child_cnt - 1; i >= 0; i--) {
 849:Drivers/lvgl/src/core/lv_refr.c ****         lv_obj_t * child = obj->spec_attr->children[i];
 850:Drivers/lvgl/src/core/lv_refr.c ****         found_p = lv_refr_get_top_obj(area_p, child);
 851:Drivers/lvgl/src/core/lv_refr.c **** 
 852:Drivers/lvgl/src/core/lv_refr.c ****         /*If a children is ok then break*/
 853:Drivers/lvgl/src/core/lv_refr.c ****         if(found_p != NULL) {
 854:Drivers/lvgl/src/core/lv_refr.c ****             break;
 855:Drivers/lvgl/src/core/lv_refr.c ****         }
 856:Drivers/lvgl/src/core/lv_refr.c ****     }
 857:Drivers/lvgl/src/core/lv_refr.c **** 
 858:Drivers/lvgl/src/core/lv_refr.c ****     /*If no better children use this object*/
 859:Drivers/lvgl/src/core/lv_refr.c ****     if(found_p == NULL && info.res == LV_COVER_RES_COVER) {
 860:Drivers/lvgl/src/core/lv_refr.c ****         found_p = obj;
 861:Drivers/lvgl/src/core/lv_refr.c ****     }
 862:Drivers/lvgl/src/core/lv_refr.c **** 
 863:Drivers/lvgl/src/core/lv_refr.c ****     return found_p;
 864:Drivers/lvgl/src/core/lv_refr.c **** }
 865:Drivers/lvgl/src/core/lv_refr.c **** 
 866:Drivers/lvgl/src/core/lv_refr.c **** /**
 867:Drivers/lvgl/src/core/lv_refr.c ****  * Make the refreshing from an object. Draw all its children and the youngers too.
 868:Drivers/lvgl/src/core/lv_refr.c ****  * @param top_p pointer to an objects. Start the drawing from it.
 869:Drivers/lvgl/src/core/lv_refr.c ****  * @param mask_p pointer to an area, the objects will be drawn only here
 870:Drivers/lvgl/src/core/lv_refr.c ****  */
 871:Drivers/lvgl/src/core/lv_refr.c **** static void refr_obj_and_children(lv_layer_t * layer, lv_obj_t * top_obj)
 872:Drivers/lvgl/src/core/lv_refr.c **** {
 873:Drivers/lvgl/src/core/lv_refr.c ****     /*Normally always will be a top_obj (at least the screen)
 874:Drivers/lvgl/src/core/lv_refr.c ****      *but in special cases (e.g. if the screen has alpha) it won't.
 875:Drivers/lvgl/src/core/lv_refr.c ****      *In this case use the screen directly*/
 876:Drivers/lvgl/src/core/lv_refr.c ****     if(top_obj == NULL) top_obj = lv_display_get_screen_active(disp_refr);
 877:Drivers/lvgl/src/core/lv_refr.c ****     if(top_obj == NULL) return;  /*Shouldn't happen*/
 878:Drivers/lvgl/src/core/lv_refr.c **** 
 879:Drivers/lvgl/src/core/lv_refr.c ****     LV_PROFILER_REFR_BEGIN;
 880:Drivers/lvgl/src/core/lv_refr.c ****     /*Draw the 'younger' sibling objects because they can be on top_obj*/
 881:Drivers/lvgl/src/core/lv_refr.c ****     lv_obj_t * parent;
 882:Drivers/lvgl/src/core/lv_refr.c ****     lv_obj_t * border_p = top_obj;
 883:Drivers/lvgl/src/core/lv_refr.c **** 
 884:Drivers/lvgl/src/core/lv_refr.c ****     parent = lv_obj_get_parent(top_obj);
 885:Drivers/lvgl/src/core/lv_refr.c **** 
ARM GAS  /tmp/cc3ln58M.s 			page 17


 886:Drivers/lvgl/src/core/lv_refr.c ****     /*Calculate the recolor before the parent*/
 887:Drivers/lvgl/src/core/lv_refr.c ****     if(parent) {
 888:Drivers/lvgl/src/core/lv_refr.c ****         layer->recolor = lv_obj_get_style_recolor_recursive(parent, LV_PART_MAIN);
 889:Drivers/lvgl/src/core/lv_refr.c ****     }
 890:Drivers/lvgl/src/core/lv_refr.c **** 
 891:Drivers/lvgl/src/core/lv_refr.c ****     /*Refresh the top object and its children*/
 892:Drivers/lvgl/src/core/lv_refr.c ****     refr_obj(layer, top_obj);
 893:Drivers/lvgl/src/core/lv_refr.c **** 
 894:Drivers/lvgl/src/core/lv_refr.c ****     /*Do until not reach the screen*/
 895:Drivers/lvgl/src/core/lv_refr.c ****     while(parent != NULL) {
 896:Drivers/lvgl/src/core/lv_refr.c ****         bool go = false;
 897:Drivers/lvgl/src/core/lv_refr.c ****         uint32_t i;
 898:Drivers/lvgl/src/core/lv_refr.c ****         uint32_t child_cnt = lv_obj_get_child_count(parent);
 899:Drivers/lvgl/src/core/lv_refr.c ****         for(i = 0; i < child_cnt; i++) {
 900:Drivers/lvgl/src/core/lv_refr.c ****             lv_obj_t * child = parent->spec_attr->children[i];
 901:Drivers/lvgl/src/core/lv_refr.c ****             if(!go) {
 902:Drivers/lvgl/src/core/lv_refr.c ****                 if(child == border_p) go = true;
 903:Drivers/lvgl/src/core/lv_refr.c ****             }
 904:Drivers/lvgl/src/core/lv_refr.c ****             else {
 905:Drivers/lvgl/src/core/lv_refr.c ****                 /*Refresh the objects*/
 906:Drivers/lvgl/src/core/lv_refr.c ****                 refr_obj(layer, child);
 907:Drivers/lvgl/src/core/lv_refr.c ****             }
 908:Drivers/lvgl/src/core/lv_refr.c ****         }
 909:Drivers/lvgl/src/core/lv_refr.c **** 
 910:Drivers/lvgl/src/core/lv_refr.c ****         /*Call the post draw function of the parents of the to object*/
 911:Drivers/lvgl/src/core/lv_refr.c ****         lv_obj_send_event(parent, LV_EVENT_DRAW_POST_BEGIN, (void *)layer);
 912:Drivers/lvgl/src/core/lv_refr.c ****         lv_obj_send_event(parent, LV_EVENT_DRAW_POST, (void *)layer);
 913:Drivers/lvgl/src/core/lv_refr.c ****         lv_obj_send_event(parent, LV_EVENT_DRAW_POST_END, (void *)layer);
 914:Drivers/lvgl/src/core/lv_refr.c **** 
 915:Drivers/lvgl/src/core/lv_refr.c ****         /*The new border will be the last parents,
 916:Drivers/lvgl/src/core/lv_refr.c ****          *so the 'younger' brothers of parent will be refreshed*/
 917:Drivers/lvgl/src/core/lv_refr.c ****         border_p = parent;
 918:Drivers/lvgl/src/core/lv_refr.c ****         /*Go a level deeper*/
 919:Drivers/lvgl/src/core/lv_refr.c ****         parent = lv_obj_get_parent(parent);
 920:Drivers/lvgl/src/core/lv_refr.c ****     }
 921:Drivers/lvgl/src/core/lv_refr.c ****     LV_PROFILER_REFR_END;
 922:Drivers/lvgl/src/core/lv_refr.c **** }
 923:Drivers/lvgl/src/core/lv_refr.c **** 
 924:Drivers/lvgl/src/core/lv_refr.c **** static lv_result_t layer_get_area(lv_layer_t * layer, lv_obj_t * obj, lv_layer_type_t layer_type,
 925:Drivers/lvgl/src/core/lv_refr.c ****                                   lv_area_t * layer_area_out, lv_area_t * obj_draw_size_out)
 926:Drivers/lvgl/src/core/lv_refr.c **** {
  29              		.loc 1 926 1 view -0
  30              		.cfi_startproc
  31              		@ args = 4, pretend = 0, frame = 48
  32              		@ frame_needed = 0, uses_anonymous_args = 0
  33              		.loc 1 926 1 is_stmt 0 view .LVU1
  34 0000 2DE9F043 		push	{r4, r5, r6, r7, r8, r9, lr}
  35              	.LCFI0:
  36              		.cfi_def_cfa_offset 28
  37              		.cfi_offset 4, -28
  38              		.cfi_offset 5, -24
  39              		.cfi_offset 6, -20
  40              		.cfi_offset 7, -16
  41              		.cfi_offset 8, -12
  42              		.cfi_offset 9, -8
  43              		.cfi_offset 14, -4
  44 0004 8DB0     		sub	sp, sp, #52
ARM GAS  /tmp/cc3ln58M.s 			page 18


  45              	.LCFI1:
  46              		.cfi_def_cfa_offset 80
  47 0006 8046     		mov	r8, r0
  48 0008 0E46     		mov	r6, r1
  49 000a 1446     		mov	r4, r2
  50 000c 9946     		mov	r9, r3
  51 000e 149F     		ldr	r7, [sp, #80]
 927:Drivers/lvgl/src/core/lv_refr.c ****     int32_t ext_draw_size = lv_obj_get_ext_draw_size(obj);
  52              		.loc 1 927 5 is_stmt 1 view .LVU2
  53              		.loc 1 927 29 is_stmt 0 view .LVU3
  54 0010 0846     		mov	r0, r1
  55              	.LVL1:
  56              		.loc 1 927 29 view .LVU4
  57 0012 FFF7FEFF 		bl	lv_obj_get_ext_draw_size
  58              	.LVL2:
  59              		.loc 1 927 29 view .LVU5
  60 0016 0546     		mov	r5, r0
  61              	.LVL3:
 928:Drivers/lvgl/src/core/lv_refr.c ****     lv_obj_get_coords(obj, obj_draw_size_out);
  62              		.loc 1 928 5 is_stmt 1 view .LVU6
  63 0018 3946     		mov	r1, r7
  64 001a 3046     		mov	r0, r6
  65              	.LVL4:
  66              		.loc 1 928 5 is_stmt 0 view .LVU7
  67 001c FFF7FEFF 		bl	lv_obj_get_coords
  68              	.LVL5:
 929:Drivers/lvgl/src/core/lv_refr.c ****     lv_area_increase(obj_draw_size_out, ext_draw_size, ext_draw_size);
  69              		.loc 1 929 5 is_stmt 1 view .LVU8
  70 0020 2A46     		mov	r2, r5
  71 0022 2946     		mov	r1, r5
  72 0024 3846     		mov	r0, r7
  73 0026 FFF7FEFF 		bl	lv_area_increase
  74              	.LVL6:
 930:Drivers/lvgl/src/core/lv_refr.c **** 
 931:Drivers/lvgl/src/core/lv_refr.c ****     if(layer_type == LV_LAYER_TYPE_TRANSFORM) {
  75              		.loc 1 931 5 view .LVU9
  76              		.loc 1 931 7 is_stmt 0 view .LVU10
  77 002a 022C     		cmp	r4, #2
  78 002c 05D0     		beq	.L8
 932:Drivers/lvgl/src/core/lv_refr.c ****         /*Get the transformed area and clip it to the current clip area.
 933:Drivers/lvgl/src/core/lv_refr.c ****          *This area needs to be updated on the screen.*/
 934:Drivers/lvgl/src/core/lv_refr.c ****         lv_area_t clip_coords_for_obj;
 935:Drivers/lvgl/src/core/lv_refr.c ****         lv_area_t tranf_coords = *obj_draw_size_out;
 936:Drivers/lvgl/src/core/lv_refr.c ****         lv_obj_get_transformed_area(obj, &tranf_coords, LV_OBJ_POINT_TRANSFORM_FLAG_NONE);
 937:Drivers/lvgl/src/core/lv_refr.c ****         if(!lv_area_intersect(&clip_coords_for_obj, &layer->_clip_area, &tranf_coords)) {
 938:Drivers/lvgl/src/core/lv_refr.c ****             return LV_RESULT_INVALID;
 939:Drivers/lvgl/src/core/lv_refr.c ****         }
 940:Drivers/lvgl/src/core/lv_refr.c **** 
 941:Drivers/lvgl/src/core/lv_refr.c ****         /*Transform back (inverse) the transformed area.
 942:Drivers/lvgl/src/core/lv_refr.c ****          *It will tell which area of the non-transformed widget needs to be redrawn
 943:Drivers/lvgl/src/core/lv_refr.c ****          *in order to cover transformed area after transformation.*/
 944:Drivers/lvgl/src/core/lv_refr.c ****         lv_area_t inverse_clip_coords_for_obj = clip_coords_for_obj;
 945:Drivers/lvgl/src/core/lv_refr.c ****         lv_obj_get_transformed_area(obj, &inverse_clip_coords_for_obj, LV_OBJ_POINT_TRANSFORM_FLAG_
 946:Drivers/lvgl/src/core/lv_refr.c ****         if(!lv_area_intersect(&inverse_clip_coords_for_obj, &inverse_clip_coords_for_obj, obj_draw_
 947:Drivers/lvgl/src/core/lv_refr.c ****             return LV_RESULT_INVALID;
 948:Drivers/lvgl/src/core/lv_refr.c ****         }
 949:Drivers/lvgl/src/core/lv_refr.c **** 
ARM GAS  /tmp/cc3ln58M.s 			page 19


 950:Drivers/lvgl/src/core/lv_refr.c ****         *layer_area_out = inverse_clip_coords_for_obj;
 951:Drivers/lvgl/src/core/lv_refr.c ****         lv_area_increase(layer_area_out, 5, 5); /*To avoid rounding error*/
 952:Drivers/lvgl/src/core/lv_refr.c ****     }
 953:Drivers/lvgl/src/core/lv_refr.c ****     else if(layer_type == LV_LAYER_TYPE_SIMPLE) {
  79              		.loc 1 953 10 is_stmt 1 view .LVU11
  80              		.loc 1 953 12 is_stmt 0 view .LVU12
  81 002e 012C     		cmp	r4, #1
  82 0030 33D0     		beq	.L9
 954:Drivers/lvgl/src/core/lv_refr.c ****         lv_area_t clip_coords_for_obj;
 955:Drivers/lvgl/src/core/lv_refr.c ****         if(!lv_area_intersect(&clip_coords_for_obj, &layer->_clip_area, obj_draw_size_out)) {
 956:Drivers/lvgl/src/core/lv_refr.c ****             return LV_RESULT_INVALID;
 957:Drivers/lvgl/src/core/lv_refr.c ****         }
 958:Drivers/lvgl/src/core/lv_refr.c ****         *layer_area_out = clip_coords_for_obj;
 959:Drivers/lvgl/src/core/lv_refr.c ****     }
 960:Drivers/lvgl/src/core/lv_refr.c ****     else {
 961:Drivers/lvgl/src/core/lv_refr.c ****         LV_LOG_WARN("Unhandled layer type");
 962:Drivers/lvgl/src/core/lv_refr.c ****         return LV_RESULT_INVALID;
  83              		.loc 1 962 16 view .LVU13
  84 0032 0020     		movs	r0, #0
  85              	.LVL7:
  86              	.L4:
 963:Drivers/lvgl/src/core/lv_refr.c ****     }
 964:Drivers/lvgl/src/core/lv_refr.c **** 
 965:Drivers/lvgl/src/core/lv_refr.c ****     return LV_RESULT_OK;
 966:Drivers/lvgl/src/core/lv_refr.c **** }
  87              		.loc 1 966 1 view .LVU14
  88 0034 0DB0     		add	sp, sp, #52
  89              	.LCFI2:
  90              		.cfi_remember_state
  91              		.cfi_def_cfa_offset 28
  92              		@ sp needed
  93 0036 BDE8F083 		pop	{r4, r5, r6, r7, r8, r9, pc}
  94              	.LVL8:
  95              	.L8:
  96              	.LCFI3:
  97              		.cfi_restore_state
  98              	.LBB51:
 934:Drivers/lvgl/src/core/lv_refr.c ****         lv_area_t tranf_coords = *obj_draw_size_out;
  99              		.loc 1 934 9 is_stmt 1 view .LVU15
 935:Drivers/lvgl/src/core/lv_refr.c ****         lv_obj_get_transformed_area(obj, &tranf_coords, LV_OBJ_POINT_TRANSFORM_FLAG_NONE);
 100              		.loc 1 935 9 view .LVU16
 935:Drivers/lvgl/src/core/lv_refr.c ****         lv_obj_get_transformed_area(obj, &tranf_coords, LV_OBJ_POINT_TRANSFORM_FLAG_NONE);
 101              		.loc 1 935 19 is_stmt 0 view .LVU17
 102 003a 04AC     		add	r4, sp, #16
 103 003c 97E80F00 		ldm	r7, {r0, r1, r2, r3}
 104 0040 84E80F00 		stm	r4, {r0, r1, r2, r3}
 936:Drivers/lvgl/src/core/lv_refr.c ****         if(!lv_area_intersect(&clip_coords_for_obj, &layer->_clip_area, &tranf_coords)) {
 105              		.loc 1 936 9 is_stmt 1 view .LVU18
 106 0044 0022     		movs	r2, #0
 107 0046 2146     		mov	r1, r4
 108 0048 3046     		mov	r0, r6
 109 004a FFF7FEFF 		bl	lv_obj_get_transformed_area
 110              	.LVL9:
 937:Drivers/lvgl/src/core/lv_refr.c ****             return LV_RESULT_INVALID;
 111              		.loc 1 937 9 view .LVU19
 937:Drivers/lvgl/src/core/lv_refr.c ****             return LV_RESULT_INVALID;
 112              		.loc 1 937 13 is_stmt 0 view .LVU20
ARM GAS  /tmp/cc3ln58M.s 			page 20


 113 004e 2246     		mov	r2, r4
 114 0050 08F11801 		add	r1, r8, #24
 115 0054 6846     		mov	r0, sp
 116 0056 FFF7FEFF 		bl	lv_area_intersect
 117              	.LVL10:
 937:Drivers/lvgl/src/core/lv_refr.c ****             return LV_RESULT_INVALID;
 118              		.loc 1 937 11 discriminator 1 view .LVU21
 119 005a 08B9     		cbnz	r0, .L10
 120              	.L3:
 938:Drivers/lvgl/src/core/lv_refr.c ****         }
 121              		.loc 1 938 20 discriminator 1 view .LVU22
 122 005c 0020     		movs	r0, #0
 123 005e E9E7     		b	.L4
 124              	.L10:
 944:Drivers/lvgl/src/core/lv_refr.c ****         lv_obj_get_transformed_area(obj, &inverse_clip_coords_for_obj, LV_OBJ_POINT_TRANSFORM_FLAG_
 125              		.loc 1 944 9 is_stmt 1 view .LVU23
 944:Drivers/lvgl/src/core/lv_refr.c ****         lv_obj_get_transformed_area(obj, &inverse_clip_coords_for_obj, LV_OBJ_POINT_TRANSFORM_FLAG_
 126              		.loc 1 944 19 is_stmt 0 view .LVU24
 127 0060 08AC     		add	r4, sp, #32
 128 0062 9DE80F00 		ldm	sp, {r0, r1, r2, r3}
 129 0066 84E80F00 		stm	r4, {r0, r1, r2, r3}
 945:Drivers/lvgl/src/core/lv_refr.c ****         if(!lv_area_intersect(&inverse_clip_coords_for_obj, &inverse_clip_coords_for_obj, obj_draw_
 130              		.loc 1 945 9 is_stmt 1 view .LVU25
 131 006a 0222     		movs	r2, #2
 132 006c 2146     		mov	r1, r4
 133 006e 3046     		mov	r0, r6
 134 0070 FFF7FEFF 		bl	lv_obj_get_transformed_area
 135              	.LVL11:
 946:Drivers/lvgl/src/core/lv_refr.c ****             return LV_RESULT_INVALID;
 136              		.loc 1 946 9 view .LVU26
 946:Drivers/lvgl/src/core/lv_refr.c ****             return LV_RESULT_INVALID;
 137              		.loc 1 946 13 is_stmt 0 view .LVU27
 138 0074 3A46     		mov	r2, r7
 139 0076 2146     		mov	r1, r4
 140 0078 2046     		mov	r0, r4
 141 007a FFF7FEFF 		bl	lv_area_intersect
 142              	.LVL12:
 946:Drivers/lvgl/src/core/lv_refr.c ****             return LV_RESULT_INVALID;
 143              		.loc 1 946 11 discriminator 1 view .LVU28
 144 007e 0028     		cmp	r0, #0
 145 0080 ECD0     		beq	.L3
 950:Drivers/lvgl/src/core/lv_refr.c ****         lv_area_increase(layer_area_out, 5, 5); /*To avoid rounding error*/
 146              		.loc 1 950 9 is_stmt 1 view .LVU29
 950:Drivers/lvgl/src/core/lv_refr.c ****         lv_area_increase(layer_area_out, 5, 5); /*To avoid rounding error*/
 147              		.loc 1 950 25 is_stmt 0 view .LVU30
 148 0082 0CAB     		add	r3, sp, #48
 149 0084 13E90F00 		ldmdb	r3, {r0, r1, r2, r3}
 150 0088 89E80F00 		stm	r9, {r0, r1, r2, r3}
 951:Drivers/lvgl/src/core/lv_refr.c ****     }
 151              		.loc 1 951 9 is_stmt 1 view .LVU31
 152 008c 0522     		movs	r2, #5
 153 008e 1146     		mov	r1, r2
 154 0090 4846     		mov	r0, r9
 155 0092 FFF7FEFF 		bl	lv_area_increase
 156              	.LVL13:
 157              	.LBE51:
 965:Drivers/lvgl/src/core/lv_refr.c **** }
ARM GAS  /tmp/cc3ln58M.s 			page 21


 158              		.loc 1 965 12 is_stmt 0 view .LVU32
 159 0096 0120     		movs	r0, #1
 160 0098 CCE7     		b	.L4
 161              	.L9:
 162              	.LBB52:
 954:Drivers/lvgl/src/core/lv_refr.c ****         if(!lv_area_intersect(&clip_coords_for_obj, &layer->_clip_area, obj_draw_size_out)) {
 163              		.loc 1 954 9 is_stmt 1 view .LVU33
 955:Drivers/lvgl/src/core/lv_refr.c ****             return LV_RESULT_INVALID;
 164              		.loc 1 955 9 view .LVU34
 955:Drivers/lvgl/src/core/lv_refr.c ****             return LV_RESULT_INVALID;
 165              		.loc 1 955 13 is_stmt 0 view .LVU35
 166 009a 3A46     		mov	r2, r7
 167 009c 08F11801 		add	r1, r8, #24
 168 00a0 08A8     		add	r0, sp, #32
 169 00a2 FFF7FEFF 		bl	lv_area_intersect
 170              	.LVL14:
 955:Drivers/lvgl/src/core/lv_refr.c ****             return LV_RESULT_INVALID;
 171              		.loc 1 955 11 discriminator 1 view .LVU36
 172 00a6 0028     		cmp	r0, #0
 173 00a8 C4D0     		beq	.L4
 958:Drivers/lvgl/src/core/lv_refr.c ****     }
 174              		.loc 1 958 9 is_stmt 1 view .LVU37
 958:Drivers/lvgl/src/core/lv_refr.c ****     }
 175              		.loc 1 958 25 is_stmt 0 view .LVU38
 176 00aa 0CAB     		add	r3, sp, #48
 177 00ac 13E90F00 		ldmdb	r3, {r0, r1, r2, r3}
 178 00b0 89E80F00 		stm	r9, {r0, r1, r2, r3}
 179              	.LBE52:
 965:Drivers/lvgl/src/core/lv_refr.c **** }
 180              		.loc 1 965 12 view .LVU39
 181 00b4 2046     		mov	r0, r4
 182 00b6 BDE7     		b	.L4
 183              		.cfi_endproc
 184              	.LFE202:
 186              		.section	.text.alpha_test_area_on_obj,"ax",%progbits
 187              		.align	1
 188              		.syntax unified
 189              		.thumb
 190              		.thumb_func
 192              	alpha_test_area_on_obj:
 193              	.LVL15:
 194              	.LFB203:
 967:Drivers/lvgl/src/core/lv_refr.c **** 
 968:Drivers/lvgl/src/core/lv_refr.c **** static bool alpha_test_area_on_obj(lv_obj_t * obj, const lv_area_t * area)
 969:Drivers/lvgl/src/core/lv_refr.c **** {
 195              		.loc 1 969 1 is_stmt 1 view -0
 196              		.cfi_startproc
 197              		@ args = 0, pretend = 0, frame = 8
 198              		@ frame_needed = 0, uses_anonymous_args = 0
 199              		.loc 1 969 1 is_stmt 0 view .LVU41
 200 0000 70B5     		push	{r4, r5, r6, lr}
 201              	.LCFI4:
 202              		.cfi_def_cfa_offset 16
 203              		.cfi_offset 4, -16
 204              		.cfi_offset 5, -12
 205              		.cfi_offset 6, -8
 206              		.cfi_offset 14, -4
ARM GAS  /tmp/cc3ln58M.s 			page 22


 207 0002 82B0     		sub	sp, sp, #8
 208              	.LCFI5:
 209              		.cfi_def_cfa_offset 24
 210 0004 0446     		mov	r4, r0
 211 0006 0D46     		mov	r5, r1
 970:Drivers/lvgl/src/core/lv_refr.c ****     /*Test for alpha by assuming there is no alpha. If it fails, fall back to rendering with alpha*
 971:Drivers/lvgl/src/core/lv_refr.c ****     /*If the layer area is not fully on the object, it can't fully cover it*/
 972:Drivers/lvgl/src/core/lv_refr.c ****     if(!lv_area_is_on(area, &obj->coords)) return true;
 212              		.loc 1 972 5 is_stmt 1 view .LVU42
 213              		.loc 1 972 9 is_stmt 0 view .LVU43
 214 0008 00F11401 		add	r1, r0, #20
 215              	.LVL16:
 216              		.loc 1 972 9 view .LVU44
 217 000c 2846     		mov	r0, r5
 218              	.LVL17:
 219              		.loc 1 972 9 view .LVU45
 220 000e FFF7FEFF 		bl	lv_area_is_on
 221              	.LVL18:
 222              		.loc 1 972 7 discriminator 1 view .LVU46
 223 0012 18B9     		cbnz	r0, .L15
 224              		.loc 1 972 51 discriminator 1 view .LVU47
 225 0014 0126     		movs	r6, #1
 226              	.L12:
 973:Drivers/lvgl/src/core/lv_refr.c **** 
 974:Drivers/lvgl/src/core/lv_refr.c ****     lv_cover_check_info_t info;
 975:Drivers/lvgl/src/core/lv_refr.c ****     info.res = LV_COVER_RES_COVER;
 976:Drivers/lvgl/src/core/lv_refr.c ****     info.area = area;
 977:Drivers/lvgl/src/core/lv_refr.c ****     lv_obj_send_event(obj, LV_EVENT_COVER_CHECK, &info);
 978:Drivers/lvgl/src/core/lv_refr.c ****     if(info.res == LV_COVER_RES_COVER) return false;
 979:Drivers/lvgl/src/core/lv_refr.c ****     else return true;
 980:Drivers/lvgl/src/core/lv_refr.c **** }
 227              		.loc 1 980 1 view .LVU48
 228 0016 3046     		mov	r0, r6
 229 0018 02B0     		add	sp, sp, #8
 230              	.LCFI6:
 231              		.cfi_remember_state
 232              		.cfi_def_cfa_offset 16
 233              		@ sp needed
 234 001a 70BD     		pop	{r4, r5, r6, pc}
 235              	.LVL19:
 236              	.L15:
 237              	.LCFI7:
 238              		.cfi_restore_state
 239              		.loc 1 980 1 view .LVU49
 240 001c 0646     		mov	r6, r0
 974:Drivers/lvgl/src/core/lv_refr.c ****     info.res = LV_COVER_RES_COVER;
 241              		.loc 1 974 5 is_stmt 1 view .LVU50
 975:Drivers/lvgl/src/core/lv_refr.c ****     info.area = area;
 242              		.loc 1 975 5 view .LVU51
 975:Drivers/lvgl/src/core/lv_refr.c ****     info.area = area;
 243              		.loc 1 975 14 is_stmt 0 view .LVU52
 244 001e 0023     		movs	r3, #0
 245 0020 8DF80030 		strb	r3, [sp]
 976:Drivers/lvgl/src/core/lv_refr.c ****     lv_obj_send_event(obj, LV_EVENT_COVER_CHECK, &info);
 246              		.loc 1 976 5 is_stmt 1 view .LVU53
 976:Drivers/lvgl/src/core/lv_refr.c ****     lv_obj_send_event(obj, LV_EVENT_COVER_CHECK, &info);
 247              		.loc 1 976 15 is_stmt 0 view .LVU54
ARM GAS  /tmp/cc3ln58M.s 			page 23


 248 0024 0195     		str	r5, [sp, #4]
 977:Drivers/lvgl/src/core/lv_refr.c ****     if(info.res == LV_COVER_RES_COVER) return false;
 249              		.loc 1 977 5 is_stmt 1 view .LVU55
 250 0026 6A46     		mov	r2, sp
 251 0028 1A21     		movs	r1, #26
 252 002a 2046     		mov	r0, r4
 253 002c FFF7FEFF 		bl	lv_obj_send_event
 254              	.LVL20:
 978:Drivers/lvgl/src/core/lv_refr.c ****     else return true;
 255              		.loc 1 978 5 view .LVU56
 978:Drivers/lvgl/src/core/lv_refr.c ****     else return true;
 256              		.loc 1 978 12 is_stmt 0 view .LVU57
 257 0030 9DF80030 		ldrb	r3, [sp]	@ zero_extendqisi2
 978:Drivers/lvgl/src/core/lv_refr.c ****     else return true;
 258              		.loc 1 978 7 view .LVU58
 259 0034 002B     		cmp	r3, #0
 260 0036 EED1     		bne	.L12
 978:Drivers/lvgl/src/core/lv_refr.c ****     else return true;
 261              		.loc 1 978 47 discriminator 1 view .LVU59
 262 0038 0026     		movs	r6, #0
 263 003a ECE7     		b	.L12
 264              		.cfi_endproc
 265              	.LFE203:
 267              		.section	.text.wait_for_flushing,"ax",%progbits
 268              		.align	1
 269              		.syntax unified
 270              		.thumb
 271              		.thumb_func
 273              	wait_for_flushing:
 274              	.LVL21:
 275              	.LFB208:
 981:Drivers/lvgl/src/core/lv_refr.c **** 
 982:Drivers/lvgl/src/core/lv_refr.c **** #if LV_DRAW_TRANSFORM_USE_MATRIX
 983:Drivers/lvgl/src/core/lv_refr.c **** 
 984:Drivers/lvgl/src/core/lv_refr.c **** static bool obj_get_matrix(lv_obj_t * obj, lv_matrix_t * matrix)
 985:Drivers/lvgl/src/core/lv_refr.c **** {
 986:Drivers/lvgl/src/core/lv_refr.c ****     lv_matrix_identity(matrix);
 987:Drivers/lvgl/src/core/lv_refr.c **** 
 988:Drivers/lvgl/src/core/lv_refr.c ****     const lv_matrix_t * obj_matrix = lv_obj_get_transform(obj);
 989:Drivers/lvgl/src/core/lv_refr.c ****     if(obj_matrix) {
 990:Drivers/lvgl/src/core/lv_refr.c ****         lv_matrix_translate(matrix, obj->coords.x1, obj->coords.y1);
 991:Drivers/lvgl/src/core/lv_refr.c ****         lv_matrix_multiply(matrix, obj_matrix);
 992:Drivers/lvgl/src/core/lv_refr.c ****         lv_matrix_translate(matrix, -obj->coords.x1, -obj->coords.y1);
 993:Drivers/lvgl/src/core/lv_refr.c ****         return true;
 994:Drivers/lvgl/src/core/lv_refr.c ****     }
 995:Drivers/lvgl/src/core/lv_refr.c **** 
 996:Drivers/lvgl/src/core/lv_refr.c ****     lv_point_t pivot = {
 997:Drivers/lvgl/src/core/lv_refr.c ****         .x = lv_obj_get_style_transform_pivot_x(obj, 0),
 998:Drivers/lvgl/src/core/lv_refr.c ****         .y = lv_obj_get_style_transform_pivot_y(obj, 0)
 999:Drivers/lvgl/src/core/lv_refr.c ****     };
1000:Drivers/lvgl/src/core/lv_refr.c **** 
1001:Drivers/lvgl/src/core/lv_refr.c ****     pivot.x = obj->coords.x1 + lv_pct_to_px(pivot.x, lv_area_get_width(&obj->coords));
1002:Drivers/lvgl/src/core/lv_refr.c ****     pivot.y = obj->coords.y1 + lv_pct_to_px(pivot.y, lv_area_get_height(&obj->coords));
1003:Drivers/lvgl/src/core/lv_refr.c **** 
1004:Drivers/lvgl/src/core/lv_refr.c ****     int32_t rotation = lv_obj_get_style_transform_rotation(obj, 0);
1005:Drivers/lvgl/src/core/lv_refr.c ****     int32_t scale_x = lv_obj_get_style_transform_scale_x(obj, 0);
1006:Drivers/lvgl/src/core/lv_refr.c ****     int32_t scale_y = lv_obj_get_style_transform_scale_y(obj, 0);
ARM GAS  /tmp/cc3ln58M.s 			page 24


1007:Drivers/lvgl/src/core/lv_refr.c ****     int32_t skew_x = lv_obj_get_style_transform_skew_x(obj, 0);
1008:Drivers/lvgl/src/core/lv_refr.c ****     int32_t skew_y = lv_obj_get_style_transform_skew_y(obj, 0);
1009:Drivers/lvgl/src/core/lv_refr.c **** 
1010:Drivers/lvgl/src/core/lv_refr.c ****     if(scale_x <= 0 || scale_y <= 0) {
1011:Drivers/lvgl/src/core/lv_refr.c ****         /* NOT draw if scale is negative or zero */
1012:Drivers/lvgl/src/core/lv_refr.c ****         return false;
1013:Drivers/lvgl/src/core/lv_refr.c ****     }
1014:Drivers/lvgl/src/core/lv_refr.c **** 
1015:Drivers/lvgl/src/core/lv_refr.c ****     /* generate the obj matrix */
1016:Drivers/lvgl/src/core/lv_refr.c ****     lv_matrix_translate(matrix, pivot.x, pivot.y);
1017:Drivers/lvgl/src/core/lv_refr.c ****     if(rotation != 0) {
1018:Drivers/lvgl/src/core/lv_refr.c ****         lv_matrix_rotate(matrix, rotation * 0.1f);
1019:Drivers/lvgl/src/core/lv_refr.c ****     }
1020:Drivers/lvgl/src/core/lv_refr.c **** 
1021:Drivers/lvgl/src/core/lv_refr.c ****     if(scale_x != LV_SCALE_NONE || scale_y != LV_SCALE_NONE) {
1022:Drivers/lvgl/src/core/lv_refr.c ****         lv_matrix_scale(
1023:Drivers/lvgl/src/core/lv_refr.c ****             matrix,
1024:Drivers/lvgl/src/core/lv_refr.c ****             (float)scale_x / LV_SCALE_NONE,
1025:Drivers/lvgl/src/core/lv_refr.c ****             (float)scale_y / LV_SCALE_NONE
1026:Drivers/lvgl/src/core/lv_refr.c ****         );
1027:Drivers/lvgl/src/core/lv_refr.c ****     }
1028:Drivers/lvgl/src/core/lv_refr.c **** 
1029:Drivers/lvgl/src/core/lv_refr.c ****     if(skew_x != 0 || skew_y != 0) {
1030:Drivers/lvgl/src/core/lv_refr.c ****         lv_matrix_skew(matrix, skew_x, skew_y);
1031:Drivers/lvgl/src/core/lv_refr.c ****     }
1032:Drivers/lvgl/src/core/lv_refr.c **** 
1033:Drivers/lvgl/src/core/lv_refr.c ****     lv_matrix_translate(matrix, -pivot.x, -pivot.y);
1034:Drivers/lvgl/src/core/lv_refr.c ****     return true;
1035:Drivers/lvgl/src/core/lv_refr.c **** }
1036:Drivers/lvgl/src/core/lv_refr.c **** 
1037:Drivers/lvgl/src/core/lv_refr.c **** static void refr_obj_matrix(lv_layer_t * layer, lv_obj_t * obj)
1038:Drivers/lvgl/src/core/lv_refr.c **** {
1039:Drivers/lvgl/src/core/lv_refr.c ****     LV_PROFILER_REFR_BEGIN;
1040:Drivers/lvgl/src/core/lv_refr.c ****     lv_matrix_t obj_matrix;
1041:Drivers/lvgl/src/core/lv_refr.c ****     if(!obj_get_matrix(obj, &obj_matrix)) {
1042:Drivers/lvgl/src/core/lv_refr.c ****         /* NOT draw if obj matrix is not available */
1043:Drivers/lvgl/src/core/lv_refr.c ****         LV_PROFILER_REFR_END;
1044:Drivers/lvgl/src/core/lv_refr.c ****         return;
1045:Drivers/lvgl/src/core/lv_refr.c ****     }
1046:Drivers/lvgl/src/core/lv_refr.c **** 
1047:Drivers/lvgl/src/core/lv_refr.c ****     lv_matrix_t matrix_inv;
1048:Drivers/lvgl/src/core/lv_refr.c ****     if(!lv_matrix_inverse(&matrix_inv, &obj_matrix)) {
1049:Drivers/lvgl/src/core/lv_refr.c ****         /* NOT draw if matrix is not invertible */
1050:Drivers/lvgl/src/core/lv_refr.c ****         LV_PROFILER_REFR_END;
1051:Drivers/lvgl/src/core/lv_refr.c ****         return;
1052:Drivers/lvgl/src/core/lv_refr.c ****     }
1053:Drivers/lvgl/src/core/lv_refr.c **** 
1054:Drivers/lvgl/src/core/lv_refr.c ****     /* save original matrix */
1055:Drivers/lvgl/src/core/lv_refr.c ****     lv_matrix_t ori_matrix = layer->matrix;
1056:Drivers/lvgl/src/core/lv_refr.c **** 
1057:Drivers/lvgl/src/core/lv_refr.c ****     /* apply the obj matrix */
1058:Drivers/lvgl/src/core/lv_refr.c ****     lv_matrix_multiply(&layer->matrix, &obj_matrix);
1059:Drivers/lvgl/src/core/lv_refr.c **** 
1060:Drivers/lvgl/src/core/lv_refr.c ****     /* calculate clip area without transform */
1061:Drivers/lvgl/src/core/lv_refr.c ****     lv_area_t clip_area = layer->_clip_area;
1062:Drivers/lvgl/src/core/lv_refr.c ****     lv_area_t clip_area_ori = layer->_clip_area;
1063:Drivers/lvgl/src/core/lv_refr.c ****     clip_area = lv_matrix_transform_area(&matrix_inv, &clip_area);
ARM GAS  /tmp/cc3ln58M.s 			page 25


1064:Drivers/lvgl/src/core/lv_refr.c **** 
1065:Drivers/lvgl/src/core/lv_refr.c ****     /* increase the clip area by 1 pixel to avoid rounding errors */
1066:Drivers/lvgl/src/core/lv_refr.c ****     if(!lv_matrix_is_identity_or_translation(&obj_matrix)) {
1067:Drivers/lvgl/src/core/lv_refr.c ****         lv_area_increase(&clip_area, 1, 1);
1068:Drivers/lvgl/src/core/lv_refr.c ****     }
1069:Drivers/lvgl/src/core/lv_refr.c **** 
1070:Drivers/lvgl/src/core/lv_refr.c ****     layer->_clip_area = clip_area;
1071:Drivers/lvgl/src/core/lv_refr.c **** 
1072:Drivers/lvgl/src/core/lv_refr.c ****     /* redraw obj */
1073:Drivers/lvgl/src/core/lv_refr.c ****     lv_obj_redraw(layer, obj);
1074:Drivers/lvgl/src/core/lv_refr.c **** 
1075:Drivers/lvgl/src/core/lv_refr.c ****     /* restore original matrix */
1076:Drivers/lvgl/src/core/lv_refr.c ****     layer->matrix = ori_matrix;
1077:Drivers/lvgl/src/core/lv_refr.c ****     /* restore clip area */
1078:Drivers/lvgl/src/core/lv_refr.c ****     layer->_clip_area = clip_area_ori;
1079:Drivers/lvgl/src/core/lv_refr.c ****     LV_PROFILER_REFR_END;
1080:Drivers/lvgl/src/core/lv_refr.c **** }
1081:Drivers/lvgl/src/core/lv_refr.c **** 
1082:Drivers/lvgl/src/core/lv_refr.c **** static bool refr_check_obj_clip_overflow(lv_layer_t * layer, lv_obj_t * obj)
1083:Drivers/lvgl/src/core/lv_refr.c **** {
1084:Drivers/lvgl/src/core/lv_refr.c ****     if(lv_obj_get_style_transform_rotation(obj, 0) == 0) {
1085:Drivers/lvgl/src/core/lv_refr.c ****         return false;
1086:Drivers/lvgl/src/core/lv_refr.c ****     }
1087:Drivers/lvgl/src/core/lv_refr.c **** 
1088:Drivers/lvgl/src/core/lv_refr.c ****     /*Truncate the area to the object*/
1089:Drivers/lvgl/src/core/lv_refr.c ****     lv_area_t obj_coords;
1090:Drivers/lvgl/src/core/lv_refr.c ****     int32_t ext_size = lv_obj_get_ext_draw_size(obj);
1091:Drivers/lvgl/src/core/lv_refr.c ****     lv_area_copy(&obj_coords, &obj->coords);
1092:Drivers/lvgl/src/core/lv_refr.c ****     lv_area_increase(&obj_coords, ext_size, ext_size);
1093:Drivers/lvgl/src/core/lv_refr.c **** 
1094:Drivers/lvgl/src/core/lv_refr.c ****     lv_obj_get_transformed_area(obj, &obj_coords, LV_OBJ_POINT_TRANSFORM_FLAG_RECURSIVE);
1095:Drivers/lvgl/src/core/lv_refr.c **** 
1096:Drivers/lvgl/src/core/lv_refr.c ****     lv_area_t clip_coords_for_obj;
1097:Drivers/lvgl/src/core/lv_refr.c ****     if(!lv_area_intersect(&clip_coords_for_obj, &layer->_clip_area, &obj_coords)) {
1098:Drivers/lvgl/src/core/lv_refr.c ****         return false;
1099:Drivers/lvgl/src/core/lv_refr.c ****     }
1100:Drivers/lvgl/src/core/lv_refr.c **** 
1101:Drivers/lvgl/src/core/lv_refr.c ****     bool has_clip = lv_memcmp(&clip_coords_for_obj, &obj_coords, sizeof(lv_area_t)) != 0;
1102:Drivers/lvgl/src/core/lv_refr.c ****     return has_clip;
1103:Drivers/lvgl/src/core/lv_refr.c **** }
1104:Drivers/lvgl/src/core/lv_refr.c **** 
1105:Drivers/lvgl/src/core/lv_refr.c **** #endif /* LV_DRAW_TRANSFORM_USE_MATRIX */
1106:Drivers/lvgl/src/core/lv_refr.c **** 
1107:Drivers/lvgl/src/core/lv_refr.c **** static void refr_obj(lv_layer_t * layer, lv_obj_t * obj)
1108:Drivers/lvgl/src/core/lv_refr.c **** {
1109:Drivers/lvgl/src/core/lv_refr.c ****     if(lv_obj_has_flag(obj, LV_OBJ_FLAG_HIDDEN)) return;
1110:Drivers/lvgl/src/core/lv_refr.c **** 
1111:Drivers/lvgl/src/core/lv_refr.c ****     /*If `opa_layered != LV_OPA_COVER` draw the widget on a new layer and blend that layer with the
1112:Drivers/lvgl/src/core/lv_refr.c ****     const lv_opa_t opa_layered = lv_obj_get_style_opa_layered(obj, LV_PART_MAIN);
1113:Drivers/lvgl/src/core/lv_refr.c ****     if(opa_layered < LV_OPA_MIN) return;
1114:Drivers/lvgl/src/core/lv_refr.c **** 
1115:Drivers/lvgl/src/core/lv_refr.c ****     const lv_opa_t layer_opa_ori = layer->opa;
1116:Drivers/lvgl/src/core/lv_refr.c ****     const lv_color32_t layer_recolor = layer->recolor;
1117:Drivers/lvgl/src/core/lv_refr.c **** 
1118:Drivers/lvgl/src/core/lv_refr.c ****     /*Normal `opa` (not layered) will just scale down `bg_opa`, `text_opa`, etc, in the upcoming dr
1119:Drivers/lvgl/src/core/lv_refr.c ****     const lv_opa_t opa_main = lv_obj_get_style_opa(obj, LV_PART_MAIN);
1120:Drivers/lvgl/src/core/lv_refr.c ****     if(opa_main < LV_OPA_MAX) {
ARM GAS  /tmp/cc3ln58M.s 			page 26


1121:Drivers/lvgl/src/core/lv_refr.c ****         layer->opa = LV_OPA_MIX2(layer_opa_ori, opa_main);
1122:Drivers/lvgl/src/core/lv_refr.c ****     }
1123:Drivers/lvgl/src/core/lv_refr.c **** 
1124:Drivers/lvgl/src/core/lv_refr.c ****     layer->recolor = lv_obj_style_apply_recolor(obj, LV_PART_MAIN, layer->recolor);
1125:Drivers/lvgl/src/core/lv_refr.c **** 
1126:Drivers/lvgl/src/core/lv_refr.c ****     lv_layer_type_t layer_type = lv_obj_get_layer_type(obj);
1127:Drivers/lvgl/src/core/lv_refr.c ****     if(layer_type == LV_LAYER_TYPE_NONE) {
1128:Drivers/lvgl/src/core/lv_refr.c ****         lv_obj_redraw(layer, obj);
1129:Drivers/lvgl/src/core/lv_refr.c ****     }
1130:Drivers/lvgl/src/core/lv_refr.c **** #if LV_DRAW_TRANSFORM_USE_MATRIX
1131:Drivers/lvgl/src/core/lv_refr.c ****     /*If the layer opa is full then use the matrix transform*/
1132:Drivers/lvgl/src/core/lv_refr.c ****     else if(opa_layered >= LV_OPA_MAX && !refr_check_obj_clip_overflow(layer, obj)) {
1133:Drivers/lvgl/src/core/lv_refr.c ****         refr_obj_matrix(layer, obj);
1134:Drivers/lvgl/src/core/lv_refr.c ****     }
1135:Drivers/lvgl/src/core/lv_refr.c **** #endif /* LV_DRAW_TRANSFORM_USE_MATRIX */
1136:Drivers/lvgl/src/core/lv_refr.c ****     else {
1137:Drivers/lvgl/src/core/lv_refr.c ****         lv_area_t layer_area_full;
1138:Drivers/lvgl/src/core/lv_refr.c ****         lv_area_t obj_draw_size;
1139:Drivers/lvgl/src/core/lv_refr.c ****         lv_result_t res = layer_get_area(layer, obj, layer_type, &layer_area_full, &obj_draw_size);
1140:Drivers/lvgl/src/core/lv_refr.c ****         if(res != LV_RESULT_OK) return;
1141:Drivers/lvgl/src/core/lv_refr.c **** 
1142:Drivers/lvgl/src/core/lv_refr.c ****         /*Simple layers can be subdivided into smaller layers*/
1143:Drivers/lvgl/src/core/lv_refr.c ****         uint32_t max_rgb_row_height = lv_area_get_height(&layer_area_full);
1144:Drivers/lvgl/src/core/lv_refr.c ****         uint32_t max_argb_row_height = lv_area_get_height(&layer_area_full);
1145:Drivers/lvgl/src/core/lv_refr.c ****         if(layer_type == LV_LAYER_TYPE_SIMPLE) {
1146:Drivers/lvgl/src/core/lv_refr.c ****             int32_t w = lv_area_get_width(&layer_area_full);
1147:Drivers/lvgl/src/core/lv_refr.c ****             uint8_t px_size = lv_color_format_get_size(disp_refr->color_format);
1148:Drivers/lvgl/src/core/lv_refr.c ****             max_rgb_row_height = LV_DRAW_LAYER_SIMPLE_BUF_SIZE / w / px_size;
1149:Drivers/lvgl/src/core/lv_refr.c ****             max_argb_row_height = LV_DRAW_LAYER_SIMPLE_BUF_SIZE / w / sizeof(lv_color32_t);
1150:Drivers/lvgl/src/core/lv_refr.c ****         }
1151:Drivers/lvgl/src/core/lv_refr.c **** 
1152:Drivers/lvgl/src/core/lv_refr.c ****         lv_area_t layer_area_act;
1153:Drivers/lvgl/src/core/lv_refr.c ****         layer_area_act.x1 = layer_area_full.x1;
1154:Drivers/lvgl/src/core/lv_refr.c ****         layer_area_act.x2 = layer_area_full.x2;
1155:Drivers/lvgl/src/core/lv_refr.c ****         layer_area_act.y1 = layer_area_full.y1;
1156:Drivers/lvgl/src/core/lv_refr.c ****         layer_area_act.y2 = layer_area_full.y1;
1157:Drivers/lvgl/src/core/lv_refr.c **** 
1158:Drivers/lvgl/src/core/lv_refr.c ****         while(layer_area_act.y2 < layer_area_full.y2) {
1159:Drivers/lvgl/src/core/lv_refr.c ****             /* Test with an RGB layer size (which is larger than the ARGB layer size)
1160:Drivers/lvgl/src/core/lv_refr.c ****              * If it really doesn't need alpha use it. Else switch to the ARGB size*/
1161:Drivers/lvgl/src/core/lv_refr.c ****             layer_area_act.y2 = layer_area_act.y1 + max_rgb_row_height - 1;
1162:Drivers/lvgl/src/core/lv_refr.c ****             if(layer_area_act.y2 > layer_area_full.y2) layer_area_act.y2 = layer_area_full.y2;
1163:Drivers/lvgl/src/core/lv_refr.c **** 
1164:Drivers/lvgl/src/core/lv_refr.c ****             const void * bitmap_mask_src = lv_obj_get_style_bitmap_mask_src(obj, 0);
1165:Drivers/lvgl/src/core/lv_refr.c ****             bool area_need_alpha = bitmap_mask_src || alpha_test_area_on_obj(obj, &layer_area_act);
1166:Drivers/lvgl/src/core/lv_refr.c **** 
1167:Drivers/lvgl/src/core/lv_refr.c ****             if(area_need_alpha) {
1168:Drivers/lvgl/src/core/lv_refr.c ****                 layer_area_act.y2 = layer_area_act.y1 + max_argb_row_height - 1;
1169:Drivers/lvgl/src/core/lv_refr.c ****                 if(layer_area_act.y2 > layer_area_full.y2) layer_area_act.y2 = layer_area_full.y2;
1170:Drivers/lvgl/src/core/lv_refr.c ****             }
1171:Drivers/lvgl/src/core/lv_refr.c **** 
1172:Drivers/lvgl/src/core/lv_refr.c ****             lv_layer_t * new_layer = lv_draw_layer_create(layer,
1173:Drivers/lvgl/src/core/lv_refr.c ****                                                           area_need_alpha ? LV_COLOR_FORMAT_ARGB888
1174:Drivers/lvgl/src/core/lv_refr.c ****             lv_obj_redraw(new_layer, obj);
1175:Drivers/lvgl/src/core/lv_refr.c **** 
1176:Drivers/lvgl/src/core/lv_refr.c ****             lv_point_t pivot = {
1177:Drivers/lvgl/src/core/lv_refr.c ****                 .x = lv_obj_get_style_transform_pivot_x(obj, 0),
ARM GAS  /tmp/cc3ln58M.s 			page 27


1178:Drivers/lvgl/src/core/lv_refr.c ****                 .y = lv_obj_get_style_transform_pivot_y(obj, 0)
1179:Drivers/lvgl/src/core/lv_refr.c ****             };
1180:Drivers/lvgl/src/core/lv_refr.c **** 
1181:Drivers/lvgl/src/core/lv_refr.c ****             if(LV_COORD_IS_PCT(pivot.x)) {
1182:Drivers/lvgl/src/core/lv_refr.c ****                 pivot.x = (LV_COORD_GET_PCT(pivot.x) * lv_area_get_width(&obj->coords)) / 100;
1183:Drivers/lvgl/src/core/lv_refr.c ****             }
1184:Drivers/lvgl/src/core/lv_refr.c ****             if(LV_COORD_IS_PCT(pivot.y)) {
1185:Drivers/lvgl/src/core/lv_refr.c ****                 pivot.y = (LV_COORD_GET_PCT(pivot.y) * lv_area_get_height(&obj->coords)) / 100;
1186:Drivers/lvgl/src/core/lv_refr.c ****             }
1187:Drivers/lvgl/src/core/lv_refr.c **** 
1188:Drivers/lvgl/src/core/lv_refr.c ****             lv_draw_image_dsc_t layer_draw_dsc;
1189:Drivers/lvgl/src/core/lv_refr.c ****             lv_draw_image_dsc_init(&layer_draw_dsc);
1190:Drivers/lvgl/src/core/lv_refr.c ****             layer_draw_dsc.pivot.x = obj->coords.x1 + pivot.x - new_layer->buf_area.x1;
1191:Drivers/lvgl/src/core/lv_refr.c ****             layer_draw_dsc.pivot.y = obj->coords.y1 + pivot.y - new_layer->buf_area.y1;
1192:Drivers/lvgl/src/core/lv_refr.c **** 
1193:Drivers/lvgl/src/core/lv_refr.c ****             layer_draw_dsc.opa = opa_layered;
1194:Drivers/lvgl/src/core/lv_refr.c ****             layer_draw_dsc.rotation = lv_obj_get_style_transform_rotation(obj, 0);
1195:Drivers/lvgl/src/core/lv_refr.c ****             while(layer_draw_dsc.rotation > 3600) layer_draw_dsc.rotation -= 3600;
1196:Drivers/lvgl/src/core/lv_refr.c ****             while(layer_draw_dsc.rotation < 0) layer_draw_dsc.rotation += 3600;
1197:Drivers/lvgl/src/core/lv_refr.c ****             layer_draw_dsc.scale_x = lv_obj_get_style_transform_scale_x(obj, 0);
1198:Drivers/lvgl/src/core/lv_refr.c ****             layer_draw_dsc.scale_y = lv_obj_get_style_transform_scale_y(obj, 0);
1199:Drivers/lvgl/src/core/lv_refr.c ****             layer_draw_dsc.skew_x = lv_obj_get_style_transform_skew_x(obj, 0);
1200:Drivers/lvgl/src/core/lv_refr.c ****             layer_draw_dsc.skew_y = lv_obj_get_style_transform_skew_y(obj, 0);
1201:Drivers/lvgl/src/core/lv_refr.c ****             layer_draw_dsc.blend_mode = lv_obj_get_style_blend_mode(obj, 0);
1202:Drivers/lvgl/src/core/lv_refr.c ****             layer_draw_dsc.antialias = disp_refr->antialiasing;
1203:Drivers/lvgl/src/core/lv_refr.c ****             layer_draw_dsc.bitmap_mask_src = bitmap_mask_src;
1204:Drivers/lvgl/src/core/lv_refr.c ****             layer_draw_dsc.image_area = obj_draw_size;
1205:Drivers/lvgl/src/core/lv_refr.c ****             layer_draw_dsc.src = new_layer;
1206:Drivers/lvgl/src/core/lv_refr.c **** 
1207:Drivers/lvgl/src/core/lv_refr.c ****             lv_draw_layer(layer, &layer_draw_dsc, &layer_area_act);
1208:Drivers/lvgl/src/core/lv_refr.c **** 
1209:Drivers/lvgl/src/core/lv_refr.c ****             layer_area_act.y1 = layer_area_act.y2 + 1;
1210:Drivers/lvgl/src/core/lv_refr.c ****         }
1211:Drivers/lvgl/src/core/lv_refr.c ****     }
1212:Drivers/lvgl/src/core/lv_refr.c **** 
1213:Drivers/lvgl/src/core/lv_refr.c ****     /* Restore the original layer opa and recolor */
1214:Drivers/lvgl/src/core/lv_refr.c ****     layer->opa = layer_opa_ori;
1215:Drivers/lvgl/src/core/lv_refr.c ****     layer->recolor = layer_recolor;
1216:Drivers/lvgl/src/core/lv_refr.c **** }
1217:Drivers/lvgl/src/core/lv_refr.c **** 
1218:Drivers/lvgl/src/core/lv_refr.c **** static uint32_t get_max_row(lv_display_t * disp, int32_t area_w, int32_t area_h)
1219:Drivers/lvgl/src/core/lv_refr.c **** {
1220:Drivers/lvgl/src/core/lv_refr.c ****     lv_color_format_t cf = disp->color_format;
1221:Drivers/lvgl/src/core/lv_refr.c ****     uint32_t stride = lv_draw_buf_width_to_stride(area_w, cf);
1222:Drivers/lvgl/src/core/lv_refr.c ****     uint32_t overhead = LV_COLOR_INDEXED_PALETTE_SIZE(cf) * sizeof(lv_color32_t);
1223:Drivers/lvgl/src/core/lv_refr.c **** 
1224:Drivers/lvgl/src/core/lv_refr.c ****     if(stride == 0) {
1225:Drivers/lvgl/src/core/lv_refr.c ****         LV_LOG_WARN("Invalid stride. Value is 0");
1226:Drivers/lvgl/src/core/lv_refr.c ****         return 0;
1227:Drivers/lvgl/src/core/lv_refr.c ****     }
1228:Drivers/lvgl/src/core/lv_refr.c **** 
1229:Drivers/lvgl/src/core/lv_refr.c ****     int32_t max_row = (uint32_t)(disp->buf_act->data_size - overhead) / stride;
1230:Drivers/lvgl/src/core/lv_refr.c **** 
1231:Drivers/lvgl/src/core/lv_refr.c ****     if(max_row > area_h) max_row = area_h;
1232:Drivers/lvgl/src/core/lv_refr.c **** 
1233:Drivers/lvgl/src/core/lv_refr.c ****     /*Round down the lines of draw_buf if rounding is added*/
1234:Drivers/lvgl/src/core/lv_refr.c ****     lv_area_t tmp;
ARM GAS  /tmp/cc3ln58M.s 			page 28


1235:Drivers/lvgl/src/core/lv_refr.c ****     tmp.x1 = 0;
1236:Drivers/lvgl/src/core/lv_refr.c ****     tmp.x2 = 0;
1237:Drivers/lvgl/src/core/lv_refr.c ****     tmp.y1 = 0;
1238:Drivers/lvgl/src/core/lv_refr.c **** 
1239:Drivers/lvgl/src/core/lv_refr.c ****     int32_t h_tmp = max_row;
1240:Drivers/lvgl/src/core/lv_refr.c ****     do {
1241:Drivers/lvgl/src/core/lv_refr.c ****         tmp.y2 = h_tmp - 1;
1242:Drivers/lvgl/src/core/lv_refr.c ****         lv_display_send_event(disp_refr, LV_EVENT_INVALIDATE_AREA, &tmp);
1243:Drivers/lvgl/src/core/lv_refr.c **** 
1244:Drivers/lvgl/src/core/lv_refr.c ****         /*If this height fits into `max_row` then fine*/
1245:Drivers/lvgl/src/core/lv_refr.c ****         if(lv_area_get_height(&tmp) <= max_row) break;
1246:Drivers/lvgl/src/core/lv_refr.c **** 
1247:Drivers/lvgl/src/core/lv_refr.c ****         /*Decrement the height of the area until it fits into `max_row` after rounding*/
1248:Drivers/lvgl/src/core/lv_refr.c ****         h_tmp--;
1249:Drivers/lvgl/src/core/lv_refr.c ****     } while(h_tmp > 0);
1250:Drivers/lvgl/src/core/lv_refr.c **** 
1251:Drivers/lvgl/src/core/lv_refr.c ****     if(h_tmp <= 0) {
1252:Drivers/lvgl/src/core/lv_refr.c ****         LV_LOG_WARN("Can't set draw_buf height using the round function. (Wrong round_cb or too "
1253:Drivers/lvgl/src/core/lv_refr.c ****                     "small draw_buf)");
1254:Drivers/lvgl/src/core/lv_refr.c ****         return 0;
1255:Drivers/lvgl/src/core/lv_refr.c ****     }
1256:Drivers/lvgl/src/core/lv_refr.c ****     else {
1257:Drivers/lvgl/src/core/lv_refr.c ****         max_row = tmp.y2 + 1;
1258:Drivers/lvgl/src/core/lv_refr.c ****     }
1259:Drivers/lvgl/src/core/lv_refr.c **** 
1260:Drivers/lvgl/src/core/lv_refr.c ****     return max_row;
1261:Drivers/lvgl/src/core/lv_refr.c **** }
1262:Drivers/lvgl/src/core/lv_refr.c **** 
1263:Drivers/lvgl/src/core/lv_refr.c **** /**
1264:Drivers/lvgl/src/core/lv_refr.c ****  * Flush the content of the draw buffer
1265:Drivers/lvgl/src/core/lv_refr.c ****  */
1266:Drivers/lvgl/src/core/lv_refr.c **** static void draw_buf_flush(lv_display_t * disp)
1267:Drivers/lvgl/src/core/lv_refr.c **** {
1268:Drivers/lvgl/src/core/lv_refr.c ****     /*Flush the rendered content to the display*/
1269:Drivers/lvgl/src/core/lv_refr.c ****     lv_layer_t * layer = disp->layer_head;
1270:Drivers/lvgl/src/core/lv_refr.c **** 
1271:Drivers/lvgl/src/core/lv_refr.c ****     while(layer->draw_task_head) {
1272:Drivers/lvgl/src/core/lv_refr.c ****         lv_draw_dispatch_wait_for_request();
1273:Drivers/lvgl/src/core/lv_refr.c ****         lv_draw_dispatch();
1274:Drivers/lvgl/src/core/lv_refr.c ****     }
1275:Drivers/lvgl/src/core/lv_refr.c **** 
1276:Drivers/lvgl/src/core/lv_refr.c ****     /* In double buffered mode wait until the other buffer is freed
1277:Drivers/lvgl/src/core/lv_refr.c ****      * and driver is ready to receive the new buffer.
1278:Drivers/lvgl/src/core/lv_refr.c ****      * If we need to wait here it means that the content of one buffer is being sent to display
1279:Drivers/lvgl/src/core/lv_refr.c ****      * and other buffer already contains the new rendered image. */
1280:Drivers/lvgl/src/core/lv_refr.c ****     if(lv_display_is_double_buffered(disp)) {
1281:Drivers/lvgl/src/core/lv_refr.c ****         wait_for_flushing(disp_refr);
1282:Drivers/lvgl/src/core/lv_refr.c ****     }
1283:Drivers/lvgl/src/core/lv_refr.c **** 
1284:Drivers/lvgl/src/core/lv_refr.c ****     disp->flushing = 1;
1285:Drivers/lvgl/src/core/lv_refr.c **** 
1286:Drivers/lvgl/src/core/lv_refr.c ****     if(disp->last_area && disp->last_part) disp->flushing_last = 1;
1287:Drivers/lvgl/src/core/lv_refr.c ****     else disp->flushing_last = 0;
1288:Drivers/lvgl/src/core/lv_refr.c **** 
1289:Drivers/lvgl/src/core/lv_refr.c ****     bool flushing_last = disp->flushing_last;
1290:Drivers/lvgl/src/core/lv_refr.c **** 
1291:Drivers/lvgl/src/core/lv_refr.c ****     if(disp->flush_cb) {
ARM GAS  /tmp/cc3ln58M.s 			page 29


1292:Drivers/lvgl/src/core/lv_refr.c ****         call_flush_cb(disp, &disp->refreshed_area, layer->draw_buf->data);
1293:Drivers/lvgl/src/core/lv_refr.c ****     }
1294:Drivers/lvgl/src/core/lv_refr.c ****     /*If there are 2 buffers swap them. With direct mode swap only on the last area*/
1295:Drivers/lvgl/src/core/lv_refr.c ****     if(lv_display_is_double_buffered(disp) && (disp->render_mode != LV_DISPLAY_RENDER_MODE_DIRECT |
1296:Drivers/lvgl/src/core/lv_refr.c ****         if(disp->buf_act == disp->buf_1) {
1297:Drivers/lvgl/src/core/lv_refr.c ****             disp->buf_act = disp->buf_2;
1298:Drivers/lvgl/src/core/lv_refr.c ****         }
1299:Drivers/lvgl/src/core/lv_refr.c ****         else {
1300:Drivers/lvgl/src/core/lv_refr.c ****             disp->buf_act = disp->buf_1;
1301:Drivers/lvgl/src/core/lv_refr.c ****         }
1302:Drivers/lvgl/src/core/lv_refr.c ****     }
1303:Drivers/lvgl/src/core/lv_refr.c **** }
1304:Drivers/lvgl/src/core/lv_refr.c **** 
1305:Drivers/lvgl/src/core/lv_refr.c **** static void call_flush_cb(lv_display_t * disp, const lv_area_t * area, uint8_t * px_map)
1306:Drivers/lvgl/src/core/lv_refr.c **** {
1307:Drivers/lvgl/src/core/lv_refr.c ****     LV_PROFILER_REFR_BEGIN;
1308:Drivers/lvgl/src/core/lv_refr.c ****     LV_TRACE_REFR("Calling flush_cb on (%d;%d)(%d;%d) area with %p image pointer",
1309:Drivers/lvgl/src/core/lv_refr.c ****                   (int)area->x1, (int)area->y1, (int)area->x2, (int)area->y2, (void *)px_map);
1310:Drivers/lvgl/src/core/lv_refr.c **** 
1311:Drivers/lvgl/src/core/lv_refr.c ****     lv_area_t offset_area = {
1312:Drivers/lvgl/src/core/lv_refr.c ****         .x1 = area->x1 + disp->offset_x,
1313:Drivers/lvgl/src/core/lv_refr.c ****         .y1 = area->y1 + disp->offset_y,
1314:Drivers/lvgl/src/core/lv_refr.c ****         .x2 = area->x2 + disp->offset_x,
1315:Drivers/lvgl/src/core/lv_refr.c ****         .y2 = area->y2 + disp->offset_y
1316:Drivers/lvgl/src/core/lv_refr.c ****     };
1317:Drivers/lvgl/src/core/lv_refr.c **** 
1318:Drivers/lvgl/src/core/lv_refr.c ****     lv_display_send_event(disp, LV_EVENT_FLUSH_START, &offset_area);
1319:Drivers/lvgl/src/core/lv_refr.c **** 
1320:Drivers/lvgl/src/core/lv_refr.c ****     /*For backward compatibility support LV_COLOR_16_SWAP (from v8)*/
1321:Drivers/lvgl/src/core/lv_refr.c **** #if defined(LV_COLOR_16_SWAP) && LV_COLOR_16_SWAP
1322:Drivers/lvgl/src/core/lv_refr.c ****     lv_draw_sw_rgb565_swap(px_map, lv_area_get_size(&offset_area));
1323:Drivers/lvgl/src/core/lv_refr.c **** #endif
1324:Drivers/lvgl/src/core/lv_refr.c **** 
1325:Drivers/lvgl/src/core/lv_refr.c ****     disp->flush_cb(disp, &offset_area, px_map);
1326:Drivers/lvgl/src/core/lv_refr.c ****     lv_display_send_event(disp, LV_EVENT_FLUSH_FINISH, &offset_area);
1327:Drivers/lvgl/src/core/lv_refr.c **** 
1328:Drivers/lvgl/src/core/lv_refr.c ****     LV_PROFILER_REFR_END;
1329:Drivers/lvgl/src/core/lv_refr.c **** }
1330:Drivers/lvgl/src/core/lv_refr.c **** 
1331:Drivers/lvgl/src/core/lv_refr.c **** static void wait_for_flushing(lv_display_t * disp)
1332:Drivers/lvgl/src/core/lv_refr.c **** {
 276              		.loc 1 1332 1 is_stmt 1 view -0
 277              		.cfi_startproc
 278              		@ args = 0, pretend = 0, frame = 0
 279              		@ frame_needed = 0, uses_anonymous_args = 0
 280              		.loc 1 1332 1 is_stmt 0 view .LVU61
 281 0000 10B5     		push	{r4, lr}
 282              	.LCFI8:
 283              		.cfi_def_cfa_offset 8
 284              		.cfi_offset 4, -8
 285              		.cfi_offset 14, -4
 286 0002 0446     		mov	r4, r0
1333:Drivers/lvgl/src/core/lv_refr.c ****     LV_PROFILER_REFR_BEGIN;
 287              		.loc 1 1333 27 is_stmt 1 view .LVU62
1334:Drivers/lvgl/src/core/lv_refr.c ****     LV_LOG_TRACE("begin");
 288              		.loc 1 1334 5 view .LVU63
 289              		.loc 1 1334 5 view .LVU64
ARM GAS  /tmp/cc3ln58M.s 			page 30


 290              		.loc 1 1334 5 view .LVU65
1335:Drivers/lvgl/src/core/lv_refr.c **** 
1336:Drivers/lvgl/src/core/lv_refr.c ****     lv_display_send_event(disp, LV_EVENT_FLUSH_WAIT_START, NULL);
 291              		.loc 1 1336 5 view .LVU66
 292 0004 0022     		movs	r2, #0
 293 0006 3F21     		movs	r1, #63
 294 0008 FFF7FEFF 		bl	lv_display_send_event
 295              	.LVL22:
1337:Drivers/lvgl/src/core/lv_refr.c **** 
1338:Drivers/lvgl/src/core/lv_refr.c ****     if(disp->flush_wait_cb) {
 296              		.loc 1 1338 5 view .LVU67
 297              		.loc 1 1338 12 is_stmt 0 view .LVU68
 298 000c E36A     		ldr	r3, [r4, #44]
 299              		.loc 1 1338 7 view .LVU69
 300 000e 63B1     		cbz	r3, .L17
1339:Drivers/lvgl/src/core/lv_refr.c ****         if(disp->flushing) {
 301              		.loc 1 1339 9 is_stmt 1 view .LVU70
 302              		.loc 1 1339 16 is_stmt 0 view .LVU71
 303 0010 226B     		ldr	r2, [r4, #48]
 304              		.loc 1 1339 11 view .LVU72
 305 0012 1AB1     		cbz	r2, .L18
1340:Drivers/lvgl/src/core/lv_refr.c ****             disp->flush_wait_cb(disp);
 306              		.loc 1 1340 13 is_stmt 1 view .LVU73
 307 0014 2046     		mov	r0, r4
 308 0016 9847     		blx	r3
 309              	.LVL23:
1341:Drivers/lvgl/src/core/lv_refr.c ****             disp->flushing = 0;
 310              		.loc 1 1341 13 view .LVU74
 311              		.loc 1 1341 28 is_stmt 0 view .LVU75
 312 0018 0023     		movs	r3, #0
 313 001a 2363     		str	r3, [r4, #48]
 314              	.L18:
1342:Drivers/lvgl/src/core/lv_refr.c ****         }
1343:Drivers/lvgl/src/core/lv_refr.c ****     }
1344:Drivers/lvgl/src/core/lv_refr.c ****     else {
1345:Drivers/lvgl/src/core/lv_refr.c ****         while(disp->flushing);
1346:Drivers/lvgl/src/core/lv_refr.c ****     }
1347:Drivers/lvgl/src/core/lv_refr.c ****     disp->flushing_last = 0;
 315              		.loc 1 1347 5 is_stmt 1 view .LVU76
 316              		.loc 1 1347 25 is_stmt 0 view .LVU77
 317 001c 0022     		movs	r2, #0
 318 001e 6263     		str	r2, [r4, #52]
1348:Drivers/lvgl/src/core/lv_refr.c **** 
1349:Drivers/lvgl/src/core/lv_refr.c ****     lv_display_send_event(disp, LV_EVENT_FLUSH_WAIT_FINISH, NULL);
 319              		.loc 1 1349 5 is_stmt 1 view .LVU78
 320 0020 4021     		movs	r1, #64
 321 0022 2046     		mov	r0, r4
 322 0024 FFF7FEFF 		bl	lv_display_send_event
 323              	.LVL24:
1350:Drivers/lvgl/src/core/lv_refr.c **** 
1351:Drivers/lvgl/src/core/lv_refr.c ****     LV_LOG_TRACE("end");
 324              		.loc 1 1351 5 view .LVU79
 325              		.loc 1 1351 5 view .LVU80
 326              		.loc 1 1351 5 view .LVU81
1352:Drivers/lvgl/src/core/lv_refr.c ****     LV_PROFILER_REFR_END;
 327              		.loc 1 1352 25 view .LVU82
1353:Drivers/lvgl/src/core/lv_refr.c **** }
ARM GAS  /tmp/cc3ln58M.s 			page 31


 328              		.loc 1 1353 1 is_stmt 0 view .LVU83
 329 0028 10BD     		pop	{r4, pc}
 330              	.LVL25:
 331              	.L17:
1345:Drivers/lvgl/src/core/lv_refr.c ****     }
 332              		.loc 1 1345 15 is_stmt 1 discriminator 1 view .LVU84
1345:Drivers/lvgl/src/core/lv_refr.c ****     }
 333              		.loc 1 1345 19 is_stmt 0 discriminator 1 view .LVU85
 334 002a 236B     		ldr	r3, [r4, #48]
1345:Drivers/lvgl/src/core/lv_refr.c ****     }
 335              		.loc 1 1345 15 discriminator 1 view .LVU86
 336 002c 002B     		cmp	r3, #0
 337 002e FCD1     		bne	.L17
 338 0030 F4E7     		b	.L18
 339              		.cfi_endproc
 340              	.LFE208:
 342              		.section	.text.call_flush_cb,"ax",%progbits
 343              		.align	1
 344              		.syntax unified
 345              		.thumb
 346              		.thumb_func
 348              	call_flush_cb:
 349              	.LVL26:
 350              	.LFB207:
1306:Drivers/lvgl/src/core/lv_refr.c ****     LV_PROFILER_REFR_BEGIN;
 351              		.loc 1 1306 1 is_stmt 1 view -0
 352              		.cfi_startproc
 353              		@ args = 0, pretend = 0, frame = 16
 354              		@ frame_needed = 0, uses_anonymous_args = 0
1306:Drivers/lvgl/src/core/lv_refr.c ****     LV_PROFILER_REFR_BEGIN;
 355              		.loc 1 1306 1 is_stmt 0 view .LVU88
 356 0000 70B5     		push	{r4, r5, r6, lr}
 357              	.LCFI9:
 358              		.cfi_def_cfa_offset 16
 359              		.cfi_offset 4, -16
 360              		.cfi_offset 5, -12
 361              		.cfi_offset 6, -8
 362              		.cfi_offset 14, -4
 363 0002 84B0     		sub	sp, sp, #16
 364              	.LCFI10:
 365              		.cfi_def_cfa_offset 32
 366 0004 0446     		mov	r4, r0
 367 0006 1646     		mov	r6, r2
1307:Drivers/lvgl/src/core/lv_refr.c ****     LV_TRACE_REFR("Calling flush_cb on (%d;%d)(%d;%d) area with %p image pointer",
 368              		.loc 1 1307 27 is_stmt 1 view .LVU89
1309:Drivers/lvgl/src/core/lv_refr.c **** 
 369              		.loc 1 1309 94 view .LVU90
1311:Drivers/lvgl/src/core/lv_refr.c ****         .x1 = area->x1 + disp->offset_x,
 370              		.loc 1 1311 5 view .LVU91
1312:Drivers/lvgl/src/core/lv_refr.c ****         .y1 = area->y1 + disp->offset_y,
 371              		.loc 1 1312 19 is_stmt 0 view .LVU92
 372 0008 0B68     		ldr	r3, [r1]
1312:Drivers/lvgl/src/core/lv_refr.c ****         .y1 = area->y1 + disp->offset_y,
 373              		.loc 1 1312 30 view .LVU93
 374 000a 0569     		ldr	r5, [r0, #16]
1312:Drivers/lvgl/src/core/lv_refr.c ****         .y1 = area->y1 + disp->offset_y,
 375              		.loc 1 1312 24 view .LVU94
ARM GAS  /tmp/cc3ln58M.s 			page 32


 376 000c 2B44     		add	r3, r3, r5
1311:Drivers/lvgl/src/core/lv_refr.c ****         .x1 = area->x1 + disp->offset_x,
 377              		.loc 1 1311 15 view .LVU95
 378 000e 0093     		str	r3, [sp]
1313:Drivers/lvgl/src/core/lv_refr.c ****         .x2 = area->x2 + disp->offset_x,
 379              		.loc 1 1313 19 view .LVU96
 380 0010 4A68     		ldr	r2, [r1, #4]
 381              	.LVL27:
1313:Drivers/lvgl/src/core/lv_refr.c ****         .x2 = area->x2 + disp->offset_x,
 382              		.loc 1 1313 30 view .LVU97
 383 0012 4369     		ldr	r3, [r0, #20]
1313:Drivers/lvgl/src/core/lv_refr.c ****         .x2 = area->x2 + disp->offset_x,
 384              		.loc 1 1313 24 view .LVU98
 385 0014 1A44     		add	r2, r2, r3
1311:Drivers/lvgl/src/core/lv_refr.c ****         .x1 = area->x1 + disp->offset_x,
 386              		.loc 1 1311 15 view .LVU99
 387 0016 0192     		str	r2, [sp, #4]
1314:Drivers/lvgl/src/core/lv_refr.c ****         .y2 = area->y2 + disp->offset_y
 388              		.loc 1 1314 19 view .LVU100
 389 0018 8A68     		ldr	r2, [r1, #8]
1314:Drivers/lvgl/src/core/lv_refr.c ****         .y2 = area->y2 + disp->offset_y
 390              		.loc 1 1314 24 view .LVU101
 391 001a 1544     		add	r5, r5, r2
1311:Drivers/lvgl/src/core/lv_refr.c ****         .x1 = area->x1 + disp->offset_x,
 392              		.loc 1 1311 15 view .LVU102
 393 001c 0295     		str	r5, [sp, #8]
1315:Drivers/lvgl/src/core/lv_refr.c ****     };
 394              		.loc 1 1315 19 view .LVU103
 395 001e CA68     		ldr	r2, [r1, #12]
1315:Drivers/lvgl/src/core/lv_refr.c ****     };
 396              		.loc 1 1315 24 view .LVU104
 397 0020 1344     		add	r3, r3, r2
1311:Drivers/lvgl/src/core/lv_refr.c ****         .x1 = area->x1 + disp->offset_x,
 398              		.loc 1 1311 15 view .LVU105
 399 0022 0393     		str	r3, [sp, #12]
1318:Drivers/lvgl/src/core/lv_refr.c **** 
 400              		.loc 1 1318 5 is_stmt 1 view .LVU106
 401 0024 6A46     		mov	r2, sp
 402 0026 3D21     		movs	r1, #61
 403              	.LVL28:
1318:Drivers/lvgl/src/core/lv_refr.c **** 
 404              		.loc 1 1318 5 is_stmt 0 view .LVU107
 405 0028 FFF7FEFF 		bl	lv_display_send_event
 406              	.LVL29:
1325:Drivers/lvgl/src/core/lv_refr.c ****     lv_display_send_event(disp, LV_EVENT_FLUSH_FINISH, &offset_area);
 407              		.loc 1 1325 5 is_stmt 1 view .LVU108
1325:Drivers/lvgl/src/core/lv_refr.c ****     lv_display_send_event(disp, LV_EVENT_FLUSH_FINISH, &offset_area);
 408              		.loc 1 1325 9 is_stmt 0 view .LVU109
 409 002c A36A     		ldr	r3, [r4, #40]
1325:Drivers/lvgl/src/core/lv_refr.c ****     lv_display_send_event(disp, LV_EVENT_FLUSH_FINISH, &offset_area);
 410              		.loc 1 1325 5 view .LVU110
 411 002e 3246     		mov	r2, r6
 412 0030 6946     		mov	r1, sp
 413 0032 2046     		mov	r0, r4
 414 0034 9847     		blx	r3
 415              	.LVL30:
1326:Drivers/lvgl/src/core/lv_refr.c **** 
ARM GAS  /tmp/cc3ln58M.s 			page 33


 416              		.loc 1 1326 5 is_stmt 1 view .LVU111
 417 0036 6A46     		mov	r2, sp
 418 0038 3E21     		movs	r1, #62
 419 003a 2046     		mov	r0, r4
 420 003c FFF7FEFF 		bl	lv_display_send_event
 421              	.LVL31:
1328:Drivers/lvgl/src/core/lv_refr.c **** }
 422              		.loc 1 1328 25 view .LVU112
1329:Drivers/lvgl/src/core/lv_refr.c **** 
 423              		.loc 1 1329 1 is_stmt 0 view .LVU113
 424 0040 04B0     		add	sp, sp, #16
 425              	.LCFI11:
 426              		.cfi_def_cfa_offset 16
 427              		@ sp needed
 428 0042 70BD     		pop	{r4, r5, r6, pc}
1329:Drivers/lvgl/src/core/lv_refr.c **** 
 429              		.loc 1 1329 1 view .LVU114
 430              		.cfi_endproc
 431              	.LFE207:
 433              		.section	.text.lv_refr_get_top_obj,"ax",%progbits
 434              		.align	1
 435              		.syntax unified
 436              		.thumb
 437              		.thumb_func
 439              	lv_refr_get_top_obj:
 440              	.LVL32:
 441              	.LFB200:
 831:Drivers/lvgl/src/core/lv_refr.c ****     lv_obj_t * found_p = NULL;
 442              		.loc 1 831 1 is_stmt 1 view -0
 443              		.cfi_startproc
 444              		@ args = 0, pretend = 0, frame = 16
 445              		@ frame_needed = 0, uses_anonymous_args = 0
 831:Drivers/lvgl/src/core/lv_refr.c ****     lv_obj_t * found_p = NULL;
 446              		.loc 1 831 1 is_stmt 0 view .LVU116
 447 0000 70B5     		push	{r4, r5, r6, lr}
 448              	.LCFI12:
 449              		.cfi_def_cfa_offset 16
 450              		.cfi_offset 4, -16
 451              		.cfi_offset 5, -12
 452              		.cfi_offset 6, -8
 453              		.cfi_offset 14, -4
 454 0002 84B0     		sub	sp, sp, #16
 455              	.LCFI13:
 456              		.cfi_def_cfa_offset 32
 457 0004 0546     		mov	r5, r0
 458 0006 0C46     		mov	r4, r1
 832:Drivers/lvgl/src/core/lv_refr.c **** 
 459              		.loc 1 832 5 is_stmt 1 view .LVU117
 460              	.LVL33:
 834:Drivers/lvgl/src/core/lv_refr.c ****     if(lv_obj_has_flag(obj, LV_OBJ_FLAG_HIDDEN)) return NULL;
 461              		.loc 1 834 5 view .LVU118
 834:Drivers/lvgl/src/core/lv_refr.c ****     if(lv_obj_has_flag(obj, LV_OBJ_FLAG_HIDDEN)) return NULL;
 462              		.loc 1 834 8 is_stmt 0 view .LVU119
 463 0008 0022     		movs	r2, #0
 464 000a 1431     		adds	r1, r1, #20
 465              	.LVL34:
 834:Drivers/lvgl/src/core/lv_refr.c ****     if(lv_obj_has_flag(obj, LV_OBJ_FLAG_HIDDEN)) return NULL;
ARM GAS  /tmp/cc3ln58M.s 			page 34


 466              		.loc 1 834 8 view .LVU120
 467 000c FFF7FEFF 		bl	lv_area_is_in
 468              	.LVL35:
 834:Drivers/lvgl/src/core/lv_refr.c ****     if(lv_obj_has_flag(obj, LV_OBJ_FLAG_HIDDEN)) return NULL;
 469              		.loc 1 834 7 discriminator 1 view .LVU121
 470 0010 A8B3     		cbz	r0, .L27
 835:Drivers/lvgl/src/core/lv_refr.c ****     if(lv_obj_get_layer_type(obj) != LV_LAYER_TYPE_NONE) return NULL;
 471              		.loc 1 835 5 is_stmt 1 view .LVU122
 835:Drivers/lvgl/src/core/lv_refr.c ****     if(lv_obj_get_layer_type(obj) != LV_LAYER_TYPE_NONE) return NULL;
 472              		.loc 1 835 8 is_stmt 0 view .LVU123
 473 0012 0121     		movs	r1, #1
 474 0014 2046     		mov	r0, r4
 475 0016 FFF7FEFF 		bl	lv_obj_has_flag
 476              	.LVL36:
 835:Drivers/lvgl/src/core/lv_refr.c ****     if(lv_obj_get_layer_type(obj) != LV_LAYER_TYPE_NONE) return NULL;
 477              		.loc 1 835 7 discriminator 1 view .LVU124
 478 001a 98BB     		cbnz	r0, .L28
 836:Drivers/lvgl/src/core/lv_refr.c ****     if(lv_obj_get_style_opa(obj, LV_PART_MAIN) < LV_OPA_MAX) return NULL;
 479              		.loc 1 836 5 is_stmt 1 view .LVU125
 836:Drivers/lvgl/src/core/lv_refr.c ****     if(lv_obj_get_style_opa(obj, LV_PART_MAIN) < LV_OPA_MAX) return NULL;
 480              		.loc 1 836 8 is_stmt 0 view .LVU126
 481 001c 2046     		mov	r0, r4
 482 001e FFF7FEFF 		bl	lv_obj_get_layer_type
 483              	.LVL37:
 836:Drivers/lvgl/src/core/lv_refr.c ****     if(lv_obj_get_style_opa(obj, LV_PART_MAIN) < LV_OPA_MAX) return NULL;
 484              		.loc 1 836 7 discriminator 1 view .LVU127
 485 0022 88BB     		cbnz	r0, .L29
 837:Drivers/lvgl/src/core/lv_refr.c **** 
 486              		.loc 1 837 5 is_stmt 1 view .LVU128
 487              	.LVL38:
 488              	.LBB53:
 489              	.LBI53:
 490              		.file 2 "Drivers/lvgl/src/core/lv_obj_style_gen.h"
   1:Drivers/lvgl/src/core/lv_obj_style_gen.h **** 
   2:Drivers/lvgl/src/core/lv_obj_style_gen.h **** /*
   3:Drivers/lvgl/src/core/lv_obj_style_gen.h ****  **********************************************************************
   4:Drivers/lvgl/src/core/lv_obj_style_gen.h ****  *                            DO NOT EDIT
   5:Drivers/lvgl/src/core/lv_obj_style_gen.h ****  * This file is automatically generated by "style_api_gen.py"
   6:Drivers/lvgl/src/core/lv_obj_style_gen.h ****  **********************************************************************
   7:Drivers/lvgl/src/core/lv_obj_style_gen.h ****  */
   8:Drivers/lvgl/src/core/lv_obj_style_gen.h **** 
   9:Drivers/lvgl/src/core/lv_obj_style_gen.h **** 
  10:Drivers/lvgl/src/core/lv_obj_style_gen.h **** #ifndef LV_OBJ_STYLE_GEN_H
  11:Drivers/lvgl/src/core/lv_obj_style_gen.h **** #define LV_OBJ_STYLE_GEN_H
  12:Drivers/lvgl/src/core/lv_obj_style_gen.h **** 
  13:Drivers/lvgl/src/core/lv_obj_style_gen.h **** #ifdef __cplusplus
  14:Drivers/lvgl/src/core/lv_obj_style_gen.h **** extern "C" {
  15:Drivers/lvgl/src/core/lv_obj_style_gen.h **** #endif
  16:Drivers/lvgl/src/core/lv_obj_style_gen.h **** 
  17:Drivers/lvgl/src/core/lv_obj_style_gen.h **** #include "../misc/lv_area.h"
  18:Drivers/lvgl/src/core/lv_obj_style_gen.h **** #include "../misc/lv_style.h"
  19:Drivers/lvgl/src/core/lv_obj_style_gen.h **** #include "../core/lv_obj_style.h"
  20:Drivers/lvgl/src/core/lv_obj_style_gen.h **** #include "../misc/lv_types.h"
  21:Drivers/lvgl/src/core/lv_obj_style_gen.h **** 
  22:Drivers/lvgl/src/core/lv_obj_style_gen.h **** static inline int32_t lv_obj_get_style_width(const lv_obj_t * obj, lv_part_t part)
  23:Drivers/lvgl/src/core/lv_obj_style_gen.h **** {
  24:Drivers/lvgl/src/core/lv_obj_style_gen.h ****     lv_style_value_t v = lv_obj_get_style_prop(obj, part, LV_STYLE_WIDTH);
ARM GAS  /tmp/cc3ln58M.s 			page 35


  25:Drivers/lvgl/src/core/lv_obj_style_gen.h ****     return (int32_t)v.num;
  26:Drivers/lvgl/src/core/lv_obj_style_gen.h **** }
  27:Drivers/lvgl/src/core/lv_obj_style_gen.h **** 
  28:Drivers/lvgl/src/core/lv_obj_style_gen.h **** static inline int32_t lv_obj_get_style_min_width(const lv_obj_t * obj, lv_part_t part)
  29:Drivers/lvgl/src/core/lv_obj_style_gen.h **** {
  30:Drivers/lvgl/src/core/lv_obj_style_gen.h ****     lv_style_value_t v = lv_obj_get_style_prop(obj, part, LV_STYLE_MIN_WIDTH);
  31:Drivers/lvgl/src/core/lv_obj_style_gen.h ****     return (int32_t)v.num;
  32:Drivers/lvgl/src/core/lv_obj_style_gen.h **** }
  33:Drivers/lvgl/src/core/lv_obj_style_gen.h **** 
  34:Drivers/lvgl/src/core/lv_obj_style_gen.h **** static inline int32_t lv_obj_get_style_max_width(const lv_obj_t * obj, lv_part_t part)
  35:Drivers/lvgl/src/core/lv_obj_style_gen.h **** {
  36:Drivers/lvgl/src/core/lv_obj_style_gen.h ****     lv_style_value_t v = lv_obj_get_style_prop(obj, part, LV_STYLE_MAX_WIDTH);
  37:Drivers/lvgl/src/core/lv_obj_style_gen.h ****     return (int32_t)v.num;
  38:Drivers/lvgl/src/core/lv_obj_style_gen.h **** }
  39:Drivers/lvgl/src/core/lv_obj_style_gen.h **** 
  40:Drivers/lvgl/src/core/lv_obj_style_gen.h **** static inline int32_t lv_obj_get_style_height(const lv_obj_t * obj, lv_part_t part)
  41:Drivers/lvgl/src/core/lv_obj_style_gen.h **** {
  42:Drivers/lvgl/src/core/lv_obj_style_gen.h ****     lv_style_value_t v = lv_obj_get_style_prop(obj, part, LV_STYLE_HEIGHT);
  43:Drivers/lvgl/src/core/lv_obj_style_gen.h ****     return (int32_t)v.num;
  44:Drivers/lvgl/src/core/lv_obj_style_gen.h **** }
  45:Drivers/lvgl/src/core/lv_obj_style_gen.h **** 
  46:Drivers/lvgl/src/core/lv_obj_style_gen.h **** static inline int32_t lv_obj_get_style_min_height(const lv_obj_t * obj, lv_part_t part)
  47:Drivers/lvgl/src/core/lv_obj_style_gen.h **** {
  48:Drivers/lvgl/src/core/lv_obj_style_gen.h ****     lv_style_value_t v = lv_obj_get_style_prop(obj, part, LV_STYLE_MIN_HEIGHT);
  49:Drivers/lvgl/src/core/lv_obj_style_gen.h ****     return (int32_t)v.num;
  50:Drivers/lvgl/src/core/lv_obj_style_gen.h **** }
  51:Drivers/lvgl/src/core/lv_obj_style_gen.h **** 
  52:Drivers/lvgl/src/core/lv_obj_style_gen.h **** static inline int32_t lv_obj_get_style_max_height(const lv_obj_t * obj, lv_part_t part)
  53:Drivers/lvgl/src/core/lv_obj_style_gen.h **** {
  54:Drivers/lvgl/src/core/lv_obj_style_gen.h ****     lv_style_value_t v = lv_obj_get_style_prop(obj, part, LV_STYLE_MAX_HEIGHT);
  55:Drivers/lvgl/src/core/lv_obj_style_gen.h ****     return (int32_t)v.num;
  56:Drivers/lvgl/src/core/lv_obj_style_gen.h **** }
  57:Drivers/lvgl/src/core/lv_obj_style_gen.h **** 
  58:Drivers/lvgl/src/core/lv_obj_style_gen.h **** static inline int32_t lv_obj_get_style_length(const lv_obj_t * obj, lv_part_t part)
  59:Drivers/lvgl/src/core/lv_obj_style_gen.h **** {
  60:Drivers/lvgl/src/core/lv_obj_style_gen.h ****     lv_style_value_t v = lv_obj_get_style_prop(obj, part, LV_STYLE_LENGTH);
  61:Drivers/lvgl/src/core/lv_obj_style_gen.h ****     return (int32_t)v.num;
  62:Drivers/lvgl/src/core/lv_obj_style_gen.h **** }
  63:Drivers/lvgl/src/core/lv_obj_style_gen.h **** 
  64:Drivers/lvgl/src/core/lv_obj_style_gen.h **** static inline int32_t lv_obj_get_style_x(const lv_obj_t * obj, lv_part_t part)
  65:Drivers/lvgl/src/core/lv_obj_style_gen.h **** {
  66:Drivers/lvgl/src/core/lv_obj_style_gen.h ****     lv_style_value_t v = lv_obj_get_style_prop(obj, part, LV_STYLE_X);
  67:Drivers/lvgl/src/core/lv_obj_style_gen.h ****     return (int32_t)v.num;
  68:Drivers/lvgl/src/core/lv_obj_style_gen.h **** }
  69:Drivers/lvgl/src/core/lv_obj_style_gen.h **** 
  70:Drivers/lvgl/src/core/lv_obj_style_gen.h **** static inline int32_t lv_obj_get_style_y(const lv_obj_t * obj, lv_part_t part)
  71:Drivers/lvgl/src/core/lv_obj_style_gen.h **** {
  72:Drivers/lvgl/src/core/lv_obj_style_gen.h ****     lv_style_value_t v = lv_obj_get_style_prop(obj, part, LV_STYLE_Y);
  73:Drivers/lvgl/src/core/lv_obj_style_gen.h ****     return (int32_t)v.num;
  74:Drivers/lvgl/src/core/lv_obj_style_gen.h **** }
  75:Drivers/lvgl/src/core/lv_obj_style_gen.h **** 
  76:Drivers/lvgl/src/core/lv_obj_style_gen.h **** static inline lv_align_t lv_obj_get_style_align(const lv_obj_t * obj, lv_part_t part)
  77:Drivers/lvgl/src/core/lv_obj_style_gen.h **** {
  78:Drivers/lvgl/src/core/lv_obj_style_gen.h ****     lv_style_value_t v = lv_obj_get_style_prop(obj, part, LV_STYLE_ALIGN);
  79:Drivers/lvgl/src/core/lv_obj_style_gen.h ****     return (lv_align_t)v.num;
  80:Drivers/lvgl/src/core/lv_obj_style_gen.h **** }
  81:Drivers/lvgl/src/core/lv_obj_style_gen.h **** 
ARM GAS  /tmp/cc3ln58M.s 			page 36


  82:Drivers/lvgl/src/core/lv_obj_style_gen.h **** static inline int32_t lv_obj_get_style_transform_width(const lv_obj_t * obj, lv_part_t part)
  83:Drivers/lvgl/src/core/lv_obj_style_gen.h **** {
  84:Drivers/lvgl/src/core/lv_obj_style_gen.h ****     lv_style_value_t v = lv_obj_get_style_prop(obj, part, LV_STYLE_TRANSFORM_WIDTH);
  85:Drivers/lvgl/src/core/lv_obj_style_gen.h ****     return (int32_t)v.num;
  86:Drivers/lvgl/src/core/lv_obj_style_gen.h **** }
  87:Drivers/lvgl/src/core/lv_obj_style_gen.h **** 
  88:Drivers/lvgl/src/core/lv_obj_style_gen.h **** static inline int32_t lv_obj_get_style_transform_height(const lv_obj_t * obj, lv_part_t part)
  89:Drivers/lvgl/src/core/lv_obj_style_gen.h **** {
  90:Drivers/lvgl/src/core/lv_obj_style_gen.h ****     lv_style_value_t v = lv_obj_get_style_prop(obj, part, LV_STYLE_TRANSFORM_HEIGHT);
  91:Drivers/lvgl/src/core/lv_obj_style_gen.h ****     return (int32_t)v.num;
  92:Drivers/lvgl/src/core/lv_obj_style_gen.h **** }
  93:Drivers/lvgl/src/core/lv_obj_style_gen.h **** 
  94:Drivers/lvgl/src/core/lv_obj_style_gen.h **** static inline int32_t lv_obj_get_style_translate_x(const lv_obj_t * obj, lv_part_t part)
  95:Drivers/lvgl/src/core/lv_obj_style_gen.h **** {
  96:Drivers/lvgl/src/core/lv_obj_style_gen.h ****     lv_style_value_t v = lv_obj_get_style_prop(obj, part, LV_STYLE_TRANSLATE_X);
  97:Drivers/lvgl/src/core/lv_obj_style_gen.h ****     return (int32_t)v.num;
  98:Drivers/lvgl/src/core/lv_obj_style_gen.h **** }
  99:Drivers/lvgl/src/core/lv_obj_style_gen.h **** 
 100:Drivers/lvgl/src/core/lv_obj_style_gen.h **** static inline int32_t lv_obj_get_style_translate_y(const lv_obj_t * obj, lv_part_t part)
 101:Drivers/lvgl/src/core/lv_obj_style_gen.h **** {
 102:Drivers/lvgl/src/core/lv_obj_style_gen.h ****     lv_style_value_t v = lv_obj_get_style_prop(obj, part, LV_STYLE_TRANSLATE_Y);
 103:Drivers/lvgl/src/core/lv_obj_style_gen.h ****     return (int32_t)v.num;
 104:Drivers/lvgl/src/core/lv_obj_style_gen.h **** }
 105:Drivers/lvgl/src/core/lv_obj_style_gen.h **** 
 106:Drivers/lvgl/src/core/lv_obj_style_gen.h **** static inline int32_t lv_obj_get_style_translate_radial(const lv_obj_t * obj, lv_part_t part)
 107:Drivers/lvgl/src/core/lv_obj_style_gen.h **** {
 108:Drivers/lvgl/src/core/lv_obj_style_gen.h ****     lv_style_value_t v = lv_obj_get_style_prop(obj, part, LV_STYLE_TRANSLATE_RADIAL);
 109:Drivers/lvgl/src/core/lv_obj_style_gen.h ****     return (int32_t)v.num;
 110:Drivers/lvgl/src/core/lv_obj_style_gen.h **** }
 111:Drivers/lvgl/src/core/lv_obj_style_gen.h **** 
 112:Drivers/lvgl/src/core/lv_obj_style_gen.h **** static inline int32_t lv_obj_get_style_transform_scale_x(const lv_obj_t * obj, lv_part_t part)
 113:Drivers/lvgl/src/core/lv_obj_style_gen.h **** {
 114:Drivers/lvgl/src/core/lv_obj_style_gen.h ****     lv_style_value_t v = lv_obj_get_style_prop(obj, part, LV_STYLE_TRANSFORM_SCALE_X);
 115:Drivers/lvgl/src/core/lv_obj_style_gen.h ****     return (int32_t)v.num;
 116:Drivers/lvgl/src/core/lv_obj_style_gen.h **** }
 117:Drivers/lvgl/src/core/lv_obj_style_gen.h **** 
 118:Drivers/lvgl/src/core/lv_obj_style_gen.h **** static inline int32_t lv_obj_get_style_transform_scale_y(const lv_obj_t * obj, lv_part_t part)
 119:Drivers/lvgl/src/core/lv_obj_style_gen.h **** {
 120:Drivers/lvgl/src/core/lv_obj_style_gen.h ****     lv_style_value_t v = lv_obj_get_style_prop(obj, part, LV_STYLE_TRANSFORM_SCALE_Y);
 121:Drivers/lvgl/src/core/lv_obj_style_gen.h ****     return (int32_t)v.num;
 122:Drivers/lvgl/src/core/lv_obj_style_gen.h **** }
 123:Drivers/lvgl/src/core/lv_obj_style_gen.h **** 
 124:Drivers/lvgl/src/core/lv_obj_style_gen.h **** static inline int32_t lv_obj_get_style_transform_rotation(const lv_obj_t * obj, lv_part_t part)
 125:Drivers/lvgl/src/core/lv_obj_style_gen.h **** {
 126:Drivers/lvgl/src/core/lv_obj_style_gen.h ****     lv_style_value_t v = lv_obj_get_style_prop(obj, part, LV_STYLE_TRANSFORM_ROTATION);
 127:Drivers/lvgl/src/core/lv_obj_style_gen.h ****     return (int32_t)v.num;
 128:Drivers/lvgl/src/core/lv_obj_style_gen.h **** }
 129:Drivers/lvgl/src/core/lv_obj_style_gen.h **** 
 130:Drivers/lvgl/src/core/lv_obj_style_gen.h **** static inline int32_t lv_obj_get_style_transform_pivot_x(const lv_obj_t * obj, lv_part_t part)
 131:Drivers/lvgl/src/core/lv_obj_style_gen.h **** {
 132:Drivers/lvgl/src/core/lv_obj_style_gen.h ****     lv_style_value_t v = lv_obj_get_style_prop(obj, part, LV_STYLE_TRANSFORM_PIVOT_X);
 133:Drivers/lvgl/src/core/lv_obj_style_gen.h ****     return (int32_t)v.num;
 134:Drivers/lvgl/src/core/lv_obj_style_gen.h **** }
 135:Drivers/lvgl/src/core/lv_obj_style_gen.h **** 
 136:Drivers/lvgl/src/core/lv_obj_style_gen.h **** static inline int32_t lv_obj_get_style_transform_pivot_y(const lv_obj_t * obj, lv_part_t part)
 137:Drivers/lvgl/src/core/lv_obj_style_gen.h **** {
 138:Drivers/lvgl/src/core/lv_obj_style_gen.h ****     lv_style_value_t v = lv_obj_get_style_prop(obj, part, LV_STYLE_TRANSFORM_PIVOT_Y);
ARM GAS  /tmp/cc3ln58M.s 			page 37


 139:Drivers/lvgl/src/core/lv_obj_style_gen.h ****     return (int32_t)v.num;
 140:Drivers/lvgl/src/core/lv_obj_style_gen.h **** }
 141:Drivers/lvgl/src/core/lv_obj_style_gen.h **** 
 142:Drivers/lvgl/src/core/lv_obj_style_gen.h **** static inline int32_t lv_obj_get_style_transform_skew_x(const lv_obj_t * obj, lv_part_t part)
 143:Drivers/lvgl/src/core/lv_obj_style_gen.h **** {
 144:Drivers/lvgl/src/core/lv_obj_style_gen.h ****     lv_style_value_t v = lv_obj_get_style_prop(obj, part, LV_STYLE_TRANSFORM_SKEW_X);
 145:Drivers/lvgl/src/core/lv_obj_style_gen.h ****     return (int32_t)v.num;
 146:Drivers/lvgl/src/core/lv_obj_style_gen.h **** }
 147:Drivers/lvgl/src/core/lv_obj_style_gen.h **** 
 148:Drivers/lvgl/src/core/lv_obj_style_gen.h **** static inline int32_t lv_obj_get_style_transform_skew_y(const lv_obj_t * obj, lv_part_t part)
 149:Drivers/lvgl/src/core/lv_obj_style_gen.h **** {
 150:Drivers/lvgl/src/core/lv_obj_style_gen.h ****     lv_style_value_t v = lv_obj_get_style_prop(obj, part, LV_STYLE_TRANSFORM_SKEW_Y);
 151:Drivers/lvgl/src/core/lv_obj_style_gen.h ****     return (int32_t)v.num;
 152:Drivers/lvgl/src/core/lv_obj_style_gen.h **** }
 153:Drivers/lvgl/src/core/lv_obj_style_gen.h **** 
 154:Drivers/lvgl/src/core/lv_obj_style_gen.h **** static inline int32_t lv_obj_get_style_pad_top(const lv_obj_t * obj, lv_part_t part)
 155:Drivers/lvgl/src/core/lv_obj_style_gen.h **** {
 156:Drivers/lvgl/src/core/lv_obj_style_gen.h ****     lv_style_value_t v = lv_obj_get_style_prop(obj, part, LV_STYLE_PAD_TOP);
 157:Drivers/lvgl/src/core/lv_obj_style_gen.h ****     return (int32_t)v.num;
 158:Drivers/lvgl/src/core/lv_obj_style_gen.h **** }
 159:Drivers/lvgl/src/core/lv_obj_style_gen.h **** 
 160:Drivers/lvgl/src/core/lv_obj_style_gen.h **** static inline int32_t lv_obj_get_style_pad_bottom(const lv_obj_t * obj, lv_part_t part)
 161:Drivers/lvgl/src/core/lv_obj_style_gen.h **** {
 162:Drivers/lvgl/src/core/lv_obj_style_gen.h ****     lv_style_value_t v = lv_obj_get_style_prop(obj, part, LV_STYLE_PAD_BOTTOM);
 163:Drivers/lvgl/src/core/lv_obj_style_gen.h ****     return (int32_t)v.num;
 164:Drivers/lvgl/src/core/lv_obj_style_gen.h **** }
 165:Drivers/lvgl/src/core/lv_obj_style_gen.h **** 
 166:Drivers/lvgl/src/core/lv_obj_style_gen.h **** static inline int32_t lv_obj_get_style_pad_left(const lv_obj_t * obj, lv_part_t part)
 167:Drivers/lvgl/src/core/lv_obj_style_gen.h **** {
 168:Drivers/lvgl/src/core/lv_obj_style_gen.h ****     lv_style_value_t v = lv_obj_get_style_prop(obj, part, LV_STYLE_PAD_LEFT);
 169:Drivers/lvgl/src/core/lv_obj_style_gen.h ****     return (int32_t)v.num;
 170:Drivers/lvgl/src/core/lv_obj_style_gen.h **** }
 171:Drivers/lvgl/src/core/lv_obj_style_gen.h **** 
 172:Drivers/lvgl/src/core/lv_obj_style_gen.h **** static inline int32_t lv_obj_get_style_pad_right(const lv_obj_t * obj, lv_part_t part)
 173:Drivers/lvgl/src/core/lv_obj_style_gen.h **** {
 174:Drivers/lvgl/src/core/lv_obj_style_gen.h ****     lv_style_value_t v = lv_obj_get_style_prop(obj, part, LV_STYLE_PAD_RIGHT);
 175:Drivers/lvgl/src/core/lv_obj_style_gen.h ****     return (int32_t)v.num;
 176:Drivers/lvgl/src/core/lv_obj_style_gen.h **** }
 177:Drivers/lvgl/src/core/lv_obj_style_gen.h **** 
 178:Drivers/lvgl/src/core/lv_obj_style_gen.h **** static inline int32_t lv_obj_get_style_pad_row(const lv_obj_t * obj, lv_part_t part)
 179:Drivers/lvgl/src/core/lv_obj_style_gen.h **** {
 180:Drivers/lvgl/src/core/lv_obj_style_gen.h ****     lv_style_value_t v = lv_obj_get_style_prop(obj, part, LV_STYLE_PAD_ROW);
 181:Drivers/lvgl/src/core/lv_obj_style_gen.h ****     return (int32_t)v.num;
 182:Drivers/lvgl/src/core/lv_obj_style_gen.h **** }
 183:Drivers/lvgl/src/core/lv_obj_style_gen.h **** 
 184:Drivers/lvgl/src/core/lv_obj_style_gen.h **** static inline int32_t lv_obj_get_style_pad_column(const lv_obj_t * obj, lv_part_t part)
 185:Drivers/lvgl/src/core/lv_obj_style_gen.h **** {
 186:Drivers/lvgl/src/core/lv_obj_style_gen.h ****     lv_style_value_t v = lv_obj_get_style_prop(obj, part, LV_STYLE_PAD_COLUMN);
 187:Drivers/lvgl/src/core/lv_obj_style_gen.h ****     return (int32_t)v.num;
 188:Drivers/lvgl/src/core/lv_obj_style_gen.h **** }
 189:Drivers/lvgl/src/core/lv_obj_style_gen.h **** 
 190:Drivers/lvgl/src/core/lv_obj_style_gen.h **** static inline int32_t lv_obj_get_style_pad_radial(const lv_obj_t * obj, lv_part_t part)
 191:Drivers/lvgl/src/core/lv_obj_style_gen.h **** {
 192:Drivers/lvgl/src/core/lv_obj_style_gen.h ****     lv_style_value_t v = lv_obj_get_style_prop(obj, part, LV_STYLE_PAD_RADIAL);
 193:Drivers/lvgl/src/core/lv_obj_style_gen.h ****     return (int32_t)v.num;
 194:Drivers/lvgl/src/core/lv_obj_style_gen.h **** }
 195:Drivers/lvgl/src/core/lv_obj_style_gen.h **** 
ARM GAS  /tmp/cc3ln58M.s 			page 38


 196:Drivers/lvgl/src/core/lv_obj_style_gen.h **** static inline int32_t lv_obj_get_style_margin_top(const lv_obj_t * obj, lv_part_t part)
 197:Drivers/lvgl/src/core/lv_obj_style_gen.h **** {
 198:Drivers/lvgl/src/core/lv_obj_style_gen.h ****     lv_style_value_t v = lv_obj_get_style_prop(obj, part, LV_STYLE_MARGIN_TOP);
 199:Drivers/lvgl/src/core/lv_obj_style_gen.h ****     return (int32_t)v.num;
 200:Drivers/lvgl/src/core/lv_obj_style_gen.h **** }
 201:Drivers/lvgl/src/core/lv_obj_style_gen.h **** 
 202:Drivers/lvgl/src/core/lv_obj_style_gen.h **** static inline int32_t lv_obj_get_style_margin_bottom(const lv_obj_t * obj, lv_part_t part)
 203:Drivers/lvgl/src/core/lv_obj_style_gen.h **** {
 204:Drivers/lvgl/src/core/lv_obj_style_gen.h ****     lv_style_value_t v = lv_obj_get_style_prop(obj, part, LV_STYLE_MARGIN_BOTTOM);
 205:Drivers/lvgl/src/core/lv_obj_style_gen.h ****     return (int32_t)v.num;
 206:Drivers/lvgl/src/core/lv_obj_style_gen.h **** }
 207:Drivers/lvgl/src/core/lv_obj_style_gen.h **** 
 208:Drivers/lvgl/src/core/lv_obj_style_gen.h **** static inline int32_t lv_obj_get_style_margin_left(const lv_obj_t * obj, lv_part_t part)
 209:Drivers/lvgl/src/core/lv_obj_style_gen.h **** {
 210:Drivers/lvgl/src/core/lv_obj_style_gen.h ****     lv_style_value_t v = lv_obj_get_style_prop(obj, part, LV_STYLE_MARGIN_LEFT);
 211:Drivers/lvgl/src/core/lv_obj_style_gen.h ****     return (int32_t)v.num;
 212:Drivers/lvgl/src/core/lv_obj_style_gen.h **** }
 213:Drivers/lvgl/src/core/lv_obj_style_gen.h **** 
 214:Drivers/lvgl/src/core/lv_obj_style_gen.h **** static inline int32_t lv_obj_get_style_margin_right(const lv_obj_t * obj, lv_part_t part)
 215:Drivers/lvgl/src/core/lv_obj_style_gen.h **** {
 216:Drivers/lvgl/src/core/lv_obj_style_gen.h ****     lv_style_value_t v = lv_obj_get_style_prop(obj, part, LV_STYLE_MARGIN_RIGHT);
 217:Drivers/lvgl/src/core/lv_obj_style_gen.h ****     return (int32_t)v.num;
 218:Drivers/lvgl/src/core/lv_obj_style_gen.h **** }
 219:Drivers/lvgl/src/core/lv_obj_style_gen.h **** 
 220:Drivers/lvgl/src/core/lv_obj_style_gen.h **** static inline lv_color_t lv_obj_get_style_bg_color(const lv_obj_t * obj, lv_part_t part)
 221:Drivers/lvgl/src/core/lv_obj_style_gen.h **** {
 222:Drivers/lvgl/src/core/lv_obj_style_gen.h ****     lv_style_value_t v = lv_obj_get_style_prop(obj, part, LV_STYLE_BG_COLOR);
 223:Drivers/lvgl/src/core/lv_obj_style_gen.h ****     return v.color;
 224:Drivers/lvgl/src/core/lv_obj_style_gen.h **** }
 225:Drivers/lvgl/src/core/lv_obj_style_gen.h **** 
 226:Drivers/lvgl/src/core/lv_obj_style_gen.h **** static inline lv_color_t lv_obj_get_style_bg_color_filtered(const lv_obj_t * obj, lv_part_t part)
 227:Drivers/lvgl/src/core/lv_obj_style_gen.h **** {
 228:Drivers/lvgl/src/core/lv_obj_style_gen.h ****     lv_style_value_t v = lv_obj_style_apply_color_filter(obj, part, lv_obj_get_style_prop(obj, part
 229:Drivers/lvgl/src/core/lv_obj_style_gen.h ****     return v.color;
 230:Drivers/lvgl/src/core/lv_obj_style_gen.h **** }
 231:Drivers/lvgl/src/core/lv_obj_style_gen.h **** 
 232:Drivers/lvgl/src/core/lv_obj_style_gen.h **** static inline lv_opa_t lv_obj_get_style_bg_opa(const lv_obj_t * obj, lv_part_t part)
 233:Drivers/lvgl/src/core/lv_obj_style_gen.h **** {
 234:Drivers/lvgl/src/core/lv_obj_style_gen.h ****     lv_style_value_t v = lv_obj_get_style_prop(obj, part, LV_STYLE_BG_OPA);
 235:Drivers/lvgl/src/core/lv_obj_style_gen.h ****     return (lv_opa_t)v.num;
 236:Drivers/lvgl/src/core/lv_obj_style_gen.h **** }
 237:Drivers/lvgl/src/core/lv_obj_style_gen.h **** 
 238:Drivers/lvgl/src/core/lv_obj_style_gen.h **** static inline lv_color_t lv_obj_get_style_bg_grad_color(const lv_obj_t * obj, lv_part_t part)
 239:Drivers/lvgl/src/core/lv_obj_style_gen.h **** {
 240:Drivers/lvgl/src/core/lv_obj_style_gen.h ****     lv_style_value_t v = lv_obj_get_style_prop(obj, part, LV_STYLE_BG_GRAD_COLOR);
 241:Drivers/lvgl/src/core/lv_obj_style_gen.h ****     return v.color;
 242:Drivers/lvgl/src/core/lv_obj_style_gen.h **** }
 243:Drivers/lvgl/src/core/lv_obj_style_gen.h **** 
 244:Drivers/lvgl/src/core/lv_obj_style_gen.h **** static inline lv_color_t lv_obj_get_style_bg_grad_color_filtered(const lv_obj_t * obj, lv_part_t pa
 245:Drivers/lvgl/src/core/lv_obj_style_gen.h **** {
 246:Drivers/lvgl/src/core/lv_obj_style_gen.h ****     lv_style_value_t v = lv_obj_style_apply_color_filter(obj, part, lv_obj_get_style_prop(obj, part
 247:Drivers/lvgl/src/core/lv_obj_style_gen.h ****     return v.color;
 248:Drivers/lvgl/src/core/lv_obj_style_gen.h **** }
 249:Drivers/lvgl/src/core/lv_obj_style_gen.h **** 
 250:Drivers/lvgl/src/core/lv_obj_style_gen.h **** static inline lv_grad_dir_t lv_obj_get_style_bg_grad_dir(const lv_obj_t * obj, lv_part_t part)
 251:Drivers/lvgl/src/core/lv_obj_style_gen.h **** {
 252:Drivers/lvgl/src/core/lv_obj_style_gen.h ****     lv_style_value_t v = lv_obj_get_style_prop(obj, part, LV_STYLE_BG_GRAD_DIR);
ARM GAS  /tmp/cc3ln58M.s 			page 39


 253:Drivers/lvgl/src/core/lv_obj_style_gen.h ****     return (lv_grad_dir_t)v.num;
 254:Drivers/lvgl/src/core/lv_obj_style_gen.h **** }
 255:Drivers/lvgl/src/core/lv_obj_style_gen.h **** 
 256:Drivers/lvgl/src/core/lv_obj_style_gen.h **** static inline int32_t lv_obj_get_style_bg_main_stop(const lv_obj_t * obj, lv_part_t part)
 257:Drivers/lvgl/src/core/lv_obj_style_gen.h **** {
 258:Drivers/lvgl/src/core/lv_obj_style_gen.h ****     lv_style_value_t v = lv_obj_get_style_prop(obj, part, LV_STYLE_BG_MAIN_STOP);
 259:Drivers/lvgl/src/core/lv_obj_style_gen.h ****     return (int32_t)v.num;
 260:Drivers/lvgl/src/core/lv_obj_style_gen.h **** }
 261:Drivers/lvgl/src/core/lv_obj_style_gen.h **** 
 262:Drivers/lvgl/src/core/lv_obj_style_gen.h **** static inline int32_t lv_obj_get_style_bg_grad_stop(const lv_obj_t * obj, lv_part_t part)
 263:Drivers/lvgl/src/core/lv_obj_style_gen.h **** {
 264:Drivers/lvgl/src/core/lv_obj_style_gen.h ****     lv_style_value_t v = lv_obj_get_style_prop(obj, part, LV_STYLE_BG_GRAD_STOP);
 265:Drivers/lvgl/src/core/lv_obj_style_gen.h ****     return (int32_t)v.num;
 266:Drivers/lvgl/src/core/lv_obj_style_gen.h **** }
 267:Drivers/lvgl/src/core/lv_obj_style_gen.h **** 
 268:Drivers/lvgl/src/core/lv_obj_style_gen.h **** static inline lv_opa_t lv_obj_get_style_bg_main_opa(const lv_obj_t * obj, lv_part_t part)
 269:Drivers/lvgl/src/core/lv_obj_style_gen.h **** {
 270:Drivers/lvgl/src/core/lv_obj_style_gen.h ****     lv_style_value_t v = lv_obj_get_style_prop(obj, part, LV_STYLE_BG_MAIN_OPA);
 271:Drivers/lvgl/src/core/lv_obj_style_gen.h ****     return (lv_opa_t)v.num;
 272:Drivers/lvgl/src/core/lv_obj_style_gen.h **** }
 273:Drivers/lvgl/src/core/lv_obj_style_gen.h **** 
 274:Drivers/lvgl/src/core/lv_obj_style_gen.h **** static inline lv_opa_t lv_obj_get_style_bg_grad_opa(const lv_obj_t * obj, lv_part_t part)
 275:Drivers/lvgl/src/core/lv_obj_style_gen.h **** {
 276:Drivers/lvgl/src/core/lv_obj_style_gen.h ****     lv_style_value_t v = lv_obj_get_style_prop(obj, part, LV_STYLE_BG_GRAD_OPA);
 277:Drivers/lvgl/src/core/lv_obj_style_gen.h ****     return (lv_opa_t)v.num;
 278:Drivers/lvgl/src/core/lv_obj_style_gen.h **** }
 279:Drivers/lvgl/src/core/lv_obj_style_gen.h **** 
 280:Drivers/lvgl/src/core/lv_obj_style_gen.h **** static inline const lv_grad_dsc_t * lv_obj_get_style_bg_grad(const lv_obj_t * obj, lv_part_t part)
 281:Drivers/lvgl/src/core/lv_obj_style_gen.h **** {
 282:Drivers/lvgl/src/core/lv_obj_style_gen.h ****     lv_style_value_t v = lv_obj_get_style_prop(obj, part, LV_STYLE_BG_GRAD);
 283:Drivers/lvgl/src/core/lv_obj_style_gen.h ****     return (const lv_grad_dsc_t *)v.ptr;
 284:Drivers/lvgl/src/core/lv_obj_style_gen.h **** }
 285:Drivers/lvgl/src/core/lv_obj_style_gen.h **** 
 286:Drivers/lvgl/src/core/lv_obj_style_gen.h **** static inline const void * lv_obj_get_style_bg_image_src(const lv_obj_t * obj, lv_part_t part)
 287:Drivers/lvgl/src/core/lv_obj_style_gen.h **** {
 288:Drivers/lvgl/src/core/lv_obj_style_gen.h ****     lv_style_value_t v = lv_obj_get_style_prop(obj, part, LV_STYLE_BG_IMAGE_SRC);
 289:Drivers/lvgl/src/core/lv_obj_style_gen.h ****     return (const void *)v.ptr;
 290:Drivers/lvgl/src/core/lv_obj_style_gen.h **** }
 291:Drivers/lvgl/src/core/lv_obj_style_gen.h **** 
 292:Drivers/lvgl/src/core/lv_obj_style_gen.h **** static inline lv_opa_t lv_obj_get_style_bg_image_opa(const lv_obj_t * obj, lv_part_t part)
 293:Drivers/lvgl/src/core/lv_obj_style_gen.h **** {
 294:Drivers/lvgl/src/core/lv_obj_style_gen.h ****     lv_style_value_t v = lv_obj_get_style_prop(obj, part, LV_STYLE_BG_IMAGE_OPA);
 295:Drivers/lvgl/src/core/lv_obj_style_gen.h ****     return (lv_opa_t)v.num;
 296:Drivers/lvgl/src/core/lv_obj_style_gen.h **** }
 297:Drivers/lvgl/src/core/lv_obj_style_gen.h **** 
 298:Drivers/lvgl/src/core/lv_obj_style_gen.h **** static inline lv_color_t lv_obj_get_style_bg_image_recolor(const lv_obj_t * obj, lv_part_t part)
 299:Drivers/lvgl/src/core/lv_obj_style_gen.h **** {
 300:Drivers/lvgl/src/core/lv_obj_style_gen.h ****     lv_style_value_t v = lv_obj_get_style_prop(obj, part, LV_STYLE_BG_IMAGE_RECOLOR);
 301:Drivers/lvgl/src/core/lv_obj_style_gen.h ****     return v.color;
 302:Drivers/lvgl/src/core/lv_obj_style_gen.h **** }
 303:Drivers/lvgl/src/core/lv_obj_style_gen.h **** 
 304:Drivers/lvgl/src/core/lv_obj_style_gen.h **** static inline lv_color_t lv_obj_get_style_bg_image_recolor_filtered(const lv_obj_t * obj, lv_part_t
 305:Drivers/lvgl/src/core/lv_obj_style_gen.h **** {
 306:Drivers/lvgl/src/core/lv_obj_style_gen.h ****     lv_style_value_t v = lv_obj_style_apply_color_filter(obj, part, lv_obj_get_style_prop(obj, part
 307:Drivers/lvgl/src/core/lv_obj_style_gen.h ****     return v.color;
 308:Drivers/lvgl/src/core/lv_obj_style_gen.h **** }
 309:Drivers/lvgl/src/core/lv_obj_style_gen.h **** 
ARM GAS  /tmp/cc3ln58M.s 			page 40


 310:Drivers/lvgl/src/core/lv_obj_style_gen.h **** static inline lv_opa_t lv_obj_get_style_bg_image_recolor_opa(const lv_obj_t * obj, lv_part_t part)
 311:Drivers/lvgl/src/core/lv_obj_style_gen.h **** {
 312:Drivers/lvgl/src/core/lv_obj_style_gen.h ****     lv_style_value_t v = lv_obj_get_style_prop(obj, part, LV_STYLE_BG_IMAGE_RECOLOR_OPA);
 313:Drivers/lvgl/src/core/lv_obj_style_gen.h ****     return (lv_opa_t)v.num;
 314:Drivers/lvgl/src/core/lv_obj_style_gen.h **** }
 315:Drivers/lvgl/src/core/lv_obj_style_gen.h **** 
 316:Drivers/lvgl/src/core/lv_obj_style_gen.h **** static inline bool lv_obj_get_style_bg_image_tiled(const lv_obj_t * obj, lv_part_t part)
 317:Drivers/lvgl/src/core/lv_obj_style_gen.h **** {
 318:Drivers/lvgl/src/core/lv_obj_style_gen.h ****     lv_style_value_t v = lv_obj_get_style_prop(obj, part, LV_STYLE_BG_IMAGE_TILED);
 319:Drivers/lvgl/src/core/lv_obj_style_gen.h ****     return (bool)v.num;
 320:Drivers/lvgl/src/core/lv_obj_style_gen.h **** }
 321:Drivers/lvgl/src/core/lv_obj_style_gen.h **** 
 322:Drivers/lvgl/src/core/lv_obj_style_gen.h **** static inline lv_color_t lv_obj_get_style_border_color(const lv_obj_t * obj, lv_part_t part)
 323:Drivers/lvgl/src/core/lv_obj_style_gen.h **** {
 324:Drivers/lvgl/src/core/lv_obj_style_gen.h ****     lv_style_value_t v = lv_obj_get_style_prop(obj, part, LV_STYLE_BORDER_COLOR);
 325:Drivers/lvgl/src/core/lv_obj_style_gen.h ****     return v.color;
 326:Drivers/lvgl/src/core/lv_obj_style_gen.h **** }
 327:Drivers/lvgl/src/core/lv_obj_style_gen.h **** 
 328:Drivers/lvgl/src/core/lv_obj_style_gen.h **** static inline lv_color_t lv_obj_get_style_border_color_filtered(const lv_obj_t * obj, lv_part_t par
 329:Drivers/lvgl/src/core/lv_obj_style_gen.h **** {
 330:Drivers/lvgl/src/core/lv_obj_style_gen.h ****     lv_style_value_t v = lv_obj_style_apply_color_filter(obj, part, lv_obj_get_style_prop(obj, part
 331:Drivers/lvgl/src/core/lv_obj_style_gen.h ****     return v.color;
 332:Drivers/lvgl/src/core/lv_obj_style_gen.h **** }
 333:Drivers/lvgl/src/core/lv_obj_style_gen.h **** 
 334:Drivers/lvgl/src/core/lv_obj_style_gen.h **** static inline lv_opa_t lv_obj_get_style_border_opa(const lv_obj_t * obj, lv_part_t part)
 335:Drivers/lvgl/src/core/lv_obj_style_gen.h **** {
 336:Drivers/lvgl/src/core/lv_obj_style_gen.h ****     lv_style_value_t v = lv_obj_get_style_prop(obj, part, LV_STYLE_BORDER_OPA);
 337:Drivers/lvgl/src/core/lv_obj_style_gen.h ****     return (lv_opa_t)v.num;
 338:Drivers/lvgl/src/core/lv_obj_style_gen.h **** }
 339:Drivers/lvgl/src/core/lv_obj_style_gen.h **** 
 340:Drivers/lvgl/src/core/lv_obj_style_gen.h **** static inline int32_t lv_obj_get_style_border_width(const lv_obj_t * obj, lv_part_t part)
 341:Drivers/lvgl/src/core/lv_obj_style_gen.h **** {
 342:Drivers/lvgl/src/core/lv_obj_style_gen.h ****     lv_style_value_t v = lv_obj_get_style_prop(obj, part, LV_STYLE_BORDER_WIDTH);
 343:Drivers/lvgl/src/core/lv_obj_style_gen.h ****     return (int32_t)v.num;
 344:Drivers/lvgl/src/core/lv_obj_style_gen.h **** }
 345:Drivers/lvgl/src/core/lv_obj_style_gen.h **** 
 346:Drivers/lvgl/src/core/lv_obj_style_gen.h **** static inline lv_border_side_t lv_obj_get_style_border_side(const lv_obj_t * obj, lv_part_t part)
 347:Drivers/lvgl/src/core/lv_obj_style_gen.h **** {
 348:Drivers/lvgl/src/core/lv_obj_style_gen.h ****     lv_style_value_t v = lv_obj_get_style_prop(obj, part, LV_STYLE_BORDER_SIDE);
 349:Drivers/lvgl/src/core/lv_obj_style_gen.h ****     return (lv_border_side_t)v.num;
 350:Drivers/lvgl/src/core/lv_obj_style_gen.h **** }
 351:Drivers/lvgl/src/core/lv_obj_style_gen.h **** 
 352:Drivers/lvgl/src/core/lv_obj_style_gen.h **** static inline bool lv_obj_get_style_border_post(const lv_obj_t * obj, lv_part_t part)
 353:Drivers/lvgl/src/core/lv_obj_style_gen.h **** {
 354:Drivers/lvgl/src/core/lv_obj_style_gen.h ****     lv_style_value_t v = lv_obj_get_style_prop(obj, part, LV_STYLE_BORDER_POST);
 355:Drivers/lvgl/src/core/lv_obj_style_gen.h ****     return (bool)v.num;
 356:Drivers/lvgl/src/core/lv_obj_style_gen.h **** }
 357:Drivers/lvgl/src/core/lv_obj_style_gen.h **** 
 358:Drivers/lvgl/src/core/lv_obj_style_gen.h **** static inline int32_t lv_obj_get_style_outline_width(const lv_obj_t * obj, lv_part_t part)
 359:Drivers/lvgl/src/core/lv_obj_style_gen.h **** {
 360:Drivers/lvgl/src/core/lv_obj_style_gen.h ****     lv_style_value_t v = lv_obj_get_style_prop(obj, part, LV_STYLE_OUTLINE_WIDTH);
 361:Drivers/lvgl/src/core/lv_obj_style_gen.h ****     return (int32_t)v.num;
 362:Drivers/lvgl/src/core/lv_obj_style_gen.h **** }
 363:Drivers/lvgl/src/core/lv_obj_style_gen.h **** 
 364:Drivers/lvgl/src/core/lv_obj_style_gen.h **** static inline lv_color_t lv_obj_get_style_outline_color(const lv_obj_t * obj, lv_part_t part)
 365:Drivers/lvgl/src/core/lv_obj_style_gen.h **** {
 366:Drivers/lvgl/src/core/lv_obj_style_gen.h ****     lv_style_value_t v = lv_obj_get_style_prop(obj, part, LV_STYLE_OUTLINE_COLOR);
ARM GAS  /tmp/cc3ln58M.s 			page 41


 367:Drivers/lvgl/src/core/lv_obj_style_gen.h ****     return v.color;
 368:Drivers/lvgl/src/core/lv_obj_style_gen.h **** }
 369:Drivers/lvgl/src/core/lv_obj_style_gen.h **** 
 370:Drivers/lvgl/src/core/lv_obj_style_gen.h **** static inline lv_color_t lv_obj_get_style_outline_color_filtered(const lv_obj_t * obj, lv_part_t pa
 371:Drivers/lvgl/src/core/lv_obj_style_gen.h **** {
 372:Drivers/lvgl/src/core/lv_obj_style_gen.h ****     lv_style_value_t v = lv_obj_style_apply_color_filter(obj, part, lv_obj_get_style_prop(obj, part
 373:Drivers/lvgl/src/core/lv_obj_style_gen.h ****     return v.color;
 374:Drivers/lvgl/src/core/lv_obj_style_gen.h **** }
 375:Drivers/lvgl/src/core/lv_obj_style_gen.h **** 
 376:Drivers/lvgl/src/core/lv_obj_style_gen.h **** static inline lv_opa_t lv_obj_get_style_outline_opa(const lv_obj_t * obj, lv_part_t part)
 377:Drivers/lvgl/src/core/lv_obj_style_gen.h **** {
 378:Drivers/lvgl/src/core/lv_obj_style_gen.h ****     lv_style_value_t v = lv_obj_get_style_prop(obj, part, LV_STYLE_OUTLINE_OPA);
 379:Drivers/lvgl/src/core/lv_obj_style_gen.h ****     return (lv_opa_t)v.num;
 380:Drivers/lvgl/src/core/lv_obj_style_gen.h **** }
 381:Drivers/lvgl/src/core/lv_obj_style_gen.h **** 
 382:Drivers/lvgl/src/core/lv_obj_style_gen.h **** static inline int32_t lv_obj_get_style_outline_pad(const lv_obj_t * obj, lv_part_t part)
 383:Drivers/lvgl/src/core/lv_obj_style_gen.h **** {
 384:Drivers/lvgl/src/core/lv_obj_style_gen.h ****     lv_style_value_t v = lv_obj_get_style_prop(obj, part, LV_STYLE_OUTLINE_PAD);
 385:Drivers/lvgl/src/core/lv_obj_style_gen.h ****     return (int32_t)v.num;
 386:Drivers/lvgl/src/core/lv_obj_style_gen.h **** }
 387:Drivers/lvgl/src/core/lv_obj_style_gen.h **** 
 388:Drivers/lvgl/src/core/lv_obj_style_gen.h **** static inline int32_t lv_obj_get_style_shadow_width(const lv_obj_t * obj, lv_part_t part)
 389:Drivers/lvgl/src/core/lv_obj_style_gen.h **** {
 390:Drivers/lvgl/src/core/lv_obj_style_gen.h ****     lv_style_value_t v = lv_obj_get_style_prop(obj, part, LV_STYLE_SHADOW_WIDTH);
 391:Drivers/lvgl/src/core/lv_obj_style_gen.h ****     return (int32_t)v.num;
 392:Drivers/lvgl/src/core/lv_obj_style_gen.h **** }
 393:Drivers/lvgl/src/core/lv_obj_style_gen.h **** 
 394:Drivers/lvgl/src/core/lv_obj_style_gen.h **** static inline int32_t lv_obj_get_style_shadow_offset_x(const lv_obj_t * obj, lv_part_t part)
 395:Drivers/lvgl/src/core/lv_obj_style_gen.h **** {
 396:Drivers/lvgl/src/core/lv_obj_style_gen.h ****     lv_style_value_t v = lv_obj_get_style_prop(obj, part, LV_STYLE_SHADOW_OFFSET_X);
 397:Drivers/lvgl/src/core/lv_obj_style_gen.h ****     return (int32_t)v.num;
 398:Drivers/lvgl/src/core/lv_obj_style_gen.h **** }
 399:Drivers/lvgl/src/core/lv_obj_style_gen.h **** 
 400:Drivers/lvgl/src/core/lv_obj_style_gen.h **** static inline int32_t lv_obj_get_style_shadow_offset_y(const lv_obj_t * obj, lv_part_t part)
 401:Drivers/lvgl/src/core/lv_obj_style_gen.h **** {
 402:Drivers/lvgl/src/core/lv_obj_style_gen.h ****     lv_style_value_t v = lv_obj_get_style_prop(obj, part, LV_STYLE_SHADOW_OFFSET_Y);
 403:Drivers/lvgl/src/core/lv_obj_style_gen.h ****     return (int32_t)v.num;
 404:Drivers/lvgl/src/core/lv_obj_style_gen.h **** }
 405:Drivers/lvgl/src/core/lv_obj_style_gen.h **** 
 406:Drivers/lvgl/src/core/lv_obj_style_gen.h **** static inline int32_t lv_obj_get_style_shadow_spread(const lv_obj_t * obj, lv_part_t part)
 407:Drivers/lvgl/src/core/lv_obj_style_gen.h **** {
 408:Drivers/lvgl/src/core/lv_obj_style_gen.h ****     lv_style_value_t v = lv_obj_get_style_prop(obj, part, LV_STYLE_SHADOW_SPREAD);
 409:Drivers/lvgl/src/core/lv_obj_style_gen.h ****     return (int32_t)v.num;
 410:Drivers/lvgl/src/core/lv_obj_style_gen.h **** }
 411:Drivers/lvgl/src/core/lv_obj_style_gen.h **** 
 412:Drivers/lvgl/src/core/lv_obj_style_gen.h **** static inline lv_color_t lv_obj_get_style_shadow_color(const lv_obj_t * obj, lv_part_t part)
 413:Drivers/lvgl/src/core/lv_obj_style_gen.h **** {
 414:Drivers/lvgl/src/core/lv_obj_style_gen.h ****     lv_style_value_t v = lv_obj_get_style_prop(obj, part, LV_STYLE_SHADOW_COLOR);
 415:Drivers/lvgl/src/core/lv_obj_style_gen.h ****     return v.color;
 416:Drivers/lvgl/src/core/lv_obj_style_gen.h **** }
 417:Drivers/lvgl/src/core/lv_obj_style_gen.h **** 
 418:Drivers/lvgl/src/core/lv_obj_style_gen.h **** static inline lv_color_t lv_obj_get_style_shadow_color_filtered(const lv_obj_t * obj, lv_part_t par
 419:Drivers/lvgl/src/core/lv_obj_style_gen.h **** {
 420:Drivers/lvgl/src/core/lv_obj_style_gen.h ****     lv_style_value_t v = lv_obj_style_apply_color_filter(obj, part, lv_obj_get_style_prop(obj, part
 421:Drivers/lvgl/src/core/lv_obj_style_gen.h ****     return v.color;
 422:Drivers/lvgl/src/core/lv_obj_style_gen.h **** }
 423:Drivers/lvgl/src/core/lv_obj_style_gen.h **** 
ARM GAS  /tmp/cc3ln58M.s 			page 42


 424:Drivers/lvgl/src/core/lv_obj_style_gen.h **** static inline lv_opa_t lv_obj_get_style_shadow_opa(const lv_obj_t * obj, lv_part_t part)
 425:Drivers/lvgl/src/core/lv_obj_style_gen.h **** {
 426:Drivers/lvgl/src/core/lv_obj_style_gen.h ****     lv_style_value_t v = lv_obj_get_style_prop(obj, part, LV_STYLE_SHADOW_OPA);
 427:Drivers/lvgl/src/core/lv_obj_style_gen.h ****     return (lv_opa_t)v.num;
 428:Drivers/lvgl/src/core/lv_obj_style_gen.h **** }
 429:Drivers/lvgl/src/core/lv_obj_style_gen.h **** 
 430:Drivers/lvgl/src/core/lv_obj_style_gen.h **** static inline lv_opa_t lv_obj_get_style_image_opa(const lv_obj_t * obj, lv_part_t part)
 431:Drivers/lvgl/src/core/lv_obj_style_gen.h **** {
 432:Drivers/lvgl/src/core/lv_obj_style_gen.h ****     lv_style_value_t v = lv_obj_get_style_prop(obj, part, LV_STYLE_IMAGE_OPA);
 433:Drivers/lvgl/src/core/lv_obj_style_gen.h ****     return (lv_opa_t)v.num;
 434:Drivers/lvgl/src/core/lv_obj_style_gen.h **** }
 435:Drivers/lvgl/src/core/lv_obj_style_gen.h **** 
 436:Drivers/lvgl/src/core/lv_obj_style_gen.h **** static inline lv_color_t lv_obj_get_style_image_recolor(const lv_obj_t * obj, lv_part_t part)
 437:Drivers/lvgl/src/core/lv_obj_style_gen.h **** {
 438:Drivers/lvgl/src/core/lv_obj_style_gen.h ****     lv_style_value_t v = lv_obj_get_style_prop(obj, part, LV_STYLE_IMAGE_RECOLOR);
 439:Drivers/lvgl/src/core/lv_obj_style_gen.h ****     return v.color;
 440:Drivers/lvgl/src/core/lv_obj_style_gen.h **** }
 441:Drivers/lvgl/src/core/lv_obj_style_gen.h **** 
 442:Drivers/lvgl/src/core/lv_obj_style_gen.h **** static inline lv_color_t lv_obj_get_style_image_recolor_filtered(const lv_obj_t * obj, lv_part_t pa
 443:Drivers/lvgl/src/core/lv_obj_style_gen.h **** {
 444:Drivers/lvgl/src/core/lv_obj_style_gen.h ****     lv_style_value_t v = lv_obj_style_apply_color_filter(obj, part, lv_obj_get_style_prop(obj, part
 445:Drivers/lvgl/src/core/lv_obj_style_gen.h ****     return v.color;
 446:Drivers/lvgl/src/core/lv_obj_style_gen.h **** }
 447:Drivers/lvgl/src/core/lv_obj_style_gen.h **** 
 448:Drivers/lvgl/src/core/lv_obj_style_gen.h **** static inline lv_opa_t lv_obj_get_style_image_recolor_opa(const lv_obj_t * obj, lv_part_t part)
 449:Drivers/lvgl/src/core/lv_obj_style_gen.h **** {
 450:Drivers/lvgl/src/core/lv_obj_style_gen.h ****     lv_style_value_t v = lv_obj_get_style_prop(obj, part, LV_STYLE_IMAGE_RECOLOR_OPA);
 451:Drivers/lvgl/src/core/lv_obj_style_gen.h ****     return (lv_opa_t)v.num;
 452:Drivers/lvgl/src/core/lv_obj_style_gen.h **** }
 453:Drivers/lvgl/src/core/lv_obj_style_gen.h **** 
 454:Drivers/lvgl/src/core/lv_obj_style_gen.h **** static inline int32_t lv_obj_get_style_line_width(const lv_obj_t * obj, lv_part_t part)
 455:Drivers/lvgl/src/core/lv_obj_style_gen.h **** {
 456:Drivers/lvgl/src/core/lv_obj_style_gen.h ****     lv_style_value_t v = lv_obj_get_style_prop(obj, part, LV_STYLE_LINE_WIDTH);
 457:Drivers/lvgl/src/core/lv_obj_style_gen.h ****     return (int32_t)v.num;
 458:Drivers/lvgl/src/core/lv_obj_style_gen.h **** }
 459:Drivers/lvgl/src/core/lv_obj_style_gen.h **** 
 460:Drivers/lvgl/src/core/lv_obj_style_gen.h **** static inline int32_t lv_obj_get_style_line_dash_width(const lv_obj_t * obj, lv_part_t part)
 461:Drivers/lvgl/src/core/lv_obj_style_gen.h **** {
 462:Drivers/lvgl/src/core/lv_obj_style_gen.h ****     lv_style_value_t v = lv_obj_get_style_prop(obj, part, LV_STYLE_LINE_DASH_WIDTH);
 463:Drivers/lvgl/src/core/lv_obj_style_gen.h ****     return (int32_t)v.num;
 464:Drivers/lvgl/src/core/lv_obj_style_gen.h **** }
 465:Drivers/lvgl/src/core/lv_obj_style_gen.h **** 
 466:Drivers/lvgl/src/core/lv_obj_style_gen.h **** static inline int32_t lv_obj_get_style_line_dash_gap(const lv_obj_t * obj, lv_part_t part)
 467:Drivers/lvgl/src/core/lv_obj_style_gen.h **** {
 468:Drivers/lvgl/src/core/lv_obj_style_gen.h ****     lv_style_value_t v = lv_obj_get_style_prop(obj, part, LV_STYLE_LINE_DASH_GAP);
 469:Drivers/lvgl/src/core/lv_obj_style_gen.h ****     return (int32_t)v.num;
 470:Drivers/lvgl/src/core/lv_obj_style_gen.h **** }
 471:Drivers/lvgl/src/core/lv_obj_style_gen.h **** 
 472:Drivers/lvgl/src/core/lv_obj_style_gen.h **** static inline bool lv_obj_get_style_line_rounded(const lv_obj_t * obj, lv_part_t part)
 473:Drivers/lvgl/src/core/lv_obj_style_gen.h **** {
 474:Drivers/lvgl/src/core/lv_obj_style_gen.h ****     lv_style_value_t v = lv_obj_get_style_prop(obj, part, LV_STYLE_LINE_ROUNDED);
 475:Drivers/lvgl/src/core/lv_obj_style_gen.h ****     return (bool)v.num;
 476:Drivers/lvgl/src/core/lv_obj_style_gen.h **** }
 477:Drivers/lvgl/src/core/lv_obj_style_gen.h **** 
 478:Drivers/lvgl/src/core/lv_obj_style_gen.h **** static inline lv_color_t lv_obj_get_style_line_color(const lv_obj_t * obj, lv_part_t part)
 479:Drivers/lvgl/src/core/lv_obj_style_gen.h **** {
 480:Drivers/lvgl/src/core/lv_obj_style_gen.h ****     lv_style_value_t v = lv_obj_get_style_prop(obj, part, LV_STYLE_LINE_COLOR);
ARM GAS  /tmp/cc3ln58M.s 			page 43


 481:Drivers/lvgl/src/core/lv_obj_style_gen.h ****     return v.color;
 482:Drivers/lvgl/src/core/lv_obj_style_gen.h **** }
 483:Drivers/lvgl/src/core/lv_obj_style_gen.h **** 
 484:Drivers/lvgl/src/core/lv_obj_style_gen.h **** static inline lv_color_t lv_obj_get_style_line_color_filtered(const lv_obj_t * obj, lv_part_t part)
 485:Drivers/lvgl/src/core/lv_obj_style_gen.h **** {
 486:Drivers/lvgl/src/core/lv_obj_style_gen.h ****     lv_style_value_t v = lv_obj_style_apply_color_filter(obj, part, lv_obj_get_style_prop(obj, part
 487:Drivers/lvgl/src/core/lv_obj_style_gen.h ****     return v.color;
 488:Drivers/lvgl/src/core/lv_obj_style_gen.h **** }
 489:Drivers/lvgl/src/core/lv_obj_style_gen.h **** 
 490:Drivers/lvgl/src/core/lv_obj_style_gen.h **** static inline lv_opa_t lv_obj_get_style_line_opa(const lv_obj_t * obj, lv_part_t part)
 491:Drivers/lvgl/src/core/lv_obj_style_gen.h **** {
 492:Drivers/lvgl/src/core/lv_obj_style_gen.h ****     lv_style_value_t v = lv_obj_get_style_prop(obj, part, LV_STYLE_LINE_OPA);
 493:Drivers/lvgl/src/core/lv_obj_style_gen.h ****     return (lv_opa_t)v.num;
 494:Drivers/lvgl/src/core/lv_obj_style_gen.h **** }
 495:Drivers/lvgl/src/core/lv_obj_style_gen.h **** 
 496:Drivers/lvgl/src/core/lv_obj_style_gen.h **** static inline int32_t lv_obj_get_style_arc_width(const lv_obj_t * obj, lv_part_t part)
 497:Drivers/lvgl/src/core/lv_obj_style_gen.h **** {
 498:Drivers/lvgl/src/core/lv_obj_style_gen.h ****     lv_style_value_t v = lv_obj_get_style_prop(obj, part, LV_STYLE_ARC_WIDTH);
 499:Drivers/lvgl/src/core/lv_obj_style_gen.h ****     return (int32_t)v.num;
 500:Drivers/lvgl/src/core/lv_obj_style_gen.h **** }
 501:Drivers/lvgl/src/core/lv_obj_style_gen.h **** 
 502:Drivers/lvgl/src/core/lv_obj_style_gen.h **** static inline bool lv_obj_get_style_arc_rounded(const lv_obj_t * obj, lv_part_t part)
 503:Drivers/lvgl/src/core/lv_obj_style_gen.h **** {
 504:Drivers/lvgl/src/core/lv_obj_style_gen.h ****     lv_style_value_t v = lv_obj_get_style_prop(obj, part, LV_STYLE_ARC_ROUNDED);
 505:Drivers/lvgl/src/core/lv_obj_style_gen.h ****     return (bool)v.num;
 506:Drivers/lvgl/src/core/lv_obj_style_gen.h **** }
 507:Drivers/lvgl/src/core/lv_obj_style_gen.h **** 
 508:Drivers/lvgl/src/core/lv_obj_style_gen.h **** static inline lv_color_t lv_obj_get_style_arc_color(const lv_obj_t * obj, lv_part_t part)
 509:Drivers/lvgl/src/core/lv_obj_style_gen.h **** {
 510:Drivers/lvgl/src/core/lv_obj_style_gen.h ****     lv_style_value_t v = lv_obj_get_style_prop(obj, part, LV_STYLE_ARC_COLOR);
 511:Drivers/lvgl/src/core/lv_obj_style_gen.h ****     return v.color;
 512:Drivers/lvgl/src/core/lv_obj_style_gen.h **** }
 513:Drivers/lvgl/src/core/lv_obj_style_gen.h **** 
 514:Drivers/lvgl/src/core/lv_obj_style_gen.h **** static inline lv_color_t lv_obj_get_style_arc_color_filtered(const lv_obj_t * obj, lv_part_t part)
 515:Drivers/lvgl/src/core/lv_obj_style_gen.h **** {
 516:Drivers/lvgl/src/core/lv_obj_style_gen.h ****     lv_style_value_t v = lv_obj_style_apply_color_filter(obj, part, lv_obj_get_style_prop(obj, part
 517:Drivers/lvgl/src/core/lv_obj_style_gen.h ****     return v.color;
 518:Drivers/lvgl/src/core/lv_obj_style_gen.h **** }
 519:Drivers/lvgl/src/core/lv_obj_style_gen.h **** 
 520:Drivers/lvgl/src/core/lv_obj_style_gen.h **** static inline lv_opa_t lv_obj_get_style_arc_opa(const lv_obj_t * obj, lv_part_t part)
 521:Drivers/lvgl/src/core/lv_obj_style_gen.h **** {
 522:Drivers/lvgl/src/core/lv_obj_style_gen.h ****     lv_style_value_t v = lv_obj_get_style_prop(obj, part, LV_STYLE_ARC_OPA);
 523:Drivers/lvgl/src/core/lv_obj_style_gen.h ****     return (lv_opa_t)v.num;
 524:Drivers/lvgl/src/core/lv_obj_style_gen.h **** }
 525:Drivers/lvgl/src/core/lv_obj_style_gen.h **** 
 526:Drivers/lvgl/src/core/lv_obj_style_gen.h **** static inline const void * lv_obj_get_style_arc_image_src(const lv_obj_t * obj, lv_part_t part)
 527:Drivers/lvgl/src/core/lv_obj_style_gen.h **** {
 528:Drivers/lvgl/src/core/lv_obj_style_gen.h ****     lv_style_value_t v = lv_obj_get_style_prop(obj, part, LV_STYLE_ARC_IMAGE_SRC);
 529:Drivers/lvgl/src/core/lv_obj_style_gen.h ****     return (const void *)v.ptr;
 530:Drivers/lvgl/src/core/lv_obj_style_gen.h **** }
 531:Drivers/lvgl/src/core/lv_obj_style_gen.h **** 
 532:Drivers/lvgl/src/core/lv_obj_style_gen.h **** static inline lv_color_t lv_obj_get_style_text_color(const lv_obj_t * obj, lv_part_t part)
 533:Drivers/lvgl/src/core/lv_obj_style_gen.h **** {
 534:Drivers/lvgl/src/core/lv_obj_style_gen.h ****     lv_style_value_t v = lv_obj_get_style_prop(obj, part, LV_STYLE_TEXT_COLOR);
 535:Drivers/lvgl/src/core/lv_obj_style_gen.h ****     return v.color;
 536:Drivers/lvgl/src/core/lv_obj_style_gen.h **** }
 537:Drivers/lvgl/src/core/lv_obj_style_gen.h **** 
ARM GAS  /tmp/cc3ln58M.s 			page 44


 538:Drivers/lvgl/src/core/lv_obj_style_gen.h **** static inline lv_color_t lv_obj_get_style_text_color_filtered(const lv_obj_t * obj, lv_part_t part)
 539:Drivers/lvgl/src/core/lv_obj_style_gen.h **** {
 540:Drivers/lvgl/src/core/lv_obj_style_gen.h ****     lv_style_value_t v = lv_obj_style_apply_color_filter(obj, part, lv_obj_get_style_prop(obj, part
 541:Drivers/lvgl/src/core/lv_obj_style_gen.h ****     return v.color;
 542:Drivers/lvgl/src/core/lv_obj_style_gen.h **** }
 543:Drivers/lvgl/src/core/lv_obj_style_gen.h **** 
 544:Drivers/lvgl/src/core/lv_obj_style_gen.h **** static inline lv_opa_t lv_obj_get_style_text_opa(const lv_obj_t * obj, lv_part_t part)
 545:Drivers/lvgl/src/core/lv_obj_style_gen.h **** {
 546:Drivers/lvgl/src/core/lv_obj_style_gen.h ****     lv_style_value_t v = lv_obj_get_style_prop(obj, part, LV_STYLE_TEXT_OPA);
 547:Drivers/lvgl/src/core/lv_obj_style_gen.h ****     return (lv_opa_t)v.num;
 548:Drivers/lvgl/src/core/lv_obj_style_gen.h **** }
 549:Drivers/lvgl/src/core/lv_obj_style_gen.h **** 
 550:Drivers/lvgl/src/core/lv_obj_style_gen.h **** static inline const lv_font_t * lv_obj_get_style_text_font(const lv_obj_t * obj, lv_part_t part)
 551:Drivers/lvgl/src/core/lv_obj_style_gen.h **** {
 552:Drivers/lvgl/src/core/lv_obj_style_gen.h ****     lv_style_value_t v = lv_obj_get_style_prop(obj, part, LV_STYLE_TEXT_FONT);
 553:Drivers/lvgl/src/core/lv_obj_style_gen.h ****     return (const lv_font_t *)v.ptr;
 554:Drivers/lvgl/src/core/lv_obj_style_gen.h **** }
 555:Drivers/lvgl/src/core/lv_obj_style_gen.h **** 
 556:Drivers/lvgl/src/core/lv_obj_style_gen.h **** static inline int32_t lv_obj_get_style_text_letter_space(const lv_obj_t * obj, lv_part_t part)
 557:Drivers/lvgl/src/core/lv_obj_style_gen.h **** {
 558:Drivers/lvgl/src/core/lv_obj_style_gen.h ****     lv_style_value_t v = lv_obj_get_style_prop(obj, part, LV_STYLE_TEXT_LETTER_SPACE);
 559:Drivers/lvgl/src/core/lv_obj_style_gen.h ****     return (int32_t)v.num;
 560:Drivers/lvgl/src/core/lv_obj_style_gen.h **** }
 561:Drivers/lvgl/src/core/lv_obj_style_gen.h **** 
 562:Drivers/lvgl/src/core/lv_obj_style_gen.h **** static inline int32_t lv_obj_get_style_text_line_space(const lv_obj_t * obj, lv_part_t part)
 563:Drivers/lvgl/src/core/lv_obj_style_gen.h **** {
 564:Drivers/lvgl/src/core/lv_obj_style_gen.h ****     lv_style_value_t v = lv_obj_get_style_prop(obj, part, LV_STYLE_TEXT_LINE_SPACE);
 565:Drivers/lvgl/src/core/lv_obj_style_gen.h ****     return (int32_t)v.num;
 566:Drivers/lvgl/src/core/lv_obj_style_gen.h **** }
 567:Drivers/lvgl/src/core/lv_obj_style_gen.h **** 
 568:Drivers/lvgl/src/core/lv_obj_style_gen.h **** static inline lv_text_decor_t lv_obj_get_style_text_decor(const lv_obj_t * obj, lv_part_t part)
 569:Drivers/lvgl/src/core/lv_obj_style_gen.h **** {
 570:Drivers/lvgl/src/core/lv_obj_style_gen.h ****     lv_style_value_t v = lv_obj_get_style_prop(obj, part, LV_STYLE_TEXT_DECOR);
 571:Drivers/lvgl/src/core/lv_obj_style_gen.h ****     return (lv_text_decor_t)v.num;
 572:Drivers/lvgl/src/core/lv_obj_style_gen.h **** }
 573:Drivers/lvgl/src/core/lv_obj_style_gen.h **** 
 574:Drivers/lvgl/src/core/lv_obj_style_gen.h **** static inline lv_text_align_t lv_obj_get_style_text_align(const lv_obj_t * obj, lv_part_t part)
 575:Drivers/lvgl/src/core/lv_obj_style_gen.h **** {
 576:Drivers/lvgl/src/core/lv_obj_style_gen.h ****     lv_style_value_t v = lv_obj_get_style_prop(obj, part, LV_STYLE_TEXT_ALIGN);
 577:Drivers/lvgl/src/core/lv_obj_style_gen.h ****     return (lv_text_align_t)v.num;
 578:Drivers/lvgl/src/core/lv_obj_style_gen.h **** }
 579:Drivers/lvgl/src/core/lv_obj_style_gen.h **** 
 580:Drivers/lvgl/src/core/lv_obj_style_gen.h **** static inline lv_color_t lv_obj_get_style_text_outline_stroke_color(const lv_obj_t * obj, lv_part_t
 581:Drivers/lvgl/src/core/lv_obj_style_gen.h **** {
 582:Drivers/lvgl/src/core/lv_obj_style_gen.h ****     lv_style_value_t v = lv_obj_get_style_prop(obj, part, LV_STYLE_TEXT_OUTLINE_STROKE_COLOR);
 583:Drivers/lvgl/src/core/lv_obj_style_gen.h ****     return v.color;
 584:Drivers/lvgl/src/core/lv_obj_style_gen.h **** }
 585:Drivers/lvgl/src/core/lv_obj_style_gen.h **** 
 586:Drivers/lvgl/src/core/lv_obj_style_gen.h **** static inline lv_color_t lv_obj_get_style_text_outline_stroke_color_filtered(const lv_obj_t * obj, 
 587:Drivers/lvgl/src/core/lv_obj_style_gen.h **** {
 588:Drivers/lvgl/src/core/lv_obj_style_gen.h ****     lv_style_value_t v = lv_obj_style_apply_color_filter(obj, part, lv_obj_get_style_prop(obj, part
 589:Drivers/lvgl/src/core/lv_obj_style_gen.h ****     return v.color;
 590:Drivers/lvgl/src/core/lv_obj_style_gen.h **** }
 591:Drivers/lvgl/src/core/lv_obj_style_gen.h **** 
 592:Drivers/lvgl/src/core/lv_obj_style_gen.h **** static inline int32_t lv_obj_get_style_text_outline_stroke_width(const lv_obj_t * obj, lv_part_t pa
 593:Drivers/lvgl/src/core/lv_obj_style_gen.h **** {
 594:Drivers/lvgl/src/core/lv_obj_style_gen.h ****     lv_style_value_t v = lv_obj_get_style_prop(obj, part, LV_STYLE_TEXT_OUTLINE_STROKE_WIDTH);
ARM GAS  /tmp/cc3ln58M.s 			page 45


 595:Drivers/lvgl/src/core/lv_obj_style_gen.h ****     return (int32_t)v.num;
 596:Drivers/lvgl/src/core/lv_obj_style_gen.h **** }
 597:Drivers/lvgl/src/core/lv_obj_style_gen.h **** 
 598:Drivers/lvgl/src/core/lv_obj_style_gen.h **** static inline lv_opa_t lv_obj_get_style_text_outline_stroke_opa(const lv_obj_t * obj, lv_part_t par
 599:Drivers/lvgl/src/core/lv_obj_style_gen.h **** {
 600:Drivers/lvgl/src/core/lv_obj_style_gen.h ****     lv_style_value_t v = lv_obj_get_style_prop(obj, part, LV_STYLE_TEXT_OUTLINE_STROKE_OPA);
 601:Drivers/lvgl/src/core/lv_obj_style_gen.h ****     return (lv_opa_t)v.num;
 602:Drivers/lvgl/src/core/lv_obj_style_gen.h **** }
 603:Drivers/lvgl/src/core/lv_obj_style_gen.h **** 
 604:Drivers/lvgl/src/core/lv_obj_style_gen.h **** static inline int32_t lv_obj_get_style_radius(const lv_obj_t * obj, lv_part_t part)
 605:Drivers/lvgl/src/core/lv_obj_style_gen.h **** {
 606:Drivers/lvgl/src/core/lv_obj_style_gen.h ****     lv_style_value_t v = lv_obj_get_style_prop(obj, part, LV_STYLE_RADIUS);
 607:Drivers/lvgl/src/core/lv_obj_style_gen.h ****     return (int32_t)v.num;
 608:Drivers/lvgl/src/core/lv_obj_style_gen.h **** }
 609:Drivers/lvgl/src/core/lv_obj_style_gen.h **** 
 610:Drivers/lvgl/src/core/lv_obj_style_gen.h **** static inline int32_t lv_obj_get_style_radial_offset(const lv_obj_t * obj, lv_part_t part)
 611:Drivers/lvgl/src/core/lv_obj_style_gen.h **** {
 612:Drivers/lvgl/src/core/lv_obj_style_gen.h ****     lv_style_value_t v = lv_obj_get_style_prop(obj, part, LV_STYLE_RADIAL_OFFSET);
 613:Drivers/lvgl/src/core/lv_obj_style_gen.h ****     return (int32_t)v.num;
 614:Drivers/lvgl/src/core/lv_obj_style_gen.h **** }
 615:Drivers/lvgl/src/core/lv_obj_style_gen.h **** 
 616:Drivers/lvgl/src/core/lv_obj_style_gen.h **** static inline bool lv_obj_get_style_clip_corner(const lv_obj_t * obj, lv_part_t part)
 617:Drivers/lvgl/src/core/lv_obj_style_gen.h **** {
 618:Drivers/lvgl/src/core/lv_obj_style_gen.h ****     lv_style_value_t v = lv_obj_get_style_prop(obj, part, LV_STYLE_CLIP_CORNER);
 619:Drivers/lvgl/src/core/lv_obj_style_gen.h ****     return (bool)v.num;
 620:Drivers/lvgl/src/core/lv_obj_style_gen.h **** }
 621:Drivers/lvgl/src/core/lv_obj_style_gen.h **** 
 622:Drivers/lvgl/src/core/lv_obj_style_gen.h **** static inline lv_opa_t lv_obj_get_style_opa(const lv_obj_t * obj, lv_part_t part)
 491              		.loc 2 622 24 view .LVU129
 492              	.LBB54:
 623:Drivers/lvgl/src/core/lv_obj_style_gen.h **** {
 624:Drivers/lvgl/src/core/lv_obj_style_gen.h ****     lv_style_value_t v = lv_obj_get_style_prop(obj, part, LV_STYLE_OPA);
 493              		.loc 2 624 5 view .LVU130
 494              		.loc 2 624 26 is_stmt 0 view .LVU131
 495 0024 6222     		movs	r2, #98
 496 0026 0021     		movs	r1, #0
 497 0028 2046     		mov	r0, r4
 498 002a FFF7FEFF 		bl	lv_obj_get_style_prop
 499              	.LVL39:
 500 002e 0190     		str	r0, [sp, #4]
 625:Drivers/lvgl/src/core/lv_obj_style_gen.h ****     return (lv_opa_t)v.num;
 501              		.loc 2 625 5 is_stmt 1 view .LVU132
 502              		.loc 2 625 12 is_stmt 0 view .LVU133
 503 0030 C0B2     		uxtb	r0, r0
 504              	.LVL40:
 505              		.loc 2 625 12 view .LVU134
 506              	.LBE54:
 507              	.LBE53:
 837:Drivers/lvgl/src/core/lv_refr.c **** 
 508              		.loc 1 837 7 discriminator 1 view .LVU135
 509 0032 FC28     		cmp	r0, #252
 510 0034 2AD9     		bls	.L30
 840:Drivers/lvgl/src/core/lv_refr.c ****     info.res = LV_COVER_RES_COVER;
 511              		.loc 1 840 5 is_stmt 1 view .LVU136
 841:Drivers/lvgl/src/core/lv_refr.c ****     info.area = area_p;
 512              		.loc 1 841 5 view .LVU137
 841:Drivers/lvgl/src/core/lv_refr.c ****     info.area = area_p;
ARM GAS  /tmp/cc3ln58M.s 			page 46


 513              		.loc 1 841 14 is_stmt 0 view .LVU138
 514 0036 0023     		movs	r3, #0
 515 0038 8DF80830 		strb	r3, [sp, #8]
 842:Drivers/lvgl/src/core/lv_refr.c ****     lv_obj_send_event(obj, LV_EVENT_COVER_CHECK, &info);
 516              		.loc 1 842 5 is_stmt 1 view .LVU139
 842:Drivers/lvgl/src/core/lv_refr.c ****     lv_obj_send_event(obj, LV_EVENT_COVER_CHECK, &info);
 517              		.loc 1 842 15 is_stmt 0 view .LVU140
 518 003c 0395     		str	r5, [sp, #12]
 843:Drivers/lvgl/src/core/lv_refr.c ****     if(info.res == LV_COVER_RES_MASKED) return NULL;
 519              		.loc 1 843 5 is_stmt 1 view .LVU141
 520 003e 02AA     		add	r2, sp, #8
 521 0040 1A21     		movs	r1, #26
 522 0042 2046     		mov	r0, r4
 523 0044 FFF7FEFF 		bl	lv_obj_send_event
 524              	.LVL41:
 844:Drivers/lvgl/src/core/lv_refr.c **** 
 525              		.loc 1 844 5 view .LVU142
 844:Drivers/lvgl/src/core/lv_refr.c **** 
 526              		.loc 1 844 12 is_stmt 0 view .LVU143
 527 0048 9DF80830 		ldrb	r3, [sp, #8]	@ zero_extendqisi2
 844:Drivers/lvgl/src/core/lv_refr.c **** 
 528              		.loc 1 844 7 view .LVU144
 529 004c 022B     		cmp	r3, #2
 530 004e 1FD0     		beq	.L31
 846:Drivers/lvgl/src/core/lv_refr.c ****     int32_t child_cnt = lv_obj_get_child_count(obj);
 531              		.loc 1 846 5 is_stmt 1 view .LVU145
 847:Drivers/lvgl/src/core/lv_refr.c ****     for(i = child_cnt - 1; i >= 0; i--) {
 532              		.loc 1 847 5 view .LVU146
 847:Drivers/lvgl/src/core/lv_refr.c ****     for(i = child_cnt - 1; i >= 0; i--) {
 533              		.loc 1 847 25 is_stmt 0 view .LVU147
 534 0050 2046     		mov	r0, r4
 535 0052 FFF7FEFF 		bl	lv_obj_get_child_count
 536              	.LVL42:
 848:Drivers/lvgl/src/core/lv_refr.c ****         lv_obj_t * child = obj->spec_attr->children[i];
 537              		.loc 1 848 5 is_stmt 1 view .LVU148
 848:Drivers/lvgl/src/core/lv_refr.c ****         lv_obj_t * child = obj->spec_attr->children[i];
 538              		.loc 1 848 11 is_stmt 0 view .LVU149
 539 0056 461E     		subs	r6, r0, #1
 540              	.LVL43:
 832:Drivers/lvgl/src/core/lv_refr.c **** 
 541              		.loc 1 832 16 view .LVU150
 542 0058 0020     		movs	r0, #0
 543              	.LVL44:
 544              	.L24:
 848:Drivers/lvgl/src/core/lv_refr.c ****         lv_obj_t * child = obj->spec_attr->children[i];
 545              		.loc 1 848 30 is_stmt 1 discriminator 1 view .LVU151
 546 005a 002E     		cmp	r6, #0
 547 005c 09DB     		blt	.L25
 548              	.LBB55:
 849:Drivers/lvgl/src/core/lv_refr.c ****         found_p = lv_refr_get_top_obj(area_p, child);
 549              		.loc 1 849 9 view .LVU152
 849:Drivers/lvgl/src/core/lv_refr.c ****         found_p = lv_refr_get_top_obj(area_p, child);
 550              		.loc 1 849 31 is_stmt 0 view .LVU153
 551 005e A368     		ldr	r3, [r4, #8]
 849:Drivers/lvgl/src/core/lv_refr.c ****         found_p = lv_refr_get_top_obj(area_p, child);
 552              		.loc 1 849 42 view .LVU154
 553 0060 1B68     		ldr	r3, [r3]
ARM GAS  /tmp/cc3ln58M.s 			page 47


 554              	.LVL45:
 850:Drivers/lvgl/src/core/lv_refr.c **** 
 555              		.loc 1 850 9 is_stmt 1 view .LVU155
 850:Drivers/lvgl/src/core/lv_refr.c **** 
 556              		.loc 1 850 19 is_stmt 0 view .LVU156
 557 0062 53F82610 		ldr	r1, [r3, r6, lsl #2]
 558 0066 2846     		mov	r0, r5
 559              	.LVL46:
 850:Drivers/lvgl/src/core/lv_refr.c **** 
 560              		.loc 1 850 19 view .LVU157
 561 0068 FFF7CAFF 		bl	lv_refr_get_top_obj
 562              	.LVL47:
 853:Drivers/lvgl/src/core/lv_refr.c ****             break;
 563              		.loc 1 853 9 is_stmt 1 view .LVU158
 853:Drivers/lvgl/src/core/lv_refr.c ****             break;
 564              		.loc 1 853 11 is_stmt 0 view .LVU159
 565 006c 08B9     		cbnz	r0, .L25
 566              	.LBE55:
 848:Drivers/lvgl/src/core/lv_refr.c ****         lv_obj_t * child = obj->spec_attr->children[i];
 567              		.loc 1 848 37 is_stmt 1 discriminator 2 view .LVU160
 568 006e 013E     		subs	r6, r6, #1
 569              	.LVL48:
 848:Drivers/lvgl/src/core/lv_refr.c ****         lv_obj_t * child = obj->spec_attr->children[i];
 570              		.loc 1 848 37 is_stmt 0 discriminator 2 view .LVU161
 571 0070 F3E7     		b	.L24
 572              	.LVL49:
 573              	.L25:
 859:Drivers/lvgl/src/core/lv_refr.c ****         found_p = obj;
 574              		.loc 1 859 5 is_stmt 1 view .LVU162
 859:Drivers/lvgl/src/core/lv_refr.c ****         found_p = obj;
 575              		.loc 1 859 7 is_stmt 0 view .LVU163
 576 0072 28B9     		cbnz	r0, .L22
 859:Drivers/lvgl/src/core/lv_refr.c ****         found_p = obj;
 577              		.loc 1 859 31 discriminator 1 view .LVU164
 578 0074 9DF80830 		ldrb	r3, [sp, #8]	@ zero_extendqisi2
 859:Drivers/lvgl/src/core/lv_refr.c ****         found_p = obj;
 579              		.loc 1 859 24 discriminator 1 view .LVU165
 580 0078 13B9     		cbnz	r3, .L22
 860:Drivers/lvgl/src/core/lv_refr.c ****     }
 581              		.loc 1 860 17 view .LVU166
 582 007a 2046     		mov	r0, r4
 583              	.LVL50:
 860:Drivers/lvgl/src/core/lv_refr.c ****     }
 584              		.loc 1 860 17 view .LVU167
 585 007c 00E0     		b	.L22
 586              	.LVL51:
 587              	.L27:
 834:Drivers/lvgl/src/core/lv_refr.c ****     if(lv_obj_has_flag(obj, LV_OBJ_FLAG_HIDDEN)) return NULL;
 588              		.loc 1 834 64 discriminator 1 view .LVU168
 589 007e 0020     		movs	r0, #0
 590              	.LVL52:
 591              	.L22:
 864:Drivers/lvgl/src/core/lv_refr.c **** 
 592              		.loc 1 864 1 view .LVU169
 593 0080 04B0     		add	sp, sp, #16
 594              	.LCFI14:
 595              		.cfi_remember_state
ARM GAS  /tmp/cc3ln58M.s 			page 48


 596              		.cfi_def_cfa_offset 16
 597              		@ sp needed
 598 0082 70BD     		pop	{r4, r5, r6, pc}
 599              	.LVL53:
 600              	.L28:
 601              	.LCFI15:
 602              		.cfi_restore_state
 835:Drivers/lvgl/src/core/lv_refr.c ****     if(lv_obj_get_layer_type(obj) != LV_LAYER_TYPE_NONE) return NULL;
 603              		.loc 1 835 57 discriminator 1 view .LVU170
 604 0084 0020     		movs	r0, #0
 605 0086 FBE7     		b	.L22
 606              	.L29:
 836:Drivers/lvgl/src/core/lv_refr.c ****     if(lv_obj_get_style_opa(obj, LV_PART_MAIN) < LV_OPA_MAX) return NULL;
 607              		.loc 1 836 65 discriminator 1 view .LVU171
 608 0088 0020     		movs	r0, #0
 609 008a F9E7     		b	.L22
 610              	.L30:
 837:Drivers/lvgl/src/core/lv_refr.c **** 
 611              		.loc 1 837 69 discriminator 1 view .LVU172
 612 008c 0020     		movs	r0, #0
 613 008e F7E7     		b	.L22
 614              	.L31:
 844:Drivers/lvgl/src/core/lv_refr.c **** 
 615              		.loc 1 844 48 discriminator 1 view .LVU173
 616 0090 0020     		movs	r0, #0
 617 0092 F5E7     		b	.L22
 618              		.cfi_endproc
 619              	.LFE200:
 621              		.section	.text.lv_refr_join_area,"ax",%progbits
 622              		.align	1
 623              		.syntax unified
 624              		.thumb
 625              		.thumb_func
 627              	lv_refr_join_area:
 628              	.LFB194:
 445:Drivers/lvgl/src/core/lv_refr.c ****     LV_PROFILER_REFR_BEGIN;
 629              		.loc 1 445 1 is_stmt 1 view -0
 630              		.cfi_startproc
 631              		@ args = 0, pretend = 0, frame = 16
 632              		@ frame_needed = 0, uses_anonymous_args = 0
 633 0000 2DE9F047 		push	{r4, r5, r6, r7, r8, r9, r10, lr}
 634              	.LCFI16:
 635              		.cfi_def_cfa_offset 32
 636              		.cfi_offset 4, -32
 637              		.cfi_offset 5, -28
 638              		.cfi_offset 6, -24
 639              		.cfi_offset 7, -20
 640              		.cfi_offset 8, -16
 641              		.cfi_offset 9, -12
 642              		.cfi_offset 10, -8
 643              		.cfi_offset 14, -4
 644 0004 84B0     		sub	sp, sp, #16
 645              	.LCFI17:
 646              		.cfi_def_cfa_offset 48
 446:Drivers/lvgl/src/core/lv_refr.c ****     uint32_t join_from;
 647              		.loc 1 446 27 view .LVU175
 447:Drivers/lvgl/src/core/lv_refr.c ****     uint32_t join_in;
ARM GAS  /tmp/cc3ln58M.s 			page 49


 648              		.loc 1 447 5 view .LVU176
 448:Drivers/lvgl/src/core/lv_refr.c ****     lv_area_t joined_area;
 649              		.loc 1 448 5 view .LVU177
 449:Drivers/lvgl/src/core/lv_refr.c ****     for(join_in = 0; join_in < disp_refr->inv_p; join_in++) {
 650              		.loc 1 449 5 view .LVU178
 450:Drivers/lvgl/src/core/lv_refr.c ****         if(disp_refr->inv_area_joined[join_in] != 0) continue;
 651              		.loc 1 450 5 view .LVU179
 652              	.LVL54:
 450:Drivers/lvgl/src/core/lv_refr.c ****         if(disp_refr->inv_area_joined[join_in] != 0) continue;
 653              		.loc 1 450 17 is_stmt 0 view .LVU180
 654 0006 0025     		movs	r5, #0
 450:Drivers/lvgl/src/core/lv_refr.c ****         if(disp_refr->inv_area_joined[join_in] != 0) continue;
 655              		.loc 1 450 5 view .LVU181
 656 0008 50E0     		b	.L35
 657              	.LVL55:
 658              	.L38:
 454:Drivers/lvgl/src/core/lv_refr.c ****             /*Handle only unjoined areas and ignore itself*/
 659              		.loc 1 454 67 is_stmt 1 discriminator 2 view .LVU182
 660 000a 0134     		adds	r4, r4, #1
 661              	.LVL56:
 662              	.L37:
 454:Drivers/lvgl/src/core/lv_refr.c ****             /*Handle only unjoined areas and ignore itself*/
 663              		.loc 1 454 38 discriminator 1 view .LVU183
 454:Drivers/lvgl/src/core/lv_refr.c ****             /*Handle only unjoined areas and ignore itself*/
 664              		.loc 1 454 40 is_stmt 0 discriminator 1 view .LVU184
 665 000c 2F4B     		ldr	r3, .L43
 666 000e 1B69     		ldr	r3, [r3, #16]
 454:Drivers/lvgl/src/core/lv_refr.c ****             /*Handle only unjoined areas and ignore itself*/
 667              		.loc 1 454 49 discriminator 1 view .LVU185
 668 0010 D3F86022 		ldr	r2, [r3, #608]
 454:Drivers/lvgl/src/core/lv_refr.c ****             /*Handle only unjoined areas and ignore itself*/
 669              		.loc 1 454 38 discriminator 1 view .LVU186
 670 0014 A242     		cmp	r2, r4
 671 0016 48D9     		bls	.L36
 456:Drivers/lvgl/src/core/lv_refr.c ****                 continue;
 672              		.loc 1 456 13 is_stmt 1 view .LVU187
 456:Drivers/lvgl/src/core/lv_refr.c ****                 continue;
 673              		.loc 1 456 42 is_stmt 0 view .LVU188
 674 0018 1A19     		adds	r2, r3, r4
 675 001a 92F84022 		ldrb	r2, [r2, #576]	@ zero_extendqisi2
 456:Drivers/lvgl/src/core/lv_refr.c ****                 continue;
 676              		.loc 1 456 15 view .LVU189
 677 001e 002A     		cmp	r2, #0
 678 0020 F3D1     		bne	.L38
 456:Drivers/lvgl/src/core/lv_refr.c ****                 continue;
 679              		.loc 1 456 59 discriminator 2 view .LVU190
 680 0022 AC42     		cmp	r4, r5
 681 0024 F1D0     		beq	.L38
 461:Drivers/lvgl/src/core/lv_refr.c ****                 continue;
 682              		.loc 1 461 13 is_stmt 1 view .LVU191
 461:Drivers/lvgl/src/core/lv_refr.c ****                 continue;
 683              		.loc 1 461 30 is_stmt 0 view .LVU192
 684 0026 281D     		adds	r0, r5, #4
 461:Drivers/lvgl/src/core/lv_refr.c ****                 continue;
 685              		.loc 1 461 62 view .LVU193
 686 0028 211D     		adds	r1, r4, #4
 461:Drivers/lvgl/src/core/lv_refr.c ****                 continue;
ARM GAS  /tmp/cc3ln58M.s 			page 50


 687              		.loc 1 461 16 view .LVU194
 688 002a 03EB0111 		add	r1, r3, r1, lsl #4
 689 002e 03EB0010 		add	r0, r3, r0, lsl #4
 690 0032 FFF7FEFF 		bl	lv_area_is_on
 691              	.LVL57:
 461:Drivers/lvgl/src/core/lv_refr.c ****                 continue;
 692              		.loc 1 461 15 discriminator 1 view .LVU195
 693 0036 0028     		cmp	r0, #0
 694 0038 E7D0     		beq	.L38
 465:Drivers/lvgl/src/core/lv_refr.c **** 
 695              		.loc 1 465 13 is_stmt 1 view .LVU196
 465:Drivers/lvgl/src/core/lv_refr.c **** 
 696              		.loc 1 465 41 is_stmt 0 view .LVU197
 697 003a DFF89080 		ldr	r8, .L43
 698 003e D8F81030 		ldr	r3, [r8, #16]
 465:Drivers/lvgl/src/core/lv_refr.c **** 
 699              		.loc 1 465 40 view .LVU198
 700 0042 291D     		adds	r1, r5, #4
 701 0044 4FEA011A 		lsl	r10, r1, #4
 465:Drivers/lvgl/src/core/lv_refr.c **** 
 702              		.loc 1 465 72 view .LVU199
 703 0048 221D     		adds	r2, r4, #4
 704 004a 4FEA0219 		lsl	r9, r2, #4
 465:Drivers/lvgl/src/core/lv_refr.c **** 
 705              		.loc 1 465 13 view .LVU200
 706 004e 03EB0212 		add	r2, r3, r2, lsl #4
 707 0052 03EB0111 		add	r1, r3, r1, lsl #4
 708 0056 6846     		mov	r0, sp
 709 0058 FFF7FEFF 		bl	lv_area_join
 710              	.LVL58:
 468:Drivers/lvgl/src/core/lv_refr.c ****                                                  lv_area_get_size(&disp_refr->inv_areas[join_from])
 711              		.loc 1 468 13 is_stmt 1 view .LVU201
 468:Drivers/lvgl/src/core/lv_refr.c ****                                                  lv_area_get_size(&disp_refr->inv_areas[join_from])
 712              		.loc 1 468 16 is_stmt 0 view .LVU202
 713 005c 6846     		mov	r0, sp
 714 005e FFF7FEFF 		bl	lv_area_get_size
 715              	.LVL59:
 716 0062 0746     		mov	r7, r0
 468:Drivers/lvgl/src/core/lv_refr.c ****                                                  lv_area_get_size(&disp_refr->inv_areas[join_from])
 717              		.loc 1 468 68 discriminator 1 view .LVU203
 718 0064 D8F81000 		ldr	r0, [r8, #16]
 468:Drivers/lvgl/src/core/lv_refr.c ****                                                  lv_area_get_size(&disp_refr->inv_areas[join_from])
 719              		.loc 1 468 50 discriminator 1 view .LVU204
 720 0068 5044     		add	r0, r0, r10
 721 006a FFF7FEFF 		bl	lv_area_get_size
 722              	.LVL60:
 723 006e 0646     		mov	r6, r0
 469:Drivers/lvgl/src/core/lv_refr.c ****                 lv_area_copy(&disp_refr->inv_areas[join_in], &joined_area);
 724              		.loc 1 469 68 view .LVU205
 725 0070 D8F81000 		ldr	r0, [r8, #16]
 469:Drivers/lvgl/src/core/lv_refr.c ****                 lv_area_copy(&disp_refr->inv_areas[join_in], &joined_area);
 726              		.loc 1 469 50 view .LVU206
 727 0074 4844     		add	r0, r0, r9
 728 0076 FFF7FEFF 		bl	lv_area_get_size
 729              	.LVL61:
 468:Drivers/lvgl/src/core/lv_refr.c ****                                                  lv_area_get_size(&disp_refr->inv_areas[join_from])
 730              		.loc 1 468 99 view .LVU207
ARM GAS  /tmp/cc3ln58M.s 			page 51


 731 007a 0644     		add	r6, r6, r0
 468:Drivers/lvgl/src/core/lv_refr.c ****                                                  lv_area_get_size(&disp_refr->inv_areas[join_from])
 732              		.loc 1 468 15 view .LVU208
 733 007c B742     		cmp	r7, r6
 734 007e C4D2     		bcs	.L38
 470:Drivers/lvgl/src/core/lv_refr.c **** 
 735              		.loc 1 470 17 is_stmt 1 view .LVU209
 470:Drivers/lvgl/src/core/lv_refr.c **** 
 736              		.loc 1 470 31 is_stmt 0 view .LVU210
 737 0080 D8F81030 		ldr	r3, [r8, #16]
 738              	.LVL62:
 739              	.LBB56:
 740              	.LBI56:
 741              		.file 3 "Drivers/lvgl/src/core/../misc/../font/../draw/../misc/lv_area.h"
   1:Drivers/lvgl/src/core/../misc/../font/../draw/../misc/lv_area.h **** /**
   2:Drivers/lvgl/src/core/../misc/../font/../draw/../misc/lv_area.h ****  * @file lv_area.h
   3:Drivers/lvgl/src/core/../misc/../font/../draw/../misc/lv_area.h ****  *
   4:Drivers/lvgl/src/core/../misc/../font/../draw/../misc/lv_area.h ****  */
   5:Drivers/lvgl/src/core/../misc/../font/../draw/../misc/lv_area.h **** 
   6:Drivers/lvgl/src/core/../misc/../font/../draw/../misc/lv_area.h **** #ifndef LV_AREA_H
   7:Drivers/lvgl/src/core/../misc/../font/../draw/../misc/lv_area.h **** #define LV_AREA_H
   8:Drivers/lvgl/src/core/../misc/../font/../draw/../misc/lv_area.h **** 
   9:Drivers/lvgl/src/core/../misc/../font/../draw/../misc/lv_area.h **** #ifdef __cplusplus
  10:Drivers/lvgl/src/core/../misc/../font/../draw/../misc/lv_area.h **** extern "C" {
  11:Drivers/lvgl/src/core/../misc/../font/../draw/../misc/lv_area.h **** #endif
  12:Drivers/lvgl/src/core/../misc/../font/../draw/../misc/lv_area.h **** 
  13:Drivers/lvgl/src/core/../misc/../font/../draw/../misc/lv_area.h **** /*********************
  14:Drivers/lvgl/src/core/../misc/../font/../draw/../misc/lv_area.h ****  *      INCLUDES
  15:Drivers/lvgl/src/core/../misc/../font/../draw/../misc/lv_area.h ****  *********************/
  16:Drivers/lvgl/src/core/../misc/../font/../draw/../misc/lv_area.h **** #include "../lv_conf_internal.h"
  17:Drivers/lvgl/src/core/../misc/../font/../draw/../misc/lv_area.h **** #include "lv_types.h"
  18:Drivers/lvgl/src/core/../misc/../font/../draw/../misc/lv_area.h **** #include "lv_math.h"
  19:Drivers/lvgl/src/core/../misc/../font/../draw/../misc/lv_area.h **** 
  20:Drivers/lvgl/src/core/../misc/../font/../draw/../misc/lv_area.h **** /*********************
  21:Drivers/lvgl/src/core/../misc/../font/../draw/../misc/lv_area.h ****  *      DEFINES
  22:Drivers/lvgl/src/core/../misc/../font/../draw/../misc/lv_area.h ****  *********************/
  23:Drivers/lvgl/src/core/../misc/../font/../draw/../misc/lv_area.h **** 
  24:Drivers/lvgl/src/core/../misc/../font/../draw/../misc/lv_area.h **** /**********************
  25:Drivers/lvgl/src/core/../misc/../font/../draw/../misc/lv_area.h ****  *      TYPEDEFS
  26:Drivers/lvgl/src/core/../misc/../font/../draw/../misc/lv_area.h ****  **********************/
  27:Drivers/lvgl/src/core/../misc/../font/../draw/../misc/lv_area.h **** 
  28:Drivers/lvgl/src/core/../misc/../font/../draw/../misc/lv_area.h **** /**
  29:Drivers/lvgl/src/core/../misc/../font/../draw/../misc/lv_area.h ****  * Represents a point on the screen.
  30:Drivers/lvgl/src/core/../misc/../font/../draw/../misc/lv_area.h ****  */
  31:Drivers/lvgl/src/core/../misc/../font/../draw/../misc/lv_area.h **** typedef struct {
  32:Drivers/lvgl/src/core/../misc/../font/../draw/../misc/lv_area.h ****     int32_t x;
  33:Drivers/lvgl/src/core/../misc/../font/../draw/../misc/lv_area.h ****     int32_t y;
  34:Drivers/lvgl/src/core/../misc/../font/../draw/../misc/lv_area.h **** } lv_point_t;
  35:Drivers/lvgl/src/core/../misc/../font/../draw/../misc/lv_area.h **** 
  36:Drivers/lvgl/src/core/../misc/../font/../draw/../misc/lv_area.h **** typedef struct {
  37:Drivers/lvgl/src/core/../misc/../font/../draw/../misc/lv_area.h ****     lv_value_precise_t x;
  38:Drivers/lvgl/src/core/../misc/../font/../draw/../misc/lv_area.h ****     lv_value_precise_t y;
  39:Drivers/lvgl/src/core/../misc/../font/../draw/../misc/lv_area.h **** } lv_point_precise_t;
  40:Drivers/lvgl/src/core/../misc/../font/../draw/../misc/lv_area.h **** 
  41:Drivers/lvgl/src/core/../misc/../font/../draw/../misc/lv_area.h **** /** Represents an area of the screen.*/
  42:Drivers/lvgl/src/core/../misc/../font/../draw/../misc/lv_area.h **** typedef struct {
  43:Drivers/lvgl/src/core/../misc/../font/../draw/../misc/lv_area.h ****     int32_t x1;
ARM GAS  /tmp/cc3ln58M.s 			page 52


  44:Drivers/lvgl/src/core/../misc/../font/../draw/../misc/lv_area.h ****     int32_t y1;
  45:Drivers/lvgl/src/core/../misc/../font/../draw/../misc/lv_area.h ****     int32_t x2;
  46:Drivers/lvgl/src/core/../misc/../font/../draw/../misc/lv_area.h ****     int32_t y2;
  47:Drivers/lvgl/src/core/../misc/../font/../draw/../misc/lv_area.h **** } lv_area_t;
  48:Drivers/lvgl/src/core/../misc/../font/../draw/../misc/lv_area.h **** 
  49:Drivers/lvgl/src/core/../misc/../font/../draw/../misc/lv_area.h **** /** Alignments*/
  50:Drivers/lvgl/src/core/../misc/../font/../draw/../misc/lv_area.h **** 
  51:Drivers/lvgl/src/core/../misc/../font/../draw/../misc/lv_area.h **** typedef enum {
  52:Drivers/lvgl/src/core/../misc/../font/../draw/../misc/lv_area.h ****     LV_ALIGN_DEFAULT = 0,
  53:Drivers/lvgl/src/core/../misc/../font/../draw/../misc/lv_area.h ****     LV_ALIGN_TOP_LEFT,
  54:Drivers/lvgl/src/core/../misc/../font/../draw/../misc/lv_area.h ****     LV_ALIGN_TOP_MID,
  55:Drivers/lvgl/src/core/../misc/../font/../draw/../misc/lv_area.h ****     LV_ALIGN_TOP_RIGHT,
  56:Drivers/lvgl/src/core/../misc/../font/../draw/../misc/lv_area.h ****     LV_ALIGN_BOTTOM_LEFT,
  57:Drivers/lvgl/src/core/../misc/../font/../draw/../misc/lv_area.h ****     LV_ALIGN_BOTTOM_MID,
  58:Drivers/lvgl/src/core/../misc/../font/../draw/../misc/lv_area.h ****     LV_ALIGN_BOTTOM_RIGHT,
  59:Drivers/lvgl/src/core/../misc/../font/../draw/../misc/lv_area.h ****     LV_ALIGN_LEFT_MID,
  60:Drivers/lvgl/src/core/../misc/../font/../draw/../misc/lv_area.h ****     LV_ALIGN_RIGHT_MID,
  61:Drivers/lvgl/src/core/../misc/../font/../draw/../misc/lv_area.h ****     LV_ALIGN_CENTER,
  62:Drivers/lvgl/src/core/../misc/../font/../draw/../misc/lv_area.h **** 
  63:Drivers/lvgl/src/core/../misc/../font/../draw/../misc/lv_area.h ****     LV_ALIGN_OUT_TOP_LEFT,
  64:Drivers/lvgl/src/core/../misc/../font/../draw/../misc/lv_area.h ****     LV_ALIGN_OUT_TOP_MID,
  65:Drivers/lvgl/src/core/../misc/../font/../draw/../misc/lv_area.h ****     LV_ALIGN_OUT_TOP_RIGHT,
  66:Drivers/lvgl/src/core/../misc/../font/../draw/../misc/lv_area.h ****     LV_ALIGN_OUT_BOTTOM_LEFT,
  67:Drivers/lvgl/src/core/../misc/../font/../draw/../misc/lv_area.h ****     LV_ALIGN_OUT_BOTTOM_MID,
  68:Drivers/lvgl/src/core/../misc/../font/../draw/../misc/lv_area.h ****     LV_ALIGN_OUT_BOTTOM_RIGHT,
  69:Drivers/lvgl/src/core/../misc/../font/../draw/../misc/lv_area.h ****     LV_ALIGN_OUT_LEFT_TOP,
  70:Drivers/lvgl/src/core/../misc/../font/../draw/../misc/lv_area.h ****     LV_ALIGN_OUT_LEFT_MID,
  71:Drivers/lvgl/src/core/../misc/../font/../draw/../misc/lv_area.h ****     LV_ALIGN_OUT_LEFT_BOTTOM,
  72:Drivers/lvgl/src/core/../misc/../font/../draw/../misc/lv_area.h ****     LV_ALIGN_OUT_RIGHT_TOP,
  73:Drivers/lvgl/src/core/../misc/../font/../draw/../misc/lv_area.h ****     LV_ALIGN_OUT_RIGHT_MID,
  74:Drivers/lvgl/src/core/../misc/../font/../draw/../misc/lv_area.h ****     LV_ALIGN_OUT_RIGHT_BOTTOM,
  75:Drivers/lvgl/src/core/../misc/../font/../draw/../misc/lv_area.h **** } lv_align_t;
  76:Drivers/lvgl/src/core/../misc/../font/../draw/../misc/lv_area.h **** 
  77:Drivers/lvgl/src/core/../misc/../font/../draw/../misc/lv_area.h **** typedef enum {
  78:Drivers/lvgl/src/core/../misc/../font/../draw/../misc/lv_area.h ****     LV_DIR_NONE     = 0x00,
  79:Drivers/lvgl/src/core/../misc/../font/../draw/../misc/lv_area.h ****     LV_DIR_LEFT     = (1 << 0),
  80:Drivers/lvgl/src/core/../misc/../font/../draw/../misc/lv_area.h ****     LV_DIR_RIGHT    = (1 << 1),
  81:Drivers/lvgl/src/core/../misc/../font/../draw/../misc/lv_area.h ****     LV_DIR_TOP      = (1 << 2),
  82:Drivers/lvgl/src/core/../misc/../font/../draw/../misc/lv_area.h ****     LV_DIR_BOTTOM   = (1 << 3),
  83:Drivers/lvgl/src/core/../misc/../font/../draw/../misc/lv_area.h ****     LV_DIR_HOR      = LV_DIR_LEFT | LV_DIR_RIGHT,
  84:Drivers/lvgl/src/core/../misc/../font/../draw/../misc/lv_area.h ****     LV_DIR_VER      = LV_DIR_TOP | LV_DIR_BOTTOM,
  85:Drivers/lvgl/src/core/../misc/../font/../draw/../misc/lv_area.h ****     LV_DIR_ALL      = LV_DIR_HOR | LV_DIR_VER,
  86:Drivers/lvgl/src/core/../misc/../font/../draw/../misc/lv_area.h **** } lv_dir_t;
  87:Drivers/lvgl/src/core/../misc/../font/../draw/../misc/lv_area.h **** 
  88:Drivers/lvgl/src/core/../misc/../font/../draw/../misc/lv_area.h **** /**********************
  89:Drivers/lvgl/src/core/../misc/../font/../draw/../misc/lv_area.h ****  * GLOBAL PROTOTYPES
  90:Drivers/lvgl/src/core/../misc/../font/../draw/../misc/lv_area.h ****  **********************/
  91:Drivers/lvgl/src/core/../misc/../font/../draw/../misc/lv_area.h **** 
  92:Drivers/lvgl/src/core/../misc/../font/../draw/../misc/lv_area.h **** /**
  93:Drivers/lvgl/src/core/../misc/../font/../draw/../misc/lv_area.h ****  * Initialize an area
  94:Drivers/lvgl/src/core/../misc/../font/../draw/../misc/lv_area.h ****  * @param area_p pointer to an area
  95:Drivers/lvgl/src/core/../misc/../font/../draw/../misc/lv_area.h ****  * @param x1 left coordinate of the area
  96:Drivers/lvgl/src/core/../misc/../font/../draw/../misc/lv_area.h ****  * @param y1 top coordinate of the area
  97:Drivers/lvgl/src/core/../misc/../font/../draw/../misc/lv_area.h ****  * @param x2 right coordinate of the area
  98:Drivers/lvgl/src/core/../misc/../font/../draw/../misc/lv_area.h ****  * @param y2 bottom coordinate of the area
  99:Drivers/lvgl/src/core/../misc/../font/../draw/../misc/lv_area.h ****  */
 100:Drivers/lvgl/src/core/../misc/../font/../draw/../misc/lv_area.h **** void lv_area_set(lv_area_t * area_p, int32_t x1, int32_t y1, int32_t x2, int32_t y2);
ARM GAS  /tmp/cc3ln58M.s 			page 53


 101:Drivers/lvgl/src/core/../misc/../font/../draw/../misc/lv_area.h **** 
 102:Drivers/lvgl/src/core/../misc/../font/../draw/../misc/lv_area.h **** /**
 103:Drivers/lvgl/src/core/../misc/../font/../draw/../misc/lv_area.h ****  * Copy an area
 104:Drivers/lvgl/src/core/../misc/../font/../draw/../misc/lv_area.h ****  * @param dest pointer to the destination area
 105:Drivers/lvgl/src/core/../misc/../font/../draw/../misc/lv_area.h ****  * @param src pointer to the source area
 106:Drivers/lvgl/src/core/../misc/../font/../draw/../misc/lv_area.h ****  */
 107:Drivers/lvgl/src/core/../misc/../font/../draw/../misc/lv_area.h **** inline static void lv_area_copy(lv_area_t * dest, const lv_area_t * src)
 742              		.loc 3 107 20 is_stmt 1 view .LVU211
 743              	.LBB57:
 108:Drivers/lvgl/src/core/../misc/../font/../draw/../misc/lv_area.h **** {
 109:Drivers/lvgl/src/core/../misc/../font/../draw/../misc/lv_area.h ****     dest->x1 = src->x1;
 744              		.loc 3 109 5 view .LVU212
 745              		.loc 3 109 14 is_stmt 0 view .LVU213
 746 0084 2A1D     		adds	r2, r5, #4
 747 0086 03EB0212 		add	r2, r3, r2, lsl #4
 748              	.LVL63:
 749              		.loc 3 109 14 view .LVU214
 750 008a 0098     		ldr	r0, [sp]
 751 008c 43F80A00 		str	r0, [r3, r10]
 110:Drivers/lvgl/src/core/../misc/../font/../draw/../misc/lv_area.h ****     dest->y1 = src->y1;
 752              		.loc 3 110 5 is_stmt 1 view .LVU215
 753              		.loc 3 110 19 is_stmt 0 view .LVU216
 754 0090 0199     		ldr	r1, [sp, #4]
 755              		.loc 3 110 14 view .LVU217
 756 0092 5160     		str	r1, [r2, #4]
 111:Drivers/lvgl/src/core/../misc/../font/../draw/../misc/lv_area.h ****     dest->x2 = src->x2;
 757              		.loc 3 111 5 is_stmt 1 view .LVU218
 758              		.loc 3 111 14 is_stmt 0 view .LVU219
 759 0094 03EB0512 		add	r2, r3, r5, lsl #4
 760              	.LVL64:
 761              		.loc 3 111 14 view .LVU220
 762 0098 0299     		ldr	r1, [sp, #8]
 763 009a 9164     		str	r1, [r2, #72]
 112:Drivers/lvgl/src/core/../misc/../font/../draw/../misc/lv_area.h ****     dest->y2 = src->y2;
 764              		.loc 3 112 5 is_stmt 1 view .LVU221
 765              		.loc 3 112 19 is_stmt 0 view .LVU222
 766 009c 0399     		ldr	r1, [sp, #12]
 767              		.loc 3 112 14 view .LVU223
 768 009e D164     		str	r1, [r2, #76]
 769              	.LVL65:
 770              		.loc 3 112 14 view .LVU224
 771              	.LBE57:
 772              	.LBE56:
 473:Drivers/lvgl/src/core/lv_refr.c ****             }
 773              		.loc 1 473 17 is_stmt 1 view .LVU225
 473:Drivers/lvgl/src/core/lv_refr.c ****             }
 774              		.loc 1 473 55 is_stmt 0 view .LVU226
 775 00a0 2344     		add	r3, r3, r4
 776 00a2 0122     		movs	r2, #1
 777 00a4 83F84022 		strb	r2, [r3, #576]
 778 00a8 AFE7     		b	.L38
 779              	.LVL66:
 780              	.L36:
 450:Drivers/lvgl/src/core/lv_refr.c ****         if(disp_refr->inv_area_joined[join_in] != 0) continue;
 781              		.loc 1 450 57 is_stmt 1 discriminator 2 view .LVU227
 782 00aa 0135     		adds	r5, r5, #1
 783              	.LVL67:
ARM GAS  /tmp/cc3ln58M.s 			page 54


 784              	.L35:
 450:Drivers/lvgl/src/core/lv_refr.c ****         if(disp_refr->inv_area_joined[join_in] != 0) continue;
 785              		.loc 1 450 30 discriminator 1 view .LVU228
 450:Drivers/lvgl/src/core/lv_refr.c ****         if(disp_refr->inv_area_joined[join_in] != 0) continue;
 786              		.loc 1 450 32 is_stmt 0 discriminator 1 view .LVU229
 787 00ac 074B     		ldr	r3, .L43
 788 00ae 1B69     		ldr	r3, [r3, #16]
 450:Drivers/lvgl/src/core/lv_refr.c ****         if(disp_refr->inv_area_joined[join_in] != 0) continue;
 789              		.loc 1 450 41 discriminator 1 view .LVU230
 790 00b0 D3F86022 		ldr	r2, [r3, #608]
 450:Drivers/lvgl/src/core/lv_refr.c ****         if(disp_refr->inv_area_joined[join_in] != 0) continue;
 791              		.loc 1 450 30 discriminator 1 view .LVU231
 792 00b4 AA42     		cmp	r2, r5
 793 00b6 06D9     		bls	.L42
 451:Drivers/lvgl/src/core/lv_refr.c **** 
 794              		.loc 1 451 9 is_stmt 1 view .LVU232
 451:Drivers/lvgl/src/core/lv_refr.c **** 
 795              		.loc 1 451 38 is_stmt 0 view .LVU233
 796 00b8 2B44     		add	r3, r3, r5
 797 00ba 93F84032 		ldrb	r3, [r3, #576]	@ zero_extendqisi2
 451:Drivers/lvgl/src/core/lv_refr.c **** 
 798              		.loc 1 451 11 view .LVU234
 799 00be 002B     		cmp	r3, #0
 800 00c0 F3D1     		bne	.L36
 454:Drivers/lvgl/src/core/lv_refr.c ****             /*Handle only unjoined areas and ignore itself*/
 801              		.loc 1 454 23 view .LVU235
 802 00c2 0024     		movs	r4, #0
 803 00c4 A2E7     		b	.L37
 804              	.L42:
 478:Drivers/lvgl/src/core/lv_refr.c **** 
 805              		.loc 1 478 1 view .LVU236
 806 00c6 04B0     		add	sp, sp, #16
 807              	.LCFI18:
 808              		.cfi_def_cfa_offset 32
 809              		@ sp needed
 810 00c8 BDE8F087 		pop	{r4, r5, r6, r7, r8, r9, r10, pc}
 811              	.LVL68:
 812              	.L44:
 478:Drivers/lvgl/src/core/lv_refr.c **** 
 813              		.loc 1 478 1 view .LVU237
 814              		.align	2
 815              	.L43:
 816 00cc 00000000 		.word	lv_global
 817              		.cfi_endproc
 818              	.LFE194:
 820              		.section	.text.refr_sync_areas,"ax",%progbits
 821              		.align	1
 822              		.syntax unified
 823              		.thumb
 824              		.thumb_func
 826              	refr_sync_areas:
 827              	.LFB195:
 484:Drivers/lvgl/src/core/lv_refr.c ****     /*Do not sync if not direct or double buffered*/
 828              		.loc 1 484 1 is_stmt 1 view -0
 829              		.cfi_startproc
 830              		@ args = 0, pretend = 0, frame = 88
 831              		@ frame_needed = 0, uses_anonymous_args = 0
ARM GAS  /tmp/cc3ln58M.s 			page 55


 486:Drivers/lvgl/src/core/lv_refr.c **** 
 832              		.loc 1 486 5 view .LVU239
 486:Drivers/lvgl/src/core/lv_refr.c **** 
 833              		.loc 1 486 8 is_stmt 0 view .LVU240
 834 0000 544B     		ldr	r3, .L69
 835 0002 1869     		ldr	r0, [r3, #16]
 486:Drivers/lvgl/src/core/lv_refr.c **** 
 836              		.loc 1 486 17 view .LVU241
 837 0004 90F83930 		ldrb	r3, [r0, #57]	@ zero_extendqisi2
 486:Drivers/lvgl/src/core/lv_refr.c **** 
 838              		.loc 1 486 7 view .LVU242
 839 0008 012B     		cmp	r3, #1
 840 000a 00D0     		beq	.L64
 841 000c 7047     		bx	lr
 842              	.L64:
 484:Drivers/lvgl/src/core/lv_refr.c ****     /*Do not sync if not direct or double buffered*/
 843              		.loc 1 484 1 view .LVU243
 844 000e 2DE9F04F 		push	{r4, r5, r6, r7, r8, r9, r10, fp, lr}
 845              	.LCFI19:
 846              		.cfi_def_cfa_offset 36
 847              		.cfi_offset 4, -36
 848              		.cfi_offset 5, -32
 849              		.cfi_offset 6, -28
 850              		.cfi_offset 7, -24
 851              		.cfi_offset 8, -20
 852              		.cfi_offset 9, -16
 853              		.cfi_offset 10, -12
 854              		.cfi_offset 11, -8
 855              		.cfi_offset 14, -4
 856 0012 97B0     		sub	sp, sp, #92
 857              	.LCFI20:
 858              		.cfi_def_cfa_offset 128
 489:Drivers/lvgl/src/core/lv_refr.c **** 
 859              		.loc 1 489 5 is_stmt 1 view .LVU244
 489:Drivers/lvgl/src/core/lv_refr.c **** 
 860              		.loc 1 489 9 is_stmt 0 view .LVU245
 861 0014 FFF7FEFF 		bl	lv_display_is_double_buffered
 862              	.LVL69:
 489:Drivers/lvgl/src/core/lv_refr.c **** 
 863              		.loc 1 489 7 discriminator 1 view .LVU246
 864 0018 10B9     		cbnz	r0, .L65
 865              	.L45:
 556:Drivers/lvgl/src/core/lv_refr.c **** 
 866              		.loc 1 556 1 view .LVU247
 867 001a 17B0     		add	sp, sp, #92
 868              	.LCFI21:
 869              		.cfi_remember_state
 870              		.cfi_def_cfa_offset 36
 871              		@ sp needed
 872 001c BDE8F08F 		pop	{r4, r5, r6, r7, r8, r9, r10, fp, pc}
 873              	.L65:
 874              	.LCFI22:
 875              		.cfi_restore_state
 492:Drivers/lvgl/src/core/lv_refr.c **** 
 876              		.loc 1 492 5 is_stmt 1 view .LVU248
 492:Drivers/lvgl/src/core/lv_refr.c **** 
 877              		.loc 1 492 24 is_stmt 0 view .LVU249
ARM GAS  /tmp/cc3ln58M.s 			page 56


 878 0020 4C4B     		ldr	r3, .L69
 879 0022 1869     		ldr	r0, [r3, #16]
 492:Drivers/lvgl/src/core/lv_refr.c **** 
 880              		.loc 1 492 8 view .LVU250
 881 0024 00F51A70 		add	r0, r0, #616
 882 0028 FFF7FEFF 		bl	lv_ll_is_empty
 883              	.LVL70:
 492:Drivers/lvgl/src/core/lv_refr.c **** 
 884              		.loc 1 492 7 discriminator 1 view .LVU251
 885 002c 0028     		cmp	r0, #0
 886 002e F4D1     		bne	.L45
 494:Drivers/lvgl/src/core/lv_refr.c ****     /*With double buffered direct mode synchronize the rendered areas to the other buffer*/
 887              		.loc 1 494 27 is_stmt 1 view .LVU252
 497:Drivers/lvgl/src/core/lv_refr.c **** 
 888              		.loc 1 497 5 view .LVU253
 889 0030 484C     		ldr	r4, .L69
 890 0032 2069     		ldr	r0, [r4, #16]
 891 0034 FFF7FEFF 		bl	wait_for_flushing
 892              	.LVL71:
 501:Drivers/lvgl/src/core/lv_refr.c ****     lv_draw_buf_t * on_screen = disp_refr->buf_act == disp_refr->buf_1 ? disp_refr->buf_2 : disp_re
 893              		.loc 1 501 5 view .LVU254
 501:Drivers/lvgl/src/core/lv_refr.c ****     lv_draw_buf_t * on_screen = disp_refr->buf_act == disp_refr->buf_1 ? disp_refr->buf_2 : disp_re
 894              		.loc 1 501 34 is_stmt 0 view .LVU255
 895 0038 2069     		ldr	r0, [r4, #16]
 501:Drivers/lvgl/src/core/lv_refr.c ****     lv_draw_buf_t * on_screen = disp_refr->buf_act == disp_refr->buf_1 ? disp_refr->buf_2 : disp_re
 896              		.loc 1 501 21 view .LVU256
 897 003a D0F82490 		ldr	r9, [r0, #36]
 898              	.LVL72:
 502:Drivers/lvgl/src/core/lv_refr.c **** 
 899              		.loc 1 502 5 is_stmt 1 view .LVU257
 502:Drivers/lvgl/src/core/lv_refr.c **** 
 900              		.loc 1 502 64 is_stmt 0 view .LVU258
 901 003e C669     		ldr	r6, [r0, #28]
 502:Drivers/lvgl/src/core/lv_refr.c **** 
 902              		.loc 1 502 91 view .LVU259
 903 0040 4E45     		cmp	r6, r9
 904 0042 0FD0     		beq	.L66
 905              	.L47:
 906              	.LVL73:
 504:Drivers/lvgl/src/core/lv_refr.c ****     uint32_t ver_res = lv_display_get_vertical_resolution(disp_refr);
 907              		.loc 1 504 5 is_stmt 1 view .LVU260
 504:Drivers/lvgl/src/core/lv_refr.c ****     uint32_t ver_res = lv_display_get_vertical_resolution(disp_refr);
 908              		.loc 1 504 24 is_stmt 0 view .LVU261
 909 0044 FFF7FEFF 		bl	lv_display_get_horizontal_resolution
 910              	.LVL74:
 911 0048 8246     		mov	r10, r0
 912              	.LVL75:
 505:Drivers/lvgl/src/core/lv_refr.c **** 
 913              		.loc 1 505 5 is_stmt 1 view .LVU262
 505:Drivers/lvgl/src/core/lv_refr.c **** 
 914              		.loc 1 505 24 is_stmt 0 view .LVU263
 915 004a 424B     		ldr	r3, .L69
 916 004c 1869     		ldr	r0, [r3, #16]
 917              	.LVL76:
 505:Drivers/lvgl/src/core/lv_refr.c **** 
 918              		.loc 1 505 24 view .LVU264
 919 004e FFF7FEFF 		bl	lv_display_get_vertical_resolution
ARM GAS  /tmp/cc3ln58M.s 			page 57


 920              	.LVL77:
 921 0052 8346     		mov	fp, r0
 922              	.LVL78:
 508:Drivers/lvgl/src/core/lv_refr.c ****     int8_t j;
 923              		.loc 1 508 5 is_stmt 1 view .LVU265
 509:Drivers/lvgl/src/core/lv_refr.c ****     lv_area_t res[4] = {0};
 924              		.loc 1 509 5 view .LVU266
 510:Drivers/lvgl/src/core/lv_refr.c ****     int8_t res_c;
 925              		.loc 1 510 5 view .LVU267
 510:Drivers/lvgl/src/core/lv_refr.c ****     int8_t res_c;
 926              		.loc 1 510 15 is_stmt 0 view .LVU268
 927 0054 4022     		movs	r2, #64
 928 0056 0021     		movs	r1, #0
 929 0058 06A8     		add	r0, sp, #24
 930              	.LVL79:
 510:Drivers/lvgl/src/core/lv_refr.c ****     int8_t res_c;
 931              		.loc 1 510 15 view .LVU269
 932 005a FFF7FEFF 		bl	memset
 933              	.LVL80:
 511:Drivers/lvgl/src/core/lv_refr.c ****     lv_area_t * sync_area, * new_area, * next_area;
 934              		.loc 1 511 5 is_stmt 1 view .LVU270
 512:Drivers/lvgl/src/core/lv_refr.c ****     for(i = 0; i < disp_refr->inv_p; i++) {
 935              		.loc 1 512 5 view .LVU271
 513:Drivers/lvgl/src/core/lv_refr.c ****         /*Skip joined areas*/
 936              		.loc 1 513 5 view .LVU272
 513:Drivers/lvgl/src/core/lv_refr.c ****         /*Skip joined areas*/
 937              		.loc 1 513 11 is_stmt 0 view .LVU273
 938 005e 0027     		movs	r7, #0
 939 0060 0196     		str	r6, [sp, #4]
 513:Drivers/lvgl/src/core/lv_refr.c ****         /*Skip joined areas*/
 940              		.loc 1 513 5 view .LVU274
 941 0062 39E0     		b	.L48
 942              	.LVL81:
 943              	.L66:
 502:Drivers/lvgl/src/core/lv_refr.c **** 
 944              		.loc 1 502 91 discriminator 1 view .LVU275
 945 0064 066A     		ldr	r6, [r0, #32]
 946 0066 EDE7     		b	.L47
 947              	.LVL82:
 948              	.L67:
 533:Drivers/lvgl/src/core/lv_refr.c ****                 lv_free(sync_area);
 949              		.loc 1 533 17 is_stmt 1 view .LVU276
 533:Drivers/lvgl/src/core/lv_refr.c ****                 lv_free(sync_area);
 950              		.loc 1 533 31 is_stmt 0 view .LVU277
 951 0068 3A4B     		ldr	r3, .L69
 952 006a 1869     		ldr	r0, [r3, #16]
 533:Drivers/lvgl/src/core/lv_refr.c ****                 lv_free(sync_area);
 953              		.loc 1 533 17 view .LVU278
 954 006c 2946     		mov	r1, r5
 955 006e 00F51A70 		add	r0, r0, #616
 956 0072 FFF7FEFF 		bl	lv_ll_remove
 957              	.LVL83:
 534:Drivers/lvgl/src/core/lv_refr.c ****             }
 958              		.loc 1 534 17 is_stmt 1 view .LVU279
 959 0076 2846     		mov	r0, r5
 960 0078 FFF7FEFF 		bl	lv_free
 961              	.LVL84:
ARM GAS  /tmp/cc3ln58M.s 			page 58


 962              	.L52:
 529:Drivers/lvgl/src/core/lv_refr.c ****                     new_area = lv_ll_ins_prev(&disp_refr->sync_areas, sync_area);
 963              		.loc 1 529 23 is_stmt 0 view .LVU280
 964 007c 009D     		ldr	r5, [sp]
 965              	.LVL85:
 966              	.L50:
 519:Drivers/lvgl/src/core/lv_refr.c ****             /*Get next sync area*/
 967              		.loc 1 519 25 is_stmt 1 view .LVU281
 968 007e 4DB3     		cbz	r5, .L49
 521:Drivers/lvgl/src/core/lv_refr.c **** 
 969              		.loc 1 521 13 view .LVU282
 521:Drivers/lvgl/src/core/lv_refr.c **** 
 970              		.loc 1 521 41 is_stmt 0 view .LVU283
 971 0080 344E     		ldr	r6, .L69
 972 0082 3069     		ldr	r0, [r6, #16]
 521:Drivers/lvgl/src/core/lv_refr.c **** 
 973              		.loc 1 521 25 view .LVU284
 974 0084 2946     		mov	r1, r5
 975 0086 00F51A70 		add	r0, r0, #616
 976 008a FFF7FEFF 		bl	lv_ll_get_next
 977              	.LVL86:
 978 008e 0090     		str	r0, [sp]
 979              	.LVL87:
 524:Drivers/lvgl/src/core/lv_refr.c **** 
 980              		.loc 1 524 13 is_stmt 1 view .LVU285
 524:Drivers/lvgl/src/core/lv_refr.c **** 
 981              		.loc 1 524 51 is_stmt 0 view .LVU286
 982 0090 3369     		ldr	r3, [r6, #16]
 524:Drivers/lvgl/src/core/lv_refr.c **** 
 983              		.loc 1 524 50 view .LVU287
 984 0092 08F10402 		add	r2, r8, #4
 524:Drivers/lvgl/src/core/lv_refr.c **** 
 985              		.loc 1 524 21 view .LVU288
 986 0096 03EB0212 		add	r2, r3, r2, lsl #4
 987 009a 2946     		mov	r1, r5
 988 009c 06A8     		add	r0, sp, #24
 989              	.LVL88:
 524:Drivers/lvgl/src/core/lv_refr.c **** 
 990              		.loc 1 524 21 view .LVU289
 991 009e FFF7FEFF 		bl	lv_area_diff
 992              	.LVL89:
 993 00a2 0446     		mov	r4, r0
 994              	.LVL90:
 527:Drivers/lvgl/src/core/lv_refr.c ****                 /*Replace old sync area with new areas*/
 995              		.loc 1 527 13 is_stmt 1 view .LVU290
 527:Drivers/lvgl/src/core/lv_refr.c ****                 /*Replace old sync area with new areas*/
 996              		.loc 1 527 15 is_stmt 0 view .LVU291
 997 00a4 B0F1FF3F 		cmp	r0, #-1
 998 00a8 E8D0     		beq	.L52
 529:Drivers/lvgl/src/core/lv_refr.c ****                     new_area = lv_ll_ins_prev(&disp_refr->sync_areas, sync_area);
 999              		.loc 1 529 23 view .LVU292
 1000 00aa 0026     		movs	r6, #0
 1001              	.LVL91:
 1002              	.L51:
 529:Drivers/lvgl/src/core/lv_refr.c ****                     new_area = lv_ll_ins_prev(&disp_refr->sync_areas, sync_area);
 1003              		.loc 1 529 30 is_stmt 1 discriminator 1 view .LVU293
 1004 00ac A642     		cmp	r6, r4
ARM GAS  /tmp/cc3ln58M.s 			page 59


 1005 00ae DBDA     		bge	.L67
 530:Drivers/lvgl/src/core/lv_refr.c ****                     *new_area = res[j];
 1006              		.loc 1 530 21 view .LVU294
 530:Drivers/lvgl/src/core/lv_refr.c ****                     *new_area = res[j];
 1007              		.loc 1 530 48 is_stmt 0 view .LVU295
 1008 00b0 284B     		ldr	r3, .L69
 1009 00b2 1869     		ldr	r0, [r3, #16]
 530:Drivers/lvgl/src/core/lv_refr.c ****                     *new_area = res[j];
 1010              		.loc 1 530 32 view .LVU296
 1011 00b4 2946     		mov	r1, r5
 1012 00b6 00F51A70 		add	r0, r0, #616
 1013 00ba FFF7FEFF 		bl	lv_ll_ins_prev
 1014              	.LVL92:
 1015 00be 8446     		mov	ip, r0
 1016              	.LVL93:
 531:Drivers/lvgl/src/core/lv_refr.c ****                 }
 1017              		.loc 1 531 21 is_stmt 1 view .LVU297
 531:Drivers/lvgl/src/core/lv_refr.c ****                 }
 1018              		.loc 1 531 31 is_stmt 0 view .LVU298
 1019 00c0 16AB     		add	r3, sp, #88
 1020 00c2 03EB0613 		add	r3, r3, r6, lsl #4
 1021 00c6 403B     		subs	r3, r3, #64
 1022 00c8 0FCB     		ldm	r3, {r0, r1, r2, r3}
 1023              	.LVL94:
 531:Drivers/lvgl/src/core/lv_refr.c ****                 }
 1024              		.loc 1 531 31 view .LVU299
 1025 00ca 8CE80F00 		stm	ip, {r0, r1, r2, r3}
 529:Drivers/lvgl/src/core/lv_refr.c ****                     new_area = lv_ll_ins_prev(&disp_refr->sync_areas, sync_area);
 1026              		.loc 1 529 40 is_stmt 1 discriminator 3 view .LVU300
 1027 00ce 0136     		adds	r6, r6, #1
 1028              	.LVL95:
 529:Drivers/lvgl/src/core/lv_refr.c ****                     new_area = lv_ll_ins_prev(&disp_refr->sync_areas, sync_area);
 1029              		.loc 1 529 40 is_stmt 0 discriminator 3 view .LVU301
 1030 00d0 76B2     		sxtb	r6, r6
 1031              	.LVL96:
 529:Drivers/lvgl/src/core/lv_refr.c ****                     new_area = lv_ll_ins_prev(&disp_refr->sync_areas, sync_area);
 1032              		.loc 1 529 40 discriminator 3 view .LVU302
 1033 00d2 EBE7     		b	.L51
 1034              	.LVL97:
 1035              	.L49:
 513:Drivers/lvgl/src/core/lv_refr.c ****         /*Skip joined areas*/
 1036              		.loc 1 513 39 is_stmt 1 discriminator 2 view .LVU303
 1037 00d4 0137     		adds	r7, r7, #1
 1038              	.LVL98:
 513:Drivers/lvgl/src/core/lv_refr.c ****         /*Skip joined areas*/
 1039              		.loc 1 513 39 is_stmt 0 discriminator 2 view .LVU304
 1040 00d6 BFB2     		uxth	r7, r7
 1041              	.LVL99:
 1042              	.L48:
 513:Drivers/lvgl/src/core/lv_refr.c ****         /*Skip joined areas*/
 1043              		.loc 1 513 18 is_stmt 1 discriminator 1 view .LVU305
 513:Drivers/lvgl/src/core/lv_refr.c ****         /*Skip joined areas*/
 1044              		.loc 1 513 20 is_stmt 0 discriminator 1 view .LVU306
 1045 00d8 1E4B     		ldr	r3, .L69
 1046 00da 1869     		ldr	r0, [r3, #16]
 513:Drivers/lvgl/src/core/lv_refr.c ****         /*Skip joined areas*/
 1047              		.loc 1 513 29 discriminator 1 view .LVU307
ARM GAS  /tmp/cc3ln58M.s 			page 60


 1048 00dc D0F86032 		ldr	r3, [r0, #608]
 513:Drivers/lvgl/src/core/lv_refr.c ****         /*Skip joined areas*/
 1049              		.loc 1 513 18 discriminator 1 view .LVU308
 1050 00e0 9F42     		cmp	r7, r3
 1051 00e2 0BD2     		bcs	.L68
 515:Drivers/lvgl/src/core/lv_refr.c **** 
 1052              		.loc 1 515 9 is_stmt 1 view .LVU309
 515:Drivers/lvgl/src/core/lv_refr.c **** 
 1053              		.loc 1 515 38 is_stmt 0 view .LVU310
 1054 00e4 B846     		mov	r8, r7
 1055 00e6 C319     		adds	r3, r0, r7
 1056 00e8 93F84032 		ldrb	r3, [r3, #576]	@ zero_extendqisi2
 515:Drivers/lvgl/src/core/lv_refr.c **** 
 1057              		.loc 1 515 11 view .LVU311
 1058 00ec 002B     		cmp	r3, #0
 1059 00ee F1D1     		bne	.L49
 518:Drivers/lvgl/src/core/lv_refr.c ****         while(sync_area != NULL) {
 1060              		.loc 1 518 9 is_stmt 1 view .LVU312
 518:Drivers/lvgl/src/core/lv_refr.c ****         while(sync_area != NULL) {
 1061              		.loc 1 518 21 is_stmt 0 view .LVU313
 1062 00f0 00F51A70 		add	r0, r0, #616
 1063 00f4 FFF7FEFF 		bl	lv_ll_get_head
 1064              	.LVL100:
 1065 00f8 0546     		mov	r5, r0
 1066              	.LVL101:
 519:Drivers/lvgl/src/core/lv_refr.c ****             /*Get next sync area*/
 1067              		.loc 1 519 9 is_stmt 1 view .LVU314
 519:Drivers/lvgl/src/core/lv_refr.c ****             /*Get next sync area*/
 1068              		.loc 1 519 14 is_stmt 0 view .LVU315
 1069 00fa C0E7     		b	.L50
 1070              	.LVL102:
 1071              	.L68:
 542:Drivers/lvgl/src/core/lv_refr.c ****     /*Copy sync areas (if any remaining)*/
 1072              		.loc 1 542 15 view .LVU316
 1073 00fc 019E     		ldr	r6, [sp, #4]
 542:Drivers/lvgl/src/core/lv_refr.c ****     /*Copy sync areas (if any remaining)*/
 1074              		.loc 1 542 5 is_stmt 1 view .LVU317
 542:Drivers/lvgl/src/core/lv_refr.c ****     /*Copy sync areas (if any remaining)*/
 1075              		.loc 1 542 15 is_stmt 0 view .LVU318
 1076 00fe 0023     		movs	r3, #0
 1077 0100 0293     		str	r3, [sp, #8]
 1078 0102 0393     		str	r3, [sp, #12]
 542:Drivers/lvgl/src/core/lv_refr.c ****     /*Copy sync areas (if any remaining)*/
 1079              		.loc 1 542 51 view .LVU319
 1080 0104 0AF1FF33 		add	r3, r10, #-1
 542:Drivers/lvgl/src/core/lv_refr.c ****     /*Copy sync areas (if any remaining)*/
 1081              		.loc 1 542 15 view .LVU320
 1082 0108 0493     		str	r3, [sp, #16]
 542:Drivers/lvgl/src/core/lv_refr.c ****     /*Copy sync areas (if any remaining)*/
 1083              		.loc 1 542 73 view .LVU321
 1084 010a 0BF1FF33 		add	r3, fp, #-1
 542:Drivers/lvgl/src/core/lv_refr.c ****     /*Copy sync areas (if any remaining)*/
 1085              		.loc 1 542 15 view .LVU322
 1086 010e 0593     		str	r3, [sp, #20]
 544:Drivers/lvgl/src/core/lv_refr.c ****         sync_area = lv_ll_get_next(&disp_refr->sync_areas, sync_area)) {
 1087              		.loc 1 544 5 is_stmt 1 view .LVU323
 544:Drivers/lvgl/src/core/lv_refr.c ****         sync_area = lv_ll_get_next(&disp_refr->sync_areas, sync_area)) {
ARM GAS  /tmp/cc3ln58M.s 			page 61


 1088              		.loc 1 544 21 is_stmt 0 view .LVU324
 1089 0110 00F51A70 		add	r0, r0, #616
 1090 0114 FFF7FEFF 		bl	lv_ll_get_head
 1091              	.LVL103:
 1092 0118 0446     		mov	r4, r0
 1093              	.LVL104:
 544:Drivers/lvgl/src/core/lv_refr.c ****         sync_area = lv_ll_get_next(&disp_refr->sync_areas, sync_area)) {
 1094              		.loc 1 544 5 view .LVU325
 1095 011a 12E0     		b	.L56
 1096              	.LVL105:
 1097              	.L57:
 549:Drivers/lvgl/src/core/lv_refr.c ****         lv_draw_buf_copy(off_screen, sync_area, on_screen, sync_area);
 1098              		.loc 1 549 9 is_stmt 1 view .LVU326
 1099 011c 02AA     		add	r2, sp, #8
 1100 011e 2146     		mov	r1, r4
 1101 0120 2046     		mov	r0, r4
 1102 0122 FFF7FEFF 		bl	lv_area_intersect
 1103              	.LVL106:
 550:Drivers/lvgl/src/core/lv_refr.c ****     }
 1104              		.loc 1 550 9 view .LVU327
 1105 0126 2346     		mov	r3, r4
 1106 0128 3246     		mov	r2, r6
 1107 012a 2146     		mov	r1, r4
 1108 012c 4846     		mov	r0, r9
 1109 012e FFF7FEFF 		bl	lv_draw_buf_copy
 1110              	.LVL107:
 545:Drivers/lvgl/src/core/lv_refr.c ****         /**
 1111              		.loc 1 545 19 view .LVU328
 545:Drivers/lvgl/src/core/lv_refr.c ****         /**
 1112              		.loc 1 545 37 is_stmt 0 view .LVU329
 1113 0132 084B     		ldr	r3, .L69
 1114 0134 1869     		ldr	r0, [r3, #16]
 545:Drivers/lvgl/src/core/lv_refr.c ****         /**
 1115              		.loc 1 545 21 view .LVU330
 1116 0136 2146     		mov	r1, r4
 1117 0138 00F51A70 		add	r0, r0, #616
 1118 013c FFF7FEFF 		bl	lv_ll_get_next
 1119              	.LVL108:
 1120 0140 0446     		mov	r4, r0
 1121              	.LVL109:
 1122              	.L56:
 544:Drivers/lvgl/src/core/lv_refr.c ****         sync_area = lv_ll_get_next(&disp_refr->sync_areas, sync_area)) {
 1123              		.loc 1 544 71 is_stmt 1 discriminator 1 view .LVU331
 1124 0142 002C     		cmp	r4, #0
 1125 0144 EAD1     		bne	.L57
 554:Drivers/lvgl/src/core/lv_refr.c ****     LV_PROFILER_REFR_END;
 1126              		.loc 1 554 5 view .LVU332
 554:Drivers/lvgl/src/core/lv_refr.c ****     LV_PROFILER_REFR_END;
 1127              		.loc 1 554 18 is_stmt 0 view .LVU333
 1128 0146 034B     		ldr	r3, .L69
 1129 0148 1869     		ldr	r0, [r3, #16]
 554:Drivers/lvgl/src/core/lv_refr.c ****     LV_PROFILER_REFR_END;
 1130              		.loc 1 554 5 view .LVU334
 1131 014a 00F51A70 		add	r0, r0, #616
 1132 014e FFF7FEFF 		bl	lv_ll_clear
 1133              	.LVL110:
 555:Drivers/lvgl/src/core/lv_refr.c **** }
ARM GAS  /tmp/cc3ln58M.s 			page 62


 1134              		.loc 1 555 25 is_stmt 1 view .LVU335
 1135 0152 62E7     		b	.L45
 1136              	.L70:
 1137              		.align	2
 1138              	.L69:
 1139 0154 00000000 		.word	lv_global
 1140              		.cfi_endproc
 1141              	.LFE195:
 1143              		.section	.text.get_max_row,"ax",%progbits
 1144              		.align	1
 1145              		.syntax unified
 1146              		.thumb
 1147              		.thumb_func
 1149              	get_max_row:
 1150              	.LVL111:
 1151              	.LFB205:
1219:Drivers/lvgl/src/core/lv_refr.c ****     lv_color_format_t cf = disp->color_format;
 1152              		.loc 1 1219 1 view -0
 1153              		.cfi_startproc
 1154              		@ args = 0, pretend = 0, frame = 16
 1155              		@ frame_needed = 0, uses_anonymous_args = 0
1219:Drivers/lvgl/src/core/lv_refr.c ****     lv_color_format_t cf = disp->color_format;
 1156              		.loc 1 1219 1 is_stmt 0 view .LVU337
 1157 0000 F0B5     		push	{r4, r5, r6, r7, lr}
 1158              	.LCFI23:
 1159              		.cfi_def_cfa_offset 20
 1160              		.cfi_offset 4, -20
 1161              		.cfi_offset 5, -16
 1162              		.cfi_offset 6, -12
 1163              		.cfi_offset 7, -8
 1164              		.cfi_offset 14, -4
 1165 0002 85B0     		sub	sp, sp, #20
 1166              	.LCFI24:
 1167              		.cfi_def_cfa_offset 40
 1168 0004 0546     		mov	r5, r0
 1169 0006 0846     		mov	r0, r1
 1170              	.LVL112:
1219:Drivers/lvgl/src/core/lv_refr.c ****     lv_color_format_t cf = disp->color_format;
 1171              		.loc 1 1219 1 view .LVU338
 1172 0008 1646     		mov	r6, r2
1220:Drivers/lvgl/src/core/lv_refr.c ****     uint32_t stride = lv_draw_buf_width_to_stride(area_w, cf);
 1173              		.loc 1 1220 5 is_stmt 1 view .LVU339
1220:Drivers/lvgl/src/core/lv_refr.c ****     uint32_t stride = lv_draw_buf_width_to_stride(area_w, cf);
 1174              		.loc 1 1220 23 is_stmt 0 view .LVU340
 1175 000a 95F83C40 		ldrb	r4, [r5, #60]	@ zero_extendqisi2
 1176              	.LVL113:
1221:Drivers/lvgl/src/core/lv_refr.c ****     uint32_t overhead = LV_COLOR_INDEXED_PALETTE_SIZE(cf) * sizeof(lv_color32_t);
 1177              		.loc 1 1221 5 is_stmt 1 view .LVU341
1221:Drivers/lvgl/src/core/lv_refr.c ****     uint32_t overhead = LV_COLOR_INDEXED_PALETTE_SIZE(cf) * sizeof(lv_color32_t);
 1178              		.loc 1 1221 23 is_stmt 0 view .LVU342
 1179 000e 2146     		mov	r1, r4
 1180              	.LVL114:
1221:Drivers/lvgl/src/core/lv_refr.c ****     uint32_t overhead = LV_COLOR_INDEXED_PALETTE_SIZE(cf) * sizeof(lv_color32_t);
 1181              		.loc 1 1221 23 view .LVU343
 1182 0010 FFF7FEFF 		bl	lv_draw_buf_width_to_stride
 1183              	.LVL115:
1222:Drivers/lvgl/src/core/lv_refr.c **** 
ARM GAS  /tmp/cc3ln58M.s 			page 63


 1184              		.loc 1 1222 5 is_stmt 1 view .LVU344
 1185 0014 073C     		subs	r4, r4, #7
 1186              	.LVL116:
1222:Drivers/lvgl/src/core/lv_refr.c **** 
 1187              		.loc 1 1222 5 is_stmt 0 view .LVU345
 1188 0016 032C     		cmp	r4, #3
 1189 0018 03D8     		bhi	.L72
 1190 001a DFE804F0 		tbb	[pc, r4]
 1191              	.L74:
 1192 001e 0B       		.byte	(.L82-.L74)/2
 1193 001f 04       		.byte	(.L76-.L74)/2
 1194 0020 06       		.byte	(.L75-.L74)/2
 1195 0021 08       		.byte	(.L73-.L74)/2
 1196              		.p2align 1
 1197              	.L72:
1221:Drivers/lvgl/src/core/lv_refr.c ****     uint32_t overhead = LV_COLOR_INDEXED_PALETTE_SIZE(cf) * sizeof(lv_color32_t);
 1198              		.loc 1 1221 23 view .LVU346
 1199 0022 0022     		movs	r2, #0
 1200 0024 07E0     		b	.L77
 1201              	.L76:
 1202 0026 1022     		movs	r2, #16
 1203 0028 05E0     		b	.L77
 1204              	.L75:
 1205 002a 4022     		movs	r2, #64
 1206 002c 03E0     		b	.L77
 1207              	.L73:
 1208 002e 4FF48062 		mov	r2, #1024
 1209 0032 00E0     		b	.L77
 1210              	.L82:
 1211 0034 0822     		movs	r2, #8
 1212              	.L77:
 1213              	.LVL117:
1224:Drivers/lvgl/src/core/lv_refr.c ****         LV_LOG_WARN("Invalid stride. Value is 0");
 1214              		.loc 1 1224 5 is_stmt 1 view .LVU347
1224:Drivers/lvgl/src/core/lv_refr.c ****         LV_LOG_WARN("Invalid stride. Value is 0");
 1215              		.loc 1 1224 7 is_stmt 0 view .LVU348
 1216 0036 08B3     		cbz	r0, .L71
1229:Drivers/lvgl/src/core/lv_refr.c **** 
 1217              		.loc 1 1229 5 is_stmt 1 view .LVU349
1229:Drivers/lvgl/src/core/lv_refr.c **** 
 1218              		.loc 1 1229 38 is_stmt 0 view .LVU350
 1219 0038 6B6A     		ldr	r3, [r5, #36]
1229:Drivers/lvgl/src/core/lv_refr.c **** 
 1220              		.loc 1 1229 47 view .LVU351
 1221 003a DB68     		ldr	r3, [r3, #12]
1229:Drivers/lvgl/src/core/lv_refr.c **** 
 1222              		.loc 1 1229 59 view .LVU352
 1223 003c 9B1A     		subs	r3, r3, r2
1229:Drivers/lvgl/src/core/lv_refr.c **** 
 1224              		.loc 1 1229 71 view .LVU353
 1225 003e B3FBF0F3 		udiv	r3, r3, r0
 1226              	.LVL118:
1231:Drivers/lvgl/src/core/lv_refr.c **** 
 1227              		.loc 1 1231 5 is_stmt 1 view .LVU354
1231:Drivers/lvgl/src/core/lv_refr.c **** 
 1228              		.loc 1 1231 7 is_stmt 0 view .LVU355
 1229 0042 B342     		cmp	r3, r6
ARM GAS  /tmp/cc3ln58M.s 			page 64


 1230 0044 00DC     		bgt	.L79
1229:Drivers/lvgl/src/core/lv_refr.c **** 
 1231              		.loc 1 1229 13 view .LVU356
 1232 0046 1E46     		mov	r6, r3
 1233              	.LVL119:
 1234              	.L79:
1234:Drivers/lvgl/src/core/lv_refr.c ****     tmp.x1 = 0;
 1235              		.loc 1 1234 5 is_stmt 1 view .LVU357
1235:Drivers/lvgl/src/core/lv_refr.c ****     tmp.x2 = 0;
 1236              		.loc 1 1235 5 view .LVU358
1235:Drivers/lvgl/src/core/lv_refr.c ****     tmp.x2 = 0;
 1237              		.loc 1 1235 12 is_stmt 0 view .LVU359
 1238 0048 0023     		movs	r3, #0
 1239 004a 0093     		str	r3, [sp]
1236:Drivers/lvgl/src/core/lv_refr.c ****     tmp.y1 = 0;
 1240              		.loc 1 1236 5 is_stmt 1 view .LVU360
1236:Drivers/lvgl/src/core/lv_refr.c ****     tmp.y1 = 0;
 1241              		.loc 1 1236 12 is_stmt 0 view .LVU361
 1242 004c 0293     		str	r3, [sp, #8]
1237:Drivers/lvgl/src/core/lv_refr.c **** 
 1243              		.loc 1 1237 5 is_stmt 1 view .LVU362
1237:Drivers/lvgl/src/core/lv_refr.c **** 
 1244              		.loc 1 1237 12 is_stmt 0 view .LVU363
 1245 004e 0193     		str	r3, [sp, #4]
1239:Drivers/lvgl/src/core/lv_refr.c ****     do {
 1246              		.loc 1 1239 5 is_stmt 1 view .LVU364
 1247              	.LVL120:
1239:Drivers/lvgl/src/core/lv_refr.c ****     do {
 1248              		.loc 1 1239 13 is_stmt 0 view .LVU365
 1249 0050 3446     		mov	r4, r6
 1250              	.LVL121:
 1251              	.L81:
1240:Drivers/lvgl/src/core/lv_refr.c ****         tmp.y2 = h_tmp - 1;
 1252              		.loc 1 1240 5 is_stmt 1 view .LVU366
1241:Drivers/lvgl/src/core/lv_refr.c ****         lv_display_send_event(disp_refr, LV_EVENT_INVALIDATE_AREA, &tmp);
 1253              		.loc 1 1241 9 view .LVU367
 1254 0052 2746     		mov	r7, r4
1241:Drivers/lvgl/src/core/lv_refr.c ****         lv_display_send_event(disp_refr, LV_EVENT_INVALIDATE_AREA, &tmp);
 1255              		.loc 1 1241 24 is_stmt 0 view .LVU368
 1256 0054 013C     		subs	r4, r4, #1
 1257              	.LVL122:
1241:Drivers/lvgl/src/core/lv_refr.c ****         lv_display_send_event(disp_refr, LV_EVENT_INVALIDATE_AREA, &tmp);
 1258              		.loc 1 1241 16 view .LVU369
 1259 0056 0394     		str	r4, [sp, #12]
1242:Drivers/lvgl/src/core/lv_refr.c **** 
 1260              		.loc 1 1242 9 is_stmt 1 view .LVU370
 1261 0058 6A46     		mov	r2, sp
 1262 005a 3521     		movs	r1, #53
 1263 005c 094B     		ldr	r3, .L85
 1264 005e 1869     		ldr	r0, [r3, #16]
 1265 0060 FFF7FEFF 		bl	lv_display_send_event
 1266              	.LVL123:
1245:Drivers/lvgl/src/core/lv_refr.c **** 
 1267              		.loc 1 1245 9 view .LVU371
1245:Drivers/lvgl/src/core/lv_refr.c **** 
 1268              		.loc 1 1245 12 is_stmt 0 view .LVU372
 1269 0064 6846     		mov	r0, sp
ARM GAS  /tmp/cc3ln58M.s 			page 65


 1270 0066 FFF7FEFF 		bl	lv_area_get_height
 1271              	.LVL124:
1245:Drivers/lvgl/src/core/lv_refr.c **** 
 1272              		.loc 1 1245 11 discriminator 1 view .LVU373
 1273 006a B042     		cmp	r0, r6
 1274 006c 02DD     		ble	.L80
1248:Drivers/lvgl/src/core/lv_refr.c ****     } while(h_tmp > 0);
 1275              		.loc 1 1248 9 is_stmt 1 view .LVU374
 1276              	.LVL125:
1249:Drivers/lvgl/src/core/lv_refr.c **** 
 1277              		.loc 1 1249 19 view .LVU375
 1278 006e 002C     		cmp	r4, #0
 1279 0070 EFDC     		bgt	.L81
1248:Drivers/lvgl/src/core/lv_refr.c ****     } while(h_tmp > 0);
 1280              		.loc 1 1248 14 is_stmt 0 view .LVU376
 1281 0072 2746     		mov	r7, r4
 1282              	.LVL126:
 1283              	.L80:
1251:Drivers/lvgl/src/core/lv_refr.c ****         LV_LOG_WARN("Can't set draw_buf height using the round function. (Wrong round_cb or too "
 1284              		.loc 1 1251 5 is_stmt 1 view .LVU377
1251:Drivers/lvgl/src/core/lv_refr.c ****         LV_LOG_WARN("Can't set draw_buf height using the round function. (Wrong round_cb or too "
 1285              		.loc 1 1251 7 is_stmt 0 view .LVU378
 1286 0074 002F     		cmp	r7, #0
 1287 0076 03DD     		ble	.L83
1257:Drivers/lvgl/src/core/lv_refr.c ****     }
 1288              		.loc 1 1257 9 is_stmt 1 view .LVU379
1257:Drivers/lvgl/src/core/lv_refr.c ****     }
 1289              		.loc 1 1257 22 is_stmt 0 view .LVU380
 1290 0078 0398     		ldr	r0, [sp, #12]
1257:Drivers/lvgl/src/core/lv_refr.c ****     }
 1291              		.loc 1 1257 17 view .LVU381
 1292 007a 0130     		adds	r0, r0, #1
 1293              	.LVL127:
1260:Drivers/lvgl/src/core/lv_refr.c **** }
 1294              		.loc 1 1260 5 is_stmt 1 view .LVU382
 1295              	.L71:
1261:Drivers/lvgl/src/core/lv_refr.c **** 
 1296              		.loc 1 1261 1 is_stmt 0 view .LVU383
 1297 007c 05B0     		add	sp, sp, #20
 1298              	.LCFI25:
 1299              		.cfi_remember_state
 1300              		.cfi_def_cfa_offset 20
 1301              		@ sp needed
 1302 007e F0BD     		pop	{r4, r5, r6, r7, pc}
 1303              	.LVL128:
 1304              	.L83:
 1305              	.LCFI26:
 1306              		.cfi_restore_state
1254:Drivers/lvgl/src/core/lv_refr.c ****     }
 1307              		.loc 1 1254 16 view .LVU384
 1308 0080 0020     		movs	r0, #0
 1309 0082 FBE7     		b	.L71
 1310              	.L86:
 1311              		.align	2
 1312              	.L85:
 1313 0084 00000000 		.word	lv_global
 1314              		.cfi_endproc
ARM GAS  /tmp/cc3ln58M.s 			page 66


 1315              	.LFE205:
 1317              		.section	.text.draw_buf_flush,"ax",%progbits
 1318              		.align	1
 1319              		.syntax unified
 1320              		.thumb
 1321              		.thumb_func
 1323              	draw_buf_flush:
 1324              	.LVL129:
 1325              	.LFB206:
1267:Drivers/lvgl/src/core/lv_refr.c ****     /*Flush the rendered content to the display*/
 1326              		.loc 1 1267 1 is_stmt 1 view -0
 1327              		.cfi_startproc
 1328              		@ args = 0, pretend = 0, frame = 0
 1329              		@ frame_needed = 0, uses_anonymous_args = 0
1267:Drivers/lvgl/src/core/lv_refr.c ****     /*Flush the rendered content to the display*/
 1330              		.loc 1 1267 1 is_stmt 0 view .LVU386
 1331 0000 70B5     		push	{r4, r5, r6, lr}
 1332              	.LCFI27:
 1333              		.cfi_def_cfa_offset 16
 1334              		.cfi_offset 4, -16
 1335              		.cfi_offset 5, -12
 1336              		.cfi_offset 6, -8
 1337              		.cfi_offset 14, -4
 1338 0002 0446     		mov	r4, r0
1269:Drivers/lvgl/src/core/lv_refr.c **** 
 1339              		.loc 1 1269 5 is_stmt 1 view .LVU387
1269:Drivers/lvgl/src/core/lv_refr.c **** 
 1340              		.loc 1 1269 18 is_stmt 0 view .LVU388
 1341 0004 D0F8AC52 		ldr	r5, [r0, #684]
 1342              	.LVL130:
1271:Drivers/lvgl/src/core/lv_refr.c ****         lv_draw_dispatch_wait_for_request();
 1343              		.loc 1 1271 5 is_stmt 1 view .LVU389
1271:Drivers/lvgl/src/core/lv_refr.c ****         lv_draw_dispatch_wait_for_request();
 1344              		.loc 1 1271 10 is_stmt 0 view .LVU390
 1345 0008 03E0     		b	.L88
 1346              	.LVL131:
 1347              	.L89:
1272:Drivers/lvgl/src/core/lv_refr.c ****         lv_draw_dispatch();
