ARM GAS  /tmp/ccOwYixx.s 			page 1


   1              		.cpu cortex-m7
   2              		.arch armv7e-m
   3              		.fpu fpv5-sp-d16
   4              		.eabi_attribute 27, 1
   5              		.eabi_attribute 28, 1
   6              		.eabi_attribute 20, 1
   7              		.eabi_attribute 21, 1
   8              		.eabi_attribute 23, 3
   9              		.eabi_attribute 24, 1
  10              		.eabi_attribute 25, 1
  11              		.eabi_attribute 26, 1
  12              		.eabi_attribute 30, 1
  13              		.eabi_attribute 34, 1
  14              		.eabi_attribute 18, 4
  15              		.file	"lv_roller.c"
  16              		.text
  17              	.Ltext0:
  18              		.cfi_sections	.debug_frame
  19              		.file 1 "Drivers/lvgl/src/widgets/roller/lv_roller.c"
  20              		.section	.text.set_y_anim,"ax",%progbits
  21              		.align	1
  22              		.syntax unified
  23              		.thumb
  24              		.thumb_func
  26              	set_y_anim:
  27              	.LVL0:
  28              	.LFB210:
   1:Drivers/lvgl/src/widgets/roller/lv_roller.c **** /**
   2:Drivers/lvgl/src/widgets/roller/lv_roller.c ****  * @file lv_roller.c
   3:Drivers/lvgl/src/widgets/roller/lv_roller.c ****  *
   4:Drivers/lvgl/src/widgets/roller/lv_roller.c ****  */
   5:Drivers/lvgl/src/widgets/roller/lv_roller.c **** 
   6:Drivers/lvgl/src/widgets/roller/lv_roller.c **** /*********************
   7:Drivers/lvgl/src/widgets/roller/lv_roller.c ****  *      INCLUDES
   8:Drivers/lvgl/src/widgets/roller/lv_roller.c ****  *********************/
   9:Drivers/lvgl/src/widgets/roller/lv_roller.c **** #include "lv_roller_private.h"
  10:Drivers/lvgl/src/widgets/roller/lv_roller.c **** #include "../label/lv_label_private.h"
  11:Drivers/lvgl/src/widgets/roller/lv_roller.c **** #include "../../misc/lv_area_private.h"
  12:Drivers/lvgl/src/widgets/roller/lv_roller.c **** #include "../../misc/lv_anim_private.h"
  13:Drivers/lvgl/src/widgets/roller/lv_roller.c **** #include "../../core/lv_obj_private.h"
  14:Drivers/lvgl/src/widgets/roller/lv_roller.c **** #include "../../core/lv_obj_class_private.h"
  15:Drivers/lvgl/src/widgets/roller/lv_roller.c **** #if LV_USE_ROLLER != 0
  16:Drivers/lvgl/src/widgets/roller/lv_roller.c **** 
  17:Drivers/lvgl/src/widgets/roller/lv_roller.c **** #include "../../misc/lv_assert.h"
  18:Drivers/lvgl/src/widgets/roller/lv_roller.c **** #include "../../misc/lv_text_private.h"
  19:Drivers/lvgl/src/widgets/roller/lv_roller.c **** #include "../../draw/lv_draw_private.h"
  20:Drivers/lvgl/src/widgets/roller/lv_roller.c **** #include "../../core/lv_group.h"
  21:Drivers/lvgl/src/widgets/roller/lv_roller.c **** #include "../../indev/lv_indev.h"
  22:Drivers/lvgl/src/widgets/roller/lv_roller.c **** #include "../../indev/lv_indev_scroll.h"
  23:Drivers/lvgl/src/widgets/roller/lv_roller.c **** #include "../../indev/lv_indev_private.h"
  24:Drivers/lvgl/src/widgets/roller/lv_roller.c **** #include "../../stdlib/lv_string.h"
  25:Drivers/lvgl/src/widgets/roller/lv_roller.c **** 
  26:Drivers/lvgl/src/widgets/roller/lv_roller.c **** /*********************
  27:Drivers/lvgl/src/widgets/roller/lv_roller.c ****  *      DEFINES
  28:Drivers/lvgl/src/widgets/roller/lv_roller.c ****  *********************/
  29:Drivers/lvgl/src/widgets/roller/lv_roller.c **** #define MY_CLASS (&lv_roller_class)
  30:Drivers/lvgl/src/widgets/roller/lv_roller.c **** #define MY_CLASS_LABEL &lv_roller_label_class
ARM GAS  /tmp/ccOwYixx.s 			page 2


  31:Drivers/lvgl/src/widgets/roller/lv_roller.c **** #define EXTRA_INF_SIZE      1000 /*[px]: add the options multiple times until getting this height*/
  32:Drivers/lvgl/src/widgets/roller/lv_roller.c **** 
  33:Drivers/lvgl/src/widgets/roller/lv_roller.c **** /**********************
  34:Drivers/lvgl/src/widgets/roller/lv_roller.c ****  *      TYPEDEFS
  35:Drivers/lvgl/src/widgets/roller/lv_roller.c ****  **********************/
  36:Drivers/lvgl/src/widgets/roller/lv_roller.c **** 
  37:Drivers/lvgl/src/widgets/roller/lv_roller.c **** /**********************
  38:Drivers/lvgl/src/widgets/roller/lv_roller.c ****  *  STATIC PROTOTYPES
  39:Drivers/lvgl/src/widgets/roller/lv_roller.c ****  **********************/
  40:Drivers/lvgl/src/widgets/roller/lv_roller.c **** static void lv_roller_constructor(const lv_obj_class_t * class_p, lv_obj_t * obj);
  41:Drivers/lvgl/src/widgets/roller/lv_roller.c **** static void lv_roller_event(const lv_obj_class_t * class_p, lv_event_t * e);
  42:Drivers/lvgl/src/widgets/roller/lv_roller.c **** static void lv_roller_label_event(const lv_obj_class_t * class_p, lv_event_t * e);
  43:Drivers/lvgl/src/widgets/roller/lv_roller.c **** static void draw_main(lv_event_t * e);
  44:Drivers/lvgl/src/widgets/roller/lv_roller.c **** static void draw_label(lv_event_t * e);
  45:Drivers/lvgl/src/widgets/roller/lv_roller.c **** static void get_sel_area(lv_obj_t * obj, lv_area_t * sel_area);
  46:Drivers/lvgl/src/widgets/roller/lv_roller.c **** static void refr_position(lv_obj_t * obj, lv_anim_enable_t animen);
  47:Drivers/lvgl/src/widgets/roller/lv_roller.c **** static lv_result_t release_handler(lv_obj_t * obj);
  48:Drivers/lvgl/src/widgets/roller/lv_roller.c **** static void inf_normalize(lv_obj_t * obj_scrl);
  49:Drivers/lvgl/src/widgets/roller/lv_roller.c **** static lv_obj_t * get_label(const lv_obj_t * obj);
  50:Drivers/lvgl/src/widgets/roller/lv_roller.c **** static int32_t get_selected_label_width(const lv_obj_t * obj);
  51:Drivers/lvgl/src/widgets/roller/lv_roller.c **** static void scroll_anim_completed_cb(lv_anim_t * a);
  52:Drivers/lvgl/src/widgets/roller/lv_roller.c **** static void set_y_anim(void * obj, int32_t v);
  53:Drivers/lvgl/src/widgets/roller/lv_roller.c **** static void transform_vect_recursive(lv_obj_t * roller, lv_point_t * vect);
  54:Drivers/lvgl/src/widgets/roller/lv_roller.c **** 
  55:Drivers/lvgl/src/widgets/roller/lv_roller.c **** /**********************
  56:Drivers/lvgl/src/widgets/roller/lv_roller.c ****  *  STATIC VARIABLES
  57:Drivers/lvgl/src/widgets/roller/lv_roller.c ****  **********************/
  58:Drivers/lvgl/src/widgets/roller/lv_roller.c **** #if LV_USE_OBJ_PROPERTY
  59:Drivers/lvgl/src/widgets/roller/lv_roller.c **** static const lv_property_ops_t properties[] = {
  60:Drivers/lvgl/src/widgets/roller/lv_roller.c ****     {
  61:Drivers/lvgl/src/widgets/roller/lv_roller.c ****         .id = LV_PROPERTY_ROLLER_OPTIONS,
  62:Drivers/lvgl/src/widgets/roller/lv_roller.c ****         .setter = lv_roller_set_options,
  63:Drivers/lvgl/src/widgets/roller/lv_roller.c ****         .getter = lv_roller_get_options,
  64:Drivers/lvgl/src/widgets/roller/lv_roller.c ****     },
  65:Drivers/lvgl/src/widgets/roller/lv_roller.c ****     {
  66:Drivers/lvgl/src/widgets/roller/lv_roller.c ****         .id = LV_PROPERTY_ROLLER_SELECTED,
  67:Drivers/lvgl/src/widgets/roller/lv_roller.c ****         .setter = lv_roller_set_selected,
  68:Drivers/lvgl/src/widgets/roller/lv_roller.c ****         .getter = lv_roller_get_selected,
  69:Drivers/lvgl/src/widgets/roller/lv_roller.c ****     },
  70:Drivers/lvgl/src/widgets/roller/lv_roller.c ****     {
  71:Drivers/lvgl/src/widgets/roller/lv_roller.c ****         .id = LV_PROPERTY_ROLLER_VISIBLE_ROW_COUNT,
  72:Drivers/lvgl/src/widgets/roller/lv_roller.c ****         .setter = lv_roller_set_visible_row_count,
  73:Drivers/lvgl/src/widgets/roller/lv_roller.c ****         .getter = NULL,
  74:Drivers/lvgl/src/widgets/roller/lv_roller.c ****     },
  75:Drivers/lvgl/src/widgets/roller/lv_roller.c **** };
  76:Drivers/lvgl/src/widgets/roller/lv_roller.c **** #endif
  77:Drivers/lvgl/src/widgets/roller/lv_roller.c **** 
  78:Drivers/lvgl/src/widgets/roller/lv_roller.c **** const lv_obj_class_t lv_roller_class = {
  79:Drivers/lvgl/src/widgets/roller/lv_roller.c ****     .constructor_cb = lv_roller_constructor,
  80:Drivers/lvgl/src/widgets/roller/lv_roller.c ****     .event_cb = lv_roller_event,
  81:Drivers/lvgl/src/widgets/roller/lv_roller.c ****     .width_def = LV_SIZE_CONTENT,
  82:Drivers/lvgl/src/widgets/roller/lv_roller.c ****     .height_def = LV_DPI_DEF,
  83:Drivers/lvgl/src/widgets/roller/lv_roller.c ****     .instance_size = sizeof(lv_roller_t),
  84:Drivers/lvgl/src/widgets/roller/lv_roller.c ****     .editable = LV_OBJ_CLASS_EDITABLE_TRUE,
  85:Drivers/lvgl/src/widgets/roller/lv_roller.c ****     .group_def = LV_OBJ_CLASS_GROUP_DEF_TRUE,
  86:Drivers/lvgl/src/widgets/roller/lv_roller.c ****     .base_class = &lv_obj_class,
  87:Drivers/lvgl/src/widgets/roller/lv_roller.c ****     .name = "lv_roller",
ARM GAS  /tmp/ccOwYixx.s 			page 3


  88:Drivers/lvgl/src/widgets/roller/lv_roller.c **** #if LV_USE_OBJ_PROPERTY
  89:Drivers/lvgl/src/widgets/roller/lv_roller.c ****     .prop_index_start = LV_PROPERTY_ROLLER_START,
  90:Drivers/lvgl/src/widgets/roller/lv_roller.c ****     .prop_index_end = LV_PROPERTY_ROLLER_END,
  91:Drivers/lvgl/src/widgets/roller/lv_roller.c ****     .properties = properties,
  92:Drivers/lvgl/src/widgets/roller/lv_roller.c ****     .properties_count = sizeof(properties) / sizeof(properties[0]),
  93:Drivers/lvgl/src/widgets/roller/lv_roller.c **** 
  94:Drivers/lvgl/src/widgets/roller/lv_roller.c **** #if LV_USE_OBJ_PROPERTY_NAME
  95:Drivers/lvgl/src/widgets/roller/lv_roller.c ****     .property_names = lv_roller_property_names,
  96:Drivers/lvgl/src/widgets/roller/lv_roller.c ****     .names_count = sizeof(lv_roller_property_names) / sizeof(lv_property_name_t),
  97:Drivers/lvgl/src/widgets/roller/lv_roller.c **** #endif
  98:Drivers/lvgl/src/widgets/roller/lv_roller.c **** #endif
  99:Drivers/lvgl/src/widgets/roller/lv_roller.c **** };
 100:Drivers/lvgl/src/widgets/roller/lv_roller.c **** 
 101:Drivers/lvgl/src/widgets/roller/lv_roller.c **** const lv_obj_class_t lv_roller_label_class  = {
 102:Drivers/lvgl/src/widgets/roller/lv_roller.c ****     .event_cb = lv_roller_label_event,
 103:Drivers/lvgl/src/widgets/roller/lv_roller.c ****     .instance_size = sizeof(lv_label_t),
 104:Drivers/lvgl/src/widgets/roller/lv_roller.c ****     .base_class = &lv_label_class,
 105:Drivers/lvgl/src/widgets/roller/lv_roller.c ****     .name = "lv_roller_label",
 106:Drivers/lvgl/src/widgets/roller/lv_roller.c **** };
 107:Drivers/lvgl/src/widgets/roller/lv_roller.c **** 
 108:Drivers/lvgl/src/widgets/roller/lv_roller.c **** /**********************
 109:Drivers/lvgl/src/widgets/roller/lv_roller.c ****  *      MACROS
 110:Drivers/lvgl/src/widgets/roller/lv_roller.c ****  **********************/
 111:Drivers/lvgl/src/widgets/roller/lv_roller.c **** 
 112:Drivers/lvgl/src/widgets/roller/lv_roller.c **** /**********************
 113:Drivers/lvgl/src/widgets/roller/lv_roller.c ****  *   GLOBAL FUNCTIONS
 114:Drivers/lvgl/src/widgets/roller/lv_roller.c ****  **********************/
 115:Drivers/lvgl/src/widgets/roller/lv_roller.c **** 
 116:Drivers/lvgl/src/widgets/roller/lv_roller.c **** lv_obj_t * lv_roller_create(lv_obj_t * parent)
 117:Drivers/lvgl/src/widgets/roller/lv_roller.c **** {
 118:Drivers/lvgl/src/widgets/roller/lv_roller.c ****     LV_LOG_INFO("begin");
 119:Drivers/lvgl/src/widgets/roller/lv_roller.c ****     lv_obj_t * obj = lv_obj_class_create_obj(MY_CLASS, parent);
 120:Drivers/lvgl/src/widgets/roller/lv_roller.c ****     lv_obj_class_init_obj(obj);
 121:Drivers/lvgl/src/widgets/roller/lv_roller.c ****     return obj;
 122:Drivers/lvgl/src/widgets/roller/lv_roller.c **** }
 123:Drivers/lvgl/src/widgets/roller/lv_roller.c **** 
 124:Drivers/lvgl/src/widgets/roller/lv_roller.c **** /*=====================
 125:Drivers/lvgl/src/widgets/roller/lv_roller.c ****  * Setter functions
 126:Drivers/lvgl/src/widgets/roller/lv_roller.c ****  *====================*/
 127:Drivers/lvgl/src/widgets/roller/lv_roller.c **** 
 128:Drivers/lvgl/src/widgets/roller/lv_roller.c **** void lv_roller_set_options(lv_obj_t * obj, const char * options, lv_roller_mode_t mode)
 129:Drivers/lvgl/src/widgets/roller/lv_roller.c **** {
 130:Drivers/lvgl/src/widgets/roller/lv_roller.c ****     LV_ASSERT_OBJ(obj, MY_CLASS);
 131:Drivers/lvgl/src/widgets/roller/lv_roller.c ****     LV_ASSERT_NULL(options);
 132:Drivers/lvgl/src/widgets/roller/lv_roller.c **** 
 133:Drivers/lvgl/src/widgets/roller/lv_roller.c ****     lv_roller_t * roller = (lv_roller_t *)obj;
 134:Drivers/lvgl/src/widgets/roller/lv_roller.c ****     lv_obj_t * label = get_label(obj);
 135:Drivers/lvgl/src/widgets/roller/lv_roller.c **** 
 136:Drivers/lvgl/src/widgets/roller/lv_roller.c ****     roller->sel_opt_id     = 0;
 137:Drivers/lvgl/src/widgets/roller/lv_roller.c ****     roller->sel_opt_id_ori = 0;
 138:Drivers/lvgl/src/widgets/roller/lv_roller.c **** 
 139:Drivers/lvgl/src/widgets/roller/lv_roller.c ****     /*Count the '\n'-s to determine the number of options*/
 140:Drivers/lvgl/src/widgets/roller/lv_roller.c ****     roller->option_cnt = 0;
 141:Drivers/lvgl/src/widgets/roller/lv_roller.c ****     uint32_t cnt;
 142:Drivers/lvgl/src/widgets/roller/lv_roller.c ****     for(cnt = 0; options[cnt] != '\0'; cnt++) {
 143:Drivers/lvgl/src/widgets/roller/lv_roller.c ****         if(options[cnt] == '\n') roller->option_cnt++;
 144:Drivers/lvgl/src/widgets/roller/lv_roller.c ****     }
ARM GAS  /tmp/ccOwYixx.s 			page 4


 145:Drivers/lvgl/src/widgets/roller/lv_roller.c ****     roller->option_cnt++; /*Last option has no `\n`*/
 146:Drivers/lvgl/src/widgets/roller/lv_roller.c **** 
 147:Drivers/lvgl/src/widgets/roller/lv_roller.c ****     if(mode == LV_ROLLER_MODE_NORMAL) {
 148:Drivers/lvgl/src/widgets/roller/lv_roller.c ****         roller->mode = LV_ROLLER_MODE_NORMAL;
 149:Drivers/lvgl/src/widgets/roller/lv_roller.c ****         lv_label_set_text(label, options);
 150:Drivers/lvgl/src/widgets/roller/lv_roller.c ****     }
 151:Drivers/lvgl/src/widgets/roller/lv_roller.c ****     else {
 152:Drivers/lvgl/src/widgets/roller/lv_roller.c ****         roller->mode = LV_ROLLER_MODE_INFINITE;
 153:Drivers/lvgl/src/widgets/roller/lv_roller.c **** 
 154:Drivers/lvgl/src/widgets/roller/lv_roller.c ****         const lv_font_t * font = lv_obj_get_style_text_font(obj, 0);
 155:Drivers/lvgl/src/widgets/roller/lv_roller.c ****         int32_t normal_h = roller->option_cnt * (lv_font_get_line_height(font) + lv_obj_get_style_t
 156:Drivers/lvgl/src/widgets/roller/lv_roller.c ****         roller->inf_page_cnt = LV_CLAMP(3, EXTRA_INF_SIZE / normal_h, 15);
 157:Drivers/lvgl/src/widgets/roller/lv_roller.c ****         if(!(roller->inf_page_cnt & 1)) roller->inf_page_cnt++;   /*Make it odd*/
 158:Drivers/lvgl/src/widgets/roller/lv_roller.c ****         LV_LOG_INFO("Using %" LV_PRIu32 " pages to make the roller look infinite", roller->inf_page
 159:Drivers/lvgl/src/widgets/roller/lv_roller.c **** 
 160:Drivers/lvgl/src/widgets/roller/lv_roller.c ****         size_t opt_len = lv_strlen(options) + 1; /*+1 to add '\n' after option lists*/
 161:Drivers/lvgl/src/widgets/roller/lv_roller.c ****         size_t opt_extra_len = opt_len * roller->inf_page_cnt;
 162:Drivers/lvgl/src/widgets/roller/lv_roller.c ****         if(opt_extra_len == 0) {
 163:Drivers/lvgl/src/widgets/roller/lv_roller.c ****             /*Prevent write overflow*/
 164:Drivers/lvgl/src/widgets/roller/lv_roller.c ****             opt_extra_len = 1;
 165:Drivers/lvgl/src/widgets/roller/lv_roller.c ****         }
 166:Drivers/lvgl/src/widgets/roller/lv_roller.c **** 
 167:Drivers/lvgl/src/widgets/roller/lv_roller.c ****         char * opt_extra = lv_malloc(opt_extra_len);
 168:Drivers/lvgl/src/widgets/roller/lv_roller.c ****         uint32_t i;
 169:Drivers/lvgl/src/widgets/roller/lv_roller.c ****         for(i = 0; i < roller->inf_page_cnt; i++) {
 170:Drivers/lvgl/src/widgets/roller/lv_roller.c ****             lv_strcpy(&opt_extra[opt_len * i], options);
 171:Drivers/lvgl/src/widgets/roller/lv_roller.c ****             opt_extra[opt_len * (i + 1) - 1] = '\n';
 172:Drivers/lvgl/src/widgets/roller/lv_roller.c ****         }
 173:Drivers/lvgl/src/widgets/roller/lv_roller.c ****         opt_extra[opt_extra_len - 1] = '\0';
 174:Drivers/lvgl/src/widgets/roller/lv_roller.c ****         lv_label_set_text(label, opt_extra);
 175:Drivers/lvgl/src/widgets/roller/lv_roller.c ****         lv_free(opt_extra);
 176:Drivers/lvgl/src/widgets/roller/lv_roller.c **** 
 177:Drivers/lvgl/src/widgets/roller/lv_roller.c ****         roller->sel_opt_id = ((roller->inf_page_cnt / 2) + 0) * roller->option_cnt;
 178:Drivers/lvgl/src/widgets/roller/lv_roller.c **** 
 179:Drivers/lvgl/src/widgets/roller/lv_roller.c ****         roller->option_cnt = roller->option_cnt * roller->inf_page_cnt;
 180:Drivers/lvgl/src/widgets/roller/lv_roller.c ****         inf_normalize(obj);
 181:Drivers/lvgl/src/widgets/roller/lv_roller.c ****     }
 182:Drivers/lvgl/src/widgets/roller/lv_roller.c **** 
 183:Drivers/lvgl/src/widgets/roller/lv_roller.c ****     roller->sel_opt_id_ori = roller->sel_opt_id;
 184:Drivers/lvgl/src/widgets/roller/lv_roller.c **** 
 185:Drivers/lvgl/src/widgets/roller/lv_roller.c ****     /*If the selected text has larger font the label needs some extra draw padding to draw it.*/
 186:Drivers/lvgl/src/widgets/roller/lv_roller.c ****     lv_obj_refresh_ext_draw_size(label);
 187:Drivers/lvgl/src/widgets/roller/lv_roller.c **** }
 188:Drivers/lvgl/src/widgets/roller/lv_roller.c **** 
 189:Drivers/lvgl/src/widgets/roller/lv_roller.c **** void lv_roller_set_selected(lv_obj_t * obj, uint32_t sel_opt, lv_anim_enable_t anim)
 190:Drivers/lvgl/src/widgets/roller/lv_roller.c **** {
 191:Drivers/lvgl/src/widgets/roller/lv_roller.c ****     LV_ASSERT_OBJ(obj, MY_CLASS);
 192:Drivers/lvgl/src/widgets/roller/lv_roller.c **** 
 193:Drivers/lvgl/src/widgets/roller/lv_roller.c ****     /*Set the value even if it's the same as the current value because
 194:Drivers/lvgl/src/widgets/roller/lv_roller.c ****      *if moving to the next option with an animation which was just deleted in the PRESS Call the a
 195:Drivers/lvgl/src/widgets/roller/lv_roller.c ****      *nothing will continue the animation.*/
 196:Drivers/lvgl/src/widgets/roller/lv_roller.c **** 
 197:Drivers/lvgl/src/widgets/roller/lv_roller.c ****     lv_roller_t * roller = (lv_roller_t *)obj;
 198:Drivers/lvgl/src/widgets/roller/lv_roller.c **** 
 199:Drivers/lvgl/src/widgets/roller/lv_roller.c ****     /*In infinite mode interpret the new ID relative to the currently visible "page"*/
 200:Drivers/lvgl/src/widgets/roller/lv_roller.c ****     if(roller->mode == LV_ROLLER_MODE_INFINITE) {
 201:Drivers/lvgl/src/widgets/roller/lv_roller.c ****         uint32_t real_option_cnt = roller->option_cnt / roller->inf_page_cnt;
ARM GAS  /tmp/ccOwYixx.s 			page 5


 202:Drivers/lvgl/src/widgets/roller/lv_roller.c ****         uint32_t current_page = roller->sel_opt_id / real_option_cnt;
 203:Drivers/lvgl/src/widgets/roller/lv_roller.c ****         /*Set by the user to e.g. 0, 1, 2, 3...
 204:Drivers/lvgl/src/widgets/roller/lv_roller.c ****          *Upscale the value to the current page*/
 205:Drivers/lvgl/src/widgets/roller/lv_roller.c ****         if(sel_opt < real_option_cnt) {
 206:Drivers/lvgl/src/widgets/roller/lv_roller.c ****             uint32_t act_opt = roller->sel_opt_id - current_page * real_option_cnt;
 207:Drivers/lvgl/src/widgets/roller/lv_roller.c ****             int32_t sel_opt_signed = sel_opt;
 208:Drivers/lvgl/src/widgets/roller/lv_roller.c ****             /*Huge jump? Probably from last to first or first to last option.*/
 209:Drivers/lvgl/src/widgets/roller/lv_roller.c ****             if((uint32_t)LV_ABS((int16_t)(act_opt - sel_opt)) > real_option_cnt / 2) {
 210:Drivers/lvgl/src/widgets/roller/lv_roller.c ****                 if(act_opt > sel_opt) sel_opt_signed += real_option_cnt;
 211:Drivers/lvgl/src/widgets/roller/lv_roller.c ****                 else sel_opt_signed -= real_option_cnt;
 212:Drivers/lvgl/src/widgets/roller/lv_roller.c ****             }
 213:Drivers/lvgl/src/widgets/roller/lv_roller.c ****             sel_opt = sel_opt_signed + real_option_cnt * current_page;
 214:Drivers/lvgl/src/widgets/roller/lv_roller.c ****         }
 215:Drivers/lvgl/src/widgets/roller/lv_roller.c ****     }
 216:Drivers/lvgl/src/widgets/roller/lv_roller.c **** 
 217:Drivers/lvgl/src/widgets/roller/lv_roller.c ****     roller->sel_opt_id     = sel_opt < roller->option_cnt ? sel_opt : roller->option_cnt - 1;
 218:Drivers/lvgl/src/widgets/roller/lv_roller.c ****     roller->sel_opt_id_ori = roller->sel_opt_id;
 219:Drivers/lvgl/src/widgets/roller/lv_roller.c **** 
 220:Drivers/lvgl/src/widgets/roller/lv_roller.c ****     refr_position(obj, anim);
 221:Drivers/lvgl/src/widgets/roller/lv_roller.c **** }
 222:Drivers/lvgl/src/widgets/roller/lv_roller.c **** 
 223:Drivers/lvgl/src/widgets/roller/lv_roller.c **** bool lv_roller_set_selected_str(lv_obj_t * obj, const char * sel_opt, lv_anim_enable_t anim)
 224:Drivers/lvgl/src/widgets/roller/lv_roller.c **** {
 225:Drivers/lvgl/src/widgets/roller/lv_roller.c ****     const char * options = lv_roller_get_options(obj);
 226:Drivers/lvgl/src/widgets/roller/lv_roller.c ****     size_t options_len = lv_strlen(options);
 227:Drivers/lvgl/src/widgets/roller/lv_roller.c **** 
 228:Drivers/lvgl/src/widgets/roller/lv_roller.c ****     bool option_found = false;
 229:Drivers/lvgl/src/widgets/roller/lv_roller.c **** 
 230:Drivers/lvgl/src/widgets/roller/lv_roller.c ****     uint32_t current_option = 0;
 231:Drivers/lvgl/src/widgets/roller/lv_roller.c ****     size_t line_start = 0;
 232:Drivers/lvgl/src/widgets/roller/lv_roller.c **** 
 233:Drivers/lvgl/src/widgets/roller/lv_roller.c ****     for(size_t i = 0; i < options_len; i++) {
 234:Drivers/lvgl/src/widgets/roller/lv_roller.c ****         if(options[i] == '\n') {
 235:Drivers/lvgl/src/widgets/roller/lv_roller.c ****             /* See if this is the correct option */
 236:Drivers/lvgl/src/widgets/roller/lv_roller.c ****             if(lv_strncmp(&options[line_start], sel_opt, i - line_start) == 0) {
 237:Drivers/lvgl/src/widgets/roller/lv_roller.c ****                 lv_roller_set_selected(obj, current_option, anim);
 238:Drivers/lvgl/src/widgets/roller/lv_roller.c ****                 option_found = true;
 239:Drivers/lvgl/src/widgets/roller/lv_roller.c ****                 break;
 240:Drivers/lvgl/src/widgets/roller/lv_roller.c ****             }
 241:Drivers/lvgl/src/widgets/roller/lv_roller.c **** 
 242:Drivers/lvgl/src/widgets/roller/lv_roller.c ****             current_option++;
 243:Drivers/lvgl/src/widgets/roller/lv_roller.c ****             line_start = i + 1;
 244:Drivers/lvgl/src/widgets/roller/lv_roller.c ****         }
 245:Drivers/lvgl/src/widgets/roller/lv_roller.c ****     }
 246:Drivers/lvgl/src/widgets/roller/lv_roller.c **** 
 247:Drivers/lvgl/src/widgets/roller/lv_roller.c ****     return option_found;
 248:Drivers/lvgl/src/widgets/roller/lv_roller.c **** }
 249:Drivers/lvgl/src/widgets/roller/lv_roller.c **** 
 250:Drivers/lvgl/src/widgets/roller/lv_roller.c **** void lv_roller_set_visible_row_count(lv_obj_t * obj, uint32_t row_cnt)
 251:Drivers/lvgl/src/widgets/roller/lv_roller.c **** {
 252:Drivers/lvgl/src/widgets/roller/lv_roller.c ****     LV_ASSERT_OBJ(obj, MY_CLASS);
 253:Drivers/lvgl/src/widgets/roller/lv_roller.c **** 
 254:Drivers/lvgl/src/widgets/roller/lv_roller.c ****     const lv_font_t * font = lv_obj_get_style_text_font(obj, LV_PART_MAIN);
 255:Drivers/lvgl/src/widgets/roller/lv_roller.c ****     int32_t line_space = lv_obj_get_style_text_line_space(obj, LV_PART_MAIN);
 256:Drivers/lvgl/src/widgets/roller/lv_roller.c ****     int32_t border_width = lv_obj_get_style_border_width(obj, LV_PART_MAIN);
 257:Drivers/lvgl/src/widgets/roller/lv_roller.c ****     lv_obj_set_height(obj, (lv_font_get_line_height(font) + line_space) * row_cnt + 2 * border_widt
 258:Drivers/lvgl/src/widgets/roller/lv_roller.c **** }
ARM GAS  /tmp/ccOwYixx.s 			page 6


 259:Drivers/lvgl/src/widgets/roller/lv_roller.c **** 
 260:Drivers/lvgl/src/widgets/roller/lv_roller.c **** /*=====================
 261:Drivers/lvgl/src/widgets/roller/lv_roller.c ****  * Getter functions
 262:Drivers/lvgl/src/widgets/roller/lv_roller.c ****  *====================*/
 263:Drivers/lvgl/src/widgets/roller/lv_roller.c **** 
 264:Drivers/lvgl/src/widgets/roller/lv_roller.c **** uint32_t lv_roller_get_selected(const lv_obj_t * obj)
 265:Drivers/lvgl/src/widgets/roller/lv_roller.c **** {
 266:Drivers/lvgl/src/widgets/roller/lv_roller.c ****     LV_ASSERT_OBJ(obj, MY_CLASS);
 267:Drivers/lvgl/src/widgets/roller/lv_roller.c **** 
 268:Drivers/lvgl/src/widgets/roller/lv_roller.c ****     lv_roller_t * roller = (lv_roller_t *)obj;
 269:Drivers/lvgl/src/widgets/roller/lv_roller.c ****     if(roller->mode == LV_ROLLER_MODE_INFINITE) {
 270:Drivers/lvgl/src/widgets/roller/lv_roller.c ****         uint32_t real_id_cnt = roller->option_cnt / roller->inf_page_cnt;
 271:Drivers/lvgl/src/widgets/roller/lv_roller.c ****         return roller->sel_opt_id % real_id_cnt;
 272:Drivers/lvgl/src/widgets/roller/lv_roller.c ****     }
 273:Drivers/lvgl/src/widgets/roller/lv_roller.c ****     else {
 274:Drivers/lvgl/src/widgets/roller/lv_roller.c ****         return roller->sel_opt_id;
 275:Drivers/lvgl/src/widgets/roller/lv_roller.c ****     }
 276:Drivers/lvgl/src/widgets/roller/lv_roller.c **** }
 277:Drivers/lvgl/src/widgets/roller/lv_roller.c **** 
 278:Drivers/lvgl/src/widgets/roller/lv_roller.c **** void lv_roller_get_selected_str(const lv_obj_t * obj, char * buf, uint32_t buf_size)
 279:Drivers/lvgl/src/widgets/roller/lv_roller.c **** {
 280:Drivers/lvgl/src/widgets/roller/lv_roller.c ****     LV_ASSERT_OBJ(obj, MY_CLASS);
 281:Drivers/lvgl/src/widgets/roller/lv_roller.c **** 
 282:Drivers/lvgl/src/widgets/roller/lv_roller.c ****     lv_roller_t * roller = (lv_roller_t *)obj;
 283:Drivers/lvgl/src/widgets/roller/lv_roller.c ****     lv_obj_t * label = get_label(obj);
 284:Drivers/lvgl/src/widgets/roller/lv_roller.c ****     uint32_t i;
 285:Drivers/lvgl/src/widgets/roller/lv_roller.c ****     uint32_t line        = 0;
 286:Drivers/lvgl/src/widgets/roller/lv_roller.c ****     const char * opt_txt = lv_label_get_text(label);
 287:Drivers/lvgl/src/widgets/roller/lv_roller.c ****     size_t txt_len     = lv_strlen(opt_txt);
 288:Drivers/lvgl/src/widgets/roller/lv_roller.c **** 
 289:Drivers/lvgl/src/widgets/roller/lv_roller.c ****     for(i = 0; i < txt_len && line != roller->sel_opt_id; i++) {
 290:Drivers/lvgl/src/widgets/roller/lv_roller.c ****         if(opt_txt[i] == '\n') line++;
 291:Drivers/lvgl/src/widgets/roller/lv_roller.c ****     }
 292:Drivers/lvgl/src/widgets/roller/lv_roller.c **** 
 293:Drivers/lvgl/src/widgets/roller/lv_roller.c ****     uint32_t c;
 294:Drivers/lvgl/src/widgets/roller/lv_roller.c ****     for(c = 0; i < txt_len && opt_txt[i] != '\n'; c++, i++) {
 295:Drivers/lvgl/src/widgets/roller/lv_roller.c ****         if(buf_size && c >= buf_size - 1) {
 296:Drivers/lvgl/src/widgets/roller/lv_roller.c ****             LV_LOG_WARN("the buffer was too small");
 297:Drivers/lvgl/src/widgets/roller/lv_roller.c ****             break;
 298:Drivers/lvgl/src/widgets/roller/lv_roller.c ****         }
 299:Drivers/lvgl/src/widgets/roller/lv_roller.c ****         buf[c] = opt_txt[i];
 300:Drivers/lvgl/src/widgets/roller/lv_roller.c ****     }
 301:Drivers/lvgl/src/widgets/roller/lv_roller.c **** 
 302:Drivers/lvgl/src/widgets/roller/lv_roller.c ****     buf[c] = '\0';
 303:Drivers/lvgl/src/widgets/roller/lv_roller.c **** }
 304:Drivers/lvgl/src/widgets/roller/lv_roller.c **** 
 305:Drivers/lvgl/src/widgets/roller/lv_roller.c **** /**
 306:Drivers/lvgl/src/widgets/roller/lv_roller.c ****  * Get the options of a roller
 307:Drivers/lvgl/src/widgets/roller/lv_roller.c ****  * @param roller pointer to roller object
 308:Drivers/lvgl/src/widgets/roller/lv_roller.c ****  * @return the options separated by '\n'-s (E.g. "Option1\nOption2\nOption3")
 309:Drivers/lvgl/src/widgets/roller/lv_roller.c ****  */
 310:Drivers/lvgl/src/widgets/roller/lv_roller.c **** const char * lv_roller_get_options(const lv_obj_t * obj)
 311:Drivers/lvgl/src/widgets/roller/lv_roller.c **** {
 312:Drivers/lvgl/src/widgets/roller/lv_roller.c ****     LV_ASSERT_OBJ(obj, MY_CLASS);
 313:Drivers/lvgl/src/widgets/roller/lv_roller.c **** 
 314:Drivers/lvgl/src/widgets/roller/lv_roller.c ****     return lv_label_get_text(get_label(obj));
 315:Drivers/lvgl/src/widgets/roller/lv_roller.c **** }
ARM GAS  /tmp/ccOwYixx.s 			page 7


 316:Drivers/lvgl/src/widgets/roller/lv_roller.c **** 
 317:Drivers/lvgl/src/widgets/roller/lv_roller.c **** uint32_t lv_roller_get_option_count(const lv_obj_t * obj)
 318:Drivers/lvgl/src/widgets/roller/lv_roller.c **** {
 319:Drivers/lvgl/src/widgets/roller/lv_roller.c ****     LV_ASSERT_OBJ(obj, MY_CLASS);
 320:Drivers/lvgl/src/widgets/roller/lv_roller.c **** 
 321:Drivers/lvgl/src/widgets/roller/lv_roller.c ****     lv_roller_t * roller = (lv_roller_t *)obj;
 322:Drivers/lvgl/src/widgets/roller/lv_roller.c ****     if(roller->mode == LV_ROLLER_MODE_INFINITE) {
 323:Drivers/lvgl/src/widgets/roller/lv_roller.c ****         return roller->option_cnt / roller->inf_page_cnt;
 324:Drivers/lvgl/src/widgets/roller/lv_roller.c ****     }
 325:Drivers/lvgl/src/widgets/roller/lv_roller.c ****     else {
 326:Drivers/lvgl/src/widgets/roller/lv_roller.c ****         return roller->option_cnt;
 327:Drivers/lvgl/src/widgets/roller/lv_roller.c ****     }
 328:Drivers/lvgl/src/widgets/roller/lv_roller.c **** }
 329:Drivers/lvgl/src/widgets/roller/lv_roller.c **** 
 330:Drivers/lvgl/src/widgets/roller/lv_roller.c **** /**********************
 331:Drivers/lvgl/src/widgets/roller/lv_roller.c ****  *   STATIC FUNCTIONS
 332:Drivers/lvgl/src/widgets/roller/lv_roller.c ****  **********************/
 333:Drivers/lvgl/src/widgets/roller/lv_roller.c **** 
 334:Drivers/lvgl/src/widgets/roller/lv_roller.c **** static void lv_roller_constructor(const lv_obj_class_t * class_p, lv_obj_t * obj)
 335:Drivers/lvgl/src/widgets/roller/lv_roller.c **** {
 336:Drivers/lvgl/src/widgets/roller/lv_roller.c ****     LV_UNUSED(class_p);
 337:Drivers/lvgl/src/widgets/roller/lv_roller.c ****     lv_roller_t * roller = (lv_roller_t *)obj;
 338:Drivers/lvgl/src/widgets/roller/lv_roller.c **** 
 339:Drivers/lvgl/src/widgets/roller/lv_roller.c ****     roller->mode = LV_ROLLER_MODE_NORMAL;
 340:Drivers/lvgl/src/widgets/roller/lv_roller.c ****     roller->option_cnt = 0;
 341:Drivers/lvgl/src/widgets/roller/lv_roller.c ****     roller->sel_opt_id = 0;
 342:Drivers/lvgl/src/widgets/roller/lv_roller.c ****     roller->sel_opt_id_ori = 0;
 343:Drivers/lvgl/src/widgets/roller/lv_roller.c **** 
 344:Drivers/lvgl/src/widgets/roller/lv_roller.c ****     lv_obj_remove_flag(obj, LV_OBJ_FLAG_SCROLLABLE);
 345:Drivers/lvgl/src/widgets/roller/lv_roller.c ****     lv_obj_remove_flag(obj, LV_OBJ_FLAG_SCROLL_CHAIN_VER);
 346:Drivers/lvgl/src/widgets/roller/lv_roller.c **** 
 347:Drivers/lvgl/src/widgets/roller/lv_roller.c ****     LV_LOG_INFO("begin");
 348:Drivers/lvgl/src/widgets/roller/lv_roller.c ****     lv_obj_t * label = lv_obj_class_create_obj(&lv_roller_label_class, obj);
 349:Drivers/lvgl/src/widgets/roller/lv_roller.c ****     lv_obj_class_init_obj(label);
 350:Drivers/lvgl/src/widgets/roller/lv_roller.c **** #if LV_WIDGETS_HAS_DEFAULT_VALUE
 351:Drivers/lvgl/src/widgets/roller/lv_roller.c ****     lv_roller_set_options(obj, "Option 1\nOption 2\nOption 3\nOption 4\nOption 5", LV_ROLLER_MODE_N
 352:Drivers/lvgl/src/widgets/roller/lv_roller.c **** #endif
 353:Drivers/lvgl/src/widgets/roller/lv_roller.c ****     LV_LOG_TRACE("finished");
 354:Drivers/lvgl/src/widgets/roller/lv_roller.c **** }
 355:Drivers/lvgl/src/widgets/roller/lv_roller.c **** 
 356:Drivers/lvgl/src/widgets/roller/lv_roller.c **** static void lv_roller_event(const lv_obj_class_t * class_p, lv_event_t * e)
 357:Drivers/lvgl/src/widgets/roller/lv_roller.c **** {
 358:Drivers/lvgl/src/widgets/roller/lv_roller.c ****     LV_UNUSED(class_p);
 359:Drivers/lvgl/src/widgets/roller/lv_roller.c **** 
 360:Drivers/lvgl/src/widgets/roller/lv_roller.c ****     lv_result_t res;
 361:Drivers/lvgl/src/widgets/roller/lv_roller.c **** 
 362:Drivers/lvgl/src/widgets/roller/lv_roller.c ****     /*Call the ancestor's event handler*/
 363:Drivers/lvgl/src/widgets/roller/lv_roller.c ****     res = lv_obj_event_base(MY_CLASS, e);
 364:Drivers/lvgl/src/widgets/roller/lv_roller.c ****     if(res != LV_RESULT_OK) return;
 365:Drivers/lvgl/src/widgets/roller/lv_roller.c **** 
 366:Drivers/lvgl/src/widgets/roller/lv_roller.c ****     const lv_event_code_t code = lv_event_get_code(e);
 367:Drivers/lvgl/src/widgets/roller/lv_roller.c ****     lv_obj_t * obj = lv_event_get_current_target(e);
 368:Drivers/lvgl/src/widgets/roller/lv_roller.c ****     lv_roller_t * roller = (lv_roller_t *)obj;
 369:Drivers/lvgl/src/widgets/roller/lv_roller.c **** 
 370:Drivers/lvgl/src/widgets/roller/lv_roller.c ****     if(code == LV_EVENT_GET_SELF_SIZE) {
 371:Drivers/lvgl/src/widgets/roller/lv_roller.c ****         lv_point_t * p = lv_event_get_param(e);
 372:Drivers/lvgl/src/widgets/roller/lv_roller.c ****         p->x = get_selected_label_width(obj);
ARM GAS  /tmp/ccOwYixx.s 			page 8


 373:Drivers/lvgl/src/widgets/roller/lv_roller.c ****     }
 374:Drivers/lvgl/src/widgets/roller/lv_roller.c ****     else if(code == LV_EVENT_STYLE_CHANGED) {
 375:Drivers/lvgl/src/widgets/roller/lv_roller.c ****         lv_obj_t * label = get_label(obj);
 376:Drivers/lvgl/src/widgets/roller/lv_roller.c ****         /*Be sure the label's style is updated before processing the roller*/
 377:Drivers/lvgl/src/widgets/roller/lv_roller.c ****         if(label) lv_obj_send_event(label, LV_EVENT_STYLE_CHANGED, NULL);
 378:Drivers/lvgl/src/widgets/roller/lv_roller.c ****         lv_obj_refresh_self_size(obj);
 379:Drivers/lvgl/src/widgets/roller/lv_roller.c ****         refr_position(obj, LV_ANIM_OFF);
 380:Drivers/lvgl/src/widgets/roller/lv_roller.c ****     }
 381:Drivers/lvgl/src/widgets/roller/lv_roller.c ****     else if(code == LV_EVENT_SIZE_CHANGED) {
 382:Drivers/lvgl/src/widgets/roller/lv_roller.c ****         refr_position(obj, LV_ANIM_OFF);
 383:Drivers/lvgl/src/widgets/roller/lv_roller.c ****     }
 384:Drivers/lvgl/src/widgets/roller/lv_roller.c ****     else if(code == LV_EVENT_PRESSED) {
 385:Drivers/lvgl/src/widgets/roller/lv_roller.c ****         if(roller->option_cnt <= 1) return;
 386:Drivers/lvgl/src/widgets/roller/lv_roller.c **** 
 387:Drivers/lvgl/src/widgets/roller/lv_roller.c ****         roller->moved = 0;
 388:Drivers/lvgl/src/widgets/roller/lv_roller.c ****         lv_anim_delete(get_label(obj), set_y_anim);
 389:Drivers/lvgl/src/widgets/roller/lv_roller.c ****     }
 390:Drivers/lvgl/src/widgets/roller/lv_roller.c ****     else if(code == LV_EVENT_PRESSING) {
 391:Drivers/lvgl/src/widgets/roller/lv_roller.c ****         if(roller->option_cnt <= 1) return;
 392:Drivers/lvgl/src/widgets/roller/lv_roller.c **** 
 393:Drivers/lvgl/src/widgets/roller/lv_roller.c ****         lv_indev_t * indev = lv_indev_active();
 394:Drivers/lvgl/src/widgets/roller/lv_roller.c ****         lv_point_t p;
 395:Drivers/lvgl/src/widgets/roller/lv_roller.c ****         lv_indev_get_vect(indev, &p);
 396:Drivers/lvgl/src/widgets/roller/lv_roller.c ****         transform_vect_recursive(obj, &p);
 397:Drivers/lvgl/src/widgets/roller/lv_roller.c ****         if(p.y) {
 398:Drivers/lvgl/src/widgets/roller/lv_roller.c ****             lv_obj_t * label = get_label(obj);
 399:Drivers/lvgl/src/widgets/roller/lv_roller.c ****             lv_obj_set_y(label, lv_obj_get_y_aligned(label) + p.y);
 400:Drivers/lvgl/src/widgets/roller/lv_roller.c ****             roller->moved = 1;
 401:Drivers/lvgl/src/widgets/roller/lv_roller.c ****         }
 402:Drivers/lvgl/src/widgets/roller/lv_roller.c ****     }
 403:Drivers/lvgl/src/widgets/roller/lv_roller.c ****     else if(code == LV_EVENT_RELEASED || code == LV_EVENT_PRESS_LOST) {
 404:Drivers/lvgl/src/widgets/roller/lv_roller.c ****         if(roller->option_cnt <= 1) return;
 405:Drivers/lvgl/src/widgets/roller/lv_roller.c **** 
 406:Drivers/lvgl/src/widgets/roller/lv_roller.c ****         release_handler(obj);
 407:Drivers/lvgl/src/widgets/roller/lv_roller.c ****     }
 408:Drivers/lvgl/src/widgets/roller/lv_roller.c ****     else if(code == LV_EVENT_FOCUSED) {
 409:Drivers/lvgl/src/widgets/roller/lv_roller.c ****         lv_group_t * g             = lv_obj_get_group(obj);
 410:Drivers/lvgl/src/widgets/roller/lv_roller.c ****         lv_indev_type_t indev_type = lv_indev_get_type(lv_indev_active());
 411:Drivers/lvgl/src/widgets/roller/lv_roller.c **** 
 412:Drivers/lvgl/src/widgets/roller/lv_roller.c ****         /*Encoders need special handling*/
 413:Drivers/lvgl/src/widgets/roller/lv_roller.c ****         if(indev_type == LV_INDEV_TYPE_ENCODER) {
 414:Drivers/lvgl/src/widgets/roller/lv_roller.c ****             const bool editing = lv_group_get_editing(g);
 415:Drivers/lvgl/src/widgets/roller/lv_roller.c **** 
 416:Drivers/lvgl/src/widgets/roller/lv_roller.c ****             /*Save the current state when entered to edit mode*/
 417:Drivers/lvgl/src/widgets/roller/lv_roller.c ****             if(editing) {
 418:Drivers/lvgl/src/widgets/roller/lv_roller.c ****                 roller->sel_opt_id_ori = roller->sel_opt_id;
 419:Drivers/lvgl/src/widgets/roller/lv_roller.c ****             }
 420:Drivers/lvgl/src/widgets/roller/lv_roller.c ****             else { /*In navigate mode revert the original value*/
 421:Drivers/lvgl/src/widgets/roller/lv_roller.c ****                 if(roller->sel_opt_id != roller->sel_opt_id_ori) {
 422:Drivers/lvgl/src/widgets/roller/lv_roller.c ****                     roller->sel_opt_id = roller->sel_opt_id_ori;
 423:Drivers/lvgl/src/widgets/roller/lv_roller.c ****                     refr_position(obj, LV_ANIM_ON);
 424:Drivers/lvgl/src/widgets/roller/lv_roller.c ****                 }
 425:Drivers/lvgl/src/widgets/roller/lv_roller.c ****             }
 426:Drivers/lvgl/src/widgets/roller/lv_roller.c ****         }
 427:Drivers/lvgl/src/widgets/roller/lv_roller.c ****         else {
 428:Drivers/lvgl/src/widgets/roller/lv_roller.c ****             /*Save the current value. Used to revert this
 429:Drivers/lvgl/src/widgets/roller/lv_roller.c ****              *state if ENTER won't be pressed*/
ARM GAS  /tmp/ccOwYixx.s 			page 9


 430:Drivers/lvgl/src/widgets/roller/lv_roller.c ****             roller->sel_opt_id_ori = roller->sel_opt_id;
 431:Drivers/lvgl/src/widgets/roller/lv_roller.c ****         }
 432:Drivers/lvgl/src/widgets/roller/lv_roller.c ****     }
 433:Drivers/lvgl/src/widgets/roller/lv_roller.c ****     else if(code == LV_EVENT_DEFOCUSED) {
 434:Drivers/lvgl/src/widgets/roller/lv_roller.c ****         /*Revert the original state*/
 435:Drivers/lvgl/src/widgets/roller/lv_roller.c ****         if(roller->sel_opt_id != roller->sel_opt_id_ori) {
 436:Drivers/lvgl/src/widgets/roller/lv_roller.c ****             roller->sel_opt_id = roller->sel_opt_id_ori;
 437:Drivers/lvgl/src/widgets/roller/lv_roller.c ****             refr_position(obj, LV_ANIM_ON);
 438:Drivers/lvgl/src/widgets/roller/lv_roller.c ****         }
 439:Drivers/lvgl/src/widgets/roller/lv_roller.c ****     }
 440:Drivers/lvgl/src/widgets/roller/lv_roller.c ****     else if(code == LV_EVENT_KEY) {
 441:Drivers/lvgl/src/widgets/roller/lv_roller.c ****         if(roller->option_cnt <= 1) return;
 442:Drivers/lvgl/src/widgets/roller/lv_roller.c **** 
 443:Drivers/lvgl/src/widgets/roller/lv_roller.c ****         uint32_t c = lv_event_get_key(e);
 444:Drivers/lvgl/src/widgets/roller/lv_roller.c ****         if(c == LV_KEY_RIGHT || c == LV_KEY_DOWN) {
 445:Drivers/lvgl/src/widgets/roller/lv_roller.c ****             if(roller->sel_opt_id + 1 < roller->option_cnt) {
 446:Drivers/lvgl/src/widgets/roller/lv_roller.c ****                 uint32_t ori_id = roller->sel_opt_id_ori; /*lv_roller_set_selected will overwrite t
 447:Drivers/lvgl/src/widgets/roller/lv_roller.c ****                 lv_roller_set_selected(obj, roller->sel_opt_id + 1, LV_ANIM_ON);
 448:Drivers/lvgl/src/widgets/roller/lv_roller.c ****                 roller->sel_opt_id_ori = ori_id;
 449:Drivers/lvgl/src/widgets/roller/lv_roller.c ****             }
 450:Drivers/lvgl/src/widgets/roller/lv_roller.c ****         }
 451:Drivers/lvgl/src/widgets/roller/lv_roller.c ****         else if(c == LV_KEY_LEFT || c == LV_KEY_UP) {
 452:Drivers/lvgl/src/widgets/roller/lv_roller.c ****             if(roller->sel_opt_id > 0) {
 453:Drivers/lvgl/src/widgets/roller/lv_roller.c ****                 uint32_t ori_id = roller->sel_opt_id_ori; /*lv_roller_set_selected will overwrite t
 454:Drivers/lvgl/src/widgets/roller/lv_roller.c ****                 lv_roller_set_selected(obj, roller->sel_opt_id - 1, LV_ANIM_ON);
 455:Drivers/lvgl/src/widgets/roller/lv_roller.c ****                 roller->sel_opt_id_ori = ori_id;
 456:Drivers/lvgl/src/widgets/roller/lv_roller.c ****             }
 457:Drivers/lvgl/src/widgets/roller/lv_roller.c ****         }
 458:Drivers/lvgl/src/widgets/roller/lv_roller.c ****     }
 459:Drivers/lvgl/src/widgets/roller/lv_roller.c ****     else if(code == LV_EVENT_ROTARY) {
 460:Drivers/lvgl/src/widgets/roller/lv_roller.c ****         if(roller->option_cnt <= 1) return;
 461:Drivers/lvgl/src/widgets/roller/lv_roller.c **** 
 462:Drivers/lvgl/src/widgets/roller/lv_roller.c ****         int32_t r = lv_event_get_rotary_diff(e);
 463:Drivers/lvgl/src/widgets/roller/lv_roller.c ****         int32_t new_id = roller->sel_opt_id + r;
 464:Drivers/lvgl/src/widgets/roller/lv_roller.c ****         new_id = LV_CLAMP(0, new_id, (int32_t)roller->option_cnt - 1);
 465:Drivers/lvgl/src/widgets/roller/lv_roller.c ****         if((int32_t)roller->sel_opt_id != new_id) {
 466:Drivers/lvgl/src/widgets/roller/lv_roller.c ****             uint32_t ori_id = roller->sel_opt_id_ori; /*lv_roller_set_selected will overwrite this*
 467:Drivers/lvgl/src/widgets/roller/lv_roller.c ****             lv_roller_set_selected(obj, new_id, LV_ANIM_ON);
 468:Drivers/lvgl/src/widgets/roller/lv_roller.c ****             roller->sel_opt_id_ori = ori_id;
 469:Drivers/lvgl/src/widgets/roller/lv_roller.c ****         }
 470:Drivers/lvgl/src/widgets/roller/lv_roller.c ****     }
 471:Drivers/lvgl/src/widgets/roller/lv_roller.c ****     else if(code == LV_EVENT_REFR_EXT_DRAW_SIZE) {
 472:Drivers/lvgl/src/widgets/roller/lv_roller.c ****         lv_obj_t * label = get_label(obj);
 473:Drivers/lvgl/src/widgets/roller/lv_roller.c ****         lv_obj_refresh_ext_draw_size(label);
 474:Drivers/lvgl/src/widgets/roller/lv_roller.c ****     }
 475:Drivers/lvgl/src/widgets/roller/lv_roller.c ****     else if(code == LV_EVENT_DRAW_MAIN || code == LV_EVENT_DRAW_POST) {
 476:Drivers/lvgl/src/widgets/roller/lv_roller.c ****         draw_main(e);
 477:Drivers/lvgl/src/widgets/roller/lv_roller.c ****     }
 478:Drivers/lvgl/src/widgets/roller/lv_roller.c **** }
 479:Drivers/lvgl/src/widgets/roller/lv_roller.c **** 
 480:Drivers/lvgl/src/widgets/roller/lv_roller.c **** static void lv_roller_label_event(const lv_obj_class_t * class_p, lv_event_t * e)
 481:Drivers/lvgl/src/widgets/roller/lv_roller.c **** {
 482:Drivers/lvgl/src/widgets/roller/lv_roller.c ****     LV_UNUSED(class_p);
 483:Drivers/lvgl/src/widgets/roller/lv_roller.c **** 
 484:Drivers/lvgl/src/widgets/roller/lv_roller.c ****     lv_result_t res;
 485:Drivers/lvgl/src/widgets/roller/lv_roller.c **** 
 486:Drivers/lvgl/src/widgets/roller/lv_roller.c ****     lv_event_code_t code = lv_event_get_code(e);
ARM GAS  /tmp/ccOwYixx.s 			page 10


 487:Drivers/lvgl/src/widgets/roller/lv_roller.c ****     /*LV_EVENT_DRAW_MAIN will be called in the draw function*/
 488:Drivers/lvgl/src/widgets/roller/lv_roller.c ****     if(code != LV_EVENT_DRAW_MAIN) {
 489:Drivers/lvgl/src/widgets/roller/lv_roller.c ****         /* Call the ancestor's event handler */
 490:Drivers/lvgl/src/widgets/roller/lv_roller.c ****         res = lv_obj_event_base(MY_CLASS_LABEL, e);
 491:Drivers/lvgl/src/widgets/roller/lv_roller.c ****         if(res != LV_RESULT_OK) return;
 492:Drivers/lvgl/src/widgets/roller/lv_roller.c ****     }
 493:Drivers/lvgl/src/widgets/roller/lv_roller.c **** 
 494:Drivers/lvgl/src/widgets/roller/lv_roller.c ****     lv_obj_t * label = lv_event_get_current_target(e);
 495:Drivers/lvgl/src/widgets/roller/lv_roller.c ****     if(code == LV_EVENT_REFR_EXT_DRAW_SIZE) {
 496:Drivers/lvgl/src/widgets/roller/lv_roller.c ****         /*If the selected text has a larger font it needs some extra space to draw it*/
 497:Drivers/lvgl/src/widgets/roller/lv_roller.c ****         int32_t * s = lv_event_get_param(e);
 498:Drivers/lvgl/src/widgets/roller/lv_roller.c ****         lv_obj_t * obj = lv_obj_get_parent(label);
 499:Drivers/lvgl/src/widgets/roller/lv_roller.c ****         int32_t sel_w = get_selected_label_width(obj);
 500:Drivers/lvgl/src/widgets/roller/lv_roller.c ****         int32_t label_w = lv_obj_get_width(label);
 501:Drivers/lvgl/src/widgets/roller/lv_roller.c ****         *s = LV_MAX(*s, sel_w - label_w);
 502:Drivers/lvgl/src/widgets/roller/lv_roller.c ****     }
 503:Drivers/lvgl/src/widgets/roller/lv_roller.c ****     else if(code == LV_EVENT_SIZE_CHANGED) {
 504:Drivers/lvgl/src/widgets/roller/lv_roller.c ****         refr_position(lv_obj_get_parent(label), LV_ANIM_OFF);
 505:Drivers/lvgl/src/widgets/roller/lv_roller.c ****     }
 506:Drivers/lvgl/src/widgets/roller/lv_roller.c ****     else if(code == LV_EVENT_DRAW_MAIN) {
 507:Drivers/lvgl/src/widgets/roller/lv_roller.c ****         draw_label(e);
 508:Drivers/lvgl/src/widgets/roller/lv_roller.c ****     }
 509:Drivers/lvgl/src/widgets/roller/lv_roller.c **** }
 510:Drivers/lvgl/src/widgets/roller/lv_roller.c **** 
 511:Drivers/lvgl/src/widgets/roller/lv_roller.c **** static void draw_main(lv_event_t * e)
 512:Drivers/lvgl/src/widgets/roller/lv_roller.c **** {
 513:Drivers/lvgl/src/widgets/roller/lv_roller.c ****     lv_event_code_t code = lv_event_get_code(e);
 514:Drivers/lvgl/src/widgets/roller/lv_roller.c ****     lv_obj_t * obj = lv_event_get_current_target(e);
 515:Drivers/lvgl/src/widgets/roller/lv_roller.c ****     if(code == LV_EVENT_DRAW_MAIN) {
 516:Drivers/lvgl/src/widgets/roller/lv_roller.c ****         /*Draw the selected rectangle*/
 517:Drivers/lvgl/src/widgets/roller/lv_roller.c ****         lv_layer_t * layer = lv_event_get_layer(e);
 518:Drivers/lvgl/src/widgets/roller/lv_roller.c ****         lv_area_t sel_area;
 519:Drivers/lvgl/src/widgets/roller/lv_roller.c ****         get_sel_area(obj, &sel_area);
 520:Drivers/lvgl/src/widgets/roller/lv_roller.c ****         lv_draw_rect_dsc_t sel_dsc;
 521:Drivers/lvgl/src/widgets/roller/lv_roller.c ****         lv_draw_rect_dsc_init(&sel_dsc);
 522:Drivers/lvgl/src/widgets/roller/lv_roller.c ****         sel_dsc.base.layer = layer;
 523:Drivers/lvgl/src/widgets/roller/lv_roller.c ****         lv_obj_init_draw_rect_dsc(obj, LV_PART_SELECTED, &sel_dsc);
 524:Drivers/lvgl/src/widgets/roller/lv_roller.c ****         lv_draw_rect(layer, &sel_dsc, &sel_area);
 525:Drivers/lvgl/src/widgets/roller/lv_roller.c ****     }
 526:Drivers/lvgl/src/widgets/roller/lv_roller.c ****     /*Post draw when the children are drawn*/
 527:Drivers/lvgl/src/widgets/roller/lv_roller.c ****     else if(code == LV_EVENT_DRAW_POST) {
 528:Drivers/lvgl/src/widgets/roller/lv_roller.c ****         lv_layer_t * layer = lv_event_get_layer(e);
 529:Drivers/lvgl/src/widgets/roller/lv_roller.c **** 
 530:Drivers/lvgl/src/widgets/roller/lv_roller.c ****         lv_draw_label_dsc_t label_dsc;
 531:Drivers/lvgl/src/widgets/roller/lv_roller.c ****         lv_draw_label_dsc_init(&label_dsc);
 532:Drivers/lvgl/src/widgets/roller/lv_roller.c ****         label_dsc.base.layer = layer;
 533:Drivers/lvgl/src/widgets/roller/lv_roller.c ****         lv_obj_init_draw_label_dsc(obj, LV_PART_SELECTED, &label_dsc);
 534:Drivers/lvgl/src/widgets/roller/lv_roller.c **** 
 535:Drivers/lvgl/src/widgets/roller/lv_roller.c ****         /*Redraw the text on the selected area*/
 536:Drivers/lvgl/src/widgets/roller/lv_roller.c ****         lv_area_t sel_area;
 537:Drivers/lvgl/src/widgets/roller/lv_roller.c ****         get_sel_area(obj, &sel_area);
 538:Drivers/lvgl/src/widgets/roller/lv_roller.c ****         lv_area_t mask_sel;
 539:Drivers/lvgl/src/widgets/roller/lv_roller.c ****         bool area_ok;
 540:Drivers/lvgl/src/widgets/roller/lv_roller.c ****         area_ok = lv_area_intersect(&mask_sel, &layer->_clip_area, &sel_area);
 541:Drivers/lvgl/src/widgets/roller/lv_roller.c ****         if(area_ok) {
 542:Drivers/lvgl/src/widgets/roller/lv_roller.c ****             lv_obj_t * label = get_label(obj);
 543:Drivers/lvgl/src/widgets/roller/lv_roller.c ****             if(lv_label_get_recolor(label)) label_dsc.flag |= LV_TEXT_FLAG_RECOLOR;
ARM GAS  /tmp/ccOwYixx.s 			page 11


 544:Drivers/lvgl/src/widgets/roller/lv_roller.c **** 
 545:Drivers/lvgl/src/widgets/roller/lv_roller.c ****             /*Get the size of the "selected text"*/
 546:Drivers/lvgl/src/widgets/roller/lv_roller.c ****             lv_point_t label_sel_size;
 547:Drivers/lvgl/src/widgets/roller/lv_roller.c ****             lv_text_get_size(&label_sel_size, lv_label_get_text(label), label_dsc.font, label_dsc.l
 548:Drivers/lvgl/src/widgets/roller/lv_roller.c ****                              label_dsc.line_space, lv_obj_get_width(obj), LV_TEXT_FLAG_EXPAND);
 549:Drivers/lvgl/src/widgets/roller/lv_roller.c **** 
 550:Drivers/lvgl/src/widgets/roller/lv_roller.c ****             /*Move the selected label proportionally with the background label*/
 551:Drivers/lvgl/src/widgets/roller/lv_roller.c ****             int32_t roller_h = lv_obj_get_height(obj);
 552:Drivers/lvgl/src/widgets/roller/lv_roller.c ****             const lv_font_t * normal_label_font = lv_obj_get_style_text_font(obj, LV_PART_MAIN);
 553:Drivers/lvgl/src/widgets/roller/lv_roller.c ****             /*label offset from the middle line of the roller*/
 554:Drivers/lvgl/src/widgets/roller/lv_roller.c ****             int32_t label_y_prop = (label->coords.y1 + normal_label_font->line_height / 2) - (rolle
 555:Drivers/lvgl/src/widgets/roller/lv_roller.c **** 
 556:Drivers/lvgl/src/widgets/roller/lv_roller.c ****             /*Proportional position from the middle line.
 557:Drivers/lvgl/src/widgets/roller/lv_roller.c ****              *Will be 0 for the first option, and 1 for the last option (upscaled by << 14)*/
 558:Drivers/lvgl/src/widgets/roller/lv_roller.c ****             int32_t remain_h = lv_obj_get_height(label) - normal_label_font->line_height;
 559:Drivers/lvgl/src/widgets/roller/lv_roller.c ****             if(remain_h > 0) {
 560:Drivers/lvgl/src/widgets/roller/lv_roller.c ****                 label_y_prop = (label_y_prop << 14) / remain_h;
 561:Drivers/lvgl/src/widgets/roller/lv_roller.c ****             }
 562:Drivers/lvgl/src/widgets/roller/lv_roller.c **** 
 563:Drivers/lvgl/src/widgets/roller/lv_roller.c ****             /*We don't want the selected label start and end exactly where the normal label is as
 564:Drivers/lvgl/src/widgets/roller/lv_roller.c ****              *a larger font won't centered on selected area.*/
 565:Drivers/lvgl/src/widgets/roller/lv_roller.c ****             int32_t corr = label_dsc.font->line_height;
 566:Drivers/lvgl/src/widgets/roller/lv_roller.c **** 
 567:Drivers/lvgl/src/widgets/roller/lv_roller.c ****             /*Apply the proportional position to the selected text*/
 568:Drivers/lvgl/src/widgets/roller/lv_roller.c ****             int32_t label_sel_y = roller_h / 2 + obj->coords.y1;
 569:Drivers/lvgl/src/widgets/roller/lv_roller.c ****             label_sel_y += ((label_sel_size.y - corr) * label_y_prop) >> 14;
 570:Drivers/lvgl/src/widgets/roller/lv_roller.c ****             label_sel_y -= corr / 2;
 571:Drivers/lvgl/src/widgets/roller/lv_roller.c **** 
 572:Drivers/lvgl/src/widgets/roller/lv_roller.c ****             int32_t bwidth = lv_obj_get_style_border_width(obj, LV_PART_MAIN);
 573:Drivers/lvgl/src/widgets/roller/lv_roller.c ****             int32_t pleft = lv_obj_get_style_pad_left(obj, LV_PART_MAIN);
 574:Drivers/lvgl/src/widgets/roller/lv_roller.c ****             int32_t pright = lv_obj_get_style_pad_right(obj, LV_PART_MAIN);
 575:Drivers/lvgl/src/widgets/roller/lv_roller.c **** 
 576:Drivers/lvgl/src/widgets/roller/lv_roller.c ****             /*Draw the selected text*/
 577:Drivers/lvgl/src/widgets/roller/lv_roller.c ****             lv_area_t label_sel_area;
 578:Drivers/lvgl/src/widgets/roller/lv_roller.c ****             label_sel_area.x1 = obj->coords.x1 + pleft + bwidth;
 579:Drivers/lvgl/src/widgets/roller/lv_roller.c ****             label_sel_area.y1 = label_sel_y;
 580:Drivers/lvgl/src/widgets/roller/lv_roller.c ****             label_sel_area.x2 = obj->coords.x2 - pright - bwidth;
 581:Drivers/lvgl/src/widgets/roller/lv_roller.c ****             label_sel_area.y2 = label_sel_area.y1 + label_sel_size.y;
 582:Drivers/lvgl/src/widgets/roller/lv_roller.c **** 
 583:Drivers/lvgl/src/widgets/roller/lv_roller.c ****             label_dsc.flag |= LV_TEXT_FLAG_EXPAND;
 584:Drivers/lvgl/src/widgets/roller/lv_roller.c ****             const lv_area_t clip_area_ori = layer->_clip_area;
 585:Drivers/lvgl/src/widgets/roller/lv_roller.c ****             layer->_clip_area = mask_sel;
 586:Drivers/lvgl/src/widgets/roller/lv_roller.c ****             label_dsc.text = lv_label_get_text(label);
 587:Drivers/lvgl/src/widgets/roller/lv_roller.c ****             lv_draw_label(layer, &label_dsc, &label_sel_area);
 588:Drivers/lvgl/src/widgets/roller/lv_roller.c ****             layer->_clip_area = clip_area_ori;
 589:Drivers/lvgl/src/widgets/roller/lv_roller.c ****         }
 590:Drivers/lvgl/src/widgets/roller/lv_roller.c ****     }
 591:Drivers/lvgl/src/widgets/roller/lv_roller.c **** }
 592:Drivers/lvgl/src/widgets/roller/lv_roller.c **** 
 593:Drivers/lvgl/src/widgets/roller/lv_roller.c **** static void draw_label(lv_event_t * e)
 594:Drivers/lvgl/src/widgets/roller/lv_roller.c **** {
 595:Drivers/lvgl/src/widgets/roller/lv_roller.c ****     /* Split the drawing of the label into  an upper (above the selected area)
 596:Drivers/lvgl/src/widgets/roller/lv_roller.c ****      * and a lower (below the selected area)*/
 597:Drivers/lvgl/src/widgets/roller/lv_roller.c ****     lv_obj_t * label_obj = lv_event_get_current_target(e);
 598:Drivers/lvgl/src/widgets/roller/lv_roller.c ****     lv_obj_t * roller = lv_obj_get_parent(label_obj);
 599:Drivers/lvgl/src/widgets/roller/lv_roller.c ****     lv_layer_t * layer = lv_event_get_layer(e);
 600:Drivers/lvgl/src/widgets/roller/lv_roller.c ****     lv_draw_label_dsc_t label_draw_dsc;
ARM GAS  /tmp/ccOwYixx.s 			page 12


 601:Drivers/lvgl/src/widgets/roller/lv_roller.c ****     lv_draw_label_dsc_init(&label_draw_dsc);
 602:Drivers/lvgl/src/widgets/roller/lv_roller.c ****     label_draw_dsc.base.layer = layer;
 603:Drivers/lvgl/src/widgets/roller/lv_roller.c ****     lv_obj_init_draw_label_dsc(roller, LV_PART_MAIN, &label_draw_dsc);
 604:Drivers/lvgl/src/widgets/roller/lv_roller.c ****     if(lv_label_get_recolor(label_obj)) label_draw_dsc.flag |= LV_TEXT_FLAG_RECOLOR;
 605:Drivers/lvgl/src/widgets/roller/lv_roller.c **** 
 606:Drivers/lvgl/src/widgets/roller/lv_roller.c ****     /*If the roller has shadow or outline it has some ext. draw size
 607:Drivers/lvgl/src/widgets/roller/lv_roller.c ****      *therefore the label can overflow the roller's boundaries.
 608:Drivers/lvgl/src/widgets/roller/lv_roller.c ****      *To solve this limit the clip area to the "plain" roller.*/
 609:Drivers/lvgl/src/widgets/roller/lv_roller.c ****     const lv_area_t clip_area_ori = layer->_clip_area;
 610:Drivers/lvgl/src/widgets/roller/lv_roller.c ****     lv_area_t roller_clip_area;
 611:Drivers/lvgl/src/widgets/roller/lv_roller.c ****     if(!lv_area_intersect(&roller_clip_area, &layer->_clip_area, &roller->coords)) return;
 612:Drivers/lvgl/src/widgets/roller/lv_roller.c ****     layer->_clip_area = roller_clip_area;
 613:Drivers/lvgl/src/widgets/roller/lv_roller.c **** 
 614:Drivers/lvgl/src/widgets/roller/lv_roller.c ****     lv_area_t sel_area;
 615:Drivers/lvgl/src/widgets/roller/lv_roller.c ****     get_sel_area(roller, &sel_area);
 616:Drivers/lvgl/src/widgets/roller/lv_roller.c **** 
 617:Drivers/lvgl/src/widgets/roller/lv_roller.c ****     lv_area_t clip2;
 618:Drivers/lvgl/src/widgets/roller/lv_roller.c ****     clip2.x1 = label_obj->coords.x1;
 619:Drivers/lvgl/src/widgets/roller/lv_roller.c ****     clip2.y1 = label_obj->coords.y1;
 620:Drivers/lvgl/src/widgets/roller/lv_roller.c ****     clip2.x2 = label_obj->coords.x2;
 621:Drivers/lvgl/src/widgets/roller/lv_roller.c ****     clip2.y2 = sel_area.y1;
 622:Drivers/lvgl/src/widgets/roller/lv_roller.c ****     if(lv_area_intersect(&clip2, &layer->_clip_area, &clip2)) {
 623:Drivers/lvgl/src/widgets/roller/lv_roller.c ****         const lv_area_t clip_area_ori2 = layer->_clip_area;
 624:Drivers/lvgl/src/widgets/roller/lv_roller.c ****         layer->_clip_area = clip2;
 625:Drivers/lvgl/src/widgets/roller/lv_roller.c ****         label_draw_dsc.text = lv_label_get_text(label_obj);
 626:Drivers/lvgl/src/widgets/roller/lv_roller.c ****         lv_draw_label(layer, &label_draw_dsc, &label_obj->coords);
 627:Drivers/lvgl/src/widgets/roller/lv_roller.c ****         layer->_clip_area = clip_area_ori2;
 628:Drivers/lvgl/src/widgets/roller/lv_roller.c ****     }
 629:Drivers/lvgl/src/widgets/roller/lv_roller.c **** 
 630:Drivers/lvgl/src/widgets/roller/lv_roller.c ****     clip2.x1 = label_obj->coords.x1;
 631:Drivers/lvgl/src/widgets/roller/lv_roller.c ****     clip2.y1 = sel_area.y2;
 632:Drivers/lvgl/src/widgets/roller/lv_roller.c ****     clip2.x2 = label_obj->coords.x2;
 633:Drivers/lvgl/src/widgets/roller/lv_roller.c ****     clip2.y2 = label_obj->coords.y2;
 634:Drivers/lvgl/src/widgets/roller/lv_roller.c ****     if(lv_area_intersect(&clip2, &layer->_clip_area, &clip2)) {
 635:Drivers/lvgl/src/widgets/roller/lv_roller.c ****         const lv_area_t clip_area_ori2 = layer->_clip_area;
 636:Drivers/lvgl/src/widgets/roller/lv_roller.c ****         layer->_clip_area = clip2;
 637:Drivers/lvgl/src/widgets/roller/lv_roller.c ****         label_draw_dsc.text = lv_label_get_text(label_obj);
 638:Drivers/lvgl/src/widgets/roller/lv_roller.c ****         lv_draw_label(layer, &label_draw_dsc, &label_obj->coords);
 639:Drivers/lvgl/src/widgets/roller/lv_roller.c ****         layer->_clip_area = clip_area_ori2;
 640:Drivers/lvgl/src/widgets/roller/lv_roller.c ****     }
 641:Drivers/lvgl/src/widgets/roller/lv_roller.c **** 
 642:Drivers/lvgl/src/widgets/roller/lv_roller.c ****     layer->_clip_area = clip_area_ori;
 643:Drivers/lvgl/src/widgets/roller/lv_roller.c **** }
 644:Drivers/lvgl/src/widgets/roller/lv_roller.c **** 
 645:Drivers/lvgl/src/widgets/roller/lv_roller.c **** static void get_sel_area(lv_obj_t * obj, lv_area_t * sel_area)
 646:Drivers/lvgl/src/widgets/roller/lv_roller.c **** {
 647:Drivers/lvgl/src/widgets/roller/lv_roller.c **** 
 648:Drivers/lvgl/src/widgets/roller/lv_roller.c ****     const lv_font_t * font_main = lv_obj_get_style_text_font(obj, LV_PART_MAIN);
 649:Drivers/lvgl/src/widgets/roller/lv_roller.c ****     const lv_font_t * font_sel = lv_obj_get_style_text_font(obj, LV_PART_SELECTED);
 650:Drivers/lvgl/src/widgets/roller/lv_roller.c ****     int32_t font_main_h        = lv_font_get_line_height(font_main);
 651:Drivers/lvgl/src/widgets/roller/lv_roller.c ****     int32_t font_sel_h        = lv_font_get_line_height(font_sel);
 652:Drivers/lvgl/src/widgets/roller/lv_roller.c ****     int32_t line_space = lv_obj_get_style_text_line_space(obj, LV_PART_MAIN);
 653:Drivers/lvgl/src/widgets/roller/lv_roller.c ****     int32_t d = (font_sel_h + font_main_h) / 2 + line_space;
 654:Drivers/lvgl/src/widgets/roller/lv_roller.c ****     sel_area->y1 = obj->coords.y1 + lv_obj_get_height(obj) / 2 - d / 2;
 655:Drivers/lvgl/src/widgets/roller/lv_roller.c ****     sel_area->y2 = sel_area->y1 + d;
 656:Drivers/lvgl/src/widgets/roller/lv_roller.c ****     lv_area_t roller_coords;
 657:Drivers/lvgl/src/widgets/roller/lv_roller.c ****     lv_obj_get_coords(obj, &roller_coords);
ARM GAS  /tmp/ccOwYixx.s 			page 13


 658:Drivers/lvgl/src/widgets/roller/lv_roller.c **** 
 659:Drivers/lvgl/src/widgets/roller/lv_roller.c ****     sel_area->x1 = roller_coords.x1;
 660:Drivers/lvgl/src/widgets/roller/lv_roller.c ****     sel_area->x2 = roller_coords.x2;
 661:Drivers/lvgl/src/widgets/roller/lv_roller.c **** 
 662:Drivers/lvgl/src/widgets/roller/lv_roller.c **** }
 663:Drivers/lvgl/src/widgets/roller/lv_roller.c **** 
 664:Drivers/lvgl/src/widgets/roller/lv_roller.c **** /**
 665:Drivers/lvgl/src/widgets/roller/lv_roller.c ****  * Refresh the position of the roller. It uses the id stored in: roller->ddlist.selected_option_id
 666:Drivers/lvgl/src/widgets/roller/lv_roller.c ****  * @param roller pointer to a roller object
 667:Drivers/lvgl/src/widgets/roller/lv_roller.c ****  * @param anim_en LV_ANIM_ON: refresh with animation; LV_ANIM_OFF: without animation
 668:Drivers/lvgl/src/widgets/roller/lv_roller.c ****  */
 669:Drivers/lvgl/src/widgets/roller/lv_roller.c **** static void refr_position(lv_obj_t * obj, lv_anim_enable_t anim_en)
 670:Drivers/lvgl/src/widgets/roller/lv_roller.c **** {
 671:Drivers/lvgl/src/widgets/roller/lv_roller.c ****     lv_obj_t * label = get_label(obj);
 672:Drivers/lvgl/src/widgets/roller/lv_roller.c ****     if(label == NULL) return;
 673:Drivers/lvgl/src/widgets/roller/lv_roller.c **** 
 674:Drivers/lvgl/src/widgets/roller/lv_roller.c ****     const lv_text_align_t align = lv_obj_calculate_style_text_align(label, LV_PART_MAIN, lv_label_g
 675:Drivers/lvgl/src/widgets/roller/lv_roller.c **** 
 676:Drivers/lvgl/src/widgets/roller/lv_roller.c ****     int32_t x = 0;
 677:Drivers/lvgl/src/widgets/roller/lv_roller.c ****     switch(align) {
 678:Drivers/lvgl/src/widgets/roller/lv_roller.c ****         case LV_TEXT_ALIGN_CENTER:
 679:Drivers/lvgl/src/widgets/roller/lv_roller.c ****             x = (lv_obj_get_content_width(obj) - lv_obj_get_width(label)) / 2;
 680:Drivers/lvgl/src/widgets/roller/lv_roller.c ****             break;
 681:Drivers/lvgl/src/widgets/roller/lv_roller.c ****         case LV_TEXT_ALIGN_RIGHT:
 682:Drivers/lvgl/src/widgets/roller/lv_roller.c ****             x = lv_obj_get_content_width(obj) - lv_obj_get_width(label);
 683:Drivers/lvgl/src/widgets/roller/lv_roller.c ****             break;
 684:Drivers/lvgl/src/widgets/roller/lv_roller.c ****         case LV_TEXT_ALIGN_LEFT:
 685:Drivers/lvgl/src/widgets/roller/lv_roller.c ****             x = 0;
 686:Drivers/lvgl/src/widgets/roller/lv_roller.c ****             break;
 687:Drivers/lvgl/src/widgets/roller/lv_roller.c ****         default:
 688:Drivers/lvgl/src/widgets/roller/lv_roller.c ****             /* Invalid alignment */
 689:Drivers/lvgl/src/widgets/roller/lv_roller.c ****             break;
 690:Drivers/lvgl/src/widgets/roller/lv_roller.c ****     }
 691:Drivers/lvgl/src/widgets/roller/lv_roller.c ****     lv_obj_set_x(label, x);
 692:Drivers/lvgl/src/widgets/roller/lv_roller.c **** 
 693:Drivers/lvgl/src/widgets/roller/lv_roller.c ****     const lv_font_t * font = lv_obj_get_style_text_font(obj, LV_PART_MAIN);
 694:Drivers/lvgl/src/widgets/roller/lv_roller.c ****     const int32_t line_space = lv_obj_get_style_text_line_space(obj, LV_PART_MAIN);
 695:Drivers/lvgl/src/widgets/roller/lv_roller.c ****     const int32_t font_h = lv_font_get_line_height(font);
 696:Drivers/lvgl/src/widgets/roller/lv_roller.c ****     const int32_t h = lv_obj_get_content_height(obj);
 697:Drivers/lvgl/src/widgets/roller/lv_roller.c ****     uint32_t anim_time = lv_obj_get_style_anim_duration(obj, LV_PART_MAIN);
 698:Drivers/lvgl/src/widgets/roller/lv_roller.c **** 
 699:Drivers/lvgl/src/widgets/roller/lv_roller.c ****     /*Normally the animation's `end_cb` sets correct position of the roller if infinite.
 700:Drivers/lvgl/src/widgets/roller/lv_roller.c ****      *But without animations we have to do it manually*/
 701:Drivers/lvgl/src/widgets/roller/lv_roller.c ****     if(anim_en == LV_ANIM_OFF || anim_time == 0) {
 702:Drivers/lvgl/src/widgets/roller/lv_roller.c ****         inf_normalize(obj);
 703:Drivers/lvgl/src/widgets/roller/lv_roller.c ****     }
 704:Drivers/lvgl/src/widgets/roller/lv_roller.c **** 
 705:Drivers/lvgl/src/widgets/roller/lv_roller.c ****     /* Calculate animation configuration */
 706:Drivers/lvgl/src/widgets/roller/lv_roller.c ****     lv_roller_t * roller = (lv_roller_t *)obj;
 707:Drivers/lvgl/src/widgets/roller/lv_roller.c ****     int32_t id = roller->sel_opt_id;
 708:Drivers/lvgl/src/widgets/roller/lv_roller.c ****     const int32_t sel_y1 = id * (font_h + line_space);
 709:Drivers/lvgl/src/widgets/roller/lv_roller.c ****     const int32_t mid_y1 = h / 2 - font_h / 2;
 710:Drivers/lvgl/src/widgets/roller/lv_roller.c ****     const int32_t new_y = mid_y1 - sel_y1;
 711:Drivers/lvgl/src/widgets/roller/lv_roller.c **** 
 712:Drivers/lvgl/src/widgets/roller/lv_roller.c ****     if(anim_en == LV_ANIM_OFF || anim_time == 0) {
 713:Drivers/lvgl/src/widgets/roller/lv_roller.c ****         lv_anim_delete(label, set_y_anim);
 714:Drivers/lvgl/src/widgets/roller/lv_roller.c ****         lv_obj_set_y(label, new_y);
ARM GAS  /tmp/ccOwYixx.s 			page 14


 715:Drivers/lvgl/src/widgets/roller/lv_roller.c ****     }
 716:Drivers/lvgl/src/widgets/roller/lv_roller.c ****     else {
 717:Drivers/lvgl/src/widgets/roller/lv_roller.c ****         lv_anim_t a;
 718:Drivers/lvgl/src/widgets/roller/lv_roller.c ****         lv_anim_init(&a);
 719:Drivers/lvgl/src/widgets/roller/lv_roller.c ****         lv_anim_set_var(&a, label);
 720:Drivers/lvgl/src/widgets/roller/lv_roller.c ****         lv_anim_set_exec_cb(&a, set_y_anim);
 721:Drivers/lvgl/src/widgets/roller/lv_roller.c ****         lv_anim_set_values(&a, lv_obj_get_y(label), new_y);
 722:Drivers/lvgl/src/widgets/roller/lv_roller.c ****         lv_anim_set_duration(&a, anim_time);
 723:Drivers/lvgl/src/widgets/roller/lv_roller.c ****         lv_anim_set_completed_cb(&a, scroll_anim_completed_cb);
 724:Drivers/lvgl/src/widgets/roller/lv_roller.c ****         lv_anim_set_path_cb(&a, lv_anim_path_ease_out);
 725:Drivers/lvgl/src/widgets/roller/lv_roller.c ****         lv_anim_start(&a);
 726:Drivers/lvgl/src/widgets/roller/lv_roller.c ****     }
 727:Drivers/lvgl/src/widgets/roller/lv_roller.c **** }
 728:Drivers/lvgl/src/widgets/roller/lv_roller.c **** 
 729:Drivers/lvgl/src/widgets/roller/lv_roller.c **** static lv_result_t release_handler(lv_obj_t * obj)
 730:Drivers/lvgl/src/widgets/roller/lv_roller.c **** {
 731:Drivers/lvgl/src/widgets/roller/lv_roller.c ****     lv_obj_t * label = get_label(obj);
 732:Drivers/lvgl/src/widgets/roller/lv_roller.c ****     if(label == NULL) return LV_RESULT_OK;
 733:Drivers/lvgl/src/widgets/roller/lv_roller.c **** 
 734:Drivers/lvgl/src/widgets/roller/lv_roller.c ****     lv_indev_t * indev = lv_indev_active();
 735:Drivers/lvgl/src/widgets/roller/lv_roller.c ****     lv_roller_t * roller = (lv_roller_t *)obj;
 736:Drivers/lvgl/src/widgets/roller/lv_roller.c **** 
 737:Drivers/lvgl/src/widgets/roller/lv_roller.c ****     /*Leave edit mode once a new option is selected*/
 738:Drivers/lvgl/src/widgets/roller/lv_roller.c ****     lv_indev_type_t indev_type = lv_indev_get_type(indev);
 739:Drivers/lvgl/src/widgets/roller/lv_roller.c ****     if(indev_type == LV_INDEV_TYPE_ENCODER || indev_type == LV_INDEV_TYPE_KEYPAD) {
 740:Drivers/lvgl/src/widgets/roller/lv_roller.c ****         roller->sel_opt_id_ori = roller->sel_opt_id;
 741:Drivers/lvgl/src/widgets/roller/lv_roller.c **** 
 742:Drivers/lvgl/src/widgets/roller/lv_roller.c ****         if(indev_type == LV_INDEV_TYPE_ENCODER) {
 743:Drivers/lvgl/src/widgets/roller/lv_roller.c ****             lv_group_t * g      = lv_obj_get_group(obj);
 744:Drivers/lvgl/src/widgets/roller/lv_roller.c ****             if(lv_group_get_editing(g)) {
 745:Drivers/lvgl/src/widgets/roller/lv_roller.c ****                 lv_group_set_editing(g, false);
 746:Drivers/lvgl/src/widgets/roller/lv_roller.c ****             }
 747:Drivers/lvgl/src/widgets/roller/lv_roller.c ****         }
 748:Drivers/lvgl/src/widgets/roller/lv_roller.c ****     }
 749:Drivers/lvgl/src/widgets/roller/lv_roller.c **** 
 750:Drivers/lvgl/src/widgets/roller/lv_roller.c ****     if(lv_indev_get_type(indev) == LV_INDEV_TYPE_POINTER || lv_indev_get_type(indev) == LV_INDEV_TY
 751:Drivers/lvgl/src/widgets/roller/lv_roller.c ****         /*Search the clicked option (For KEYPAD and ENCODER the new value should be already set)*/
 752:Drivers/lvgl/src/widgets/roller/lv_roller.c ****         int16_t new_opt  = -1;
 753:Drivers/lvgl/src/widgets/roller/lv_roller.c ****         if(roller->moved == 0) {
 754:Drivers/lvgl/src/widgets/roller/lv_roller.c ****             new_opt = 0;
 755:Drivers/lvgl/src/widgets/roller/lv_roller.c ****             lv_point_t p;
 756:Drivers/lvgl/src/widgets/roller/lv_roller.c ****             lv_indev_get_point(indev, &p);
 757:Drivers/lvgl/src/widgets/roller/lv_roller.c ****             p.y -= label->coords.y1;
 758:Drivers/lvgl/src/widgets/roller/lv_roller.c ****             p.x -= label->coords.x1;
 759:Drivers/lvgl/src/widgets/roller/lv_roller.c ****             uint32_t letter_i;
 760:Drivers/lvgl/src/widgets/roller/lv_roller.c ****             letter_i = lv_label_get_letter_on(label, &p, true);
 761:Drivers/lvgl/src/widgets/roller/lv_roller.c **** 
 762:Drivers/lvgl/src/widgets/roller/lv_roller.c ****             const char * txt  = lv_label_get_text(label);
 763:Drivers/lvgl/src/widgets/roller/lv_roller.c ****             uint32_t i        = 0;
 764:Drivers/lvgl/src/widgets/roller/lv_roller.c ****             uint32_t i_prev   = 0;
 765:Drivers/lvgl/src/widgets/roller/lv_roller.c **** 
 766:Drivers/lvgl/src/widgets/roller/lv_roller.c ****             uint32_t letter_cnt = 0;
 767:Drivers/lvgl/src/widgets/roller/lv_roller.c ****             for(letter_cnt = 0; letter_cnt < letter_i; letter_cnt++) {
 768:Drivers/lvgl/src/widgets/roller/lv_roller.c ****                 uint32_t letter = lv_text_encoded_next(txt, &i);
 769:Drivers/lvgl/src/widgets/roller/lv_roller.c ****                 /*Count he lines to reach the clicked letter. But ignore the last '\n' because it
 770:Drivers/lvgl/src/widgets/roller/lv_roller.c ****                  * still belongs to the clicked line*/
 771:Drivers/lvgl/src/widgets/roller/lv_roller.c ****                 if(letter == '\n' && i_prev != letter_i) new_opt++;
ARM GAS  /tmp/ccOwYixx.s 			page 15


 772:Drivers/lvgl/src/widgets/roller/lv_roller.c ****                 i_prev = i;
 773:Drivers/lvgl/src/widgets/roller/lv_roller.c ****             }
 774:Drivers/lvgl/src/widgets/roller/lv_roller.c ****         }
 775:Drivers/lvgl/src/widgets/roller/lv_roller.c ****         else {
 776:Drivers/lvgl/src/widgets/roller/lv_roller.c ****             /*If dragged then align the list to have an element in the middle*/
 777:Drivers/lvgl/src/widgets/roller/lv_roller.c ****             const lv_font_t * font = lv_obj_get_style_text_font(obj, LV_PART_MAIN);
 778:Drivers/lvgl/src/widgets/roller/lv_roller.c ****             int32_t line_space = lv_obj_get_style_text_line_space(obj, LV_PART_MAIN);
 779:Drivers/lvgl/src/widgets/roller/lv_roller.c ****             int32_t font_h              = lv_font_get_line_height(font);
 780:Drivers/lvgl/src/widgets/roller/lv_roller.c **** 
 781:Drivers/lvgl/src/widgets/roller/lv_roller.c ****             int32_t label_unit = font_h + line_space;
 782:Drivers/lvgl/src/widgets/roller/lv_roller.c ****             int32_t mid        = obj->coords.y1 + (obj->coords.y2 - obj->coords.y1) / 2;
 783:Drivers/lvgl/src/widgets/roller/lv_roller.c **** 
 784:Drivers/lvgl/src/widgets/roller/lv_roller.c ****             lv_point_t p = indev->pointer.scroll_throw_vect_ori;
 785:Drivers/lvgl/src/widgets/roller/lv_roller.c ****             transform_vect_recursive(obj, &p);
 786:Drivers/lvgl/src/widgets/roller/lv_roller.c **** 
 787:Drivers/lvgl/src/widgets/roller/lv_roller.c ****             int32_t scroll_throw = indev->scroll_throw;
 788:Drivers/lvgl/src/widgets/roller/lv_roller.c ****             int32_t sum = 0;
 789:Drivers/lvgl/src/widgets/roller/lv_roller.c ****             int32_t v = p.y;
 790:Drivers/lvgl/src/widgets/roller/lv_roller.c ****             while(v) {
 791:Drivers/lvgl/src/widgets/roller/lv_roller.c ****                 sum += v;
 792:Drivers/lvgl/src/widgets/roller/lv_roller.c ****                 v = v * (100 - scroll_throw) / 100;
 793:Drivers/lvgl/src/widgets/roller/lv_roller.c ****             }
 794:Drivers/lvgl/src/widgets/roller/lv_roller.c **** 
 795:Drivers/lvgl/src/widgets/roller/lv_roller.c ****             int32_t label_y1 = label->coords.y1 + sum;
 796:Drivers/lvgl/src/widgets/roller/lv_roller.c ****             int32_t id = (mid - label_y1) / label_unit;
 797:Drivers/lvgl/src/widgets/roller/lv_roller.c **** 
 798:Drivers/lvgl/src/widgets/roller/lv_roller.c ****             if(id < 0) id = 0;
 799:Drivers/lvgl/src/widgets/roller/lv_roller.c ****             if(id >= (int32_t)roller->option_cnt) id = roller->option_cnt - 1;
 800:Drivers/lvgl/src/widgets/roller/lv_roller.c **** 
 801:Drivers/lvgl/src/widgets/roller/lv_roller.c ****             new_opt = id;
 802:Drivers/lvgl/src/widgets/roller/lv_roller.c ****         }
 803:Drivers/lvgl/src/widgets/roller/lv_roller.c **** 
 804:Drivers/lvgl/src/widgets/roller/lv_roller.c ****         if(new_opt >= 0) {
 805:Drivers/lvgl/src/widgets/roller/lv_roller.c ****             lv_roller_set_selected(obj, new_opt, LV_ANIM_ON);
 806:Drivers/lvgl/src/widgets/roller/lv_roller.c ****         }
 807:Drivers/lvgl/src/widgets/roller/lv_roller.c ****     }
 808:Drivers/lvgl/src/widgets/roller/lv_roller.c **** 
 809:Drivers/lvgl/src/widgets/roller/lv_roller.c ****     uint32_t id  = roller->sel_opt_id; /*Just to use uint32_t in event data*/
 810:Drivers/lvgl/src/widgets/roller/lv_roller.c ****     lv_result_t res = lv_obj_send_event(obj, LV_EVENT_VALUE_CHANGED, &id);
 811:Drivers/lvgl/src/widgets/roller/lv_roller.c ****     return res;
 812:Drivers/lvgl/src/widgets/roller/lv_roller.c **** }
 813:Drivers/lvgl/src/widgets/roller/lv_roller.c **** 
 814:Drivers/lvgl/src/widgets/roller/lv_roller.c **** /**
 815:Drivers/lvgl/src/widgets/roller/lv_roller.c ****  * Set the middle page for the roller if infinite is enabled
 816:Drivers/lvgl/src/widgets/roller/lv_roller.c ****  * @param roller pointer to a roller object
 817:Drivers/lvgl/src/widgets/roller/lv_roller.c ****  */
 818:Drivers/lvgl/src/widgets/roller/lv_roller.c **** static void inf_normalize(lv_obj_t * obj)
 819:Drivers/lvgl/src/widgets/roller/lv_roller.c **** {
 820:Drivers/lvgl/src/widgets/roller/lv_roller.c ****     lv_roller_t * roller = (lv_roller_t *)obj;
 821:Drivers/lvgl/src/widgets/roller/lv_roller.c **** 
 822:Drivers/lvgl/src/widgets/roller/lv_roller.c ****     if(roller->mode == LV_ROLLER_MODE_INFINITE) {
 823:Drivers/lvgl/src/widgets/roller/lv_roller.c ****         uint32_t real_id_cnt = roller->option_cnt / roller->inf_page_cnt;
 824:Drivers/lvgl/src/widgets/roller/lv_roller.c ****         roller->sel_opt_id = roller->sel_opt_id % real_id_cnt;
 825:Drivers/lvgl/src/widgets/roller/lv_roller.c ****         roller->sel_opt_id += (roller->inf_page_cnt / 2) * real_id_cnt; /*Select the middle page*/
 826:Drivers/lvgl/src/widgets/roller/lv_roller.c **** 
 827:Drivers/lvgl/src/widgets/roller/lv_roller.c ****         roller->sel_opt_id_ori = roller->sel_opt_id % real_id_cnt;
 828:Drivers/lvgl/src/widgets/roller/lv_roller.c ****         roller->sel_opt_id_ori += (roller->inf_page_cnt / 2) * real_id_cnt; /*Select the middle pag
ARM GAS  /tmp/ccOwYixx.s 			page 16


 829:Drivers/lvgl/src/widgets/roller/lv_roller.c **** 
 830:Drivers/lvgl/src/widgets/roller/lv_roller.c ****         /*Move to the new id*/
 831:Drivers/lvgl/src/widgets/roller/lv_roller.c ****         const lv_font_t * font = lv_obj_get_style_text_font(obj, LV_PART_MAIN);
 832:Drivers/lvgl/src/widgets/roller/lv_roller.c ****         int32_t line_space = lv_obj_get_style_text_line_space(obj, LV_PART_MAIN);
 833:Drivers/lvgl/src/widgets/roller/lv_roller.c ****         int32_t font_h              = lv_font_get_line_height(font);
 834:Drivers/lvgl/src/widgets/roller/lv_roller.c ****         int32_t h                   = lv_obj_get_content_height(obj);
 835:Drivers/lvgl/src/widgets/roller/lv_roller.c **** 
 836:Drivers/lvgl/src/widgets/roller/lv_roller.c ****         lv_obj_t * label = get_label(obj);
 837:Drivers/lvgl/src/widgets/roller/lv_roller.c **** 
 838:Drivers/lvgl/src/widgets/roller/lv_roller.c ****         int32_t sel_y1 = roller->sel_opt_id * (font_h + line_space);
 839:Drivers/lvgl/src/widgets/roller/lv_roller.c ****         int32_t mid_y1 = h / 2 - font_h / 2;
 840:Drivers/lvgl/src/widgets/roller/lv_roller.c ****         int32_t new_y = mid_y1 - sel_y1;
 841:Drivers/lvgl/src/widgets/roller/lv_roller.c ****         lv_obj_set_y(label, new_y);
 842:Drivers/lvgl/src/widgets/roller/lv_roller.c ****     }
 843:Drivers/lvgl/src/widgets/roller/lv_roller.c **** }
 844:Drivers/lvgl/src/widgets/roller/lv_roller.c **** 
 845:Drivers/lvgl/src/widgets/roller/lv_roller.c **** static lv_obj_t * get_label(const lv_obj_t * obj)
 846:Drivers/lvgl/src/widgets/roller/lv_roller.c **** {
 847:Drivers/lvgl/src/widgets/roller/lv_roller.c ****     return lv_obj_get_child(obj, 0);
 848:Drivers/lvgl/src/widgets/roller/lv_roller.c **** }
 849:Drivers/lvgl/src/widgets/roller/lv_roller.c **** 
 850:Drivers/lvgl/src/widgets/roller/lv_roller.c **** static int32_t get_selected_label_width(const lv_obj_t * obj)
 851:Drivers/lvgl/src/widgets/roller/lv_roller.c **** {
 852:Drivers/lvgl/src/widgets/roller/lv_roller.c ****     lv_obj_t * label = get_label(obj);
 853:Drivers/lvgl/src/widgets/roller/lv_roller.c ****     if(label == NULL) return 0;
 854:Drivers/lvgl/src/widgets/roller/lv_roller.c **** 
 855:Drivers/lvgl/src/widgets/roller/lv_roller.c ****     const lv_font_t * font = lv_obj_get_style_text_font(obj, LV_PART_SELECTED);
 856:Drivers/lvgl/src/widgets/roller/lv_roller.c ****     int32_t letter_space = lv_obj_get_style_text_letter_space(obj, LV_PART_SELECTED);
 857:Drivers/lvgl/src/widgets/roller/lv_roller.c ****     const char * txt = lv_label_get_text(label);
 858:Drivers/lvgl/src/widgets/roller/lv_roller.c ****     lv_point_t size;
 859:Drivers/lvgl/src/widgets/roller/lv_roller.c ****     lv_text_get_size(&size, txt, font, letter_space, 0, LV_COORD_MAX,  LV_TEXT_FLAG_NONE);
 860:Drivers/lvgl/src/widgets/roller/lv_roller.c ****     return size.x;
 861:Drivers/lvgl/src/widgets/roller/lv_roller.c **** }
 862:Drivers/lvgl/src/widgets/roller/lv_roller.c **** 
 863:Drivers/lvgl/src/widgets/roller/lv_roller.c **** static void scroll_anim_completed_cb(lv_anim_t * a)
 864:Drivers/lvgl/src/widgets/roller/lv_roller.c **** {
 865:Drivers/lvgl/src/widgets/roller/lv_roller.c ****     lv_obj_t * obj = lv_obj_get_parent(a->var); /*The label is animated*/
 866:Drivers/lvgl/src/widgets/roller/lv_roller.c ****     inf_normalize(obj);
 867:Drivers/lvgl/src/widgets/roller/lv_roller.c **** }
 868:Drivers/lvgl/src/widgets/roller/lv_roller.c **** 
 869:Drivers/lvgl/src/widgets/roller/lv_roller.c **** static void set_y_anim(void * obj, int32_t v)
 870:Drivers/lvgl/src/widgets/roller/lv_roller.c **** {
  29              		.loc 1 870 1 view -0
  30              		.cfi_startproc
  31              		@ args = 0, pretend = 0, frame = 0
  32              		@ frame_needed = 0, uses_anonymous_args = 0
  33              		.loc 1 870 1 is_stmt 0 view .LVU1
  34 0000 08B5     		push	{r3, lr}
  35              	.LCFI0:
  36              		.cfi_def_cfa_offset 8
  37              		.cfi_offset 3, -8
  38              		.cfi_offset 14, -4
 871:Drivers/lvgl/src/widgets/roller/lv_roller.c ****     lv_obj_set_y(obj, v);
  39              		.loc 1 871 5 is_stmt 1 view .LVU2
  40 0002 FFF7FEFF 		bl	lv_obj_set_y
  41              	.LVL1:
 872:Drivers/lvgl/src/widgets/roller/lv_roller.c **** }
ARM GAS  /tmp/ccOwYixx.s 			page 17


  42              		.loc 1 872 1 is_stmt 0 view .LVU3
  43 0006 08BD     		pop	{r3, pc}
  44              		.cfi_endproc
  45              	.LFE210:
  47              		.section	.text.transform_vect_recursive,"ax",%progbits
  48              		.align	1
  49              		.syntax unified
  50              		.thumb
  51              		.thumb_func
  53              	transform_vect_recursive:
  54              	.LVL2:
  55              	.LFB211:
 873:Drivers/lvgl/src/widgets/roller/lv_roller.c **** 
 874:Drivers/lvgl/src/widgets/roller/lv_roller.c **** static void transform_vect_recursive(lv_obj_t * roller, lv_point_t * vect)
 875:Drivers/lvgl/src/widgets/roller/lv_roller.c **** {
  56              		.loc 1 875 1 is_stmt 1 view -0
  57              		.cfi_startproc
  58              		@ args = 0, pretend = 0, frame = 16
  59              		@ frame_needed = 0, uses_anonymous_args = 0
  60              		.loc 1 875 1 is_stmt 0 view .LVU5
  61 0000 2DE9F043 		push	{r4, r5, r6, r7, r8, r9, lr}
  62              	.LCFI1:
  63              		.cfi_def_cfa_offset 28
  64              		.cfi_offset 4, -28
  65              		.cfi_offset 5, -24
  66              		.cfi_offset 6, -20
  67              		.cfi_offset 7, -16
  68              		.cfi_offset 8, -12
  69              		.cfi_offset 9, -8
  70              		.cfi_offset 14, -4
  71 0004 87B0     		sub	sp, sp, #28
  72              	.LCFI2:
  73              		.cfi_def_cfa_offset 56
  74 0006 0546     		mov	r5, r0
  75 0008 8846     		mov	r8, r1
 876:Drivers/lvgl/src/widgets/roller/lv_roller.c ****     int16_t angle = 0;
  76              		.loc 1 876 5 is_stmt 1 view .LVU6
  77              	.LVL3:
 877:Drivers/lvgl/src/widgets/roller/lv_roller.c ****     int32_t scale_x = 256;
  78              		.loc 1 877 5 view .LVU7
 878:Drivers/lvgl/src/widgets/roller/lv_roller.c ****     int32_t scale_y = 256;
  79              		.loc 1 878 5 view .LVU8
 879:Drivers/lvgl/src/widgets/roller/lv_roller.c ****     lv_obj_t * parent = roller;
  80              		.loc 1 879 5 view .LVU9
 880:Drivers/lvgl/src/widgets/roller/lv_roller.c ****     while(parent) {
  81              		.loc 1 880 5 view .LVU10
 878:Drivers/lvgl/src/widgets/roller/lv_roller.c ****     int32_t scale_y = 256;
  82              		.loc 1 878 13 is_stmt 0 view .LVU11
  83 000a 4FF48079 		mov	r9, #256
 877:Drivers/lvgl/src/widgets/roller/lv_roller.c ****     int32_t scale_y = 256;
  84              		.loc 1 877 13 view .LVU12
  85 000e 4E46     		mov	r6, r9
 876:Drivers/lvgl/src/widgets/roller/lv_roller.c ****     int32_t scale_x = 256;
  86              		.loc 1 876 13 view .LVU13
  87 0010 0027     		movs	r7, #0
  88              		.loc 1 880 10 view .LVU14
  89 0012 25E0     		b	.L4
ARM GAS  /tmp/ccOwYixx.s 			page 18


  90              	.LVL4:
  91              	.L5:
  92              	.LBB70:
 881:Drivers/lvgl/src/widgets/roller/lv_roller.c ****         angle += lv_obj_get_style_transform_rotation(parent, 0);
  93              		.loc 1 881 9 is_stmt 1 view .LVU15
  94              	.LBB71:
  95              	.LBI71:
  96              		.file 2 "Drivers/lvgl/src/widgets/roller/../../core/lv_obj_style_gen.h"
   1:Drivers/lvgl/src/widgets/roller/../../core/lv_obj_style_gen.h **** 
   2:Drivers/lvgl/src/widgets/roller/../../core/lv_obj_style_gen.h **** /*
   3:Drivers/lvgl/src/widgets/roller/../../core/lv_obj_style_gen.h ****  **********************************************************************
   4:Drivers/lvgl/src/widgets/roller/../../core/lv_obj_style_gen.h ****  *                            DO NOT EDIT
   5:Drivers/lvgl/src/widgets/roller/../../core/lv_obj_style_gen.h ****  * This file is automatically generated by "style_api_gen.py"
   6:Drivers/lvgl/src/widgets/roller/../../core/lv_obj_style_gen.h ****  **********************************************************************
   7:Drivers/lvgl/src/widgets/roller/../../core/lv_obj_style_gen.h ****  */
   8:Drivers/lvgl/src/widgets/roller/../../core/lv_obj_style_gen.h **** 
   9:Drivers/lvgl/src/widgets/roller/../../core/lv_obj_style_gen.h **** 
  10:Drivers/lvgl/src/widgets/roller/../../core/lv_obj_style_gen.h **** #ifndef LV_OBJ_STYLE_GEN_H
  11:Drivers/lvgl/src/widgets/roller/../../core/lv_obj_style_gen.h **** #define LV_OBJ_STYLE_GEN_H
  12:Drivers/lvgl/src/widgets/roller/../../core/lv_obj_style_gen.h **** 
  13:Drivers/lvgl/src/widgets/roller/../../core/lv_obj_style_gen.h **** #ifdef __cplusplus
  14:Drivers/lvgl/src/widgets/roller/../../core/lv_obj_style_gen.h **** extern "C" {
  15:Drivers/lvgl/src/widgets/roller/../../core/lv_obj_style_gen.h **** #endif
  16:Drivers/lvgl/src/widgets/roller/../../core/lv_obj_style_gen.h **** 
  17:Drivers/lvgl/src/widgets/roller/../../core/lv_obj_style_gen.h **** #include "../misc/lv_area.h"
  18:Drivers/lvgl/src/widgets/roller/../../core/lv_obj_style_gen.h **** #include "../misc/lv_style.h"
  19:Drivers/lvgl/src/widgets/roller/../../core/lv_obj_style_gen.h **** #include "../core/lv_obj_style.h"
  20:Drivers/lvgl/src/widgets/roller/../../core/lv_obj_style_gen.h **** #include "../misc/lv_types.h"
  21:Drivers/lvgl/src/widgets/roller/../../core/lv_obj_style_gen.h **** 
  22:Drivers/lvgl/src/widgets/roller/../../core/lv_obj_style_gen.h **** static inline int32_t lv_obj_get_style_width(const lv_obj_t * obj, lv_part_t part)
  23:Drivers/lvgl/src/widgets/roller/../../core/lv_obj_style_gen.h **** {
  24:Drivers/lvgl/src/widgets/roller/../../core/lv_obj_style_gen.h ****     lv_style_value_t v = lv_obj_get_style_prop(obj, part, LV_STYLE_WIDTH);
  25:Drivers/lvgl/src/widgets/roller/../../core/lv_obj_style_gen.h ****     return (int32_t)v.num;
  26:Drivers/lvgl/src/widgets/roller/../../core/lv_obj_style_gen.h **** }
  27:Drivers/lvgl/src/widgets/roller/../../core/lv_obj_style_gen.h **** 
  28:Drivers/lvgl/src/widgets/roller/../../core/lv_obj_style_gen.h **** static inline int32_t lv_obj_get_style_min_width(const lv_obj_t * obj, lv_part_t part)
  29:Drivers/lvgl/src/widgets/roller/../../core/lv_obj_style_gen.h **** {
  30:Drivers/lvgl/src/widgets/roller/../../core/lv_obj_style_gen.h ****     lv_style_value_t v = lv_obj_get_style_prop(obj, part, LV_STYLE_MIN_WIDTH);
  31:Drivers/lvgl/src/widgets/roller/../../core/lv_obj_style_gen.h ****     return (int32_t)v.num;
  32:Drivers/lvgl/src/widgets/roller/../../core/lv_obj_style_gen.h **** }
  33:Drivers/lvgl/src/widgets/roller/../../core/lv_obj_style_gen.h **** 
  34:Drivers/lvgl/src/widgets/roller/../../core/lv_obj_style_gen.h **** static inline int32_t lv_obj_get_style_max_width(const lv_obj_t * obj, lv_part_t part)
  35:Drivers/lvgl/src/widgets/roller/../../core/lv_obj_style_gen.h **** {
  36:Drivers/lvgl/src/widgets/roller/../../core/lv_obj_style_gen.h ****     lv_style_value_t v = lv_obj_get_style_prop(obj, part, LV_STYLE_MAX_WIDTH);
  37:Drivers/lvgl/src/widgets/roller/../../core/lv_obj_style_gen.h ****     return (int32_t)v.num;
  38:Drivers/lvgl/src/widgets/roller/../../core/lv_obj_style_gen.h **** }
  39:Drivers/lvgl/src/widgets/roller/../../core/lv_obj_style_gen.h **** 
  40:Drivers/lvgl/src/widgets/roller/../../core/lv_obj_style_gen.h **** static inline int32_t lv_obj_get_style_height(const lv_obj_t * obj, lv_part_t part)
  41:Drivers/lvgl/src/widgets/roller/../../core/lv_obj_style_gen.h **** {
  42:Drivers/lvgl/src/widgets/roller/../../core/lv_obj_style_gen.h ****     lv_style_value_t v = lv_obj_get_style_prop(obj, part, LV_STYLE_HEIGHT);
  43:Drivers/lvgl/src/widgets/roller/../../core/lv_obj_style_gen.h ****     return (int32_t)v.num;
  44:Drivers/lvgl/src/widgets/roller/../../core/lv_obj_style_gen.h **** }
  45:Drivers/lvgl/src/widgets/roller/../../core/lv_obj_style_gen.h **** 
  46:Drivers/lvgl/src/widgets/roller/../../core/lv_obj_style_gen.h **** static inline int32_t lv_obj_get_style_min_height(const lv_obj_t * obj, lv_part_t part)
  47:Drivers/lvgl/src/widgets/roller/../../core/lv_obj_style_gen.h **** {
  48:Drivers/lvgl/src/widgets/roller/../../core/lv_obj_style_gen.h ****     lv_style_value_t v = lv_obj_get_style_prop(obj, part, LV_STYLE_MIN_HEIGHT);
  49:Drivers/lvgl/src/widgets/roller/../../core/lv_obj_style_gen.h ****     return (int32_t)v.num;
ARM GAS  /tmp/ccOwYixx.s 			page 19


  50:Drivers/lvgl/src/widgets/roller/../../core/lv_obj_style_gen.h **** }
  51:Drivers/lvgl/src/widgets/roller/../../core/lv_obj_style_gen.h **** 
  52:Drivers/lvgl/src/widgets/roller/../../core/lv_obj_style_gen.h **** static inline int32_t lv_obj_get_style_max_height(const lv_obj_t * obj, lv_part_t part)
  53:Drivers/lvgl/src/widgets/roller/../../core/lv_obj_style_gen.h **** {
  54:Drivers/lvgl/src/widgets/roller/../../core/lv_obj_style_gen.h ****     lv_style_value_t v = lv_obj_get_style_prop(obj, part, LV_STYLE_MAX_HEIGHT);
  55:Drivers/lvgl/src/widgets/roller/../../core/lv_obj_style_gen.h ****     return (int32_t)v.num;
  56:Drivers/lvgl/src/widgets/roller/../../core/lv_obj_style_gen.h **** }
  57:Drivers/lvgl/src/widgets/roller/../../core/lv_obj_style_gen.h **** 
  58:Drivers/lvgl/src/widgets/roller/../../core/lv_obj_style_gen.h **** static inline int32_t lv_obj_get_style_length(const lv_obj_t * obj, lv_part_t part)
  59:Drivers/lvgl/src/widgets/roller/../../core/lv_obj_style_gen.h **** {
  60:Drivers/lvgl/src/widgets/roller/../../core/lv_obj_style_gen.h ****     lv_style_value_t v = lv_obj_get_style_prop(obj, part, LV_STYLE_LENGTH);
  61:Drivers/lvgl/src/widgets/roller/../../core/lv_obj_style_gen.h ****     return (int32_t)v.num;
  62:Drivers/lvgl/src/widgets/roller/../../core/lv_obj_style_gen.h **** }
  63:Drivers/lvgl/src/widgets/roller/../../core/lv_obj_style_gen.h **** 
  64:Drivers/lvgl/src/widgets/roller/../../core/lv_obj_style_gen.h **** static inline int32_t lv_obj_get_style_x(const lv_obj_t * obj, lv_part_t part)
  65:Drivers/lvgl/src/widgets/roller/../../core/lv_obj_style_gen.h **** {
  66:Drivers/lvgl/src/widgets/roller/../../core/lv_obj_style_gen.h ****     lv_style_value_t v = lv_obj_get_style_prop(obj, part, LV_STYLE_X);
  67:Drivers/lvgl/src/widgets/roller/../../core/lv_obj_style_gen.h ****     return (int32_t)v.num;
  68:Drivers/lvgl/src/widgets/roller/../../core/lv_obj_style_gen.h **** }
  69:Drivers/lvgl/src/widgets/roller/../../core/lv_obj_style_gen.h **** 
  70:Drivers/lvgl/src/widgets/roller/../../core/lv_obj_style_gen.h **** static inline int32_t lv_obj_get_style_y(const lv_obj_t * obj, lv_part_t part)
  71:Drivers/lvgl/src/widgets/roller/../../core/lv_obj_style_gen.h **** {
  72:Drivers/lvgl/src/widgets/roller/../../core/lv_obj_style_gen.h ****     lv_style_value_t v = lv_obj_get_style_prop(obj, part, LV_STYLE_Y);
  73:Drivers/lvgl/src/widgets/roller/../../core/lv_obj_style_gen.h ****     return (int32_t)v.num;
  74:Drivers/lvgl/src/widgets/roller/../../core/lv_obj_style_gen.h **** }
  75:Drivers/lvgl/src/widgets/roller/../../core/lv_obj_style_gen.h **** 
  76:Drivers/lvgl/src/widgets/roller/../../core/lv_obj_style_gen.h **** static inline lv_align_t lv_obj_get_style_align(const lv_obj_t * obj, lv_part_t part)
  77:Drivers/lvgl/src/widgets/roller/../../core/lv_obj_style_gen.h **** {
  78:Drivers/lvgl/src/widgets/roller/../../core/lv_obj_style_gen.h ****     lv_style_value_t v = lv_obj_get_style_prop(obj, part, LV_STYLE_ALIGN);
  79:Drivers/lvgl/src/widgets/roller/../../core/lv_obj_style_gen.h ****     return (lv_align_t)v.num;
  80:Drivers/lvgl/src/widgets/roller/../../core/lv_obj_style_gen.h **** }
  81:Drivers/lvgl/src/widgets/roller/../../core/lv_obj_style_gen.h **** 
  82:Drivers/lvgl/src/widgets/roller/../../core/lv_obj_style_gen.h **** static inline int32_t lv_obj_get_style_transform_width(const lv_obj_t * obj, lv_part_t part)
  83:Drivers/lvgl/src/widgets/roller/../../core/lv_obj_style_gen.h **** {
  84:Drivers/lvgl/src/widgets/roller/../../core/lv_obj_style_gen.h ****     lv_style_value_t v = lv_obj_get_style_prop(obj, part, LV_STYLE_TRANSFORM_WIDTH);
  85:Drivers/lvgl/src/widgets/roller/../../core/lv_obj_style_gen.h ****     return (int32_t)v.num;
  86:Drivers/lvgl/src/widgets/roller/../../core/lv_obj_style_gen.h **** }
  87:Drivers/lvgl/src/widgets/roller/../../core/lv_obj_style_gen.h **** 
  88:Drivers/lvgl/src/widgets/roller/../../core/lv_obj_style_gen.h **** static inline int32_t lv_obj_get_style_transform_height(const lv_obj_t * obj, lv_part_t part)
  89:Drivers/lvgl/src/widgets/roller/../../core/lv_obj_style_gen.h **** {
  90:Drivers/lvgl/src/widgets/roller/../../core/lv_obj_style_gen.h ****     lv_style_value_t v = lv_obj_get_style_prop(obj, part, LV_STYLE_TRANSFORM_HEIGHT);
  91:Drivers/lvgl/src/widgets/roller/../../core/lv_obj_style_gen.h ****     return (int32_t)v.num;
  92:Drivers/lvgl/src/widgets/roller/../../core/lv_obj_style_gen.h **** }
  93:Drivers/lvgl/src/widgets/roller/../../core/lv_obj_style_gen.h **** 
  94:Drivers/lvgl/src/widgets/roller/../../core/lv_obj_style_gen.h **** static inline int32_t lv_obj_get_style_translate_x(const lv_obj_t * obj, lv_part_t part)
  95:Drivers/lvgl/src/widgets/roller/../../core/lv_obj_style_gen.h **** {
  96:Drivers/lvgl/src/widgets/roller/../../core/lv_obj_style_gen.h ****     lv_style_value_t v = lv_obj_get_style_prop(obj, part, LV_STYLE_TRANSLATE_X);
  97:Drivers/lvgl/src/widgets/roller/../../core/lv_obj_style_gen.h ****     return (int32_t)v.num;
  98:Drivers/lvgl/src/widgets/roller/../../core/lv_obj_style_gen.h **** }
  99:Drivers/lvgl/src/widgets/roller/../../core/lv_obj_style_gen.h **** 
 100:Drivers/lvgl/src/widgets/roller/../../core/lv_obj_style_gen.h **** static inline int32_t lv_obj_get_style_translate_y(const lv_obj_t * obj, lv_part_t part)
 101:Drivers/lvgl/src/widgets/roller/../../core/lv_obj_style_gen.h **** {
 102:Drivers/lvgl/src/widgets/roller/../../core/lv_obj_style_gen.h ****     lv_style_value_t v = lv_obj_get_style_prop(obj, part, LV_STYLE_TRANSLATE_Y);
 103:Drivers/lvgl/src/widgets/roller/../../core/lv_obj_style_gen.h ****     return (int32_t)v.num;
 104:Drivers/lvgl/src/widgets/roller/../../core/lv_obj_style_gen.h **** }
 105:Drivers/lvgl/src/widgets/roller/../../core/lv_obj_style_gen.h **** 
 106:Drivers/lvgl/src/widgets/roller/../../core/lv_obj_style_gen.h **** static inline int32_t lv_obj_get_style_translate_radial(const lv_obj_t * obj, lv_part_t part)
ARM GAS  /tmp/ccOwYixx.s 			page 20


 107:Drivers/lvgl/src/widgets/roller/../../core/lv_obj_style_gen.h **** {
 108:Drivers/lvgl/src/widgets/roller/../../core/lv_obj_style_gen.h ****     lv_style_value_t v = lv_obj_get_style_prop(obj, part, LV_STYLE_TRANSLATE_RADIAL);
 109:Drivers/lvgl/src/widgets/roller/../../core/lv_obj_style_gen.h ****     return (int32_t)v.num;
 110:Drivers/lvgl/src/widgets/roller/../../core/lv_obj_style_gen.h **** }
 111:Drivers/lvgl/src/widgets/roller/../../core/lv_obj_style_gen.h **** 
 112:Drivers/lvgl/src/widgets/roller/../../core/lv_obj_style_gen.h **** static inline int32_t lv_obj_get_style_transform_scale_x(const lv_obj_t * obj, lv_part_t part)
 113:Drivers/lvgl/src/widgets/roller/../../core/lv_obj_style_gen.h **** {
 114:Drivers/lvgl/src/widgets/roller/../../core/lv_obj_style_gen.h ****     lv_style_value_t v = lv_obj_get_style_prop(obj, part, LV_STYLE_TRANSFORM_SCALE_X);
 115:Drivers/lvgl/src/widgets/roller/../../core/lv_obj_style_gen.h ****     return (int32_t)v.num;
 116:Drivers/lvgl/src/widgets/roller/../../core/lv_obj_style_gen.h **** }
 117:Drivers/lvgl/src/widgets/roller/../../core/lv_obj_style_gen.h **** 
 118:Drivers/lvgl/src/widgets/roller/../../core/lv_obj_style_gen.h **** static inline int32_t lv_obj_get_style_transform_scale_y(const lv_obj_t * obj, lv_part_t part)
 119:Drivers/lvgl/src/widgets/roller/../../core/lv_obj_style_gen.h **** {
 120:Drivers/lvgl/src/widgets/roller/../../core/lv_obj_style_gen.h ****     lv_style_value_t v = lv_obj_get_style_prop(obj, part, LV_STYLE_TRANSFORM_SCALE_Y);
 121:Drivers/lvgl/src/widgets/roller/../../core/lv_obj_style_gen.h ****     return (int32_t)v.num;
 122:Drivers/lvgl/src/widgets/roller/../../core/lv_obj_style_gen.h **** }
 123:Drivers/lvgl/src/widgets/roller/../../core/lv_obj_style_gen.h **** 
 124:Drivers/lvgl/src/widgets/roller/../../core/lv_obj_style_gen.h **** static inline int32_t lv_obj_get_style_transform_rotation(const lv_obj_t * obj, lv_part_t part)
  97              		.loc 2 124 23 view .LVU16
  98              	.LBB72:
 125:Drivers/lvgl/src/widgets/roller/../../core/lv_obj_style_gen.h **** {
 126:Drivers/lvgl/src/widgets/roller/../../core/lv_obj_style_gen.h ****     lv_style_value_t v = lv_obj_get_style_prop(obj, part, LV_STYLE_TRANSFORM_ROTATION);
  99              		.loc 2 126 5 view .LVU17
 100              		.loc 2 126 26 is_stmt 0 view .LVU18
 101 0014 7022     		movs	r2, #112
 102 0016 0021     		movs	r1, #0
 103 0018 2846     		mov	r0, r5
 104 001a FFF7FEFF 		bl	lv_obj_get_style_prop
 105              	.LVL5:
 106 001e 0390     		str	r0, [sp, #12]
 127:Drivers/lvgl/src/widgets/roller/../../core/lv_obj_style_gen.h ****     return (int32_t)v.num;
 107              		.loc 2 127 5 is_stmt 1 view .LVU19
 108              	.LVL6:
 109              		.loc 2 127 5 is_stmt 0 view .LVU20
 110              	.LBE72:
 111              	.LBE71:
 112              		.loc 1 881 15 discriminator 1 view .LVU21
 113 0020 3844     		add	r0, r0, r7
 114 0022 07B2     		sxth	r7, r0
 115              	.LVL7:
 882:Drivers/lvgl/src/widgets/roller/lv_roller.c ****         int32_t zoom_act_x = lv_obj_get_style_transform_scale_x_safe(parent, 0);
 116              		.loc 1 882 9 is_stmt 1 view .LVU22
 117              	.LBB73:
 118              	.LBI73:
 119              		.file 3 "Drivers/lvgl/src/widgets/roller/../../core/lv_obj_style.h"
   1:Drivers/lvgl/src/widgets/roller/../../core/lv_obj_style.h **** /**
   2:Drivers/lvgl/src/widgets/roller/../../core/lv_obj_style.h ****  * @file lv_obj_style.h
   3:Drivers/lvgl/src/widgets/roller/../../core/lv_obj_style.h ****  *
   4:Drivers/lvgl/src/widgets/roller/../../core/lv_obj_style.h ****  */
   5:Drivers/lvgl/src/widgets/roller/../../core/lv_obj_style.h **** 
   6:Drivers/lvgl/src/widgets/roller/../../core/lv_obj_style.h **** #ifndef LV_OBJ_STYLE_H
   7:Drivers/lvgl/src/widgets/roller/../../core/lv_obj_style.h **** #define LV_OBJ_STYLE_H
   8:Drivers/lvgl/src/widgets/roller/../../core/lv_obj_style.h **** 
   9:Drivers/lvgl/src/widgets/roller/../../core/lv_obj_style.h **** #ifdef __cplusplus
  10:Drivers/lvgl/src/widgets/roller/../../core/lv_obj_style.h **** extern "C" {
  11:Drivers/lvgl/src/widgets/roller/../../core/lv_obj_style.h **** #endif
  12:Drivers/lvgl/src/widgets/roller/../../core/lv_obj_style.h **** 
ARM GAS  /tmp/ccOwYixx.s 			page 21


  13:Drivers/lvgl/src/widgets/roller/../../core/lv_obj_style.h **** /*********************
  14:Drivers/lvgl/src/widgets/roller/../../core/lv_obj_style.h ****  *      INCLUDES
  15:Drivers/lvgl/src/widgets/roller/../../core/lv_obj_style.h ****  *********************/
  16:Drivers/lvgl/src/widgets/roller/../../core/lv_obj_style.h **** #include "../misc/lv_bidi.h"
  17:Drivers/lvgl/src/widgets/roller/../../core/lv_obj_style.h **** #include "../misc/lv_style.h"
  18:Drivers/lvgl/src/widgets/roller/../../core/lv_obj_style.h **** #include "../misc/lv_types.h"
  19:Drivers/lvgl/src/widgets/roller/../../core/lv_obj_style.h **** 
  20:Drivers/lvgl/src/widgets/roller/../../core/lv_obj_style.h **** /*********************
  21:Drivers/lvgl/src/widgets/roller/../../core/lv_obj_style.h ****  *      DEFINES
  22:Drivers/lvgl/src/widgets/roller/../../core/lv_obj_style.h ****  *********************/
  23:Drivers/lvgl/src/widgets/roller/../../core/lv_obj_style.h **** 
  24:Drivers/lvgl/src/widgets/roller/../../core/lv_obj_style.h **** /**********************
  25:Drivers/lvgl/src/widgets/roller/../../core/lv_obj_style.h ****  *      TYPEDEFS
  26:Drivers/lvgl/src/widgets/roller/../../core/lv_obj_style.h ****  **********************/
  27:Drivers/lvgl/src/widgets/roller/../../core/lv_obj_style.h **** 
  28:Drivers/lvgl/src/widgets/roller/../../core/lv_obj_style.h **** typedef enum {
  29:Drivers/lvgl/src/widgets/roller/../../core/lv_obj_style.h ****     LV_STYLE_STATE_CMP_SAME,           /**< The style properties in the 2 states are identical */
  30:Drivers/lvgl/src/widgets/roller/../../core/lv_obj_style.h ****     LV_STYLE_STATE_CMP_DIFF_REDRAW,    /**< The differences can be shown with a simple redraw */
  31:Drivers/lvgl/src/widgets/roller/../../core/lv_obj_style.h ****     LV_STYLE_STATE_CMP_DIFF_DRAW_PAD,  /**< The differences can be shown with a simple redraw */
  32:Drivers/lvgl/src/widgets/roller/../../core/lv_obj_style.h ****     LV_STYLE_STATE_CMP_DIFF_LAYOUT,    /**< The differences can be shown with a simple redraw */
  33:Drivers/lvgl/src/widgets/roller/../../core/lv_obj_style.h **** } lv_style_state_cmp_t;
  34:Drivers/lvgl/src/widgets/roller/../../core/lv_obj_style.h **** 
  35:Drivers/lvgl/src/widgets/roller/../../core/lv_obj_style.h **** typedef uint32_t lv_style_selector_t;
  36:Drivers/lvgl/src/widgets/roller/../../core/lv_obj_style.h **** 
  37:Drivers/lvgl/src/widgets/roller/../../core/lv_obj_style.h **** /**********************
  38:Drivers/lvgl/src/widgets/roller/../../core/lv_obj_style.h ****  * GLOBAL PROTOTYPES
  39:Drivers/lvgl/src/widgets/roller/../../core/lv_obj_style.h ****  **********************/
  40:Drivers/lvgl/src/widgets/roller/../../core/lv_obj_style.h **** 
  41:Drivers/lvgl/src/widgets/roller/../../core/lv_obj_style.h **** /**
  42:Drivers/lvgl/src/widgets/roller/../../core/lv_obj_style.h ****  * Add a style to an object.
  43:Drivers/lvgl/src/widgets/roller/../../core/lv_obj_style.h ****  * @param obj       pointer to an object
  44:Drivers/lvgl/src/widgets/roller/../../core/lv_obj_style.h ****  * @param style     pointer to a style to add
  45:Drivers/lvgl/src/widgets/roller/../../core/lv_obj_style.h ****  * @param selector  OR-ed value of parts and state to which the style should be added
  46:Drivers/lvgl/src/widgets/roller/../../core/lv_obj_style.h ****  *
  47:Drivers/lvgl/src/widgets/roller/../../core/lv_obj_style.h ****  * Examples:
  48:Drivers/lvgl/src/widgets/roller/../../core/lv_obj_style.h ****  * @code
  49:Drivers/lvgl/src/widgets/roller/../../core/lv_obj_style.h ****  * lv_obj_add_style(btn, &style_btn, 0); //Default button style
  50:Drivers/lvgl/src/widgets/roller/../../core/lv_obj_style.h ****  *
  51:Drivers/lvgl/src/widgets/roller/../../core/lv_obj_style.h ****  * lv_obj_add_style(btn, &btn_red, LV_STATE_PRESSED); //Overwrite only some colors to red when pres
  52:Drivers/lvgl/src/widgets/roller/../../core/lv_obj_style.h ****  * @endcode
  53:Drivers/lvgl/src/widgets/roller/../../core/lv_obj_style.h ****  */
  54:Drivers/lvgl/src/widgets/roller/../../core/lv_obj_style.h **** void lv_obj_add_style(lv_obj_t * obj, const lv_style_t * style, lv_style_selector_t selector);
  55:Drivers/lvgl/src/widgets/roller/../../core/lv_obj_style.h **** 
  56:Drivers/lvgl/src/widgets/roller/../../core/lv_obj_style.h **** /**
  57:Drivers/lvgl/src/widgets/roller/../../core/lv_obj_style.h ****  * Replaces a style of an object, preserving the order of the style stack (local styles and transit
  58:Drivers/lvgl/src/widgets/roller/../../core/lv_obj_style.h ****  * @param obj           pointer to an object
  59:Drivers/lvgl/src/widgets/roller/../../core/lv_obj_style.h ****  * @param old_style     pointer to a style to replace.
  60:Drivers/lvgl/src/widgets/roller/../../core/lv_obj_style.h ****  * @param new_style     pointer to a style to replace the old style with.
  61:Drivers/lvgl/src/widgets/roller/../../core/lv_obj_style.h ****  * @param selector      OR-ed values of states and a part to replace only styles with matching sele
  62:Drivers/lvgl/src/widgets/roller/../../core/lv_obj_style.h ****  *
  63:Drivers/lvgl/src/widgets/roller/../../core/lv_obj_style.h ****  * Examples:
  64:Drivers/lvgl/src/widgets/roller/../../core/lv_obj_style.h ****  * @code
  65:Drivers/lvgl/src/widgets/roller/../../core/lv_obj_style.h ****  * lv_obj_replace_style(obj, &yellow_style, &blue_style, LV_PART_ANY | LV_STATE_ANY); //Replace a s
  66:Drivers/lvgl/src/widgets/roller/../../core/lv_obj_style.h ****  *
  67:Drivers/lvgl/src/widgets/roller/../../core/lv_obj_style.h ****  * lv_obj_replace_style(obj, &yellow_style, &blue_style, LV_PART_MAIN | LV_STATE_PRESSED); //Replac
  68:Drivers/lvgl/src/widgets/roller/../../core/lv_obj_style.h ****  * @endcode
  69:Drivers/lvgl/src/widgets/roller/../../core/lv_obj_style.h ****  */
ARM GAS  /tmp/ccOwYixx.s 			page 22


  70:Drivers/lvgl/src/widgets/roller/../../core/lv_obj_style.h **** bool lv_obj_replace_style(lv_obj_t * obj, const lv_style_t * old_style, const lv_style_t * new_styl
  71:Drivers/lvgl/src/widgets/roller/../../core/lv_obj_style.h ****                           lv_style_selector_t selector);
  72:Drivers/lvgl/src/widgets/roller/../../core/lv_obj_style.h **** 
  73:Drivers/lvgl/src/widgets/roller/../../core/lv_obj_style.h **** /**
  74:Drivers/lvgl/src/widgets/roller/../../core/lv_obj_style.h ****  * Remove a style from an object.
  75:Drivers/lvgl/src/widgets/roller/../../core/lv_obj_style.h ****  * @param obj       pointer to an object
  76:Drivers/lvgl/src/widgets/roller/../../core/lv_obj_style.h ****  * @param style     pointer to a style to remove. Can be NULL to check only the selector
  77:Drivers/lvgl/src/widgets/roller/../../core/lv_obj_style.h ****  * @param selector  OR-ed values of states and a part to remove only styles with matching selectors
  78:Drivers/lvgl/src/widgets/roller/../../core/lv_obj_style.h ****  *
  79:Drivers/lvgl/src/widgets/roller/../../core/lv_obj_style.h ****  * Examples:
  80:Drivers/lvgl/src/widgets/roller/../../core/lv_obj_style.h ****  * @code
  81:Drivers/lvgl/src/widgets/roller/../../core/lv_obj_style.h ****  * lv_obj_remove_style(obj, &style, LV_PART_ANY | LV_STATE_ANY); //Remove a specific style
  82:Drivers/lvgl/src/widgets/roller/../../core/lv_obj_style.h ****  *
  83:Drivers/lvgl/src/widgets/roller/../../core/lv_obj_style.h ****  * lv_obj_remove_style(obj, NULL, LV_PART_MAIN | LV_STATE_ANY); //Remove all styles from the main p
  84:Drivers/lvgl/src/widgets/roller/../../core/lv_obj_style.h ****  *
  85:Drivers/lvgl/src/widgets/roller/../../core/lv_obj_style.h ****  * lv_obj_remove_style(obj, NULL, LV_PART_ANY | LV_STATE_ANY); //Remove all styles
  86:Drivers/lvgl/src/widgets/roller/../../core/lv_obj_style.h ****  * @endcode
  87:Drivers/lvgl/src/widgets/roller/../../core/lv_obj_style.h ****  */
  88:Drivers/lvgl/src/widgets/roller/../../core/lv_obj_style.h **** void lv_obj_remove_style(lv_obj_t * obj, const lv_style_t * style, lv_style_selector_t selector);
  89:Drivers/lvgl/src/widgets/roller/../../core/lv_obj_style.h **** 
  90:Drivers/lvgl/src/widgets/roller/../../core/lv_obj_style.h **** /**
  91:Drivers/lvgl/src/widgets/roller/../../core/lv_obj_style.h ****  * Remove all styles from an object
  92:Drivers/lvgl/src/widgets/roller/../../core/lv_obj_style.h ****  * @param obj       pointer to an object
  93:Drivers/lvgl/src/widgets/roller/../../core/lv_obj_style.h ****  */
  94:Drivers/lvgl/src/widgets/roller/../../core/lv_obj_style.h **** void lv_obj_remove_style_all(lv_obj_t * obj);
  95:Drivers/lvgl/src/widgets/roller/../../core/lv_obj_style.h **** 
  96:Drivers/lvgl/src/widgets/roller/../../core/lv_obj_style.h **** /**
  97:Drivers/lvgl/src/widgets/roller/../../core/lv_obj_style.h ****  * Notify all object if a style is modified
  98:Drivers/lvgl/src/widgets/roller/../../core/lv_obj_style.h ****  * @param style     pointer to a style. Only the objects with this style will be notified
  99:Drivers/lvgl/src/widgets/roller/../../core/lv_obj_style.h ****  *                  (NULL to notify all objects)
 100:Drivers/lvgl/src/widgets/roller/../../core/lv_obj_style.h ****  */
 101:Drivers/lvgl/src/widgets/roller/../../core/lv_obj_style.h **** void lv_obj_report_style_change(lv_style_t * style);
 102:Drivers/lvgl/src/widgets/roller/../../core/lv_obj_style.h **** 
 103:Drivers/lvgl/src/widgets/roller/../../core/lv_obj_style.h **** /**
 104:Drivers/lvgl/src/widgets/roller/../../core/lv_obj_style.h ****  * Notify an object and its children about its style is modified.
 105:Drivers/lvgl/src/widgets/roller/../../core/lv_obj_style.h ****  * @param obj       pointer to an object
 106:Drivers/lvgl/src/widgets/roller/../../core/lv_obj_style.h ****  * @param part      the part whose style was changed. E.g. `LV_PART_ANY`, `LV_PART_MAIN`
 107:Drivers/lvgl/src/widgets/roller/../../core/lv_obj_style.h ****  * @param prop      `LV_STYLE_PROP_ANY` or an `LV_STYLE_...` property.
 108:Drivers/lvgl/src/widgets/roller/../../core/lv_obj_style.h ****  *                  It is used to optimize what needs to be refreshed.
 109:Drivers/lvgl/src/widgets/roller/../../core/lv_obj_style.h ****  *                  `LV_STYLE_PROP_INV` to perform only a style cache update
 110:Drivers/lvgl/src/widgets/roller/../../core/lv_obj_style.h ****  */
 111:Drivers/lvgl/src/widgets/roller/../../core/lv_obj_style.h **** void lv_obj_refresh_style(lv_obj_t * obj, lv_part_t part, lv_style_prop_t prop);
 112:Drivers/lvgl/src/widgets/roller/../../core/lv_obj_style.h **** 
 113:Drivers/lvgl/src/widgets/roller/../../core/lv_obj_style.h **** /**
 114:Drivers/lvgl/src/widgets/roller/../../core/lv_obj_style.h ****  * Enable or disable automatic style refreshing when a new style is added/removed to/from an object
 115:Drivers/lvgl/src/widgets/roller/../../core/lv_obj_style.h ****  * or any other style change happens.
 116:Drivers/lvgl/src/widgets/roller/../../core/lv_obj_style.h ****  * @param en        true: enable refreshing; false: disable refreshing
 117:Drivers/lvgl/src/widgets/roller/../../core/lv_obj_style.h ****  */
 118:Drivers/lvgl/src/widgets/roller/../../core/lv_obj_style.h **** void lv_obj_enable_style_refresh(bool en);
 119:Drivers/lvgl/src/widgets/roller/../../core/lv_obj_style.h **** 
 120:Drivers/lvgl/src/widgets/roller/../../core/lv_obj_style.h **** /**
 121:Drivers/lvgl/src/widgets/roller/../../core/lv_obj_style.h ****  * Get the value of a style property. The current state of the object will be considered.
 122:Drivers/lvgl/src/widgets/roller/../../core/lv_obj_style.h ****  * Inherited properties will be inherited.
 123:Drivers/lvgl/src/widgets/roller/../../core/lv_obj_style.h ****  * If a property is not set a default value will be returned.
 124:Drivers/lvgl/src/widgets/roller/../../core/lv_obj_style.h ****  * @param obj       pointer to an object
 125:Drivers/lvgl/src/widgets/roller/../../core/lv_obj_style.h ****  * @param part      a part from which the property should be get
 126:Drivers/lvgl/src/widgets/roller/../../core/lv_obj_style.h ****  * @param prop      the property to get
ARM GAS  /tmp/ccOwYixx.s 			page 23


 127:Drivers/lvgl/src/widgets/roller/../../core/lv_obj_style.h ****  * @return          the value of the property.
 128:Drivers/lvgl/src/widgets/roller/../../core/lv_obj_style.h ****  *                  Should be read from the correct field of the `lv_style_value_t` according to th
 129:Drivers/lvgl/src/widgets/roller/../../core/lv_obj_style.h ****  */
 130:Drivers/lvgl/src/widgets/roller/../../core/lv_obj_style.h **** lv_style_value_t lv_obj_get_style_prop(const lv_obj_t * obj, lv_part_t part, lv_style_prop_t prop);
 131:Drivers/lvgl/src/widgets/roller/../../core/lv_obj_style.h **** 
 132:Drivers/lvgl/src/widgets/roller/../../core/lv_obj_style.h **** /**
 133:Drivers/lvgl/src/widgets/roller/../../core/lv_obj_style.h ****  * Check if an object has a specified style property for a given style selector.
 134:Drivers/lvgl/src/widgets/roller/../../core/lv_obj_style.h ****  * @param obj       pointer to an object
 135:Drivers/lvgl/src/widgets/roller/../../core/lv_obj_style.h ****  * @param selector  the style selector to be checked, defining the scope of the style to be examine
 136:Drivers/lvgl/src/widgets/roller/../../core/lv_obj_style.h ****  * @param prop      the property to be checked.
 137:Drivers/lvgl/src/widgets/roller/../../core/lv_obj_style.h ****  * @return          true if the object has the specified selector and property, false otherwise.
 138:Drivers/lvgl/src/widgets/roller/../../core/lv_obj_style.h ****  */
 139:Drivers/lvgl/src/widgets/roller/../../core/lv_obj_style.h **** bool lv_obj_has_style_prop(const lv_obj_t * obj, lv_style_selector_t selector, lv_style_prop_t prop
 140:Drivers/lvgl/src/widgets/roller/../../core/lv_obj_style.h **** 
 141:Drivers/lvgl/src/widgets/roller/../../core/lv_obj_style.h **** /**
 142:Drivers/lvgl/src/widgets/roller/../../core/lv_obj_style.h ****  * Set local style property on an object's part and state.
 143:Drivers/lvgl/src/widgets/roller/../../core/lv_obj_style.h ****  * @param obj       pointer to an object
 144:Drivers/lvgl/src/widgets/roller/../../core/lv_obj_style.h ****  * @param prop      the property
 145:Drivers/lvgl/src/widgets/roller/../../core/lv_obj_style.h ****  * @param value     value of the property. The correct element should be set according to the type 
 146:Drivers/lvgl/src/widgets/roller/../../core/lv_obj_style.h ****  * @param selector  OR-ed value of parts and state for which the style should be set
 147:Drivers/lvgl/src/widgets/roller/../../core/lv_obj_style.h ****  */
 148:Drivers/lvgl/src/widgets/roller/../../core/lv_obj_style.h **** void lv_obj_set_local_style_prop(lv_obj_t * obj, lv_style_prop_t prop, lv_style_value_t value,
 149:Drivers/lvgl/src/widgets/roller/../../core/lv_obj_style.h ****                                  lv_style_selector_t selector);
 150:Drivers/lvgl/src/widgets/roller/../../core/lv_obj_style.h **** 
 151:Drivers/lvgl/src/widgets/roller/../../core/lv_obj_style.h **** lv_style_res_t lv_obj_get_local_style_prop(lv_obj_t * obj, lv_style_prop_t prop, lv_style_value_t *
 152:Drivers/lvgl/src/widgets/roller/../../core/lv_obj_style.h ****                                            lv_style_selector_t selector);
 153:Drivers/lvgl/src/widgets/roller/../../core/lv_obj_style.h **** 
 154:Drivers/lvgl/src/widgets/roller/../../core/lv_obj_style.h **** /**
 155:Drivers/lvgl/src/widgets/roller/../../core/lv_obj_style.h ****  * Remove a local style property from a part of an object with a given state.
 156:Drivers/lvgl/src/widgets/roller/../../core/lv_obj_style.h ****  * @param obj       pointer to an object
 157:Drivers/lvgl/src/widgets/roller/../../core/lv_obj_style.h ****  * @param prop      a style property to remove.
 158:Drivers/lvgl/src/widgets/roller/../../core/lv_obj_style.h ****  * @param selector  OR-ed value of parts and state for which the style should be removed
 159:Drivers/lvgl/src/widgets/roller/../../core/lv_obj_style.h ****  * @return true     the property was found and removed; false: the property was not found
 160:Drivers/lvgl/src/widgets/roller/../../core/lv_obj_style.h ****  */
 161:Drivers/lvgl/src/widgets/roller/../../core/lv_obj_style.h **** bool lv_obj_remove_local_style_prop(lv_obj_t * obj, lv_style_prop_t prop, lv_style_selector_t selec
 162:Drivers/lvgl/src/widgets/roller/../../core/lv_obj_style.h **** 
 163:Drivers/lvgl/src/widgets/roller/../../core/lv_obj_style.h **** /**
 164:Drivers/lvgl/src/widgets/roller/../../core/lv_obj_style.h ****  * Used internally for color filtering
 165:Drivers/lvgl/src/widgets/roller/../../core/lv_obj_style.h ****  */
 166:Drivers/lvgl/src/widgets/roller/../../core/lv_obj_style.h **** lv_style_value_t lv_obj_style_apply_color_filter(const lv_obj_t * obj, lv_part_t part, lv_style_val
 167:Drivers/lvgl/src/widgets/roller/../../core/lv_obj_style.h **** 
 168:Drivers/lvgl/src/widgets/roller/../../core/lv_obj_style.h **** /**
 169:Drivers/lvgl/src/widgets/roller/../../core/lv_obj_style.h ****  * Fade in an an object and all its children.
 170:Drivers/lvgl/src/widgets/roller/../../core/lv_obj_style.h ****  * @param obj       the object to fade in
 171:Drivers/lvgl/src/widgets/roller/../../core/lv_obj_style.h ****  * @param time      time of fade
 172:Drivers/lvgl/src/widgets/roller/../../core/lv_obj_style.h ****  * @param delay     delay to start the animation
 173:Drivers/lvgl/src/widgets/roller/../../core/lv_obj_style.h ****  */
 174:Drivers/lvgl/src/widgets/roller/../../core/lv_obj_style.h **** void lv_obj_fade_in(lv_obj_t * obj, uint32_t time, uint32_t delay);
 175:Drivers/lvgl/src/widgets/roller/../../core/lv_obj_style.h **** 
 176:Drivers/lvgl/src/widgets/roller/../../core/lv_obj_style.h **** /**
 177:Drivers/lvgl/src/widgets/roller/../../core/lv_obj_style.h ****  * Fade out an an object and all its children.
 178:Drivers/lvgl/src/widgets/roller/../../core/lv_obj_style.h ****  * @param obj       the object to fade out
 179:Drivers/lvgl/src/widgets/roller/../../core/lv_obj_style.h ****  * @param time      time of fade
 180:Drivers/lvgl/src/widgets/roller/../../core/lv_obj_style.h ****  * @param delay     delay to start the animation
 181:Drivers/lvgl/src/widgets/roller/../../core/lv_obj_style.h ****  */
 182:Drivers/lvgl/src/widgets/roller/../../core/lv_obj_style.h **** void lv_obj_fade_out(lv_obj_t * obj, uint32_t time, uint32_t delay);
 183:Drivers/lvgl/src/widgets/roller/../../core/lv_obj_style.h **** 
ARM GAS  /tmp/ccOwYixx.s 			page 24


 184:Drivers/lvgl/src/widgets/roller/../../core/lv_obj_style.h **** static inline lv_state_t lv_obj_style_get_selector_state(lv_style_selector_t selector)
 185:Drivers/lvgl/src/widgets/roller/../../core/lv_obj_style.h **** {
 186:Drivers/lvgl/src/widgets/roller/../../core/lv_obj_style.h ****     return selector & 0xFFFF;
 187:Drivers/lvgl/src/widgets/roller/../../core/lv_obj_style.h **** }
 188:Drivers/lvgl/src/widgets/roller/../../core/lv_obj_style.h **** 
 189:Drivers/lvgl/src/widgets/roller/../../core/lv_obj_style.h **** static inline lv_part_t lv_obj_style_get_selector_part(lv_style_selector_t selector)
 190:Drivers/lvgl/src/widgets/roller/../../core/lv_obj_style.h **** {
 191:Drivers/lvgl/src/widgets/roller/../../core/lv_obj_style.h ****     return selector & 0xFF0000;
 192:Drivers/lvgl/src/widgets/roller/../../core/lv_obj_style.h **** }
 193:Drivers/lvgl/src/widgets/roller/../../core/lv_obj_style.h **** 
 194:Drivers/lvgl/src/widgets/roller/../../core/lv_obj_style.h **** #include "lv_obj_style_gen.h"
 195:Drivers/lvgl/src/widgets/roller/../../core/lv_obj_style.h **** 
 196:Drivers/lvgl/src/widgets/roller/../../core/lv_obj_style.h **** static inline void lv_obj_set_style_pad_all(lv_obj_t * obj, int32_t value, lv_style_selector_t sele
 197:Drivers/lvgl/src/widgets/roller/../../core/lv_obj_style.h **** {
 198:Drivers/lvgl/src/widgets/roller/../../core/lv_obj_style.h ****     lv_obj_set_style_pad_left(obj, value, selector);
 199:Drivers/lvgl/src/widgets/roller/../../core/lv_obj_style.h ****     lv_obj_set_style_pad_right(obj, value, selector);
 200:Drivers/lvgl/src/widgets/roller/../../core/lv_obj_style.h ****     lv_obj_set_style_pad_top(obj, value, selector);
 201:Drivers/lvgl/src/widgets/roller/../../core/lv_obj_style.h ****     lv_obj_set_style_pad_bottom(obj, value, selector);
 202:Drivers/lvgl/src/widgets/roller/../../core/lv_obj_style.h **** }
 203:Drivers/lvgl/src/widgets/roller/../../core/lv_obj_style.h **** 
 204:Drivers/lvgl/src/widgets/roller/../../core/lv_obj_style.h **** static inline void lv_obj_set_style_pad_hor(lv_obj_t * obj, int32_t value, lv_style_selector_t sele
 205:Drivers/lvgl/src/widgets/roller/../../core/lv_obj_style.h **** {
 206:Drivers/lvgl/src/widgets/roller/../../core/lv_obj_style.h ****     lv_obj_set_style_pad_left(obj, value, selector);
 207:Drivers/lvgl/src/widgets/roller/../../core/lv_obj_style.h ****     lv_obj_set_style_pad_right(obj, value, selector);
 208:Drivers/lvgl/src/widgets/roller/../../core/lv_obj_style.h **** }
 209:Drivers/lvgl/src/widgets/roller/../../core/lv_obj_style.h **** 
 210:Drivers/lvgl/src/widgets/roller/../../core/lv_obj_style.h **** static inline void lv_obj_set_style_pad_ver(lv_obj_t * obj, int32_t value, lv_style_selector_t sele
 211:Drivers/lvgl/src/widgets/roller/../../core/lv_obj_style.h **** {
 212:Drivers/lvgl/src/widgets/roller/../../core/lv_obj_style.h ****     lv_obj_set_style_pad_top(obj, value, selector);
 213:Drivers/lvgl/src/widgets/roller/../../core/lv_obj_style.h ****     lv_obj_set_style_pad_bottom(obj, value, selector);
 214:Drivers/lvgl/src/widgets/roller/../../core/lv_obj_style.h **** }
 215:Drivers/lvgl/src/widgets/roller/../../core/lv_obj_style.h **** 
 216:Drivers/lvgl/src/widgets/roller/../../core/lv_obj_style.h **** static inline void lv_obj_set_style_margin_all(lv_obj_t * obj, int32_t value, lv_style_selector_t s
 217:Drivers/lvgl/src/widgets/roller/../../core/lv_obj_style.h **** {
 218:Drivers/lvgl/src/widgets/roller/../../core/lv_obj_style.h ****     lv_obj_set_style_margin_left(obj, value, selector);
 219:Drivers/lvgl/src/widgets/roller/../../core/lv_obj_style.h ****     lv_obj_set_style_margin_right(obj, value, selector);
 220:Drivers/lvgl/src/widgets/roller/../../core/lv_obj_style.h ****     lv_obj_set_style_margin_top(obj, value, selector);
 221:Drivers/lvgl/src/widgets/roller/../../core/lv_obj_style.h ****     lv_obj_set_style_margin_bottom(obj, value, selector);
 222:Drivers/lvgl/src/widgets/roller/../../core/lv_obj_style.h **** }
 223:Drivers/lvgl/src/widgets/roller/../../core/lv_obj_style.h **** 
 224:Drivers/lvgl/src/widgets/roller/../../core/lv_obj_style.h **** static inline void lv_obj_set_style_margin_hor(lv_obj_t * obj, int32_t value, lv_style_selector_t s
 225:Drivers/lvgl/src/widgets/roller/../../core/lv_obj_style.h **** {
 226:Drivers/lvgl/src/widgets/roller/../../core/lv_obj_style.h ****     lv_obj_set_style_margin_left(obj, value, selector);
 227:Drivers/lvgl/src/widgets/roller/../../core/lv_obj_style.h ****     lv_obj_set_style_margin_right(obj, value, selector);
 228:Drivers/lvgl/src/widgets/roller/../../core/lv_obj_style.h **** }
 229:Drivers/lvgl/src/widgets/roller/../../core/lv_obj_style.h **** 
 230:Drivers/lvgl/src/widgets/roller/../../core/lv_obj_style.h **** static inline void lv_obj_set_style_margin_ver(lv_obj_t * obj, int32_t value, lv_style_selector_t s
 231:Drivers/lvgl/src/widgets/roller/../../core/lv_obj_style.h **** {
 232:Drivers/lvgl/src/widgets/roller/../../core/lv_obj_style.h ****     lv_obj_set_style_margin_top(obj, value, selector);
 233:Drivers/lvgl/src/widgets/roller/../../core/lv_obj_style.h ****     lv_obj_set_style_margin_bottom(obj, value, selector);
 234:Drivers/lvgl/src/widgets/roller/../../core/lv_obj_style.h **** }
 235:Drivers/lvgl/src/widgets/roller/../../core/lv_obj_style.h **** 
 236:Drivers/lvgl/src/widgets/roller/../../core/lv_obj_style.h **** static inline void lv_obj_set_style_pad_gap(lv_obj_t * obj, int32_t value, lv_style_selector_t sele
 237:Drivers/lvgl/src/widgets/roller/../../core/lv_obj_style.h **** {
 238:Drivers/lvgl/src/widgets/roller/../../core/lv_obj_style.h ****     lv_obj_set_style_pad_row(obj, value, selector);
 239:Drivers/lvgl/src/widgets/roller/../../core/lv_obj_style.h ****     lv_obj_set_style_pad_column(obj, value, selector);
 240:Drivers/lvgl/src/widgets/roller/../../core/lv_obj_style.h **** }
ARM GAS  /tmp/ccOwYixx.s 			page 25


 241:Drivers/lvgl/src/widgets/roller/../../core/lv_obj_style.h **** 
 242:Drivers/lvgl/src/widgets/roller/../../core/lv_obj_style.h **** static inline void lv_obj_set_style_size(lv_obj_t * obj, int32_t width, int32_t height,
 243:Drivers/lvgl/src/widgets/roller/../../core/lv_obj_style.h ****                                          lv_style_selector_t selector)
 244:Drivers/lvgl/src/widgets/roller/../../core/lv_obj_style.h **** {
 245:Drivers/lvgl/src/widgets/roller/../../core/lv_obj_style.h ****     lv_obj_set_style_width(obj, width, selector);
 246:Drivers/lvgl/src/widgets/roller/../../core/lv_obj_style.h ****     lv_obj_set_style_height(obj, height, selector);
 247:Drivers/lvgl/src/widgets/roller/../../core/lv_obj_style.h **** }
 248:Drivers/lvgl/src/widgets/roller/../../core/lv_obj_style.h **** 
 249:Drivers/lvgl/src/widgets/roller/../../core/lv_obj_style.h **** static inline void lv_obj_set_style_transform_scale(lv_obj_t * obj, int32_t value,
 250:Drivers/lvgl/src/widgets/roller/../../core/lv_obj_style.h ****                                                     lv_style_selector_t selector)
 251:Drivers/lvgl/src/widgets/roller/../../core/lv_obj_style.h **** {
 252:Drivers/lvgl/src/widgets/roller/../../core/lv_obj_style.h ****     lv_obj_set_style_transform_scale_x(obj, value, selector);
 253:Drivers/lvgl/src/widgets/roller/../../core/lv_obj_style.h ****     lv_obj_set_style_transform_scale_y(obj, value, selector);
 254:Drivers/lvgl/src/widgets/roller/../../core/lv_obj_style.h **** }
 255:Drivers/lvgl/src/widgets/roller/../../core/lv_obj_style.h **** 
 256:Drivers/lvgl/src/widgets/roller/../../core/lv_obj_style.h **** static inline int32_t lv_obj_get_style_space_left(const lv_obj_t * obj, lv_part_t part)
 257:Drivers/lvgl/src/widgets/roller/../../core/lv_obj_style.h **** {
 258:Drivers/lvgl/src/widgets/roller/../../core/lv_obj_style.h ****     int32_t padding = lv_obj_get_style_pad_left(obj, part);
 259:Drivers/lvgl/src/widgets/roller/../../core/lv_obj_style.h ****     int32_t border_width = lv_obj_get_style_border_width(obj, part);
 260:Drivers/lvgl/src/widgets/roller/../../core/lv_obj_style.h ****     lv_border_side_t border_side = lv_obj_get_style_border_side(obj, part);
 261:Drivers/lvgl/src/widgets/roller/../../core/lv_obj_style.h ****     return (border_side & LV_BORDER_SIDE_LEFT) ? padding + border_width : padding;
 262:Drivers/lvgl/src/widgets/roller/../../core/lv_obj_style.h **** }
 263:Drivers/lvgl/src/widgets/roller/../../core/lv_obj_style.h **** 
 264:Drivers/lvgl/src/widgets/roller/../../core/lv_obj_style.h **** static inline int32_t lv_obj_get_style_space_right(const lv_obj_t * obj, lv_part_t part)
 265:Drivers/lvgl/src/widgets/roller/../../core/lv_obj_style.h **** {
 266:Drivers/lvgl/src/widgets/roller/../../core/lv_obj_style.h ****     int32_t padding = lv_obj_get_style_pad_right(obj, part);
 267:Drivers/lvgl/src/widgets/roller/../../core/lv_obj_style.h ****     int32_t border_width = lv_obj_get_style_border_width(obj, part);
 268:Drivers/lvgl/src/widgets/roller/../../core/lv_obj_style.h ****     lv_border_side_t border_side = lv_obj_get_style_border_side(obj, part);
 269:Drivers/lvgl/src/widgets/roller/../../core/lv_obj_style.h ****     return (border_side & LV_BORDER_SIDE_RIGHT) ? padding + border_width : padding;
 270:Drivers/lvgl/src/widgets/roller/../../core/lv_obj_style.h **** }
 271:Drivers/lvgl/src/widgets/roller/../../core/lv_obj_style.h **** 
 272:Drivers/lvgl/src/widgets/roller/../../core/lv_obj_style.h **** static inline int32_t lv_obj_get_style_space_top(const lv_obj_t * obj, lv_part_t part)
 273:Drivers/lvgl/src/widgets/roller/../../core/lv_obj_style.h **** {
 274:Drivers/lvgl/src/widgets/roller/../../core/lv_obj_style.h ****     int32_t padding = lv_obj_get_style_pad_top(obj, part);
 275:Drivers/lvgl/src/widgets/roller/../../core/lv_obj_style.h ****     int32_t border_width = lv_obj_get_style_border_width(obj, part);
 276:Drivers/lvgl/src/widgets/roller/../../core/lv_obj_style.h ****     lv_border_side_t border_side = lv_obj_get_style_border_side(obj, part);
 277:Drivers/lvgl/src/widgets/roller/../../core/lv_obj_style.h ****     return (border_side & LV_BORDER_SIDE_TOP) ? padding + border_width : padding;
 278:Drivers/lvgl/src/widgets/roller/../../core/lv_obj_style.h **** }
 279:Drivers/lvgl/src/widgets/roller/../../core/lv_obj_style.h **** 
 280:Drivers/lvgl/src/widgets/roller/../../core/lv_obj_style.h **** static inline int32_t lv_obj_get_style_space_bottom(const lv_obj_t * obj, lv_part_t part)
 281:Drivers/lvgl/src/widgets/roller/../../core/lv_obj_style.h **** {
 282:Drivers/lvgl/src/widgets/roller/../../core/lv_obj_style.h ****     int32_t padding = lv_obj_get_style_pad_bottom(obj, part);
 283:Drivers/lvgl/src/widgets/roller/../../core/lv_obj_style.h ****     int32_t border_width = lv_obj_get_style_border_width(obj, part);
 284:Drivers/lvgl/src/widgets/roller/../../core/lv_obj_style.h ****     lv_border_side_t border_side = lv_obj_get_style_border_side(obj, part);
 285:Drivers/lvgl/src/widgets/roller/../../core/lv_obj_style.h ****     return (border_side & LV_BORDER_SIDE_BOTTOM) ? padding + border_width : padding;
 286:Drivers/lvgl/src/widgets/roller/../../core/lv_obj_style.h **** }
 287:Drivers/lvgl/src/widgets/roller/../../core/lv_obj_style.h **** 
 288:Drivers/lvgl/src/widgets/roller/../../core/lv_obj_style.h **** lv_text_align_t lv_obj_calculate_style_text_align(const lv_obj_t * obj, lv_part_t part, const char 
 289:Drivers/lvgl/src/widgets/roller/../../core/lv_obj_style.h **** 
 290:Drivers/lvgl/src/widgets/roller/../../core/lv_obj_style.h **** static inline int32_t lv_obj_get_style_transform_scale_x_safe(const lv_obj_t * obj, lv_part_t part)
 120              		.loc 3 290 23 view .LVU23
 121              	.LBB74:
 291:Drivers/lvgl/src/widgets/roller/../../core/lv_obj_style.h **** {
 292:Drivers/lvgl/src/widgets/roller/../../core/lv_obj_style.h ****     int32_t scale = lv_obj_get_style_transform_scale_x(obj, part);
 122              		.loc 3 292 5 view .LVU24
 123              	.LBB75:
 124              	.LBI75:
ARM GAS  /tmp/ccOwYixx.s 			page 26


 112:Drivers/lvgl/src/widgets/roller/../../core/lv_obj_style_gen.h **** {
 125              		.loc 2 112 23 view .LVU25
 126              	.LBB76:
 114:Drivers/lvgl/src/widgets/roller/../../core/lv_obj_style_gen.h ****     return (int32_t)v.num;
 127              		.loc 2 114 5 view .LVU26
 114:Drivers/lvgl/src/widgets/roller/../../core/lv_obj_style_gen.h ****     return (int32_t)v.num;
 128              		.loc 2 114 26 is_stmt 0 view .LVU27
 129 0024 6E22     		movs	r2, #110
 130 0026 0021     		movs	r1, #0
 131 0028 2846     		mov	r0, r5
 132 002a FFF7FEFF 		bl	lv_obj_get_style_prop
 133              	.LVL8:
 134 002e 0446     		mov	r4, r0
 135 0030 0390     		str	r0, [sp, #12]
 115:Drivers/lvgl/src/widgets/roller/../../core/lv_obj_style_gen.h **** }
 136              		.loc 2 115 5 is_stmt 1 view .LVU28
 137              	.LVL9:
 115:Drivers/lvgl/src/widgets/roller/../../core/lv_obj_style_gen.h **** }
 138              		.loc 2 115 5 is_stmt 0 view .LVU29
 139              	.LBE76:
 140              	.LBE75:
 293:Drivers/lvgl/src/widgets/roller/../../core/lv_obj_style.h ****     return scale > 0 ? scale : 1;
 141              		.loc 3 293 5 is_stmt 1 view .LVU30
 142              		.loc 3 293 30 is_stmt 0 view .LVU31
 143 0032 0128     		cmp	r0, #1
 144 0034 B8BF     		it	lt
 145 0036 0124     		movlt	r4, #1
 146              	.LVL10:
 147              		.loc 3 293 30 view .LVU32
 148              	.LBE74:
 149              	.LBE73:
 883:Drivers/lvgl/src/widgets/roller/lv_roller.c ****         int32_t zoom_act_y = lv_obj_get_style_transform_scale_y_safe(parent, 0);
 150              		.loc 1 883 9 is_stmt 1 view .LVU33
 151              	.LBB77:
 152              	.LBI77:
 294:Drivers/lvgl/src/widgets/roller/../../core/lv_obj_style.h **** }
 295:Drivers/lvgl/src/widgets/roller/../../core/lv_obj_style.h **** 
 296:Drivers/lvgl/src/widgets/roller/../../core/lv_obj_style.h **** static inline int32_t lv_obj_get_style_transform_scale_y_safe(const lv_obj_t * obj, lv_part_t part)
 153              		.loc 3 296 23 view .LVU34
 154              	.LBB78:
 297:Drivers/lvgl/src/widgets/roller/../../core/lv_obj_style.h **** {
 298:Drivers/lvgl/src/widgets/roller/../../core/lv_obj_style.h ****     int32_t scale = lv_obj_get_style_transform_scale_y(obj, part);
 155              		.loc 3 298 5 view .LVU35
 156              	.LBB79:
 157              	.LBI79:
 118:Drivers/lvgl/src/widgets/roller/../../core/lv_obj_style_gen.h **** {
 158              		.loc 2 118 23 view .LVU36
 159              	.LBB80:
 120:Drivers/lvgl/src/widgets/roller/../../core/lv_obj_style_gen.h ****     return (int32_t)v.num;
 160              		.loc 2 120 5 view .LVU37
 120:Drivers/lvgl/src/widgets/roller/../../core/lv_obj_style_gen.h ****     return (int32_t)v.num;
 161              		.loc 2 120 26 is_stmt 0 view .LVU38
 162 0038 6F22     		movs	r2, #111
 163 003a 0021     		movs	r1, #0
 164 003c 2846     		mov	r0, r5
 165              	.LVL11:
 120:Drivers/lvgl/src/widgets/roller/../../core/lv_obj_style_gen.h ****     return (int32_t)v.num;
ARM GAS  /tmp/ccOwYixx.s 			page 27


 166              		.loc 2 120 26 view .LVU39
 167 003e FFF7FEFF 		bl	lv_obj_get_style_prop
 168              	.LVL12:
 120:Drivers/lvgl/src/widgets/roller/../../core/lv_obj_style_gen.h ****     return (int32_t)v.num;
 169              		.loc 2 120 26 view .LVU40
 170 0042 0390     		str	r0, [sp, #12]
 121:Drivers/lvgl/src/widgets/roller/../../core/lv_obj_style_gen.h **** }
 171              		.loc 2 121 5 is_stmt 1 view .LVU41
 172              	.LVL13:
 121:Drivers/lvgl/src/widgets/roller/../../core/lv_obj_style_gen.h **** }
 173              		.loc 2 121 5 is_stmt 0 view .LVU42
 174              	.LBE80:
 175              	.LBE79:
 299:Drivers/lvgl/src/widgets/roller/../../core/lv_obj_style.h ****     return scale > 0 ? scale : 1;
 176              		.loc 3 299 5 is_stmt 1 view .LVU43
 177              		.loc 3 299 30 is_stmt 0 view .LVU44
 178 0044 0128     		cmp	r0, #1
 179 0046 B8BF     		it	lt
 180 0048 0120     		movlt	r0, #1
 181              	.LVL14:
 182              		.loc 3 299 30 view .LVU45
 183              	.LBE78:
 184              	.LBE77:
 884:Drivers/lvgl/src/widgets/roller/lv_roller.c ****         scale_x = (scale_x * zoom_act_x) >> 8;
 185              		.loc 1 884 9 is_stmt 1 view .LVU46
 186              		.loc 1 884 28 is_stmt 0 view .LVU47
 187 004a 06FB04F4 		mul	r4, r6, r4
 188              	.LVL15:
 189              		.loc 1 884 17 view .LVU48
 190 004e 2612     		asrs	r6, r4, #8
 191              	.LVL16:
 885:Drivers/lvgl/src/widgets/roller/lv_roller.c ****         scale_y = (scale_y * zoom_act_y) >> 8;
 192              		.loc 1 885 9 is_stmt 1 view .LVU49
 193              		.loc 1 885 28 is_stmt 0 view .LVU50
 194 0050 00FB09F3 		mul	r3, r0, r9
 195              		.loc 1 885 17 view .LVU51
 196 0054 4FEA2329 		asr	r9, r3, #8
 197              	.LVL17:
 886:Drivers/lvgl/src/widgets/roller/lv_roller.c ****         parent = lv_obj_get_parent(parent);
 198              		.loc 1 886 9 is_stmt 1 view .LVU52
 199              		.loc 1 886 18 is_stmt 0 view .LVU53
 200 0058 2846     		mov	r0, r5
 201              	.LVL18:
 202              		.loc 1 886 18 view .LVU54
 203 005a FFF7FEFF 		bl	lv_obj_get_parent
 204              	.LVL19:
 205              		.loc 1 886 18 view .LVU55
 206 005e 0546     		mov	r5, r0
 207              	.LVL20:
 208              	.L4:
 209              		.loc 1 886 18 view .LVU56
 210              	.LBE70:
 880:Drivers/lvgl/src/widgets/roller/lv_roller.c ****         angle += lv_obj_get_style_transform_rotation(parent, 0);
 211              		.loc 1 880 11 is_stmt 1 view .LVU57
 212 0060 002D     		cmp	r5, #0
 213 0062 D7D1     		bne	.L5
 887:Drivers/lvgl/src/widgets/roller/lv_roller.c ****     }
ARM GAS  /tmp/ccOwYixx.s 			page 28


 888:Drivers/lvgl/src/widgets/roller/lv_roller.c ****     lv_point_t pivot = { 0, 0 };
 214              		.loc 1 888 5 view .LVU58
 215              		.loc 1 888 16 is_stmt 0 view .LVU59
 216 0064 0023     		movs	r3, #0
 217 0066 0493     		str	r3, [sp, #16]
 218 0068 0593     		str	r3, [sp, #20]
 889:Drivers/lvgl/src/widgets/roller/lv_roller.c **** 
 890:Drivers/lvgl/src/widgets/roller/lv_roller.c ****     if(scale_x == 0) {
 219              		.loc 1 890 5 is_stmt 1 view .LVU60
 220              		.loc 1 890 7 is_stmt 0 view .LVU61
 221 006a 06B9     		cbnz	r6, .L6
 891:Drivers/lvgl/src/widgets/roller/lv_roller.c ****         scale_x = 1;
 222              		.loc 1 891 17 view .LVU62
 223 006c 0126     		movs	r6, #1
 224              	.LVL21:
 225              	.L6:
 892:Drivers/lvgl/src/widgets/roller/lv_roller.c ****     }
 893:Drivers/lvgl/src/widgets/roller/lv_roller.c **** 
 894:Drivers/lvgl/src/widgets/roller/lv_roller.c ****     if(scale_y == 0) {
 226              		.loc 1 894 5 is_stmt 1 view .LVU63
 227              		.loc 1 894 7 is_stmt 0 view .LVU64
 228 006e B9F1000F 		cmp	r9, #0
 229 0072 01D1     		bne	.L7
 895:Drivers/lvgl/src/widgets/roller/lv_roller.c ****         scale_y = 1;
 230              		.loc 1 895 17 view .LVU65
 231 0074 4FF00109 		mov	r9, #1
 232              	.LVL22:
 233              	.L7:
 896:Drivers/lvgl/src/widgets/roller/lv_roller.c ****     }
 897:Drivers/lvgl/src/widgets/roller/lv_roller.c **** 
 898:Drivers/lvgl/src/widgets/roller/lv_roller.c ****     scale_x = 256 * 256 / scale_x;
 234              		.loc 1 898 5 is_stmt 1 view .LVU66
 235              		.loc 1 898 13 is_stmt 0 view .LVU67
 236 0078 4FF48032 		mov	r2, #65536
 237              	.LVL23:
 899:Drivers/lvgl/src/widgets/roller/lv_roller.c ****     scale_y = 256 * 256 / scale_y;
 238              		.loc 1 899 5 is_stmt 1 view .LVU68
 900:Drivers/lvgl/src/widgets/roller/lv_roller.c ****     lv_point_transform(vect, -angle, scale_x, scale_y, &pivot, false);
 239              		.loc 1 900 5 view .LVU69
 240 007c 0023     		movs	r3, #0
 241 007e 0193     		str	r3, [sp, #4]
 242 0080 04AB     		add	r3, sp, #16
 243 0082 0093     		str	r3, [sp]
 244 0084 92FBF9F3 		sdiv	r3, r2, r9
 245              	.LVL24:
 246              		.loc 1 900 5 is_stmt 0 view .LVU70
 247 0088 92FBF6F2 		sdiv	r2, r2, r6
 248              	.LVL25:
 249              		.loc 1 900 5 view .LVU71
 250 008c 7942     		rsbs	r1, r7, #0
 251 008e 4046     		mov	r0, r8
 252 0090 FFF7FEFF 		bl	lv_point_transform
 253              	.LVL26:
 901:Drivers/lvgl/src/widgets/roller/lv_roller.c **** }
 254              		.loc 1 901 1 view .LVU72
 255 0094 07B0     		add	sp, sp, #28
 256              	.LCFI3:
ARM GAS  /tmp/ccOwYixx.s 			page 29


 257              		.cfi_def_cfa_offset 28
 258              		@ sp needed
 259 0096 BDE8F083 		pop	{r4, r5, r6, r7, r8, r9, pc}
 260              		.loc 1 901 1 view .LVU73
 261              		.cfi_endproc
 262              	.LFE211:
 264              		.section	.text.get_label,"ax",%progbits
 265              		.align	1
 266              		.syntax unified
 267              		.thumb
 268              		.thumb_func
 270              	get_label:
 271              	.LVL27:
 272              	.LFB207:
 846:Drivers/lvgl/src/widgets/roller/lv_roller.c ****     return lv_obj_get_child(obj, 0);
 273              		.loc 1 846 1 is_stmt 1 view -0
 274              		.cfi_startproc
 275              		@ args = 0, pretend = 0, frame = 0
 276              		@ frame_needed = 0, uses_anonymous_args = 0
 846:Drivers/lvgl/src/widgets/roller/lv_roller.c ****     return lv_obj_get_child(obj, 0);
 277              		.loc 1 846 1 is_stmt 0 view .LVU75
 278 0000 08B5     		push	{r3, lr}
 279              	.LCFI4:
 280              		.cfi_def_cfa_offset 8
 281              		.cfi_offset 3, -8
 282              		.cfi_offset 14, -4
 847:Drivers/lvgl/src/widgets/roller/lv_roller.c **** }
 283              		.loc 1 847 5 is_stmt 1 view .LVU76
 847:Drivers/lvgl/src/widgets/roller/lv_roller.c **** }
 284              		.loc 1 847 12 is_stmt 0 view .LVU77
 285 0002 0021     		movs	r1, #0
 286 0004 FFF7FEFF 		bl	lv_obj_get_child
 287              	.LVL28:
 848:Drivers/lvgl/src/widgets/roller/lv_roller.c **** 
 288              		.loc 1 848 1 view .LVU78
 289 0008 08BD     		pop	{r3, pc}
 290              		.cfi_endproc
 291              	.LFE207:
 293              		.section	.text.get_selected_label_width,"ax",%progbits
 294              		.align	1
 295              		.syntax unified
 296              		.thumb
 297              		.thumb_func
 299              	get_selected_label_width:
 300              	.LVL29:
 301              	.LFB208:
 851:Drivers/lvgl/src/widgets/roller/lv_roller.c ****     lv_obj_t * label = get_label(obj);
 302              		.loc 1 851 1 is_stmt 1 view -0
 303              		.cfi_startproc
 304              		@ args = 0, pretend = 0, frame = 16
 305              		@ frame_needed = 0, uses_anonymous_args = 0
 851:Drivers/lvgl/src/widgets/roller/lv_roller.c ****     lv_obj_t * label = get_label(obj);
 306              		.loc 1 851 1 is_stmt 0 view .LVU80
 307 0000 70B5     		push	{r4, r5, r6, lr}
 308              	.LCFI5:
 309              		.cfi_def_cfa_offset 16
 310              		.cfi_offset 4, -16
ARM GAS  /tmp/ccOwYixx.s 			page 30


 311              		.cfi_offset 5, -12
 312              		.cfi_offset 6, -8
 313              		.cfi_offset 14, -4
 314 0002 88B0     		sub	sp, sp, #32
 315              	.LCFI6:
 316              		.cfi_def_cfa_offset 48
 317 0004 0446     		mov	r4, r0
 852:Drivers/lvgl/src/widgets/roller/lv_roller.c ****     if(label == NULL) return 0;
 318              		.loc 1 852 5 is_stmt 1 view .LVU81
 852:Drivers/lvgl/src/widgets/roller/lv_roller.c ****     if(label == NULL) return 0;
 319              		.loc 1 852 24 is_stmt 0 view .LVU82
 320 0006 FFF7FEFF 		bl	get_label
 321              	.LVL30:
 853:Drivers/lvgl/src/widgets/roller/lv_roller.c **** 
 322              		.loc 1 853 5 is_stmt 1 view .LVU83
 853:Drivers/lvgl/src/widgets/roller/lv_roller.c **** 
 323              		.loc 1 853 7 is_stmt 0 view .LVU84
 324 000a 10B3     		cbz	r0, .L15
 325 000c 0646     		mov	r6, r0
 855:Drivers/lvgl/src/widgets/roller/lv_roller.c ****     int32_t letter_space = lv_obj_get_style_text_letter_space(obj, LV_PART_SELECTED);
 326              		.loc 1 855 5 is_stmt 1 view .LVU85
 327              	.LVL31:
 328              	.LBB81:
 329              	.LBI81:
 128:Drivers/lvgl/src/widgets/roller/../../core/lv_obj_style_gen.h **** }
 129:Drivers/lvgl/src/widgets/roller/../../core/lv_obj_style_gen.h **** 
 130:Drivers/lvgl/src/widgets/roller/../../core/lv_obj_style_gen.h **** static inline int32_t lv_obj_get_style_transform_pivot_x(const lv_obj_t * obj, lv_part_t part)
 131:Drivers/lvgl/src/widgets/roller/../../core/lv_obj_style_gen.h **** {
 132:Drivers/lvgl/src/widgets/roller/../../core/lv_obj_style_gen.h ****     lv_style_value_t v = lv_obj_get_style_prop(obj, part, LV_STYLE_TRANSFORM_PIVOT_X);
 133:Drivers/lvgl/src/widgets/roller/../../core/lv_obj_style_gen.h ****     return (int32_t)v.num;
 134:Drivers/lvgl/src/widgets/roller/../../core/lv_obj_style_gen.h **** }
 135:Drivers/lvgl/src/widgets/roller/../../core/lv_obj_style_gen.h **** 
 136:Drivers/lvgl/src/widgets/roller/../../core/lv_obj_style_gen.h **** static inline int32_t lv_obj_get_style_transform_pivot_y(const lv_obj_t * obj, lv_part_t part)
 137:Drivers/lvgl/src/widgets/roller/../../core/lv_obj_style_gen.h **** {
 138:Drivers/lvgl/src/widgets/roller/../../core/lv_obj_style_gen.h ****     lv_style_value_t v = lv_obj_get_style_prop(obj, part, LV_STYLE_TRANSFORM_PIVOT_Y);
 139:Drivers/lvgl/src/widgets/roller/../../core/lv_obj_style_gen.h ****     return (int32_t)v.num;
 140:Drivers/lvgl/src/widgets/roller/../../core/lv_obj_style_gen.h **** }
 141:Drivers/lvgl/src/widgets/roller/../../core/lv_obj_style_gen.h **** 
 142:Drivers/lvgl/src/widgets/roller/../../core/lv_obj_style_gen.h **** static inline int32_t lv_obj_get_style_transform_skew_x(const lv_obj_t * obj, lv_part_t part)
 143:Drivers/lvgl/src/widgets/roller/../../core/lv_obj_style_gen.h **** {
 144:Drivers/lvgl/src/widgets/roller/../../core/lv_obj_style_gen.h ****     lv_style_value_t v = lv_obj_get_style_prop(obj, part, LV_STYLE_TRANSFORM_SKEW_X);
 145:Drivers/lvgl/src/widgets/roller/../../core/lv_obj_style_gen.h ****     return (int32_t)v.num;
 146:Drivers/lvgl/src/widgets/roller/../../core/lv_obj_style_gen.h **** }
 147:Drivers/lvgl/src/widgets/roller/../../core/lv_obj_style_gen.h **** 
 148:Drivers/lvgl/src/widgets/roller/../../core/lv_obj_style_gen.h **** static inline int32_t lv_obj_get_style_transform_skew_y(const lv_obj_t * obj, lv_part_t part)
 149:Drivers/lvgl/src/widgets/roller/../../core/lv_obj_style_gen.h **** {
 150:Drivers/lvgl/src/widgets/roller/../../core/lv_obj_style_gen.h ****     lv_style_value_t v = lv_obj_get_style_prop(obj, part, LV_STYLE_TRANSFORM_SKEW_Y);
 151:Drivers/lvgl/src/widgets/roller/../../core/lv_obj_style_gen.h ****     return (int32_t)v.num;
 152:Drivers/lvgl/src/widgets/roller/../../core/lv_obj_style_gen.h **** }
 153:Drivers/lvgl/src/widgets/roller/../../core/lv_obj_style_gen.h **** 
 154:Drivers/lvgl/src/widgets/roller/../../core/lv_obj_style_gen.h **** static inline int32_t lv_obj_get_style_pad_top(const lv_obj_t * obj, lv_part_t part)
 155:Drivers/lvgl/src/widgets/roller/../../core/lv_obj_style_gen.h **** {
 156:Drivers/lvgl/src/widgets/roller/../../core/lv_obj_style_gen.h ****     lv_style_value_t v = lv_obj_get_style_prop(obj, part, LV_STYLE_PAD_TOP);
 157:Drivers/lvgl/src/widgets/roller/../../core/lv_obj_style_gen.h ****     return (int32_t)v.num;
 158:Drivers/lvgl/src/widgets/roller/../../core/lv_obj_style_gen.h **** }
 159:Drivers/lvgl/src/widgets/roller/../../core/lv_obj_style_gen.h **** 
 160:Drivers/lvgl/src/widgets/roller/../../core/lv_obj_style_gen.h **** static inline int32_t lv_obj_get_style_pad_bottom(const lv_obj_t * obj, lv_part_t part)
ARM GAS  /tmp/ccOwYixx.s 			page 31


 161:Drivers/lvgl/src/widgets/roller/../../core/lv_obj_style_gen.h **** {
 162:Drivers/lvgl/src/widgets/roller/../../core/lv_obj_style_gen.h ****     lv_style_value_t v = lv_obj_get_style_prop(obj, part, LV_STYLE_PAD_BOTTOM);
 163:Drivers/lvgl/src/widgets/roller/../../core/lv_obj_style_gen.h ****     return (int32_t)v.num;
 164:Drivers/lvgl/src/widgets/roller/../../core/lv_obj_style_gen.h **** }
 165:Drivers/lvgl/src/widgets/roller/../../core/lv_obj_style_gen.h **** 
 166:Drivers/lvgl/src/widgets/roller/../../core/lv_obj_style_gen.h **** static inline int32_t lv_obj_get_style_pad_left(const lv_obj_t * obj, lv_part_t part)
 167:Drivers/lvgl/src/widgets/roller/../../core/lv_obj_style_gen.h **** {
 168:Drivers/lvgl/src/widgets/roller/../../core/lv_obj_style_gen.h ****     lv_style_value_t v = lv_obj_get_style_prop(obj, part, LV_STYLE_PAD_LEFT);
 169:Drivers/lvgl/src/widgets/roller/../../core/lv_obj_style_gen.h ****     return (int32_t)v.num;
 170:Drivers/lvgl/src/widgets/roller/../../core/lv_obj_style_gen.h **** }
 171:Drivers/lvgl/src/widgets/roller/../../core/lv_obj_style_gen.h **** 
 172:Drivers/lvgl/src/widgets/roller/../../core/lv_obj_style_gen.h **** static inline int32_t lv_obj_get_style_pad_right(const lv_obj_t * obj, lv_part_t part)
 173:Drivers/lvgl/src/widgets/roller/../../core/lv_obj_style_gen.h **** {
 174:Drivers/lvgl/src/widgets/roller/../../core/lv_obj_style_gen.h ****     lv_style_value_t v = lv_obj_get_style_prop(obj, part, LV_STYLE_PAD_RIGHT);
 175:Drivers/lvgl/src/widgets/roller/../../core/lv_obj_style_gen.h ****     return (int32_t)v.num;
 176:Drivers/lvgl/src/widgets/roller/../../core/lv_obj_style_gen.h **** }
 177:Drivers/lvgl/src/widgets/roller/../../core/lv_obj_style_gen.h **** 
 178:Drivers/lvgl/src/widgets/roller/../../core/lv_obj_style_gen.h **** static inline int32_t lv_obj_get_style_pad_row(const lv_obj_t * obj, lv_part_t part)
 179:Drivers/lvgl/src/widgets/roller/../../core/lv_obj_style_gen.h **** {
 180:Drivers/lvgl/src/widgets/roller/../../core/lv_obj_style_gen.h ****     lv_style_value_t v = lv_obj_get_style_prop(obj, part, LV_STYLE_PAD_ROW);
 181:Drivers/lvgl/src/widgets/roller/../../core/lv_obj_style_gen.h ****     return (int32_t)v.num;
 182:Drivers/lvgl/src/widgets/roller/../../core/lv_obj_style_gen.h **** }
 183:Drivers/lvgl/src/widgets/roller/../../core/lv_obj_style_gen.h **** 
 184:Drivers/lvgl/src/widgets/roller/../../core/lv_obj_style_gen.h **** static inline int32_t lv_obj_get_style_pad_column(const lv_obj_t * obj, lv_part_t part)
 185:Drivers/lvgl/src/widgets/roller/../../core/lv_obj_style_gen.h **** {
 186:Drivers/lvgl/src/widgets/roller/../../core/lv_obj_style_gen.h ****     lv_style_value_t v = lv_obj_get_style_prop(obj, part, LV_STYLE_PAD_COLUMN);
 187:Drivers/lvgl/src/widgets/roller/../../core/lv_obj_style_gen.h ****     return (int32_t)v.num;
 188:Drivers/lvgl/src/widgets/roller/../../core/lv_obj_style_gen.h **** }
 189:Drivers/lvgl/src/widgets/roller/../../core/lv_obj_style_gen.h **** 
 190:Drivers/lvgl/src/widgets/roller/../../core/lv_obj_style_gen.h **** static inline int32_t lv_obj_get_style_pad_radial(const lv_obj_t * obj, lv_part_t part)
 191:Drivers/lvgl/src/widgets/roller/../../core/lv_obj_style_gen.h **** {
 192:Drivers/lvgl/src/widgets/roller/../../core/lv_obj_style_gen.h ****     lv_style_value_t v = lv_obj_get_style_prop(obj, part, LV_STYLE_PAD_RADIAL);
 193:Drivers/lvgl/src/widgets/roller/../../core/lv_obj_style_gen.h ****     return (int32_t)v.num;
 194:Drivers/lvgl/src/widgets/roller/../../core/lv_obj_style_gen.h **** }
 195:Drivers/lvgl/src/widgets/roller/../../core/lv_obj_style_gen.h **** 
 196:Drivers/lvgl/src/widgets/roller/../../core/lv_obj_style_gen.h **** static inline int32_t lv_obj_get_style_margin_top(const lv_obj_t * obj, lv_part_t part)
 197:Drivers/lvgl/src/widgets/roller/../../core/lv_obj_style_gen.h **** {
 198:Drivers/lvgl/src/widgets/roller/../../core/lv_obj_style_gen.h ****     lv_style_value_t v = lv_obj_get_style_prop(obj, part, LV_STYLE_MARGIN_TOP);
 199:Drivers/lvgl/src/widgets/roller/../../core/lv_obj_style_gen.h ****     return (int32_t)v.num;
 200:Drivers/lvgl/src/widgets/roller/../../core/lv_obj_style_gen.h **** }
 201:Drivers/lvgl/src/widgets/roller/../../core/lv_obj_style_gen.h **** 
 202:Drivers/lvgl/src/widgets/roller/../../core/lv_obj_style_gen.h **** static inline int32_t lv_obj_get_style_margin_bottom(const lv_obj_t * obj, lv_part_t part)
 203:Drivers/lvgl/src/widgets/roller/../../core/lv_obj_style_gen.h **** {
 204:Drivers/lvgl/src/widgets/roller/../../core/lv_obj_style_gen.h ****     lv_style_value_t v = lv_obj_get_style_prop(obj, part, LV_STYLE_MARGIN_BOTTOM);
 205:Drivers/lvgl/src/widgets/roller/../../core/lv_obj_style_gen.h ****     return (int32_t)v.num;
 206:Drivers/lvgl/src/widgets/roller/../../core/lv_obj_style_gen.h **** }
 207:Drivers/lvgl/src/widgets/roller/../../core/lv_obj_style_gen.h **** 
 208:Drivers/lvgl/src/widgets/roller/../../core/lv_obj_style_gen.h **** static inline int32_t lv_obj_get_style_margin_left(const lv_obj_t * obj, lv_part_t part)
 209:Drivers/lvgl/src/widgets/roller/../../core/lv_obj_style_gen.h **** {
 210:Drivers/lvgl/src/widgets/roller/../../core/lv_obj_style_gen.h ****     lv_style_value_t v = lv_obj_get_style_prop(obj, part, LV_STYLE_MARGIN_LEFT);
 211:Drivers/lvgl/src/widgets/roller/../../core/lv_obj_style_gen.h ****     return (int32_t)v.num;
 212:Drivers/lvgl/src/widgets/roller/../../core/lv_obj_style_gen.h **** }
 213:Drivers/lvgl/src/widgets/roller/../../core/lv_obj_style_gen.h **** 
 214:Drivers/lvgl/src/widgets/roller/../../core/lv_obj_style_gen.h **** static inline int32_t lv_obj_get_style_margin_right(const lv_obj_t * obj, lv_part_t part)
 215:Drivers/lvgl/src/widgets/roller/../../core/lv_obj_style_gen.h **** {
 216:Drivers/lvgl/src/widgets/roller/../../core/lv_obj_style_gen.h ****     lv_style_value_t v = lv_obj_get_style_prop(obj, part, LV_STYLE_MARGIN_RIGHT);
 217:Drivers/lvgl/src/widgets/roller/../../core/lv_obj_style_gen.h ****     return (int32_t)v.num;
ARM GAS  /tmp/ccOwYixx.s 			page 32


 218:Drivers/lvgl/src/widgets/roller/../../core/lv_obj_style_gen.h **** }
 219:Drivers/lvgl/src/widgets/roller/../../core/lv_obj_style_gen.h **** 
 220:Drivers/lvgl/src/widgets/roller/../../core/lv_obj_style_gen.h **** static inline lv_color_t lv_obj_get_style_bg_color(const lv_obj_t * obj, lv_part_t part)
 221:Drivers/lvgl/src/widgets/roller/../../core/lv_obj_style_gen.h **** {
 222:Drivers/lvgl/src/widgets/roller/../../core/lv_obj_style_gen.h ****     lv_style_value_t v = lv_obj_get_style_prop(obj, part, LV_STYLE_BG_COLOR);
 223:Drivers/lvgl/src/widgets/roller/../../core/lv_obj_style_gen.h ****     return v.color;
 224:Drivers/lvgl/src/widgets/roller/../../core/lv_obj_style_gen.h **** }
 225:Drivers/lvgl/src/widgets/roller/../../core/lv_obj_style_gen.h **** 
 226:Drivers/lvgl/src/widgets/roller/../../core/lv_obj_style_gen.h **** static inline lv_color_t lv_obj_get_style_bg_color_filtered(const lv_obj_t * obj, lv_part_t part)
 227:Drivers/lvgl/src/widgets/roller/../../core/lv_obj_style_gen.h **** {
 228:Drivers/lvgl/src/widgets/roller/../../core/lv_obj_style_gen.h ****     lv_style_value_t v = lv_obj_style_apply_color_filter(obj, part, lv_obj_get_style_prop(obj, part
 229:Drivers/lvgl/src/widgets/roller/../../core/lv_obj_style_gen.h ****     return v.color;
 230:Drivers/lvgl/src/widgets/roller/../../core/lv_obj_style_gen.h **** }
 231:Drivers/lvgl/src/widgets/roller/../../core/lv_obj_style_gen.h **** 
 232:Drivers/lvgl/src/widgets/roller/../../core/lv_obj_style_gen.h **** static inline lv_opa_t lv_obj_get_style_bg_opa(const lv_obj_t * obj, lv_part_t part)
 233:Drivers/lvgl/src/widgets/roller/../../core/lv_obj_style_gen.h **** {
 234:Drivers/lvgl/src/widgets/roller/../../core/lv_obj_style_gen.h ****     lv_style_value_t v = lv_obj_get_style_prop(obj, part, LV_STYLE_BG_OPA);
 235:Drivers/lvgl/src/widgets/roller/../../core/lv_obj_style_gen.h ****     return (lv_opa_t)v.num;
 236:Drivers/lvgl/src/widgets/roller/../../core/lv_obj_style_gen.h **** }
 237:Drivers/lvgl/src/widgets/roller/../../core/lv_obj_style_gen.h **** 
 238:Drivers/lvgl/src/widgets/roller/../../core/lv_obj_style_gen.h **** static inline lv_color_t lv_obj_get_style_bg_grad_color(const lv_obj_t * obj, lv_part_t part)
 239:Drivers/lvgl/src/widgets/roller/../../core/lv_obj_style_gen.h **** {
 240:Drivers/lvgl/src/widgets/roller/../../core/lv_obj_style_gen.h ****     lv_style_value_t v = lv_obj_get_style_prop(obj, part, LV_STYLE_BG_GRAD_COLOR);
 241:Drivers/lvgl/src/widgets/roller/../../core/lv_obj_style_gen.h ****     return v.color;
 242:Drivers/lvgl/src/widgets/roller/../../core/lv_obj_style_gen.h **** }
 243:Drivers/lvgl/src/widgets/roller/../../core/lv_obj_style_gen.h **** 
 244:Drivers/lvgl/src/widgets/roller/../../core/lv_obj_style_gen.h **** static inline lv_color_t lv_obj_get_style_bg_grad_color_filtered(const lv_obj_t * obj, lv_part_t pa
 245:Drivers/lvgl/src/widgets/roller/../../core/lv_obj_style_gen.h **** {
 246:Drivers/lvgl/src/widgets/roller/../../core/lv_obj_style_gen.h ****     lv_style_value_t v = lv_obj_style_apply_color_filter(obj, part, lv_obj_get_style_prop(obj, part
 247:Drivers/lvgl/src/widgets/roller/../../core/lv_obj_style_gen.h ****     return v.color;
 248:Drivers/lvgl/src/widgets/roller/../../core/lv_obj_style_gen.h **** }
 249:Drivers/lvgl/src/widgets/roller/../../core/lv_obj_style_gen.h **** 
 250:Drivers/lvgl/src/widgets/roller/../../core/lv_obj_style_gen.h **** static inline lv_grad_dir_t lv_obj_get_style_bg_grad_dir(const lv_obj_t * obj, lv_part_t part)
 251:Drivers/lvgl/src/widgets/roller/../../core/lv_obj_style_gen.h **** {
 252:Drivers/lvgl/src/widgets/roller/../../core/lv_obj_style_gen.h ****     lv_style_value_t v = lv_obj_get_style_prop(obj, part, LV_STYLE_BG_GRAD_DIR);
 253:Drivers/lvgl/src/widgets/roller/../../core/lv_obj_style_gen.h ****     return (lv_grad_dir_t)v.num;
 254:Drivers/lvgl/src/widgets/roller/../../core/lv_obj_style_gen.h **** }
 255:Drivers/lvgl/src/widgets/roller/../../core/lv_obj_style_gen.h **** 
 256:Drivers/lvgl/src/widgets/roller/../../core/lv_obj_style_gen.h **** static inline int32_t lv_obj_get_style_bg_main_stop(const lv_obj_t * obj, lv_part_t part)
 257:Drivers/lvgl/src/widgets/roller/../../core/lv_obj_style_gen.h **** {
 258:Drivers/lvgl/src/widgets/roller/../../core/lv_obj_style_gen.h ****     lv_style_value_t v = lv_obj_get_style_prop(obj, part, LV_STYLE_BG_MAIN_STOP);
 259:Drivers/lvgl/src/widgets/roller/../../core/lv_obj_style_gen.h ****     return (int32_t)v.num;
 260:Drivers/lvgl/src/widgets/roller/../../core/lv_obj_style_gen.h **** }
 261:Drivers/lvgl/src/widgets/roller/../../core/lv_obj_style_gen.h **** 
 262:Drivers/lvgl/src/widgets/roller/../../core/lv_obj_style_gen.h **** static inline int32_t lv_obj_get_style_bg_grad_stop(const lv_obj_t * obj, lv_part_t part)
 263:Drivers/lvgl/src/widgets/roller/../../core/lv_obj_style_gen.h **** {
 264:Drivers/lvgl/src/widgets/roller/../../core/lv_obj_style_gen.h ****     lv_style_value_t v = lv_obj_get_style_prop(obj, part, LV_STYLE_BG_GRAD_STOP);
 265:Drivers/lvgl/src/widgets/roller/../../core/lv_obj_style_gen.h ****     return (int32_t)v.num;
 266:Drivers/lvgl/src/widgets/roller/../../core/lv_obj_style_gen.h **** }
 267:Drivers/lvgl/src/widgets/roller/../../core/lv_obj_style_gen.h **** 
 268:Drivers/lvgl/src/widgets/roller/../../core/lv_obj_style_gen.h **** static inline lv_opa_t lv_obj_get_style_bg_main_opa(const lv_obj_t * obj, lv_part_t part)
 269:Drivers/lvgl/src/widgets/roller/../../core/lv_obj_style_gen.h **** {
 270:Drivers/lvgl/src/widgets/roller/../../core/lv_obj_style_gen.h ****     lv_style_value_t v = lv_obj_get_style_prop(obj, part, LV_STYLE_BG_MAIN_OPA);
 271:Drivers/lvgl/src/widgets/roller/../../core/lv_obj_style_gen.h ****     return (lv_opa_t)v.num;
 272:Drivers/lvgl/src/widgets/roller/../../core/lv_obj_style_gen.h **** }
 273:Drivers/lvgl/src/widgets/roller/../../core/lv_obj_style_gen.h **** 
 274:Drivers/lvgl/src/widgets/roller/../../core/lv_obj_style_gen.h **** static inline lv_opa_t lv_obj_get_style_bg_grad_opa(const lv_obj_t * obj, lv_part_t part)
ARM GAS  /tmp/ccOwYixx.s 			page 33


 275:Drivers/lvgl/src/widgets/roller/../../core/lv_obj_style_gen.h **** {
 276:Drivers/lvgl/src/widgets/roller/../../core/lv_obj_style_gen.h ****     lv_style_value_t v = lv_obj_get_style_prop(obj, part, LV_STYLE_BG_GRAD_OPA);
 277:Drivers/lvgl/src/widgets/roller/../../core/lv_obj_style_gen.h ****     return (lv_opa_t)v.num;
 278:Drivers/lvgl/src/widgets/roller/../../core/lv_obj_style_gen.h **** }
 279:Drivers/lvgl/src/widgets/roller/../../core/lv_obj_style_gen.h **** 
 280:Drivers/lvgl/src/widgets/roller/../../core/lv_obj_style_gen.h **** static inline const lv_grad_dsc_t * lv_obj_get_style_bg_grad(const lv_obj_t * obj, lv_part_t part)
 281:Drivers/lvgl/src/widgets/roller/../../core/lv_obj_style_gen.h **** {
 282:Drivers/lvgl/src/widgets/roller/../../core/lv_obj_style_gen.h ****     lv_style_value_t v = lv_obj_get_style_prop(obj, part, LV_STYLE_BG_GRAD);
 283:Drivers/lvgl/src/widgets/roller/../../core/lv_obj_style_gen.h ****     return (const lv_grad_dsc_t *)v.ptr;
 284:Drivers/lvgl/src/widgets/roller/../../core/lv_obj_style_gen.h **** }
 285:Drivers/lvgl/src/widgets/roller/../../core/lv_obj_style_gen.h **** 
 286:Drivers/lvgl/src/widgets/roller/../../core/lv_obj_style_gen.h **** static inline const void * lv_obj_get_style_bg_image_src(const lv_obj_t * obj, lv_part_t part)
 287:Drivers/lvgl/src/widgets/roller/../../core/lv_obj_style_gen.h **** {
 288:Drivers/lvgl/src/widgets/roller/../../core/lv_obj_style_gen.h ****     lv_style_value_t v = lv_obj_get_style_prop(obj, part, LV_STYLE_BG_IMAGE_SRC);
 289:Drivers/lvgl/src/widgets/roller/../../core/lv_obj_style_gen.h ****     return (const void *)v.ptr;
 290:Drivers/lvgl/src/widgets/roller/../../core/lv_obj_style_gen.h **** }
 291:Drivers/lvgl/src/widgets/roller/../../core/lv_obj_style_gen.h **** 
 292:Drivers/lvgl/src/widgets/roller/../../core/lv_obj_style_gen.h **** static inline lv_opa_t lv_obj_get_style_bg_image_opa(const lv_obj_t * obj, lv_part_t part)
 293:Drivers/lvgl/src/widgets/roller/../../core/lv_obj_style_gen.h **** {
 294:Drivers/lvgl/src/widgets/roller/../../core/lv_obj_style_gen.h ****     lv_style_value_t v = lv_obj_get_style_prop(obj, part, LV_STYLE_BG_IMAGE_OPA);
 295:Drivers/lvgl/src/widgets/roller/../../core/lv_obj_style_gen.h ****     return (lv_opa_t)v.num;
 296:Drivers/lvgl/src/widgets/roller/../../core/lv_obj_style_gen.h **** }
 297:Drivers/lvgl/src/widgets/roller/../../core/lv_obj_style_gen.h **** 
 298:Drivers/lvgl/src/widgets/roller/../../core/lv_obj_style_gen.h **** static inline lv_color_t lv_obj_get_style_bg_image_recolor(const lv_obj_t * obj, lv_part_t part)
 299:Drivers/lvgl/src/widgets/roller/../../core/lv_obj_style_gen.h **** {
 300:Drivers/lvgl/src/widgets/roller/../../core/lv_obj_style_gen.h ****     lv_style_value_t v = lv_obj_get_style_prop(obj, part, LV_STYLE_BG_IMAGE_RECOLOR);
 301:Drivers/lvgl/src/widgets/roller/../../core/lv_obj_style_gen.h ****     return v.color;
 302:Drivers/lvgl/src/widgets/roller/../../core/lv_obj_style_gen.h **** }
 303:Drivers/lvgl/src/widgets/roller/../../core/lv_obj_style_gen.h **** 
 304:Drivers/lvgl/src/widgets/roller/../../core/lv_obj_style_gen.h **** static inline lv_color_t lv_obj_get_style_bg_image_recolor_filtered(const lv_obj_t * obj, lv_part_t
 305:Drivers/lvgl/src/widgets/roller/../../core/lv_obj_style_gen.h **** {
 306:Drivers/lvgl/src/widgets/roller/../../core/lv_obj_style_gen.h ****     lv_style_value_t v = lv_obj_style_apply_color_filter(obj, part, lv_obj_get_style_prop(obj, part
 307:Drivers/lvgl/src/widgets/roller/../../core/lv_obj_style_gen.h ****     return v.color;
 308:Drivers/lvgl/src/widgets/roller/../../core/lv_obj_style_gen.h **** }
 309:Drivers/lvgl/src/widgets/roller/../../core/lv_obj_style_gen.h **** 
 310:Drivers/lvgl/src/widgets/roller/../../core/lv_obj_style_gen.h **** static inline lv_opa_t lv_obj_get_style_bg_image_recolor_opa(const lv_obj_t * obj, lv_part_t part)
 311:Drivers/lvgl/src/widgets/roller/../../core/lv_obj_style_gen.h **** {
 312:Drivers/lvgl/src/widgets/roller/../../core/lv_obj_style_gen.h ****     lv_style_value_t v = lv_obj_get_style_prop(obj, part, LV_STYLE_BG_IMAGE_RECOLOR_OPA);
 313:Drivers/lvgl/src/widgets/roller/../../core/lv_obj_style_gen.h ****     return (lv_opa_t)v.num;
 314:Drivers/lvgl/src/widgets/roller/../../core/lv_obj_style_gen.h **** }
 315:Drivers/lvgl/src/widgets/roller/../../core/lv_obj_style_gen.h **** 
 316:Drivers/lvgl/src/widgets/roller/../../core/lv_obj_style_gen.h **** static inline bool lv_obj_get_style_bg_image_tiled(const lv_obj_t * obj, lv_part_t part)
 317:Drivers/lvgl/src/widgets/roller/../../core/lv_obj_style_gen.h **** {
 318:Drivers/lvgl/src/widgets/roller/../../core/lv_obj_style_gen.h ****     lv_style_value_t v = lv_obj_get_style_prop(obj, part, LV_STYLE_BG_IMAGE_TILED);
 319:Drivers/lvgl/src/widgets/roller/../../core/lv_obj_style_gen.h ****     return (bool)v.num;
 320:Drivers/lvgl/src/widgets/roller/../../core/lv_obj_style_gen.h **** }
 321:Drivers/lvgl/src/widgets/roller/../../core/lv_obj_style_gen.h **** 
 322:Drivers/lvgl/src/widgets/roller/../../core/lv_obj_style_gen.h **** static inline lv_color_t lv_obj_get_style_border_color(const lv_obj_t * obj, lv_part_t part)
 323:Drivers/lvgl/src/widgets/roller/../../core/lv_obj_style_gen.h **** {
 324:Drivers/lvgl/src/widgets/roller/../../core/lv_obj_style_gen.h ****     lv_style_value_t v = lv_obj_get_style_prop(obj, part, LV_STYLE_BORDER_COLOR);
 325:Drivers/lvgl/src/widgets/roller/../../core/lv_obj_style_gen.h ****     return v.color;
 326:Drivers/lvgl/src/widgets/roller/../../core/lv_obj_style_gen.h **** }
 327:Drivers/lvgl/src/widgets/roller/../../core/lv_obj_style_gen.h **** 
 328:Drivers/lvgl/src/widgets/roller/../../core/lv_obj_style_gen.h **** static inline lv_color_t lv_obj_get_style_border_color_filtered(const lv_obj_t * obj, lv_part_t par
 329:Drivers/lvgl/src/widgets/roller/../../core/lv_obj_style_gen.h **** {
 330:Drivers/lvgl/src/widgets/roller/../../core/lv_obj_style_gen.h ****     lv_style_value_t v = lv_obj_style_apply_color_filter(obj, part, lv_obj_get_style_prop(obj, part
 331:Drivers/lvgl/src/widgets/roller/../../core/lv_obj_style_gen.h ****     return v.color;
ARM GAS  /tmp/ccOwYixx.s 			page 34


 332:Drivers/lvgl/src/widgets/roller/../../core/lv_obj_style_gen.h **** }
 333:Drivers/lvgl/src/widgets/roller/../../core/lv_obj_style_gen.h **** 
 334:Drivers/lvgl/src/widgets/roller/../../core/lv_obj_style_gen.h **** static inline lv_opa_t lv_obj_get_style_border_opa(const lv_obj_t * obj, lv_part_t part)
 335:Drivers/lvgl/src/widgets/roller/../../core/lv_obj_style_gen.h **** {
 336:Drivers/lvgl/src/widgets/roller/../../core/lv_obj_style_gen.h ****     lv_style_value_t v = lv_obj_get_style_prop(obj, part, LV_STYLE_BORDER_OPA);
 337:Drivers/lvgl/src/widgets/roller/../../core/lv_obj_style_gen.h ****     return (lv_opa_t)v.num;
 338:Drivers/lvgl/src/widgets/roller/../../core/lv_obj_style_gen.h **** }
 339:Drivers/lvgl/src/widgets/roller/../../core/lv_obj_style_gen.h **** 
 340:Drivers/lvgl/src/widgets/roller/../../core/lv_obj_style_gen.h **** static inline int32_t lv_obj_get_style_border_width(const lv_obj_t * obj, lv_part_t part)
 341:Drivers/lvgl/src/widgets/roller/../../core/lv_obj_style_gen.h **** {
 342:Drivers/lvgl/src/widgets/roller/../../core/lv_obj_style_gen.h ****     lv_style_value_t v = lv_obj_get_style_prop(obj, part, LV_STYLE_BORDER_WIDTH);
 343:Drivers/lvgl/src/widgets/roller/../../core/lv_obj_style_gen.h ****     return (int32_t)v.num;
 344:Drivers/lvgl/src/widgets/roller/../../core/lv_obj_style_gen.h **** }
 345:Drivers/lvgl/src/widgets/roller/../../core/lv_obj_style_gen.h **** 
 346:Drivers/lvgl/src/widgets/roller/../../core/lv_obj_style_gen.h **** static inline lv_border_side_t lv_obj_get_style_border_side(const lv_obj_t * obj, lv_part_t part)
 347:Drivers/lvgl/src/widgets/roller/../../core/lv_obj_style_gen.h **** {
 348:Drivers/lvgl/src/widgets/roller/../../core/lv_obj_style_gen.h ****     lv_style_value_t v = lv_obj_get_style_prop(obj, part, LV_STYLE_BORDER_SIDE);
 349:Drivers/lvgl/src/widgets/roller/../../core/lv_obj_style_gen.h ****     return (lv_border_side_t)v.num;
 350:Drivers/lvgl/src/widgets/roller/../../core/lv_obj_style_gen.h **** }
 351:Drivers/lvgl/src/widgets/roller/../../core/lv_obj_style_gen.h **** 
 352:Drivers/lvgl/src/widgets/roller/../../core/lv_obj_style_gen.h **** static inline bool lv_obj_get_style_border_post(const lv_obj_t * obj, lv_part_t part)
 353:Drivers/lvgl/src/widgets/roller/../../core/lv_obj_style_gen.h **** {
 354:Drivers/lvgl/src/widgets/roller/../../core/lv_obj_style_gen.h ****     lv_style_value_t v = lv_obj_get_style_prop(obj, part, LV_STYLE_BORDER_POST);
 355:Drivers/lvgl/src/widgets/roller/../../core/lv_obj_style_gen.h ****     return (bool)v.num;
 356:Drivers/lvgl/src/widgets/roller/../../core/lv_obj_style_gen.h **** }
 357:Drivers/lvgl/src/widgets/roller/../../core/lv_obj_style_gen.h **** 
 358:Drivers/lvgl/src/widgets/roller/../../core/lv_obj_style_gen.h **** static inline int32_t lv_obj_get_style_outline_width(const lv_obj_t * obj, lv_part_t part)
 359:Drivers/lvgl/src/widgets/roller/../../core/lv_obj_style_gen.h **** {
 360:Drivers/lvgl/src/widgets/roller/../../core/lv_obj_style_gen.h ****     lv_style_value_t v = lv_obj_get_style_prop(obj, part, LV_STYLE_OUTLINE_WIDTH);
 361:Drivers/lvgl/src/widgets/roller/../../core/lv_obj_style_gen.h ****     return (int32_t)v.num;
 362:Drivers/lvgl/src/widgets/roller/../../core/lv_obj_style_gen.h **** }
 363:Drivers/lvgl/src/widgets/roller/../../core/lv_obj_style_gen.h **** 
 364:Drivers/lvgl/src/widgets/roller/../../core/lv_obj_style_gen.h **** static inline lv_color_t lv_obj_get_style_outline_color(const lv_obj_t * obj, lv_part_t part)
 365:Drivers/lvgl/src/widgets/roller/../../core/lv_obj_style_gen.h **** {
 366:Drivers/lvgl/src/widgets/roller/../../core/lv_obj_style_gen.h ****     lv_style_value_t v = lv_obj_get_style_prop(obj, part, LV_STYLE_OUTLINE_COLOR);
 367:Drivers/lvgl/src/widgets/roller/../../core/lv_obj_style_gen.h ****     return v.color;
 368:Drivers/lvgl/src/widgets/roller/../../core/lv_obj_style_gen.h **** }
 369:Drivers/lvgl/src/widgets/roller/../../core/lv_obj_style_gen.h **** 
 370:Drivers/lvgl/src/widgets/roller/../../core/lv_obj_style_gen.h **** static inline lv_color_t lv_obj_get_style_outline_color_filtered(const lv_obj_t * obj, lv_part_t pa
 371:Drivers/lvgl/src/widgets/roller/../../core/lv_obj_style_gen.h **** {
 372:Drivers/lvgl/src/widgets/roller/../../core/lv_obj_style_gen.h ****     lv_style_value_t v = lv_obj_style_apply_color_filter(obj, part, lv_obj_get_style_prop(obj, part
 373:Drivers/lvgl/src/widgets/roller/../../core/lv_obj_style_gen.h ****     return v.color;
 374:Drivers/lvgl/src/widgets/roller/../../core/lv_obj_style_gen.h **** }
 375:Drivers/lvgl/src/widgets/roller/../../core/lv_obj_style_gen.h **** 
 376:Drivers/lvgl/src/widgets/roller/../../core/lv_obj_style_gen.h **** static inline lv_opa_t lv_obj_get_style_outline_opa(const lv_obj_t * obj, lv_part_t part)
 377:Drivers/lvgl/src/widgets/roller/../../core/lv_obj_style_gen.h **** {
 378:Drivers/lvgl/src/widgets/roller/../../core/lv_obj_style_gen.h ****     lv_style_value_t v = lv_obj_get_style_prop(obj, part, LV_STYLE_OUTLINE_OPA);
 379:Drivers/lvgl/src/widgets/roller/../../core/lv_obj_style_gen.h ****     return (lv_opa_t)v.num;
 380:Drivers/lvgl/src/widgets/roller/../../core/lv_obj_style_gen.h **** }
 381:Drivers/lvgl/src/widgets/roller/../../core/lv_obj_style_gen.h **** 
 382:Drivers/lvgl/src/widgets/roller/../../core/lv_obj_style_gen.h **** static inline int32_t lv_obj_get_style_outline_pad(const lv_obj_t * obj, lv_part_t part)
 383:Drivers/lvgl/src/widgets/roller/../../core/lv_obj_style_gen.h **** {
 384:Drivers/lvgl/src/widgets/roller/../../core/lv_obj_style_gen.h ****     lv_style_value_t v = lv_obj_get_style_prop(obj, part, LV_STYLE_OUTLINE_PAD);
 385:Drivers/lvgl/src/widgets/roller/../../core/lv_obj_style_gen.h ****     return (int32_t)v.num;
 386:Drivers/lvgl/src/widgets/roller/../../core/lv_obj_style_gen.h **** }
 387:Drivers/lvgl/src/widgets/roller/../../core/lv_obj_style_gen.h **** 
 388:Drivers/lvgl/src/widgets/roller/../../core/lv_obj_style_gen.h **** static inline int32_t lv_obj_get_style_shadow_width(const lv_obj_t * obj, lv_part_t part)
ARM GAS  /tmp/ccOwYixx.s 			page 35


 389:Drivers/lvgl/src/widgets/roller/../../core/lv_obj_style_gen.h **** {
 390:Drivers/lvgl/src/widgets/roller/../../core/lv_obj_style_gen.h ****     lv_style_value_t v = lv_obj_get_style_prop(obj, part, LV_STYLE_SHADOW_WIDTH);
 391:Drivers/lvgl/src/widgets/roller/../../core/lv_obj_style_gen.h ****     return (int32_t)v.num;
 392:Drivers/lvgl/src/widgets/roller/../../core/lv_obj_style_gen.h **** }
 393:Drivers/lvgl/src/widgets/roller/../../core/lv_obj_style_gen.h **** 
 394:Drivers/lvgl/src/widgets/roller/../../core/lv_obj_style_gen.h **** static inline int32_t lv_obj_get_style_shadow_offset_x(const lv_obj_t * obj, lv_part_t part)
 395:Drivers/lvgl/src/widgets/roller/../../core/lv_obj_style_gen.h **** {
 396:Drivers/lvgl/src/widgets/roller/../../core/lv_obj_style_gen.h ****     lv_style_value_t v = lv_obj_get_style_prop(obj, part, LV_STYLE_SHADOW_OFFSET_X);
 397:Drivers/lvgl/src/widgets/roller/../../core/lv_obj_style_gen.h ****     return (int32_t)v.num;
 398:Drivers/lvgl/src/widgets/roller/../../core/lv_obj_style_gen.h **** }
 399:Drivers/lvgl/src/widgets/roller/../../core/lv_obj_style_gen.h **** 
 400:Drivers/lvgl/src/widgets/roller/../../core/lv_obj_style_gen.h **** static inline int32_t lv_obj_get_style_shadow_offset_y(const lv_obj_t * obj, lv_part_t part)
 401:Drivers/lvgl/src/widgets/roller/../../core/lv_obj_style_gen.h **** {
 402:Drivers/lvgl/src/widgets/roller/../../core/lv_obj_style_gen.h ****     lv_style_value_t v = lv_obj_get_style_prop(obj, part, LV_STYLE_SHADOW_OFFSET_Y);
 403:Drivers/lvgl/src/widgets/roller/../../core/lv_obj_style_gen.h ****     return (int32_t)v.num;
 404:Drivers/lvgl/src/widgets/roller/../../core/lv_obj_style_gen.h **** }
 405:Drivers/lvgl/src/widgets/roller/../../core/lv_obj_style_gen.h **** 
 406:Drivers/lvgl/src/widgets/roller/../../core/lv_obj_style_gen.h **** static inline int32_t lv_obj_get_style_shadow_spread(const lv_obj_t * obj, lv_part_t part)
 407:Drivers/lvgl/src/widgets/roller/../../core/lv_obj_style_gen.h **** {
 408:Drivers/lvgl/src/widgets/roller/../../core/lv_obj_style_gen.h ****     lv_style_value_t v = lv_obj_get_style_prop(obj, part, LV_STYLE_SHADOW_SPREAD);
 409:Drivers/lvgl/src/widgets/roller/../../core/lv_obj_style_gen.h ****     return (int32_t)v.num;
 410:Drivers/lvgl/src/widgets/roller/../../core/lv_obj_style_gen.h **** }
 411:Drivers/lvgl/src/widgets/roller/../../core/lv_obj_style_gen.h **** 
 412:Drivers/lvgl/src/widgets/roller/../../core/lv_obj_style_gen.h **** static inline lv_color_t lv_obj_get_style_shadow_color(const lv_obj_t * obj, lv_part_t part)
 413:Drivers/lvgl/src/widgets/roller/../../core/lv_obj_style_gen.h **** {
 414:Drivers/lvgl/src/widgets/roller/../../core/lv_obj_style_gen.h ****     lv_style_value_t v = lv_obj_get_style_prop(obj, part, LV_STYLE_SHADOW_COLOR);
 415:Drivers/lvgl/src/widgets/roller/../../core/lv_obj_style_gen.h ****     return v.color;
 416:Drivers/lvgl/src/widgets/roller/../../core/lv_obj_style_gen.h **** }
 417:Drivers/lvgl/src/widgets/roller/../../core/lv_obj_style_gen.h **** 
 418:Drivers/lvgl/src/widgets/roller/../../core/lv_obj_style_gen.h **** static inline lv_color_t lv_obj_get_style_shadow_color_filtered(const lv_obj_t * obj, lv_part_t par
 419:Drivers/lvgl/src/widgets/roller/../../core/lv_obj_style_gen.h **** {
 420:Drivers/lvgl/src/widgets/roller/../../core/lv_obj_style_gen.h ****     lv_style_value_t v = lv_obj_style_apply_color_filter(obj, part, lv_obj_get_style_prop(obj, part
 421:Drivers/lvgl/src/widgets/roller/../../core/lv_obj_style_gen.h ****     return v.color;
 422:Drivers/lvgl/src/widgets/roller/../../core/lv_obj_style_gen.h **** }
 423:Drivers/lvgl/src/widgets/roller/../../core/lv_obj_style_gen.h **** 
 424:Drivers/lvgl/src/widgets/roller/../../core/lv_obj_style_gen.h **** static inline lv_opa_t lv_obj_get_style_shadow_opa(const lv_obj_t * obj, lv_part_t part)
 425:Drivers/lvgl/src/widgets/roller/../../core/lv_obj_style_gen.h **** {
 426:Drivers/lvgl/src/widgets/roller/../../core/lv_obj_style_gen.h ****     lv_style_value_t v = lv_obj_get_style_prop(obj, part, LV_STYLE_SHADOW_OPA);
 427:Drivers/lvgl/src/widgets/roller/../../core/lv_obj_style_gen.h ****     return (lv_opa_t)v.num;
 428:Drivers/lvgl/src/widgets/roller/../../core/lv_obj_style_gen.h **** }
 429:Drivers/lvgl/src/widgets/roller/../../core/lv_obj_style_gen.h **** 
 430:Drivers/lvgl/src/widgets/roller/../../core/lv_obj_style_gen.h **** static inline lv_opa_t lv_obj_get_style_image_opa(const lv_obj_t * obj, lv_part_t part)
 431:Drivers/lvgl/src/widgets/roller/../../core/lv_obj_style_gen.h **** {
 432:Drivers/lvgl/src/widgets/roller/../../core/lv_obj_style_gen.h ****     lv_style_value_t v = lv_obj_get_style_prop(obj, part, LV_STYLE_IMAGE_OPA);
 433:Drivers/lvgl/src/widgets/roller/../../core/lv_obj_style_gen.h ****     return (lv_opa_t)v.num;
 434:Drivers/lvgl/src/widgets/roller/../../core/lv_obj_style_gen.h **** }
 435:Drivers/lvgl/src/widgets/roller/../../core/lv_obj_style_gen.h **** 
 436:Drivers/lvgl/src/widgets/roller/../../core/lv_obj_style_gen.h **** static inline lv_color_t lv_obj_get_style_image_recolor(const lv_obj_t * obj, lv_part_t part)
 437:Drivers/lvgl/src/widgets/roller/../../core/lv_obj_style_gen.h **** {
 438:Drivers/lvgl/src/widgets/roller/../../core/lv_obj_style_gen.h ****     lv_style_value_t v = lv_obj_get_style_prop(obj, part, LV_STYLE_IMAGE_RECOLOR);
 439:Drivers/lvgl/src/widgets/roller/../../core/lv_obj_style_gen.h ****     return v.color;
 440:Drivers/lvgl/src/widgets/roller/../../core/lv_obj_style_gen.h **** }
 441:Drivers/lvgl/src/widgets/roller/../../core/lv_obj_style_gen.h **** 
 442:Drivers/lvgl/src/widgets/roller/../../core/lv_obj_style_gen.h **** static inline lv_color_t lv_obj_get_style_image_recolor_filtered(const lv_obj_t * obj, lv_part_t pa
 443:Drivers/lvgl/src/widgets/roller/../../core/lv_obj_style_gen.h **** {
 444:Drivers/lvgl/src/widgets/roller/../../core/lv_obj_style_gen.h ****     lv_style_value_t v = lv_obj_style_apply_color_filter(obj, part, lv_obj_get_style_prop(obj, part
 445:Drivers/lvgl/src/widgets/roller/../../core/lv_obj_style_gen.h ****     return v.color;
ARM GAS  /tmp/ccOwYixx.s 			page 36


 446:Drivers/lvgl/src/widgets/roller/../../core/lv_obj_style_gen.h **** }
 447:Drivers/lvgl/src/widgets/roller/../../core/lv_obj_style_gen.h **** 
 448:Drivers/lvgl/src/widgets/roller/../../core/lv_obj_style_gen.h **** static inline lv_opa_t lv_obj_get_style_image_recolor_opa(const lv_obj_t * obj, lv_part_t part)
 449:Drivers/lvgl/src/widgets/roller/../../core/lv_obj_style_gen.h **** {
 450:Drivers/lvgl/src/widgets/roller/../../core/lv_obj_style_gen.h ****     lv_style_value_t v = lv_obj_get_style_prop(obj, part, LV_STYLE_IMAGE_RECOLOR_OPA);
 451:Drivers/lvgl/src/widgets/roller/../../core/lv_obj_style_gen.h ****     return (lv_opa_t)v.num;
 452:Drivers/lvgl/src/widgets/roller/../../core/lv_obj_style_gen.h **** }
 453:Drivers/lvgl/src/widgets/roller/../../core/lv_obj_style_gen.h **** 
 454:Drivers/lvgl/src/widgets/roller/../../core/lv_obj_style_gen.h **** static inline int32_t lv_obj_get_style_line_width(const lv_obj_t * obj, lv_part_t part)
 455:Drivers/lvgl/src/widgets/roller/../../core/lv_obj_style_gen.h **** {
 456:Drivers/lvgl/src/widgets/roller/../../core/lv_obj_style_gen.h ****     lv_style_value_t v = lv_obj_get_style_prop(obj, part, LV_STYLE_LINE_WIDTH);
 457:Drivers/lvgl/src/widgets/roller/../../core/lv_obj_style_gen.h ****     return (int32_t)v.num;
 458:Drivers/lvgl/src/widgets/roller/../../core/lv_obj_style_gen.h **** }
 459:Drivers/lvgl/src/widgets/roller/../../core/lv_obj_style_gen.h **** 
 460:Drivers/lvgl/src/widgets/roller/../../core/lv_obj_style_gen.h **** static inline int32_t lv_obj_get_style_line_dash_width(const lv_obj_t * obj, lv_part_t part)
 461:Drivers/lvgl/src/widgets/roller/../../core/lv_obj_style_gen.h **** {
 462:Drivers/lvgl/src/widgets/roller/../../core/lv_obj_style_gen.h ****     lv_style_value_t v = lv_obj_get_style_prop(obj, part, LV_STYLE_LINE_DASH_WIDTH);
 463:Drivers/lvgl/src/widgets/roller/../../core/lv_obj_style_gen.h ****     return (int32_t)v.num;
 464:Drivers/lvgl/src/widgets/roller/../../core/lv_obj_style_gen.h **** }
 465:Drivers/lvgl/src/widgets/roller/../../core/lv_obj_style_gen.h **** 
 466:Drivers/lvgl/src/widgets/roller/../../core/lv_obj_style_gen.h **** static inline int32_t lv_obj_get_style_line_dash_gap(const lv_obj_t * obj, lv_part_t part)
 467:Drivers/lvgl/src/widgets/roller/../../core/lv_obj_style_gen.h **** {
 468:Drivers/lvgl/src/widgets/roller/../../core/lv_obj_style_gen.h ****     lv_style_value_t v = lv_obj_get_style_prop(obj, part, LV_STYLE_LINE_DASH_GAP);
 469:Drivers/lvgl/src/widgets/roller/../../core/lv_obj_style_gen.h ****     return (int32_t)v.num;
 470:Drivers/lvgl/src/widgets/roller/../../core/lv_obj_style_gen.h **** }
 471:Drivers/lvgl/src/widgets/roller/../../core/lv_obj_style_gen.h **** 
 472:Drivers/lvgl/src/widgets/roller/../../core/lv_obj_style_gen.h **** static inline bool lv_obj_get_style_line_rounded(const lv_obj_t * obj, lv_part_t part)
 473:Drivers/lvgl/src/widgets/roller/../../core/lv_obj_style_gen.h **** {
 474:Drivers/lvgl/src/widgets/roller/../../core/lv_obj_style_gen.h ****     lv_style_value_t v = lv_obj_get_style_prop(obj, part, LV_STYLE_LINE_ROUNDED);
 475:Drivers/lvgl/src/widgets/roller/../../core/lv_obj_style_gen.h ****     return (bool)v.num;
 476:Drivers/lvgl/src/widgets/roller/../../core/lv_obj_style_gen.h **** }
 477:Drivers/lvgl/src/widgets/roller/../../core/lv_obj_style_gen.h **** 
 478:Drivers/lvgl/src/widgets/roller/../../core/lv_obj_style_gen.h **** static inline lv_color_t lv_obj_get_style_line_color(const lv_obj_t * obj, lv_part_t part)
 479:Drivers/lvgl/src/widgets/roller/../../core/lv_obj_style_gen.h **** {
 480:Drivers/lvgl/src/widgets/roller/../../core/lv_obj_style_gen.h ****     lv_style_value_t v = lv_obj_get_style_prop(obj, part, LV_STYLE_LINE_COLOR);
 481:Drivers/lvgl/src/widgets/roller/../../core/lv_obj_style_gen.h ****     return v.color;
 482:Drivers/lvgl/src/widgets/roller/../../core/lv_obj_style_gen.h **** }
 483:Drivers/lvgl/src/widgets/roller/../../core/lv_obj_style_gen.h **** 
 484:Drivers/lvgl/src/widgets/roller/../../core/lv_obj_style_gen.h **** static inline lv_color_t lv_obj_get_style_line_color_filtered(const lv_obj_t * obj, lv_part_t part)
 485:Drivers/lvgl/src/widgets/roller/../../core/lv_obj_style_gen.h **** {
 486:Drivers/lvgl/src/widgets/roller/../../core/lv_obj_style_gen.h ****     lv_style_value_t v = lv_obj_style_apply_color_filter(obj, part, lv_obj_get_style_prop(obj, part
 487:Drivers/lvgl/src/widgets/roller/../../core/lv_obj_style_gen.h ****     return v.color;
 488:Drivers/lvgl/src/widgets/roller/../../core/lv_obj_style_gen.h **** }
 489:Drivers/lvgl/src/widgets/roller/../../core/lv_obj_style_gen.h **** 
 490:Drivers/lvgl/src/widgets/roller/../../core/lv_obj_style_gen.h **** static inline lv_opa_t lv_obj_get_style_line_opa(const lv_obj_t * obj, lv_part_t part)
 491:Drivers/lvgl/src/widgets/roller/../../core/lv_obj_style_gen.h **** {
 492:Drivers/lvgl/src/widgets/roller/../../core/lv_obj_style_gen.h ****     lv_style_value_t v = lv_obj_get_style_prop(obj, part, LV_STYLE_LINE_OPA);
 493:Drivers/lvgl/src/widgets/roller/../../core/lv_obj_style_gen.h ****     return (lv_opa_t)v.num;
 494:Drivers/lvgl/src/widgets/roller/../../core/lv_obj_style_gen.h **** }
 495:Drivers/lvgl/src/widgets/roller/../../core/lv_obj_style_gen.h **** 
 496:Drivers/lvgl/src/widgets/roller/../../core/lv_obj_style_gen.h **** static inline int32_t lv_obj_get_style_arc_width(const lv_obj_t * obj, lv_part_t part)
 497:Drivers/lvgl/src/widgets/roller/../../core/lv_obj_style_gen.h **** {
 498:Drivers/lvgl/src/widgets/roller/../../core/lv_obj_style_gen.h ****     lv_style_value_t v = lv_obj_get_style_prop(obj, part, LV_STYLE_ARC_WIDTH);
 499:Drivers/lvgl/src/widgets/roller/../../core/lv_obj_style_gen.h ****     return (int32_t)v.num;
 500:Drivers/lvgl/src/widgets/roller/../../core/lv_obj_style_gen.h **** }
 501:Drivers/lvgl/src/widgets/roller/../../core/lv_obj_style_gen.h **** 
 502:Drivers/lvgl/src/widgets/roller/../../core/lv_obj_style_gen.h **** static inline bool lv_obj_get_style_arc_rounded(const lv_obj_t * obj, lv_part_t part)
ARM GAS  /tmp/ccOwYixx.s 			page 37


 503:Drivers/lvgl/src/widgets/roller/../../core/lv_obj_style_gen.h **** {
 504:Drivers/lvgl/src/widgets/roller/../../core/lv_obj_style_gen.h ****     lv_style_value_t v = lv_obj_get_style_prop(obj, part, LV_STYLE_ARC_ROUNDED);
 505:Drivers/lvgl/src/widgets/roller/../../core/lv_obj_style_gen.h ****     return (bool)v.num;
 506:Drivers/lvgl/src/widgets/roller/../../core/lv_obj_style_gen.h **** }
 507:Drivers/lvgl/src/widgets/roller/../../core/lv_obj_style_gen.h **** 
 508:Drivers/lvgl/src/widgets/roller/../../core/lv_obj_style_gen.h **** static inline lv_color_t lv_obj_get_style_arc_color(const lv_obj_t * obj, lv_part_t part)
 509:Drivers/lvgl/src/widgets/roller/../../core/lv_obj_style_gen.h **** {
 510:Drivers/lvgl/src/widgets/roller/../../core/lv_obj_style_gen.h ****     lv_style_value_t v = lv_obj_get_style_prop(obj, part, LV_STYLE_ARC_COLOR);
 511:Drivers/lvgl/src/widgets/roller/../../core/lv_obj_style_gen.h ****     return v.color;
 512:Drivers/lvgl/src/widgets/roller/../../core/lv_obj_style_gen.h **** }
 513:Drivers/lvgl/src/widgets/roller/../../core/lv_obj_style_gen.h **** 
 514:Drivers/lvgl/src/widgets/roller/../../core/lv_obj_style_gen.h **** static inline lv_color_t lv_obj_get_style_arc_color_filtered(const lv_obj_t * obj, lv_part_t part)
 515:Drivers/lvgl/src/widgets/roller/../../core/lv_obj_style_gen.h **** {
 516:Drivers/lvgl/src/widgets/roller/../../core/lv_obj_style_gen.h ****     lv_style_value_t v = lv_obj_style_apply_color_filter(obj, part, lv_obj_get_style_prop(obj, part
 517:Drivers/lvgl/src/widgets/roller/../../core/lv_obj_style_gen.h ****     return v.color;
 518:Drivers/lvgl/src/widgets/roller/../../core/lv_obj_style_gen.h **** }
 519:Drivers/lvgl/src/widgets/roller/../../core/lv_obj_style_gen.h **** 
 520:Drivers/lvgl/src/widgets/roller/../../core/lv_obj_style_gen.h **** static inline lv_opa_t lv_obj_get_style_arc_opa(const lv_obj_t * obj, lv_part_t part)
 521:Drivers/lvgl/src/widgets/roller/../../core/lv_obj_style_gen.h **** {
 522:Drivers/lvgl/src/widgets/roller/../../core/lv_obj_style_gen.h ****     lv_style_value_t v = lv_obj_get_style_prop(obj, part, LV_STYLE_ARC_OPA);
 523:Drivers/lvgl/src/widgets/roller/../../core/lv_obj_style_gen.h ****     return (lv_opa_t)v.num;
 524:Drivers/lvgl/src/widgets/roller/../../core/lv_obj_style_gen.h **** }
 525:Drivers/lvgl/src/widgets/roller/../../core/lv_obj_style_gen.h **** 
 526:Drivers/lvgl/src/widgets/roller/../../core/lv_obj_style_gen.h **** static inline const void * lv_obj_get_style_arc_image_src(const lv_obj_t * obj, lv_part_t part)
 527:Drivers/lvgl/src/widgets/roller/../../core/lv_obj_style_gen.h **** {
 528:Drivers/lvgl/src/widgets/roller/../../core/lv_obj_style_gen.h ****     lv_style_value_t v = lv_obj_get_style_prop(obj, part, LV_STYLE_ARC_IMAGE_SRC);
 529:Drivers/lvgl/src/widgets/roller/../../core/lv_obj_style_gen.h ****     return (const void *)v.ptr;
 530:Drivers/lvgl/src/widgets/roller/../../core/lv_obj_style_gen.h **** }
 531:Drivers/lvgl/src/widgets/roller/../../core/lv_obj_style_gen.h **** 
 532:Drivers/lvgl/src/widgets/roller/../../core/lv_obj_style_gen.h **** static inline lv_color_t lv_obj_get_style_text_color(const lv_obj_t * obj, lv_part_t part)
 533:Drivers/lvgl/src/widgets/roller/../../core/lv_obj_style_gen.h **** {
 534:Drivers/lvgl/src/widgets/roller/../../core/lv_obj_style_gen.h ****     lv_style_value_t v = lv_obj_get_style_prop(obj, part, LV_STYLE_TEXT_COLOR);
 535:Drivers/lvgl/src/widgets/roller/../../core/lv_obj_style_gen.h ****     return v.color;
 536:Drivers/lvgl/src/widgets/roller/../../core/lv_obj_style_gen.h **** }
 537:Drivers/lvgl/src/widgets/roller/../../core/lv_obj_style_gen.h **** 
 538:Drivers/lvgl/src/widgets/roller/../../core/lv_obj_style_gen.h **** static inline lv_color_t lv_obj_get_style_text_color_filtered(const lv_obj_t * obj, lv_part_t part)
 539:Drivers/lvgl/src/widgets/roller/../../core/lv_obj_style_gen.h **** {
 540:Drivers/lvgl/src/widgets/roller/../../core/lv_obj_style_gen.h ****     lv_style_value_t v = lv_obj_style_apply_color_filter(obj, part, lv_obj_get_style_prop(obj, part
 541:Drivers/lvgl/src/widgets/roller/../../core/lv_obj_style_gen.h ****     return v.color;
 542:Drivers/lvgl/src/widgets/roller/../../core/lv_obj_style_gen.h **** }
 543:Drivers/lvgl/src/widgets/roller/../../core/lv_obj_style_gen.h **** 
 544:Drivers/lvgl/src/widgets/roller/../../core/lv_obj_style_gen.h **** static inline lv_opa_t lv_obj_get_style_text_opa(const lv_obj_t * obj, lv_part_t part)
 545:Drivers/lvgl/src/widgets/roller/../../core/lv_obj_style_gen.h **** {
 546:Drivers/lvgl/src/widgets/roller/../../core/lv_obj_style_gen.h ****     lv_style_value_t v = lv_obj_get_style_prop(obj, part, LV_STYLE_TEXT_OPA);
 547:Drivers/lvgl/src/widgets/roller/../../core/lv_obj_style_gen.h ****     return (lv_opa_t)v.num;
 548:Drivers/lvgl/src/widgets/roller/../../core/lv_obj_style_gen.h **** }
 549:Drivers/lvgl/src/widgets/roller/../../core/lv_obj_style_gen.h **** 
 550:Drivers/lvgl/src/widgets/roller/../../core/lv_obj_style_gen.h **** static inline const lv_font_t * lv_obj_get_style_text_font(const lv_obj_t * obj, lv_part_t part)
 330              		.loc 2 550 33 view .LVU86
 331              	.LBB82:
 551:Drivers/lvgl/src/widgets/roller/../../core/lv_obj_style_gen.h **** {
 552:Drivers/lvgl/src/widgets/roller/../../core/lv_obj_style_gen.h ****     lv_style_value_t v = lv_obj_get_style_prop(obj, part, LV_STYLE_TEXT_FONT);
 332              		.loc 2 552 5 view .LVU87
 333              		.loc 2 552 26 is_stmt 0 view .LVU88
 334 000e 5A22     		movs	r2, #90
 335 0010 4FF48021 		mov	r1, #262144
 336 0014 2046     		mov	r0, r4
ARM GAS  /tmp/ccOwYixx.s 			page 38


 337              	.LVL32:
 338              		.loc 2 552 26 view .LVU89
 339 0016 FFF7FEFF 		bl	lv_obj_get_style_prop
 340              	.LVL33:
 341 001a 0546     		mov	r5, r0
 342 001c 0590     		str	r0, [sp, #20]
 553:Drivers/lvgl/src/widgets/roller/../../core/lv_obj_style_gen.h ****     return (const lv_font_t *)v.ptr;
 343              		.loc 2 553 5 is_stmt 1 view .LVU90
 344              	.LVL34:
 345              		.loc 2 553 5 is_stmt 0 view .LVU91
 346              	.LBE82:
 347              	.LBE81:
 856:Drivers/lvgl/src/widgets/roller/lv_roller.c ****     const char * txt = lv_label_get_text(label);
 348              		.loc 1 856 5 is_stmt 1 view .LVU92
 349              	.LBB83:
 350              	.LBI83:
 554:Drivers/lvgl/src/widgets/roller/../../core/lv_obj_style_gen.h **** }
 555:Drivers/lvgl/src/widgets/roller/../../core/lv_obj_style_gen.h **** 
 556:Drivers/lvgl/src/widgets/roller/../../core/lv_obj_style_gen.h **** static inline int32_t lv_obj_get_style_text_letter_space(const lv_obj_t * obj, lv_part_t part)
 351              		.loc 2 556 23 view .LVU93
 352              	.LBB84:
 557:Drivers/lvgl/src/widgets/roller/../../core/lv_obj_style_gen.h **** {
 558:Drivers/lvgl/src/widgets/roller/../../core/lv_obj_style_gen.h ****     lv_style_value_t v = lv_obj_get_style_prop(obj, part, LV_STYLE_TEXT_LETTER_SPACE);
 353              		.loc 2 558 5 view .LVU94
 354              		.loc 2 558 26 is_stmt 0 view .LVU95
 355 001e 5B22     		movs	r2, #91
 356 0020 4FF48021 		mov	r1, #262144
 357 0024 2046     		mov	r0, r4
 358              	.LVL35:
 359              		.loc 2 558 26 view .LVU96
 360 0026 FFF7FEFF 		bl	lv_obj_get_style_prop
 361              	.LVL36:
 362 002a 0446     		mov	r4, r0
 363              	.LVL37:
 364              		.loc 2 558 26 view .LVU97
 365 002c 0590     		str	r0, [sp, #20]
 559:Drivers/lvgl/src/widgets/roller/../../core/lv_obj_style_gen.h ****     return (int32_t)v.num;
 366              		.loc 2 559 5 is_stmt 1 view .LVU98
 367              	.LVL38:
 368              		.loc 2 559 5 is_stmt 0 view .LVU99
 369              	.LBE84:
 370              	.LBE83:
 857:Drivers/lvgl/src/widgets/roller/lv_roller.c ****     lv_point_t size;
 371              		.loc 1 857 5 is_stmt 1 view .LVU100
 857:Drivers/lvgl/src/widgets/roller/lv_roller.c ****     lv_point_t size;
 372              		.loc 1 857 24 is_stmt 0 view .LVU101
 373 002e 3046     		mov	r0, r6
 374              	.LVL39:
 857:Drivers/lvgl/src/widgets/roller/lv_roller.c ****     lv_point_t size;
 375              		.loc 1 857 24 view .LVU102
 376 0030 FFF7FEFF 		bl	lv_label_get_text
 377              	.LVL40:
 378 0034 0146     		mov	r1, r0
 379              	.LVL41:
 858:Drivers/lvgl/src/widgets/roller/lv_roller.c ****     lv_text_get_size(&size, txt, font, letter_space, 0, LV_COORD_MAX,  LV_TEXT_FLAG_NONE);
 380              		.loc 1 858 5 is_stmt 1 view .LVU103
 859:Drivers/lvgl/src/widgets/roller/lv_roller.c ****     return size.x;
ARM GAS  /tmp/ccOwYixx.s 			page 39


 381              		.loc 1 859 5 view .LVU104
 382 0036 0023     		movs	r3, #0
 383 0038 0293     		str	r3, [sp, #8]
 384 003a 6FF06042 		mvn	r2, #-536870912
 385 003e 0192     		str	r2, [sp, #4]
 386 0040 0093     		str	r3, [sp]
 387 0042 2346     		mov	r3, r4
 388 0044 2A46     		mov	r2, r5
 389 0046 06A8     		add	r0, sp, #24
 390              	.LVL42:
 859:Drivers/lvgl/src/widgets/roller/lv_roller.c ****     return size.x;
 391              		.loc 1 859 5 is_stmt 0 view .LVU105
 392 0048 FFF7FEFF 		bl	lv_text_get_size
 393              	.LVL43:
 860:Drivers/lvgl/src/widgets/roller/lv_roller.c **** }
 394              		.loc 1 860 5 is_stmt 1 view .LVU106
 860:Drivers/lvgl/src/widgets/roller/lv_roller.c **** }
 395              		.loc 1 860 16 is_stmt 0 view .LVU107
 396 004c 0698     		ldr	r0, [sp, #24]
 397              	.LVL44:
 398              	.L13:
 861:Drivers/lvgl/src/widgets/roller/lv_roller.c **** 
 399              		.loc 1 861 1 view .LVU108
 400 004e 08B0     		add	sp, sp, #32
 401              	.LCFI7:
 402              		.cfi_remember_state
 403              		.cfi_def_cfa_offset 16
 404              		@ sp needed
 405 0050 70BD     		pop	{r4, r5, r6, pc}
 406              	.LVL45:
 407              	.L15:
 408              	.LCFI8:
 409              		.cfi_restore_state
 853:Drivers/lvgl/src/widgets/roller/lv_roller.c **** 
 410              		.loc 1 853 30 discriminator 1 view .LVU109
 411 0052 0020     		movs	r0, #0
 412              	.LVL46:
 853:Drivers/lvgl/src/widgets/roller/lv_roller.c **** 
 413              		.loc 1 853 30 discriminator 1 view .LVU110
 414 0054 FBE7     		b	.L13
 415              		.cfi_endproc
 416              	.LFE208:
 418              		.section	.text.inf_normalize,"ax",%progbits
 419              		.align	1
 420              		.syntax unified
 421              		.thumb
 422              		.thumb_func
 424              	inf_normalize:
 425              	.LVL47:
 426              	.LFB206:
 819:Drivers/lvgl/src/widgets/roller/lv_roller.c ****     lv_roller_t * roller = (lv_roller_t *)obj;
 427              		.loc 1 819 1 is_stmt 1 view -0
 428              		.cfi_startproc
 429              		@ args = 0, pretend = 0, frame = 8
 430              		@ frame_needed = 0, uses_anonymous_args = 0
 820:Drivers/lvgl/src/widgets/roller/lv_roller.c **** 
 431              		.loc 1 820 5 view .LVU112
ARM GAS  /tmp/ccOwYixx.s 			page 40


 822:Drivers/lvgl/src/widgets/roller/lv_roller.c ****         uint32_t real_id_cnt = roller->option_cnt / roller->inf_page_cnt;
 432              		.loc 1 822 5 view .LVU113
 822:Drivers/lvgl/src/widgets/roller/lv_roller.c ****         uint32_t real_id_cnt = roller->option_cnt / roller->inf_page_cnt;
 433              		.loc 1 822 21 is_stmt 0 view .LVU114
 434 0000 90F83C30 		ldrb	r3, [r0, #60]	@ zero_extendqisi2
 435 0004 03F00303 		and	r3, r3, #3
 822:Drivers/lvgl/src/widgets/roller/lv_roller.c ****         uint32_t real_id_cnt = roller->option_cnt / roller->inf_page_cnt;
 436              		.loc 1 822 7 view .LVU115
 437 0008 012B     		cmp	r3, #1
 438 000a 00D0     		beq	.L25
 439 000c 7047     		bx	lr
 440              	.L25:
 819:Drivers/lvgl/src/widgets/roller/lv_roller.c ****     lv_roller_t * roller = (lv_roller_t *)obj;
 441              		.loc 1 819 1 view .LVU116
 442 000e F0B5     		push	{r4, r5, r6, r7, lr}
 443              	.LCFI9:
 444              		.cfi_def_cfa_offset 20
 445              		.cfi_offset 4, -20
 446              		.cfi_offset 5, -16
 447              		.cfi_offset 6, -12
 448              		.cfi_offset 7, -8
 449              		.cfi_offset 14, -4
 450 0010 83B0     		sub	sp, sp, #12
 451              	.LCFI10:
 452              		.cfi_def_cfa_offset 32
 453 0012 0446     		mov	r4, r0
 454              	.LBB85:
 823:Drivers/lvgl/src/widgets/roller/lv_roller.c ****         roller->sel_opt_id = roller->sel_opt_id % real_id_cnt;
 455              		.loc 1 823 9 is_stmt 1 view .LVU117
 823:Drivers/lvgl/src/widgets/roller/lv_roller.c ****         roller->sel_opt_id = roller->sel_opt_id % real_id_cnt;
 456              		.loc 1 823 38 is_stmt 0 view .LVU118
 457 0014 C16A     		ldr	r1, [r0, #44]
 823:Drivers/lvgl/src/widgets/roller/lv_roller.c ****         roller->sel_opt_id = roller->sel_opt_id % real_id_cnt;
 458              		.loc 1 823 59 view .LVU119
 459 0016 826B     		ldr	r2, [r0, #56]
 823:Drivers/lvgl/src/widgets/roller/lv_roller.c ****         roller->sel_opt_id = roller->sel_opt_id % real_id_cnt;
 460              		.loc 1 823 18 view .LVU120
 461 0018 B1FBF2F1 		udiv	r1, r1, r2
 462              	.LVL48:
 824:Drivers/lvgl/src/widgets/roller/lv_roller.c ****         roller->sel_opt_id += (roller->inf_page_cnt / 2) * real_id_cnt; /*Select the middle page*/
 463              		.loc 1 824 9 is_stmt 1 view .LVU121
 824:Drivers/lvgl/src/widgets/roller/lv_roller.c ****         roller->sel_opt_id += (roller->inf_page_cnt / 2) * real_id_cnt; /*Select the middle page*/
 464              		.loc 1 824 36 is_stmt 0 view .LVU122
 465 001c 036B     		ldr	r3, [r0, #48]
 824:Drivers/lvgl/src/widgets/roller/lv_roller.c ****         roller->sel_opt_id += (roller->inf_page_cnt / 2) * real_id_cnt; /*Select the middle page*/
 466              		.loc 1 824 49 view .LVU123
 467 001e B3FBF1F0 		udiv	r0, r3, r1
 468              	.LVL49:
 824:Drivers/lvgl/src/widgets/roller/lv_roller.c ****         roller->sel_opt_id += (roller->inf_page_cnt / 2) * real_id_cnt; /*Select the middle page*/
 469              		.loc 1 824 49 view .LVU124
 470 0022 01FB1033 		mls	r3, r1, r0, r3
 824:Drivers/lvgl/src/widgets/roller/lv_roller.c ****         roller->sel_opt_id += (roller->inf_page_cnt / 2) * real_id_cnt; /*Select the middle page*/
 471              		.loc 1 824 28 view .LVU125
 472 0026 2363     		str	r3, [r4, #48]
 825:Drivers/lvgl/src/widgets/roller/lv_roller.c **** 
 473              		.loc 1 825 9 is_stmt 1 view .LVU126
 825:Drivers/lvgl/src/widgets/roller/lv_roller.c **** 
ARM GAS  /tmp/ccOwYixx.s 			page 41


 474              		.loc 1 825 53 is_stmt 0 view .LVU127
 475 0028 5208     		lsrs	r2, r2, #1
 825:Drivers/lvgl/src/widgets/roller/lv_roller.c **** 
 476              		.loc 1 825 58 view .LVU128
 477 002a 01FB02F2 		mul	r2, r1, r2
 825:Drivers/lvgl/src/widgets/roller/lv_roller.c **** 
 478              		.loc 1 825 28 view .LVU129
 479 002e 1344     		add	r3, r3, r2
 480 0030 2363     		str	r3, [r4, #48]
 827:Drivers/lvgl/src/widgets/roller/lv_roller.c ****         roller->sel_opt_id_ori += (roller->inf_page_cnt / 2) * real_id_cnt; /*Select the middle pag
 481              		.loc 1 827 9 is_stmt 1 view .LVU130
 827:Drivers/lvgl/src/widgets/roller/lv_roller.c ****         roller->sel_opt_id_ori += (roller->inf_page_cnt / 2) * real_id_cnt; /*Select the middle pag
 482              		.loc 1 827 53 is_stmt 0 view .LVU131
 483 0032 B3FBF1F0 		udiv	r0, r3, r1
 484 0036 01FB1033 		mls	r3, r1, r0, r3
 827:Drivers/lvgl/src/widgets/roller/lv_roller.c ****         roller->sel_opt_id_ori += (roller->inf_page_cnt / 2) * real_id_cnt; /*Select the middle pag
 485              		.loc 1 827 32 view .LVU132
 486 003a 6363     		str	r3, [r4, #52]
 828:Drivers/lvgl/src/widgets/roller/lv_roller.c **** 
 487              		.loc 1 828 9 is_stmt 1 view .LVU133
 828:Drivers/lvgl/src/widgets/roller/lv_roller.c **** 
 488              		.loc 1 828 32 is_stmt 0 view .LVU134
 489 003c 1A44     		add	r2, r2, r3
 490 003e 6263     		str	r2, [r4, #52]
 831:Drivers/lvgl/src/widgets/roller/lv_roller.c ****         int32_t line_space = lv_obj_get_style_text_line_space(obj, LV_PART_MAIN);
 491              		.loc 1 831 9 is_stmt 1 view .LVU135
 492              	.LVL50:
 493              	.LBB86:
 494              	.LBI86:
 550:Drivers/lvgl/src/widgets/roller/../../core/lv_obj_style_gen.h **** {
 495              		.loc 2 550 33 view .LVU136
 496              	.LBB87:
 552:Drivers/lvgl/src/widgets/roller/../../core/lv_obj_style_gen.h ****     return (const lv_font_t *)v.ptr;
 497              		.loc 2 552 5 view .LVU137
 552:Drivers/lvgl/src/widgets/roller/../../core/lv_obj_style_gen.h ****     return (const lv_font_t *)v.ptr;
 498              		.loc 2 552 26 is_stmt 0 view .LVU138
 499 0040 5A22     		movs	r2, #90
 500 0042 0021     		movs	r1, #0
 501              	.LVL51:
 552:Drivers/lvgl/src/widgets/roller/../../core/lv_obj_style_gen.h ****     return (const lv_font_t *)v.ptr;
 502              		.loc 2 552 26 view .LVU139
 503 0044 2046     		mov	r0, r4
 504 0046 FFF7FEFF 		bl	lv_obj_get_style_prop
 505              	.LVL52:
 552:Drivers/lvgl/src/widgets/roller/../../core/lv_obj_style_gen.h ****     return (const lv_font_t *)v.ptr;
 506              		.loc 2 552 26 view .LVU140
 507 004a 0646     		mov	r6, r0
 508 004c 0190     		str	r0, [sp, #4]
 553:Drivers/lvgl/src/widgets/roller/../../core/lv_obj_style_gen.h **** }
 509              		.loc 2 553 5 is_stmt 1 view .LVU141
 510              	.LVL53:
 553:Drivers/lvgl/src/widgets/roller/../../core/lv_obj_style_gen.h **** }
 511              		.loc 2 553 5 is_stmt 0 view .LVU142
 512              	.LBE87:
 513              	.LBE86:
 832:Drivers/lvgl/src/widgets/roller/lv_roller.c ****         int32_t font_h              = lv_font_get_line_height(font);
 514              		.loc 1 832 9 is_stmt 1 view .LVU143
ARM GAS  /tmp/ccOwYixx.s 			page 42


 515              	.LBB88:
 516              	.LBI88:
 560:Drivers/lvgl/src/widgets/roller/../../core/lv_obj_style_gen.h **** }
 561:Drivers/lvgl/src/widgets/roller/../../core/lv_obj_style_gen.h **** 
 562:Drivers/lvgl/src/widgets/roller/../../core/lv_obj_style_gen.h **** static inline int32_t lv_obj_get_style_text_line_space(const lv_obj_t * obj, lv_part_t part)
 517              		.loc 2 562 23 view .LVU144
 518              	.LBB89:
 563:Drivers/lvgl/src/widgets/roller/../../core/lv_obj_style_gen.h **** {
 564:Drivers/lvgl/src/widgets/roller/../../core/lv_obj_style_gen.h ****     lv_style_value_t v = lv_obj_get_style_prop(obj, part, LV_STYLE_TEXT_LINE_SPACE);
 519              		.loc 2 564 5 view .LVU145
 520              		.loc 2 564 26 is_stmt 0 view .LVU146
 521 004e 5C22     		movs	r2, #92
 522 0050 0021     		movs	r1, #0
 523 0052 2046     		mov	r0, r4
 524              	.LVL54:
 525              		.loc 2 564 26 view .LVU147
 526 0054 FFF7FEFF 		bl	lv_obj_get_style_prop
 527              	.LVL55:
 528 0058 0546     		mov	r5, r0
 529 005a 0190     		str	r0, [sp, #4]
 565:Drivers/lvgl/src/widgets/roller/../../core/lv_obj_style_gen.h ****     return (int32_t)v.num;
 530              		.loc 2 565 5 is_stmt 1 view .LVU148
 531              	.LVL56:
 532              		.loc 2 565 5 is_stmt 0 view .LVU149
 533              	.LBE89:
 534              	.LBE88:
 833:Drivers/lvgl/src/widgets/roller/lv_roller.c ****         int32_t h                   = lv_obj_get_content_height(obj);
 535              		.loc 1 833 9 is_stmt 1 view .LVU150
 833:Drivers/lvgl/src/widgets/roller/lv_roller.c ****         int32_t h                   = lv_obj_get_content_height(obj);
 536              		.loc 1 833 39 is_stmt 0 view .LVU151
 537 005c 3046     		mov	r0, r6
 538              	.LVL57:
 833:Drivers/lvgl/src/widgets/roller/lv_roller.c ****         int32_t h                   = lv_obj_get_content_height(obj);
 539              		.loc 1 833 39 view .LVU152
 540 005e FFF7FEFF 		bl	lv_font_get_line_height
 541              	.LVL58:
 542 0062 0646     		mov	r6, r0
 543              	.LVL59:
 834:Drivers/lvgl/src/widgets/roller/lv_roller.c **** 
 544              		.loc 1 834 9 is_stmt 1 view .LVU153
 834:Drivers/lvgl/src/widgets/roller/lv_roller.c **** 
 545              		.loc 1 834 39 is_stmt 0 view .LVU154
 546 0064 2046     		mov	r0, r4
 547              	.LVL60:
 834:Drivers/lvgl/src/widgets/roller/lv_roller.c **** 
 548              		.loc 1 834 39 view .LVU155
 549 0066 FFF7FEFF 		bl	lv_obj_get_content_height
 550              	.LVL61:
 551 006a 0746     		mov	r7, r0
 552              	.LVL62:
 836:Drivers/lvgl/src/widgets/roller/lv_roller.c **** 
 553              		.loc 1 836 9 is_stmt 1 view .LVU156
 836:Drivers/lvgl/src/widgets/roller/lv_roller.c **** 
 554              		.loc 1 836 28 is_stmt 0 view .LVU157
 555 006c 2046     		mov	r0, r4
 556              	.LVL63:
 836:Drivers/lvgl/src/widgets/roller/lv_roller.c **** 
ARM GAS  /tmp/ccOwYixx.s 			page 43


 557              		.loc 1 836 28 view .LVU158
 558 006e FFF7FEFF 		bl	get_label
 559              	.LVL64:
 838:Drivers/lvgl/src/widgets/roller/lv_roller.c ****         int32_t mid_y1 = h / 2 - font_h / 2;
 560              		.loc 1 838 9 is_stmt 1 view .LVU159
 838:Drivers/lvgl/src/widgets/roller/lv_roller.c ****         int32_t mid_y1 = h / 2 - font_h / 2;
 561              		.loc 1 838 32 is_stmt 0 view .LVU160
 562 0072 216B     		ldr	r1, [r4, #48]
 838:Drivers/lvgl/src/widgets/roller/lv_roller.c ****         int32_t mid_y1 = h / 2 - font_h / 2;
 563              		.loc 1 838 55 view .LVU161
 564 0074 3544     		add	r5, r5, r6
 565              	.LVL65:
 838:Drivers/lvgl/src/widgets/roller/lv_roller.c ****         int32_t mid_y1 = h / 2 - font_h / 2;
 566              		.loc 1 838 45 view .LVU162
 567 0076 05FB01F1 		mul	r1, r5, r1
 568              	.LVL66:
 839:Drivers/lvgl/src/widgets/roller/lv_roller.c ****         int32_t new_y = mid_y1 - sel_y1;
 569              		.loc 1 839 9 is_stmt 1 view .LVU163
 839:Drivers/lvgl/src/widgets/roller/lv_roller.c ****         int32_t new_y = mid_y1 - sel_y1;
 570              		.loc 1 839 28 is_stmt 0 view .LVU164
 571 007a 3B46     		mov	r3, r7
 572 007c 002F     		cmp	r7, #0
 573 007e 0ADB     		blt	.L26
 574              	.L19:
 839:Drivers/lvgl/src/widgets/roller/lv_roller.c ****         int32_t new_y = mid_y1 - sel_y1;
 575              		.loc 1 839 28 view .LVU165
 576 0080 5B10     		asrs	r3, r3, #1
 839:Drivers/lvgl/src/widgets/roller/lv_roller.c ****         int32_t new_y = mid_y1 - sel_y1;
 577              		.loc 1 839 41 view .LVU166
 578 0082 3246     		mov	r2, r6
 579 0084 002E     		cmp	r6, #0
 580 0086 08DB     		blt	.L27
 581              	.L20:
 839:Drivers/lvgl/src/widgets/roller/lv_roller.c ****         int32_t new_y = mid_y1 - sel_y1;
 582              		.loc 1 839 17 view .LVU167
 583 0088 A3EB6203 		sub	r3, r3, r2, asr #1
 584              	.LVL67:
 840:Drivers/lvgl/src/widgets/roller/lv_roller.c ****         lv_obj_set_y(label, new_y);
 585              		.loc 1 840 9 is_stmt 1 view .LVU168
 841:Drivers/lvgl/src/widgets/roller/lv_roller.c ****     }
 586              		.loc 1 841 9 view .LVU169
 587 008c 591A     		subs	r1, r3, r1
 588              	.LVL68:
 841:Drivers/lvgl/src/widgets/roller/lv_roller.c ****     }
 589              		.loc 1 841 9 is_stmt 0 view .LVU170
 590 008e FFF7FEFF 		bl	lv_obj_set_y
 591              	.LVL69:
 841:Drivers/lvgl/src/widgets/roller/lv_roller.c ****     }
 592              		.loc 1 841 9 view .LVU171
 593              	.LBE85:
 843:Drivers/lvgl/src/widgets/roller/lv_roller.c **** 
 594              		.loc 1 843 1 view .LVU172
 595 0092 03B0     		add	sp, sp, #12
 596              	.LCFI11:
 597              		.cfi_remember_state
 598              		.cfi_def_cfa_offset 20
 599              		@ sp needed
ARM GAS  /tmp/ccOwYixx.s 			page 44


 600 0094 F0BD     		pop	{r4, r5, r6, r7, pc}
 601              	.LVL70:
 602              	.L26:
 603              	.LCFI12:
 604              		.cfi_restore_state
 605              	.LBB90:
 839:Drivers/lvgl/src/widgets/roller/lv_roller.c ****         int32_t new_y = mid_y1 - sel_y1;
 606              		.loc 1 839 28 view .LVU173
 607 0096 7B1C     		adds	r3, r7, #1
 608              	.LVL71:
 839:Drivers/lvgl/src/widgets/roller/lv_roller.c ****         int32_t new_y = mid_y1 - sel_y1;
 609              		.loc 1 839 28 view .LVU174
 610 0098 F2E7     		b	.L19
 611              	.LVL72:
 612              	.L27:
 839:Drivers/lvgl/src/widgets/roller/lv_roller.c ****         int32_t new_y = mid_y1 - sel_y1;
 613              		.loc 1 839 41 view .LVU175
 614 009a 721C     		adds	r2, r6, #1
 615              	.LVL73:
 839:Drivers/lvgl/src/widgets/roller/lv_roller.c ****         int32_t new_y = mid_y1 - sel_y1;
 616              		.loc 1 839 41 view .LVU176
 617 009c F4E7     		b	.L20
 618              	.LBE90:
 619              		.cfi_endproc
 620              	.LFE206:
 622              		.section	.text.scroll_anim_completed_cb,"ax",%progbits
 623              		.align	1
 624              		.syntax unified
 625              		.thumb
 626              		.thumb_func
 628              	scroll_anim_completed_cb:
 629              	.LVL74:
 630              	.LFB209:
 864:Drivers/lvgl/src/widgets/roller/lv_roller.c ****     lv_obj_t * obj = lv_obj_get_parent(a->var); /*The label is animated*/
 631              		.loc 1 864 1 is_stmt 1 view -0
 632              		.cfi_startproc
 633              		@ args = 0, pretend = 0, frame = 0
 634              		@ frame_needed = 0, uses_anonymous_args = 0
 864:Drivers/lvgl/src/widgets/roller/lv_roller.c ****     lv_obj_t * obj = lv_obj_get_parent(a->var); /*The label is animated*/
 635              		.loc 1 864 1 is_stmt 0 view .LVU178
 636 0000 08B5     		push	{r3, lr}
 637              	.LCFI13:
 638              		.cfi_def_cfa_offset 8
 639              		.cfi_offset 3, -8
 640              		.cfi_offset 14, -4
 865:Drivers/lvgl/src/widgets/roller/lv_roller.c ****     inf_normalize(obj);
 641              		.loc 1 865 5 is_stmt 1 view .LVU179
 865:Drivers/lvgl/src/widgets/roller/lv_roller.c ****     inf_normalize(obj);
 642              		.loc 1 865 22 is_stmt 0 view .LVU180
 643 0002 0068     		ldr	r0, [r0]
 644              	.LVL75:
 865:Drivers/lvgl/src/widgets/roller/lv_roller.c ****     inf_normalize(obj);
 645              		.loc 1 865 22 view .LVU181
 646 0004 FFF7FEFF 		bl	lv_obj_get_parent
 647              	.LVL76:
 866:Drivers/lvgl/src/widgets/roller/lv_roller.c **** }
 648              		.loc 1 866 5 is_stmt 1 view .LVU182
ARM GAS  /tmp/ccOwYixx.s 			page 45


 649 0008 FFF7FEFF 		bl	inf_normalize
 650              	.LVL77:
 867:Drivers/lvgl/src/widgets/roller/lv_roller.c **** 
 651              		.loc 1 867 1 is_stmt 0 view .LVU183
 652 000c 08BD     		pop	{r3, pc}
 653              		.cfi_endproc
 654              	.LFE209:
 656              		.section	.text.refr_position,"ax",%progbits
 657              		.align	1
 658              		.syntax unified
 659              		.thumb
 660              		.thumb_func
 662              	refr_position:
 663              	.LVL78:
 664              	.LFB204:
 670:Drivers/lvgl/src/widgets/roller/lv_roller.c ****     lv_obj_t * label = get_label(obj);
 665              		.loc 1 670 1 is_stmt 1 view -0
 666              		.cfi_startproc
 667              		@ args = 0, pretend = 0, frame = 96
 668              		@ frame_needed = 0, uses_anonymous_args = 0
 670:Drivers/lvgl/src/widgets/roller/lv_roller.c ****     lv_obj_t * label = get_label(obj);
 669              		.loc 1 670 1 is_stmt 0 view .LVU185
 670 0000 2DE9F047 		push	{r4, r5, r6, r7, r8, r9, r10, lr}
 671              	.LCFI14:
 672              		.cfi_def_cfa_offset 32
 673              		.cfi_offset 4, -32
 674              		.cfi_offset 5, -28
 675              		.cfi_offset 6, -24
 676              		.cfi_offset 7, -20
 677              		.cfi_offset 8, -16
 678              		.cfi_offset 9, -12
 679              		.cfi_offset 10, -8
 680              		.cfi_offset 14, -4
 681 0004 98B0     		sub	sp, sp, #96
 682              	.LCFI15:
 683              		.cfi_def_cfa_offset 128
 684 0006 0546     		mov	r5, r0
 685 0008 0C46     		mov	r4, r1
 671:Drivers/lvgl/src/widgets/roller/lv_roller.c ****     if(label == NULL) return;
 686              		.loc 1 671 5 is_stmt 1 view .LVU186
 671:Drivers/lvgl/src/widgets/roller/lv_roller.c ****     if(label == NULL) return;
 687              		.loc 1 671 24 is_stmt 0 view .LVU187
 688 000a FFF7FEFF 		bl	get_label
 689              	.LVL79:
 672:Drivers/lvgl/src/widgets/roller/lv_roller.c **** 
 690              		.loc 1 672 5 is_stmt 1 view .LVU188
 672:Drivers/lvgl/src/widgets/roller/lv_roller.c **** 
 691              		.loc 1 672 7 is_stmt 0 view .LVU189
 692 000e 0028     		cmp	r0, #0
 693 0010 57D0     		beq	.L30
 694 0012 0746     		mov	r7, r0
 674:Drivers/lvgl/src/widgets/roller/lv_roller.c **** 
 695              		.loc 1 674 5 is_stmt 1 view .LVU190
 674:Drivers/lvgl/src/widgets/roller/lv_roller.c **** 
 696              		.loc 1 674 90 is_stmt 0 view .LVU191
 697 0014 FFF7FEFF 		bl	lv_label_get_text
 698              	.LVL80:
ARM GAS  /tmp/ccOwYixx.s 			page 46


 674:Drivers/lvgl/src/widgets/roller/lv_roller.c **** 
 699              		.loc 1 674 90 view .LVU192
 700 0018 0246     		mov	r2, r0
 674:Drivers/lvgl/src/widgets/roller/lv_roller.c **** 
 701              		.loc 1 674 35 discriminator 1 view .LVU193
 702 001a 0021     		movs	r1, #0
 703 001c 3846     		mov	r0, r7
 704 001e FFF7FEFF 		bl	lv_obj_calculate_style_text_align
 705              	.LVL81:
 676:Drivers/lvgl/src/widgets/roller/lv_roller.c ****     switch(align) {
 706              		.loc 1 676 5 is_stmt 1 view .LVU194
 677:Drivers/lvgl/src/widgets/roller/lv_roller.c ****         case LV_TEXT_ALIGN_CENTER:
 707              		.loc 1 677 5 view .LVU195
 708 0022 0228     		cmp	r0, #2
 709 0024 03D0     		beq	.L32
 710 0026 0328     		cmp	r0, #3
 711 0028 50D0     		beq	.L33
 712 002a 0021     		movs	r1, #0
 713 002c 09E0     		b	.L34
 714              	.L32:
 679:Drivers/lvgl/src/widgets/roller/lv_roller.c ****             break;
 715              		.loc 1 679 13 view .LVU196
 679:Drivers/lvgl/src/widgets/roller/lv_roller.c ****             break;
 716              		.loc 1 679 18 is_stmt 0 view .LVU197
 717 002e 2846     		mov	r0, r5
 718              	.LVL82:
 679:Drivers/lvgl/src/widgets/roller/lv_roller.c ****             break;
 719              		.loc 1 679 18 view .LVU198
 720 0030 FFF7FEFF 		bl	lv_obj_get_content_width
 721              	.LVL83:
 722 0034 0646     		mov	r6, r0
 679:Drivers/lvgl/src/widgets/roller/lv_roller.c ****             break;
 723              		.loc 1 679 50 discriminator 1 view .LVU199
 724 0036 3846     		mov	r0, r7
 725 0038 FFF7FEFF 		bl	lv_obj_get_width
 726              	.LVL84:
 679:Drivers/lvgl/src/widgets/roller/lv_roller.c ****             break;
 727              		.loc 1 679 15 discriminator 2 view .LVU200
 728 003c 311A     		subs	r1, r6, r0
 729 003e 43D4     		bmi	.L41
 730              	.L35:
 731 0040 4910     		asrs	r1, r1, #1
 732              	.LVL85:
 680:Drivers/lvgl/src/widgets/roller/lv_roller.c ****         case LV_TEXT_ALIGN_RIGHT:
 733              		.loc 1 680 13 is_stmt 1 view .LVU201
 734              	.L34:
 691:Drivers/lvgl/src/widgets/roller/lv_roller.c **** 
 735              		.loc 1 691 5 view .LVU202
 736 0042 3846     		mov	r0, r7
 737 0044 FFF7FEFF 		bl	lv_obj_set_x
 738              	.LVL86:
 693:Drivers/lvgl/src/widgets/roller/lv_roller.c ****     const int32_t line_space = lv_obj_get_style_text_line_space(obj, LV_PART_MAIN);
 739              		.loc 1 693 5 view .LVU203
 740              	.LBB91:
 741              	.LBI91:
 550:Drivers/lvgl/src/widgets/roller/../../core/lv_obj_style_gen.h **** {
 742              		.loc 2 550 33 view .LVU204
ARM GAS  /tmp/ccOwYixx.s 			page 47


 743              	.LBB92:
 552:Drivers/lvgl/src/widgets/roller/../../core/lv_obj_style_gen.h ****     return (const lv_font_t *)v.ptr;
 744              		.loc 2 552 5 view .LVU205
 552:Drivers/lvgl/src/widgets/roller/../../core/lv_obj_style_gen.h ****     return (const lv_font_t *)v.ptr;
 745              		.loc 2 552 26 is_stmt 0 view .LVU206
 746 0048 5A22     		movs	r2, #90
 747 004a 0021     		movs	r1, #0
 748 004c 2846     		mov	r0, r5
 749 004e FFF7FEFF 		bl	lv_obj_get_style_prop
 750              	.LVL87:
 751 0052 8046     		mov	r8, r0
 752 0054 0090     		str	r0, [sp]
 553:Drivers/lvgl/src/widgets/roller/../../core/lv_obj_style_gen.h **** }
 753              		.loc 2 553 5 is_stmt 1 view .LVU207
 754              	.LVL88:
 553:Drivers/lvgl/src/widgets/roller/../../core/lv_obj_style_gen.h **** }
 755              		.loc 2 553 5 is_stmt 0 view .LVU208
 756              	.LBE92:
 757              	.LBE91:
 694:Drivers/lvgl/src/widgets/roller/lv_roller.c ****     const int32_t font_h = lv_font_get_line_height(font);
 758              		.loc 1 694 5 is_stmt 1 view .LVU209
 759              	.LBB93:
 760              	.LBI93:
 562:Drivers/lvgl/src/widgets/roller/../../core/lv_obj_style_gen.h **** {
 761              		.loc 2 562 23 view .LVU210
 762              	.LBB94:
 564:Drivers/lvgl/src/widgets/roller/../../core/lv_obj_style_gen.h ****     return (int32_t)v.num;
 763              		.loc 2 564 5 view .LVU211
 564:Drivers/lvgl/src/widgets/roller/../../core/lv_obj_style_gen.h ****     return (int32_t)v.num;
 764              		.loc 2 564 26 is_stmt 0 view .LVU212
 765 0056 5C22     		movs	r2, #92
 766 0058 0021     		movs	r1, #0
 767 005a 2846     		mov	r0, r5
 768              	.LVL89:
 564:Drivers/lvgl/src/widgets/roller/../../core/lv_obj_style_gen.h ****     return (int32_t)v.num;
 769              		.loc 2 564 26 view .LVU213
 770 005c FFF7FEFF 		bl	lv_obj_get_style_prop
 771              	.LVL90:
 772 0060 0646     		mov	r6, r0
 773 0062 0090     		str	r0, [sp]
 774              		.loc 2 565 5 is_stmt 1 view .LVU214
 775              	.LVL91:
 776              		.loc 2 565 5 is_stmt 0 view .LVU215
 777              	.LBE94:
 778              	.LBE93:
 695:Drivers/lvgl/src/widgets/roller/lv_roller.c ****     const int32_t h = lv_obj_get_content_height(obj);
 779              		.loc 1 695 5 is_stmt 1 view .LVU216
 695:Drivers/lvgl/src/widgets/roller/lv_roller.c ****     const int32_t h = lv_obj_get_content_height(obj);
 780              		.loc 1 695 28 is_stmt 0 view .LVU217
 781 0064 4046     		mov	r0, r8
 782              	.LVL92:
 695:Drivers/lvgl/src/widgets/roller/lv_roller.c ****     const int32_t h = lv_obj_get_content_height(obj);
 783              		.loc 1 695 28 view .LVU218
 784 0066 FFF7FEFF 		bl	lv_font_get_line_height
 785              	.LVL93:
 786 006a 8146     		mov	r9, r0
 787              	.LVL94:
ARM GAS  /tmp/ccOwYixx.s 			page 48


 696:Drivers/lvgl/src/widgets/roller/lv_roller.c ****     uint32_t anim_time = lv_obj_get_style_anim_duration(obj, LV_PART_MAIN);
 788              		.loc 1 696 5 is_stmt 1 view .LVU219
 696:Drivers/lvgl/src/widgets/roller/lv_roller.c ****     uint32_t anim_time = lv_obj_get_style_anim_duration(obj, LV_PART_MAIN);
 789              		.loc 1 696 23 is_stmt 0 view .LVU220
 790 006c 2846     		mov	r0, r5
 791              	.LVL95:
 696:Drivers/lvgl/src/widgets/roller/lv_roller.c ****     uint32_t anim_time = lv_obj_get_style_anim_duration(obj, LV_PART_MAIN);
 792              		.loc 1 696 23 view .LVU221
 793 006e FFF7FEFF 		bl	lv_obj_get_content_height
 794              	.LVL96:
 795 0072 8246     		mov	r10, r0
 796              	.LVL97:
 697:Drivers/lvgl/src/widgets/roller/lv_roller.c **** 
 797              		.loc 1 697 5 is_stmt 1 view .LVU222
 798              	.LBB95:
 799              	.LBI95:
 566:Drivers/lvgl/src/widgets/roller/../../core/lv_obj_style_gen.h **** }
 567:Drivers/lvgl/src/widgets/roller/../../core/lv_obj_style_gen.h **** 
 568:Drivers/lvgl/src/widgets/roller/../../core/lv_obj_style_gen.h **** static inline lv_text_decor_t lv_obj_get_style_text_decor(const lv_obj_t * obj, lv_part_t part)
 569:Drivers/lvgl/src/widgets/roller/../../core/lv_obj_style_gen.h **** {
 570:Drivers/lvgl/src/widgets/roller/../../core/lv_obj_style_gen.h ****     lv_style_value_t v = lv_obj_get_style_prop(obj, part, LV_STYLE_TEXT_DECOR);
 571:Drivers/lvgl/src/widgets/roller/../../core/lv_obj_style_gen.h ****     return (lv_text_decor_t)v.num;
 572:Drivers/lvgl/src/widgets/roller/../../core/lv_obj_style_gen.h **** }
 573:Drivers/lvgl/src/widgets/roller/../../core/lv_obj_style_gen.h **** 
 574:Drivers/lvgl/src/widgets/roller/../../core/lv_obj_style_gen.h **** static inline lv_text_align_t lv_obj_get_style_text_align(const lv_obj_t * obj, lv_part_t part)
 575:Drivers/lvgl/src/widgets/roller/../../core/lv_obj_style_gen.h **** {
 576:Drivers/lvgl/src/widgets/roller/../../core/lv_obj_style_gen.h ****     lv_style_value_t v = lv_obj_get_style_prop(obj, part, LV_STYLE_TEXT_ALIGN);
 577:Drivers/lvgl/src/widgets/roller/../../core/lv_obj_style_gen.h ****     return (lv_text_align_t)v.num;
 578:Drivers/lvgl/src/widgets/roller/../../core/lv_obj_style_gen.h **** }
 579:Drivers/lvgl/src/widgets/roller/../../core/lv_obj_style_gen.h **** 
 580:Drivers/lvgl/src/widgets/roller/../../core/lv_obj_style_gen.h **** static inline lv_color_t lv_obj_get_style_text_outline_stroke_color(const lv_obj_t * obj, lv_part_t
 581:Drivers/lvgl/src/widgets/roller/../../core/lv_obj_style_gen.h **** {
 582:Drivers/lvgl/src/widgets/roller/../../core/lv_obj_style_gen.h ****     lv_style_value_t v = lv_obj_get_style_prop(obj, part, LV_STYLE_TEXT_OUTLINE_STROKE_COLOR);
 583:Drivers/lvgl/src/widgets/roller/../../core/lv_obj_style_gen.h ****     return v.color;
 584:Drivers/lvgl/src/widgets/roller/../../core/lv_obj_style_gen.h **** }
 585:Drivers/lvgl/src/widgets/roller/../../core/lv_obj_style_gen.h **** 
 586:Drivers/lvgl/src/widgets/roller/../../core/lv_obj_style_gen.h **** static inline lv_color_t lv_obj_get_style_text_outline_stroke_color_filtered(const lv_obj_t * obj, 
 587:Drivers/lvgl/src/widgets/roller/../../core/lv_obj_style_gen.h **** {
 588:Drivers/lvgl/src/widgets/roller/../../core/lv_obj_style_gen.h ****     lv_style_value_t v = lv_obj_style_apply_color_filter(obj, part, lv_obj_get_style_prop(obj, part
 589:Drivers/lvgl/src/widgets/roller/../../core/lv_obj_style_gen.h ****     return v.color;
 590:Drivers/lvgl/src/widgets/roller/../../core/lv_obj_style_gen.h **** }
 591:Drivers/lvgl/src/widgets/roller/../../core/lv_obj_style_gen.h **** 
 592:Drivers/lvgl/src/widgets/roller/../../core/lv_obj_style_gen.h **** static inline int32_t lv_obj_get_style_text_outline_stroke_width(const lv_obj_t * obj, lv_part_t pa
 593:Drivers/lvgl/src/widgets/roller/../../core/lv_obj_style_gen.h **** {
 594:Drivers/lvgl/src/widgets/roller/../../core/lv_obj_style_gen.h ****     lv_style_value_t v = lv_obj_get_style_prop(obj, part, LV_STYLE_TEXT_OUTLINE_STROKE_WIDTH);
 595:Drivers/lvgl/src/widgets/roller/../../core/lv_obj_style_gen.h ****     return (int32_t)v.num;
 596:Drivers/lvgl/src/widgets/roller/../../core/lv_obj_style_gen.h **** }
 597:Drivers/lvgl/src/widgets/roller/../../core/lv_obj_style_gen.h **** 
 598:Drivers/lvgl/src/widgets/roller/../../core/lv_obj_style_gen.h **** static inline lv_opa_t lv_obj_get_style_text_outline_stroke_opa(const lv_obj_t * obj, lv_part_t par
 599:Drivers/lvgl/src/widgets/roller/../../core/lv_obj_style_gen.h **** {
 600:Drivers/lvgl/src/widgets/roller/../../core/lv_obj_style_gen.h ****     lv_style_value_t v = lv_obj_get_style_prop(obj, part, LV_STYLE_TEXT_OUTLINE_STROKE_OPA);
 601:Drivers/lvgl/src/widgets/roller/../../core/lv_obj_style_gen.h ****     return (lv_opa_t)v.num;
 602:Drivers/lvgl/src/widgets/roller/../../core/lv_obj_style_gen.h **** }
 603:Drivers/lvgl/src/widgets/roller/../../core/lv_obj_style_gen.h **** 
 604:Drivers/lvgl/src/widgets/roller/../../core/lv_obj_style_gen.h **** static inline int32_t lv_obj_get_style_radius(const lv_obj_t * obj, lv_part_t part)
 605:Drivers/lvgl/src/widgets/roller/../../core/lv_obj_style_gen.h **** {
 606:Drivers/lvgl/src/widgets/roller/../../core/lv_obj_style_gen.h ****     lv_style_value_t v = lv_obj_get_style_prop(obj, part, LV_STYLE_RADIUS);
ARM GAS  /tmp/ccOwYixx.s 			page 49


 607:Drivers/lvgl/src/widgets/roller/../../core/lv_obj_style_gen.h ****     return (int32_t)v.num;
 608:Drivers/lvgl/src/widgets/roller/../../core/lv_obj_style_gen.h **** }
 609:Drivers/lvgl/src/widgets/roller/../../core/lv_obj_style_gen.h **** 
 610:Drivers/lvgl/src/widgets/roller/../../core/lv_obj_style_gen.h **** static inline int32_t lv_obj_get_style_radial_offset(const lv_obj_t * obj, lv_part_t part)
 611:Drivers/lvgl/src/widgets/roller/../../core/lv_obj_style_gen.h **** {
 612:Drivers/lvgl/src/widgets/roller/../../core/lv_obj_style_gen.h ****     lv_style_value_t v = lv_obj_get_style_prop(obj, part, LV_STYLE_RADIAL_OFFSET);
 613:Drivers/lvgl/src/widgets/roller/../../core/lv_obj_style_gen.h ****     return (int32_t)v.num;
 614:Drivers/lvgl/src/widgets/roller/../../core/lv_obj_style_gen.h **** }
 615:Drivers/lvgl/src/widgets/roller/../../core/lv_obj_style_gen.h **** 
 616:Drivers/lvgl/src/widgets/roller/../../core/lv_obj_style_gen.h **** static inline bool lv_obj_get_style_clip_corner(const lv_obj_t * obj, lv_part_t part)
 617:Drivers/lvgl/src/widgets/roller/../../core/lv_obj_style_gen.h **** {
 618:Drivers/lvgl/src/widgets/roller/../../core/lv_obj_style_gen.h ****     lv_style_value_t v = lv_obj_get_style_prop(obj, part, LV_STYLE_CLIP_CORNER);
 619:Drivers/lvgl/src/widgets/roller/../../core/lv_obj_style_gen.h ****     return (bool)v.num;
 620:Drivers/lvgl/src/widgets/roller/../../core/lv_obj_style_gen.h **** }
 621:Drivers/lvgl/src/widgets/roller/../../core/lv_obj_style_gen.h **** 
 622:Drivers/lvgl/src/widgets/roller/../../core/lv_obj_style_gen.h **** static inline lv_opa_t lv_obj_get_style_opa(const lv_obj_t * obj, lv_part_t part)
 623:Drivers/lvgl/src/widgets/roller/../../core/lv_obj_style_gen.h **** {
 624:Drivers/lvgl/src/widgets/roller/../../core/lv_obj_style_gen.h ****     lv_style_value_t v = lv_obj_get_style_prop(obj, part, LV_STYLE_OPA);
 625:Drivers/lvgl/src/widgets/roller/../../core/lv_obj_style_gen.h ****     return (lv_opa_t)v.num;
 626:Drivers/lvgl/src/widgets/roller/../../core/lv_obj_style_gen.h **** }
 627:Drivers/lvgl/src/widgets/roller/../../core/lv_obj_style_gen.h **** 
 628:Drivers/lvgl/src/widgets/roller/../../core/lv_obj_style_gen.h **** static inline lv_opa_t lv_obj_get_style_opa_layered(const lv_obj_t * obj, lv_part_t part)
 629:Drivers/lvgl/src/widgets/roller/../../core/lv_obj_style_gen.h **** {
 630:Drivers/lvgl/src/widgets/roller/../../core/lv_obj_style_gen.h ****     lv_style_value_t v = lv_obj_get_style_prop(obj, part, LV_STYLE_OPA_LAYERED);
 631:Drivers/lvgl/src/widgets/roller/../../core/lv_obj_style_gen.h ****     return (lv_opa_t)v.num;
 632:Drivers/lvgl/src/widgets/roller/../../core/lv_obj_style_gen.h **** }
 633:Drivers/lvgl/src/widgets/roller/../../core/lv_obj_style_gen.h **** 
 634:Drivers/lvgl/src/widgets/roller/../../core/lv_obj_style_gen.h **** static inline const lv_color_filter_dsc_t * lv_obj_get_style_color_filter_dsc(const lv_obj_t * obj,
 635:Drivers/lvgl/src/widgets/roller/../../core/lv_obj_style_gen.h **** {
 636:Drivers/lvgl/src/widgets/roller/../../core/lv_obj_style_gen.h ****     lv_style_value_t v = lv_obj_get_style_prop(obj, part, LV_STYLE_COLOR_FILTER_DSC);
 637:Drivers/lvgl/src/widgets/roller/../../core/lv_obj_style_gen.h ****     return (const lv_color_filter_dsc_t *)v.ptr;
 638:Drivers/lvgl/src/widgets/roller/../../core/lv_obj_style_gen.h **** }
 639:Drivers/lvgl/src/widgets/roller/../../core/lv_obj_style_gen.h **** 
 640:Drivers/lvgl/src/widgets/roller/../../core/lv_obj_style_gen.h **** static inline lv_opa_t lv_obj_get_style_color_filter_opa(const lv_obj_t * obj, lv_part_t part)
 641:Drivers/lvgl/src/widgets/roller/../../core/lv_obj_style_gen.h **** {
 642:Drivers/lvgl/src/widgets/roller/../../core/lv_obj_style_gen.h ****     lv_style_value_t v = lv_obj_get_style_prop(obj, part, LV_STYLE_COLOR_FILTER_OPA);
 643:Drivers/lvgl/src/widgets/roller/../../core/lv_obj_style_gen.h ****     return (lv_opa_t)v.num;
 644:Drivers/lvgl/src/widgets/roller/../../core/lv_obj_style_gen.h **** }
 645:Drivers/lvgl/src/widgets/roller/../../core/lv_obj_style_gen.h **** 
 646:Drivers/lvgl/src/widgets/roller/../../core/lv_obj_style_gen.h **** static inline lv_color_t lv_obj_get_style_recolor(const lv_obj_t * obj, lv_part_t part)
 647:Drivers/lvgl/src/widgets/roller/../../core/lv_obj_style_gen.h **** {
 648:Drivers/lvgl/src/widgets/roller/../../core/lv_obj_style_gen.h ****     lv_style_value_t v = lv_obj_get_style_prop(obj, part, LV_STYLE_RECOLOR);
 649:Drivers/lvgl/src/widgets/roller/../../core/lv_obj_style_gen.h ****     return v.color;
 650:Drivers/lvgl/src/widgets/roller/../../core/lv_obj_style_gen.h **** }
 651:Drivers/lvgl/src/widgets/roller/../../core/lv_obj_style_gen.h **** 
 652:Drivers/lvgl/src/widgets/roller/../../core/lv_obj_style_gen.h **** static inline lv_opa_t lv_obj_get_style_recolor_opa(const lv_obj_t * obj, lv_part_t part)
 653:Drivers/lvgl/src/widgets/roller/../../core/lv_obj_style_gen.h **** {
 654:Drivers/lvgl/src/widgets/roller/../../core/lv_obj_style_gen.h ****     lv_style_value_t v = lv_obj_get_style_prop(obj, part, LV_STYLE_RECOLOR_OPA);
 655:Drivers/lvgl/src/widgets/roller/../../core/lv_obj_style_gen.h ****     return (lv_opa_t)v.num;
 656:Drivers/lvgl/src/widgets/roller/../../core/lv_obj_style_gen.h **** }
 657:Drivers/lvgl/src/widgets/roller/../../core/lv_obj_style_gen.h **** 
 658:Drivers/lvgl/src/widgets/roller/../../core/lv_obj_style_gen.h **** static inline const lv_anim_t * lv_obj_get_style_anim(const lv_obj_t * obj, lv_part_t part)
 659:Drivers/lvgl/src/widgets/roller/../../core/lv_obj_style_gen.h **** {
 660:Drivers/lvgl/src/widgets/roller/../../core/lv_obj_style_gen.h ****     lv_style_value_t v = lv_obj_get_style_prop(obj, part, LV_STYLE_ANIM);
 661:Drivers/lvgl/src/widgets/roller/../../core/lv_obj_style_gen.h ****     return (const lv_anim_t *)v.ptr;
 662:Drivers/lvgl/src/widgets/roller/../../core/lv_obj_style_gen.h **** }
 663:Drivers/lvgl/src/widgets/roller/../../core/lv_obj_style_gen.h **** 
ARM GAS  /tmp/ccOwYixx.s 			page 50


 664:Drivers/lvgl/src/widgets/roller/../../core/lv_obj_style_gen.h **** static inline uint32_t lv_obj_get_style_anim_duration(const lv_obj_t * obj, lv_part_t part)
 800              		.loc 2 664 24 view .LVU223
 801              	.LBB96:
 665:Drivers/lvgl/src/widgets/roller/../../core/lv_obj_style_gen.h **** {
 666:Drivers/lvgl/src/widgets/roller/../../core/lv_obj_style_gen.h ****     lv_style_value_t v = lv_obj_get_style_prop(obj, part, LV_STYLE_ANIM_DURATION);
 802              		.loc 2 666 5 view .LVU224
 803              		.loc 2 666 26 is_stmt 0 view .LVU225
 804 0074 6722     		movs	r2, #103
 805 0076 0021     		movs	r1, #0
 806 0078 2846     		mov	r0, r5
 807              	.LVL98:
 808              		.loc 2 666 26 view .LVU226
 809 007a FFF7FEFF 		bl	lv_obj_get_style_prop
 810              	.LVL99:
 811 007e 8046     		mov	r8, r0
 812              	.LVL100:
 813              		.loc 2 666 26 view .LVU227
 814 0080 0090     		str	r0, [sp]
 667:Drivers/lvgl/src/widgets/roller/../../core/lv_obj_style_gen.h ****     return (uint32_t)v.num;
 815              		.loc 2 667 5 is_stmt 1 view .LVU228
 816              	.LVL101:
 817              		.loc 2 667 5 is_stmt 0 view .LVU229
 818              	.LBE96:
 819              	.LBE95:
 701:Drivers/lvgl/src/widgets/roller/lv_roller.c ****         inf_normalize(obj);
 820              		.loc 1 701 5 is_stmt 1 view .LVU230
 701:Drivers/lvgl/src/widgets/roller/lv_roller.c ****         inf_normalize(obj);
 821              		.loc 1 701 16 is_stmt 0 view .LVU231
 822 0082 84F00104 		eor	r4, r4, #1
 823              	.LVL102:
 701:Drivers/lvgl/src/widgets/roller/lv_roller.c ****         inf_normalize(obj);
 824              		.loc 1 701 31 view .LVU232
 825 0086 0028     		cmp	r0, #0
 826 0088 08BF     		it	eq
 827 008a 44F00104 		orreq	r4, r4, #1
 828              	.LVL103:
 701:Drivers/lvgl/src/widgets/roller/lv_roller.c ****         inf_normalize(obj);
 829              		.loc 1 701 7 view .LVU233
 830 008e 34BB     		cbnz	r4, .L42
 831              	.LVL104:
 832              	.L36:
 706:Drivers/lvgl/src/widgets/roller/lv_roller.c ****     int32_t id = roller->sel_opt_id;
 833              		.loc 1 706 5 is_stmt 1 view .LVU234
 707:Drivers/lvgl/src/widgets/roller/lv_roller.c ****     const int32_t sel_y1 = id * (font_h + line_space);
 834              		.loc 1 707 5 view .LVU235
 707:Drivers/lvgl/src/widgets/roller/lv_roller.c ****     const int32_t sel_y1 = id * (font_h + line_space);
 835              		.loc 1 707 24 is_stmt 0 view .LVU236
 836 0090 2B6B     		ldr	r3, [r5, #48]
 837              	.LVL105:
 708:Drivers/lvgl/src/widgets/roller/lv_roller.c ****     const int32_t mid_y1 = h / 2 - font_h / 2;
 838              		.loc 1 708 5 is_stmt 1 view .LVU237
 708:Drivers/lvgl/src/widgets/roller/lv_roller.c ****     const int32_t mid_y1 = h / 2 - font_h / 2;
 839              		.loc 1 708 41 is_stmt 0 view .LVU238
 840 0092 4E44     		add	r6, r6, r9
 841              	.LVL106:
 708:Drivers/lvgl/src/widgets/roller/lv_roller.c ****     const int32_t mid_y1 = h / 2 - font_h / 2;
 842              		.loc 1 708 19 view .LVU239
ARM GAS  /tmp/ccOwYixx.s 			page 51


 843 0094 03FB06F6 		mul	r6, r3, r6
 844              	.LVL107:
 709:Drivers/lvgl/src/widgets/roller/lv_roller.c ****     const int32_t new_y = mid_y1 - sel_y1;
 845              		.loc 1 709 5 is_stmt 1 view .LVU240
 709:Drivers/lvgl/src/widgets/roller/lv_roller.c ****     const int32_t new_y = mid_y1 - sel_y1;
 846              		.loc 1 709 30 is_stmt 0 view .LVU241
 847 0098 5346     		mov	r3, r10
 848              	.LVL108:
 709:Drivers/lvgl/src/widgets/roller/lv_roller.c ****     const int32_t new_y = mid_y1 - sel_y1;
 849              		.loc 1 709 30 view .LVU242
 850 009a BAF1000F 		cmp	r10, #0
 851 009e 22DB     		blt	.L43
 852              	.L37:
 709:Drivers/lvgl/src/widgets/roller/lv_roller.c ****     const int32_t new_y = mid_y1 - sel_y1;
 853              		.loc 1 709 30 view .LVU243
 854 00a0 5D10     		asrs	r5, r3, #1
 855              	.LVL109:
 709:Drivers/lvgl/src/widgets/roller/lv_roller.c ****     const int32_t new_y = mid_y1 - sel_y1;
 856              		.loc 1 709 43 view .LVU244
 857 00a2 4B46     		mov	r3, r9
 858 00a4 B9F1000F 		cmp	r9, #0
 859 00a8 20DB     		blt	.L44
 860              	.L38:
 709:Drivers/lvgl/src/widgets/roller/lv_roller.c ****     const int32_t new_y = mid_y1 - sel_y1;
 861              		.loc 1 709 19 view .LVU245
 862 00aa A5EB6305 		sub	r5, r5, r3, asr #1
 863              	.LVL110:
 710:Drivers/lvgl/src/widgets/roller/lv_roller.c **** 
 864              		.loc 1 710 5 is_stmt 1 view .LVU246
 710:Drivers/lvgl/src/widgets/roller/lv_roller.c **** 
 865              		.loc 1 710 19 is_stmt 0 view .LVU247
 866 00ae AD1B     		subs	r5, r5, r6
 867              	.LVL111:
 712:Drivers/lvgl/src/widgets/roller/lv_roller.c ****         lv_anim_delete(label, set_y_anim);
 868              		.loc 1 712 5 is_stmt 1 view .LVU248
 712:Drivers/lvgl/src/widgets/roller/lv_roller.c ****         lv_anim_delete(label, set_y_anim);
 869              		.loc 1 712 7 is_stmt 0 view .LVU249
 870 00b0 FCB1     		cbz	r4, .L39
 713:Drivers/lvgl/src/widgets/roller/lv_roller.c ****         lv_obj_set_y(label, new_y);
 871              		.loc 1 713 9 is_stmt 1 view .LVU250
 872 00b2 2149     		ldr	r1, .L45
 873 00b4 3846     		mov	r0, r7
 874 00b6 FFF7FEFF 		bl	lv_anim_delete
 875              	.LVL112:
 714:Drivers/lvgl/src/widgets/roller/lv_roller.c ****     }
 876              		.loc 1 714 9 view .LVU251
 877 00ba 2946     		mov	r1, r5
 878 00bc 3846     		mov	r0, r7
 879 00be FFF7FEFF 		bl	lv_obj_set_y
 880              	.LVL113:
 881              	.L30:
 727:Drivers/lvgl/src/widgets/roller/lv_roller.c **** 
 882              		.loc 1 727 1 is_stmt 0 view .LVU252
 883 00c2 18B0     		add	sp, sp, #96
 884              	.LCFI16:
 885              		.cfi_remember_state
 886              		.cfi_def_cfa_offset 32
ARM GAS  /tmp/ccOwYixx.s 			page 52


 887              		@ sp needed
 888 00c4 BDE8F087 		pop	{r4, r5, r6, r7, r8, r9, r10, pc}
 889              	.LVL114:
 890              	.L41:
 891              	.LCFI17:
 892              		.cfi_restore_state
 679:Drivers/lvgl/src/widgets/roller/lv_roller.c ****             break;
 893              		.loc 1 679 15 discriminator 2 view .LVU253
 894 00c8 0131     		adds	r1, r1, #1
 895 00ca B9E7     		b	.L35
 896              	.LVL115:
 897              	.L33:
 682:Drivers/lvgl/src/widgets/roller/lv_roller.c ****             break;
 898              		.loc 1 682 13 is_stmt 1 view .LVU254
 682:Drivers/lvgl/src/widgets/roller/lv_roller.c ****             break;
 899              		.loc 1 682 17 is_stmt 0 view .LVU255
 900 00cc 2846     		mov	r0, r5
 901              	.LVL116:
 682:Drivers/lvgl/src/widgets/roller/lv_roller.c ****             break;
 902              		.loc 1 682 17 view .LVU256
 903 00ce FFF7FEFF 		bl	lv_obj_get_content_width
 904              	.LVL117:
 905 00d2 0646     		mov	r6, r0
 682:Drivers/lvgl/src/widgets/roller/lv_roller.c ****             break;
 906              		.loc 1 682 49 discriminator 1 view .LVU257
 907 00d4 3846     		mov	r0, r7
 908 00d6 FFF7FEFF 		bl	lv_obj_get_width
 909              	.LVL118:
 682:Drivers/lvgl/src/widgets/roller/lv_roller.c ****             break;
 910              		.loc 1 682 15 discriminator 2 view .LVU258
 911 00da 311A     		subs	r1, r6, r0
 912              	.LVL119:
 683:Drivers/lvgl/src/widgets/roller/lv_roller.c ****         case LV_TEXT_ALIGN_LEFT:
 913              		.loc 1 683 13 is_stmt 1 view .LVU259
 914 00dc B1E7     		b	.L34
 915              	.LVL120:
 916              	.L42:
 702:Drivers/lvgl/src/widgets/roller/lv_roller.c ****     }
 917              		.loc 1 702 9 view .LVU260
 918 00de 2846     		mov	r0, r5
 919              	.LVL121:
 702:Drivers/lvgl/src/widgets/roller/lv_roller.c ****     }
 920              		.loc 1 702 9 is_stmt 0 view .LVU261
 921 00e0 FFF7FEFF 		bl	inf_normalize
 922              	.LVL122:
 923 00e4 D4E7     		b	.L36
 924              	.LVL123:
 925              	.L43:
 709:Drivers/lvgl/src/widgets/roller/lv_roller.c ****     const int32_t new_y = mid_y1 - sel_y1;
 926              		.loc 1 709 30 view .LVU262
 927 00e6 0AF10103 		add	r3, r10, #1
 928              	.LVL124:
 709:Drivers/lvgl/src/widgets/roller/lv_roller.c ****     const int32_t new_y = mid_y1 - sel_y1;
 929              		.loc 1 709 30 view .LVU263
 930 00ea D9E7     		b	.L37
 931              	.LVL125:
 932              	.L44:
ARM GAS  /tmp/ccOwYixx.s 			page 53


 709:Drivers/lvgl/src/widgets/roller/lv_roller.c ****     const int32_t new_y = mid_y1 - sel_y1;
 933              		.loc 1 709 43 view .LVU264
 934 00ec 09F10103 		add	r3, r9, #1
 935              	.LVL126:
 709:Drivers/lvgl/src/widgets/roller/lv_roller.c ****     const int32_t new_y = mid_y1 - sel_y1;
 936              		.loc 1 709 43 view .LVU265
 937 00f0 DBE7     		b	.L38
 938              	.LVL127:
 939              	.L39:
 940              	.LBB97:
 717:Drivers/lvgl/src/widgets/roller/lv_roller.c ****         lv_anim_init(&a);
 941              		.loc 1 717 9 is_stmt 1 view .LVU266
 718:Drivers/lvgl/src/widgets/roller/lv_roller.c ****         lv_anim_set_var(&a, label);
 942              		.loc 1 718 9 view .LVU267
 943 00f2 6846     		mov	r0, sp
 944 00f4 FFF7FEFF 		bl	lv_anim_init
 945              	.LVL128:
 719:Drivers/lvgl/src/widgets/roller/lv_roller.c ****         lv_anim_set_exec_cb(&a, set_y_anim);
 946              		.loc 1 719 9 view .LVU268
 947 00f8 3946     		mov	r1, r7
 948 00fa 6846     		mov	r0, sp
 949 00fc FFF7FEFF 		bl	lv_anim_set_var
 950              	.LVL129:
 720:Drivers/lvgl/src/widgets/roller/lv_roller.c ****         lv_anim_set_values(&a, lv_obj_get_y(label), new_y);
 951              		.loc 1 720 9 view .LVU269
 952 0100 0D49     		ldr	r1, .L45
 953 0102 6846     		mov	r0, sp
 954 0104 FFF7FEFF 		bl	lv_anim_set_exec_cb
 955              	.LVL130:
 721:Drivers/lvgl/src/widgets/roller/lv_roller.c ****         lv_anim_set_duration(&a, anim_time);
 956              		.loc 1 721 9 view .LVU270
 957 0108 3846     		mov	r0, r7
 958 010a FFF7FEFF 		bl	lv_obj_get_y
 959              	.LVL131:
 960 010e 0146     		mov	r1, r0
 721:Drivers/lvgl/src/widgets/roller/lv_roller.c ****         lv_anim_set_duration(&a, anim_time);
 961              		.loc 1 721 9 is_stmt 0 discriminator 1 view .LVU271
 962 0110 2A46     		mov	r2, r5
 963 0112 6846     		mov	r0, sp
 964 0114 FFF7FEFF 		bl	lv_anim_set_values
 965              	.LVL132:
 722:Drivers/lvgl/src/widgets/roller/lv_roller.c ****         lv_anim_set_completed_cb(&a, scroll_anim_completed_cb);
 966              		.loc 1 722 9 is_stmt 1 view .LVU272
 967 0118 4146     		mov	r1, r8
 968 011a 6846     		mov	r0, sp
 969 011c FFF7FEFF 		bl	lv_anim_set_duration
 970              	.LVL133:
 723:Drivers/lvgl/src/widgets/roller/lv_roller.c ****         lv_anim_set_path_cb(&a, lv_anim_path_ease_out);
 971              		.loc 1 723 9 view .LVU273
 972 0120 0649     		ldr	r1, .L45+4
 973 0122 6846     		mov	r0, sp
 974 0124 FFF7FEFF 		bl	lv_anim_set_completed_cb
 975              	.LVL134:
 724:Drivers/lvgl/src/widgets/roller/lv_roller.c ****         lv_anim_start(&a);
 976              		.loc 1 724 9 view .LVU274
 977 0128 0549     		ldr	r1, .L45+8
 978 012a 6846     		mov	r0, sp
ARM GAS  /tmp/ccOwYixx.s 			page 54


 979 012c FFF7FEFF 		bl	lv_anim_set_path_cb
 980              	.LVL135:
 725:Drivers/lvgl/src/widgets/roller/lv_roller.c ****     }
 981              		.loc 1 725 9 view .LVU275
 982 0130 6846     		mov	r0, sp
 983 0132 FFF7FEFF 		bl	lv_anim_start
 984              	.LVL136:
 985 0136 C4E7     		b	.L30
 986              	.L46:
 987              		.align	2
 988              	.L45:
 989 0138 00000000 		.word	set_y_anim
 990 013c 00000000 		.word	scroll_anim_completed_cb
 991 0140 00000000 		.word	lv_anim_path_ease_out
 992              	.LBE97:
 993              		.cfi_endproc
 994              	.LFE204:
 996              		.section	.text.get_sel_area,"ax",%progbits
 997              		.align	1
 998              		.syntax unified
 999              		.thumb
 1000              		.thumb_func
 1002              	get_sel_area:
 1003              	.LVL137:
 1004              	.LFB203:
 646:Drivers/lvgl/src/widgets/roller/lv_roller.c **** 
 1005              		.loc 1 646 1 view -0
 1006              		.cfi_startproc
 1007              		@ args = 0, pretend = 0, frame = 24
 1008              		@ frame_needed = 0, uses_anonymous_args = 0
 646:Drivers/lvgl/src/widgets/roller/lv_roller.c **** 
 1009              		.loc 1 646 1 is_stmt 0 view .LVU277
 1010 0000 F0B5     		push	{r4, r5, r6, r7, lr}
 1011              	.LCFI18:
 1012              		.cfi_def_cfa_offset 20
 1013              		.cfi_offset 4, -20
 1014              		.cfi_offset 5, -16
 1015              		.cfi_offset 6, -12
 1016              		.cfi_offset 7, -8
 1017              		.cfi_offset 14, -4
 1018 0002 87B0     		sub	sp, sp, #28
 1019              	.LCFI19:
 1020              		.cfi_def_cfa_offset 48
 1021 0004 0646     		mov	r6, r0
 1022 0006 0F46     		mov	r7, r1
 648:Drivers/lvgl/src/widgets/roller/lv_roller.c ****     const lv_font_t * font_sel = lv_obj_get_style_text_font(obj, LV_PART_SELECTED);
 1023              		.loc 1 648 5 is_stmt 1 view .LVU278
 1024              	.LVL138:
 1025              	.LBB98:
 1026              	.LBI98:
 550:Drivers/lvgl/src/widgets/roller/../../core/lv_obj_style_gen.h **** {
 1027              		.loc 2 550 33 view .LVU279
 1028              	.LBB99:
 552:Drivers/lvgl/src/widgets/roller/../../core/lv_obj_style_gen.h ****     return (const lv_font_t *)v.ptr;
 1029              		.loc 2 552 5 view .LVU280
 552:Drivers/lvgl/src/widgets/roller/../../core/lv_obj_style_gen.h ****     return (const lv_font_t *)v.ptr;
 1030              		.loc 2 552 26 is_stmt 0 view .LVU281
ARM GAS  /tmp/ccOwYixx.s 			page 55


 1031 0008 5A22     		movs	r2, #90
 1032 000a 0021     		movs	r1, #0
 1033              	.LVL139:
 552:Drivers/lvgl/src/widgets/roller/../../core/lv_obj_style_gen.h ****     return (const lv_font_t *)v.ptr;
 1034              		.loc 2 552 26 view .LVU282
 1035 000c FFF7FEFF 		bl	lv_obj_get_style_prop
 1036              	.LVL140:
 552:Drivers/lvgl/src/widgets/roller/../../core/lv_obj_style_gen.h ****     return (const lv_font_t *)v.ptr;
 1037              		.loc 2 552 26 view .LVU283
 1038 0010 0546     		mov	r5, r0
 1039 0012 0190     		str	r0, [sp, #4]
 553:Drivers/lvgl/src/widgets/roller/../../core/lv_obj_style_gen.h **** }
 1040              		.loc 2 553 5 is_stmt 1 view .LVU284
 1041              	.LVL141:
 553:Drivers/lvgl/src/widgets/roller/../../core/lv_obj_style_gen.h **** }
 1042              		.loc 2 553 5 is_stmt 0 view .LVU285
 1043              	.LBE99:
 1044              	.LBE98:
 649:Drivers/lvgl/src/widgets/roller/lv_roller.c ****     int32_t font_main_h        = lv_font_get_line_height(font_main);
 1045              		.loc 1 649 5 is_stmt 1 view .LVU286
 1046              	.LBB100:
 1047              	.LBI100:
 550:Drivers/lvgl/src/widgets/roller/../../core/lv_obj_style_gen.h **** {
 1048              		.loc 2 550 33 view .LVU287
 1049              	.LBB101:
 552:Drivers/lvgl/src/widgets/roller/../../core/lv_obj_style_gen.h ****     return (const lv_font_t *)v.ptr;
 1050              		.loc 2 552 5 view .LVU288
 552:Drivers/lvgl/src/widgets/roller/../../core/lv_obj_style_gen.h ****     return (const lv_font_t *)v.ptr;
 1051              		.loc 2 552 26 is_stmt 0 view .LVU289
 1052 0014 5A22     		movs	r2, #90
 1053 0016 4FF48021 		mov	r1, #262144
 1054 001a 3046     		mov	r0, r6
 1055              	.LVL142:
 552:Drivers/lvgl/src/widgets/roller/../../core/lv_obj_style_gen.h ****     return (const lv_font_t *)v.ptr;
 1056              		.loc 2 552 26 view .LVU290
 1057 001c FFF7FEFF 		bl	lv_obj_get_style_prop
 1058              	.LVL143:
 1059 0020 0446     		mov	r4, r0
 1060 0022 0190     		str	r0, [sp, #4]
 553:Drivers/lvgl/src/widgets/roller/../../core/lv_obj_style_gen.h **** }
 1061              		.loc 2 553 5 is_stmt 1 view .LVU291
 1062              	.LVL144:
 553:Drivers/lvgl/src/widgets/roller/../../core/lv_obj_style_gen.h **** }
 1063              		.loc 2 553 5 is_stmt 0 view .LVU292
 1064              	.LBE101:
 1065              	.LBE100:
 650:Drivers/lvgl/src/widgets/roller/lv_roller.c ****     int32_t font_sel_h        = lv_font_get_line_height(font_sel);
 1066              		.loc 1 650 5 is_stmt 1 view .LVU293
 650:Drivers/lvgl/src/widgets/roller/lv_roller.c ****     int32_t font_sel_h        = lv_font_get_line_height(font_sel);
 1067              		.loc 1 650 34 is_stmt 0 view .LVU294
 1068 0024 2846     		mov	r0, r5
 1069              	.LVL145:
 650:Drivers/lvgl/src/widgets/roller/lv_roller.c ****     int32_t font_sel_h        = lv_font_get_line_height(font_sel);
 1070              		.loc 1 650 34 view .LVU295
 1071 0026 FFF7FEFF 		bl	lv_font_get_line_height
 1072              	.LVL146:
 1073 002a 0546     		mov	r5, r0
ARM GAS  /tmp/ccOwYixx.s 			page 56


 1074              	.LVL147:
 651:Drivers/lvgl/src/widgets/roller/lv_roller.c ****     int32_t line_space = lv_obj_get_style_text_line_space(obj, LV_PART_MAIN);
 1075              		.loc 1 651 5 is_stmt 1 view .LVU296
 651:Drivers/lvgl/src/widgets/roller/lv_roller.c ****     int32_t line_space = lv_obj_get_style_text_line_space(obj, LV_PART_MAIN);
 1076              		.loc 1 651 33 is_stmt 0 view .LVU297
 1077 002c 2046     		mov	r0, r4
 1078              	.LVL148:
 651:Drivers/lvgl/src/widgets/roller/lv_roller.c ****     int32_t line_space = lv_obj_get_style_text_line_space(obj, LV_PART_MAIN);
 1079              		.loc 1 651 33 view .LVU298
 1080 002e FFF7FEFF 		bl	lv_font_get_line_height
 1081              	.LVL149:
 1082 0032 0446     		mov	r4, r0
 1083              	.LVL150:
 652:Drivers/lvgl/src/widgets/roller/lv_roller.c ****     int32_t d = (font_sel_h + font_main_h) / 2 + line_space;
 1084              		.loc 1 652 5 is_stmt 1 view .LVU299
 1085              	.LBB102:
 1086              	.LBI102:
 562:Drivers/lvgl/src/widgets/roller/../../core/lv_obj_style_gen.h **** {
 1087              		.loc 2 562 23 view .LVU300
 1088              	.LBB103:
 564:Drivers/lvgl/src/widgets/roller/../../core/lv_obj_style_gen.h ****     return (int32_t)v.num;
 1089              		.loc 2 564 5 view .LVU301
 564:Drivers/lvgl/src/widgets/roller/../../core/lv_obj_style_gen.h ****     return (int32_t)v.num;
 1090              		.loc 2 564 26 is_stmt 0 view .LVU302
 1091 0034 5C22     		movs	r2, #92
 1092 0036 0021     		movs	r1, #0
 1093 0038 3046     		mov	r0, r6
 1094              	.LVL151:
 564:Drivers/lvgl/src/widgets/roller/../../core/lv_obj_style_gen.h ****     return (int32_t)v.num;
 1095              		.loc 2 564 26 view .LVU303
 1096 003a FFF7FEFF 		bl	lv_obj_get_style_prop
 1097              	.LVL152:
 1098 003e 0190     		str	r0, [sp, #4]
 565:Drivers/lvgl/src/widgets/roller/../../core/lv_obj_style_gen.h **** }
 1099              		.loc 2 565 5 is_stmt 1 view .LVU304
 1100              	.LVL153:
 565:Drivers/lvgl/src/widgets/roller/../../core/lv_obj_style_gen.h **** }
 1101              		.loc 2 565 5 is_stmt 0 view .LVU305
 1102              	.LBE103:
 1103              	.LBE102:
 653:Drivers/lvgl/src/widgets/roller/lv_roller.c ****     sel_area->y1 = obj->coords.y1 + lv_obj_get_height(obj) / 2 - d / 2;
 1104              		.loc 1 653 5 is_stmt 1 view .LVU306
 653:Drivers/lvgl/src/widgets/roller/lv_roller.c ****     sel_area->y1 = obj->coords.y1 + lv_obj_get_height(obj) / 2 - d / 2;
 1105              		.loc 1 653 44 is_stmt 0 view .LVU307
 1106 0040 2D19     		adds	r5, r5, r4
 1107              	.LVL154:
 653:Drivers/lvgl/src/widgets/roller/lv_roller.c ****     sel_area->y1 = obj->coords.y1 + lv_obj_get_height(obj) / 2 - d / 2;
 1108              		.loc 1 653 44 view .LVU308
 1109 0042 1BD4     		bmi	.L52
 1110              	.L48:
 653:Drivers/lvgl/src/widgets/roller/lv_roller.c ****     sel_area->y1 = obj->coords.y1 + lv_obj_get_height(obj) / 2 - d / 2;
 1111              		.loc 1 653 13 view .LVU309
 1112 0044 00EB6504 		add	r4, r0, r5, asr #1
 1113              	.LVL155:
 654:Drivers/lvgl/src/widgets/roller/lv_roller.c ****     sel_area->y2 = sel_area->y1 + d;
 1114              		.loc 1 654 5 is_stmt 1 view .LVU310
 654:Drivers/lvgl/src/widgets/roller/lv_roller.c ****     sel_area->y2 = sel_area->y1 + d;
ARM GAS  /tmp/ccOwYixx.s 			page 57


 1115              		.loc 1 654 31 is_stmt 0 view .LVU311
 1116 0048 B569     		ldr	r5, [r6, #24]
 654:Drivers/lvgl/src/widgets/roller/lv_roller.c ****     sel_area->y2 = sel_area->y1 + d;
 1117              		.loc 1 654 37 view .LVU312
 1118 004a 3046     		mov	r0, r6
 1119              	.LVL156:
 654:Drivers/lvgl/src/widgets/roller/lv_roller.c ****     sel_area->y2 = sel_area->y1 + d;
 1120              		.loc 1 654 37 view .LVU313
 1121 004c FFF7FEFF 		bl	lv_obj_get_height
 1122              	.LVL157:
 654:Drivers/lvgl/src/widgets/roller/lv_roller.c ****     sel_area->y2 = sel_area->y1 + d;
 1123              		.loc 1 654 60 discriminator 1 view .LVU314
 1124 0050 0028     		cmp	r0, #0
 1125 0052 15DB     		blt	.L53
 1126              	.L49:
 654:Drivers/lvgl/src/widgets/roller/lv_roller.c ****     sel_area->y2 = sel_area->y1 + d;
 1127              		.loc 1 654 35 discriminator 1 view .LVU315
 1128 0054 05EB6003 		add	r3, r5, r0, asr #1
 654:Drivers/lvgl/src/widgets/roller/lv_roller.c ****     sel_area->y2 = sel_area->y1 + d;
 1129              		.loc 1 654 68 discriminator 1 view .LVU316
 1130 0058 2246     		mov	r2, r4
 1131 005a 002C     		cmp	r4, #0
 1132 005c 12DB     		blt	.L54
