ARM GAS  /tmp/cc1pb3S0.s 			page 1


   1              		.cpu cortex-m7
   2              		.arch armv7e-m
   3              		.fpu fpv5-sp-d16
   4              		.eabi_attribute 27, 1
   5              		.eabi_attribute 28, 1
   6              		.eabi_attribute 20, 1
   7              		.eabi_attribute 21, 1
   8              		.eabi_attribute 23, 3
   9              		.eabi_attribute 24, 1
  10              		.eabi_attribute 25, 1
  11              		.eabi_attribute 26, 1
  12              		.eabi_attribute 30, 1
  13              		.eabi_attribute 34, 1
  14              		.eabi_attribute 18, 4
  15              		.file	"lv_string_clib.c"
  16              		.text
  17              	.Ltext0:
  18              		.cfi_sections	.debug_frame
  19              		.file 1 "Drivers/lvgl/src/stdlib/clib/lv_string_clib.c"
  20              		.section	.text.lv_memcpy,"ax",%progbits
  21              		.align	1
  22              		.global	lv_memcpy
  23              		.syntax unified
  24              		.thumb
  25              		.thumb_func
  27              	lv_memcpy:
  28              	.LVL0:
  29              	.LFB2:
   1:Drivers/lvgl/src/stdlib/clib/lv_string_clib.c **** /**
   2:Drivers/lvgl/src/stdlib/clib/lv_string_clib.c ****  * @file lv_string.c
   3:Drivers/lvgl/src/stdlib/clib/lv_string_clib.c ****  */
   4:Drivers/lvgl/src/stdlib/clib/lv_string_clib.c **** 
   5:Drivers/lvgl/src/stdlib/clib/lv_string_clib.c **** /*********************
   6:Drivers/lvgl/src/stdlib/clib/lv_string_clib.c ****  *      INCLUDES
   7:Drivers/lvgl/src/stdlib/clib/lv_string_clib.c ****  *********************/
   8:Drivers/lvgl/src/stdlib/clib/lv_string_clib.c **** #include "../../lv_conf_internal.h"
   9:Drivers/lvgl/src/stdlib/clib/lv_string_clib.c **** #if LV_USE_STDLIB_STRING == LV_STDLIB_CLIB
  10:Drivers/lvgl/src/stdlib/clib/lv_string_clib.c **** #include "../lv_string.h"
  11:Drivers/lvgl/src/stdlib/clib/lv_string_clib.c **** #include "../lv_mem.h" /*Need lv_malloc*/
  12:Drivers/lvgl/src/stdlib/clib/lv_string_clib.c **** #include <string.h>
  13:Drivers/lvgl/src/stdlib/clib/lv_string_clib.c **** 
  14:Drivers/lvgl/src/stdlib/clib/lv_string_clib.c **** /*********************
  15:Drivers/lvgl/src/stdlib/clib/lv_string_clib.c ****  *      DEFINES
  16:Drivers/lvgl/src/stdlib/clib/lv_string_clib.c ****  *********************/
  17:Drivers/lvgl/src/stdlib/clib/lv_string_clib.c **** 
  18:Drivers/lvgl/src/stdlib/clib/lv_string_clib.c **** /**********************
  19:Drivers/lvgl/src/stdlib/clib/lv_string_clib.c ****  *      TYPEDEFS
  20:Drivers/lvgl/src/stdlib/clib/lv_string_clib.c ****  **********************/
  21:Drivers/lvgl/src/stdlib/clib/lv_string_clib.c **** 
  22:Drivers/lvgl/src/stdlib/clib/lv_string_clib.c **** /**********************
  23:Drivers/lvgl/src/stdlib/clib/lv_string_clib.c ****  *  STATIC PROTOTYPES
  24:Drivers/lvgl/src/stdlib/clib/lv_string_clib.c ****  **********************/
  25:Drivers/lvgl/src/stdlib/clib/lv_string_clib.c **** 
  26:Drivers/lvgl/src/stdlib/clib/lv_string_clib.c **** /**********************
  27:Drivers/lvgl/src/stdlib/clib/lv_string_clib.c ****  *  STATIC VARIABLES
  28:Drivers/lvgl/src/stdlib/clib/lv_string_clib.c ****  **********************/
  29:Drivers/lvgl/src/stdlib/clib/lv_string_clib.c **** 
ARM GAS  /tmp/cc1pb3S0.s 			page 2


  30:Drivers/lvgl/src/stdlib/clib/lv_string_clib.c **** /**********************
  31:Drivers/lvgl/src/stdlib/clib/lv_string_clib.c ****  *      MACROS
  32:Drivers/lvgl/src/stdlib/clib/lv_string_clib.c ****  **********************/
  33:Drivers/lvgl/src/stdlib/clib/lv_string_clib.c **** 
  34:Drivers/lvgl/src/stdlib/clib/lv_string_clib.c **** /**********************
  35:Drivers/lvgl/src/stdlib/clib/lv_string_clib.c ****  *   GLOBAL FUNCTIONS
  36:Drivers/lvgl/src/stdlib/clib/lv_string_clib.c ****  **********************/
  37:Drivers/lvgl/src/stdlib/clib/lv_string_clib.c **** 
  38:Drivers/lvgl/src/stdlib/clib/lv_string_clib.c **** void * LV_ATTRIBUTE_FAST_MEM lv_memcpy(void * dst, const void * src, size_t len)
  39:Drivers/lvgl/src/stdlib/clib/lv_string_clib.c **** {
  30              		.loc 1 39 1 view -0
  31              		.cfi_startproc
  32              		@ args = 0, pretend = 0, frame = 0
  33              		@ frame_needed = 0, uses_anonymous_args = 0
  34              		.loc 1 39 1 is_stmt 0 view .LVU1
  35 0000 08B5     		push	{r3, lr}
  36              	.LCFI0:
  37              		.cfi_def_cfa_offset 8
  38              		.cfi_offset 3, -8
  39              		.cfi_offset 14, -4
  40:Drivers/lvgl/src/stdlib/clib/lv_string_clib.c ****     return memcpy(dst, src, len);
  40              		.loc 1 40 5 is_stmt 1 view .LVU2
  41              		.loc 1 40 12 is_stmt 0 view .LVU3
  42 0002 FFF7FEFF 		bl	memcpy
  43              	.LVL1:
  41:Drivers/lvgl/src/stdlib/clib/lv_string_clib.c **** }
  44              		.loc 1 41 1 view .LVU4
  45 0006 08BD     		pop	{r3, pc}
  46              		.cfi_endproc
  47              	.LFE2:
  49              		.section	.text.lv_memset,"ax",%progbits
  50              		.align	1
  51              		.global	lv_memset
  52              		.syntax unified
  53              		.thumb
  54              		.thumb_func
  56              	lv_memset:
  57              	.LVL2:
  58              	.LFB3:
  42:Drivers/lvgl/src/stdlib/clib/lv_string_clib.c **** 
  43:Drivers/lvgl/src/stdlib/clib/lv_string_clib.c **** void LV_ATTRIBUTE_FAST_MEM lv_memset(void * dst, uint8_t v, size_t len)
  44:Drivers/lvgl/src/stdlib/clib/lv_string_clib.c **** {
  59              		.loc 1 44 1 is_stmt 1 view -0
  60              		.cfi_startproc
  61              		@ args = 0, pretend = 0, frame = 0
  62              		@ frame_needed = 0, uses_anonymous_args = 0
  63              		.loc 1 44 1 is_stmt 0 view .LVU6
  64 0000 08B5     		push	{r3, lr}
  65              	.LCFI1:
  66              		.cfi_def_cfa_offset 8
  67              		.cfi_offset 3, -8
  68              		.cfi_offset 14, -4
  45:Drivers/lvgl/src/stdlib/clib/lv_string_clib.c ****     memset(dst, v, len);
  69              		.loc 1 45 5 is_stmt 1 view .LVU7
  70 0002 FFF7FEFF 		bl	memset
  71              	.LVL3:
  46:Drivers/lvgl/src/stdlib/clib/lv_string_clib.c **** }
ARM GAS  /tmp/cc1pb3S0.s 			page 3


  72              		.loc 1 46 1 is_stmt 0 view .LVU8
  73 0006 08BD     		pop	{r3, pc}
  74              		.cfi_endproc
  75              	.LFE3:
  77              		.section	.text.lv_memmove,"ax",%progbits
  78              		.align	1
  79              		.global	lv_memmove
  80              		.syntax unified
  81              		.thumb
  82              		.thumb_func
  84              	lv_memmove:
  85              	.LVL4:
  86              	.LFB4:
  47:Drivers/lvgl/src/stdlib/clib/lv_string_clib.c **** 
  48:Drivers/lvgl/src/stdlib/clib/lv_string_clib.c **** void * LV_ATTRIBUTE_FAST_MEM lv_memmove(void * dst, const void * src, size_t len)
  49:Drivers/lvgl/src/stdlib/clib/lv_string_clib.c **** {
  87              		.loc 1 49 1 is_stmt 1 view -0
  88              		.cfi_startproc
  89              		@ args = 0, pretend = 0, frame = 0
  90              		@ frame_needed = 0, uses_anonymous_args = 0
  91              		.loc 1 49 1 is_stmt 0 view .LVU10
  92 0000 08B5     		push	{r3, lr}
  93              	.LCFI2:
  94              		.cfi_def_cfa_offset 8
  95              		.cfi_offset 3, -8
  96              		.cfi_offset 14, -4
  50:Drivers/lvgl/src/stdlib/clib/lv_string_clib.c ****     return memmove(dst, src, len);
  97              		.loc 1 50 5 is_stmt 1 view .LVU11
  98              		.loc 1 50 12 is_stmt 0 view .LVU12
  99 0002 FFF7FEFF 		bl	memmove
 100              	.LVL5:
  51:Drivers/lvgl/src/stdlib/clib/lv_string_clib.c **** }
 101              		.loc 1 51 1 view .LVU13
 102 0006 08BD     		pop	{r3, pc}
 103              		.cfi_endproc
 104              	.LFE4:
 106              		.section	.text.lv_memcmp,"ax",%progbits
 107              		.align	1
 108              		.global	lv_memcmp
 109              		.syntax unified
 110              		.thumb
 111              		.thumb_func
 113              	lv_memcmp:
 114              	.LVL6:
 115              	.LFB5:
  52:Drivers/lvgl/src/stdlib/clib/lv_string_clib.c **** 
  53:Drivers/lvgl/src/stdlib/clib/lv_string_clib.c **** int lv_memcmp(const void * p1, const void * p2, size_t len)
  54:Drivers/lvgl/src/stdlib/clib/lv_string_clib.c **** {
 116              		.loc 1 54 1 is_stmt 1 view -0
 117              		.cfi_startproc
 118              		@ args = 0, pretend = 0, frame = 0
 119              		@ frame_needed = 0, uses_anonymous_args = 0
 120              		.loc 1 54 1 is_stmt 0 view .LVU15
 121 0000 08B5     		push	{r3, lr}
 122              	.LCFI3:
 123              		.cfi_def_cfa_offset 8
 124              		.cfi_offset 3, -8
ARM GAS  /tmp/cc1pb3S0.s 			page 4


 125              		.cfi_offset 14, -4
  55:Drivers/lvgl/src/stdlib/clib/lv_string_clib.c ****     return memcmp(p1, p2, len);
 126              		.loc 1 55 5 is_stmt 1 view .LVU16
 127              		.loc 1 55 12 is_stmt 0 view .LVU17
 128 0002 FFF7FEFF 		bl	memcmp
 129              	.LVL7:
  56:Drivers/lvgl/src/stdlib/clib/lv_string_clib.c **** }
 130              		.loc 1 56 1 view .LVU18
 131 0006 08BD     		pop	{r3, pc}
 132              		.cfi_endproc
 133              	.LFE5:
 135              		.section	.text.lv_strlen,"ax",%progbits
 136              		.align	1
 137              		.global	lv_strlen
 138              		.syntax unified
 139              		.thumb
 140              		.thumb_func
 142              	lv_strlen:
 143              	.LVL8:
 144              	.LFB6:
  57:Drivers/lvgl/src/stdlib/clib/lv_string_clib.c **** 
  58:Drivers/lvgl/src/stdlib/clib/lv_string_clib.c **** size_t lv_strlen(const char * str)
  59:Drivers/lvgl/src/stdlib/clib/lv_string_clib.c **** {
 145              		.loc 1 59 1 is_stmt 1 view -0
 146              		.cfi_startproc
 147              		@ args = 0, pretend = 0, frame = 0
 148              		@ frame_needed = 0, uses_anonymous_args = 0
 149              		.loc 1 59 1 is_stmt 0 view .LVU20
 150 0000 08B5     		push	{r3, lr}
 151              	.LCFI4:
 152              		.cfi_def_cfa_offset 8
 153              		.cfi_offset 3, -8
 154              		.cfi_offset 14, -4
  60:Drivers/lvgl/src/stdlib/clib/lv_string_clib.c ****     return strlen(str);
 155              		.loc 1 60 5 is_stmt 1 view .LVU21
 156              		.loc 1 60 12 is_stmt 0 view .LVU22
 157 0002 FFF7FEFF 		bl	strlen
 158              	.LVL9:
  61:Drivers/lvgl/src/stdlib/clib/lv_string_clib.c **** }
 159              		.loc 1 61 1 view .LVU23
 160 0006 08BD     		pop	{r3, pc}
 161              		.cfi_endproc
 162              	.LFE6:
 164              		.section	.text.lv_strnlen,"ax",%progbits
 165              		.align	1
 166              		.global	lv_strnlen
 167              		.syntax unified
 168              		.thumb
 169              		.thumb_func
 171              	lv_strnlen:
 172              	.LVL10:
 173              	.LFB7:
  62:Drivers/lvgl/src/stdlib/clib/lv_string_clib.c **** 
  63:Drivers/lvgl/src/stdlib/clib/lv_string_clib.c **** size_t lv_strnlen(const char * str, size_t max_len)
  64:Drivers/lvgl/src/stdlib/clib/lv_string_clib.c **** {
 174              		.loc 1 64 1 is_stmt 1 view -0
 175              		.cfi_startproc
ARM GAS  /tmp/cc1pb3S0.s 			page 5


 176              		@ args = 0, pretend = 0, frame = 0
 177              		@ frame_needed = 0, uses_anonymous_args = 0
 178              		.loc 1 64 1 is_stmt 0 view .LVU25
 179 0000 08B5     		push	{r3, lr}
 180              	.LCFI5:
 181              		.cfi_def_cfa_offset 8
 182              		.cfi_offset 3, -8
 183              		.cfi_offset 14, -4
  65:Drivers/lvgl/src/stdlib/clib/lv_string_clib.c ****     return strnlen(str, max_len);
 184              		.loc 1 65 5 is_stmt 1 view .LVU26
 185              		.loc 1 65 12 is_stmt 0 view .LVU27
 186 0002 FFF7FEFF 		bl	strnlen
 187              	.LVL11:
  66:Drivers/lvgl/src/stdlib/clib/lv_string_clib.c **** }
 188              		.loc 1 66 1 view .LVU28
 189 0006 08BD     		pop	{r3, pc}
 190              		.cfi_endproc
 191              	.LFE7:
 193              		.section	.text.lv_strlcpy,"ax",%progbits
 194              		.align	1
 195              		.global	lv_strlcpy
 196              		.syntax unified
 197              		.thumb
 198              		.thumb_func
 200              	lv_strlcpy:
 201              	.LVL12:
 202              	.LFB8:
  67:Drivers/lvgl/src/stdlib/clib/lv_string_clib.c **** 
  68:Drivers/lvgl/src/stdlib/clib/lv_string_clib.c **** size_t lv_strlcpy(char * dst, const char * src, size_t dst_size)
  69:Drivers/lvgl/src/stdlib/clib/lv_string_clib.c **** {
 203              		.loc 1 69 1 is_stmt 1 view -0
 204              		.cfi_startproc
 205              		@ args = 0, pretend = 0, frame = 0
 206              		@ frame_needed = 0, uses_anonymous_args = 0
 207              		.loc 1 69 1 is_stmt 0 view .LVU30
 208 0000 F8B5     		push	{r3, r4, r5, r6, r7, lr}
 209              	.LCFI6:
 210              		.cfi_def_cfa_offset 24
 211              		.cfi_offset 3, -24
 212              		.cfi_offset 4, -20
 213              		.cfi_offset 5, -16
 214              		.cfi_offset 6, -12
 215              		.cfi_offset 7, -8
 216              		.cfi_offset 14, -4
 217 0002 0746     		mov	r7, r0
 218 0004 0E46     		mov	r6, r1
 219 0006 1446     		mov	r4, r2
  70:Drivers/lvgl/src/stdlib/clib/lv_string_clib.c ****     size_t src_len = strlen(src);
 220              		.loc 1 70 5 is_stmt 1 view .LVU31
 221              		.loc 1 70 22 is_stmt 0 view .LVU32
 222 0008 0846     		mov	r0, r1
 223              	.LVL13:
 224              		.loc 1 70 22 view .LVU33
 225 000a FFF7FEFF 		bl	strlen
 226              	.LVL14:
 227              		.loc 1 70 22 view .LVU34
 228 000e 0546     		mov	r5, r0
ARM GAS  /tmp/cc1pb3S0.s 			page 6


 229              	.LVL15:
  71:Drivers/lvgl/src/stdlib/clib/lv_string_clib.c ****     if(dst_size > 0) {
 230              		.loc 1 71 5 is_stmt 1 view .LVU35
 231              		.loc 1 71 7 is_stmt 0 view .LVU36
 232 0010 4CB1     		cbz	r4, .L13
 233              	.LBB2:
  72:Drivers/lvgl/src/stdlib/clib/lv_string_clib.c ****         size_t copy_size = src_len < dst_size ? src_len : dst_size - 1;
 234              		.loc 1 72 9 is_stmt 1 view .LVU37
 235              		.loc 1 72 57 is_stmt 0 view .LVU38
 236 0012 A042     		cmp	r0, r4
 237 0014 09D3     		bcc	.L16
 238              		.loc 1 72 57 discriminator 1 view .LVU39
 239 0016 013C     		subs	r4, r4, #1
 240              	.LVL16:
 241              	.L15:
  73:Drivers/lvgl/src/stdlib/clib/lv_string_clib.c ****         memcpy(dst, src, copy_size);
 242              		.loc 1 73 9 is_stmt 1 view .LVU40
 243 0018 2246     		mov	r2, r4
 244 001a 3146     		mov	r1, r6
 245 001c 3846     		mov	r0, r7
 246              	.LVL17:
 247              		.loc 1 73 9 is_stmt 0 view .LVU41
 248 001e FFF7FEFF 		bl	memcpy
 249              	.LVL18:
  74:Drivers/lvgl/src/stdlib/clib/lv_string_clib.c ****         dst[copy_size] = '\0';
 250              		.loc 1 74 9 is_stmt 1 view .LVU42
 251              		.loc 1 74 24 is_stmt 0 view .LVU43
 252 0022 0023     		movs	r3, #0
 253 0024 3B55     		strb	r3, [r7, r4]
 254              	.LBE2:
  75:Drivers/lvgl/src/stdlib/clib/lv_string_clib.c ****     }
  76:Drivers/lvgl/src/stdlib/clib/lv_string_clib.c ****     return src_len;
 255              		.loc 1 76 5 is_stmt 1 view .LVU44
 256              	.LVL19:
 257              	.L13:
  77:Drivers/lvgl/src/stdlib/clib/lv_string_clib.c **** }
 258              		.loc 1 77 1 is_stmt 0 view .LVU45
 259 0026 2846     		mov	r0, r5
 260 0028 F8BD     		pop	{r3, r4, r5, r6, r7, pc}
 261              	.LVL20:
 262              	.L16:
 263              	.LBB3:
  72:Drivers/lvgl/src/stdlib/clib/lv_string_clib.c ****         memcpy(dst, src, copy_size);
 264              		.loc 1 72 57 discriminator 2 view .LVU46
 265 002a 0446     		mov	r4, r0
 266              	.LVL21:
  72:Drivers/lvgl/src/stdlib/clib/lv_string_clib.c ****         memcpy(dst, src, copy_size);
 267              		.loc 1 72 57 discriminator 2 view .LVU47
 268 002c F4E7     		b	.L15
 269              	.LBE3:
 270              		.cfi_endproc
 271              	.LFE8:
 273              		.section	.text.lv_strncpy,"ax",%progbits
 274              		.align	1
 275              		.global	lv_strncpy
 276              		.syntax unified
 277              		.thumb
ARM GAS  /tmp/cc1pb3S0.s 			page 7


 278              		.thumb_func
 280              	lv_strncpy:
 281              	.LVL22:
 282              	.LFB9:
  78:Drivers/lvgl/src/stdlib/clib/lv_string_clib.c **** 
  79:Drivers/lvgl/src/stdlib/clib/lv_string_clib.c **** char * lv_strncpy(char * dst, const char * src, size_t dest_size)
  80:Drivers/lvgl/src/stdlib/clib/lv_string_clib.c **** {
 283              		.loc 1 80 1 is_stmt 1 view -0
 284              		.cfi_startproc
 285              		@ args = 0, pretend = 0, frame = 0
 286              		@ frame_needed = 0, uses_anonymous_args = 0
 287              		.loc 1 80 1 is_stmt 0 view .LVU49
 288 0000 08B5     		push	{r3, lr}
 289              	.LCFI7:
 290              		.cfi_def_cfa_offset 8
 291              		.cfi_offset 3, -8
 292              		.cfi_offset 14, -4
  81:Drivers/lvgl/src/stdlib/clib/lv_string_clib.c ****     return strncpy(dst, src, dest_size);
 293              		.loc 1 81 5 is_stmt 1 view .LVU50
 294              		.loc 1 81 12 is_stmt 0 view .LVU51
 295 0002 FFF7FEFF 		bl	strncpy
 296              	.LVL23:
  82:Drivers/lvgl/src/stdlib/clib/lv_string_clib.c **** }
 297              		.loc 1 82 1 view .LVU52
 298 0006 08BD     		pop	{r3, pc}
 299              		.cfi_endproc
 300              	.LFE9:
 302              		.section	.text.lv_strcpy,"ax",%progbits
 303              		.align	1
 304              		.global	lv_strcpy
 305              		.syntax unified
 306              		.thumb
 307              		.thumb_func
 309              	lv_strcpy:
 310              	.LVL24:
 311              	.LFB10:
  83:Drivers/lvgl/src/stdlib/clib/lv_string_clib.c **** 
  84:Drivers/lvgl/src/stdlib/clib/lv_string_clib.c **** char * lv_strcpy(char * dst, const char * src)
  85:Drivers/lvgl/src/stdlib/clib/lv_string_clib.c **** {
 312              		.loc 1 85 1 is_stmt 1 view -0
 313              		.cfi_startproc
 314              		@ args = 0, pretend = 0, frame = 0
 315              		@ frame_needed = 0, uses_anonymous_args = 0
 316              		.loc 1 85 1 is_stmt 0 view .LVU54
 317 0000 08B5     		push	{r3, lr}
 318              	.LCFI8:
 319              		.cfi_def_cfa_offset 8
 320              		.cfi_offset 3, -8
 321              		.cfi_offset 14, -4
  86:Drivers/lvgl/src/stdlib/clib/lv_string_clib.c ****     return strcpy(dst, src);
 322              		.loc 1 86 5 is_stmt 1 view .LVU55
 323              		.loc 1 86 12 is_stmt 0 view .LVU56
 324 0002 FFF7FEFF 		bl	strcpy
 325              	.LVL25:
  87:Drivers/lvgl/src/stdlib/clib/lv_string_clib.c **** }
 326              		.loc 1 87 1 view .LVU57
 327 0006 08BD     		pop	{r3, pc}
ARM GAS  /tmp/cc1pb3S0.s 			page 8


 328              		.cfi_endproc
 329              	.LFE10:
 331              		.section	.text.lv_strcmp,"ax",%progbits
 332              		.align	1
 333              		.global	lv_strcmp
 334              		.syntax unified
 335              		.thumb
 336              		.thumb_func
 338              	lv_strcmp:
 339              	.LVL26:
 340              	.LFB11:
  88:Drivers/lvgl/src/stdlib/clib/lv_string_clib.c **** 
  89:Drivers/lvgl/src/stdlib/clib/lv_string_clib.c **** int lv_strcmp(const char * s1, const char * s2)
  90:Drivers/lvgl/src/stdlib/clib/lv_string_clib.c **** {
 341              		.loc 1 90 1 is_stmt 1 view -0
 342              		.cfi_startproc
 343              		@ args = 0, pretend = 0, frame = 0
 344              		@ frame_needed = 0, uses_anonymous_args = 0
 345              		.loc 1 90 1 is_stmt 0 view .LVU59
 346 0000 08B5     		push	{r3, lr}
 347              	.LCFI9:
 348              		.cfi_def_cfa_offset 8
 349              		.cfi_offset 3, -8
 350              		.cfi_offset 14, -4
  91:Drivers/lvgl/src/stdlib/clib/lv_string_clib.c ****     return strcmp(s1, s2);
 351              		.loc 1 91 5 is_stmt 1 view .LVU60
 352              		.loc 1 91 12 is_stmt 0 view .LVU61
 353 0002 FFF7FEFF 		bl	strcmp
 354              	.LVL27:
  92:Drivers/lvgl/src/stdlib/clib/lv_string_clib.c **** }
 355              		.loc 1 92 1 view .LVU62
 356 0006 08BD     		pop	{r3, pc}
 357              		.cfi_endproc
 358              	.LFE11:
 360              		.section	.text.lv_strncmp,"ax",%progbits
 361              		.align	1
 362              		.global	lv_strncmp
 363              		.syntax unified
 364              		.thumb
 365              		.thumb_func
 367              	lv_strncmp:
 368              	.LVL28:
 369              	.LFB12:
  93:Drivers/lvgl/src/stdlib/clib/lv_string_clib.c **** 
  94:Drivers/lvgl/src/stdlib/clib/lv_string_clib.c **** int lv_strncmp(const char * s1, const char * s2, size_t len)
  95:Drivers/lvgl/src/stdlib/clib/lv_string_clib.c **** {
 370              		.loc 1 95 1 is_stmt 1 view -0
 371              		.cfi_startproc
 372              		@ args = 0, pretend = 0, frame = 0
 373              		@ frame_needed = 0, uses_anonymous_args = 0
 374              		.loc 1 95 1 is_stmt 0 view .LVU64
 375 0000 08B5     		push	{r3, lr}
 376              	.LCFI10:
 377              		.cfi_def_cfa_offset 8
 378              		.cfi_offset 3, -8
 379              		.cfi_offset 14, -4
  96:Drivers/lvgl/src/stdlib/clib/lv_string_clib.c ****     return strncmp(s1, s2, len);
ARM GAS  /tmp/cc1pb3S0.s 			page 9


 380              		.loc 1 96 5 is_stmt 1 view .LVU65
 381              		.loc 1 96 12 is_stmt 0 view .LVU66
 382 0002 FFF7FEFF 		bl	strncmp
 383              	.LVL29:
  97:Drivers/lvgl/src/stdlib/clib/lv_string_clib.c **** }
 384              		.loc 1 97 1 view .LVU67
 385 0006 08BD     		pop	{r3, pc}
 386              		.cfi_endproc
 387              	.LFE12:
 389              		.section	.text.lv_strdup,"ax",%progbits
 390              		.align	1
 391              		.global	lv_strdup
 392              		.syntax unified
 393              		.thumb
 394              		.thumb_func
 396              	lv_strdup:
 397              	.LVL30:
 398              	.LFB13:
  98:Drivers/lvgl/src/stdlib/clib/lv_string_clib.c **** 
  99:Drivers/lvgl/src/stdlib/clib/lv_string_clib.c **** char * lv_strdup(const char * src)
 100:Drivers/lvgl/src/stdlib/clib/lv_string_clib.c **** {
 399              		.loc 1 100 1 is_stmt 1 view -0
 400              		.cfi_startproc
 401              		@ args = 0, pretend = 0, frame = 0
 402              		@ frame_needed = 0, uses_anonymous_args = 0
 403              		.loc 1 100 1 is_stmt 0 view .LVU69
 404 0000 70B5     		push	{r4, r5, r6, lr}
 405              	.LCFI11:
 406              		.cfi_def_cfa_offset 16
 407              		.cfi_offset 4, -16
 408              		.cfi_offset 5, -12
 409              		.cfi_offset 6, -8
 410              		.cfi_offset 14, -4
 411 0002 0546     		mov	r5, r0
 101:Drivers/lvgl/src/stdlib/clib/lv_string_clib.c ****     /*strdup uses malloc, so use the lv_malloc when LV_USE_STDLIB_MALLOC is not LV_STDLIB_CLIB */
 102:Drivers/lvgl/src/stdlib/clib/lv_string_clib.c ****     size_t len = lv_strlen(src) + 1;
 412              		.loc 1 102 5 is_stmt 1 view .LVU70
 413              		.loc 1 102 18 is_stmt 0 view .LVU71
 414 0004 FFF7FEFF 		bl	lv_strlen
 415              	.LVL31:
 416              		.loc 1 102 12 discriminator 1 view .LVU72
 417 0008 441C     		adds	r4, r0, #1
 418              	.LVL32:
 103:Drivers/lvgl/src/stdlib/clib/lv_string_clib.c ****     char * dst = lv_malloc(len);
 419              		.loc 1 103 5 is_stmt 1 view .LVU73
 420              		.loc 1 103 18 is_stmt 0 view .LVU74
 421 000a 2046     		mov	r0, r4
 422 000c FFF7FEFF 		bl	lv_malloc
 423              	.LVL33:
 104:Drivers/lvgl/src/stdlib/clib/lv_string_clib.c ****     if(dst == NULL) return NULL;
 424              		.loc 1 104 5 is_stmt 1 view .LVU75
 425              		.loc 1 104 7 is_stmt 0 view .LVU76
 426 0010 0646     		mov	r6, r0
 427 0012 18B1     		cbz	r0, .L26
 105:Drivers/lvgl/src/stdlib/clib/lv_string_clib.c **** 
 106:Drivers/lvgl/src/stdlib/clib/lv_string_clib.c ****     lv_memcpy(dst, src, len); /*do memcpy is faster than strncpy when length is known*/
 428              		.loc 1 106 5 is_stmt 1 view .LVU77
ARM GAS  /tmp/cc1pb3S0.s 			page 10


 429 0014 2246     		mov	r2, r4
 430 0016 2946     		mov	r1, r5
 431 0018 FFF7FEFF 		bl	lv_memcpy
 432              	.LVL34:
 107:Drivers/lvgl/src/stdlib/clib/lv_string_clib.c ****     return dst;
 433              		.loc 1 107 5 view .LVU78
 434              	.L26:
 108:Drivers/lvgl/src/stdlib/clib/lv_string_clib.c **** }
 435              		.loc 1 108 1 is_stmt 0 view .LVU79
 436 001c 3046     		mov	r0, r6
 437 001e 70BD     		pop	{r4, r5, r6, pc}
 438              		.loc 1 108 1 view .LVU80
 439              		.cfi_endproc
 440              	.LFE13:
 442              		.section	.text.lv_strndup,"ax",%progbits
 443              		.align	1
 444              		.global	lv_strndup
 445              		.syntax unified
 446              		.thumb
 447              		.thumb_func
 449              	lv_strndup:
 450              	.LVL35:
 451              	.LFB14:
 109:Drivers/lvgl/src/stdlib/clib/lv_string_clib.c **** 
 110:Drivers/lvgl/src/stdlib/clib/lv_string_clib.c **** char * lv_strndup(const char * src, size_t max_len)
 111:Drivers/lvgl/src/stdlib/clib/lv_string_clib.c **** {
 452              		.loc 1 111 1 is_stmt 1 view -0
 453              		.cfi_startproc
 454              		@ args = 0, pretend = 0, frame = 0
 455              		@ frame_needed = 0, uses_anonymous_args = 0
 456              		.loc 1 111 1 is_stmt 0 view .LVU82
 457 0000 70B5     		push	{r4, r5, r6, lr}
 458              	.LCFI12:
 459              		.cfi_def_cfa_offset 16
 460              		.cfi_offset 4, -16
 461              		.cfi_offset 5, -12
 462              		.cfi_offset 6, -8
 463              		.cfi_offset 14, -4
 464 0002 0546     		mov	r5, r0
 112:Drivers/lvgl/src/stdlib/clib/lv_string_clib.c ****     size_t len = lv_strnlen(src, max_len);
 465              		.loc 1 112 5 is_stmt 1 view .LVU83
 466              		.loc 1 112 18 is_stmt 0 view .LVU84
 467 0004 FFF7FEFF 		bl	lv_strnlen
 468              	.LVL36:
 469              		.loc 1 112 18 view .LVU85
 470 0008 0446     		mov	r4, r0
 471              	.LVL37:
 113:Drivers/lvgl/src/stdlib/clib/lv_string_clib.c ****     char * dst = lv_malloc(len + 1);
 472              		.loc 1 113 5 is_stmt 1 view .LVU86
 473              		.loc 1 113 18 is_stmt 0 view .LVU87
 474 000a 0130     		adds	r0, r0, #1
 475              	.LVL38:
 476              		.loc 1 113 18 view .LVU88
 477 000c FFF7FEFF 		bl	lv_malloc
 478              	.LVL39:
 114:Drivers/lvgl/src/stdlib/clib/lv_string_clib.c ****     if(dst == NULL) return NULL;
 479              		.loc 1 114 5 is_stmt 1 view .LVU89
ARM GAS  /tmp/cc1pb3S0.s 			page 11


 480              		.loc 1 114 7 is_stmt 0 view .LVU90
 481 0010 0646     		mov	r6, r0
 482 0012 28B1     		cbz	r0, .L29
 115:Drivers/lvgl/src/stdlib/clib/lv_string_clib.c **** 
 116:Drivers/lvgl/src/stdlib/clib/lv_string_clib.c ****     lv_memcpy(dst, src, len);
 483              		.loc 1 116 5 is_stmt 1 view .LVU91
 484 0014 2246     		mov	r2, r4
 485 0016 2946     		mov	r1, r5
 486 0018 FFF7FEFF 		bl	lv_memcpy
 487              	.LVL40:
 117:Drivers/lvgl/src/stdlib/clib/lv_string_clib.c ****     dst[len] = '\0';
 488              		.loc 1 117 5 view .LVU92
 489              		.loc 1 117 14 is_stmt 0 view .LVU93
 490 001c 0023     		movs	r3, #0
 491 001e 3355     		strb	r3, [r6, r4]
 118:Drivers/lvgl/src/stdlib/clib/lv_string_clib.c ****     return dst;
 492              		.loc 1 118 5 is_stmt 1 view .LVU94
 493              	.L29:
 119:Drivers/lvgl/src/stdlib/clib/lv_string_clib.c **** }
 494              		.loc 1 119 1 is_stmt 0 view .LVU95
 495 0020 3046     		mov	r0, r6
 496 0022 70BD     		pop	{r4, r5, r6, pc}
 497              		.loc 1 119 1 view .LVU96
 498              		.cfi_endproc
 499              	.LFE14:
 501              		.section	.text.lv_strcat,"ax",%progbits
 502              		.align	1
 503              		.global	lv_strcat
 504              		.syntax unified
 505              		.thumb
 506              		.thumb_func
 508              	lv_strcat:
 509              	.LVL41:
 510              	.LFB15:
 120:Drivers/lvgl/src/stdlib/clib/lv_string_clib.c **** 
 121:Drivers/lvgl/src/stdlib/clib/lv_string_clib.c **** char * lv_strcat(char * dst, const char * src)
 122:Drivers/lvgl/src/stdlib/clib/lv_string_clib.c **** {
 511              		.loc 1 122 1 is_stmt 1 view -0
 512              		.cfi_startproc
 513              		@ args = 0, pretend = 0, frame = 0
 514              		@ frame_needed = 0, uses_anonymous_args = 0
 515              		.loc 1 122 1 is_stmt 0 view .LVU98
 516 0000 08B5     		push	{r3, lr}
 517              	.LCFI13:
 518              		.cfi_def_cfa_offset 8
 519              		.cfi_offset 3, -8
 520              		.cfi_offset 14, -4
 123:Drivers/lvgl/src/stdlib/clib/lv_string_clib.c ****     return strcat(dst, src);
 521              		.loc 1 123 5 is_stmt 1 view .LVU99
 522              		.loc 1 123 12 is_stmt 0 view .LVU100
 523 0002 FFF7FEFF 		bl	strcat
 524              	.LVL42:
 124:Drivers/lvgl/src/stdlib/clib/lv_string_clib.c **** }
 525              		.loc 1 124 1 view .LVU101
 526 0006 08BD     		pop	{r3, pc}
 527              		.cfi_endproc
 528              	.LFE15:
ARM GAS  /tmp/cc1pb3S0.s 			page 12


 530              		.section	.text.lv_strncat,"ax",%progbits
 531              		.align	1
 532              		.global	lv_strncat
 533              		.syntax unified
 534              		.thumb
 535              		.thumb_func
 537              	lv_strncat:
 538              	.LVL43:
 539              	.LFB16:
 125:Drivers/lvgl/src/stdlib/clib/lv_string_clib.c **** 
 126:Drivers/lvgl/src/stdlib/clib/lv_string_clib.c **** char * lv_strncat(char * dst, const char * src, size_t src_len)
 127:Drivers/lvgl/src/stdlib/clib/lv_string_clib.c **** {
 540              		.loc 1 127 1 is_stmt 1 view -0
 541              		.cfi_startproc
 542              		@ args = 0, pretend = 0, frame = 0
 543              		@ frame_needed = 0, uses_anonymous_args = 0
 544              		.loc 1 127 1 is_stmt 0 view .LVU103
 545 0000 08B5     		push	{r3, lr}
 546              	.LCFI14:
 547              		.cfi_def_cfa_offset 8
 548              		.cfi_offset 3, -8
 549              		.cfi_offset 14, -4
 128:Drivers/lvgl/src/stdlib/clib/lv_string_clib.c ****     return strncat(dst, src, src_len);
 550              		.loc 1 128 5 is_stmt 1 view .LVU104
 551              		.loc 1 128 12 is_stmt 0 view .LVU105
 552 0002 FFF7FEFF 		bl	strncat
 553              	.LVL44:
 129:Drivers/lvgl/src/stdlib/clib/lv_string_clib.c **** }
 554              		.loc 1 129 1 view .LVU106
 555 0006 08BD     		pop	{r3, pc}
 556              		.cfi_endproc
 557              	.LFE16:
 559              		.section	.text.lv_strchr,"ax",%progbits
 560              		.align	1
 561              		.global	lv_strchr
 562              		.syntax unified
 563              		.thumb
 564              		.thumb_func
 566              	lv_strchr:
 567              	.LVL45:
 568              	.LFB17:
 130:Drivers/lvgl/src/stdlib/clib/lv_string_clib.c **** 
 131:Drivers/lvgl/src/stdlib/clib/lv_string_clib.c **** char * lv_strchr(const char * str, int c)
 132:Drivers/lvgl/src/stdlib/clib/lv_string_clib.c **** {
 569              		.loc 1 132 1 is_stmt 1 view -0
 570              		.cfi_startproc
 571              		@ args = 0, pretend = 0, frame = 0
 572              		@ frame_needed = 0, uses_anonymous_args = 0
 573              		.loc 1 132 1 is_stmt 0 view .LVU108
 574 0000 08B5     		push	{r3, lr}
 575              	.LCFI15:
 576              		.cfi_def_cfa_offset 8
 577              		.cfi_offset 3, -8
 578              		.cfi_offset 14, -4
 133:Drivers/lvgl/src/stdlib/clib/lv_string_clib.c ****     return strchr(str, c);
 579              		.loc 1 133 5 is_stmt 1 view .LVU109
 580              		.loc 1 133 12 is_stmt 0 view .LVU110
ARM GAS  /tmp/cc1pb3S0.s 			page 13


 581 0002 FFF7FEFF 		bl	strchr
 582              	.LVL46:
 134:Drivers/lvgl/src/stdlib/clib/lv_string_clib.c **** }
 583              		.loc 1 134 1 view .LVU111
 584 0006 08BD     		pop	{r3, pc}
 585              		.cfi_endproc
 586              	.LFE17:
 588              		.text
 589              	.Letext0:
 590              		.file 2 "/usr/arm-none-eabi/include/machine/_default_types.h"
 591              		.file 3 "/usr/arm-none-eabi/include/sys/_stdint.h"
 592              		.file 4 "/usr/lib/gcc/arm-none-eabi/14.2.0/include/stddef.h"
 593              		.file 5 "/usr/arm-none-eabi/include/string.h"
 594              		.file 6 "Drivers/lvgl/src/stdlib/clib/../lv_mem.h"
 595              		.file 7 "<built-in>"
ARM GAS  /tmp/cc1pb3S0.s 			page 14

