ARM GAS  /tmp/ccq4eqVm.s 			page 1


   1              		.cpu cortex-m7
   2              		.arch armv7e-m
   3              		.fpu fpv5-sp-d16
   4              		.eabi_attribute 27, 1
   5              		.eabi_attribute 28, 1
   6              		.eabi_attribute 20, 1
   7              		.eabi_attribute 21, 1
   8              		.eabi_attribute 23, 3
   9              		.eabi_attribute 24, 1
  10              		.eabi_attribute 25, 1
  11              		.eabi_attribute 26, 1
  12              		.eabi_attribute 30, 1
  13              		.eabi_attribute 34, 1
  14              		.eabi_attribute 18, 4
  15              		.file	"lv_slider.c"
  16              		.text
  17              	.Ltext0:
  18              		.cfi_sections	.debug_frame
  19              		.file 1 "Drivers/lvgl/src/widgets/slider/lv_slider.c"
  20              		.section	.text.is_slider_horizontal,"ax",%progbits
  21              		.align	1
  22              		.syntax unified
  23              		.thumb
  24              		.thumb_func
  26              	is_slider_horizontal:
  27              	.LVL0:
  28              	.LFB189:
   1:Drivers/lvgl/src/widgets/slider/lv_slider.c **** /**
   2:Drivers/lvgl/src/widgets/slider/lv_slider.c ****  * @file lv_slider.c
   3:Drivers/lvgl/src/widgets/slider/lv_slider.c ****  *
   4:Drivers/lvgl/src/widgets/slider/lv_slider.c ****  */
   5:Drivers/lvgl/src/widgets/slider/lv_slider.c **** 
   6:Drivers/lvgl/src/widgets/slider/lv_slider.c **** /*********************
   7:Drivers/lvgl/src/widgets/slider/lv_slider.c ****  *      INCLUDES
   8:Drivers/lvgl/src/widgets/slider/lv_slider.c ****  *********************/
   9:Drivers/lvgl/src/widgets/slider/lv_slider.c **** #include "lv_slider_private.h"
  10:Drivers/lvgl/src/widgets/slider/lv_slider.c **** #include "../../misc/lv_area_private.h"
  11:Drivers/lvgl/src/widgets/slider/lv_slider.c **** #include "../../core/lv_obj_private.h"
  12:Drivers/lvgl/src/widgets/slider/lv_slider.c **** #include "../../core/lv_obj_event_private.h"
  13:Drivers/lvgl/src/widgets/slider/lv_slider.c **** #include "../../core/lv_obj_class_private.h"
  14:Drivers/lvgl/src/widgets/slider/lv_slider.c **** #if LV_USE_SLIDER != 0
  15:Drivers/lvgl/src/widgets/slider/lv_slider.c **** 
  16:Drivers/lvgl/src/widgets/slider/lv_slider.c **** #include "../../misc/lv_assert.h"
  17:Drivers/lvgl/src/widgets/slider/lv_slider.c **** #include "../../core/lv_group.h"
  18:Drivers/lvgl/src/widgets/slider/lv_slider.c **** #include "../../indev/lv_indev.h"
  19:Drivers/lvgl/src/widgets/slider/lv_slider.c **** #include "../../indev/lv_indev_private.h"
  20:Drivers/lvgl/src/widgets/slider/lv_slider.c **** #include "../../display/lv_display.h"
  21:Drivers/lvgl/src/widgets/slider/lv_slider.c **** #include "../../draw/lv_draw.h"
  22:Drivers/lvgl/src/widgets/slider/lv_slider.c **** #include "../../stdlib/lv_string.h"
  23:Drivers/lvgl/src/widgets/slider/lv_slider.c **** #include "../../misc/lv_math.h"
  24:Drivers/lvgl/src/widgets/slider/lv_slider.c **** #include "../image/lv_image.h"
  25:Drivers/lvgl/src/widgets/slider/lv_slider.c **** 
  26:Drivers/lvgl/src/widgets/slider/lv_slider.c **** /*********************
  27:Drivers/lvgl/src/widgets/slider/lv_slider.c ****  *      DEFINES
  28:Drivers/lvgl/src/widgets/slider/lv_slider.c ****  *********************/
  29:Drivers/lvgl/src/widgets/slider/lv_slider.c **** #define MY_CLASS (&lv_slider_class)
  30:Drivers/lvgl/src/widgets/slider/lv_slider.c **** 
ARM GAS  /tmp/ccq4eqVm.s 			page 2


  31:Drivers/lvgl/src/widgets/slider/lv_slider.c **** #define LV_SLIDER_KNOB_COORD(is_reversed, area) (is_reversed ? area.x1 : area.x2)
  32:Drivers/lvgl/src/widgets/slider/lv_slider.c **** #define LV_SLIDER_KNOB_COORD_VERTICAL(is_reversed, area) (is_reversed ? area.y2 : area.y1)
  33:Drivers/lvgl/src/widgets/slider/lv_slider.c **** 
  34:Drivers/lvgl/src/widgets/slider/lv_slider.c **** /**********************
  35:Drivers/lvgl/src/widgets/slider/lv_slider.c ****  *      TYPEDEFS
  36:Drivers/lvgl/src/widgets/slider/lv_slider.c ****  **********************/
  37:Drivers/lvgl/src/widgets/slider/lv_slider.c **** 
  38:Drivers/lvgl/src/widgets/slider/lv_slider.c **** /**********************
  39:Drivers/lvgl/src/widgets/slider/lv_slider.c ****  *  STATIC PROTOTYPES
  40:Drivers/lvgl/src/widgets/slider/lv_slider.c ****  **********************/
  41:Drivers/lvgl/src/widgets/slider/lv_slider.c **** static void lv_slider_constructor(const lv_obj_class_t * class_p, lv_obj_t * obj);
  42:Drivers/lvgl/src/widgets/slider/lv_slider.c **** static void lv_slider_event(const lv_obj_class_t * class_p, lv_event_t * e);
  43:Drivers/lvgl/src/widgets/slider/lv_slider.c **** static void position_knob(lv_obj_t * obj, lv_area_t * knob_area, const int32_t knob_size, const boo
  44:Drivers/lvgl/src/widgets/slider/lv_slider.c **** static void draw_knob(lv_event_t * e);
  45:Drivers/lvgl/src/widgets/slider/lv_slider.c **** static bool is_slider_horizontal(lv_obj_t * obj);
  46:Drivers/lvgl/src/widgets/slider/lv_slider.c **** static void drag_start(lv_obj_t * obj);
  47:Drivers/lvgl/src/widgets/slider/lv_slider.c **** static void update_knob_pos(lv_obj_t * obj, bool check_drag);
  48:Drivers/lvgl/src/widgets/slider/lv_slider.c **** 
  49:Drivers/lvgl/src/widgets/slider/lv_slider.c **** /**********************
  50:Drivers/lvgl/src/widgets/slider/lv_slider.c ****  *  STATIC VARIABLES
  51:Drivers/lvgl/src/widgets/slider/lv_slider.c ****  **********************/
  52:Drivers/lvgl/src/widgets/slider/lv_slider.c **** 
  53:Drivers/lvgl/src/widgets/slider/lv_slider.c **** #if LV_USE_OBJ_PROPERTY
  54:Drivers/lvgl/src/widgets/slider/lv_slider.c **** static const lv_property_ops_t properties[] = {
  55:Drivers/lvgl/src/widgets/slider/lv_slider.c ****     {
  56:Drivers/lvgl/src/widgets/slider/lv_slider.c ****         .id = LV_PROPERTY_SLIDER_VALUE,
  57:Drivers/lvgl/src/widgets/slider/lv_slider.c ****         .setter = lv_slider_set_value,
  58:Drivers/lvgl/src/widgets/slider/lv_slider.c ****         .getter = lv_slider_get_value,
  59:Drivers/lvgl/src/widgets/slider/lv_slider.c ****     },
  60:Drivers/lvgl/src/widgets/slider/lv_slider.c ****     {
  61:Drivers/lvgl/src/widgets/slider/lv_slider.c ****         .id = LV_PROPERTY_SLIDER_LEFT_VALUE,
  62:Drivers/lvgl/src/widgets/slider/lv_slider.c ****         .setter = lv_slider_set_start_value,
  63:Drivers/lvgl/src/widgets/slider/lv_slider.c ****         .getter = lv_slider_get_left_value,
  64:Drivers/lvgl/src/widgets/slider/lv_slider.c ****     },
  65:Drivers/lvgl/src/widgets/slider/lv_slider.c ****     {
  66:Drivers/lvgl/src/widgets/slider/lv_slider.c ****         .id = LV_PROPERTY_SLIDER_RANGE,
  67:Drivers/lvgl/src/widgets/slider/lv_slider.c ****         .setter = lv_slider_set_range,
  68:Drivers/lvgl/src/widgets/slider/lv_slider.c ****         .getter = NULL,
  69:Drivers/lvgl/src/widgets/slider/lv_slider.c ****     },
  70:Drivers/lvgl/src/widgets/slider/lv_slider.c ****     {
  71:Drivers/lvgl/src/widgets/slider/lv_slider.c ****         .id = LV_PROPERTY_SLIDER_MIN_VALUE,
  72:Drivers/lvgl/src/widgets/slider/lv_slider.c ****         .setter = NULL,
  73:Drivers/lvgl/src/widgets/slider/lv_slider.c ****         .getter = lv_slider_get_min_value,
  74:Drivers/lvgl/src/widgets/slider/lv_slider.c ****     },
  75:Drivers/lvgl/src/widgets/slider/lv_slider.c ****     {
  76:Drivers/lvgl/src/widgets/slider/lv_slider.c ****         .id = LV_PROPERTY_SLIDER_MAX_VALUE,
  77:Drivers/lvgl/src/widgets/slider/lv_slider.c ****         .setter = NULL,
  78:Drivers/lvgl/src/widgets/slider/lv_slider.c ****         .getter = lv_slider_get_max_value,
  79:Drivers/lvgl/src/widgets/slider/lv_slider.c ****     },
  80:Drivers/lvgl/src/widgets/slider/lv_slider.c ****     {
  81:Drivers/lvgl/src/widgets/slider/lv_slider.c ****         .id = LV_PROPERTY_SLIDER_MODE,
  82:Drivers/lvgl/src/widgets/slider/lv_slider.c ****         .setter = lv_slider_set_mode,
  83:Drivers/lvgl/src/widgets/slider/lv_slider.c ****         .getter = lv_slider_get_mode,
  84:Drivers/lvgl/src/widgets/slider/lv_slider.c ****     },
  85:Drivers/lvgl/src/widgets/slider/lv_slider.c ****     {
  86:Drivers/lvgl/src/widgets/slider/lv_slider.c ****         .id = LV_PROPERTY_SLIDER_IS_DRAGGED,
  87:Drivers/lvgl/src/widgets/slider/lv_slider.c ****         .setter = NULL,
ARM GAS  /tmp/ccq4eqVm.s 			page 3


  88:Drivers/lvgl/src/widgets/slider/lv_slider.c ****         .getter = lv_slider_is_dragged,
  89:Drivers/lvgl/src/widgets/slider/lv_slider.c ****     },
  90:Drivers/lvgl/src/widgets/slider/lv_slider.c ****     {
  91:Drivers/lvgl/src/widgets/slider/lv_slider.c ****         .id = LV_PROPERTY_SLIDER_IS_SYMMETRICAL,
  92:Drivers/lvgl/src/widgets/slider/lv_slider.c ****         .setter = NULL,
  93:Drivers/lvgl/src/widgets/slider/lv_slider.c ****         .getter = lv_slider_is_symmetrical,
  94:Drivers/lvgl/src/widgets/slider/lv_slider.c ****     },
  95:Drivers/lvgl/src/widgets/slider/lv_slider.c **** };
  96:Drivers/lvgl/src/widgets/slider/lv_slider.c **** #endif
  97:Drivers/lvgl/src/widgets/slider/lv_slider.c **** 
  98:Drivers/lvgl/src/widgets/slider/lv_slider.c **** const lv_obj_class_t lv_slider_class = {
  99:Drivers/lvgl/src/widgets/slider/lv_slider.c ****     .constructor_cb = lv_slider_constructor,
 100:Drivers/lvgl/src/widgets/slider/lv_slider.c ****     .event_cb = lv_slider_event,
 101:Drivers/lvgl/src/widgets/slider/lv_slider.c ****     .editable = LV_OBJ_CLASS_EDITABLE_TRUE,
 102:Drivers/lvgl/src/widgets/slider/lv_slider.c ****     .group_def = LV_OBJ_CLASS_GROUP_DEF_TRUE,
 103:Drivers/lvgl/src/widgets/slider/lv_slider.c ****     .instance_size = sizeof(lv_slider_t),
 104:Drivers/lvgl/src/widgets/slider/lv_slider.c ****     .base_class = &lv_bar_class,
 105:Drivers/lvgl/src/widgets/slider/lv_slider.c ****     .name = "lv_slider",
 106:Drivers/lvgl/src/widgets/slider/lv_slider.c **** #if LV_USE_OBJ_PROPERTY
 107:Drivers/lvgl/src/widgets/slider/lv_slider.c ****     .prop_index_start = LV_PROPERTY_SLIDER_START,
 108:Drivers/lvgl/src/widgets/slider/lv_slider.c ****     .prop_index_end = LV_PROPERTY_SLIDER_END,
 109:Drivers/lvgl/src/widgets/slider/lv_slider.c ****     .properties = properties,
 110:Drivers/lvgl/src/widgets/slider/lv_slider.c ****     .properties_count = sizeof(properties) / sizeof(properties[0]),
 111:Drivers/lvgl/src/widgets/slider/lv_slider.c **** 
 112:Drivers/lvgl/src/widgets/slider/lv_slider.c **** #if LV_USE_OBJ_PROPERTY_NAME
 113:Drivers/lvgl/src/widgets/slider/lv_slider.c ****     .property_names = lv_slider_property_names,
 114:Drivers/lvgl/src/widgets/slider/lv_slider.c ****     .names_count = sizeof(lv_slider_property_names) / sizeof(lv_property_name_t),
 115:Drivers/lvgl/src/widgets/slider/lv_slider.c **** #endif
 116:Drivers/lvgl/src/widgets/slider/lv_slider.c **** #endif
 117:Drivers/lvgl/src/widgets/slider/lv_slider.c **** };
 118:Drivers/lvgl/src/widgets/slider/lv_slider.c **** 
 119:Drivers/lvgl/src/widgets/slider/lv_slider.c **** /**********************
 120:Drivers/lvgl/src/widgets/slider/lv_slider.c ****  *      MACROS
 121:Drivers/lvgl/src/widgets/slider/lv_slider.c ****  **********************/
 122:Drivers/lvgl/src/widgets/slider/lv_slider.c **** 
 123:Drivers/lvgl/src/widgets/slider/lv_slider.c **** /**********************
 124:Drivers/lvgl/src/widgets/slider/lv_slider.c ****  *   GLOBAL FUNCTIONS
 125:Drivers/lvgl/src/widgets/slider/lv_slider.c ****  **********************/
 126:Drivers/lvgl/src/widgets/slider/lv_slider.c **** 
 127:Drivers/lvgl/src/widgets/slider/lv_slider.c **** lv_obj_t * lv_slider_create(lv_obj_t * parent)
 128:Drivers/lvgl/src/widgets/slider/lv_slider.c **** {
 129:Drivers/lvgl/src/widgets/slider/lv_slider.c ****     LV_LOG_INFO("begin");
 130:Drivers/lvgl/src/widgets/slider/lv_slider.c ****     lv_obj_t * obj = lv_obj_class_create_obj(MY_CLASS, parent);
 131:Drivers/lvgl/src/widgets/slider/lv_slider.c ****     lv_obj_class_init_obj(obj);
 132:Drivers/lvgl/src/widgets/slider/lv_slider.c ****     return obj;
 133:Drivers/lvgl/src/widgets/slider/lv_slider.c **** }
 134:Drivers/lvgl/src/widgets/slider/lv_slider.c **** 
 135:Drivers/lvgl/src/widgets/slider/lv_slider.c **** bool lv_slider_is_dragged(const lv_obj_t * obj)
 136:Drivers/lvgl/src/widgets/slider/lv_slider.c **** {
 137:Drivers/lvgl/src/widgets/slider/lv_slider.c ****     LV_ASSERT_OBJ(obj, MY_CLASS);
 138:Drivers/lvgl/src/widgets/slider/lv_slider.c ****     lv_slider_t * slider = (lv_slider_t *)obj;
 139:Drivers/lvgl/src/widgets/slider/lv_slider.c **** 
 140:Drivers/lvgl/src/widgets/slider/lv_slider.c ****     return slider->dragging;
 141:Drivers/lvgl/src/widgets/slider/lv_slider.c **** }
 142:Drivers/lvgl/src/widgets/slider/lv_slider.c **** 
 143:Drivers/lvgl/src/widgets/slider/lv_slider.c **** void lv_slider_set_value(lv_obj_t * obj, int32_t value, lv_anim_enable_t anim)
 144:Drivers/lvgl/src/widgets/slider/lv_slider.c **** {
ARM GAS  /tmp/ccq4eqVm.s 			page 4


 145:Drivers/lvgl/src/widgets/slider/lv_slider.c ****     lv_bar_set_value(obj, value, anim);
 146:Drivers/lvgl/src/widgets/slider/lv_slider.c **** }
 147:Drivers/lvgl/src/widgets/slider/lv_slider.c **** 
 148:Drivers/lvgl/src/widgets/slider/lv_slider.c **** void lv_slider_set_start_value(lv_obj_t * obj, int32_t value, lv_anim_enable_t anim)
 149:Drivers/lvgl/src/widgets/slider/lv_slider.c **** {
 150:Drivers/lvgl/src/widgets/slider/lv_slider.c ****     lv_bar_set_start_value(obj, value, anim);
 151:Drivers/lvgl/src/widgets/slider/lv_slider.c **** }
 152:Drivers/lvgl/src/widgets/slider/lv_slider.c **** 
 153:Drivers/lvgl/src/widgets/slider/lv_slider.c **** void lv_slider_set_range(lv_obj_t * obj, int32_t min, int32_t max)
 154:Drivers/lvgl/src/widgets/slider/lv_slider.c **** {
 155:Drivers/lvgl/src/widgets/slider/lv_slider.c ****     lv_bar_set_range(obj, min, max);
 156:Drivers/lvgl/src/widgets/slider/lv_slider.c **** }
 157:Drivers/lvgl/src/widgets/slider/lv_slider.c **** 
 158:Drivers/lvgl/src/widgets/slider/lv_slider.c **** void lv_slider_set_mode(lv_obj_t * obj, lv_slider_mode_t mode)
 159:Drivers/lvgl/src/widgets/slider/lv_slider.c **** {
 160:Drivers/lvgl/src/widgets/slider/lv_slider.c ****     lv_bar_set_mode(obj, (lv_bar_mode_t)mode);
 161:Drivers/lvgl/src/widgets/slider/lv_slider.c **** }
 162:Drivers/lvgl/src/widgets/slider/lv_slider.c **** 
 163:Drivers/lvgl/src/widgets/slider/lv_slider.c **** void lv_slider_set_orientation(lv_obj_t * obj, lv_slider_orientation_t orientation)
 164:Drivers/lvgl/src/widgets/slider/lv_slider.c **** {
 165:Drivers/lvgl/src/widgets/slider/lv_slider.c ****     lv_bar_set_orientation(obj, (lv_bar_orientation_t)orientation);
 166:Drivers/lvgl/src/widgets/slider/lv_slider.c **** }
 167:Drivers/lvgl/src/widgets/slider/lv_slider.c **** 
 168:Drivers/lvgl/src/widgets/slider/lv_slider.c **** int32_t lv_slider_get_value(const lv_obj_t * obj)
 169:Drivers/lvgl/src/widgets/slider/lv_slider.c **** {
 170:Drivers/lvgl/src/widgets/slider/lv_slider.c ****     return lv_bar_get_value(obj);
 171:Drivers/lvgl/src/widgets/slider/lv_slider.c **** }
 172:Drivers/lvgl/src/widgets/slider/lv_slider.c **** 
 173:Drivers/lvgl/src/widgets/slider/lv_slider.c **** int32_t lv_slider_get_left_value(const lv_obj_t * obj)
 174:Drivers/lvgl/src/widgets/slider/lv_slider.c **** {
 175:Drivers/lvgl/src/widgets/slider/lv_slider.c ****     return lv_bar_get_start_value(obj);
 176:Drivers/lvgl/src/widgets/slider/lv_slider.c **** }
 177:Drivers/lvgl/src/widgets/slider/lv_slider.c **** 
 178:Drivers/lvgl/src/widgets/slider/lv_slider.c **** int32_t lv_slider_get_min_value(const lv_obj_t * obj)
 179:Drivers/lvgl/src/widgets/slider/lv_slider.c **** {
 180:Drivers/lvgl/src/widgets/slider/lv_slider.c ****     return lv_bar_get_min_value(obj);
 181:Drivers/lvgl/src/widgets/slider/lv_slider.c **** }
 182:Drivers/lvgl/src/widgets/slider/lv_slider.c **** 
 183:Drivers/lvgl/src/widgets/slider/lv_slider.c **** int32_t lv_slider_get_max_value(const lv_obj_t * obj)
 184:Drivers/lvgl/src/widgets/slider/lv_slider.c **** {
 185:Drivers/lvgl/src/widgets/slider/lv_slider.c ****     return lv_bar_get_max_value(obj);
 186:Drivers/lvgl/src/widgets/slider/lv_slider.c **** }
 187:Drivers/lvgl/src/widgets/slider/lv_slider.c **** 
 188:Drivers/lvgl/src/widgets/slider/lv_slider.c **** lv_slider_mode_t lv_slider_get_mode(lv_obj_t * slider)
 189:Drivers/lvgl/src/widgets/slider/lv_slider.c **** {
 190:Drivers/lvgl/src/widgets/slider/lv_slider.c ****     lv_bar_mode_t mode = lv_bar_get_mode(slider);
 191:Drivers/lvgl/src/widgets/slider/lv_slider.c ****     if(mode == LV_BAR_MODE_SYMMETRICAL) return LV_SLIDER_MODE_SYMMETRICAL;
 192:Drivers/lvgl/src/widgets/slider/lv_slider.c ****     else if(mode == LV_BAR_MODE_RANGE) return LV_SLIDER_MODE_RANGE;
 193:Drivers/lvgl/src/widgets/slider/lv_slider.c ****     else return LV_SLIDER_MODE_NORMAL;
 194:Drivers/lvgl/src/widgets/slider/lv_slider.c **** }
 195:Drivers/lvgl/src/widgets/slider/lv_slider.c **** 
 196:Drivers/lvgl/src/widgets/slider/lv_slider.c **** lv_slider_orientation_t lv_slider_get_orientation(lv_obj_t * slider)
 197:Drivers/lvgl/src/widgets/slider/lv_slider.c **** {
 198:Drivers/lvgl/src/widgets/slider/lv_slider.c ****     lv_bar_orientation_t ori = lv_bar_get_orientation(slider);
 199:Drivers/lvgl/src/widgets/slider/lv_slider.c ****     if(ori == LV_BAR_ORIENTATION_HORIZONTAL) return LV_SLIDER_ORIENTATION_HORIZONTAL;
 200:Drivers/lvgl/src/widgets/slider/lv_slider.c ****     else if(ori == LV_BAR_ORIENTATION_VERTICAL) return LV_SLIDER_ORIENTATION_VERTICAL;
 201:Drivers/lvgl/src/widgets/slider/lv_slider.c ****     else return LV_SLIDER_ORIENTATION_AUTO;
ARM GAS  /tmp/ccq4eqVm.s 			page 5


 202:Drivers/lvgl/src/widgets/slider/lv_slider.c **** }
 203:Drivers/lvgl/src/widgets/slider/lv_slider.c **** 
 204:Drivers/lvgl/src/widgets/slider/lv_slider.c **** bool lv_slider_is_symmetrical(lv_obj_t * obj)
 205:Drivers/lvgl/src/widgets/slider/lv_slider.c **** {
 206:Drivers/lvgl/src/widgets/slider/lv_slider.c ****     return lv_bar_is_symmetrical(obj);
 207:Drivers/lvgl/src/widgets/slider/lv_slider.c **** }
 208:Drivers/lvgl/src/widgets/slider/lv_slider.c **** 
 209:Drivers/lvgl/src/widgets/slider/lv_slider.c **** /**********************
 210:Drivers/lvgl/src/widgets/slider/lv_slider.c ****  *   STATIC FUNCTIONS
 211:Drivers/lvgl/src/widgets/slider/lv_slider.c ****  **********************/
 212:Drivers/lvgl/src/widgets/slider/lv_slider.c **** 
 213:Drivers/lvgl/src/widgets/slider/lv_slider.c **** static void lv_slider_constructor(const lv_obj_class_t * class_p, lv_obj_t * obj)
 214:Drivers/lvgl/src/widgets/slider/lv_slider.c **** {
 215:Drivers/lvgl/src/widgets/slider/lv_slider.c ****     LV_UNUSED(class_p);
 216:Drivers/lvgl/src/widgets/slider/lv_slider.c ****     lv_slider_t * slider = (lv_slider_t *)obj;
 217:Drivers/lvgl/src/widgets/slider/lv_slider.c **** 
 218:Drivers/lvgl/src/widgets/slider/lv_slider.c ****     /*Initialize the allocated 'slider'*/
 219:Drivers/lvgl/src/widgets/slider/lv_slider.c ****     slider->value_to_set = NULL;
 220:Drivers/lvgl/src/widgets/slider/lv_slider.c ****     slider->dragging = 0U;
 221:Drivers/lvgl/src/widgets/slider/lv_slider.c ****     slider->left_knob_focus = 0U;
 222:Drivers/lvgl/src/widgets/slider/lv_slider.c **** 
 223:Drivers/lvgl/src/widgets/slider/lv_slider.c ****     lv_obj_remove_flag(obj, LV_OBJ_FLAG_SCROLL_CHAIN_HOR);
 224:Drivers/lvgl/src/widgets/slider/lv_slider.c ****     lv_obj_remove_flag(obj, LV_OBJ_FLAG_SCROLLABLE);
 225:Drivers/lvgl/src/widgets/slider/lv_slider.c ****     lv_obj_add_flag(obj, LV_OBJ_FLAG_SCROLL_ON_FOCUS);
 226:Drivers/lvgl/src/widgets/slider/lv_slider.c ****     lv_obj_set_ext_click_area(obj, LV_DPX(8));
 227:Drivers/lvgl/src/widgets/slider/lv_slider.c **** }
 228:Drivers/lvgl/src/widgets/slider/lv_slider.c **** 
 229:Drivers/lvgl/src/widgets/slider/lv_slider.c **** static void lv_slider_event(const lv_obj_class_t * class_p, lv_event_t * e)
 230:Drivers/lvgl/src/widgets/slider/lv_slider.c **** {
 231:Drivers/lvgl/src/widgets/slider/lv_slider.c ****     LV_UNUSED(class_p);
 232:Drivers/lvgl/src/widgets/slider/lv_slider.c **** 
 233:Drivers/lvgl/src/widgets/slider/lv_slider.c ****     lv_result_t res;
 234:Drivers/lvgl/src/widgets/slider/lv_slider.c **** 
 235:Drivers/lvgl/src/widgets/slider/lv_slider.c ****     /*Call the ancestor's event handler*/
 236:Drivers/lvgl/src/widgets/slider/lv_slider.c ****     res = lv_obj_event_base(MY_CLASS, e);
 237:Drivers/lvgl/src/widgets/slider/lv_slider.c ****     if(res != LV_RESULT_OK) return;
 238:Drivers/lvgl/src/widgets/slider/lv_slider.c **** 
 239:Drivers/lvgl/src/widgets/slider/lv_slider.c ****     lv_event_code_t code = lv_event_get_code(e);
 240:Drivers/lvgl/src/widgets/slider/lv_slider.c ****     lv_obj_t * obj = lv_event_get_current_target(e);
 241:Drivers/lvgl/src/widgets/slider/lv_slider.c ****     lv_slider_t * slider = (lv_slider_t *)obj;
 242:Drivers/lvgl/src/widgets/slider/lv_slider.c ****     lv_slider_mode_t type = lv_slider_get_mode(obj);
 243:Drivers/lvgl/src/widgets/slider/lv_slider.c **** 
 244:Drivers/lvgl/src/widgets/slider/lv_slider.c ****     /*Advanced hit testing: react only on dragging the knob(s)*/
 245:Drivers/lvgl/src/widgets/slider/lv_slider.c ****     if(code == LV_EVENT_HIT_TEST) {
 246:Drivers/lvgl/src/widgets/slider/lv_slider.c ****         lv_hit_test_info_t * info = lv_event_get_param(e);
 247:Drivers/lvgl/src/widgets/slider/lv_slider.c ****         int32_t ext_click_area = obj->spec_attr ? obj->spec_attr->ext_click_pad : 0;
 248:Drivers/lvgl/src/widgets/slider/lv_slider.c **** 
 249:Drivers/lvgl/src/widgets/slider/lv_slider.c ****         /*Ordinary slider: was the knob area hit?*/
 250:Drivers/lvgl/src/widgets/slider/lv_slider.c ****         lv_area_t a;
 251:Drivers/lvgl/src/widgets/slider/lv_slider.c ****         lv_area_copy(&a, &slider->right_knob_area);
 252:Drivers/lvgl/src/widgets/slider/lv_slider.c ****         lv_area_increase(&a, ext_click_area, ext_click_area);
 253:Drivers/lvgl/src/widgets/slider/lv_slider.c ****         info->res = lv_area_is_point_on(&a, info->point, 0);
 254:Drivers/lvgl/src/widgets/slider/lv_slider.c **** 
 255:Drivers/lvgl/src/widgets/slider/lv_slider.c ****         /*There's still a chance that there is a hit if there is another knob*/
 256:Drivers/lvgl/src/widgets/slider/lv_slider.c ****         if((info->res == false) && (type == LV_SLIDER_MODE_RANGE)) {
 257:Drivers/lvgl/src/widgets/slider/lv_slider.c ****             lv_area_copy(&a, &slider->left_knob_area);
 258:Drivers/lvgl/src/widgets/slider/lv_slider.c ****             lv_area_increase(&a, ext_click_area, ext_click_area);
ARM GAS  /tmp/ccq4eqVm.s 			page 6


 259:Drivers/lvgl/src/widgets/slider/lv_slider.c ****             info->res = lv_area_is_point_on(&a, info->point, 0);
 260:Drivers/lvgl/src/widgets/slider/lv_slider.c ****         }
 261:Drivers/lvgl/src/widgets/slider/lv_slider.c ****     }
 262:Drivers/lvgl/src/widgets/slider/lv_slider.c ****     else if(code == LV_EVENT_PRESSED) {
 263:Drivers/lvgl/src/widgets/slider/lv_slider.c ****         /*Save the pressed coordinates*/
 264:Drivers/lvgl/src/widgets/slider/lv_slider.c ****         lv_indev_get_point(lv_indev_active(), &slider->pressed_point);
 265:Drivers/lvgl/src/widgets/slider/lv_slider.c ****         lv_obj_transform_point(obj, &slider->pressed_point, LV_OBJ_POINT_TRANSFORM_FLAG_INVERSE_REC
 266:Drivers/lvgl/src/widgets/slider/lv_slider.c ****     }
 267:Drivers/lvgl/src/widgets/slider/lv_slider.c ****     else if(code == LV_EVENT_PRESSING) {
 268:Drivers/lvgl/src/widgets/slider/lv_slider.c ****         update_knob_pos(obj, true);
 269:Drivers/lvgl/src/widgets/slider/lv_slider.c ****     }
 270:Drivers/lvgl/src/widgets/slider/lv_slider.c ****     else if(code == LV_EVENT_RELEASED || code == LV_EVENT_PRESS_LOST) {
 271:Drivers/lvgl/src/widgets/slider/lv_slider.c ****         update_knob_pos(obj, false);
 272:Drivers/lvgl/src/widgets/slider/lv_slider.c ****         slider->dragging = false;
 273:Drivers/lvgl/src/widgets/slider/lv_slider.c ****         slider->value_to_set = NULL;
 274:Drivers/lvgl/src/widgets/slider/lv_slider.c **** 
 275:Drivers/lvgl/src/widgets/slider/lv_slider.c ****         lv_obj_invalidate(obj);
 276:Drivers/lvgl/src/widgets/slider/lv_slider.c **** 
 277:Drivers/lvgl/src/widgets/slider/lv_slider.c ****         /*Leave edit mode if released. (No need to wait for LONG_PRESS)*/
 278:Drivers/lvgl/src/widgets/slider/lv_slider.c ****         lv_group_t * g   = lv_obj_get_group(obj);
 279:Drivers/lvgl/src/widgets/slider/lv_slider.c ****         bool editing     = lv_group_get_editing(g);
 280:Drivers/lvgl/src/widgets/slider/lv_slider.c ****         lv_indev_type_t indev_type = lv_indev_get_type(lv_indev_active());
 281:Drivers/lvgl/src/widgets/slider/lv_slider.c ****         if(indev_type == LV_INDEV_TYPE_ENCODER) {
 282:Drivers/lvgl/src/widgets/slider/lv_slider.c ****             if(editing) {
 283:Drivers/lvgl/src/widgets/slider/lv_slider.c ****                 if(lv_slider_get_mode(obj) == LV_SLIDER_MODE_RANGE) {
 284:Drivers/lvgl/src/widgets/slider/lv_slider.c ****                     if(slider->left_knob_focus == 0) slider->left_knob_focus = 1;
 285:Drivers/lvgl/src/widgets/slider/lv_slider.c ****                     else {
 286:Drivers/lvgl/src/widgets/slider/lv_slider.c ****                         slider->left_knob_focus = 0;
 287:Drivers/lvgl/src/widgets/slider/lv_slider.c ****                         lv_group_set_editing(g, false);
 288:Drivers/lvgl/src/widgets/slider/lv_slider.c ****                     }
 289:Drivers/lvgl/src/widgets/slider/lv_slider.c ****                 }
 290:Drivers/lvgl/src/widgets/slider/lv_slider.c ****                 else {
 291:Drivers/lvgl/src/widgets/slider/lv_slider.c ****                     lv_group_set_editing(g, false);
 292:Drivers/lvgl/src/widgets/slider/lv_slider.c ****                 }
 293:Drivers/lvgl/src/widgets/slider/lv_slider.c ****             }
 294:Drivers/lvgl/src/widgets/slider/lv_slider.c ****         }
 295:Drivers/lvgl/src/widgets/slider/lv_slider.c ****         else if(indev_type == LV_INDEV_TYPE_POINTER) {
 296:Drivers/lvgl/src/widgets/slider/lv_slider.c ****             if(is_slider_horizontal(obj)) lv_obj_add_flag(obj, LV_OBJ_FLAG_SCROLL_CHAIN_VER);
 297:Drivers/lvgl/src/widgets/slider/lv_slider.c ****             else  lv_obj_add_flag(obj, LV_OBJ_FLAG_SCROLL_CHAIN_HOR);
 298:Drivers/lvgl/src/widgets/slider/lv_slider.c ****         }
 299:Drivers/lvgl/src/widgets/slider/lv_slider.c ****     }
 300:Drivers/lvgl/src/widgets/slider/lv_slider.c ****     else if(code == LV_EVENT_FOCUSED) {
 301:Drivers/lvgl/src/widgets/slider/lv_slider.c ****         lv_indev_type_t indev_type = lv_indev_get_type(lv_indev_active());
 302:Drivers/lvgl/src/widgets/slider/lv_slider.c ****         if(indev_type == LV_INDEV_TYPE_ENCODER || indev_type == LV_INDEV_TYPE_KEYPAD) {
 303:Drivers/lvgl/src/widgets/slider/lv_slider.c ****             slider->left_knob_focus = 0;
 304:Drivers/lvgl/src/widgets/slider/lv_slider.c ****         }
 305:Drivers/lvgl/src/widgets/slider/lv_slider.c ****     }
 306:Drivers/lvgl/src/widgets/slider/lv_slider.c ****     else if(code == LV_EVENT_SIZE_CHANGED) {
 307:Drivers/lvgl/src/widgets/slider/lv_slider.c ****         if(is_slider_horizontal(obj)) {
 308:Drivers/lvgl/src/widgets/slider/lv_slider.c ****             lv_obj_add_flag(obj, LV_OBJ_FLAG_SCROLL_CHAIN_VER);
 309:Drivers/lvgl/src/widgets/slider/lv_slider.c ****             lv_obj_remove_flag(obj, LV_OBJ_FLAG_SCROLL_CHAIN_HOR);
 310:Drivers/lvgl/src/widgets/slider/lv_slider.c ****         }
 311:Drivers/lvgl/src/widgets/slider/lv_slider.c ****         else {
 312:Drivers/lvgl/src/widgets/slider/lv_slider.c ****             lv_obj_add_flag(obj, LV_OBJ_FLAG_SCROLL_CHAIN_HOR);
 313:Drivers/lvgl/src/widgets/slider/lv_slider.c ****             lv_obj_remove_flag(obj, LV_OBJ_FLAG_SCROLL_CHAIN_VER);
 314:Drivers/lvgl/src/widgets/slider/lv_slider.c ****         }
 315:Drivers/lvgl/src/widgets/slider/lv_slider.c ****         lv_obj_refresh_ext_draw_size(obj);
ARM GAS  /tmp/ccq4eqVm.s 			page 7


 316:Drivers/lvgl/src/widgets/slider/lv_slider.c ****     }
 317:Drivers/lvgl/src/widgets/slider/lv_slider.c ****     else if(code == LV_EVENT_REFR_EXT_DRAW_SIZE) {
 318:Drivers/lvgl/src/widgets/slider/lv_slider.c ****         int32_t knob_left = lv_obj_get_style_pad_left(obj, LV_PART_KNOB);
 319:Drivers/lvgl/src/widgets/slider/lv_slider.c ****         int32_t knob_right = lv_obj_get_style_pad_right(obj, LV_PART_KNOB);
 320:Drivers/lvgl/src/widgets/slider/lv_slider.c ****         int32_t knob_top = lv_obj_get_style_pad_top(obj, LV_PART_KNOB);
 321:Drivers/lvgl/src/widgets/slider/lv_slider.c ****         int32_t knob_bottom = lv_obj_get_style_pad_bottom(obj, LV_PART_KNOB);
 322:Drivers/lvgl/src/widgets/slider/lv_slider.c **** 
 323:Drivers/lvgl/src/widgets/slider/lv_slider.c ****         /*The smaller size is the knob diameter*/
 324:Drivers/lvgl/src/widgets/slider/lv_slider.c ****         int32_t trans_w = lv_obj_get_style_transform_width(obj, LV_PART_KNOB);
 325:Drivers/lvgl/src/widgets/slider/lv_slider.c ****         int32_t trans_h = lv_obj_get_style_transform_height(obj, LV_PART_KNOB);
 326:Drivers/lvgl/src/widgets/slider/lv_slider.c ****         int32_t knob_size = LV_MIN(lv_obj_get_width(obj) + 2 * trans_w, lv_obj_get_height(obj) + 2 
 327:Drivers/lvgl/src/widgets/slider/lv_slider.c ****         knob_size += LV_MAX(LV_MAX(knob_left, knob_right), LV_MAX(knob_bottom, knob_top));
 328:Drivers/lvgl/src/widgets/slider/lv_slider.c ****         knob_size += 2;         /*For rounding error*/
 329:Drivers/lvgl/src/widgets/slider/lv_slider.c ****         knob_size += lv_obj_calculate_ext_draw_size(obj, LV_PART_KNOB);
 330:Drivers/lvgl/src/widgets/slider/lv_slider.c **** 
 331:Drivers/lvgl/src/widgets/slider/lv_slider.c ****         /*Indic. size is handled by bar*/
 332:Drivers/lvgl/src/widgets/slider/lv_slider.c ****         int32_t * s = lv_event_get_param(e);
 333:Drivers/lvgl/src/widgets/slider/lv_slider.c ****         *s  = LV_MAX(*s, knob_size);
 334:Drivers/lvgl/src/widgets/slider/lv_slider.c **** 
 335:Drivers/lvgl/src/widgets/slider/lv_slider.c ****     }
 336:Drivers/lvgl/src/widgets/slider/lv_slider.c ****     else if(code == LV_EVENT_KEY) {
 337:Drivers/lvgl/src/widgets/slider/lv_slider.c ****         uint32_t c = lv_event_get_key(e);
 338:Drivers/lvgl/src/widgets/slider/lv_slider.c **** 
 339:Drivers/lvgl/src/widgets/slider/lv_slider.c ****         if(c == LV_KEY_RIGHT || c == LV_KEY_UP) {
 340:Drivers/lvgl/src/widgets/slider/lv_slider.c ****             if(!slider->left_knob_focus) lv_slider_set_value(obj, lv_slider_get_value(obj) + 1, LV_
 341:Drivers/lvgl/src/widgets/slider/lv_slider.c ****             else lv_slider_set_start_value(obj, lv_slider_get_left_value(obj) + 1, LV_ANIM_ON);
 342:Drivers/lvgl/src/widgets/slider/lv_slider.c ****         }
 343:Drivers/lvgl/src/widgets/slider/lv_slider.c ****         else if(c == LV_KEY_LEFT || c == LV_KEY_DOWN) {
 344:Drivers/lvgl/src/widgets/slider/lv_slider.c ****             if(!slider->left_knob_focus) lv_slider_set_value(obj, lv_slider_get_value(obj) - 1, LV_
 345:Drivers/lvgl/src/widgets/slider/lv_slider.c ****             else lv_slider_set_start_value(obj, lv_slider_get_left_value(obj) - 1, LV_ANIM_ON);
 346:Drivers/lvgl/src/widgets/slider/lv_slider.c ****         }
 347:Drivers/lvgl/src/widgets/slider/lv_slider.c ****         else {
 348:Drivers/lvgl/src/widgets/slider/lv_slider.c ****             return;
 349:Drivers/lvgl/src/widgets/slider/lv_slider.c ****         }
 350:Drivers/lvgl/src/widgets/slider/lv_slider.c **** 
 351:Drivers/lvgl/src/widgets/slider/lv_slider.c ****         res = lv_obj_send_event(obj, LV_EVENT_VALUE_CHANGED, NULL);
 352:Drivers/lvgl/src/widgets/slider/lv_slider.c ****         if(res != LV_RESULT_OK) return;
 353:Drivers/lvgl/src/widgets/slider/lv_slider.c ****     }
 354:Drivers/lvgl/src/widgets/slider/lv_slider.c ****     else if(code == LV_EVENT_ROTARY) {
 355:Drivers/lvgl/src/widgets/slider/lv_slider.c ****         int32_t r = lv_event_get_rotary_diff(e);
 356:Drivers/lvgl/src/widgets/slider/lv_slider.c **** 
 357:Drivers/lvgl/src/widgets/slider/lv_slider.c ****         if(!slider->left_knob_focus) lv_slider_set_value(obj, lv_slider_get_value(obj) + r, LV_ANIM
 358:Drivers/lvgl/src/widgets/slider/lv_slider.c ****         else lv_slider_set_start_value(obj, lv_slider_get_left_value(obj) + 1, LV_ANIM_ON);
 359:Drivers/lvgl/src/widgets/slider/lv_slider.c **** 
 360:Drivers/lvgl/src/widgets/slider/lv_slider.c ****         res = lv_obj_send_event(obj, LV_EVENT_VALUE_CHANGED, NULL);
 361:Drivers/lvgl/src/widgets/slider/lv_slider.c ****         if(res != LV_RESULT_OK) return;
 362:Drivers/lvgl/src/widgets/slider/lv_slider.c ****     }
 363:Drivers/lvgl/src/widgets/slider/lv_slider.c ****     else if(code == LV_EVENT_DRAW_MAIN) {
 364:Drivers/lvgl/src/widgets/slider/lv_slider.c ****         draw_knob(e);
 365:Drivers/lvgl/src/widgets/slider/lv_slider.c ****     }
 366:Drivers/lvgl/src/widgets/slider/lv_slider.c **** }
 367:Drivers/lvgl/src/widgets/slider/lv_slider.c **** 
 368:Drivers/lvgl/src/widgets/slider/lv_slider.c **** static void draw_knob(lv_event_t * e)
 369:Drivers/lvgl/src/widgets/slider/lv_slider.c **** {
 370:Drivers/lvgl/src/widgets/slider/lv_slider.c ****     lv_obj_t * obj = lv_event_get_current_target(e);
 371:Drivers/lvgl/src/widgets/slider/lv_slider.c ****     lv_slider_t * slider = (lv_slider_t *)obj;
 372:Drivers/lvgl/src/widgets/slider/lv_slider.c ****     lv_layer_t * layer = lv_event_get_layer(e);
ARM GAS  /tmp/ccq4eqVm.s 			page 8


 373:Drivers/lvgl/src/widgets/slider/lv_slider.c **** 
 374:Drivers/lvgl/src/widgets/slider/lv_slider.c ****     const bool is_rtl = LV_BASE_DIR_RTL == lv_obj_get_style_base_dir(obj, LV_PART_MAIN);
 375:Drivers/lvgl/src/widgets/slider/lv_slider.c ****     const bool is_horizontal = is_slider_horizontal(obj);
 376:Drivers/lvgl/src/widgets/slider/lv_slider.c ****     const bool is_reversed = slider->bar.val_reversed ^ (is_rtl && is_horizontal);
 377:Drivers/lvgl/src/widgets/slider/lv_slider.c **** 
 378:Drivers/lvgl/src/widgets/slider/lv_slider.c ****     lv_area_t knob_area;
 379:Drivers/lvgl/src/widgets/slider/lv_slider.c ****     int32_t knob_size;
 380:Drivers/lvgl/src/widgets/slider/lv_slider.c ****     bool is_symmetrical = lv_slider_is_symmetrical(obj);
 381:Drivers/lvgl/src/widgets/slider/lv_slider.c **** 
 382:Drivers/lvgl/src/widgets/slider/lv_slider.c ****     if(is_horizontal) {
 383:Drivers/lvgl/src/widgets/slider/lv_slider.c ****         knob_size = lv_obj_get_height(obj);
 384:Drivers/lvgl/src/widgets/slider/lv_slider.c ****         if(is_symmetrical &&
 385:Drivers/lvgl/src/widgets/slider/lv_slider.c ****            slider->bar.cur_value < 0) knob_area.x1 = LV_SLIDER_KNOB_COORD(!is_reversed, slider->bar
 386:Drivers/lvgl/src/widgets/slider/lv_slider.c ****         else knob_area.x1 = LV_SLIDER_KNOB_COORD(is_reversed, slider->bar.indic_area);
 387:Drivers/lvgl/src/widgets/slider/lv_slider.c ****     }
 388:Drivers/lvgl/src/widgets/slider/lv_slider.c ****     else {
 389:Drivers/lvgl/src/widgets/slider/lv_slider.c ****         knob_size = lv_obj_get_width(obj);
 390:Drivers/lvgl/src/widgets/slider/lv_slider.c ****         if(is_symmetrical &&
 391:Drivers/lvgl/src/widgets/slider/lv_slider.c ****            slider->bar.cur_value < 0) knob_area.y1 =  LV_SLIDER_KNOB_COORD_VERTICAL(!is_reversed, s
 392:Drivers/lvgl/src/widgets/slider/lv_slider.c ****         else knob_area.y1 = LV_SLIDER_KNOB_COORD_VERTICAL(is_reversed, slider->bar.indic_area);
 393:Drivers/lvgl/src/widgets/slider/lv_slider.c ****     }
 394:Drivers/lvgl/src/widgets/slider/lv_slider.c ****     lv_draw_rect_dsc_t knob_rect_dsc;
 395:Drivers/lvgl/src/widgets/slider/lv_slider.c ****     lv_draw_rect_dsc_init(&knob_rect_dsc);
 396:Drivers/lvgl/src/widgets/slider/lv_slider.c ****     knob_rect_dsc.base.layer = layer;
 397:Drivers/lvgl/src/widgets/slider/lv_slider.c ****     lv_obj_init_draw_rect_dsc(obj, LV_PART_KNOB, &knob_rect_dsc);
 398:Drivers/lvgl/src/widgets/slider/lv_slider.c ****     /* Update knob area with knob style */
 399:Drivers/lvgl/src/widgets/slider/lv_slider.c ****     position_knob(obj, &knob_area, knob_size, is_horizontal);
 400:Drivers/lvgl/src/widgets/slider/lv_slider.c ****     /* Update right knob area with calculated knob area */
 401:Drivers/lvgl/src/widgets/slider/lv_slider.c ****     lv_area_copy(&slider->right_knob_area, &knob_area);
 402:Drivers/lvgl/src/widgets/slider/lv_slider.c **** 
 403:Drivers/lvgl/src/widgets/slider/lv_slider.c ****     if(lv_slider_get_mode(obj) != LV_SLIDER_MODE_RANGE) {
 404:Drivers/lvgl/src/widgets/slider/lv_slider.c ****         lv_draw_rect(layer, &knob_rect_dsc, &slider->right_knob_area);
 405:Drivers/lvgl/src/widgets/slider/lv_slider.c ****     }
 406:Drivers/lvgl/src/widgets/slider/lv_slider.c ****     else {
 407:Drivers/lvgl/src/widgets/slider/lv_slider.c ****         /*Save the draw part_draw_dsc. because it can be modified in the event*/
 408:Drivers/lvgl/src/widgets/slider/lv_slider.c ****         lv_draw_rect_dsc_t knob_rect_dsc_tmp;
 409:Drivers/lvgl/src/widgets/slider/lv_slider.c ****         lv_memcpy(&knob_rect_dsc_tmp, &knob_rect_dsc, sizeof(lv_draw_rect_dsc_t));
 410:Drivers/lvgl/src/widgets/slider/lv_slider.c ****         /* Draw the right knob */
 411:Drivers/lvgl/src/widgets/slider/lv_slider.c ****         lv_draw_rect(layer, &knob_rect_dsc, &slider->right_knob_area);
 412:Drivers/lvgl/src/widgets/slider/lv_slider.c **** 
 413:Drivers/lvgl/src/widgets/slider/lv_slider.c ****         /*Calculate the second knob area*/
 414:Drivers/lvgl/src/widgets/slider/lv_slider.c ****         if(is_horizontal) {
 415:Drivers/lvgl/src/widgets/slider/lv_slider.c ****             /*use !is_reversed to get the other knob*/
 416:Drivers/lvgl/src/widgets/slider/lv_slider.c ****             knob_area.x1 = LV_SLIDER_KNOB_COORD(!is_reversed, slider->bar.indic_area);
 417:Drivers/lvgl/src/widgets/slider/lv_slider.c ****         }
 418:Drivers/lvgl/src/widgets/slider/lv_slider.c ****         else {
 419:Drivers/lvgl/src/widgets/slider/lv_slider.c ****             knob_area.y1 = LV_SLIDER_KNOB_COORD_VERTICAL(!is_reversed, slider->bar.indic_area);
 420:Drivers/lvgl/src/widgets/slider/lv_slider.c ****         }
 421:Drivers/lvgl/src/widgets/slider/lv_slider.c ****         position_knob(obj, &knob_area, knob_size, is_horizontal);
 422:Drivers/lvgl/src/widgets/slider/lv_slider.c ****         lv_area_copy(&slider->left_knob_area, &knob_area);
 423:Drivers/lvgl/src/widgets/slider/lv_slider.c **** 
 424:Drivers/lvgl/src/widgets/slider/lv_slider.c ****         lv_memcpy(&knob_rect_dsc, &knob_rect_dsc_tmp, sizeof(lv_draw_rect_dsc_t));
 425:Drivers/lvgl/src/widgets/slider/lv_slider.c **** 
 426:Drivers/lvgl/src/widgets/slider/lv_slider.c ****         lv_draw_rect(layer, &knob_rect_dsc, &slider->left_knob_area);
 427:Drivers/lvgl/src/widgets/slider/lv_slider.c ****     }
 428:Drivers/lvgl/src/widgets/slider/lv_slider.c **** }
 429:Drivers/lvgl/src/widgets/slider/lv_slider.c **** 
ARM GAS  /tmp/ccq4eqVm.s 			page 9


 430:Drivers/lvgl/src/widgets/slider/lv_slider.c **** static void position_knob(lv_obj_t * obj, lv_area_t * knob_area, const int32_t knob_size, const boo
 431:Drivers/lvgl/src/widgets/slider/lv_slider.c **** {
 432:Drivers/lvgl/src/widgets/slider/lv_slider.c ****     if(hor) {
 433:Drivers/lvgl/src/widgets/slider/lv_slider.c ****         knob_area->x1 -= (knob_size >> 1);
 434:Drivers/lvgl/src/widgets/slider/lv_slider.c ****         knob_area->x2 = knob_area->x1 + knob_size - 1;
 435:Drivers/lvgl/src/widgets/slider/lv_slider.c ****         knob_area->y1 = obj->coords.y1;
 436:Drivers/lvgl/src/widgets/slider/lv_slider.c ****         knob_area->y2 = obj->coords.y2;
 437:Drivers/lvgl/src/widgets/slider/lv_slider.c ****     }
 438:Drivers/lvgl/src/widgets/slider/lv_slider.c ****     else {
 439:Drivers/lvgl/src/widgets/slider/lv_slider.c ****         knob_area->y1 -= (knob_size >> 1);
 440:Drivers/lvgl/src/widgets/slider/lv_slider.c ****         knob_area->y2 = knob_area->y1 + knob_size - 1;
 441:Drivers/lvgl/src/widgets/slider/lv_slider.c ****         knob_area->x1 = obj->coords.x1;
 442:Drivers/lvgl/src/widgets/slider/lv_slider.c ****         knob_area->x2 = obj->coords.x2;
 443:Drivers/lvgl/src/widgets/slider/lv_slider.c ****     }
 444:Drivers/lvgl/src/widgets/slider/lv_slider.c **** 
 445:Drivers/lvgl/src/widgets/slider/lv_slider.c ****     int32_t knob_left = lv_obj_get_style_pad_left(obj, LV_PART_KNOB);
 446:Drivers/lvgl/src/widgets/slider/lv_slider.c ****     int32_t knob_right = lv_obj_get_style_pad_right(obj, LV_PART_KNOB);
 447:Drivers/lvgl/src/widgets/slider/lv_slider.c ****     int32_t knob_top = lv_obj_get_style_pad_top(obj, LV_PART_KNOB);
 448:Drivers/lvgl/src/widgets/slider/lv_slider.c ****     int32_t knob_bottom = lv_obj_get_style_pad_bottom(obj, LV_PART_KNOB);
 449:Drivers/lvgl/src/widgets/slider/lv_slider.c **** 
 450:Drivers/lvgl/src/widgets/slider/lv_slider.c ****     int32_t transf_w = lv_obj_get_style_transform_width(obj, LV_PART_KNOB);
 451:Drivers/lvgl/src/widgets/slider/lv_slider.c ****     int32_t transf_h = lv_obj_get_style_transform_height(obj, LV_PART_KNOB);
 452:Drivers/lvgl/src/widgets/slider/lv_slider.c **** 
 453:Drivers/lvgl/src/widgets/slider/lv_slider.c ****     /*Apply the paddings on the knob area*/
 454:Drivers/lvgl/src/widgets/slider/lv_slider.c ****     knob_area->x1 -= knob_left + transf_w;
 455:Drivers/lvgl/src/widgets/slider/lv_slider.c ****     knob_area->x2 += knob_right + transf_w;
 456:Drivers/lvgl/src/widgets/slider/lv_slider.c ****     knob_area->y1 -= knob_top + transf_h;
 457:Drivers/lvgl/src/widgets/slider/lv_slider.c ****     knob_area->y2 += knob_bottom + transf_h;
 458:Drivers/lvgl/src/widgets/slider/lv_slider.c **** }
 459:Drivers/lvgl/src/widgets/slider/lv_slider.c **** 
 460:Drivers/lvgl/src/widgets/slider/lv_slider.c **** static bool is_slider_horizontal(lv_obj_t * obj)
 461:Drivers/lvgl/src/widgets/slider/lv_slider.c **** {
  29              		.loc 1 461 1 view -0
  30              		.cfi_startproc
  31              		@ args = 0, pretend = 0, frame = 0
  32              		@ frame_needed = 0, uses_anonymous_args = 0
  33              		.loc 1 461 1 is_stmt 0 view .LVU1
  34 0000 38B5     		push	{r3, r4, r5, lr}
  35              	.LCFI0:
  36              		.cfi_def_cfa_offset 16
  37              		.cfi_offset 3, -16
  38              		.cfi_offset 4, -12
  39              		.cfi_offset 5, -8
  40              		.cfi_offset 14, -4
 462:Drivers/lvgl/src/widgets/slider/lv_slider.c ****     lv_slider_t * slider = (lv_slider_t *)obj;
  41              		.loc 1 462 5 is_stmt 1 view .LVU2
  42              	.LVL1:
 463:Drivers/lvgl/src/widgets/slider/lv_slider.c ****     if(slider->bar.orientation == LV_BAR_ORIENTATION_AUTO) return lv_obj_get_width(obj) >= lv_obj_g
  43              		.loc 1 463 5 view .LVU3
  44              		.loc 1 463 32 is_stmt 0 view .LVU4
  45 0002 90F87030 		ldrb	r3, [r0, #112]	@ zero_extendqisi2
  46              		.loc 1 463 7 view .LVU5
  47 0006 13F03803 		ands	r3, r3, #56
  48 000a 03D0     		beq	.L6
 464:Drivers/lvgl/src/widgets/slider/lv_slider.c ****     else if(slider->bar.orientation == LV_BAR_ORIENTATION_HORIZONTAL) return true;
  49              		.loc 1 464 10 is_stmt 1 view .LVU6
  50              		.loc 1 464 12 is_stmt 0 view .LVU7
ARM GAS  /tmp/ccq4eqVm.s 			page 10


  51 000c 082B     		cmp	r3, #8
  52 000e 0DD0     		beq	.L7
 465:Drivers/lvgl/src/widgets/slider/lv_slider.c ****     else return false;
  53              		.loc 1 465 17 view .LVU8
  54 0010 0020     		movs	r0, #0
  55              	.LVL2:
  56              	.L3:
 466:Drivers/lvgl/src/widgets/slider/lv_slider.c **** }
  57              		.loc 1 466 1 view .LVU9
  58 0012 38BD     		pop	{r3, r4, r5, pc}
  59              	.LVL3:
  60              	.L6:
  61              		.loc 1 466 1 view .LVU10
  62 0014 0446     		mov	r4, r0
 463:Drivers/lvgl/src/widgets/slider/lv_slider.c ****     else if(slider->bar.orientation == LV_BAR_ORIENTATION_HORIZONTAL) return true;
  63              		.loc 1 463 60 is_stmt 1 discriminator 1 view .LVU11
 463:Drivers/lvgl/src/widgets/slider/lv_slider.c ****     else if(slider->bar.orientation == LV_BAR_ORIENTATION_HORIZONTAL) return true;
  64              		.loc 1 463 67 is_stmt 0 discriminator 1 view .LVU12
  65 0016 FFF7FEFF 		bl	lv_obj_get_width
  66              	.LVL4:
 463:Drivers/lvgl/src/widgets/slider/lv_slider.c ****     else if(slider->bar.orientation == LV_BAR_ORIENTATION_HORIZONTAL) return true;
  67              		.loc 1 463 67 discriminator 1 view .LVU13
  68 001a 0546     		mov	r5, r0
 463:Drivers/lvgl/src/widgets/slider/lv_slider.c ****     else if(slider->bar.orientation == LV_BAR_ORIENTATION_HORIZONTAL) return true;
  69              		.loc 1 463 92 discriminator 1 view .LVU14
  70 001c 2046     		mov	r0, r4
  71 001e FFF7FEFF 		bl	lv_obj_get_height
  72              	.LVL5:
 463:Drivers/lvgl/src/widgets/slider/lv_slider.c ****     else if(slider->bar.orientation == LV_BAR_ORIENTATION_HORIZONTAL) return true;
  73              		.loc 1 463 89 discriminator 2 view .LVU15
  74 0022 8542     		cmp	r5, r0
  75 0024 B4BF     		ite	lt
  76 0026 0020     		movlt	r0, #0
  77 0028 0120     		movge	r0, #1
 463:Drivers/lvgl/src/widgets/slider/lv_slider.c ****     else if(slider->bar.orientation == LV_BAR_ORIENTATION_HORIZONTAL) return true;
  78              		.loc 1 463 89 view .LVU16
  79 002a F2E7     		b	.L3
  80              	.LVL6:
  81              	.L7:
 464:Drivers/lvgl/src/widgets/slider/lv_slider.c ****     else return false;
  82              		.loc 1 464 78 discriminator 1 view .LVU17
  83 002c 0120     		movs	r0, #1
  84              	.LVL7:
 464:Drivers/lvgl/src/widgets/slider/lv_slider.c ****     else return false;
  85              		.loc 1 464 78 discriminator 1 view .LVU18
  86 002e F0E7     		b	.L3
  87              		.cfi_endproc
  88              	.LFE189:
  90              		.section	.text.position_knob,"ax",%progbits
  91              		.align	1
  92              		.syntax unified
  93              		.thumb
  94              		.thumb_func
  96              	position_knob:
  97              	.LVL8:
  98              	.LFB188:
 431:Drivers/lvgl/src/widgets/slider/lv_slider.c ****     if(hor) {
ARM GAS  /tmp/ccq4eqVm.s 			page 11


  99              		.loc 1 431 1 is_stmt 1 view -0
 100              		.cfi_startproc
 101              		@ args = 0, pretend = 0, frame = 8
 102              		@ frame_needed = 0, uses_anonymous_args = 0
 431:Drivers/lvgl/src/widgets/slider/lv_slider.c ****     if(hor) {
 103              		.loc 1 431 1 is_stmt 0 view .LVU20
 104 0000 2DE9F047 		push	{r4, r5, r6, r7, r8, r9, r10, lr}
 105              	.LCFI1:
 106              		.cfi_def_cfa_offset 32
 107              		.cfi_offset 4, -32
 108              		.cfi_offset 5, -28
 109              		.cfi_offset 6, -24
 110              		.cfi_offset 7, -20
 111              		.cfi_offset 8, -16
 112              		.cfi_offset 9, -12
 113              		.cfi_offset 10, -8
 114              		.cfi_offset 14, -4
 115 0004 82B0     		sub	sp, sp, #8
 116              	.LCFI2:
 117              		.cfi_def_cfa_offset 40
 118 0006 0546     		mov	r5, r0
 119 0008 0C46     		mov	r4, r1
 432:Drivers/lvgl/src/widgets/slider/lv_slider.c ****         knob_area->x1 -= (knob_size >> 1);
 120              		.loc 1 432 5 is_stmt 1 view .LVU21
 432:Drivers/lvgl/src/widgets/slider/lv_slider.c ****         knob_area->x1 -= (knob_size >> 1);
 121              		.loc 1 432 7 is_stmt 0 view .LVU22
 122 000a 002B     		cmp	r3, #0
 123 000c 4ED0     		beq	.L9
 433:Drivers/lvgl/src/widgets/slider/lv_slider.c ****         knob_area->x2 = knob_area->x1 + knob_size - 1;
 124              		.loc 1 433 9 is_stmt 1 view .LVU23
 433:Drivers/lvgl/src/widgets/slider/lv_slider.c ****         knob_area->x2 = knob_area->x1 + knob_size - 1;
 125              		.loc 1 433 18 is_stmt 0 view .LVU24
 126 000e 0B68     		ldr	r3, [r1]
 127              	.LVL9:
 433:Drivers/lvgl/src/widgets/slider/lv_slider.c ****         knob_area->x2 = knob_area->x1 + knob_size - 1;
 128              		.loc 1 433 23 view .LVU25
 129 0010 A3EB6203 		sub	r3, r3, r2, asr #1
 130 0014 0B60     		str	r3, [r1]
 434:Drivers/lvgl/src/widgets/slider/lv_slider.c ****         knob_area->y1 = obj->coords.y1;
 131              		.loc 1 434 9 is_stmt 1 view .LVU26
 434:Drivers/lvgl/src/widgets/slider/lv_slider.c ****         knob_area->y1 = obj->coords.y1;
 132              		.loc 1 434 39 is_stmt 0 view .LVU27
 133 0016 1344     		add	r3, r3, r2
 434:Drivers/lvgl/src/widgets/slider/lv_slider.c ****         knob_area->y1 = obj->coords.y1;
 134              		.loc 1 434 51 view .LVU28
 135 0018 013B     		subs	r3, r3, #1
 434:Drivers/lvgl/src/widgets/slider/lv_slider.c ****         knob_area->y1 = obj->coords.y1;
 136              		.loc 1 434 23 view .LVU29
 137 001a 8B60     		str	r3, [r1, #8]
 435:Drivers/lvgl/src/widgets/slider/lv_slider.c ****         knob_area->y2 = obj->coords.y2;
 138              		.loc 1 435 9 is_stmt 1 view .LVU30
 435:Drivers/lvgl/src/widgets/slider/lv_slider.c ****         knob_area->y2 = obj->coords.y2;
 139              		.loc 1 435 36 is_stmt 0 view .LVU31
 140 001c 8369     		ldr	r3, [r0, #24]
 435:Drivers/lvgl/src/widgets/slider/lv_slider.c ****         knob_area->y2 = obj->coords.y2;
 141              		.loc 1 435 23 view .LVU32
 142 001e 4B60     		str	r3, [r1, #4]
ARM GAS  /tmp/ccq4eqVm.s 			page 12


 436:Drivers/lvgl/src/widgets/slider/lv_slider.c ****     }
 143              		.loc 1 436 9 is_stmt 1 view .LVU33
 436:Drivers/lvgl/src/widgets/slider/lv_slider.c ****     }
 144              		.loc 1 436 36 is_stmt 0 view .LVU34
 145 0020 036A     		ldr	r3, [r0, #32]
 436:Drivers/lvgl/src/widgets/slider/lv_slider.c ****     }
 146              		.loc 1 436 23 view .LVU35
 147 0022 CB60     		str	r3, [r1, #12]
 148              	.L10:
 445:Drivers/lvgl/src/widgets/slider/lv_slider.c ****     int32_t knob_right = lv_obj_get_style_pad_right(obj, LV_PART_KNOB);
 149              		.loc 1 445 5 is_stmt 1 view .LVU36
 150              	.LVL10:
 151              	.LBB60:
 152              	.LBI60:
 153              		.file 2 "Drivers/lvgl/src/widgets/slider/../bar/../../core/lv_obj_style_gen.h"
   1:Drivers/lvgl/src/widgets/slider/../bar/../../core/lv_obj_style_gen.h **** 
   2:Drivers/lvgl/src/widgets/slider/../bar/../../core/lv_obj_style_gen.h **** /*
   3:Drivers/lvgl/src/widgets/slider/../bar/../../core/lv_obj_style_gen.h ****  **********************************************************************
   4:Drivers/lvgl/src/widgets/slider/../bar/../../core/lv_obj_style_gen.h ****  *                            DO NOT EDIT
   5:Drivers/lvgl/src/widgets/slider/../bar/../../core/lv_obj_style_gen.h ****  * This file is automatically generated by "style_api_gen.py"
   6:Drivers/lvgl/src/widgets/slider/../bar/../../core/lv_obj_style_gen.h ****  **********************************************************************
   7:Drivers/lvgl/src/widgets/slider/../bar/../../core/lv_obj_style_gen.h ****  */
   8:Drivers/lvgl/src/widgets/slider/../bar/../../core/lv_obj_style_gen.h **** 
   9:Drivers/lvgl/src/widgets/slider/../bar/../../core/lv_obj_style_gen.h **** 
  10:Drivers/lvgl/src/widgets/slider/../bar/../../core/lv_obj_style_gen.h **** #ifndef LV_OBJ_STYLE_GEN_H
  11:Drivers/lvgl/src/widgets/slider/../bar/../../core/lv_obj_style_gen.h **** #define LV_OBJ_STYLE_GEN_H
  12:Drivers/lvgl/src/widgets/slider/../bar/../../core/lv_obj_style_gen.h **** 
  13:Drivers/lvgl/src/widgets/slider/../bar/../../core/lv_obj_style_gen.h **** #ifdef __cplusplus
  14:Drivers/lvgl/src/widgets/slider/../bar/../../core/lv_obj_style_gen.h **** extern "C" {
  15:Drivers/lvgl/src/widgets/slider/../bar/../../core/lv_obj_style_gen.h **** #endif
  16:Drivers/lvgl/src/widgets/slider/../bar/../../core/lv_obj_style_gen.h **** 
  17:Drivers/lvgl/src/widgets/slider/../bar/../../core/lv_obj_style_gen.h **** #include "../misc/lv_area.h"
  18:Drivers/lvgl/src/widgets/slider/../bar/../../core/lv_obj_style_gen.h **** #include "../misc/lv_style.h"
  19:Drivers/lvgl/src/widgets/slider/../bar/../../core/lv_obj_style_gen.h **** #include "../core/lv_obj_style.h"
  20:Drivers/lvgl/src/widgets/slider/../bar/../../core/lv_obj_style_gen.h **** #include "../misc/lv_types.h"
  21:Drivers/lvgl/src/widgets/slider/../bar/../../core/lv_obj_style_gen.h **** 
  22:Drivers/lvgl/src/widgets/slider/../bar/../../core/lv_obj_style_gen.h **** static inline int32_t lv_obj_get_style_width(const lv_obj_t * obj, lv_part_t part)
  23:Drivers/lvgl/src/widgets/slider/../bar/../../core/lv_obj_style_gen.h **** {
  24:Drivers/lvgl/src/widgets/slider/../bar/../../core/lv_obj_style_gen.h ****     lv_style_value_t v = lv_obj_get_style_prop(obj, part, LV_STYLE_WIDTH);
  25:Drivers/lvgl/src/widgets/slider/../bar/../../core/lv_obj_style_gen.h ****     return (int32_t)v.num;
  26:Drivers/lvgl/src/widgets/slider/../bar/../../core/lv_obj_style_gen.h **** }
  27:Drivers/lvgl/src/widgets/slider/../bar/../../core/lv_obj_style_gen.h **** 
  28:Drivers/lvgl/src/widgets/slider/../bar/../../core/lv_obj_style_gen.h **** static inline int32_t lv_obj_get_style_min_width(const lv_obj_t * obj, lv_part_t part)
  29:Drivers/lvgl/src/widgets/slider/../bar/../../core/lv_obj_style_gen.h **** {
  30:Drivers/lvgl/src/widgets/slider/../bar/../../core/lv_obj_style_gen.h ****     lv_style_value_t v = lv_obj_get_style_prop(obj, part, LV_STYLE_MIN_WIDTH);
  31:Drivers/lvgl/src/widgets/slider/../bar/../../core/lv_obj_style_gen.h ****     return (int32_t)v.num;
  32:Drivers/lvgl/src/widgets/slider/../bar/../../core/lv_obj_style_gen.h **** }
  33:Drivers/lvgl/src/widgets/slider/../bar/../../core/lv_obj_style_gen.h **** 
  34:Drivers/lvgl/src/widgets/slider/../bar/../../core/lv_obj_style_gen.h **** static inline int32_t lv_obj_get_style_max_width(const lv_obj_t * obj, lv_part_t part)
  35:Drivers/lvgl/src/widgets/slider/../bar/../../core/lv_obj_style_gen.h **** {
  36:Drivers/lvgl/src/widgets/slider/../bar/../../core/lv_obj_style_gen.h ****     lv_style_value_t v = lv_obj_get_style_prop(obj, part, LV_STYLE_MAX_WIDTH);
  37:Drivers/lvgl/src/widgets/slider/../bar/../../core/lv_obj_style_gen.h ****     return (int32_t)v.num;
  38:Drivers/lvgl/src/widgets/slider/../bar/../../core/lv_obj_style_gen.h **** }
  39:Drivers/lvgl/src/widgets/slider/../bar/../../core/lv_obj_style_gen.h **** 
  40:Drivers/lvgl/src/widgets/slider/../bar/../../core/lv_obj_style_gen.h **** static inline int32_t lv_obj_get_style_height(const lv_obj_t * obj, lv_part_t part)
  41:Drivers/lvgl/src/widgets/slider/../bar/../../core/lv_obj_style_gen.h **** {
  42:Drivers/lvgl/src/widgets/slider/../bar/../../core/lv_obj_style_gen.h ****     lv_style_value_t v = lv_obj_get_style_prop(obj, part, LV_STYLE_HEIGHT);
ARM GAS  /tmp/ccq4eqVm.s 			page 13


  43:Drivers/lvgl/src/widgets/slider/../bar/../../core/lv_obj_style_gen.h ****     return (int32_t)v.num;
  44:Drivers/lvgl/src/widgets/slider/../bar/../../core/lv_obj_style_gen.h **** }
  45:Drivers/lvgl/src/widgets/slider/../bar/../../core/lv_obj_style_gen.h **** 
  46:Drivers/lvgl/src/widgets/slider/../bar/../../core/lv_obj_style_gen.h **** static inline int32_t lv_obj_get_style_min_height(const lv_obj_t * obj, lv_part_t part)
  47:Drivers/lvgl/src/widgets/slider/../bar/../../core/lv_obj_style_gen.h **** {
  48:Drivers/lvgl/src/widgets/slider/../bar/../../core/lv_obj_style_gen.h ****     lv_style_value_t v = lv_obj_get_style_prop(obj, part, LV_STYLE_MIN_HEIGHT);
  49:Drivers/lvgl/src/widgets/slider/../bar/../../core/lv_obj_style_gen.h ****     return (int32_t)v.num;
  50:Drivers/lvgl/src/widgets/slider/../bar/../../core/lv_obj_style_gen.h **** }
  51:Drivers/lvgl/src/widgets/slider/../bar/../../core/lv_obj_style_gen.h **** 
  52:Drivers/lvgl/src/widgets/slider/../bar/../../core/lv_obj_style_gen.h **** static inline int32_t lv_obj_get_style_max_height(const lv_obj_t * obj, lv_part_t part)
  53:Drivers/lvgl/src/widgets/slider/../bar/../../core/lv_obj_style_gen.h **** {
  54:Drivers/lvgl/src/widgets/slider/../bar/../../core/lv_obj_style_gen.h ****     lv_style_value_t v = lv_obj_get_style_prop(obj, part, LV_STYLE_MAX_HEIGHT);
  55:Drivers/lvgl/src/widgets/slider/../bar/../../core/lv_obj_style_gen.h ****     return (int32_t)v.num;
  56:Drivers/lvgl/src/widgets/slider/../bar/../../core/lv_obj_style_gen.h **** }
  57:Drivers/lvgl/src/widgets/slider/../bar/../../core/lv_obj_style_gen.h **** 
  58:Drivers/lvgl/src/widgets/slider/../bar/../../core/lv_obj_style_gen.h **** static inline int32_t lv_obj_get_style_length(const lv_obj_t * obj, lv_part_t part)
  59:Drivers/lvgl/src/widgets/slider/../bar/../../core/lv_obj_style_gen.h **** {
  60:Drivers/lvgl/src/widgets/slider/../bar/../../core/lv_obj_style_gen.h ****     lv_style_value_t v = lv_obj_get_style_prop(obj, part, LV_STYLE_LENGTH);
  61:Drivers/lvgl/src/widgets/slider/../bar/../../core/lv_obj_style_gen.h ****     return (int32_t)v.num;
  62:Drivers/lvgl/src/widgets/slider/../bar/../../core/lv_obj_style_gen.h **** }
  63:Drivers/lvgl/src/widgets/slider/../bar/../../core/lv_obj_style_gen.h **** 
  64:Drivers/lvgl/src/widgets/slider/../bar/../../core/lv_obj_style_gen.h **** static inline int32_t lv_obj_get_style_x(const lv_obj_t * obj, lv_part_t part)
  65:Drivers/lvgl/src/widgets/slider/../bar/../../core/lv_obj_style_gen.h **** {
  66:Drivers/lvgl/src/widgets/slider/../bar/../../core/lv_obj_style_gen.h ****     lv_style_value_t v = lv_obj_get_style_prop(obj, part, LV_STYLE_X);
  67:Drivers/lvgl/src/widgets/slider/../bar/../../core/lv_obj_style_gen.h ****     return (int32_t)v.num;
  68:Drivers/lvgl/src/widgets/slider/../bar/../../core/lv_obj_style_gen.h **** }
  69:Drivers/lvgl/src/widgets/slider/../bar/../../core/lv_obj_style_gen.h **** 
  70:Drivers/lvgl/src/widgets/slider/../bar/../../core/lv_obj_style_gen.h **** static inline int32_t lv_obj_get_style_y(const lv_obj_t * obj, lv_part_t part)
  71:Drivers/lvgl/src/widgets/slider/../bar/../../core/lv_obj_style_gen.h **** {
  72:Drivers/lvgl/src/widgets/slider/../bar/../../core/lv_obj_style_gen.h ****     lv_style_value_t v = lv_obj_get_style_prop(obj, part, LV_STYLE_Y);
  73:Drivers/lvgl/src/widgets/slider/../bar/../../core/lv_obj_style_gen.h ****     return (int32_t)v.num;
  74:Drivers/lvgl/src/widgets/slider/../bar/../../core/lv_obj_style_gen.h **** }
  75:Drivers/lvgl/src/widgets/slider/../bar/../../core/lv_obj_style_gen.h **** 
  76:Drivers/lvgl/src/widgets/slider/../bar/../../core/lv_obj_style_gen.h **** static inline lv_align_t lv_obj_get_style_align(const lv_obj_t * obj, lv_part_t part)
  77:Drivers/lvgl/src/widgets/slider/../bar/../../core/lv_obj_style_gen.h **** {
  78:Drivers/lvgl/src/widgets/slider/../bar/../../core/lv_obj_style_gen.h ****     lv_style_value_t v = lv_obj_get_style_prop(obj, part, LV_STYLE_ALIGN);
  79:Drivers/lvgl/src/widgets/slider/../bar/../../core/lv_obj_style_gen.h ****     return (lv_align_t)v.num;
  80:Drivers/lvgl/src/widgets/slider/../bar/../../core/lv_obj_style_gen.h **** }
  81:Drivers/lvgl/src/widgets/slider/../bar/../../core/lv_obj_style_gen.h **** 
  82:Drivers/lvgl/src/widgets/slider/../bar/../../core/lv_obj_style_gen.h **** static inline int32_t lv_obj_get_style_transform_width(const lv_obj_t * obj, lv_part_t part)
  83:Drivers/lvgl/src/widgets/slider/../bar/../../core/lv_obj_style_gen.h **** {
  84:Drivers/lvgl/src/widgets/slider/../bar/../../core/lv_obj_style_gen.h ****     lv_style_value_t v = lv_obj_get_style_prop(obj, part, LV_STYLE_TRANSFORM_WIDTH);
  85:Drivers/lvgl/src/widgets/slider/../bar/../../core/lv_obj_style_gen.h ****     return (int32_t)v.num;
  86:Drivers/lvgl/src/widgets/slider/../bar/../../core/lv_obj_style_gen.h **** }
  87:Drivers/lvgl/src/widgets/slider/../bar/../../core/lv_obj_style_gen.h **** 
  88:Drivers/lvgl/src/widgets/slider/../bar/../../core/lv_obj_style_gen.h **** static inline int32_t lv_obj_get_style_transform_height(const lv_obj_t * obj, lv_part_t part)
  89:Drivers/lvgl/src/widgets/slider/../bar/../../core/lv_obj_style_gen.h **** {
  90:Drivers/lvgl/src/widgets/slider/../bar/../../core/lv_obj_style_gen.h ****     lv_style_value_t v = lv_obj_get_style_prop(obj, part, LV_STYLE_TRANSFORM_HEIGHT);
  91:Drivers/lvgl/src/widgets/slider/../bar/../../core/lv_obj_style_gen.h ****     return (int32_t)v.num;
  92:Drivers/lvgl/src/widgets/slider/../bar/../../core/lv_obj_style_gen.h **** }
  93:Drivers/lvgl/src/widgets/slider/../bar/../../core/lv_obj_style_gen.h **** 
  94:Drivers/lvgl/src/widgets/slider/../bar/../../core/lv_obj_style_gen.h **** static inline int32_t lv_obj_get_style_translate_x(const lv_obj_t * obj, lv_part_t part)
  95:Drivers/lvgl/src/widgets/slider/../bar/../../core/lv_obj_style_gen.h **** {
  96:Drivers/lvgl/src/widgets/slider/../bar/../../core/lv_obj_style_gen.h ****     lv_style_value_t v = lv_obj_get_style_prop(obj, part, LV_STYLE_TRANSLATE_X);
  97:Drivers/lvgl/src/widgets/slider/../bar/../../core/lv_obj_style_gen.h ****     return (int32_t)v.num;
  98:Drivers/lvgl/src/widgets/slider/../bar/../../core/lv_obj_style_gen.h **** }
  99:Drivers/lvgl/src/widgets/slider/../bar/../../core/lv_obj_style_gen.h **** 
ARM GAS  /tmp/ccq4eqVm.s 			page 14


 100:Drivers/lvgl/src/widgets/slider/../bar/../../core/lv_obj_style_gen.h **** static inline int32_t lv_obj_get_style_translate_y(const lv_obj_t * obj, lv_part_t part)
 101:Drivers/lvgl/src/widgets/slider/../bar/../../core/lv_obj_style_gen.h **** {
 102:Drivers/lvgl/src/widgets/slider/../bar/../../core/lv_obj_style_gen.h ****     lv_style_value_t v = lv_obj_get_style_prop(obj, part, LV_STYLE_TRANSLATE_Y);
 103:Drivers/lvgl/src/widgets/slider/../bar/../../core/lv_obj_style_gen.h ****     return (int32_t)v.num;
 104:Drivers/lvgl/src/widgets/slider/../bar/../../core/lv_obj_style_gen.h **** }
 105:Drivers/lvgl/src/widgets/slider/../bar/../../core/lv_obj_style_gen.h **** 
 106:Drivers/lvgl/src/widgets/slider/../bar/../../core/lv_obj_style_gen.h **** static inline int32_t lv_obj_get_style_translate_radial(const lv_obj_t * obj, lv_part_t part)
 107:Drivers/lvgl/src/widgets/slider/../bar/../../core/lv_obj_style_gen.h **** {
 108:Drivers/lvgl/src/widgets/slider/../bar/../../core/lv_obj_style_gen.h ****     lv_style_value_t v = lv_obj_get_style_prop(obj, part, LV_STYLE_TRANSLATE_RADIAL);
 109:Drivers/lvgl/src/widgets/slider/../bar/../../core/lv_obj_style_gen.h ****     return (int32_t)v.num;
 110:Drivers/lvgl/src/widgets/slider/../bar/../../core/lv_obj_style_gen.h **** }
 111:Drivers/lvgl/src/widgets/slider/../bar/../../core/lv_obj_style_gen.h **** 
 112:Drivers/lvgl/src/widgets/slider/../bar/../../core/lv_obj_style_gen.h **** static inline int32_t lv_obj_get_style_transform_scale_x(const lv_obj_t * obj, lv_part_t part)
 113:Drivers/lvgl/src/widgets/slider/../bar/../../core/lv_obj_style_gen.h **** {
 114:Drivers/lvgl/src/widgets/slider/../bar/../../core/lv_obj_style_gen.h ****     lv_style_value_t v = lv_obj_get_style_prop(obj, part, LV_STYLE_TRANSFORM_SCALE_X);
 115:Drivers/lvgl/src/widgets/slider/../bar/../../core/lv_obj_style_gen.h ****     return (int32_t)v.num;
 116:Drivers/lvgl/src/widgets/slider/../bar/../../core/lv_obj_style_gen.h **** }
 117:Drivers/lvgl/src/widgets/slider/../bar/../../core/lv_obj_style_gen.h **** 
 118:Drivers/lvgl/src/widgets/slider/../bar/../../core/lv_obj_style_gen.h **** static inline int32_t lv_obj_get_style_transform_scale_y(const lv_obj_t * obj, lv_part_t part)
 119:Drivers/lvgl/src/widgets/slider/../bar/../../core/lv_obj_style_gen.h **** {
 120:Drivers/lvgl/src/widgets/slider/../bar/../../core/lv_obj_style_gen.h ****     lv_style_value_t v = lv_obj_get_style_prop(obj, part, LV_STYLE_TRANSFORM_SCALE_Y);
 121:Drivers/lvgl/src/widgets/slider/../bar/../../core/lv_obj_style_gen.h ****     return (int32_t)v.num;
 122:Drivers/lvgl/src/widgets/slider/../bar/../../core/lv_obj_style_gen.h **** }
 123:Drivers/lvgl/src/widgets/slider/../bar/../../core/lv_obj_style_gen.h **** 
 124:Drivers/lvgl/src/widgets/slider/../bar/../../core/lv_obj_style_gen.h **** static inline int32_t lv_obj_get_style_transform_rotation(const lv_obj_t * obj, lv_part_t part)
 125:Drivers/lvgl/src/widgets/slider/../bar/../../core/lv_obj_style_gen.h **** {
 126:Drivers/lvgl/src/widgets/slider/../bar/../../core/lv_obj_style_gen.h ****     lv_style_value_t v = lv_obj_get_style_prop(obj, part, LV_STYLE_TRANSFORM_ROTATION);
 127:Drivers/lvgl/src/widgets/slider/../bar/../../core/lv_obj_style_gen.h ****     return (int32_t)v.num;
 128:Drivers/lvgl/src/widgets/slider/../bar/../../core/lv_obj_style_gen.h **** }
 129:Drivers/lvgl/src/widgets/slider/../bar/../../core/lv_obj_style_gen.h **** 
 130:Drivers/lvgl/src/widgets/slider/../bar/../../core/lv_obj_style_gen.h **** static inline int32_t lv_obj_get_style_transform_pivot_x(const lv_obj_t * obj, lv_part_t part)
 131:Drivers/lvgl/src/widgets/slider/../bar/../../core/lv_obj_style_gen.h **** {
 132:Drivers/lvgl/src/widgets/slider/../bar/../../core/lv_obj_style_gen.h ****     lv_style_value_t v = lv_obj_get_style_prop(obj, part, LV_STYLE_TRANSFORM_PIVOT_X);
 133:Drivers/lvgl/src/widgets/slider/../bar/../../core/lv_obj_style_gen.h ****     return (int32_t)v.num;
 134:Drivers/lvgl/src/widgets/slider/../bar/../../core/lv_obj_style_gen.h **** }
 135:Drivers/lvgl/src/widgets/slider/../bar/../../core/lv_obj_style_gen.h **** 
 136:Drivers/lvgl/src/widgets/slider/../bar/../../core/lv_obj_style_gen.h **** static inline int32_t lv_obj_get_style_transform_pivot_y(const lv_obj_t * obj, lv_part_t part)
 137:Drivers/lvgl/src/widgets/slider/../bar/../../core/lv_obj_style_gen.h **** {
 138:Drivers/lvgl/src/widgets/slider/../bar/../../core/lv_obj_style_gen.h ****     lv_style_value_t v = lv_obj_get_style_prop(obj, part, LV_STYLE_TRANSFORM_PIVOT_Y);
 139:Drivers/lvgl/src/widgets/slider/../bar/../../core/lv_obj_style_gen.h ****     return (int32_t)v.num;
 140:Drivers/lvgl/src/widgets/slider/../bar/../../core/lv_obj_style_gen.h **** }
 141:Drivers/lvgl/src/widgets/slider/../bar/../../core/lv_obj_style_gen.h **** 
 142:Drivers/lvgl/src/widgets/slider/../bar/../../core/lv_obj_style_gen.h **** static inline int32_t lv_obj_get_style_transform_skew_x(const lv_obj_t * obj, lv_part_t part)
 143:Drivers/lvgl/src/widgets/slider/../bar/../../core/lv_obj_style_gen.h **** {
 144:Drivers/lvgl/src/widgets/slider/../bar/../../core/lv_obj_style_gen.h ****     lv_style_value_t v = lv_obj_get_style_prop(obj, part, LV_STYLE_TRANSFORM_SKEW_X);
 145:Drivers/lvgl/src/widgets/slider/../bar/../../core/lv_obj_style_gen.h ****     return (int32_t)v.num;
 146:Drivers/lvgl/src/widgets/slider/../bar/../../core/lv_obj_style_gen.h **** }
 147:Drivers/lvgl/src/widgets/slider/../bar/../../core/lv_obj_style_gen.h **** 
 148:Drivers/lvgl/src/widgets/slider/../bar/../../core/lv_obj_style_gen.h **** static inline int32_t lv_obj_get_style_transform_skew_y(const lv_obj_t * obj, lv_part_t part)
 149:Drivers/lvgl/src/widgets/slider/../bar/../../core/lv_obj_style_gen.h **** {
 150:Drivers/lvgl/src/widgets/slider/../bar/../../core/lv_obj_style_gen.h ****     lv_style_value_t v = lv_obj_get_style_prop(obj, part, LV_STYLE_TRANSFORM_SKEW_Y);
 151:Drivers/lvgl/src/widgets/slider/../bar/../../core/lv_obj_style_gen.h ****     return (int32_t)v.num;
 152:Drivers/lvgl/src/widgets/slider/../bar/../../core/lv_obj_style_gen.h **** }
 153:Drivers/lvgl/src/widgets/slider/../bar/../../core/lv_obj_style_gen.h **** 
 154:Drivers/lvgl/src/widgets/slider/../bar/../../core/lv_obj_style_gen.h **** static inline int32_t lv_obj_get_style_pad_top(const lv_obj_t * obj, lv_part_t part)
 155:Drivers/lvgl/src/widgets/slider/../bar/../../core/lv_obj_style_gen.h **** {
 156:Drivers/lvgl/src/widgets/slider/../bar/../../core/lv_obj_style_gen.h ****     lv_style_value_t v = lv_obj_get_style_prop(obj, part, LV_STYLE_PAD_TOP);
ARM GAS  /tmp/ccq4eqVm.s 			page 15


 157:Drivers/lvgl/src/widgets/slider/../bar/../../core/lv_obj_style_gen.h ****     return (int32_t)v.num;
 158:Drivers/lvgl/src/widgets/slider/../bar/../../core/lv_obj_style_gen.h **** }
 159:Drivers/lvgl/src/widgets/slider/../bar/../../core/lv_obj_style_gen.h **** 
 160:Drivers/lvgl/src/widgets/slider/../bar/../../core/lv_obj_style_gen.h **** static inline int32_t lv_obj_get_style_pad_bottom(const lv_obj_t * obj, lv_part_t part)
 161:Drivers/lvgl/src/widgets/slider/../bar/../../core/lv_obj_style_gen.h **** {
 162:Drivers/lvgl/src/widgets/slider/../bar/../../core/lv_obj_style_gen.h ****     lv_style_value_t v = lv_obj_get_style_prop(obj, part, LV_STYLE_PAD_BOTTOM);
 163:Drivers/lvgl/src/widgets/slider/../bar/../../core/lv_obj_style_gen.h ****     return (int32_t)v.num;
 164:Drivers/lvgl/src/widgets/slider/../bar/../../core/lv_obj_style_gen.h **** }
 165:Drivers/lvgl/src/widgets/slider/../bar/../../core/lv_obj_style_gen.h **** 
 166:Drivers/lvgl/src/widgets/slider/../bar/../../core/lv_obj_style_gen.h **** static inline int32_t lv_obj_get_style_pad_left(const lv_obj_t * obj, lv_part_t part)
 154              		.loc 2 166 23 view .LVU37
 155              	.LBB61:
 167:Drivers/lvgl/src/widgets/slider/../bar/../../core/lv_obj_style_gen.h **** {
 168:Drivers/lvgl/src/widgets/slider/../bar/../../core/lv_obj_style_gen.h ****     lv_style_value_t v = lv_obj_get_style_prop(obj, part, LV_STYLE_PAD_LEFT);
 156              		.loc 2 168 5 view .LVU38
 157              		.loc 2 168 26 is_stmt 0 view .LVU39
 158 0024 1222     		movs	r2, #18
 159              	.LVL11:
 160              		.loc 2 168 26 view .LVU40
 161 0026 4FF44031 		mov	r1, #196608
 162              	.LVL12:
 163              		.loc 2 168 26 view .LVU41
 164 002a 2846     		mov	r0, r5
 165              	.LVL13:
 166              		.loc 2 168 26 view .LVU42
 167 002c FFF7FEFF 		bl	lv_obj_get_style_prop
 168              	.LVL14:
 169              		.loc 2 168 26 view .LVU43
 170 0030 0646     		mov	r6, r0
 171 0032 0190     		str	r0, [sp, #4]
 169:Drivers/lvgl/src/widgets/slider/../bar/../../core/lv_obj_style_gen.h ****     return (int32_t)v.num;
 172              		.loc 2 169 5 is_stmt 1 view .LVU44
 173              	.LVL15:
 174              		.loc 2 169 5 is_stmt 0 view .LVU45
 175              	.LBE61:
 176              	.LBE60:
 446:Drivers/lvgl/src/widgets/slider/lv_slider.c ****     int32_t knob_top = lv_obj_get_style_pad_top(obj, LV_PART_KNOB);
 177              		.loc 1 446 5 is_stmt 1 view .LVU46
 178              	.LBB62:
 179              	.LBI62:
 170:Drivers/lvgl/src/widgets/slider/../bar/../../core/lv_obj_style_gen.h **** }
 171:Drivers/lvgl/src/widgets/slider/../bar/../../core/lv_obj_style_gen.h **** 
 172:Drivers/lvgl/src/widgets/slider/../bar/../../core/lv_obj_style_gen.h **** static inline int32_t lv_obj_get_style_pad_right(const lv_obj_t * obj, lv_part_t part)
 180              		.loc 2 172 23 view .LVU47
 181              	.LBB63:
 173:Drivers/lvgl/src/widgets/slider/../bar/../../core/lv_obj_style_gen.h **** {
 174:Drivers/lvgl/src/widgets/slider/../bar/../../core/lv_obj_style_gen.h ****     lv_style_value_t v = lv_obj_get_style_prop(obj, part, LV_STYLE_PAD_RIGHT);
 182              		.loc 2 174 5 view .LVU48
 183              		.loc 2 174 26 is_stmt 0 view .LVU49
 184 0034 1322     		movs	r2, #19
 185 0036 4FF44031 		mov	r1, #196608
 186 003a 2846     		mov	r0, r5
 187              	.LVL16:
 188              		.loc 2 174 26 view .LVU50
 189 003c FFF7FEFF 		bl	lv_obj_get_style_prop
 190              	.LVL17:
 191 0040 8246     		mov	r10, r0
ARM GAS  /tmp/ccq4eqVm.s 			page 16


 192 0042 0190     		str	r0, [sp, #4]
 175:Drivers/lvgl/src/widgets/slider/../bar/../../core/lv_obj_style_gen.h ****     return (int32_t)v.num;
 193              		.loc 2 175 5 is_stmt 1 view .LVU51
 194              	.LVL18:
 195              		.loc 2 175 5 is_stmt 0 view .LVU52
 196              	.LBE63:
 197              	.LBE62:
 447:Drivers/lvgl/src/widgets/slider/lv_slider.c ****     int32_t knob_bottom = lv_obj_get_style_pad_bottom(obj, LV_PART_KNOB);
 198              		.loc 1 447 5 is_stmt 1 view .LVU53
 199              	.LBB64:
 200              	.LBI64:
 154:Drivers/lvgl/src/widgets/slider/../bar/../../core/lv_obj_style_gen.h **** {
 201              		.loc 2 154 23 view .LVU54
 202              	.LBB65:
 156:Drivers/lvgl/src/widgets/slider/../bar/../../core/lv_obj_style_gen.h ****     return (int32_t)v.num;
 203              		.loc 2 156 5 view .LVU55
 156:Drivers/lvgl/src/widgets/slider/../bar/../../core/lv_obj_style_gen.h ****     return (int32_t)v.num;
 204              		.loc 2 156 26 is_stmt 0 view .LVU56
 205 0044 1022     		movs	r2, #16
 206 0046 4FF44031 		mov	r1, #196608
 207 004a 2846     		mov	r0, r5
 208              	.LVL19:
 156:Drivers/lvgl/src/widgets/slider/../bar/../../core/lv_obj_style_gen.h ****     return (int32_t)v.num;
 209              		.loc 2 156 26 view .LVU57
 210 004c FFF7FEFF 		bl	lv_obj_get_style_prop
 211              	.LVL20:
 212 0050 8046     		mov	r8, r0
 213 0052 0190     		str	r0, [sp, #4]
 157:Drivers/lvgl/src/widgets/slider/../bar/../../core/lv_obj_style_gen.h **** }
 214              		.loc 2 157 5 is_stmt 1 view .LVU58
 215              	.LVL21:
 157:Drivers/lvgl/src/widgets/slider/../bar/../../core/lv_obj_style_gen.h **** }
 216              		.loc 2 157 5 is_stmt 0 view .LVU59
 217              	.LBE65:
 218              	.LBE64:
 448:Drivers/lvgl/src/widgets/slider/lv_slider.c **** 
 219              		.loc 1 448 5 is_stmt 1 view .LVU60
 220              	.LBB66:
 221              	.LBI66:
 160:Drivers/lvgl/src/widgets/slider/../bar/../../core/lv_obj_style_gen.h **** {
 222              		.loc 2 160 23 view .LVU61
 223              	.LBB67:
 162:Drivers/lvgl/src/widgets/slider/../bar/../../core/lv_obj_style_gen.h ****     return (int32_t)v.num;
 224              		.loc 2 162 5 view .LVU62
 162:Drivers/lvgl/src/widgets/slider/../bar/../../core/lv_obj_style_gen.h ****     return (int32_t)v.num;
 225              		.loc 2 162 26 is_stmt 0 view .LVU63
 226 0054 1122     		movs	r2, #17
 227 0056 4FF44031 		mov	r1, #196608
 228 005a 2846     		mov	r0, r5
 229              	.LVL22:
 162:Drivers/lvgl/src/widgets/slider/../bar/../../core/lv_obj_style_gen.h ****     return (int32_t)v.num;
 230              		.loc 2 162 26 view .LVU64
 231 005c FFF7FEFF 		bl	lv_obj_get_style_prop
 232              	.LVL23:
 233 0060 8146     		mov	r9, r0
 234 0062 0190     		str	r0, [sp, #4]
 163:Drivers/lvgl/src/widgets/slider/../bar/../../core/lv_obj_style_gen.h **** }
ARM GAS  /tmp/ccq4eqVm.s 			page 17


 235              		.loc 2 163 5 is_stmt 1 view .LVU65
 236              	.LVL24:
 163:Drivers/lvgl/src/widgets/slider/../bar/../../core/lv_obj_style_gen.h **** }
 237              		.loc 2 163 5 is_stmt 0 view .LVU66
 238              	.LBE67:
 239              	.LBE66:
 450:Drivers/lvgl/src/widgets/slider/lv_slider.c ****     int32_t transf_h = lv_obj_get_style_transform_height(obj, LV_PART_KNOB);
 240              		.loc 1 450 5 is_stmt 1 view .LVU67
 241              	.LBB68:
 242              	.LBI68:
  82:Drivers/lvgl/src/widgets/slider/../bar/../../core/lv_obj_style_gen.h **** {
 243              		.loc 2 82 23 view .LVU68
 244              	.LBB69:
  84:Drivers/lvgl/src/widgets/slider/../bar/../../core/lv_obj_style_gen.h ****     return (int32_t)v.num;
 245              		.loc 2 84 5 view .LVU69
  84:Drivers/lvgl/src/widgets/slider/../bar/../../core/lv_obj_style_gen.h ****     return (int32_t)v.num;
 246              		.loc 2 84 26 is_stmt 0 view .LVU70
 247 0064 6A22     		movs	r2, #106
 248 0066 4FF44031 		mov	r1, #196608
 249 006a 2846     		mov	r0, r5
 250              	.LVL25:
  84:Drivers/lvgl/src/widgets/slider/../bar/../../core/lv_obj_style_gen.h ****     return (int32_t)v.num;
 251              		.loc 2 84 26 view .LVU71
 252 006c FFF7FEFF 		bl	lv_obj_get_style_prop
 253              	.LVL26:
 254 0070 0746     		mov	r7, r0
 255 0072 0190     		str	r0, [sp, #4]
  85:Drivers/lvgl/src/widgets/slider/../bar/../../core/lv_obj_style_gen.h **** }
 256              		.loc 2 85 5 is_stmt 1 view .LVU72
 257              	.LVL27:
  85:Drivers/lvgl/src/widgets/slider/../bar/../../core/lv_obj_style_gen.h **** }
 258              		.loc 2 85 5 is_stmt 0 view .LVU73
 259              	.LBE69:
 260              	.LBE68:
 451:Drivers/lvgl/src/widgets/slider/lv_slider.c **** 
 261              		.loc 1 451 5 is_stmt 1 view .LVU74
 262              	.LBB70:
 263              	.LBI70:
  88:Drivers/lvgl/src/widgets/slider/../bar/../../core/lv_obj_style_gen.h **** {
 264              		.loc 2 88 23 view .LVU75
 265              	.LBB71:
  90:Drivers/lvgl/src/widgets/slider/../bar/../../core/lv_obj_style_gen.h ****     return (int32_t)v.num;
 266              		.loc 2 90 5 view .LVU76
  90:Drivers/lvgl/src/widgets/slider/../bar/../../core/lv_obj_style_gen.h ****     return (int32_t)v.num;
 267              		.loc 2 90 26 is_stmt 0 view .LVU77
 268 0074 6B22     		movs	r2, #107
 269 0076 4FF44031 		mov	r1, #196608
 270 007a 2846     		mov	r0, r5
 271              	.LVL28:
  90:Drivers/lvgl/src/widgets/slider/../bar/../../core/lv_obj_style_gen.h ****     return (int32_t)v.num;
 272              		.loc 2 90 26 view .LVU78
 273 007c FFF7FEFF 		bl	lv_obj_get_style_prop
 274              	.LVL29:
 275 0080 0190     		str	r0, [sp, #4]
  91:Drivers/lvgl/src/widgets/slider/../bar/../../core/lv_obj_style_gen.h **** }
 276              		.loc 2 91 5 is_stmt 1 view .LVU79
 277              	.LVL30:
ARM GAS  /tmp/ccq4eqVm.s 			page 18


  91:Drivers/lvgl/src/widgets/slider/../bar/../../core/lv_obj_style_gen.h **** }
 278              		.loc 2 91 5 is_stmt 0 view .LVU80
 279              	.LBE71:
 280              	.LBE70:
 454:Drivers/lvgl/src/widgets/slider/lv_slider.c ****     knob_area->x2 += knob_right + transf_w;
 281              		.loc 1 454 5 is_stmt 1 view .LVU81
 454:Drivers/lvgl/src/widgets/slider/lv_slider.c ****     knob_area->x2 += knob_right + transf_w;
 282              		.loc 1 454 14 is_stmt 0 view .LVU82
 283 0082 2268     		ldr	r2, [r4]
 454:Drivers/lvgl/src/widgets/slider/lv_slider.c ****     knob_area->x2 += knob_right + transf_w;
 284              		.loc 1 454 32 view .LVU83
 285 0084 3E44     		add	r6, r6, r7
 286              	.LVL31:
 454:Drivers/lvgl/src/widgets/slider/lv_slider.c ****     knob_area->x2 += knob_right + transf_w;
 287              		.loc 1 454 19 view .LVU84
 288 0086 921B     		subs	r2, r2, r6
 289 0088 2260     		str	r2, [r4]
 455:Drivers/lvgl/src/widgets/slider/lv_slider.c ****     knob_area->y1 -= knob_top + transf_h;
 290              		.loc 1 455 5 is_stmt 1 view .LVU85
 455:Drivers/lvgl/src/widgets/slider/lv_slider.c ****     knob_area->y1 -= knob_top + transf_h;
 291              		.loc 1 455 14 is_stmt 0 view .LVU86
 292 008a A268     		ldr	r2, [r4, #8]
 455:Drivers/lvgl/src/widgets/slider/lv_slider.c ****     knob_area->y1 -= knob_top + transf_h;
 293              		.loc 1 455 33 view .LVU87
 294 008c 5744     		add	r7, r7, r10
 295              	.LVL32:
 455:Drivers/lvgl/src/widgets/slider/lv_slider.c ****     knob_area->y1 -= knob_top + transf_h;
 296              		.loc 1 455 19 view .LVU88
 297 008e 3A44     		add	r2, r2, r7
 298 0090 A260     		str	r2, [r4, #8]
 456:Drivers/lvgl/src/widgets/slider/lv_slider.c ****     knob_area->y2 += knob_bottom + transf_h;
 299              		.loc 1 456 5 is_stmt 1 view .LVU89
 456:Drivers/lvgl/src/widgets/slider/lv_slider.c ****     knob_area->y2 += knob_bottom + transf_h;
 300              		.loc 1 456 14 is_stmt 0 view .LVU90
 301 0092 6268     		ldr	r2, [r4, #4]
 456:Drivers/lvgl/src/widgets/slider/lv_slider.c ****     knob_area->y2 += knob_bottom + transf_h;
 302              		.loc 1 456 31 view .LVU91
 303 0094 8044     		add	r8, r8, r0
 304              	.LVL33:
 456:Drivers/lvgl/src/widgets/slider/lv_slider.c ****     knob_area->y2 += knob_bottom + transf_h;
 305              		.loc 1 456 19 view .LVU92
 306 0096 A2EB0802 		sub	r2, r2, r8
 307 009a 6260     		str	r2, [r4, #4]
 457:Drivers/lvgl/src/widgets/slider/lv_slider.c **** }
 308              		.loc 1 457 5 is_stmt 1 view .LVU93
 457:Drivers/lvgl/src/widgets/slider/lv_slider.c **** }
 309              		.loc 1 457 14 is_stmt 0 view .LVU94
 310 009c E268     		ldr	r2, [r4, #12]
 457:Drivers/lvgl/src/widgets/slider/lv_slider.c **** }
 311              		.loc 1 457 34 view .LVU95
 312 009e 00EB0903 		add	r3, r0, r9
 457:Drivers/lvgl/src/widgets/slider/lv_slider.c **** }
 313              		.loc 1 457 19 view .LVU96
 314 00a2 1A44     		add	r2, r2, r3
 315 00a4 E260     		str	r2, [r4, #12]
 458:Drivers/lvgl/src/widgets/slider/lv_slider.c **** 
 316              		.loc 1 458 1 view .LVU97
ARM GAS  /tmp/ccq4eqVm.s 			page 19


 317 00a6 02B0     		add	sp, sp, #8
 318              	.LCFI3:
 319              		.cfi_remember_state
 320              		.cfi_def_cfa_offset 32
 321              		@ sp needed
 322 00a8 BDE8F087 		pop	{r4, r5, r6, r7, r8, r9, r10, pc}
 323              	.LVL34:
 324              	.L9:
 325              	.LCFI4:
 326              		.cfi_restore_state
 439:Drivers/lvgl/src/widgets/slider/lv_slider.c ****         knob_area->y2 = knob_area->y1 + knob_size - 1;
 327              		.loc 1 439 9 is_stmt 1 view .LVU98
 439:Drivers/lvgl/src/widgets/slider/lv_slider.c ****         knob_area->y2 = knob_area->y1 + knob_size - 1;
 328              		.loc 1 439 18 is_stmt 0 view .LVU99
 329 00ac 4B68     		ldr	r3, [r1, #4]
 330              	.LVL35:
 439:Drivers/lvgl/src/widgets/slider/lv_slider.c ****         knob_area->y2 = knob_area->y1 + knob_size - 1;
 331              		.loc 1 439 23 view .LVU100
 332 00ae A3EB6203 		sub	r3, r3, r2, asr #1
 333 00b2 4B60     		str	r3, [r1, #4]
 440:Drivers/lvgl/src/widgets/slider/lv_slider.c ****         knob_area->x1 = obj->coords.x1;
 334              		.loc 1 440 9 is_stmt 1 view .LVU101
 440:Drivers/lvgl/src/widgets/slider/lv_slider.c ****         knob_area->x1 = obj->coords.x1;
 335              		.loc 1 440 39 is_stmt 0 view .LVU102
 336 00b4 1344     		add	r3, r3, r2
 440:Drivers/lvgl/src/widgets/slider/lv_slider.c ****         knob_area->x1 = obj->coords.x1;
 337              		.loc 1 440 51 view .LVU103
 338 00b6 013B     		subs	r3, r3, #1
 440:Drivers/lvgl/src/widgets/slider/lv_slider.c ****         knob_area->x1 = obj->coords.x1;
 339              		.loc 1 440 23 view .LVU104
 340 00b8 CB60     		str	r3, [r1, #12]
 441:Drivers/lvgl/src/widgets/slider/lv_slider.c ****         knob_area->x2 = obj->coords.x2;
 341              		.loc 1 441 9 is_stmt 1 view .LVU105
 441:Drivers/lvgl/src/widgets/slider/lv_slider.c ****         knob_area->x2 = obj->coords.x2;
 342              		.loc 1 441 36 is_stmt 0 view .LVU106
 343 00ba 4369     		ldr	r3, [r0, #20]
 441:Drivers/lvgl/src/widgets/slider/lv_slider.c ****         knob_area->x2 = obj->coords.x2;
 344              		.loc 1 441 23 view .LVU107
 345 00bc 0B60     		str	r3, [r1]
 442:Drivers/lvgl/src/widgets/slider/lv_slider.c ****     }
 346              		.loc 1 442 9 is_stmt 1 view .LVU108
 442:Drivers/lvgl/src/widgets/slider/lv_slider.c ****     }
 347              		.loc 1 442 36 is_stmt 0 view .LVU109
 348 00be C369     		ldr	r3, [r0, #28]
 442:Drivers/lvgl/src/widgets/slider/lv_slider.c ****     }
 349              		.loc 1 442 23 view .LVU110
 350 00c0 8B60     		str	r3, [r1, #8]
 351 00c2 AFE7     		b	.L10
 352              		.cfi_endproc
 353              	.LFE188:
 355              		.section	.text.lv_slider_constructor,"ax",%progbits
 356              		.align	1
 357              		.syntax unified
 358              		.thumb
 359              		.thumb_func
 361              	lv_slider_constructor:
 362              	.LVL36:
ARM GAS  /tmp/ccq4eqVm.s 			page 20


 363              	.LFB185:
 214:Drivers/lvgl/src/widgets/slider/lv_slider.c ****     LV_UNUSED(class_p);
 364              		.loc 1 214 1 is_stmt 1 view -0
 365              		.cfi_startproc
 366              		@ args = 0, pretend = 0, frame = 0
 367              		@ frame_needed = 0, uses_anonymous_args = 0
 214:Drivers/lvgl/src/widgets/slider/lv_slider.c ****     LV_UNUSED(class_p);
 368              		.loc 1 214 1 is_stmt 0 view .LVU112
 369 0000 38B5     		push	{r3, r4, r5, lr}
 370              	.LCFI5:
 371              		.cfi_def_cfa_offset 16
 372              		.cfi_offset 3, -16
 373              		.cfi_offset 4, -12
 374              		.cfi_offset 5, -8
 375              		.cfi_offset 14, -4
 376 0002 0C46     		mov	r4, r1
 215:Drivers/lvgl/src/widgets/slider/lv_slider.c ****     lv_slider_t * slider = (lv_slider_t *)obj;
 377              		.loc 1 215 5 is_stmt 1 view .LVU113
 216:Drivers/lvgl/src/widgets/slider/lv_slider.c **** 
 378              		.loc 1 216 5 view .LVU114
 379              	.LVL37:
 219:Drivers/lvgl/src/widgets/slider/lv_slider.c ****     slider->dragging = 0U;
 380              		.loc 1 219 5 view .LVU115
 219:Drivers/lvgl/src/widgets/slider/lv_slider.c ****     slider->dragging = 0U;
 381              		.loc 1 219 26 is_stmt 0 view .LVU116
 382 0004 0025     		movs	r5, #0
 383 0006 C1F89C50 		str	r5, [r1, #156]
 220:Drivers/lvgl/src/widgets/slider/lv_slider.c ****     slider->left_knob_focus = 0U;
 384              		.loc 1 220 5 is_stmt 1 view .LVU117
 220:Drivers/lvgl/src/widgets/slider/lv_slider.c ****     slider->left_knob_focus = 0U;
 385              		.loc 1 220 22 is_stmt 0 view .LVU118
 386 000a 91F8A030 		ldrb	r3, [r1, #160]	@ zero_extendqisi2
 387 000e 65F30003 		bfi	r3, r5, #0, #1
 388 0012 81F8A030 		strb	r3, [r1, #160]
 221:Drivers/lvgl/src/widgets/slider/lv_slider.c **** 
 389              		.loc 1 221 5 is_stmt 1 view .LVU119
 221:Drivers/lvgl/src/widgets/slider/lv_slider.c **** 
 390              		.loc 1 221 29 is_stmt 0 view .LVU120
 391 0016 DBB2     		uxtb	r3, r3
 392 0018 65F34103 		bfi	r3, r5, #1, #1
 393 001c 81F8A030 		strb	r3, [r1, #160]
 223:Drivers/lvgl/src/widgets/slider/lv_slider.c ****     lv_obj_remove_flag(obj, LV_OBJ_FLAG_SCROLLABLE);
 394              		.loc 1 223 5 is_stmt 1 view .LVU121
 395 0020 4FF48071 		mov	r1, #256
 396              	.LVL38:
 223:Drivers/lvgl/src/widgets/slider/lv_slider.c ****     lv_obj_remove_flag(obj, LV_OBJ_FLAG_SCROLLABLE);
 397              		.loc 1 223 5 is_stmt 0 view .LVU122
 398 0024 2046     		mov	r0, r4
 399              	.LVL39:
 223:Drivers/lvgl/src/widgets/slider/lv_slider.c ****     lv_obj_remove_flag(obj, LV_OBJ_FLAG_SCROLLABLE);
 400              		.loc 1 223 5 view .LVU123
 401 0026 FFF7FEFF 		bl	lv_obj_remove_flag
 402              	.LVL40:
 224:Drivers/lvgl/src/widgets/slider/lv_slider.c ****     lv_obj_add_flag(obj, LV_OBJ_FLAG_SCROLL_ON_FOCUS);
 403              		.loc 1 224 5 is_stmt 1 view .LVU124
 404 002a 1021     		movs	r1, #16
 405 002c 2046     		mov	r0, r4
ARM GAS  /tmp/ccq4eqVm.s 			page 21


 406 002e FFF7FEFF 		bl	lv_obj_remove_flag
 407              	.LVL41:
 225:Drivers/lvgl/src/widgets/slider/lv_slider.c ****     lv_obj_set_ext_click_area(obj, LV_DPX(8));
 408              		.loc 1 225 5 view .LVU125
 409 0032 4FF48061 		mov	r1, #1024
 410 0036 2046     		mov	r0, r4
 411 0038 FFF7FEFF 		bl	lv_obj_add_flag
 412              	.LVL42:
 226:Drivers/lvgl/src/widgets/slider/lv_slider.c **** }
 413              		.loc 1 226 5 view .LVU126
 226:Drivers/lvgl/src/widgets/slider/lv_slider.c **** }
 414              		.loc 1 226 36 is_stmt 0 view .LVU127
 415 003c 2846     		mov	r0, r5
 416 003e FFF7FEFF 		bl	lv_display_get_dpi
 417              	.LVL43:
 226:Drivers/lvgl/src/widgets/slider/lv_slider.c **** }
 418              		.loc 1 226 5 discriminator 1 view .LVU128
 419 0042 1D28     		cmp	r0, #29
 420 0044 04DC     		bgt	.L16
 226:Drivers/lvgl/src/widgets/slider/lv_slider.c **** }
 421              		.loc 1 226 5 discriminator 2 view .LVU129
 422 0046 0121     		movs	r1, #1
 423              	.L13:
 226:Drivers/lvgl/src/widgets/slider/lv_slider.c **** }
 424              		.loc 1 226 5 discriminator 4 view .LVU130
 425 0048 2046     		mov	r0, r4
 426 004a FFF7FEFF 		bl	lv_obj_set_ext_click_area
 427              	.LVL44:
 227:Drivers/lvgl/src/widgets/slider/lv_slider.c **** 
 428              		.loc 1 227 1 view .LVU131
 429 004e 38BD     		pop	{r3, r4, r5, pc}
 430              	.LVL45:
 431              	.L16:
 226:Drivers/lvgl/src/widgets/slider/lv_slider.c **** }
 432              		.loc 1 226 36 discriminator 1 view .LVU132
 433 0050 2846     		mov	r0, r5
 434 0052 FFF7FEFF 		bl	lv_display_get_dpi
 435              	.LVL46:
 436 0056 0A30     		adds	r0, r0, #10
 226:Drivers/lvgl/src/widgets/slider/lv_slider.c **** }
 437              		.loc 1 226 5 discriminator 1 view .LVU133
 438 0058 034B     		ldr	r3, .L17
 439 005a 83FB0023 		smull	r2, r3, r3, r0
 440 005e C117     		asrs	r1, r0, #31
 441 0060 C1EBE301 		rsb	r1, r1, r3, asr #3
 442 0064 F0E7     		b	.L13
 443              	.L18:
 444 0066 00BF     		.align	2
 445              	.L17:
 446 0068 67666666 		.word	1717986919
 447              		.cfi_endproc
 448              	.LFE185:
 450              		.section	.text.lv_slider_create,"ax",%progbits
 451              		.align	1
 452              		.global	lv_slider_create
 453              		.syntax unified
 454              		.thumb
ARM GAS  /tmp/ccq4eqVm.s 			page 22


 455              		.thumb_func
 457              	lv_slider_create:
 458              	.LVL47:
 459              	.LFB171:
 128:Drivers/lvgl/src/widgets/slider/lv_slider.c ****     LV_LOG_INFO("begin");
 460              		.loc 1 128 1 is_stmt 1 view -0
 461              		.cfi_startproc
 462              		@ args = 0, pretend = 0, frame = 0
 463              		@ frame_needed = 0, uses_anonymous_args = 0
 128:Drivers/lvgl/src/widgets/slider/lv_slider.c ****     LV_LOG_INFO("begin");
 464              		.loc 1 128 1 is_stmt 0 view .LVU135
 465 0000 10B5     		push	{r4, lr}
 466              	.LCFI6:
 467              		.cfi_def_cfa_offset 8
 468              		.cfi_offset 4, -8
 469              		.cfi_offset 14, -4
 470 0002 0146     		mov	r1, r0
 129:Drivers/lvgl/src/widgets/slider/lv_slider.c ****     lv_obj_t * obj = lv_obj_class_create_obj(MY_CLASS, parent);
 471              		.loc 1 129 5 is_stmt 1 view .LVU136
 129:Drivers/lvgl/src/widgets/slider/lv_slider.c ****     lv_obj_t * obj = lv_obj_class_create_obj(MY_CLASS, parent);
 472              		.loc 1 129 5 view .LVU137
 129:Drivers/lvgl/src/widgets/slider/lv_slider.c ****     lv_obj_t * obj = lv_obj_class_create_obj(MY_CLASS, parent);
 473              		.loc 1 129 5 view .LVU138
 130:Drivers/lvgl/src/widgets/slider/lv_slider.c ****     lv_obj_class_init_obj(obj);
 474              		.loc 1 130 5 view .LVU139
 130:Drivers/lvgl/src/widgets/slider/lv_slider.c ****     lv_obj_class_init_obj(obj);
 475              		.loc 1 130 22 is_stmt 0 view .LVU140
 476 0004 0348     		ldr	r0, .L21
 477              	.LVL48:
 130:Drivers/lvgl/src/widgets/slider/lv_slider.c ****     lv_obj_class_init_obj(obj);
 478              		.loc 1 130 22 view .LVU141
 479 0006 FFF7FEFF 		bl	lv_obj_class_create_obj
 480              	.LVL49:
 130:Drivers/lvgl/src/widgets/slider/lv_slider.c ****     lv_obj_class_init_obj(obj);
 481              		.loc 1 130 22 view .LVU142
 482 000a 0446     		mov	r4, r0
 483              	.LVL50:
 131:Drivers/lvgl/src/widgets/slider/lv_slider.c ****     return obj;
 484              		.loc 1 131 5 is_stmt 1 view .LVU143
 485 000c FFF7FEFF 		bl	lv_obj_class_init_obj
 486              	.LVL51:
 132:Drivers/lvgl/src/widgets/slider/lv_slider.c **** }
 487              		.loc 1 132 5 view .LVU144
 133:Drivers/lvgl/src/widgets/slider/lv_slider.c **** 
 488              		.loc 1 133 1 is_stmt 0 view .LVU145
 489 0010 2046     		mov	r0, r4
 490 0012 10BD     		pop	{r4, pc}
 491              	.LVL52:
 492              	.L22:
 133:Drivers/lvgl/src/widgets/slider/lv_slider.c **** 
 493              		.loc 1 133 1 view .LVU146
 494              		.align	2
 495              	.L21:
 496 0014 00000000 		.word	lv_slider_class
 497              		.cfi_endproc
 498              	.LFE171:
 500              		.section	.text.lv_slider_is_dragged,"ax",%progbits
ARM GAS  /tmp/ccq4eqVm.s 			page 23


 501              		.align	1
 502              		.global	lv_slider_is_dragged
 503              		.syntax unified
 504              		.thumb
 505              		.thumb_func
 507              	lv_slider_is_dragged:
 508              	.LVL53:
 509              	.LFB172:
 136:Drivers/lvgl/src/widgets/slider/lv_slider.c ****     LV_ASSERT_OBJ(obj, MY_CLASS);
 510              		.loc 1 136 1 is_stmt 1 view -0
 511              		.cfi_startproc
 512              		@ args = 0, pretend = 0, frame = 0
 513              		@ frame_needed = 0, uses_anonymous_args = 0
 514              		@ link register save eliminated.
 137:Drivers/lvgl/src/widgets/slider/lv_slider.c ****     lv_slider_t * slider = (lv_slider_t *)obj;
 515              		.loc 1 137 5 view .LVU148
 137:Drivers/lvgl/src/widgets/slider/lv_slider.c ****     lv_slider_t * slider = (lv_slider_t *)obj;
 516              		.loc 1 137 5 view .LVU149
 517 0000 20B1     		cbz	r0, .L25
 137:Drivers/lvgl/src/widgets/slider/lv_slider.c ****     lv_slider_t * slider = (lv_slider_t *)obj;
 518              		.loc 1 137 5 discriminator 2 view .LVU150
 137:Drivers/lvgl/src/widgets/slider/lv_slider.c ****     lv_slider_t * slider = (lv_slider_t *)obj;
 519              		.loc 1 137 33 discriminator 2 view .LVU151
 138:Drivers/lvgl/src/widgets/slider/lv_slider.c **** 
 520              		.loc 1 138 5 view .LVU152
 521              	.LVL54:
 140:Drivers/lvgl/src/widgets/slider/lv_slider.c **** }
 522              		.loc 1 140 5 view .LVU153
 140:Drivers/lvgl/src/widgets/slider/lv_slider.c **** }
 523              		.loc 1 140 18 is_stmt 0 view .LVU154
 524 0002 90F8A000 		ldrb	r0, [r0, #160]	@ zero_extendqisi2
 525              	.LVL55:
 141:Drivers/lvgl/src/widgets/slider/lv_slider.c **** 
 526              		.loc 1 141 1 view .LVU155
 527 0006 00F00100 		and	r0, r0, #1
 528 000a 7047     		bx	lr
 529              	.LVL56:
 530              	.L25:
 137:Drivers/lvgl/src/widgets/slider/lv_slider.c ****     lv_slider_t * slider = (lv_slider_t *)obj;
 531              		.loc 1 137 5 is_stmt 1 discriminator 1 view .LVU156
 137:Drivers/lvgl/src/widgets/slider/lv_slider.c ****     lv_slider_t * slider = (lv_slider_t *)obj;
 532              		.loc 1 137 5 discriminator 1 view .LVU157
 137:Drivers/lvgl/src/widgets/slider/lv_slider.c ****     lv_slider_t * slider = (lv_slider_t *)obj;
 533              		.loc 1 137 5 discriminator 1 view .LVU158
 137:Drivers/lvgl/src/widgets/slider/lv_slider.c ****     lv_slider_t * slider = (lv_slider_t *)obj;
 534              		.loc 1 137 5 discriminator 1 view .LVU159
 137:Drivers/lvgl/src/widgets/slider/lv_slider.c ****     lv_slider_t * slider = (lv_slider_t *)obj;
 535              		.loc 1 137 5 discriminator 1 view .LVU160
 536 000c FEE7     		b	.L25
 537              		.cfi_endproc
 538              	.LFE172:
 540              		.section	.text.lv_slider_set_value,"ax",%progbits
 541              		.align	1
 542              		.global	lv_slider_set_value
 543              		.syntax unified
 544              		.thumb
 545              		.thumb_func
ARM GAS  /tmp/ccq4eqVm.s 			page 24


 547              	lv_slider_set_value:
 548              	.LVL57:
 549              	.LFB173:
 144:Drivers/lvgl/src/widgets/slider/lv_slider.c ****     lv_bar_set_value(obj, value, anim);
 550              		.loc 1 144 1 view -0
 551              		.cfi_startproc
 552              		@ args = 0, pretend = 0, frame = 0
 553              		@ frame_needed = 0, uses_anonymous_args = 0
 144:Drivers/lvgl/src/widgets/slider/lv_slider.c ****     lv_bar_set_value(obj, value, anim);
 554              		.loc 1 144 1 is_stmt 0 view .LVU162
 555 0000 08B5     		push	{r3, lr}
 556              	.LCFI7:
 557              		.cfi_def_cfa_offset 8
 558              		.cfi_offset 3, -8
 559              		.cfi_offset 14, -4
 145:Drivers/lvgl/src/widgets/slider/lv_slider.c **** }
 560              		.loc 1 145 5 is_stmt 1 view .LVU163
 561 0002 FFF7FEFF 		bl	lv_bar_set_value
 562              	.LVL58:
 146:Drivers/lvgl/src/widgets/slider/lv_slider.c **** 
 563              		.loc 1 146 1 is_stmt 0 view .LVU164
 564 0006 08BD     		pop	{r3, pc}
 565              		.cfi_endproc
 566              	.LFE173:
 568              		.section	.text.lv_slider_set_start_value,"ax",%progbits
 569              		.align	1
 570              		.global	lv_slider_set_start_value
 571              		.syntax unified
 572              		.thumb
 573              		.thumb_func
 575              	lv_slider_set_start_value:
 576              	.LVL59:
 577              	.LFB174:
 149:Drivers/lvgl/src/widgets/slider/lv_slider.c ****     lv_bar_set_start_value(obj, value, anim);
 578              		.loc 1 149 1 is_stmt 1 view -0
 579              		.cfi_startproc
 580              		@ args = 0, pretend = 0, frame = 0
 581              		@ frame_needed = 0, uses_anonymous_args = 0
 149:Drivers/lvgl/src/widgets/slider/lv_slider.c ****     lv_bar_set_start_value(obj, value, anim);
 582              		.loc 1 149 1 is_stmt 0 view .LVU166
 583 0000 08B5     		push	{r3, lr}
 584              	.LCFI8:
 585              		.cfi_def_cfa_offset 8
 586              		.cfi_offset 3, -8
 587              		.cfi_offset 14, -4
 150:Drivers/lvgl/src/widgets/slider/lv_slider.c **** }
 588              		.loc 1 150 5 is_stmt 1 view .LVU167
 589 0002 FFF7FEFF 		bl	lv_bar_set_start_value
 590              	.LVL60:
 151:Drivers/lvgl/src/widgets/slider/lv_slider.c **** 
 591              		.loc 1 151 1 is_stmt 0 view .LVU168
 592 0006 08BD     		pop	{r3, pc}
 593              		.cfi_endproc
 594              	.LFE174:
 596              		.section	.text.lv_slider_set_range,"ax",%progbits
 597              		.align	1
 598              		.global	lv_slider_set_range
ARM GAS  /tmp/ccq4eqVm.s 			page 25


 599              		.syntax unified
 600              		.thumb
 601              		.thumb_func
 603              	lv_slider_set_range:
 604              	.LVL61:
 605              	.LFB175:
 154:Drivers/lvgl/src/widgets/slider/lv_slider.c ****     lv_bar_set_range(obj, min, max);
 606              		.loc 1 154 1 is_stmt 1 view -0
 607              		.cfi_startproc
 608              		@ args = 0, pretend = 0, frame = 0
 609              		@ frame_needed = 0, uses_anonymous_args = 0
 154:Drivers/lvgl/src/widgets/slider/lv_slider.c ****     lv_bar_set_range(obj, min, max);
 610              		.loc 1 154 1 is_stmt 0 view .LVU170
 611 0000 08B5     		push	{r3, lr}
 612              	.LCFI9:
 613              		.cfi_def_cfa_offset 8
 614              		.cfi_offset 3, -8
 615              		.cfi_offset 14, -4
 155:Drivers/lvgl/src/widgets/slider/lv_slider.c **** }
 616              		.loc 1 155 5 is_stmt 1 view .LVU171
 617 0002 FFF7FEFF 		bl	lv_bar_set_range
 618              	.LVL62:
 156:Drivers/lvgl/src/widgets/slider/lv_slider.c **** 
 619              		.loc 1 156 1 is_stmt 0 view .LVU172
 620 0006 08BD     		pop	{r3, pc}
 621              		.cfi_endproc
 622              	.LFE175:
 624              		.section	.text.lv_slider_set_mode,"ax",%progbits
 625              		.align	1
 626              		.global	lv_slider_set_mode
 627              		.syntax unified
 628              		.thumb
 629              		.thumb_func
 631              	lv_slider_set_mode:
 632              	.LVL63:
 633              	.LFB176:
 159:Drivers/lvgl/src/widgets/slider/lv_slider.c ****     lv_bar_set_mode(obj, (lv_bar_mode_t)mode);
 634              		.loc 1 159 1 is_stmt 1 view -0
 635              		.cfi_startproc
 636              		@ args = 0, pretend = 0, frame = 0
 637              		@ frame_needed = 0, uses_anonymous_args = 0
 159:Drivers/lvgl/src/widgets/slider/lv_slider.c ****     lv_bar_set_mode(obj, (lv_bar_mode_t)mode);
 638              		.loc 1 159 1 is_stmt 0 view .LVU174
 639 0000 08B5     		push	{r3, lr}
 640              	.LCFI10:
 641              		.cfi_def_cfa_offset 8
 642              		.cfi_offset 3, -8
 643              		.cfi_offset 14, -4
 160:Drivers/lvgl/src/widgets/slider/lv_slider.c **** }
 644              		.loc 1 160 5 is_stmt 1 view .LVU175
 645 0002 FFF7FEFF 		bl	lv_bar_set_mode
 646              	.LVL64:
 161:Drivers/lvgl/src/widgets/slider/lv_slider.c **** 
 647              		.loc 1 161 1 is_stmt 0 view .LVU176
 648 0006 08BD     		pop	{r3, pc}
 649              		.cfi_endproc
 650              	.LFE176:
ARM GAS  /tmp/ccq4eqVm.s 			page 26


 652              		.section	.text.lv_slider_set_orientation,"ax",%progbits
 653              		.align	1
 654              		.global	lv_slider_set_orientation
 655              		.syntax unified
 656              		.thumb
 657              		.thumb_func
 659              	lv_slider_set_orientation:
 660              	.LVL65:
 661              	.LFB177:
 164:Drivers/lvgl/src/widgets/slider/lv_slider.c ****     lv_bar_set_orientation(obj, (lv_bar_orientation_t)orientation);
 662              		.loc 1 164 1 is_stmt 1 view -0
 663              		.cfi_startproc
 664              		@ args = 0, pretend = 0, frame = 0
 665              		@ frame_needed = 0, uses_anonymous_args = 0
 164:Drivers/lvgl/src/widgets/slider/lv_slider.c ****     lv_bar_set_orientation(obj, (lv_bar_orientation_t)orientation);
 666              		.loc 1 164 1 is_stmt 0 view .LVU178
 667 0000 08B5     		push	{r3, lr}
 668              	.LCFI11:
 669              		.cfi_def_cfa_offset 8
 670              		.cfi_offset 3, -8
 671              		.cfi_offset 14, -4
 165:Drivers/lvgl/src/widgets/slider/lv_slider.c **** }
 672              		.loc 1 165 5 is_stmt 1 view .LVU179
 673 0002 FFF7FEFF 		bl	lv_bar_set_orientation
 674              	.LVL66:
 166:Drivers/lvgl/src/widgets/slider/lv_slider.c **** 
 675              		.loc 1 166 1 is_stmt 0 view .LVU180
 676 0006 08BD     		pop	{r3, pc}
 677              		.cfi_endproc
 678              	.LFE177:
 680              		.section	.text.lv_slider_get_value,"ax",%progbits
 681              		.align	1
 682              		.global	lv_slider_get_value
 683              		.syntax unified
 684              		.thumb
 685              		.thumb_func
 687              	lv_slider_get_value:
 688              	.LVL67:
 689              	.LFB178:
 169:Drivers/lvgl/src/widgets/slider/lv_slider.c ****     return lv_bar_get_value(obj);
 690              		.loc 1 169 1 is_stmt 1 view -0
 691              		.cfi_startproc
 692              		@ args = 0, pretend = 0, frame = 0
 693              		@ frame_needed = 0, uses_anonymous_args = 0
 169:Drivers/lvgl/src/widgets/slider/lv_slider.c ****     return lv_bar_get_value(obj);
 694              		.loc 1 169 1 is_stmt 0 view .LVU182
 695 0000 08B5     		push	{r3, lr}
 696              	.LCFI12:
 697              		.cfi_def_cfa_offset 8
 698              		.cfi_offset 3, -8
 699              		.cfi_offset 14, -4
 170:Drivers/lvgl/src/widgets/slider/lv_slider.c **** }
 700              		.loc 1 170 5 is_stmt 1 view .LVU183
 170:Drivers/lvgl/src/widgets/slider/lv_slider.c **** }
 701              		.loc 1 170 12 is_stmt 0 view .LVU184
 702 0002 FFF7FEFF 		bl	lv_bar_get_value
 703              	.LVL68:
ARM GAS  /tmp/ccq4eqVm.s 			page 27


 171:Drivers/lvgl/src/widgets/slider/lv_slider.c **** 
 704              		.loc 1 171 1 view .LVU185
 705 0006 08BD     		pop	{r3, pc}
 706              		.cfi_endproc
 707              	.LFE178:
 709              		.section	.text.lv_slider_get_left_value,"ax",%progbits
 710              		.align	1
 711              		.global	lv_slider_get_left_value
 712              		.syntax unified
 713              		.thumb
 714              		.thumb_func
 716              	lv_slider_get_left_value:
 717              	.LVL69:
 718              	.LFB179:
 174:Drivers/lvgl/src/widgets/slider/lv_slider.c ****     return lv_bar_get_start_value(obj);
 719              		.loc 1 174 1 is_stmt 1 view -0
 720              		.cfi_startproc
 721              		@ args = 0, pretend = 0, frame = 0
 722              		@ frame_needed = 0, uses_anonymous_args = 0
 174:Drivers/lvgl/src/widgets/slider/lv_slider.c ****     return lv_bar_get_start_value(obj);
 723              		.loc 1 174 1 is_stmt 0 view .LVU187
 724 0000 08B5     		push	{r3, lr}
 725              	.LCFI13:
 726              		.cfi_def_cfa_offset 8
 727              		.cfi_offset 3, -8
 728              		.cfi_offset 14, -4
 175:Drivers/lvgl/src/widgets/slider/lv_slider.c **** }
 729              		.loc 1 175 5 is_stmt 1 view .LVU188
 175:Drivers/lvgl/src/widgets/slider/lv_slider.c **** }
 730              		.loc 1 175 12 is_stmt 0 view .LVU189
 731 0002 FFF7FEFF 		bl	lv_bar_get_start_value
 732              	.LVL70:
 176:Drivers/lvgl/src/widgets/slider/lv_slider.c **** 
 733              		.loc 1 176 1 view .LVU190
 734 0006 08BD     		pop	{r3, pc}
 735              		.cfi_endproc
 736              	.LFE179:
 738              		.section	.text.lv_slider_get_min_value,"ax",%progbits
 739              		.align	1
 740              		.global	lv_slider_get_min_value
 741              		.syntax unified
 742              		.thumb
 743              		.thumb_func
 745              	lv_slider_get_min_value:
 746              	.LVL71:
 747              	.LFB180:
 179:Drivers/lvgl/src/widgets/slider/lv_slider.c ****     return lv_bar_get_min_value(obj);
 748              		.loc 1 179 1 is_stmt 1 view -0
 749              		.cfi_startproc
 750              		@ args = 0, pretend = 0, frame = 0
 751              		@ frame_needed = 0, uses_anonymous_args = 0
 179:Drivers/lvgl/src/widgets/slider/lv_slider.c ****     return lv_bar_get_min_value(obj);
 752              		.loc 1 179 1 is_stmt 0 view .LVU192
 753 0000 08B5     		push	{r3, lr}
 754              	.LCFI14:
 755              		.cfi_def_cfa_offset 8
 756              		.cfi_offset 3, -8
ARM GAS  /tmp/ccq4eqVm.s 			page 28


 757              		.cfi_offset 14, -4
 180:Drivers/lvgl/src/widgets/slider/lv_slider.c **** }
 758              		.loc 1 180 5 is_stmt 1 view .LVU193
 180:Drivers/lvgl/src/widgets/slider/lv_slider.c **** }
 759              		.loc 1 180 12 is_stmt 0 view .LVU194
 760 0002 FFF7FEFF 		bl	lv_bar_get_min_value
 761              	.LVL72:
 181:Drivers/lvgl/src/widgets/slider/lv_slider.c **** 
 762              		.loc 1 181 1 view .LVU195
 763 0006 08BD     		pop	{r3, pc}
 764              		.cfi_endproc
 765              	.LFE180:
 767              		.section	.text.lv_slider_get_max_value,"ax",%progbits
 768              		.align	1
 769              		.global	lv_slider_get_max_value
 770              		.syntax unified
 771              		.thumb
 772              		.thumb_func
 774              	lv_slider_get_max_value:
 775              	.LVL73:
 776              	.LFB181:
 184:Drivers/lvgl/src/widgets/slider/lv_slider.c ****     return lv_bar_get_max_value(obj);
 777              		.loc 1 184 1 is_stmt 1 view -0
 778              		.cfi_startproc
 779              		@ args = 0, pretend = 0, frame = 0
 780              		@ frame_needed = 0, uses_anonymous_args = 0
 184:Drivers/lvgl/src/widgets/slider/lv_slider.c ****     return lv_bar_get_max_value(obj);
 781              		.loc 1 184 1 is_stmt 0 view .LVU197
 782 0000 08B5     		push	{r3, lr}
 783              	.LCFI15:
 784              		.cfi_def_cfa_offset 8
 785              		.cfi_offset 3, -8
 786              		.cfi_offset 14, -4
 185:Drivers/lvgl/src/widgets/slider/lv_slider.c **** }
 787              		.loc 1 185 5 is_stmt 1 view .LVU198
 185:Drivers/lvgl/src/widgets/slider/lv_slider.c **** }
 788              		.loc 1 185 12 is_stmt 0 view .LVU199
 789 0002 FFF7FEFF 		bl	lv_bar_get_max_value
 790              	.LVL74:
 186:Drivers/lvgl/src/widgets/slider/lv_slider.c **** 
 791              		.loc 1 186 1 view .LVU200
 792 0006 08BD     		pop	{r3, pc}
 793              		.cfi_endproc
 794              	.LFE181:
 796              		.section	.text.lv_slider_get_mode,"ax",%progbits
 797              		.align	1
 798              		.global	lv_slider_get_mode
 799              		.syntax unified
 800              		.thumb
 801              		.thumb_func
 803              	lv_slider_get_mode:
 804              	.LVL75:
 805              	.LFB182:
 189:Drivers/lvgl/src/widgets/slider/lv_slider.c ****     lv_bar_mode_t mode = lv_bar_get_mode(slider);
 806              		.loc 1 189 1 is_stmt 1 view -0
 807              		.cfi_startproc
 808              		@ args = 0, pretend = 0, frame = 0
ARM GAS  /tmp/ccq4eqVm.s 			page 29


 809              		@ frame_needed = 0, uses_anonymous_args = 0
 189:Drivers/lvgl/src/widgets/slider/lv_slider.c ****     lv_bar_mode_t mode = lv_bar_get_mode(slider);
 810              		.loc 1 189 1 is_stmt 0 view .LVU202
 811 0000 08B5     		push	{r3, lr}
 812              	.LCFI16:
 813              		.cfi_def_cfa_offset 8
 814              		.cfi_offset 3, -8
 815              		.cfi_offset 14, -4
 190:Drivers/lvgl/src/widgets/slider/lv_slider.c ****     if(mode == LV_BAR_MODE_SYMMETRICAL) return LV_SLIDER_MODE_SYMMETRICAL;
 816              		.loc 1 190 5 is_stmt 1 view .LVU203
 190:Drivers/lvgl/src/widgets/slider/lv_slider.c ****     if(mode == LV_BAR_MODE_SYMMETRICAL) return LV_SLIDER_MODE_SYMMETRICAL;
 817              		.loc 1 190 26 is_stmt 0 view .LVU204
 818 0002 FFF7FEFF 		bl	lv_bar_get_mode
 819              	.LVL76:
 191:Drivers/lvgl/src/widgets/slider/lv_slider.c ****     else if(mode == LV_BAR_MODE_RANGE) return LV_SLIDER_MODE_RANGE;
 820              		.loc 1 191 5 is_stmt 1 view .LVU205
 191:Drivers/lvgl/src/widgets/slider/lv_slider.c ****     else if(mode == LV_BAR_MODE_RANGE) return LV_SLIDER_MODE_RANGE;
 821              		.loc 1 191 7 is_stmt 0 view .LVU206
 822 0006 0128     		cmp	r0, #1
 823 0008 02D0     		beq	.L45
 192:Drivers/lvgl/src/widgets/slider/lv_slider.c ****     else return LV_SLIDER_MODE_NORMAL;
 824              		.loc 1 192 10 is_stmt 1 view .LVU207
 192:Drivers/lvgl/src/widgets/slider/lv_slider.c ****     else return LV_SLIDER_MODE_NORMAL;
 825              		.loc 1 192 12 is_stmt 0 view .LVU208
 826 000a 0228     		cmp	r0, #2
 827 000c 00D0     		beq	.L45
 193:Drivers/lvgl/src/widgets/slider/lv_slider.c **** }
 828              		.loc 1 193 17 view .LVU209
 829 000e 0020     		movs	r0, #0
 830              	.LVL77:
 831              	.L45:
 194:Drivers/lvgl/src/widgets/slider/lv_slider.c **** 
 832              		.loc 1 194 1 view .LVU210
 833 0010 08BD     		pop	{r3, pc}
 834              		.cfi_endproc
 835              	.LFE182:
 837              		.section	.text.drag_start,"ax",%progbits
 838              		.align	1
 839              		.syntax unified
 840              		.thumb
 841              		.thumb_func
 843              	drag_start:
 844              	.LVL78:
 845              	.LFB190:
 467:Drivers/lvgl/src/widgets/slider/lv_slider.c **** 
 468:Drivers/lvgl/src/widgets/slider/lv_slider.c **** static void drag_start(lv_obj_t * obj)
 469:Drivers/lvgl/src/widgets/slider/lv_slider.c **** {
 846              		.loc 1 469 1 is_stmt 1 view -0
 847              		.cfi_startproc
 848              		@ args = 0, pretend = 0, frame = 16
 849              		@ frame_needed = 0, uses_anonymous_args = 0
 850              		.loc 1 469 1 is_stmt 0 view .LVU212
 851 0000 30B5     		push	{r4, r5, lr}
 852              	.LCFI17:
 853              		.cfi_def_cfa_offset 12
 854              		.cfi_offset 4, -12
 855              		.cfi_offset 5, -8
ARM GAS  /tmp/ccq4eqVm.s 			page 30


 856              		.cfi_offset 14, -4
 857 0002 85B0     		sub	sp, sp, #20
 858              	.LCFI18:
 859              		.cfi_def_cfa_offset 32
 860 0004 0446     		mov	r4, r0
 470:Drivers/lvgl/src/widgets/slider/lv_slider.c ****     lv_slider_t * slider = (lv_slider_t *)obj;
 861              		.loc 1 470 5 is_stmt 1 view .LVU213
 862              	.LVL79:
 471:Drivers/lvgl/src/widgets/slider/lv_slider.c ****     lv_slider_mode_t mode = lv_slider_get_mode(obj);
 863              		.loc 1 471 5 view .LVU214
 864              		.loc 1 471 29 is_stmt 0 view .LVU215
 865 0006 FFF7FEFF 		bl	lv_slider_get_mode
 866              	.LVL80:
 472:Drivers/lvgl/src/widgets/slider/lv_slider.c ****     lv_point_t p;
 867              		.loc 1 472 5 is_stmt 1 view .LVU216
 473:Drivers/lvgl/src/widgets/slider/lv_slider.c ****     slider->dragging = true;
 868              		.loc 1 473 5 view .LVU217
 869              		.loc 1 473 22 is_stmt 0 view .LVU218
 870 000a 94F8A030 		ldrb	r3, [r4, #160]	@ zero_extendqisi2
 871 000e 43F00103 		orr	r3, r3, #1
 872 0012 84F8A030 		strb	r3, [r4, #160]
 474:Drivers/lvgl/src/widgets/slider/lv_slider.c ****     if(mode == LV_SLIDER_MODE_NORMAL || mode == LV_SLIDER_MODE_SYMMETRICAL) {
 873              		.loc 1 474 5 is_stmt 1 view .LVU219
 874              		.loc 1 474 7 is_stmt 0 view .LVU220
 875 0016 0128     		cmp	r0, #1
 876 0018 03D9     		bls	.L71
 475:Drivers/lvgl/src/widgets/slider/lv_slider.c ****         slider->value_to_set = &slider->bar.cur_value;
 476:Drivers/lvgl/src/widgets/slider/lv_slider.c ****     }
 477:Drivers/lvgl/src/widgets/slider/lv_slider.c ****     else if(mode == LV_SLIDER_MODE_RANGE) {
 877              		.loc 1 477 10 is_stmt 1 view .LVU221
 878              		.loc 1 477 12 is_stmt 0 view .LVU222
 879 001a 0228     		cmp	r0, #2
 880 001c 06D0     		beq	.L72
 881              	.LVL81:
 882              	.L48:
 478:Drivers/lvgl/src/widgets/slider/lv_slider.c ****         lv_indev_get_point(lv_indev_active(), &p);
 479:Drivers/lvgl/src/widgets/slider/lv_slider.c ****         lv_obj_transform_point(obj, &p, LV_OBJ_POINT_TRANSFORM_FLAG_INVERSE_RECURSIVE);
 480:Drivers/lvgl/src/widgets/slider/lv_slider.c ****         const bool is_rtl = LV_BASE_DIR_RTL == lv_obj_get_style_base_dir(obj, LV_PART_MAIN);
 481:Drivers/lvgl/src/widgets/slider/lv_slider.c ****         const bool is_horizontal = is_slider_horizontal(obj);
 482:Drivers/lvgl/src/widgets/slider/lv_slider.c ****         const bool is_reversed = slider->bar.val_reversed ^ (is_rtl && is_horizontal);
 483:Drivers/lvgl/src/widgets/slider/lv_slider.c ****         int32_t dist_left, dist_right;
 484:Drivers/lvgl/src/widgets/slider/lv_slider.c ****         if(is_horizontal) {
 485:Drivers/lvgl/src/widgets/slider/lv_slider.c ****             if((!is_reversed && p.x > slider->right_knob_area.x2) || (is_reversed && p.x < slider->
 486:Drivers/lvgl/src/widgets/slider/lv_slider.c ****                 slider->value_to_set = &slider->bar.cur_value;
 487:Drivers/lvgl/src/widgets/slider/lv_slider.c ****             }
 488:Drivers/lvgl/src/widgets/slider/lv_slider.c ****             else if((!is_reversed && p.x < slider->left_knob_area.x1) || (is_reversed && p.x > slid
 489:Drivers/lvgl/src/widgets/slider/lv_slider.c ****                 slider->value_to_set = &slider->bar.start_value;
 490:Drivers/lvgl/src/widgets/slider/lv_slider.c ****             }
 491:Drivers/lvgl/src/widgets/slider/lv_slider.c ****             else {
 492:Drivers/lvgl/src/widgets/slider/lv_slider.c ****                 /*Calculate the distance from each knob*/
 493:Drivers/lvgl/src/widgets/slider/lv_slider.c ****                 dist_left = LV_ABS((slider->left_knob_area.x1 + (slider->left_knob_area.x2 - slider
 494:Drivers/lvgl/src/widgets/slider/lv_slider.c ****                 dist_right = LV_ABS((slider->right_knob_area.x1 + (slider->right_knob_area.x2 - sli
 495:Drivers/lvgl/src/widgets/slider/lv_slider.c ****                 /*Use whichever one is closer*/
 496:Drivers/lvgl/src/widgets/slider/lv_slider.c ****                 if(dist_right < dist_left) {
 497:Drivers/lvgl/src/widgets/slider/lv_slider.c ****                     slider->value_to_set = &slider->bar.cur_value;
 498:Drivers/lvgl/src/widgets/slider/lv_slider.c ****                     slider->left_knob_focus = 0;
 499:Drivers/lvgl/src/widgets/slider/lv_slider.c ****                 }
ARM GAS  /tmp/ccq4eqVm.s 			page 31


 500:Drivers/lvgl/src/widgets/slider/lv_slider.c ****                 else {
 501:Drivers/lvgl/src/widgets/slider/lv_slider.c ****                     slider->value_to_set = &slider->bar.start_value;
 502:Drivers/lvgl/src/widgets/slider/lv_slider.c ****                     slider->left_knob_focus = 1;
 503:Drivers/lvgl/src/widgets/slider/lv_slider.c ****                 }
 504:Drivers/lvgl/src/widgets/slider/lv_slider.c ****             }
 505:Drivers/lvgl/src/widgets/slider/lv_slider.c ****         }
 506:Drivers/lvgl/src/widgets/slider/lv_slider.c ****         else {
 507:Drivers/lvgl/src/widgets/slider/lv_slider.c ****             if((!is_reversed && p.y < slider->right_knob_area.y1) || (is_reversed && p.y > slider->
 508:Drivers/lvgl/src/widgets/slider/lv_slider.c ****                 slider->value_to_set = &slider->bar.cur_value;
 509:Drivers/lvgl/src/widgets/slider/lv_slider.c ****             }
 510:Drivers/lvgl/src/widgets/slider/lv_slider.c ****             else if((!is_reversed && p.y > slider->left_knob_area.y2) || (is_reversed && p.y < slid
 511:Drivers/lvgl/src/widgets/slider/lv_slider.c ****                 slider->value_to_set = &slider->bar.start_value;
 512:Drivers/lvgl/src/widgets/slider/lv_slider.c ****             }
 513:Drivers/lvgl/src/widgets/slider/lv_slider.c ****             else {
 514:Drivers/lvgl/src/widgets/slider/lv_slider.c ****                 /*Calculate the distance from each knob*/
 515:Drivers/lvgl/src/widgets/slider/lv_slider.c ****                 dist_left = LV_ABS((slider->left_knob_area.y1 + (slider->left_knob_area.y2 - slider
 516:Drivers/lvgl/src/widgets/slider/lv_slider.c ****                 dist_right = LV_ABS((slider->right_knob_area.y1 + (slider->right_knob_area.y2 - sli
 517:Drivers/lvgl/src/widgets/slider/lv_slider.c **** 
 518:Drivers/lvgl/src/widgets/slider/lv_slider.c ****                 /*Use whichever one is closer*/
 519:Drivers/lvgl/src/widgets/slider/lv_slider.c ****                 if(dist_right < dist_left) {
 520:Drivers/lvgl/src/widgets/slider/lv_slider.c ****                     slider->value_to_set = &slider->bar.cur_value;
 521:Drivers/lvgl/src/widgets/slider/lv_slider.c ****                     slider->left_knob_focus = 0;
 522:Drivers/lvgl/src/widgets/slider/lv_slider.c ****                 }
 523:Drivers/lvgl/src/widgets/slider/lv_slider.c ****                 else {
 524:Drivers/lvgl/src/widgets/slider/lv_slider.c ****                     slider->value_to_set = &slider->bar.start_value;
 525:Drivers/lvgl/src/widgets/slider/lv_slider.c ****                     slider->left_knob_focus = 1;
 526:Drivers/lvgl/src/widgets/slider/lv_slider.c ****                 }
 527:Drivers/lvgl/src/widgets/slider/lv_slider.c ****             }
 528:Drivers/lvgl/src/widgets/slider/lv_slider.c ****         }
 529:Drivers/lvgl/src/widgets/slider/lv_slider.c ****     }
 530:Drivers/lvgl/src/widgets/slider/lv_slider.c **** }
 883              		.loc 1 530 1 view .LVU223
 884 001e 05B0     		add	sp, sp, #20
 885              	.LCFI19:
 886              		.cfi_remember_state
 887              		.cfi_def_cfa_offset 12
 888              		@ sp needed
 889 0020 30BD     		pop	{r4, r5, pc}
 890              	.LVL82:
 891              	.L71:
 892              	.LCFI20:
 893              		.cfi_restore_state
 475:Drivers/lvgl/src/widgets/slider/lv_slider.c ****         slider->value_to_set = &slider->bar.cur_value;
 894              		.loc 1 475 9 is_stmt 1 view .LVU224
 475:Drivers/lvgl/src/widgets/slider/lv_slider.c ****         slider->value_to_set = &slider->bar.cur_value;
 895              		.loc 1 475 32 is_stmt 0 view .LVU225
 896 0022 04F12C03 		add	r3, r4, #44
 475:Drivers/lvgl/src/widgets/slider/lv_slider.c ****         slider->value_to_set = &slider->bar.cur_value;
 897              		.loc 1 475 30 view .LVU226
 898 0026 C4F89C30 		str	r3, [r4, #156]
 899 002a F8E7     		b	.L48
 900              	.L72:
 901              	.LBB72:
 478:Drivers/lvgl/src/widgets/slider/lv_slider.c ****         lv_indev_get_point(lv_indev_active(), &p);
 902              		.loc 1 478 9 is_stmt 1 view .LVU227
 478:Drivers/lvgl/src/widgets/slider/lv_slider.c ****         lv_indev_get_point(lv_indev_active(), &p);
 903              		.loc 1 478 28 is_stmt 0 view .LVU228
ARM GAS  /tmp/ccq4eqVm.s 			page 32


 904 002c FFF7FEFF 		bl	lv_indev_active
 905              	.LVL83:
 478:Drivers/lvgl/src/widgets/slider/lv_slider.c ****         lv_indev_get_point(lv_indev_active(), &p);
 906              		.loc 1 478 9 discriminator 1 view .LVU229
 907 0030 02AD     		add	r5, sp, #8
 908 0032 2946     		mov	r1, r5
 909 0034 FFF7FEFF 		bl	lv_indev_get_point
 910              	.LVL84:
 479:Drivers/lvgl/src/widgets/slider/lv_slider.c ****         const bool is_rtl = LV_BASE_DIR_RTL == lv_obj_get_style_base_dir(obj, LV_PART_MAIN);
 911              		.loc 1 479 9 is_stmt 1 view .LVU230
 912 0038 0322     		movs	r2, #3
 913 003a 2946     		mov	r1, r5
 914 003c 2046     		mov	r0, r4
 915 003e FFF7FEFF 		bl	lv_obj_transform_point
 916              	.LVL85:
 480:Drivers/lvgl/src/widgets/slider/lv_slider.c ****         const bool is_horizontal = is_slider_horizontal(obj);
 917              		.loc 1 480 9 view .LVU231
 918              	.LBB73:
 919              	.LBI73:
 176:Drivers/lvgl/src/widgets/slider/../bar/../../core/lv_obj_style_gen.h **** }
 177:Drivers/lvgl/src/widgets/slider/../bar/../../core/lv_obj_style_gen.h **** 
 178:Drivers/lvgl/src/widgets/slider/../bar/../../core/lv_obj_style_gen.h **** static inline int32_t lv_obj_get_style_pad_row(const lv_obj_t * obj, lv_part_t part)
 179:Drivers/lvgl/src/widgets/slider/../bar/../../core/lv_obj_style_gen.h **** {
 180:Drivers/lvgl/src/widgets/slider/../bar/../../core/lv_obj_style_gen.h ****     lv_style_value_t v = lv_obj_get_style_prop(obj, part, LV_STYLE_PAD_ROW);
 181:Drivers/lvgl/src/widgets/slider/../bar/../../core/lv_obj_style_gen.h ****     return (int32_t)v.num;
 182:Drivers/lvgl/src/widgets/slider/../bar/../../core/lv_obj_style_gen.h **** }
 183:Drivers/lvgl/src/widgets/slider/../bar/../../core/lv_obj_style_gen.h **** 
 184:Drivers/lvgl/src/widgets/slider/../bar/../../core/lv_obj_style_gen.h **** static inline int32_t lv_obj_get_style_pad_column(const lv_obj_t * obj, lv_part_t part)
 185:Drivers/lvgl/src/widgets/slider/../bar/../../core/lv_obj_style_gen.h **** {
 186:Drivers/lvgl/src/widgets/slider/../bar/../../core/lv_obj_style_gen.h ****     lv_style_value_t v = lv_obj_get_style_prop(obj, part, LV_STYLE_PAD_COLUMN);
 187:Drivers/lvgl/src/widgets/slider/../bar/../../core/lv_obj_style_gen.h ****     return (int32_t)v.num;
 188:Drivers/lvgl/src/widgets/slider/../bar/../../core/lv_obj_style_gen.h **** }
 189:Drivers/lvgl/src/widgets/slider/../bar/../../core/lv_obj_style_gen.h **** 
 190:Drivers/lvgl/src/widgets/slider/../bar/../../core/lv_obj_style_gen.h **** static inline int32_t lv_obj_get_style_pad_radial(const lv_obj_t * obj, lv_part_t part)
 191:Drivers/lvgl/src/widgets/slider/../bar/../../core/lv_obj_style_gen.h **** {
 192:Drivers/lvgl/src/widgets/slider/../bar/../../core/lv_obj_style_gen.h ****     lv_style_value_t v = lv_obj_get_style_prop(obj, part, LV_STYLE_PAD_RADIAL);
 193:Drivers/lvgl/src/widgets/slider/../bar/../../core/lv_obj_style_gen.h ****     return (int32_t)v.num;
 194:Drivers/lvgl/src/widgets/slider/../bar/../../core/lv_obj_style_gen.h **** }
 195:Drivers/lvgl/src/widgets/slider/../bar/../../core/lv_obj_style_gen.h **** 
 196:Drivers/lvgl/src/widgets/slider/../bar/../../core/lv_obj_style_gen.h **** static inline int32_t lv_obj_get_style_margin_top(const lv_obj_t * obj, lv_part_t part)
 197:Drivers/lvgl/src/widgets/slider/../bar/../../core/lv_obj_style_gen.h **** {
 198:Drivers/lvgl/src/widgets/slider/../bar/../../core/lv_obj_style_gen.h ****     lv_style_value_t v = lv_obj_get_style_prop(obj, part, LV_STYLE_MARGIN_TOP);
 199:Drivers/lvgl/src/widgets/slider/../bar/../../core/lv_obj_style_gen.h ****     return (int32_t)v.num;
 200:Drivers/lvgl/src/widgets/slider/../bar/../../core/lv_obj_style_gen.h **** }
 201:Drivers/lvgl/src/widgets/slider/../bar/../../core/lv_obj_style_gen.h **** 
 202:Drivers/lvgl/src/widgets/slider/../bar/../../core/lv_obj_style_gen.h **** static inline int32_t lv_obj_get_style_margin_bottom(const lv_obj_t * obj, lv_part_t part)
 203:Drivers/lvgl/src/widgets/slider/../bar/../../core/lv_obj_style_gen.h **** {
 204:Drivers/lvgl/src/widgets/slider/../bar/../../core/lv_obj_style_gen.h ****     lv_style_value_t v = lv_obj_get_style_prop(obj, part, LV_STYLE_MARGIN_BOTTOM);
 205:Drivers/lvgl/src/widgets/slider/../bar/../../core/lv_obj_style_gen.h ****     return (int32_t)v.num;
 206:Drivers/lvgl/src/widgets/slider/../bar/../../core/lv_obj_style_gen.h **** }
 207:Drivers/lvgl/src/widgets/slider/../bar/../../core/lv_obj_style_gen.h **** 
 208:Drivers/lvgl/src/widgets/slider/../bar/../../core/lv_obj_style_gen.h **** static inline int32_t lv_obj_get_style_margin_left(const lv_obj_t * obj, lv_part_t part)
 209:Drivers/lvgl/src/widgets/slider/../bar/../../core/lv_obj_style_gen.h **** {
 210:Drivers/lvgl/src/widgets/slider/../bar/../../core/lv_obj_style_gen.h ****     lv_style_value_t v = lv_obj_get_style_prop(obj, part, LV_STYLE_MARGIN_LEFT);
 211:Drivers/lvgl/src/widgets/slider/../bar/../../core/lv_obj_style_gen.h ****     return (int32_t)v.num;
 212:Drivers/lvgl/src/widgets/slider/../bar/../../core/lv_obj_style_gen.h **** }
 213:Drivers/lvgl/src/widgets/slider/../bar/../../core/lv_obj_style_gen.h **** 
ARM GAS  /tmp/ccq4eqVm.s 			page 33


 214:Drivers/lvgl/src/widgets/slider/../bar/../../core/lv_obj_style_gen.h **** static inline int32_t lv_obj_get_style_margin_right(const lv_obj_t * obj, lv_part_t part)
 215:Drivers/lvgl/src/widgets/slider/../bar/../../core/lv_obj_style_gen.h **** {
 216:Drivers/lvgl/src/widgets/slider/../bar/../../core/lv_obj_style_gen.h ****     lv_style_value_t v = lv_obj_get_style_prop(obj, part, LV_STYLE_MARGIN_RIGHT);
 217:Drivers/lvgl/src/widgets/slider/../bar/../../core/lv_obj_style_gen.h ****     return (int32_t)v.num;
 218:Drivers/lvgl/src/widgets/slider/../bar/../../core/lv_obj_style_gen.h **** }
 219:Drivers/lvgl/src/widgets/slider/../bar/../../core/lv_obj_style_gen.h **** 
 220:Drivers/lvgl/src/widgets/slider/../bar/../../core/lv_obj_style_gen.h **** static inline lv_color_t lv_obj_get_style_bg_color(const lv_obj_t * obj, lv_part_t part)
 221:Drivers/lvgl/src/widgets/slider/../bar/../../core/lv_obj_style_gen.h **** {
 222:Drivers/lvgl/src/widgets/slider/../bar/../../core/lv_obj_style_gen.h ****     lv_style_value_t v = lv_obj_get_style_prop(obj, part, LV_STYLE_BG_COLOR);
 223:Drivers/lvgl/src/widgets/slider/../bar/../../core/lv_obj_style_gen.h ****     return v.color;
 224:Drivers/lvgl/src/widgets/slider/../bar/../../core/lv_obj_style_gen.h **** }
 225:Drivers/lvgl/src/widgets/slider/../bar/../../core/lv_obj_style_gen.h **** 
 226:Drivers/lvgl/src/widgets/slider/../bar/../../core/lv_obj_style_gen.h **** static inline lv_color_t lv_obj_get_style_bg_color_filtered(const lv_obj_t * obj, lv_part_t part)
 227:Drivers/lvgl/src/widgets/slider/../bar/../../core/lv_obj_style_gen.h **** {
 228:Drivers/lvgl/src/widgets/slider/../bar/../../core/lv_obj_style_gen.h ****     lv_style_value_t v = lv_obj_style_apply_color_filter(obj, part, lv_obj_get_style_prop(obj, part
 229:Drivers/lvgl/src/widgets/slider/../bar/../../core/lv_obj_style_gen.h ****     return v.color;
 230:Drivers/lvgl/src/widgets/slider/../bar/../../core/lv_obj_style_gen.h **** }
 231:Drivers/lvgl/src/widgets/slider/../bar/../../core/lv_obj_style_gen.h **** 
 232:Drivers/lvgl/src/widgets/slider/../bar/../../core/lv_obj_style_gen.h **** static inline lv_opa_t lv_obj_get_style_bg_opa(const lv_obj_t * obj, lv_part_t part)
 233:Drivers/lvgl/src/widgets/slider/../bar/../../core/lv_obj_style_gen.h **** {
 234:Drivers/lvgl/src/widgets/slider/../bar/../../core/lv_obj_style_gen.h ****     lv_style_value_t v = lv_obj_get_style_prop(obj, part, LV_STYLE_BG_OPA);
 235:Drivers/lvgl/src/widgets/slider/../bar/../../core/lv_obj_style_gen.h ****     return (lv_opa_t)v.num;
 236:Drivers/lvgl/src/widgets/slider/../bar/../../core/lv_obj_style_gen.h **** }
 237:Drivers/lvgl/src/widgets/slider/../bar/../../core/lv_obj_style_gen.h **** 
 238:Drivers/lvgl/src/widgets/slider/../bar/../../core/lv_obj_style_gen.h **** static inline lv_color_t lv_obj_get_style_bg_grad_color(const lv_obj_t * obj, lv_part_t part)
 239:Drivers/lvgl/src/widgets/slider/../bar/../../core/lv_obj_style_gen.h **** {
 240:Drivers/lvgl/src/widgets/slider/../bar/../../core/lv_obj_style_gen.h ****     lv_style_value_t v = lv_obj_get_style_prop(obj, part, LV_STYLE_BG_GRAD_COLOR);
 241:Drivers/lvgl/src/widgets/slider/../bar/../../core/lv_obj_style_gen.h ****     return v.color;
 242:Drivers/lvgl/src/widgets/slider/../bar/../../core/lv_obj_style_gen.h **** }
 243:Drivers/lvgl/src/widgets/slider/../bar/../../core/lv_obj_style_gen.h **** 
 244:Drivers/lvgl/src/widgets/slider/../bar/../../core/lv_obj_style_gen.h **** static inline lv_color_t lv_obj_get_style_bg_grad_color_filtered(const lv_obj_t * obj, lv_part_t pa
 245:Drivers/lvgl/src/widgets/slider/../bar/../../core/lv_obj_style_gen.h **** {
 246:Drivers/lvgl/src/widgets/slider/../bar/../../core/lv_obj_style_gen.h ****     lv_style_value_t v = lv_obj_style_apply_color_filter(obj, part, lv_obj_get_style_prop(obj, part
 247:Drivers/lvgl/src/widgets/slider/../bar/../../core/lv_obj_style_gen.h ****     return v.color;
 248:Drivers/lvgl/src/widgets/slider/../bar/../../core/lv_obj_style_gen.h **** }
 249:Drivers/lvgl/src/widgets/slider/../bar/../../core/lv_obj_style_gen.h **** 
 250:Drivers/lvgl/src/widgets/slider/../bar/../../core/lv_obj_style_gen.h **** static inline lv_grad_dir_t lv_obj_get_style_bg_grad_dir(const lv_obj_t * obj, lv_part_t part)
 251:Drivers/lvgl/src/widgets/slider/../bar/../../core/lv_obj_style_gen.h **** {
 252:Drivers/lvgl/src/widgets/slider/../bar/../../core/lv_obj_style_gen.h ****     lv_style_value_t v = lv_obj_get_style_prop(obj, part, LV_STYLE_BG_GRAD_DIR);
 253:Drivers/lvgl/src/widgets/slider/../bar/../../core/lv_obj_style_gen.h ****     return (lv_grad_dir_t)v.num;
 254:Drivers/lvgl/src/widgets/slider/../bar/../../core/lv_obj_style_gen.h **** }
 255:Drivers/lvgl/src/widgets/slider/../bar/../../core/lv_obj_style_gen.h **** 
 256:Drivers/lvgl/src/widgets/slider/../bar/../../core/lv_obj_style_gen.h **** static inline int32_t lv_obj_get_style_bg_main_stop(const lv_obj_t * obj, lv_part_t part)
 257:Drivers/lvgl/src/widgets/slider/../bar/../../core/lv_obj_style_gen.h **** {
 258:Drivers/lvgl/src/widgets/slider/../bar/../../core/lv_obj_style_gen.h ****     lv_style_value_t v = lv_obj_get_style_prop(obj, part, LV_STYLE_BG_MAIN_STOP);
 259:Drivers/lvgl/src/widgets/slider/../bar/../../core/lv_obj_style_gen.h ****     return (int32_t)v.num;
 260:Drivers/lvgl/src/widgets/slider/../bar/../../core/lv_obj_style_gen.h **** }
 261:Drivers/lvgl/src/widgets/slider/../bar/../../core/lv_obj_style_gen.h **** 
 262:Drivers/lvgl/src/widgets/slider/../bar/../../core/lv_obj_style_gen.h **** static inline int32_t lv_obj_get_style_bg_grad_stop(const lv_obj_t * obj, lv_part_t part)
 263:Drivers/lvgl/src/widgets/slider/../bar/../../core/lv_obj_style_gen.h **** {
 264:Drivers/lvgl/src/widgets/slider/../bar/../../core/lv_obj_style_gen.h ****     lv_style_value_t v = lv_obj_get_style_prop(obj, part, LV_STYLE_BG_GRAD_STOP);
 265:Drivers/lvgl/src/widgets/slider/../bar/../../core/lv_obj_style_gen.h ****     return (int32_t)v.num;
 266:Drivers/lvgl/src/widgets/slider/../bar/../../core/lv_obj_style_gen.h **** }
 267:Drivers/lvgl/src/widgets/slider/../bar/../../core/lv_obj_style_gen.h **** 
 268:Drivers/lvgl/src/widgets/slider/../bar/../../core/lv_obj_style_gen.h **** static inline lv_opa_t lv_obj_get_style_bg_main_opa(const lv_obj_t * obj, lv_part_t part)
 269:Drivers/lvgl/src/widgets/slider/../bar/../../core/lv_obj_style_gen.h **** {
 270:Drivers/lvgl/src/widgets/slider/../bar/../../core/lv_obj_style_gen.h ****     lv_style_value_t v = lv_obj_get_style_prop(obj, part, LV_STYLE_BG_MAIN_OPA);
ARM GAS  /tmp/ccq4eqVm.s 			page 34


 271:Drivers/lvgl/src/widgets/slider/../bar/../../core/lv_obj_style_gen.h ****     return (lv_opa_t)v.num;
 272:Drivers/lvgl/src/widgets/slider/../bar/../../core/lv_obj_style_gen.h **** }
 273:Drivers/lvgl/src/widgets/slider/../bar/../../core/lv_obj_style_gen.h **** 
 274:Drivers/lvgl/src/widgets/slider/../bar/../../core/lv_obj_style_gen.h **** static inline lv_opa_t lv_obj_get_style_bg_grad_opa(const lv_obj_t * obj, lv_part_t part)
 275:Drivers/lvgl/src/widgets/slider/../bar/../../core/lv_obj_style_gen.h **** {
 276:Drivers/lvgl/src/widgets/slider/../bar/../../core/lv_obj_style_gen.h ****     lv_style_value_t v = lv_obj_get_style_prop(obj, part, LV_STYLE_BG_GRAD_OPA);
 277:Drivers/lvgl/src/widgets/slider/../bar/../../core/lv_obj_style_gen.h ****     return (lv_opa_t)v.num;
 278:Drivers/lvgl/src/widgets/slider/../bar/../../core/lv_obj_style_gen.h **** }
 279:Drivers/lvgl/src/widgets/slider/../bar/../../core/lv_obj_style_gen.h **** 
 280:Drivers/lvgl/src/widgets/slider/../bar/../../core/lv_obj_style_gen.h **** static inline const lv_grad_dsc_t * lv_obj_get_style_bg_grad(const lv_obj_t * obj, lv_part_t part)
 281:Drivers/lvgl/src/widgets/slider/../bar/../../core/lv_obj_style_gen.h **** {
 282:Drivers/lvgl/src/widgets/slider/../bar/../../core/lv_obj_style_gen.h ****     lv_style_value_t v = lv_obj_get_style_prop(obj, part, LV_STYLE_BG_GRAD);
 283:Drivers/lvgl/src/widgets/slider/../bar/../../core/lv_obj_style_gen.h ****     return (const lv_grad_dsc_t *)v.ptr;
 284:Drivers/lvgl/src/widgets/slider/../bar/../../core/lv_obj_style_gen.h **** }
 285:Drivers/lvgl/src/widgets/slider/../bar/../../core/lv_obj_style_gen.h **** 
 286:Drivers/lvgl/src/widgets/slider/../bar/../../core/lv_obj_style_gen.h **** static inline const void * lv_obj_get_style_bg_image_src(const lv_obj_t * obj, lv_part_t part)
 287:Drivers/lvgl/src/widgets/slider/../bar/../../core/lv_obj_style_gen.h **** {
 288:Drivers/lvgl/src/widgets/slider/../bar/../../core/lv_obj_style_gen.h ****     lv_style_value_t v = lv_obj_get_style_prop(obj, part, LV_STYLE_BG_IMAGE_SRC);
 289:Drivers/lvgl/src/widgets/slider/../bar/../../core/lv_obj_style_gen.h ****     return (const void *)v.ptr;
 290:Drivers/lvgl/src/widgets/slider/../bar/../../core/lv_obj_style_gen.h **** }
 291:Drivers/lvgl/src/widgets/slider/../bar/../../core/lv_obj_style_gen.h **** 
 292:Drivers/lvgl/src/widgets/slider/../bar/../../core/lv_obj_style_gen.h **** static inline lv_opa_t lv_obj_get_style_bg_image_opa(const lv_obj_t * obj, lv_part_t part)
 293:Drivers/lvgl/src/widgets/slider/../bar/../../core/lv_obj_style_gen.h **** {
 294:Drivers/lvgl/src/widgets/slider/../bar/../../core/lv_obj_style_gen.h ****     lv_style_value_t v = lv_obj_get_style_prop(obj, part, LV_STYLE_BG_IMAGE_OPA);
 295:Drivers/lvgl/src/widgets/slider/../bar/../../core/lv_obj_style_gen.h ****     return (lv_opa_t)v.num;
 296:Drivers/lvgl/src/widgets/slider/../bar/../../core/lv_obj_style_gen.h **** }
 297:Drivers/lvgl/src/widgets/slider/../bar/../../core/lv_obj_style_gen.h **** 
 298:Drivers/lvgl/src/widgets/slider/../bar/../../core/lv_obj_style_gen.h **** static inline lv_color_t lv_obj_get_style_bg_image_recolor(const lv_obj_t * obj, lv_part_t part)
 299:Drivers/lvgl/src/widgets/slider/../bar/../../core/lv_obj_style_gen.h **** {
 300:Drivers/lvgl/src/widgets/slider/../bar/../../core/lv_obj_style_gen.h ****     lv_style_value_t v = lv_obj_get_style_prop(obj, part, LV_STYLE_BG_IMAGE_RECOLOR);
 301:Drivers/lvgl/src/widgets/slider/../bar/../../core/lv_obj_style_gen.h ****     return v.color;
 302:Drivers/lvgl/src/widgets/slider/../bar/../../core/lv_obj_style_gen.h **** }
 303:Drivers/lvgl/src/widgets/slider/../bar/../../core/lv_obj_style_gen.h **** 
 304:Drivers/lvgl/src/widgets/slider/../bar/../../core/lv_obj_style_gen.h **** static inline lv_color_t lv_obj_get_style_bg_image_recolor_filtered(const lv_obj_t * obj, lv_part_t
 305:Drivers/lvgl/src/widgets/slider/../bar/../../core/lv_obj_style_gen.h **** {
 306:Drivers/lvgl/src/widgets/slider/../bar/../../core/lv_obj_style_gen.h ****     lv_style_value_t v = lv_obj_style_apply_color_filter(obj, part, lv_obj_get_style_prop(obj, part
 307:Drivers/lvgl/src/widgets/slider/../bar/../../core/lv_obj_style_gen.h ****     return v.color;
 308:Drivers/lvgl/src/widgets/slider/../bar/../../core/lv_obj_style_gen.h **** }
 309:Drivers/lvgl/src/widgets/slider/../bar/../../core/lv_obj_style_gen.h **** 
 310:Drivers/lvgl/src/widgets/slider/../bar/../../core/lv_obj_style_gen.h **** static inline lv_opa_t lv_obj_get_style_bg_image_recolor_opa(const lv_obj_t * obj, lv_part_t part)
 311:Drivers/lvgl/src/widgets/slider/../bar/../../core/lv_obj_style_gen.h **** {
 312:Drivers/lvgl/src/widgets/slider/../bar/../../core/lv_obj_style_gen.h ****     lv_style_value_t v = lv_obj_get_style_prop(obj, part, LV_STYLE_BG_IMAGE_RECOLOR_OPA);
 313:Drivers/lvgl/src/widgets/slider/../bar/../../core/lv_obj_style_gen.h ****     return (lv_opa_t)v.num;
 314:Drivers/lvgl/src/widgets/slider/../bar/../../core/lv_obj_style_gen.h **** }
 315:Drivers/lvgl/src/widgets/slider/../bar/../../core/lv_obj_style_gen.h **** 
 316:Drivers/lvgl/src/widgets/slider/../bar/../../core/lv_obj_style_gen.h **** static inline bool lv_obj_get_style_bg_image_tiled(const lv_obj_t * obj, lv_part_t part)
 317:Drivers/lvgl/src/widgets/slider/../bar/../../core/lv_obj_style_gen.h **** {
 318:Drivers/lvgl/src/widgets/slider/../bar/../../core/lv_obj_style_gen.h ****     lv_style_value_t v = lv_obj_get_style_prop(obj, part, LV_STYLE_BG_IMAGE_TILED);
 319:Drivers/lvgl/src/widgets/slider/../bar/../../core/lv_obj_style_gen.h ****     return (bool)v.num;
 320:Drivers/lvgl/src/widgets/slider/../bar/../../core/lv_obj_style_gen.h **** }
 321:Drivers/lvgl/src/widgets/slider/../bar/../../core/lv_obj_style_gen.h **** 
 322:Drivers/lvgl/src/widgets/slider/../bar/../../core/lv_obj_style_gen.h **** static inline lv_color_t lv_obj_get_style_border_color(const lv_obj_t * obj, lv_part_t part)
 323:Drivers/lvgl/src/widgets/slider/../bar/../../core/lv_obj_style_gen.h **** {
 324:Drivers/lvgl/src/widgets/slider/../bar/../../core/lv_obj_style_gen.h ****     lv_style_value_t v = lv_obj_get_style_prop(obj, part, LV_STYLE_BORDER_COLOR);
 325:Drivers/lvgl/src/widgets/slider/../bar/../../core/lv_obj_style_gen.h ****     return v.color;
 326:Drivers/lvgl/src/widgets/slider/../bar/../../core/lv_obj_style_gen.h **** }
 327:Drivers/lvgl/src/widgets/slider/../bar/../../core/lv_obj_style_gen.h **** 
ARM GAS  /tmp/ccq4eqVm.s 			page 35


 328:Drivers/lvgl/src/widgets/slider/../bar/../../core/lv_obj_style_gen.h **** static inline lv_color_t lv_obj_get_style_border_color_filtered(const lv_obj_t * obj, lv_part_t par
 329:Drivers/lvgl/src/widgets/slider/../bar/../../core/lv_obj_style_gen.h **** {
 330:Drivers/lvgl/src/widgets/slider/../bar/../../core/lv_obj_style_gen.h ****     lv_style_value_t v = lv_obj_style_apply_color_filter(obj, part, lv_obj_get_style_prop(obj, part
 331:Drivers/lvgl/src/widgets/slider/../bar/../../core/lv_obj_style_gen.h ****     return v.color;
 332:Drivers/lvgl/src/widgets/slider/../bar/../../core/lv_obj_style_gen.h **** }
 333:Drivers/lvgl/src/widgets/slider/../bar/../../core/lv_obj_style_gen.h **** 
 334:Drivers/lvgl/src/widgets/slider/../bar/../../core/lv_obj_style_gen.h **** static inline lv_opa_t lv_obj_get_style_border_opa(const lv_obj_t * obj, lv_part_t part)
 335:Drivers/lvgl/src/widgets/slider/../bar/../../core/lv_obj_style_gen.h **** {
 336:Drivers/lvgl/src/widgets/slider/../bar/../../core/lv_obj_style_gen.h ****     lv_style_value_t v = lv_obj_get_style_prop(obj, part, LV_STYLE_BORDER_OPA);
 337:Drivers/lvgl/src/widgets/slider/../bar/../../core/lv_obj_style_gen.h ****     return (lv_opa_t)v.num;
 338:Drivers/lvgl/src/widgets/slider/../bar/../../core/lv_obj_style_gen.h **** }
 339:Drivers/lvgl/src/widgets/slider/../bar/../../core/lv_obj_style_gen.h **** 
 340:Drivers/lvgl/src/widgets/slider/../bar/../../core/lv_obj_style_gen.h **** static inline int32_t lv_obj_get_style_border_width(const lv_obj_t * obj, lv_part_t part)
 341:Drivers/lvgl/src/widgets/slider/../bar/../../core/lv_obj_style_gen.h **** {
 342:Drivers/lvgl/src/widgets/slider/../bar/../../core/lv_obj_style_gen.h ****     lv_style_value_t v = lv_obj_get_style_prop(obj, part, LV_STYLE_BORDER_WIDTH);
 343:Drivers/lvgl/src/widgets/slider/../bar/../../core/lv_obj_style_gen.h ****     return (int32_t)v.num;
 344:Drivers/lvgl/src/widgets/slider/../bar/../../core/lv_obj_style_gen.h **** }
 345:Drivers/lvgl/src/widgets/slider/../bar/../../core/lv_obj_style_gen.h **** 
 346:Drivers/lvgl/src/widgets/slider/../bar/../../core/lv_obj_style_gen.h **** static inline lv_border_side_t lv_obj_get_style_border_side(const lv_obj_t * obj, lv_part_t part)
 347:Drivers/lvgl/src/widgets/slider/../bar/../../core/lv_obj_style_gen.h **** {
 348:Drivers/lvgl/src/widgets/slider/../bar/../../core/lv_obj_style_gen.h ****     lv_style_value_t v = lv_obj_get_style_prop(obj, part, LV_STYLE_BORDER_SIDE);
 349:Drivers/lvgl/src/widgets/slider/../bar/../../core/lv_obj_style_gen.h ****     return (lv_border_side_t)v.num;
 350:Drivers/lvgl/src/widgets/slider/../bar/../../core/lv_obj_style_gen.h **** }
 351:Drivers/lvgl/src/widgets/slider/../bar/../../core/lv_obj_style_gen.h **** 
 352:Drivers/lvgl/src/widgets/slider/../bar/../../core/lv_obj_style_gen.h **** static inline bool lv_obj_get_style_border_post(const lv_obj_t * obj, lv_part_t part)
 353:Drivers/lvgl/src/widgets/slider/../bar/../../core/lv_obj_style_gen.h **** {
 354:Drivers/lvgl/src/widgets/slider/../bar/../../core/lv_obj_style_gen.h ****     lv_style_value_t v = lv_obj_get_style_prop(obj, part, LV_STYLE_BORDER_POST);
 355:Drivers/lvgl/src/widgets/slider/../bar/../../core/lv_obj_style_gen.h ****     return (bool)v.num;
 356:Drivers/lvgl/src/widgets/slider/../bar/../../core/lv_obj_style_gen.h **** }
 357:Drivers/lvgl/src/widgets/slider/../bar/../../core/lv_obj_style_gen.h **** 
 358:Drivers/lvgl/src/widgets/slider/../bar/../../core/lv_obj_style_gen.h **** static inline int32_t lv_obj_get_style_outline_width(const lv_obj_t * obj, lv_part_t part)
 359:Drivers/lvgl/src/widgets/slider/../bar/../../core/lv_obj_style_gen.h **** {
 360:Drivers/lvgl/src/widgets/slider/../bar/../../core/lv_obj_style_gen.h ****     lv_style_value_t v = lv_obj_get_style_prop(obj, part, LV_STYLE_OUTLINE_WIDTH);
 361:Drivers/lvgl/src/widgets/slider/../bar/../../core/lv_obj_style_gen.h ****     return (int32_t)v.num;
 362:Drivers/lvgl/src/widgets/slider/../bar/../../core/lv_obj_style_gen.h **** }
 363:Drivers/lvgl/src/widgets/slider/../bar/../../core/lv_obj_style_gen.h **** 
 364:Drivers/lvgl/src/widgets/slider/../bar/../../core/lv_obj_style_gen.h **** static inline lv_color_t lv_obj_get_style_outline_color(const lv_obj_t * obj, lv_part_t part)
 365:Drivers/lvgl/src/widgets/slider/../bar/../../core/lv_obj_style_gen.h **** {
 366:Drivers/lvgl/src/widgets/slider/../bar/../../core/lv_obj_style_gen.h ****     lv_style_value_t v = lv_obj_get_style_prop(obj, part, LV_STYLE_OUTLINE_COLOR);
 367:Drivers/lvgl/src/widgets/slider/../bar/../../core/lv_obj_style_gen.h ****     return v.color;
 368:Drivers/lvgl/src/widgets/slider/../bar/../../core/lv_obj_style_gen.h **** }
 369:Drivers/lvgl/src/widgets/slider/../bar/../../core/lv_obj_style_gen.h **** 
 370:Drivers/lvgl/src/widgets/slider/../bar/../../core/lv_obj_style_gen.h **** static inline lv_color_t lv_obj_get_style_outline_color_filtered(const lv_obj_t * obj, lv_part_t pa
 371:Drivers/lvgl/src/widgets/slider/../bar/../../core/lv_obj_style_gen.h **** {
 372:Drivers/lvgl/src/widgets/slider/../bar/../../core/lv_obj_style_gen.h ****     lv_style_value_t v = lv_obj_style_apply_color_filter(obj, part, lv_obj_get_style_prop(obj, part
 373:Drivers/lvgl/src/widgets/slider/../bar/../../core/lv_obj_style_gen.h ****     return v.color;
 374:Drivers/lvgl/src/widgets/slider/../bar/../../core/lv_obj_style_gen.h **** }
 375:Drivers/lvgl/src/widgets/slider/../bar/../../core/lv_obj_style_gen.h **** 
 376:Drivers/lvgl/src/widgets/slider/../bar/../../core/lv_obj_style_gen.h **** static inline lv_opa_t lv_obj_get_style_outline_opa(const lv_obj_t * obj, lv_part_t part)
 377:Drivers/lvgl/src/widgets/slider/../bar/../../core/lv_obj_style_gen.h **** {
 378:Drivers/lvgl/src/widgets/slider/../bar/../../core/lv_obj_style_gen.h ****     lv_style_value_t v = lv_obj_get_style_prop(obj, part, LV_STYLE_OUTLINE_OPA);
 379:Drivers/lvgl/src/widgets/slider/../bar/../../core/lv_obj_style_gen.h ****     return (lv_opa_t)v.num;
 380:Drivers/lvgl/src/widgets/slider/../bar/../../core/lv_obj_style_gen.h **** }
 381:Drivers/lvgl/src/widgets/slider/../bar/../../core/lv_obj_style_gen.h **** 
 382:Drivers/lvgl/src/widgets/slider/../bar/../../core/lv_obj_style_gen.h **** static inline int32_t lv_obj_get_style_outline_pad(const lv_obj_t * obj, lv_part_t part)
 383:Drivers/lvgl/src/widgets/slider/../bar/../../core/lv_obj_style_gen.h **** {
 384:Drivers/lvgl/src/widgets/slider/../bar/../../core/lv_obj_style_gen.h ****     lv_style_value_t v = lv_obj_get_style_prop(obj, part, LV_STYLE_OUTLINE_PAD);
ARM GAS  /tmp/ccq4eqVm.s 			page 36


 385:Drivers/lvgl/src/widgets/slider/../bar/../../core/lv_obj_style_gen.h ****     return (int32_t)v.num;
 386:Drivers/lvgl/src/widgets/slider/../bar/../../core/lv_obj_style_gen.h **** }
 387:Drivers/lvgl/src/widgets/slider/../bar/../../core/lv_obj_style_gen.h **** 
 388:Drivers/lvgl/src/widgets/slider/../bar/../../core/lv_obj_style_gen.h **** static inline int32_t lv_obj_get_style_shadow_width(const lv_obj_t * obj, lv_part_t part)
 389:Drivers/lvgl/src/widgets/slider/../bar/../../core/lv_obj_style_gen.h **** {
 390:Drivers/lvgl/src/widgets/slider/../bar/../../core/lv_obj_style_gen.h ****     lv_style_value_t v = lv_obj_get_style_prop(obj, part, LV_STYLE_SHADOW_WIDTH);
 391:Drivers/lvgl/src/widgets/slider/../bar/../../core/lv_obj_style_gen.h ****     return (int32_t)v.num;
 392:Drivers/lvgl/src/widgets/slider/../bar/../../core/lv_obj_style_gen.h **** }
 393:Drivers/lvgl/src/widgets/slider/../bar/../../core/lv_obj_style_gen.h **** 
 394:Drivers/lvgl/src/widgets/slider/../bar/../../core/lv_obj_style_gen.h **** static inline int32_t lv_obj_get_style_shadow_offset_x(const lv_obj_t * obj, lv_part_t part)
 395:Drivers/lvgl/src/widgets/slider/../bar/../../core/lv_obj_style_gen.h **** {
 396:Drivers/lvgl/src/widgets/slider/../bar/../../core/lv_obj_style_gen.h ****     lv_style_value_t v = lv_obj_get_style_prop(obj, part, LV_STYLE_SHADOW_OFFSET_X);
 397:Drivers/lvgl/src/widgets/slider/../bar/../../core/lv_obj_style_gen.h ****     return (int32_t)v.num;
 398:Drivers/lvgl/src/widgets/slider/../bar/../../core/lv_obj_style_gen.h **** }
 399:Drivers/lvgl/src/widgets/slider/../bar/../../core/lv_obj_style_gen.h **** 
 400:Drivers/lvgl/src/widgets/slider/../bar/../../core/lv_obj_style_gen.h **** static inline int32_t lv_obj_get_style_shadow_offset_y(const lv_obj_t * obj, lv_part_t part)
 401:Drivers/lvgl/src/widgets/slider/../bar/../../core/lv_obj_style_gen.h **** {
 402:Drivers/lvgl/src/widgets/slider/../bar/../../core/lv_obj_style_gen.h ****     lv_style_value_t v = lv_obj_get_style_prop(obj, part, LV_STYLE_SHADOW_OFFSET_Y);
 403:Drivers/lvgl/src/widgets/slider/../bar/../../core/lv_obj_style_gen.h ****     return (int32_t)v.num;
 404:Drivers/lvgl/src/widgets/slider/../bar/../../core/lv_obj_style_gen.h **** }
 405:Drivers/lvgl/src/widgets/slider/../bar/../../core/lv_obj_style_gen.h **** 
 406:Drivers/lvgl/src/widgets/slider/../bar/../../core/lv_obj_style_gen.h **** static inline int32_t lv_obj_get_style_shadow_spread(const lv_obj_t * obj, lv_part_t part)
 407:Drivers/lvgl/src/widgets/slider/../bar/../../core/lv_obj_style_gen.h **** {
 408:Drivers/lvgl/src/widgets/slider/../bar/../../core/lv_obj_style_gen.h ****     lv_style_value_t v = lv_obj_get_style_prop(obj, part, LV_STYLE_SHADOW_SPREAD);
 409:Drivers/lvgl/src/widgets/slider/../bar/../../core/lv_obj_style_gen.h ****     return (int32_t)v.num;
 410:Drivers/lvgl/src/widgets/slider/../bar/../../core/lv_obj_style_gen.h **** }
 411:Drivers/lvgl/src/widgets/slider/../bar/../../core/lv_obj_style_gen.h **** 
 412:Drivers/lvgl/src/widgets/slider/../bar/../../core/lv_obj_style_gen.h **** static inline lv_color_t lv_obj_get_style_shadow_color(const lv_obj_t * obj, lv_part_t part)
 413:Drivers/lvgl/src/widgets/slider/../bar/../../core/lv_obj_style_gen.h **** {
 414:Drivers/lvgl/src/widgets/slider/../bar/../../core/lv_obj_style_gen.h ****     lv_style_value_t v = lv_obj_get_style_prop(obj, part, LV_STYLE_SHADOW_COLOR);
 415:Drivers/lvgl/src/widgets/slider/../bar/../../core/lv_obj_style_gen.h ****     return v.color;
 416:Drivers/lvgl/src/widgets/slider/../bar/../../core/lv_obj_style_gen.h **** }
 417:Drivers/lvgl/src/widgets/slider/../bar/../../core/lv_obj_style_gen.h **** 
 418:Drivers/lvgl/src/widgets/slider/../bar/../../core/lv_obj_style_gen.h **** static inline lv_color_t lv_obj_get_style_shadow_color_filtered(const lv_obj_t * obj, lv_part_t par
 419:Drivers/lvgl/src/widgets/slider/../bar/../../core/lv_obj_style_gen.h **** {
 420:Drivers/lvgl/src/widgets/slider/../bar/../../core/lv_obj_style_gen.h ****     lv_style_value_t v = lv_obj_style_apply_color_filter(obj, part, lv_obj_get_style_prop(obj, part
 421:Drivers/lvgl/src/widgets/slider/../bar/../../core/lv_obj_style_gen.h ****     return v.color;
 422:Drivers/lvgl/src/widgets/slider/../bar/../../core/lv_obj_style_gen.h **** }
 423:Drivers/lvgl/src/widgets/slider/../bar/../../core/lv_obj_style_gen.h **** 
 424:Drivers/lvgl/src/widgets/slider/../bar/../../core/lv_obj_style_gen.h **** static inline lv_opa_t lv_obj_get_style_shadow_opa(const lv_obj_t * obj, lv_part_t part)
 425:Drivers/lvgl/src/widgets/slider/../bar/../../core/lv_obj_style_gen.h **** {
 426:Drivers/lvgl/src/widgets/slider/../bar/../../core/lv_obj_style_gen.h ****     lv_style_value_t v = lv_obj_get_style_prop(obj, part, LV_STYLE_SHADOW_OPA);
 427:Drivers/lvgl/src/widgets/slider/../bar/../../core/lv_obj_style_gen.h ****     return (lv_opa_t)v.num;
 428:Drivers/lvgl/src/widgets/slider/../bar/../../core/lv_obj_style_gen.h **** }
 429:Drivers/lvgl/src/widgets/slider/../bar/../../core/lv_obj_style_gen.h **** 
 430:Drivers/lvgl/src/widgets/slider/../bar/../../core/lv_obj_style_gen.h **** static inline lv_opa_t lv_obj_get_style_image_opa(const lv_obj_t * obj, lv_part_t part)
 431:Drivers/lvgl/src/widgets/slider/../bar/../../core/lv_obj_style_gen.h **** {
 432:Drivers/lvgl/src/widgets/slider/../bar/../../core/lv_obj_style_gen.h ****     lv_style_value_t v = lv_obj_get_style_prop(obj, part, LV_STYLE_IMAGE_OPA);
 433:Drivers/lvgl/src/widgets/slider/../bar/../../core/lv_obj_style_gen.h ****     return (lv_opa_t)v.num;
 434:Drivers/lvgl/src/widgets/slider/../bar/../../core/lv_obj_style_gen.h **** }
 435:Drivers/lvgl/src/widgets/slider/../bar/../../core/lv_obj_style_gen.h **** 
 436:Drivers/lvgl/src/widgets/slider/../bar/../../core/lv_obj_style_gen.h **** static inline lv_color_t lv_obj_get_style_image_recolor(const lv_obj_t * obj, lv_part_t part)
 437:Drivers/lvgl/src/widgets/slider/../bar/../../core/lv_obj_style_gen.h **** {
 438:Drivers/lvgl/src/widgets/slider/../bar/../../core/lv_obj_style_gen.h ****     lv_style_value_t v = lv_obj_get_style_prop(obj, part, LV_STYLE_IMAGE_RECOLOR);
 439:Drivers/lvgl/src/widgets/slider/../bar/../../core/lv_obj_style_gen.h ****     return v.color;
 440:Drivers/lvgl/src/widgets/slider/../bar/../../core/lv_obj_style_gen.h **** }
 441:Drivers/lvgl/src/widgets/slider/../bar/../../core/lv_obj_style_gen.h **** 
ARM GAS  /tmp/ccq4eqVm.s 			page 37


 442:Drivers/lvgl/src/widgets/slider/../bar/../../core/lv_obj_style_gen.h **** static inline lv_color_t lv_obj_get_style_image_recolor_filtered(const lv_obj_t * obj, lv_part_t pa
 443:Drivers/lvgl/src/widgets/slider/../bar/../../core/lv_obj_style_gen.h **** {
 444:Drivers/lvgl/src/widgets/slider/../bar/../../core/lv_obj_style_gen.h ****     lv_style_value_t v = lv_obj_style_apply_color_filter(obj, part, lv_obj_get_style_prop(obj, part
 445:Drivers/lvgl/src/widgets/slider/../bar/../../core/lv_obj_style_gen.h ****     return v.color;
 446:Drivers/lvgl/src/widgets/slider/../bar/../../core/lv_obj_style_gen.h **** }
 447:Drivers/lvgl/src/widgets/slider/../bar/../../core/lv_obj_style_gen.h **** 
 448:Drivers/lvgl/src/widgets/slider/../bar/../../core/lv_obj_style_gen.h **** static inline lv_opa_t lv_obj_get_style_image_recolor_opa(const lv_obj_t * obj, lv_part_t part)
 449:Drivers/lvgl/src/widgets/slider/../bar/../../core/lv_obj_style_gen.h **** {
 450:Drivers/lvgl/src/widgets/slider/../bar/../../core/lv_obj_style_gen.h ****     lv_style_value_t v = lv_obj_get_style_prop(obj, part, LV_STYLE_IMAGE_RECOLOR_OPA);
 451:Drivers/lvgl/src/widgets/slider/../bar/../../core/lv_obj_style_gen.h ****     return (lv_opa_t)v.num;
 452:Drivers/lvgl/src/widgets/slider/../bar/../../core/lv_obj_style_gen.h **** }
 453:Drivers/lvgl/src/widgets/slider/../bar/../../core/lv_obj_style_gen.h **** 
 454:Drivers/lvgl/src/widgets/slider/../bar/../../core/lv_obj_style_gen.h **** static inline int32_t lv_obj_get_style_line_width(const lv_obj_t * obj, lv_part_t part)
 455:Drivers/lvgl/src/widgets/slider/../bar/../../core/lv_obj_style_gen.h **** {
 456:Drivers/lvgl/src/widgets/slider/../bar/../../core/lv_obj_style_gen.h ****     lv_style_value_t v = lv_obj_get_style_prop(obj, part, LV_STYLE_LINE_WIDTH);
 457:Drivers/lvgl/src/widgets/slider/../bar/../../core/lv_obj_style_gen.h ****     return (int32_t)v.num;
 458:Drivers/lvgl/src/widgets/slider/../bar/../../core/lv_obj_style_gen.h **** }
 459:Drivers/lvgl/src/widgets/slider/../bar/../../core/lv_obj_style_gen.h **** 
 460:Drivers/lvgl/src/widgets/slider/../bar/../../core/lv_obj_style_gen.h **** static inline int32_t lv_obj_get_style_line_dash_width(const lv_obj_t * obj, lv_part_t part)
 461:Drivers/lvgl/src/widgets/slider/../bar/../../core/lv_obj_style_gen.h **** {
 462:Drivers/lvgl/src/widgets/slider/../bar/../../core/lv_obj_style_gen.h ****     lv_style_value_t v = lv_obj_get_style_prop(obj, part, LV_STYLE_LINE_DASH_WIDTH);
 463:Drivers/lvgl/src/widgets/slider/../bar/../../core/lv_obj_style_gen.h ****     return (int32_t)v.num;
 464:Drivers/lvgl/src/widgets/slider/../bar/../../core/lv_obj_style_gen.h **** }
 465:Drivers/lvgl/src/widgets/slider/../bar/../../core/lv_obj_style_gen.h **** 
 466:Drivers/lvgl/src/widgets/slider/../bar/../../core/lv_obj_style_gen.h **** static inline int32_t lv_obj_get_style_line_dash_gap(const lv_obj_t * obj, lv_part_t part)
 467:Drivers/lvgl/src/widgets/slider/../bar/../../core/lv_obj_style_gen.h **** {
 468:Drivers/lvgl/src/widgets/slider/../bar/../../core/lv_obj_style_gen.h ****     lv_style_value_t v = lv_obj_get_style_prop(obj, part, LV_STYLE_LINE_DASH_GAP);
 469:Drivers/lvgl/src/widgets/slider/../bar/../../core/lv_obj_style_gen.h ****     return (int32_t)v.num;
 470:Drivers/lvgl/src/widgets/slider/../bar/../../core/lv_obj_style_gen.h **** }
 471:Drivers/lvgl/src/widgets/slider/../bar/../../core/lv_obj_style_gen.h **** 
 472:Drivers/lvgl/src/widgets/slider/../bar/../../core/lv_obj_style_gen.h **** static inline bool lv_obj_get_style_line_rounded(const lv_obj_t * obj, lv_part_t part)
 473:Drivers/lvgl/src/widgets/slider/../bar/../../core/lv_obj_style_gen.h **** {
 474:Drivers/lvgl/src/widgets/slider/../bar/../../core/lv_obj_style_gen.h ****     lv_style_value_t v = lv_obj_get_style_prop(obj, part, LV_STYLE_LINE_ROUNDED);
 475:Drivers/lvgl/src/widgets/slider/../bar/../../core/lv_obj_style_gen.h ****     return (bool)v.num;
 476:Drivers/lvgl/src/widgets/slider/../bar/../../core/lv_obj_style_gen.h **** }
 477:Drivers/lvgl/src/widgets/slider/../bar/../../core/lv_obj_style_gen.h **** 
 478:Drivers/lvgl/src/widgets/slider/../bar/../../core/lv_obj_style_gen.h **** static inline lv_color_t lv_obj_get_style_line_color(const lv_obj_t * obj, lv_part_t part)
 479:Drivers/lvgl/src/widgets/slider/../bar/../../core/lv_obj_style_gen.h **** {
 480:Drivers/lvgl/src/widgets/slider/../bar/../../core/lv_obj_style_gen.h ****     lv_style_value_t v = lv_obj_get_style_prop(obj, part, LV_STYLE_LINE_COLOR);
 481:Drivers/lvgl/src/widgets/slider/../bar/../../core/lv_obj_style_gen.h ****     return v.color;
 482:Drivers/lvgl/src/widgets/slider/../bar/../../core/lv_obj_style_gen.h **** }
 483:Drivers/lvgl/src/widgets/slider/../bar/../../core/lv_obj_style_gen.h **** 
 484:Drivers/lvgl/src/widgets/slider/../bar/../../core/lv_obj_style_gen.h **** static inline lv_color_t lv_obj_get_style_line_color_filtered(const lv_obj_t * obj, lv_part_t part)
 485:Drivers/lvgl/src/widgets/slider/../bar/../../core/lv_obj_style_gen.h **** {
 486:Drivers/lvgl/src/widgets/slider/../bar/../../core/lv_obj_style_gen.h ****     lv_style_value_t v = lv_obj_style_apply_color_filter(obj, part, lv_obj_get_style_prop(obj, part
 487:Drivers/lvgl/src/widgets/slider/../bar/../../core/lv_obj_style_gen.h ****     return v.color;
 488:Drivers/lvgl/src/widgets/slider/../bar/../../core/lv_obj_style_gen.h **** }
 489:Drivers/lvgl/src/widgets/slider/../bar/../../core/lv_obj_style_gen.h **** 
 490:Drivers/lvgl/src/widgets/slider/../bar/../../core/lv_obj_style_gen.h **** static inline lv_opa_t lv_obj_get_style_line_opa(const lv_obj_t * obj, lv_part_t part)
 491:Drivers/lvgl/src/widgets/slider/../bar/../../core/lv_obj_style_gen.h **** {
 492:Drivers/lvgl/src/widgets/slider/../bar/../../core/lv_obj_style_gen.h ****     lv_style_value_t v = lv_obj_get_style_prop(obj, part, LV_STYLE_LINE_OPA);
 493:Drivers/lvgl/src/widgets/slider/../bar/../../core/lv_obj_style_gen.h ****     return (lv_opa_t)v.num;
 494:Drivers/lvgl/src/widgets/slider/../bar/../../core/lv_obj_style_gen.h **** }
 495:Drivers/lvgl/src/widgets/slider/../bar/../../core/lv_obj_style_gen.h **** 
 496:Drivers/lvgl/src/widgets/slider/../bar/../../core/lv_obj_style_gen.h **** static inline int32_t lv_obj_get_style_arc_width(const lv_obj_t * obj, lv_part_t part)
 497:Drivers/lvgl/src/widgets/slider/../bar/../../core/lv_obj_style_gen.h **** {
 498:Drivers/lvgl/src/widgets/slider/../bar/../../core/lv_obj_style_gen.h ****     lv_style_value_t v = lv_obj_get_style_prop(obj, part, LV_STYLE_ARC_WIDTH);
ARM GAS  /tmp/ccq4eqVm.s 			page 38


 499:Drivers/lvgl/src/widgets/slider/../bar/../../core/lv_obj_style_gen.h ****     return (int32_t)v.num;
 500:Drivers/lvgl/src/widgets/slider/../bar/../../core/lv_obj_style_gen.h **** }
 501:Drivers/lvgl/src/widgets/slider/../bar/../../core/lv_obj_style_gen.h **** 
 502:Drivers/lvgl/src/widgets/slider/../bar/../../core/lv_obj_style_gen.h **** static inline bool lv_obj_get_style_arc_rounded(const lv_obj_t * obj, lv_part_t part)
 503:Drivers/lvgl/src/widgets/slider/../bar/../../core/lv_obj_style_gen.h **** {
 504:Drivers/lvgl/src/widgets/slider/../bar/../../core/lv_obj_style_gen.h ****     lv_style_value_t v = lv_obj_get_style_prop(obj, part, LV_STYLE_ARC_ROUNDED);
 505:Drivers/lvgl/src/widgets/slider/../bar/../../core/lv_obj_style_gen.h ****     return (bool)v.num;
 506:Drivers/lvgl/src/widgets/slider/../bar/../../core/lv_obj_style_gen.h **** }
 507:Drivers/lvgl/src/widgets/slider/../bar/../../core/lv_obj_style_gen.h **** 
 508:Drivers/lvgl/src/widgets/slider/../bar/../../core/lv_obj_style_gen.h **** static inline lv_color_t lv_obj_get_style_arc_color(const lv_obj_t * obj, lv_part_t part)
 509:Drivers/lvgl/src/widgets/slider/../bar/../../core/lv_obj_style_gen.h **** {
 510:Drivers/lvgl/src/widgets/slider/../bar/../../core/lv_obj_style_gen.h ****     lv_style_value_t v = lv_obj_get_style_prop(obj, part, LV_STYLE_ARC_COLOR);
 511:Drivers/lvgl/src/widgets/slider/../bar/../../core/lv_obj_style_gen.h ****     return v.color;
 512:Drivers/lvgl/src/widgets/slider/../bar/../../core/lv_obj_style_gen.h **** }
 513:Drivers/lvgl/src/widgets/slider/../bar/../../core/lv_obj_style_gen.h **** 
 514:Drivers/lvgl/src/widgets/slider/../bar/../../core/lv_obj_style_gen.h **** static inline lv_color_t lv_obj_get_style_arc_color_filtered(const lv_obj_t * obj, lv_part_t part)
 515:Drivers/lvgl/src/widgets/slider/../bar/../../core/lv_obj_style_gen.h **** {
 516:Drivers/lvgl/src/widgets/slider/../bar/../../core/lv_obj_style_gen.h ****     lv_style_value_t v = lv_obj_style_apply_color_filter(obj, part, lv_obj_get_style_prop(obj, part
 517:Drivers/lvgl/src/widgets/slider/../bar/../../core/lv_obj_style_gen.h ****     return v.color;
 518:Drivers/lvgl/src/widgets/slider/../bar/../../core/lv_obj_style_gen.h **** }
 519:Drivers/lvgl/src/widgets/slider/../bar/../../core/lv_obj_style_gen.h **** 
 520:Drivers/lvgl/src/widgets/slider/../bar/../../core/lv_obj_style_gen.h **** static inline lv_opa_t lv_obj_get_style_arc_opa(const lv_obj_t * obj, lv_part_t part)
 521:Drivers/lvgl/src/widgets/slider/../bar/../../core/lv_obj_style_gen.h **** {
 522:Drivers/lvgl/src/widgets/slider/../bar/../../core/lv_obj_style_gen.h ****     lv_style_value_t v = lv_obj_get_style_prop(obj, part, LV_STYLE_ARC_OPA);
 523:Drivers/lvgl/src/widgets/slider/../bar/../../core/lv_obj_style_gen.h ****     return (lv_opa_t)v.num;
 524:Drivers/lvgl/src/widgets/slider/../bar/../../core/lv_obj_style_gen.h **** }
 525:Drivers/lvgl/src/widgets/slider/../bar/../../core/lv_obj_style_gen.h **** 
 526:Drivers/lvgl/src/widgets/slider/../bar/../../core/lv_obj_style_gen.h **** static inline const void * lv_obj_get_style_arc_image_src(const lv_obj_t * obj, lv_part_t part)
 527:Drivers/lvgl/src/widgets/slider/../bar/../../core/lv_obj_style_gen.h **** {
 528:Drivers/lvgl/src/widgets/slider/../bar/../../core/lv_obj_style_gen.h ****     lv_style_value_t v = lv_obj_get_style_prop(obj, part, LV_STYLE_ARC_IMAGE_SRC);
 529:Drivers/lvgl/src/widgets/slider/../bar/../../core/lv_obj_style_gen.h ****     return (const void *)v.ptr;
 530:Drivers/lvgl/src/widgets/slider/../bar/../../core/lv_obj_style_gen.h **** }
 531:Drivers/lvgl/src/widgets/slider/../bar/../../core/lv_obj_style_gen.h **** 
 532:Drivers/lvgl/src/widgets/slider/../bar/../../core/lv_obj_style_gen.h **** static inline lv_color_t lv_obj_get_style_text_color(const lv_obj_t * obj, lv_part_t part)
 533:Drivers/lvgl/src/widgets/slider/../bar/../../core/lv_obj_style_gen.h **** {
 534:Drivers/lvgl/src/widgets/slider/../bar/../../core/lv_obj_style_gen.h ****     lv_style_value_t v = lv_obj_get_style_prop(obj, part, LV_STYLE_TEXT_COLOR);
 535:Drivers/lvgl/src/widgets/slider/../bar/../../core/lv_obj_style_gen.h ****     return v.color;
 536:Drivers/lvgl/src/widgets/slider/../bar/../../core/lv_obj_style_gen.h **** }
 537:Drivers/lvgl/src/widgets/slider/../bar/../../core/lv_obj_style_gen.h **** 
 538:Drivers/lvgl/src/widgets/slider/../bar/../../core/lv_obj_style_gen.h **** static inline lv_color_t lv_obj_get_style_text_color_filtered(const lv_obj_t * obj, lv_part_t part)
 539:Drivers/lvgl/src/widgets/slider/../bar/../../core/lv_obj_style_gen.h **** {
 540:Drivers/lvgl/src/widgets/slider/../bar/../../core/lv_obj_style_gen.h ****     lv_style_value_t v = lv_obj_style_apply_color_filter(obj, part, lv_obj_get_style_prop(obj, part
 541:Drivers/lvgl/src/widgets/slider/../bar/../../core/lv_obj_style_gen.h ****     return v.color;
 542:Drivers/lvgl/src/widgets/slider/../bar/../../core/lv_obj_style_gen.h **** }
 543:Drivers/lvgl/src/widgets/slider/../bar/../../core/lv_obj_style_gen.h **** 
 544:Drivers/lvgl/src/widgets/slider/../bar/../../core/lv_obj_style_gen.h **** static inline lv_opa_t lv_obj_get_style_text_opa(const lv_obj_t * obj, lv_part_t part)
 545:Drivers/lvgl/src/widgets/slider/../bar/../../core/lv_obj_style_gen.h **** {
 546:Drivers/lvgl/src/widgets/slider/../bar/../../core/lv_obj_style_gen.h ****     lv_style_value_t v = lv_obj_get_style_prop(obj, part, LV_STYLE_TEXT_OPA);
 547:Drivers/lvgl/src/widgets/slider/../bar/../../core/lv_obj_style_gen.h ****     return (lv_opa_t)v.num;
 548:Drivers/lvgl/src/widgets/slider/../bar/../../core/lv_obj_style_gen.h **** }
 549:Drivers/lvgl/src/widgets/slider/../bar/../../core/lv_obj_style_gen.h **** 
 550:Drivers/lvgl/src/widgets/slider/../bar/../../core/lv_obj_style_gen.h **** static inline const lv_font_t * lv_obj_get_style_text_font(const lv_obj_t * obj, lv_part_t part)
 551:Drivers/lvgl/src/widgets/slider/../bar/../../core/lv_obj_style_gen.h **** {
 552:Drivers/lvgl/src/widgets/slider/../bar/../../core/lv_obj_style_gen.h ****     lv_style_value_t v = lv_obj_get_style_prop(obj, part, LV_STYLE_TEXT_FONT);
 553:Drivers/lvgl/src/widgets/slider/../bar/../../core/lv_obj_style_gen.h ****     return (const lv_font_t *)v.ptr;
 554:Drivers/lvgl/src/widgets/slider/../bar/../../core/lv_obj_style_gen.h **** }
 555:Drivers/lvgl/src/widgets/slider/../bar/../../core/lv_obj_style_gen.h **** 
ARM GAS  /tmp/ccq4eqVm.s 			page 39


 556:Drivers/lvgl/src/widgets/slider/../bar/../../core/lv_obj_style_gen.h **** static inline int32_t lv_obj_get_style_text_letter_space(const lv_obj_t * obj, lv_part_t part)
 557:Drivers/lvgl/src/widgets/slider/../bar/../../core/lv_obj_style_gen.h **** {
 558:Drivers/lvgl/src/widgets/slider/../bar/../../core/lv_obj_style_gen.h ****     lv_style_value_t v = lv_obj_get_style_prop(obj, part, LV_STYLE_TEXT_LETTER_SPACE);
 559:Drivers/lvgl/src/widgets/slider/../bar/../../core/lv_obj_style_gen.h ****     return (int32_t)v.num;
 560:Drivers/lvgl/src/widgets/slider/../bar/../../core/lv_obj_style_gen.h **** }
 561:Drivers/lvgl/src/widgets/slider/../bar/../../core/lv_obj_style_gen.h **** 
 562:Drivers/lvgl/src/widgets/slider/../bar/../../core/lv_obj_style_gen.h **** static inline int32_t lv_obj_get_style_text_line_space(const lv_obj_t * obj, lv_part_t part)
 563:Drivers/lvgl/src/widgets/slider/../bar/../../core/lv_obj_style_gen.h **** {
 564:Drivers/lvgl/src/widgets/slider/../bar/../../core/lv_obj_style_gen.h ****     lv_style_value_t v = lv_obj_get_style_prop(obj, part, LV_STYLE_TEXT_LINE_SPACE);
 565:Drivers/lvgl/src/widgets/slider/../bar/../../core/lv_obj_style_gen.h ****     return (int32_t)v.num;
 566:Drivers/lvgl/src/widgets/slider/../bar/../../core/lv_obj_style_gen.h **** }
 567:Drivers/lvgl/src/widgets/slider/../bar/../../core/lv_obj_style_gen.h **** 
 568:Drivers/lvgl/src/widgets/slider/../bar/../../core/lv_obj_style_gen.h **** static inline lv_text_decor_t lv_obj_get_style_text_decor(const lv_obj_t * obj, lv_part_t part)
 569:Drivers/lvgl/src/widgets/slider/../bar/../../core/lv_obj_style_gen.h **** {
 570:Drivers/lvgl/src/widgets/slider/../bar/../../core/lv_obj_style_gen.h ****     lv_style_value_t v = lv_obj_get_style_prop(obj, part, LV_STYLE_TEXT_DECOR);
 571:Drivers/lvgl/src/widgets/slider/../bar/../../core/lv_obj_style_gen.h ****     return (lv_text_decor_t)v.num;
 572:Drivers/lvgl/src/widgets/slider/../bar/../../core/lv_obj_style_gen.h **** }
 573:Drivers/lvgl/src/widgets/slider/../bar/../../core/lv_obj_style_gen.h **** 
 574:Drivers/lvgl/src/widgets/slider/../bar/../../core/lv_obj_style_gen.h **** static inline lv_text_align_t lv_obj_get_style_text_align(const lv_obj_t * obj, lv_part_t part)
 575:Drivers/lvgl/src/widgets/slider/../bar/../../core/lv_obj_style_gen.h **** {
 576:Drivers/lvgl/src/widgets/slider/../bar/../../core/lv_obj_style_gen.h ****     lv_style_value_t v = lv_obj_get_style_prop(obj, part, LV_STYLE_TEXT_ALIGN);
 577:Drivers/lvgl/src/widgets/slider/../bar/../../core/lv_obj_style_gen.h ****     return (lv_text_align_t)v.num;
 578:Drivers/lvgl/src/widgets/slider/../bar/../../core/lv_obj_style_gen.h **** }
 579:Drivers/lvgl/src/widgets/slider/../bar/../../core/lv_obj_style_gen.h **** 
 580:Drivers/lvgl/src/widgets/slider/../bar/../../core/lv_obj_style_gen.h **** static inline lv_color_t lv_obj_get_style_text_outline_stroke_color(const lv_obj_t * obj, lv_part_t
 581:Drivers/lvgl/src/widgets/slider/../bar/../../core/lv_obj_style_gen.h **** {
 582:Drivers/lvgl/src/widgets/slider/../bar/../../core/lv_obj_style_gen.h ****     lv_style_value_t v = lv_obj_get_style_prop(obj, part, LV_STYLE_TEXT_OUTLINE_STROKE_COLOR);
 583:Drivers/lvgl/src/widgets/slider/../bar/../../core/lv_obj_style_gen.h ****     return v.color;
 584:Drivers/lvgl/src/widgets/slider/../bar/../../core/lv_obj_style_gen.h **** }
 585:Drivers/lvgl/src/widgets/slider/../bar/../../core/lv_obj_style_gen.h **** 
 586:Drivers/lvgl/src/widgets/slider/../bar/../../core/lv_obj_style_gen.h **** static inline lv_color_t lv_obj_get_style_text_outline_stroke_color_filtered(const lv_obj_t * obj, 
 587:Drivers/lvgl/src/widgets/slider/../bar/../../core/lv_obj_style_gen.h **** {
 588:Drivers/lvgl/src/widgets/slider/../bar/../../core/lv_obj_style_gen.h ****     lv_style_value_t v = lv_obj_style_apply_color_filter(obj, part, lv_obj_get_style_prop(obj, part
 589:Drivers/lvgl/src/widgets/slider/../bar/../../core/lv_obj_style_gen.h ****     return v.color;
 590:Drivers/lvgl/src/widgets/slider/../bar/../../core/lv_obj_style_gen.h **** }
 591:Drivers/lvgl/src/widgets/slider/../bar/../../core/lv_obj_style_gen.h **** 
 592:Drivers/lvgl/src/widgets/slider/../bar/../../core/lv_obj_style_gen.h **** static inline int32_t lv_obj_get_style_text_outline_stroke_width(const lv_obj_t * obj, lv_part_t pa
 593:Drivers/lvgl/src/widgets/slider/../bar/../../core/lv_obj_style_gen.h **** {
 594:Drivers/lvgl/src/widgets/slider/../bar/../../core/lv_obj_style_gen.h ****     lv_style_value_t v = lv_obj_get_style_prop(obj, part, LV_STYLE_TEXT_OUTLINE_STROKE_WIDTH);
 595:Drivers/lvgl/src/widgets/slider/../bar/../../core/lv_obj_style_gen.h ****     return (int32_t)v.num;
 596:Drivers/lvgl/src/widgets/slider/../bar/../../core/lv_obj_style_gen.h **** }
 597:Drivers/lvgl/src/widgets/slider/../bar/../../core/lv_obj_style_gen.h **** 
 598:Drivers/lvgl/src/widgets/slider/../bar/../../core/lv_obj_style_gen.h **** static inline lv_opa_t lv_obj_get_style_text_outline_stroke_opa(const lv_obj_t * obj, lv_part_t par
 599:Drivers/lvgl/src/widgets/slider/../bar/../../core/lv_obj_style_gen.h **** {
 600:Drivers/lvgl/src/widgets/slider/../bar/../../core/lv_obj_style_gen.h ****     lv_style_value_t v = lv_obj_get_style_prop(obj, part, LV_STYLE_TEXT_OUTLINE_STROKE_OPA);
 601:Drivers/lvgl/src/widgets/slider/../bar/../../core/lv_obj_style_gen.h ****     return (lv_opa_t)v.num;
 602:Drivers/lvgl/src/widgets/slider/../bar/../../core/lv_obj_style_gen.h **** }
 603:Drivers/lvgl/src/widgets/slider/../bar/../../core/lv_obj_style_gen.h **** 
 604:Drivers/lvgl/src/widgets/slider/../bar/../../core/lv_obj_style_gen.h **** static inline int32_t lv_obj_get_style_radius(const lv_obj_t * obj, lv_part_t part)
 605:Drivers/lvgl/src/widgets/slider/../bar/../../core/lv_obj_style_gen.h **** {
 606:Drivers/lvgl/src/widgets/slider/../bar/../../core/lv_obj_style_gen.h ****     lv_style_value_t v = lv_obj_get_style_prop(obj, part, LV_STYLE_RADIUS);
 607:Drivers/lvgl/src/widgets/slider/../bar/../../core/lv_obj_style_gen.h ****     return (int32_t)v.num;
 608:Drivers/lvgl/src/widgets/slider/../bar/../../core/lv_obj_style_gen.h **** }
 609:Drivers/lvgl/src/widgets/slider/../bar/../../core/lv_obj_style_gen.h **** 
 610:Drivers/lvgl/src/widgets/slider/../bar/../../core/lv_obj_style_gen.h **** static inline int32_t lv_obj_get_style_radial_offset(const lv_obj_t * obj, lv_part_t part)
 611:Drivers/lvgl/src/widgets/slider/../bar/../../core/lv_obj_style_gen.h **** {
 612:Drivers/lvgl/src/widgets/slider/../bar/../../core/lv_obj_style_gen.h ****     lv_style_value_t v = lv_obj_get_style_prop(obj, part, LV_STYLE_RADIAL_OFFSET);
ARM GAS  /tmp/ccq4eqVm.s 			page 40


 613:Drivers/lvgl/src/widgets/slider/../bar/../../core/lv_obj_style_gen.h ****     return (int32_t)v.num;
 614:Drivers/lvgl/src/widgets/slider/../bar/../../core/lv_obj_style_gen.h **** }
 615:Drivers/lvgl/src/widgets/slider/../bar/../../core/lv_obj_style_gen.h **** 
 616:Drivers/lvgl/src/widgets/slider/../bar/../../core/lv_obj_style_gen.h **** static inline bool lv_obj_get_style_clip_corner(const lv_obj_t * obj, lv_part_t part)
 617:Drivers/lvgl/src/widgets/slider/../bar/../../core/lv_obj_style_gen.h **** {
 618:Drivers/lvgl/src/widgets/slider/../bar/../../core/lv_obj_style_gen.h ****     lv_style_value_t v = lv_obj_get_style_prop(obj, part, LV_STYLE_CLIP_CORNER);
 619:Drivers/lvgl/src/widgets/slider/../bar/../../core/lv_obj_style_gen.h ****     return (bool)v.num;
 620:Drivers/lvgl/src/widgets/slider/../bar/../../core/lv_obj_style_gen.h **** }
 621:Drivers/lvgl/src/widgets/slider/../bar/../../core/lv_obj_style_gen.h **** 
 622:Drivers/lvgl/src/widgets/slider/../bar/../../core/lv_obj_style_gen.h **** static inline lv_opa_t lv_obj_get_style_opa(const lv_obj_t * obj, lv_part_t part)
 623:Drivers/lvgl/src/widgets/slider/../bar/../../core/lv_obj_style_gen.h **** {
 624:Drivers/lvgl/src/widgets/slider/../bar/../../core/lv_obj_style_gen.h ****     lv_style_value_t v = lv_obj_get_style_prop(obj, part, LV_STYLE_OPA);
 625:Drivers/lvgl/src/widgets/slider/../bar/../../core/lv_obj_style_gen.h ****     return (lv_opa_t)v.num;
 626:Drivers/lvgl/src/widgets/slider/../bar/../../core/lv_obj_style_gen.h **** }
 627:Drivers/lvgl/src/widgets/slider/../bar/../../core/lv_obj_style_gen.h **** 
 628:Drivers/lvgl/src/widgets/slider/../bar/../../core/lv_obj_style_gen.h **** static inline lv_opa_t lv_obj_get_style_opa_layered(const lv_obj_t * obj, lv_part_t part)
 629:Drivers/lvgl/src/widgets/slider/../bar/../../core/lv_obj_style_gen.h **** {
 630:Drivers/lvgl/src/widgets/slider/../bar/../../core/lv_obj_style_gen.h ****     lv_style_value_t v = lv_obj_get_style_prop(obj, part, LV_STYLE_OPA_LAYERED);
 631:Drivers/lvgl/src/widgets/slider/../bar/../../core/lv_obj_style_gen.h ****     return (lv_opa_t)v.num;
 632:Drivers/lvgl/src/widgets/slider/../bar/../../core/lv_obj_style_gen.h **** }
 633:Drivers/lvgl/src/widgets/slider/../bar/../../core/lv_obj_style_gen.h **** 
 634:Drivers/lvgl/src/widgets/slider/../bar/../../core/lv_obj_style_gen.h **** static inline const lv_color_filter_dsc_t * lv_obj_get_style_color_filter_dsc(const lv_obj_t * obj,
 635:Drivers/lvgl/src/widgets/slider/../bar/../../core/lv_obj_style_gen.h **** {
 636:Drivers/lvgl/src/widgets/slider/../bar/../../core/lv_obj_style_gen.h ****     lv_style_value_t v = lv_obj_get_style_prop(obj, part, LV_STYLE_COLOR_FILTER_DSC);
 637:Drivers/lvgl/src/widgets/slider/../bar/../../core/lv_obj_style_gen.h ****     return (const lv_color_filter_dsc_t *)v.ptr;
 638:Drivers/lvgl/src/widgets/slider/../bar/../../core/lv_obj_style_gen.h **** }
 639:Drivers/lvgl/src/widgets/slider/../bar/../../core/lv_obj_style_gen.h **** 
 640:Drivers/lvgl/src/widgets/slider/../bar/../../core/lv_obj_style_gen.h **** static inline lv_opa_t lv_obj_get_style_color_filter_opa(const lv_obj_t * obj, lv_part_t part)
 641:Drivers/lvgl/src/widgets/slider/../bar/../../core/lv_obj_style_gen.h **** {
 642:Drivers/lvgl/src/widgets/slider/../bar/../../core/lv_obj_style_gen.h ****     lv_style_value_t v = lv_obj_get_style_prop(obj, part, LV_STYLE_COLOR_FILTER_OPA);
 643:Drivers/lvgl/src/widgets/slider/../bar/../../core/lv_obj_style_gen.h ****     return (lv_opa_t)v.num;
 644:Drivers/lvgl/src/widgets/slider/../bar/../../core/lv_obj_style_gen.h **** }
 645:Drivers/lvgl/src/widgets/slider/../bar/../../core/lv_obj_style_gen.h **** 
 646:Drivers/lvgl/src/widgets/slider/../bar/../../core/lv_obj_style_gen.h **** static inline lv_color_t lv_obj_get_style_recolor(const lv_obj_t * obj, lv_part_t part)
 647:Drivers/lvgl/src/widgets/slider/../bar/../../core/lv_obj_style_gen.h **** {
 648:Drivers/lvgl/src/widgets/slider/../bar/../../core/lv_obj_style_gen.h ****     lv_style_value_t v = lv_obj_get_style_prop(obj, part, LV_STYLE_RECOLOR);
 649:Drivers/lvgl/src/widgets/slider/../bar/../../core/lv_obj_style_gen.h ****     return v.color;
 650:Drivers/lvgl/src/widgets/slider/../bar/../../core/lv_obj_style_gen.h **** }
 651:Drivers/lvgl/src/widgets/slider/../bar/../../core/lv_obj_style_gen.h **** 
 652:Drivers/lvgl/src/widgets/slider/../bar/../../core/lv_obj_style_gen.h **** static inline lv_opa_t lv_obj_get_style_recolor_opa(const lv_obj_t * obj, lv_part_t part)
 653:Drivers/lvgl/src/widgets/slider/../bar/../../core/lv_obj_style_gen.h **** {
 654:Drivers/lvgl/src/widgets/slider/../bar/../../core/lv_obj_style_gen.h ****     lv_style_value_t v = lv_obj_get_style_prop(obj, part, LV_STYLE_RECOLOR_OPA);
 655:Drivers/lvgl/src/widgets/slider/../bar/../../core/lv_obj_style_gen.h ****     return (lv_opa_t)v.num;
 656:Drivers/lvgl/src/widgets/slider/../bar/../../core/lv_obj_style_gen.h **** }
 657:Drivers/lvgl/src/widgets/slider/../bar/../../core/lv_obj_style_gen.h **** 
 658:Drivers/lvgl/src/widgets/slider/../bar/../../core/lv_obj_style_gen.h **** static inline const lv_anim_t * lv_obj_get_style_anim(const lv_obj_t * obj, lv_part_t part)
 659:Drivers/lvgl/src/widgets/slider/../bar/../../core/lv_obj_style_gen.h **** {
 660:Drivers/lvgl/src/widgets/slider/../bar/../../core/lv_obj_style_gen.h ****     lv_style_value_t v = lv_obj_get_style_prop(obj, part, LV_STYLE_ANIM);
 661:Drivers/lvgl/src/widgets/slider/../bar/../../core/lv_obj_style_gen.h ****     return (const lv_anim_t *)v.ptr;
 662:Drivers/lvgl/src/widgets/slider/../bar/../../core/lv_obj_style_gen.h **** }
 663:Drivers/lvgl/src/widgets/slider/../bar/../../core/lv_obj_style_gen.h **** 
 664:Drivers/lvgl/src/widgets/slider/../bar/../../core/lv_obj_style_gen.h **** static inline uint32_t lv_obj_get_style_anim_duration(const lv_obj_t * obj, lv_part_t part)
 665:Drivers/lvgl/src/widgets/slider/../bar/../../core/lv_obj_style_gen.h **** {
 666:Drivers/lvgl/src/widgets/slider/../bar/../../core/lv_obj_style_gen.h ****     lv_style_value_t v = lv_obj_get_style_prop(obj, part, LV_STYLE_ANIM_DURATION);
 667:Drivers/lvgl/src/widgets/slider/../bar/../../core/lv_obj_style_gen.h ****     return (uint32_t)v.num;
 668:Drivers/lvgl/src/widgets/slider/../bar/../../core/lv_obj_style_gen.h **** }
 669:Drivers/lvgl/src/widgets/slider/../bar/../../core/lv_obj_style_gen.h **** 
ARM GAS  /tmp/ccq4eqVm.s 			page 41


 670:Drivers/lvgl/src/widgets/slider/../bar/../../core/lv_obj_style_gen.h **** static inline const lv_style_transition_dsc_t * lv_obj_get_style_transition(const lv_obj_t * obj, l
 671:Drivers/lvgl/src/widgets/slider/../bar/../../core/lv_obj_style_gen.h **** {
 672:Drivers/lvgl/src/widgets/slider/../bar/../../core/lv_obj_style_gen.h ****     lv_style_value_t v = lv_obj_get_style_prop(obj, part, LV_STYLE_TRANSITION);
 673:Drivers/lvgl/src/widgets/slider/../bar/../../core/lv_obj_style_gen.h ****     return (const lv_style_transition_dsc_t *)v.ptr;
 674:Drivers/lvgl/src/widgets/slider/../bar/../../core/lv_obj_style_gen.h **** }
 675:Drivers/lvgl/src/widgets/slider/../bar/../../core/lv_obj_style_gen.h **** 
 676:Drivers/lvgl/src/widgets/slider/../bar/../../core/lv_obj_style_gen.h **** static inline lv_blend_mode_t lv_obj_get_style_blend_mode(const lv_obj_t * obj, lv_part_t part)
 677:Drivers/lvgl/src/widgets/slider/../bar/../../core/lv_obj_style_gen.h **** {
 678:Drivers/lvgl/src/widgets/slider/../bar/../../core/lv_obj_style_gen.h ****     lv_style_value_t v = lv_obj_get_style_prop(obj, part, LV_STYLE_BLEND_MODE);
 679:Drivers/lvgl/src/widgets/slider/../bar/../../core/lv_obj_style_gen.h ****     return (lv_blend_mode_t)v.num;
 680:Drivers/lvgl/src/widgets/slider/../bar/../../core/lv_obj_style_gen.h **** }
 681:Drivers/lvgl/src/widgets/slider/../bar/../../core/lv_obj_style_gen.h **** 
 682:Drivers/lvgl/src/widgets/slider/../bar/../../core/lv_obj_style_gen.h **** static inline uint16_t lv_obj_get_style_layout(const lv_obj_t * obj, lv_part_t part)
 683:Drivers/lvgl/src/widgets/slider/../bar/../../core/lv_obj_style_gen.h **** {
 684:Drivers/lvgl/src/widgets/slider/../bar/../../core/lv_obj_style_gen.h ****     lv_style_value_t v = lv_obj_get_style_prop(obj, part, LV_STYLE_LAYOUT);
 685:Drivers/lvgl/src/widgets/slider/../bar/../../core/lv_obj_style_gen.h ****     return (uint16_t)v.num;
 686:Drivers/lvgl/src/widgets/slider/../bar/../../core/lv_obj_style_gen.h **** }
 687:Drivers/lvgl/src/widgets/slider/../bar/../../core/lv_obj_style_gen.h **** 
 688:Drivers/lvgl/src/widgets/slider/../bar/../../core/lv_obj_style_gen.h **** static inline lv_base_dir_t lv_obj_get_style_base_dir(const lv_obj_t * obj, lv_part_t part)
 920              		.loc 2 688 29 view .LVU232
 921              	.LBB74:
 689:Drivers/lvgl/src/widgets/slider/../bar/../../core/lv_obj_style_gen.h **** {
 690:Drivers/lvgl/src/widgets/slider/../bar/../../core/lv_obj_style_gen.h ****     lv_style_value_t v = lv_obj_get_style_prop(obj, part, LV_STYLE_BASE_DIR);
 922              		.loc 2 690 5 view .LVU233
 923              		.loc 2 690 26 is_stmt 0 view .LVU234
 924 0042 2722     		movs	r2, #39
 925 0044 0021     		movs	r1, #0
 926 0046 2046     		mov	r0, r4
 927 0048 FFF7FEFF 		bl	lv_obj_get_style_prop
 928              	.LVL86:
 929 004c 0190     		str	r0, [sp, #4]
 691:Drivers/lvgl/src/widgets/slider/../bar/../../core/lv_obj_style_gen.h ****     return (lv_base_dir_t)v.num;
 930              		.loc 2 691 5 is_stmt 1 view .LVU235
 931              		.loc 2 691 12 is_stmt 0 view .LVU236
 932 004e C0B2     		uxtb	r0, r0
 933              	.LVL87:
 934              		.loc 2 691 12 view .LVU237
 935              	.LBE74:
 936              	.LBE73:
 480:Drivers/lvgl/src/widgets/slider/lv_slider.c ****         const bool is_horizontal = is_slider_horizontal(obj);
 937              		.loc 1 480 20 discriminator 1 view .LVU238
 938 0050 0128     		cmp	r0, #1
 939 0052 14BF     		ite	ne
 940 0054 0025     		movne	r5, #0
 941 0056 0125     		moveq	r5, #1
 942              	.LVL88:
 481:Drivers/lvgl/src/widgets/slider/lv_slider.c ****         const bool is_reversed = slider->bar.val_reversed ^ (is_rtl && is_horizontal);
 943              		.loc 1 481 9 is_stmt 1 view .LVU239
 481:Drivers/lvgl/src/widgets/slider/lv_slider.c ****         const bool is_reversed = slider->bar.val_reversed ^ (is_rtl && is_horizontal);
 944              		.loc 1 481 36 is_stmt 0 view .LVU240
 945 0058 2046     		mov	r0, r4
 946 005a FFF7FEFF 		bl	is_slider_horizontal
 947              	.LVL89:
 482:Drivers/lvgl/src/widgets/slider/lv_slider.c ****         int32_t dist_left, dist_right;
 948              		.loc 1 482 9 is_stmt 1 view .LVU241
 482:Drivers/lvgl/src/widgets/slider/lv_slider.c ****         int32_t dist_left, dist_right;
 949              		.loc 1 482 45 is_stmt 0 view .LVU242
ARM GAS  /tmp/ccq4eqVm.s 			page 42


 950 005e 94F84C20 		ldrb	r2, [r4, #76]	@ zero_extendqisi2
 482:Drivers/lvgl/src/widgets/slider/lv_slider.c ****         int32_t dist_left, dist_right;
 951              		.loc 1 482 69 view .LVU243
 952 0062 05EA0003 		and	r3, r5, r0
 953              	.LVL90:
 483:Drivers/lvgl/src/widgets/slider/lv_slider.c ****         if(is_horizontal) {
 954              		.loc 1 483 9 is_stmt 1 view .LVU244
 484:Drivers/lvgl/src/widgets/slider/lv_slider.c ****             if((!is_reversed && p.x > slider->right_knob_area.x2) || (is_reversed && p.x < slider->
 955              		.loc 1 484 9 view .LVU245
 484:Drivers/lvgl/src/widgets/slider/lv_slider.c ****             if((!is_reversed && p.x > slider->right_knob_area.x2) || (is_reversed && p.x < slider->
 956              		.loc 1 484 11 is_stmt 0 view .LVU246
 957 0066 0028     		cmp	r0, #0
 958 0068 58D0     		beq	.L51
 485:Drivers/lvgl/src/widgets/slider/lv_slider.c ****                 slider->value_to_set = &slider->bar.cur_value;
 959              		.loc 1 485 13 is_stmt 1 view .LVU247
 485:Drivers/lvgl/src/widgets/slider/lv_slider.c ****                 slider->value_to_set = &slider->bar.cur_value;
 960              		.loc 1 485 15 is_stmt 0 view .LVU248
 961 006a 9A42     		cmp	r2, r3
 962 006c 0BD0     		beq	.L73
 963              	.LVL91:
 964              	.L52:
 485:Drivers/lvgl/src/widgets/slider/lv_slider.c ****                 slider->value_to_set = &slider->bar.cur_value;
 965              		.loc 1 485 67 discriminator 3 view .LVU249
 966 006e 9A42     		cmp	r2, r3
 967 0070 0FD0     		beq	.L54
 485:Drivers/lvgl/src/widgets/slider/lv_slider.c ****                 slider->value_to_set = &slider->bar.cur_value;
 968              		.loc 1 485 115 discriminator 4 view .LVU250
 969 0072 D4F88410 		ldr	r1, [r4, #132]
 485:Drivers/lvgl/src/widgets/slider/lv_slider.c ****                 slider->value_to_set = &slider->bar.cur_value;
 970              		.loc 1 485 83 discriminator 4 view .LVU251
 971 0076 0298     		ldr	r0, [sp, #8]
 972 0078 8842     		cmp	r0, r1
 973 007a 0ADA     		bge	.L54
 974              	.L53:
 486:Drivers/lvgl/src/widgets/slider/lv_slider.c ****             }
 975              		.loc 1 486 17 is_stmt 1 view .LVU252
 486:Drivers/lvgl/src/widgets/slider/lv_slider.c ****             }
 976              		.loc 1 486 40 is_stmt 0 view .LVU253
 977 007c 04F12C03 		add	r3, r4, #44
 978              	.LVL92:
 486:Drivers/lvgl/src/widgets/slider/lv_slider.c ****             }
 979              		.loc 1 486 38 view .LVU254
 980 0080 C4F89C30 		str	r3, [r4, #156]
 981 0084 CBE7     		b	.L48
 982              	.LVL93:
 983              	.L73:
 485:Drivers/lvgl/src/widgets/slider/lv_slider.c ****                 slider->value_to_set = &slider->bar.cur_value;
 984              		.loc 1 485 62 discriminator 1 view .LVU255
 985 0086 D4F88C10 		ldr	r1, [r4, #140]
 485:Drivers/lvgl/src/widgets/slider/lv_slider.c ****                 slider->value_to_set = &slider->bar.cur_value;
 986              		.loc 1 485 30 discriminator 1 view .LVU256
 987 008a 0298     		ldr	r0, [sp, #8]
 988              	.LVL94:
 485:Drivers/lvgl/src/widgets/slider/lv_slider.c ****                 slider->value_to_set = &slider->bar.cur_value;
 989              		.loc 1 485 30 discriminator 1 view .LVU257
 990 008c 8842     		cmp	r0, r1
 991 008e F5DC     		bgt	.L53
ARM GAS  /tmp/ccq4eqVm.s 			page 43


 992 0090 EDE7     		b	.L52
 993              	.L54:
 488:Drivers/lvgl/src/widgets/slider/lv_slider.c ****                 slider->value_to_set = &slider->bar.start_value;
 994              		.loc 1 488 18 is_stmt 1 view .LVU258
 488:Drivers/lvgl/src/widgets/slider/lv_slider.c ****                 slider->value_to_set = &slider->bar.start_value;
 995              		.loc 1 488 20 is_stmt 0 view .LVU259
 996 0092 9A42     		cmp	r2, r3
 997 0094 0AD0     		beq	.L74
 998              	.L55:
 488:Drivers/lvgl/src/widgets/slider/lv_slider.c ****                 slider->value_to_set = &slider->bar.start_value;
 999              		.loc 1 488 71 discriminator 3 view .LVU260
 1000 0096 9A42     		cmp	r2, r3
 1001 0098 0DD0     		beq	.L57
 488:Drivers/lvgl/src/widgets/slider/lv_slider.c ****                 slider->value_to_set = &slider->bar.start_value;
 1002              		.loc 1 488 118 discriminator 4 view .LVU261
 1003 009a E36F     		ldr	r3, [r4, #124]
 1004              	.LVL95:
 488:Drivers/lvgl/src/widgets/slider/lv_slider.c ****                 slider->value_to_set = &slider->bar.start_value;
 1005              		.loc 1 488 87 discriminator 4 view .LVU262
 1006 009c 029A     		ldr	r2, [sp, #8]
 488:Drivers/lvgl/src/widgets/slider/lv_slider.c ****                 slider->value_to_set = &slider->bar.start_value;
 1007              		.loc 1 488 87 discriminator 4 view .LVU263
 1008 009e 9A42     		cmp	r2, r3
 1009 00a0 09DD     		ble	.L57
 1010              	.L56:
 489:Drivers/lvgl/src/widgets/slider/lv_slider.c ****             }
 1011              		.loc 1 489 17 is_stmt 1 view .LVU264
 489:Drivers/lvgl/src/widgets/slider/lv_slider.c ****             }
 1012              		.loc 1 489 40 is_stmt 0 view .LVU265
 1013 00a2 04F13803 		add	r3, r4, #56
 489:Drivers/lvgl/src/widgets/slider/lv_slider.c ****             }
 1014              		.loc 1 489 38 view .LVU266
 1015 00a6 C4F89C30 		str	r3, [r4, #156]
 1016 00aa B8E7     		b	.L48
 1017              	.LVL96:
 1018              	.L74:
 488:Drivers/lvgl/src/widgets/slider/lv_slider.c ****                 slider->value_to_set = &slider->bar.start_value;
 1019              		.loc 1 488 66 discriminator 1 view .LVU267
 1020 00ac 616F     		ldr	r1, [r4, #116]
 488:Drivers/lvgl/src/widgets/slider/lv_slider.c ****                 slider->value_to_set = &slider->bar.start_value;
 1021              		.loc 1 488 35 discriminator 1 view .LVU268
 1022 00ae 0298     		ldr	r0, [sp, #8]
 1023 00b0 8842     		cmp	r0, r1
 1024 00b2 F6DB     		blt	.L56
 1025 00b4 EFE7     		b	.L55
 1026              	.LVL97:
 1027              	.L57:
 493:Drivers/lvgl/src/widgets/slider/lv_slider.c ****                 dist_right = LV_ABS((slider->right_knob_area.x1 + (slider->right_knob_area.x2 - sli
 1028              		.loc 1 493 17 is_stmt 1 view .LVU269
 493:Drivers/lvgl/src/widgets/slider/lv_slider.c ****                 dist_right = LV_ABS((slider->right_knob_area.x1 + (slider->right_knob_area.x2 - sli
 1029              		.loc 1 493 29 is_stmt 0 view .LVU270
 1030 00b6 636F     		ldr	r3, [r4, #116]
 1031 00b8 E26F     		ldr	r2, [r4, #124]
 1032 00ba D21A     		subs	r2, r2, r3
 1033 00bc 1FD4     		bmi	.L75
 1034              	.L58:
 1035 00be 03EB6202 		add	r2, r3, r2, asr #1
ARM GAS  /tmp/ccq4eqVm.s 			page 44


 1036 00c2 0298     		ldr	r0, [sp, #8]
 1037 00c4 121A     		subs	r2, r2, r0
 493:Drivers/lvgl/src/widgets/slider/lv_slider.c ****                 dist_right = LV_ABS((slider->right_knob_area.x1 + (slider->right_knob_area.x2 - sli
 1038              		.loc 1 493 27 view .LVU271
 1039 00c6 002A     		cmp	r2, #0
 1040 00c8 B8BF     		it	lt
 1041 00ca 5242     		rsblt	r2, r2, #0
 1042              	.LVL98:
 494:Drivers/lvgl/src/widgets/slider/lv_slider.c ****                 /*Use whichever one is closer*/
 1043              		.loc 1 494 17 is_stmt 1 view .LVU272
 494:Drivers/lvgl/src/widgets/slider/lv_slider.c ****                 /*Use whichever one is closer*/
 1044              		.loc 1 494 30 is_stmt 0 view .LVU273
 1045 00cc D4F88430 		ldr	r3, [r4, #132]
 1046 00d0 D4F88C10 		ldr	r1, [r4, #140]
 1047 00d4 C91A     		subs	r1, r1, r3
 1048 00d6 14D4     		bmi	.L76
 1049              	.L59:
 1050 00d8 03EB6103 		add	r3, r3, r1, asr #1
 1051 00dc 1B1A     		subs	r3, r3, r0
 494:Drivers/lvgl/src/widgets/slider/lv_slider.c ****                 /*Use whichever one is closer*/
 1052              		.loc 1 494 28 view .LVU274
 1053 00de 002B     		cmp	r3, #0
 1054 00e0 B8BF     		it	lt
 1055 00e2 5B42     		rsblt	r3, r3, #0
 1056              	.LVL99:
 496:Drivers/lvgl/src/widgets/slider/lv_slider.c ****                     slider->value_to_set = &slider->bar.cur_value;
 1057              		.loc 1 496 17 is_stmt 1 view .LVU275
 496:Drivers/lvgl/src/widgets/slider/lv_slider.c ****                     slider->value_to_set = &slider->bar.cur_value;
 1058              		.loc 1 496 19 is_stmt 0 view .LVU276
 1059 00e4 9A42     		cmp	r2, r3
 1060 00e6 0EDD     		ble	.L60
 497:Drivers/lvgl/src/widgets/slider/lv_slider.c ****                     slider->left_knob_focus = 0;
 1061              		.loc 1 497 21 is_stmt 1 view .LVU277
 497:Drivers/lvgl/src/widgets/slider/lv_slider.c ****                     slider->left_knob_focus = 0;
 1062              		.loc 1 497 44 is_stmt 0 view .LVU278
 1063 00e8 04F12C03 		add	r3, r4, #44
 1064              	.LVL100:
 497:Drivers/lvgl/src/widgets/slider/lv_slider.c ****                     slider->left_knob_focus = 0;
 1065              		.loc 1 497 42 view .LVU279
 1066 00ec C4F89C30 		str	r3, [r4, #156]
 498:Drivers/lvgl/src/widgets/slider/lv_slider.c ****                 }
 1067              		.loc 1 498 21 is_stmt 1 view .LVU280
 498:Drivers/lvgl/src/widgets/slider/lv_slider.c ****                 }
 1068              		.loc 1 498 45 is_stmt 0 view .LVU281
 1069 00f0 94F8A030 		ldrb	r3, [r4, #160]	@ zero_extendqisi2
 1070 00f4 23F00203 		bic	r3, r3, #2
 1071 00f8 84F8A030 		strb	r3, [r4, #160]
 1072 00fc 8FE7     		b	.L48
 1073              	.LVL101:
 1074              	.L75:
 493:Drivers/lvgl/src/widgets/slider/lv_slider.c ****                 dist_right = LV_ABS((slider->right_knob_area.x1 + (slider->right_knob_area.x2 - sli
 1075              		.loc 1 493 29 view .LVU282
 1076 00fe 0132     		adds	r2, r2, #1
 1077 0100 DDE7     		b	.L58
 1078              	.LVL102:
 1079              	.L76:
 494:Drivers/lvgl/src/widgets/slider/lv_slider.c ****                 /*Use whichever one is closer*/
ARM GAS  /tmp/ccq4eqVm.s 			page 45


 1080              		.loc 1 494 30 view .LVU283
 1081 0102 0131     		adds	r1, r1, #1
 1082 0104 E8E7     		b	.L59
 1083              	.LVL103:
 1084              	.L60:
 501:Drivers/lvgl/src/widgets/slider/lv_slider.c ****                     slider->left_knob_focus = 1;
 1085              		.loc 1 501 21 is_stmt 1 view .LVU284
 501:Drivers/lvgl/src/widgets/slider/lv_slider.c ****                     slider->left_knob_focus = 1;
 1086              		.loc 1 501 44 is_stmt 0 view .LVU285
 1087 0106 04F13803 		add	r3, r4, #56
 1088              	.LVL104:
 501:Drivers/lvgl/src/widgets/slider/lv_slider.c ****                     slider->left_knob_focus = 1;
 1089              		.loc 1 501 42 view .LVU286
 1090 010a C4F89C30 		str	r3, [r4, #156]
 502:Drivers/lvgl/src/widgets/slider/lv_slider.c ****                 }
 1091              		.loc 1 502 21 is_stmt 1 view .LVU287
 502:Drivers/lvgl/src/widgets/slider/lv_slider.c ****                 }
 1092              		.loc 1 502 45 is_stmt 0 view .LVU288
 1093 010e 94F8A030 		ldrb	r3, [r4, #160]	@ zero_extendqisi2
 1094 0112 43F00203 		orr	r3, r3, #2
 1095 0116 84F8A030 		strb	r3, [r4, #160]
 1096 011a 80E7     		b	.L48
 1097              	.LVL105:
 1098              	.L51:
 507:Drivers/lvgl/src/widgets/slider/lv_slider.c ****                 slider->value_to_set = &slider->bar.cur_value;
 1099              		.loc 1 507 13 is_stmt 1 view .LVU289
 507:Drivers/lvgl/src/widgets/slider/lv_slider.c ****                 slider->value_to_set = &slider->bar.cur_value;
 1100              		.loc 1 507 15 is_stmt 0 view .LVU290
 1101 011c 9A42     		cmp	r2, r3
 1102 011e 0BD0     		beq	.L77
 1103              	.LVL106:
 1104              	.L61:
 507:Drivers/lvgl/src/widgets/slider/lv_slider.c ****                 slider->value_to_set = &slider->bar.cur_value;
 1105              		.loc 1 507 67 discriminator 3 view .LVU291
 1106 0120 9A42     		cmp	r2, r3
 1107 0122 0FD0     		beq	.L63
 507:Drivers/lvgl/src/widgets/slider/lv_slider.c ****                 slider->value_to_set = &slider->bar.cur_value;
 1108              		.loc 1 507 115 discriminator 4 view .LVU292
 1109 0124 D4F89010 		ldr	r1, [r4, #144]
 507:Drivers/lvgl/src/widgets/slider/lv_slider.c ****                 slider->value_to_set = &slider->bar.cur_value;
 1110              		.loc 1 507 83 discriminator 4 view .LVU293
 1111 0128 0398     		ldr	r0, [sp, #12]
 1112 012a 8842     		cmp	r0, r1
 1113 012c 0ADD     		ble	.L63
 1114              	.L62:
 508:Drivers/lvgl/src/widgets/slider/lv_slider.c ****             }
 1115              		.loc 1 508 17 is_stmt 1 view .LVU294
 508:Drivers/lvgl/src/widgets/slider/lv_slider.c ****             }
 1116              		.loc 1 508 40 is_stmt 0 view .LVU295
 1117 012e 04F12C03 		add	r3, r4, #44
 1118              	.LVL107:
 508:Drivers/lvgl/src/widgets/slider/lv_slider.c ****             }
 1119              		.loc 1 508 38 view .LVU296
 1120 0132 C4F89C30 		str	r3, [r4, #156]
 1121 0136 72E7     		b	.L48
 1122              	.LVL108:
 1123              	.L77:
ARM GAS  /tmp/ccq4eqVm.s 			page 46


 507:Drivers/lvgl/src/widgets/slider/lv_slider.c ****                 slider->value_to_set = &slider->bar.cur_value;
 1124              		.loc 1 507 62 discriminator 1 view .LVU297
 1125 0138 D4F88810 		ldr	r1, [r4, #136]
 507:Drivers/lvgl/src/widgets/slider/lv_slider.c ****                 slider->value_to_set = &slider->bar.cur_value;
 1126              		.loc 1 507 30 discriminator 1 view .LVU298
 1127 013c 0398     		ldr	r0, [sp, #12]
 1128              	.LVL109:
 507:Drivers/lvgl/src/widgets/slider/lv_slider.c ****                 slider->value_to_set = &slider->bar.cur_value;
 1129              		.loc 1 507 30 discriminator 1 view .LVU299
 1130 013e 8842     		cmp	r0, r1
 1131 0140 F5DB     		blt	.L62
 1132 0142 EDE7     		b	.L61
 1133              	.L63:
 510:Drivers/lvgl/src/widgets/slider/lv_slider.c ****                 slider->value_to_set = &slider->bar.start_value;
 1134              		.loc 1 510 18 is_stmt 1 view .LVU300
 510:Drivers/lvgl/src/widgets/slider/lv_slider.c ****                 slider->value_to_set = &slider->bar.start_value;
 1135              		.loc 1 510 20 is_stmt 0 view .LVU301
 1136 0144 9A42     		cmp	r2, r3
 1137 0146 0AD0     		beq	.L78
 1138              	.L64:
 510:Drivers/lvgl/src/widgets/slider/lv_slider.c ****                 slider->value_to_set = &slider->bar.start_value;
 1139              		.loc 1 510 71 discriminator 3 view .LVU302
 1140 0148 9A42     		cmp	r2, r3
 1141 014a 0ED0     		beq	.L66
 510:Drivers/lvgl/src/widgets/slider/lv_slider.c ****                 slider->value_to_set = &slider->bar.start_value;
 1142              		.loc 1 510 118 discriminator 4 view .LVU303
 1143 014c A36F     		ldr	r3, [r4, #120]
 1144              	.LVL110:
 510:Drivers/lvgl/src/widgets/slider/lv_slider.c ****                 slider->value_to_set = &slider->bar.start_value;
 1145              		.loc 1 510 87 discriminator 4 view .LVU304
 1146 014e 039A     		ldr	r2, [sp, #12]
 510:Drivers/lvgl/src/widgets/slider/lv_slider.c ****                 slider->value_to_set = &slider->bar.start_value;
 1147              		.loc 1 510 87 discriminator 4 view .LVU305
 1148 0150 9A42     		cmp	r2, r3
 1149 0152 0ADA     		bge	.L66
 1150              	.L65:
 511:Drivers/lvgl/src/widgets/slider/lv_slider.c ****             }
 1151              		.loc 1 511 17 is_stmt 1 view .LVU306
 511:Drivers/lvgl/src/widgets/slider/lv_slider.c ****             }
 1152              		.loc 1 511 40 is_stmt 0 view .LVU307
 1153 0154 04F13803 		add	r3, r4, #56
 511:Drivers/lvgl/src/widgets/slider/lv_slider.c ****             }
 1154              		.loc 1 511 38 view .LVU308
 1155 0158 C4F89C30 		str	r3, [r4, #156]
 1156 015c 5FE7     		b	.L48
 1157              	.LVL111:
 1158              	.L78:
 510:Drivers/lvgl/src/widgets/slider/lv_slider.c ****                 slider->value_to_set = &slider->bar.start_value;
 1159              		.loc 1 510 66 discriminator 1 view .LVU309
 1160 015e D4F88010 		ldr	r1, [r4, #128]
 510:Drivers/lvgl/src/widgets/slider/lv_slider.c ****                 slider->value_to_set = &slider->bar.start_value;
 1161              		.loc 1 510 35 discriminator 1 view .LVU310
 1162 0162 0398     		ldr	r0, [sp, #12]
 1163 0164 8842     		cmp	r0, r1
 1164 0166 F5DC     		bgt	.L65
 1165 0168 EEE7     		b	.L64
 1166              	.LVL112:
ARM GAS  /tmp/ccq4eqVm.s 			page 47


 1167              	.L66:
 515:Drivers/lvgl/src/widgets/slider/lv_slider.c ****                 dist_right = LV_ABS((slider->right_knob_area.y1 + (slider->right_knob_area.y2 - sli
 1168              		.loc 1 515 17 is_stmt 1 view .LVU311
 515:Drivers/lvgl/src/widgets/slider/lv_slider.c ****                 dist_right = LV_ABS((slider->right_knob_area.y1 + (slider->right_knob_area.y2 - sli
 1169              		.loc 1 515 29 is_stmt 0 view .LVU312
 1170 016a A36F     		ldr	r3, [r4, #120]
 1171 016c D4F88020 		ldr	r2, [r4, #128]
 1172 0170 D21A     		subs	r2, r2, r3
 1173 0172 1FD4     		bmi	.L79
 1174              	.L67:
 1175 0174 03EB6202 		add	r2, r3, r2, asr #1
 1176 0178 0398     		ldr	r0, [sp, #12]
 1177 017a 121A     		subs	r2, r2, r0
 515:Drivers/lvgl/src/widgets/slider/lv_slider.c ****                 dist_right = LV_ABS((slider->right_knob_area.y1 + (slider->right_knob_area.y2 - sli
 1178              		.loc 1 515 27 view .LVU313
 1179 017c 002A     		cmp	r2, #0
 1180 017e B8BF     		it	lt
 1181 0180 5242     		rsblt	r2, r2, #0
 1182              	.LVL113:
 516:Drivers/lvgl/src/widgets/slider/lv_slider.c **** 
 1183              		.loc 1 516 17 is_stmt 1 view .LVU314
 516:Drivers/lvgl/src/widgets/slider/lv_slider.c **** 
 1184              		.loc 1 516 30 is_stmt 0 view .LVU315
 1185 0182 D4F88830 		ldr	r3, [r4, #136]
 1186 0186 D4F89010 		ldr	r1, [r4, #144]
 1187 018a C91A     		subs	r1, r1, r3
 1188 018c 14D4     		bmi	.L80
 1189              	.L68:
 1190 018e 03EB6103 		add	r3, r3, r1, asr #1
 1191 0192 1B1A     		subs	r3, r3, r0
 516:Drivers/lvgl/src/widgets/slider/lv_slider.c **** 
 1192              		.loc 1 516 28 view .LVU316
 1193 0194 002B     		cmp	r3, #0
 1194 0196 B8BF     		it	lt
 1195 0198 5B42     		rsblt	r3, r3, #0
 1196              	.LVL114:
 519:Drivers/lvgl/src/widgets/slider/lv_slider.c ****                     slider->value_to_set = &slider->bar.cur_value;
 1197              		.loc 1 519 17 is_stmt 1 view .LVU317
 519:Drivers/lvgl/src/widgets/slider/lv_slider.c ****                     slider->value_to_set = &slider->bar.cur_value;
 1198              		.loc 1 519 19 is_stmt 0 view .LVU318
 1199 019a 9A42     		cmp	r2, r3
 1200 019c 0EDD     		ble	.L69
 520:Drivers/lvgl/src/widgets/slider/lv_slider.c ****                     slider->left_knob_focus = 0;
 1201              		.loc 1 520 21 is_stmt 1 view .LVU319
 520:Drivers/lvgl/src/widgets/slider/lv_slider.c ****                     slider->left_knob_focus = 0;
 1202              		.loc 1 520 44 is_stmt 0 view .LVU320
 1203 019e 04F12C03 		add	r3, r4, #44
 1204              	.LVL115:
 520:Drivers/lvgl/src/widgets/slider/lv_slider.c ****                     slider->left_knob_focus = 0;
 1205              		.loc 1 520 42 view .LVU321
 1206 01a2 C4F89C30 		str	r3, [r4, #156]
 521:Drivers/lvgl/src/widgets/slider/lv_slider.c ****                 }
 1207              		.loc 1 521 21 is_stmt 1 view .LVU322
 521:Drivers/lvgl/src/widgets/slider/lv_slider.c ****                 }
 1208              		.loc 1 521 45 is_stmt 0 view .LVU323
 1209 01a6 94F8A030 		ldrb	r3, [r4, #160]	@ zero_extendqisi2
 1210 01aa 23F00203 		bic	r3, r3, #2
ARM GAS  /tmp/ccq4eqVm.s 			page 48


 1211 01ae 84F8A030 		strb	r3, [r4, #160]
 1212 01b2 34E7     		b	.L48
 1213              	.LVL116:
 1214              	.L79:
 515:Drivers/lvgl/src/widgets/slider/lv_slider.c ****                 dist_right = LV_ABS((slider->right_knob_area.y1 + (slider->right_knob_area.y2 - sli
 1215              		.loc 1 515 29 view .LVU324
 1216 01b4 0132     		adds	r2, r2, #1
 1217 01b6 DDE7     		b	.L67
 1218              	.LVL117:
 1219              	.L80:
 516:Drivers/lvgl/src/widgets/slider/lv_slider.c **** 
 1220              		.loc 1 516 30 view .LVU325
 1221 01b8 0131     		adds	r1, r1, #1
 1222 01ba E8E7     		b	.L68
 1223              	.LVL118:
 1224              	.L69:
 524:Drivers/lvgl/src/widgets/slider/lv_slider.c ****                     slider->left_knob_focus = 1;
 1225              		.loc 1 524 21 is_stmt 1 view .LVU326
 524:Drivers/lvgl/src/widgets/slider/lv_slider.c ****                     slider->left_knob_focus = 1;
 1226              		.loc 1 524 44 is_stmt 0 view .LVU327
 1227 01bc 04F13803 		add	r3, r4, #56
 1228              	.LVL119:
 524:Drivers/lvgl/src/widgets/slider/lv_slider.c ****                     slider->left_knob_focus = 1;
 1229              		.loc 1 524 42 view .LVU328
 1230 01c0 C4F89C30 		str	r3, [r4, #156]
 525:Drivers/lvgl/src/widgets/slider/lv_slider.c ****                 }
 1231              		.loc 1 525 21 is_stmt 1 view .LVU329
 525:Drivers/lvgl/src/widgets/slider/lv_slider.c ****                 }
 1232              		.loc 1 525 45 is_stmt 0 view .LVU330
 1233 01c4 94F8A030 		ldrb	r3, [r4, #160]	@ zero_extendqisi2
 1234 01c8 43F00203 		orr	r3, r3, #2
 1235 01cc 84F8A030 		strb	r3, [r4, #160]
 1236              	.LBE72:
 1237              		.loc 1 530 1 view .LVU331
 1238 01d0 25E7     		b	.L48
 1239              		.cfi_endproc
 1240              	.LFE190:
 1242              		.section	.text.update_knob_pos,"ax",%progbits
 1243              		.align	1
 1244              		.syntax unified
 1245              		.thumb
 1246              		.thumb_func
 1248              	update_knob_pos:
 1249              	.LVL120:
 1250              	.LFB191:
 531:Drivers/lvgl/src/widgets/slider/lv_slider.c **** 
 532:Drivers/lvgl/src/widgets/slider/lv_slider.c **** static void update_knob_pos(lv_obj_t * obj, bool check_drag)
 533:Drivers/lvgl/src/widgets/slider/lv_slider.c **** {
 1251              		.loc 1 533 1 is_stmt 1 view -0
 1252              		.cfi_startproc
 1253              		@ args = 0, pretend = 0, frame = 16
 1254              		@ frame_needed = 0, uses_anonymous_args = 0
 1255              		.loc 1 533 1 is_stmt 0 view .LVU333
 1256 0000 2DE9F047 		push	{r4, r5, r6, r7, r8, r9, r10, lr}
 1257              	.LCFI21:
 1258              		.cfi_def_cfa_offset 32
 1259              		.cfi_offset 4, -32
ARM GAS  /tmp/ccq4eqVm.s 			page 49


 1260              		.cfi_offset 5, -28
 1261              		.cfi_offset 6, -24
 1262              		.cfi_offset 7, -20
 1263              		.cfi_offset 8, -16
 1264              		.cfi_offset 9, -12
 1265              		.cfi_offset 10, -8
 1266              		.cfi_offset 14, -4
 1267 0004 84B0     		sub	sp, sp, #16
 1268              	.LCFI22:
 1269              		.cfi_def_cfa_offset 48
 1270 0006 0446     		mov	r4, r0
 1271 0008 0E46     		mov	r6, r1
 534:Drivers/lvgl/src/widgets/slider/lv_slider.c ****     lv_slider_t * slider = (lv_slider_t *)obj;
 1272              		.loc 1 534 5 is_stmt 1 view .LVU334
 1273              	.LVL121:
 535:Drivers/lvgl/src/widgets/slider/lv_slider.c ****     lv_indev_t * indev = lv_indev_active();
 1274              		.loc 1 535 5 view .LVU335
 1275              		.loc 1 535 26 is_stmt 0 view .LVU336
 1276 000a FFF7FEFF 		bl	lv_indev_active
 1277              	.LVL122:
 1278              		.loc 1 535 26 view .LVU337
 1279 000e 0546     		mov	r5, r0
 1280              	.LVL123:
 536:Drivers/lvgl/src/widgets/slider/lv_slider.c ****     if(lv_indev_get_type(indev) != LV_INDEV_TYPE_POINTER)
 1281              		.loc 1 536 5 is_stmt 1 view .LVU338
 1282              		.loc 1 536 8 is_stmt 0 view .LVU339
 1283 0010 FFF7FEFF 		bl	lv_indev_get_type
 1284              	.LVL124:
 1285              		.loc 1 536 7 discriminator 1 view .LVU340
 1286 0014 0128     		cmp	r0, #1
 1287 0016 02D0     		beq	.L102
 1288              	.LVL125:
 1289              	.L81:
 537:Drivers/lvgl/src/widgets/slider/lv_slider.c ****         return;
 538:Drivers/lvgl/src/widgets/slider/lv_slider.c ****     if(lv_indev_get_scroll_obj(indev) != NULL)
 539:Drivers/lvgl/src/widgets/slider/lv_slider.c ****         return;
 540:Drivers/lvgl/src/widgets/slider/lv_slider.c **** 
 541:Drivers/lvgl/src/widgets/slider/lv_slider.c ****     lv_point_t p;
 542:Drivers/lvgl/src/widgets/slider/lv_slider.c ****     lv_indev_get_point(indev, &p);
 543:Drivers/lvgl/src/widgets/slider/lv_slider.c ****     lv_obj_transform_point(obj, &p, LV_OBJ_POINT_TRANSFORM_FLAG_INVERSE_RECURSIVE);
 544:Drivers/lvgl/src/widgets/slider/lv_slider.c **** 
 545:Drivers/lvgl/src/widgets/slider/lv_slider.c ****     bool is_hor = is_slider_horizontal(obj);
 546:Drivers/lvgl/src/widgets/slider/lv_slider.c **** 
 547:Drivers/lvgl/src/widgets/slider/lv_slider.c ****     if(check_drag && !slider->dragging) {
 548:Drivers/lvgl/src/widgets/slider/lv_slider.c ****         int32_t ofs = is_hor ? (p.x - slider->pressed_point.x) : (p.y - slider->pressed_point.y);
 549:Drivers/lvgl/src/widgets/slider/lv_slider.c **** 
 550:Drivers/lvgl/src/widgets/slider/lv_slider.c ****         /*Stop processing when offset is below scroll_limit*/
 551:Drivers/lvgl/src/widgets/slider/lv_slider.c ****         if(LV_ABS(ofs) < indev->scroll_limit) {
 552:Drivers/lvgl/src/widgets/slider/lv_slider.c ****             return;
 553:Drivers/lvgl/src/widgets/slider/lv_slider.c ****         }
 554:Drivers/lvgl/src/widgets/slider/lv_slider.c ****     }
 555:Drivers/lvgl/src/widgets/slider/lv_slider.c **** 
 556:Drivers/lvgl/src/widgets/slider/lv_slider.c ****     if(!slider->value_to_set) {
 557:Drivers/lvgl/src/widgets/slider/lv_slider.c ****         /*Ready to start drag*/
 558:Drivers/lvgl/src/widgets/slider/lv_slider.c ****         drag_start(obj);
 559:Drivers/lvgl/src/widgets/slider/lv_slider.c ****     }
 560:Drivers/lvgl/src/widgets/slider/lv_slider.c **** 
ARM GAS  /tmp/ccq4eqVm.s 			page 50


 561:Drivers/lvgl/src/widgets/slider/lv_slider.c ****     int32_t new_value = 0;
 562:Drivers/lvgl/src/widgets/slider/lv_slider.c ****     const int32_t range = slider->bar.max_value - slider->bar.min_value;
 563:Drivers/lvgl/src/widgets/slider/lv_slider.c ****     const bool is_rtl = LV_BASE_DIR_RTL == lv_obj_get_style_base_dir(obj, LV_PART_MAIN);
 564:Drivers/lvgl/src/widgets/slider/lv_slider.c ****     const bool is_horizontal = is_slider_horizontal(obj);
 565:Drivers/lvgl/src/widgets/slider/lv_slider.c ****     const bool is_reversed = slider->bar.val_reversed ^ (is_rtl && is_horizontal);
 566:Drivers/lvgl/src/widgets/slider/lv_slider.c **** 
 567:Drivers/lvgl/src/widgets/slider/lv_slider.c ****     if(is_hor) {
 568:Drivers/lvgl/src/widgets/slider/lv_slider.c ****         const int32_t bg_left = lv_obj_get_style_pad_left(obj, LV_PART_MAIN);
 569:Drivers/lvgl/src/widgets/slider/lv_slider.c ****         const int32_t bg_right = lv_obj_get_style_pad_right(obj, LV_PART_MAIN);
 570:Drivers/lvgl/src/widgets/slider/lv_slider.c ****         const int32_t w = lv_obj_get_width(obj);
 571:Drivers/lvgl/src/widgets/slider/lv_slider.c ****         const int32_t indic_w = w - bg_left - bg_right;
 572:Drivers/lvgl/src/widgets/slider/lv_slider.c **** 
 573:Drivers/lvgl/src/widgets/slider/lv_slider.c ****         if(is_reversed) {
 574:Drivers/lvgl/src/widgets/slider/lv_slider.c ****             /*Make the point relative to the indicator*/
 575:Drivers/lvgl/src/widgets/slider/lv_slider.c ****             new_value = (obj->coords.x2 - bg_right) - p.x;
 576:Drivers/lvgl/src/widgets/slider/lv_slider.c ****         }
 577:Drivers/lvgl/src/widgets/slider/lv_slider.c ****         else {
 578:Drivers/lvgl/src/widgets/slider/lv_slider.c ****             /*Make the point relative to the indicator*/
 579:Drivers/lvgl/src/widgets/slider/lv_slider.c ****             new_value = p.x - (obj->coords.x1 + bg_left);
 580:Drivers/lvgl/src/widgets/slider/lv_slider.c ****         }
 581:Drivers/lvgl/src/widgets/slider/lv_slider.c ****         if(indic_w) {
 582:Drivers/lvgl/src/widgets/slider/lv_slider.c ****             new_value = (new_value * range + indic_w / 2) / indic_w;
 583:Drivers/lvgl/src/widgets/slider/lv_slider.c ****             new_value += slider->bar.min_value;
 584:Drivers/lvgl/src/widgets/slider/lv_slider.c ****         }
 585:Drivers/lvgl/src/widgets/slider/lv_slider.c ****     }
 586:Drivers/lvgl/src/widgets/slider/lv_slider.c ****     else {
 587:Drivers/lvgl/src/widgets/slider/lv_slider.c ****         const int32_t bg_top = lv_obj_get_style_pad_top(obj, LV_PART_MAIN);
 588:Drivers/lvgl/src/widgets/slider/lv_slider.c ****         const int32_t bg_bottom = lv_obj_get_style_pad_bottom(obj, LV_PART_MAIN);
 589:Drivers/lvgl/src/widgets/slider/lv_slider.c ****         const int32_t h = lv_obj_get_height(obj);
 590:Drivers/lvgl/src/widgets/slider/lv_slider.c ****         const int32_t indic_h = h - bg_bottom - bg_top;
 591:Drivers/lvgl/src/widgets/slider/lv_slider.c **** 
 592:Drivers/lvgl/src/widgets/slider/lv_slider.c ****         if(is_reversed) {
 593:Drivers/lvgl/src/widgets/slider/lv_slider.c ****             /*Make the point relative to the indicator*/
 594:Drivers/lvgl/src/widgets/slider/lv_slider.c ****             new_value = p.y - (obj->coords.y1 + bg_top);
 595:Drivers/lvgl/src/widgets/slider/lv_slider.c ****         }
 596:Drivers/lvgl/src/widgets/slider/lv_slider.c ****         else {
 597:Drivers/lvgl/src/widgets/slider/lv_slider.c ****             /*Make the point relative to the indicator*/
 598:Drivers/lvgl/src/widgets/slider/lv_slider.c ****             new_value = p.y - (obj->coords.y2 + bg_bottom);
 599:Drivers/lvgl/src/widgets/slider/lv_slider.c ****             new_value = -new_value;
 600:Drivers/lvgl/src/widgets/slider/lv_slider.c ****         }
 601:Drivers/lvgl/src/widgets/slider/lv_slider.c ****         new_value = (new_value * range + indic_h / 2) / indic_h;
 602:Drivers/lvgl/src/widgets/slider/lv_slider.c ****         new_value += slider->bar.min_value;
 603:Drivers/lvgl/src/widgets/slider/lv_slider.c ****     }
 604:Drivers/lvgl/src/widgets/slider/lv_slider.c **** 
 605:Drivers/lvgl/src/widgets/slider/lv_slider.c ****     int32_t real_max_value = slider->bar.max_value;
 606:Drivers/lvgl/src/widgets/slider/lv_slider.c ****     int32_t real_min_value = slider->bar.min_value;
 607:Drivers/lvgl/src/widgets/slider/lv_slider.c ****     /*Figure out the min. and max. for this mode*/
 608:Drivers/lvgl/src/widgets/slider/lv_slider.c ****     if(slider->value_to_set == &slider->bar.start_value) {
 609:Drivers/lvgl/src/widgets/slider/lv_slider.c ****         real_max_value = slider->bar.cur_value;
 610:Drivers/lvgl/src/widgets/slider/lv_slider.c ****     }
 611:Drivers/lvgl/src/widgets/slider/lv_slider.c ****     else {
 612:Drivers/lvgl/src/widgets/slider/lv_slider.c ****         real_min_value = slider->bar.start_value;
 613:Drivers/lvgl/src/widgets/slider/lv_slider.c ****     }
 614:Drivers/lvgl/src/widgets/slider/lv_slider.c **** 
 615:Drivers/lvgl/src/widgets/slider/lv_slider.c ****     new_value = LV_CLAMP(real_min_value, new_value, real_max_value);
 616:Drivers/lvgl/src/widgets/slider/lv_slider.c ****     if(*slider->value_to_set != new_value) {
 617:Drivers/lvgl/src/widgets/slider/lv_slider.c ****         *slider->value_to_set = new_value;
ARM GAS  /tmp/ccq4eqVm.s 			page 51


 618:Drivers/lvgl/src/widgets/slider/lv_slider.c ****         if(is_hor)
 619:Drivers/lvgl/src/widgets/slider/lv_slider.c ****             lv_obj_remove_flag(obj, LV_OBJ_FLAG_SCROLL_CHAIN_VER);
 620:Drivers/lvgl/src/widgets/slider/lv_slider.c ****         else
 621:Drivers/lvgl/src/widgets/slider/lv_slider.c ****             lv_obj_remove_flag(obj, LV_OBJ_FLAG_SCROLL_CHAIN_HOR);
 622:Drivers/lvgl/src/widgets/slider/lv_slider.c **** 
 623:Drivers/lvgl/src/widgets/slider/lv_slider.c ****         lv_obj_invalidate(obj);
 624:Drivers/lvgl/src/widgets/slider/lv_slider.c ****         lv_result_t res = lv_obj_send_event(obj, LV_EVENT_VALUE_CHANGED, NULL);
 625:Drivers/lvgl/src/widgets/slider/lv_slider.c ****         if(res != LV_RESULT_OK)
 626:Drivers/lvgl/src/widgets/slider/lv_slider.c ****             return;
 627:Drivers/lvgl/src/widgets/slider/lv_slider.c ****     }
 628:Drivers/lvgl/src/widgets/slider/lv_slider.c **** }
 1290              		.loc 1 628 1 view .LVU341
 1291 0018 04B0     		add	sp, sp, #16
 1292              	.LCFI23:
 1293              		.cfi_remember_state
 1294              		.cfi_def_cfa_offset 32
 1295              		@ sp needed
 1296 001a BDE8F087 		pop	{r4, r5, r6, r7, r8, r9, r10, pc}
 1297              	.LVL126:
 1298              	.L102:
 1299              	.LCFI24:
 1300              		.cfi_restore_state
 538:Drivers/lvgl/src/widgets/slider/lv_slider.c ****         return;
 1301              		.loc 1 538 5 is_stmt 1 view .LVU342
 538:Drivers/lvgl/src/widgets/slider/lv_slider.c ****         return;
 1302              		.loc 1 538 8 is_stmt 0 view .LVU343
 1303 001e 2846     		mov	r0, r5
 1304 0020 FFF7FEFF 		bl	lv_indev_get_scroll_obj
 1305              	.LVL127:
 538:Drivers/lvgl/src/widgets/slider/lv_slider.c ****         return;
 1306              		.loc 1 538 7 discriminator 1 view .LVU344
 1307 0024 0028     		cmp	r0, #0
 1308 0026 F7D1     		bne	.L81
 541:Drivers/lvgl/src/widgets/slider/lv_slider.c ****     lv_indev_get_point(indev, &p);
 1309              		.loc 1 541 5 is_stmt 1 view .LVU345
 542:Drivers/lvgl/src/widgets/slider/lv_slider.c ****     lv_obj_transform_point(obj, &p, LV_OBJ_POINT_TRANSFORM_FLAG_INVERSE_RECURSIVE);
 1310              		.loc 1 542 5 view .LVU346
 1311 0028 02AF     		add	r7, sp, #8
 1312 002a 3946     		mov	r1, r7
 1313 002c 2846     		mov	r0, r5
 1314 002e FFF7FEFF 		bl	lv_indev_get_point
 1315              	.LVL128:
 543:Drivers/lvgl/src/widgets/slider/lv_slider.c **** 
 1316              		.loc 1 543 5 view .LVU347
 1317 0032 0322     		movs	r2, #3
 1318 0034 3946     		mov	r1, r7
 1319 0036 2046     		mov	r0, r4
 1320 0038 FFF7FEFF 		bl	lv_obj_transform_point
 1321              	.LVL129:
 545:Drivers/lvgl/src/widgets/slider/lv_slider.c **** 
 1322              		.loc 1 545 5 view .LVU348
 545:Drivers/lvgl/src/widgets/slider/lv_slider.c **** 
 1323              		.loc 1 545 19 is_stmt 0 view .LVU349
 1324 003c 2046     		mov	r0, r4
 1325 003e FFF7FEFF 		bl	is_slider_horizontal
 1326              	.LVL130:
 1327 0042 0746     		mov	r7, r0
ARM GAS  /tmp/ccq4eqVm.s 			page 52


 1328              	.LVL131:
 547:Drivers/lvgl/src/widgets/slider/lv_slider.c ****         int32_t ofs = is_hor ? (p.x - slider->pressed_point.x) : (p.y - slider->pressed_point.y);
 1329              		.loc 1 547 5 is_stmt 1 view .LVU350
 547:Drivers/lvgl/src/widgets/slider/lv_slider.c ****         int32_t ofs = is_hor ? (p.x - slider->pressed_point.x) : (p.y - slider->pressed_point.y);
 1330              		.loc 1 547 7 is_stmt 0 view .LVU351
 1331 0044 8EB1     		cbz	r6, .L83
 547:Drivers/lvgl/src/widgets/slider/lv_slider.c ****         int32_t ofs = is_hor ? (p.x - slider->pressed_point.x) : (p.y - slider->pressed_point.y);
 1332              		.loc 1 547 22 discriminator 1 view .LVU352
 1333 0046 94F8A030 		ldrb	r3, [r4, #160]	@ zero_extendqisi2
 547:Drivers/lvgl/src/widgets/slider/lv_slider.c ****         int32_t ofs = is_hor ? (p.x - slider->pressed_point.x) : (p.y - slider->pressed_point.y);
 1334              		.loc 1 547 19 discriminator 1 view .LVU353
 1335 004a 13F0010F 		tst	r3, #1
 1336 004e 0CD1     		bne	.L83
 1337              	.LBB75:
 548:Drivers/lvgl/src/widgets/slider/lv_slider.c **** 
 1338              		.loc 1 548 9 is_stmt 1 view .LVU354
 548:Drivers/lvgl/src/widgets/slider/lv_slider.c **** 
 1339              		.loc 1 548 64 is_stmt 0 view .LVU355
 1340 0050 0028     		cmp	r0, #0
 1341 0052 4ED0     		beq	.L84
 548:Drivers/lvgl/src/widgets/slider/lv_slider.c **** 
 1342              		.loc 1 548 60 discriminator 1 view .LVU356
 1343 0054 D4F89420 		ldr	r2, [r4, #148]
 548:Drivers/lvgl/src/widgets/slider/lv_slider.c **** 
 1344              		.loc 1 548 64 discriminator 1 view .LVU357
 1345 0058 029B     		ldr	r3, [sp, #8]
 1346 005a 9B1A     		subs	r3, r3, r2
 1347              	.L85:
 1348              	.LVL132:
 551:Drivers/lvgl/src/widgets/slider/lv_slider.c ****             return;
 1349              		.loc 1 551 9 is_stmt 1 view .LVU358
 551:Drivers/lvgl/src/widgets/slider/lv_slider.c ****             return;
 1350              		.loc 1 551 12 is_stmt 0 view .LVU359
 1351 005c 002B     		cmp	r3, #0
 1352 005e B8BF     		it	lt
 1353 0060 5B42     		rsblt	r3, r3, #0
 1354              	.LVL133:
 551:Drivers/lvgl/src/widgets/slider/lv_slider.c ****             return;
 1355              		.loc 1 551 31 view .LVU360
 1356 0062 95F82420 		ldrb	r2, [r5, #36]	@ zero_extendqisi2
 551:Drivers/lvgl/src/widgets/slider/lv_slider.c ****             return;
 1357              		.loc 1 551 11 view .LVU361
 1358 0066 9342     		cmp	r3, r2
 1359 0068 D6DB     		blt	.L81
 1360              	.LVL134:
 1361              	.L83:
 551:Drivers/lvgl/src/widgets/slider/lv_slider.c ****             return;
 1362              		.loc 1 551 11 view .LVU362
 1363              	.LBE75:
 556:Drivers/lvgl/src/widgets/slider/lv_slider.c ****         /*Ready to start drag*/
 1364              		.loc 1 556 5 is_stmt 1 view .LVU363
 556:Drivers/lvgl/src/widgets/slider/lv_slider.c ****         /*Ready to start drag*/
 1365              		.loc 1 556 15 is_stmt 0 view .LVU364
 1366 006a D4F89C30 		ldr	r3, [r4, #156]
 556:Drivers/lvgl/src/widgets/slider/lv_slider.c ****         /*Ready to start drag*/
 1367              		.loc 1 556 7 view .LVU365
 1368 006e 002B     		cmp	r3, #0
ARM GAS  /tmp/ccq4eqVm.s 			page 53


 1369 0070 44D0     		beq	.L103
 1370              	.LVL135:
 1371              	.L86:
 561:Drivers/lvgl/src/widgets/slider/lv_slider.c ****     const int32_t range = slider->bar.max_value - slider->bar.min_value;
 1372              		.loc 1 561 5 is_stmt 1 view .LVU366
 562:Drivers/lvgl/src/widgets/slider/lv_slider.c ****     const bool is_rtl = LV_BASE_DIR_RTL == lv_obj_get_style_base_dir(obj, LV_PART_MAIN);
 1373              		.loc 1 562 5 view .LVU367
 562:Drivers/lvgl/src/widgets/slider/lv_slider.c ****     const bool is_rtl = LV_BASE_DIR_RTL == lv_obj_get_style_base_dir(obj, LV_PART_MAIN);
 1374              		.loc 1 562 38 is_stmt 0 view .LVU368
 1375 0072 656B     		ldr	r5, [r4, #52]
 1376              	.LVL136:
 562:Drivers/lvgl/src/widgets/slider/lv_slider.c ****     const bool is_rtl = LV_BASE_DIR_RTL == lv_obj_get_style_base_dir(obj, LV_PART_MAIN);
 1377              		.loc 1 562 62 view .LVU369
 1378 0074 236B     		ldr	r3, [r4, #48]
 562:Drivers/lvgl/src/widgets/slider/lv_slider.c ****     const bool is_rtl = LV_BASE_DIR_RTL == lv_obj_get_style_base_dir(obj, LV_PART_MAIN);
 1379              		.loc 1 562 19 view .LVU370
 1380 0076 ED1A     		subs	r5, r5, r3
 1381              	.LVL137:
 563:Drivers/lvgl/src/widgets/slider/lv_slider.c ****     const bool is_horizontal = is_slider_horizontal(obj);
 1382              		.loc 1 563 5 is_stmt 1 view .LVU371
 1383              	.LBB76:
 1384              	.LBI76:
 688:Drivers/lvgl/src/widgets/slider/../bar/../../core/lv_obj_style_gen.h **** {
 1385              		.loc 2 688 29 view .LVU372
 1386              	.LBB77:
 690:Drivers/lvgl/src/widgets/slider/../bar/../../core/lv_obj_style_gen.h ****     return (lv_base_dir_t)v.num;
 1387              		.loc 2 690 5 view .LVU373
 690:Drivers/lvgl/src/widgets/slider/../bar/../../core/lv_obj_style_gen.h ****     return (lv_base_dir_t)v.num;
 1388              		.loc 2 690 26 is_stmt 0 view .LVU374
 1389 0078 2722     		movs	r2, #39
 1390 007a 0021     		movs	r1, #0
 1391 007c 2046     		mov	r0, r4
 1392 007e FFF7FEFF 		bl	lv_obj_get_style_prop
 1393              	.LVL138:
 1394 0082 0190     		str	r0, [sp, #4]
 1395              		.loc 2 691 5 is_stmt 1 view .LVU375
 1396              		.loc 2 691 12 is_stmt 0 view .LVU376
 1397 0084 C0B2     		uxtb	r0, r0
 1398              	.LVL139:
 1399              		.loc 2 691 12 view .LVU377
 1400              	.LBE77:
 1401              	.LBE76:
 563:Drivers/lvgl/src/widgets/slider/lv_slider.c ****     const bool is_horizontal = is_slider_horizontal(obj);
 1402              		.loc 1 563 16 discriminator 1 view .LVU378
 1403 0086 0128     		cmp	r0, #1
 1404 0088 14BF     		ite	ne
 1405 008a 0026     		movne	r6, #0
 1406 008c 0126     		moveq	r6, #1
 1407              	.LVL140:
 564:Drivers/lvgl/src/widgets/slider/lv_slider.c ****     const bool is_reversed = slider->bar.val_reversed ^ (is_rtl && is_horizontal);
 1408              		.loc 1 564 5 is_stmt 1 view .LVU379
 564:Drivers/lvgl/src/widgets/slider/lv_slider.c ****     const bool is_reversed = slider->bar.val_reversed ^ (is_rtl && is_horizontal);
 1409              		.loc 1 564 32 is_stmt 0 view .LVU380
 1410 008e 2046     		mov	r0, r4
 1411 0090 FFF7FEFF 		bl	is_slider_horizontal
 1412              	.LVL141:
 565:Drivers/lvgl/src/widgets/slider/lv_slider.c **** 
ARM GAS  /tmp/ccq4eqVm.s 			page 54


 1413              		.loc 1 565 5 is_stmt 1 view .LVU381
 565:Drivers/lvgl/src/widgets/slider/lv_slider.c **** 
 1414              		.loc 1 565 41 is_stmt 0 view .LVU382
 1415 0094 94F84C80 		ldrb	r8, [r4, #76]	@ zero_extendqisi2
 565:Drivers/lvgl/src/widgets/slider/lv_slider.c **** 
 1416              		.loc 1 565 65 view .LVU383
 1417 0098 0640     		ands	r6, r6, r0
 1418              	.LVL142:
 567:Drivers/lvgl/src/widgets/slider/lv_slider.c ****         const int32_t bg_left = lv_obj_get_style_pad_left(obj, LV_PART_MAIN);
 1419              		.loc 1 567 5 is_stmt 1 view .LVU384
 567:Drivers/lvgl/src/widgets/slider/lv_slider.c ****         const int32_t bg_left = lv_obj_get_style_pad_left(obj, LV_PART_MAIN);
 1420              		.loc 1 567 7 is_stmt 0 view .LVU385
 1421 009a 002F     		cmp	r7, #0
 1422 009c 3AD0     		beq	.L87
 1423              	.LBB78:
 568:Drivers/lvgl/src/widgets/slider/lv_slider.c ****         const int32_t bg_right = lv_obj_get_style_pad_right(obj, LV_PART_MAIN);
 1424              		.loc 1 568 9 is_stmt 1 view .LVU386
 1425              	.LVL143:
 1426              	.LBB79:
 1427              	.LBI79:
 166:Drivers/lvgl/src/widgets/slider/../bar/../../core/lv_obj_style_gen.h **** {
 1428              		.loc 2 166 23 view .LVU387
 1429              	.LBB80:
 168:Drivers/lvgl/src/widgets/slider/../bar/../../core/lv_obj_style_gen.h ****     return (int32_t)v.num;
 1430              		.loc 2 168 5 view .LVU388
 168:Drivers/lvgl/src/widgets/slider/../bar/../../core/lv_obj_style_gen.h ****     return (int32_t)v.num;
 1431              		.loc 2 168 26 is_stmt 0 view .LVU389
 1432 009e 1222     		movs	r2, #18
 1433 00a0 0021     		movs	r1, #0
 1434 00a2 2046     		mov	r0, r4
 1435              	.LVL144:
 168:Drivers/lvgl/src/widgets/slider/../bar/../../core/lv_obj_style_gen.h ****     return (int32_t)v.num;
 1436              		.loc 2 168 26 view .LVU390
 1437 00a4 FFF7FEFF 		bl	lv_obj_get_style_prop
 1438              	.LVL145:
 1439 00a8 8246     		mov	r10, r0
 1440 00aa 0190     		str	r0, [sp, #4]
 169:Drivers/lvgl/src/widgets/slider/../bar/../../core/lv_obj_style_gen.h **** }
 1441              		.loc 2 169 5 is_stmt 1 view .LVU391
 1442              	.LVL146:
 169:Drivers/lvgl/src/widgets/slider/../bar/../../core/lv_obj_style_gen.h **** }
 1443              		.loc 2 169 5 is_stmt 0 view .LVU392
 1444              	.LBE80:
 1445              	.LBE79:
 569:Drivers/lvgl/src/widgets/slider/lv_slider.c ****         const int32_t w = lv_obj_get_width(obj);
 1446              		.loc 1 569 9 is_stmt 1 view .LVU393
 1447              	.LBB81:
 1448              	.LBI81:
 172:Drivers/lvgl/src/widgets/slider/../bar/../../core/lv_obj_style_gen.h **** {
 1449              		.loc 2 172 23 view .LVU394
 1450              	.LBB82:
 174:Drivers/lvgl/src/widgets/slider/../bar/../../core/lv_obj_style_gen.h ****     return (int32_t)v.num;
 1451              		.loc 2 174 5 view .LVU395
 174:Drivers/lvgl/src/widgets/slider/../bar/../../core/lv_obj_style_gen.h ****     return (int32_t)v.num;
 1452              		.loc 2 174 26 is_stmt 0 view .LVU396
 1453 00ac 1322     		movs	r2, #19
 1454 00ae 0021     		movs	r1, #0
ARM GAS  /tmp/ccq4eqVm.s 			page 55


 1455 00b0 2046     		mov	r0, r4
 1456              	.LVL147:
 174:Drivers/lvgl/src/widgets/slider/../bar/../../core/lv_obj_style_gen.h ****     return (int32_t)v.num;
 1457              		.loc 2 174 26 view .LVU397
 1458 00b2 FFF7FEFF 		bl	lv_obj_get_style_prop
 1459              	.LVL148:
 1460 00b6 8146     		mov	r9, r0
 1461 00b8 0190     		str	r0, [sp, #4]
 175:Drivers/lvgl/src/widgets/slider/../bar/../../core/lv_obj_style_gen.h **** }
 1462              		.loc 2 175 5 is_stmt 1 view .LVU398
 1463              	.LVL149:
 175:Drivers/lvgl/src/widgets/slider/../bar/../../core/lv_obj_style_gen.h **** }
 1464              		.loc 2 175 5 is_stmt 0 view .LVU399
 1465              	.LBE82:
 1466              	.LBE81:
 570:Drivers/lvgl/src/widgets/slider/lv_slider.c ****         const int32_t indic_w = w - bg_left - bg_right;
 1467              		.loc 1 570 9 is_stmt 1 view .LVU400
 570:Drivers/lvgl/src/widgets/slider/lv_slider.c ****         const int32_t indic_w = w - bg_left - bg_right;
 1468              		.loc 1 570 27 is_stmt 0 view .LVU401
 1469 00ba 2046     		mov	r0, r4
 1470              	.LVL150:
 570:Drivers/lvgl/src/widgets/slider/lv_slider.c ****         const int32_t indic_w = w - bg_left - bg_right;
 1471              		.loc 1 570 27 view .LVU402
 1472 00bc FFF7FEFF 		bl	lv_obj_get_width
 1473              	.LVL151:
 571:Drivers/lvgl/src/widgets/slider/lv_slider.c **** 
 1474              		.loc 1 571 9 is_stmt 1 view .LVU403
 571:Drivers/lvgl/src/widgets/slider/lv_slider.c **** 
 1475              		.loc 1 571 35 is_stmt 0 view .LVU404
 1476 00c0 A0EB0A02 		sub	r2, r0, r10
 571:Drivers/lvgl/src/widgets/slider/lv_slider.c **** 
 1477              		.loc 1 571 23 view .LVU405
 1478 00c4 A2EB0902 		sub	r2, r2, r9
 1479              	.LVL152:
 573:Drivers/lvgl/src/widgets/slider/lv_slider.c ****             /*Make the point relative to the indicator*/
 1480              		.loc 1 573 9 is_stmt 1 view .LVU406
 573:Drivers/lvgl/src/widgets/slider/lv_slider.c ****             /*Make the point relative to the indicator*/
 1481              		.loc 1 573 11 is_stmt 0 view .LVU407
 1482 00c8 B045     		cmp	r8, r6
 1483 00ca 1BD0     		beq	.L88
 575:Drivers/lvgl/src/widgets/slider/lv_slider.c ****         }
 1484              		.loc 1 575 13 is_stmt 1 view .LVU408
 575:Drivers/lvgl/src/widgets/slider/lv_slider.c ****         }
 1485              		.loc 1 575 37 is_stmt 0 view .LVU409
 1486 00cc E369     		ldr	r3, [r4, #28]
 575:Drivers/lvgl/src/widgets/slider/lv_slider.c ****         }
 1487              		.loc 1 575 41 view .LVU410
 1488 00ce A3EB0903 		sub	r3, r3, r9
 575:Drivers/lvgl/src/widgets/slider/lv_slider.c ****         }
 1489              		.loc 1 575 56 view .LVU411
 1490 00d2 0299     		ldr	r1, [sp, #8]
 575:Drivers/lvgl/src/widgets/slider/lv_slider.c ****         }
 1491              		.loc 1 575 23 view .LVU412
 1492 00d4 5B1A     		subs	r3, r3, r1
 1493              	.LVL153:
 1494              	.L89:
 581:Drivers/lvgl/src/widgets/slider/lv_slider.c ****             new_value = (new_value * range + indic_w / 2) / indic_w;
ARM GAS  /tmp/ccq4eqVm.s 			page 56


 1495              		.loc 1 581 9 is_stmt 1 view .LVU413
 581:Drivers/lvgl/src/widgets/slider/lv_slider.c ****             new_value = (new_value * range + indic_w / 2) / indic_w;
 1496              		.loc 1 581 11 is_stmt 0 view .LVU414
 1497 00d6 002A     		cmp	r2, #0
 1498 00d8 42D0     		beq	.L90
 582:Drivers/lvgl/src/widgets/slider/lv_slider.c ****             new_value += slider->bar.min_value;
 1499              		.loc 1 582 13 is_stmt 1 view .LVU415
 582:Drivers/lvgl/src/widgets/slider/lv_slider.c ****             new_value += slider->bar.min_value;
 1500              		.loc 1 582 36 is_stmt 0 view .LVU416
 1501 00da 03FB05F5 		mul	r5, r3, r5
 1502              	.LVL154:
 582:Drivers/lvgl/src/widgets/slider/lv_slider.c ****             new_value += slider->bar.min_value;
 1503              		.loc 1 582 54 view .LVU417
 1504 00de 1346     		mov	r3, r2
 1505              	.LVL155:
 582:Drivers/lvgl/src/widgets/slider/lv_slider.c ****             new_value += slider->bar.min_value;
 1506              		.loc 1 582 54 view .LVU418
 1507 00e0 002A     		cmp	r2, #0
 1508 00e2 15DB     		blt	.L104
 1509              	.L91:
 582:Drivers/lvgl/src/widgets/slider/lv_slider.c ****             new_value += slider->bar.min_value;
 1510              		.loc 1 582 44 view .LVU419
 1511 00e4 05EB6305 		add	r5, r5, r3, asr #1
 582:Drivers/lvgl/src/widgets/slider/lv_slider.c ****             new_value += slider->bar.min_value;
 1512              		.loc 1 582 23 view .LVU420
 1513 00e8 95FBF2F2 		sdiv	r2, r5, r2
 1514              	.LVL156:
 583:Drivers/lvgl/src/widgets/slider/lv_slider.c ****         }
 1515              		.loc 1 583 13 is_stmt 1 view .LVU421
 583:Drivers/lvgl/src/widgets/slider/lv_slider.c ****         }
 1516              		.loc 1 583 37 is_stmt 0 view .LVU422
 1517 00ec 236B     		ldr	r3, [r4, #48]
 583:Drivers/lvgl/src/widgets/slider/lv_slider.c ****         }
 1518              		.loc 1 583 23 view .LVU423
 1519 00ee 1344     		add	r3, r3, r2
 1520              	.LVL157:
 583:Drivers/lvgl/src/widgets/slider/lv_slider.c ****         }
 1521              		.loc 1 583 23 view .LVU424
 1522 00f0 36E0     		b	.L90
 1523              	.LVL158:
 1524              	.L84:
 583:Drivers/lvgl/src/widgets/slider/lv_slider.c ****         }
 1525              		.loc 1 583 23 view .LVU425
 1526              	.LBE78:
 1527              	.LBB83:
 548:Drivers/lvgl/src/widgets/slider/lv_slider.c **** 
 1528              		.loc 1 548 94 discriminator 2 view .LVU426
 1529 00f2 D4F89820 		ldr	r2, [r4, #152]
 548:Drivers/lvgl/src/widgets/slider/lv_slider.c **** 
 1530              		.loc 1 548 64 discriminator 2 view .LVU427
 1531 00f6 039B     		ldr	r3, [sp, #12]
 1532 00f8 9B1A     		subs	r3, r3, r2
 1533 00fa AFE7     		b	.L85
 1534              	.L103:
 548:Drivers/lvgl/src/widgets/slider/lv_slider.c **** 
 1535              		.loc 1 548 64 discriminator 2 view .LVU428
 1536              	.LBE83:
ARM GAS  /tmp/ccq4eqVm.s 			page 57


 558:Drivers/lvgl/src/widgets/slider/lv_slider.c ****     }
 1537              		.loc 1 558 9 is_stmt 1 view .LVU429
 1538 00fc 2046     		mov	r0, r4
 1539              	.LVL159:
 558:Drivers/lvgl/src/widgets/slider/lv_slider.c ****     }
 1540              		.loc 1 558 9 is_stmt 0 view .LVU430
 1541 00fe FFF7FEFF 		bl	drag_start
 1542              	.LVL160:
 1543 0102 B6E7     		b	.L86
 1544              	.LVL161:
 1545              	.L88:
 1546              	.LBB84:
 579:Drivers/lvgl/src/widgets/slider/lv_slider.c ****         }
 1547              		.loc 1 579 13 is_stmt 1 view .LVU431
 579:Drivers/lvgl/src/widgets/slider/lv_slider.c ****         }
 1548              		.loc 1 579 43 is_stmt 0 view .LVU432
 1549 0104 6369     		ldr	r3, [r4, #20]
 579:Drivers/lvgl/src/widgets/slider/lv_slider.c ****         }
 1550              		.loc 1 579 47 view .LVU433
 1551 0106 03EB0A01 		add	r1, r3, r10
 579:Drivers/lvgl/src/widgets/slider/lv_slider.c ****         }
 1552              		.loc 1 579 23 view .LVU434
 1553 010a 029B     		ldr	r3, [sp, #8]
 1554 010c 5B1A     		subs	r3, r3, r1
 1555 010e E2E7     		b	.L89
 1556              	.LVL162:
 1557              	.L104:
 582:Drivers/lvgl/src/widgets/slider/lv_slider.c ****             new_value += slider->bar.min_value;
 1558              		.loc 1 582 54 view .LVU435
 1559 0110 531C     		adds	r3, r2, #1
 1560 0112 E7E7     		b	.L91
 1561              	.LVL163:
 1562              	.L87:
 582:Drivers/lvgl/src/widgets/slider/lv_slider.c ****             new_value += slider->bar.min_value;
 1563              		.loc 1 582 54 view .LVU436
 1564              	.LBE84:
 1565              	.LBB85:
 587:Drivers/lvgl/src/widgets/slider/lv_slider.c ****         const int32_t bg_bottom = lv_obj_get_style_pad_bottom(obj, LV_PART_MAIN);
 1566              		.loc 1 587 9 is_stmt 1 view .LVU437
 1567              	.LBB86:
 1568              	.LBI86:
 154:Drivers/lvgl/src/widgets/slider/../bar/../../core/lv_obj_style_gen.h **** {
 1569              		.loc 2 154 23 view .LVU438
 1570              	.LBB87:
 156:Drivers/lvgl/src/widgets/slider/../bar/../../core/lv_obj_style_gen.h ****     return (int32_t)v.num;
 1571              		.loc 2 156 5 view .LVU439
 156:Drivers/lvgl/src/widgets/slider/../bar/../../core/lv_obj_style_gen.h ****     return (int32_t)v.num;
 1572              		.loc 2 156 26 is_stmt 0 view .LVU440
 1573 0114 1022     		movs	r2, #16
 1574 0116 0021     		movs	r1, #0
 1575 0118 2046     		mov	r0, r4
 1576              	.LVL164:
 156:Drivers/lvgl/src/widgets/slider/../bar/../../core/lv_obj_style_gen.h ****     return (int32_t)v.num;
 1577              		.loc 2 156 26 view .LVU441
 1578 011a FFF7FEFF 		bl	lv_obj_get_style_prop
 1579              	.LVL165:
 1580 011e 8246     		mov	r10, r0
ARM GAS  /tmp/ccq4eqVm.s 			page 58


 1581 0120 0190     		str	r0, [sp, #4]
 157:Drivers/lvgl/src/widgets/slider/../bar/../../core/lv_obj_style_gen.h **** }
 1582              		.loc 2 157 5 is_stmt 1 view .LVU442
 1583              	.LVL166:
 157:Drivers/lvgl/src/widgets/slider/../bar/../../core/lv_obj_style_gen.h **** }
 1584              		.loc 2 157 5 is_stmt 0 view .LVU443
 1585              	.LBE87:
 1586              	.LBE86:
 588:Drivers/lvgl/src/widgets/slider/lv_slider.c ****         const int32_t h = lv_obj_get_height(obj);
 1587              		.loc 1 588 9 is_stmt 1 view .LVU444
 1588              	.LBB88:
 1589              	.LBI88:
 160:Drivers/lvgl/src/widgets/slider/../bar/../../core/lv_obj_style_gen.h **** {
 1590              		.loc 2 160 23 view .LVU445
 1591              	.LBB89:
 162:Drivers/lvgl/src/widgets/slider/../bar/../../core/lv_obj_style_gen.h ****     return (int32_t)v.num;
 1592              		.loc 2 162 5 view .LVU446
 162:Drivers/lvgl/src/widgets/slider/../bar/../../core/lv_obj_style_gen.h ****     return (int32_t)v.num;
 1593              		.loc 2 162 26 is_stmt 0 view .LVU447
 1594 0122 1122     		movs	r2, #17
 1595 0124 0021     		movs	r1, #0
 1596 0126 2046     		mov	r0, r4
 1597              	.LVL167:
 162:Drivers/lvgl/src/widgets/slider/../bar/../../core/lv_obj_style_gen.h ****     return (int32_t)v.num;
 1598              		.loc 2 162 26 view .LVU448
 1599 0128 FFF7FEFF 		bl	lv_obj_get_style_prop
 1600              	.LVL168:
 1601 012c 8146     		mov	r9, r0
 1602 012e 0190     		str	r0, [sp, #4]
 163:Drivers/lvgl/src/widgets/slider/../bar/../../core/lv_obj_style_gen.h **** }
 1603              		.loc 2 163 5 is_stmt 1 view .LVU449
 1604              	.LVL169:
 163:Drivers/lvgl/src/widgets/slider/../bar/../../core/lv_obj_style_gen.h **** }
 1605              		.loc 2 163 5 is_stmt 0 view .LVU450
 1606              	.LBE89:
 1607              	.LBE88:
 589:Drivers/lvgl/src/widgets/slider/lv_slider.c ****         const int32_t indic_h = h - bg_bottom - bg_top;
 1608              		.loc 1 589 9 is_stmt 1 view .LVU451
 589:Drivers/lvgl/src/widgets/slider/lv_slider.c ****         const int32_t indic_h = h - bg_bottom - bg_top;
 1609              		.loc 1 589 27 is_stmt 0 view .LVU452
 1610 0130 2046     		mov	r0, r4
 1611              	.LVL170:
 589:Drivers/lvgl/src/widgets/slider/lv_slider.c ****         const int32_t indic_h = h - bg_bottom - bg_top;
 1612              		.loc 1 589 27 view .LVU453
 1613 0132 FFF7FEFF 		bl	lv_obj_get_height
 1614              	.LVL171:
 590:Drivers/lvgl/src/widgets/slider/lv_slider.c **** 
 1615              		.loc 1 590 9 is_stmt 1 view .LVU454
 590:Drivers/lvgl/src/widgets/slider/lv_slider.c **** 
 1616              		.loc 1 590 35 is_stmt 0 view .LVU455
 1617 0136 A0EB0901 		sub	r1, r0, r9
 590:Drivers/lvgl/src/widgets/slider/lv_slider.c **** 
 1618              		.loc 1 590 23 view .LVU456
 1619 013a A1EB0A01 		sub	r1, r1, r10
 1620              	.LVL172:
 592:Drivers/lvgl/src/widgets/slider/lv_slider.c ****             /*Make the point relative to the indicator*/
 1621              		.loc 1 592 9 is_stmt 1 view .LVU457
ARM GAS  /tmp/ccq4eqVm.s 			page 59


 592:Drivers/lvgl/src/widgets/slider/lv_slider.c ****             /*Make the point relative to the indicator*/
 1622              		.loc 1 592 11 is_stmt 0 view .LVU458
 1623 013e B045     		cmp	r8, r6
 1624 0140 31D0     		beq	.L92
 594:Drivers/lvgl/src/widgets/slider/lv_slider.c ****         }
 1625              		.loc 1 594 13 is_stmt 1 view .LVU459
 594:Drivers/lvgl/src/widgets/slider/lv_slider.c ****         }
 1626              		.loc 1 594 43 is_stmt 0 view .LVU460
 1627 0142 A369     		ldr	r3, [r4, #24]
 594:Drivers/lvgl/src/widgets/slider/lv_slider.c ****         }
 1628              		.loc 1 594 47 view .LVU461
 1629 0144 5344     		add	r3, r3, r10
 594:Drivers/lvgl/src/widgets/slider/lv_slider.c ****         }
 1630              		.loc 1 594 23 view .LVU462
 1631 0146 039A     		ldr	r2, [sp, #12]
 1632 0148 D21A     		subs	r2, r2, r3
 1633              	.LVL173:
 1634              	.L93:
 601:Drivers/lvgl/src/widgets/slider/lv_slider.c ****         new_value += slider->bar.min_value;
 1635              		.loc 1 601 9 is_stmt 1 view .LVU463
 601:Drivers/lvgl/src/widgets/slider/lv_slider.c ****         new_value += slider->bar.min_value;
 1636              		.loc 1 601 32 is_stmt 0 view .LVU464
 1637 014a 05FB02F2 		mul	r2, r5, r2
 1638              	.LVL174:
 601:Drivers/lvgl/src/widgets/slider/lv_slider.c ****         new_value += slider->bar.min_value;
 1639              		.loc 1 601 50 view .LVU465
 1640 014e 0B46     		mov	r3, r1
 1641 0150 0029     		cmp	r1, #0
 1642 0152 2EDB     		blt	.L105
 1643              	.L94:
 601:Drivers/lvgl/src/widgets/slider/lv_slider.c ****         new_value += slider->bar.min_value;
 1644              		.loc 1 601 40 view .LVU466
 1645 0154 02EB6302 		add	r2, r2, r3, asr #1
 601:Drivers/lvgl/src/widgets/slider/lv_slider.c ****         new_value += slider->bar.min_value;
 1646              		.loc 1 601 19 view .LVU467
 1647 0158 92FBF1F2 		sdiv	r2, r2, r1
 1648              	.LVL175:
 602:Drivers/lvgl/src/widgets/slider/lv_slider.c ****     }
 1649              		.loc 1 602 9 is_stmt 1 view .LVU468
 602:Drivers/lvgl/src/widgets/slider/lv_slider.c ****     }
 1650              		.loc 1 602 33 is_stmt 0 view .LVU469
 1651 015c 236B     		ldr	r3, [r4, #48]
 602:Drivers/lvgl/src/widgets/slider/lv_slider.c ****     }
 1652              		.loc 1 602 19 view .LVU470
 1653 015e 1344     		add	r3, r3, r2
 1654              	.LVL176:
 1655              	.L90:
 602:Drivers/lvgl/src/widgets/slider/lv_slider.c ****     }
 1656              		.loc 1 602 19 view .LVU471
 1657              	.LBE85:
 605:Drivers/lvgl/src/widgets/slider/lv_slider.c ****     int32_t real_min_value = slider->bar.min_value;
 1658              		.loc 1 605 5 is_stmt 1 view .LVU472
 605:Drivers/lvgl/src/widgets/slider/lv_slider.c ****     int32_t real_min_value = slider->bar.min_value;
 1659              		.loc 1 605 13 is_stmt 0 view .LVU473
 1660 0160 606B     		ldr	r0, [r4, #52]
 1661              	.LVL177:
 606:Drivers/lvgl/src/widgets/slider/lv_slider.c ****     /*Figure out the min. and max. for this mode*/
ARM GAS  /tmp/ccq4eqVm.s 			page 60


 1662              		.loc 1 606 5 is_stmt 1 view .LVU474
 606:Drivers/lvgl/src/widgets/slider/lv_slider.c ****     /*Figure out the min. and max. for this mode*/
 1663              		.loc 1 606 13 is_stmt 0 view .LVU475
 1664 0162 216B     		ldr	r1, [r4, #48]
 1665              	.LVL178:
 608:Drivers/lvgl/src/widgets/slider/lv_slider.c ****         real_max_value = slider->bar.cur_value;
 1666              		.loc 1 608 5 is_stmt 1 view .LVU476
 608:Drivers/lvgl/src/widgets/slider/lv_slider.c ****         real_max_value = slider->bar.cur_value;
 1667              		.loc 1 608 14 is_stmt 0 view .LVU477
 1668 0164 D4F89C20 		ldr	r2, [r4, #156]
 608:Drivers/lvgl/src/widgets/slider/lv_slider.c ****         real_max_value = slider->bar.cur_value;
 1669              		.loc 1 608 32 view .LVU478
 1670 0168 04F13805 		add	r5, r4, #56
 608:Drivers/lvgl/src/widgets/slider/lv_slider.c ****         real_max_value = slider->bar.cur_value;
 1671              		.loc 1 608 7 view .LVU479
 1672 016c AA42     		cmp	r2, r5
 1673 016e 22D0     		beq	.L106
 612:Drivers/lvgl/src/widgets/slider/lv_slider.c ****     }
 1674              		.loc 1 612 9 is_stmt 1 view .LVU480
 612:Drivers/lvgl/src/widgets/slider/lv_slider.c ****     }
 1675              		.loc 1 612 24 is_stmt 0 view .LVU481
 1676 0170 A16B     		ldr	r1, [r4, #56]
 1677              	.LVL179:
 1678              	.L96:
 615:Drivers/lvgl/src/widgets/slider/lv_slider.c ****     if(*slider->value_to_set != new_value) {
 1679              		.loc 1 615 5 is_stmt 1 view .LVU482
 615:Drivers/lvgl/src/widgets/slider/lv_slider.c ****     if(*slider->value_to_set != new_value) {
 1680              		.loc 1 615 17 is_stmt 0 view .LVU483
 1681 0172 8342     		cmp	r3, r0
 1682 0174 A8BF     		it	ge
 1683 0176 0346     		movge	r3, r0
 1684              	.LVL180:
 615:Drivers/lvgl/src/widgets/slider/lv_slider.c ****     if(*slider->value_to_set != new_value) {
 1685              		.loc 1 615 15 view .LVU484
 1686 0178 8B42     		cmp	r3, r1
 1687 017a B8BF     		it	lt
 1688 017c 0B46     		movlt	r3, r1
 1689              	.LVL181:
 616:Drivers/lvgl/src/widgets/slider/lv_slider.c ****         *slider->value_to_set = new_value;
 1690              		.loc 1 616 5 is_stmt 1 view .LVU485
 616:Drivers/lvgl/src/widgets/slider/lv_slider.c ****         *slider->value_to_set = new_value;
 1691              		.loc 1 616 8 is_stmt 0 view .LVU486
 1692 017e 1168     		ldr	r1, [r2]
 1693              	.LVL182:
 616:Drivers/lvgl/src/widgets/slider/lv_slider.c ****         *slider->value_to_set = new_value;
 1694              		.loc 1 616 7 view .LVU487
 1695 0180 9942     		cmp	r1, r3
 1696 0182 3FF449AF 		beq	.L81
 1697              	.LBB90:
 617:Drivers/lvgl/src/widgets/slider/lv_slider.c ****         if(is_hor)
 1698              		.loc 1 617 9 is_stmt 1 view .LVU488
 617:Drivers/lvgl/src/widgets/slider/lv_slider.c ****         if(is_hor)
 1699              		.loc 1 617 31 is_stmt 0 view .LVU489
 1700 0186 1360     		str	r3, [r2]
 618:Drivers/lvgl/src/widgets/slider/lv_slider.c ****             lv_obj_remove_flag(obj, LV_OBJ_FLAG_SCROLL_CHAIN_VER);
 1701              		.loc 1 618 9 is_stmt 1 view .LVU490
 618:Drivers/lvgl/src/widgets/slider/lv_slider.c ****             lv_obj_remove_flag(obj, LV_OBJ_FLAG_SCROLL_CHAIN_VER);
ARM GAS  /tmp/ccq4eqVm.s 			page 61


 1702              		.loc 1 618 11 is_stmt 0 view .LVU491
 1703 0188 BFB1     		cbz	r7, .L98
 619:Drivers/lvgl/src/widgets/slider/lv_slider.c ****         else
 1704              		.loc 1 619 13 is_stmt 1 view .LVU492
 1705 018a 4FF40071 		mov	r1, #512
 1706 018e 2046     		mov	r0, r4
 1707              	.LVL183:
 619:Drivers/lvgl/src/widgets/slider/lv_slider.c ****         else
 1708              		.loc 1 619 13 is_stmt 0 view .LVU493
 1709 0190 FFF7FEFF 		bl	lv_obj_remove_flag
 1710              	.LVL184:
 1711              	.L99:
 623:Drivers/lvgl/src/widgets/slider/lv_slider.c ****         lv_result_t res = lv_obj_send_event(obj, LV_EVENT_VALUE_CHANGED, NULL);
 1712              		.loc 1 623 9 is_stmt 1 view .LVU494
 1713 0194 2046     		mov	r0, r4
 1714 0196 FFF7FEFF 		bl	lv_obj_invalidate
 1715              	.LVL185:
 624:Drivers/lvgl/src/widgets/slider/lv_slider.c ****         if(res != LV_RESULT_OK)
 1716              		.loc 1 624 9 view .LVU495
 624:Drivers/lvgl/src/widgets/slider/lv_slider.c ****         if(res != LV_RESULT_OK)
 1717              		.loc 1 624 27 is_stmt 0 view .LVU496
 1718 019a 0022     		movs	r2, #0
 1719 019c 2321     		movs	r1, #35
 1720 019e 2046     		mov	r0, r4
 1721 01a0 FFF7FEFF 		bl	lv_obj_send_event
 1722              	.LVL186:
 625:Drivers/lvgl/src/widgets/slider/lv_slider.c ****             return;
 1723              		.loc 1 625 9 is_stmt 1 view .LVU497
 1724 01a4 38E7     		b	.L81
 1725              	.LVL187:
 1726              	.L92:
 625:Drivers/lvgl/src/widgets/slider/lv_slider.c ****             return;
 1727              		.loc 1 625 9 is_stmt 0 view .LVU498
 1728              	.LBE90:
 1729              	.LBB91:
 598:Drivers/lvgl/src/widgets/slider/lv_slider.c ****             new_value = -new_value;
 1730              		.loc 1 598 13 is_stmt 1 view .LVU499
 598:Drivers/lvgl/src/widgets/slider/lv_slider.c ****             new_value = -new_value;
 1731              		.loc 1 598 43 is_stmt 0 view .LVU500
 1732 01a6 236A     		ldr	r3, [r4, #32]
 598:Drivers/lvgl/src/widgets/slider/lv_slider.c ****             new_value = -new_value;
 1733              		.loc 1 598 47 view .LVU501
 1734 01a8 03EB0900 		add	r0, r3, r9
 1735              	.LVL188:
 599:Drivers/lvgl/src/widgets/slider/lv_slider.c ****         }
 1736              		.loc 1 599 13 is_stmt 1 view .LVU502
 599:Drivers/lvgl/src/widgets/slider/lv_slider.c ****         }
 1737              		.loc 1 599 23 is_stmt 0 view .LVU503
 1738 01ac 039B     		ldr	r3, [sp, #12]
 1739 01ae C21A     		subs	r2, r0, r3
 1740 01b0 CBE7     		b	.L93
 1741              	.LVL189:
 1742              	.L105:
 601:Drivers/lvgl/src/widgets/slider/lv_slider.c ****         new_value += slider->bar.min_value;
 1743              		.loc 1 601 50 view .LVU504
 1744 01b2 4B1C     		adds	r3, r1, #1
 1745 01b4 CEE7     		b	.L94
ARM GAS  /tmp/ccq4eqVm.s 			page 62


 1746              	.LVL190:
 1747              	.L106:
 601:Drivers/lvgl/src/widgets/slider/lv_slider.c ****         new_value += slider->bar.min_value;
 1748              		.loc 1 601 50 view .LVU505
 1749              	.LBE91:
 609:Drivers/lvgl/src/widgets/slider/lv_slider.c ****     }
 1750              		.loc 1 609 9 is_stmt 1 view .LVU506
 609:Drivers/lvgl/src/widgets/slider/lv_slider.c ****     }
 1751              		.loc 1 609 24 is_stmt 0 view .LVU507
 1752 01b6 E06A     		ldr	r0, [r4, #44]
 1753              	.LVL191:
 609:Drivers/lvgl/src/widgets/slider/lv_slider.c ****     }
 1754              		.loc 1 609 24 view .LVU508
 1755 01b8 DBE7     		b	.L96
 1756              	.LVL192:
 1757              	.L98:
 1758              	.LBB92:
 621:Drivers/lvgl/src/widgets/slider/lv_slider.c **** 
 1759              		.loc 1 621 13 is_stmt 1 view .LVU509
 1760 01ba 4FF48071 		mov	r1, #256
 1761 01be 2046     		mov	r0, r4
 1762              	.LVL193:
 621:Drivers/lvgl/src/widgets/slider/lv_slider.c **** 
 1763              		.loc 1 621 13 is_stmt 0 view .LVU510
 1764 01c0 FFF7FEFF 		bl	lv_obj_remove_flag
 1765              	.LVL194:
 621:Drivers/lvgl/src/widgets/slider/lv_slider.c **** 
 1766              		.loc 1 621 13 view .LVU511
 1767 01c4 E6E7     		b	.L99
 1768              	.LBE92:
 1769              		.cfi_endproc
 1770              	.LFE191:
 1772              		.section	.text.lv_slider_get_orientation,"ax",%progbits
 1773              		.align	1
 1774              		.global	lv_slider_get_orientation
 1775              		.syntax unified
 1776              		.thumb
 1777              		.thumb_func
 1779              	lv_slider_get_orientation:
 1780              	.LVL195:
 1781              	.LFB183:
 197:Drivers/lvgl/src/widgets/slider/lv_slider.c ****     lv_bar_orientation_t ori = lv_bar_get_orientation(slider);
 1782              		.loc 1 197 1 is_stmt 1 view -0
 1783              		.cfi_startproc
 1784              		@ args = 0, pretend = 0, frame = 0
 1785              		@ frame_needed = 0, uses_anonymous_args = 0
 197:Drivers/lvgl/src/widgets/slider/lv_slider.c ****     lv_bar_orientation_t ori = lv_bar_get_orientation(slider);
 1786              		.loc 1 197 1 is_stmt 0 view .LVU513
 1787 0000 08B5     		push	{r3, lr}
 1788              	.LCFI25:
