ARM GAS  /tmp/cc5jWvlN.s 			page 1


   1              		.cpu cortex-m7
   2              		.arch armv7e-m
   3              		.fpu fpv5-sp-d16
   4              		.eabi_attribute 27, 1
   5              		.eabi_attribute 28, 1
   6              		.eabi_attribute 20, 1
   7              		.eabi_attribute 21, 1
   8              		.eabi_attribute 23, 3
   9              		.eabi_attribute 24, 1
  10              		.eabi_attribute 25, 1
  11              		.eabi_attribute 26, 1
  12              		.eabi_attribute 30, 1
  13              		.eabi_attribute 34, 1
  14              		.eabi_attribute 18, 4
  15              		.file	"lv_sprintf_clib.c"
  16              		.text
  17              	.Ltext0:
  18              		.cfi_sections	.debug_frame
  19              		.file 1 "Drivers/lvgl/src/stdlib/clib/lv_sprintf_clib.c"
  20              		.section	.text.lv_snprintf,"ax",%progbits
  21              		.align	1
  22              		.global	lv_snprintf
  23              		.syntax unified
  24              		.thumb
  25              		.thumb_func
  27              	lv_snprintf:
  28              	.LVL0:
  29              	.LFB3:
   1:Drivers/lvgl/src/stdlib/clib/lv_sprintf_clib.c **** 
   2:Drivers/lvgl/src/stdlib/clib/lv_sprintf_clib.c **** /**
   3:Drivers/lvgl/src/stdlib/clib/lv_sprintf_clib.c ****  * @file lv_templ.c
   4:Drivers/lvgl/src/stdlib/clib/lv_sprintf_clib.c ****  *
   5:Drivers/lvgl/src/stdlib/clib/lv_sprintf_clib.c ****  */
   6:Drivers/lvgl/src/stdlib/clib/lv_sprintf_clib.c **** 
   7:Drivers/lvgl/src/stdlib/clib/lv_sprintf_clib.c **** /*********************
   8:Drivers/lvgl/src/stdlib/clib/lv_sprintf_clib.c ****  *      INCLUDES
   9:Drivers/lvgl/src/stdlib/clib/lv_sprintf_clib.c ****  *********************/
  10:Drivers/lvgl/src/stdlib/clib/lv_sprintf_clib.c **** #include "../../lv_conf_internal.h"
  11:Drivers/lvgl/src/stdlib/clib/lv_sprintf_clib.c **** #if LV_USE_STDLIB_SPRINTF == LV_STDLIB_CLIB
  12:Drivers/lvgl/src/stdlib/clib/lv_sprintf_clib.c **** #include <stdio.h>
  13:Drivers/lvgl/src/stdlib/clib/lv_sprintf_clib.c **** #include <stdarg.h>
  14:Drivers/lvgl/src/stdlib/clib/lv_sprintf_clib.c **** #include "../lv_sprintf.h"
  15:Drivers/lvgl/src/stdlib/clib/lv_sprintf_clib.c **** 
  16:Drivers/lvgl/src/stdlib/clib/lv_sprintf_clib.c **** /*********************
  17:Drivers/lvgl/src/stdlib/clib/lv_sprintf_clib.c ****  *      DEFINES
  18:Drivers/lvgl/src/stdlib/clib/lv_sprintf_clib.c ****  *********************/
  19:Drivers/lvgl/src/stdlib/clib/lv_sprintf_clib.c **** 
  20:Drivers/lvgl/src/stdlib/clib/lv_sprintf_clib.c **** /**********************
  21:Drivers/lvgl/src/stdlib/clib/lv_sprintf_clib.c ****  *      TYPEDEFS
  22:Drivers/lvgl/src/stdlib/clib/lv_sprintf_clib.c ****  **********************/
  23:Drivers/lvgl/src/stdlib/clib/lv_sprintf_clib.c **** 
  24:Drivers/lvgl/src/stdlib/clib/lv_sprintf_clib.c **** /**********************
  25:Drivers/lvgl/src/stdlib/clib/lv_sprintf_clib.c ****  *  STATIC PROTOTYPES
  26:Drivers/lvgl/src/stdlib/clib/lv_sprintf_clib.c ****  **********************/
  27:Drivers/lvgl/src/stdlib/clib/lv_sprintf_clib.c **** 
  28:Drivers/lvgl/src/stdlib/clib/lv_sprintf_clib.c **** /**********************
  29:Drivers/lvgl/src/stdlib/clib/lv_sprintf_clib.c ****  *  STATIC VARIABLES
ARM GAS  /tmp/cc5jWvlN.s 			page 2


  30:Drivers/lvgl/src/stdlib/clib/lv_sprintf_clib.c ****  **********************/
  31:Drivers/lvgl/src/stdlib/clib/lv_sprintf_clib.c **** 
  32:Drivers/lvgl/src/stdlib/clib/lv_sprintf_clib.c **** /**********************
  33:Drivers/lvgl/src/stdlib/clib/lv_sprintf_clib.c ****  *      MACROS
  34:Drivers/lvgl/src/stdlib/clib/lv_sprintf_clib.c ****  **********************/
  35:Drivers/lvgl/src/stdlib/clib/lv_sprintf_clib.c **** 
  36:Drivers/lvgl/src/stdlib/clib/lv_sprintf_clib.c **** /**********************
  37:Drivers/lvgl/src/stdlib/clib/lv_sprintf_clib.c ****  *   GLOBAL FUNCTIONS
  38:Drivers/lvgl/src/stdlib/clib/lv_sprintf_clib.c ****  **********************/
  39:Drivers/lvgl/src/stdlib/clib/lv_sprintf_clib.c **** 
  40:Drivers/lvgl/src/stdlib/clib/lv_sprintf_clib.c **** int lv_snprintf(char * buffer, size_t count, const char * format, ...)
  41:Drivers/lvgl/src/stdlib/clib/lv_sprintf_clib.c **** {
  30              		.loc 1 41 1 view -0
  31              		.cfi_startproc
  32              		@ args = 4, pretend = 8, frame = 8
  33              		@ frame_needed = 0, uses_anonymous_args = 1
  34              		.loc 1 41 1 is_stmt 0 view .LVU1
  35 0000 0CB4     		push	{r2, r3}
  36              	.LCFI0:
  37              		.cfi_def_cfa_offset 8
  38              		.cfi_offset 2, -8
  39              		.cfi_offset 3, -4
  40 0002 00B5     		push	{lr}
  41              	.LCFI1:
  42              		.cfi_def_cfa_offset 12
  43              		.cfi_offset 14, -12
  44 0004 83B0     		sub	sp, sp, #12
  45              	.LCFI2:
  46              		.cfi_def_cfa_offset 24
  47 0006 04AB     		add	r3, sp, #16
  48 0008 53F8042B 		ldr	r2, [r3], #4
  42:Drivers/lvgl/src/stdlib/clib/lv_sprintf_clib.c ****     va_list va;
  49              		.loc 1 42 5 is_stmt 1 view .LVU2
  43:Drivers/lvgl/src/stdlib/clib/lv_sprintf_clib.c ****     va_start(va, format);
  50              		.loc 1 43 5 view .LVU3
  51 000c 0193     		str	r3, [sp, #4]
  44:Drivers/lvgl/src/stdlib/clib/lv_sprintf_clib.c ****     const int ret = vsnprintf(buffer, count, format, va);
  52              		.loc 1 44 5 view .LVU4
  53              		.loc 1 44 21 is_stmt 0 view .LVU5
  54 000e FFF7FEFF 		bl	vsnprintf
  55              	.LVL1:
  45:Drivers/lvgl/src/stdlib/clib/lv_sprintf_clib.c ****     va_end(va);
  56              		.loc 1 45 5 is_stmt 1 view .LVU6
  46:Drivers/lvgl/src/stdlib/clib/lv_sprintf_clib.c ****     return ret;
  57              		.loc 1 46 5 view .LVU7
  47:Drivers/lvgl/src/stdlib/clib/lv_sprintf_clib.c **** }
  58              		.loc 1 47 1 is_stmt 0 view .LVU8
  59 0012 03B0     		add	sp, sp, #12
  60              	.LCFI3:
  61              		.cfi_def_cfa_offset 12
  62              		@ sp needed
  63 0014 5DF804EB 		ldr	lr, [sp], #4
  64              	.LCFI4:
  65              		.cfi_restore 14
  66              		.cfi_def_cfa_offset 8
  67 0018 02B0     		add	sp, sp, #8
  68              	.LCFI5:
ARM GAS  /tmp/cc5jWvlN.s 			page 3


  69              		.cfi_restore 3
  70              		.cfi_restore 2
  71              		.cfi_def_cfa_offset 0
  72 001a 7047     		bx	lr
  73              		.cfi_endproc
  74              	.LFE3:
  76              		.section	.text.lv_vsnprintf,"ax",%progbits
  77              		.align	1
  78              		.global	lv_vsnprintf
  79              		.syntax unified
  80              		.thumb
  81              		.thumb_func
  83              	lv_vsnprintf:
  84              	.LVL2:
  85              	.LFB4:
  48:Drivers/lvgl/src/stdlib/clib/lv_sprintf_clib.c **** 
  49:Drivers/lvgl/src/stdlib/clib/lv_sprintf_clib.c **** int lv_vsnprintf(char * buffer, size_t count, const char * format, va_list va)
  50:Drivers/lvgl/src/stdlib/clib/lv_sprintf_clib.c **** {
  86              		.loc 1 50 1 is_stmt 1 view -0
  87              		.cfi_startproc
  88              		@ args = 0, pretend = 0, frame = 0
  89              		@ frame_needed = 0, uses_anonymous_args = 0
  90              		.loc 1 50 1 is_stmt 0 view .LVU10
  91 0000 08B5     		push	{r3, lr}
  92              	.LCFI6:
  93              		.cfi_def_cfa_offset 8
  94              		.cfi_offset 3, -8
  95              		.cfi_offset 14, -4
  51:Drivers/lvgl/src/stdlib/clib/lv_sprintf_clib.c ****     return vsnprintf(buffer, count, format, va);
  96              		.loc 1 51 5 is_stmt 1 view .LVU11
  97              		.loc 1 51 12 is_stmt 0 view .LVU12
  98 0002 FFF7FEFF 		bl	vsnprintf
  99              	.LVL3:
  52:Drivers/lvgl/src/stdlib/clib/lv_sprintf_clib.c **** }
 100              		.loc 1 52 1 view .LVU13
 101 0006 08BD     		pop	{r3, pc}
 102              		.cfi_endproc
 103              	.LFE4:
 105              		.text
 106              	.Letext0:
 107              		.file 2 "/usr/lib/gcc/arm-none-eabi/14.2.0/include/stddef.h"
 108              		.file 3 "/usr/lib/gcc/arm-none-eabi/14.2.0/include/stdarg.h"
 109              		.file 4 "/usr/arm-none-eabi/include/stdio.h"
 110              		.file 5 "<built-in>"
ARM GAS  /tmp/cc5jWvlN.s 			page 4

