ARM GAS  /tmp/ccpETK7y.s 			page 1


   1              		.cpu cortex-m7
   2              		.arch armv7e-m
   3              		.fpu fpv5-sp-d16
   4              		.eabi_attribute 27, 1
   5              		.eabi_attribute 28, 1
   6              		.eabi_attribute 20, 1
   7              		.eabi_attribute 21, 1
   8              		.eabi_attribute 23, 3
   9              		.eabi_attribute 24, 1
  10              		.eabi_attribute 25, 1
  11              		.eabi_attribute 26, 1
  12              		.eabi_attribute 30, 1
  13              		.eabi_attribute 34, 1
  14              		.eabi_attribute 18, 4
  15              		.file	"lv_spinner.c"
  16              		.text
  17              	.Ltext0:
  18              		.cfi_sections	.debug_frame
  19              		.file 1 "Drivers/lvgl/src/widgets/spinner/lv_spinner.c"
  20              		.section	.text.arc_anim_start_angle,"ax",%progbits
  21              		.align	1
  22              		.syntax unified
  23              		.thumb
  24              		.thumb_func
  26              	arc_anim_start_angle:
  27              	.LVL0:
  28              	.LFB181:
   1:Drivers/lvgl/src/widgets/spinner/lv_spinner.c **** /**
   2:Drivers/lvgl/src/widgets/spinner/lv_spinner.c ****  * @file lv_spinner.c
   3:Drivers/lvgl/src/widgets/spinner/lv_spinner.c ****  *
   4:Drivers/lvgl/src/widgets/spinner/lv_spinner.c ****  */
   5:Drivers/lvgl/src/widgets/spinner/lv_spinner.c **** 
   6:Drivers/lvgl/src/widgets/spinner/lv_spinner.c **** /*********************
   7:Drivers/lvgl/src/widgets/spinner/lv_spinner.c ****  *      INCLUDES
   8:Drivers/lvgl/src/widgets/spinner/lv_spinner.c ****  *********************/
   9:Drivers/lvgl/src/widgets/spinner/lv_spinner.c **** #include "../../misc/lv_anim_private.h"
  10:Drivers/lvgl/src/widgets/spinner/lv_spinner.c **** #include "../../core/lv_obj_class_private.h"
  11:Drivers/lvgl/src/widgets/spinner/lv_spinner.c **** #include "../../lvgl.h"
  12:Drivers/lvgl/src/widgets/spinner/lv_spinner.c **** #if LV_USE_SPINNER
  13:Drivers/lvgl/src/widgets/spinner/lv_spinner.c **** 
  14:Drivers/lvgl/src/widgets/spinner/lv_spinner.c **** /*********************
  15:Drivers/lvgl/src/widgets/spinner/lv_spinner.c ****  *      DEFINES
  16:Drivers/lvgl/src/widgets/spinner/lv_spinner.c ****  *********************/
  17:Drivers/lvgl/src/widgets/spinner/lv_spinner.c **** #define DEF_ARC_ANGLE   200
  18:Drivers/lvgl/src/widgets/spinner/lv_spinner.c **** #define DEF_TIME        1000
  19:Drivers/lvgl/src/widgets/spinner/lv_spinner.c **** 
  20:Drivers/lvgl/src/widgets/spinner/lv_spinner.c **** /**********************
  21:Drivers/lvgl/src/widgets/spinner/lv_spinner.c ****  *      TYPEDEFS
  22:Drivers/lvgl/src/widgets/spinner/lv_spinner.c ****  **********************/
  23:Drivers/lvgl/src/widgets/spinner/lv_spinner.c **** 
  24:Drivers/lvgl/src/widgets/spinner/lv_spinner.c **** /**********************
  25:Drivers/lvgl/src/widgets/spinner/lv_spinner.c ****  *  STATIC PROTOTYPES
  26:Drivers/lvgl/src/widgets/spinner/lv_spinner.c ****  **********************/
  27:Drivers/lvgl/src/widgets/spinner/lv_spinner.c **** static void lv_spinner_constructor(const lv_obj_class_t * class_p, lv_obj_t * obj);
  28:Drivers/lvgl/src/widgets/spinner/lv_spinner.c **** static void arc_anim_start_angle(void * obj, int32_t v);
  29:Drivers/lvgl/src/widgets/spinner/lv_spinner.c **** static void arc_anim_end_angle(void * obj, int32_t v);
  30:Drivers/lvgl/src/widgets/spinner/lv_spinner.c **** 
ARM GAS  /tmp/ccpETK7y.s 			page 2


  31:Drivers/lvgl/src/widgets/spinner/lv_spinner.c **** /**********************
  32:Drivers/lvgl/src/widgets/spinner/lv_spinner.c ****  *  STATIC VARIABLES
  33:Drivers/lvgl/src/widgets/spinner/lv_spinner.c ****  **********************/
  34:Drivers/lvgl/src/widgets/spinner/lv_spinner.c **** const lv_obj_class_t lv_spinner_class = {
  35:Drivers/lvgl/src/widgets/spinner/lv_spinner.c ****     .base_class = &lv_arc_class,
  36:Drivers/lvgl/src/widgets/spinner/lv_spinner.c ****     .constructor_cb = lv_spinner_constructor,
  37:Drivers/lvgl/src/widgets/spinner/lv_spinner.c ****     .name = "lv_spinner",
  38:Drivers/lvgl/src/widgets/spinner/lv_spinner.c **** };
  39:Drivers/lvgl/src/widgets/spinner/lv_spinner.c **** 
  40:Drivers/lvgl/src/widgets/spinner/lv_spinner.c **** /**********************
  41:Drivers/lvgl/src/widgets/spinner/lv_spinner.c ****  *      MACROS
  42:Drivers/lvgl/src/widgets/spinner/lv_spinner.c ****  **********************/
  43:Drivers/lvgl/src/widgets/spinner/lv_spinner.c **** 
  44:Drivers/lvgl/src/widgets/spinner/lv_spinner.c **** /**********************
  45:Drivers/lvgl/src/widgets/spinner/lv_spinner.c ****  *   GLOBAL FUNCTIONS
  46:Drivers/lvgl/src/widgets/spinner/lv_spinner.c ****  **********************/
  47:Drivers/lvgl/src/widgets/spinner/lv_spinner.c **** 
  48:Drivers/lvgl/src/widgets/spinner/lv_spinner.c **** lv_obj_t * lv_spinner_create(lv_obj_t * parent)
  49:Drivers/lvgl/src/widgets/spinner/lv_spinner.c **** {
  50:Drivers/lvgl/src/widgets/spinner/lv_spinner.c **** 
  51:Drivers/lvgl/src/widgets/spinner/lv_spinner.c ****     lv_obj_t * obj = lv_obj_class_create_obj(&lv_spinner_class, parent);
  52:Drivers/lvgl/src/widgets/spinner/lv_spinner.c ****     lv_obj_class_init_obj(obj);
  53:Drivers/lvgl/src/widgets/spinner/lv_spinner.c ****     return obj;
  54:Drivers/lvgl/src/widgets/spinner/lv_spinner.c **** }
  55:Drivers/lvgl/src/widgets/spinner/lv_spinner.c **** 
  56:Drivers/lvgl/src/widgets/spinner/lv_spinner.c **** void lv_spinner_set_anim_params(lv_obj_t * obj, uint32_t t, uint32_t angle)
  57:Drivers/lvgl/src/widgets/spinner/lv_spinner.c **** {
  58:Drivers/lvgl/src/widgets/spinner/lv_spinner.c ****     /*Delete the current animation*/
  59:Drivers/lvgl/src/widgets/spinner/lv_spinner.c ****     lv_anim_delete(obj, NULL);
  60:Drivers/lvgl/src/widgets/spinner/lv_spinner.c **** 
  61:Drivers/lvgl/src/widgets/spinner/lv_spinner.c ****     lv_anim_t a;
  62:Drivers/lvgl/src/widgets/spinner/lv_spinner.c ****     lv_anim_init(&a);
  63:Drivers/lvgl/src/widgets/spinner/lv_spinner.c ****     lv_anim_set_var(&a, obj);
  64:Drivers/lvgl/src/widgets/spinner/lv_spinner.c ****     lv_anim_set_exec_cb(&a, arc_anim_end_angle);
  65:Drivers/lvgl/src/widgets/spinner/lv_spinner.c ****     lv_anim_set_repeat_count(&a, LV_ANIM_REPEAT_INFINITE);
  66:Drivers/lvgl/src/widgets/spinner/lv_spinner.c ****     lv_anim_set_duration(&a, t);
  67:Drivers/lvgl/src/widgets/spinner/lv_spinner.c ****     lv_anim_set_values(&a, angle, 360 + angle);
  68:Drivers/lvgl/src/widgets/spinner/lv_spinner.c ****     lv_anim_start(&a);
  69:Drivers/lvgl/src/widgets/spinner/lv_spinner.c **** 
  70:Drivers/lvgl/src/widgets/spinner/lv_spinner.c ****     lv_anim_set_path_cb(&a, lv_anim_path_custom_bezier3);
  71:Drivers/lvgl/src/widgets/spinner/lv_spinner.c ****     lv_anim_set_bezier3_param(&a, LV_BEZIER_VAL_FLOAT(0.42), LV_BEZIER_VAL_FLOAT(0.58),
  72:Drivers/lvgl/src/widgets/spinner/lv_spinner.c ****                               LV_BEZIER_VAL_FLOAT(0), LV_BEZIER_VAL_FLOAT(1));
  73:Drivers/lvgl/src/widgets/spinner/lv_spinner.c ****     lv_anim_set_values(&a, 0, 360);
  74:Drivers/lvgl/src/widgets/spinner/lv_spinner.c ****     lv_anim_set_exec_cb(&a, arc_anim_start_angle);
  75:Drivers/lvgl/src/widgets/spinner/lv_spinner.c ****     lv_anim_start(&a);
  76:Drivers/lvgl/src/widgets/spinner/lv_spinner.c **** 
  77:Drivers/lvgl/src/widgets/spinner/lv_spinner.c ****     lv_arc_set_bg_angles(obj, 0, 360);
  78:Drivers/lvgl/src/widgets/spinner/lv_spinner.c ****     lv_arc_set_rotation(obj, 270);
  79:Drivers/lvgl/src/widgets/spinner/lv_spinner.c **** }
  80:Drivers/lvgl/src/widgets/spinner/lv_spinner.c **** 
  81:Drivers/lvgl/src/widgets/spinner/lv_spinner.c **** /**********************
  82:Drivers/lvgl/src/widgets/spinner/lv_spinner.c ****  *   STATIC FUNCTIONS
  83:Drivers/lvgl/src/widgets/spinner/lv_spinner.c ****  **********************/
  84:Drivers/lvgl/src/widgets/spinner/lv_spinner.c **** 
  85:Drivers/lvgl/src/widgets/spinner/lv_spinner.c **** static void lv_spinner_constructor(const lv_obj_class_t * class_p, lv_obj_t * obj)
  86:Drivers/lvgl/src/widgets/spinner/lv_spinner.c **** {
  87:Drivers/lvgl/src/widgets/spinner/lv_spinner.c ****     LV_TRACE_OBJ_CREATE("begin");
ARM GAS  /tmp/ccpETK7y.s 			page 3


  88:Drivers/lvgl/src/widgets/spinner/lv_spinner.c **** 
  89:Drivers/lvgl/src/widgets/spinner/lv_spinner.c ****     LV_UNUSED(class_p);
  90:Drivers/lvgl/src/widgets/spinner/lv_spinner.c **** 
  91:Drivers/lvgl/src/widgets/spinner/lv_spinner.c ****     lv_obj_remove_flag(obj, LV_OBJ_FLAG_CLICKABLE);
  92:Drivers/lvgl/src/widgets/spinner/lv_spinner.c **** 
  93:Drivers/lvgl/src/widgets/spinner/lv_spinner.c ****     lv_spinner_set_anim_params(obj, DEF_TIME, DEF_ARC_ANGLE);
  94:Drivers/lvgl/src/widgets/spinner/lv_spinner.c **** }
  95:Drivers/lvgl/src/widgets/spinner/lv_spinner.c **** 
  96:Drivers/lvgl/src/widgets/spinner/lv_spinner.c **** static void arc_anim_start_angle(void * obj, int32_t v)
  97:Drivers/lvgl/src/widgets/spinner/lv_spinner.c **** {
  29              		.loc 1 97 1 view -0
  30              		.cfi_startproc
  31              		@ args = 0, pretend = 0, frame = 0
  32              		@ frame_needed = 0, uses_anonymous_args = 0
  33              		.loc 1 97 1 is_stmt 0 view .LVU1
  34 0000 08B5     		push	{r3, lr}
  35              	.LCFI0:
  36              		.cfi_def_cfa_offset 8
  37              		.cfi_offset 3, -8
  38              		.cfi_offset 14, -4
  98:Drivers/lvgl/src/widgets/spinner/lv_spinner.c ****     lv_arc_set_start_angle(obj, (uint32_t) v);
  39              		.loc 1 98 5 is_stmt 1 view .LVU2
  40 0002 FFF7FEFF 		bl	lv_arc_set_start_angle
  41              	.LVL1:
  99:Drivers/lvgl/src/widgets/spinner/lv_spinner.c **** }
  42              		.loc 1 99 1 is_stmt 0 view .LVU3
  43 0006 08BD     		pop	{r3, pc}
  44              		.cfi_endproc
  45              	.LFE181:
  47              		.section	.text.arc_anim_end_angle,"ax",%progbits
  48              		.align	1
  49              		.syntax unified
  50              		.thumb
  51              		.thumb_func
  53              	arc_anim_end_angle:
  54              	.LVL2:
  55              	.LFB182:
 100:Drivers/lvgl/src/widgets/spinner/lv_spinner.c **** 
 101:Drivers/lvgl/src/widgets/spinner/lv_spinner.c **** static void arc_anim_end_angle(void * obj, int32_t v)
 102:Drivers/lvgl/src/widgets/spinner/lv_spinner.c **** {
  56              		.loc 1 102 1 is_stmt 1 view -0
  57              		.cfi_startproc
  58              		@ args = 0, pretend = 0, frame = 0
  59              		@ frame_needed = 0, uses_anonymous_args = 0
  60              		.loc 1 102 1 is_stmt 0 view .LVU5
  61 0000 08B5     		push	{r3, lr}
  62              	.LCFI1:
  63              		.cfi_def_cfa_offset 8
  64              		.cfi_offset 3, -8
  65              		.cfi_offset 14, -4
 103:Drivers/lvgl/src/widgets/spinner/lv_spinner.c ****     lv_arc_set_end_angle(obj, (uint32_t) v);
  66              		.loc 1 103 5 is_stmt 1 view .LVU6
  67 0002 FFF7FEFF 		bl	lv_arc_set_end_angle
  68              	.LVL3:
 104:Drivers/lvgl/src/widgets/spinner/lv_spinner.c **** }
  69              		.loc 1 104 1 is_stmt 0 view .LVU7
  70 0006 08BD     		pop	{r3, pc}
ARM GAS  /tmp/ccpETK7y.s 			page 4


  71              		.cfi_endproc
  72              	.LFE182:
  74              		.section	.text.lv_spinner_create,"ax",%progbits
  75              		.align	1
  76              		.global	lv_spinner_create
  77              		.syntax unified
  78              		.thumb
  79              		.thumb_func
  81              	lv_spinner_create:
  82              	.LVL4:
  83              	.LFB178:
  49:Drivers/lvgl/src/widgets/spinner/lv_spinner.c **** 
  84              		.loc 1 49 1 is_stmt 1 view -0
  85              		.cfi_startproc
  86              		@ args = 0, pretend = 0, frame = 0
  87              		@ frame_needed = 0, uses_anonymous_args = 0
  49:Drivers/lvgl/src/widgets/spinner/lv_spinner.c **** 
  88              		.loc 1 49 1 is_stmt 0 view .LVU9
  89 0000 10B5     		push	{r4, lr}
  90              	.LCFI2:
  91              		.cfi_def_cfa_offset 8
  92              		.cfi_offset 4, -8
  93              		.cfi_offset 14, -4
  94 0002 0146     		mov	r1, r0
  51:Drivers/lvgl/src/widgets/spinner/lv_spinner.c ****     lv_obj_class_init_obj(obj);
  95              		.loc 1 51 5 is_stmt 1 view .LVU10
  51:Drivers/lvgl/src/widgets/spinner/lv_spinner.c ****     lv_obj_class_init_obj(obj);
  96              		.loc 1 51 22 is_stmt 0 view .LVU11
  97 0004 0348     		ldr	r0, .L7
  98              	.LVL5:
  51:Drivers/lvgl/src/widgets/spinner/lv_spinner.c ****     lv_obj_class_init_obj(obj);
  99              		.loc 1 51 22 view .LVU12
 100 0006 FFF7FEFF 		bl	lv_obj_class_create_obj
 101              	.LVL6:
  51:Drivers/lvgl/src/widgets/spinner/lv_spinner.c ****     lv_obj_class_init_obj(obj);
 102              		.loc 1 51 22 view .LVU13
 103 000a 0446     		mov	r4, r0
 104              	.LVL7:
  52:Drivers/lvgl/src/widgets/spinner/lv_spinner.c ****     return obj;
 105              		.loc 1 52 5 is_stmt 1 view .LVU14
 106 000c FFF7FEFF 		bl	lv_obj_class_init_obj
 107              	.LVL8:
  53:Drivers/lvgl/src/widgets/spinner/lv_spinner.c **** }
 108              		.loc 1 53 5 view .LVU15
  54:Drivers/lvgl/src/widgets/spinner/lv_spinner.c **** 
 109              		.loc 1 54 1 is_stmt 0 view .LVU16
 110 0010 2046     		mov	r0, r4
 111 0012 10BD     		pop	{r4, pc}
 112              	.LVL9:
 113              	.L8:
  54:Drivers/lvgl/src/widgets/spinner/lv_spinner.c **** 
 114              		.loc 1 54 1 view .LVU17
 115              		.align	2
 116              	.L7:
 117 0014 00000000 		.word	lv_spinner_class
 118              		.cfi_endproc
 119              	.LFE178:
ARM GAS  /tmp/ccpETK7y.s 			page 5


 121              		.section	.text.lv_spinner_set_anim_params,"ax",%progbits
 122              		.align	1
 123              		.global	lv_spinner_set_anim_params
 124              		.syntax unified
 125              		.thumb
 126              		.thumb_func
 128              	lv_spinner_set_anim_params:
 129              	.LVL10:
 130              	.LFB179:
  57:Drivers/lvgl/src/widgets/spinner/lv_spinner.c ****     /*Delete the current animation*/
 131              		.loc 1 57 1 is_stmt 1 view -0
 132              		.cfi_startproc
 133              		@ args = 0, pretend = 0, frame = 96
 134              		@ frame_needed = 0, uses_anonymous_args = 0
  57:Drivers/lvgl/src/widgets/spinner/lv_spinner.c ****     /*Delete the current animation*/
 135              		.loc 1 57 1 is_stmt 0 view .LVU19
 136 0000 F0B5     		push	{r4, r5, r6, r7, lr}
 137              	.LCFI3:
 138              		.cfi_def_cfa_offset 20
 139              		.cfi_offset 4, -20
 140              		.cfi_offset 5, -16
 141              		.cfi_offset 6, -12
 142              		.cfi_offset 7, -8
 143              		.cfi_offset 14, -4
 144 0002 9BB0     		sub	sp, sp, #108
 145              	.LCFI4:
 146              		.cfi_def_cfa_offset 128
 147 0004 0546     		mov	r5, r0
 148 0006 0F46     		mov	r7, r1
 149 0008 1646     		mov	r6, r2
  59:Drivers/lvgl/src/widgets/spinner/lv_spinner.c **** 
 150              		.loc 1 59 5 is_stmt 1 view .LVU20
 151 000a 0021     		movs	r1, #0
 152              	.LVL11:
  59:Drivers/lvgl/src/widgets/spinner/lv_spinner.c **** 
 153              		.loc 1 59 5 is_stmt 0 view .LVU21
 154 000c FFF7FEFF 		bl	lv_anim_delete
 155              	.LVL12:
  61:Drivers/lvgl/src/widgets/spinner/lv_spinner.c ****     lv_anim_init(&a);
 156              		.loc 1 61 5 is_stmt 1 view .LVU22
  62:Drivers/lvgl/src/widgets/spinner/lv_spinner.c ****     lv_anim_set_var(&a, obj);
 157              		.loc 1 62 5 view .LVU23
 158 0010 02AC     		add	r4, sp, #8
 159 0012 2046     		mov	r0, r4
 160 0014 FFF7FEFF 		bl	lv_anim_init
 161              	.LVL13:
  63:Drivers/lvgl/src/widgets/spinner/lv_spinner.c ****     lv_anim_set_exec_cb(&a, arc_anim_end_angle);
 162              		.loc 1 63 5 view .LVU24
 163 0018 2946     		mov	r1, r5
 164 001a 2046     		mov	r0, r4
 165 001c FFF7FEFF 		bl	lv_anim_set_var
 166              	.LVL14:
  64:Drivers/lvgl/src/widgets/spinner/lv_spinner.c ****     lv_anim_set_repeat_count(&a, LV_ANIM_REPEAT_INFINITE);
 167              		.loc 1 64 5 view .LVU25
 168 0020 1F49     		ldr	r1, .L11
 169 0022 2046     		mov	r0, r4
 170 0024 FFF7FEFF 		bl	lv_anim_set_exec_cb
ARM GAS  /tmp/ccpETK7y.s 			page 6


 171              	.LVL15:
  65:Drivers/lvgl/src/widgets/spinner/lv_spinner.c ****     lv_anim_set_duration(&a, t);
 172              		.loc 1 65 5 view .LVU26
 173 0028 4FF0FF31 		mov	r1, #-1
 174 002c 2046     		mov	r0, r4
 175 002e FFF7FEFF 		bl	lv_anim_set_repeat_count
 176              	.LVL16:
  66:Drivers/lvgl/src/widgets/spinner/lv_spinner.c ****     lv_anim_set_values(&a, angle, 360 + angle);
 177              		.loc 1 66 5 view .LVU27
 178 0032 3946     		mov	r1, r7
 179 0034 2046     		mov	r0, r4
 180 0036 FFF7FEFF 		bl	lv_anim_set_duration
 181              	.LVL17:
  67:Drivers/lvgl/src/widgets/spinner/lv_spinner.c ****     lv_anim_start(&a);
 182              		.loc 1 67 5 view .LVU28
 183 003a 06F5B472 		add	r2, r6, #360
 184 003e 3146     		mov	r1, r6
 185 0040 2046     		mov	r0, r4
 186 0042 FFF7FEFF 		bl	lv_anim_set_values
 187              	.LVL18:
  68:Drivers/lvgl/src/widgets/spinner/lv_spinner.c **** 
 188              		.loc 1 68 5 view .LVU29
 189 0046 2046     		mov	r0, r4
 190 0048 FFF7FEFF 		bl	lv_anim_start
 191              	.LVL19:
  70:Drivers/lvgl/src/widgets/spinner/lv_spinner.c ****     lv_anim_set_bezier3_param(&a, LV_BEZIER_VAL_FLOAT(0.42), LV_BEZIER_VAL_FLOAT(0.58),
 192              		.loc 1 70 5 view .LVU30
 193 004c 1549     		ldr	r1, .L11+4
 194 004e 2046     		mov	r0, r4
 195 0050 FFF7FEFF 		bl	lv_anim_set_path_cb
 196              	.LVL20:
  71:Drivers/lvgl/src/widgets/spinner/lv_spinner.c ****                               LV_BEZIER_VAL_FLOAT(0), LV_BEZIER_VAL_FLOAT(1));
 197              		.loc 1 71 5 view .LVU31
 198 0054 4FF48063 		mov	r3, #1024
 199 0058 0093     		str	r3, [sp]
 200 005a 0023     		movs	r3, #0
 201 005c 40F25122 		movw	r2, #593
 202 0060 4FF4D771 		mov	r1, #430
 203 0064 2046     		mov	r0, r4
 204 0066 FFF7FEFF 		bl	lv_anim_set_bezier3_param
 205              	.LVL21:
  73:Drivers/lvgl/src/widgets/spinner/lv_spinner.c ****     lv_anim_set_exec_cb(&a, arc_anim_start_angle);
 206              		.loc 1 73 5 view .LVU32
 207 006a 4FF4B472 		mov	r2, #360
 208 006e 0021     		movs	r1, #0
 209 0070 2046     		mov	r0, r4
 210 0072 FFF7FEFF 		bl	lv_anim_set_values
 211              	.LVL22:
  74:Drivers/lvgl/src/widgets/spinner/lv_spinner.c ****     lv_anim_start(&a);
 212              		.loc 1 74 5 view .LVU33
 213 0076 0C49     		ldr	r1, .L11+8
 214 0078 2046     		mov	r0, r4
 215 007a FFF7FEFF 		bl	lv_anim_set_exec_cb
 216              	.LVL23:
  75:Drivers/lvgl/src/widgets/spinner/lv_spinner.c **** 
 217              		.loc 1 75 5 view .LVU34
 218 007e 2046     		mov	r0, r4
ARM GAS  /tmp/ccpETK7y.s 			page 7


 219 0080 FFF7FEFF 		bl	lv_anim_start
 220              	.LVL24:
  77:Drivers/lvgl/src/widgets/spinner/lv_spinner.c ****     lv_arc_set_rotation(obj, 270);
 221              		.loc 1 77 5 view .LVU35
 222 0084 4FF4B472 		mov	r2, #360
 223 0088 0021     		movs	r1, #0
 224 008a 2846     		mov	r0, r5
 225 008c FFF7FEFF 		bl	lv_arc_set_bg_angles
 226              	.LVL25:
  78:Drivers/lvgl/src/widgets/spinner/lv_spinner.c **** }
 227              		.loc 1 78 5 view .LVU36
 228 0090 4FF48771 		mov	r1, #270
 229 0094 2846     		mov	r0, r5
 230 0096 FFF7FEFF 		bl	lv_arc_set_rotation
 231              	.LVL26:
  79:Drivers/lvgl/src/widgets/spinner/lv_spinner.c **** 
 232              		.loc 1 79 1 is_stmt 0 view .LVU37
 233 009a 1BB0     		add	sp, sp, #108
 234              	.LCFI5:
 235              		.cfi_def_cfa_offset 20
 236              		@ sp needed
 237 009c F0BD     		pop	{r4, r5, r6, r7, pc}
 238              	.LVL27:
 239              	.L12:
  79:Drivers/lvgl/src/widgets/spinner/lv_spinner.c **** 
 240              		.loc 1 79 1 view .LVU38
 241 009e 00BF     		.align	2
 242              	.L11:
 243 00a0 00000000 		.word	arc_anim_end_angle
 244 00a4 00000000 		.word	lv_anim_path_custom_bezier3
 245 00a8 00000000 		.word	arc_anim_start_angle
 246              		.cfi_endproc
 247              	.LFE179:
 249              		.section	.text.lv_spinner_constructor,"ax",%progbits
 250              		.align	1
 251              		.syntax unified
 252              		.thumb
 253              		.thumb_func
 255              	lv_spinner_constructor:
 256              	.LVL28:
 257              	.LFB180:
  86:Drivers/lvgl/src/widgets/spinner/lv_spinner.c ****     LV_TRACE_OBJ_CREATE("begin");
 258              		.loc 1 86 1 is_stmt 1 view -0
 259              		.cfi_startproc
 260              		@ args = 0, pretend = 0, frame = 0
 261              		@ frame_needed = 0, uses_anonymous_args = 0
  86:Drivers/lvgl/src/widgets/spinner/lv_spinner.c ****     LV_TRACE_OBJ_CREATE("begin");
 262              		.loc 1 86 1 is_stmt 0 view .LVU40
 263 0000 10B5     		push	{r4, lr}
 264              	.LCFI6:
 265              		.cfi_def_cfa_offset 8
 266              		.cfi_offset 4, -8
 267              		.cfi_offset 14, -4
 268 0002 0C46     		mov	r4, r1
  87:Drivers/lvgl/src/widgets/spinner/lv_spinner.c **** 
 269              		.loc 1 87 33 is_stmt 1 view .LVU41
  89:Drivers/lvgl/src/widgets/spinner/lv_spinner.c **** 
ARM GAS  /tmp/ccpETK7y.s 			page 8


 270              		.loc 1 89 5 view .LVU42
  91:Drivers/lvgl/src/widgets/spinner/lv_spinner.c **** 
 271              		.loc 1 91 5 view .LVU43
 272 0004 0221     		movs	r1, #2
 273              	.LVL29:
  91:Drivers/lvgl/src/widgets/spinner/lv_spinner.c **** 
 274              		.loc 1 91 5 is_stmt 0 view .LVU44
 275 0006 2046     		mov	r0, r4
 276              	.LVL30:
  91:Drivers/lvgl/src/widgets/spinner/lv_spinner.c **** 
 277              		.loc 1 91 5 view .LVU45
 278 0008 FFF7FEFF 		bl	lv_obj_remove_flag
 279              	.LVL31:
  93:Drivers/lvgl/src/widgets/spinner/lv_spinner.c **** }
 280              		.loc 1 93 5 is_stmt 1 view .LVU46
 281 000c C822     		movs	r2, #200
 282 000e 4FF47A71 		mov	r1, #1000
 283 0012 2046     		mov	r0, r4
 284 0014 FFF7FEFF 		bl	lv_spinner_set_anim_params
 285              	.LVL32:
  94:Drivers/lvgl/src/widgets/spinner/lv_spinner.c **** 
 286              		.loc 1 94 1 is_stmt 0 view .LVU47
 287 0018 10BD     		pop	{r4, pc}
  94:Drivers/lvgl/src/widgets/spinner/lv_spinner.c **** 
 288              		.loc 1 94 1 view .LVU48
 289              		.cfi_endproc
 290              	.LFE180:
 292              		.global	lv_spinner_class
 293              		.section	.rodata.str1.4,"aMS",%progbits,1
 294              		.align	2
 295              	.LC0:
 296 0000 6C765F73 		.ascii	"lv_spinner\000"
 296      70696E6E 
 296      657200
 297              		.section	.rodata.lv_spinner_class,"a"
 298              		.align	2
 301              	lv_spinner_class:
 302 0000 00000000 		.word	lv_arc_class
 303 0004 00000000 		.word	lv_spinner_constructor
 304 0008 00000000 		.space	12
 304      00000000 
 304      00000000 
 305 0014 00000000 		.word	.LC0
 306 0018 00000000 		.space	12
 306      00000000 
 306      00000000 
 307              		.text
 308              	.Letext0:
 309              		.file 2 "/usr/arm-none-eabi/include/machine/_default_types.h"
 310              		.file 3 "/usr/arm-none-eabi/include/sys/_stdint.h"
 311              		.file 4 "Drivers/lvgl/src/widgets/spinner/../../misc/lv_types.h"
 312              		.file 5 "Drivers/lvgl/src/widgets/spinner/../../core/lv_obj_class_private.h"
 313              		.file 6 "Drivers/lvgl/src/widgets/spinner/../../misc/lv_anim.h"
 314              		.file 7 "Drivers/lvgl/src/widgets/spinner/../../../src/core/../indev/lv_indev.h"
 315              		.file 8 "Drivers/lvgl/src/widgets/spinner/../../../src/core/lv_obj.h"
 316              		.file 9 "Drivers/lvgl/src/widgets/spinner/../../../src/widgets/bar/lv_bar.h"
 317              		.file 10 "Drivers/lvgl/src/widgets/spinner/../../../src/widgets/arc/lv_arc.h"
ARM GAS  /tmp/ccpETK7y.s 			page 9


 318              		.file 11 "Drivers/lvgl/src/widgets/spinner/../../../src/widgets/spinner/lv_spinner.h"
 319              		.file 12 "Drivers/lvgl/src/widgets/spinner/../../core/lv_obj_class.h"
ARM GAS  /tmp/ccpETK7y.s 			page 10

