ARM GAS  /tmp/ccJxyNGA.s 			page 1


   1              		.cpu cortex-m7
   2              		.arch armv7e-m
   3              		.fpu fpv5-sp-d16
   4              		.eabi_attribute 27, 1
   5              		.eabi_attribute 28, 1
   6              		.eabi_attribute 20, 1
   7              		.eabi_attribute 21, 1
   8              		.eabi_attribute 23, 3
   9              		.eabi_attribute 24, 1
  10              		.eabi_attribute 25, 1
  11              		.eabi_attribute 26, 1
  12              		.eabi_attribute 30, 1
  13              		.eabi_attribute 34, 1
  14              		.eabi_attribute 18, 4
  15              		.file	"lv_theme_mono.c"
  16              		.text
  17              	.Ltext0:
  18              		.cfi_sections	.debug_frame
  19              		.file 1 "Drivers/lvgl/src/themes/mono/lv_theme_mono.c"
  20              		.section	.text.theme_apply,"ax",%progbits
  21              		.align	1
  22              		.syntax unified
  23              		.thumb
  24              		.thumb_func
  26              	theme_apply:
  27              	.LVL0:
  28              	.LFB197:
   1:Drivers/lvgl/src/themes/mono/lv_theme_mono.c **** /**
   2:Drivers/lvgl/src/themes/mono/lv_theme_mono.c ****  * @file lv_theme_mono.c
   3:Drivers/lvgl/src/themes/mono/lv_theme_mono.c ****  *
   4:Drivers/lvgl/src/themes/mono/lv_theme_mono.c ****  */
   5:Drivers/lvgl/src/themes/mono/lv_theme_mono.c **** 
   6:Drivers/lvgl/src/themes/mono/lv_theme_mono.c **** /*********************
   7:Drivers/lvgl/src/themes/mono/lv_theme_mono.c ****  *      INCLUDES
   8:Drivers/lvgl/src/themes/mono/lv_theme_mono.c ****  *********************/
   9:Drivers/lvgl/src/themes/mono/lv_theme_mono.c **** #include "../lv_theme_private.h"
  10:Drivers/lvgl/src/themes/mono/lv_theme_mono.c **** #include "../../../lvgl.h"
  11:Drivers/lvgl/src/themes/mono/lv_theme_mono.c **** 
  12:Drivers/lvgl/src/themes/mono/lv_theme_mono.c **** #if LV_USE_THEME_MONO
  13:Drivers/lvgl/src/themes/mono/lv_theme_mono.c **** 
  14:Drivers/lvgl/src/themes/mono/lv_theme_mono.c **** #include "lv_theme_mono.h"
  15:Drivers/lvgl/src/themes/mono/lv_theme_mono.c **** #include "../../core/lv_global.h"
  16:Drivers/lvgl/src/themes/mono/lv_theme_mono.c **** 
  17:Drivers/lvgl/src/themes/mono/lv_theme_mono.c **** /*********************
  18:Drivers/lvgl/src/themes/mono/lv_theme_mono.c ****  *      DEFINES
  19:Drivers/lvgl/src/themes/mono/lv_theme_mono.c ****  *********************/
  20:Drivers/lvgl/src/themes/mono/lv_theme_mono.c **** struct _my_theme_t;
  21:Drivers/lvgl/src/themes/mono/lv_theme_mono.c **** typedef struct _my_theme_t my_theme_t;
  22:Drivers/lvgl/src/themes/mono/lv_theme_mono.c **** 
  23:Drivers/lvgl/src/themes/mono/lv_theme_mono.c **** #define theme_def (*(my_theme_t **)(&LV_GLOBAL_DEFAULT()->theme_mono))
  24:Drivers/lvgl/src/themes/mono/lv_theme_mono.c **** 
  25:Drivers/lvgl/src/themes/mono/lv_theme_mono.c **** #define COLOR_FG      dark_bg ? lv_color_white() : lv_color_black()
  26:Drivers/lvgl/src/themes/mono/lv_theme_mono.c **** #define COLOR_BG      dark_bg ? lv_color_black() : lv_color_white()
  27:Drivers/lvgl/src/themes/mono/lv_theme_mono.c **** 
  28:Drivers/lvgl/src/themes/mono/lv_theme_mono.c **** #define BORDER_W_NORMAL  1
  29:Drivers/lvgl/src/themes/mono/lv_theme_mono.c **** #define BORDER_W_PR      3
  30:Drivers/lvgl/src/themes/mono/lv_theme_mono.c **** #define BORDER_W_DIS     0
ARM GAS  /tmp/ccJxyNGA.s 			page 2


  31:Drivers/lvgl/src/themes/mono/lv_theme_mono.c **** #define BORDER_W_FOCUS   1
  32:Drivers/lvgl/src/themes/mono/lv_theme_mono.c **** #define BORDER_W_EDIT    2
  33:Drivers/lvgl/src/themes/mono/lv_theme_mono.c **** #define PAD_DEF          4
  34:Drivers/lvgl/src/themes/mono/lv_theme_mono.c **** 
  35:Drivers/lvgl/src/themes/mono/lv_theme_mono.c **** /**********************
  36:Drivers/lvgl/src/themes/mono/lv_theme_mono.c ****  *      TYPEDEFS
  37:Drivers/lvgl/src/themes/mono/lv_theme_mono.c ****  **********************/
  38:Drivers/lvgl/src/themes/mono/lv_theme_mono.c **** typedef struct {
  39:Drivers/lvgl/src/themes/mono/lv_theme_mono.c ****     lv_style_t scr;
  40:Drivers/lvgl/src/themes/mono/lv_theme_mono.c ****     lv_style_t card;
  41:Drivers/lvgl/src/themes/mono/lv_theme_mono.c ****     lv_style_t scrollbar;
  42:Drivers/lvgl/src/themes/mono/lv_theme_mono.c ****     lv_style_t pr;
  43:Drivers/lvgl/src/themes/mono/lv_theme_mono.c ****     lv_style_t inv;
  44:Drivers/lvgl/src/themes/mono/lv_theme_mono.c ****     lv_style_t disabled;
  45:Drivers/lvgl/src/themes/mono/lv_theme_mono.c ****     lv_style_t focus;
  46:Drivers/lvgl/src/themes/mono/lv_theme_mono.c ****     lv_style_t edit;
  47:Drivers/lvgl/src/themes/mono/lv_theme_mono.c ****     lv_style_t pad_gap;
  48:Drivers/lvgl/src/themes/mono/lv_theme_mono.c ****     lv_style_t pad_zero;
  49:Drivers/lvgl/src/themes/mono/lv_theme_mono.c ****     lv_style_t no_radius;
  50:Drivers/lvgl/src/themes/mono/lv_theme_mono.c ****     lv_style_t radius_circle;
  51:Drivers/lvgl/src/themes/mono/lv_theme_mono.c ****     lv_style_t large_border;
  52:Drivers/lvgl/src/themes/mono/lv_theme_mono.c ****     lv_style_t large_line_space;
  53:Drivers/lvgl/src/themes/mono/lv_theme_mono.c ****     lv_style_t underline;
  54:Drivers/lvgl/src/themes/mono/lv_theme_mono.c **** #if LV_USE_TEXTAREA
  55:Drivers/lvgl/src/themes/mono/lv_theme_mono.c ****     lv_style_t ta_cursor;
  56:Drivers/lvgl/src/themes/mono/lv_theme_mono.c **** #endif
  57:Drivers/lvgl/src/themes/mono/lv_theme_mono.c **** #if LV_USE_CHART
  58:Drivers/lvgl/src/themes/mono/lv_theme_mono.c ****     lv_style_t chart_indic;
  59:Drivers/lvgl/src/themes/mono/lv_theme_mono.c **** #endif
  60:Drivers/lvgl/src/themes/mono/lv_theme_mono.c **** } my_theme_styles_t;
  61:Drivers/lvgl/src/themes/mono/lv_theme_mono.c **** 
  62:Drivers/lvgl/src/themes/mono/lv_theme_mono.c **** struct _my_theme_t {
  63:Drivers/lvgl/src/themes/mono/lv_theme_mono.c ****     lv_theme_t base;
  64:Drivers/lvgl/src/themes/mono/lv_theme_mono.c ****     my_theme_styles_t styles;
  65:Drivers/lvgl/src/themes/mono/lv_theme_mono.c ****     bool inited;
  66:Drivers/lvgl/src/themes/mono/lv_theme_mono.c **** };
  67:Drivers/lvgl/src/themes/mono/lv_theme_mono.c **** 
  68:Drivers/lvgl/src/themes/mono/lv_theme_mono.c **** /**********************
  69:Drivers/lvgl/src/themes/mono/lv_theme_mono.c ****  *  STATIC PROTOTYPES
  70:Drivers/lvgl/src/themes/mono/lv_theme_mono.c ****  **********************/
  71:Drivers/lvgl/src/themes/mono/lv_theme_mono.c **** static void style_init_reset(lv_style_t * style);
  72:Drivers/lvgl/src/themes/mono/lv_theme_mono.c **** static void theme_apply(lv_theme_t * th, lv_obj_t * obj);
  73:Drivers/lvgl/src/themes/mono/lv_theme_mono.c **** 
  74:Drivers/lvgl/src/themes/mono/lv_theme_mono.c **** /**********************
  75:Drivers/lvgl/src/themes/mono/lv_theme_mono.c ****  *  STATIC VARIABLES
  76:Drivers/lvgl/src/themes/mono/lv_theme_mono.c ****  **********************/
  77:Drivers/lvgl/src/themes/mono/lv_theme_mono.c **** 
  78:Drivers/lvgl/src/themes/mono/lv_theme_mono.c **** /**********************
  79:Drivers/lvgl/src/themes/mono/lv_theme_mono.c ****  *      MACROS
  80:Drivers/lvgl/src/themes/mono/lv_theme_mono.c ****  **********************/
  81:Drivers/lvgl/src/themes/mono/lv_theme_mono.c **** 
  82:Drivers/lvgl/src/themes/mono/lv_theme_mono.c **** /**********************
  83:Drivers/lvgl/src/themes/mono/lv_theme_mono.c ****  *   STATIC FUNCTIONS
  84:Drivers/lvgl/src/themes/mono/lv_theme_mono.c ****  **********************/
  85:Drivers/lvgl/src/themes/mono/lv_theme_mono.c **** 
  86:Drivers/lvgl/src/themes/mono/lv_theme_mono.c **** static void style_init(my_theme_t * theme, bool dark_bg, const lv_font_t * font)
  87:Drivers/lvgl/src/themes/mono/lv_theme_mono.c **** {
ARM GAS  /tmp/ccJxyNGA.s 			page 3


  88:Drivers/lvgl/src/themes/mono/lv_theme_mono.c ****     style_init_reset(&theme->styles.scrollbar);
  89:Drivers/lvgl/src/themes/mono/lv_theme_mono.c ****     lv_style_set_bg_opa(&theme->styles.scrollbar, LV_OPA_COVER);
  90:Drivers/lvgl/src/themes/mono/lv_theme_mono.c ****     lv_style_set_bg_color(&theme->styles.scrollbar, COLOR_FG);
  91:Drivers/lvgl/src/themes/mono/lv_theme_mono.c ****     lv_style_set_width(&theme->styles.scrollbar,  PAD_DEF);
  92:Drivers/lvgl/src/themes/mono/lv_theme_mono.c **** 
  93:Drivers/lvgl/src/themes/mono/lv_theme_mono.c ****     style_init_reset(&theme->styles.scr);
  94:Drivers/lvgl/src/themes/mono/lv_theme_mono.c ****     lv_style_set_bg_opa(&theme->styles.scr, LV_OPA_COVER);
  95:Drivers/lvgl/src/themes/mono/lv_theme_mono.c ****     lv_style_set_bg_color(&theme->styles.scr, COLOR_BG);
  96:Drivers/lvgl/src/themes/mono/lv_theme_mono.c ****     lv_style_set_text_color(&theme->styles.scr, COLOR_FG);
  97:Drivers/lvgl/src/themes/mono/lv_theme_mono.c ****     lv_style_set_pad_row(&theme->styles.scr, PAD_DEF);
  98:Drivers/lvgl/src/themes/mono/lv_theme_mono.c ****     lv_style_set_pad_column(&theme->styles.scr, PAD_DEF);
  99:Drivers/lvgl/src/themes/mono/lv_theme_mono.c ****     lv_style_set_text_font(&theme->styles.scr, font);
 100:Drivers/lvgl/src/themes/mono/lv_theme_mono.c **** 
 101:Drivers/lvgl/src/themes/mono/lv_theme_mono.c ****     style_init_reset(&theme->styles.card);
 102:Drivers/lvgl/src/themes/mono/lv_theme_mono.c ****     lv_style_set_bg_opa(&theme->styles.card, LV_OPA_COVER);
 103:Drivers/lvgl/src/themes/mono/lv_theme_mono.c ****     lv_style_set_bg_color(&theme->styles.card, COLOR_BG);
 104:Drivers/lvgl/src/themes/mono/lv_theme_mono.c ****     lv_style_set_border_color(&theme->styles.card, COLOR_FG);
 105:Drivers/lvgl/src/themes/mono/lv_theme_mono.c ****     lv_style_set_radius(&theme->styles.card, 2);
 106:Drivers/lvgl/src/themes/mono/lv_theme_mono.c ****     lv_style_set_border_width(&theme->styles.card, BORDER_W_NORMAL);
 107:Drivers/lvgl/src/themes/mono/lv_theme_mono.c ****     lv_style_set_pad_all(&theme->styles.card, PAD_DEF);
 108:Drivers/lvgl/src/themes/mono/lv_theme_mono.c ****     lv_style_set_pad_gap(&theme->styles.card, PAD_DEF);
 109:Drivers/lvgl/src/themes/mono/lv_theme_mono.c ****     lv_style_set_text_color(&theme->styles.card, COLOR_FG);
 110:Drivers/lvgl/src/themes/mono/lv_theme_mono.c ****     lv_style_set_line_width(&theme->styles.card, 2);
 111:Drivers/lvgl/src/themes/mono/lv_theme_mono.c ****     lv_style_set_line_color(&theme->styles.card, COLOR_FG);
 112:Drivers/lvgl/src/themes/mono/lv_theme_mono.c ****     lv_style_set_arc_width(&theme->styles.card, 2);
 113:Drivers/lvgl/src/themes/mono/lv_theme_mono.c ****     lv_style_set_arc_color(&theme->styles.card, COLOR_FG);
 114:Drivers/lvgl/src/themes/mono/lv_theme_mono.c ****     lv_style_set_outline_color(&theme->styles.card, COLOR_FG);
 115:Drivers/lvgl/src/themes/mono/lv_theme_mono.c ****     lv_style_set_anim_duration(&theme->styles.card, 300);
 116:Drivers/lvgl/src/themes/mono/lv_theme_mono.c **** 
 117:Drivers/lvgl/src/themes/mono/lv_theme_mono.c ****     style_init_reset(&theme->styles.pr);
 118:Drivers/lvgl/src/themes/mono/lv_theme_mono.c ****     lv_style_set_border_width(&theme->styles.pr, BORDER_W_PR);
 119:Drivers/lvgl/src/themes/mono/lv_theme_mono.c **** 
 120:Drivers/lvgl/src/themes/mono/lv_theme_mono.c ****     style_init_reset(&theme->styles.inv);
 121:Drivers/lvgl/src/themes/mono/lv_theme_mono.c ****     lv_style_set_bg_opa(&theme->styles.inv, LV_OPA_COVER);
 122:Drivers/lvgl/src/themes/mono/lv_theme_mono.c ****     lv_style_set_bg_color(&theme->styles.inv, COLOR_FG);
 123:Drivers/lvgl/src/themes/mono/lv_theme_mono.c ****     lv_style_set_border_color(&theme->styles.inv, COLOR_BG);
 124:Drivers/lvgl/src/themes/mono/lv_theme_mono.c ****     lv_style_set_line_color(&theme->styles.inv, COLOR_BG);
 125:Drivers/lvgl/src/themes/mono/lv_theme_mono.c ****     lv_style_set_arc_color(&theme->styles.inv, COLOR_BG);
 126:Drivers/lvgl/src/themes/mono/lv_theme_mono.c ****     lv_style_set_text_color(&theme->styles.inv, COLOR_BG);
 127:Drivers/lvgl/src/themes/mono/lv_theme_mono.c ****     lv_style_set_outline_color(&theme->styles.inv, COLOR_BG);
 128:Drivers/lvgl/src/themes/mono/lv_theme_mono.c **** 
 129:Drivers/lvgl/src/themes/mono/lv_theme_mono.c ****     style_init_reset(&theme->styles.disabled);
 130:Drivers/lvgl/src/themes/mono/lv_theme_mono.c ****     lv_style_set_border_width(&theme->styles.disabled, BORDER_W_DIS);
 131:Drivers/lvgl/src/themes/mono/lv_theme_mono.c **** 
 132:Drivers/lvgl/src/themes/mono/lv_theme_mono.c ****     style_init_reset(&theme->styles.focus);
 133:Drivers/lvgl/src/themes/mono/lv_theme_mono.c ****     lv_style_set_outline_width(&theme->styles.focus, 1);
 134:Drivers/lvgl/src/themes/mono/lv_theme_mono.c ****     lv_style_set_outline_pad(&theme->styles.focus, BORDER_W_FOCUS);
 135:Drivers/lvgl/src/themes/mono/lv_theme_mono.c **** 
 136:Drivers/lvgl/src/themes/mono/lv_theme_mono.c ****     style_init_reset(&theme->styles.edit);
 137:Drivers/lvgl/src/themes/mono/lv_theme_mono.c ****     lv_style_set_outline_width(&theme->styles.edit, BORDER_W_EDIT);
 138:Drivers/lvgl/src/themes/mono/lv_theme_mono.c **** 
 139:Drivers/lvgl/src/themes/mono/lv_theme_mono.c ****     style_init_reset(&theme->styles.large_border);
 140:Drivers/lvgl/src/themes/mono/lv_theme_mono.c ****     lv_style_set_border_width(&theme->styles.large_border, BORDER_W_EDIT);
 141:Drivers/lvgl/src/themes/mono/lv_theme_mono.c **** 
 142:Drivers/lvgl/src/themes/mono/lv_theme_mono.c ****     style_init_reset(&theme->styles.pad_gap);
 143:Drivers/lvgl/src/themes/mono/lv_theme_mono.c ****     lv_style_set_pad_gap(&theme->styles.pad_gap, PAD_DEF);
 144:Drivers/lvgl/src/themes/mono/lv_theme_mono.c **** 
ARM GAS  /tmp/ccJxyNGA.s 			page 4


 145:Drivers/lvgl/src/themes/mono/lv_theme_mono.c ****     style_init_reset(&theme->styles.pad_zero);
 146:Drivers/lvgl/src/themes/mono/lv_theme_mono.c ****     lv_style_set_pad_all(&theme->styles.pad_zero, 0);
 147:Drivers/lvgl/src/themes/mono/lv_theme_mono.c ****     lv_style_set_pad_gap(&theme->styles.pad_zero, 0);
 148:Drivers/lvgl/src/themes/mono/lv_theme_mono.c **** 
 149:Drivers/lvgl/src/themes/mono/lv_theme_mono.c ****     style_init_reset(&theme->styles.no_radius);
 150:Drivers/lvgl/src/themes/mono/lv_theme_mono.c ****     lv_style_set_radius(&theme->styles.no_radius, 0);
 151:Drivers/lvgl/src/themes/mono/lv_theme_mono.c **** 
 152:Drivers/lvgl/src/themes/mono/lv_theme_mono.c ****     style_init_reset(&theme->styles.radius_circle);
 153:Drivers/lvgl/src/themes/mono/lv_theme_mono.c ****     lv_style_set_radius(&theme->styles.radius_circle, LV_RADIUS_CIRCLE);
 154:Drivers/lvgl/src/themes/mono/lv_theme_mono.c **** 
 155:Drivers/lvgl/src/themes/mono/lv_theme_mono.c ****     style_init_reset(&theme->styles.large_line_space);
 156:Drivers/lvgl/src/themes/mono/lv_theme_mono.c ****     lv_style_set_text_line_space(&theme->styles.large_line_space, 6);
 157:Drivers/lvgl/src/themes/mono/lv_theme_mono.c **** 
 158:Drivers/lvgl/src/themes/mono/lv_theme_mono.c ****     style_init_reset(&theme->styles.underline);
 159:Drivers/lvgl/src/themes/mono/lv_theme_mono.c ****     lv_style_set_text_decor(&theme->styles.underline, LV_TEXT_DECOR_UNDERLINE);
 160:Drivers/lvgl/src/themes/mono/lv_theme_mono.c **** 
 161:Drivers/lvgl/src/themes/mono/lv_theme_mono.c **** #if LV_USE_TEXTAREA
 162:Drivers/lvgl/src/themes/mono/lv_theme_mono.c ****     style_init_reset(&theme->styles.ta_cursor);
 163:Drivers/lvgl/src/themes/mono/lv_theme_mono.c ****     lv_style_set_border_side(&theme->styles.ta_cursor, LV_BORDER_SIDE_LEFT);
 164:Drivers/lvgl/src/themes/mono/lv_theme_mono.c ****     lv_style_set_border_color(&theme->styles.ta_cursor, COLOR_FG);
 165:Drivers/lvgl/src/themes/mono/lv_theme_mono.c ****     lv_style_set_border_width(&theme->styles.ta_cursor, 2);
 166:Drivers/lvgl/src/themes/mono/lv_theme_mono.c ****     lv_style_set_bg_opa(&theme->styles.ta_cursor, LV_OPA_TRANSP);
 167:Drivers/lvgl/src/themes/mono/lv_theme_mono.c ****     lv_style_set_anim_duration(&theme->styles.ta_cursor, 500);
 168:Drivers/lvgl/src/themes/mono/lv_theme_mono.c **** #endif
 169:Drivers/lvgl/src/themes/mono/lv_theme_mono.c **** 
 170:Drivers/lvgl/src/themes/mono/lv_theme_mono.c **** #if LV_USE_CHART
 171:Drivers/lvgl/src/themes/mono/lv_theme_mono.c ****     style_init_reset(&theme->styles.chart_indic);
 172:Drivers/lvgl/src/themes/mono/lv_theme_mono.c ****     lv_style_set_radius(&theme->styles.chart_indic, LV_RADIUS_CIRCLE);
 173:Drivers/lvgl/src/themes/mono/lv_theme_mono.c ****     lv_style_set_size(&theme->styles.chart_indic, lv_display_dpx(theme->base.disp, 8), lv_display_d
 174:Drivers/lvgl/src/themes/mono/lv_theme_mono.c ****     lv_style_set_bg_color(&theme->styles.chart_indic, COLOR_FG);
 175:Drivers/lvgl/src/themes/mono/lv_theme_mono.c ****     lv_style_set_bg_opa(&theme->styles.chart_indic, LV_OPA_COVER);
 176:Drivers/lvgl/src/themes/mono/lv_theme_mono.c **** #endif
 177:Drivers/lvgl/src/themes/mono/lv_theme_mono.c **** }
 178:Drivers/lvgl/src/themes/mono/lv_theme_mono.c **** 
 179:Drivers/lvgl/src/themes/mono/lv_theme_mono.c **** /**********************
 180:Drivers/lvgl/src/themes/mono/lv_theme_mono.c ****  *   GLOBAL FUNCTIONS
 181:Drivers/lvgl/src/themes/mono/lv_theme_mono.c ****  **********************/
 182:Drivers/lvgl/src/themes/mono/lv_theme_mono.c **** 
 183:Drivers/lvgl/src/themes/mono/lv_theme_mono.c **** bool lv_theme_mono_is_inited(void)
 184:Drivers/lvgl/src/themes/mono/lv_theme_mono.c **** {
 185:Drivers/lvgl/src/themes/mono/lv_theme_mono.c ****     my_theme_t * theme = theme_def;
 186:Drivers/lvgl/src/themes/mono/lv_theme_mono.c ****     if(theme == NULL) return false;
 187:Drivers/lvgl/src/themes/mono/lv_theme_mono.c ****     return theme->inited;
 188:Drivers/lvgl/src/themes/mono/lv_theme_mono.c **** }
 189:Drivers/lvgl/src/themes/mono/lv_theme_mono.c **** 
 190:Drivers/lvgl/src/themes/mono/lv_theme_mono.c **** void lv_theme_mono_deinit(void)
 191:Drivers/lvgl/src/themes/mono/lv_theme_mono.c **** {
 192:Drivers/lvgl/src/themes/mono/lv_theme_mono.c ****     my_theme_t * theme = theme_def;
 193:Drivers/lvgl/src/themes/mono/lv_theme_mono.c ****     if(theme) {
 194:Drivers/lvgl/src/themes/mono/lv_theme_mono.c ****         if(theme->inited) {
 195:Drivers/lvgl/src/themes/mono/lv_theme_mono.c ****             lv_style_t * theme_styles = (lv_style_t *)(&(theme->styles));
 196:Drivers/lvgl/src/themes/mono/lv_theme_mono.c ****             uint32_t i;
 197:Drivers/lvgl/src/themes/mono/lv_theme_mono.c ****             for(i = 0; i < sizeof(my_theme_styles_t) / sizeof(lv_style_t); i++) {
 198:Drivers/lvgl/src/themes/mono/lv_theme_mono.c ****                 lv_style_reset(theme_styles + i);
 199:Drivers/lvgl/src/themes/mono/lv_theme_mono.c ****             }
 200:Drivers/lvgl/src/themes/mono/lv_theme_mono.c ****         }
 201:Drivers/lvgl/src/themes/mono/lv_theme_mono.c ****         lv_free(theme_def);
ARM GAS  /tmp/ccJxyNGA.s 			page 5


 202:Drivers/lvgl/src/themes/mono/lv_theme_mono.c ****         theme_def = NULL;
 203:Drivers/lvgl/src/themes/mono/lv_theme_mono.c ****     }
 204:Drivers/lvgl/src/themes/mono/lv_theme_mono.c **** }
 205:Drivers/lvgl/src/themes/mono/lv_theme_mono.c **** 
 206:Drivers/lvgl/src/themes/mono/lv_theme_mono.c **** lv_theme_t * lv_theme_mono_init(lv_display_t * disp, bool dark_bg, const lv_font_t * font)
 207:Drivers/lvgl/src/themes/mono/lv_theme_mono.c **** {
 208:Drivers/lvgl/src/themes/mono/lv_theme_mono.c ****     /*This trick is required only to avoid the garbage collection of
 209:Drivers/lvgl/src/themes/mono/lv_theme_mono.c ****      *styles' data if LVGL is used in a binding (e.g. MicroPython)
 210:Drivers/lvgl/src/themes/mono/lv_theme_mono.c ****      *In a general case styles could be in simple `static lv_style_t my_style...` variables*/
 211:Drivers/lvgl/src/themes/mono/lv_theme_mono.c ****     if(!lv_theme_mono_is_inited()) {
 212:Drivers/lvgl/src/themes/mono/lv_theme_mono.c ****         theme_def = lv_malloc_zeroed(sizeof(my_theme_t));
 213:Drivers/lvgl/src/themes/mono/lv_theme_mono.c ****     }
 214:Drivers/lvgl/src/themes/mono/lv_theme_mono.c **** 
 215:Drivers/lvgl/src/themes/mono/lv_theme_mono.c ****     my_theme_t * theme = theme_def;
 216:Drivers/lvgl/src/themes/mono/lv_theme_mono.c **** 
 217:Drivers/lvgl/src/themes/mono/lv_theme_mono.c ****     theme->base.disp = disp;
 218:Drivers/lvgl/src/themes/mono/lv_theme_mono.c ****     theme->base.font_small = LV_FONT_DEFAULT;
 219:Drivers/lvgl/src/themes/mono/lv_theme_mono.c ****     theme->base.font_normal = LV_FONT_DEFAULT;
 220:Drivers/lvgl/src/themes/mono/lv_theme_mono.c ****     theme->base.font_large = LV_FONT_DEFAULT;
 221:Drivers/lvgl/src/themes/mono/lv_theme_mono.c ****     theme->base.apply_cb = theme_apply;
 222:Drivers/lvgl/src/themes/mono/lv_theme_mono.c **** 
 223:Drivers/lvgl/src/themes/mono/lv_theme_mono.c ****     style_init(theme, dark_bg, font);
 224:Drivers/lvgl/src/themes/mono/lv_theme_mono.c **** 
 225:Drivers/lvgl/src/themes/mono/lv_theme_mono.c ****     if(disp == NULL || lv_display_get_theme(disp) == (lv_theme_t *) theme) lv_obj_report_style_chan
 226:Drivers/lvgl/src/themes/mono/lv_theme_mono.c **** 
 227:Drivers/lvgl/src/themes/mono/lv_theme_mono.c ****     theme->inited = true;
 228:Drivers/lvgl/src/themes/mono/lv_theme_mono.c **** 
 229:Drivers/lvgl/src/themes/mono/lv_theme_mono.c ****     return (lv_theme_t *)theme_def;
 230:Drivers/lvgl/src/themes/mono/lv_theme_mono.c **** }
 231:Drivers/lvgl/src/themes/mono/lv_theme_mono.c **** 
 232:Drivers/lvgl/src/themes/mono/lv_theme_mono.c **** static void theme_apply(lv_theme_t * th, lv_obj_t * obj)
 233:Drivers/lvgl/src/themes/mono/lv_theme_mono.c **** {
  29              		.loc 1 233 1 view -0
  30              		.cfi_startproc
  31              		@ args = 0, pretend = 0, frame = 0
  32              		@ frame_needed = 0, uses_anonymous_args = 0
  33              		.loc 1 233 1 is_stmt 0 view .LVU1
  34 0000 2DE9F041 		push	{r4, r5, r6, r7, r8, lr}
  35              	.LCFI0:
  36              		.cfi_def_cfa_offset 24
  37              		.cfi_offset 4, -24
  38              		.cfi_offset 5, -20
  39              		.cfi_offset 6, -16
  40              		.cfi_offset 7, -12
  41              		.cfi_offset 8, -8
  42              		.cfi_offset 14, -4
  43 0004 0C46     		mov	r4, r1
 234:Drivers/lvgl/src/themes/mono/lv_theme_mono.c ****     LV_UNUSED(th);
  44              		.loc 1 234 5 is_stmt 1 view .LVU2
 235:Drivers/lvgl/src/themes/mono/lv_theme_mono.c **** 
 236:Drivers/lvgl/src/themes/mono/lv_theme_mono.c ****     my_theme_t * theme = theme_def;
  45              		.loc 1 236 5 view .LVU3
  46              		.loc 1 236 18 is_stmt 0 view .LVU4
  47 0006 CF4B     		ldr	r3, .L41
  48 0008 D3F8C051 		ldr	r5, [r3, #448]
  49              	.LVL1:
 237:Drivers/lvgl/src/themes/mono/lv_theme_mono.c ****     lv_obj_t * parent = lv_obj_get_parent(obj);
ARM GAS  /tmp/ccJxyNGA.s 			page 6


  50              		.loc 1 237 5 is_stmt 1 view .LVU5
  51              		.loc 1 237 25 is_stmt 0 view .LVU6
  52 000c 0846     		mov	r0, r1
  53              	.LVL2:
  54              		.loc 1 237 25 view .LVU7
  55 000e FFF7FEFF 		bl	lv_obj_get_parent
  56              	.LVL3:
 238:Drivers/lvgl/src/themes/mono/lv_theme_mono.c **** 
 239:Drivers/lvgl/src/themes/mono/lv_theme_mono.c ****     if(parent == NULL) {
  57              		.loc 1 239 5 is_stmt 1 view .LVU8
  58              		.loc 1 239 7 is_stmt 0 view .LVU9
  59 0012 68B1     		cbz	r0, .L32
  60 0014 0646     		mov	r6, r0
 240:Drivers/lvgl/src/themes/mono/lv_theme_mono.c ****         lv_obj_add_style(obj, &theme->styles.scr, 0);
 241:Drivers/lvgl/src/themes/mono/lv_theme_mono.c ****         lv_obj_add_style(obj, &theme->styles.scrollbar, LV_PART_SCROLLBAR);
 242:Drivers/lvgl/src/themes/mono/lv_theme_mono.c ****         return;
 243:Drivers/lvgl/src/themes/mono/lv_theme_mono.c ****     }
 244:Drivers/lvgl/src/themes/mono/lv_theme_mono.c **** 
 245:Drivers/lvgl/src/themes/mono/lv_theme_mono.c ****     if(lv_obj_check_type(obj, &lv_obj_class)) {
  61              		.loc 1 245 5 is_stmt 1 view .LVU10
  62              		.loc 1 245 8 is_stmt 0 view .LVU11
  63 0016 CC49     		ldr	r1, .L41+4
  64 0018 2046     		mov	r0, r4
  65              	.LVL4:
  66              		.loc 1 245 8 view .LVU12
  67 001a FFF7FEFF 		bl	lv_obj_check_type
  68              	.LVL5:
  69              		.loc 1 245 7 discriminator 1 view .LVU13
  70 001e 0028     		cmp	r0, #0
  71 0020 73D0     		beq	.L4
 246:Drivers/lvgl/src/themes/mono/lv_theme_mono.c **** #if LV_USE_TABVIEW
 247:Drivers/lvgl/src/themes/mono/lv_theme_mono.c ****         /*Tabview content area*/
 248:Drivers/lvgl/src/themes/mono/lv_theme_mono.c ****         if(lv_obj_check_type(parent, &lv_tabview_class)) {
  72              		.loc 1 248 9 is_stmt 1 view .LVU14
  73              		.loc 1 248 12 is_stmt 0 view .LVU15
  74 0022 CA49     		ldr	r1, .L41+8
  75 0024 3046     		mov	r0, r6
  76 0026 FFF7FEFF 		bl	lv_obj_check_type
  77              	.LVL6:
  78              		.loc 1 248 11 discriminator 1 view .LVU16
  79 002a 78B1     		cbz	r0, .L33
  80              	.LVL7:
  81              	.L1:
 249:Drivers/lvgl/src/themes/mono/lv_theme_mono.c ****             return;
 250:Drivers/lvgl/src/themes/mono/lv_theme_mono.c ****         }
 251:Drivers/lvgl/src/themes/mono/lv_theme_mono.c ****         /*Tabview pages*/
 252:Drivers/lvgl/src/themes/mono/lv_theme_mono.c ****         else if(lv_obj_check_type(lv_obj_get_parent(parent), &lv_tabview_class)) {
 253:Drivers/lvgl/src/themes/mono/lv_theme_mono.c ****             lv_obj_add_style(obj, &theme->styles.card, 0);
 254:Drivers/lvgl/src/themes/mono/lv_theme_mono.c ****             lv_obj_add_style(obj, &theme->styles.no_radius, 0);
 255:Drivers/lvgl/src/themes/mono/lv_theme_mono.c ****             lv_obj_add_style(obj, &theme->styles.scrollbar, LV_PART_SCROLLBAR);
 256:Drivers/lvgl/src/themes/mono/lv_theme_mono.c ****             return;
 257:Drivers/lvgl/src/themes/mono/lv_theme_mono.c ****         }
 258:Drivers/lvgl/src/themes/mono/lv_theme_mono.c **** #endif
 259:Drivers/lvgl/src/themes/mono/lv_theme_mono.c **** 
 260:Drivers/lvgl/src/themes/mono/lv_theme_mono.c **** #if LV_USE_WIN
 261:Drivers/lvgl/src/themes/mono/lv_theme_mono.c ****         /*Header*/
 262:Drivers/lvgl/src/themes/mono/lv_theme_mono.c ****         if(lv_obj_check_type(parent, &lv_win_class) && lv_obj_get_child(parent, 0) == 0) {
ARM GAS  /tmp/ccJxyNGA.s 			page 7


 263:Drivers/lvgl/src/themes/mono/lv_theme_mono.c ****             lv_obj_add_style(obj, &theme->styles.card, 0);
 264:Drivers/lvgl/src/themes/mono/lv_theme_mono.c ****             lv_obj_add_style(obj, &theme->styles.no_radius, 0);
 265:Drivers/lvgl/src/themes/mono/lv_theme_mono.c ****             return;
 266:Drivers/lvgl/src/themes/mono/lv_theme_mono.c ****         }
 267:Drivers/lvgl/src/themes/mono/lv_theme_mono.c ****         /*Content*/
 268:Drivers/lvgl/src/themes/mono/lv_theme_mono.c ****         else if(lv_obj_check_type(parent, &lv_win_class) && lv_obj_get_child(parent, 1) == obj) {
 269:Drivers/lvgl/src/themes/mono/lv_theme_mono.c ****             lv_obj_add_style(obj, &theme->styles.card, 0);
 270:Drivers/lvgl/src/themes/mono/lv_theme_mono.c ****             lv_obj_add_style(obj, &theme->styles.no_radius, 0);
 271:Drivers/lvgl/src/themes/mono/lv_theme_mono.c ****             lv_obj_add_style(obj, &theme->styles.scrollbar, LV_PART_SCROLLBAR);
 272:Drivers/lvgl/src/themes/mono/lv_theme_mono.c ****             return;
 273:Drivers/lvgl/src/themes/mono/lv_theme_mono.c ****         }
 274:Drivers/lvgl/src/themes/mono/lv_theme_mono.c **** #endif
 275:Drivers/lvgl/src/themes/mono/lv_theme_mono.c ****         lv_obj_add_style(obj, &theme->styles.card, 0);
 276:Drivers/lvgl/src/themes/mono/lv_theme_mono.c ****         lv_obj_add_style(obj, &theme->styles.scrollbar, LV_PART_SCROLLBAR);
 277:Drivers/lvgl/src/themes/mono/lv_theme_mono.c ****     }
 278:Drivers/lvgl/src/themes/mono/lv_theme_mono.c **** #if LV_USE_BUTTON
 279:Drivers/lvgl/src/themes/mono/lv_theme_mono.c ****     else if(lv_obj_check_type(obj, &lv_button_class)) {
 280:Drivers/lvgl/src/themes/mono/lv_theme_mono.c ****         lv_obj_add_style(obj, &theme->styles.card, 0);
 281:Drivers/lvgl/src/themes/mono/lv_theme_mono.c ****         lv_obj_add_style(obj, &theme->styles.pr, LV_STATE_PRESSED);
 282:Drivers/lvgl/src/themes/mono/lv_theme_mono.c ****         lv_obj_add_style(obj, &theme->styles.inv, LV_STATE_CHECKED);
 283:Drivers/lvgl/src/themes/mono/lv_theme_mono.c ****         lv_obj_add_style(obj, &theme->styles.disabled, LV_STATE_DISABLED);
 284:Drivers/lvgl/src/themes/mono/lv_theme_mono.c ****         lv_obj_add_style(obj, &theme->styles.focus, LV_STATE_FOCUS_KEY);
 285:Drivers/lvgl/src/themes/mono/lv_theme_mono.c ****         lv_obj_add_style(obj, &theme->styles.edit, LV_STATE_EDITED);
 286:Drivers/lvgl/src/themes/mono/lv_theme_mono.c ****     }
 287:Drivers/lvgl/src/themes/mono/lv_theme_mono.c **** #endif
 288:Drivers/lvgl/src/themes/mono/lv_theme_mono.c **** 
 289:Drivers/lvgl/src/themes/mono/lv_theme_mono.c **** #if LV_USE_BUTTONMATRIX
 290:Drivers/lvgl/src/themes/mono/lv_theme_mono.c ****     else if(lv_obj_check_type(obj, &lv_buttonmatrix_class)) {
 291:Drivers/lvgl/src/themes/mono/lv_theme_mono.c **** #if LV_USE_MSGBOX
 292:Drivers/lvgl/src/themes/mono/lv_theme_mono.c ****         if(lv_obj_check_type(parent, &lv_msgbox_class)) {
 293:Drivers/lvgl/src/themes/mono/lv_theme_mono.c ****             lv_obj_add_style(obj, &theme->styles.pad_gap, 0);
 294:Drivers/lvgl/src/themes/mono/lv_theme_mono.c ****             lv_obj_add_style(obj, &theme->styles.card, LV_PART_ITEMS);
 295:Drivers/lvgl/src/themes/mono/lv_theme_mono.c ****             lv_obj_add_style(obj, &theme->styles.pr, LV_PART_ITEMS | LV_STATE_PRESSED);
 296:Drivers/lvgl/src/themes/mono/lv_theme_mono.c ****             lv_obj_add_style(obj, &theme->styles.disabled, LV_PART_ITEMS | LV_STATE_DISABLED);
 297:Drivers/lvgl/src/themes/mono/lv_theme_mono.c ****             lv_obj_add_style(obj, &theme->styles.underline, LV_PART_ITEMS | LV_STATE_FOCUS_KEY);
 298:Drivers/lvgl/src/themes/mono/lv_theme_mono.c ****             lv_obj_add_style(obj, &theme->styles.large_border, LV_PART_ITEMS | LV_STATE_FOCUS_KEY);
 299:Drivers/lvgl/src/themes/mono/lv_theme_mono.c ****             return;
 300:Drivers/lvgl/src/themes/mono/lv_theme_mono.c ****         }
 301:Drivers/lvgl/src/themes/mono/lv_theme_mono.c **** #endif
 302:Drivers/lvgl/src/themes/mono/lv_theme_mono.c **** #if LV_USE_TABVIEW
 303:Drivers/lvgl/src/themes/mono/lv_theme_mono.c ****         if(lv_obj_check_type(parent, &lv_tabview_class)) {
 304:Drivers/lvgl/src/themes/mono/lv_theme_mono.c ****             lv_obj_add_style(obj, &theme->styles.pad_gap, 0);
 305:Drivers/lvgl/src/themes/mono/lv_theme_mono.c ****             lv_obj_add_style(obj, &theme->styles.card, LV_PART_ITEMS);
 306:Drivers/lvgl/src/themes/mono/lv_theme_mono.c ****             lv_obj_add_style(obj, &theme->styles.pr, LV_PART_ITEMS | LV_STATE_PRESSED);
 307:Drivers/lvgl/src/themes/mono/lv_theme_mono.c ****             lv_obj_add_style(obj, &theme->styles.inv, LV_PART_ITEMS | LV_STATE_CHECKED);
 308:Drivers/lvgl/src/themes/mono/lv_theme_mono.c ****             lv_obj_add_style(obj, &theme->styles.disabled, LV_PART_ITEMS | LV_STATE_DISABLED);
 309:Drivers/lvgl/src/themes/mono/lv_theme_mono.c ****             lv_obj_add_style(obj, &theme->styles.focus, LV_STATE_FOCUS_KEY);
 310:Drivers/lvgl/src/themes/mono/lv_theme_mono.c ****             lv_obj_add_style(obj, &theme->styles.underline, LV_PART_ITEMS | LV_STATE_FOCUS_KEY);
 311:Drivers/lvgl/src/themes/mono/lv_theme_mono.c ****             lv_obj_add_style(obj, &theme->styles.large_border, LV_PART_ITEMS | LV_STATE_FOCUS_KEY);
 312:Drivers/lvgl/src/themes/mono/lv_theme_mono.c ****             return;
 313:Drivers/lvgl/src/themes/mono/lv_theme_mono.c ****         }
 314:Drivers/lvgl/src/themes/mono/lv_theme_mono.c **** #endif
 315:Drivers/lvgl/src/themes/mono/lv_theme_mono.c ****         lv_obj_add_style(obj, &theme->styles.card, 0);
 316:Drivers/lvgl/src/themes/mono/lv_theme_mono.c ****         lv_obj_add_style(obj, &theme->styles.focus, LV_STATE_FOCUS_KEY);
 317:Drivers/lvgl/src/themes/mono/lv_theme_mono.c ****         lv_obj_add_style(obj, &theme->styles.card, LV_PART_ITEMS);
 318:Drivers/lvgl/src/themes/mono/lv_theme_mono.c ****         lv_obj_add_style(obj, &theme->styles.pr, LV_PART_ITEMS | LV_STATE_PRESSED);
 319:Drivers/lvgl/src/themes/mono/lv_theme_mono.c ****         lv_obj_add_style(obj, &theme->styles.inv, LV_PART_ITEMS | LV_STATE_CHECKED);
ARM GAS  /tmp/ccJxyNGA.s 			page 8


 320:Drivers/lvgl/src/themes/mono/lv_theme_mono.c ****         lv_obj_add_style(obj, &theme->styles.disabled, LV_PART_ITEMS | LV_STATE_DISABLED);
 321:Drivers/lvgl/src/themes/mono/lv_theme_mono.c ****         lv_obj_add_style(obj, &theme->styles.underline, LV_PART_ITEMS | LV_STATE_FOCUS_KEY);
 322:Drivers/lvgl/src/themes/mono/lv_theme_mono.c ****         lv_obj_add_style(obj, &theme->styles.large_border, LV_PART_ITEMS | LV_STATE_FOCUS_KEY);
 323:Drivers/lvgl/src/themes/mono/lv_theme_mono.c ****     }
 324:Drivers/lvgl/src/themes/mono/lv_theme_mono.c **** #endif
 325:Drivers/lvgl/src/themes/mono/lv_theme_mono.c **** 
 326:Drivers/lvgl/src/themes/mono/lv_theme_mono.c **** #if LV_USE_BAR
 327:Drivers/lvgl/src/themes/mono/lv_theme_mono.c ****     else if(lv_obj_check_type(obj, &lv_bar_class)) {
 328:Drivers/lvgl/src/themes/mono/lv_theme_mono.c ****         lv_obj_add_style(obj, &theme->styles.card, 0);
 329:Drivers/lvgl/src/themes/mono/lv_theme_mono.c ****         lv_obj_add_style(obj, &theme->styles.pad_zero, 0);
 330:Drivers/lvgl/src/themes/mono/lv_theme_mono.c ****         lv_obj_add_style(obj, &theme->styles.inv, LV_PART_INDICATOR);
 331:Drivers/lvgl/src/themes/mono/lv_theme_mono.c ****         lv_obj_add_style(obj, &theme->styles.focus, LV_STATE_FOCUS_KEY);
 332:Drivers/lvgl/src/themes/mono/lv_theme_mono.c ****     }
 333:Drivers/lvgl/src/themes/mono/lv_theme_mono.c **** #endif
 334:Drivers/lvgl/src/themes/mono/lv_theme_mono.c **** 
 335:Drivers/lvgl/src/themes/mono/lv_theme_mono.c **** #if LV_USE_SLIDER
 336:Drivers/lvgl/src/themes/mono/lv_theme_mono.c ****     else if(lv_obj_check_type(obj, &lv_slider_class)) {
 337:Drivers/lvgl/src/themes/mono/lv_theme_mono.c ****         lv_obj_add_style(obj, &theme->styles.card, 0);
 338:Drivers/lvgl/src/themes/mono/lv_theme_mono.c ****         lv_obj_add_style(obj, &theme->styles.pad_zero, 0);
 339:Drivers/lvgl/src/themes/mono/lv_theme_mono.c ****         lv_obj_add_style(obj, &theme->styles.inv, LV_PART_INDICATOR);
 340:Drivers/lvgl/src/themes/mono/lv_theme_mono.c ****         lv_obj_add_style(obj, &theme->styles.card, LV_PART_KNOB);
 341:Drivers/lvgl/src/themes/mono/lv_theme_mono.c ****         lv_obj_add_style(obj, &theme->styles.radius_circle, LV_PART_KNOB);
 342:Drivers/lvgl/src/themes/mono/lv_theme_mono.c ****         lv_obj_add_style(obj, &theme->styles.focus, LV_STATE_FOCUS_KEY);
 343:Drivers/lvgl/src/themes/mono/lv_theme_mono.c ****         lv_obj_add_style(obj, &theme->styles.edit, LV_STATE_EDITED);
 344:Drivers/lvgl/src/themes/mono/lv_theme_mono.c ****     }
 345:Drivers/lvgl/src/themes/mono/lv_theme_mono.c **** #endif
 346:Drivers/lvgl/src/themes/mono/lv_theme_mono.c **** 
 347:Drivers/lvgl/src/themes/mono/lv_theme_mono.c **** #if LV_USE_TABLE
 348:Drivers/lvgl/src/themes/mono/lv_theme_mono.c ****     else if(lv_obj_check_type(obj, &lv_table_class)) {
 349:Drivers/lvgl/src/themes/mono/lv_theme_mono.c ****         lv_obj_add_style(obj, &theme->styles.scrollbar, LV_PART_SCROLLBAR);
 350:Drivers/lvgl/src/themes/mono/lv_theme_mono.c ****         lv_obj_add_style(obj, &theme->styles.card, LV_PART_ITEMS);
 351:Drivers/lvgl/src/themes/mono/lv_theme_mono.c ****         lv_obj_add_style(obj, &theme->styles.no_radius, LV_PART_ITEMS);
 352:Drivers/lvgl/src/themes/mono/lv_theme_mono.c ****         lv_obj_add_style(obj, &theme->styles.pr, LV_PART_ITEMS | LV_STATE_PRESSED);
 353:Drivers/lvgl/src/themes/mono/lv_theme_mono.c ****         lv_obj_add_style(obj, &theme->styles.focus, LV_STATE_FOCUS_KEY);
 354:Drivers/lvgl/src/themes/mono/lv_theme_mono.c ****         lv_obj_add_style(obj, &theme->styles.inv, LV_PART_ITEMS | LV_STATE_FOCUS_KEY);
 355:Drivers/lvgl/src/themes/mono/lv_theme_mono.c ****         lv_obj_add_style(obj, &theme->styles.edit, LV_STATE_EDITED);
 356:Drivers/lvgl/src/themes/mono/lv_theme_mono.c ****     }
 357:Drivers/lvgl/src/themes/mono/lv_theme_mono.c **** #endif
 358:Drivers/lvgl/src/themes/mono/lv_theme_mono.c **** 
 359:Drivers/lvgl/src/themes/mono/lv_theme_mono.c **** #if LV_USE_CHECKBOX
 360:Drivers/lvgl/src/themes/mono/lv_theme_mono.c ****     else if(lv_obj_check_type(obj, &lv_checkbox_class)) {
 361:Drivers/lvgl/src/themes/mono/lv_theme_mono.c ****         lv_obj_add_style(obj, &theme->styles.pad_gap, LV_PART_MAIN);
 362:Drivers/lvgl/src/themes/mono/lv_theme_mono.c ****         lv_obj_add_style(obj, &theme->styles.card, LV_PART_INDICATOR);
 363:Drivers/lvgl/src/themes/mono/lv_theme_mono.c ****         lv_obj_add_style(obj, &theme->styles.disabled, LV_PART_INDICATOR | LV_STATE_DISABLED);
 364:Drivers/lvgl/src/themes/mono/lv_theme_mono.c ****         lv_obj_add_style(obj, &theme->styles.inv, LV_PART_INDICATOR | LV_STATE_CHECKED);
 365:Drivers/lvgl/src/themes/mono/lv_theme_mono.c ****         lv_obj_add_style(obj, &theme->styles.pr, LV_PART_INDICATOR | LV_STATE_PRESSED);
 366:Drivers/lvgl/src/themes/mono/lv_theme_mono.c ****         lv_obj_add_style(obj, &theme->styles.focus, LV_STATE_FOCUS_KEY);
 367:Drivers/lvgl/src/themes/mono/lv_theme_mono.c ****         lv_obj_add_style(obj, &theme->styles.edit, LV_STATE_EDITED);
 368:Drivers/lvgl/src/themes/mono/lv_theme_mono.c ****     }
 369:Drivers/lvgl/src/themes/mono/lv_theme_mono.c **** #endif
 370:Drivers/lvgl/src/themes/mono/lv_theme_mono.c **** 
 371:Drivers/lvgl/src/themes/mono/lv_theme_mono.c **** #if LV_USE_SWITCH
 372:Drivers/lvgl/src/themes/mono/lv_theme_mono.c ****     else if(lv_obj_check_type(obj, &lv_switch_class)) {
 373:Drivers/lvgl/src/themes/mono/lv_theme_mono.c ****         lv_obj_add_style(obj, &theme->styles.card, 0);
 374:Drivers/lvgl/src/themes/mono/lv_theme_mono.c ****         lv_obj_add_style(obj, &theme->styles.radius_circle, 0);
 375:Drivers/lvgl/src/themes/mono/lv_theme_mono.c ****         lv_obj_add_style(obj, &theme->styles.pad_zero, 0);
 376:Drivers/lvgl/src/themes/mono/lv_theme_mono.c ****         lv_obj_add_style(obj, &theme->styles.inv, LV_PART_INDICATOR);
ARM GAS  /tmp/ccJxyNGA.s 			page 9


 377:Drivers/lvgl/src/themes/mono/lv_theme_mono.c ****         lv_obj_add_style(obj, &theme->styles.radius_circle, LV_PART_INDICATOR);
 378:Drivers/lvgl/src/themes/mono/lv_theme_mono.c ****         lv_obj_add_style(obj, &theme->styles.card, LV_PART_KNOB);
 379:Drivers/lvgl/src/themes/mono/lv_theme_mono.c ****         lv_obj_add_style(obj, &theme->styles.radius_circle, LV_PART_KNOB);
 380:Drivers/lvgl/src/themes/mono/lv_theme_mono.c ****         lv_obj_add_style(obj, &theme->styles.pad_zero, LV_PART_KNOB);
 381:Drivers/lvgl/src/themes/mono/lv_theme_mono.c ****         lv_obj_add_style(obj, &theme->styles.focus, LV_STATE_FOCUS_KEY);
 382:Drivers/lvgl/src/themes/mono/lv_theme_mono.c ****         lv_obj_add_style(obj, &theme->styles.edit, LV_STATE_EDITED);
 383:Drivers/lvgl/src/themes/mono/lv_theme_mono.c ****     }
 384:Drivers/lvgl/src/themes/mono/lv_theme_mono.c **** #endif
 385:Drivers/lvgl/src/themes/mono/lv_theme_mono.c **** 
 386:Drivers/lvgl/src/themes/mono/lv_theme_mono.c **** #if LV_USE_CHART
 387:Drivers/lvgl/src/themes/mono/lv_theme_mono.c ****     else if(lv_obj_check_type(obj, &lv_chart_class)) {
 388:Drivers/lvgl/src/themes/mono/lv_theme_mono.c ****         lv_obj_add_style(obj, &theme->styles.card, 0);
 389:Drivers/lvgl/src/themes/mono/lv_theme_mono.c ****         lv_obj_add_style(obj, &theme->styles.scrollbar, LV_PART_SCROLLBAR);
 390:Drivers/lvgl/src/themes/mono/lv_theme_mono.c ****         lv_obj_add_style(obj, &theme->styles.chart_indic, LV_PART_INDICATOR);
 391:Drivers/lvgl/src/themes/mono/lv_theme_mono.c ****         lv_obj_add_style(obj, &theme->styles.card, LV_PART_ITEMS);
 392:Drivers/lvgl/src/themes/mono/lv_theme_mono.c ****         lv_obj_add_style(obj, &theme->styles.card, LV_PART_CURSOR);
 393:Drivers/lvgl/src/themes/mono/lv_theme_mono.c ****         lv_obj_add_style(obj, &theme->styles.focus, LV_STATE_FOCUS_KEY);
 394:Drivers/lvgl/src/themes/mono/lv_theme_mono.c ****     }
 395:Drivers/lvgl/src/themes/mono/lv_theme_mono.c **** #endif
 396:Drivers/lvgl/src/themes/mono/lv_theme_mono.c **** 
 397:Drivers/lvgl/src/themes/mono/lv_theme_mono.c **** #if LV_USE_ROLLER
 398:Drivers/lvgl/src/themes/mono/lv_theme_mono.c ****     else if(lv_obj_check_type(obj, &lv_roller_class)) {
 399:Drivers/lvgl/src/themes/mono/lv_theme_mono.c ****         lv_obj_add_style(obj, &theme->styles.card, 0);
 400:Drivers/lvgl/src/themes/mono/lv_theme_mono.c ****         lv_obj_add_style(obj, &theme->styles.large_line_space, 0);
 401:Drivers/lvgl/src/themes/mono/lv_theme_mono.c ****         lv_obj_add_style(obj, &theme->styles.inv, LV_PART_SELECTED);
 402:Drivers/lvgl/src/themes/mono/lv_theme_mono.c ****         lv_obj_add_style(obj, &theme->styles.focus, LV_STATE_FOCUS_KEY);
 403:Drivers/lvgl/src/themes/mono/lv_theme_mono.c ****         lv_obj_add_style(obj, &theme->styles.edit, LV_STATE_EDITED);
 404:Drivers/lvgl/src/themes/mono/lv_theme_mono.c ****     }
 405:Drivers/lvgl/src/themes/mono/lv_theme_mono.c **** #endif
 406:Drivers/lvgl/src/themes/mono/lv_theme_mono.c **** 
 407:Drivers/lvgl/src/themes/mono/lv_theme_mono.c **** #if LV_USE_DROPDOWN
 408:Drivers/lvgl/src/themes/mono/lv_theme_mono.c ****     else if(lv_obj_check_type(obj, &lv_dropdown_class)) {
 409:Drivers/lvgl/src/themes/mono/lv_theme_mono.c ****         lv_obj_add_style(obj, &theme->styles.card, 0);
 410:Drivers/lvgl/src/themes/mono/lv_theme_mono.c ****         lv_obj_add_style(obj, &theme->styles.pr, LV_STATE_PRESSED);
 411:Drivers/lvgl/src/themes/mono/lv_theme_mono.c ****         lv_obj_add_style(obj, &theme->styles.focus, LV_STATE_FOCUS_KEY);
 412:Drivers/lvgl/src/themes/mono/lv_theme_mono.c ****         lv_obj_add_style(obj, &theme->styles.edit, LV_STATE_EDITED);
 413:Drivers/lvgl/src/themes/mono/lv_theme_mono.c ****     }
 414:Drivers/lvgl/src/themes/mono/lv_theme_mono.c ****     else if(lv_obj_check_type(obj, &lv_dropdownlist_class)) {
 415:Drivers/lvgl/src/themes/mono/lv_theme_mono.c ****         lv_obj_add_style(obj, &theme->styles.card, 0);
 416:Drivers/lvgl/src/themes/mono/lv_theme_mono.c ****         lv_obj_add_style(obj, &theme->styles.large_line_space, 0);
 417:Drivers/lvgl/src/themes/mono/lv_theme_mono.c ****         lv_obj_add_style(obj, &theme->styles.scrollbar, LV_PART_SCROLLBAR);
 418:Drivers/lvgl/src/themes/mono/lv_theme_mono.c ****         lv_obj_add_style(obj, &theme->styles.inv, LV_PART_SELECTED | LV_STATE_CHECKED);
 419:Drivers/lvgl/src/themes/mono/lv_theme_mono.c ****         lv_obj_add_style(obj, &theme->styles.pr, LV_PART_SELECTED | LV_STATE_PRESSED);
 420:Drivers/lvgl/src/themes/mono/lv_theme_mono.c ****         lv_obj_add_style(obj, &theme->styles.focus, LV_STATE_FOCUS_KEY);
 421:Drivers/lvgl/src/themes/mono/lv_theme_mono.c ****         lv_obj_add_style(obj, &theme->styles.edit, LV_STATE_EDITED);
 422:Drivers/lvgl/src/themes/mono/lv_theme_mono.c ****     }
 423:Drivers/lvgl/src/themes/mono/lv_theme_mono.c **** #endif
 424:Drivers/lvgl/src/themes/mono/lv_theme_mono.c **** 
 425:Drivers/lvgl/src/themes/mono/lv_theme_mono.c **** #if LV_USE_ARC
 426:Drivers/lvgl/src/themes/mono/lv_theme_mono.c ****     else if(lv_obj_check_type(obj, &lv_arc_class)) {
 427:Drivers/lvgl/src/themes/mono/lv_theme_mono.c ****         lv_obj_add_style(obj, &theme->styles.card, 0);
 428:Drivers/lvgl/src/themes/mono/lv_theme_mono.c ****         lv_obj_add_style(obj, &theme->styles.inv, LV_PART_INDICATOR);
 429:Drivers/lvgl/src/themes/mono/lv_theme_mono.c ****         lv_obj_add_style(obj, &theme->styles.pad_zero, LV_PART_INDICATOR);
 430:Drivers/lvgl/src/themes/mono/lv_theme_mono.c ****         lv_obj_add_style(obj, &theme->styles.card, LV_PART_KNOB);
 431:Drivers/lvgl/src/themes/mono/lv_theme_mono.c ****         lv_obj_add_style(obj, &theme->styles.radius_circle, LV_PART_KNOB);
 432:Drivers/lvgl/src/themes/mono/lv_theme_mono.c ****         lv_obj_add_style(obj, &theme->styles.focus, LV_STATE_FOCUS_KEY);
 433:Drivers/lvgl/src/themes/mono/lv_theme_mono.c ****         lv_obj_add_style(obj, &theme->styles.edit, LV_STATE_EDITED);
ARM GAS  /tmp/ccJxyNGA.s 			page 10


 434:Drivers/lvgl/src/themes/mono/lv_theme_mono.c ****     }
 435:Drivers/lvgl/src/themes/mono/lv_theme_mono.c **** #endif
 436:Drivers/lvgl/src/themes/mono/lv_theme_mono.c **** 
 437:Drivers/lvgl/src/themes/mono/lv_theme_mono.c **** #if LV_USE_TEXTAREA
 438:Drivers/lvgl/src/themes/mono/lv_theme_mono.c ****     else if(lv_obj_check_type(obj, &lv_textarea_class)) {
 439:Drivers/lvgl/src/themes/mono/lv_theme_mono.c ****         lv_obj_add_style(obj, &theme->styles.card, 0);
 440:Drivers/lvgl/src/themes/mono/lv_theme_mono.c ****         lv_obj_add_style(obj, &theme->styles.scrollbar, LV_PART_SCROLLBAR);
 441:Drivers/lvgl/src/themes/mono/lv_theme_mono.c ****         lv_obj_add_style(obj, &theme->styles.ta_cursor, LV_PART_CURSOR | LV_STATE_FOCUSED);
 442:Drivers/lvgl/src/themes/mono/lv_theme_mono.c ****         lv_obj_add_style(obj, &theme->styles.focus, LV_STATE_FOCUSED);
 443:Drivers/lvgl/src/themes/mono/lv_theme_mono.c ****         lv_obj_add_style(obj, &theme->styles.edit, LV_STATE_EDITED);
 444:Drivers/lvgl/src/themes/mono/lv_theme_mono.c ****     }
 445:Drivers/lvgl/src/themes/mono/lv_theme_mono.c **** #endif
 446:Drivers/lvgl/src/themes/mono/lv_theme_mono.c **** 
 447:Drivers/lvgl/src/themes/mono/lv_theme_mono.c **** #if LV_USE_CALENDAR
 448:Drivers/lvgl/src/themes/mono/lv_theme_mono.c ****     else if(lv_obj_check_type(obj, &lv_calendar_class)) {
 449:Drivers/lvgl/src/themes/mono/lv_theme_mono.c ****         lv_obj_add_style(obj, &theme->styles.card, 0);
 450:Drivers/lvgl/src/themes/mono/lv_theme_mono.c ****         lv_obj_add_style(obj, &theme->styles.no_radius, 0);
 451:Drivers/lvgl/src/themes/mono/lv_theme_mono.c ****         lv_obj_add_style(obj, &theme->styles.pr, LV_PART_ITEMS | LV_STATE_PRESSED);
 452:Drivers/lvgl/src/themes/mono/lv_theme_mono.c ****         lv_obj_add_style(obj, &theme->styles.disabled, LV_PART_ITEMS | LV_STATE_DISABLED);
 453:Drivers/lvgl/src/themes/mono/lv_theme_mono.c ****         lv_obj_add_style(obj, &theme->styles.focus, LV_STATE_FOCUS_KEY);
 454:Drivers/lvgl/src/themes/mono/lv_theme_mono.c ****         lv_obj_add_style(obj, &theme->styles.edit, LV_STATE_EDITED);
 455:Drivers/lvgl/src/themes/mono/lv_theme_mono.c ****         lv_obj_add_style(obj, &theme->styles.large_border, LV_PART_ITEMS | LV_STATE_FOCUS_KEY);
 456:Drivers/lvgl/src/themes/mono/lv_theme_mono.c ****     }
 457:Drivers/lvgl/src/themes/mono/lv_theme_mono.c **** #endif
 458:Drivers/lvgl/src/themes/mono/lv_theme_mono.c **** 
 459:Drivers/lvgl/src/themes/mono/lv_theme_mono.c **** #if LV_USE_KEYBOARD
 460:Drivers/lvgl/src/themes/mono/lv_theme_mono.c ****     else if(lv_obj_check_type(obj, &lv_keyboard_class)) {
 461:Drivers/lvgl/src/themes/mono/lv_theme_mono.c ****         lv_obj_add_style(obj, &theme->styles.card, 0);
 462:Drivers/lvgl/src/themes/mono/lv_theme_mono.c ****         lv_obj_add_style(obj, &theme->styles.card, LV_PART_ITEMS);
 463:Drivers/lvgl/src/themes/mono/lv_theme_mono.c ****         lv_obj_add_style(obj, &theme->styles.pr, LV_PART_ITEMS | LV_STATE_PRESSED);
 464:Drivers/lvgl/src/themes/mono/lv_theme_mono.c ****         lv_obj_add_style(obj, &theme->styles.inv, LV_PART_ITEMS | LV_STATE_CHECKED);
 465:Drivers/lvgl/src/themes/mono/lv_theme_mono.c ****         lv_obj_add_style(obj, &theme->styles.focus, LV_STATE_FOCUS_KEY);
 466:Drivers/lvgl/src/themes/mono/lv_theme_mono.c ****         lv_obj_add_style(obj, &theme->styles.edit, LV_STATE_EDITED);
 467:Drivers/lvgl/src/themes/mono/lv_theme_mono.c ****         lv_obj_add_style(obj, &theme->styles.large_border, LV_PART_ITEMS | LV_STATE_EDITED);
 468:Drivers/lvgl/src/themes/mono/lv_theme_mono.c ****     }
 469:Drivers/lvgl/src/themes/mono/lv_theme_mono.c **** #endif
 470:Drivers/lvgl/src/themes/mono/lv_theme_mono.c **** #if LV_USE_LIST
 471:Drivers/lvgl/src/themes/mono/lv_theme_mono.c ****     else if(lv_obj_check_type(obj, &lv_list_class)) {
 472:Drivers/lvgl/src/themes/mono/lv_theme_mono.c ****         lv_obj_add_style(obj, &theme->styles.card, 0);
 473:Drivers/lvgl/src/themes/mono/lv_theme_mono.c ****         lv_obj_add_style(obj, &theme->styles.scrollbar, LV_PART_SCROLLBAR);
 474:Drivers/lvgl/src/themes/mono/lv_theme_mono.c ****         return;
 475:Drivers/lvgl/src/themes/mono/lv_theme_mono.c ****     }
 476:Drivers/lvgl/src/themes/mono/lv_theme_mono.c ****     else if(lv_obj_check_type(obj, &lv_list_text_class)) {
 477:Drivers/lvgl/src/themes/mono/lv_theme_mono.c **** 
 478:Drivers/lvgl/src/themes/mono/lv_theme_mono.c ****     }
 479:Drivers/lvgl/src/themes/mono/lv_theme_mono.c ****     else if(lv_obj_check_type(obj, &lv_list_button_class)) {
 480:Drivers/lvgl/src/themes/mono/lv_theme_mono.c ****         lv_obj_add_style(obj, &theme->styles.card, 0);
 481:Drivers/lvgl/src/themes/mono/lv_theme_mono.c ****         lv_obj_add_style(obj, &theme->styles.pr, LV_STATE_PRESSED);
 482:Drivers/lvgl/src/themes/mono/lv_theme_mono.c ****         lv_obj_add_style(obj, &theme->styles.focus, LV_STATE_FOCUS_KEY);
 483:Drivers/lvgl/src/themes/mono/lv_theme_mono.c ****         lv_obj_add_style(obj, &theme->styles.large_border, LV_STATE_EDITED);
 484:Drivers/lvgl/src/themes/mono/lv_theme_mono.c **** 
 485:Drivers/lvgl/src/themes/mono/lv_theme_mono.c ****     }
 486:Drivers/lvgl/src/themes/mono/lv_theme_mono.c **** #endif
 487:Drivers/lvgl/src/themes/mono/lv_theme_mono.c **** #if LV_USE_MSGBOX
 488:Drivers/lvgl/src/themes/mono/lv_theme_mono.c ****     else if(lv_obj_check_type(obj, &lv_msgbox_class)) {
 489:Drivers/lvgl/src/themes/mono/lv_theme_mono.c ****         lv_obj_add_style(obj, &theme->styles.card, 0);
 490:Drivers/lvgl/src/themes/mono/lv_theme_mono.c ****         return;
ARM GAS  /tmp/ccJxyNGA.s 			page 11


 491:Drivers/lvgl/src/themes/mono/lv_theme_mono.c ****     }
 492:Drivers/lvgl/src/themes/mono/lv_theme_mono.c **** #endif
 493:Drivers/lvgl/src/themes/mono/lv_theme_mono.c **** #if LV_USE_SPINBOX
 494:Drivers/lvgl/src/themes/mono/lv_theme_mono.c ****     else if(lv_obj_check_type(obj, &lv_spinbox_class)) {
 495:Drivers/lvgl/src/themes/mono/lv_theme_mono.c ****         lv_obj_add_style(obj, &theme->styles.card, 0);
 496:Drivers/lvgl/src/themes/mono/lv_theme_mono.c ****         lv_obj_add_style(obj, &theme->styles.inv, LV_PART_CURSOR);
 497:Drivers/lvgl/src/themes/mono/lv_theme_mono.c ****         lv_obj_add_style(obj, &theme->styles.focus, LV_STATE_FOCUS_KEY);
 498:Drivers/lvgl/src/themes/mono/lv_theme_mono.c ****         lv_obj_add_style(obj, &theme->styles.edit, LV_STATE_EDITED);
 499:Drivers/lvgl/src/themes/mono/lv_theme_mono.c ****     }
 500:Drivers/lvgl/src/themes/mono/lv_theme_mono.c **** #endif
 501:Drivers/lvgl/src/themes/mono/lv_theme_mono.c **** #if LV_USE_TILEVIEW
 502:Drivers/lvgl/src/themes/mono/lv_theme_mono.c ****     else if(lv_obj_check_type(obj, &lv_tileview_class)) {
 503:Drivers/lvgl/src/themes/mono/lv_theme_mono.c ****         lv_obj_add_style(obj, &theme->styles.scr, 0);
 504:Drivers/lvgl/src/themes/mono/lv_theme_mono.c ****         lv_obj_add_style(obj, &theme->styles.scrollbar, LV_PART_SCROLLBAR);
 505:Drivers/lvgl/src/themes/mono/lv_theme_mono.c ****     }
 506:Drivers/lvgl/src/themes/mono/lv_theme_mono.c ****     else if(lv_obj_check_type(obj, &lv_tileview_tile_class)) {
 507:Drivers/lvgl/src/themes/mono/lv_theme_mono.c ****         lv_obj_add_style(obj, &theme->styles.scrollbar, LV_PART_SCROLLBAR);
 508:Drivers/lvgl/src/themes/mono/lv_theme_mono.c ****     }
 509:Drivers/lvgl/src/themes/mono/lv_theme_mono.c **** #endif
 510:Drivers/lvgl/src/themes/mono/lv_theme_mono.c **** 
 511:Drivers/lvgl/src/themes/mono/lv_theme_mono.c **** #if LV_USE_LED
 512:Drivers/lvgl/src/themes/mono/lv_theme_mono.c ****     else if(lv_obj_check_type(obj, &lv_led_class)) {
 513:Drivers/lvgl/src/themes/mono/lv_theme_mono.c ****         lv_obj_add_style(obj, &theme->styles.card, 0);
 514:Drivers/lvgl/src/themes/mono/lv_theme_mono.c ****     }
 515:Drivers/lvgl/src/themes/mono/lv_theme_mono.c **** #endif
 516:Drivers/lvgl/src/themes/mono/lv_theme_mono.c **** }
  82              		.loc 1 516 1 view .LVU17
  83 002c BDE8F081 		pop	{r4, r5, r6, r7, r8, pc}
  84              	.LVL8:
  85              	.L32:
 240:Drivers/lvgl/src/themes/mono/lv_theme_mono.c ****         lv_obj_add_style(obj, &theme->styles.scrollbar, LV_PART_SCROLLBAR);
  86              		.loc 1 240 9 is_stmt 1 view .LVU18
  87 0030 0022     		movs	r2, #0
  88 0032 05F12801 		add	r1, r5, #40
  89 0036 2046     		mov	r0, r4
  90              	.LVL9:
 240:Drivers/lvgl/src/themes/mono/lv_theme_mono.c ****         lv_obj_add_style(obj, &theme->styles.scrollbar, LV_PART_SCROLLBAR);
  91              		.loc 1 240 9 is_stmt 0 view .LVU19
  92 0038 FFF7FEFF 		bl	lv_obj_add_style
  93              	.LVL10:
 241:Drivers/lvgl/src/themes/mono/lv_theme_mono.c ****         return;
  94              		.loc 1 241 9 is_stmt 1 view .LVU20
  95 003c 4FF48032 		mov	r2, #65536
  96 0040 05F14001 		add	r1, r5, #64
  97 0044 2046     		mov	r0, r4
  98 0046 FFF7FEFF 		bl	lv_obj_add_style
  99              	.LVL11:
 242:Drivers/lvgl/src/themes/mono/lv_theme_mono.c ****     }
 100              		.loc 1 242 9 view .LVU21
 101 004a EFE7     		b	.L1
 102              	.LVL12:
 103              	.L33:
 252:Drivers/lvgl/src/themes/mono/lv_theme_mono.c ****             lv_obj_add_style(obj, &theme->styles.card, 0);
 104              		.loc 1 252 14 view .LVU22
 252:Drivers/lvgl/src/themes/mono/lv_theme_mono.c ****             lv_obj_add_style(obj, &theme->styles.card, 0);
 105              		.loc 1 252 35 is_stmt 0 view .LVU23
 106 004c 3046     		mov	r0, r6
ARM GAS  /tmp/ccJxyNGA.s 			page 12


 107 004e FFF7FEFF 		bl	lv_obj_get_parent
 108              	.LVL13:
 252:Drivers/lvgl/src/themes/mono/lv_theme_mono.c ****             lv_obj_add_style(obj, &theme->styles.card, 0);
 109              		.loc 1 252 17 discriminator 1 view .LVU24
 110 0052 BE49     		ldr	r1, .L41+8
 111 0054 FFF7FEFF 		bl	lv_obj_check_type
 112              	.LVL14:
 252:Drivers/lvgl/src/themes/mono/lv_theme_mono.c ****             lv_obj_add_style(obj, &theme->styles.card, 0);
 113              		.loc 1 252 16 discriminator 2 view .LVU25
 114 0058 10BB     		cbnz	r0, .L34
 262:Drivers/lvgl/src/themes/mono/lv_theme_mono.c ****             lv_obj_add_style(obj, &theme->styles.card, 0);
 115              		.loc 1 262 9 is_stmt 1 view .LVU26
 262:Drivers/lvgl/src/themes/mono/lv_theme_mono.c ****             lv_obj_add_style(obj, &theme->styles.card, 0);
 116              		.loc 1 262 12 is_stmt 0 view .LVU27
 117 005a BD49     		ldr	r1, .L41+12
 118 005c 3046     		mov	r0, r6
 119 005e FFF7FEFF 		bl	lv_obj_check_type
 120              	.LVL15:
 262:Drivers/lvgl/src/themes/mono/lv_theme_mono.c ****             lv_obj_add_style(obj, &theme->styles.card, 0);
 121              		.loc 1 262 11 discriminator 1 view .LVU28
 122 0062 20B1     		cbz	r0, .L6
 262:Drivers/lvgl/src/themes/mono/lv_theme_mono.c ****             lv_obj_add_style(obj, &theme->styles.card, 0);
 123              		.loc 1 262 56 discriminator 1 view .LVU29
 124 0064 0021     		movs	r1, #0
 125 0066 3046     		mov	r0, r6
 126 0068 FFF7FEFF 		bl	lv_obj_get_child
 127              	.LVL16:
 262:Drivers/lvgl/src/themes/mono/lv_theme_mono.c ****             lv_obj_add_style(obj, &theme->styles.card, 0);
 128              		.loc 1 262 53 discriminator 1 view .LVU30
 129 006c 60B3     		cbz	r0, .L35
 130              	.L6:
 268:Drivers/lvgl/src/themes/mono/lv_theme_mono.c ****             lv_obj_add_style(obj, &theme->styles.card, 0);
 131              		.loc 1 268 14 is_stmt 1 view .LVU31
 268:Drivers/lvgl/src/themes/mono/lv_theme_mono.c ****             lv_obj_add_style(obj, &theme->styles.card, 0);
 132              		.loc 1 268 17 is_stmt 0 view .LVU32
 133 006e B849     		ldr	r1, .L41+12
 134 0070 3046     		mov	r0, r6
 135 0072 FFF7FEFF 		bl	lv_obj_check_type
 136              	.LVL17:
 268:Drivers/lvgl/src/themes/mono/lv_theme_mono.c ****             lv_obj_add_style(obj, &theme->styles.card, 0);
 137              		.loc 1 268 16 discriminator 1 view .LVU33
 138 0076 28B1     		cbz	r0, .L7
 268:Drivers/lvgl/src/themes/mono/lv_theme_mono.c ****             lv_obj_add_style(obj, &theme->styles.card, 0);
 139              		.loc 1 268 61 discriminator 1 view .LVU34
 140 0078 0121     		movs	r1, #1
 141 007a 3046     		mov	r0, r6
 142 007c FFF7FEFF 		bl	lv_obj_get_child
 143              	.LVL18:
 268:Drivers/lvgl/src/themes/mono/lv_theme_mono.c ****             lv_obj_add_style(obj, &theme->styles.card, 0);
 144              		.loc 1 268 58 discriminator 1 view .LVU35
 145 0080 8442     		cmp	r4, r0
 146 0082 2ED0     		beq	.L36
 147              	.L7:
 275:Drivers/lvgl/src/themes/mono/lv_theme_mono.c ****         lv_obj_add_style(obj, &theme->styles.scrollbar, LV_PART_SCROLLBAR);
 148              		.loc 1 275 9 is_stmt 1 view .LVU36
 149 0084 0022     		movs	r2, #0
 150 0086 05F13401 		add	r1, r5, #52
ARM GAS  /tmp/ccJxyNGA.s 			page 13


 151 008a 2046     		mov	r0, r4
 152 008c FFF7FEFF 		bl	lv_obj_add_style
 153              	.LVL19:
 276:Drivers/lvgl/src/themes/mono/lv_theme_mono.c ****     }
 154              		.loc 1 276 9 view .LVU37
 155 0090 4FF48032 		mov	r2, #65536
 156 0094 05F14001 		add	r1, r5, #64
 157 0098 2046     		mov	r0, r4
 158 009a FFF7FEFF 		bl	lv_obj_add_style
 159              	.LVL20:
 160 009e C5E7     		b	.L1
 161              	.L34:
 253:Drivers/lvgl/src/themes/mono/lv_theme_mono.c ****             lv_obj_add_style(obj, &theme->styles.no_radius, 0);
 162              		.loc 1 253 13 view .LVU38
 163 00a0 0022     		movs	r2, #0
 164 00a2 05F13401 		add	r1, r5, #52
 165 00a6 2046     		mov	r0, r4
 166 00a8 FFF7FEFF 		bl	lv_obj_add_style
 167              	.LVL21:
 254:Drivers/lvgl/src/themes/mono/lv_theme_mono.c ****             lv_obj_add_style(obj, &theme->styles.scrollbar, LV_PART_SCROLLBAR);
 168              		.loc 1 254 13 view .LVU39
 169 00ac 0022     		movs	r2, #0
 170 00ae 05F1A001 		add	r1, r5, #160
 171 00b2 2046     		mov	r0, r4
 172 00b4 FFF7FEFF 		bl	lv_obj_add_style
 173              	.LVL22:
 255:Drivers/lvgl/src/themes/mono/lv_theme_mono.c ****             return;
 174              		.loc 1 255 13 view .LVU40
 175 00b8 4FF48032 		mov	r2, #65536
 176 00bc 05F14001 		add	r1, r5, #64
 177 00c0 2046     		mov	r0, r4
 178 00c2 FFF7FEFF 		bl	lv_obj_add_style
 179              	.LVL23:
 256:Drivers/lvgl/src/themes/mono/lv_theme_mono.c ****         }
 180              		.loc 1 256 13 view .LVU41
 181 00c6 B1E7     		b	.L1
 182              	.L35:
 263:Drivers/lvgl/src/themes/mono/lv_theme_mono.c ****             lv_obj_add_style(obj, &theme->styles.no_radius, 0);
 183              		.loc 1 263 13 view .LVU42
 184 00c8 0022     		movs	r2, #0
 185 00ca 05F13401 		add	r1, r5, #52
 186 00ce 2046     		mov	r0, r4
 187 00d0 FFF7FEFF 		bl	lv_obj_add_style
 188              	.LVL24:
 264:Drivers/lvgl/src/themes/mono/lv_theme_mono.c ****             return;
 189              		.loc 1 264 13 view .LVU43
 190 00d4 0022     		movs	r2, #0
 191 00d6 05F1A001 		add	r1, r5, #160
 192 00da 2046     		mov	r0, r4
 193 00dc FFF7FEFF 		bl	lv_obj_add_style
 194              	.LVL25:
 265:Drivers/lvgl/src/themes/mono/lv_theme_mono.c ****         }
 195              		.loc 1 265 13 view .LVU44
 196 00e0 A4E7     		b	.L1
 197              	.L36:
 269:Drivers/lvgl/src/themes/mono/lv_theme_mono.c ****             lv_obj_add_style(obj, &theme->styles.no_radius, 0);
 198              		.loc 1 269 13 view .LVU45
ARM GAS  /tmp/ccJxyNGA.s 			page 14


 199 00e2 0022     		movs	r2, #0
 200 00e4 05F13401 		add	r1, r5, #52
 201 00e8 2046     		mov	r0, r4
 202 00ea FFF7FEFF 		bl	lv_obj_add_style
 203              	.LVL26:
 270:Drivers/lvgl/src/themes/mono/lv_theme_mono.c ****             lv_obj_add_style(obj, &theme->styles.scrollbar, LV_PART_SCROLLBAR);
 204              		.loc 1 270 13 view .LVU46
 205 00ee 0022     		movs	r2, #0
 206 00f0 05F1A001 		add	r1, r5, #160
 207 00f4 2046     		mov	r0, r4
 208 00f6 FFF7FEFF 		bl	lv_obj_add_style
 209              	.LVL27:
 271:Drivers/lvgl/src/themes/mono/lv_theme_mono.c ****             return;
 210              		.loc 1 271 13 view .LVU47
 211 00fa 4FF48032 		mov	r2, #65536
 212 00fe 05F14001 		add	r1, r5, #64
 213 0102 2046     		mov	r0, r4
 214 0104 FFF7FEFF 		bl	lv_obj_add_style
 215              	.LVL28:
 272:Drivers/lvgl/src/themes/mono/lv_theme_mono.c ****         }
 216              		.loc 1 272 13 view .LVU48
 217 0108 90E7     		b	.L1
 218              	.L4:
 279:Drivers/lvgl/src/themes/mono/lv_theme_mono.c ****         lv_obj_add_style(obj, &theme->styles.card, 0);
 219              		.loc 1 279 10 view .LVU49
 279:Drivers/lvgl/src/themes/mono/lv_theme_mono.c ****         lv_obj_add_style(obj, &theme->styles.card, 0);
 220              		.loc 1 279 13 is_stmt 0 view .LVU50
 221 010a 9249     		ldr	r1, .L41+16
 222 010c 2046     		mov	r0, r4
 223 010e FFF7FEFF 		bl	lv_obj_check_type
 224              	.LVL29:
 279:Drivers/lvgl/src/themes/mono/lv_theme_mono.c ****         lv_obj_add_style(obj, &theme->styles.card, 0);
 225              		.loc 1 279 12 discriminator 1 view .LVU51
 226 0112 20B3     		cbz	r0, .L8
 280:Drivers/lvgl/src/themes/mono/lv_theme_mono.c ****         lv_obj_add_style(obj, &theme->styles.pr, LV_STATE_PRESSED);
 227              		.loc 1 280 9 is_stmt 1 view .LVU52
 228 0114 0022     		movs	r2, #0
 229 0116 05F13401 		add	r1, r5, #52
 230 011a 2046     		mov	r0, r4
 231 011c FFF7FEFF 		bl	lv_obj_add_style
 232              	.LVL30:
 281:Drivers/lvgl/src/themes/mono/lv_theme_mono.c ****         lv_obj_add_style(obj, &theme->styles.inv, LV_STATE_CHECKED);
 233              		.loc 1 281 9 view .LVU53
 234 0120 2022     		movs	r2, #32
 235 0122 05F14C01 		add	r1, r5, #76
 236 0126 2046     		mov	r0, r4
 237 0128 FFF7FEFF 		bl	lv_obj_add_style
 238              	.LVL31:
 282:Drivers/lvgl/src/themes/mono/lv_theme_mono.c ****         lv_obj_add_style(obj, &theme->styles.disabled, LV_STATE_DISABLED);
 239              		.loc 1 282 9 view .LVU54
 240 012c 0122     		movs	r2, #1
 241 012e 05F15801 		add	r1, r5, #88
 242 0132 2046     		mov	r0, r4
 243 0134 FFF7FEFF 		bl	lv_obj_add_style
 244              	.LVL32:
 283:Drivers/lvgl/src/themes/mono/lv_theme_mono.c ****         lv_obj_add_style(obj, &theme->styles.focus, LV_STATE_FOCUS_KEY);
 245              		.loc 1 283 9 view .LVU55
ARM GAS  /tmp/ccJxyNGA.s 			page 15


 246 0138 8022     		movs	r2, #128
 247 013a 05F16401 		add	r1, r5, #100
 248 013e 2046     		mov	r0, r4
 249 0140 FFF7FEFF 		bl	lv_obj_add_style
 250              	.LVL33:
 284:Drivers/lvgl/src/themes/mono/lv_theme_mono.c ****         lv_obj_add_style(obj, &theme->styles.edit, LV_STATE_EDITED);
 251              		.loc 1 284 9 view .LVU56
 252 0144 0422     		movs	r2, #4
 253 0146 05F17001 		add	r1, r5, #112
 254 014a 2046     		mov	r0, r4
 255 014c FFF7FEFF 		bl	lv_obj_add_style
 256              	.LVL34:
 285:Drivers/lvgl/src/themes/mono/lv_theme_mono.c ****     }
 257              		.loc 1 285 9 view .LVU57
 258 0150 0822     		movs	r2, #8
 259 0152 05F17C01 		add	r1, r5, #124
 260 0156 2046     		mov	r0, r4
 261 0158 FFF7FEFF 		bl	lv_obj_add_style
 262              	.LVL35:
 263 015c 66E7     		b	.L1
 264              	.L8:
 290:Drivers/lvgl/src/themes/mono/lv_theme_mono.c **** #if LV_USE_MSGBOX
 265              		.loc 1 290 10 view .LVU58
 290:Drivers/lvgl/src/themes/mono/lv_theme_mono.c **** #if LV_USE_MSGBOX
 266              		.loc 1 290 13 is_stmt 0 view .LVU59
 267 015e 7E49     		ldr	r1, .L41+20
 268 0160 2046     		mov	r0, r4
 269 0162 FFF7FEFF 		bl	lv_obj_check_type
 270              	.LVL36:
 290:Drivers/lvgl/src/themes/mono/lv_theme_mono.c **** #if LV_USE_MSGBOX
 271              		.loc 1 290 12 discriminator 1 view .LVU60
 272 0166 0028     		cmp	r0, #0
 273 0168 00F09880 		beq	.L9
 292:Drivers/lvgl/src/themes/mono/lv_theme_mono.c ****             lv_obj_add_style(obj, &theme->styles.pad_gap, 0);
 274              		.loc 1 292 9 is_stmt 1 view .LVU61
 292:Drivers/lvgl/src/themes/mono/lv_theme_mono.c ****             lv_obj_add_style(obj, &theme->styles.pad_gap, 0);
 275              		.loc 1 292 12 is_stmt 0 view .LVU62
 276 016c 7B49     		ldr	r1, .L41+24
 277 016e 3046     		mov	r0, r6
 278 0170 FFF7FEFF 		bl	lv_obj_check_type
 279              	.LVL37:
 292:Drivers/lvgl/src/themes/mono/lv_theme_mono.c ****             lv_obj_add_style(obj, &theme->styles.pad_gap, 0);
 280              		.loc 1 292 11 discriminator 1 view .LVU63
 281 0174 C0BB     		cbnz	r0, .L37
 303:Drivers/lvgl/src/themes/mono/lv_theme_mono.c ****             lv_obj_add_style(obj, &theme->styles.pad_gap, 0);
 282              		.loc 1 303 9 is_stmt 1 view .LVU64
 303:Drivers/lvgl/src/themes/mono/lv_theme_mono.c ****             lv_obj_add_style(obj, &theme->styles.pad_gap, 0);
 283              		.loc 1 303 12 is_stmt 0 view .LVU65
 284 0176 7549     		ldr	r1, .L41+8
 285 0178 3046     		mov	r0, r6
 286 017a FFF7FEFF 		bl	lv_obj_check_type
 287              	.LVL38:
 303:Drivers/lvgl/src/themes/mono/lv_theme_mono.c ****             lv_obj_add_style(obj, &theme->styles.pad_gap, 0);
 288              		.loc 1 303 11 discriminator 1 view .LVU66
 289 017e 0028     		cmp	r0, #0
 290 0180 59D1     		bne	.L38
 315:Drivers/lvgl/src/themes/mono/lv_theme_mono.c ****         lv_obj_add_style(obj, &theme->styles.focus, LV_STATE_FOCUS_KEY);
ARM GAS  /tmp/ccJxyNGA.s 			page 16


 291              		.loc 1 315 9 is_stmt 1 view .LVU67
 315:Drivers/lvgl/src/themes/mono/lv_theme_mono.c ****         lv_obj_add_style(obj, &theme->styles.focus, LV_STATE_FOCUS_KEY);
 292              		.loc 1 315 31 is_stmt 0 view .LVU68
 293 0182 05F13406 		add	r6, r5, #52
 294              	.LVL39:
 315:Drivers/lvgl/src/themes/mono/lv_theme_mono.c ****         lv_obj_add_style(obj, &theme->styles.focus, LV_STATE_FOCUS_KEY);
 295              		.loc 1 315 9 view .LVU69
 296 0186 0022     		movs	r2, #0
 297 0188 3146     		mov	r1, r6
 298 018a 2046     		mov	r0, r4
 299 018c FFF7FEFF 		bl	lv_obj_add_style
 300              	.LVL40:
 316:Drivers/lvgl/src/themes/mono/lv_theme_mono.c ****         lv_obj_add_style(obj, &theme->styles.card, LV_PART_ITEMS);
 301              		.loc 1 316 9 is_stmt 1 view .LVU70
 302 0190 0422     		movs	r2, #4
 303 0192 05F17001 		add	r1, r5, #112
 304 0196 2046     		mov	r0, r4
 305 0198 FFF7FEFF 		bl	lv_obj_add_style
 306              	.LVL41:
 317:Drivers/lvgl/src/themes/mono/lv_theme_mono.c ****         lv_obj_add_style(obj, &theme->styles.pr, LV_PART_ITEMS | LV_STATE_PRESSED);
 307              		.loc 1 317 9 view .LVU71
 308 019c 4FF4A022 		mov	r2, #327680
 309 01a0 3146     		mov	r1, r6
 310 01a2 2046     		mov	r0, r4
 311 01a4 FFF7FEFF 		bl	lv_obj_add_style
 312              	.LVL42:
 318:Drivers/lvgl/src/themes/mono/lv_theme_mono.c ****         lv_obj_add_style(obj, &theme->styles.inv, LV_PART_ITEMS | LV_STATE_CHECKED);
 313              		.loc 1 318 9 view .LVU72
 314 01a8 6D4A     		ldr	r2, .L41+28
 315 01aa 05F14C01 		add	r1, r5, #76
 316 01ae 2046     		mov	r0, r4
 317 01b0 FFF7FEFF 		bl	lv_obj_add_style
 318              	.LVL43:
 319:Drivers/lvgl/src/themes/mono/lv_theme_mono.c ****         lv_obj_add_style(obj, &theme->styles.disabled, LV_PART_ITEMS | LV_STATE_DISABLED);
 319              		.loc 1 319 9 view .LVU73
 320 01b4 6B4A     		ldr	r2, .L41+32
 321 01b6 05F15801 		add	r1, r5, #88
 322 01ba 2046     		mov	r0, r4
 323 01bc FFF7FEFF 		bl	lv_obj_add_style
 324              	.LVL44:
 320:Drivers/lvgl/src/themes/mono/lv_theme_mono.c ****         lv_obj_add_style(obj, &theme->styles.underline, LV_PART_ITEMS | LV_STATE_FOCUS_KEY);
 325              		.loc 1 320 9 view .LVU74
 326 01c0 694A     		ldr	r2, .L41+36
 327 01c2 05F16401 		add	r1, r5, #100
 328 01c6 2046     		mov	r0, r4
 329 01c8 FFF7FEFF 		bl	lv_obj_add_style
 330              	.LVL45:
 321:Drivers/lvgl/src/themes/mono/lv_theme_mono.c ****         lv_obj_add_style(obj, &theme->styles.large_border, LV_PART_ITEMS | LV_STATE_FOCUS_KEY);
 331              		.loc 1 321 9 view .LVU75
 332 01cc 674E     		ldr	r6, .L41+40
 333 01ce 3246     		mov	r2, r6
 334 01d0 05F1D001 		add	r1, r5, #208
 335 01d4 2046     		mov	r0, r4
 336 01d6 FFF7FEFF 		bl	lv_obj_add_style
 337              	.LVL46:
 322:Drivers/lvgl/src/themes/mono/lv_theme_mono.c ****     }
 338              		.loc 1 322 9 view .LVU76
ARM GAS  /tmp/ccJxyNGA.s 			page 17


 339 01da 3246     		mov	r2, r6
 340 01dc 05F1B801 		add	r1, r5, #184
 341 01e0 2046     		mov	r0, r4
 342 01e2 FFF7FEFF 		bl	lv_obj_add_style
 343              	.LVL47:
 344 01e6 21E7     		b	.L1
 345              	.LVL48:
 346              	.L37:
 293:Drivers/lvgl/src/themes/mono/lv_theme_mono.c ****             lv_obj_add_style(obj, &theme->styles.card, LV_PART_ITEMS);
 347              		.loc 1 293 13 view .LVU77
 348 01e8 0022     		movs	r2, #0
 349 01ea 05F18801 		add	r1, r5, #136
 350 01ee 2046     		mov	r0, r4
 351 01f0 FFF7FEFF 		bl	lv_obj_add_style
 352              	.LVL49:
 294:Drivers/lvgl/src/themes/mono/lv_theme_mono.c ****             lv_obj_add_style(obj, &theme->styles.pr, LV_PART_ITEMS | LV_STATE_PRESSED);
 353              		.loc 1 294 13 view .LVU78
 354 01f4 4FF4A022 		mov	r2, #327680
 355 01f8 05F13401 		add	r1, r5, #52
 356 01fc 2046     		mov	r0, r4
 357 01fe FFF7FEFF 		bl	lv_obj_add_style
 358              	.LVL50:
 295:Drivers/lvgl/src/themes/mono/lv_theme_mono.c ****             lv_obj_add_style(obj, &theme->styles.disabled, LV_PART_ITEMS | LV_STATE_DISABLED);
 359              		.loc 1 295 13 view .LVU79
 360 0202 574A     		ldr	r2, .L41+28
 361 0204 05F14C01 		add	r1, r5, #76
 362 0208 2046     		mov	r0, r4
 363 020a FFF7FEFF 		bl	lv_obj_add_style
 364              	.LVL51:
 296:Drivers/lvgl/src/themes/mono/lv_theme_mono.c ****             lv_obj_add_style(obj, &theme->styles.underline, LV_PART_ITEMS | LV_STATE_FOCUS_KEY);
 365              		.loc 1 296 13 view .LVU80
 366 020e 564A     		ldr	r2, .L41+36
 367 0210 05F16401 		add	r1, r5, #100
 368 0214 2046     		mov	r0, r4
 369 0216 FFF7FEFF 		bl	lv_obj_add_style
 370              	.LVL52:
 297:Drivers/lvgl/src/themes/mono/lv_theme_mono.c ****             lv_obj_add_style(obj, &theme->styles.large_border, LV_PART_ITEMS | LV_STATE_FOCUS_KEY);
 371              		.loc 1 297 13 view .LVU81
 372 021a 544E     		ldr	r6, .L41+40
 373              	.LVL53:
 297:Drivers/lvgl/src/themes/mono/lv_theme_mono.c ****             lv_obj_add_style(obj, &theme->styles.large_border, LV_PART_ITEMS | LV_STATE_FOCUS_KEY);
 374              		.loc 1 297 13 is_stmt 0 view .LVU82
 375 021c 3246     		mov	r2, r6
 376 021e 05F1D001 		add	r1, r5, #208
 377 0222 2046     		mov	r0, r4
 378 0224 FFF7FEFF 		bl	lv_obj_add_style
 379              	.LVL54:
 298:Drivers/lvgl/src/themes/mono/lv_theme_mono.c ****             return;
 380              		.loc 1 298 13 is_stmt 1 view .LVU83
 381 0228 3246     		mov	r2, r6
 382 022a 05F1B801 		add	r1, r5, #184
 383 022e 2046     		mov	r0, r4
 384 0230 FFF7FEFF 		bl	lv_obj_add_style
 385              	.LVL55:
 299:Drivers/lvgl/src/themes/mono/lv_theme_mono.c ****         }
 386              		.loc 1 299 13 view .LVU84
 387 0234 FAE6     		b	.L1
ARM GAS  /tmp/ccJxyNGA.s 			page 18


 388              	.LVL56:
 389              	.L38:
 304:Drivers/lvgl/src/themes/mono/lv_theme_mono.c ****             lv_obj_add_style(obj, &theme->styles.card, LV_PART_ITEMS);
 390              		.loc 1 304 13 view .LVU85
 391 0236 0022     		movs	r2, #0
 392 0238 05F18801 		add	r1, r5, #136
 393 023c 2046     		mov	r0, r4
 394 023e FFF7FEFF 		bl	lv_obj_add_style
 395              	.LVL57:
 305:Drivers/lvgl/src/themes/mono/lv_theme_mono.c ****             lv_obj_add_style(obj, &theme->styles.pr, LV_PART_ITEMS | LV_STATE_PRESSED);
 396              		.loc 1 305 13 view .LVU86
 397 0242 4FF4A022 		mov	r2, #327680
 398 0246 05F13401 		add	r1, r5, #52
 399 024a 2046     		mov	r0, r4
 400 024c FFF7FEFF 		bl	lv_obj_add_style
 401              	.LVL58:
 306:Drivers/lvgl/src/themes/mono/lv_theme_mono.c ****             lv_obj_add_style(obj, &theme->styles.inv, LV_PART_ITEMS | LV_STATE_CHECKED);
 402              		.loc 1 306 13 view .LVU87
 403 0250 434A     		ldr	r2, .L41+28
 404 0252 05F14C01 		add	r1, r5, #76
 405 0256 2046     		mov	r0, r4
 406 0258 FFF7FEFF 		bl	lv_obj_add_style
 407              	.LVL59:
 307:Drivers/lvgl/src/themes/mono/lv_theme_mono.c ****             lv_obj_add_style(obj, &theme->styles.disabled, LV_PART_ITEMS | LV_STATE_DISABLED);
 408              		.loc 1 307 13 view .LVU88
 409 025c 414A     		ldr	r2, .L41+32
 410 025e 05F15801 		add	r1, r5, #88
 411 0262 2046     		mov	r0, r4
 412 0264 FFF7FEFF 		bl	lv_obj_add_style
 413              	.LVL60:
 308:Drivers/lvgl/src/themes/mono/lv_theme_mono.c ****             lv_obj_add_style(obj, &theme->styles.focus, LV_STATE_FOCUS_KEY);
 414              		.loc 1 308 13 view .LVU89
 415 0268 3F4A     		ldr	r2, .L41+36
 416 026a 05F16401 		add	r1, r5, #100
 417 026e 2046     		mov	r0, r4
 418 0270 FFF7FEFF 		bl	lv_obj_add_style
 419              	.LVL61:
 309:Drivers/lvgl/src/themes/mono/lv_theme_mono.c ****             lv_obj_add_style(obj, &theme->styles.underline, LV_PART_ITEMS | LV_STATE_FOCUS_KEY);
 420              		.loc 1 309 13 view .LVU90
 421 0274 0422     		movs	r2, #4
 422 0276 05F17001 		add	r1, r5, #112
 423 027a 2046     		mov	r0, r4
 424 027c FFF7FEFF 		bl	lv_obj_add_style
 425              	.LVL62:
 310:Drivers/lvgl/src/themes/mono/lv_theme_mono.c ****             lv_obj_add_style(obj, &theme->styles.large_border, LV_PART_ITEMS | LV_STATE_FOCUS_KEY);
 426              		.loc 1 310 13 view .LVU91
 427 0280 3A4E     		ldr	r6, .L41+40
 428              	.LVL63:
 310:Drivers/lvgl/src/themes/mono/lv_theme_mono.c ****             lv_obj_add_style(obj, &theme->styles.large_border, LV_PART_ITEMS | LV_STATE_FOCUS_KEY);
 429              		.loc 1 310 13 is_stmt 0 view .LVU92
 430 0282 3246     		mov	r2, r6
 431 0284 05F1D001 		add	r1, r5, #208
 432 0288 2046     		mov	r0, r4
 433 028a FFF7FEFF 		bl	lv_obj_add_style
 434              	.LVL64:
 311:Drivers/lvgl/src/themes/mono/lv_theme_mono.c ****             return;
 435              		.loc 1 311 13 is_stmt 1 view .LVU93
ARM GAS  /tmp/ccJxyNGA.s 			page 19


 436 028e 3246     		mov	r2, r6
 437 0290 05F1B801 		add	r1, r5, #184
 438 0294 2046     		mov	r0, r4
 439 0296 FFF7FEFF 		bl	lv_obj_add_style
 440              	.LVL65:
 312:Drivers/lvgl/src/themes/mono/lv_theme_mono.c ****         }
 441              		.loc 1 312 13 view .LVU94
 442 029a C7E6     		b	.L1
 443              	.LVL66:
 444              	.L9:
 327:Drivers/lvgl/src/themes/mono/lv_theme_mono.c ****         lv_obj_add_style(obj, &theme->styles.card, 0);
 445              		.loc 1 327 10 view .LVU95
 327:Drivers/lvgl/src/themes/mono/lv_theme_mono.c ****         lv_obj_add_style(obj, &theme->styles.card, 0);
 446              		.loc 1 327 13 is_stmt 0 view .LVU96
 447 029c 3449     		ldr	r1, .L41+44
 448 029e 2046     		mov	r0, r4
 449 02a0 FFF7FEFF 		bl	lv_obj_check_type
 450              	.LVL67:
 327:Drivers/lvgl/src/themes/mono/lv_theme_mono.c ****         lv_obj_add_style(obj, &theme->styles.card, 0);
 451              		.loc 1 327 12 discriminator 1 view .LVU97
 452 02a4 C8B1     		cbz	r0, .L12
 328:Drivers/lvgl/src/themes/mono/lv_theme_mono.c ****         lv_obj_add_style(obj, &theme->styles.pad_zero, 0);
 453              		.loc 1 328 9 is_stmt 1 view .LVU98
 454 02a6 0022     		movs	r2, #0
 455 02a8 05F13401 		add	r1, r5, #52
 456 02ac 2046     		mov	r0, r4
 457 02ae FFF7FEFF 		bl	lv_obj_add_style
 458              	.LVL68:
 329:Drivers/lvgl/src/themes/mono/lv_theme_mono.c ****         lv_obj_add_style(obj, &theme->styles.inv, LV_PART_INDICATOR);
 459              		.loc 1 329 9 view .LVU99
 460 02b2 0022     		movs	r2, #0
 461 02b4 05F19401 		add	r1, r5, #148
 462 02b8 2046     		mov	r0, r4
 463 02ba FFF7FEFF 		bl	lv_obj_add_style
 464              	.LVL69:
 330:Drivers/lvgl/src/themes/mono/lv_theme_mono.c ****         lv_obj_add_style(obj, &theme->styles.focus, LV_STATE_FOCUS_KEY);
 465              		.loc 1 330 9 view .LVU100
 466 02be 4FF40032 		mov	r2, #131072
 467 02c2 05F15801 		add	r1, r5, #88
 468 02c6 2046     		mov	r0, r4
 469 02c8 FFF7FEFF 		bl	lv_obj_add_style
 470              	.LVL70:
 331:Drivers/lvgl/src/themes/mono/lv_theme_mono.c ****     }
 471              		.loc 1 331 9 view .LVU101
 472 02cc 0422     		movs	r2, #4
 473 02ce 05F17001 		add	r1, r5, #112
 474 02d2 2046     		mov	r0, r4
 475 02d4 FFF7FEFF 		bl	lv_obj_add_style
 476              	.LVL71:
 477 02d8 A8E6     		b	.L1
 478              	.L12:
 336:Drivers/lvgl/src/themes/mono/lv_theme_mono.c ****         lv_obj_add_style(obj, &theme->styles.card, 0);
 479              		.loc 1 336 10 view .LVU102
 336:Drivers/lvgl/src/themes/mono/lv_theme_mono.c ****         lv_obj_add_style(obj, &theme->styles.card, 0);
 480              		.loc 1 336 13 is_stmt 0 view .LVU103
 481 02da 2649     		ldr	r1, .L41+48
 482 02dc 2046     		mov	r0, r4
ARM GAS  /tmp/ccJxyNGA.s 			page 20


 483 02de FFF7FEFF 		bl	lv_obj_check_type
 484              	.LVL72:
 336:Drivers/lvgl/src/themes/mono/lv_theme_mono.c ****         lv_obj_add_style(obj, &theme->styles.card, 0);
 485              		.loc 1 336 12 discriminator 1 view .LVU104
 486 02e2 0028     		cmp	r0, #0
 487 02e4 48D0     		beq	.L13
 337:Drivers/lvgl/src/themes/mono/lv_theme_mono.c ****         lv_obj_add_style(obj, &theme->styles.pad_zero, 0);
 488              		.loc 1 337 9 is_stmt 1 view .LVU105
 337:Drivers/lvgl/src/themes/mono/lv_theme_mono.c ****         lv_obj_add_style(obj, &theme->styles.pad_zero, 0);
 489              		.loc 1 337 31 is_stmt 0 view .LVU106
 490 02e6 05F13406 		add	r6, r5, #52
 491              	.LVL73:
 337:Drivers/lvgl/src/themes/mono/lv_theme_mono.c ****         lv_obj_add_style(obj, &theme->styles.pad_zero, 0);
 492              		.loc 1 337 9 view .LVU107
 493 02ea 0022     		movs	r2, #0
 494 02ec 3146     		mov	r1, r6
 495 02ee 2046     		mov	r0, r4
 496 02f0 FFF7FEFF 		bl	lv_obj_add_style
 497              	.LVL74:
 338:Drivers/lvgl/src/themes/mono/lv_theme_mono.c ****         lv_obj_add_style(obj, &theme->styles.inv, LV_PART_INDICATOR);
 498              		.loc 1 338 9 is_stmt 1 view .LVU108
 499 02f4 0022     		movs	r2, #0
 500 02f6 05F19401 		add	r1, r5, #148
 501 02fa 2046     		mov	r0, r4
 502 02fc FFF7FEFF 		bl	lv_obj_add_style
 503              	.LVL75:
 339:Drivers/lvgl/src/themes/mono/lv_theme_mono.c ****         lv_obj_add_style(obj, &theme->styles.card, LV_PART_KNOB);
 504              		.loc 1 339 9 view .LVU109
 505 0300 4FF40032 		mov	r2, #131072
 506 0304 05F15801 		add	r1, r5, #88
 507 0308 2046     		mov	r0, r4
 508 030a FFF7FEFF 		bl	lv_obj_add_style
 509              	.LVL76:
 340:Drivers/lvgl/src/themes/mono/lv_theme_mono.c ****         lv_obj_add_style(obj, &theme->styles.radius_circle, LV_PART_KNOB);
 510              		.loc 1 340 9 view .LVU110
 511 030e 4FF44032 		mov	r2, #196608
 512 0312 3146     		mov	r1, r6
 513 0314 2046     		mov	r0, r4
 514 0316 FFF7FEFF 		bl	lv_obj_add_style
 515              	.LVL77:
 341:Drivers/lvgl/src/themes/mono/lv_theme_mono.c ****         lv_obj_add_style(obj, &theme->styles.focus, LV_STATE_FOCUS_KEY);
 516              		.loc 1 341 9 view .LVU111
 517 031a 4FF44032 		mov	r2, #196608
 518 031e 05F1AC01 		add	r1, r5, #172
 519 0322 2046     		mov	r0, r4
 520 0324 FFF7FEFF 		bl	lv_obj_add_style
 521              	.LVL78:
 342:Drivers/lvgl/src/themes/mono/lv_theme_mono.c ****         lv_obj_add_style(obj, &theme->styles.edit, LV_STATE_EDITED);
 522              		.loc 1 342 9 view .LVU112
 523 0328 0422     		movs	r2, #4
 524 032a 05F17001 		add	r1, r5, #112
 525 032e 2046     		mov	r0, r4
 526 0330 FFF7FEFF 		bl	lv_obj_add_style
 527              	.LVL79:
 343:Drivers/lvgl/src/themes/mono/lv_theme_mono.c ****     }
 528              		.loc 1 343 9 view .LVU113
 529 0334 0822     		movs	r2, #8
ARM GAS  /tmp/ccJxyNGA.s 			page 21


 530 0336 05F17C01 		add	r1, r5, #124
 531 033a 2046     		mov	r0, r4
 532 033c FFF7FEFF 		bl	lv_obj_add_style
 533              	.LVL80:
 534 0340 74E6     		b	.L1
 535              	.L42:
 536 0342 00BF     		.align	2
 537              	.L41:
 538 0344 00000000 		.word	lv_global
 539 0348 00000000 		.word	lv_obj_class
 540 034c 00000000 		.word	lv_tabview_class
 541 0350 00000000 		.word	lv_win_class
 542 0354 00000000 		.word	lv_button_class
 543 0358 00000000 		.word	lv_buttonmatrix_class
 544 035c 00000000 		.word	lv_msgbox_class
 545 0360 20000500 		.word	327712
 546 0364 01000500 		.word	327681
 547 0368 80000500 		.word	327808
 548 036c 04000500 		.word	327684
 549 0370 00000000 		.word	lv_bar_class
 550 0374 00000000 		.word	lv_slider_class
 551              	.LVL81:
 552              	.L13:
 348:Drivers/lvgl/src/themes/mono/lv_theme_mono.c ****         lv_obj_add_style(obj, &theme->styles.scrollbar, LV_PART_SCROLLBAR);
 553              		.loc 1 348 10 view .LVU114
 348:Drivers/lvgl/src/themes/mono/lv_theme_mono.c ****         lv_obj_add_style(obj, &theme->styles.scrollbar, LV_PART_SCROLLBAR);
 554              		.loc 1 348 13 is_stmt 0 view .LVU115
 555 0378 D249     		ldr	r1, .L43
 556 037a 2046     		mov	r0, r4
 557 037c FFF7FEFF 		bl	lv_obj_check_type
 558              	.LVL82:
 348:Drivers/lvgl/src/themes/mono/lv_theme_mono.c ****         lv_obj_add_style(obj, &theme->styles.scrollbar, LV_PART_SCROLLBAR);
 559              		.loc 1 348 12 discriminator 1 view .LVU116
 560 0380 68B3     		cbz	r0, .L14
 349:Drivers/lvgl/src/themes/mono/lv_theme_mono.c ****         lv_obj_add_style(obj, &theme->styles.card, LV_PART_ITEMS);
 561              		.loc 1 349 9 is_stmt 1 view .LVU117
 562 0382 4FF48032 		mov	r2, #65536
 563 0386 05F14001 		add	r1, r5, #64
 564 038a 2046     		mov	r0, r4
 565 038c FFF7FEFF 		bl	lv_obj_add_style
 566              	.LVL83:
 350:Drivers/lvgl/src/themes/mono/lv_theme_mono.c ****         lv_obj_add_style(obj, &theme->styles.no_radius, LV_PART_ITEMS);
 567              		.loc 1 350 9 view .LVU118
 568 0390 4FF4A022 		mov	r2, #327680
 569 0394 05F13401 		add	r1, r5, #52
 570 0398 2046     		mov	r0, r4
 571 039a FFF7FEFF 		bl	lv_obj_add_style
 572              	.LVL84:
 351:Drivers/lvgl/src/themes/mono/lv_theme_mono.c ****         lv_obj_add_style(obj, &theme->styles.pr, LV_PART_ITEMS | LV_STATE_PRESSED);
 573              		.loc 1 351 9 view .LVU119
 574 039e 4FF4A022 		mov	r2, #327680
 575 03a2 05F1A001 		add	r1, r5, #160
 576 03a6 2046     		mov	r0, r4
 577 03a8 FFF7FEFF 		bl	lv_obj_add_style
 578              	.LVL85:
 352:Drivers/lvgl/src/themes/mono/lv_theme_mono.c ****         lv_obj_add_style(obj, &theme->styles.focus, LV_STATE_FOCUS_KEY);
 579              		.loc 1 352 9 view .LVU120
ARM GAS  /tmp/ccJxyNGA.s 			page 22


 580 03ac C64A     		ldr	r2, .L43+4
 581 03ae 05F14C01 		add	r1, r5, #76
 582 03b2 2046     		mov	r0, r4
 583 03b4 FFF7FEFF 		bl	lv_obj_add_style
 584              	.LVL86:
 353:Drivers/lvgl/src/themes/mono/lv_theme_mono.c ****         lv_obj_add_style(obj, &theme->styles.inv, LV_PART_ITEMS | LV_STATE_FOCUS_KEY);
 585              		.loc 1 353 9 view .LVU121
 586 03b8 0422     		movs	r2, #4
 587 03ba 05F17001 		add	r1, r5, #112
 588 03be 2046     		mov	r0, r4
 589 03c0 FFF7FEFF 		bl	lv_obj_add_style
 590              	.LVL87:
 354:Drivers/lvgl/src/themes/mono/lv_theme_mono.c ****         lv_obj_add_style(obj, &theme->styles.edit, LV_STATE_EDITED);
 591              		.loc 1 354 9 view .LVU122
 592 03c4 C14A     		ldr	r2, .L43+8
 593 03c6 05F15801 		add	r1, r5, #88
 594 03ca 2046     		mov	r0, r4
 595 03cc FFF7FEFF 		bl	lv_obj_add_style
 596              	.LVL88:
 355:Drivers/lvgl/src/themes/mono/lv_theme_mono.c ****     }
 597              		.loc 1 355 9 view .LVU123
 598 03d0 0822     		movs	r2, #8
 599 03d2 05F17C01 		add	r1, r5, #124
 600 03d6 2046     		mov	r0, r4
 601 03d8 FFF7FEFF 		bl	lv_obj_add_style
 602              	.LVL89:
 603 03dc 26E6     		b	.L1
 604              	.L14:
 360:Drivers/lvgl/src/themes/mono/lv_theme_mono.c ****         lv_obj_add_style(obj, &theme->styles.pad_gap, LV_PART_MAIN);
 605              		.loc 1 360 10 view .LVU124
 360:Drivers/lvgl/src/themes/mono/lv_theme_mono.c ****         lv_obj_add_style(obj, &theme->styles.pad_gap, LV_PART_MAIN);
 606              		.loc 1 360 13 is_stmt 0 view .LVU125
 607 03de BC49     		ldr	r1, .L43+12
 608 03e0 2046     		mov	r0, r4
 609 03e2 FFF7FEFF 		bl	lv_obj_check_type
 610              	.LVL90:
 360:Drivers/lvgl/src/themes/mono/lv_theme_mono.c ****         lv_obj_add_style(obj, &theme->styles.pad_gap, LV_PART_MAIN);
 611              		.loc 1 360 12 discriminator 1 view .LVU126
 612 03e6 58B3     		cbz	r0, .L15
 361:Drivers/lvgl/src/themes/mono/lv_theme_mono.c ****         lv_obj_add_style(obj, &theme->styles.card, LV_PART_INDICATOR);
 613              		.loc 1 361 9 is_stmt 1 view .LVU127
 614 03e8 0022     		movs	r2, #0
 615 03ea 05F18801 		add	r1, r5, #136
 616 03ee 2046     		mov	r0, r4
 617 03f0 FFF7FEFF 		bl	lv_obj_add_style
 618              	.LVL91:
 362:Drivers/lvgl/src/themes/mono/lv_theme_mono.c ****         lv_obj_add_style(obj, &theme->styles.disabled, LV_PART_INDICATOR | LV_STATE_DISABLED);
 619              		.loc 1 362 9 view .LVU128
 620 03f4 4FF40032 		mov	r2, #131072
 621 03f8 05F13401 		add	r1, r5, #52
 622 03fc 2046     		mov	r0, r4
 623 03fe FFF7FEFF 		bl	lv_obj_add_style
 624              	.LVL92:
 363:Drivers/lvgl/src/themes/mono/lv_theme_mono.c ****         lv_obj_add_style(obj, &theme->styles.inv, LV_PART_INDICATOR | LV_STATE_CHECKED);
 625              		.loc 1 363 9 view .LVU129
 626 0402 B44A     		ldr	r2, .L43+16
 627 0404 05F16401 		add	r1, r5, #100
ARM GAS  /tmp/ccJxyNGA.s 			page 23


 628 0408 2046     		mov	r0, r4
 629 040a FFF7FEFF 		bl	lv_obj_add_style
 630              	.LVL93:
 364:Drivers/lvgl/src/themes/mono/lv_theme_mono.c ****         lv_obj_add_style(obj, &theme->styles.pr, LV_PART_INDICATOR | LV_STATE_PRESSED);
 631              		.loc 1 364 9 view .LVU130
 632 040e B24A     		ldr	r2, .L43+20
 633 0410 05F15801 		add	r1, r5, #88
 634 0414 2046     		mov	r0, r4
 635 0416 FFF7FEFF 		bl	lv_obj_add_style
 636              	.LVL94:
 365:Drivers/lvgl/src/themes/mono/lv_theme_mono.c ****         lv_obj_add_style(obj, &theme->styles.focus, LV_STATE_FOCUS_KEY);
 637              		.loc 1 365 9 view .LVU131
 638 041a B04A     		ldr	r2, .L43+24
 639 041c 05F14C01 		add	r1, r5, #76
 640 0420 2046     		mov	r0, r4
 641 0422 FFF7FEFF 		bl	lv_obj_add_style
 642              	.LVL95:
 366:Drivers/lvgl/src/themes/mono/lv_theme_mono.c ****         lv_obj_add_style(obj, &theme->styles.edit, LV_STATE_EDITED);
 643              		.loc 1 366 9 view .LVU132
 644 0426 0422     		movs	r2, #4
 645 0428 05F17001 		add	r1, r5, #112
 646 042c 2046     		mov	r0, r4
 647 042e FFF7FEFF 		bl	lv_obj_add_style
 648              	.LVL96:
 367:Drivers/lvgl/src/themes/mono/lv_theme_mono.c ****     }
 649              		.loc 1 367 9 view .LVU133
 650 0432 0822     		movs	r2, #8
 651 0434 05F17C01 		add	r1, r5, #124
 652 0438 2046     		mov	r0, r4
 653 043a FFF7FEFF 		bl	lv_obj_add_style
 654              	.LVL97:
 655 043e F5E5     		b	.L1
 656              	.L15:
 372:Drivers/lvgl/src/themes/mono/lv_theme_mono.c ****         lv_obj_add_style(obj, &theme->styles.card, 0);
 657              		.loc 1 372 10 view .LVU134
 372:Drivers/lvgl/src/themes/mono/lv_theme_mono.c ****         lv_obj_add_style(obj, &theme->styles.card, 0);
 658              		.loc 1 372 13 is_stmt 0 view .LVU135
 659 0440 A749     		ldr	r1, .L43+28
 660 0442 2046     		mov	r0, r4
 661 0444 FFF7FEFF 		bl	lv_obj_check_type
 662              	.LVL98:
 372:Drivers/lvgl/src/themes/mono/lv_theme_mono.c ****         lv_obj_add_style(obj, &theme->styles.card, 0);
 663              		.loc 1 372 12 discriminator 1 view .LVU136
 664 0448 0028     		cmp	r0, #0
 665 044a 40D0     		beq	.L16
 373:Drivers/lvgl/src/themes/mono/lv_theme_mono.c ****         lv_obj_add_style(obj, &theme->styles.radius_circle, 0);
 666              		.loc 1 373 9 is_stmt 1 view .LVU137
 373:Drivers/lvgl/src/themes/mono/lv_theme_mono.c ****         lv_obj_add_style(obj, &theme->styles.radius_circle, 0);
 667              		.loc 1 373 31 is_stmt 0 view .LVU138
 668 044c 05F13408 		add	r8, r5, #52
 373:Drivers/lvgl/src/themes/mono/lv_theme_mono.c ****         lv_obj_add_style(obj, &theme->styles.radius_circle, 0);
 669              		.loc 1 373 9 view .LVU139
 670 0450 0022     		movs	r2, #0
 671 0452 4146     		mov	r1, r8
 672 0454 2046     		mov	r0, r4
 673 0456 FFF7FEFF 		bl	lv_obj_add_style
 674              	.LVL99:
ARM GAS  /tmp/ccJxyNGA.s 			page 24


 374:Drivers/lvgl/src/themes/mono/lv_theme_mono.c ****         lv_obj_add_style(obj, &theme->styles.pad_zero, 0);
 675              		.loc 1 374 9 is_stmt 1 view .LVU140
 374:Drivers/lvgl/src/themes/mono/lv_theme_mono.c ****         lv_obj_add_style(obj, &theme->styles.pad_zero, 0);
 676              		.loc 1 374 31 is_stmt 0 view .LVU141
 677 045a 05F1AC06 		add	r6, r5, #172
 678              	.LVL100:
 374:Drivers/lvgl/src/themes/mono/lv_theme_mono.c ****         lv_obj_add_style(obj, &theme->styles.pad_zero, 0);
 679              		.loc 1 374 9 view .LVU142
 680 045e 0022     		movs	r2, #0
 681 0460 3146     		mov	r1, r6
 682 0462 2046     		mov	r0, r4
 683 0464 FFF7FEFF 		bl	lv_obj_add_style
 684              	.LVL101:
 375:Drivers/lvgl/src/themes/mono/lv_theme_mono.c ****         lv_obj_add_style(obj, &theme->styles.inv, LV_PART_INDICATOR);
 685              		.loc 1 375 9 is_stmt 1 view .LVU143
 375:Drivers/lvgl/src/themes/mono/lv_theme_mono.c ****         lv_obj_add_style(obj, &theme->styles.inv, LV_PART_INDICATOR);
 686              		.loc 1 375 31 is_stmt 0 view .LVU144
 687 0468 05F19407 		add	r7, r5, #148
 375:Drivers/lvgl/src/themes/mono/lv_theme_mono.c ****         lv_obj_add_style(obj, &theme->styles.inv, LV_PART_INDICATOR);
 688              		.loc 1 375 9 view .LVU145
 689 046c 0022     		movs	r2, #0
 690 046e 3946     		mov	r1, r7
 691 0470 2046     		mov	r0, r4
 692 0472 FFF7FEFF 		bl	lv_obj_add_style
 693              	.LVL102:
 376:Drivers/lvgl/src/themes/mono/lv_theme_mono.c ****         lv_obj_add_style(obj, &theme->styles.radius_circle, LV_PART_INDICATOR);
 694              		.loc 1 376 9 is_stmt 1 view .LVU146
 695 0476 4FF40032 		mov	r2, #131072
 696 047a 05F15801 		add	r1, r5, #88
 697 047e 2046     		mov	r0, r4
 698 0480 FFF7FEFF 		bl	lv_obj_add_style
 699              	.LVL103:
 377:Drivers/lvgl/src/themes/mono/lv_theme_mono.c ****         lv_obj_add_style(obj, &theme->styles.card, LV_PART_KNOB);
 700              		.loc 1 377 9 view .LVU147
 701 0484 4FF40032 		mov	r2, #131072
 702 0488 3146     		mov	r1, r6
 703 048a 2046     		mov	r0, r4
 704 048c FFF7FEFF 		bl	lv_obj_add_style
 705              	.LVL104:
 378:Drivers/lvgl/src/themes/mono/lv_theme_mono.c ****         lv_obj_add_style(obj, &theme->styles.radius_circle, LV_PART_KNOB);
 706              		.loc 1 378 9 view .LVU148
 707 0490 4FF44032 		mov	r2, #196608
 708 0494 4146     		mov	r1, r8
 709 0496 2046     		mov	r0, r4
 710 0498 FFF7FEFF 		bl	lv_obj_add_style
 711              	.LVL105:
 379:Drivers/lvgl/src/themes/mono/lv_theme_mono.c ****         lv_obj_add_style(obj, &theme->styles.pad_zero, LV_PART_KNOB);
 712              		.loc 1 379 9 view .LVU149
 713 049c 4FF44032 		mov	r2, #196608
 714 04a0 3146     		mov	r1, r6
 715 04a2 2046     		mov	r0, r4
 716 04a4 FFF7FEFF 		bl	lv_obj_add_style
 717              	.LVL106:
 380:Drivers/lvgl/src/themes/mono/lv_theme_mono.c ****         lv_obj_add_style(obj, &theme->styles.focus, LV_STATE_FOCUS_KEY);
 718              		.loc 1 380 9 view .LVU150
 719 04a8 4FF44032 		mov	r2, #196608
 720 04ac 3946     		mov	r1, r7
ARM GAS  /tmp/ccJxyNGA.s 			page 25


 721 04ae 2046     		mov	r0, r4
 722 04b0 FFF7FEFF 		bl	lv_obj_add_style
 723              	.LVL107:
 381:Drivers/lvgl/src/themes/mono/lv_theme_mono.c ****         lv_obj_add_style(obj, &theme->styles.edit, LV_STATE_EDITED);
 724              		.loc 1 381 9 view .LVU151
 725 04b4 0422     		movs	r2, #4
 726 04b6 05F17001 		add	r1, r5, #112
 727 04ba 2046     		mov	r0, r4
 728 04bc FFF7FEFF 		bl	lv_obj_add_style
 729              	.LVL108:
 382:Drivers/lvgl/src/themes/mono/lv_theme_mono.c ****     }
 730              		.loc 1 382 9 view .LVU152
 731 04c0 0822     		movs	r2, #8
 732 04c2 05F17C01 		add	r1, r5, #124
 733 04c6 2046     		mov	r0, r4
 734 04c8 FFF7FEFF 		bl	lv_obj_add_style
 735              	.LVL109:
 736 04cc AEE5     		b	.L1
 737              	.LVL110:
 738              	.L16:
 387:Drivers/lvgl/src/themes/mono/lv_theme_mono.c ****         lv_obj_add_style(obj, &theme->styles.card, 0);
 739              		.loc 1 387 10 view .LVU153
 387:Drivers/lvgl/src/themes/mono/lv_theme_mono.c ****         lv_obj_add_style(obj, &theme->styles.card, 0);
 740              		.loc 1 387 13 is_stmt 0 view .LVU154
 741 04ce 8549     		ldr	r1, .L43+32
 742 04d0 2046     		mov	r0, r4
 743 04d2 FFF7FEFF 		bl	lv_obj_check_type
 744              	.LVL111:
 387:Drivers/lvgl/src/themes/mono/lv_theme_mono.c ****         lv_obj_add_style(obj, &theme->styles.card, 0);
 745              		.loc 1 387 12 discriminator 1 view .LVU155
 746 04d6 38B3     		cbz	r0, .L17
 388:Drivers/lvgl/src/themes/mono/lv_theme_mono.c ****         lv_obj_add_style(obj, &theme->styles.scrollbar, LV_PART_SCROLLBAR);
 747              		.loc 1 388 9 is_stmt 1 view .LVU156
 388:Drivers/lvgl/src/themes/mono/lv_theme_mono.c ****         lv_obj_add_style(obj, &theme->styles.scrollbar, LV_PART_SCROLLBAR);
 748              		.loc 1 388 31 is_stmt 0 view .LVU157
 749 04d8 05F13406 		add	r6, r5, #52
 750              	.LVL112:
 388:Drivers/lvgl/src/themes/mono/lv_theme_mono.c ****         lv_obj_add_style(obj, &theme->styles.scrollbar, LV_PART_SCROLLBAR);
 751              		.loc 1 388 9 view .LVU158
 752 04dc 0022     		movs	r2, #0
 753 04de 3146     		mov	r1, r6
 754 04e0 2046     		mov	r0, r4
 755 04e2 FFF7FEFF 		bl	lv_obj_add_style
 756              	.LVL113:
 389:Drivers/lvgl/src/themes/mono/lv_theme_mono.c ****         lv_obj_add_style(obj, &theme->styles.chart_indic, LV_PART_INDICATOR);
 757              		.loc 1 389 9 is_stmt 1 view .LVU159
 758 04e6 4FF48032 		mov	r2, #65536
 759 04ea 05F14001 		add	r1, r5, #64
 760 04ee 2046     		mov	r0, r4
 761 04f0 FFF7FEFF 		bl	lv_obj_add_style
 762              	.LVL114:
 390:Drivers/lvgl/src/themes/mono/lv_theme_mono.c ****         lv_obj_add_style(obj, &theme->styles.card, LV_PART_ITEMS);
 763              		.loc 1 390 9 view .LVU160
 764 04f4 4FF40032 		mov	r2, #131072
 765 04f8 05F1E801 		add	r1, r5, #232
 766 04fc 2046     		mov	r0, r4
 767 04fe FFF7FEFF 		bl	lv_obj_add_style
ARM GAS  /tmp/ccJxyNGA.s 			page 26


 768              	.LVL115:
 391:Drivers/lvgl/src/themes/mono/lv_theme_mono.c ****         lv_obj_add_style(obj, &theme->styles.card, LV_PART_CURSOR);
 769              		.loc 1 391 9 view .LVU161
 770 0502 4FF4A022 		mov	r2, #327680
 771 0506 3146     		mov	r1, r6
 772 0508 2046     		mov	r0, r4
 773 050a FFF7FEFF 		bl	lv_obj_add_style
 774              	.LVL116:
 392:Drivers/lvgl/src/themes/mono/lv_theme_mono.c ****         lv_obj_add_style(obj, &theme->styles.focus, LV_STATE_FOCUS_KEY);
 775              		.loc 1 392 9 view .LVU162
 776 050e 4FF4C022 		mov	r2, #393216
 777 0512 3146     		mov	r1, r6
 778 0514 2046     		mov	r0, r4
 779 0516 FFF7FEFF 		bl	lv_obj_add_style
 780              	.LVL117:
 393:Drivers/lvgl/src/themes/mono/lv_theme_mono.c ****     }
 781              		.loc 1 393 9 view .LVU163
 782 051a 0422     		movs	r2, #4
 783 051c 05F17001 		add	r1, r5, #112
 784 0520 2046     		mov	r0, r4
 785 0522 FFF7FEFF 		bl	lv_obj_add_style
 786              	.LVL118:
 787 0526 81E5     		b	.L1
 788              	.LVL119:
 789              	.L17:
 398:Drivers/lvgl/src/themes/mono/lv_theme_mono.c ****         lv_obj_add_style(obj, &theme->styles.card, 0);
 790              		.loc 1 398 10 view .LVU164
 398:Drivers/lvgl/src/themes/mono/lv_theme_mono.c ****         lv_obj_add_style(obj, &theme->styles.card, 0);
 791              		.loc 1 398 13 is_stmt 0 view .LVU165
 792 0528 6F49     		ldr	r1, .L43+36
 793 052a 2046     		mov	r0, r4
 794 052c FFF7FEFF 		bl	lv_obj_check_type
 795              	.LVL120:
 398:Drivers/lvgl/src/themes/mono/lv_theme_mono.c ****         lv_obj_add_style(obj, &theme->styles.card, 0);
 796              		.loc 1 398 12 discriminator 1 view .LVU166
 797 0530 F8B1     		cbz	r0, .L18
 399:Drivers/lvgl/src/themes/mono/lv_theme_mono.c ****         lv_obj_add_style(obj, &theme->styles.large_line_space, 0);
 798              		.loc 1 399 9 is_stmt 1 view .LVU167
 799 0532 0022     		movs	r2, #0
 800 0534 05F13401 		add	r1, r5, #52
 801 0538 2046     		mov	r0, r4
 802 053a FFF7FEFF 		bl	lv_obj_add_style
 803              	.LVL121:
 400:Drivers/lvgl/src/themes/mono/lv_theme_mono.c ****         lv_obj_add_style(obj, &theme->styles.inv, LV_PART_SELECTED);
 804              		.loc 1 400 9 view .LVU168
 805 053e 0022     		movs	r2, #0
 806 0540 05F1C401 		add	r1, r5, #196
 807 0544 2046     		mov	r0, r4
 808 0546 FFF7FEFF 		bl	lv_obj_add_style
 809              	.LVL122:
 401:Drivers/lvgl/src/themes/mono/lv_theme_mono.c ****         lv_obj_add_style(obj, &theme->styles.focus, LV_STATE_FOCUS_KEY);
 810              		.loc 1 401 9 view .LVU169
 811 054a 4FF48022 		mov	r2, #262144
 812 054e 05F15801 		add	r1, r5, #88
 813 0552 2046     		mov	r0, r4
 814 0554 FFF7FEFF 		bl	lv_obj_add_style
 815              	.LVL123:
ARM GAS  /tmp/ccJxyNGA.s 			page 27


 402:Drivers/lvgl/src/themes/mono/lv_theme_mono.c ****         lv_obj_add_style(obj, &theme->styles.edit, LV_STATE_EDITED);
 816              		.loc 1 402 9 view .LVU170
 817 0558 0422     		movs	r2, #4
 818 055a 05F17001 		add	r1, r5, #112
 819 055e 2046     		mov	r0, r4
 820 0560 FFF7FEFF 		bl	lv_obj_add_style
 821              	.LVL124:
 403:Drivers/lvgl/src/themes/mono/lv_theme_mono.c ****     }
 822              		.loc 1 403 9 view .LVU171
 823 0564 0822     		movs	r2, #8
 824 0566 05F17C01 		add	r1, r5, #124
 825 056a 2046     		mov	r0, r4
 826 056c FFF7FEFF 		bl	lv_obj_add_style
 827              	.LVL125:
 828 0570 5CE5     		b	.L1
 829              	.L18:
 408:Drivers/lvgl/src/themes/mono/lv_theme_mono.c ****         lv_obj_add_style(obj, &theme->styles.card, 0);
 830              		.loc 1 408 10 view .LVU172
 408:Drivers/lvgl/src/themes/mono/lv_theme_mono.c ****         lv_obj_add_style(obj, &theme->styles.card, 0);
 831              		.loc 1 408 13 is_stmt 0 view .LVU173
 832 0572 5E49     		ldr	r1, .L43+40
 833 0574 2046     		mov	r0, r4
 834 0576 FFF7FEFF 		bl	lv_obj_check_type
 835              	.LVL126:
 408:Drivers/lvgl/src/themes/mono/lv_theme_mono.c ****         lv_obj_add_style(obj, &theme->styles.card, 0);
 836              		.loc 1 408 12 discriminator 1 view .LVU174
 837 057a C0B1     		cbz	r0, .L19
 409:Drivers/lvgl/src/themes/mono/lv_theme_mono.c ****         lv_obj_add_style(obj, &theme->styles.pr, LV_STATE_PRESSED);
 838              		.loc 1 409 9 is_stmt 1 view .LVU175
 839 057c 0022     		movs	r2, #0
 840 057e 05F13401 		add	r1, r5, #52
 841 0582 2046     		mov	r0, r4
 842 0584 FFF7FEFF 		bl	lv_obj_add_style
 843              	.LVL127:
 410:Drivers/lvgl/src/themes/mono/lv_theme_mono.c ****         lv_obj_add_style(obj, &theme->styles.focus, LV_STATE_FOCUS_KEY);
 844              		.loc 1 410 9 view .LVU176
 845 0588 2022     		movs	r2, #32
 846 058a 05F14C01 		add	r1, r5, #76
 847 058e 2046     		mov	r0, r4
 848 0590 FFF7FEFF 		bl	lv_obj_add_style
 849              	.LVL128:
 411:Drivers/lvgl/src/themes/mono/lv_theme_mono.c ****         lv_obj_add_style(obj, &theme->styles.edit, LV_STATE_EDITED);
 850              		.loc 1 411 9 view .LVU177
 851 0594 0422     		movs	r2, #4
 852 0596 05F17001 		add	r1, r5, #112
 853 059a 2046     		mov	r0, r4
 854 059c FFF7FEFF 		bl	lv_obj_add_style
 855              	.LVL129:
 412:Drivers/lvgl/src/themes/mono/lv_theme_mono.c ****     }
 856              		.loc 1 412 9 view .LVU178
 857 05a0 0822     		movs	r2, #8
 858 05a2 05F17C01 		add	r1, r5, #124
 859 05a6 2046     		mov	r0, r4
 860 05a8 FFF7FEFF 		bl	lv_obj_add_style
 861              	.LVL130:
 862 05ac 3EE5     		b	.L1
 863              	.L19:
ARM GAS  /tmp/ccJxyNGA.s 			page 28


 414:Drivers/lvgl/src/themes/mono/lv_theme_mono.c ****         lv_obj_add_style(obj, &theme->styles.card, 0);
 864              		.loc 1 414 10 view .LVU179
 414:Drivers/lvgl/src/themes/mono/lv_theme_mono.c ****         lv_obj_add_style(obj, &theme->styles.card, 0);
 865              		.loc 1 414 13 is_stmt 0 view .LVU180
 866 05ae 5049     		ldr	r1, .L43+44
 867 05b0 2046     		mov	r0, r4
 868 05b2 FFF7FEFF 		bl	lv_obj_check_type
 869              	.LVL131:
 414:Drivers/lvgl/src/themes/mono/lv_theme_mono.c ****         lv_obj_add_style(obj, &theme->styles.card, 0);
 870              		.loc 1 414 12 discriminator 1 view .LVU181
 871 05b6 58B3     		cbz	r0, .L20
 415:Drivers/lvgl/src/themes/mono/lv_theme_mono.c ****         lv_obj_add_style(obj, &theme->styles.large_line_space, 0);
 872              		.loc 1 415 9 is_stmt 1 view .LVU182
 873 05b8 0022     		movs	r2, #0
 874 05ba 05F13401 		add	r1, r5, #52
 875 05be 2046     		mov	r0, r4
 876 05c0 FFF7FEFF 		bl	lv_obj_add_style
 877              	.LVL132:
 416:Drivers/lvgl/src/themes/mono/lv_theme_mono.c ****         lv_obj_add_style(obj, &theme->styles.scrollbar, LV_PART_SCROLLBAR);
 878              		.loc 1 416 9 view .LVU183
 879 05c4 0022     		movs	r2, #0
 880 05c6 05F1C401 		add	r1, r5, #196
 881 05ca 2046     		mov	r0, r4
 882 05cc FFF7FEFF 		bl	lv_obj_add_style
 883              	.LVL133:
 417:Drivers/lvgl/src/themes/mono/lv_theme_mono.c ****         lv_obj_add_style(obj, &theme->styles.inv, LV_PART_SELECTED | LV_STATE_CHECKED);
 884              		.loc 1 417 9 view .LVU184
 885 05d0 4FF48032 		mov	r2, #65536
 886 05d4 05F14001 		add	r1, r5, #64
 887 05d8 2046     		mov	r0, r4
 888 05da FFF7FEFF 		bl	lv_obj_add_style
 889              	.LVL134:
 418:Drivers/lvgl/src/themes/mono/lv_theme_mono.c ****         lv_obj_add_style(obj, &theme->styles.pr, LV_PART_SELECTED | LV_STATE_PRESSED);
 890              		.loc 1 418 9 view .LVU185
 891 05de 454A     		ldr	r2, .L43+48
 892 05e0 05F15801 		add	r1, r5, #88
 893 05e4 2046     		mov	r0, r4
 894 05e6 FFF7FEFF 		bl	lv_obj_add_style
 895              	.LVL135:
 419:Drivers/lvgl/src/themes/mono/lv_theme_mono.c ****         lv_obj_add_style(obj, &theme->styles.focus, LV_STATE_FOCUS_KEY);
 896              		.loc 1 419 9 view .LVU186
 897 05ea 434A     		ldr	r2, .L43+52
 898 05ec 05F14C01 		add	r1, r5, #76
 899 05f0 2046     		mov	r0, r4
 900 05f2 FFF7FEFF 		bl	lv_obj_add_style
 901              	.LVL136:
 420:Drivers/lvgl/src/themes/mono/lv_theme_mono.c ****         lv_obj_add_style(obj, &theme->styles.edit, LV_STATE_EDITED);
 902              		.loc 1 420 9 view .LVU187
 903 05f6 0422     		movs	r2, #4
 904 05f8 05F17001 		add	r1, r5, #112
 905 05fc 2046     		mov	r0, r4
 906 05fe FFF7FEFF 		bl	lv_obj_add_style
 907              	.LVL137:
 421:Drivers/lvgl/src/themes/mono/lv_theme_mono.c ****     }
 908              		.loc 1 421 9 view .LVU188
 909 0602 0822     		movs	r2, #8
 910 0604 05F17C01 		add	r1, r5, #124
ARM GAS  /tmp/ccJxyNGA.s 			page 29


 911 0608 2046     		mov	r0, r4
 912 060a FFF7FEFF 		bl	lv_obj_add_style
 913              	.LVL138:
 914 060e 0DE5     		b	.L1
 915              	.L20:
 426:Drivers/lvgl/src/themes/mono/lv_theme_mono.c ****         lv_obj_add_style(obj, &theme->styles.card, 0);
 916              		.loc 1 426 10 view .LVU189
 426:Drivers/lvgl/src/themes/mono/lv_theme_mono.c ****         lv_obj_add_style(obj, &theme->styles.card, 0);
 917              		.loc 1 426 13 is_stmt 0 view .LVU190
 918 0610 3A49     		ldr	r1, .L43+56
 919 0612 2046     		mov	r0, r4
 920 0614 FFF7FEFF 		bl	lv_obj_check_type
 921              	.LVL139:
 426:Drivers/lvgl/src/themes/mono/lv_theme_mono.c ****         lv_obj_add_style(obj, &theme->styles.card, 0);
 922              		.loc 1 426 12 discriminator 1 view .LVU191
 923 0618 70B3     		cbz	r0, .L21
 427:Drivers/lvgl/src/themes/mono/lv_theme_mono.c ****         lv_obj_add_style(obj, &theme->styles.inv, LV_PART_INDICATOR);
 924              		.loc 1 427 9 is_stmt 1 view .LVU192
 427:Drivers/lvgl/src/themes/mono/lv_theme_mono.c ****         lv_obj_add_style(obj, &theme->styles.inv, LV_PART_INDICATOR);
 925              		.loc 1 427 31 is_stmt 0 view .LVU193
 926 061a 05F13406 		add	r6, r5, #52
 927              	.LVL140:
 427:Drivers/lvgl/src/themes/mono/lv_theme_mono.c ****         lv_obj_add_style(obj, &theme->styles.inv, LV_PART_INDICATOR);
 928              		.loc 1 427 9 view .LVU194
 929 061e 0022     		movs	r2, #0
 930 0620 3146     		mov	r1, r6
 931 0622 2046     		mov	r0, r4
 932 0624 FFF7FEFF 		bl	lv_obj_add_style
 933              	.LVL141:
 428:Drivers/lvgl/src/themes/mono/lv_theme_mono.c ****         lv_obj_add_style(obj, &theme->styles.pad_zero, LV_PART_INDICATOR);
 934              		.loc 1 428 9 is_stmt 1 view .LVU195
 935 0628 4FF40032 		mov	r2, #131072
 936 062c 05F15801 		add	r1, r5, #88
 937 0630 2046     		mov	r0, r4
 938 0632 FFF7FEFF 		bl	lv_obj_add_style
 939              	.LVL142:
 429:Drivers/lvgl/src/themes/mono/lv_theme_mono.c ****         lv_obj_add_style(obj, &theme->styles.card, LV_PART_KNOB);
 940              		.loc 1 429 9 view .LVU196
 941 0636 4FF40032 		mov	r2, #131072
 942 063a 05F19401 		add	r1, r5, #148
 943 063e 2046     		mov	r0, r4
 944 0640 FFF7FEFF 		bl	lv_obj_add_style
 945              	.LVL143:
 430:Drivers/lvgl/src/themes/mono/lv_theme_mono.c ****         lv_obj_add_style(obj, &theme->styles.radius_circle, LV_PART_KNOB);
 946              		.loc 1 430 9 view .LVU197
 947 0644 4FF44032 		mov	r2, #196608
 948 0648 3146     		mov	r1, r6
 949 064a 2046     		mov	r0, r4
 950 064c FFF7FEFF 		bl	lv_obj_add_style
 951              	.LVL144:
 431:Drivers/lvgl/src/themes/mono/lv_theme_mono.c ****         lv_obj_add_style(obj, &theme->styles.focus, LV_STATE_FOCUS_KEY);
 952              		.loc 1 431 9 view .LVU198
 953 0650 4FF44032 		mov	r2, #196608
 954 0654 05F1AC01 		add	r1, r5, #172
 955 0658 2046     		mov	r0, r4
 956 065a FFF7FEFF 		bl	lv_obj_add_style
 957              	.LVL145:
ARM GAS  /tmp/ccJxyNGA.s 			page 30


 432:Drivers/lvgl/src/themes/mono/lv_theme_mono.c ****         lv_obj_add_style(obj, &theme->styles.edit, LV_STATE_EDITED);
 958              		.loc 1 432 9 view .LVU199
 959 065e 0422     		movs	r2, #4
 960 0660 05F17001 		add	r1, r5, #112
 961 0664 2046     		mov	r0, r4
 962 0666 FFF7FEFF 		bl	lv_obj_add_style
 963              	.LVL146:
 433:Drivers/lvgl/src/themes/mono/lv_theme_mono.c ****     }
 964              		.loc 1 433 9 view .LVU200
 965 066a 0822     		movs	r2, #8
 966 066c 05F17C01 		add	r1, r5, #124
 967 0670 2046     		mov	r0, r4
 968 0672 FFF7FEFF 		bl	lv_obj_add_style
 969              	.LVL147:
 970 0676 D9E4     		b	.L1
 971              	.LVL148:
 972              	.L21:
 438:Drivers/lvgl/src/themes/mono/lv_theme_mono.c ****         lv_obj_add_style(obj, &theme->styles.card, 0);
 973              		.loc 1 438 10 view .LVU201
 438:Drivers/lvgl/src/themes/mono/lv_theme_mono.c ****         lv_obj_add_style(obj, &theme->styles.card, 0);
 974              		.loc 1 438 13 is_stmt 0 view .LVU202
 975 0678 2149     		ldr	r1, .L43+60
 976 067a 2046     		mov	r0, r4
 977 067c FFF7FEFF 		bl	lv_obj_check_type
 978              	.LVL149:
 438:Drivers/lvgl/src/themes/mono/lv_theme_mono.c ****         lv_obj_add_style(obj, &theme->styles.card, 0);
 979              		.loc 1 438 12 discriminator 1 view .LVU203
 980 0680 0028     		cmp	r0, #0
 981 0682 41D0     		beq	.L22
 439:Drivers/lvgl/src/themes/mono/lv_theme_mono.c ****         lv_obj_add_style(obj, &theme->styles.scrollbar, LV_PART_SCROLLBAR);
 982              		.loc 1 439 9 is_stmt 1 view .LVU204
 983 0684 0022     		movs	r2, #0
 984 0686 05F13401 		add	r1, r5, #52
 985 068a 2046     		mov	r0, r4
 986 068c FFF7FEFF 		bl	lv_obj_add_style
 987              	.LVL150:
 440:Drivers/lvgl/src/themes/mono/lv_theme_mono.c ****         lv_obj_add_style(obj, &theme->styles.ta_cursor, LV_PART_CURSOR | LV_STATE_FOCUSED);
 988              		.loc 1 440 9 view .LVU205
 989 0690 4FF48032 		mov	r2, #65536
 990 0694 05F14001 		add	r1, r5, #64
 991 0698 2046     		mov	r0, r4
 992 069a FFF7FEFF 		bl	lv_obj_add_style
 993              	.LVL151:
 441:Drivers/lvgl/src/themes/mono/lv_theme_mono.c ****         lv_obj_add_style(obj, &theme->styles.focus, LV_STATE_FOCUSED);
 994              		.loc 1 441 9 view .LVU206
 995 069e 194A     		ldr	r2, .L43+64
 996 06a0 05F1DC01 		add	r1, r5, #220
 997 06a4 2046     		mov	r0, r4
 998 06a6 FFF7FEFF 		bl	lv_obj_add_style
 999              	.LVL152:
 442:Drivers/lvgl/src/themes/mono/lv_theme_mono.c ****         lv_obj_add_style(obj, &theme->styles.edit, LV_STATE_EDITED);
 1000              		.loc 1 442 9 view .LVU207
 1001 06aa 0222     		movs	r2, #2
 1002 06ac 05F17001 		add	r1, r5, #112
 1003 06b0 2046     		mov	r0, r4
 1004 06b2 FFF7FEFF 		bl	lv_obj_add_style
 1005              	.LVL153:
ARM GAS  /tmp/ccJxyNGA.s 			page 31


 443:Drivers/lvgl/src/themes/mono/lv_theme_mono.c ****     }
 1006              		.loc 1 443 9 view .LVU208
 1007 06b6 0822     		movs	r2, #8
 1008 06b8 05F17C01 		add	r1, r5, #124
 1009 06bc 2046     		mov	r0, r4
 1010 06be FFF7FEFF 		bl	lv_obj_add_style
 1011              	.LVL154:
 1012 06c2 B3E4     		b	.L1
 1013              	.L44:
 1014              		.align	2
 1015              	.L43:
 1016 06c4 00000000 		.word	lv_table_class
 1017 06c8 20000500 		.word	327712
 1018 06cc 04000500 		.word	327684
 1019 06d0 00000000 		.word	lv_checkbox_class
 1020 06d4 80000200 		.word	131200
 1021 06d8 01000200 		.word	131073
 1022 06dc 20000200 		.word	131104
 1023 06e0 00000000 		.word	lv_switch_class
 1024 06e4 00000000 		.word	lv_chart_class
 1025 06e8 00000000 		.word	lv_roller_class
 1026 06ec 00000000 		.word	lv_dropdown_class
 1027 06f0 00000000 		.word	lv_dropdownlist_class
 1028 06f4 01000400 		.word	262145
 1029 06f8 20000400 		.word	262176
 1030 06fc 00000000 		.word	lv_arc_class
 1031 0700 00000000 		.word	lv_textarea_class
 1032 0704 02000600 		.word	393218
 1033              	.L22:
 448:Drivers/lvgl/src/themes/mono/lv_theme_mono.c ****         lv_obj_add_style(obj, &theme->styles.card, 0);
 1034              		.loc 1 448 10 view .LVU209
 448:Drivers/lvgl/src/themes/mono/lv_theme_mono.c ****         lv_obj_add_style(obj, &theme->styles.card, 0);
 1035              		.loc 1 448 13 is_stmt 0 view .LVU210
 1036 0708 7B49     		ldr	r1, .L45
 1037 070a 2046     		mov	r0, r4
 1038 070c FFF7FEFF 		bl	lv_obj_check_type
 1039              	.LVL155:
 448:Drivers/lvgl/src/themes/mono/lv_theme_mono.c ****         lv_obj_add_style(obj, &theme->styles.card, 0);
 1040              		.loc 1 448 12 discriminator 1 view .LVU211
 1041 0710 50B3     		cbz	r0, .L23
 449:Drivers/lvgl/src/themes/mono/lv_theme_mono.c ****         lv_obj_add_style(obj, &theme->styles.no_radius, 0);
 1042              		.loc 1 449 9 is_stmt 1 view .LVU212
 1043 0712 0022     		movs	r2, #0
 1044 0714 05F13401 		add	r1, r5, #52
 1045 0718 2046     		mov	r0, r4
 1046 071a FFF7FEFF 		bl	lv_obj_add_style
 1047              	.LVL156:
 450:Drivers/lvgl/src/themes/mono/lv_theme_mono.c ****         lv_obj_add_style(obj, &theme->styles.pr, LV_PART_ITEMS | LV_STATE_PRESSED);
 1048              		.loc 1 450 9 view .LVU213
 1049 071e 0022     		movs	r2, #0
 1050 0720 05F1A001 		add	r1, r5, #160
 1051 0724 2046     		mov	r0, r4
 1052 0726 FFF7FEFF 		bl	lv_obj_add_style
 1053              	.LVL157:
 451:Drivers/lvgl/src/themes/mono/lv_theme_mono.c ****         lv_obj_add_style(obj, &theme->styles.disabled, LV_PART_ITEMS | LV_STATE_DISABLED);
 1054              		.loc 1 451 9 view .LVU214
 1055 072a 744A     		ldr	r2, .L45+4
ARM GAS  /tmp/ccJxyNGA.s 			page 32


 1056 072c 05F14C01 		add	r1, r5, #76
 1057 0730 2046     		mov	r0, r4
 1058 0732 FFF7FEFF 		bl	lv_obj_add_style
 1059              	.LVL158:
 452:Drivers/lvgl/src/themes/mono/lv_theme_mono.c ****         lv_obj_add_style(obj, &theme->styles.focus, LV_STATE_FOCUS_KEY);
 1060              		.loc 1 452 9 view .LVU215
 1061 0736 724A     		ldr	r2, .L45+8
 1062 0738 05F16401 		add	r1, r5, #100
 1063 073c 2046     		mov	r0, r4
 1064 073e FFF7FEFF 		bl	lv_obj_add_style
 1065              	.LVL159:
 453:Drivers/lvgl/src/themes/mono/lv_theme_mono.c ****         lv_obj_add_style(obj, &theme->styles.edit, LV_STATE_EDITED);
 1066              		.loc 1 453 9 view .LVU216
 1067 0742 0422     		movs	r2, #4
 1068 0744 05F17001 		add	r1, r5, #112
 1069 0748 2046     		mov	r0, r4
 1070 074a FFF7FEFF 		bl	lv_obj_add_style
 1071              	.LVL160:
 454:Drivers/lvgl/src/themes/mono/lv_theme_mono.c ****         lv_obj_add_style(obj, &theme->styles.large_border, LV_PART_ITEMS | LV_STATE_FOCUS_KEY);
 1072              		.loc 1 454 9 view .LVU217
 1073 074e 0822     		movs	r2, #8
 1074 0750 05F17C01 		add	r1, r5, #124
 1075 0754 2046     		mov	r0, r4
 1076 0756 FFF7FEFF 		bl	lv_obj_add_style
 1077              	.LVL161:
 455:Drivers/lvgl/src/themes/mono/lv_theme_mono.c ****     }
 1078              		.loc 1 455 9 view .LVU218
 1079 075a 6A4A     		ldr	r2, .L45+12
 1080 075c 05F1B801 		add	r1, r5, #184
 1081 0760 2046     		mov	r0, r4
 1082 0762 FFF7FEFF 		bl	lv_obj_add_style
 1083              	.LVL162:
 1084 0766 61E4     		b	.L1
 1085              	.L23:
 460:Drivers/lvgl/src/themes/mono/lv_theme_mono.c ****         lv_obj_add_style(obj, &theme->styles.card, 0);
 1086              		.loc 1 460 10 view .LVU219
 460:Drivers/lvgl/src/themes/mono/lv_theme_mono.c ****         lv_obj_add_style(obj, &theme->styles.card, 0);
 1087              		.loc 1 460 13 is_stmt 0 view .LVU220
 1088 0768 6749     		ldr	r1, .L45+16
 1089 076a 2046     		mov	r0, r4
 1090 076c FFF7FEFF 		bl	lv_obj_check_type
 1091              	.LVL163:
 460:Drivers/lvgl/src/themes/mono/lv_theme_mono.c ****         lv_obj_add_style(obj, &theme->styles.card, 0);
 1092              		.loc 1 460 12 discriminator 1 view .LVU221
 1093 0770 58B3     		cbz	r0, .L24
 461:Drivers/lvgl/src/themes/mono/lv_theme_mono.c ****         lv_obj_add_style(obj, &theme->styles.card, LV_PART_ITEMS);
 1094              		.loc 1 461 9 is_stmt 1 view .LVU222
 461:Drivers/lvgl/src/themes/mono/lv_theme_mono.c ****         lv_obj_add_style(obj, &theme->styles.card, LV_PART_ITEMS);
 1095              		.loc 1 461 31 is_stmt 0 view .LVU223
 1096 0772 05F13406 		add	r6, r5, #52
 1097              	.LVL164:
 461:Drivers/lvgl/src/themes/mono/lv_theme_mono.c ****         lv_obj_add_style(obj, &theme->styles.card, LV_PART_ITEMS);
 1098              		.loc 1 461 9 view .LVU224
 1099 0776 0022     		movs	r2, #0
 1100 0778 3146     		mov	r1, r6
 1101 077a 2046     		mov	r0, r4
 1102 077c FFF7FEFF 		bl	lv_obj_add_style
ARM GAS  /tmp/ccJxyNGA.s 			page 33


 1103              	.LVL165:
 462:Drivers/lvgl/src/themes/mono/lv_theme_mono.c ****         lv_obj_add_style(obj, &theme->styles.pr, LV_PART_ITEMS | LV_STATE_PRESSED);
 1104              		.loc 1 462 9 is_stmt 1 view .LVU225
 1105 0780 4FF4A022 		mov	r2, #327680
 1106 0784 3146     		mov	r1, r6
 1107 0786 2046     		mov	r0, r4
 1108 0788 FFF7FEFF 		bl	lv_obj_add_style
 1109              	.LVL166:
 463:Drivers/lvgl/src/themes/mono/lv_theme_mono.c ****         lv_obj_add_style(obj, &theme->styles.inv, LV_PART_ITEMS | LV_STATE_CHECKED);
 1110              		.loc 1 463 9 view .LVU226
 1111 078c 5B4A     		ldr	r2, .L45+4
 1112 078e 05F14C01 		add	r1, r5, #76
 1113 0792 2046     		mov	r0, r4
 1114 0794 FFF7FEFF 		bl	lv_obj_add_style
 1115              	.LVL167:
 464:Drivers/lvgl/src/themes/mono/lv_theme_mono.c ****         lv_obj_add_style(obj, &theme->styles.focus, LV_STATE_FOCUS_KEY);
 1116              		.loc 1 464 9 view .LVU227
 1117 0798 5C4A     		ldr	r2, .L45+20
 1118 079a 05F15801 		add	r1, r5, #88
 1119 079e 2046     		mov	r0, r4
 1120 07a0 FFF7FEFF 		bl	lv_obj_add_style
 1121              	.LVL168:
 465:Drivers/lvgl/src/themes/mono/lv_theme_mono.c ****         lv_obj_add_style(obj, &theme->styles.edit, LV_STATE_EDITED);
 1122              		.loc 1 465 9 view .LVU228
 1123 07a4 0422     		movs	r2, #4
 1124 07a6 05F17001 		add	r1, r5, #112
 1125 07aa 2046     		mov	r0, r4
 1126 07ac FFF7FEFF 		bl	lv_obj_add_style
 1127              	.LVL169:
 466:Drivers/lvgl/src/themes/mono/lv_theme_mono.c ****         lv_obj_add_style(obj, &theme->styles.large_border, LV_PART_ITEMS | LV_STATE_EDITED);
 1128              		.loc 1 466 9 view .LVU229
 1129 07b0 0822     		movs	r2, #8
 1130 07b2 05F17C01 		add	r1, r5, #124
 1131 07b6 2046     		mov	r0, r4
 1132 07b8 FFF7FEFF 		bl	lv_obj_add_style
 1133              	.LVL170:
 467:Drivers/lvgl/src/themes/mono/lv_theme_mono.c ****     }
 1134              		.loc 1 467 9 view .LVU230
 1135 07bc 544A     		ldr	r2, .L45+24
 1136 07be 05F1B801 		add	r1, r5, #184
 1137 07c2 2046     		mov	r0, r4
 1138 07c4 FFF7FEFF 		bl	lv_obj_add_style
 1139              	.LVL171:
 1140 07c8 30E4     		b	.L1
 1141              	.LVL172:
 1142              	.L24:
 471:Drivers/lvgl/src/themes/mono/lv_theme_mono.c ****         lv_obj_add_style(obj, &theme->styles.card, 0);
 1143              		.loc 1 471 10 view .LVU231
 471:Drivers/lvgl/src/themes/mono/lv_theme_mono.c ****         lv_obj_add_style(obj, &theme->styles.card, 0);
 1144              		.loc 1 471 13 is_stmt 0 view .LVU232
 1145 07ca 5249     		ldr	r1, .L45+28
 1146 07cc 2046     		mov	r0, r4
 1147 07ce FFF7FEFF 		bl	lv_obj_check_type
 1148              	.LVL173:
 471:Drivers/lvgl/src/themes/mono/lv_theme_mono.c ****         lv_obj_add_style(obj, &theme->styles.card, 0);
 1149              		.loc 1 471 12 discriminator 1 view .LVU233
 1150 07d2 20BB     		cbnz	r0, .L39
ARM GAS  /tmp/ccJxyNGA.s 			page 34


 476:Drivers/lvgl/src/themes/mono/lv_theme_mono.c **** 
 1151              		.loc 1 476 10 is_stmt 1 view .LVU234
 476:Drivers/lvgl/src/themes/mono/lv_theme_mono.c **** 
 1152              		.loc 1 476 13 is_stmt 0 view .LVU235
 1153 07d4 5049     		ldr	r1, .L45+32
 1154 07d6 2046     		mov	r0, r4
 1155 07d8 FFF7FEFF 		bl	lv_obj_check_type
 1156              	.LVL174:
 476:Drivers/lvgl/src/themes/mono/lv_theme_mono.c **** 
 1157              		.loc 1 476 12 discriminator 1 view .LVU236
 1158 07dc 0028     		cmp	r0, #0
 1159 07de 7FF425AC 		bne	.L1
 479:Drivers/lvgl/src/themes/mono/lv_theme_mono.c ****         lv_obj_add_style(obj, &theme->styles.card, 0);
 1160              		.loc 1 479 10 is_stmt 1 view .LVU237
 479:Drivers/lvgl/src/themes/mono/lv_theme_mono.c ****         lv_obj_add_style(obj, &theme->styles.card, 0);
 1161              		.loc 1 479 13 is_stmt 0 view .LVU238
 1162 07e2 4E49     		ldr	r1, .L45+36
 1163 07e4 2046     		mov	r0, r4
 1164 07e6 FFF7FEFF 		bl	lv_obj_check_type
 1165              	.LVL175:
 479:Drivers/lvgl/src/themes/mono/lv_theme_mono.c ****         lv_obj_add_style(obj, &theme->styles.card, 0);
 1166              		.loc 1 479 12 discriminator 1 view .LVU239
 1167 07ea 38B3     		cbz	r0, .L26
 480:Drivers/lvgl/src/themes/mono/lv_theme_mono.c ****         lv_obj_add_style(obj, &theme->styles.pr, LV_STATE_PRESSED);
 1168              		.loc 1 480 9 is_stmt 1 view .LVU240
 1169 07ec 0022     		movs	r2, #0
 1170 07ee 05F13401 		add	r1, r5, #52
 1171 07f2 2046     		mov	r0, r4
 1172 07f4 FFF7FEFF 		bl	lv_obj_add_style
 1173              	.LVL176:
 481:Drivers/lvgl/src/themes/mono/lv_theme_mono.c ****         lv_obj_add_style(obj, &theme->styles.focus, LV_STATE_FOCUS_KEY);
 1174              		.loc 1 481 9 view .LVU241
 1175 07f8 2022     		movs	r2, #32
 1176 07fa 05F14C01 		add	r1, r5, #76
 1177 07fe 2046     		mov	r0, r4
 1178 0800 FFF7FEFF 		bl	lv_obj_add_style
 1179              	.LVL177:
 482:Drivers/lvgl/src/themes/mono/lv_theme_mono.c ****         lv_obj_add_style(obj, &theme->styles.large_border, LV_STATE_EDITED);
 1180              		.loc 1 482 9 view .LVU242
 1181 0804 0422     		movs	r2, #4
 1182 0806 05F17001 		add	r1, r5, #112
 1183 080a 2046     		mov	r0, r4
 1184 080c FFF7FEFF 		bl	lv_obj_add_style
 1185              	.LVL178:
 483:Drivers/lvgl/src/themes/mono/lv_theme_mono.c **** 
 1186              		.loc 1 483 9 view .LVU243
 1187 0810 0822     		movs	r2, #8
 1188 0812 05F1B801 		add	r1, r5, #184
 1189 0816 2046     		mov	r0, r4
 1190 0818 FFF7FEFF 		bl	lv_obj_add_style
 1191              	.LVL179:
 1192 081c 06E4     		b	.L1
 1193              	.L39:
 472:Drivers/lvgl/src/themes/mono/lv_theme_mono.c ****         lv_obj_add_style(obj, &theme->styles.scrollbar, LV_PART_SCROLLBAR);
 1194              		.loc 1 472 9 view .LVU244
 1195 081e 0022     		movs	r2, #0
 1196 0820 05F13401 		add	r1, r5, #52
ARM GAS  /tmp/ccJxyNGA.s 			page 35


 1197 0824 2046     		mov	r0, r4
 1198 0826 FFF7FEFF 		bl	lv_obj_add_style
 1199              	.LVL180:
 473:Drivers/lvgl/src/themes/mono/lv_theme_mono.c ****         return;
 1200              		.loc 1 473 9 view .LVU245
 1201 082a 4FF48032 		mov	r2, #65536
 1202 082e 05F14001 		add	r1, r5, #64
 1203 0832 2046     		mov	r0, r4
 1204 0834 FFF7FEFF 		bl	lv_obj_add_style
 1205              	.LVL181:
 474:Drivers/lvgl/src/themes/mono/lv_theme_mono.c ****     }
 1206              		.loc 1 474 9 view .LVU246
 1207 0838 FFF7F8BB 		b	.L1
 1208              	.L26:
 488:Drivers/lvgl/src/themes/mono/lv_theme_mono.c ****         lv_obj_add_style(obj, &theme->styles.card, 0);
 1209              		.loc 1 488 10 view .LVU247
 488:Drivers/lvgl/src/themes/mono/lv_theme_mono.c ****         lv_obj_add_style(obj, &theme->styles.card, 0);
 1210              		.loc 1 488 13 is_stmt 0 view .LVU248
 1211 083c 3849     		ldr	r1, .L45+40
 1212 083e 2046     		mov	r0, r4
 1213 0840 FFF7FEFF 		bl	lv_obj_check_type
 1214              	.LVL182:
 488:Drivers/lvgl/src/themes/mono/lv_theme_mono.c ****         lv_obj_add_style(obj, &theme->styles.card, 0);
 1215              		.loc 1 488 12 discriminator 1 view .LVU249
 1216 0844 F8B9     		cbnz	r0, .L40
 494:Drivers/lvgl/src/themes/mono/lv_theme_mono.c ****         lv_obj_add_style(obj, &theme->styles.card, 0);
 1217              		.loc 1 494 10 is_stmt 1 view .LVU250
 494:Drivers/lvgl/src/themes/mono/lv_theme_mono.c ****         lv_obj_add_style(obj, &theme->styles.card, 0);
 1218              		.loc 1 494 13 is_stmt 0 view .LVU251
 1219 0846 3749     		ldr	r1, .L45+44
 1220 0848 2046     		mov	r0, r4
 1221 084a FFF7FEFF 		bl	lv_obj_check_type
 1222              	.LVL183:
 494:Drivers/lvgl/src/themes/mono/lv_theme_mono.c ****         lv_obj_add_style(obj, &theme->styles.card, 0);
 1223              		.loc 1 494 12 discriminator 1 view .LVU252
 1224 084e 10B3     		cbz	r0, .L28
 495:Drivers/lvgl/src/themes/mono/lv_theme_mono.c ****         lv_obj_add_style(obj, &theme->styles.inv, LV_PART_CURSOR);
 1225              		.loc 1 495 9 is_stmt 1 view .LVU253
 1226 0850 0022     		movs	r2, #0
 1227 0852 05F13401 		add	r1, r5, #52
 1228 0856 2046     		mov	r0, r4
 1229 0858 FFF7FEFF 		bl	lv_obj_add_style
 1230              	.LVL184:
 496:Drivers/lvgl/src/themes/mono/lv_theme_mono.c ****         lv_obj_add_style(obj, &theme->styles.focus, LV_STATE_FOCUS_KEY);
 1231              		.loc 1 496 9 view .LVU254
 1232 085c 4FF4C022 		mov	r2, #393216
 1233 0860 05F15801 		add	r1, r5, #88
 1234 0864 2046     		mov	r0, r4
 1235 0866 FFF7FEFF 		bl	lv_obj_add_style
 1236              	.LVL185:
 497:Drivers/lvgl/src/themes/mono/lv_theme_mono.c ****         lv_obj_add_style(obj, &theme->styles.edit, LV_STATE_EDITED);
 1237              		.loc 1 497 9 view .LVU255
 1238 086a 0422     		movs	r2, #4
 1239 086c 05F17001 		add	r1, r5, #112
 1240 0870 2046     		mov	r0, r4
 1241 0872 FFF7FEFF 		bl	lv_obj_add_style
 1242              	.LVL186:
ARM GAS  /tmp/ccJxyNGA.s 			page 36


 498:Drivers/lvgl/src/themes/mono/lv_theme_mono.c ****     }
 1243              		.loc 1 498 9 view .LVU256
 1244 0876 0822     		movs	r2, #8
 1245 0878 05F17C01 		add	r1, r5, #124
 1246 087c 2046     		mov	r0, r4
 1247 087e FFF7FEFF 		bl	lv_obj_add_style
 1248              	.LVL187:
 1249 0882 FFF7D3BB 		b	.L1
 1250              	.L40:
 489:Drivers/lvgl/src/themes/mono/lv_theme_mono.c ****         return;
 1251              		.loc 1 489 9 view .LVU257
 1252 0886 0022     		movs	r2, #0
 1253 0888 05F13401 		add	r1, r5, #52
 1254 088c 2046     		mov	r0, r4
 1255 088e FFF7FEFF 		bl	lv_obj_add_style
 1256              	.LVL188:
 490:Drivers/lvgl/src/themes/mono/lv_theme_mono.c ****     }
 1257              		.loc 1 490 9 view .LVU258
 1258 0892 FFF7CBBB 		b	.L1
 1259              	.L28:
 502:Drivers/lvgl/src/themes/mono/lv_theme_mono.c ****         lv_obj_add_style(obj, &theme->styles.scr, 0);
 1260              		.loc 1 502 10 view .LVU259
 502:Drivers/lvgl/src/themes/mono/lv_theme_mono.c ****         lv_obj_add_style(obj, &theme->styles.scr, 0);
 1261              		.loc 1 502 13 is_stmt 0 view .LVU260
 1262 0896 2449     		ldr	r1, .L45+48
 1263 0898 2046     		mov	r0, r4
 1264 089a FFF7FEFF 		bl	lv_obj_check_type
 1265              	.LVL189:
 502:Drivers/lvgl/src/themes/mono/lv_theme_mono.c ****         lv_obj_add_style(obj, &theme->styles.scr, 0);
 1266              		.loc 1 502 12 discriminator 1 view .LVU261
 1267 089e 70B1     		cbz	r0, .L29
 503:Drivers/lvgl/src/themes/mono/lv_theme_mono.c ****         lv_obj_add_style(obj, &theme->styles.scrollbar, LV_PART_SCROLLBAR);
 1268              		.loc 1 503 9 is_stmt 1 view .LVU262
 1269 08a0 0022     		movs	r2, #0
 1270 08a2 05F12801 		add	r1, r5, #40
 1271 08a6 2046     		mov	r0, r4
 1272 08a8 FFF7FEFF 		bl	lv_obj_add_style
 1273              	.LVL190:
 504:Drivers/lvgl/src/themes/mono/lv_theme_mono.c ****     }
 1274              		.loc 1 504 9 view .LVU263
 1275 08ac 4FF48032 		mov	r2, #65536
 1276 08b0 05F14001 		add	r1, r5, #64
 1277 08b4 2046     		mov	r0, r4
 1278 08b6 FFF7FEFF 		bl	lv_obj_add_style
 1279              	.LVL191:
 1280 08ba FFF7B7BB 		b	.L1
 1281              	.L29:
 506:Drivers/lvgl/src/themes/mono/lv_theme_mono.c ****         lv_obj_add_style(obj, &theme->styles.scrollbar, LV_PART_SCROLLBAR);
 1282              		.loc 1 506 10 view .LVU264
 506:Drivers/lvgl/src/themes/mono/lv_theme_mono.c ****         lv_obj_add_style(obj, &theme->styles.scrollbar, LV_PART_SCROLLBAR);
 1283              		.loc 1 506 13 is_stmt 0 view .LVU265
 1284 08be 1B49     		ldr	r1, .L45+52
 1285 08c0 2046     		mov	r0, r4
 1286 08c2 FFF7FEFF 		bl	lv_obj_check_type
 1287              	.LVL192:
 506:Drivers/lvgl/src/themes/mono/lv_theme_mono.c ****         lv_obj_add_style(obj, &theme->styles.scrollbar, LV_PART_SCROLLBAR);
 1288              		.loc 1 506 12 discriminator 1 view .LVU266
ARM GAS  /tmp/ccJxyNGA.s 			page 37


 1289 08c6 40B1     		cbz	r0, .L30
 507:Drivers/lvgl/src/themes/mono/lv_theme_mono.c ****     }
 1290              		.loc 1 507 9 is_stmt 1 view .LVU267
 1291 08c8 4FF48032 		mov	r2, #65536
 1292 08cc 05F14001 		add	r1, r5, #64
 1293 08d0 2046     		mov	r0, r4
 1294 08d2 FFF7FEFF 		bl	lv_obj_add_style
 1295              	.LVL193:
 1296 08d6 FFF7A9BB 		b	.L1
 1297              	.L30:
 512:Drivers/lvgl/src/themes/mono/lv_theme_mono.c ****         lv_obj_add_style(obj, &theme->styles.card, 0);
 1298              		.loc 1 512 10 view .LVU268
 512:Drivers/lvgl/src/themes/mono/lv_theme_mono.c ****         lv_obj_add_style(obj, &theme->styles.card, 0);
 1299              		.loc 1 512 13 is_stmt 0 view .LVU269
 1300 08da 1549     		ldr	r1, .L45+56
 1301 08dc 2046     		mov	r0, r4
 1302 08de FFF7FEFF 		bl	lv_obj_check_type
 1303              	.LVL194:
 512:Drivers/lvgl/src/themes/mono/lv_theme_mono.c ****         lv_obj_add_style(obj, &theme->styles.card, 0);
 1304              		.loc 1 512 12 discriminator 1 view .LVU270
 1305 08e2 0028     		cmp	r0, #0
 1306 08e4 3FF4A2AB 		beq	.L1
 513:Drivers/lvgl/src/themes/mono/lv_theme_mono.c ****     }
 1307              		.loc 1 513 9 is_stmt 1 view .LVU271
 1308 08e8 0022     		movs	r2, #0
 1309 08ea 05F13401 		add	r1, r5, #52
 1310 08ee 2046     		mov	r0, r4
 1311 08f0 FFF7FEFF 		bl	lv_obj_add_style
 1312              	.LVL195:
 1313 08f4 FFF79ABB 		b	.L1
 1314              	.L46:
 1315              		.align	2
 1316              	.L45:
 1317 08f8 00000000 		.word	lv_calendar_class
 1318 08fc 20000500 		.word	327712
 1319 0900 80000500 		.word	327808
 1320 0904 04000500 		.word	327684
 1321 0908 00000000 		.word	lv_keyboard_class
 1322 090c 01000500 		.word	327681
 1323 0910 08000500 		.word	327688
 1324 0914 00000000 		.word	lv_list_class
 1325 0918 00000000 		.word	lv_list_text_class
 1326 091c 00000000 		.word	lv_list_button_class
 1327 0920 00000000 		.word	lv_msgbox_class
 1328 0924 00000000 		.word	lv_spinbox_class
 1329 0928 00000000 		.word	lv_tileview_class
 1330 092c 00000000 		.word	lv_tileview_tile_class
 1331 0930 00000000 		.word	lv_led_class
 1332              		.cfi_endproc
 1333              	.LFE197:
 1335              		.section	.text.lv_style_set_pad_gap,"ax",%progbits
 1336              		.align	1
 1337              		.syntax unified
 1338              		.thumb
 1339              		.thumb_func
 1341              	lv_style_set_pad_gap:
 1342              	.LVL196:
ARM GAS  /tmp/ccJxyNGA.s 			page 38


 1343              	.LFB12:
 1344              		.file 2 "Drivers/lvgl/src/themes/mono/../../core/../misc/lv_style.h"
   1:Drivers/lvgl/src/themes/mono/../../core/../misc/lv_style.h **** /**
   2:Drivers/lvgl/src/themes/mono/../../core/../misc/lv_style.h ****  * @file lv_style.h
   3:Drivers/lvgl/src/themes/mono/../../core/../misc/lv_style.h ****  *
   4:Drivers/lvgl/src/themes/mono/../../core/../misc/lv_style.h ****  */
   5:Drivers/lvgl/src/themes/mono/../../core/../misc/lv_style.h **** 
   6:Drivers/lvgl/src/themes/mono/../../core/../misc/lv_style.h **** #ifndef LV_STYLE_H
   7:Drivers/lvgl/src/themes/mono/../../core/../misc/lv_style.h **** #define LV_STYLE_H
   8:Drivers/lvgl/src/themes/mono/../../core/../misc/lv_style.h **** 
   9:Drivers/lvgl/src/themes/mono/../../core/../misc/lv_style.h **** #ifdef __cplusplus
  10:Drivers/lvgl/src/themes/mono/../../core/../misc/lv_style.h **** extern "C" {
  11:Drivers/lvgl/src/themes/mono/../../core/../misc/lv_style.h **** #endif
  12:Drivers/lvgl/src/themes/mono/../../core/../misc/lv_style.h **** 
  13:Drivers/lvgl/src/themes/mono/../../core/../misc/lv_style.h **** /*********************
  14:Drivers/lvgl/src/themes/mono/../../core/../misc/lv_style.h ****  *      INCLUDES
  15:Drivers/lvgl/src/themes/mono/../../core/../misc/lv_style.h ****  *********************/
  16:Drivers/lvgl/src/themes/mono/../../core/../misc/lv_style.h **** #include "../font/lv_font.h"
  17:Drivers/lvgl/src/themes/mono/../../core/../misc/lv_style.h **** #include "lv_color.h"
  18:Drivers/lvgl/src/themes/mono/../../core/../misc/lv_style.h **** #include "lv_area.h"
  19:Drivers/lvgl/src/themes/mono/../../core/../misc/lv_style.h **** #include "lv_anim.h"
  20:Drivers/lvgl/src/themes/mono/../../core/../misc/lv_style.h **** #include "lv_text.h"
  21:Drivers/lvgl/src/themes/mono/../../core/../misc/lv_style.h **** #include "lv_types.h"
  22:Drivers/lvgl/src/themes/mono/../../core/../misc/lv_style.h **** #include "lv_assert.h"
  23:Drivers/lvgl/src/themes/mono/../../core/../misc/lv_style.h **** #include "lv_bidi.h"
  24:Drivers/lvgl/src/themes/mono/../../core/../misc/lv_style.h **** #include "lv_grad.h"
  25:Drivers/lvgl/src/themes/mono/../../core/../misc/lv_style.h **** #include "../layouts/lv_layout.h"
  26:Drivers/lvgl/src/themes/mono/../../core/../misc/lv_style.h **** 
  27:Drivers/lvgl/src/themes/mono/../../core/../misc/lv_style.h **** /*********************
  28:Drivers/lvgl/src/themes/mono/../../core/../misc/lv_style.h ****  *      DEFINES
  29:Drivers/lvgl/src/themes/mono/../../core/../misc/lv_style.h ****  *********************/
  30:Drivers/lvgl/src/themes/mono/../../core/../misc/lv_style.h **** 
  31:Drivers/lvgl/src/themes/mono/../../core/../misc/lv_style.h **** #define LV_STYLE_SENTINEL_VALUE     0xAABBCCDD
  32:Drivers/lvgl/src/themes/mono/../../core/../misc/lv_style.h **** 
  33:Drivers/lvgl/src/themes/mono/../../core/../misc/lv_style.h **** /*
  34:Drivers/lvgl/src/themes/mono/../../core/../misc/lv_style.h ****  * Flags for style behavior
  35:Drivers/lvgl/src/themes/mono/../../core/../misc/lv_style.h ****  */
  36:Drivers/lvgl/src/themes/mono/../../core/../misc/lv_style.h **** #define LV_STYLE_PROP_FLAG_NONE                     (0)       /**< No special behavior */
  37:Drivers/lvgl/src/themes/mono/../../core/../misc/lv_style.h **** #define LV_STYLE_PROP_FLAG_INHERITABLE              (1 << 0)  /**< Inherited */
  38:Drivers/lvgl/src/themes/mono/../../core/../misc/lv_style.h **** #define LV_STYLE_PROP_FLAG_EXT_DRAW_UPDATE          (1 << 1)  /**< Requires ext. draw size update w
  39:Drivers/lvgl/src/themes/mono/../../core/../misc/lv_style.h **** #define LV_STYLE_PROP_FLAG_LAYOUT_UPDATE            (1 << 2)  /**< Requires layout update when chan
  40:Drivers/lvgl/src/themes/mono/../../core/../misc/lv_style.h **** #define LV_STYLE_PROP_FLAG_PARENT_LAYOUT_UPDATE     (1 << 3)  /**< Requires layout update on parent
  41:Drivers/lvgl/src/themes/mono/../../core/../misc/lv_style.h **** #define LV_STYLE_PROP_FLAG_LAYER_UPDATE             (1 << 4)  /**< Affects layer handling */
  42:Drivers/lvgl/src/themes/mono/../../core/../misc/lv_style.h **** #define LV_STYLE_PROP_FLAG_TRANSFORM                (1 << 5)  /**< Affects the object's transformat
  43:Drivers/lvgl/src/themes/mono/../../core/../misc/lv_style.h **** #define LV_STYLE_PROP_FLAG_ALL                      (0x3F)    /**< Indicating all flags */
  44:Drivers/lvgl/src/themes/mono/../../core/../misc/lv_style.h **** 
  45:Drivers/lvgl/src/themes/mono/../../core/../misc/lv_style.h **** /*
  46:Drivers/lvgl/src/themes/mono/../../core/../misc/lv_style.h ****  * Other constants
  47:Drivers/lvgl/src/themes/mono/../../core/../misc/lv_style.h ****  */
  48:Drivers/lvgl/src/themes/mono/../../core/../misc/lv_style.h **** #define LV_SCALE_NONE            256        /**< Value for not zooming the image */
  49:Drivers/lvgl/src/themes/mono/../../core/../misc/lv_style.h **** LV_EXPORT_CONST_INT(LV_SCALE_NONE);
  50:Drivers/lvgl/src/themes/mono/../../core/../misc/lv_style.h **** 
  51:Drivers/lvgl/src/themes/mono/../../core/../misc/lv_style.h **** // *INDENT-OFF*
  52:Drivers/lvgl/src/themes/mono/../../core/../misc/lv_style.h **** #if LV_USE_ASSERT_STYLE
  53:Drivers/lvgl/src/themes/mono/../../core/../misc/lv_style.h **** #define LV_STYLE_CONST_INIT(var_name, prop_array)                       \
  54:Drivers/lvgl/src/themes/mono/../../core/../misc/lv_style.h ****     const lv_style_t var_name = {                                       \
  55:Drivers/lvgl/src/themes/mono/../../core/../misc/lv_style.h ****         .sentinel = LV_STYLE_SENTINEL_VALUE,                            \
ARM GAS  /tmp/ccJxyNGA.s 			page 39


  56:Drivers/lvgl/src/themes/mono/../../core/../misc/lv_style.h ****         .values_and_props = (void*)prop_array,                          \
  57:Drivers/lvgl/src/themes/mono/../../core/../misc/lv_style.h ****         .has_group = 0xFFFFFFFF,                                        \
  58:Drivers/lvgl/src/themes/mono/../../core/../misc/lv_style.h ****         .prop_cnt = 255                                                 \
  59:Drivers/lvgl/src/themes/mono/../../core/../misc/lv_style.h ****     }
  60:Drivers/lvgl/src/themes/mono/../../core/../misc/lv_style.h **** #else
  61:Drivers/lvgl/src/themes/mono/../../core/../misc/lv_style.h **** #define LV_STYLE_CONST_INIT(var_name, prop_array)                       \
  62:Drivers/lvgl/src/themes/mono/../../core/../misc/lv_style.h ****     const lv_style_t var_name = {                                       \
  63:Drivers/lvgl/src/themes/mono/../../core/../misc/lv_style.h ****         .values_and_props = (void*)prop_array,                          \
  64:Drivers/lvgl/src/themes/mono/../../core/../misc/lv_style.h ****         .has_group = 0xFFFFFFFF,                                        \
  65:Drivers/lvgl/src/themes/mono/../../core/../misc/lv_style.h ****         .prop_cnt = 255,                                                \
  66:Drivers/lvgl/src/themes/mono/../../core/../misc/lv_style.h ****     }
  67:Drivers/lvgl/src/themes/mono/../../core/../misc/lv_style.h **** #endif
  68:Drivers/lvgl/src/themes/mono/../../core/../misc/lv_style.h **** // *INDENT-ON*
  69:Drivers/lvgl/src/themes/mono/../../core/../misc/lv_style.h **** 
  70:Drivers/lvgl/src/themes/mono/../../core/../misc/lv_style.h **** #define LV_STYLE_CONST_PROPS_END { .prop = LV_STYLE_PROP_INV, .value = { .num = 0 } }
  71:Drivers/lvgl/src/themes/mono/../../core/../misc/lv_style.h **** 
  72:Drivers/lvgl/src/themes/mono/../../core/../misc/lv_style.h **** #if LV_GRADIENT_MAX_STOPS < 2
  73:Drivers/lvgl/src/themes/mono/../../core/../misc/lv_style.h **** #error LVGL needs at least 2 stops for gradients. Please increase the LV_GRADIENT_MAX_STOPS
  74:Drivers/lvgl/src/themes/mono/../../core/../misc/lv_style.h **** #endif
  75:Drivers/lvgl/src/themes/mono/../../core/../misc/lv_style.h **** 
  76:Drivers/lvgl/src/themes/mono/../../core/../misc/lv_style.h **** #define LV_GRAD_LEFT    LV_PCT(0)
  77:Drivers/lvgl/src/themes/mono/../../core/../misc/lv_style.h **** #define LV_GRAD_RIGHT   LV_PCT(100)
  78:Drivers/lvgl/src/themes/mono/../../core/../misc/lv_style.h **** #define LV_GRAD_TOP     LV_PCT(0)
  79:Drivers/lvgl/src/themes/mono/../../core/../misc/lv_style.h **** #define LV_GRAD_BOTTOM  LV_PCT(100)
  80:Drivers/lvgl/src/themes/mono/../../core/../misc/lv_style.h **** #define LV_GRAD_CENTER  LV_PCT(50)
  81:Drivers/lvgl/src/themes/mono/../../core/../misc/lv_style.h **** 
  82:Drivers/lvgl/src/themes/mono/../../core/../misc/lv_style.h **** /**********************
  83:Drivers/lvgl/src/themes/mono/../../core/../misc/lv_style.h ****  *      TYPEDEFS
  84:Drivers/lvgl/src/themes/mono/../../core/../misc/lv_style.h ****  **********************/
  85:Drivers/lvgl/src/themes/mono/../../core/../misc/lv_style.h **** 
  86:Drivers/lvgl/src/themes/mono/../../core/../misc/lv_style.h **** /**
  87:Drivers/lvgl/src/themes/mono/../../core/../misc/lv_style.h ****  * Possible options for blending opaque drawings
  88:Drivers/lvgl/src/themes/mono/../../core/../misc/lv_style.h ****  */
  89:Drivers/lvgl/src/themes/mono/../../core/../misc/lv_style.h **** typedef enum {
  90:Drivers/lvgl/src/themes/mono/../../core/../misc/lv_style.h ****     LV_BLEND_MODE_NORMAL,     /**< Simply mix according to the opacity value*/
  91:Drivers/lvgl/src/themes/mono/../../core/../misc/lv_style.h ****     LV_BLEND_MODE_ADDITIVE,   /**< Add the respective color channels*/
  92:Drivers/lvgl/src/themes/mono/../../core/../misc/lv_style.h ****     LV_BLEND_MODE_SUBTRACTIVE,/**< Subtract the foreground from the background*/
  93:Drivers/lvgl/src/themes/mono/../../core/../misc/lv_style.h ****     LV_BLEND_MODE_MULTIPLY,   /**< Multiply the foreground and background*/
  94:Drivers/lvgl/src/themes/mono/../../core/../misc/lv_style.h ****     LV_BLEND_MODE_DIFFERENCE, /**< Absolute difference between foreground and background*/
  95:Drivers/lvgl/src/themes/mono/../../core/../misc/lv_style.h **** } lv_blend_mode_t;
  96:Drivers/lvgl/src/themes/mono/../../core/../misc/lv_style.h **** 
  97:Drivers/lvgl/src/themes/mono/../../core/../misc/lv_style.h **** /**
  98:Drivers/lvgl/src/themes/mono/../../core/../misc/lv_style.h ****  * Some options to apply decorations on texts.
  99:Drivers/lvgl/src/themes/mono/../../core/../misc/lv_style.h ****  * 'OR'ed values can be used.
 100:Drivers/lvgl/src/themes/mono/../../core/../misc/lv_style.h ****  */
 101:Drivers/lvgl/src/themes/mono/../../core/../misc/lv_style.h **** typedef enum {
 102:Drivers/lvgl/src/themes/mono/../../core/../misc/lv_style.h ****     LV_TEXT_DECOR_NONE          = 0x00,
 103:Drivers/lvgl/src/themes/mono/../../core/../misc/lv_style.h ****     LV_TEXT_DECOR_UNDERLINE     = 0x01,
 104:Drivers/lvgl/src/themes/mono/../../core/../misc/lv_style.h ****     LV_TEXT_DECOR_STRIKETHROUGH = 0x02,
 105:Drivers/lvgl/src/themes/mono/../../core/../misc/lv_style.h **** } lv_text_decor_t;
 106:Drivers/lvgl/src/themes/mono/../../core/../misc/lv_style.h **** 
 107:Drivers/lvgl/src/themes/mono/../../core/../misc/lv_style.h **** /**
 108:Drivers/lvgl/src/themes/mono/../../core/../misc/lv_style.h ****  * Selects on which sides border should be drawn
 109:Drivers/lvgl/src/themes/mono/../../core/../misc/lv_style.h ****  * 'OR'ed values can be used.
 110:Drivers/lvgl/src/themes/mono/../../core/../misc/lv_style.h ****  */
 111:Drivers/lvgl/src/themes/mono/../../core/../misc/lv_style.h **** typedef enum {
 112:Drivers/lvgl/src/themes/mono/../../core/../misc/lv_style.h ****     LV_BORDER_SIDE_NONE     = 0x00,
ARM GAS  /tmp/ccJxyNGA.s 			page 40


 113:Drivers/lvgl/src/themes/mono/../../core/../misc/lv_style.h ****     LV_BORDER_SIDE_BOTTOM   = 0x01,
 114:Drivers/lvgl/src/themes/mono/../../core/../misc/lv_style.h ****     LV_BORDER_SIDE_TOP      = 0x02,
 115:Drivers/lvgl/src/themes/mono/../../core/../misc/lv_style.h ****     LV_BORDER_SIDE_LEFT     = 0x04,
 116:Drivers/lvgl/src/themes/mono/../../core/../misc/lv_style.h ****     LV_BORDER_SIDE_RIGHT    = 0x08,
 117:Drivers/lvgl/src/themes/mono/../../core/../misc/lv_style.h ****     LV_BORDER_SIDE_FULL     = 0x0F,
 118:Drivers/lvgl/src/themes/mono/../../core/../misc/lv_style.h ****     LV_BORDER_SIDE_INTERNAL = 0x10, /**< FOR matrix-like objects (e.g. Button matrix)*/
 119:Drivers/lvgl/src/themes/mono/../../core/../misc/lv_style.h **** } lv_border_side_t;
 120:Drivers/lvgl/src/themes/mono/../../core/../misc/lv_style.h **** 
 121:Drivers/lvgl/src/themes/mono/../../core/../misc/lv_style.h **** /**
 122:Drivers/lvgl/src/themes/mono/../../core/../misc/lv_style.h ****  * A common type to handle all the property types in the same way.
 123:Drivers/lvgl/src/themes/mono/../../core/../misc/lv_style.h ****  */
 124:Drivers/lvgl/src/themes/mono/../../core/../misc/lv_style.h **** typedef union {
 125:Drivers/lvgl/src/themes/mono/../../core/../misc/lv_style.h ****     int32_t num;         /**< Number integer number (opacity, enums, booleans or "normal" numbers)*
 126:Drivers/lvgl/src/themes/mono/../../core/../misc/lv_style.h ****     const void * ptr;    /**< Constant pointers  (font, cone text, etc)*/
 127:Drivers/lvgl/src/themes/mono/../../core/../misc/lv_style.h ****     lv_color_t color;    /**< Colors*/
 128:Drivers/lvgl/src/themes/mono/../../core/../misc/lv_style.h **** } lv_style_value_t;
 129:Drivers/lvgl/src/themes/mono/../../core/../misc/lv_style.h **** 
 130:Drivers/lvgl/src/themes/mono/../../core/../misc/lv_style.h **** /**
 131:Drivers/lvgl/src/themes/mono/../../core/../misc/lv_style.h ****  * Enumeration of all built in style properties
 132:Drivers/lvgl/src/themes/mono/../../core/../misc/lv_style.h ****  *
 133:Drivers/lvgl/src/themes/mono/../../core/../misc/lv_style.h ****  * Props are split into groups of 16. When adding a new prop to a group, ensure it does not overflo
 134:Drivers/lvgl/src/themes/mono/../../core/../misc/lv_style.h ****  */
 135:Drivers/lvgl/src/themes/mono/../../core/../misc/lv_style.h **** enum {
 136:Drivers/lvgl/src/themes/mono/../../core/../misc/lv_style.h ****     LV_STYLE_PROP_INV               = 0,
 137:Drivers/lvgl/src/themes/mono/../../core/../misc/lv_style.h **** 
 138:Drivers/lvgl/src/themes/mono/../../core/../misc/lv_style.h ****     /*Group 0*/
 139:Drivers/lvgl/src/themes/mono/../../core/../misc/lv_style.h ****     LV_STYLE_WIDTH                  = 1,
 140:Drivers/lvgl/src/themes/mono/../../core/../misc/lv_style.h ****     LV_STYLE_HEIGHT                 = 2,
 141:Drivers/lvgl/src/themes/mono/../../core/../misc/lv_style.h ****     LV_STYLE_LENGTH                 = 3,
 142:Drivers/lvgl/src/themes/mono/../../core/../misc/lv_style.h **** 
 143:Drivers/lvgl/src/themes/mono/../../core/../misc/lv_style.h ****     LV_STYLE_MIN_WIDTH              = 4,
 144:Drivers/lvgl/src/themes/mono/../../core/../misc/lv_style.h ****     LV_STYLE_MAX_WIDTH              = 5,
 145:Drivers/lvgl/src/themes/mono/../../core/../misc/lv_style.h ****     LV_STYLE_MIN_HEIGHT             = 6,
 146:Drivers/lvgl/src/themes/mono/../../core/../misc/lv_style.h ****     LV_STYLE_MAX_HEIGHT             = 7,
 147:Drivers/lvgl/src/themes/mono/../../core/../misc/lv_style.h **** 
 148:Drivers/lvgl/src/themes/mono/../../core/../misc/lv_style.h ****     LV_STYLE_X                      = 8,
 149:Drivers/lvgl/src/themes/mono/../../core/../misc/lv_style.h ****     LV_STYLE_Y                      = 9,
 150:Drivers/lvgl/src/themes/mono/../../core/../misc/lv_style.h ****     LV_STYLE_ALIGN                  = 10,
 151:Drivers/lvgl/src/themes/mono/../../core/../misc/lv_style.h **** 
 152:Drivers/lvgl/src/themes/mono/../../core/../misc/lv_style.h ****     LV_STYLE_RADIUS                 = 12,
 153:Drivers/lvgl/src/themes/mono/../../core/../misc/lv_style.h ****     LV_STYLE_RADIAL_OFFSET          = 13,
 154:Drivers/lvgl/src/themes/mono/../../core/../misc/lv_style.h ****     LV_STYLE_PAD_RADIAL             = 14,
 155:Drivers/lvgl/src/themes/mono/../../core/../misc/lv_style.h **** 
 156:Drivers/lvgl/src/themes/mono/../../core/../misc/lv_style.h ****     /*Group 1*/
 157:Drivers/lvgl/src/themes/mono/../../core/../misc/lv_style.h ****     LV_STYLE_PAD_TOP                = 16,
 158:Drivers/lvgl/src/themes/mono/../../core/../misc/lv_style.h ****     LV_STYLE_PAD_BOTTOM             = 17,
 159:Drivers/lvgl/src/themes/mono/../../core/../misc/lv_style.h ****     LV_STYLE_PAD_LEFT               = 18,
 160:Drivers/lvgl/src/themes/mono/../../core/../misc/lv_style.h ****     LV_STYLE_PAD_RIGHT              = 19,
 161:Drivers/lvgl/src/themes/mono/../../core/../misc/lv_style.h **** 
 162:Drivers/lvgl/src/themes/mono/../../core/../misc/lv_style.h ****     LV_STYLE_PAD_ROW                = 20,
 163:Drivers/lvgl/src/themes/mono/../../core/../misc/lv_style.h ****     LV_STYLE_PAD_COLUMN             = 21,
 164:Drivers/lvgl/src/themes/mono/../../core/../misc/lv_style.h ****     LV_STYLE_LAYOUT                 = 22,
 165:Drivers/lvgl/src/themes/mono/../../core/../misc/lv_style.h **** 
 166:Drivers/lvgl/src/themes/mono/../../core/../misc/lv_style.h ****     LV_STYLE_MARGIN_TOP             = 24,
 167:Drivers/lvgl/src/themes/mono/../../core/../misc/lv_style.h ****     LV_STYLE_MARGIN_BOTTOM          = 25,
 168:Drivers/lvgl/src/themes/mono/../../core/../misc/lv_style.h ****     LV_STYLE_MARGIN_LEFT            = 26,
 169:Drivers/lvgl/src/themes/mono/../../core/../misc/lv_style.h ****     LV_STYLE_MARGIN_RIGHT           = 27,
ARM GAS  /tmp/ccJxyNGA.s 			page 41


 170:Drivers/lvgl/src/themes/mono/../../core/../misc/lv_style.h **** 
 171:Drivers/lvgl/src/themes/mono/../../core/../misc/lv_style.h ****     /*Group 2*/
 172:Drivers/lvgl/src/themes/mono/../../core/../misc/lv_style.h ****     LV_STYLE_BG_COLOR               = 28,
 173:Drivers/lvgl/src/themes/mono/../../core/../misc/lv_style.h ****     LV_STYLE_BG_OPA                 = 29,
 174:Drivers/lvgl/src/themes/mono/../../core/../misc/lv_style.h **** 
 175:Drivers/lvgl/src/themes/mono/../../core/../misc/lv_style.h ****     LV_STYLE_BG_GRAD_DIR            = 32,
 176:Drivers/lvgl/src/themes/mono/../../core/../misc/lv_style.h ****     LV_STYLE_BG_MAIN_STOP           = 33,
 177:Drivers/lvgl/src/themes/mono/../../core/../misc/lv_style.h ****     LV_STYLE_BG_GRAD_STOP           = 34,
 178:Drivers/lvgl/src/themes/mono/../../core/../misc/lv_style.h ****     LV_STYLE_BG_GRAD_COLOR          = 35,
 179:Drivers/lvgl/src/themes/mono/../../core/../misc/lv_style.h **** 
 180:Drivers/lvgl/src/themes/mono/../../core/../misc/lv_style.h ****     LV_STYLE_BG_MAIN_OPA            = 36,
 181:Drivers/lvgl/src/themes/mono/../../core/../misc/lv_style.h ****     LV_STYLE_BG_GRAD_OPA            = 37,
 182:Drivers/lvgl/src/themes/mono/../../core/../misc/lv_style.h ****     LV_STYLE_BG_GRAD                = 38,
 183:Drivers/lvgl/src/themes/mono/../../core/../misc/lv_style.h ****     LV_STYLE_BASE_DIR               = 39,
 184:Drivers/lvgl/src/themes/mono/../../core/../misc/lv_style.h **** 
 185:Drivers/lvgl/src/themes/mono/../../core/../misc/lv_style.h ****     LV_STYLE_BG_IMAGE_SRC             = 40,
 186:Drivers/lvgl/src/themes/mono/../../core/../misc/lv_style.h ****     LV_STYLE_BG_IMAGE_OPA             = 41,
 187:Drivers/lvgl/src/themes/mono/../../core/../misc/lv_style.h ****     LV_STYLE_BG_IMAGE_RECOLOR         = 42,
 188:Drivers/lvgl/src/themes/mono/../../core/../misc/lv_style.h ****     LV_STYLE_BG_IMAGE_RECOLOR_OPA     = 43,
 189:Drivers/lvgl/src/themes/mono/../../core/../misc/lv_style.h **** 
 190:Drivers/lvgl/src/themes/mono/../../core/../misc/lv_style.h ****     LV_STYLE_BG_IMAGE_TILED           = 44,
 191:Drivers/lvgl/src/themes/mono/../../core/../misc/lv_style.h ****     LV_STYLE_CLIP_CORNER            = 45,
 192:Drivers/lvgl/src/themes/mono/../../core/../misc/lv_style.h **** 
 193:Drivers/lvgl/src/themes/mono/../../core/../misc/lv_style.h ****     /*Group 3*/
 194:Drivers/lvgl/src/themes/mono/../../core/../misc/lv_style.h ****     LV_STYLE_BORDER_WIDTH           = 48,
 195:Drivers/lvgl/src/themes/mono/../../core/../misc/lv_style.h ****     LV_STYLE_BORDER_COLOR           = 49,
 196:Drivers/lvgl/src/themes/mono/../../core/../misc/lv_style.h ****     LV_STYLE_BORDER_OPA             = 50,
 197:Drivers/lvgl/src/themes/mono/../../core/../misc/lv_style.h **** 
 198:Drivers/lvgl/src/themes/mono/../../core/../misc/lv_style.h ****     LV_STYLE_BORDER_SIDE            = 52,
 199:Drivers/lvgl/src/themes/mono/../../core/../misc/lv_style.h ****     LV_STYLE_BORDER_POST            = 53,
 200:Drivers/lvgl/src/themes/mono/../../core/../misc/lv_style.h **** 
 201:Drivers/lvgl/src/themes/mono/../../core/../misc/lv_style.h ****     LV_STYLE_OUTLINE_WIDTH          = 56,
 202:Drivers/lvgl/src/themes/mono/../../core/../misc/lv_style.h ****     LV_STYLE_OUTLINE_COLOR          = 57,
 203:Drivers/lvgl/src/themes/mono/../../core/../misc/lv_style.h ****     LV_STYLE_OUTLINE_OPA            = 58,
 204:Drivers/lvgl/src/themes/mono/../../core/../misc/lv_style.h ****     LV_STYLE_OUTLINE_PAD            = 59,
 205:Drivers/lvgl/src/themes/mono/../../core/../misc/lv_style.h **** 
 206:Drivers/lvgl/src/themes/mono/../../core/../misc/lv_style.h ****     /*Group 4*/
 207:Drivers/lvgl/src/themes/mono/../../core/../misc/lv_style.h ****     LV_STYLE_SHADOW_WIDTH           = 60,
 208:Drivers/lvgl/src/themes/mono/../../core/../misc/lv_style.h ****     LV_STYLE_SHADOW_COLOR           = 61,
 209:Drivers/lvgl/src/themes/mono/../../core/../misc/lv_style.h ****     LV_STYLE_SHADOW_OPA             = 62,
 210:Drivers/lvgl/src/themes/mono/../../core/../misc/lv_style.h **** 
 211:Drivers/lvgl/src/themes/mono/../../core/../misc/lv_style.h ****     LV_STYLE_SHADOW_OFFSET_X        = 64,
 212:Drivers/lvgl/src/themes/mono/../../core/../misc/lv_style.h ****     LV_STYLE_SHADOW_OFFSET_Y        = 65,
 213:Drivers/lvgl/src/themes/mono/../../core/../misc/lv_style.h ****     LV_STYLE_SHADOW_SPREAD          = 66,
 214:Drivers/lvgl/src/themes/mono/../../core/../misc/lv_style.h **** 
 215:Drivers/lvgl/src/themes/mono/../../core/../misc/lv_style.h ****     LV_STYLE_IMAGE_OPA                = 68,
 216:Drivers/lvgl/src/themes/mono/../../core/../misc/lv_style.h ****     LV_STYLE_IMAGE_RECOLOR            = 69,
 217:Drivers/lvgl/src/themes/mono/../../core/../misc/lv_style.h ****     LV_STYLE_IMAGE_RECOLOR_OPA        = 70,
 218:Drivers/lvgl/src/themes/mono/../../core/../misc/lv_style.h **** 
 219:Drivers/lvgl/src/themes/mono/../../core/../misc/lv_style.h ****     LV_STYLE_LINE_WIDTH             = 72,
 220:Drivers/lvgl/src/themes/mono/../../core/../misc/lv_style.h ****     LV_STYLE_LINE_DASH_WIDTH        = 73,
 221:Drivers/lvgl/src/themes/mono/../../core/../misc/lv_style.h ****     LV_STYLE_LINE_DASH_GAP          = 74,
 222:Drivers/lvgl/src/themes/mono/../../core/../misc/lv_style.h ****     LV_STYLE_LINE_ROUNDED           = 75,
 223:Drivers/lvgl/src/themes/mono/../../core/../misc/lv_style.h ****     LV_STYLE_LINE_COLOR             = 76,
 224:Drivers/lvgl/src/themes/mono/../../core/../misc/lv_style.h ****     LV_STYLE_LINE_OPA               = 77,
 225:Drivers/lvgl/src/themes/mono/../../core/../misc/lv_style.h **** 
 226:Drivers/lvgl/src/themes/mono/../../core/../misc/lv_style.h ****     /*Group 5*/
ARM GAS  /tmp/ccJxyNGA.s 			page 42


 227:Drivers/lvgl/src/themes/mono/../../core/../misc/lv_style.h ****     LV_STYLE_ARC_WIDTH              = 80,
 228:Drivers/lvgl/src/themes/mono/../../core/../misc/lv_style.h ****     LV_STYLE_ARC_ROUNDED            = 81,
 229:Drivers/lvgl/src/themes/mono/../../core/../misc/lv_style.h ****     LV_STYLE_ARC_COLOR              = 82,
 230:Drivers/lvgl/src/themes/mono/../../core/../misc/lv_style.h ****     LV_STYLE_ARC_OPA                = 83,
 231:Drivers/lvgl/src/themes/mono/../../core/../misc/lv_style.h ****     LV_STYLE_ARC_IMAGE_SRC            = 84,
 232:Drivers/lvgl/src/themes/mono/../../core/../misc/lv_style.h **** 
 233:Drivers/lvgl/src/themes/mono/../../core/../misc/lv_style.h ****     LV_STYLE_TEXT_COLOR             = 88,
 234:Drivers/lvgl/src/themes/mono/../../core/../misc/lv_style.h ****     LV_STYLE_TEXT_OPA               = 89,
 235:Drivers/lvgl/src/themes/mono/../../core/../misc/lv_style.h ****     LV_STYLE_TEXT_FONT              = 90,
 236:Drivers/lvgl/src/themes/mono/../../core/../misc/lv_style.h **** 
 237:Drivers/lvgl/src/themes/mono/../../core/../misc/lv_style.h ****     LV_STYLE_TEXT_LETTER_SPACE      = 91,
 238:Drivers/lvgl/src/themes/mono/../../core/../misc/lv_style.h ****     LV_STYLE_TEXT_LINE_SPACE        = 92,
 239:Drivers/lvgl/src/themes/mono/../../core/../misc/lv_style.h ****     LV_STYLE_TEXT_DECOR             = 93,
 240:Drivers/lvgl/src/themes/mono/../../core/../misc/lv_style.h ****     LV_STYLE_TEXT_ALIGN             = 94,
 241:Drivers/lvgl/src/themes/mono/../../core/../misc/lv_style.h ****     LV_STYLE_TEXT_OUTLINE_STROKE_WIDTH = 95,
 242:Drivers/lvgl/src/themes/mono/../../core/../misc/lv_style.h ****     LV_STYLE_TEXT_OUTLINE_STROKE_OPA   = 96,
 243:Drivers/lvgl/src/themes/mono/../../core/../misc/lv_style.h ****     LV_STYLE_TEXT_OUTLINE_STROKE_COLOR = 97,
 244:Drivers/lvgl/src/themes/mono/../../core/../misc/lv_style.h **** 
 245:Drivers/lvgl/src/themes/mono/../../core/../misc/lv_style.h ****     LV_STYLE_OPA                    = 98,
 246:Drivers/lvgl/src/themes/mono/../../core/../misc/lv_style.h ****     LV_STYLE_OPA_LAYERED            = 99,
 247:Drivers/lvgl/src/themes/mono/../../core/../misc/lv_style.h ****     LV_STYLE_COLOR_FILTER_DSC       = 100,
 248:Drivers/lvgl/src/themes/mono/../../core/../misc/lv_style.h ****     LV_STYLE_COLOR_FILTER_OPA       = 101,
 249:Drivers/lvgl/src/themes/mono/../../core/../misc/lv_style.h ****     LV_STYLE_ANIM                   = 102,
 250:Drivers/lvgl/src/themes/mono/../../core/../misc/lv_style.h ****     LV_STYLE_ANIM_DURATION          = 103,
 251:Drivers/lvgl/src/themes/mono/../../core/../misc/lv_style.h ****     LV_STYLE_TRANSITION             = 104,
 252:Drivers/lvgl/src/themes/mono/../../core/../misc/lv_style.h ****     LV_STYLE_BLEND_MODE             = 105,
 253:Drivers/lvgl/src/themes/mono/../../core/../misc/lv_style.h ****     LV_STYLE_TRANSFORM_WIDTH        = 106,
 254:Drivers/lvgl/src/themes/mono/../../core/../misc/lv_style.h ****     LV_STYLE_TRANSFORM_HEIGHT       = 107,
 255:Drivers/lvgl/src/themes/mono/../../core/../misc/lv_style.h ****     LV_STYLE_TRANSLATE_X            = 108,
 256:Drivers/lvgl/src/themes/mono/../../core/../misc/lv_style.h ****     LV_STYLE_TRANSLATE_Y            = 109,
 257:Drivers/lvgl/src/themes/mono/../../core/../misc/lv_style.h ****     LV_STYLE_TRANSFORM_SCALE_X      = 110,
 258:Drivers/lvgl/src/themes/mono/../../core/../misc/lv_style.h ****     LV_STYLE_TRANSFORM_SCALE_Y      = 111,
 259:Drivers/lvgl/src/themes/mono/../../core/../misc/lv_style.h ****     LV_STYLE_TRANSFORM_ROTATION     = 112,
 260:Drivers/lvgl/src/themes/mono/../../core/../misc/lv_style.h ****     LV_STYLE_TRANSFORM_PIVOT_X      = 113,
 261:Drivers/lvgl/src/themes/mono/../../core/../misc/lv_style.h ****     LV_STYLE_TRANSFORM_PIVOT_Y      = 114,
 262:Drivers/lvgl/src/themes/mono/../../core/../misc/lv_style.h ****     LV_STYLE_TRANSFORM_SKEW_X       = 115,
 263:Drivers/lvgl/src/themes/mono/../../core/../misc/lv_style.h ****     LV_STYLE_TRANSFORM_SKEW_Y       = 116,
 264:Drivers/lvgl/src/themes/mono/../../core/../misc/lv_style.h ****     LV_STYLE_BITMAP_MASK_SRC        = 117,
 265:Drivers/lvgl/src/themes/mono/../../core/../misc/lv_style.h ****     LV_STYLE_ROTARY_SENSITIVITY     = 118,
 266:Drivers/lvgl/src/themes/mono/../../core/../misc/lv_style.h ****     LV_STYLE_TRANSLATE_RADIAL       = 119,
 267:Drivers/lvgl/src/themes/mono/../../core/../misc/lv_style.h ****     LV_STYLE_RECOLOR                = 120,
 268:Drivers/lvgl/src/themes/mono/../../core/../misc/lv_style.h ****     LV_STYLE_RECOLOR_OPA            = 121,
 269:Drivers/lvgl/src/themes/mono/../../core/../misc/lv_style.h **** 
 270:Drivers/lvgl/src/themes/mono/../../core/../misc/lv_style.h ****     LV_STYLE_FLEX_FLOW              = 122,
 271:Drivers/lvgl/src/themes/mono/../../core/../misc/lv_style.h ****     LV_STYLE_FLEX_MAIN_PLACE        = 123,
 272:Drivers/lvgl/src/themes/mono/../../core/../misc/lv_style.h ****     LV_STYLE_FLEX_CROSS_PLACE       = 124,
 273:Drivers/lvgl/src/themes/mono/../../core/../misc/lv_style.h ****     LV_STYLE_FLEX_TRACK_PLACE       = 125,
 274:Drivers/lvgl/src/themes/mono/../../core/../misc/lv_style.h ****     LV_STYLE_FLEX_GROW              = 126,
 275:Drivers/lvgl/src/themes/mono/../../core/../misc/lv_style.h **** 
 276:Drivers/lvgl/src/themes/mono/../../core/../misc/lv_style.h ****     LV_STYLE_GRID_COLUMN_ALIGN      = 127,
 277:Drivers/lvgl/src/themes/mono/../../core/../misc/lv_style.h ****     LV_STYLE_GRID_ROW_ALIGN         = 128,
 278:Drivers/lvgl/src/themes/mono/../../core/../misc/lv_style.h ****     LV_STYLE_GRID_ROW_DSC_ARRAY     = 129,
 279:Drivers/lvgl/src/themes/mono/../../core/../misc/lv_style.h ****     LV_STYLE_GRID_COLUMN_DSC_ARRAY  = 130,
 280:Drivers/lvgl/src/themes/mono/../../core/../misc/lv_style.h ****     LV_STYLE_GRID_CELL_COLUMN_POS   = 131,
 281:Drivers/lvgl/src/themes/mono/../../core/../misc/lv_style.h ****     LV_STYLE_GRID_CELL_COLUMN_SPAN  = 132,
 282:Drivers/lvgl/src/themes/mono/../../core/../misc/lv_style.h ****     LV_STYLE_GRID_CELL_X_ALIGN      = 133,
 283:Drivers/lvgl/src/themes/mono/../../core/../misc/lv_style.h ****     LV_STYLE_GRID_CELL_ROW_POS      = 134,
ARM GAS  /tmp/ccJxyNGA.s 			page 43


 284:Drivers/lvgl/src/themes/mono/../../core/../misc/lv_style.h ****     LV_STYLE_GRID_CELL_ROW_SPAN     = 135,
 285:Drivers/lvgl/src/themes/mono/../../core/../misc/lv_style.h ****     LV_STYLE_GRID_CELL_Y_ALIGN      = 136,
 286:Drivers/lvgl/src/themes/mono/../../core/../misc/lv_style.h **** 
 287:Drivers/lvgl/src/themes/mono/../../core/../misc/lv_style.h ****     LV_STYLE_LAST_BUILT_IN_PROP     = 137,
 288:Drivers/lvgl/src/themes/mono/../../core/../misc/lv_style.h **** 
 289:Drivers/lvgl/src/themes/mono/../../core/../misc/lv_style.h ****     LV_STYLE_NUM_BUILT_IN_PROPS     = LV_STYLE_LAST_BUILT_IN_PROP + 1,
 290:Drivers/lvgl/src/themes/mono/../../core/../misc/lv_style.h **** 
 291:Drivers/lvgl/src/themes/mono/../../core/../misc/lv_style.h ****     LV_STYLE_PROP_ANY                = 0xFF,
 292:Drivers/lvgl/src/themes/mono/../../core/../misc/lv_style.h ****     LV_STYLE_PROP_CONST             = 0xFF /* magic value for const styles */
 293:Drivers/lvgl/src/themes/mono/../../core/../misc/lv_style.h **** };
 294:Drivers/lvgl/src/themes/mono/../../core/../misc/lv_style.h **** 
 295:Drivers/lvgl/src/themes/mono/../../core/../misc/lv_style.h **** typedef enum {
 296:Drivers/lvgl/src/themes/mono/../../core/../misc/lv_style.h ****     LV_STYLE_RES_NOT_FOUND,
 297:Drivers/lvgl/src/themes/mono/../../core/../misc/lv_style.h ****     LV_STYLE_RES_FOUND,
 298:Drivers/lvgl/src/themes/mono/../../core/../misc/lv_style.h **** } lv_style_res_t;
 299:Drivers/lvgl/src/themes/mono/../../core/../misc/lv_style.h **** 
 300:Drivers/lvgl/src/themes/mono/../../core/../misc/lv_style.h **** /**
 301:Drivers/lvgl/src/themes/mono/../../core/../misc/lv_style.h ****  * Descriptor for style transitions
 302:Drivers/lvgl/src/themes/mono/../../core/../misc/lv_style.h ****  */
 303:Drivers/lvgl/src/themes/mono/../../core/../misc/lv_style.h **** typedef struct {
 304:Drivers/lvgl/src/themes/mono/../../core/../misc/lv_style.h ****     const lv_style_prop_t * props; /**< An array with the properties to animate.*/
 305:Drivers/lvgl/src/themes/mono/../../core/../misc/lv_style.h ****     void * user_data;              /**< A custom user data that will be passed to the animation's u
 306:Drivers/lvgl/src/themes/mono/../../core/../misc/lv_style.h ****     lv_anim_path_cb_t path_xcb;    /**< A path for the animation.*/
 307:Drivers/lvgl/src/themes/mono/../../core/../misc/lv_style.h ****     uint32_t time;                 /**< Duration of the transition in [ms]*/
 308:Drivers/lvgl/src/themes/mono/../../core/../misc/lv_style.h ****     uint32_t delay;                /**< Delay before the transition in [ms]*/
 309:Drivers/lvgl/src/themes/mono/../../core/../misc/lv_style.h **** } lv_style_transition_dsc_t;
 310:Drivers/lvgl/src/themes/mono/../../core/../misc/lv_style.h **** 
 311:Drivers/lvgl/src/themes/mono/../../core/../misc/lv_style.h **** /**
 312:Drivers/lvgl/src/themes/mono/../../core/../misc/lv_style.h ****  * Descriptor of a constant style property.
 313:Drivers/lvgl/src/themes/mono/../../core/../misc/lv_style.h ****  */
 314:Drivers/lvgl/src/themes/mono/../../core/../misc/lv_style.h **** typedef struct {
 315:Drivers/lvgl/src/themes/mono/../../core/../misc/lv_style.h ****     lv_style_prop_t prop;
 316:Drivers/lvgl/src/themes/mono/../../core/../misc/lv_style.h ****     lv_style_value_t value;
 317:Drivers/lvgl/src/themes/mono/../../core/../misc/lv_style.h **** } lv_style_const_prop_t;
 318:Drivers/lvgl/src/themes/mono/../../core/../misc/lv_style.h **** 
 319:Drivers/lvgl/src/themes/mono/../../core/../misc/lv_style.h **** /**
 320:Drivers/lvgl/src/themes/mono/../../core/../misc/lv_style.h ****  * Descriptor of a style (a collection of properties and values).
 321:Drivers/lvgl/src/themes/mono/../../core/../misc/lv_style.h ****  */
 322:Drivers/lvgl/src/themes/mono/../../core/../misc/lv_style.h **** typedef struct {
 323:Drivers/lvgl/src/themes/mono/../../core/../misc/lv_style.h **** 
 324:Drivers/lvgl/src/themes/mono/../../core/../misc/lv_style.h **** #if LV_USE_ASSERT_STYLE
 325:Drivers/lvgl/src/themes/mono/../../core/../misc/lv_style.h ****     uint32_t sentinel;
 326:Drivers/lvgl/src/themes/mono/../../core/../misc/lv_style.h **** #endif
 327:Drivers/lvgl/src/themes/mono/../../core/../misc/lv_style.h **** 
 328:Drivers/lvgl/src/themes/mono/../../core/../misc/lv_style.h ****     void * values_and_props;
 329:Drivers/lvgl/src/themes/mono/../../core/../misc/lv_style.h **** 
 330:Drivers/lvgl/src/themes/mono/../../core/../misc/lv_style.h ****     uint32_t has_group;
 331:Drivers/lvgl/src/themes/mono/../../core/../misc/lv_style.h ****     uint8_t prop_cnt;   /**< 255 means it's a constant style*/
 332:Drivers/lvgl/src/themes/mono/../../core/../misc/lv_style.h **** } lv_style_t;
 333:Drivers/lvgl/src/themes/mono/../../core/../misc/lv_style.h **** 
 334:Drivers/lvgl/src/themes/mono/../../core/../misc/lv_style.h **** /**********************
 335:Drivers/lvgl/src/themes/mono/../../core/../misc/lv_style.h ****  * GLOBAL PROTOTYPES
 336:Drivers/lvgl/src/themes/mono/../../core/../misc/lv_style.h ****  **********************/
 337:Drivers/lvgl/src/themes/mono/../../core/../misc/lv_style.h **** 
 338:Drivers/lvgl/src/themes/mono/../../core/../misc/lv_style.h **** /**
 339:Drivers/lvgl/src/themes/mono/../../core/../misc/lv_style.h ****  * Initialize a style
 340:Drivers/lvgl/src/themes/mono/../../core/../misc/lv_style.h ****  * @param style pointer to a style to initialize
ARM GAS  /tmp/ccJxyNGA.s 			page 44


 341:Drivers/lvgl/src/themes/mono/../../core/../misc/lv_style.h ****  * @note Do not call `lv_style_init` on styles that already have some properties
 342:Drivers/lvgl/src/themes/mono/../../core/../misc/lv_style.h ****  *       because this function won't free the used memory, just sets a default state for the style.
 343:Drivers/lvgl/src/themes/mono/../../core/../misc/lv_style.h ****  *       In other words be sure to initialize styles only once!
 344:Drivers/lvgl/src/themes/mono/../../core/../misc/lv_style.h ****  */
 345:Drivers/lvgl/src/themes/mono/../../core/../misc/lv_style.h **** void lv_style_init(lv_style_t * style);
 346:Drivers/lvgl/src/themes/mono/../../core/../misc/lv_style.h **** 
 347:Drivers/lvgl/src/themes/mono/../../core/../misc/lv_style.h **** /**
 348:Drivers/lvgl/src/themes/mono/../../core/../misc/lv_style.h ****  * Clear all properties from a style and free all allocated memories.
 349:Drivers/lvgl/src/themes/mono/../../core/../misc/lv_style.h ****  * @param style pointer to a style
 350:Drivers/lvgl/src/themes/mono/../../core/../misc/lv_style.h ****  */
 351:Drivers/lvgl/src/themes/mono/../../core/../misc/lv_style.h **** void lv_style_reset(lv_style_t * style);
 352:Drivers/lvgl/src/themes/mono/../../core/../misc/lv_style.h **** 
 353:Drivers/lvgl/src/themes/mono/../../core/../misc/lv_style.h **** /**
 354:Drivers/lvgl/src/themes/mono/../../core/../misc/lv_style.h ****  * Copy all properties of a style to an other.
 355:Drivers/lvgl/src/themes/mono/../../core/../misc/lv_style.h ****  * It has the same affect callying the same `lv_set_style_...`
 356:Drivers/lvgl/src/themes/mono/../../core/../misc/lv_style.h ****  * functions on both styles.
 357:Drivers/lvgl/src/themes/mono/../../core/../misc/lv_style.h ****  * It means new memory will be allocated to store the properties in
 358:Drivers/lvgl/src/themes/mono/../../core/../misc/lv_style.h ****  * the destination style.
 359:Drivers/lvgl/src/themes/mono/../../core/../misc/lv_style.h ****  * After the copy the destination style is fully independent of the source
 360:Drivers/lvgl/src/themes/mono/../../core/../misc/lv_style.h ****  * and source can removed without affecting the destination style.
 361:Drivers/lvgl/src/themes/mono/../../core/../misc/lv_style.h ****  * @param dst   the destination to copy into (can not the a constant style)
 362:Drivers/lvgl/src/themes/mono/../../core/../misc/lv_style.h ****  * @param src   the source style to copy from.
 363:Drivers/lvgl/src/themes/mono/../../core/../misc/lv_style.h ****  */
 364:Drivers/lvgl/src/themes/mono/../../core/../misc/lv_style.h **** void lv_style_copy(lv_style_t * dst, const lv_style_t * src);
 365:Drivers/lvgl/src/themes/mono/../../core/../misc/lv_style.h **** 
 366:Drivers/lvgl/src/themes/mono/../../core/../misc/lv_style.h **** 
 367:Drivers/lvgl/src/themes/mono/../../core/../misc/lv_style.h **** /**
 368:Drivers/lvgl/src/themes/mono/../../core/../misc/lv_style.h ****  * Check if a style is constant
 369:Drivers/lvgl/src/themes/mono/../../core/../misc/lv_style.h ****  * @param style     pointer to a style
 370:Drivers/lvgl/src/themes/mono/../../core/../misc/lv_style.h ****  * @return          true: the style is constant
 371:Drivers/lvgl/src/themes/mono/../../core/../misc/lv_style.h ****  */
 372:Drivers/lvgl/src/themes/mono/../../core/../misc/lv_style.h **** static inline bool lv_style_is_const(const lv_style_t * style)
 373:Drivers/lvgl/src/themes/mono/../../core/../misc/lv_style.h **** {
 374:Drivers/lvgl/src/themes/mono/../../core/../misc/lv_style.h ****     if(style->prop_cnt == 255) return true;
 375:Drivers/lvgl/src/themes/mono/../../core/../misc/lv_style.h ****     return false;
 376:Drivers/lvgl/src/themes/mono/../../core/../misc/lv_style.h **** }
 377:Drivers/lvgl/src/themes/mono/../../core/../misc/lv_style.h **** 
 378:Drivers/lvgl/src/themes/mono/../../core/../misc/lv_style.h **** 
 379:Drivers/lvgl/src/themes/mono/../../core/../misc/lv_style.h **** /**
 380:Drivers/lvgl/src/themes/mono/../../core/../misc/lv_style.h ****  * Register a new style property for custom usage
 381:Drivers/lvgl/src/themes/mono/../../core/../misc/lv_style.h ****  * @return a new property ID, or LV_STYLE_PROP_INV if there are no more available.
 382:Drivers/lvgl/src/themes/mono/../../core/../misc/lv_style.h ****  *
 383:Drivers/lvgl/src/themes/mono/../../core/../misc/lv_style.h ****  * Example:
 384:Drivers/lvgl/src/themes/mono/../../core/../misc/lv_style.h ****  * @code
 385:Drivers/lvgl/src/themes/mono/../../core/../misc/lv_style.h ****  * lv_style_prop_t MY_PROP;
 386:Drivers/lvgl/src/themes/mono/../../core/../misc/lv_style.h ****  * static inline void lv_style_set_my_prop(lv_style_t * style, lv_color_t value) {
 387:Drivers/lvgl/src/themes/mono/../../core/../misc/lv_style.h ****  * lv_style_value_t v = {.color = value}; lv_style_set_prop(style, MY_PROP, v); }
 388:Drivers/lvgl/src/themes/mono/../../core/../misc/lv_style.h ****  *
 389:Drivers/lvgl/src/themes/mono/../../core/../misc/lv_style.h ****  * ...
 390:Drivers/lvgl/src/themes/mono/../../core/../misc/lv_style.h ****  * MY_PROP = lv_style_register_prop();
 391:Drivers/lvgl/src/themes/mono/../../core/../misc/lv_style.h ****  * ...
 392:Drivers/lvgl/src/themes/mono/../../core/../misc/lv_style.h ****  * lv_style_set_my_prop(&style1, lv_palette_main(LV_PALETTE_RED));
 393:Drivers/lvgl/src/themes/mono/../../core/../misc/lv_style.h ****  * @endcode
 394:Drivers/lvgl/src/themes/mono/../../core/../misc/lv_style.h ****  */
 395:Drivers/lvgl/src/themes/mono/../../core/../misc/lv_style.h **** lv_style_prop_t lv_style_register_prop(uint8_t flag);
 396:Drivers/lvgl/src/themes/mono/../../core/../misc/lv_style.h **** 
 397:Drivers/lvgl/src/themes/mono/../../core/../misc/lv_style.h **** /**
ARM GAS  /tmp/ccJxyNGA.s 			page 45


 398:Drivers/lvgl/src/themes/mono/../../core/../misc/lv_style.h ****  * Get the number of custom properties that have been registered thus far.
 399:Drivers/lvgl/src/themes/mono/../../core/../misc/lv_style.h ****  */
 400:Drivers/lvgl/src/themes/mono/../../core/../misc/lv_style.h **** lv_style_prop_t lv_style_get_num_custom_props(void);
 401:Drivers/lvgl/src/themes/mono/../../core/../misc/lv_style.h **** 
 402:Drivers/lvgl/src/themes/mono/../../core/../misc/lv_style.h **** /**
 403:Drivers/lvgl/src/themes/mono/../../core/../misc/lv_style.h ****  * Remove a property from a style
 404:Drivers/lvgl/src/themes/mono/../../core/../misc/lv_style.h ****  * @param style pointer to a style
 405:Drivers/lvgl/src/themes/mono/../../core/../misc/lv_style.h ****  * @param prop  a style property ORed with a state.
 406:Drivers/lvgl/src/themes/mono/../../core/../misc/lv_style.h ****  * @return true: the property was found and removed; false: the property wasn't found
 407:Drivers/lvgl/src/themes/mono/../../core/../misc/lv_style.h ****  */
 408:Drivers/lvgl/src/themes/mono/../../core/../misc/lv_style.h **** bool lv_style_remove_prop(lv_style_t * style, lv_style_prop_t prop);
 409:Drivers/lvgl/src/themes/mono/../../core/../misc/lv_style.h **** 
 410:Drivers/lvgl/src/themes/mono/../../core/../misc/lv_style.h **** /**
 411:Drivers/lvgl/src/themes/mono/../../core/../misc/lv_style.h ****  * Set the value of property in a style.
 412:Drivers/lvgl/src/themes/mono/../../core/../misc/lv_style.h ****  * This function shouldn't be used directly by the user.
 413:Drivers/lvgl/src/themes/mono/../../core/../misc/lv_style.h ****  * Instead use `lv_style_set_<prop_name>()`. E.g. `lv_style_set_bg_color()`
 414:Drivers/lvgl/src/themes/mono/../../core/../misc/lv_style.h ****  * @param style pointer to style
 415:Drivers/lvgl/src/themes/mono/../../core/../misc/lv_style.h ****  * @param prop the ID of a property (e.g. `LV_STYLE_BG_COLOR`)
 416:Drivers/lvgl/src/themes/mono/../../core/../misc/lv_style.h ****  * @param value `lv_style_value_t` variable in which a field is set according to the type of `prop`
 417:Drivers/lvgl/src/themes/mono/../../core/../misc/lv_style.h ****  */
 418:Drivers/lvgl/src/themes/mono/../../core/../misc/lv_style.h **** void lv_style_set_prop(lv_style_t * style, lv_style_prop_t prop, lv_style_value_t value);
 419:Drivers/lvgl/src/themes/mono/../../core/../misc/lv_style.h **** 
 420:Drivers/lvgl/src/themes/mono/../../core/../misc/lv_style.h **** /**
 421:Drivers/lvgl/src/themes/mono/../../core/../misc/lv_style.h ****  * Get the value of a property
 422:Drivers/lvgl/src/themes/mono/../../core/../misc/lv_style.h ****  * @param style pointer to a style
 423:Drivers/lvgl/src/themes/mono/../../core/../misc/lv_style.h ****  * @param prop  the ID of a property
 424:Drivers/lvgl/src/themes/mono/../../core/../misc/lv_style.h ****  * @param value pointer to a `lv_style_value_t` variable to store the value
 425:Drivers/lvgl/src/themes/mono/../../core/../misc/lv_style.h ****  * @return LV_RESULT_INVALID: the property wasn't found in the style (`value` is unchanged)
 426:Drivers/lvgl/src/themes/mono/../../core/../misc/lv_style.h ****  *         LV_RESULT_OK: the property was fond, and `value` is set accordingly
 427:Drivers/lvgl/src/themes/mono/../../core/../misc/lv_style.h ****  * @note For performance reasons there are no sanity check on `style`
 428:Drivers/lvgl/src/themes/mono/../../core/../misc/lv_style.h ****  */
 429:Drivers/lvgl/src/themes/mono/../../core/../misc/lv_style.h **** lv_style_res_t lv_style_get_prop(const lv_style_t * style, lv_style_prop_t prop, lv_style_value_t *
 430:Drivers/lvgl/src/themes/mono/../../core/../misc/lv_style.h **** 
 431:Drivers/lvgl/src/themes/mono/../../core/../misc/lv_style.h **** /**
 432:Drivers/lvgl/src/themes/mono/../../core/../misc/lv_style.h ****  * Initialize a transition descriptor.
 433:Drivers/lvgl/src/themes/mono/../../core/../misc/lv_style.h ****  * @param tr        pointer to a transition descriptor to initialize
 434:Drivers/lvgl/src/themes/mono/../../core/../misc/lv_style.h ****  * @param props     an array with the properties to transition. The last element must be zero.
 435:Drivers/lvgl/src/themes/mono/../../core/../misc/lv_style.h ****  * @param path_cb   an animation path (ease) callback. If `NULL` liner path will be used.
 436:Drivers/lvgl/src/themes/mono/../../core/../misc/lv_style.h ****  * @param time      duration of the transition in [ms]
 437:Drivers/lvgl/src/themes/mono/../../core/../misc/lv_style.h ****  * @param delay     delay before the transition in [ms]
 438:Drivers/lvgl/src/themes/mono/../../core/../misc/lv_style.h ****  * @param user_data any custom data that will be saved in the transition animation and will be avai
 439:Drivers/lvgl/src/themes/mono/../../core/../misc/lv_style.h ****  *
 440:Drivers/lvgl/src/themes/mono/../../core/../misc/lv_style.h ****  * Example:
 441:Drivers/lvgl/src/themes/mono/../../core/../misc/lv_style.h ****  * @code
 442:Drivers/lvgl/src/themes/mono/../../core/../misc/lv_style.h ****  * const static lv_style_prop_t trans_props[] = { LV_STYLE_BG_OPA, LV_STYLE_BG_COLOR, 0 };
 443:Drivers/lvgl/src/themes/mono/../../core/../misc/lv_style.h ****  * static lv_style_transition_dsc_t trans1;
 444:Drivers/lvgl/src/themes/mono/../../core/../misc/lv_style.h ****  * lv_style_transition_dsc_init(&trans1, trans_props, NULL, 300, 0, NULL);
 445:Drivers/lvgl/src/themes/mono/../../core/../misc/lv_style.h ****  * @endcode
 446:Drivers/lvgl/src/themes/mono/../../core/../misc/lv_style.h ****  */
 447:Drivers/lvgl/src/themes/mono/../../core/../misc/lv_style.h **** void lv_style_transition_dsc_init(lv_style_transition_dsc_t * tr, const lv_style_prop_t props[],
 448:Drivers/lvgl/src/themes/mono/../../core/../misc/lv_style.h ****                                   lv_anim_path_cb_t path_cb, uint32_t time, uint32_t delay, void * 
 449:Drivers/lvgl/src/themes/mono/../../core/../misc/lv_style.h **** 
 450:Drivers/lvgl/src/themes/mono/../../core/../misc/lv_style.h **** /**
 451:Drivers/lvgl/src/themes/mono/../../core/../misc/lv_style.h ****  * Get the default value of a property
 452:Drivers/lvgl/src/themes/mono/../../core/../misc/lv_style.h ****  * @param prop the ID of a property
 453:Drivers/lvgl/src/themes/mono/../../core/../misc/lv_style.h ****  * @return the default value
 454:Drivers/lvgl/src/themes/mono/../../core/../misc/lv_style.h ****  */
ARM GAS  /tmp/ccJxyNGA.s 			page 46


 455:Drivers/lvgl/src/themes/mono/../../core/../misc/lv_style.h **** lv_style_value_t lv_style_prop_get_default(lv_style_prop_t prop);
 456:Drivers/lvgl/src/themes/mono/../../core/../misc/lv_style.h **** 
 457:Drivers/lvgl/src/themes/mono/../../core/../misc/lv_style.h **** /**
 458:Drivers/lvgl/src/themes/mono/../../core/../misc/lv_style.h ****  * Get the value of a property
 459:Drivers/lvgl/src/themes/mono/../../core/../misc/lv_style.h ****  * @param style pointer to a style
 460:Drivers/lvgl/src/themes/mono/../../core/../misc/lv_style.h ****  * @param prop  the ID of a property
 461:Drivers/lvgl/src/themes/mono/../../core/../misc/lv_style.h ****  * @param value pointer to a `lv_style_value_t` variable to store the value
 462:Drivers/lvgl/src/themes/mono/../../core/../misc/lv_style.h ****  * @return LV_RESULT_INVALID: the property wasn't found in the style (`value` is unchanged)
 463:Drivers/lvgl/src/themes/mono/../../core/../misc/lv_style.h ****  *         LV_RESULT_OK: the property was fond, and `value` is set accordingly
 464:Drivers/lvgl/src/themes/mono/../../core/../misc/lv_style.h ****  * @note For performance reasons there are no sanity check on `style`
 465:Drivers/lvgl/src/themes/mono/../../core/../misc/lv_style.h ****  * @note This function is the same as ::lv_style_get_prop but inlined. Use it only on performance c
 466:Drivers/lvgl/src/themes/mono/../../core/../misc/lv_style.h ****  */
 467:Drivers/lvgl/src/themes/mono/../../core/../misc/lv_style.h **** static inline lv_style_res_t lv_style_get_prop_inlined(const lv_style_t * style, lv_style_prop_t pr
 468:Drivers/lvgl/src/themes/mono/../../core/../misc/lv_style.h ****                                                        lv_style_value_t * value)
 469:Drivers/lvgl/src/themes/mono/../../core/../misc/lv_style.h **** {
 470:Drivers/lvgl/src/themes/mono/../../core/../misc/lv_style.h ****     if(lv_style_is_const(style)) {
 471:Drivers/lvgl/src/themes/mono/../../core/../misc/lv_style.h ****         lv_style_const_prop_t * props = (lv_style_const_prop_t *)style->values_and_props;
 472:Drivers/lvgl/src/themes/mono/../../core/../misc/lv_style.h ****         uint32_t i;
 473:Drivers/lvgl/src/themes/mono/../../core/../misc/lv_style.h ****         for(i = 0; props[i].prop != LV_STYLE_PROP_INV; i++) {
 474:Drivers/lvgl/src/themes/mono/../../core/../misc/lv_style.h ****             if(props[i].prop == prop) {
 475:Drivers/lvgl/src/themes/mono/../../core/../misc/lv_style.h ****                 *value = props[i].value;
 476:Drivers/lvgl/src/themes/mono/../../core/../misc/lv_style.h ****                 return LV_STYLE_RES_FOUND;
 477:Drivers/lvgl/src/themes/mono/../../core/../misc/lv_style.h ****             }
 478:Drivers/lvgl/src/themes/mono/../../core/../misc/lv_style.h ****         }
 479:Drivers/lvgl/src/themes/mono/../../core/../misc/lv_style.h ****     }
 480:Drivers/lvgl/src/themes/mono/../../core/../misc/lv_style.h ****     else {
 481:Drivers/lvgl/src/themes/mono/../../core/../misc/lv_style.h ****         lv_style_prop_t * props = (lv_style_prop_t *)style->values_and_props + style->prop_cnt * si
 482:Drivers/lvgl/src/themes/mono/../../core/../misc/lv_style.h ****         uint32_t i;
 483:Drivers/lvgl/src/themes/mono/../../core/../misc/lv_style.h ****         for(i = 0; i < style->prop_cnt; i++) {
 484:Drivers/lvgl/src/themes/mono/../../core/../misc/lv_style.h ****             if(props[i] == prop) {
 485:Drivers/lvgl/src/themes/mono/../../core/../misc/lv_style.h ****                 lv_style_value_t * values = (lv_style_value_t *)style->values_and_props;
 486:Drivers/lvgl/src/themes/mono/../../core/../misc/lv_style.h ****                 *value = values[i];
 487:Drivers/lvgl/src/themes/mono/../../core/../misc/lv_style.h ****                 return LV_STYLE_RES_FOUND;
 488:Drivers/lvgl/src/themes/mono/../../core/../misc/lv_style.h ****             }
 489:Drivers/lvgl/src/themes/mono/../../core/../misc/lv_style.h ****         }
 490:Drivers/lvgl/src/themes/mono/../../core/../misc/lv_style.h ****     }
 491:Drivers/lvgl/src/themes/mono/../../core/../misc/lv_style.h ****     return LV_STYLE_RES_NOT_FOUND;
 492:Drivers/lvgl/src/themes/mono/../../core/../misc/lv_style.h **** }
 493:Drivers/lvgl/src/themes/mono/../../core/../misc/lv_style.h **** 
 494:Drivers/lvgl/src/themes/mono/../../core/../misc/lv_style.h **** /**
 495:Drivers/lvgl/src/themes/mono/../../core/../misc/lv_style.h ****  * Checks if a style is empty (has no properties)
 496:Drivers/lvgl/src/themes/mono/../../core/../misc/lv_style.h ****  * @param style pointer to a style
 497:Drivers/lvgl/src/themes/mono/../../core/../misc/lv_style.h ****  * @return true if the style is empty
 498:Drivers/lvgl/src/themes/mono/../../core/../misc/lv_style.h ****  */
 499:Drivers/lvgl/src/themes/mono/../../core/../misc/lv_style.h **** bool lv_style_is_empty(const lv_style_t * style);
 500:Drivers/lvgl/src/themes/mono/../../core/../misc/lv_style.h **** 
 501:Drivers/lvgl/src/themes/mono/../../core/../misc/lv_style.h **** /**
 502:Drivers/lvgl/src/themes/mono/../../core/../misc/lv_style.h ****  * Tell the group of a property. If the a property from a group is set in a style the (1 << group) 
 503:Drivers/lvgl/src/themes/mono/../../core/../misc/lv_style.h ****  * It allows early skipping the style if the property is not exists in the style at all.
 504:Drivers/lvgl/src/themes/mono/../../core/../misc/lv_style.h ****  * @param prop a style property
 505:Drivers/lvgl/src/themes/mono/../../core/../misc/lv_style.h ****  * @return the group [0..30] 30 means all the custom properties with index > 120
 506:Drivers/lvgl/src/themes/mono/../../core/../misc/lv_style.h ****  */
 507:Drivers/lvgl/src/themes/mono/../../core/../misc/lv_style.h **** static inline uint32_t lv_style_get_prop_group(lv_style_prop_t prop)
 508:Drivers/lvgl/src/themes/mono/../../core/../misc/lv_style.h **** {
 509:Drivers/lvgl/src/themes/mono/../../core/../misc/lv_style.h ****     uint32_t group = prop >> 2;
 510:Drivers/lvgl/src/themes/mono/../../core/../misc/lv_style.h ****     if(group > 30) group = 31;    /*The MSB marks all the custom properties*/
 511:Drivers/lvgl/src/themes/mono/../../core/../misc/lv_style.h ****     return group;
ARM GAS  /tmp/ccJxyNGA.s 			page 47


 512:Drivers/lvgl/src/themes/mono/../../core/../misc/lv_style.h **** 
 513:Drivers/lvgl/src/themes/mono/../../core/../misc/lv_style.h **** }
 514:Drivers/lvgl/src/themes/mono/../../core/../misc/lv_style.h **** 
 515:Drivers/lvgl/src/themes/mono/../../core/../misc/lv_style.h **** /**
 516:Drivers/lvgl/src/themes/mono/../../core/../misc/lv_style.h ****  * Get the flags of a built-in or custom property.
 517:Drivers/lvgl/src/themes/mono/../../core/../misc/lv_style.h ****  *
 518:Drivers/lvgl/src/themes/mono/../../core/../misc/lv_style.h ****  * @param prop a style property
 519:Drivers/lvgl/src/themes/mono/../../core/../misc/lv_style.h ****  * @return the flags of the property
 520:Drivers/lvgl/src/themes/mono/../../core/../misc/lv_style.h ****  */
 521:Drivers/lvgl/src/themes/mono/../../core/../misc/lv_style.h **** uint8_t lv_style_prop_lookup_flags(lv_style_prop_t prop);
 522:Drivers/lvgl/src/themes/mono/../../core/../misc/lv_style.h **** 
 523:Drivers/lvgl/src/themes/mono/../../core/../misc/lv_style.h **** #include "lv_style_gen.h"
 524:Drivers/lvgl/src/themes/mono/../../core/../misc/lv_style.h **** 
 525:Drivers/lvgl/src/themes/mono/../../core/../misc/lv_style.h **** static inline void lv_style_set_size(lv_style_t * style, int32_t width, int32_t height)
 526:Drivers/lvgl/src/themes/mono/../../core/../misc/lv_style.h **** {
 527:Drivers/lvgl/src/themes/mono/../../core/../misc/lv_style.h ****     lv_style_set_width(style, width);
 528:Drivers/lvgl/src/themes/mono/../../core/../misc/lv_style.h ****     lv_style_set_height(style, height);
 529:Drivers/lvgl/src/themes/mono/../../core/../misc/lv_style.h **** }
 530:Drivers/lvgl/src/themes/mono/../../core/../misc/lv_style.h **** 
 531:Drivers/lvgl/src/themes/mono/../../core/../misc/lv_style.h **** static inline void lv_style_set_pad_all(lv_style_t * style, int32_t value)
 532:Drivers/lvgl/src/themes/mono/../../core/../misc/lv_style.h **** {
 533:Drivers/lvgl/src/themes/mono/../../core/../misc/lv_style.h ****     lv_style_set_pad_left(style, value);
 534:Drivers/lvgl/src/themes/mono/../../core/../misc/lv_style.h ****     lv_style_set_pad_right(style, value);
 535:Drivers/lvgl/src/themes/mono/../../core/../misc/lv_style.h ****     lv_style_set_pad_top(style, value);
 536:Drivers/lvgl/src/themes/mono/../../core/../misc/lv_style.h ****     lv_style_set_pad_bottom(style, value);
 537:Drivers/lvgl/src/themes/mono/../../core/../misc/lv_style.h **** }
 538:Drivers/lvgl/src/themes/mono/../../core/../misc/lv_style.h **** 
 539:Drivers/lvgl/src/themes/mono/../../core/../misc/lv_style.h **** static inline void lv_style_set_pad_hor(lv_style_t * style, int32_t value)
 540:Drivers/lvgl/src/themes/mono/../../core/../misc/lv_style.h **** {
 541:Drivers/lvgl/src/themes/mono/../../core/../misc/lv_style.h ****     lv_style_set_pad_left(style, value);
 542:Drivers/lvgl/src/themes/mono/../../core/../misc/lv_style.h ****     lv_style_set_pad_right(style, value);
 543:Drivers/lvgl/src/themes/mono/../../core/../misc/lv_style.h **** }
 544:Drivers/lvgl/src/themes/mono/../../core/../misc/lv_style.h **** 
 545:Drivers/lvgl/src/themes/mono/../../core/../misc/lv_style.h **** static inline void lv_style_set_pad_ver(lv_style_t * style, int32_t value)
 546:Drivers/lvgl/src/themes/mono/../../core/../misc/lv_style.h **** {
 547:Drivers/lvgl/src/themes/mono/../../core/../misc/lv_style.h ****     lv_style_set_pad_top(style, value);
 548:Drivers/lvgl/src/themes/mono/../../core/../misc/lv_style.h ****     lv_style_set_pad_bottom(style, value);
 549:Drivers/lvgl/src/themes/mono/../../core/../misc/lv_style.h **** }
 550:Drivers/lvgl/src/themes/mono/../../core/../misc/lv_style.h **** 
 551:Drivers/lvgl/src/themes/mono/../../core/../misc/lv_style.h **** static inline void lv_style_set_pad_gap(lv_style_t * style, int32_t value)
 552:Drivers/lvgl/src/themes/mono/../../core/../misc/lv_style.h **** {
 1345              		.loc 2 552 1 view -0
 1346              		.cfi_startproc
 1347              		@ args = 0, pretend = 0, frame = 0
 1348              		@ frame_needed = 0, uses_anonymous_args = 0
 1349              		.loc 2 552 1 is_stmt 0 view .LVU273
 1350 0000 38B5     		push	{r3, r4, r5, lr}
 1351              	.LCFI1:
 1352              		.cfi_def_cfa_offset 16
 1353              		.cfi_offset 3, -16
 1354              		.cfi_offset 4, -12
 1355              		.cfi_offset 5, -8
 1356              		.cfi_offset 14, -4
 1357 0002 0446     		mov	r4, r0
 1358 0004 0D46     		mov	r5, r1
 553:Drivers/lvgl/src/themes/mono/../../core/../misc/lv_style.h ****     lv_style_set_pad_row(style, value);
 1359              		.loc 2 553 5 is_stmt 1 view .LVU274
ARM GAS  /tmp/ccJxyNGA.s 			page 48


 1360 0006 FFF7FEFF 		bl	lv_style_set_pad_row
 1361              	.LVL197:
 554:Drivers/lvgl/src/themes/mono/../../core/../misc/lv_style.h ****     lv_style_set_pad_column(style, value);
 1362              		.loc 2 554 5 view .LVU275
 1363 000a 2946     		mov	r1, r5
 1364 000c 2046     		mov	r0, r4
 1365 000e FFF7FEFF 		bl	lv_style_set_pad_column
 1366              	.LVL198:
 555:Drivers/lvgl/src/themes/mono/../../core/../misc/lv_style.h **** }
 1367              		.loc 2 555 1 is_stmt 0 view .LVU276
 1368 0012 38BD     		pop	{r3, r4, r5, pc}
 1369              		.loc 2 555 1 view .LVU277
 1370              		.cfi_endproc
 1371              	.LFE12:
 1373              		.section	.text.lv_style_set_pad_all,"ax",%progbits
 1374              		.align	1
 1375              		.syntax unified
 1376              		.thumb
 1377              		.thumb_func
 1379              	lv_style_set_pad_all:
 1380              	.LVL199:
 1381              	.LFB9:
 532:Drivers/lvgl/src/themes/mono/../../core/../misc/lv_style.h ****     lv_style_set_pad_left(style, value);
 1382              		.loc 2 532 1 is_stmt 1 view -0
 1383              		.cfi_startproc
 1384              		@ args = 0, pretend = 0, frame = 0
 1385              		@ frame_needed = 0, uses_anonymous_args = 0
 532:Drivers/lvgl/src/themes/mono/../../core/../misc/lv_style.h ****     lv_style_set_pad_left(style, value);
 1386              		.loc 2 532 1 is_stmt 0 view .LVU279
 1387 0000 38B5     		push	{r3, r4, r5, lr}
 1388              	.LCFI2:
 1389              		.cfi_def_cfa_offset 16
 1390              		.cfi_offset 3, -16
 1391              		.cfi_offset 4, -12
 1392              		.cfi_offset 5, -8
 1393              		.cfi_offset 14, -4
 1394 0002 0446     		mov	r4, r0
 1395 0004 0D46     		mov	r5, r1
 533:Drivers/lvgl/src/themes/mono/../../core/../misc/lv_style.h ****     lv_style_set_pad_right(style, value);
 1396              		.loc 2 533 5 is_stmt 1 view .LVU280
 1397 0006 FFF7FEFF 		bl	lv_style_set_pad_left
 1398              	.LVL200:
 534:Drivers/lvgl/src/themes/mono/../../core/../misc/lv_style.h ****     lv_style_set_pad_top(style, value);
 1399              		.loc 2 534 5 view .LVU281
 1400 000a 2946     		mov	r1, r5
 1401 000c 2046     		mov	r0, r4
 1402 000e FFF7FEFF 		bl	lv_style_set_pad_right
 1403              	.LVL201:
 535:Drivers/lvgl/src/themes/mono/../../core/../misc/lv_style.h ****     lv_style_set_pad_bottom(style, value);
 1404              		.loc 2 535 5 view .LVU282
 1405 0012 2946     		mov	r1, r5
 1406 0014 2046     		mov	r0, r4
 1407 0016 FFF7FEFF 		bl	lv_style_set_pad_top
 1408              	.LVL202:
 536:Drivers/lvgl/src/themes/mono/../../core/../misc/lv_style.h **** }
 1409              		.loc 2 536 5 view .LVU283
 1410 001a 2946     		mov	r1, r5
ARM GAS  /tmp/ccJxyNGA.s 			page 49


 1411 001c 2046     		mov	r0, r4
 1412 001e FFF7FEFF 		bl	lv_style_set_pad_bottom
 1413              	.LVL203:
 537:Drivers/lvgl/src/themes/mono/../../core/../misc/lv_style.h **** 
 1414              		.loc 2 537 1 is_stmt 0 view .LVU284
 1415 0022 38BD     		pop	{r3, r4, r5, pc}
 537:Drivers/lvgl/src/themes/mono/../../core/../misc/lv_style.h **** 
 1416              		.loc 2 537 1 view .LVU285
 1417              		.cfi_endproc
 1418              	.LFE9:
 1420              		.section	.text.lv_theme_mono_is_inited,"ax",%progbits
 1421              		.align	1
 1422              		.global	lv_theme_mono_is_inited
 1423              		.syntax unified
 1424              		.thumb
 1425              		.thumb_func
 1427              	lv_theme_mono_is_inited:
 1428              	.LFB194:
 184:Drivers/lvgl/src/themes/mono/lv_theme_mono.c ****     my_theme_t * theme = theme_def;
 1429              		.loc 1 184 1 is_stmt 1 view -0
 1430              		.cfi_startproc
 1431              		@ args = 0, pretend = 0, frame = 0
 1432              		@ frame_needed = 0, uses_anonymous_args = 0
 1433              		@ link register save eliminated.
 185:Drivers/lvgl/src/themes/mono/lv_theme_mono.c ****     if(theme == NULL) return false;
 1434              		.loc 1 185 5 view .LVU287
 185:Drivers/lvgl/src/themes/mono/lv_theme_mono.c ****     if(theme == NULL) return false;
 1435              		.loc 1 185 18 is_stmt 0 view .LVU288
 1436 0000 044B     		ldr	r3, .L54
 1437 0002 D3F8C031 		ldr	r3, [r3, #448]
 1438              	.LVL204:
 186:Drivers/lvgl/src/themes/mono/lv_theme_mono.c ****     return theme->inited;
 1439              		.loc 1 186 5 is_stmt 1 view .LVU289
 186:Drivers/lvgl/src/themes/mono/lv_theme_mono.c ****     return theme->inited;
 1440              		.loc 1 186 7 is_stmt 0 view .LVU290
 1441 0006 13B1     		cbz	r3, .L53
 187:Drivers/lvgl/src/themes/mono/lv_theme_mono.c **** }
 1442              		.loc 1 187 5 is_stmt 1 view .LVU291
 187:Drivers/lvgl/src/themes/mono/lv_theme_mono.c **** }
 1443              		.loc 1 187 17 is_stmt 0 view .LVU292
 1444 0008 93F8F400 		ldrb	r0, [r3, #244]	@ zero_extendqisi2
 1445 000c 7047     		bx	lr
 1446              	.L53:
 186:Drivers/lvgl/src/themes/mono/lv_theme_mono.c ****     return theme->inited;
 1447              		.loc 1 186 30 discriminator 1 view .LVU293
 1448 000e 0020     		movs	r0, #0
 188:Drivers/lvgl/src/themes/mono/lv_theme_mono.c **** 
 1449              		.loc 1 188 1 view .LVU294
 1450 0010 7047     		bx	lr
 1451              	.L55:
 1452 0012 00BF     		.align	2
 1453              	.L54:
 1454 0014 00000000 		.word	lv_global
 1455              		.cfi_endproc
 1456              	.LFE194:
 1458              		.section	.text.style_init_reset,"ax",%progbits
 1459              		.align	1
ARM GAS  /tmp/ccJxyNGA.s 			page 50


 1460              		.syntax unified
 1461              		.thumb
 1462              		.thumb_func
 1464              	style_init_reset:
 1465              	.LVL205:
 1466              	.LFB198:
 517:Drivers/lvgl/src/themes/mono/lv_theme_mono.c **** 
 518:Drivers/lvgl/src/themes/mono/lv_theme_mono.c **** /**********************
 519:Drivers/lvgl/src/themes/mono/lv_theme_mono.c ****  *   STATIC FUNCTIONS
 520:Drivers/lvgl/src/themes/mono/lv_theme_mono.c ****  **********************/
 521:Drivers/lvgl/src/themes/mono/lv_theme_mono.c **** 
 522:Drivers/lvgl/src/themes/mono/lv_theme_mono.c **** static void style_init_reset(lv_style_t * style)
 523:Drivers/lvgl/src/themes/mono/lv_theme_mono.c **** {
 1467              		.loc 1 523 1 is_stmt 1 view -0
 1468              		.cfi_startproc
 1469              		@ args = 0, pretend = 0, frame = 0
 1470              		@ frame_needed = 0, uses_anonymous_args = 0
 1471              		.loc 1 523 1 is_stmt 0 view .LVU296
 1472 0000 10B5     		push	{r4, lr}
 1473              	.LCFI3:
 1474              		.cfi_def_cfa_offset 8
 1475              		.cfi_offset 4, -8
 1476              		.cfi_offset 14, -4
 1477 0002 0446     		mov	r4, r0
 524:Drivers/lvgl/src/themes/mono/lv_theme_mono.c ****     if(lv_theme_mono_is_inited()) {
 1478              		.loc 1 524 5 is_stmt 1 view .LVU297
 1479              		.loc 1 524 8 is_stmt 0 view .LVU298
 1480 0004 FFF7FEFF 		bl	lv_theme_mono_is_inited
 1481              	.LVL206:
 1482              		.loc 1 524 7 discriminator 1 view .LVU299
 1483 0008 18B1     		cbz	r0, .L57
 525:Drivers/lvgl/src/themes/mono/lv_theme_mono.c ****         lv_style_reset(style);
 1484              		.loc 1 525 9 is_stmt 1 view .LVU300
 1485 000a 2046     		mov	r0, r4
 1486 000c FFF7FEFF 		bl	lv_style_reset
 1487              	.LVL207:
 1488              	.L56:
 526:Drivers/lvgl/src/themes/mono/lv_theme_mono.c ****     }
 527:Drivers/lvgl/src/themes/mono/lv_theme_mono.c ****     else {
 528:Drivers/lvgl/src/themes/mono/lv_theme_mono.c ****         lv_style_init(style);
 529:Drivers/lvgl/src/themes/mono/lv_theme_mono.c ****     }
 530:Drivers/lvgl/src/themes/mono/lv_theme_mono.c **** }
 1489              		.loc 1 530 1 is_stmt 0 view .LVU301
 1490 0010 10BD     		pop	{r4, pc}
 1491              	.LVL208:
 1492              	.L57:
 528:Drivers/lvgl/src/themes/mono/lv_theme_mono.c ****     }
 1493              		.loc 1 528 9 is_stmt 1 view .LVU302
 1494 0012 2046     		mov	r0, r4
 1495 0014 FFF7FEFF 		bl	lv_style_init
 1496              	.LVL209:
 1497              		.loc 1 530 1 is_stmt 0 view .LVU303
 1498 0018 FAE7     		b	.L56
 1499              		.cfi_endproc
 1500              	.LFE198:
 1502              		.section	.text.style_init,"ax",%progbits
 1503              		.align	1
ARM GAS  /tmp/ccJxyNGA.s 			page 51


 1504              		.syntax unified
 1505              		.thumb
 1506              		.thumb_func
 1508              	style_init:
 1509              	.LVL210:
 1510              	.LFB193:
  87:Drivers/lvgl/src/themes/mono/lv_theme_mono.c ****     style_init_reset(&theme->styles.scrollbar);
 1511              		.loc 1 87 1 is_stmt 1 view -0
 1512              		.cfi_startproc
 1513              		@ args = 0, pretend = 0, frame = 72
 1514              		@ frame_needed = 0, uses_anonymous_args = 0
  87:Drivers/lvgl/src/themes/mono/lv_theme_mono.c ****     style_init_reset(&theme->styles.scrollbar);
 1515              		.loc 1 87 1 is_stmt 0 view .LVU305
 1516 0000 F0B5     		push	{r4, r5, r6, r7, lr}
 1517              	.LCFI4:
 1518              		.cfi_def_cfa_offset 20
 1519              		.cfi_offset 4, -20
 1520              		.cfi_offset 5, -16
 1521              		.cfi_offset 6, -12
 1522              		.cfi_offset 7, -8
 1523              		.cfi_offset 14, -4
 1524 0002 93B0     		sub	sp, sp, #76
 1525              	.LCFI5:
 1526              		.cfi_def_cfa_offset 96
 1527 0004 0446     		mov	r4, r0
 1528 0006 0D46     		mov	r5, r1
 1529 0008 1746     		mov	r7, r2
  88:Drivers/lvgl/src/themes/mono/lv_theme_mono.c ****     lv_style_set_bg_opa(&theme->styles.scrollbar, LV_OPA_COVER);
 1530              		.loc 1 88 5 is_stmt 1 view .LVU306
 1531 000a 00F14006 		add	r6, r0, #64
 1532 000e 3046     		mov	r0, r6
 1533              	.LVL211:
  88:Drivers/lvgl/src/themes/mono/lv_theme_mono.c ****     lv_style_set_bg_opa(&theme->styles.scrollbar, LV_OPA_COVER);
 1534              		.loc 1 88 5 is_stmt 0 view .LVU307
 1535 0010 FFF7FEFF 		bl	style_init_reset
 1536              	.LVL212:
  89:Drivers/lvgl/src/themes/mono/lv_theme_mono.c ****     lv_style_set_bg_color(&theme->styles.scrollbar, COLOR_FG);
 1537              		.loc 1 89 5 is_stmt 1 view .LVU308
 1538 0014 FF21     		movs	r1, #255
 1539 0016 3046     		mov	r0, r6
 1540 0018 FFF7FEFF 		bl	lv_style_set_bg_opa
 1541              	.LVL213:
  90:Drivers/lvgl/src/themes/mono/lv_theme_mono.c ****     lv_style_set_width(&theme->styles.scrollbar,  PAD_DEF);
 1542              		.loc 1 90 5 view .LVU309
 1543 001c 002D     		cmp	r5, #0
 1544 001e 00F02C82 		beq	.L61
  90:Drivers/lvgl/src/themes/mono/lv_theme_mono.c ****     lv_style_set_width(&theme->styles.scrollbar,  PAD_DEF);
 1545              		.loc 1 90 53 is_stmt 0 discriminator 1 view .LVU310
 1546 0022 FFF7FEFF 		bl	lv_color_white
 1547              	.LVL214:
 1548 0026 8DF80400 		strb	r0, [sp, #4]
 1549 002a C0F30723 		ubfx	r3, r0, #8, #8
 1550 002e 8DF80530 		strb	r3, [sp, #5]
 1551 0032 C0F30740 		ubfx	r0, r0, #16, #8
 1552 0036 8DF80600 		strb	r0, [sp, #6]
 1553              	.L62:
  90:Drivers/lvgl/src/themes/mono/lv_theme_mono.c ****     lv_style_set_width(&theme->styles.scrollbar,  PAD_DEF);
ARM GAS  /tmp/ccJxyNGA.s 			page 52


 1554              		.loc 1 90 5 discriminator 4 view .LVU311
 1555 003a 0199     		ldr	r1, [sp, #4]
 1556 003c 3046     		mov	r0, r6
 1557 003e FFF7FEFF 		bl	lv_style_set_bg_color
 1558              	.LVL215:
  91:Drivers/lvgl/src/themes/mono/lv_theme_mono.c **** 
 1559              		.loc 1 91 5 is_stmt 1 view .LVU312
 1560 0042 0421     		movs	r1, #4
 1561 0044 3046     		mov	r0, r6
 1562 0046 FFF7FEFF 		bl	lv_style_set_width
 1563              	.LVL216:
  93:Drivers/lvgl/src/themes/mono/lv_theme_mono.c ****     lv_style_set_bg_opa(&theme->styles.scr, LV_OPA_COVER);
 1564              		.loc 1 93 5 view .LVU313
 1565 004a 04F12806 		add	r6, r4, #40
 1566 004e 3046     		mov	r0, r6
 1567 0050 FFF7FEFF 		bl	style_init_reset
 1568              	.LVL217:
  94:Drivers/lvgl/src/themes/mono/lv_theme_mono.c ****     lv_style_set_bg_color(&theme->styles.scr, COLOR_BG);
 1569              		.loc 1 94 5 view .LVU314
 1570 0054 FF21     		movs	r1, #255
 1571 0056 3046     		mov	r0, r6
 1572 0058 FFF7FEFF 		bl	lv_style_set_bg_opa
 1573              	.LVL218:
  95:Drivers/lvgl/src/themes/mono/lv_theme_mono.c ****     lv_style_set_text_color(&theme->styles.scr, COLOR_FG);
 1574              		.loc 1 95 5 view .LVU315
 1575 005c 002D     		cmp	r5, #0
 1576 005e 00F01982 		beq	.L63
  95:Drivers/lvgl/src/themes/mono/lv_theme_mono.c ****     lv_style_set_text_color(&theme->styles.scr, COLOR_FG);
 1577              		.loc 1 95 47 is_stmt 0 discriminator 1 view .LVU316
 1578 0062 FFF7FEFF 		bl	lv_color_black
 1579              	.LVL219:
 1580 0066 8DF80800 		strb	r0, [sp, #8]
 1581 006a C0F30723 		ubfx	r3, r0, #8, #8
 1582 006e 8DF80930 		strb	r3, [sp, #9]
 1583 0072 C0F30740 		ubfx	r0, r0, #16, #8
 1584 0076 8DF80A00 		strb	r0, [sp, #10]
 1585              	.L64:
  95:Drivers/lvgl/src/themes/mono/lv_theme_mono.c ****     lv_style_set_text_color(&theme->styles.scr, COLOR_FG);
 1586              		.loc 1 95 5 discriminator 4 view .LVU317
 1587 007a 0299     		ldr	r1, [sp, #8]
 1588 007c 3046     		mov	r0, r6
 1589 007e FFF7FEFF 		bl	lv_style_set_bg_color
 1590              	.LVL220:
  96:Drivers/lvgl/src/themes/mono/lv_theme_mono.c ****     lv_style_set_pad_row(&theme->styles.scr, PAD_DEF);
 1591              		.loc 1 96 5 is_stmt 1 view .LVU318
 1592 0082 002D     		cmp	r5, #0
 1593 0084 00F01382 		beq	.L65
  96:Drivers/lvgl/src/themes/mono/lv_theme_mono.c ****     lv_style_set_pad_row(&theme->styles.scr, PAD_DEF);
 1594              		.loc 1 96 49 is_stmt 0 discriminator 1 view .LVU319
 1595 0088 FFF7FEFF 		bl	lv_color_white
 1596              	.LVL221:
 1597 008c 8DF80C00 		strb	r0, [sp, #12]
 1598 0090 C0F30723 		ubfx	r3, r0, #8, #8
 1599 0094 8DF80D30 		strb	r3, [sp, #13]
 1600 0098 C0F30740 		ubfx	r0, r0, #16, #8
 1601 009c 8DF80E00 		strb	r0, [sp, #14]
 1602              	.L66:
ARM GAS  /tmp/ccJxyNGA.s 			page 53


  96:Drivers/lvgl/src/themes/mono/lv_theme_mono.c ****     lv_style_set_pad_row(&theme->styles.scr, PAD_DEF);
 1603              		.loc 1 96 5 discriminator 4 view .LVU320
 1604 00a0 0399     		ldr	r1, [sp, #12]
 1605 00a2 3046     		mov	r0, r6
 1606 00a4 FFF7FEFF 		bl	lv_style_set_text_color
 1607              	.LVL222:
  97:Drivers/lvgl/src/themes/mono/lv_theme_mono.c ****     lv_style_set_pad_column(&theme->styles.scr, PAD_DEF);
 1608              		.loc 1 97 5 is_stmt 1 view .LVU321
 1609 00a8 0421     		movs	r1, #4
 1610 00aa 3046     		mov	r0, r6
 1611 00ac FFF7FEFF 		bl	lv_style_set_pad_row
 1612              	.LVL223:
  98:Drivers/lvgl/src/themes/mono/lv_theme_mono.c ****     lv_style_set_text_font(&theme->styles.scr, font);
 1613              		.loc 1 98 5 view .LVU322
 1614 00b0 0421     		movs	r1, #4
 1615 00b2 3046     		mov	r0, r6
 1616 00b4 FFF7FEFF 		bl	lv_style_set_pad_column
 1617              	.LVL224:
  99:Drivers/lvgl/src/themes/mono/lv_theme_mono.c **** 
 1618              		.loc 1 99 5 view .LVU323
 1619 00b8 3946     		mov	r1, r7
 1620 00ba 3046     		mov	r0, r6
 1621 00bc FFF7FEFF 		bl	lv_style_set_text_font
 1622              	.LVL225:
 101:Drivers/lvgl/src/themes/mono/lv_theme_mono.c ****     lv_style_set_bg_opa(&theme->styles.card, LV_OPA_COVER);
 1623              		.loc 1 101 5 view .LVU324
 1624 00c0 04F13406 		add	r6, r4, #52
 1625 00c4 3046     		mov	r0, r6
 1626 00c6 FFF7FEFF 		bl	style_init_reset
 1627              	.LVL226:
 102:Drivers/lvgl/src/themes/mono/lv_theme_mono.c ****     lv_style_set_bg_color(&theme->styles.card, COLOR_BG);
 1628              		.loc 1 102 5 view .LVU325
 1629 00ca FF21     		movs	r1, #255
 1630 00cc 3046     		mov	r0, r6
 1631 00ce FFF7FEFF 		bl	lv_style_set_bg_opa
 1632              	.LVL227:
 103:Drivers/lvgl/src/themes/mono/lv_theme_mono.c ****     lv_style_set_border_color(&theme->styles.card, COLOR_FG);
 1633              		.loc 1 103 5 view .LVU326
 1634 00d2 002D     		cmp	r5, #0
 1635 00d4 00F0F881 		beq	.L67
 103:Drivers/lvgl/src/themes/mono/lv_theme_mono.c ****     lv_style_set_border_color(&theme->styles.card, COLOR_FG);
 1636              		.loc 1 103 48 is_stmt 0 discriminator 1 view .LVU327
 1637 00d8 FFF7FEFF 		bl	lv_color_black
 1638              	.LVL228:
 1639 00dc 8DF81000 		strb	r0, [sp, #16]
 1640 00e0 C0F30723 		ubfx	r3, r0, #8, #8
 1641 00e4 8DF81130 		strb	r3, [sp, #17]
 1642 00e8 C0F30740 		ubfx	r0, r0, #16, #8
 1643 00ec 8DF81200 		strb	r0, [sp, #18]
 1644              	.L68:
 103:Drivers/lvgl/src/themes/mono/lv_theme_mono.c ****     lv_style_set_border_color(&theme->styles.card, COLOR_FG);
 1645              		.loc 1 103 5 discriminator 4 view .LVU328
 1646 00f0 0499     		ldr	r1, [sp, #16]
 1647 00f2 3046     		mov	r0, r6
 1648 00f4 FFF7FEFF 		bl	lv_style_set_bg_color
 1649              	.LVL229:
 104:Drivers/lvgl/src/themes/mono/lv_theme_mono.c ****     lv_style_set_radius(&theme->styles.card, 2);
ARM GAS  /tmp/ccJxyNGA.s 			page 54


 1650              		.loc 1 104 5 is_stmt 1 view .LVU329
 1651 00f8 002D     		cmp	r5, #0
 1652 00fa 00F0F281 		beq	.L69
 104:Drivers/lvgl/src/themes/mono/lv_theme_mono.c ****     lv_style_set_radius(&theme->styles.card, 2);
 1653              		.loc 1 104 52 is_stmt 0 discriminator 1 view .LVU330
 1654 00fe FFF7FEFF 		bl	lv_color_white
 1655              	.LVL230:
 1656 0102 8DF81400 		strb	r0, [sp, #20]
 1657 0106 C0F30723 		ubfx	r3, r0, #8, #8
 1658 010a 8DF81530 		strb	r3, [sp, #21]
 1659 010e C0F30740 		ubfx	r0, r0, #16, #8
 1660 0112 8DF81600 		strb	r0, [sp, #22]
 1661              	.L70:
 104:Drivers/lvgl/src/themes/mono/lv_theme_mono.c ****     lv_style_set_radius(&theme->styles.card, 2);
 1662              		.loc 1 104 5 discriminator 4 view .LVU331
 1663 0116 0599     		ldr	r1, [sp, #20]
 1664 0118 3046     		mov	r0, r6
 1665 011a FFF7FEFF 		bl	lv_style_set_border_color
 1666              	.LVL231:
 105:Drivers/lvgl/src/themes/mono/lv_theme_mono.c ****     lv_style_set_border_width(&theme->styles.card, BORDER_W_NORMAL);
 1667              		.loc 1 105 5 is_stmt 1 view .LVU332
 1668 011e 0221     		movs	r1, #2
 1669 0120 3046     		mov	r0, r6
 1670 0122 FFF7FEFF 		bl	lv_style_set_radius
 1671              	.LVL232:
 106:Drivers/lvgl/src/themes/mono/lv_theme_mono.c ****     lv_style_set_pad_all(&theme->styles.card, PAD_DEF);
 1672              		.loc 1 106 5 view .LVU333
 1673 0126 0121     		movs	r1, #1
 1674 0128 3046     		mov	r0, r6
 1675 012a FFF7FEFF 		bl	lv_style_set_border_width
 1676              	.LVL233:
 107:Drivers/lvgl/src/themes/mono/lv_theme_mono.c ****     lv_style_set_pad_gap(&theme->styles.card, PAD_DEF);
 1677              		.loc 1 107 5 view .LVU334
 1678 012e 0421     		movs	r1, #4
 1679 0130 3046     		mov	r0, r6
 1680 0132 FFF7FEFF 		bl	lv_style_set_pad_all
 1681              	.LVL234:
 108:Drivers/lvgl/src/themes/mono/lv_theme_mono.c ****     lv_style_set_text_color(&theme->styles.card, COLOR_FG);
 1682              		.loc 1 108 5 view .LVU335
 1683 0136 0421     		movs	r1, #4
 1684 0138 3046     		mov	r0, r6
 1685 013a FFF7FEFF 		bl	lv_style_set_pad_gap
 1686              	.LVL235:
 109:Drivers/lvgl/src/themes/mono/lv_theme_mono.c ****     lv_style_set_line_width(&theme->styles.card, 2);
 1687              		.loc 1 109 5 view .LVU336
 1688 013e 002D     		cmp	r5, #0
 1689 0140 00F0DC81 		beq	.L71
 109:Drivers/lvgl/src/themes/mono/lv_theme_mono.c ****     lv_style_set_line_width(&theme->styles.card, 2);
 1690              		.loc 1 109 50 is_stmt 0 discriminator 1 view .LVU337
 1691 0144 FFF7FEFF 		bl	lv_color_white
 1692              	.LVL236:
 1693 0148 8DF81800 		strb	r0, [sp, #24]
 1694 014c C0F30723 		ubfx	r3, r0, #8, #8
 1695 0150 8DF81930 		strb	r3, [sp, #25]
 1696 0154 C0F30740 		ubfx	r0, r0, #16, #8
 1697 0158 8DF81A00 		strb	r0, [sp, #26]
 1698              	.L72:
ARM GAS  /tmp/ccJxyNGA.s 			page 55


 109:Drivers/lvgl/src/themes/mono/lv_theme_mono.c ****     lv_style_set_line_width(&theme->styles.card, 2);
 1699              		.loc 1 109 5 discriminator 4 view .LVU338
 1700 015c 0699     		ldr	r1, [sp, #24]
 1701 015e 3046     		mov	r0, r6
 1702 0160 FFF7FEFF 		bl	lv_style_set_text_color
 1703              	.LVL237:
 110:Drivers/lvgl/src/themes/mono/lv_theme_mono.c ****     lv_style_set_line_color(&theme->styles.card, COLOR_FG);
 1704              		.loc 1 110 5 is_stmt 1 view .LVU339
 1705 0164 0221     		movs	r1, #2
 1706 0166 3046     		mov	r0, r6
 1707 0168 FFF7FEFF 		bl	lv_style_set_line_width
 1708              	.LVL238:
 111:Drivers/lvgl/src/themes/mono/lv_theme_mono.c ****     lv_style_set_arc_width(&theme->styles.card, 2);
 1709              		.loc 1 111 5 view .LVU340
 1710 016c 002D     		cmp	r5, #0
 1711 016e 00F0D281 		beq	.L73
 111:Drivers/lvgl/src/themes/mono/lv_theme_mono.c ****     lv_style_set_arc_width(&theme->styles.card, 2);
 1712              		.loc 1 111 50 is_stmt 0 discriminator 1 view .LVU341
 1713 0172 FFF7FEFF 		bl	lv_color_white
 1714              	.LVL239:
 1715 0176 8DF81C00 		strb	r0, [sp, #28]
 1716 017a C0F30723 		ubfx	r3, r0, #8, #8
 1717 017e 8DF81D30 		strb	r3, [sp, #29]
 1718 0182 C0F30740 		ubfx	r0, r0, #16, #8
 1719 0186 8DF81E00 		strb	r0, [sp, #30]
 1720              	.L74:
 111:Drivers/lvgl/src/themes/mono/lv_theme_mono.c ****     lv_style_set_arc_width(&theme->styles.card, 2);
 1721              		.loc 1 111 5 discriminator 4 view .LVU342
 1722 018a 0799     		ldr	r1, [sp, #28]
 1723 018c 3046     		mov	r0, r6
 1724 018e FFF7FEFF 		bl	lv_style_set_line_color
 1725              	.LVL240:
 112:Drivers/lvgl/src/themes/mono/lv_theme_mono.c ****     lv_style_set_arc_color(&theme->styles.card, COLOR_FG);
 1726              		.loc 1 112 5 is_stmt 1 view .LVU343
 1727 0192 0221     		movs	r1, #2
 1728 0194 3046     		mov	r0, r6
 1729 0196 FFF7FEFF 		bl	lv_style_set_arc_width
 1730              	.LVL241:
 113:Drivers/lvgl/src/themes/mono/lv_theme_mono.c ****     lv_style_set_outline_color(&theme->styles.card, COLOR_FG);
 1731              		.loc 1 113 5 view .LVU344
 1732 019a 002D     		cmp	r5, #0
 1733 019c 00F0C881 		beq	.L75
 113:Drivers/lvgl/src/themes/mono/lv_theme_mono.c ****     lv_style_set_outline_color(&theme->styles.card, COLOR_FG);
 1734              		.loc 1 113 49 is_stmt 0 discriminator 1 view .LVU345
 1735 01a0 FFF7FEFF 		bl	lv_color_white
 1736              	.LVL242:
 1737 01a4 8DF82000 		strb	r0, [sp, #32]
 1738 01a8 C0F30723 		ubfx	r3, r0, #8, #8
 1739 01ac 8DF82130 		strb	r3, [sp, #33]
 1740 01b0 C0F30740 		ubfx	r0, r0, #16, #8
 1741 01b4 8DF82200 		strb	r0, [sp, #34]
 1742              	.L76:
 113:Drivers/lvgl/src/themes/mono/lv_theme_mono.c ****     lv_style_set_outline_color(&theme->styles.card, COLOR_FG);
 1743              		.loc 1 113 5 discriminator 4 view .LVU346
 1744 01b8 0899     		ldr	r1, [sp, #32]
 1745 01ba 3046     		mov	r0, r6
 1746 01bc FFF7FEFF 		bl	lv_style_set_arc_color
ARM GAS  /tmp/ccJxyNGA.s 			page 56


 1747              	.LVL243:
 114:Drivers/lvgl/src/themes/mono/lv_theme_mono.c ****     lv_style_set_anim_duration(&theme->styles.card, 300);
 1748              		.loc 1 114 5 is_stmt 1 view .LVU347
 1749 01c0 002D     		cmp	r5, #0
 1750 01c2 00F0C281 		beq	.L77
 114:Drivers/lvgl/src/themes/mono/lv_theme_mono.c ****     lv_style_set_anim_duration(&theme->styles.card, 300);
 1751              		.loc 1 114 53 is_stmt 0 discriminator 1 view .LVU348
 1752 01c6 FFF7FEFF 		bl	lv_color_white
 1753              	.LVL244:
 1754 01ca 8DF82400 		strb	r0, [sp, #36]
 1755 01ce C0F30723 		ubfx	r3, r0, #8, #8
 1756 01d2 8DF82530 		strb	r3, [sp, #37]
 1757 01d6 C0F30740 		ubfx	r0, r0, #16, #8
 1758 01da 8DF82600 		strb	r0, [sp, #38]
 1759              	.L78:
 114:Drivers/lvgl/src/themes/mono/lv_theme_mono.c ****     lv_style_set_anim_duration(&theme->styles.card, 300);
 1760              		.loc 1 114 5 discriminator 4 view .LVU349
 1761 01de 0999     		ldr	r1, [sp, #36]
 1762 01e0 3046     		mov	r0, r6
 1763 01e2 FFF7FEFF 		bl	lv_style_set_outline_color
 1764              	.LVL245:
 115:Drivers/lvgl/src/themes/mono/lv_theme_mono.c **** 
 1765              		.loc 1 115 5 is_stmt 1 view .LVU350
 1766 01e6 4FF49671 		mov	r1, #300
 1767 01ea 3046     		mov	r0, r6
 1768 01ec FFF7FEFF 		bl	lv_style_set_anim_duration
 1769              	.LVL246:
 117:Drivers/lvgl/src/themes/mono/lv_theme_mono.c ****     lv_style_set_border_width(&theme->styles.pr, BORDER_W_PR);
 1770              		.loc 1 117 5 view .LVU351
 1771 01f0 04F14C06 		add	r6, r4, #76
 1772 01f4 3046     		mov	r0, r6
 1773 01f6 FFF7FEFF 		bl	style_init_reset
 1774              	.LVL247:
 118:Drivers/lvgl/src/themes/mono/lv_theme_mono.c **** 
 1775              		.loc 1 118 5 view .LVU352
 1776 01fa 0321     		movs	r1, #3
 1777 01fc 3046     		mov	r0, r6
 1778 01fe FFF7FEFF 		bl	lv_style_set_border_width
 1779              	.LVL248:
 120:Drivers/lvgl/src/themes/mono/lv_theme_mono.c ****     lv_style_set_bg_opa(&theme->styles.inv, LV_OPA_COVER);
 1780              		.loc 1 120 5 view .LVU353
 1781 0202 04F15806 		add	r6, r4, #88
 1782 0206 3046     		mov	r0, r6
 1783 0208 FFF7FEFF 		bl	style_init_reset
 1784              	.LVL249:
 121:Drivers/lvgl/src/themes/mono/lv_theme_mono.c ****     lv_style_set_bg_color(&theme->styles.inv, COLOR_FG);
 1785              		.loc 1 121 5 view .LVU354
 1786 020c FF21     		movs	r1, #255
 1787 020e 3046     		mov	r0, r6
 1788 0210 FFF7FEFF 		bl	lv_style_set_bg_opa
 1789              	.LVL250:
 122:Drivers/lvgl/src/themes/mono/lv_theme_mono.c ****     lv_style_set_border_color(&theme->styles.inv, COLOR_BG);
 1790              		.loc 1 122 5 view .LVU355
 1791 0214 002D     		cmp	r5, #0
 1792 0216 00F0A581 		beq	.L79
 122:Drivers/lvgl/src/themes/mono/lv_theme_mono.c ****     lv_style_set_border_color(&theme->styles.inv, COLOR_BG);
 1793              		.loc 1 122 47 is_stmt 0 discriminator 1 view .LVU356
ARM GAS  /tmp/ccJxyNGA.s 			page 57


 1794 021a FFF7FEFF 		bl	lv_color_white
 1795              	.LVL251:
 1796 021e 8DF82800 		strb	r0, [sp, #40]
 1797 0222 C0F30723 		ubfx	r3, r0, #8, #8
 1798 0226 8DF82930 		strb	r3, [sp, #41]
 1799 022a C0F30740 		ubfx	r0, r0, #16, #8
 1800 022e 8DF82A00 		strb	r0, [sp, #42]
 1801              	.L80:
 122:Drivers/lvgl/src/themes/mono/lv_theme_mono.c ****     lv_style_set_border_color(&theme->styles.inv, COLOR_BG);
 1802              		.loc 1 122 5 discriminator 4 view .LVU357
 1803 0232 0A99     		ldr	r1, [sp, #40]
 1804 0234 3046     		mov	r0, r6
 1805 0236 FFF7FEFF 		bl	lv_style_set_bg_color
 1806              	.LVL252:
 123:Drivers/lvgl/src/themes/mono/lv_theme_mono.c ****     lv_style_set_line_color(&theme->styles.inv, COLOR_BG);
 1807              		.loc 1 123 5 is_stmt 1 view .LVU358
 1808 023a 002D     		cmp	r5, #0
 1809 023c 00F09F81 		beq	.L81
 123:Drivers/lvgl/src/themes/mono/lv_theme_mono.c ****     lv_style_set_line_color(&theme->styles.inv, COLOR_BG);
 1810              		.loc 1 123 51 is_stmt 0 discriminator 1 view .LVU359
 1811 0240 FFF7FEFF 		bl	lv_color_black
 1812              	.LVL253:
 1813 0244 8DF82C00 		strb	r0, [sp, #44]
 1814 0248 C0F30723 		ubfx	r3, r0, #8, #8
 1815 024c 8DF82D30 		strb	r3, [sp, #45]
 1816 0250 C0F30740 		ubfx	r0, r0, #16, #8
 1817 0254 8DF82E00 		strb	r0, [sp, #46]
 1818              	.L82:
 123:Drivers/lvgl/src/themes/mono/lv_theme_mono.c ****     lv_style_set_line_color(&theme->styles.inv, COLOR_BG);
 1819              		.loc 1 123 5 discriminator 4 view .LVU360
 1820 0258 0B99     		ldr	r1, [sp, #44]
 1821 025a 3046     		mov	r0, r6
 1822 025c FFF7FEFF 		bl	lv_style_set_border_color
 1823              	.LVL254:
 124:Drivers/lvgl/src/themes/mono/lv_theme_mono.c ****     lv_style_set_arc_color(&theme->styles.inv, COLOR_BG);
 1824              		.loc 1 124 5 is_stmt 1 view .LVU361
 1825 0260 002D     		cmp	r5, #0
 1826 0262 00F09981 		beq	.L83
 124:Drivers/lvgl/src/themes/mono/lv_theme_mono.c ****     lv_style_set_arc_color(&theme->styles.inv, COLOR_BG);
 1827              		.loc 1 124 49 is_stmt 0 discriminator 1 view .LVU362
 1828 0266 FFF7FEFF 		bl	lv_color_black
 1829              	.LVL255:
 1830 026a 8DF83000 		strb	r0, [sp, #48]
 1831 026e C0F30723 		ubfx	r3, r0, #8, #8
 1832 0272 8DF83130 		strb	r3, [sp, #49]
 1833 0276 C0F30740 		ubfx	r0, r0, #16, #8
 1834 027a 8DF83200 		strb	r0, [sp, #50]
 1835              	.L84:
 124:Drivers/lvgl/src/themes/mono/lv_theme_mono.c ****     lv_style_set_arc_color(&theme->styles.inv, COLOR_BG);
 1836              		.loc 1 124 5 discriminator 4 view .LVU363
 1837 027e 0C99     		ldr	r1, [sp, #48]
 1838 0280 3046     		mov	r0, r6
 1839 0282 FFF7FEFF 		bl	lv_style_set_line_color
 1840              	.LVL256:
 125:Drivers/lvgl/src/themes/mono/lv_theme_mono.c ****     lv_style_set_text_color(&theme->styles.inv, COLOR_BG);
 1841              		.loc 1 125 5 is_stmt 1 view .LVU364
 1842 0286 002D     		cmp	r5, #0
ARM GAS  /tmp/ccJxyNGA.s 			page 58


 1843 0288 00F09381 		beq	.L85
 125:Drivers/lvgl/src/themes/mono/lv_theme_mono.c ****     lv_style_set_text_color(&theme->styles.inv, COLOR_BG);
 1844              		.loc 1 125 48 is_stmt 0 discriminator 1 view .LVU365
 1845 028c FFF7FEFF 		bl	lv_color_black
 1846              	.LVL257:
 1847 0290 8DF83400 		strb	r0, [sp, #52]
 1848 0294 C0F30723 		ubfx	r3, r0, #8, #8
 1849 0298 8DF83530 		strb	r3, [sp, #53]
 1850 029c C0F30740 		ubfx	r0, r0, #16, #8
 1851 02a0 8DF83600 		strb	r0, [sp, #54]
 1852              	.L86:
 125:Drivers/lvgl/src/themes/mono/lv_theme_mono.c ****     lv_style_set_text_color(&theme->styles.inv, COLOR_BG);
 1853              		.loc 1 125 5 discriminator 4 view .LVU366
 1854 02a4 0D99     		ldr	r1, [sp, #52]
 1855 02a6 3046     		mov	r0, r6
 1856 02a8 FFF7FEFF 		bl	lv_style_set_arc_color
 1857              	.LVL258:
 126:Drivers/lvgl/src/themes/mono/lv_theme_mono.c ****     lv_style_set_outline_color(&theme->styles.inv, COLOR_BG);
 1858              		.loc 1 126 5 is_stmt 1 view .LVU367
 1859 02ac 002D     		cmp	r5, #0
 1860 02ae 00F08D81 		beq	.L87
 126:Drivers/lvgl/src/themes/mono/lv_theme_mono.c ****     lv_style_set_outline_color(&theme->styles.inv, COLOR_BG);
 1861              		.loc 1 126 49 is_stmt 0 discriminator 1 view .LVU368
 1862 02b2 FFF7FEFF 		bl	lv_color_black
 1863              	.LVL259:
 1864 02b6 8DF83800 		strb	r0, [sp, #56]
 1865 02ba C0F30723 		ubfx	r3, r0, #8, #8
 1866 02be 8DF83930 		strb	r3, [sp, #57]
 1867 02c2 C0F30740 		ubfx	r0, r0, #16, #8
 1868 02c6 8DF83A00 		strb	r0, [sp, #58]
 1869              	.L88:
 126:Drivers/lvgl/src/themes/mono/lv_theme_mono.c ****     lv_style_set_outline_color(&theme->styles.inv, COLOR_BG);
 1870              		.loc 1 126 5 discriminator 4 view .LVU369
 1871 02ca 0E99     		ldr	r1, [sp, #56]
 1872 02cc 3046     		mov	r0, r6
 1873 02ce FFF7FEFF 		bl	lv_style_set_text_color
 1874              	.LVL260:
 127:Drivers/lvgl/src/themes/mono/lv_theme_mono.c **** 
 1875              		.loc 1 127 5 is_stmt 1 view .LVU370
 1876 02d2 002D     		cmp	r5, #0
 1877 02d4 00F08781 		beq	.L89
 127:Drivers/lvgl/src/themes/mono/lv_theme_mono.c **** 
 1878              		.loc 1 127 52 is_stmt 0 discriminator 1 view .LVU371
 1879 02d8 FFF7FEFF 		bl	lv_color_black
 1880              	.LVL261:
 1881 02dc 8DF83C00 		strb	r0, [sp, #60]
 1882 02e0 C0F30723 		ubfx	r3, r0, #8, #8
 1883 02e4 8DF83D30 		strb	r3, [sp, #61]
 1884 02e8 C0F30740 		ubfx	r0, r0, #16, #8
 1885 02ec 8DF83E00 		strb	r0, [sp, #62]
 1886              	.L90:
 127:Drivers/lvgl/src/themes/mono/lv_theme_mono.c **** 
 1887              		.loc 1 127 5 discriminator 4 view .LVU372
 1888 02f0 0F99     		ldr	r1, [sp, #60]
 1889 02f2 3046     		mov	r0, r6
 1890 02f4 FFF7FEFF 		bl	lv_style_set_outline_color
 1891              	.LVL262:
ARM GAS  /tmp/ccJxyNGA.s 			page 59


 129:Drivers/lvgl/src/themes/mono/lv_theme_mono.c ****     lv_style_set_border_width(&theme->styles.disabled, BORDER_W_DIS);
 1892              		.loc 1 129 5 is_stmt 1 view .LVU373
 1893 02f8 04F16406 		add	r6, r4, #100
 1894 02fc 3046     		mov	r0, r6
 1895 02fe FFF7FEFF 		bl	style_init_reset
 1896              	.LVL263:
 130:Drivers/lvgl/src/themes/mono/lv_theme_mono.c **** 
 1897              		.loc 1 130 5 view .LVU374
 1898 0302 0021     		movs	r1, #0
 1899 0304 3046     		mov	r0, r6
 1900 0306 FFF7FEFF 		bl	lv_style_set_border_width
 1901              	.LVL264:
 132:Drivers/lvgl/src/themes/mono/lv_theme_mono.c ****     lv_style_set_outline_width(&theme->styles.focus, 1);
 1902              		.loc 1 132 5 view .LVU375
 1903 030a 04F17006 		add	r6, r4, #112
 1904 030e 3046     		mov	r0, r6
 1905 0310 FFF7FEFF 		bl	style_init_reset
 1906              	.LVL265:
 133:Drivers/lvgl/src/themes/mono/lv_theme_mono.c ****     lv_style_set_outline_pad(&theme->styles.focus, BORDER_W_FOCUS);
 1907              		.loc 1 133 5 view .LVU376
 1908 0314 0121     		movs	r1, #1
 1909 0316 3046     		mov	r0, r6
 1910 0318 FFF7FEFF 		bl	lv_style_set_outline_width
 1911              	.LVL266:
 134:Drivers/lvgl/src/themes/mono/lv_theme_mono.c **** 
 1912              		.loc 1 134 5 view .LVU377
 1913 031c 0121     		movs	r1, #1
 1914 031e 3046     		mov	r0, r6
 1915 0320 FFF7FEFF 		bl	lv_style_set_outline_pad
 1916              	.LVL267:
 136:Drivers/lvgl/src/themes/mono/lv_theme_mono.c ****     lv_style_set_outline_width(&theme->styles.edit, BORDER_W_EDIT);
 1917              		.loc 1 136 5 view .LVU378
 1918 0324 04F17C06 		add	r6, r4, #124
 1919 0328 3046     		mov	r0, r6
 1920 032a FFF7FEFF 		bl	style_init_reset
 1921              	.LVL268:
 137:Drivers/lvgl/src/themes/mono/lv_theme_mono.c **** 
 1922              		.loc 1 137 5 view .LVU379
 1923 032e 0221     		movs	r1, #2
 1924 0330 3046     		mov	r0, r6
 1925 0332 FFF7FEFF 		bl	lv_style_set_outline_width
 1926              	.LVL269:
 139:Drivers/lvgl/src/themes/mono/lv_theme_mono.c ****     lv_style_set_border_width(&theme->styles.large_border, BORDER_W_EDIT);
 1927              		.loc 1 139 5 view .LVU380
 1928 0336 04F1B806 		add	r6, r4, #184
 1929 033a 3046     		mov	r0, r6
 1930 033c FFF7FEFF 		bl	style_init_reset
 1931              	.LVL270:
 140:Drivers/lvgl/src/themes/mono/lv_theme_mono.c **** 
 1932              		.loc 1 140 5 view .LVU381
 1933 0340 0221     		movs	r1, #2
 1934 0342 3046     		mov	r0, r6
 1935 0344 FFF7FEFF 		bl	lv_style_set_border_width
 1936              	.LVL271:
 142:Drivers/lvgl/src/themes/mono/lv_theme_mono.c ****     lv_style_set_pad_gap(&theme->styles.pad_gap, PAD_DEF);
 1937              		.loc 1 142 5 view .LVU382
 1938 0348 04F18806 		add	r6, r4, #136
ARM GAS  /tmp/ccJxyNGA.s 			page 60


 1939 034c 3046     		mov	r0, r6
 1940 034e FFF7FEFF 		bl	style_init_reset
 1941              	.LVL272:
 143:Drivers/lvgl/src/themes/mono/lv_theme_mono.c **** 
 1942              		.loc 1 143 5 view .LVU383
 1943 0352 0421     		movs	r1, #4
 1944 0354 3046     		mov	r0, r6
 1945 0356 FFF7FEFF 		bl	lv_style_set_pad_gap
 1946              	.LVL273:
 145:Drivers/lvgl/src/themes/mono/lv_theme_mono.c ****     lv_style_set_pad_all(&theme->styles.pad_zero, 0);
 1947              		.loc 1 145 5 view .LVU384
 1948 035a 04F19406 		add	r6, r4, #148
 1949 035e 3046     		mov	r0, r6
 1950 0360 FFF7FEFF 		bl	style_init_reset
 1951              	.LVL274:
 146:Drivers/lvgl/src/themes/mono/lv_theme_mono.c ****     lv_style_set_pad_gap(&theme->styles.pad_zero, 0);
 1952              		.loc 1 146 5 view .LVU385
 1953 0364 0021     		movs	r1, #0
 1954 0366 3046     		mov	r0, r6
 1955 0368 FFF7FEFF 		bl	lv_style_set_pad_all
 1956              	.LVL275:
 147:Drivers/lvgl/src/themes/mono/lv_theme_mono.c **** 
 1957              		.loc 1 147 5 view .LVU386
 1958 036c 0021     		movs	r1, #0
 1959 036e 3046     		mov	r0, r6
 1960 0370 FFF7FEFF 		bl	lv_style_set_pad_gap
 1961              	.LVL276:
 149:Drivers/lvgl/src/themes/mono/lv_theme_mono.c ****     lv_style_set_radius(&theme->styles.no_radius, 0);
 1962              		.loc 1 149 5 view .LVU387
 1963 0374 04F1A006 		add	r6, r4, #160
 1964 0378 3046     		mov	r0, r6
 1965 037a FFF7FEFF 		bl	style_init_reset
 1966              	.LVL277:
 150:Drivers/lvgl/src/themes/mono/lv_theme_mono.c **** 
 1967              		.loc 1 150 5 view .LVU388
 1968 037e 0021     		movs	r1, #0
 1969 0380 3046     		mov	r0, r6
 1970 0382 FFF7FEFF 		bl	lv_style_set_radius
 1971              	.LVL278:
 152:Drivers/lvgl/src/themes/mono/lv_theme_mono.c ****     lv_style_set_radius(&theme->styles.radius_circle, LV_RADIUS_CIRCLE);
 1972              		.loc 1 152 5 view .LVU389
 1973 0386 04F1AC06 		add	r6, r4, #172
 1974 038a 3046     		mov	r0, r6
 1975 038c FFF7FEFF 		bl	style_init_reset
 1976              	.LVL279:
 153:Drivers/lvgl/src/themes/mono/lv_theme_mono.c **** 
 1977              		.loc 1 153 5 view .LVU390
 1978 0390 47F6FF71 		movw	r1, #32767
 1979 0394 3046     		mov	r0, r6
 1980 0396 FFF7FEFF 		bl	lv_style_set_radius
 1981              	.LVL280:
 155:Drivers/lvgl/src/themes/mono/lv_theme_mono.c ****     lv_style_set_text_line_space(&theme->styles.large_line_space, 6);
 1982              		.loc 1 155 5 view .LVU391
 1983 039a 04F1C406 		add	r6, r4, #196
 1984 039e 3046     		mov	r0, r6
 1985 03a0 FFF7FEFF 		bl	style_init_reset
 1986              	.LVL281:
ARM GAS  /tmp/ccJxyNGA.s 			page 61


 156:Drivers/lvgl/src/themes/mono/lv_theme_mono.c **** 
 1987              		.loc 1 156 5 view .LVU392
 1988 03a4 0621     		movs	r1, #6
 1989 03a6 3046     		mov	r0, r6
 1990 03a8 FFF7FEFF 		bl	lv_style_set_text_line_space
 1991              	.LVL282:
 158:Drivers/lvgl/src/themes/mono/lv_theme_mono.c ****     lv_style_set_text_decor(&theme->styles.underline, LV_TEXT_DECOR_UNDERLINE);
 1992              		.loc 1 158 5 view .LVU393
 1993 03ac 04F1D006 		add	r6, r4, #208
 1994 03b0 3046     		mov	r0, r6
 1995 03b2 FFF7FEFF 		bl	style_init_reset
 1996              	.LVL283:
 159:Drivers/lvgl/src/themes/mono/lv_theme_mono.c **** 
 1997              		.loc 1 159 5 view .LVU394
 1998 03b6 0121     		movs	r1, #1
 1999 03b8 3046     		mov	r0, r6
 2000 03ba FFF7FEFF 		bl	lv_style_set_text_decor
 2001              	.LVL284:
 162:Drivers/lvgl/src/themes/mono/lv_theme_mono.c ****     lv_style_set_border_side(&theme->styles.ta_cursor, LV_BORDER_SIDE_LEFT);
 2002              		.loc 1 162 5 view .LVU395
 2003 03be 04F1DC06 		add	r6, r4, #220
 2004 03c2 3046     		mov	r0, r6
 2005 03c4 FFF7FEFF 		bl	style_init_reset
 2006              	.LVL285:
 163:Drivers/lvgl/src/themes/mono/lv_theme_mono.c ****     lv_style_set_border_color(&theme->styles.ta_cursor, COLOR_FG);
 2007              		.loc 1 163 5 view .LVU396
 2008 03c8 0421     		movs	r1, #4
 2009 03ca 3046     		mov	r0, r6
 2010 03cc FFF7FEFF 		bl	lv_style_set_border_side
 2011              	.LVL286:
 164:Drivers/lvgl/src/themes/mono/lv_theme_mono.c ****     lv_style_set_border_width(&theme->styles.ta_cursor, 2);
 2012              		.loc 1 164 5 view .LVU397
 2013 03d0 002D     		cmp	r5, #0
 2014 03d2 00F01581 		beq	.L91
 164:Drivers/lvgl/src/themes/mono/lv_theme_mono.c ****     lv_style_set_border_width(&theme->styles.ta_cursor, 2);
 2015              		.loc 1 164 57 is_stmt 0 discriminator 1 view .LVU398
 2016 03d6 FFF7FEFF 		bl	lv_color_white
 2017              	.LVL287:
 2018 03da 8DF84000 		strb	r0, [sp, #64]
 2019 03de C0F30723 		ubfx	r3, r0, #8, #8
 2020 03e2 8DF84130 		strb	r3, [sp, #65]
 2021 03e6 C0F30740 		ubfx	r0, r0, #16, #8
 2022 03ea 8DF84200 		strb	r0, [sp, #66]
 2023              	.L92:
 164:Drivers/lvgl/src/themes/mono/lv_theme_mono.c ****     lv_style_set_border_width(&theme->styles.ta_cursor, 2);
 2024              		.loc 1 164 5 discriminator 4 view .LVU399
 2025 03ee 1099     		ldr	r1, [sp, #64]
 2026 03f0 3046     		mov	r0, r6
 2027 03f2 FFF7FEFF 		bl	lv_style_set_border_color
 2028              	.LVL288:
 165:Drivers/lvgl/src/themes/mono/lv_theme_mono.c ****     lv_style_set_bg_opa(&theme->styles.ta_cursor, LV_OPA_TRANSP);
 2029              		.loc 1 165 5 is_stmt 1 view .LVU400
 2030 03f6 0221     		movs	r1, #2
 2031 03f8 3046     		mov	r0, r6
 2032 03fa FFF7FEFF 		bl	lv_style_set_border_width
 2033              	.LVL289:
 166:Drivers/lvgl/src/themes/mono/lv_theme_mono.c ****     lv_style_set_anim_duration(&theme->styles.ta_cursor, 500);
ARM GAS  /tmp/ccJxyNGA.s 			page 62


 2034              		.loc 1 166 5 view .LVU401
 2035 03fe 0021     		movs	r1, #0
 2036 0400 3046     		mov	r0, r6
 2037 0402 FFF7FEFF 		bl	lv_style_set_bg_opa
 2038              	.LVL290:
 167:Drivers/lvgl/src/themes/mono/lv_theme_mono.c **** #endif
 2039              		.loc 1 167 5 view .LVU402
 2040 0406 4FF4FA71 		mov	r1, #500
 2041 040a 3046     		mov	r0, r6
 2042 040c FFF7FEFF 		bl	lv_style_set_anim_duration
 2043              	.LVL291:
 171:Drivers/lvgl/src/themes/mono/lv_theme_mono.c ****     lv_style_set_radius(&theme->styles.chart_indic, LV_RADIUS_CIRCLE);
 2044              		.loc 1 171 5 view .LVU403
 2045 0410 04F1E806 		add	r6, r4, #232
 2046 0414 3046     		mov	r0, r6
 2047 0416 FFF7FEFF 		bl	style_init_reset
 2048              	.LVL292:
 172:Drivers/lvgl/src/themes/mono/lv_theme_mono.c ****     lv_style_set_size(&theme->styles.chart_indic, lv_display_dpx(theme->base.disp, 8), lv_display_d
 2049              		.loc 1 172 5 view .LVU404
 2050 041a 47F6FF71 		movw	r1, #32767
 2051 041e 3046     		mov	r0, r6
 2052 0420 FFF7FEFF 		bl	lv_style_set_radius
 2053              	.LVL293:
 173:Drivers/lvgl/src/themes/mono/lv_theme_mono.c ****     lv_style_set_bg_color(&theme->styles.chart_indic, COLOR_FG);
 2054              		.loc 1 173 5 view .LVU405
 2055 0424 0821     		movs	r1, #8
 2056 0426 E068     		ldr	r0, [r4, #12]
 2057 0428 FFF7FEFF 		bl	lv_display_dpx
 2058              	.LVL294:
 2059 042c 0746     		mov	r7, r0
 2060              	.LVL295:
 173:Drivers/lvgl/src/themes/mono/lv_theme_mono.c ****     lv_style_set_bg_color(&theme->styles.chart_indic, COLOR_FG);
 2061              		.loc 1 173 5 is_stmt 0 discriminator 1 view .LVU406
 2062 042e 0821     		movs	r1, #8
 2063 0430 E068     		ldr	r0, [r4, #12]
 2064 0432 FFF7FEFF 		bl	lv_display_dpx
 2065              	.LVL296:
 2066 0436 0446     		mov	r4, r0
 2067              	.LVL297:
 2068              	.LBB4:
 2069              	.LBI4:
 525:Drivers/lvgl/src/themes/mono/../../core/../misc/lv_style.h **** {
 2070              		.loc 2 525 20 is_stmt 1 view .LVU407
 2071              	.LBB5:
 527:Drivers/lvgl/src/themes/mono/../../core/../misc/lv_style.h ****     lv_style_set_height(style, height);
 2072              		.loc 2 527 5 view .LVU408
 2073 0438 3946     		mov	r1, r7
 2074 043a 3046     		mov	r0, r6
 2075              	.LVL298:
 527:Drivers/lvgl/src/themes/mono/../../core/../misc/lv_style.h ****     lv_style_set_height(style, height);
 2076              		.loc 2 527 5 is_stmt 0 view .LVU409
 2077 043c FFF7FEFF 		bl	lv_style_set_width
 2078              	.LVL299:
 528:Drivers/lvgl/src/themes/mono/../../core/../misc/lv_style.h **** }
 2079              		.loc 2 528 5 is_stmt 1 view .LVU410
 2080 0440 2146     		mov	r1, r4
 2081 0442 3046     		mov	r0, r6
ARM GAS  /tmp/ccJxyNGA.s 			page 63


 2082 0444 FFF7FEFF 		bl	lv_style_set_height
 2083              	.LVL300:
 528:Drivers/lvgl/src/themes/mono/../../core/../misc/lv_style.h **** }
 2084              		.loc 2 528 5 is_stmt 0 view .LVU411
 2085              	.LBE5:
 2086              	.LBE4:
 174:Drivers/lvgl/src/themes/mono/lv_theme_mono.c ****     lv_style_set_bg_opa(&theme->styles.chart_indic, LV_OPA_COVER);
 2087              		.loc 1 174 5 is_stmt 1 view .LVU412
 2088 0448 002D     		cmp	r5, #0
 2089 044a 00F0E680 		beq	.L93
 174:Drivers/lvgl/src/themes/mono/lv_theme_mono.c ****     lv_style_set_bg_opa(&theme->styles.chart_indic, LV_OPA_COVER);
 2090              		.loc 1 174 55 is_stmt 0 discriminator 1 view .LVU413
 2091 044e FFF7FEFF 		bl	lv_color_white
 2092              	.LVL301:
 2093 0452 8DF84400 		strb	r0, [sp, #68]
 2094 0456 C0F30723 		ubfx	r3, r0, #8, #8
 2095 045a 8DF84530 		strb	r3, [sp, #69]
 2096 045e C0F30740 		ubfx	r0, r0, #16, #8
 2097 0462 8DF84600 		strb	r0, [sp, #70]
 2098              	.L94:
 174:Drivers/lvgl/src/themes/mono/lv_theme_mono.c ****     lv_style_set_bg_opa(&theme->styles.chart_indic, LV_OPA_COVER);
 2099              		.loc 1 174 5 discriminator 4 view .LVU414
 2100 0466 1199     		ldr	r1, [sp, #68]
 2101 0468 3046     		mov	r0, r6
 2102 046a FFF7FEFF 		bl	lv_style_set_bg_color
 2103              	.LVL302:
 175:Drivers/lvgl/src/themes/mono/lv_theme_mono.c **** #endif
 2104              		.loc 1 175 5 is_stmt 1 view .LVU415
 2105 046e FF21     		movs	r1, #255
 2106 0470 3046     		mov	r0, r6
 2107 0472 FFF7FEFF 		bl	lv_style_set_bg_opa
 2108              	.LVL303:
 177:Drivers/lvgl/src/themes/mono/lv_theme_mono.c **** 
 2109              		.loc 1 177 1 is_stmt 0 view .LVU416
 2110 0476 13B0     		add	sp, sp, #76
 2111              	.LCFI6:
 2112              		.cfi_remember_state
 2113              		.cfi_def_cfa_offset 20
 2114              		@ sp needed
 2115 0478 F0BD     		pop	{r4, r5, r6, r7, pc}
 2116              	.LVL304:
 2117              	.L61:
 2118              	.LCFI7:
 2119              		.cfi_restore_state
  90:Drivers/lvgl/src/themes/mono/lv_theme_mono.c ****     lv_style_set_width(&theme->styles.scrollbar,  PAD_DEF);
 2120              		.loc 1 90 53 discriminator 2 view .LVU417
 2121 047a FFF7FEFF 		bl	lv_color_black
 2122              	.LVL305:
 2123 047e 8DF80400 		strb	r0, [sp, #4]
 2124 0482 C0F30723 		ubfx	r3, r0, #8, #8
 2125 0486 8DF80530 		strb	r3, [sp, #5]
 2126 048a C0F30740 		ubfx	r0, r0, #16, #8
 2127 048e 8DF80600 		strb	r0, [sp, #6]
 2128 0492 D2E5     		b	.L62
 2129              	.L63:
  95:Drivers/lvgl/src/themes/mono/lv_theme_mono.c ****     lv_style_set_text_color(&theme->styles.scr, COLOR_FG);
 2130              		.loc 1 95 47 discriminator 2 view .LVU418
ARM GAS  /tmp/ccJxyNGA.s 			page 64


 2131 0494 FFF7FEFF 		bl	lv_color_white
 2132              	.LVL306:
 2133 0498 8DF80800 		strb	r0, [sp, #8]
 2134 049c C0F30723 		ubfx	r3, r0, #8, #8
 2135 04a0 8DF80930 		strb	r3, [sp, #9]
 2136 04a4 C0F30740 		ubfx	r0, r0, #16, #8
 2137 04a8 8DF80A00 		strb	r0, [sp, #10]
 2138 04ac E5E5     		b	.L64
 2139              	.L65:
  96:Drivers/lvgl/src/themes/mono/lv_theme_mono.c ****     lv_style_set_pad_row(&theme->styles.scr, PAD_DEF);
 2140              		.loc 1 96 49 discriminator 2 view .LVU419
 2141 04ae FFF7FEFF 		bl	lv_color_black
 2142              	.LVL307:
 2143 04b2 8DF80C00 		strb	r0, [sp, #12]
 2144 04b6 C0F30723 		ubfx	r3, r0, #8, #8
 2145 04ba 8DF80D30 		strb	r3, [sp, #13]
 2146 04be C0F30740 		ubfx	r0, r0, #16, #8
 2147 04c2 8DF80E00 		strb	r0, [sp, #14]
 2148 04c6 EBE5     		b	.L66
 2149              	.L67:
 103:Drivers/lvgl/src/themes/mono/lv_theme_mono.c ****     lv_style_set_border_color(&theme->styles.card, COLOR_FG);
 2150              		.loc 1 103 48 discriminator 2 view .LVU420
 2151 04c8 FFF7FEFF 		bl	lv_color_white
 2152              	.LVL308:
 2153 04cc 8DF81000 		strb	r0, [sp, #16]
 2154 04d0 C0F30723 		ubfx	r3, r0, #8, #8
 2155 04d4 8DF81130 		strb	r3, [sp, #17]
 2156 04d8 C0F30740 		ubfx	r0, r0, #16, #8
 2157 04dc 8DF81200 		strb	r0, [sp, #18]
 2158 04e0 06E6     		b	.L68
 2159              	.L69:
 104:Drivers/lvgl/src/themes/mono/lv_theme_mono.c ****     lv_style_set_radius(&theme->styles.card, 2);
 2160              		.loc 1 104 52 discriminator 2 view .LVU421
 2161 04e2 FFF7FEFF 		bl	lv_color_black
 2162              	.LVL309:
 2163 04e6 8DF81400 		strb	r0, [sp, #20]
 2164 04ea C0F30723 		ubfx	r3, r0, #8, #8
 2165 04ee 8DF81530 		strb	r3, [sp, #21]
 2166 04f2 C0F30740 		ubfx	r0, r0, #16, #8
 2167 04f6 8DF81600 		strb	r0, [sp, #22]
 2168 04fa 0CE6     		b	.L70
 2169              	.L71:
 109:Drivers/lvgl/src/themes/mono/lv_theme_mono.c ****     lv_style_set_line_width(&theme->styles.card, 2);
 2170              		.loc 1 109 50 discriminator 2 view .LVU422
 2171 04fc FFF7FEFF 		bl	lv_color_black
 2172              	.LVL310:
 2173 0500 8DF81800 		strb	r0, [sp, #24]
 2174 0504 C0F30723 		ubfx	r3, r0, #8, #8
 2175 0508 8DF81930 		strb	r3, [sp, #25]
 2176 050c C0F30740 		ubfx	r0, r0, #16, #8
 2177 0510 8DF81A00 		strb	r0, [sp, #26]
 2178 0514 22E6     		b	.L72
 2179              	.L73:
 111:Drivers/lvgl/src/themes/mono/lv_theme_mono.c ****     lv_style_set_arc_width(&theme->styles.card, 2);
 2180              		.loc 1 111 50 discriminator 2 view .LVU423
 2181 0516 FFF7FEFF 		bl	lv_color_black
 2182              	.LVL311:
ARM GAS  /tmp/ccJxyNGA.s 			page 65


 2183 051a 8DF81C00 		strb	r0, [sp, #28]
 2184 051e C0F30723 		ubfx	r3, r0, #8, #8
 2185 0522 8DF81D30 		strb	r3, [sp, #29]
 2186 0526 C0F30740 		ubfx	r0, r0, #16, #8
 2187 052a 8DF81E00 		strb	r0, [sp, #30]
 2188 052e 2CE6     		b	.L74
 2189              	.L75:
 113:Drivers/lvgl/src/themes/mono/lv_theme_mono.c ****     lv_style_set_outline_color(&theme->styles.card, COLOR_FG);
 2190              		.loc 1 113 49 discriminator 2 view .LVU424
 2191 0530 FFF7FEFF 		bl	lv_color_black
 2192              	.LVL312:
 2193 0534 8DF82000 		strb	r0, [sp, #32]
 2194 0538 C0F30723 		ubfx	r3, r0, #8, #8
 2195 053c 8DF82130 		strb	r3, [sp, #33]
 2196 0540 C0F30740 		ubfx	r0, r0, #16, #8
 2197 0544 8DF82200 		strb	r0, [sp, #34]
 2198 0548 36E6     		b	.L76
 2199              	.L77:
 114:Drivers/lvgl/src/themes/mono/lv_theme_mono.c ****     lv_style_set_anim_duration(&theme->styles.card, 300);
 2200              		.loc 1 114 53 discriminator 2 view .LVU425
 2201 054a FFF7FEFF 		bl	lv_color_black
 2202              	.LVL313:
 2203 054e 8DF82400 		strb	r0, [sp, #36]
 2204 0552 C0F30723 		ubfx	r3, r0, #8, #8
 2205 0556 8DF82530 		strb	r3, [sp, #37]
 2206 055a C0F30740 		ubfx	r0, r0, #16, #8
 2207 055e 8DF82600 		strb	r0, [sp, #38]
 2208 0562 3CE6     		b	.L78
 2209              	.L79:
 122:Drivers/lvgl/src/themes/mono/lv_theme_mono.c ****     lv_style_set_border_color(&theme->styles.inv, COLOR_BG);
 2210              		.loc 1 122 47 discriminator 2 view .LVU426
 2211 0564 FFF7FEFF 		bl	lv_color_black
 2212              	.LVL314:
 2213 0568 8DF82800 		strb	r0, [sp, #40]
 2214 056c C0F30723 		ubfx	r3, r0, #8, #8
 2215 0570 8DF82930 		strb	r3, [sp, #41]
 2216 0574 C0F30740 		ubfx	r0, r0, #16, #8
 2217 0578 8DF82A00 		strb	r0, [sp, #42]
 2218 057c 59E6     		b	.L80
 2219              	.L81:
 123:Drivers/lvgl/src/themes/mono/lv_theme_mono.c ****     lv_style_set_line_color(&theme->styles.inv, COLOR_BG);
 2220              		.loc 1 123 51 discriminator 2 view .LVU427
 2221 057e FFF7FEFF 		bl	lv_color_white
 2222              	.LVL315:
 2223 0582 8DF82C00 		strb	r0, [sp, #44]
 2224 0586 C0F30723 		ubfx	r3, r0, #8, #8
 2225 058a 8DF82D30 		strb	r3, [sp, #45]
 2226 058e C0F30740 		ubfx	r0, r0, #16, #8
 2227 0592 8DF82E00 		strb	r0, [sp, #46]
 2228 0596 5FE6     		b	.L82
 2229              	.L83:
 124:Drivers/lvgl/src/themes/mono/lv_theme_mono.c ****     lv_style_set_arc_color(&theme->styles.inv, COLOR_BG);
 2230              		.loc 1 124 49 discriminator 2 view .LVU428
 2231 0598 FFF7FEFF 		bl	lv_color_white
 2232              	.LVL316:
 2233 059c 8DF83000 		strb	r0, [sp, #48]
 2234 05a0 C0F30723 		ubfx	r3, r0, #8, #8
ARM GAS  /tmp/ccJxyNGA.s 			page 66


 2235 05a4 8DF83130 		strb	r3, [sp, #49]
 2236 05a8 C0F30740 		ubfx	r0, r0, #16, #8
 2237 05ac 8DF83200 		strb	r0, [sp, #50]
 2238 05b0 65E6     		b	.L84
 2239              	.L85:
 125:Drivers/lvgl/src/themes/mono/lv_theme_mono.c ****     lv_style_set_text_color(&theme->styles.inv, COLOR_BG);
 2240              		.loc 1 125 48 discriminator 2 view .LVU429
 2241 05b2 FFF7FEFF 		bl	lv_color_white
 2242              	.LVL317:
 2243 05b6 8DF83400 		strb	r0, [sp, #52]
 2244 05ba C0F30723 		ubfx	r3, r0, #8, #8
 2245 05be 8DF83530 		strb	r3, [sp, #53]
 2246 05c2 C0F30740 		ubfx	r0, r0, #16, #8
 2247 05c6 8DF83600 		strb	r0, [sp, #54]
 2248 05ca 6BE6     		b	.L86
 2249              	.L87:
 126:Drivers/lvgl/src/themes/mono/lv_theme_mono.c ****     lv_style_set_outline_color(&theme->styles.inv, COLOR_BG);
 2250              		.loc 1 126 49 discriminator 2 view .LVU430
 2251 05cc FFF7FEFF 		bl	lv_color_white
 2252              	.LVL318:
 2253 05d0 8DF83800 		strb	r0, [sp, #56]
 2254 05d4 C0F30723 		ubfx	r3, r0, #8, #8
 2255 05d8 8DF83930 		strb	r3, [sp, #57]
 2256 05dc C0F30740 		ubfx	r0, r0, #16, #8
 2257 05e0 8DF83A00 		strb	r0, [sp, #58]
 2258 05e4 71E6     		b	.L88
 2259              	.L89:
 127:Drivers/lvgl/src/themes/mono/lv_theme_mono.c **** 
 2260              		.loc 1 127 52 discriminator 2 view .LVU431
 2261 05e6 FFF7FEFF 		bl	lv_color_white
 2262              	.LVL319:
 2263 05ea 8DF83C00 		strb	r0, [sp, #60]
 2264 05ee C0F30723 		ubfx	r3, r0, #8, #8
 2265 05f2 8DF83D30 		strb	r3, [sp, #61]
 2266 05f6 C0F30740 		ubfx	r0, r0, #16, #8
 2267 05fa 8DF83E00 		strb	r0, [sp, #62]
 2268 05fe 77E6     		b	.L90
 2269              	.L91:
 164:Drivers/lvgl/src/themes/mono/lv_theme_mono.c ****     lv_style_set_border_width(&theme->styles.ta_cursor, 2);
 2270              		.loc 1 164 57 discriminator 2 view .LVU432
 2271 0600 FFF7FEFF 		bl	lv_color_black
 2272              	.LVL320:
 2273 0604 8DF84000 		strb	r0, [sp, #64]
 2274 0608 C0F30723 		ubfx	r3, r0, #8, #8
 2275 060c 8DF84130 		strb	r3, [sp, #65]
 2276 0610 C0F30740 		ubfx	r0, r0, #16, #8
 2277 0614 8DF84200 		strb	r0, [sp, #66]
 2278 0618 E9E6     		b	.L92
 2279              	.LVL321:
 2280              	.L93:
 174:Drivers/lvgl/src/themes/mono/lv_theme_mono.c ****     lv_style_set_bg_opa(&theme->styles.chart_indic, LV_OPA_COVER);
 2281              		.loc 1 174 55 discriminator 2 view .LVU433
 2282 061a FFF7FEFF 		bl	lv_color_black
 2283              	.LVL322:
 2284 061e 8DF84400 		strb	r0, [sp, #68]
 2285 0622 C0F30723 		ubfx	r3, r0, #8, #8
 2286 0626 8DF84530 		strb	r3, [sp, #69]
ARM GAS  /tmp/ccJxyNGA.s 			page 67


 2287 062a C0F30740 		ubfx	r0, r0, #16, #8
 2288 062e 8DF84600 		strb	r0, [sp, #70]
 2289 0632 18E7     		b	.L94
 2290              		.cfi_endproc
 2291              	.LFE193:
 2293              		.section	.text.lv_theme_mono_deinit,"ax",%progbits
 2294              		.align	1
 2295              		.global	lv_theme_mono_deinit
 2296              		.syntax unified
 2297              		.thumb
 2298              		.thumb_func
 2300              	lv_theme_mono_deinit:
 2301              	.LFB195:
 191:Drivers/lvgl/src/themes/mono/lv_theme_mono.c ****     my_theme_t * theme = theme_def;
 2302              		.loc 1 191 1 is_stmt 1 view -0
 2303              		.cfi_startproc
 2304              		@ args = 0, pretend = 0, frame = 0
 2305              		@ frame_needed = 0, uses_anonymous_args = 0
 2306 0000 38B5     		push	{r3, r4, r5, lr}
 2307              	.LCFI8:
 2308              		.cfi_def_cfa_offset 16
 2309              		.cfi_offset 3, -16
 2310              		.cfi_offset 4, -12
 2311              		.cfi_offset 5, -8
 2312              		.cfi_offset 14, -4
 192:Drivers/lvgl/src/themes/mono/lv_theme_mono.c ****     if(theme) {
 2313              		.loc 1 192 5 view .LVU435
 192:Drivers/lvgl/src/themes/mono/lv_theme_mono.c ****     if(theme) {
 2314              		.loc 1 192 18 is_stmt 0 view .LVU436
 2315 0002 0E4B     		ldr	r3, .L102
 2316 0004 D3F8C051 		ldr	r5, [r3, #448]
 2317              	.LVL323:
 193:Drivers/lvgl/src/themes/mono/lv_theme_mono.c ****         if(theme->inited) {
 2318              		.loc 1 193 5 is_stmt 1 view .LVU437
 193:Drivers/lvgl/src/themes/mono/lv_theme_mono.c ****         if(theme->inited) {
 2319              		.loc 1 193 7 is_stmt 0 view .LVU438
 2320 0008 B5B1     		cbz	r5, .L96
 194:Drivers/lvgl/src/themes/mono/lv_theme_mono.c ****             lv_style_t * theme_styles = (lv_style_t *)(&(theme->styles));
 2321              		.loc 1 194 9 is_stmt 1 view .LVU439
 194:Drivers/lvgl/src/themes/mono/lv_theme_mono.c ****             lv_style_t * theme_styles = (lv_style_t *)(&(theme->styles));
 2322              		.loc 1 194 17 is_stmt 0 view .LVU440
 2323 000a 95F8F430 		ldrb	r3, [r5, #244]	@ zero_extendqisi2
 194:Drivers/lvgl/src/themes/mono/lv_theme_mono.c ****             lv_style_t * theme_styles = (lv_style_t *)(&(theme->styles));
 2324              		.loc 1 194 11 view .LVU441
 2325 000e 5BB1     		cbz	r3, .L98
 2326              	.LBB6:
 195:Drivers/lvgl/src/themes/mono/lv_theme_mono.c ****             uint32_t i;
 2327              		.loc 1 195 13 is_stmt 1 view .LVU442
 195:Drivers/lvgl/src/themes/mono/lv_theme_mono.c ****             uint32_t i;
 2328              		.loc 1 195 26 is_stmt 0 view .LVU443
 2329 0010 2835     		adds	r5, r5, #40
 2330              	.LVL324:
 196:Drivers/lvgl/src/themes/mono/lv_theme_mono.c ****             for(i = 0; i < sizeof(my_theme_styles_t) / sizeof(lv_style_t); i++) {
 2331              		.loc 1 196 13 is_stmt 1 view .LVU444
 197:Drivers/lvgl/src/themes/mono/lv_theme_mono.c ****                 lv_style_reset(theme_styles + i);
 2332              		.loc 1 197 13 view .LVU445
 197:Drivers/lvgl/src/themes/mono/lv_theme_mono.c ****                 lv_style_reset(theme_styles + i);
ARM GAS  /tmp/ccJxyNGA.s 			page 68


 2333              		.loc 1 197 19 is_stmt 0 view .LVU446
 2334 0012 0024     		movs	r4, #0
 197:Drivers/lvgl/src/themes/mono/lv_theme_mono.c ****                 lv_style_reset(theme_styles + i);
 2335              		.loc 1 197 13 view .LVU447
 2336 0014 06E0     		b	.L99
 2337              	.LVL325:
 2338              	.L100:
 198:Drivers/lvgl/src/themes/mono/lv_theme_mono.c ****             }
 2339              		.loc 1 198 17 is_stmt 1 view .LVU448
 198:Drivers/lvgl/src/themes/mono/lv_theme_mono.c ****             }
 2340              		.loc 1 198 45 is_stmt 0 view .LVU449
 2341 0016 04EB4403 		add	r3, r4, r4, lsl #1
 2342 001a 9800     		lsls	r0, r3, #2
 198:Drivers/lvgl/src/themes/mono/lv_theme_mono.c ****             }
 2343              		.loc 1 198 17 view .LVU450
 2344 001c 2844     		add	r0, r0, r5
 2345 001e FFF7FEFF 		bl	lv_style_reset
 2346              	.LVL326:
 197:Drivers/lvgl/src/themes/mono/lv_theme_mono.c ****                 lv_style_reset(theme_styles + i);
 2347              		.loc 1 197 77 is_stmt 1 discriminator 3 view .LVU451
 2348 0022 0134     		adds	r4, r4, #1
 2349              	.LVL327:
 2350              	.L99:
 197:Drivers/lvgl/src/themes/mono/lv_theme_mono.c ****                 lv_style_reset(theme_styles + i);
 2351              		.loc 1 197 26 discriminator 1 view .LVU452
 2352 0024 102C     		cmp	r4, #16
 2353 0026 F6D9     		bls	.L100
 2354              	.LVL328:
 2355              	.L98:
 197:Drivers/lvgl/src/themes/mono/lv_theme_mono.c ****                 lv_style_reset(theme_styles + i);
 2356              		.loc 1 197 26 is_stmt 0 discriminator 1 view .LVU453
 2357              	.LBE6:
 201:Drivers/lvgl/src/themes/mono/lv_theme_mono.c ****         theme_def = NULL;
 2358              		.loc 1 201 9 is_stmt 1 view .LVU454
 2359 0028 044C     		ldr	r4, .L102
 2360 002a D4F8C001 		ldr	r0, [r4, #448]
 2361 002e FFF7FEFF 		bl	lv_free
 2362              	.LVL329:
 202:Drivers/lvgl/src/themes/mono/lv_theme_mono.c ****     }
 2363              		.loc 1 202 9 view .LVU455
 202:Drivers/lvgl/src/themes/mono/lv_theme_mono.c ****     }
 2364              		.loc 1 202 19 is_stmt 0 view .LVU456
 2365 0032 0023     		movs	r3, #0
 2366 0034 C4F8C031 		str	r3, [r4, #448]
 2367              	.L96:
 204:Drivers/lvgl/src/themes/mono/lv_theme_mono.c **** 
 2368              		.loc 1 204 1 view .LVU457
 2369 0038 38BD     		pop	{r3, r4, r5, pc}
 2370              	.L103:
 2371 003a 00BF     		.align	2
 2372              	.L102:
 2373 003c 00000000 		.word	lv_global
 2374              		.cfi_endproc
 2375              	.LFE195:
 2377              		.section	.text.lv_theme_mono_init,"ax",%progbits
 2378              		.align	1
 2379              		.global	lv_theme_mono_init
ARM GAS  /tmp/ccJxyNGA.s 			page 69


 2380              		.syntax unified
 2381              		.thumb
 2382              		.thumb_func
 2384              	lv_theme_mono_init:
 2385              	.LVL330:
 2386              	.LFB196:
 207:Drivers/lvgl/src/themes/mono/lv_theme_mono.c ****     /*This trick is required only to avoid the garbage collection of
 2387              		.loc 1 207 1 is_stmt 1 view -0
 2388              		.cfi_startproc
 2389              		@ args = 0, pretend = 0, frame = 0
 2390              		@ frame_needed = 0, uses_anonymous_args = 0
 207:Drivers/lvgl/src/themes/mono/lv_theme_mono.c ****     /*This trick is required only to avoid the garbage collection of
 2391              		.loc 1 207 1 is_stmt 0 view .LVU459
 2392 0000 F8B5     		push	{r3, r4, r5, r6, r7, lr}
 2393              	.LCFI9:
 2394              		.cfi_def_cfa_offset 24
 2395              		.cfi_offset 3, -24
 2396              		.cfi_offset 4, -20
 2397              		.cfi_offset 5, -16
 2398              		.cfi_offset 6, -12
 2399              		.cfi_offset 7, -8
 2400              		.cfi_offset 14, -4
 2401 0002 0546     		mov	r5, r0
 2402 0004 0E46     		mov	r6, r1
 2403 0006 1746     		mov	r7, r2
 211:Drivers/lvgl/src/themes/mono/lv_theme_mono.c ****         theme_def = lv_malloc_zeroed(sizeof(my_theme_t));
 2404              		.loc 1 211 5 is_stmt 1 view .LVU460
 211:Drivers/lvgl/src/themes/mono/lv_theme_mono.c ****         theme_def = lv_malloc_zeroed(sizeof(my_theme_t));
 2405              		.loc 1 211 9 is_stmt 0 view .LVU461
 2406 0008 FFF7FEFF 		bl	lv_theme_mono_is_inited
 2407              	.LVL331:
 211:Drivers/lvgl/src/themes/mono/lv_theme_mono.c ****         theme_def = lv_malloc_zeroed(sizeof(my_theme_t));
 2408              		.loc 1 211 7 discriminator 1 view .LVU462
 2409 000c F0B1     		cbz	r0, .L109
 2410              	.L105:
 215:Drivers/lvgl/src/themes/mono/lv_theme_mono.c **** 
 2411              		.loc 1 215 5 is_stmt 1 view .LVU463
 215:Drivers/lvgl/src/themes/mono/lv_theme_mono.c **** 
 2412              		.loc 1 215 18 is_stmt 0 view .LVU464
 2413 000e 134B     		ldr	r3, .L110
 2414 0010 D3F8C041 		ldr	r4, [r3, #448]
 2415              	.LVL332:
