ARM GAS  /tmp/ccmjY4Gs.s 			page 1


   1              		.cpu cortex-m7
   2              		.arch armv7e-m
   3              		.fpu fpv5-sp-d16
   4              		.eabi_attribute 27, 1
   5              		.eabi_attribute 28, 1
   6              		.eabi_attribute 20, 1
   7              		.eabi_attribute 21, 1
   8              		.eabi_attribute 23, 3
   9              		.eabi_attribute 24, 1
  10              		.eabi_attribute 25, 1
  11              		.eabi_attribute 26, 1
  12              		.eabi_attribute 30, 1
  13              		.eabi_attribute 34, 1
  14              		.eabi_attribute 18, 4
  15              		.file	"lv_tileview.c"
  16              		.text
  17              	.Ltext0:
  18              		.cfi_sections	.debug_frame
  19              		.file 1 "Drivers/lvgl/src/widgets/tileview/lv_tileview.c"
  20              		.section	.text.lv_tileview_constructor,"ax",%progbits
  21              		.align	1
  22              		.syntax unified
  23              		.thumb
  24              		.thumb_func
  26              	lv_tileview_constructor:
  27              	.LVL0:
  28              	.LFB176:
   1:Drivers/lvgl/src/widgets/tileview/lv_tileview.c **** /**
   2:Drivers/lvgl/src/widgets/tileview/lv_tileview.c ****  * @file lv_tileview.c
   3:Drivers/lvgl/src/widgets/tileview/lv_tileview.c ****  *
   4:Drivers/lvgl/src/widgets/tileview/lv_tileview.c ****  */
   5:Drivers/lvgl/src/widgets/tileview/lv_tileview.c **** 
   6:Drivers/lvgl/src/widgets/tileview/lv_tileview.c **** /*********************
   7:Drivers/lvgl/src/widgets/tileview/lv_tileview.c ****  *      INCLUDES
   8:Drivers/lvgl/src/widgets/tileview/lv_tileview.c ****  *********************/
   9:Drivers/lvgl/src/widgets/tileview/lv_tileview.c **** #include "lv_tileview_private.h"
  10:Drivers/lvgl/src/widgets/tileview/lv_tileview.c **** #include "../../core/lv_obj_class_private.h"
  11:Drivers/lvgl/src/widgets/tileview/lv_tileview.c **** #include "../../indev/lv_indev.h"
  12:Drivers/lvgl/src/widgets/tileview/lv_tileview.c **** #include "../../indev/lv_indev_private.h"
  13:Drivers/lvgl/src/widgets/tileview/lv_tileview.c **** #if LV_USE_TILEVIEW
  14:Drivers/lvgl/src/widgets/tileview/lv_tileview.c **** 
  15:Drivers/lvgl/src/widgets/tileview/lv_tileview.c **** /*********************
  16:Drivers/lvgl/src/widgets/tileview/lv_tileview.c ****  *      DEFINES
  17:Drivers/lvgl/src/widgets/tileview/lv_tileview.c ****  *********************/
  18:Drivers/lvgl/src/widgets/tileview/lv_tileview.c **** 
  19:Drivers/lvgl/src/widgets/tileview/lv_tileview.c **** /**********************
  20:Drivers/lvgl/src/widgets/tileview/lv_tileview.c ****  *      TYPEDEFS
  21:Drivers/lvgl/src/widgets/tileview/lv_tileview.c ****  **********************/
  22:Drivers/lvgl/src/widgets/tileview/lv_tileview.c **** 
  23:Drivers/lvgl/src/widgets/tileview/lv_tileview.c **** /**********************
  24:Drivers/lvgl/src/widgets/tileview/lv_tileview.c ****  *  STATIC PROTOTYPES
  25:Drivers/lvgl/src/widgets/tileview/lv_tileview.c ****  **********************/
  26:Drivers/lvgl/src/widgets/tileview/lv_tileview.c **** static void lv_tileview_constructor(const lv_obj_class_t * class_p, lv_obj_t * obj);
  27:Drivers/lvgl/src/widgets/tileview/lv_tileview.c **** static void lv_tileview_tile_constructor(const lv_obj_class_t * class_p, lv_obj_t * obj);
  28:Drivers/lvgl/src/widgets/tileview/lv_tileview.c **** static void tileview_event_cb(lv_event_t * e);
  29:Drivers/lvgl/src/widgets/tileview/lv_tileview.c **** 
  30:Drivers/lvgl/src/widgets/tileview/lv_tileview.c **** /**********************
ARM GAS  /tmp/ccmjY4Gs.s 			page 2


  31:Drivers/lvgl/src/widgets/tileview/lv_tileview.c ****  *  STATIC VARIABLES
  32:Drivers/lvgl/src/widgets/tileview/lv_tileview.c ****  **********************/
  33:Drivers/lvgl/src/widgets/tileview/lv_tileview.c **** 
  34:Drivers/lvgl/src/widgets/tileview/lv_tileview.c **** const lv_obj_class_t lv_tileview_class = {
  35:Drivers/lvgl/src/widgets/tileview/lv_tileview.c ****     .constructor_cb = lv_tileview_constructor,
  36:Drivers/lvgl/src/widgets/tileview/lv_tileview.c ****     .base_class = &lv_obj_class,
  37:Drivers/lvgl/src/widgets/tileview/lv_tileview.c ****     .instance_size = sizeof(lv_tileview_t),
  38:Drivers/lvgl/src/widgets/tileview/lv_tileview.c ****     .name = "lv_tileview",
  39:Drivers/lvgl/src/widgets/tileview/lv_tileview.c **** };
  40:Drivers/lvgl/src/widgets/tileview/lv_tileview.c **** 
  41:Drivers/lvgl/src/widgets/tileview/lv_tileview.c **** const lv_obj_class_t lv_tileview_tile_class = {
  42:Drivers/lvgl/src/widgets/tileview/lv_tileview.c ****     .constructor_cb = lv_tileview_tile_constructor,
  43:Drivers/lvgl/src/widgets/tileview/lv_tileview.c ****     .base_class = &lv_obj_class,
  44:Drivers/lvgl/src/widgets/tileview/lv_tileview.c ****     .instance_size = sizeof(lv_tileview_tile_t),
  45:Drivers/lvgl/src/widgets/tileview/lv_tileview.c ****     .name = "lv_tile",
  46:Drivers/lvgl/src/widgets/tileview/lv_tileview.c **** };
  47:Drivers/lvgl/src/widgets/tileview/lv_tileview.c **** 
  48:Drivers/lvgl/src/widgets/tileview/lv_tileview.c **** /**********************
  49:Drivers/lvgl/src/widgets/tileview/lv_tileview.c ****  *      MACROS
  50:Drivers/lvgl/src/widgets/tileview/lv_tileview.c ****  **********************/
  51:Drivers/lvgl/src/widgets/tileview/lv_tileview.c **** 
  52:Drivers/lvgl/src/widgets/tileview/lv_tileview.c **** /**********************
  53:Drivers/lvgl/src/widgets/tileview/lv_tileview.c ****  *   GLOBAL FUNCTIONS
  54:Drivers/lvgl/src/widgets/tileview/lv_tileview.c ****  **********************/
  55:Drivers/lvgl/src/widgets/tileview/lv_tileview.c **** 
  56:Drivers/lvgl/src/widgets/tileview/lv_tileview.c **** lv_obj_t * lv_tileview_create(lv_obj_t * parent)
  57:Drivers/lvgl/src/widgets/tileview/lv_tileview.c **** {
  58:Drivers/lvgl/src/widgets/tileview/lv_tileview.c ****     LV_LOG_INFO("begin");
  59:Drivers/lvgl/src/widgets/tileview/lv_tileview.c ****     lv_obj_t * obj = lv_obj_class_create_obj(&lv_tileview_class, parent);
  60:Drivers/lvgl/src/widgets/tileview/lv_tileview.c ****     lv_obj_class_init_obj(obj);
  61:Drivers/lvgl/src/widgets/tileview/lv_tileview.c ****     return obj;
  62:Drivers/lvgl/src/widgets/tileview/lv_tileview.c **** }
  63:Drivers/lvgl/src/widgets/tileview/lv_tileview.c **** 
  64:Drivers/lvgl/src/widgets/tileview/lv_tileview.c **** /*======================
  65:Drivers/lvgl/src/widgets/tileview/lv_tileview.c ****  * Add/remove functions
  66:Drivers/lvgl/src/widgets/tileview/lv_tileview.c ****  *=====================*/
  67:Drivers/lvgl/src/widgets/tileview/lv_tileview.c **** 
  68:Drivers/lvgl/src/widgets/tileview/lv_tileview.c **** lv_obj_t * lv_tileview_add_tile(lv_obj_t * tv, uint8_t col_id, uint8_t row_id, lv_dir_t dir)
  69:Drivers/lvgl/src/widgets/tileview/lv_tileview.c **** {
  70:Drivers/lvgl/src/widgets/tileview/lv_tileview.c ****     LV_LOG_INFO("begin");
  71:Drivers/lvgl/src/widgets/tileview/lv_tileview.c **** 
  72:Drivers/lvgl/src/widgets/tileview/lv_tileview.c ****     lv_obj_t * obj = lv_obj_class_create_obj(&lv_tileview_tile_class, tv);
  73:Drivers/lvgl/src/widgets/tileview/lv_tileview.c ****     lv_obj_class_init_obj(obj);
  74:Drivers/lvgl/src/widgets/tileview/lv_tileview.c ****     lv_obj_set_pos(obj, lv_pct(col_id * 100), lv_pct(row_id * 100));
  75:Drivers/lvgl/src/widgets/tileview/lv_tileview.c **** 
  76:Drivers/lvgl/src/widgets/tileview/lv_tileview.c ****     lv_tileview_tile_t * tile = (lv_tileview_tile_t *)obj;
  77:Drivers/lvgl/src/widgets/tileview/lv_tileview.c ****     tile->dir = dir;
  78:Drivers/lvgl/src/widgets/tileview/lv_tileview.c **** 
  79:Drivers/lvgl/src/widgets/tileview/lv_tileview.c ****     if(col_id == 0 && row_id == 0) {
  80:Drivers/lvgl/src/widgets/tileview/lv_tileview.c ****         lv_obj_set_scroll_dir(tv, dir);
  81:Drivers/lvgl/src/widgets/tileview/lv_tileview.c ****     }
  82:Drivers/lvgl/src/widgets/tileview/lv_tileview.c ****     return obj;
  83:Drivers/lvgl/src/widgets/tileview/lv_tileview.c **** }
  84:Drivers/lvgl/src/widgets/tileview/lv_tileview.c **** 
  85:Drivers/lvgl/src/widgets/tileview/lv_tileview.c **** void lv_tileview_set_tile(lv_obj_t * obj, lv_obj_t * tile_obj, lv_anim_enable_t anim_en)
  86:Drivers/lvgl/src/widgets/tileview/lv_tileview.c **** {
  87:Drivers/lvgl/src/widgets/tileview/lv_tileview.c ****     int32_t tx = lv_obj_get_x(tile_obj);
ARM GAS  /tmp/ccmjY4Gs.s 			page 3


  88:Drivers/lvgl/src/widgets/tileview/lv_tileview.c ****     int32_t ty = lv_obj_get_y(tile_obj);
  89:Drivers/lvgl/src/widgets/tileview/lv_tileview.c **** 
  90:Drivers/lvgl/src/widgets/tileview/lv_tileview.c ****     lv_tileview_tile_t * tile = (lv_tileview_tile_t *)tile_obj;
  91:Drivers/lvgl/src/widgets/tileview/lv_tileview.c ****     lv_tileview_t * tv = (lv_tileview_t *) obj;
  92:Drivers/lvgl/src/widgets/tileview/lv_tileview.c ****     tv->tile_act = (lv_obj_t *)tile;
  93:Drivers/lvgl/src/widgets/tileview/lv_tileview.c **** 
  94:Drivers/lvgl/src/widgets/tileview/lv_tileview.c ****     lv_obj_set_scroll_dir(obj, tile->dir);
  95:Drivers/lvgl/src/widgets/tileview/lv_tileview.c ****     lv_obj_scroll_to(obj, tx, ty, anim_en);
  96:Drivers/lvgl/src/widgets/tileview/lv_tileview.c **** }
  97:Drivers/lvgl/src/widgets/tileview/lv_tileview.c **** 
  98:Drivers/lvgl/src/widgets/tileview/lv_tileview.c **** void lv_tileview_set_tile_by_index(lv_obj_t * tv, uint32_t col_id, uint32_t row_id, lv_anim_enable_
  99:Drivers/lvgl/src/widgets/tileview/lv_tileview.c **** {
 100:Drivers/lvgl/src/widgets/tileview/lv_tileview.c ****     lv_obj_update_layout(tv);
 101:Drivers/lvgl/src/widgets/tileview/lv_tileview.c **** 
 102:Drivers/lvgl/src/widgets/tileview/lv_tileview.c ****     int32_t w = lv_obj_get_content_width(tv);
 103:Drivers/lvgl/src/widgets/tileview/lv_tileview.c ****     int32_t h = lv_obj_get_content_height(tv);
 104:Drivers/lvgl/src/widgets/tileview/lv_tileview.c **** 
 105:Drivers/lvgl/src/widgets/tileview/lv_tileview.c ****     int32_t tx = col_id * w;
 106:Drivers/lvgl/src/widgets/tileview/lv_tileview.c ****     int32_t ty = row_id * h;
 107:Drivers/lvgl/src/widgets/tileview/lv_tileview.c **** 
 108:Drivers/lvgl/src/widgets/tileview/lv_tileview.c ****     uint32_t i;
 109:Drivers/lvgl/src/widgets/tileview/lv_tileview.c ****     for(i = 0; i < lv_obj_get_child_count(tv); i++) {
 110:Drivers/lvgl/src/widgets/tileview/lv_tileview.c ****         lv_obj_t * tile_obj = lv_obj_get_child(tv, i);
 111:Drivers/lvgl/src/widgets/tileview/lv_tileview.c ****         int32_t x = lv_obj_get_x(tile_obj);
 112:Drivers/lvgl/src/widgets/tileview/lv_tileview.c ****         int32_t y = lv_obj_get_y(tile_obj);
 113:Drivers/lvgl/src/widgets/tileview/lv_tileview.c ****         if(x == tx && y == ty) {
 114:Drivers/lvgl/src/widgets/tileview/lv_tileview.c ****             lv_tileview_set_tile(tv, tile_obj, anim_en);
 115:Drivers/lvgl/src/widgets/tileview/lv_tileview.c ****             return;
 116:Drivers/lvgl/src/widgets/tileview/lv_tileview.c ****         }
 117:Drivers/lvgl/src/widgets/tileview/lv_tileview.c ****     }
 118:Drivers/lvgl/src/widgets/tileview/lv_tileview.c **** 
 119:Drivers/lvgl/src/widgets/tileview/lv_tileview.c ****     LV_LOG_WARN("No tile found with at (%d,%d) index", (int)col_id, (int)row_id);
 120:Drivers/lvgl/src/widgets/tileview/lv_tileview.c **** }
 121:Drivers/lvgl/src/widgets/tileview/lv_tileview.c **** 
 122:Drivers/lvgl/src/widgets/tileview/lv_tileview.c **** lv_obj_t * lv_tileview_get_tile_active(lv_obj_t * obj)
 123:Drivers/lvgl/src/widgets/tileview/lv_tileview.c **** {
 124:Drivers/lvgl/src/widgets/tileview/lv_tileview.c ****     lv_tileview_t * tv = (lv_tileview_t *) obj;
 125:Drivers/lvgl/src/widgets/tileview/lv_tileview.c ****     return tv->tile_act;
 126:Drivers/lvgl/src/widgets/tileview/lv_tileview.c **** }
 127:Drivers/lvgl/src/widgets/tileview/lv_tileview.c **** 
 128:Drivers/lvgl/src/widgets/tileview/lv_tileview.c **** /**********************
 129:Drivers/lvgl/src/widgets/tileview/lv_tileview.c ****  *   STATIC FUNCTIONS
 130:Drivers/lvgl/src/widgets/tileview/lv_tileview.c ****  **********************/
 131:Drivers/lvgl/src/widgets/tileview/lv_tileview.c **** 
 132:Drivers/lvgl/src/widgets/tileview/lv_tileview.c **** static void lv_tileview_constructor(const lv_obj_class_t * class_p, lv_obj_t * obj)
 133:Drivers/lvgl/src/widgets/tileview/lv_tileview.c **** {
  29              		.loc 1 133 1 view -0
  30              		.cfi_startproc
  31              		@ args = 0, pretend = 0, frame = 0
  32              		@ frame_needed = 0, uses_anonymous_args = 0
  33              		.loc 1 133 1 is_stmt 0 view .LVU1
  34 0000 10B5     		push	{r4, lr}
  35              	.LCFI0:
  36              		.cfi_def_cfa_offset 8
  37              		.cfi_offset 4, -8
  38              		.cfi_offset 14, -4
  39 0002 0C46     		mov	r4, r1
ARM GAS  /tmp/ccmjY4Gs.s 			page 4


 134:Drivers/lvgl/src/widgets/tileview/lv_tileview.c ****     LV_UNUSED(class_p);
  40              		.loc 1 134 5 is_stmt 1 view .LVU2
 135:Drivers/lvgl/src/widgets/tileview/lv_tileview.c ****     lv_obj_set_size(obj, LV_PCT(100), LV_PCT(100));
  41              		.loc 1 135 5 view .LVU3
  42 0004 0B49     		ldr	r1, .L3
  43              	.LVL1:
  44              		.loc 1 135 5 is_stmt 0 view .LVU4
  45 0006 0A46     		mov	r2, r1
  46 0008 2046     		mov	r0, r4
  47              	.LVL2:
  48              		.loc 1 135 5 view .LVU5
  49 000a FFF7FEFF 		bl	lv_obj_set_size
  50              	.LVL3:
 136:Drivers/lvgl/src/widgets/tileview/lv_tileview.c ****     lv_obj_add_event_cb(obj, tileview_event_cb, LV_EVENT_SCROLL_END, NULL);
  51              		.loc 1 136 5 is_stmt 1 view .LVU6
  52 000e 0023     		movs	r3, #0
  53 0010 0E22     		movs	r2, #14
  54 0012 0949     		ldr	r1, .L3+4
  55 0014 2046     		mov	r0, r4
  56 0016 FFF7FEFF 		bl	lv_obj_add_event_cb
  57              	.LVL4:
 137:Drivers/lvgl/src/widgets/tileview/lv_tileview.c ****     lv_obj_add_flag(obj, LV_OBJ_FLAG_SCROLL_ONE);
  58              		.loc 1 137 5 view .LVU7
  59 001a 8021     		movs	r1, #128
  60 001c 2046     		mov	r0, r4
  61 001e FFF7FEFF 		bl	lv_obj_add_flag
  62              	.LVL5:
 138:Drivers/lvgl/src/widgets/tileview/lv_tileview.c ****     lv_obj_set_scroll_snap_x(obj, LV_SCROLL_SNAP_CENTER);
  63              		.loc 1 138 5 view .LVU8
  64 0022 0321     		movs	r1, #3
  65 0024 2046     		mov	r0, r4
  66 0026 FFF7FEFF 		bl	lv_obj_set_scroll_snap_x
  67              	.LVL6:
 139:Drivers/lvgl/src/widgets/tileview/lv_tileview.c ****     lv_obj_set_scroll_snap_y(obj, LV_SCROLL_SNAP_CENTER);
  68              		.loc 1 139 5 view .LVU9
  69 002a 0321     		movs	r1, #3
  70 002c 2046     		mov	r0, r4
  71 002e FFF7FEFF 		bl	lv_obj_set_scroll_snap_y
  72              	.LVL7:
 140:Drivers/lvgl/src/widgets/tileview/lv_tileview.c **** }
  73              		.loc 1 140 1 is_stmt 0 view .LVU10
  74 0032 10BD     		pop	{r4, pc}
  75              	.LVL8:
  76              	.L4:
  77              		.loc 1 140 1 view .LVU11
  78              		.align	2
  79              	.L3:
  80 0034 64000020 		.word	536871012
  81 0038 00000000 		.word	tileview_event_cb
  82              		.cfi_endproc
  83              	.LFE176:
  85              		.section	.text.tileview_event_cb,"ax",%progbits
  86              		.align	1
  87              		.syntax unified
  88              		.thumb
  89              		.thumb_func
  91              	tileview_event_cb:
ARM GAS  /tmp/ccmjY4Gs.s 			page 5


  92              	.LVL9:
  93              	.LFB178:
 141:Drivers/lvgl/src/widgets/tileview/lv_tileview.c **** 
 142:Drivers/lvgl/src/widgets/tileview/lv_tileview.c **** static void lv_tileview_tile_constructor(const lv_obj_class_t * class_p, lv_obj_t * obj)
 143:Drivers/lvgl/src/widgets/tileview/lv_tileview.c **** {
 144:Drivers/lvgl/src/widgets/tileview/lv_tileview.c **** 
 145:Drivers/lvgl/src/widgets/tileview/lv_tileview.c ****     LV_UNUSED(class_p);
 146:Drivers/lvgl/src/widgets/tileview/lv_tileview.c ****     lv_obj_set_size(obj, LV_PCT(100), LV_PCT(100));
 147:Drivers/lvgl/src/widgets/tileview/lv_tileview.c ****     lv_obj_update_layout(obj);  /*Be sure the size is correct*/
 148:Drivers/lvgl/src/widgets/tileview/lv_tileview.c **** }
 149:Drivers/lvgl/src/widgets/tileview/lv_tileview.c **** 
 150:Drivers/lvgl/src/widgets/tileview/lv_tileview.c **** static void tileview_event_cb(lv_event_t * e)
 151:Drivers/lvgl/src/widgets/tileview/lv_tileview.c **** {
  94              		.loc 1 151 1 is_stmt 1 view -0
  95              		.cfi_startproc
  96              		@ args = 0, pretend = 0, frame = 8
  97              		@ frame_needed = 0, uses_anonymous_args = 0
  98              		.loc 1 151 1 is_stmt 0 view .LVU13
  99 0000 2DE9F043 		push	{r4, r5, r6, r7, r8, r9, lr}
 100              	.LCFI1:
 101              		.cfi_def_cfa_offset 28
 102              		.cfi_offset 4, -28
 103              		.cfi_offset 5, -24
 104              		.cfi_offset 6, -20
 105              		.cfi_offset 7, -16
 106              		.cfi_offset 8, -12
 107              		.cfi_offset 9, -8
 108              		.cfi_offset 14, -4
 109 0004 83B0     		sub	sp, sp, #12
 110              	.LCFI2:
 111              		.cfi_def_cfa_offset 40
 112 0006 0446     		mov	r4, r0
 152:Drivers/lvgl/src/widgets/tileview/lv_tileview.c ****     lv_event_code_t code = lv_event_get_code(e);
 113              		.loc 1 152 5 is_stmt 1 view .LVU14
 114              		.loc 1 152 28 is_stmt 0 view .LVU15
 115 0008 FFF7FEFF 		bl	lv_event_get_code
 116              	.LVL10:
 117              		.loc 1 152 28 view .LVU16
 118 000c 0546     		mov	r5, r0
 119              	.LVL11:
 153:Drivers/lvgl/src/widgets/tileview/lv_tileview.c ****     lv_obj_t * obj = lv_event_get_current_target(e);
 120              		.loc 1 153 5 is_stmt 1 view .LVU17
 121              		.loc 1 153 22 is_stmt 0 view .LVU18
 122 000e 2046     		mov	r0, r4
 123              	.LVL12:
 124              		.loc 1 153 22 view .LVU19
 125 0010 FFF7FEFF 		bl	lv_event_get_current_target
 126              	.LVL13:
 154:Drivers/lvgl/src/widgets/tileview/lv_tileview.c ****     lv_tileview_t * tv = (lv_tileview_t *) obj;
 127              		.loc 1 154 5 is_stmt 1 view .LVU20
 155:Drivers/lvgl/src/widgets/tileview/lv_tileview.c **** 
 156:Drivers/lvgl/src/widgets/tileview/lv_tileview.c ****     if(code == LV_EVENT_SCROLL_END) {
 128              		.loc 1 156 5 view .LVU21
 129              		.loc 1 156 7 is_stmt 0 view .LVU22
 130 0014 0E2D     		cmp	r5, #14
 131 0016 02D0     		beq	.L15
 132              	.LVL14:
ARM GAS  /tmp/ccmjY4Gs.s 			page 6


 133              	.L5:
 157:Drivers/lvgl/src/widgets/tileview/lv_tileview.c ****         lv_indev_t * indev = lv_indev_active();
 158:Drivers/lvgl/src/widgets/tileview/lv_tileview.c ****         if(indev && indev->state == LV_INDEV_STATE_PRESSED) {
 159:Drivers/lvgl/src/widgets/tileview/lv_tileview.c ****             return;
 160:Drivers/lvgl/src/widgets/tileview/lv_tileview.c ****         }
 161:Drivers/lvgl/src/widgets/tileview/lv_tileview.c **** 
 162:Drivers/lvgl/src/widgets/tileview/lv_tileview.c ****         int32_t w = lv_obj_get_content_width(obj);
 163:Drivers/lvgl/src/widgets/tileview/lv_tileview.c ****         int32_t h = lv_obj_get_content_height(obj);
 164:Drivers/lvgl/src/widgets/tileview/lv_tileview.c **** 
 165:Drivers/lvgl/src/widgets/tileview/lv_tileview.c ****         lv_point_t scroll_end;
 166:Drivers/lvgl/src/widgets/tileview/lv_tileview.c ****         lv_obj_get_scroll_end(obj, &scroll_end);
 167:Drivers/lvgl/src/widgets/tileview/lv_tileview.c ****         int32_t left = scroll_end.x;
 168:Drivers/lvgl/src/widgets/tileview/lv_tileview.c ****         int32_t top = scroll_end.y;
 169:Drivers/lvgl/src/widgets/tileview/lv_tileview.c **** 
 170:Drivers/lvgl/src/widgets/tileview/lv_tileview.c ****         int32_t tx = ((left + (w / 2)) / w) * w;
 171:Drivers/lvgl/src/widgets/tileview/lv_tileview.c ****         int32_t ty = ((top + (h / 2)) / h) * h;
 172:Drivers/lvgl/src/widgets/tileview/lv_tileview.c **** 
 173:Drivers/lvgl/src/widgets/tileview/lv_tileview.c ****         lv_dir_t dir = LV_DIR_ALL;
 174:Drivers/lvgl/src/widgets/tileview/lv_tileview.c ****         uint32_t i;
 175:Drivers/lvgl/src/widgets/tileview/lv_tileview.c ****         for(i = 0; i < lv_obj_get_child_count(obj); i++) {
 176:Drivers/lvgl/src/widgets/tileview/lv_tileview.c ****             lv_obj_t * tile_obj = lv_obj_get_child(obj, i);
 177:Drivers/lvgl/src/widgets/tileview/lv_tileview.c ****             int32_t x = lv_obj_get_x(tile_obj);
 178:Drivers/lvgl/src/widgets/tileview/lv_tileview.c ****             int32_t y = lv_obj_get_y(tile_obj);
 179:Drivers/lvgl/src/widgets/tileview/lv_tileview.c ****             if(x == tx && y == ty) {
 180:Drivers/lvgl/src/widgets/tileview/lv_tileview.c ****                 lv_tileview_tile_t * tile = (lv_tileview_tile_t *)tile_obj;
 181:Drivers/lvgl/src/widgets/tileview/lv_tileview.c ****                 tv->tile_act = (lv_obj_t *)tile;
 182:Drivers/lvgl/src/widgets/tileview/lv_tileview.c ****                 dir = tile->dir;
 183:Drivers/lvgl/src/widgets/tileview/lv_tileview.c ****                 lv_obj_send_event(obj, LV_EVENT_VALUE_CHANGED, NULL);
 184:Drivers/lvgl/src/widgets/tileview/lv_tileview.c ****                 break;
 185:Drivers/lvgl/src/widgets/tileview/lv_tileview.c ****             }
 186:Drivers/lvgl/src/widgets/tileview/lv_tileview.c ****         }
 187:Drivers/lvgl/src/widgets/tileview/lv_tileview.c ****         lv_obj_set_scroll_dir(obj, dir);
 188:Drivers/lvgl/src/widgets/tileview/lv_tileview.c ****     }
 189:Drivers/lvgl/src/widgets/tileview/lv_tileview.c **** }
 134              		.loc 1 189 1 view .LVU23
 135 0018 03B0     		add	sp, sp, #12
 136              	.LCFI3:
 137              		.cfi_remember_state
 138              		.cfi_def_cfa_offset 28
 139              		@ sp needed
 140 001a BDE8F083 		pop	{r4, r5, r6, r7, r8, r9, pc}
 141              	.LVL15:
 142              	.L15:
 143              	.LCFI4:
 144              		.cfi_restore_state
 145              		.loc 1 189 1 view .LVU24
 146 001e 0446     		mov	r4, r0
 147              	.LVL16:
 148              	.LBB2:
 157:Drivers/lvgl/src/widgets/tileview/lv_tileview.c ****         lv_indev_t * indev = lv_indev_active();
 149              		.loc 1 157 9 is_stmt 1 view .LVU25
 157:Drivers/lvgl/src/widgets/tileview/lv_tileview.c ****         lv_indev_t * indev = lv_indev_active();
 150              		.loc 1 157 30 is_stmt 0 view .LVU26
 151 0020 FFF7FEFF 		bl	lv_indev_active
 152              	.LVL17:
 158:Drivers/lvgl/src/widgets/tileview/lv_tileview.c ****             return;
 153              		.loc 1 158 9 is_stmt 1 view .LVU27
ARM GAS  /tmp/ccmjY4Gs.s 			page 7


 158:Drivers/lvgl/src/widgets/tileview/lv_tileview.c ****             return;
 154              		.loc 1 158 11 is_stmt 0 view .LVU28
 155 0024 10B1     		cbz	r0, .L7
 158:Drivers/lvgl/src/widgets/tileview/lv_tileview.c ****             return;
 156              		.loc 1 158 26 discriminator 1 view .LVU29
 157 0026 037A     		ldrb	r3, [r0, #8]	@ zero_extendqisi2
 158:Drivers/lvgl/src/widgets/tileview/lv_tileview.c ****             return;
 158              		.loc 1 158 18 discriminator 1 view .LVU30
 159 0028 012B     		cmp	r3, #1
 160 002a F5D0     		beq	.L5
 161              	.L7:
 162:Drivers/lvgl/src/widgets/tileview/lv_tileview.c ****         int32_t h = lv_obj_get_content_height(obj);
 162              		.loc 1 162 9 is_stmt 1 view .LVU31
 162:Drivers/lvgl/src/widgets/tileview/lv_tileview.c ****         int32_t h = lv_obj_get_content_height(obj);
 163              		.loc 1 162 21 is_stmt 0 view .LVU32
 164 002c 2046     		mov	r0, r4
 165              	.LVL18:
 162:Drivers/lvgl/src/widgets/tileview/lv_tileview.c ****         int32_t h = lv_obj_get_content_height(obj);
 166              		.loc 1 162 21 view .LVU33
 167 002e FFF7FEFF 		bl	lv_obj_get_content_width
 168              	.LVL19:
 169 0032 0646     		mov	r6, r0
 170              	.LVL20:
 163:Drivers/lvgl/src/widgets/tileview/lv_tileview.c **** 
 171              		.loc 1 163 9 is_stmt 1 view .LVU34
 163:Drivers/lvgl/src/widgets/tileview/lv_tileview.c **** 
 172              		.loc 1 163 21 is_stmt 0 view .LVU35
 173 0034 2046     		mov	r0, r4
 174              	.LVL21:
 163:Drivers/lvgl/src/widgets/tileview/lv_tileview.c **** 
 175              		.loc 1 163 21 view .LVU36
 176 0036 FFF7FEFF 		bl	lv_obj_get_content_height
 177              	.LVL22:
 178 003a 0546     		mov	r5, r0
 179              	.LVL23:
 165:Drivers/lvgl/src/widgets/tileview/lv_tileview.c ****         lv_obj_get_scroll_end(obj, &scroll_end);
 180              		.loc 1 165 9 is_stmt 1 view .LVU37
 166:Drivers/lvgl/src/widgets/tileview/lv_tileview.c ****         int32_t left = scroll_end.x;
 181              		.loc 1 166 9 view .LVU38
 182 003c 6946     		mov	r1, sp
 183 003e 2046     		mov	r0, r4
 184              	.LVL24:
 166:Drivers/lvgl/src/widgets/tileview/lv_tileview.c ****         int32_t left = scroll_end.x;
 185              		.loc 1 166 9 is_stmt 0 view .LVU39
 186 0040 FFF7FEFF 		bl	lv_obj_get_scroll_end
 187              	.LVL25:
 167:Drivers/lvgl/src/widgets/tileview/lv_tileview.c ****         int32_t top = scroll_end.y;
 188              		.loc 1 167 9 is_stmt 1 view .LVU40
 167:Drivers/lvgl/src/widgets/tileview/lv_tileview.c ****         int32_t top = scroll_end.y;
 189              		.loc 1 167 17 is_stmt 0 view .LVU41
 190 0044 009A     		ldr	r2, [sp]
 191              	.LVL26:
 168:Drivers/lvgl/src/widgets/tileview/lv_tileview.c **** 
 192              		.loc 1 168 9 is_stmt 1 view .LVU42
 168:Drivers/lvgl/src/widgets/tileview/lv_tileview.c **** 
 193              		.loc 1 168 17 is_stmt 0 view .LVU43
 194 0046 019B     		ldr	r3, [sp, #4]
ARM GAS  /tmp/ccmjY4Gs.s 			page 8


 195              	.LVL27:
 170:Drivers/lvgl/src/widgets/tileview/lv_tileview.c ****         int32_t ty = ((top + (h / 2)) / h) * h;
 196              		.loc 1 170 9 is_stmt 1 view .LVU44
 170:Drivers/lvgl/src/widgets/tileview/lv_tileview.c ****         int32_t ty = ((top + (h / 2)) / h) * h;
 197              		.loc 1 170 34 is_stmt 0 view .LVU45
 198 0048 3146     		mov	r1, r6
 199 004a 002E     		cmp	r6, #0
 200 004c 25DB     		blt	.L16
 201              	.L8:
 170:Drivers/lvgl/src/widgets/tileview/lv_tileview.c ****         int32_t ty = ((top + (h / 2)) / h) * h;
 202              		.loc 1 170 29 view .LVU46
 203 004e 02EB6109 		add	r9, r2, r1, asr #1
 170:Drivers/lvgl/src/widgets/tileview/lv_tileview.c ****         int32_t ty = ((top + (h / 2)) / h) * h;
 204              		.loc 1 170 40 view .LVU47
 205 0052 99FBF6F9 		sdiv	r9, r9, r6
 170:Drivers/lvgl/src/widgets/tileview/lv_tileview.c ****         int32_t ty = ((top + (h / 2)) / h) * h;
 206              		.loc 1 170 17 view .LVU48
 207 0056 06FB09F9 		mul	r9, r6, r9
 208              	.LVL28:
 171:Drivers/lvgl/src/widgets/tileview/lv_tileview.c **** 
 209              		.loc 1 171 9 is_stmt 1 view .LVU49
 171:Drivers/lvgl/src/widgets/tileview/lv_tileview.c **** 
 210              		.loc 1 171 33 is_stmt 0 view .LVU50
 211 005a 2A46     		mov	r2, r5
 212              	.LVL29:
 171:Drivers/lvgl/src/widgets/tileview/lv_tileview.c **** 
 213              		.loc 1 171 33 view .LVU51
 214 005c 002D     		cmp	r5, #0
 215 005e 1EDB     		blt	.L17
 216              	.L9:
 171:Drivers/lvgl/src/widgets/tileview/lv_tileview.c **** 
 217              		.loc 1 171 28 view .LVU52
 218 0060 03EB6208 		add	r8, r3, r2, asr #1
 171:Drivers/lvgl/src/widgets/tileview/lv_tileview.c **** 
 219              		.loc 1 171 39 view .LVU53
 220 0064 98FBF5F8 		sdiv	r8, r8, r5
 171:Drivers/lvgl/src/widgets/tileview/lv_tileview.c **** 
 221              		.loc 1 171 17 view .LVU54
 222 0068 05FB08F8 		mul	r8, r5, r8
 223              	.LVL30:
 173:Drivers/lvgl/src/widgets/tileview/lv_tileview.c ****         uint32_t i;
 224              		.loc 1 173 9 is_stmt 1 view .LVU55
 174:Drivers/lvgl/src/widgets/tileview/lv_tileview.c ****         for(i = 0; i < lv_obj_get_child_count(obj); i++) {
 225              		.loc 1 174 9 view .LVU56
 175:Drivers/lvgl/src/widgets/tileview/lv_tileview.c ****             lv_obj_t * tile_obj = lv_obj_get_child(obj, i);
 226              		.loc 1 175 9 view .LVU57
 175:Drivers/lvgl/src/widgets/tileview/lv_tileview.c ****             lv_obj_t * tile_obj = lv_obj_get_child(obj, i);
 227              		.loc 1 175 15 is_stmt 0 view .LVU58
 228 006c 0026     		movs	r6, #0
 229              	.LVL31:
 230              	.L10:
 175:Drivers/lvgl/src/widgets/tileview/lv_tileview.c ****             lv_obj_t * tile_obj = lv_obj_get_child(obj, i);
 231              		.loc 1 175 22 is_stmt 1 discriminator 1 view .LVU59
 175:Drivers/lvgl/src/widgets/tileview/lv_tileview.c ****             lv_obj_t * tile_obj = lv_obj_get_child(obj, i);
 232              		.loc 1 175 24 is_stmt 0 discriminator 1 view .LVU60
 233 006e 2046     		mov	r0, r4
 234 0070 FFF7FEFF 		bl	lv_obj_get_child_count
ARM GAS  /tmp/ccmjY4Gs.s 			page 9


 235              	.LVL32:
 175:Drivers/lvgl/src/widgets/tileview/lv_tileview.c ****             lv_obj_t * tile_obj = lv_obj_get_child(obj, i);
 236              		.loc 1 175 22 discriminator 1 view .LVU61
 237 0074 B042     		cmp	r0, r6
 238 0076 1DD9     		bls	.L18
 239              	.LBB3:
 176:Drivers/lvgl/src/widgets/tileview/lv_tileview.c ****             int32_t x = lv_obj_get_x(tile_obj);
 240              		.loc 1 176 13 is_stmt 1 view .LVU62
 176:Drivers/lvgl/src/widgets/tileview/lv_tileview.c ****             int32_t x = lv_obj_get_x(tile_obj);
 241              		.loc 1 176 35 is_stmt 0 view .LVU63
 242 0078 3146     		mov	r1, r6
 243 007a 2046     		mov	r0, r4
 244 007c FFF7FEFF 		bl	lv_obj_get_child
 245              	.LVL33:
 246 0080 0546     		mov	r5, r0
 247              	.LVL34:
 177:Drivers/lvgl/src/widgets/tileview/lv_tileview.c ****             int32_t y = lv_obj_get_y(tile_obj);
 248              		.loc 1 177 13 is_stmt 1 view .LVU64
 177:Drivers/lvgl/src/widgets/tileview/lv_tileview.c ****             int32_t y = lv_obj_get_y(tile_obj);
 249              		.loc 1 177 25 is_stmt 0 view .LVU65
 250 0082 FFF7FEFF 		bl	lv_obj_get_x
 251              	.LVL35:
 177:Drivers/lvgl/src/widgets/tileview/lv_tileview.c ****             int32_t y = lv_obj_get_y(tile_obj);
 252              		.loc 1 177 25 view .LVU66
 253 0086 0746     		mov	r7, r0
 254              	.LVL36:
 178:Drivers/lvgl/src/widgets/tileview/lv_tileview.c ****             if(x == tx && y == ty) {
 255              		.loc 1 178 13 is_stmt 1 view .LVU67
 178:Drivers/lvgl/src/widgets/tileview/lv_tileview.c ****             if(x == tx && y == ty) {
 256              		.loc 1 178 25 is_stmt 0 view .LVU68
 257 0088 2846     		mov	r0, r5
 258              	.LVL37:
 178:Drivers/lvgl/src/widgets/tileview/lv_tileview.c ****             if(x == tx && y == ty) {
 259              		.loc 1 178 25 view .LVU69
 260 008a FFF7FEFF 		bl	lv_obj_get_y
 261              	.LVL38:
 179:Drivers/lvgl/src/widgets/tileview/lv_tileview.c ****                 lv_tileview_tile_t * tile = (lv_tileview_tile_t *)tile_obj;
 262              		.loc 1 179 13 is_stmt 1 view .LVU70
 179:Drivers/lvgl/src/widgets/tileview/lv_tileview.c ****                 lv_tileview_tile_t * tile = (lv_tileview_tile_t *)tile_obj;
 263              		.loc 1 179 15 is_stmt 0 view .LVU71
 264 008e B945     		cmp	r9, r7
 265 0090 08BF     		it	eq
 266 0092 8045     		cmpeq	r8, r0
 267 0094 05D0     		beq	.L19
 268              	.LBE3:
 175:Drivers/lvgl/src/widgets/tileview/lv_tileview.c ****             lv_obj_t * tile_obj = lv_obj_get_child(obj, i);
 269              		.loc 1 175 54 is_stmt 1 discriminator 2 view .LVU72
 270 0096 0136     		adds	r6, r6, #1
 271              	.LVL39:
 175:Drivers/lvgl/src/widgets/tileview/lv_tileview.c ****             lv_obj_t * tile_obj = lv_obj_get_child(obj, i);
 272              		.loc 1 175 54 is_stmt 0 discriminator 2 view .LVU73
 273 0098 E9E7     		b	.L10
 274              	.LVL40:
 275              	.L16:
 170:Drivers/lvgl/src/widgets/tileview/lv_tileview.c ****         int32_t ty = ((top + (h / 2)) / h) * h;
 276              		.loc 1 170 34 view .LVU74
 277 009a 711C     		adds	r1, r6, #1
ARM GAS  /tmp/ccmjY4Gs.s 			page 10


 278              	.LVL41:
 170:Drivers/lvgl/src/widgets/tileview/lv_tileview.c ****         int32_t ty = ((top + (h / 2)) / h) * h;
 279              		.loc 1 170 34 view .LVU75
 280 009c D7E7     		b	.L8
 281              	.LVL42:
 282              	.L17:
 171:Drivers/lvgl/src/widgets/tileview/lv_tileview.c **** 
 283              		.loc 1 171 33 view .LVU76
 284 009e 6A1C     		adds	r2, r5, #1
 285              	.LVL43:
 171:Drivers/lvgl/src/widgets/tileview/lv_tileview.c **** 
 286              		.loc 1 171 33 view .LVU77
 287 00a0 DEE7     		b	.L9
 288              	.LVL44:
 289              	.L19:
 290              	.LBB5:
 291              	.LBB4:
 180:Drivers/lvgl/src/widgets/tileview/lv_tileview.c ****                 tv->tile_act = (lv_obj_t *)tile;
 292              		.loc 1 180 17 is_stmt 1 view .LVU78
 181:Drivers/lvgl/src/widgets/tileview/lv_tileview.c ****                 dir = tile->dir;
 293              		.loc 1 181 17 view .LVU79
 181:Drivers/lvgl/src/widgets/tileview/lv_tileview.c ****                 dir = tile->dir;
 294              		.loc 1 181 30 is_stmt 0 view .LVU80
 295 00a2 E562     		str	r5, [r4, #44]
 182:Drivers/lvgl/src/widgets/tileview/lv_tileview.c ****                 lv_obj_send_event(obj, LV_EVENT_VALUE_CHANGED, NULL);
 296              		.loc 1 182 17 is_stmt 1 view .LVU81
 182:Drivers/lvgl/src/widgets/tileview/lv_tileview.c ****                 lv_obj_send_event(obj, LV_EVENT_VALUE_CHANGED, NULL);
 297              		.loc 1 182 21 is_stmt 0 view .LVU82
 298 00a4 95F82C50 		ldrb	r5, [r5, #44]	@ zero_extendqisi2
 299              	.LVL45:
 183:Drivers/lvgl/src/widgets/tileview/lv_tileview.c ****                 break;
 300              		.loc 1 183 17 is_stmt 1 view .LVU83
 301 00a8 0022     		movs	r2, #0
 302 00aa 2321     		movs	r1, #35
 303 00ac 2046     		mov	r0, r4
 304              	.LVL46:
 183:Drivers/lvgl/src/widgets/tileview/lv_tileview.c ****                 break;
 305              		.loc 1 183 17 is_stmt 0 view .LVU84
 306 00ae FFF7FEFF 		bl	lv_obj_send_event
 307              	.LVL47:
 184:Drivers/lvgl/src/widgets/tileview/lv_tileview.c ****             }
 308              		.loc 1 184 17 is_stmt 1 view .LVU85
 309 00b2 00E0     		b	.L12
 310              	.LVL48:
 311              	.L18:
 184:Drivers/lvgl/src/widgets/tileview/lv_tileview.c ****             }
 312              		.loc 1 184 17 is_stmt 0 view .LVU86
 313              	.LBE4:
 314              	.LBE5:
 173:Drivers/lvgl/src/widgets/tileview/lv_tileview.c ****         uint32_t i;
 315              		.loc 1 173 18 view .LVU87
 316 00b4 0F25     		movs	r5, #15
 317              	.LVL49:
 318              	.L12:
 187:Drivers/lvgl/src/widgets/tileview/lv_tileview.c ****     }
 319              		.loc 1 187 9 is_stmt 1 view .LVU88
 320 00b6 2946     		mov	r1, r5
ARM GAS  /tmp/ccmjY4Gs.s 			page 11


 321 00b8 2046     		mov	r0, r4
 322 00ba FFF7FEFF 		bl	lv_obj_set_scroll_dir
 323              	.LVL50:
 324 00be ABE7     		b	.L5
 325              	.LBE2:
 326              		.cfi_endproc
 327              	.LFE178:
 329              		.section	.text.lv_tileview_tile_constructor,"ax",%progbits
 330              		.align	1
 331              		.syntax unified
 332              		.thumb
 333              		.thumb_func
 335              	lv_tileview_tile_constructor:
 336              	.LVL51:
 337              	.LFB177:
 143:Drivers/lvgl/src/widgets/tileview/lv_tileview.c **** 
 338              		.loc 1 143 1 view -0
 339              		.cfi_startproc
 340              		@ args = 0, pretend = 0, frame = 0
 341              		@ frame_needed = 0, uses_anonymous_args = 0
 143:Drivers/lvgl/src/widgets/tileview/lv_tileview.c **** 
 342              		.loc 1 143 1 is_stmt 0 view .LVU90
 343 0000 10B5     		push	{r4, lr}
 344              	.LCFI5:
 345              		.cfi_def_cfa_offset 8
 346              		.cfi_offset 4, -8
 347              		.cfi_offset 14, -4
 348 0002 0C46     		mov	r4, r1
 145:Drivers/lvgl/src/widgets/tileview/lv_tileview.c ****     lv_obj_set_size(obj, LV_PCT(100), LV_PCT(100));
 349              		.loc 1 145 5 is_stmt 1 view .LVU91
 146:Drivers/lvgl/src/widgets/tileview/lv_tileview.c ****     lv_obj_update_layout(obj);  /*Be sure the size is correct*/
 350              		.loc 1 146 5 view .LVU92
 351 0004 0449     		ldr	r1, .L22
 352              	.LVL52:
 146:Drivers/lvgl/src/widgets/tileview/lv_tileview.c ****     lv_obj_update_layout(obj);  /*Be sure the size is correct*/
 353              		.loc 1 146 5 is_stmt 0 view .LVU93
 354 0006 0A46     		mov	r2, r1
 355 0008 2046     		mov	r0, r4
 356              	.LVL53:
 146:Drivers/lvgl/src/widgets/tileview/lv_tileview.c ****     lv_obj_update_layout(obj);  /*Be sure the size is correct*/
 357              		.loc 1 146 5 view .LVU94
 358 000a FFF7FEFF 		bl	lv_obj_set_size
 359              	.LVL54:
 147:Drivers/lvgl/src/widgets/tileview/lv_tileview.c **** }
 360              		.loc 1 147 5 is_stmt 1 view .LVU95
 361 000e 2046     		mov	r0, r4
 362 0010 FFF7FEFF 		bl	lv_obj_update_layout
 363              	.LVL55:
 148:Drivers/lvgl/src/widgets/tileview/lv_tileview.c **** 
 364              		.loc 1 148 1 is_stmt 0 view .LVU96
 365 0014 10BD     		pop	{r4, pc}
 366              	.LVL56:
 367              	.L23:
 148:Drivers/lvgl/src/widgets/tileview/lv_tileview.c **** 
 368              		.loc 1 148 1 view .LVU97
 369 0016 00BF     		.align	2
 370              	.L22:
ARM GAS  /tmp/ccmjY4Gs.s 			page 12


 371 0018 64000020 		.word	536871012
 372              		.cfi_endproc
 373              	.LFE177:
 375              		.section	.text.lv_tileview_create,"ax",%progbits
 376              		.align	1
 377              		.global	lv_tileview_create
 378              		.syntax unified
 379              		.thumb
 380              		.thumb_func
 382              	lv_tileview_create:
 383              	.LVL57:
 384              	.LFB171:
  57:Drivers/lvgl/src/widgets/tileview/lv_tileview.c ****     LV_LOG_INFO("begin");
 385              		.loc 1 57 1 is_stmt 1 view -0
 386              		.cfi_startproc
 387              		@ args = 0, pretend = 0, frame = 0
 388              		@ frame_needed = 0, uses_anonymous_args = 0
  57:Drivers/lvgl/src/widgets/tileview/lv_tileview.c ****     LV_LOG_INFO("begin");
 389              		.loc 1 57 1 is_stmt 0 view .LVU99
 390 0000 10B5     		push	{r4, lr}
 391              	.LCFI6:
 392              		.cfi_def_cfa_offset 8
 393              		.cfi_offset 4, -8
 394              		.cfi_offset 14, -4
 395 0002 0146     		mov	r1, r0
  58:Drivers/lvgl/src/widgets/tileview/lv_tileview.c ****     lv_obj_t * obj = lv_obj_class_create_obj(&lv_tileview_class, parent);
 396              		.loc 1 58 5 is_stmt 1 view .LVU100
  58:Drivers/lvgl/src/widgets/tileview/lv_tileview.c ****     lv_obj_t * obj = lv_obj_class_create_obj(&lv_tileview_class, parent);
 397              		.loc 1 58 5 view .LVU101
  58:Drivers/lvgl/src/widgets/tileview/lv_tileview.c ****     lv_obj_t * obj = lv_obj_class_create_obj(&lv_tileview_class, parent);
 398              		.loc 1 58 5 view .LVU102
  59:Drivers/lvgl/src/widgets/tileview/lv_tileview.c ****     lv_obj_class_init_obj(obj);
 399              		.loc 1 59 5 view .LVU103
  59:Drivers/lvgl/src/widgets/tileview/lv_tileview.c ****     lv_obj_class_init_obj(obj);
 400              		.loc 1 59 22 is_stmt 0 view .LVU104
 401 0004 0348     		ldr	r0, .L26
 402              	.LVL58:
  59:Drivers/lvgl/src/widgets/tileview/lv_tileview.c ****     lv_obj_class_init_obj(obj);
 403              		.loc 1 59 22 view .LVU105
 404 0006 FFF7FEFF 		bl	lv_obj_class_create_obj
 405              	.LVL59:
  59:Drivers/lvgl/src/widgets/tileview/lv_tileview.c ****     lv_obj_class_init_obj(obj);
 406              		.loc 1 59 22 view .LVU106
 407 000a 0446     		mov	r4, r0
 408              	.LVL60:
  60:Drivers/lvgl/src/widgets/tileview/lv_tileview.c ****     return obj;
 409              		.loc 1 60 5 is_stmt 1 view .LVU107
 410 000c FFF7FEFF 		bl	lv_obj_class_init_obj
 411              	.LVL61:
  61:Drivers/lvgl/src/widgets/tileview/lv_tileview.c **** }
 412              		.loc 1 61 5 view .LVU108
  62:Drivers/lvgl/src/widgets/tileview/lv_tileview.c **** 
 413              		.loc 1 62 1 is_stmt 0 view .LVU109
 414 0010 2046     		mov	r0, r4
 415 0012 10BD     		pop	{r4, pc}
 416              	.LVL62:
 417              	.L27:
ARM GAS  /tmp/ccmjY4Gs.s 			page 13


  62:Drivers/lvgl/src/widgets/tileview/lv_tileview.c **** 
 418              		.loc 1 62 1 view .LVU110
 419              		.align	2
 420              	.L26:
 421 0014 00000000 		.word	lv_tileview_class
 422              		.cfi_endproc
 423              	.LFE171:
 425              		.section	.text.lv_tileview_add_tile,"ax",%progbits
 426              		.align	1
 427              		.global	lv_tileview_add_tile
 428              		.syntax unified
 429              		.thumb
 430              		.thumb_func
 432              	lv_tileview_add_tile:
 433              	.LVL63:
 434              	.LFB172:
  69:Drivers/lvgl/src/widgets/tileview/lv_tileview.c ****     LV_LOG_INFO("begin");
 435              		.loc 1 69 1 is_stmt 1 view -0
 436              		.cfi_startproc
 437              		@ args = 0, pretend = 0, frame = 0
 438              		@ frame_needed = 0, uses_anonymous_args = 0
  69:Drivers/lvgl/src/widgets/tileview/lv_tileview.c ****     LV_LOG_INFO("begin");
 439              		.loc 1 69 1 is_stmt 0 view .LVU112
 440 0000 2DE9F047 		push	{r4, r5, r6, r7, r8, r9, r10, lr}
 441              	.LCFI7:
 442              		.cfi_def_cfa_offset 32
 443              		.cfi_offset 4, -32
 444              		.cfi_offset 5, -28
 445              		.cfi_offset 6, -24
 446              		.cfi_offset 7, -20
 447              		.cfi_offset 8, -16
 448              		.cfi_offset 9, -12
 449              		.cfi_offset 10, -8
 450              		.cfi_offset 14, -4
 451 0004 0746     		mov	r7, r0
 452 0006 0E46     		mov	r6, r1
 453 0008 1546     		mov	r5, r2
 454 000a 9846     		mov	r8, r3
  70:Drivers/lvgl/src/widgets/tileview/lv_tileview.c **** 
 455              		.loc 1 70 5 is_stmt 1 view .LVU113
  70:Drivers/lvgl/src/widgets/tileview/lv_tileview.c **** 
 456              		.loc 1 70 5 view .LVU114
  70:Drivers/lvgl/src/widgets/tileview/lv_tileview.c **** 
 457              		.loc 1 70 5 view .LVU115
  72:Drivers/lvgl/src/widgets/tileview/lv_tileview.c ****     lv_obj_class_init_obj(obj);
 458              		.loc 1 72 5 view .LVU116
  72:Drivers/lvgl/src/widgets/tileview/lv_tileview.c ****     lv_obj_class_init_obj(obj);
 459              		.loc 1 72 22 is_stmt 0 view .LVU117
 460 000c 0146     		mov	r1, r0
 461              	.LVL64:
  72:Drivers/lvgl/src/widgets/tileview/lv_tileview.c ****     lv_obj_class_init_obj(obj);
 462              		.loc 1 72 22 view .LVU118
 463 000e 1148     		ldr	r0, .L32
 464              	.LVL65:
  72:Drivers/lvgl/src/widgets/tileview/lv_tileview.c ****     lv_obj_class_init_obj(obj);
 465              		.loc 1 72 22 view .LVU119
 466 0010 FFF7FEFF 		bl	lv_obj_class_create_obj
ARM GAS  /tmp/ccmjY4Gs.s 			page 14


 467              	.LVL66:
  72:Drivers/lvgl/src/widgets/tileview/lv_tileview.c ****     lv_obj_class_init_obj(obj);
 468              		.loc 1 72 22 view .LVU120
 469 0014 0446     		mov	r4, r0
 470              	.LVL67:
  73:Drivers/lvgl/src/widgets/tileview/lv_tileview.c ****     lv_obj_set_pos(obj, lv_pct(col_id * 100), lv_pct(row_id * 100));
 471              		.loc 1 73 5 is_stmt 1 view .LVU121
 472 0016 FFF7FEFF 		bl	lv_obj_class_init_obj
 473              	.LVL68:
  74:Drivers/lvgl/src/widgets/tileview/lv_tileview.c **** 
 474              		.loc 1 74 5 view .LVU122
  74:Drivers/lvgl/src/widgets/tileview/lv_tileview.c **** 
 475              		.loc 1 74 39 is_stmt 0 view .LVU123
 476 001a 4FF0640A 		mov	r10, #100
  74:Drivers/lvgl/src/widgets/tileview/lv_tileview.c **** 
 477              		.loc 1 74 5 view .LVU124
 478 001e 0AFB06F0 		mul	r0, r10, r6
 479 0022 FFF7FEFF 		bl	lv_pct
 480              	.LVL69:
 481 0026 8146     		mov	r9, r0
  74:Drivers/lvgl/src/widgets/tileview/lv_tileview.c **** 
 482              		.loc 1 74 5 discriminator 1 view .LVU125
 483 0028 0AFB05F0 		mul	r0, r10, r5
 484 002c FFF7FEFF 		bl	lv_pct
 485              	.LVL70:
 486 0030 0246     		mov	r2, r0
  74:Drivers/lvgl/src/widgets/tileview/lv_tileview.c **** 
 487              		.loc 1 74 5 discriminator 2 view .LVU126
 488 0032 4946     		mov	r1, r9
 489 0034 2046     		mov	r0, r4
 490 0036 FFF7FEFF 		bl	lv_obj_set_pos
 491              	.LVL71:
  76:Drivers/lvgl/src/widgets/tileview/lv_tileview.c ****     tile->dir = dir;
 492              		.loc 1 76 5 is_stmt 1 view .LVU127
  77:Drivers/lvgl/src/widgets/tileview/lv_tileview.c **** 
 493              		.loc 1 77 5 view .LVU128
  77:Drivers/lvgl/src/widgets/tileview/lv_tileview.c **** 
 494              		.loc 1 77 15 is_stmt 0 view .LVU129
 495 003a 84F82C80 		strb	r8, [r4, #44]
  79:Drivers/lvgl/src/widgets/tileview/lv_tileview.c ****         lv_obj_set_scroll_dir(tv, dir);
 496              		.loc 1 79 5 is_stmt 1 view .LVU130
  79:Drivers/lvgl/src/widgets/tileview/lv_tileview.c ****         lv_obj_set_scroll_dir(tv, dir);
 497              		.loc 1 79 7 is_stmt 0 view .LVU131
 498 003e 3543     		orrs	r5, r5, r6
 499              	.LVL72:
  79:Drivers/lvgl/src/widgets/tileview/lv_tileview.c ****         lv_obj_set_scroll_dir(tv, dir);
 500              		.loc 1 79 7 view .LVU132
 501 0040 02D0     		beq	.L31
 502              	.L28:
  83:Drivers/lvgl/src/widgets/tileview/lv_tileview.c **** 
 503              		.loc 1 83 1 view .LVU133
 504 0042 2046     		mov	r0, r4
 505 0044 BDE8F087 		pop	{r4, r5, r6, r7, r8, r9, r10, pc}
 506              	.LVL73:
 507              	.L31:
  80:Drivers/lvgl/src/widgets/tileview/lv_tileview.c ****     }
 508              		.loc 1 80 9 is_stmt 1 view .LVU134
ARM GAS  /tmp/ccmjY4Gs.s 			page 15


 509 0048 4146     		mov	r1, r8
 510 004a 3846     		mov	r0, r7
 511 004c FFF7FEFF 		bl	lv_obj_set_scroll_dir
 512              	.LVL74:
  82:Drivers/lvgl/src/widgets/tileview/lv_tileview.c **** }
 513              		.loc 1 82 5 view .LVU135
  82:Drivers/lvgl/src/widgets/tileview/lv_tileview.c **** }
 514              		.loc 1 82 12 is_stmt 0 view .LVU136
 515 0050 F7E7     		b	.L28
 516              	.L33:
 517 0052 00BF     		.align	2
 518              	.L32:
 519 0054 00000000 		.word	lv_tileview_tile_class
 520              		.cfi_endproc
 521              	.LFE172:
 523              		.section	.text.lv_tileview_set_tile,"ax",%progbits
 524              		.align	1
 525              		.global	lv_tileview_set_tile
 526              		.syntax unified
 527              		.thumb
 528              		.thumb_func
 530              	lv_tileview_set_tile:
 531              	.LVL75:
 532              	.LFB173:
  86:Drivers/lvgl/src/widgets/tileview/lv_tileview.c ****     int32_t tx = lv_obj_get_x(tile_obj);
 533              		.loc 1 86 1 is_stmt 1 view -0
 534              		.cfi_startproc
 535              		@ args = 0, pretend = 0, frame = 0
 536              		@ frame_needed = 0, uses_anonymous_args = 0
  86:Drivers/lvgl/src/widgets/tileview/lv_tileview.c ****     int32_t tx = lv_obj_get_x(tile_obj);
 537              		.loc 1 86 1 is_stmt 0 view .LVU138
 538 0000 2DE9F041 		push	{r4, r5, r6, r7, r8, lr}
 539              	.LCFI8:
 540              		.cfi_def_cfa_offset 24
 541              		.cfi_offset 4, -24
 542              		.cfi_offset 5, -20
 543              		.cfi_offset 6, -16
 544              		.cfi_offset 7, -12
 545              		.cfi_offset 8, -8
 546              		.cfi_offset 14, -4
 547 0004 0546     		mov	r5, r0
 548 0006 0C46     		mov	r4, r1
 549 0008 9046     		mov	r8, r2
  87:Drivers/lvgl/src/widgets/tileview/lv_tileview.c ****     int32_t ty = lv_obj_get_y(tile_obj);
 550              		.loc 1 87 5 is_stmt 1 view .LVU139
  87:Drivers/lvgl/src/widgets/tileview/lv_tileview.c ****     int32_t ty = lv_obj_get_y(tile_obj);
 551              		.loc 1 87 18 is_stmt 0 view .LVU140
 552 000a 0846     		mov	r0, r1
 553              	.LVL76:
  87:Drivers/lvgl/src/widgets/tileview/lv_tileview.c ****     int32_t ty = lv_obj_get_y(tile_obj);
 554              		.loc 1 87 18 view .LVU141
 555 000c FFF7FEFF 		bl	lv_obj_get_x
 556              	.LVL77:
  87:Drivers/lvgl/src/widgets/tileview/lv_tileview.c ****     int32_t ty = lv_obj_get_y(tile_obj);
 557              		.loc 1 87 18 view .LVU142
 558 0010 0646     		mov	r6, r0
 559              	.LVL78:
ARM GAS  /tmp/ccmjY4Gs.s 			page 16


  88:Drivers/lvgl/src/widgets/tileview/lv_tileview.c **** 
 560              		.loc 1 88 5 is_stmt 1 view .LVU143
  88:Drivers/lvgl/src/widgets/tileview/lv_tileview.c **** 
 561              		.loc 1 88 18 is_stmt 0 view .LVU144
 562 0012 2046     		mov	r0, r4
 563              	.LVL79:
  88:Drivers/lvgl/src/widgets/tileview/lv_tileview.c **** 
 564              		.loc 1 88 18 view .LVU145
 565 0014 FFF7FEFF 		bl	lv_obj_get_y
 566              	.LVL80:
 567 0018 0746     		mov	r7, r0
 568              	.LVL81:
  90:Drivers/lvgl/src/widgets/tileview/lv_tileview.c ****     lv_tileview_t * tv = (lv_tileview_t *) obj;
 569              		.loc 1 90 5 is_stmt 1 view .LVU146
  91:Drivers/lvgl/src/widgets/tileview/lv_tileview.c ****     tv->tile_act = (lv_obj_t *)tile;
 570              		.loc 1 91 5 view .LVU147
  92:Drivers/lvgl/src/widgets/tileview/lv_tileview.c **** 
 571              		.loc 1 92 5 view .LVU148
  92:Drivers/lvgl/src/widgets/tileview/lv_tileview.c **** 
 572              		.loc 1 92 18 is_stmt 0 view .LVU149
 573 001a EC62     		str	r4, [r5, #44]
  94:Drivers/lvgl/src/widgets/tileview/lv_tileview.c ****     lv_obj_scroll_to(obj, tx, ty, anim_en);
 574              		.loc 1 94 5 is_stmt 1 view .LVU150
 575 001c 94F82C10 		ldrb	r1, [r4, #44]	@ zero_extendqisi2
 576 0020 2846     		mov	r0, r5
 577              	.LVL82:
  94:Drivers/lvgl/src/widgets/tileview/lv_tileview.c ****     lv_obj_scroll_to(obj, tx, ty, anim_en);
 578              		.loc 1 94 5 is_stmt 0 view .LVU151
 579 0022 FFF7FEFF 		bl	lv_obj_set_scroll_dir
 580              	.LVL83:
  95:Drivers/lvgl/src/widgets/tileview/lv_tileview.c **** }
 581              		.loc 1 95 5 is_stmt 1 view .LVU152
 582 0026 4346     		mov	r3, r8
 583 0028 3A46     		mov	r2, r7
 584 002a 3146     		mov	r1, r6
 585 002c 2846     		mov	r0, r5
 586 002e FFF7FEFF 		bl	lv_obj_scroll_to
 587              	.LVL84:
  96:Drivers/lvgl/src/widgets/tileview/lv_tileview.c **** 
 588              		.loc 1 96 1 is_stmt 0 view .LVU153
 589 0032 BDE8F081 		pop	{r4, r5, r6, r7, r8, pc}
  96:Drivers/lvgl/src/widgets/tileview/lv_tileview.c **** 
 590              		.loc 1 96 1 view .LVU154
 591              		.cfi_endproc
 592              	.LFE173:
 594              		.section	.text.lv_tileview_set_tile_by_index,"ax",%progbits
 595              		.align	1
 596              		.global	lv_tileview_set_tile_by_index
 597              		.syntax unified
 598              		.thumb
 599              		.thumb_func
 601              	lv_tileview_set_tile_by_index:
 602              	.LVL85:
 603              	.LFB174:
  99:Drivers/lvgl/src/widgets/tileview/lv_tileview.c ****     lv_obj_update_layout(tv);
 604              		.loc 1 99 1 is_stmt 1 view -0
 605              		.cfi_startproc
ARM GAS  /tmp/ccmjY4Gs.s 			page 17


 606              		@ args = 0, pretend = 0, frame = 0
 607              		@ frame_needed = 0, uses_anonymous_args = 0
  99:Drivers/lvgl/src/widgets/tileview/lv_tileview.c ****     lv_obj_update_layout(tv);
 608              		.loc 1 99 1 is_stmt 0 view .LVU156
 609 0000 2DE9F047 		push	{r4, r5, r6, r7, r8, r9, r10, lr}
 610              	.LCFI9:
 611              		.cfi_def_cfa_offset 32
 612              		.cfi_offset 4, -32
 613              		.cfi_offset 5, -28
 614              		.cfi_offset 6, -24
 615              		.cfi_offset 7, -20
 616              		.cfi_offset 8, -16
 617              		.cfi_offset 9, -12
 618              		.cfi_offset 10, -8
 619              		.cfi_offset 14, -4
 620 0004 0746     		mov	r7, r0
 621 0006 0D46     		mov	r5, r1
 622 0008 9146     		mov	r9, r2
 623 000a 9A46     		mov	r10, r3
 100:Drivers/lvgl/src/widgets/tileview/lv_tileview.c **** 
 624              		.loc 1 100 5 is_stmt 1 view .LVU157
 625 000c FFF7FEFF 		bl	lv_obj_update_layout
 626              	.LVL86:
 102:Drivers/lvgl/src/widgets/tileview/lv_tileview.c ****     int32_t h = lv_obj_get_content_height(tv);
 627              		.loc 1 102 5 view .LVU158
 102:Drivers/lvgl/src/widgets/tileview/lv_tileview.c ****     int32_t h = lv_obj_get_content_height(tv);
 628              		.loc 1 102 17 is_stmt 0 view .LVU159
 629 0010 3846     		mov	r0, r7
 630 0012 FFF7FEFF 		bl	lv_obj_get_content_width
 631              	.LVL87:
 632 0016 8046     		mov	r8, r0
 633              	.LVL88:
 103:Drivers/lvgl/src/widgets/tileview/lv_tileview.c **** 
 634              		.loc 1 103 5 is_stmt 1 view .LVU160
 103:Drivers/lvgl/src/widgets/tileview/lv_tileview.c **** 
 635              		.loc 1 103 17 is_stmt 0 view .LVU161
 636 0018 3846     		mov	r0, r7
 637              	.LVL89:
 103:Drivers/lvgl/src/widgets/tileview/lv_tileview.c **** 
 638              		.loc 1 103 17 view .LVU162
 639 001a FFF7FEFF 		bl	lv_obj_get_content_height
 640              	.LVL90:
 105:Drivers/lvgl/src/widgets/tileview/lv_tileview.c ****     int32_t ty = row_id * h;
 641              		.loc 1 105 5 is_stmt 1 view .LVU163
 105:Drivers/lvgl/src/widgets/tileview/lv_tileview.c ****     int32_t ty = row_id * h;
 642              		.loc 1 105 25 is_stmt 0 view .LVU164
 643 001e 05FB08F8 		mul	r8, r5, r8
 644              	.LVL91:
 106:Drivers/lvgl/src/widgets/tileview/lv_tileview.c **** 
 645              		.loc 1 106 5 is_stmt 1 view .LVU165
 106:Drivers/lvgl/src/widgets/tileview/lv_tileview.c **** 
 646              		.loc 1 106 25 is_stmt 0 view .LVU166
 647 0022 09FB00F9 		mul	r9, r9, r0
 648              	.LVL92:
 108:Drivers/lvgl/src/widgets/tileview/lv_tileview.c ****     for(i = 0; i < lv_obj_get_child_count(tv); i++) {
 649              		.loc 1 108 5 is_stmt 1 view .LVU167
 109:Drivers/lvgl/src/widgets/tileview/lv_tileview.c ****         lv_obj_t * tile_obj = lv_obj_get_child(tv, i);
ARM GAS  /tmp/ccmjY4Gs.s 			page 18


 650              		.loc 1 109 5 view .LVU168
 109:Drivers/lvgl/src/widgets/tileview/lv_tileview.c ****         lv_obj_t * tile_obj = lv_obj_get_child(tv, i);
 651              		.loc 1 109 11 is_stmt 0 view .LVU169
 652 0026 0024     		movs	r4, #0
 109:Drivers/lvgl/src/widgets/tileview/lv_tileview.c ****         lv_obj_t * tile_obj = lv_obj_get_child(tv, i);
 653              		.loc 1 109 5 view .LVU170
 654 0028 00E0     		b	.L37
 655              	.LVL93:
 656              	.L38:
 109:Drivers/lvgl/src/widgets/tileview/lv_tileview.c ****         lv_obj_t * tile_obj = lv_obj_get_child(tv, i);
 657              		.loc 1 109 49 is_stmt 1 discriminator 2 view .LVU171
 658 002a 0134     		adds	r4, r4, #1
 659              	.LVL94:
 660              	.L37:
 109:Drivers/lvgl/src/widgets/tileview/lv_tileview.c ****         lv_obj_t * tile_obj = lv_obj_get_child(tv, i);
 661              		.loc 1 109 18 discriminator 1 view .LVU172
 109:Drivers/lvgl/src/widgets/tileview/lv_tileview.c ****         lv_obj_t * tile_obj = lv_obj_get_child(tv, i);
 662              		.loc 1 109 20 is_stmt 0 discriminator 1 view .LVU173
 663 002c 3846     		mov	r0, r7
 664 002e FFF7FEFF 		bl	lv_obj_get_child_count
 665              	.LVL95:
 109:Drivers/lvgl/src/widgets/tileview/lv_tileview.c ****         lv_obj_t * tile_obj = lv_obj_get_child(tv, i);
 666              		.loc 1 109 18 discriminator 1 view .LVU174
 667 0032 A042     		cmp	r0, r4
 668 0034 13D9     		bls	.L36
 669              	.LBB6:
 110:Drivers/lvgl/src/widgets/tileview/lv_tileview.c ****         int32_t x = lv_obj_get_x(tile_obj);
 670              		.loc 1 110 9 is_stmt 1 view .LVU175
 110:Drivers/lvgl/src/widgets/tileview/lv_tileview.c ****         int32_t x = lv_obj_get_x(tile_obj);
 671              		.loc 1 110 31 is_stmt 0 view .LVU176
 672 0036 2146     		mov	r1, r4
 673 0038 3846     		mov	r0, r7
 674 003a FFF7FEFF 		bl	lv_obj_get_child
 675              	.LVL96:
 676 003e 0546     		mov	r5, r0
 677              	.LVL97:
 111:Drivers/lvgl/src/widgets/tileview/lv_tileview.c ****         int32_t y = lv_obj_get_y(tile_obj);
 678              		.loc 1 111 9 is_stmt 1 view .LVU177
 111:Drivers/lvgl/src/widgets/tileview/lv_tileview.c ****         int32_t y = lv_obj_get_y(tile_obj);
 679              		.loc 1 111 21 is_stmt 0 view .LVU178
 680 0040 FFF7FEFF 		bl	lv_obj_get_x
 681              	.LVL98:
 111:Drivers/lvgl/src/widgets/tileview/lv_tileview.c ****         int32_t y = lv_obj_get_y(tile_obj);
 682              		.loc 1 111 21 view .LVU179
 683 0044 0646     		mov	r6, r0
 684              	.LVL99:
 112:Drivers/lvgl/src/widgets/tileview/lv_tileview.c ****         if(x == tx && y == ty) {
 685              		.loc 1 112 9 is_stmt 1 view .LVU180
 112:Drivers/lvgl/src/widgets/tileview/lv_tileview.c ****         if(x == tx && y == ty) {
 686              		.loc 1 112 21 is_stmt 0 view .LVU181
 687 0046 2846     		mov	r0, r5
 688              	.LVL100:
 112:Drivers/lvgl/src/widgets/tileview/lv_tileview.c ****         if(x == tx && y == ty) {
 689              		.loc 1 112 21 view .LVU182
 690 0048 FFF7FEFF 		bl	lv_obj_get_y
 691              	.LVL101:
 113:Drivers/lvgl/src/widgets/tileview/lv_tileview.c ****             lv_tileview_set_tile(tv, tile_obj, anim_en);
ARM GAS  /tmp/ccmjY4Gs.s 			page 19


 692              		.loc 1 113 9 is_stmt 1 view .LVU183
 113:Drivers/lvgl/src/widgets/tileview/lv_tileview.c ****             lv_tileview_set_tile(tv, tile_obj, anim_en);
 693              		.loc 1 113 11 is_stmt 0 view .LVU184
 694 004c B045     		cmp	r8, r6
 695 004e 08BF     		it	eq
 696 0050 8145     		cmpeq	r9, r0
 697 0052 EAD1     		bne	.L38
 114:Drivers/lvgl/src/widgets/tileview/lv_tileview.c ****             return;
 698              		.loc 1 114 13 is_stmt 1 view .LVU185
 699 0054 5246     		mov	r2, r10
 700 0056 2946     		mov	r1, r5
 701 0058 3846     		mov	r0, r7
 702              	.LVL102:
 114:Drivers/lvgl/src/widgets/tileview/lv_tileview.c ****             return;
 703              		.loc 1 114 13 is_stmt 0 view .LVU186
 704 005a FFF7FEFF 		bl	lv_tileview_set_tile
 705              	.LVL103:
 115:Drivers/lvgl/src/widgets/tileview/lv_tileview.c ****         }
 706              		.loc 1 115 13 is_stmt 1 view .LVU187
 707              	.L36:
 115:Drivers/lvgl/src/widgets/tileview/lv_tileview.c ****         }
 708              		.loc 1 115 13 is_stmt 0 view .LVU188
 709              	.LBE6:
 120:Drivers/lvgl/src/widgets/tileview/lv_tileview.c **** 
 710              		.loc 1 120 1 view .LVU189
 711 005e BDE8F087 		pop	{r4, r5, r6, r7, r8, r9, r10, pc}
 120:Drivers/lvgl/src/widgets/tileview/lv_tileview.c **** 
 712              		.loc 1 120 1 view .LVU190
 713              		.cfi_endproc
 714              	.LFE174:
 716              		.section	.text.lv_tileview_get_tile_active,"ax",%progbits
 717              		.align	1
 718              		.global	lv_tileview_get_tile_active
 719              		.syntax unified
 720              		.thumb
 721              		.thumb_func
 723              	lv_tileview_get_tile_active:
 724              	.LVL104:
 725              	.LFB175:
 123:Drivers/lvgl/src/widgets/tileview/lv_tileview.c ****     lv_tileview_t * tv = (lv_tileview_t *) obj;
 726              		.loc 1 123 1 is_stmt 1 view -0
 727              		.cfi_startproc
 728              		@ args = 0, pretend = 0, frame = 0
 729              		@ frame_needed = 0, uses_anonymous_args = 0
 730              		@ link register save eliminated.
 124:Drivers/lvgl/src/widgets/tileview/lv_tileview.c ****     return tv->tile_act;
 731              		.loc 1 124 5 view .LVU192
 125:Drivers/lvgl/src/widgets/tileview/lv_tileview.c **** }
 732              		.loc 1 125 5 view .LVU193
 126:Drivers/lvgl/src/widgets/tileview/lv_tileview.c **** 
 733              		.loc 1 126 1 is_stmt 0 view .LVU194
 734 0000 C06A     		ldr	r0, [r0, #44]
 735              	.LVL105:
 126:Drivers/lvgl/src/widgets/tileview/lv_tileview.c **** 
 736              		.loc 1 126 1 view .LVU195
 737 0002 7047     		bx	lr
 738              		.cfi_endproc
ARM GAS  /tmp/ccmjY4Gs.s 			page 20


 739              	.LFE175:
 741              		.global	lv_tileview_tile_class
 742              		.section	.rodata.str1.4,"aMS",%progbits,1
 743              		.align	2
 744              	.LC0:
 745 0000 6C765F74 		.ascii	"lv_tile\000"
 745      696C6500 
 746              		.section	.rodata.lv_tileview_tile_class,"a"
 747              		.align	2
 750              	lv_tileview_tile_class:
 751 0000 00000000 		.word	lv_obj_class
 752 0004 00000000 		.word	lv_tileview_tile_constructor
 753 0008 00000000 		.space	12
 753      00000000 
 753      00000000 
 754 0014 00000000 		.word	.LC0
 755 0018 00000000 		.space	8
 755      00000000 
 756 0020 00       		.byte	0
 757 0021 03       		.byte	3
 758 0022 00       		.byte	0
 759 0023 00       		.space	1
 760              		.global	lv_tileview_class
 761              		.section	.rodata.str1.4
 762              		.align	2
 763              	.LC1:
 764 0008 6C765F74 		.ascii	"lv_tileview\000"
 764      696C6576 
 764      69657700 
 765              		.section	.rodata.lv_tileview_class,"a"
 766              		.align	2
 769              	lv_tileview_class:
 770 0000 00000000 		.word	lv_obj_class
 771 0004 00000000 		.word	lv_tileview_constructor
 772 0008 00000000 		.space	12
 772      00000000 
 772      00000000 
 773 0014 08000000 		.word	.LC1
 774 0018 00000000 		.space	8
 774      00000000 
 775 0020 00       		.byte	0
 776 0021 03       		.byte	3
 777 0022 00       		.byte	0
 778 0023 00       		.space	1
 779              		.text
 780              	.Letext0:
 781              		.file 2 "/usr/arm-none-eabi/include/machine/_default_types.h"
 782              		.file 3 "/usr/arm-none-eabi/include/sys/_stdint.h"
 783              		.file 4 "Drivers/lvgl/src/widgets/tileview/../../core/../misc/lv_types.h"
 784              		.file 5 "Drivers/lvgl/src/widgets/tileview/../../core/lv_obj_private.h"
 785              		.file 6 "Drivers/lvgl/src/widgets/tileview/../../core/lv_obj_class_private.h"
 786              		.file 7 "Drivers/lvgl/src/widgets/tileview/../../indev/lv_indev_private.h"
 787              		.file 8 "Drivers/lvgl/src/widgets/tileview/../../core/../misc/lv_anim.h"
 788              		.file 9 "Drivers/lvgl/src/widgets/tileview/lv_tileview_private.h"
 789              		.file 10 "Drivers/lvgl/src/widgets/tileview/../../core/../display/../misc/lv_array.h"
 790              		.file 11 "Drivers/lvgl/src/widgets/tileview/../../core/../misc/../font/../draw/../misc/lv_area.h"
 791              		.file 12 "Drivers/lvgl/src/widgets/tileview/../../core/../display/../misc/lv_event.h"
ARM GAS  /tmp/ccmjY4Gs.s 			page 21


 792              		.file 13 "Drivers/lvgl/src/widgets/tileview/../../core/lv_obj_scroll.h"
 793              		.file 14 "Drivers/lvgl/src/widgets/tileview/../../core/../indev/lv_indev.h"
 794              		.file 15 "Drivers/lvgl/src/widgets/tileview/../../core/lv_obj.h"
 795              		.file 16 "Drivers/lvgl/src/widgets/tileview/lv_tileview.h"
 796              		.file 17 "Drivers/lvgl/src/widgets/tileview/../../core/lv_obj_pos.h"
 797              		.file 18 "Drivers/lvgl/src/widgets/tileview/../../core/lv_obj_class.h"
 798              		.file 19 "Drivers/lvgl/src/widgets/tileview/../../core/lv_obj_tree.h"
 799              		.file 20 "Drivers/lvgl/src/widgets/tileview/../../core/lv_obj_event.h"
ARM GAS  /tmp/ccmjY4Gs.s 			page 22

