ARM GAS  /tmp/ccFdPeTq.s 			page 1


   1              		.cpu cortex-m7
   2              		.arch armv7e-m
   3              		.fpu fpv5-sp-d16
   4              		.eabi_attribute 27, 1
   5              		.eabi_attribute 28, 1
   6              		.eabi_attribute 20, 1
   7              		.eabi_attribute 21, 1
   8              		.eabi_attribute 23, 3
   9              		.eabi_attribute 24, 1
  10              		.eabi_attribute 25, 1
  11              		.eabi_attribute 26, 1
  12              		.eabi_attribute 30, 1
  13              		.eabi_attribute 34, 1
  14              		.eabi_attribute 18, 4
  15              		.file	"lv_theme_simple.c"
  16              		.text
  17              	.Ltext0:
  18              		.cfi_sections	.debug_frame
  19              		.file 1 "Drivers/lvgl/src/themes/simple/lv_theme_simple.c"
  20              		.section	.text.theme_apply,"ax",%progbits
  21              		.align	1
  22              		.syntax unified
  23              		.thumb
  24              		.thumb_func
  26              	theme_apply:
  27              	.LVL0:
  28              	.LFB198:
   1:Drivers/lvgl/src/themes/simple/lv_theme_simple.c **** /**
   2:Drivers/lvgl/src/themes/simple/lv_theme_simple.c ****  * @file lv_theme_simple.c
   3:Drivers/lvgl/src/themes/simple/lv_theme_simple.c ****  *
   4:Drivers/lvgl/src/themes/simple/lv_theme_simple.c ****  */
   5:Drivers/lvgl/src/themes/simple/lv_theme_simple.c **** 
   6:Drivers/lvgl/src/themes/simple/lv_theme_simple.c **** /*********************
   7:Drivers/lvgl/src/themes/simple/lv_theme_simple.c ****  *      INCLUDES
   8:Drivers/lvgl/src/themes/simple/lv_theme_simple.c ****  *********************/
   9:Drivers/lvgl/src/themes/simple/lv_theme_simple.c **** #include "../lv_theme_private.h"
  10:Drivers/lvgl/src/themes/simple/lv_theme_simple.c **** #include "../../../lvgl.h" /*To see all the widgets*/
  11:Drivers/lvgl/src/themes/simple/lv_theme_simple.c **** 
  12:Drivers/lvgl/src/themes/simple/lv_theme_simple.c **** #if LV_USE_THEME_SIMPLE
  13:Drivers/lvgl/src/themes/simple/lv_theme_simple.c **** 
  14:Drivers/lvgl/src/themes/simple/lv_theme_simple.c **** #include "lv_theme_simple.h"
  15:Drivers/lvgl/src/themes/simple/lv_theme_simple.c **** #include "../../core/lv_global.h"
  16:Drivers/lvgl/src/themes/simple/lv_theme_simple.c **** 
  17:Drivers/lvgl/src/themes/simple/lv_theme_simple.c **** /*********************
  18:Drivers/lvgl/src/themes/simple/lv_theme_simple.c ****  *      DEFINES
  19:Drivers/lvgl/src/themes/simple/lv_theme_simple.c ****  *********************/
  20:Drivers/lvgl/src/themes/simple/lv_theme_simple.c **** 
  21:Drivers/lvgl/src/themes/simple/lv_theme_simple.c **** struct _my_theme_t;
  22:Drivers/lvgl/src/themes/simple/lv_theme_simple.c **** typedef struct _my_theme_t my_theme_t;
  23:Drivers/lvgl/src/themes/simple/lv_theme_simple.c **** 
  24:Drivers/lvgl/src/themes/simple/lv_theme_simple.c **** #define theme_def (*(my_theme_t **)(&LV_GLOBAL_DEFAULT()->theme_simple))
  25:Drivers/lvgl/src/themes/simple/lv_theme_simple.c **** 
  26:Drivers/lvgl/src/themes/simple/lv_theme_simple.c **** #define COLOR_SCR     lv_palette_lighten(LV_PALETTE_GREY, 4)
  27:Drivers/lvgl/src/themes/simple/lv_theme_simple.c **** #define COLOR_WHITE   lv_color_white()
  28:Drivers/lvgl/src/themes/simple/lv_theme_simple.c **** #define COLOR_LIGHT   lv_palette_lighten(LV_PALETTE_GREY, 2)
  29:Drivers/lvgl/src/themes/simple/lv_theme_simple.c **** #define COLOR_DARK    lv_palette_main(LV_PALETTE_GREY)
  30:Drivers/lvgl/src/themes/simple/lv_theme_simple.c **** #define COLOR_DIM     lv_palette_darken(LV_PALETTE_GREY, 2)
ARM GAS  /tmp/ccFdPeTq.s 			page 2


  31:Drivers/lvgl/src/themes/simple/lv_theme_simple.c **** #define SCROLLBAR_WIDTH     2
  32:Drivers/lvgl/src/themes/simple/lv_theme_simple.c **** 
  33:Drivers/lvgl/src/themes/simple/lv_theme_simple.c **** /**********************
  34:Drivers/lvgl/src/themes/simple/lv_theme_simple.c ****  *      TYPEDEFS
  35:Drivers/lvgl/src/themes/simple/lv_theme_simple.c ****  **********************/
  36:Drivers/lvgl/src/themes/simple/lv_theme_simple.c **** typedef struct {
  37:Drivers/lvgl/src/themes/simple/lv_theme_simple.c ****     lv_style_t scr;
  38:Drivers/lvgl/src/themes/simple/lv_theme_simple.c ****     lv_style_t transp;
  39:Drivers/lvgl/src/themes/simple/lv_theme_simple.c ****     lv_style_t white;
  40:Drivers/lvgl/src/themes/simple/lv_theme_simple.c ****     lv_style_t light;
  41:Drivers/lvgl/src/themes/simple/lv_theme_simple.c ****     lv_style_t dark;
  42:Drivers/lvgl/src/themes/simple/lv_theme_simple.c ****     lv_style_t dim;
  43:Drivers/lvgl/src/themes/simple/lv_theme_simple.c ****     lv_style_t scrollbar;
  44:Drivers/lvgl/src/themes/simple/lv_theme_simple.c **** #if LV_USE_ARC
  45:Drivers/lvgl/src/themes/simple/lv_theme_simple.c ****     lv_style_t arc_line;
  46:Drivers/lvgl/src/themes/simple/lv_theme_simple.c ****     lv_style_t arc_knob;
  47:Drivers/lvgl/src/themes/simple/lv_theme_simple.c **** #endif
  48:Drivers/lvgl/src/themes/simple/lv_theme_simple.c **** #if LV_USE_TEXTAREA
  49:Drivers/lvgl/src/themes/simple/lv_theme_simple.c ****     lv_style_t ta_cursor;
  50:Drivers/lvgl/src/themes/simple/lv_theme_simple.c **** #endif
  51:Drivers/lvgl/src/themes/simple/lv_theme_simple.c **** } my_theme_styles_t;
  52:Drivers/lvgl/src/themes/simple/lv_theme_simple.c **** 
  53:Drivers/lvgl/src/themes/simple/lv_theme_simple.c **** struct _my_theme_t {
  54:Drivers/lvgl/src/themes/simple/lv_theme_simple.c ****     lv_theme_t base;
  55:Drivers/lvgl/src/themes/simple/lv_theme_simple.c ****     my_theme_styles_t styles;
  56:Drivers/lvgl/src/themes/simple/lv_theme_simple.c ****     bool inited;
  57:Drivers/lvgl/src/themes/simple/lv_theme_simple.c **** };
  58:Drivers/lvgl/src/themes/simple/lv_theme_simple.c **** 
  59:Drivers/lvgl/src/themes/simple/lv_theme_simple.c **** /**********************
  60:Drivers/lvgl/src/themes/simple/lv_theme_simple.c ****  *  STATIC PROTOTYPES
  61:Drivers/lvgl/src/themes/simple/lv_theme_simple.c ****  **********************/
  62:Drivers/lvgl/src/themes/simple/lv_theme_simple.c **** static void style_init_reset(lv_style_t * style);
  63:Drivers/lvgl/src/themes/simple/lv_theme_simple.c **** static void theme_apply(lv_theme_t * th, lv_obj_t * obj);
  64:Drivers/lvgl/src/themes/simple/lv_theme_simple.c **** 
  65:Drivers/lvgl/src/themes/simple/lv_theme_simple.c **** /**********************
  66:Drivers/lvgl/src/themes/simple/lv_theme_simple.c ****  *  STATIC VARIABLES
  67:Drivers/lvgl/src/themes/simple/lv_theme_simple.c ****  **********************/
  68:Drivers/lvgl/src/themes/simple/lv_theme_simple.c **** 
  69:Drivers/lvgl/src/themes/simple/lv_theme_simple.c **** /**********************
  70:Drivers/lvgl/src/themes/simple/lv_theme_simple.c ****  *      MACROS
  71:Drivers/lvgl/src/themes/simple/lv_theme_simple.c ****  **********************/
  72:Drivers/lvgl/src/themes/simple/lv_theme_simple.c **** 
  73:Drivers/lvgl/src/themes/simple/lv_theme_simple.c **** /**********************
  74:Drivers/lvgl/src/themes/simple/lv_theme_simple.c ****  *   STATIC FUNCTIONS
  75:Drivers/lvgl/src/themes/simple/lv_theme_simple.c ****  **********************/
  76:Drivers/lvgl/src/themes/simple/lv_theme_simple.c **** 
  77:Drivers/lvgl/src/themes/simple/lv_theme_simple.c **** static void style_init(my_theme_t * theme)
  78:Drivers/lvgl/src/themes/simple/lv_theme_simple.c **** {
  79:Drivers/lvgl/src/themes/simple/lv_theme_simple.c ****     style_init_reset(&theme->styles.scrollbar);
  80:Drivers/lvgl/src/themes/simple/lv_theme_simple.c ****     lv_style_set_bg_opa(&theme->styles.scrollbar, LV_OPA_COVER);
  81:Drivers/lvgl/src/themes/simple/lv_theme_simple.c ****     lv_style_set_bg_color(&theme->styles.scrollbar, COLOR_DARK);
  82:Drivers/lvgl/src/themes/simple/lv_theme_simple.c ****     lv_style_set_width(&theme->styles.scrollbar,  SCROLLBAR_WIDTH);
  83:Drivers/lvgl/src/themes/simple/lv_theme_simple.c **** 
  84:Drivers/lvgl/src/themes/simple/lv_theme_simple.c ****     style_init_reset(&theme->styles.scr);
  85:Drivers/lvgl/src/themes/simple/lv_theme_simple.c ****     lv_style_set_bg_opa(&theme->styles.scr, LV_OPA_COVER);
  86:Drivers/lvgl/src/themes/simple/lv_theme_simple.c ****     lv_style_set_bg_color(&theme->styles.scr, COLOR_SCR);
  87:Drivers/lvgl/src/themes/simple/lv_theme_simple.c ****     lv_style_set_text_color(&theme->styles.scr, COLOR_DIM);
ARM GAS  /tmp/ccFdPeTq.s 			page 3


  88:Drivers/lvgl/src/themes/simple/lv_theme_simple.c **** 
  89:Drivers/lvgl/src/themes/simple/lv_theme_simple.c ****     style_init_reset(&theme->styles.transp);
  90:Drivers/lvgl/src/themes/simple/lv_theme_simple.c ****     lv_style_set_bg_opa(&theme->styles.transp, LV_OPA_TRANSP);
  91:Drivers/lvgl/src/themes/simple/lv_theme_simple.c **** 
  92:Drivers/lvgl/src/themes/simple/lv_theme_simple.c ****     style_init_reset(&theme->styles.white);
  93:Drivers/lvgl/src/themes/simple/lv_theme_simple.c ****     lv_style_set_bg_opa(&theme->styles.white, LV_OPA_COVER);
  94:Drivers/lvgl/src/themes/simple/lv_theme_simple.c ****     lv_style_set_bg_color(&theme->styles.white, COLOR_WHITE);
  95:Drivers/lvgl/src/themes/simple/lv_theme_simple.c ****     lv_style_set_line_width(&theme->styles.white, 1);
  96:Drivers/lvgl/src/themes/simple/lv_theme_simple.c ****     lv_style_set_line_color(&theme->styles.white, COLOR_WHITE);
  97:Drivers/lvgl/src/themes/simple/lv_theme_simple.c ****     lv_style_set_arc_width(&theme->styles.white, 2);
  98:Drivers/lvgl/src/themes/simple/lv_theme_simple.c ****     lv_style_set_arc_color(&theme->styles.white, COLOR_WHITE);
  99:Drivers/lvgl/src/themes/simple/lv_theme_simple.c **** 
 100:Drivers/lvgl/src/themes/simple/lv_theme_simple.c ****     style_init_reset(&theme->styles.light);
 101:Drivers/lvgl/src/themes/simple/lv_theme_simple.c ****     lv_style_set_bg_opa(&theme->styles.light, LV_OPA_COVER);
 102:Drivers/lvgl/src/themes/simple/lv_theme_simple.c ****     lv_style_set_bg_color(&theme->styles.light, COLOR_LIGHT);
 103:Drivers/lvgl/src/themes/simple/lv_theme_simple.c ****     lv_style_set_line_width(&theme->styles.light, 1);
 104:Drivers/lvgl/src/themes/simple/lv_theme_simple.c ****     lv_style_set_line_color(&theme->styles.light, COLOR_LIGHT);
 105:Drivers/lvgl/src/themes/simple/lv_theme_simple.c ****     lv_style_set_arc_width(&theme->styles.light, 2);
 106:Drivers/lvgl/src/themes/simple/lv_theme_simple.c ****     lv_style_set_arc_color(&theme->styles.light, COLOR_LIGHT);
 107:Drivers/lvgl/src/themes/simple/lv_theme_simple.c **** 
 108:Drivers/lvgl/src/themes/simple/lv_theme_simple.c ****     style_init_reset(&theme->styles.dark);
 109:Drivers/lvgl/src/themes/simple/lv_theme_simple.c ****     lv_style_set_bg_opa(&theme->styles.dark, LV_OPA_COVER);
 110:Drivers/lvgl/src/themes/simple/lv_theme_simple.c ****     lv_style_set_bg_color(&theme->styles.dark, COLOR_DARK);
 111:Drivers/lvgl/src/themes/simple/lv_theme_simple.c ****     lv_style_set_line_width(&theme->styles.dark, 1);
 112:Drivers/lvgl/src/themes/simple/lv_theme_simple.c ****     lv_style_set_line_color(&theme->styles.dark, COLOR_DARK);
 113:Drivers/lvgl/src/themes/simple/lv_theme_simple.c ****     lv_style_set_arc_width(&theme->styles.dark, 2);
 114:Drivers/lvgl/src/themes/simple/lv_theme_simple.c ****     lv_style_set_arc_color(&theme->styles.dark, COLOR_DARK);
 115:Drivers/lvgl/src/themes/simple/lv_theme_simple.c **** 
 116:Drivers/lvgl/src/themes/simple/lv_theme_simple.c ****     style_init_reset(&theme->styles.dim);
 117:Drivers/lvgl/src/themes/simple/lv_theme_simple.c ****     lv_style_set_bg_opa(&theme->styles.dim, LV_OPA_COVER);
 118:Drivers/lvgl/src/themes/simple/lv_theme_simple.c ****     lv_style_set_bg_color(&theme->styles.dim, COLOR_DIM);
 119:Drivers/lvgl/src/themes/simple/lv_theme_simple.c ****     lv_style_set_line_width(&theme->styles.dim, 1);
 120:Drivers/lvgl/src/themes/simple/lv_theme_simple.c ****     lv_style_set_line_color(&theme->styles.dim, COLOR_DIM);
 121:Drivers/lvgl/src/themes/simple/lv_theme_simple.c ****     lv_style_set_arc_width(&theme->styles.dim, 2);
 122:Drivers/lvgl/src/themes/simple/lv_theme_simple.c ****     lv_style_set_arc_color(&theme->styles.dim, COLOR_DIM);
 123:Drivers/lvgl/src/themes/simple/lv_theme_simple.c **** 
 124:Drivers/lvgl/src/themes/simple/lv_theme_simple.c **** #if LV_USE_ARC
 125:Drivers/lvgl/src/themes/simple/lv_theme_simple.c ****     style_init_reset(&theme->styles.arc_line);
 126:Drivers/lvgl/src/themes/simple/lv_theme_simple.c ****     lv_style_set_arc_width(&theme->styles.arc_line, 6);
 127:Drivers/lvgl/src/themes/simple/lv_theme_simple.c ****     style_init_reset(&theme->styles.arc_knob);
 128:Drivers/lvgl/src/themes/simple/lv_theme_simple.c ****     lv_style_set_pad_all(&theme->styles.arc_knob, 5);
 129:Drivers/lvgl/src/themes/simple/lv_theme_simple.c **** #endif
 130:Drivers/lvgl/src/themes/simple/lv_theme_simple.c **** 
 131:Drivers/lvgl/src/themes/simple/lv_theme_simple.c **** #if LV_USE_TEXTAREA
 132:Drivers/lvgl/src/themes/simple/lv_theme_simple.c ****     style_init_reset(&theme->styles.ta_cursor);
 133:Drivers/lvgl/src/themes/simple/lv_theme_simple.c ****     lv_style_set_border_side(&theme->styles.ta_cursor, LV_BORDER_SIDE_LEFT);
 134:Drivers/lvgl/src/themes/simple/lv_theme_simple.c ****     lv_style_set_border_color(&theme->styles.ta_cursor, COLOR_DIM);
 135:Drivers/lvgl/src/themes/simple/lv_theme_simple.c ****     lv_style_set_border_width(&theme->styles.ta_cursor, 2);
 136:Drivers/lvgl/src/themes/simple/lv_theme_simple.c ****     lv_style_set_bg_opa(&theme->styles.ta_cursor, LV_OPA_TRANSP);
 137:Drivers/lvgl/src/themes/simple/lv_theme_simple.c ****     lv_style_set_anim_duration(&theme->styles.ta_cursor, 500);
 138:Drivers/lvgl/src/themes/simple/lv_theme_simple.c **** #endif
 139:Drivers/lvgl/src/themes/simple/lv_theme_simple.c **** }
 140:Drivers/lvgl/src/themes/simple/lv_theme_simple.c **** 
 141:Drivers/lvgl/src/themes/simple/lv_theme_simple.c **** /**********************
 142:Drivers/lvgl/src/themes/simple/lv_theme_simple.c ****  *   GLOBAL FUNCTIONS
 143:Drivers/lvgl/src/themes/simple/lv_theme_simple.c ****  **********************/
 144:Drivers/lvgl/src/themes/simple/lv_theme_simple.c **** 
ARM GAS  /tmp/ccFdPeTq.s 			page 4


 145:Drivers/lvgl/src/themes/simple/lv_theme_simple.c **** bool lv_theme_simple_is_inited(void)
 146:Drivers/lvgl/src/themes/simple/lv_theme_simple.c **** {
 147:Drivers/lvgl/src/themes/simple/lv_theme_simple.c ****     my_theme_t * theme = theme_def;
 148:Drivers/lvgl/src/themes/simple/lv_theme_simple.c ****     if(theme == NULL) return false;
 149:Drivers/lvgl/src/themes/simple/lv_theme_simple.c ****     return theme->inited;
 150:Drivers/lvgl/src/themes/simple/lv_theme_simple.c **** }
 151:Drivers/lvgl/src/themes/simple/lv_theme_simple.c **** 
 152:Drivers/lvgl/src/themes/simple/lv_theme_simple.c **** lv_theme_t * lv_theme_simple_get(void)
 153:Drivers/lvgl/src/themes/simple/lv_theme_simple.c **** {
 154:Drivers/lvgl/src/themes/simple/lv_theme_simple.c ****     if(!lv_theme_simple_is_inited()) {
 155:Drivers/lvgl/src/themes/simple/lv_theme_simple.c ****         return NULL;
 156:Drivers/lvgl/src/themes/simple/lv_theme_simple.c ****     }
 157:Drivers/lvgl/src/themes/simple/lv_theme_simple.c **** 
 158:Drivers/lvgl/src/themes/simple/lv_theme_simple.c ****     return (lv_theme_t *)theme_def;
 159:Drivers/lvgl/src/themes/simple/lv_theme_simple.c **** }
 160:Drivers/lvgl/src/themes/simple/lv_theme_simple.c **** 
 161:Drivers/lvgl/src/themes/simple/lv_theme_simple.c **** void lv_theme_simple_deinit(void)
 162:Drivers/lvgl/src/themes/simple/lv_theme_simple.c **** {
 163:Drivers/lvgl/src/themes/simple/lv_theme_simple.c ****     my_theme_t * theme = theme_def;
 164:Drivers/lvgl/src/themes/simple/lv_theme_simple.c ****     if(theme) {
 165:Drivers/lvgl/src/themes/simple/lv_theme_simple.c ****         if(theme->inited) {
 166:Drivers/lvgl/src/themes/simple/lv_theme_simple.c ****             lv_style_t * theme_styles = (lv_style_t *)(&(theme->styles));
 167:Drivers/lvgl/src/themes/simple/lv_theme_simple.c ****             uint32_t i;
 168:Drivers/lvgl/src/themes/simple/lv_theme_simple.c ****             for(i = 0; i < sizeof(my_theme_styles_t) / sizeof(lv_style_t); i++) {
 169:Drivers/lvgl/src/themes/simple/lv_theme_simple.c ****                 lv_style_reset(theme_styles + i);
 170:Drivers/lvgl/src/themes/simple/lv_theme_simple.c ****             }
 171:Drivers/lvgl/src/themes/simple/lv_theme_simple.c ****         }
 172:Drivers/lvgl/src/themes/simple/lv_theme_simple.c ****         lv_free(theme_def);
 173:Drivers/lvgl/src/themes/simple/lv_theme_simple.c ****         theme_def = NULL;
 174:Drivers/lvgl/src/themes/simple/lv_theme_simple.c ****     }
 175:Drivers/lvgl/src/themes/simple/lv_theme_simple.c **** }
 176:Drivers/lvgl/src/themes/simple/lv_theme_simple.c **** 
 177:Drivers/lvgl/src/themes/simple/lv_theme_simple.c **** lv_theme_t * lv_theme_simple_init(lv_display_t * disp)
 178:Drivers/lvgl/src/themes/simple/lv_theme_simple.c **** {
 179:Drivers/lvgl/src/themes/simple/lv_theme_simple.c ****     /*This trick is required only to avoid the garbage collection of
 180:Drivers/lvgl/src/themes/simple/lv_theme_simple.c ****      *styles' data if LVGL is used in a binding (e.g. MicroPython)
 181:Drivers/lvgl/src/themes/simple/lv_theme_simple.c ****      *In a general case styles could be in simple `static lv_style_t my_style...` variables*/
 182:Drivers/lvgl/src/themes/simple/lv_theme_simple.c ****     if(!lv_theme_simple_is_inited()) {
 183:Drivers/lvgl/src/themes/simple/lv_theme_simple.c ****         theme_def  = lv_malloc_zeroed(sizeof(my_theme_t));
 184:Drivers/lvgl/src/themes/simple/lv_theme_simple.c ****     }
 185:Drivers/lvgl/src/themes/simple/lv_theme_simple.c **** 
 186:Drivers/lvgl/src/themes/simple/lv_theme_simple.c ****     my_theme_t * theme = theme_def;
 187:Drivers/lvgl/src/themes/simple/lv_theme_simple.c **** 
 188:Drivers/lvgl/src/themes/simple/lv_theme_simple.c ****     theme->base.disp = disp;
 189:Drivers/lvgl/src/themes/simple/lv_theme_simple.c ****     theme->base.font_small = LV_FONT_DEFAULT;
 190:Drivers/lvgl/src/themes/simple/lv_theme_simple.c ****     theme->base.font_normal = LV_FONT_DEFAULT;
 191:Drivers/lvgl/src/themes/simple/lv_theme_simple.c ****     theme->base.font_large = LV_FONT_DEFAULT;
 192:Drivers/lvgl/src/themes/simple/lv_theme_simple.c ****     theme->base.apply_cb = theme_apply;
 193:Drivers/lvgl/src/themes/simple/lv_theme_simple.c **** 
 194:Drivers/lvgl/src/themes/simple/lv_theme_simple.c ****     style_init(theme);
 195:Drivers/lvgl/src/themes/simple/lv_theme_simple.c **** 
 196:Drivers/lvgl/src/themes/simple/lv_theme_simple.c ****     if(disp == NULL || lv_display_get_theme(disp) == (lv_theme_t *)theme) {
 197:Drivers/lvgl/src/themes/simple/lv_theme_simple.c ****         lv_obj_report_style_change(NULL);
 198:Drivers/lvgl/src/themes/simple/lv_theme_simple.c ****     }
 199:Drivers/lvgl/src/themes/simple/lv_theme_simple.c **** 
 200:Drivers/lvgl/src/themes/simple/lv_theme_simple.c ****     theme->inited = true;
 201:Drivers/lvgl/src/themes/simple/lv_theme_simple.c **** 
ARM GAS  /tmp/ccFdPeTq.s 			page 5


 202:Drivers/lvgl/src/themes/simple/lv_theme_simple.c ****     return (lv_theme_t *)theme_def;
 203:Drivers/lvgl/src/themes/simple/lv_theme_simple.c **** }
 204:Drivers/lvgl/src/themes/simple/lv_theme_simple.c **** 
 205:Drivers/lvgl/src/themes/simple/lv_theme_simple.c **** static void theme_apply(lv_theme_t * th, lv_obj_t * obj)
 206:Drivers/lvgl/src/themes/simple/lv_theme_simple.c **** {
  29              		.loc 1 206 1 view -0
  30              		.cfi_startproc
  31              		@ args = 0, pretend = 0, frame = 0
  32              		@ frame_needed = 0, uses_anonymous_args = 0
  33              		.loc 1 206 1 is_stmt 0 view .LVU1
  34 0000 70B5     		push	{r4, r5, r6, lr}
  35              	.LCFI0:
  36              		.cfi_def_cfa_offset 16
  37              		.cfi_offset 4, -16
  38              		.cfi_offset 5, -12
  39              		.cfi_offset 6, -8
  40              		.cfi_offset 14, -4
  41 0002 0C46     		mov	r4, r1
 207:Drivers/lvgl/src/themes/simple/lv_theme_simple.c ****     LV_UNUSED(th);
  42              		.loc 1 207 5 is_stmt 1 view .LVU2
 208:Drivers/lvgl/src/themes/simple/lv_theme_simple.c **** 
 209:Drivers/lvgl/src/themes/simple/lv_theme_simple.c ****     my_theme_t * theme = theme_def;
  43              		.loc 1 209 5 view .LVU3
  44              		.loc 1 209 18 is_stmt 0 view .LVU4
  45 0004 BB4B     		ldr	r3, .L43
  46 0006 D3F8B851 		ldr	r5, [r3, #440]
  47              	.LVL1:
 210:Drivers/lvgl/src/themes/simple/lv_theme_simple.c ****     lv_obj_t * parent = lv_obj_get_parent(obj);
  48              		.loc 1 210 5 is_stmt 1 view .LVU5
  49              		.loc 1 210 25 is_stmt 0 view .LVU6
  50 000a 0846     		mov	r0, r1
  51              	.LVL2:
  52              		.loc 1 210 25 view .LVU7
  53 000c FFF7FEFF 		bl	lv_obj_get_parent
  54              	.LVL3:
 211:Drivers/lvgl/src/themes/simple/lv_theme_simple.c **** 
 212:Drivers/lvgl/src/themes/simple/lv_theme_simple.c ****     if(parent == NULL) {
  55              		.loc 1 212 5 is_stmt 1 view .LVU8
  56              		.loc 1 212 7 is_stmt 0 view .LVU9
  57 0010 B0B3     		cbz	r0, .L34
  58 0012 0646     		mov	r6, r0
 213:Drivers/lvgl/src/themes/simple/lv_theme_simple.c ****         lv_obj_add_style(obj, &theme->styles.scr, 0);
 214:Drivers/lvgl/src/themes/simple/lv_theme_simple.c ****         lv_obj_add_style(obj, &theme->styles.scrollbar, LV_PART_SCROLLBAR);
 215:Drivers/lvgl/src/themes/simple/lv_theme_simple.c ****         return;
 216:Drivers/lvgl/src/themes/simple/lv_theme_simple.c ****     }
 217:Drivers/lvgl/src/themes/simple/lv_theme_simple.c **** 
 218:Drivers/lvgl/src/themes/simple/lv_theme_simple.c ****     if(lv_obj_check_type(obj, &lv_obj_class)) {
  59              		.loc 1 218 5 is_stmt 1 view .LVU10
  60              		.loc 1 218 8 is_stmt 0 view .LVU11
  61 0014 B849     		ldr	r1, .L43+4
  62 0016 2046     		mov	r0, r4
  63              	.LVL4:
  64              		.loc 1 218 8 view .LVU12
  65 0018 FFF7FEFF 		bl	lv_obj_check_type
  66              	.LVL5:
  67              		.loc 1 218 7 discriminator 1 view .LVU13
  68 001c 0028     		cmp	r0, #0
ARM GAS  /tmp/ccFdPeTq.s 			page 6


  69 001e 67D0     		beq	.L4
 219:Drivers/lvgl/src/themes/simple/lv_theme_simple.c **** #if LV_USE_TABVIEW
 220:Drivers/lvgl/src/themes/simple/lv_theme_simple.c ****         /*Tabview content area*/
 221:Drivers/lvgl/src/themes/simple/lv_theme_simple.c ****         if(lv_obj_check_type(parent, &lv_tabview_class)) {
  70              		.loc 1 221 9 is_stmt 1 view .LVU14
  71              		.loc 1 221 12 is_stmt 0 view .LVU15
  72 0020 B649     		ldr	r1, .L43+8
  73 0022 3046     		mov	r0, r6
  74 0024 FFF7FEFF 		bl	lv_obj_check_type
  75              	.LVL6:
  76              		.loc 1 221 11 discriminator 1 view .LVU16
  77 0028 C0BB     		cbnz	r0, .L35
 222:Drivers/lvgl/src/themes/simple/lv_theme_simple.c ****             lv_obj_add_style(obj, &theme->styles.scr, 0);
 223:Drivers/lvgl/src/themes/simple/lv_theme_simple.c ****             return;
 224:Drivers/lvgl/src/themes/simple/lv_theme_simple.c ****         }
 225:Drivers/lvgl/src/themes/simple/lv_theme_simple.c ****         /*Tabview pages*/
 226:Drivers/lvgl/src/themes/simple/lv_theme_simple.c ****         else if(lv_obj_check_type(lv_obj_get_parent(parent), &lv_tabview_class)) {
  78              		.loc 1 226 14 is_stmt 1 view .LVU17
  79              		.loc 1 226 35 is_stmt 0 view .LVU18
  80 002a 3046     		mov	r0, r6
  81 002c FFF7FEFF 		bl	lv_obj_get_parent
  82              	.LVL7:
  83              		.loc 1 226 17 discriminator 1 view .LVU19
  84 0030 B249     		ldr	r1, .L43+8
  85 0032 FFF7FEFF 		bl	lv_obj_check_type
  86              	.LVL8:
  87              		.loc 1 226 16 discriminator 2 view .LVU20
  88 0036 C0BB     		cbnz	r0, .L36
 227:Drivers/lvgl/src/themes/simple/lv_theme_simple.c ****             lv_obj_add_style(obj, &theme->styles.scr, 0);
 228:Drivers/lvgl/src/themes/simple/lv_theme_simple.c ****             lv_obj_add_style(obj, &theme->styles.scrollbar, LV_PART_SCROLLBAR);
 229:Drivers/lvgl/src/themes/simple/lv_theme_simple.c ****             return;
 230:Drivers/lvgl/src/themes/simple/lv_theme_simple.c ****         }
 231:Drivers/lvgl/src/themes/simple/lv_theme_simple.c **** #endif
 232:Drivers/lvgl/src/themes/simple/lv_theme_simple.c **** 
 233:Drivers/lvgl/src/themes/simple/lv_theme_simple.c **** #if LV_USE_WIN
 234:Drivers/lvgl/src/themes/simple/lv_theme_simple.c ****         /*Header*/
 235:Drivers/lvgl/src/themes/simple/lv_theme_simple.c ****         if(lv_obj_check_type(parent, &lv_win_class) && lv_obj_get_child(parent, 0) == obj) {
  89              		.loc 1 235 9 is_stmt 1 view .LVU21
  90              		.loc 1 235 12 is_stmt 0 view .LVU22
  91 0038 B149     		ldr	r1, .L43+12
  92 003a 3046     		mov	r0, r6
  93 003c FFF7FEFF 		bl	lv_obj_check_type
  94              	.LVL9:
  95              		.loc 1 235 11 discriminator 1 view .LVU23
  96 0040 28B1     		cbz	r0, .L7
  97              		.loc 1 235 56 discriminator 1 view .LVU24
  98 0042 0021     		movs	r1, #0
  99 0044 3046     		mov	r0, r6
 100 0046 FFF7FEFF 		bl	lv_obj_get_child
 101              	.LVL10:
 102              		.loc 1 235 53 discriminator 1 view .LVU25
 103 004a 8442     		cmp	r4, r0
 104 004c 3BD0     		beq	.L37
 105              	.L7:
 236:Drivers/lvgl/src/themes/simple/lv_theme_simple.c ****             lv_obj_add_style(obj, &theme->styles.light, 0);
 237:Drivers/lvgl/src/themes/simple/lv_theme_simple.c ****             return;
 238:Drivers/lvgl/src/themes/simple/lv_theme_simple.c ****         }
ARM GAS  /tmp/ccFdPeTq.s 			page 7


 239:Drivers/lvgl/src/themes/simple/lv_theme_simple.c ****         /*Content*/
 240:Drivers/lvgl/src/themes/simple/lv_theme_simple.c ****         else if(lv_obj_check_type(parent, &lv_win_class) && lv_obj_get_child(parent, 1) == obj) {
 106              		.loc 1 240 14 is_stmt 1 view .LVU26
 107              		.loc 1 240 17 is_stmt 0 view .LVU27
 108 004e AC49     		ldr	r1, .L43+12
 109 0050 3046     		mov	r0, r6
 110 0052 FFF7FEFF 		bl	lv_obj_check_type
 111              	.LVL11:
 112              		.loc 1 240 16 discriminator 1 view .LVU28
 113 0056 28B1     		cbz	r0, .L8
 114              		.loc 1 240 61 discriminator 1 view .LVU29
 115 0058 0121     		movs	r1, #1
 116 005a 3046     		mov	r0, r6
 117 005c FFF7FEFF 		bl	lv_obj_get_child
 118              	.LVL12:
 119              		.loc 1 240 58 discriminator 1 view .LVU30
 120 0060 8442     		cmp	r4, r0
 121 0062 37D0     		beq	.L38
 122              	.L8:
 241:Drivers/lvgl/src/themes/simple/lv_theme_simple.c ****             lv_obj_add_style(obj, &theme->styles.light, 0);
 242:Drivers/lvgl/src/themes/simple/lv_theme_simple.c ****             lv_obj_add_style(obj, &theme->styles.scrollbar, LV_PART_SCROLLBAR);
 243:Drivers/lvgl/src/themes/simple/lv_theme_simple.c ****             return;
 244:Drivers/lvgl/src/themes/simple/lv_theme_simple.c ****         }
 245:Drivers/lvgl/src/themes/simple/lv_theme_simple.c **** #endif
 246:Drivers/lvgl/src/themes/simple/lv_theme_simple.c ****         lv_obj_add_style(obj, &theme->styles.white, 0);
 123              		.loc 1 246 9 is_stmt 1 view .LVU31
 124 0064 0022     		movs	r2, #0
 125 0066 05F14001 		add	r1, r5, #64
 126 006a 2046     		mov	r0, r4
 127 006c FFF7FEFF 		bl	lv_obj_add_style
 128              	.LVL13:
 247:Drivers/lvgl/src/themes/simple/lv_theme_simple.c ****         lv_obj_add_style(obj, &theme->styles.scrollbar, LV_PART_SCROLLBAR);
 129              		.loc 1 247 9 view .LVU32
 130 0070 4FF48032 		mov	r2, #65536
 131 0074 05F17001 		add	r1, r5, #112
 132 0078 2046     		mov	r0, r4
 133 007a FFF7FEFF 		bl	lv_obj_add_style
 134              	.LVL14:
 135 007e 42E0     		b	.L1
 136              	.LVL15:
 137              	.L34:
 213:Drivers/lvgl/src/themes/simple/lv_theme_simple.c ****         lv_obj_add_style(obj, &theme->styles.scrollbar, LV_PART_SCROLLBAR);
 138              		.loc 1 213 9 view .LVU33
 139 0080 0022     		movs	r2, #0
 140 0082 05F12801 		add	r1, r5, #40
 141 0086 2046     		mov	r0, r4
 142              	.LVL16:
 213:Drivers/lvgl/src/themes/simple/lv_theme_simple.c ****         lv_obj_add_style(obj, &theme->styles.scrollbar, LV_PART_SCROLLBAR);
 143              		.loc 1 213 9 is_stmt 0 view .LVU34
 144 0088 FFF7FEFF 		bl	lv_obj_add_style
 145              	.LVL17:
 214:Drivers/lvgl/src/themes/simple/lv_theme_simple.c ****         return;
 146              		.loc 1 214 9 is_stmt 1 view .LVU35
 147 008c 4FF48032 		mov	r2, #65536
 148 0090 05F17001 		add	r1, r5, #112
 149 0094 2046     		mov	r0, r4
 150 0096 FFF7FEFF 		bl	lv_obj_add_style
ARM GAS  /tmp/ccFdPeTq.s 			page 8


 151              	.LVL18:
 215:Drivers/lvgl/src/themes/simple/lv_theme_simple.c ****     }
 152              		.loc 1 215 9 view .LVU36
 153 009a 34E0     		b	.L1
 154              	.LVL19:
 155              	.L35:
 222:Drivers/lvgl/src/themes/simple/lv_theme_simple.c ****             return;
 156              		.loc 1 222 13 view .LVU37
 157 009c 0022     		movs	r2, #0
 158 009e 05F12801 		add	r1, r5, #40
 159 00a2 2046     		mov	r0, r4
 160 00a4 FFF7FEFF 		bl	lv_obj_add_style
 161              	.LVL20:
 223:Drivers/lvgl/src/themes/simple/lv_theme_simple.c ****         }
 162              		.loc 1 223 13 view .LVU38
 163 00a8 2DE0     		b	.L1
 164              	.L36:
 227:Drivers/lvgl/src/themes/simple/lv_theme_simple.c ****             lv_obj_add_style(obj, &theme->styles.scrollbar, LV_PART_SCROLLBAR);
 165              		.loc 1 227 13 view .LVU39
 166 00aa 0022     		movs	r2, #0
 167 00ac 05F12801 		add	r1, r5, #40
 168 00b0 2046     		mov	r0, r4
 169 00b2 FFF7FEFF 		bl	lv_obj_add_style
 170              	.LVL21:
 228:Drivers/lvgl/src/themes/simple/lv_theme_simple.c ****             return;
 171              		.loc 1 228 13 view .LVU40
 172 00b6 4FF48032 		mov	r2, #65536
 173 00ba 05F17001 		add	r1, r5, #112
 174 00be 2046     		mov	r0, r4
 175 00c0 FFF7FEFF 		bl	lv_obj_add_style
 176              	.LVL22:
 229:Drivers/lvgl/src/themes/simple/lv_theme_simple.c ****         }
 177              		.loc 1 229 13 view .LVU41
 178 00c4 1FE0     		b	.L1
 179              	.L37:
 236:Drivers/lvgl/src/themes/simple/lv_theme_simple.c ****             return;
 180              		.loc 1 236 13 view .LVU42
 181 00c6 0022     		movs	r2, #0
 182 00c8 05F14C01 		add	r1, r5, #76
 183 00cc 2046     		mov	r0, r4
 184 00ce FFF7FEFF 		bl	lv_obj_add_style
 185              	.LVL23:
 237:Drivers/lvgl/src/themes/simple/lv_theme_simple.c ****         }
 186              		.loc 1 237 13 view .LVU43
 187 00d2 18E0     		b	.L1
 188              	.L38:
 241:Drivers/lvgl/src/themes/simple/lv_theme_simple.c ****             lv_obj_add_style(obj, &theme->styles.scrollbar, LV_PART_SCROLLBAR);
 189              		.loc 1 241 13 view .LVU44
 190 00d4 0022     		movs	r2, #0
 191 00d6 05F14C01 		add	r1, r5, #76
 192 00da 2046     		mov	r0, r4
 193 00dc FFF7FEFF 		bl	lv_obj_add_style
 194              	.LVL24:
 242:Drivers/lvgl/src/themes/simple/lv_theme_simple.c ****             return;
 195              		.loc 1 242 13 view .LVU45
 196 00e0 4FF48032 		mov	r2, #65536
 197 00e4 05F17001 		add	r1, r5, #112
ARM GAS  /tmp/ccFdPeTq.s 			page 9


 198 00e8 2046     		mov	r0, r4
 199 00ea FFF7FEFF 		bl	lv_obj_add_style
 200              	.LVL25:
 243:Drivers/lvgl/src/themes/simple/lv_theme_simple.c ****         }
 201              		.loc 1 243 13 view .LVU46
 202 00ee 0AE0     		b	.L1
 203              	.L4:
 248:Drivers/lvgl/src/themes/simple/lv_theme_simple.c ****     }
 249:Drivers/lvgl/src/themes/simple/lv_theme_simple.c **** #if LV_USE_BUTTON
 250:Drivers/lvgl/src/themes/simple/lv_theme_simple.c ****     else if(lv_obj_check_type(obj, &lv_button_class)) {
 204              		.loc 1 250 10 view .LVU47
 205              		.loc 1 250 13 is_stmt 0 view .LVU48
 206 00f0 8449     		ldr	r1, .L43+16
 207 00f2 2046     		mov	r0, r4
 208 00f4 FFF7FEFF 		bl	lv_obj_check_type
 209              	.LVL26:
 210              		.loc 1 250 12 discriminator 1 view .LVU49
 211 00f8 30B1     		cbz	r0, .L9
 251:Drivers/lvgl/src/themes/simple/lv_theme_simple.c ****         lv_obj_add_style(obj, &theme->styles.dark, 0);
 212              		.loc 1 251 9 is_stmt 1 view .LVU50
 213 00fa 0022     		movs	r2, #0
 214 00fc 05F15801 		add	r1, r5, #88
 215 0100 2046     		mov	r0, r4
 216 0102 FFF7FEFF 		bl	lv_obj_add_style
 217              	.LVL27:
 218              	.L1:
 252:Drivers/lvgl/src/themes/simple/lv_theme_simple.c ****     }
 253:Drivers/lvgl/src/themes/simple/lv_theme_simple.c **** #endif
 254:Drivers/lvgl/src/themes/simple/lv_theme_simple.c **** 
 255:Drivers/lvgl/src/themes/simple/lv_theme_simple.c **** #if LV_USE_BUTTONMATRIX
 256:Drivers/lvgl/src/themes/simple/lv_theme_simple.c ****     else if(lv_obj_check_type(obj, &lv_buttonmatrix_class)) {
 257:Drivers/lvgl/src/themes/simple/lv_theme_simple.c **** #if LV_USE_MSGBOX
 258:Drivers/lvgl/src/themes/simple/lv_theme_simple.c ****         if(lv_obj_check_type(parent, &lv_msgbox_class)) {
 259:Drivers/lvgl/src/themes/simple/lv_theme_simple.c ****             lv_obj_add_style(obj, &theme->styles.light, LV_PART_ITEMS);
 260:Drivers/lvgl/src/themes/simple/lv_theme_simple.c ****             return;
 261:Drivers/lvgl/src/themes/simple/lv_theme_simple.c ****         }
 262:Drivers/lvgl/src/themes/simple/lv_theme_simple.c **** #endif
 263:Drivers/lvgl/src/themes/simple/lv_theme_simple.c **** #if LV_USE_TABVIEW
 264:Drivers/lvgl/src/themes/simple/lv_theme_simple.c ****         if(lv_obj_check_type(parent, &lv_tabview_class)) {
 265:Drivers/lvgl/src/themes/simple/lv_theme_simple.c ****             lv_obj_add_style(obj, &theme->styles.light, LV_PART_ITEMS);
 266:Drivers/lvgl/src/themes/simple/lv_theme_simple.c ****             return;
 267:Drivers/lvgl/src/themes/simple/lv_theme_simple.c ****         }
 268:Drivers/lvgl/src/themes/simple/lv_theme_simple.c **** #endif
 269:Drivers/lvgl/src/themes/simple/lv_theme_simple.c ****         lv_obj_add_style(obj, &theme->styles.white, 0);
 270:Drivers/lvgl/src/themes/simple/lv_theme_simple.c ****         lv_obj_add_style(obj, &theme->styles.light, LV_PART_ITEMS);
 271:Drivers/lvgl/src/themes/simple/lv_theme_simple.c ****     }
 272:Drivers/lvgl/src/themes/simple/lv_theme_simple.c **** #endif
 273:Drivers/lvgl/src/themes/simple/lv_theme_simple.c **** 
 274:Drivers/lvgl/src/themes/simple/lv_theme_simple.c **** #if LV_USE_BAR
 275:Drivers/lvgl/src/themes/simple/lv_theme_simple.c ****     else if(lv_obj_check_type(obj, &lv_bar_class)) {
 276:Drivers/lvgl/src/themes/simple/lv_theme_simple.c ****         lv_obj_add_style(obj, &theme->styles.light, 0);
 277:Drivers/lvgl/src/themes/simple/lv_theme_simple.c ****         lv_obj_add_style(obj, &theme->styles.dark, LV_PART_INDICATOR);
 278:Drivers/lvgl/src/themes/simple/lv_theme_simple.c ****     }
 279:Drivers/lvgl/src/themes/simple/lv_theme_simple.c **** #endif
 280:Drivers/lvgl/src/themes/simple/lv_theme_simple.c **** 
 281:Drivers/lvgl/src/themes/simple/lv_theme_simple.c **** #if LV_USE_SLIDER
 282:Drivers/lvgl/src/themes/simple/lv_theme_simple.c ****     else if(lv_obj_check_type(obj, &lv_slider_class)) {
ARM GAS  /tmp/ccFdPeTq.s 			page 10


 283:Drivers/lvgl/src/themes/simple/lv_theme_simple.c ****         lv_obj_add_style(obj, &theme->styles.light, 0);
 284:Drivers/lvgl/src/themes/simple/lv_theme_simple.c ****         lv_obj_add_style(obj, &theme->styles.dark, LV_PART_INDICATOR);
 285:Drivers/lvgl/src/themes/simple/lv_theme_simple.c ****         lv_obj_add_style(obj, &theme->styles.dim, LV_PART_KNOB);
 286:Drivers/lvgl/src/themes/simple/lv_theme_simple.c ****     }
 287:Drivers/lvgl/src/themes/simple/lv_theme_simple.c **** #endif
 288:Drivers/lvgl/src/themes/simple/lv_theme_simple.c **** 
 289:Drivers/lvgl/src/themes/simple/lv_theme_simple.c **** #if LV_USE_TABLE
 290:Drivers/lvgl/src/themes/simple/lv_theme_simple.c ****     else if(lv_obj_check_type(obj, &lv_table_class)) {
 291:Drivers/lvgl/src/themes/simple/lv_theme_simple.c ****         lv_obj_add_style(obj, &theme->styles.scrollbar, LV_PART_SCROLLBAR);
 292:Drivers/lvgl/src/themes/simple/lv_theme_simple.c ****         lv_obj_add_style(obj, &theme->styles.light, LV_PART_ITEMS);
 293:Drivers/lvgl/src/themes/simple/lv_theme_simple.c ****     }
 294:Drivers/lvgl/src/themes/simple/lv_theme_simple.c **** #endif
 295:Drivers/lvgl/src/themes/simple/lv_theme_simple.c **** 
 296:Drivers/lvgl/src/themes/simple/lv_theme_simple.c **** #if LV_USE_CHECKBOX
 297:Drivers/lvgl/src/themes/simple/lv_theme_simple.c ****     else if(lv_obj_check_type(obj, &lv_checkbox_class)) {
 298:Drivers/lvgl/src/themes/simple/lv_theme_simple.c ****         lv_obj_add_style(obj, &theme->styles.light, LV_PART_INDICATOR);
 299:Drivers/lvgl/src/themes/simple/lv_theme_simple.c ****         lv_obj_add_style(obj, &theme->styles.dark, LV_PART_INDICATOR | LV_STATE_CHECKED);
 300:Drivers/lvgl/src/themes/simple/lv_theme_simple.c ****     }
 301:Drivers/lvgl/src/themes/simple/lv_theme_simple.c **** #endif
 302:Drivers/lvgl/src/themes/simple/lv_theme_simple.c **** 
 303:Drivers/lvgl/src/themes/simple/lv_theme_simple.c **** #if LV_USE_SWITCH
 304:Drivers/lvgl/src/themes/simple/lv_theme_simple.c ****     else if(lv_obj_check_type(obj, &lv_switch_class)) {
 305:Drivers/lvgl/src/themes/simple/lv_theme_simple.c ****         lv_obj_add_style(obj, &theme->styles.light, 0);
 306:Drivers/lvgl/src/themes/simple/lv_theme_simple.c ****         lv_obj_add_style(obj, &theme->styles.dim, LV_PART_KNOB);
 307:Drivers/lvgl/src/themes/simple/lv_theme_simple.c ****     }
 308:Drivers/lvgl/src/themes/simple/lv_theme_simple.c **** #endif
 309:Drivers/lvgl/src/themes/simple/lv_theme_simple.c **** 
 310:Drivers/lvgl/src/themes/simple/lv_theme_simple.c **** #if LV_USE_CHART
 311:Drivers/lvgl/src/themes/simple/lv_theme_simple.c ****     else if(lv_obj_check_type(obj, &lv_chart_class)) {
 312:Drivers/lvgl/src/themes/simple/lv_theme_simple.c ****         lv_obj_add_style(obj, &theme->styles.white, 0);
 313:Drivers/lvgl/src/themes/simple/lv_theme_simple.c ****         lv_obj_add_style(obj, &theme->styles.scrollbar, LV_PART_SCROLLBAR);
 314:Drivers/lvgl/src/themes/simple/lv_theme_simple.c ****         lv_obj_add_style(obj, &theme->styles.light, LV_PART_ITEMS);
 315:Drivers/lvgl/src/themes/simple/lv_theme_simple.c ****         lv_obj_add_style(obj, &theme->styles.dark, LV_PART_CURSOR);
 316:Drivers/lvgl/src/themes/simple/lv_theme_simple.c ****     }
 317:Drivers/lvgl/src/themes/simple/lv_theme_simple.c **** #endif
 318:Drivers/lvgl/src/themes/simple/lv_theme_simple.c **** 
 319:Drivers/lvgl/src/themes/simple/lv_theme_simple.c **** #if LV_USE_ROLLER
 320:Drivers/lvgl/src/themes/simple/lv_theme_simple.c ****     else if(lv_obj_check_type(obj, &lv_roller_class)) {
 321:Drivers/lvgl/src/themes/simple/lv_theme_simple.c ****         lv_obj_add_style(obj, &theme->styles.light, 0);
 322:Drivers/lvgl/src/themes/simple/lv_theme_simple.c ****         lv_obj_add_style(obj, &theme->styles.dark, LV_PART_SELECTED);
 323:Drivers/lvgl/src/themes/simple/lv_theme_simple.c ****     }
 324:Drivers/lvgl/src/themes/simple/lv_theme_simple.c **** #endif
 325:Drivers/lvgl/src/themes/simple/lv_theme_simple.c **** 
 326:Drivers/lvgl/src/themes/simple/lv_theme_simple.c **** #if LV_USE_DROPDOWN
 327:Drivers/lvgl/src/themes/simple/lv_theme_simple.c ****     else if(lv_obj_check_type(obj, &lv_dropdown_class)) {
 328:Drivers/lvgl/src/themes/simple/lv_theme_simple.c ****         lv_obj_add_style(obj, &theme->styles.white, 0);
 329:Drivers/lvgl/src/themes/simple/lv_theme_simple.c ****     }
 330:Drivers/lvgl/src/themes/simple/lv_theme_simple.c ****     else if(lv_obj_check_type(obj, &lv_dropdownlist_class)) {
 331:Drivers/lvgl/src/themes/simple/lv_theme_simple.c ****         lv_obj_add_style(obj, &theme->styles.white, 0);
 332:Drivers/lvgl/src/themes/simple/lv_theme_simple.c ****         lv_obj_add_style(obj, &theme->styles.scrollbar, LV_PART_SCROLLBAR);
 333:Drivers/lvgl/src/themes/simple/lv_theme_simple.c ****         lv_obj_add_style(obj, &theme->styles.light, LV_PART_SELECTED);
 334:Drivers/lvgl/src/themes/simple/lv_theme_simple.c ****         lv_obj_add_style(obj, &theme->styles.dark, LV_PART_SELECTED | LV_STATE_CHECKED);
 335:Drivers/lvgl/src/themes/simple/lv_theme_simple.c ****     }
 336:Drivers/lvgl/src/themes/simple/lv_theme_simple.c **** #endif
 337:Drivers/lvgl/src/themes/simple/lv_theme_simple.c **** 
 338:Drivers/lvgl/src/themes/simple/lv_theme_simple.c **** #if LV_USE_ARC
 339:Drivers/lvgl/src/themes/simple/lv_theme_simple.c ****     else if(lv_obj_check_type(obj, &lv_arc_class)) {
ARM GAS  /tmp/ccFdPeTq.s 			page 11


 340:Drivers/lvgl/src/themes/simple/lv_theme_simple.c ****         lv_obj_add_style(obj, &theme->styles.light, 0);
 341:Drivers/lvgl/src/themes/simple/lv_theme_simple.c ****         lv_obj_add_style(obj, &theme->styles.transp, 0);
 342:Drivers/lvgl/src/themes/simple/lv_theme_simple.c ****         lv_obj_add_style(obj, &theme->styles.arc_line, 0);
 343:Drivers/lvgl/src/themes/simple/lv_theme_simple.c ****         lv_obj_add_style(obj, &theme->styles.dark, LV_PART_INDICATOR);
 344:Drivers/lvgl/src/themes/simple/lv_theme_simple.c ****         lv_obj_add_style(obj, &theme->styles.arc_line, LV_PART_INDICATOR);
 345:Drivers/lvgl/src/themes/simple/lv_theme_simple.c ****         lv_obj_add_style(obj, &theme->styles.dim, LV_PART_KNOB);
 346:Drivers/lvgl/src/themes/simple/lv_theme_simple.c ****         lv_obj_add_style(obj, &theme->styles.arc_knob, LV_PART_KNOB);
 347:Drivers/lvgl/src/themes/simple/lv_theme_simple.c ****     }
 348:Drivers/lvgl/src/themes/simple/lv_theme_simple.c **** #endif
 349:Drivers/lvgl/src/themes/simple/lv_theme_simple.c **** 
 350:Drivers/lvgl/src/themes/simple/lv_theme_simple.c **** #if LV_USE_SPINNER
 351:Drivers/lvgl/src/themes/simple/lv_theme_simple.c ****     else if(lv_obj_check_type(obj, &lv_spinner_class)) {
 352:Drivers/lvgl/src/themes/simple/lv_theme_simple.c ****         lv_obj_add_style(obj, &theme->styles.light, 0);
 353:Drivers/lvgl/src/themes/simple/lv_theme_simple.c ****         lv_obj_add_style(obj, &theme->styles.transp, 0);
 354:Drivers/lvgl/src/themes/simple/lv_theme_simple.c ****         lv_obj_add_style(obj, &theme->styles.arc_line, 0);
 355:Drivers/lvgl/src/themes/simple/lv_theme_simple.c ****         lv_obj_add_style(obj, &theme->styles.dark, LV_PART_INDICATOR);
 356:Drivers/lvgl/src/themes/simple/lv_theme_simple.c ****         lv_obj_add_style(obj, &theme->styles.arc_line, LV_PART_INDICATOR);
 357:Drivers/lvgl/src/themes/simple/lv_theme_simple.c ****     }
 358:Drivers/lvgl/src/themes/simple/lv_theme_simple.c **** #endif
 359:Drivers/lvgl/src/themes/simple/lv_theme_simple.c **** 
 360:Drivers/lvgl/src/themes/simple/lv_theme_simple.c **** #if LV_USE_TEXTAREA
 361:Drivers/lvgl/src/themes/simple/lv_theme_simple.c ****     else if(lv_obj_check_type(obj, &lv_textarea_class)) {
 362:Drivers/lvgl/src/themes/simple/lv_theme_simple.c ****         lv_obj_add_style(obj, &theme->styles.white, 0);
 363:Drivers/lvgl/src/themes/simple/lv_theme_simple.c ****         lv_obj_add_style(obj, &theme->styles.scrollbar, LV_PART_SCROLLBAR);
 364:Drivers/lvgl/src/themes/simple/lv_theme_simple.c ****         lv_obj_add_style(obj, &theme->styles.ta_cursor, LV_PART_CURSOR | LV_STATE_FOCUSED);
 365:Drivers/lvgl/src/themes/simple/lv_theme_simple.c ****     }
 366:Drivers/lvgl/src/themes/simple/lv_theme_simple.c **** #endif
 367:Drivers/lvgl/src/themes/simple/lv_theme_simple.c **** 
 368:Drivers/lvgl/src/themes/simple/lv_theme_simple.c **** #if LV_USE_CALENDAR
 369:Drivers/lvgl/src/themes/simple/lv_theme_simple.c ****     else if(lv_obj_check_type(obj, &lv_calendar_class)) {
 370:Drivers/lvgl/src/themes/simple/lv_theme_simple.c ****         lv_obj_add_style(obj, &theme->styles.light, 0);
 371:Drivers/lvgl/src/themes/simple/lv_theme_simple.c ****     }
 372:Drivers/lvgl/src/themes/simple/lv_theme_simple.c **** #endif
 373:Drivers/lvgl/src/themes/simple/lv_theme_simple.c **** 
 374:Drivers/lvgl/src/themes/simple/lv_theme_simple.c **** #if LV_USE_KEYBOARD
 375:Drivers/lvgl/src/themes/simple/lv_theme_simple.c ****     else if(lv_obj_check_type(obj, &lv_keyboard_class)) {
 376:Drivers/lvgl/src/themes/simple/lv_theme_simple.c ****         lv_obj_add_style(obj, &theme->styles.scr, 0);
 377:Drivers/lvgl/src/themes/simple/lv_theme_simple.c ****         lv_obj_add_style(obj, &theme->styles.white, LV_PART_ITEMS);
 378:Drivers/lvgl/src/themes/simple/lv_theme_simple.c ****         lv_obj_add_style(obj, &theme->styles.light, LV_PART_ITEMS | LV_STATE_CHECKED);
 379:Drivers/lvgl/src/themes/simple/lv_theme_simple.c ****     }
 380:Drivers/lvgl/src/themes/simple/lv_theme_simple.c **** #endif
 381:Drivers/lvgl/src/themes/simple/lv_theme_simple.c **** #if LV_USE_LIST
 382:Drivers/lvgl/src/themes/simple/lv_theme_simple.c ****     else if(lv_obj_check_type(obj, &lv_list_class)) {
 383:Drivers/lvgl/src/themes/simple/lv_theme_simple.c ****         lv_obj_add_style(obj, &theme->styles.light, 0);
 384:Drivers/lvgl/src/themes/simple/lv_theme_simple.c ****         lv_obj_add_style(obj, &theme->styles.scrollbar, LV_PART_SCROLLBAR);
 385:Drivers/lvgl/src/themes/simple/lv_theme_simple.c ****         return;
 386:Drivers/lvgl/src/themes/simple/lv_theme_simple.c ****     }
 387:Drivers/lvgl/src/themes/simple/lv_theme_simple.c ****     else if(lv_obj_check_type(obj, &lv_list_text_class)) {
 388:Drivers/lvgl/src/themes/simple/lv_theme_simple.c **** 
 389:Drivers/lvgl/src/themes/simple/lv_theme_simple.c ****     }
 390:Drivers/lvgl/src/themes/simple/lv_theme_simple.c ****     else if(lv_obj_check_type(obj, &lv_list_button_class)) {
 391:Drivers/lvgl/src/themes/simple/lv_theme_simple.c ****         lv_obj_add_style(obj, &theme->styles.dark, 0);
 392:Drivers/lvgl/src/themes/simple/lv_theme_simple.c **** 
 393:Drivers/lvgl/src/themes/simple/lv_theme_simple.c ****     }
 394:Drivers/lvgl/src/themes/simple/lv_theme_simple.c **** #endif
 395:Drivers/lvgl/src/themes/simple/lv_theme_simple.c **** #if LV_USE_MSGBOX
 396:Drivers/lvgl/src/themes/simple/lv_theme_simple.c ****     else if(lv_obj_check_type(obj, &lv_msgbox_class)) {
ARM GAS  /tmp/ccFdPeTq.s 			page 12


 397:Drivers/lvgl/src/themes/simple/lv_theme_simple.c ****         lv_obj_add_style(obj, &theme->styles.light, 0);
 398:Drivers/lvgl/src/themes/simple/lv_theme_simple.c ****         return;
 399:Drivers/lvgl/src/themes/simple/lv_theme_simple.c ****     }
 400:Drivers/lvgl/src/themes/simple/lv_theme_simple.c **** #endif
 401:Drivers/lvgl/src/themes/simple/lv_theme_simple.c **** #if LV_USE_SPINBOX
 402:Drivers/lvgl/src/themes/simple/lv_theme_simple.c ****     else if(lv_obj_check_type(obj, &lv_spinbox_class)) {
 403:Drivers/lvgl/src/themes/simple/lv_theme_simple.c ****         lv_obj_add_style(obj, &theme->styles.light, 0);
 404:Drivers/lvgl/src/themes/simple/lv_theme_simple.c ****         lv_obj_add_style(obj, &theme->styles.dark, LV_PART_CURSOR);
 405:Drivers/lvgl/src/themes/simple/lv_theme_simple.c ****     }
 406:Drivers/lvgl/src/themes/simple/lv_theme_simple.c **** #endif
 407:Drivers/lvgl/src/themes/simple/lv_theme_simple.c **** #if LV_USE_TILEVIEW
 408:Drivers/lvgl/src/themes/simple/lv_theme_simple.c ****     else if(lv_obj_check_type(obj, &lv_tileview_class)) {
 409:Drivers/lvgl/src/themes/simple/lv_theme_simple.c ****         lv_obj_add_style(obj, &theme->styles.scr, 0);
 410:Drivers/lvgl/src/themes/simple/lv_theme_simple.c ****         lv_obj_add_style(obj, &theme->styles.scrollbar, LV_PART_SCROLLBAR);
 411:Drivers/lvgl/src/themes/simple/lv_theme_simple.c ****     }
 412:Drivers/lvgl/src/themes/simple/lv_theme_simple.c ****     else if(lv_obj_check_type(obj, &lv_tileview_tile_class)) {
 413:Drivers/lvgl/src/themes/simple/lv_theme_simple.c ****         lv_obj_add_style(obj, &theme->styles.scrollbar, LV_PART_SCROLLBAR);
 414:Drivers/lvgl/src/themes/simple/lv_theme_simple.c ****     }
 415:Drivers/lvgl/src/themes/simple/lv_theme_simple.c **** #endif
 416:Drivers/lvgl/src/themes/simple/lv_theme_simple.c **** 
 417:Drivers/lvgl/src/themes/simple/lv_theme_simple.c **** #if LV_USE_LED
 418:Drivers/lvgl/src/themes/simple/lv_theme_simple.c ****     else if(lv_obj_check_type(obj, &lv_led_class)) {
 419:Drivers/lvgl/src/themes/simple/lv_theme_simple.c ****         lv_obj_add_style(obj, &theme->styles.light, 0);
 420:Drivers/lvgl/src/themes/simple/lv_theme_simple.c ****     }
 421:Drivers/lvgl/src/themes/simple/lv_theme_simple.c **** #endif
 422:Drivers/lvgl/src/themes/simple/lv_theme_simple.c **** }
 219              		.loc 1 422 1 is_stmt 0 view .LVU51
 220 0106 70BD     		pop	{r4, r5, r6, pc}
 221              	.LVL28:
 222              	.L9:
 256:Drivers/lvgl/src/themes/simple/lv_theme_simple.c **** #if LV_USE_MSGBOX
 223              		.loc 1 256 10 is_stmt 1 view .LVU52
 256:Drivers/lvgl/src/themes/simple/lv_theme_simple.c **** #if LV_USE_MSGBOX
 224              		.loc 1 256 13 is_stmt 0 view .LVU53
 225 0108 7F49     		ldr	r1, .L43+20
 226 010a 2046     		mov	r0, r4
 227 010c FFF7FEFF 		bl	lv_obj_check_type
 228              	.LVL29:
 256:Drivers/lvgl/src/themes/simple/lv_theme_simple.c **** #if LV_USE_MSGBOX
 229              		.loc 1 256 12 discriminator 1 view .LVU54
 230 0110 38B3     		cbz	r0, .L10
 258:Drivers/lvgl/src/themes/simple/lv_theme_simple.c ****             lv_obj_add_style(obj, &theme->styles.light, LV_PART_ITEMS);
 231              		.loc 1 258 9 is_stmt 1 view .LVU55
 258:Drivers/lvgl/src/themes/simple/lv_theme_simple.c ****             lv_obj_add_style(obj, &theme->styles.light, LV_PART_ITEMS);
 232              		.loc 1 258 12 is_stmt 0 view .LVU56
 233 0112 7E49     		ldr	r1, .L43+24
 234 0114 3046     		mov	r0, r6
 235 0116 FFF7FEFF 		bl	lv_obj_check_type
 236              	.LVL30:
 258:Drivers/lvgl/src/themes/simple/lv_theme_simple.c ****             lv_obj_add_style(obj, &theme->styles.light, LV_PART_ITEMS);
 237              		.loc 1 258 11 discriminator 1 view .LVU57
 238 011a 90B9     		cbnz	r0, .L39
 264:Drivers/lvgl/src/themes/simple/lv_theme_simple.c ****             lv_obj_add_style(obj, &theme->styles.light, LV_PART_ITEMS);
 239              		.loc 1 264 9 is_stmt 1 view .LVU58
 264:Drivers/lvgl/src/themes/simple/lv_theme_simple.c ****             lv_obj_add_style(obj, &theme->styles.light, LV_PART_ITEMS);
 240              		.loc 1 264 12 is_stmt 0 view .LVU59
 241 011c 7749     		ldr	r1, .L43+8
ARM GAS  /tmp/ccFdPeTq.s 			page 13


 242 011e 3046     		mov	r0, r6
 243 0120 FFF7FEFF 		bl	lv_obj_check_type
 244              	.LVL31:
 264:Drivers/lvgl/src/themes/simple/lv_theme_simple.c ****             lv_obj_add_style(obj, &theme->styles.light, LV_PART_ITEMS);
 245              		.loc 1 264 11 discriminator 1 view .LVU60
 246 0124 A8B9     		cbnz	r0, .L40
 269:Drivers/lvgl/src/themes/simple/lv_theme_simple.c ****         lv_obj_add_style(obj, &theme->styles.light, LV_PART_ITEMS);
 247              		.loc 1 269 9 is_stmt 1 view .LVU61
 248 0126 0022     		movs	r2, #0
 249 0128 05F14001 		add	r1, r5, #64
 250 012c 2046     		mov	r0, r4
 251 012e FFF7FEFF 		bl	lv_obj_add_style
 252              	.LVL32:
 270:Drivers/lvgl/src/themes/simple/lv_theme_simple.c ****     }
 253              		.loc 1 270 9 view .LVU62
 254 0132 4FF4A022 		mov	r2, #327680
 255 0136 05F14C01 		add	r1, r5, #76
 256 013a 2046     		mov	r0, r4
 257 013c FFF7FEFF 		bl	lv_obj_add_style
 258              	.LVL33:
 259 0140 E1E7     		b	.L1
 260              	.L39:
 259:Drivers/lvgl/src/themes/simple/lv_theme_simple.c ****             return;
 261              		.loc 1 259 13 view .LVU63
 262 0142 4FF4A022 		mov	r2, #327680
 263 0146 05F14C01 		add	r1, r5, #76
 264 014a 2046     		mov	r0, r4
 265 014c FFF7FEFF 		bl	lv_obj_add_style
 266              	.LVL34:
 260:Drivers/lvgl/src/themes/simple/lv_theme_simple.c ****         }
 267              		.loc 1 260 13 view .LVU64
 268 0150 D9E7     		b	.L1
 269              	.L40:
 265:Drivers/lvgl/src/themes/simple/lv_theme_simple.c ****             return;
 270              		.loc 1 265 13 view .LVU65
 271 0152 4FF4A022 		mov	r2, #327680
 272 0156 05F14C01 		add	r1, r5, #76
 273 015a 2046     		mov	r0, r4
 274 015c FFF7FEFF 		bl	lv_obj_add_style
 275              	.LVL35:
 266:Drivers/lvgl/src/themes/simple/lv_theme_simple.c ****         }
 276              		.loc 1 266 13 view .LVU66
 277 0160 D1E7     		b	.L1
 278              	.L10:
 275:Drivers/lvgl/src/themes/simple/lv_theme_simple.c ****         lv_obj_add_style(obj, &theme->styles.light, 0);
 279              		.loc 1 275 10 view .LVU67
 275:Drivers/lvgl/src/themes/simple/lv_theme_simple.c ****         lv_obj_add_style(obj, &theme->styles.light, 0);
 280              		.loc 1 275 13 is_stmt 0 view .LVU68
 281 0162 6B49     		ldr	r1, .L43+28
 282 0164 2046     		mov	r0, r4
 283 0166 FFF7FEFF 		bl	lv_obj_check_type
 284              	.LVL36:
 275:Drivers/lvgl/src/themes/simple/lv_theme_simple.c ****         lv_obj_add_style(obj, &theme->styles.light, 0);
 285              		.loc 1 275 12 discriminator 1 view .LVU69
 286 016a 68B1     		cbz	r0, .L13
 276:Drivers/lvgl/src/themes/simple/lv_theme_simple.c ****         lv_obj_add_style(obj, &theme->styles.dark, LV_PART_INDICATOR);
 287              		.loc 1 276 9 is_stmt 1 view .LVU70
ARM GAS  /tmp/ccFdPeTq.s 			page 14


 288 016c 0022     		movs	r2, #0
 289 016e 05F14C01 		add	r1, r5, #76
 290 0172 2046     		mov	r0, r4
 291 0174 FFF7FEFF 		bl	lv_obj_add_style
 292              	.LVL37:
 277:Drivers/lvgl/src/themes/simple/lv_theme_simple.c ****     }
 293              		.loc 1 277 9 view .LVU71
 294 0178 4FF40032 		mov	r2, #131072
 295 017c 05F15801 		add	r1, r5, #88
 296 0180 2046     		mov	r0, r4
 297 0182 FFF7FEFF 		bl	lv_obj_add_style
 298              	.LVL38:
 299 0186 BEE7     		b	.L1
 300              	.L13:
 282:Drivers/lvgl/src/themes/simple/lv_theme_simple.c ****         lv_obj_add_style(obj, &theme->styles.light, 0);
 301              		.loc 1 282 10 view .LVU72
 282:Drivers/lvgl/src/themes/simple/lv_theme_simple.c ****         lv_obj_add_style(obj, &theme->styles.light, 0);
 302              		.loc 1 282 13 is_stmt 0 view .LVU73
 303 0188 6249     		ldr	r1, .L43+32
 304 018a 2046     		mov	r0, r4
 305 018c FFF7FEFF 		bl	lv_obj_check_type
 306              	.LVL39:
 282:Drivers/lvgl/src/themes/simple/lv_theme_simple.c ****         lv_obj_add_style(obj, &theme->styles.light, 0);
 307              		.loc 1 282 12 discriminator 1 view .LVU74
 308 0190 A0B1     		cbz	r0, .L14
 283:Drivers/lvgl/src/themes/simple/lv_theme_simple.c ****         lv_obj_add_style(obj, &theme->styles.dark, LV_PART_INDICATOR);
 309              		.loc 1 283 9 is_stmt 1 view .LVU75
 310 0192 0022     		movs	r2, #0
 311 0194 05F14C01 		add	r1, r5, #76
 312 0198 2046     		mov	r0, r4
 313 019a FFF7FEFF 		bl	lv_obj_add_style
 314              	.LVL40:
 284:Drivers/lvgl/src/themes/simple/lv_theme_simple.c ****         lv_obj_add_style(obj, &theme->styles.dim, LV_PART_KNOB);
 315              		.loc 1 284 9 view .LVU76
 316 019e 4FF40032 		mov	r2, #131072
 317 01a2 05F15801 		add	r1, r5, #88
 318 01a6 2046     		mov	r0, r4
 319 01a8 FFF7FEFF 		bl	lv_obj_add_style
 320              	.LVL41:
 285:Drivers/lvgl/src/themes/simple/lv_theme_simple.c ****     }
 321              		.loc 1 285 9 view .LVU77
 322 01ac 4FF44032 		mov	r2, #196608
 323 01b0 05F16401 		add	r1, r5, #100
 324 01b4 2046     		mov	r0, r4
 325 01b6 FFF7FEFF 		bl	lv_obj_add_style
 326              	.LVL42:
 327 01ba A4E7     		b	.L1
 328              	.L14:
 290:Drivers/lvgl/src/themes/simple/lv_theme_simple.c ****         lv_obj_add_style(obj, &theme->styles.scrollbar, LV_PART_SCROLLBAR);
 329              		.loc 1 290 10 view .LVU78
 290:Drivers/lvgl/src/themes/simple/lv_theme_simple.c ****         lv_obj_add_style(obj, &theme->styles.scrollbar, LV_PART_SCROLLBAR);
 330              		.loc 1 290 13 is_stmt 0 view .LVU79
 331 01bc 5649     		ldr	r1, .L43+36
 332 01be 2046     		mov	r0, r4
 333 01c0 FFF7FEFF 		bl	lv_obj_check_type
 334              	.LVL43:
 290:Drivers/lvgl/src/themes/simple/lv_theme_simple.c ****         lv_obj_add_style(obj, &theme->styles.scrollbar, LV_PART_SCROLLBAR);
ARM GAS  /tmp/ccFdPeTq.s 			page 15


 335              		.loc 1 290 12 discriminator 1 view .LVU80
 336 01c4 70B1     		cbz	r0, .L15
 291:Drivers/lvgl/src/themes/simple/lv_theme_simple.c ****         lv_obj_add_style(obj, &theme->styles.light, LV_PART_ITEMS);
 337              		.loc 1 291 9 is_stmt 1 view .LVU81
 338 01c6 4FF48032 		mov	r2, #65536
 339 01ca 05F17001 		add	r1, r5, #112
 340 01ce 2046     		mov	r0, r4
 341 01d0 FFF7FEFF 		bl	lv_obj_add_style
 342              	.LVL44:
 292:Drivers/lvgl/src/themes/simple/lv_theme_simple.c ****     }
 343              		.loc 1 292 9 view .LVU82
 344 01d4 4FF4A022 		mov	r2, #327680
 345 01d8 05F14C01 		add	r1, r5, #76
 346 01dc 2046     		mov	r0, r4
 347 01de FFF7FEFF 		bl	lv_obj_add_style
 348              	.LVL45:
 349 01e2 90E7     		b	.L1
 350              	.L15:
 297:Drivers/lvgl/src/themes/simple/lv_theme_simple.c ****         lv_obj_add_style(obj, &theme->styles.light, LV_PART_INDICATOR);
 351              		.loc 1 297 10 view .LVU83
 297:Drivers/lvgl/src/themes/simple/lv_theme_simple.c ****         lv_obj_add_style(obj, &theme->styles.light, LV_PART_INDICATOR);
 352              		.loc 1 297 13 is_stmt 0 view .LVU84
 353 01e4 4D49     		ldr	r1, .L43+40
 354 01e6 2046     		mov	r0, r4
 355 01e8 FFF7FEFF 		bl	lv_obj_check_type
 356              	.LVL46:
 297:Drivers/lvgl/src/themes/simple/lv_theme_simple.c ****         lv_obj_add_style(obj, &theme->styles.light, LV_PART_INDICATOR);
 357              		.loc 1 297 12 discriminator 1 view .LVU85
 358 01ec 68B1     		cbz	r0, .L16
 298:Drivers/lvgl/src/themes/simple/lv_theme_simple.c ****         lv_obj_add_style(obj, &theme->styles.dark, LV_PART_INDICATOR | LV_STATE_CHECKED);
 359              		.loc 1 298 9 is_stmt 1 view .LVU86
 360 01ee 4FF40032 		mov	r2, #131072
 361 01f2 05F14C01 		add	r1, r5, #76
 362 01f6 2046     		mov	r0, r4
 363 01f8 FFF7FEFF 		bl	lv_obj_add_style
 364              	.LVL47:
 299:Drivers/lvgl/src/themes/simple/lv_theme_simple.c ****     }
 365              		.loc 1 299 9 view .LVU87
 366 01fc 484A     		ldr	r2, .L43+44
 367 01fe 05F15801 		add	r1, r5, #88
 368 0202 2046     		mov	r0, r4
 369 0204 FFF7FEFF 		bl	lv_obj_add_style
 370              	.LVL48:
 371 0208 7DE7     		b	.L1
 372              	.L16:
 304:Drivers/lvgl/src/themes/simple/lv_theme_simple.c ****         lv_obj_add_style(obj, &theme->styles.light, 0);
 373              		.loc 1 304 10 view .LVU88
 304:Drivers/lvgl/src/themes/simple/lv_theme_simple.c ****         lv_obj_add_style(obj, &theme->styles.light, 0);
 374              		.loc 1 304 13 is_stmt 0 view .LVU89
 375 020a 4649     		ldr	r1, .L43+48
 376 020c 2046     		mov	r0, r4
 377 020e FFF7FEFF 		bl	lv_obj_check_type
 378              	.LVL49:
 304:Drivers/lvgl/src/themes/simple/lv_theme_simple.c ****         lv_obj_add_style(obj, &theme->styles.light, 0);
 379              		.loc 1 304 12 discriminator 1 view .LVU90
 380 0212 68B1     		cbz	r0, .L17
 305:Drivers/lvgl/src/themes/simple/lv_theme_simple.c ****         lv_obj_add_style(obj, &theme->styles.dim, LV_PART_KNOB);
ARM GAS  /tmp/ccFdPeTq.s 			page 16


 381              		.loc 1 305 9 is_stmt 1 view .LVU91
 382 0214 0022     		movs	r2, #0
 383 0216 05F14C01 		add	r1, r5, #76
 384 021a 2046     		mov	r0, r4
 385 021c FFF7FEFF 		bl	lv_obj_add_style
 386              	.LVL50:
 306:Drivers/lvgl/src/themes/simple/lv_theme_simple.c ****     }
 387              		.loc 1 306 9 view .LVU92
 388 0220 4FF44032 		mov	r2, #196608
 389 0224 05F16401 		add	r1, r5, #100
 390 0228 2046     		mov	r0, r4
 391 022a FFF7FEFF 		bl	lv_obj_add_style
 392              	.LVL51:
 393 022e 6AE7     		b	.L1
 394              	.L17:
 311:Drivers/lvgl/src/themes/simple/lv_theme_simple.c ****         lv_obj_add_style(obj, &theme->styles.white, 0);
 395              		.loc 1 311 10 view .LVU93
 311:Drivers/lvgl/src/themes/simple/lv_theme_simple.c ****         lv_obj_add_style(obj, &theme->styles.white, 0);
 396              		.loc 1 311 13 is_stmt 0 view .LVU94
 397 0230 3D49     		ldr	r1, .L43+52
 398 0232 2046     		mov	r0, r4
 399 0234 FFF7FEFF 		bl	lv_obj_check_type
 400              	.LVL52:
 311:Drivers/lvgl/src/themes/simple/lv_theme_simple.c ****         lv_obj_add_style(obj, &theme->styles.white, 0);
 401              		.loc 1 311 12 discriminator 1 view .LVU95
 402 0238 D8B1     		cbz	r0, .L18
 312:Drivers/lvgl/src/themes/simple/lv_theme_simple.c ****         lv_obj_add_style(obj, &theme->styles.scrollbar, LV_PART_SCROLLBAR);
 403              		.loc 1 312 9 is_stmt 1 view .LVU96
 404 023a 0022     		movs	r2, #0
 405 023c 05F14001 		add	r1, r5, #64
 406 0240 2046     		mov	r0, r4
 407 0242 FFF7FEFF 		bl	lv_obj_add_style
 408              	.LVL53:
 313:Drivers/lvgl/src/themes/simple/lv_theme_simple.c ****         lv_obj_add_style(obj, &theme->styles.light, LV_PART_ITEMS);
 409              		.loc 1 313 9 view .LVU97
 410 0246 4FF48032 		mov	r2, #65536
 411 024a 05F17001 		add	r1, r5, #112
 412 024e 2046     		mov	r0, r4
 413 0250 FFF7FEFF 		bl	lv_obj_add_style
 414              	.LVL54:
 314:Drivers/lvgl/src/themes/simple/lv_theme_simple.c ****         lv_obj_add_style(obj, &theme->styles.dark, LV_PART_CURSOR);
 415              		.loc 1 314 9 view .LVU98
 416 0254 4FF4A022 		mov	r2, #327680
 417 0258 05F14C01 		add	r1, r5, #76
 418 025c 2046     		mov	r0, r4
 419 025e FFF7FEFF 		bl	lv_obj_add_style
 420              	.LVL55:
 315:Drivers/lvgl/src/themes/simple/lv_theme_simple.c ****     }
 421              		.loc 1 315 9 view .LVU99
 422 0262 4FF4C022 		mov	r2, #393216
 423 0266 05F15801 		add	r1, r5, #88
 424 026a 2046     		mov	r0, r4
 425 026c FFF7FEFF 		bl	lv_obj_add_style
 426              	.LVL56:
 427 0270 49E7     		b	.L1
 428              	.L18:
 320:Drivers/lvgl/src/themes/simple/lv_theme_simple.c ****         lv_obj_add_style(obj, &theme->styles.light, 0);
ARM GAS  /tmp/ccFdPeTq.s 			page 17


 429              		.loc 1 320 10 view .LVU100
 320:Drivers/lvgl/src/themes/simple/lv_theme_simple.c ****         lv_obj_add_style(obj, &theme->styles.light, 0);
 430              		.loc 1 320 13 is_stmt 0 view .LVU101
 431 0272 2E49     		ldr	r1, .L43+56
 432 0274 2046     		mov	r0, r4
 433 0276 FFF7FEFF 		bl	lv_obj_check_type
 434              	.LVL57:
 320:Drivers/lvgl/src/themes/simple/lv_theme_simple.c ****         lv_obj_add_style(obj, &theme->styles.light, 0);
 435              		.loc 1 320 12 discriminator 1 view .LVU102
 436 027a 68B1     		cbz	r0, .L19
 321:Drivers/lvgl/src/themes/simple/lv_theme_simple.c ****         lv_obj_add_style(obj, &theme->styles.dark, LV_PART_SELECTED);
 437              		.loc 1 321 9 is_stmt 1 view .LVU103
 438 027c 0022     		movs	r2, #0
 439 027e 05F14C01 		add	r1, r5, #76
 440 0282 2046     		mov	r0, r4
 441 0284 FFF7FEFF 		bl	lv_obj_add_style
 442              	.LVL58:
 322:Drivers/lvgl/src/themes/simple/lv_theme_simple.c ****     }
 443              		.loc 1 322 9 view .LVU104
 444 0288 4FF48022 		mov	r2, #262144
 445 028c 05F15801 		add	r1, r5, #88
 446 0290 2046     		mov	r0, r4
 447 0292 FFF7FEFF 		bl	lv_obj_add_style
 448              	.LVL59:
 449 0296 36E7     		b	.L1
 450              	.L19:
 327:Drivers/lvgl/src/themes/simple/lv_theme_simple.c ****         lv_obj_add_style(obj, &theme->styles.white, 0);
 451              		.loc 1 327 10 view .LVU105
 327:Drivers/lvgl/src/themes/simple/lv_theme_simple.c ****         lv_obj_add_style(obj, &theme->styles.white, 0);
 452              		.loc 1 327 13 is_stmt 0 view .LVU106
 453 0298 2549     		ldr	r1, .L43+60
 454 029a 2046     		mov	r0, r4
 455 029c FFF7FEFF 		bl	lv_obj_check_type
 456              	.LVL60:
 327:Drivers/lvgl/src/themes/simple/lv_theme_simple.c ****         lv_obj_add_style(obj, &theme->styles.white, 0);
 457              		.loc 1 327 12 discriminator 1 view .LVU107
 458 02a0 30B1     		cbz	r0, .L20
 328:Drivers/lvgl/src/themes/simple/lv_theme_simple.c ****     }
 459              		.loc 1 328 9 is_stmt 1 view .LVU108
 460 02a2 0022     		movs	r2, #0
 461 02a4 05F14001 		add	r1, r5, #64
 462 02a8 2046     		mov	r0, r4
 463 02aa FFF7FEFF 		bl	lv_obj_add_style
 464              	.LVL61:
 465 02ae 2AE7     		b	.L1
 466              	.L20:
 330:Drivers/lvgl/src/themes/simple/lv_theme_simple.c ****         lv_obj_add_style(obj, &theme->styles.white, 0);
 467              		.loc 1 330 10 view .LVU109
 330:Drivers/lvgl/src/themes/simple/lv_theme_simple.c ****         lv_obj_add_style(obj, &theme->styles.white, 0);
 468              		.loc 1 330 13 is_stmt 0 view .LVU110
 469 02b0 2049     		ldr	r1, .L43+64
 470 02b2 2046     		mov	r0, r4
 471 02b4 FFF7FEFF 		bl	lv_obj_check_type
 472              	.LVL62:
 330:Drivers/lvgl/src/themes/simple/lv_theme_simple.c ****         lv_obj_add_style(obj, &theme->styles.white, 0);
 473              		.loc 1 330 12 discriminator 1 view .LVU111
 474 02b8 0028     		cmp	r0, #0
ARM GAS  /tmp/ccFdPeTq.s 			page 18


 475 02ba 3FD0     		beq	.L21
 331:Drivers/lvgl/src/themes/simple/lv_theme_simple.c ****         lv_obj_add_style(obj, &theme->styles.scrollbar, LV_PART_SCROLLBAR);
 476              		.loc 1 331 9 is_stmt 1 view .LVU112
 477 02bc 0022     		movs	r2, #0
 478 02be 05F14001 		add	r1, r5, #64
 479 02c2 2046     		mov	r0, r4
 480 02c4 FFF7FEFF 		bl	lv_obj_add_style
 481              	.LVL63:
 332:Drivers/lvgl/src/themes/simple/lv_theme_simple.c ****         lv_obj_add_style(obj, &theme->styles.light, LV_PART_SELECTED);
 482              		.loc 1 332 9 view .LVU113
 483 02c8 4FF48032 		mov	r2, #65536
 484 02cc 05F17001 		add	r1, r5, #112
 485 02d0 2046     		mov	r0, r4
 486 02d2 FFF7FEFF 		bl	lv_obj_add_style
 487              	.LVL64:
 333:Drivers/lvgl/src/themes/simple/lv_theme_simple.c ****         lv_obj_add_style(obj, &theme->styles.dark, LV_PART_SELECTED | LV_STATE_CHECKED);
 488              		.loc 1 333 9 view .LVU114
 489 02d6 4FF48022 		mov	r2, #262144
 490 02da 05F14C01 		add	r1, r5, #76
 491 02de 2046     		mov	r0, r4
 492 02e0 FFF7FEFF 		bl	lv_obj_add_style
 493              	.LVL65:
 334:Drivers/lvgl/src/themes/simple/lv_theme_simple.c ****     }
 494              		.loc 1 334 9 view .LVU115
 495 02e4 144A     		ldr	r2, .L43+68
 496 02e6 05F15801 		add	r1, r5, #88
 497 02ea 2046     		mov	r0, r4
 498 02ec FFF7FEFF 		bl	lv_obj_add_style
 499              	.LVL66:
 500 02f0 09E7     		b	.L1
 501              	.L44:
 502 02f2 00BF     		.align	2
 503              	.L43:
 504 02f4 00000000 		.word	lv_global
 505 02f8 00000000 		.word	lv_obj_class
 506 02fc 00000000 		.word	lv_tabview_class
 507 0300 00000000 		.word	lv_win_class
 508 0304 00000000 		.word	lv_button_class
 509 0308 00000000 		.word	lv_buttonmatrix_class
 510 030c 00000000 		.word	lv_msgbox_class
 511 0310 00000000 		.word	lv_bar_class
 512 0314 00000000 		.word	lv_slider_class
 513 0318 00000000 		.word	lv_table_class
 514 031c 00000000 		.word	lv_checkbox_class
 515 0320 01000200 		.word	131073
 516 0324 00000000 		.word	lv_switch_class
 517 0328 00000000 		.word	lv_chart_class
 518 032c 00000000 		.word	lv_roller_class
 519 0330 00000000 		.word	lv_dropdown_class
 520 0334 00000000 		.word	lv_dropdownlist_class
 521 0338 01000400 		.word	262145
 522              	.L21:
 339:Drivers/lvgl/src/themes/simple/lv_theme_simple.c ****         lv_obj_add_style(obj, &theme->styles.light, 0);
 523              		.loc 1 339 10 view .LVU116
 339:Drivers/lvgl/src/themes/simple/lv_theme_simple.c ****         lv_obj_add_style(obj, &theme->styles.light, 0);
 524              		.loc 1 339 13 is_stmt 0 view .LVU117
 525 033c 8549     		ldr	r1, .L45
ARM GAS  /tmp/ccFdPeTq.s 			page 19


 526 033e 2046     		mov	r0, r4
 527 0340 FFF7FEFF 		bl	lv_obj_check_type
 528              	.LVL67:
 339:Drivers/lvgl/src/themes/simple/lv_theme_simple.c ****         lv_obj_add_style(obj, &theme->styles.light, 0);
 529              		.loc 1 339 12 discriminator 1 view .LVU118
 530 0344 70B3     		cbz	r0, .L22
 340:Drivers/lvgl/src/themes/simple/lv_theme_simple.c ****         lv_obj_add_style(obj, &theme->styles.transp, 0);
 531              		.loc 1 340 9 is_stmt 1 view .LVU119
 532 0346 0022     		movs	r2, #0
 533 0348 05F14C01 		add	r1, r5, #76
 534 034c 2046     		mov	r0, r4
 535 034e FFF7FEFF 		bl	lv_obj_add_style
 536              	.LVL68:
 341:Drivers/lvgl/src/themes/simple/lv_theme_simple.c ****         lv_obj_add_style(obj, &theme->styles.arc_line, 0);
 537              		.loc 1 341 9 view .LVU120
 538 0352 0022     		movs	r2, #0
 539 0354 05F13401 		add	r1, r5, #52
 540 0358 2046     		mov	r0, r4
 541 035a FFF7FEFF 		bl	lv_obj_add_style
 542              	.LVL69:
 342:Drivers/lvgl/src/themes/simple/lv_theme_simple.c ****         lv_obj_add_style(obj, &theme->styles.dark, LV_PART_INDICATOR);
 543              		.loc 1 342 9 view .LVU121
 342:Drivers/lvgl/src/themes/simple/lv_theme_simple.c ****         lv_obj_add_style(obj, &theme->styles.dark, LV_PART_INDICATOR);
 544              		.loc 1 342 31 is_stmt 0 view .LVU122
 545 035e 05F17C06 		add	r6, r5, #124
 546              	.LVL70:
 342:Drivers/lvgl/src/themes/simple/lv_theme_simple.c ****         lv_obj_add_style(obj, &theme->styles.dark, LV_PART_INDICATOR);
 547              		.loc 1 342 9 view .LVU123
 548 0362 0022     		movs	r2, #0
 549 0364 3146     		mov	r1, r6
 550 0366 2046     		mov	r0, r4
 551 0368 FFF7FEFF 		bl	lv_obj_add_style
 552              	.LVL71:
 343:Drivers/lvgl/src/themes/simple/lv_theme_simple.c ****         lv_obj_add_style(obj, &theme->styles.arc_line, LV_PART_INDICATOR);
 553              		.loc 1 343 9 is_stmt 1 view .LVU124
 554 036c 4FF40032 		mov	r2, #131072
 555 0370 05F15801 		add	r1, r5, #88
 556 0374 2046     		mov	r0, r4
 557 0376 FFF7FEFF 		bl	lv_obj_add_style
 558              	.LVL72:
 344:Drivers/lvgl/src/themes/simple/lv_theme_simple.c ****         lv_obj_add_style(obj, &theme->styles.dim, LV_PART_KNOB);
 559              		.loc 1 344 9 view .LVU125
 560 037a 4FF40032 		mov	r2, #131072
 561 037e 3146     		mov	r1, r6
 562 0380 2046     		mov	r0, r4
 563 0382 FFF7FEFF 		bl	lv_obj_add_style
 564              	.LVL73:
 345:Drivers/lvgl/src/themes/simple/lv_theme_simple.c ****         lv_obj_add_style(obj, &theme->styles.arc_knob, LV_PART_KNOB);
 565              		.loc 1 345 9 view .LVU126
 566 0386 4FF44032 		mov	r2, #196608
 567 038a 05F16401 		add	r1, r5, #100
 568 038e 2046     		mov	r0, r4
 569 0390 FFF7FEFF 		bl	lv_obj_add_style
 570              	.LVL74:
 346:Drivers/lvgl/src/themes/simple/lv_theme_simple.c ****     }
 571              		.loc 1 346 9 view .LVU127
 572 0394 4FF44032 		mov	r2, #196608
ARM GAS  /tmp/ccFdPeTq.s 			page 20


 573 0398 05F18801 		add	r1, r5, #136
 574 039c 2046     		mov	r0, r4
 575 039e FFF7FEFF 		bl	lv_obj_add_style
 576              	.LVL75:
 577 03a2 B0E6     		b	.L1
 578              	.LVL76:
 579              	.L22:
 351:Drivers/lvgl/src/themes/simple/lv_theme_simple.c ****         lv_obj_add_style(obj, &theme->styles.light, 0);
 580              		.loc 1 351 10 view .LVU128
 351:Drivers/lvgl/src/themes/simple/lv_theme_simple.c ****         lv_obj_add_style(obj, &theme->styles.light, 0);
 581              		.loc 1 351 13 is_stmt 0 view .LVU129
 582 03a4 6C49     		ldr	r1, .L45+4
 583 03a6 2046     		mov	r0, r4
 584 03a8 FFF7FEFF 		bl	lv_obj_check_type
 585              	.LVL77:
 351:Drivers/lvgl/src/themes/simple/lv_theme_simple.c ****         lv_obj_add_style(obj, &theme->styles.light, 0);
 586              		.loc 1 351 12 discriminator 1 view .LVU130
 587 03ac 00B3     		cbz	r0, .L23
 352:Drivers/lvgl/src/themes/simple/lv_theme_simple.c ****         lv_obj_add_style(obj, &theme->styles.transp, 0);
 588              		.loc 1 352 9 is_stmt 1 view .LVU131
 589 03ae 0022     		movs	r2, #0
 590 03b0 05F14C01 		add	r1, r5, #76
 591 03b4 2046     		mov	r0, r4
 592 03b6 FFF7FEFF 		bl	lv_obj_add_style
 593              	.LVL78:
 353:Drivers/lvgl/src/themes/simple/lv_theme_simple.c ****         lv_obj_add_style(obj, &theme->styles.arc_line, 0);
 594              		.loc 1 353 9 view .LVU132
 595 03ba 0022     		movs	r2, #0
 596 03bc 05F13401 		add	r1, r5, #52
 597 03c0 2046     		mov	r0, r4
 598 03c2 FFF7FEFF 		bl	lv_obj_add_style
 599              	.LVL79:
 354:Drivers/lvgl/src/themes/simple/lv_theme_simple.c ****         lv_obj_add_style(obj, &theme->styles.dark, LV_PART_INDICATOR);
 600              		.loc 1 354 9 view .LVU133
 354:Drivers/lvgl/src/themes/simple/lv_theme_simple.c ****         lv_obj_add_style(obj, &theme->styles.dark, LV_PART_INDICATOR);
 601              		.loc 1 354 31 is_stmt 0 view .LVU134
 602 03c6 05F17C06 		add	r6, r5, #124
 603              	.LVL80:
 354:Drivers/lvgl/src/themes/simple/lv_theme_simple.c ****         lv_obj_add_style(obj, &theme->styles.dark, LV_PART_INDICATOR);
 604              		.loc 1 354 9 view .LVU135
 605 03ca 0022     		movs	r2, #0
 606 03cc 3146     		mov	r1, r6
 607 03ce 2046     		mov	r0, r4
 608 03d0 FFF7FEFF 		bl	lv_obj_add_style
 609              	.LVL81:
 355:Drivers/lvgl/src/themes/simple/lv_theme_simple.c ****         lv_obj_add_style(obj, &theme->styles.arc_line, LV_PART_INDICATOR);
 610              		.loc 1 355 9 is_stmt 1 view .LVU136
 611 03d4 4FF40032 		mov	r2, #131072
 612 03d8 05F15801 		add	r1, r5, #88
 613 03dc 2046     		mov	r0, r4
 614 03de FFF7FEFF 		bl	lv_obj_add_style
 615              	.LVL82:
 356:Drivers/lvgl/src/themes/simple/lv_theme_simple.c ****     }
 616              		.loc 1 356 9 view .LVU137
 617 03e2 4FF40032 		mov	r2, #131072
 618 03e6 3146     		mov	r1, r6
 619 03e8 2046     		mov	r0, r4
ARM GAS  /tmp/ccFdPeTq.s 			page 21


 620 03ea FFF7FEFF 		bl	lv_obj_add_style
 621              	.LVL83:
 622 03ee 8AE6     		b	.L1
 623              	.LVL84:
 624              	.L23:
 361:Drivers/lvgl/src/themes/simple/lv_theme_simple.c ****         lv_obj_add_style(obj, &theme->styles.white, 0);
 625              		.loc 1 361 10 view .LVU138
 361:Drivers/lvgl/src/themes/simple/lv_theme_simple.c ****         lv_obj_add_style(obj, &theme->styles.white, 0);
 626              		.loc 1 361 13 is_stmt 0 view .LVU139
 627 03f0 5A49     		ldr	r1, .L45+8
 628 03f2 2046     		mov	r0, r4
 629 03f4 FFF7FEFF 		bl	lv_obj_check_type
 630              	.LVL85:
 361:Drivers/lvgl/src/themes/simple/lv_theme_simple.c ****         lv_obj_add_style(obj, &theme->styles.white, 0);
 631              		.loc 1 361 12 discriminator 1 view .LVU140
 632 03f8 98B1     		cbz	r0, .L24
 362:Drivers/lvgl/src/themes/simple/lv_theme_simple.c ****         lv_obj_add_style(obj, &theme->styles.scrollbar, LV_PART_SCROLLBAR);
 633              		.loc 1 362 9 is_stmt 1 view .LVU141
 634 03fa 0022     		movs	r2, #0
 635 03fc 05F14001 		add	r1, r5, #64
 636 0400 2046     		mov	r0, r4
 637 0402 FFF7FEFF 		bl	lv_obj_add_style
 638              	.LVL86:
 363:Drivers/lvgl/src/themes/simple/lv_theme_simple.c ****         lv_obj_add_style(obj, &theme->styles.ta_cursor, LV_PART_CURSOR | LV_STATE_FOCUSED);
 639              		.loc 1 363 9 view .LVU142
 640 0406 4FF48032 		mov	r2, #65536
 641 040a 05F17001 		add	r1, r5, #112
 642 040e 2046     		mov	r0, r4
 643 0410 FFF7FEFF 		bl	lv_obj_add_style
 644              	.LVL87:
 364:Drivers/lvgl/src/themes/simple/lv_theme_simple.c ****     }
 645              		.loc 1 364 9 view .LVU143
 646 0414 524A     		ldr	r2, .L45+12
 647 0416 05F19401 		add	r1, r5, #148
 648 041a 2046     		mov	r0, r4
 649 041c FFF7FEFF 		bl	lv_obj_add_style
 650              	.LVL88:
 651 0420 71E6     		b	.L1
 652              	.L24:
 369:Drivers/lvgl/src/themes/simple/lv_theme_simple.c ****         lv_obj_add_style(obj, &theme->styles.light, 0);
 653              		.loc 1 369 10 view .LVU144
 369:Drivers/lvgl/src/themes/simple/lv_theme_simple.c ****         lv_obj_add_style(obj, &theme->styles.light, 0);
 654              		.loc 1 369 13 is_stmt 0 view .LVU145
 655 0422 5049     		ldr	r1, .L45+16
 656 0424 2046     		mov	r0, r4
 657 0426 FFF7FEFF 		bl	lv_obj_check_type
 658              	.LVL89:
 369:Drivers/lvgl/src/themes/simple/lv_theme_simple.c ****         lv_obj_add_style(obj, &theme->styles.light, 0);
 659              		.loc 1 369 12 discriminator 1 view .LVU146
 660 042a 30B1     		cbz	r0, .L25
 370:Drivers/lvgl/src/themes/simple/lv_theme_simple.c ****     }
 661              		.loc 1 370 9 is_stmt 1 view .LVU147
 662 042c 0022     		movs	r2, #0
 663 042e 05F14C01 		add	r1, r5, #76
 664 0432 2046     		mov	r0, r4
 665 0434 FFF7FEFF 		bl	lv_obj_add_style
 666              	.LVL90:
ARM GAS  /tmp/ccFdPeTq.s 			page 22


 667 0438 65E6     		b	.L1
 668              	.L25:
 375:Drivers/lvgl/src/themes/simple/lv_theme_simple.c ****         lv_obj_add_style(obj, &theme->styles.scr, 0);
 669              		.loc 1 375 10 view .LVU148
 375:Drivers/lvgl/src/themes/simple/lv_theme_simple.c ****         lv_obj_add_style(obj, &theme->styles.scr, 0);
 670              		.loc 1 375 13 is_stmt 0 view .LVU149
 671 043a 4B49     		ldr	r1, .L45+20
 672 043c 2046     		mov	r0, r4
 673 043e FFF7FEFF 		bl	lv_obj_check_type
 674              	.LVL91:
 375:Drivers/lvgl/src/themes/simple/lv_theme_simple.c ****         lv_obj_add_style(obj, &theme->styles.scr, 0);
 675              		.loc 1 375 12 discriminator 1 view .LVU150
 676 0442 98B1     		cbz	r0, .L26
 376:Drivers/lvgl/src/themes/simple/lv_theme_simple.c ****         lv_obj_add_style(obj, &theme->styles.white, LV_PART_ITEMS);
 677              		.loc 1 376 9 is_stmt 1 view .LVU151
 678 0444 0022     		movs	r2, #0
 679 0446 05F12801 		add	r1, r5, #40
 680 044a 2046     		mov	r0, r4
 681 044c FFF7FEFF 		bl	lv_obj_add_style
 682              	.LVL92:
 377:Drivers/lvgl/src/themes/simple/lv_theme_simple.c ****         lv_obj_add_style(obj, &theme->styles.light, LV_PART_ITEMS | LV_STATE_CHECKED);
 683              		.loc 1 377 9 view .LVU152
 684 0450 4FF4A022 		mov	r2, #327680
 685 0454 05F14001 		add	r1, r5, #64
 686 0458 2046     		mov	r0, r4
 687 045a FFF7FEFF 		bl	lv_obj_add_style
 688              	.LVL93:
 378:Drivers/lvgl/src/themes/simple/lv_theme_simple.c ****     }
 689              		.loc 1 378 9 view .LVU153
 690 045e 434A     		ldr	r2, .L45+24
 691 0460 05F14C01 		add	r1, r5, #76
 692 0464 2046     		mov	r0, r4
 693 0466 FFF7FEFF 		bl	lv_obj_add_style
 694              	.LVL94:
 695 046a 4CE6     		b	.L1
 696              	.L26:
 382:Drivers/lvgl/src/themes/simple/lv_theme_simple.c ****         lv_obj_add_style(obj, &theme->styles.light, 0);
 697              		.loc 1 382 10 view .LVU154
 382:Drivers/lvgl/src/themes/simple/lv_theme_simple.c ****         lv_obj_add_style(obj, &theme->styles.light, 0);
 698              		.loc 1 382 13 is_stmt 0 view .LVU155
 699 046c 4049     		ldr	r1, .L45+28
 700 046e 2046     		mov	r0, r4
 701 0470 FFF7FEFF 		bl	lv_obj_check_type
 702              	.LVL95:
 382:Drivers/lvgl/src/themes/simple/lv_theme_simple.c ****         lv_obj_add_style(obj, &theme->styles.light, 0);
 703              		.loc 1 382 12 discriminator 1 view .LVU156
 704 0474 90B9     		cbnz	r0, .L41
 387:Drivers/lvgl/src/themes/simple/lv_theme_simple.c **** 
 705              		.loc 1 387 10 is_stmt 1 view .LVU157
 387:Drivers/lvgl/src/themes/simple/lv_theme_simple.c **** 
 706              		.loc 1 387 13 is_stmt 0 view .LVU158
 707 0476 3F49     		ldr	r1, .L45+32
 708 0478 2046     		mov	r0, r4
 709 047a FFF7FEFF 		bl	lv_obj_check_type
 710              	.LVL96:
 387:Drivers/lvgl/src/themes/simple/lv_theme_simple.c **** 
 711              		.loc 1 387 12 discriminator 1 view .LVU159
ARM GAS  /tmp/ccFdPeTq.s 			page 23


 712 047e 0028     		cmp	r0, #0
 713 0480 7FF441AE 		bne	.L1
 390:Drivers/lvgl/src/themes/simple/lv_theme_simple.c ****         lv_obj_add_style(obj, &theme->styles.dark, 0);
 714              		.loc 1 390 10 is_stmt 1 view .LVU160
 390:Drivers/lvgl/src/themes/simple/lv_theme_simple.c ****         lv_obj_add_style(obj, &theme->styles.dark, 0);
 715              		.loc 1 390 13 is_stmt 0 view .LVU161
 716 0484 3C49     		ldr	r1, .L45+36
 717 0486 2046     		mov	r0, r4
 718 0488 FFF7FEFF 		bl	lv_obj_check_type
 719              	.LVL97:
 390:Drivers/lvgl/src/themes/simple/lv_theme_simple.c ****         lv_obj_add_style(obj, &theme->styles.dark, 0);
 720              		.loc 1 390 12 discriminator 1 view .LVU162
 721 048c A0B1     		cbz	r0, .L28
 391:Drivers/lvgl/src/themes/simple/lv_theme_simple.c **** 
 722              		.loc 1 391 9 is_stmt 1 view .LVU163
 723 048e 0022     		movs	r2, #0
 724 0490 05F15801 		add	r1, r5, #88
 725 0494 2046     		mov	r0, r4
 726 0496 FFF7FEFF 		bl	lv_obj_add_style
 727              	.LVL98:
 728 049a 34E6     		b	.L1
 729              	.L41:
 383:Drivers/lvgl/src/themes/simple/lv_theme_simple.c ****         lv_obj_add_style(obj, &theme->styles.scrollbar, LV_PART_SCROLLBAR);
 730              		.loc 1 383 9 view .LVU164
 731 049c 0022     		movs	r2, #0
 732 049e 05F14C01 		add	r1, r5, #76
 733 04a2 2046     		mov	r0, r4
 734 04a4 FFF7FEFF 		bl	lv_obj_add_style
 735              	.LVL99:
 384:Drivers/lvgl/src/themes/simple/lv_theme_simple.c ****         return;
 736              		.loc 1 384 9 view .LVU165
 737 04a8 4FF48032 		mov	r2, #65536
 738 04ac 05F17001 		add	r1, r5, #112
 739 04b0 2046     		mov	r0, r4
 740 04b2 FFF7FEFF 		bl	lv_obj_add_style
 741              	.LVL100:
 385:Drivers/lvgl/src/themes/simple/lv_theme_simple.c ****     }
 742              		.loc 1 385 9 view .LVU166
 743 04b6 26E6     		b	.L1
 744              	.L28:
 396:Drivers/lvgl/src/themes/simple/lv_theme_simple.c ****         lv_obj_add_style(obj, &theme->styles.light, 0);
 745              		.loc 1 396 10 view .LVU167
 396:Drivers/lvgl/src/themes/simple/lv_theme_simple.c ****         lv_obj_add_style(obj, &theme->styles.light, 0);
 746              		.loc 1 396 13 is_stmt 0 view .LVU168
 747 04b8 3049     		ldr	r1, .L45+40
 748 04ba 2046     		mov	r0, r4
 749 04bc FFF7FEFF 		bl	lv_obj_check_type
 750              	.LVL101:
 396:Drivers/lvgl/src/themes/simple/lv_theme_simple.c ****         lv_obj_add_style(obj, &theme->styles.light, 0);
 751              		.loc 1 396 12 discriminator 1 view .LVU169
 752 04c0 90B9     		cbnz	r0, .L42
 402:Drivers/lvgl/src/themes/simple/lv_theme_simple.c ****         lv_obj_add_style(obj, &theme->styles.light, 0);
 753              		.loc 1 402 10 is_stmt 1 view .LVU170
 402:Drivers/lvgl/src/themes/simple/lv_theme_simple.c ****         lv_obj_add_style(obj, &theme->styles.light, 0);
 754              		.loc 1 402 13 is_stmt 0 view .LVU171
 755 04c2 2F49     		ldr	r1, .L45+44
 756 04c4 2046     		mov	r0, r4
ARM GAS  /tmp/ccFdPeTq.s 			page 24


 757 04c6 FFF7FEFF 		bl	lv_obj_check_type
 758              	.LVL102:
 402:Drivers/lvgl/src/themes/simple/lv_theme_simple.c ****         lv_obj_add_style(obj, &theme->styles.light, 0);
 759              		.loc 1 402 12 discriminator 1 view .LVU172
 760 04ca A0B1     		cbz	r0, .L30
 403:Drivers/lvgl/src/themes/simple/lv_theme_simple.c ****         lv_obj_add_style(obj, &theme->styles.dark, LV_PART_CURSOR);
 761              		.loc 1 403 9 is_stmt 1 view .LVU173
 762 04cc 0022     		movs	r2, #0
 763 04ce 05F14C01 		add	r1, r5, #76
 764 04d2 2046     		mov	r0, r4
 765 04d4 FFF7FEFF 		bl	lv_obj_add_style
 766              	.LVL103:
 404:Drivers/lvgl/src/themes/simple/lv_theme_simple.c ****     }
 767              		.loc 1 404 9 view .LVU174
 768 04d8 4FF4C022 		mov	r2, #393216
 769 04dc 05F15801 		add	r1, r5, #88
 770 04e0 2046     		mov	r0, r4
 771 04e2 FFF7FEFF 		bl	lv_obj_add_style
 772              	.LVL104:
 773 04e6 0EE6     		b	.L1
 774              	.L42:
 397:Drivers/lvgl/src/themes/simple/lv_theme_simple.c ****         return;
 775              		.loc 1 397 9 view .LVU175
 776 04e8 0022     		movs	r2, #0
 777 04ea 05F14C01 		add	r1, r5, #76
 778 04ee 2046     		mov	r0, r4
 779 04f0 FFF7FEFF 		bl	lv_obj_add_style
 780              	.LVL105:
 398:Drivers/lvgl/src/themes/simple/lv_theme_simple.c ****     }
 781              		.loc 1 398 9 view .LVU176
 782 04f4 07E6     		b	.L1
 783              	.L30:
 408:Drivers/lvgl/src/themes/simple/lv_theme_simple.c ****         lv_obj_add_style(obj, &theme->styles.scr, 0);
 784              		.loc 1 408 10 view .LVU177
 408:Drivers/lvgl/src/themes/simple/lv_theme_simple.c ****         lv_obj_add_style(obj, &theme->styles.scr, 0);
 785              		.loc 1 408 13 is_stmt 0 view .LVU178
 786 04f6 2349     		ldr	r1, .L45+48
 787 04f8 2046     		mov	r0, r4
 788 04fa FFF7FEFF 		bl	lv_obj_check_type
 789              	.LVL106:
 408:Drivers/lvgl/src/themes/simple/lv_theme_simple.c ****         lv_obj_add_style(obj, &theme->styles.scr, 0);
 790              		.loc 1 408 12 discriminator 1 view .LVU179
 791 04fe 68B1     		cbz	r0, .L31
 409:Drivers/lvgl/src/themes/simple/lv_theme_simple.c ****         lv_obj_add_style(obj, &theme->styles.scrollbar, LV_PART_SCROLLBAR);
 792              		.loc 1 409 9 is_stmt 1 view .LVU180
 793 0500 0022     		movs	r2, #0
 794 0502 05F12801 		add	r1, r5, #40
 795 0506 2046     		mov	r0, r4
 796 0508 FFF7FEFF 		bl	lv_obj_add_style
 797              	.LVL107:
 410:Drivers/lvgl/src/themes/simple/lv_theme_simple.c ****     }
 798              		.loc 1 410 9 view .LVU181
 799 050c 4FF48032 		mov	r2, #65536
 800 0510 05F17001 		add	r1, r5, #112
 801 0514 2046     		mov	r0, r4
 802 0516 FFF7FEFF 		bl	lv_obj_add_style
 803              	.LVL108:
ARM GAS  /tmp/ccFdPeTq.s 			page 25


 804 051a F4E5     		b	.L1
 805              	.L31:
 412:Drivers/lvgl/src/themes/simple/lv_theme_simple.c ****         lv_obj_add_style(obj, &theme->styles.scrollbar, LV_PART_SCROLLBAR);
 806              		.loc 1 412 10 view .LVU182
 412:Drivers/lvgl/src/themes/simple/lv_theme_simple.c ****         lv_obj_add_style(obj, &theme->styles.scrollbar, LV_PART_SCROLLBAR);
 807              		.loc 1 412 13 is_stmt 0 view .LVU183
 808 051c 1A49     		ldr	r1, .L45+52
 809 051e 2046     		mov	r0, r4
 810 0520 FFF7FEFF 		bl	lv_obj_check_type
 811              	.LVL109:
 412:Drivers/lvgl/src/themes/simple/lv_theme_simple.c ****         lv_obj_add_style(obj, &theme->styles.scrollbar, LV_PART_SCROLLBAR);
 812              		.loc 1 412 12 discriminator 1 view .LVU184
 813 0524 38B1     		cbz	r0, .L32
 413:Drivers/lvgl/src/themes/simple/lv_theme_simple.c ****     }
 814              		.loc 1 413 9 is_stmt 1 view .LVU185
 815 0526 4FF48032 		mov	r2, #65536
 816 052a 05F17001 		add	r1, r5, #112
 817 052e 2046     		mov	r0, r4
 818 0530 FFF7FEFF 		bl	lv_obj_add_style
 819              	.LVL110:
 820 0534 E7E5     		b	.L1
 821              	.L32:
 418:Drivers/lvgl/src/themes/simple/lv_theme_simple.c ****         lv_obj_add_style(obj, &theme->styles.light, 0);
 822              		.loc 1 418 10 view .LVU186
 418:Drivers/lvgl/src/themes/simple/lv_theme_simple.c ****         lv_obj_add_style(obj, &theme->styles.light, 0);
 823              		.loc 1 418 13 is_stmt 0 view .LVU187
 824 0536 1549     		ldr	r1, .L45+56
 825 0538 2046     		mov	r0, r4
 826 053a FFF7FEFF 		bl	lv_obj_check_type
 827              	.LVL111:
 418:Drivers/lvgl/src/themes/simple/lv_theme_simple.c ****         lv_obj_add_style(obj, &theme->styles.light, 0);
 828              		.loc 1 418 12 discriminator 1 view .LVU188
 829 053e 0028     		cmp	r0, #0
 830 0540 3FF4E1AD 		beq	.L1
 419:Drivers/lvgl/src/themes/simple/lv_theme_simple.c ****     }
 831              		.loc 1 419 9 is_stmt 1 view .LVU189
 832 0544 0022     		movs	r2, #0
 833 0546 05F14C01 		add	r1, r5, #76
 834 054a 2046     		mov	r0, r4
 835 054c FFF7FEFF 		bl	lv_obj_add_style
 836              	.LVL112:
 837 0550 D9E5     		b	.L1
 838              	.L46:
 839 0552 00BF     		.align	2
 840              	.L45:
 841 0554 00000000 		.word	lv_arc_class
 842 0558 00000000 		.word	lv_spinner_class
 843 055c 00000000 		.word	lv_textarea_class
 844 0560 02000600 		.word	393218
 845 0564 00000000 		.word	lv_calendar_class
 846 0568 00000000 		.word	lv_keyboard_class
 847 056c 01000500 		.word	327681
 848 0570 00000000 		.word	lv_list_class
 849 0574 00000000 		.word	lv_list_text_class
 850 0578 00000000 		.word	lv_list_button_class
 851 057c 00000000 		.word	lv_msgbox_class
 852 0580 00000000 		.word	lv_spinbox_class
ARM GAS  /tmp/ccFdPeTq.s 			page 26


 853 0584 00000000 		.word	lv_tileview_class
 854 0588 00000000 		.word	lv_tileview_tile_class
 855 058c 00000000 		.word	lv_led_class
 856              		.cfi_endproc
 857              	.LFE198:
 859              		.section	.text.lv_style_set_pad_all,"ax",%progbits
 860              		.align	1
 861              		.syntax unified
 862              		.thumb
 863              		.thumb_func
 865              	lv_style_set_pad_all:
 866              	.LVL113:
 867              	.LFB9:
 868              		.file 2 "Drivers/lvgl/src/themes/simple/../../core/../misc/lv_style.h"
   1:Drivers/lvgl/src/themes/simple/../../core/../misc/lv_style.h **** /**
   2:Drivers/lvgl/src/themes/simple/../../core/../misc/lv_style.h ****  * @file lv_style.h
   3:Drivers/lvgl/src/themes/simple/../../core/../misc/lv_style.h ****  *
   4:Drivers/lvgl/src/themes/simple/../../core/../misc/lv_style.h ****  */
   5:Drivers/lvgl/src/themes/simple/../../core/../misc/lv_style.h **** 
   6:Drivers/lvgl/src/themes/simple/../../core/../misc/lv_style.h **** #ifndef LV_STYLE_H
   7:Drivers/lvgl/src/themes/simple/../../core/../misc/lv_style.h **** #define LV_STYLE_H
   8:Drivers/lvgl/src/themes/simple/../../core/../misc/lv_style.h **** 
   9:Drivers/lvgl/src/themes/simple/../../core/../misc/lv_style.h **** #ifdef __cplusplus
  10:Drivers/lvgl/src/themes/simple/../../core/../misc/lv_style.h **** extern "C" {
  11:Drivers/lvgl/src/themes/simple/../../core/../misc/lv_style.h **** #endif
  12:Drivers/lvgl/src/themes/simple/../../core/../misc/lv_style.h **** 
  13:Drivers/lvgl/src/themes/simple/../../core/../misc/lv_style.h **** /*********************
  14:Drivers/lvgl/src/themes/simple/../../core/../misc/lv_style.h ****  *      INCLUDES
  15:Drivers/lvgl/src/themes/simple/../../core/../misc/lv_style.h ****  *********************/
  16:Drivers/lvgl/src/themes/simple/../../core/../misc/lv_style.h **** #include "../font/lv_font.h"
  17:Drivers/lvgl/src/themes/simple/../../core/../misc/lv_style.h **** #include "lv_color.h"
  18:Drivers/lvgl/src/themes/simple/../../core/../misc/lv_style.h **** #include "lv_area.h"
  19:Drivers/lvgl/src/themes/simple/../../core/../misc/lv_style.h **** #include "lv_anim.h"
  20:Drivers/lvgl/src/themes/simple/../../core/../misc/lv_style.h **** #include "lv_text.h"
  21:Drivers/lvgl/src/themes/simple/../../core/../misc/lv_style.h **** #include "lv_types.h"
  22:Drivers/lvgl/src/themes/simple/../../core/../misc/lv_style.h **** #include "lv_assert.h"
  23:Drivers/lvgl/src/themes/simple/../../core/../misc/lv_style.h **** #include "lv_bidi.h"
  24:Drivers/lvgl/src/themes/simple/../../core/../misc/lv_style.h **** #include "lv_grad.h"
  25:Drivers/lvgl/src/themes/simple/../../core/../misc/lv_style.h **** #include "../layouts/lv_layout.h"
  26:Drivers/lvgl/src/themes/simple/../../core/../misc/lv_style.h **** 
  27:Drivers/lvgl/src/themes/simple/../../core/../misc/lv_style.h **** /*********************
  28:Drivers/lvgl/src/themes/simple/../../core/../misc/lv_style.h ****  *      DEFINES
  29:Drivers/lvgl/src/themes/simple/../../core/../misc/lv_style.h ****  *********************/
  30:Drivers/lvgl/src/themes/simple/../../core/../misc/lv_style.h **** 
  31:Drivers/lvgl/src/themes/simple/../../core/../misc/lv_style.h **** #define LV_STYLE_SENTINEL_VALUE     0xAABBCCDD
  32:Drivers/lvgl/src/themes/simple/../../core/../misc/lv_style.h **** 
  33:Drivers/lvgl/src/themes/simple/../../core/../misc/lv_style.h **** /*
  34:Drivers/lvgl/src/themes/simple/../../core/../misc/lv_style.h ****  * Flags for style behavior
  35:Drivers/lvgl/src/themes/simple/../../core/../misc/lv_style.h ****  */
  36:Drivers/lvgl/src/themes/simple/../../core/../misc/lv_style.h **** #define LV_STYLE_PROP_FLAG_NONE                     (0)       /**< No special behavior */
  37:Drivers/lvgl/src/themes/simple/../../core/../misc/lv_style.h **** #define LV_STYLE_PROP_FLAG_INHERITABLE              (1 << 0)  /**< Inherited */
  38:Drivers/lvgl/src/themes/simple/../../core/../misc/lv_style.h **** #define LV_STYLE_PROP_FLAG_EXT_DRAW_UPDATE          (1 << 1)  /**< Requires ext. draw size update w
  39:Drivers/lvgl/src/themes/simple/../../core/../misc/lv_style.h **** #define LV_STYLE_PROP_FLAG_LAYOUT_UPDATE            (1 << 2)  /**< Requires layout update when chan
  40:Drivers/lvgl/src/themes/simple/../../core/../misc/lv_style.h **** #define LV_STYLE_PROP_FLAG_PARENT_LAYOUT_UPDATE     (1 << 3)  /**< Requires layout update on parent
  41:Drivers/lvgl/src/themes/simple/../../core/../misc/lv_style.h **** #define LV_STYLE_PROP_FLAG_LAYER_UPDATE             (1 << 4)  /**< Affects layer handling */
  42:Drivers/lvgl/src/themes/simple/../../core/../misc/lv_style.h **** #define LV_STYLE_PROP_FLAG_TRANSFORM                (1 << 5)  /**< Affects the object's transformat
  43:Drivers/lvgl/src/themes/simple/../../core/../misc/lv_style.h **** #define LV_STYLE_PROP_FLAG_ALL                      (0x3F)    /**< Indicating all flags */
ARM GAS  /tmp/ccFdPeTq.s 			page 27


  44:Drivers/lvgl/src/themes/simple/../../core/../misc/lv_style.h **** 
  45:Drivers/lvgl/src/themes/simple/../../core/../misc/lv_style.h **** /*
  46:Drivers/lvgl/src/themes/simple/../../core/../misc/lv_style.h ****  * Other constants
  47:Drivers/lvgl/src/themes/simple/../../core/../misc/lv_style.h ****  */
  48:Drivers/lvgl/src/themes/simple/../../core/../misc/lv_style.h **** #define LV_SCALE_NONE            256        /**< Value for not zooming the image */
  49:Drivers/lvgl/src/themes/simple/../../core/../misc/lv_style.h **** LV_EXPORT_CONST_INT(LV_SCALE_NONE);
  50:Drivers/lvgl/src/themes/simple/../../core/../misc/lv_style.h **** 
  51:Drivers/lvgl/src/themes/simple/../../core/../misc/lv_style.h **** // *INDENT-OFF*
  52:Drivers/lvgl/src/themes/simple/../../core/../misc/lv_style.h **** #if LV_USE_ASSERT_STYLE
  53:Drivers/lvgl/src/themes/simple/../../core/../misc/lv_style.h **** #define LV_STYLE_CONST_INIT(var_name, prop_array)                       \
  54:Drivers/lvgl/src/themes/simple/../../core/../misc/lv_style.h ****     const lv_style_t var_name = {                                       \
  55:Drivers/lvgl/src/themes/simple/../../core/../misc/lv_style.h ****         .sentinel = LV_STYLE_SENTINEL_VALUE,                            \
  56:Drivers/lvgl/src/themes/simple/../../core/../misc/lv_style.h ****         .values_and_props = (void*)prop_array,                          \
  57:Drivers/lvgl/src/themes/simple/../../core/../misc/lv_style.h ****         .has_group = 0xFFFFFFFF,                                        \
  58:Drivers/lvgl/src/themes/simple/../../core/../misc/lv_style.h ****         .prop_cnt = 255                                                 \
  59:Drivers/lvgl/src/themes/simple/../../core/../misc/lv_style.h ****     }
  60:Drivers/lvgl/src/themes/simple/../../core/../misc/lv_style.h **** #else
  61:Drivers/lvgl/src/themes/simple/../../core/../misc/lv_style.h **** #define LV_STYLE_CONST_INIT(var_name, prop_array)                       \
  62:Drivers/lvgl/src/themes/simple/../../core/../misc/lv_style.h ****     const lv_style_t var_name = {                                       \
  63:Drivers/lvgl/src/themes/simple/../../core/../misc/lv_style.h ****         .values_and_props = (void*)prop_array,                          \
  64:Drivers/lvgl/src/themes/simple/../../core/../misc/lv_style.h ****         .has_group = 0xFFFFFFFF,                                        \
  65:Drivers/lvgl/src/themes/simple/../../core/../misc/lv_style.h ****         .prop_cnt = 255,                                                \
  66:Drivers/lvgl/src/themes/simple/../../core/../misc/lv_style.h ****     }
  67:Drivers/lvgl/src/themes/simple/../../core/../misc/lv_style.h **** #endif
  68:Drivers/lvgl/src/themes/simple/../../core/../misc/lv_style.h **** // *INDENT-ON*
  69:Drivers/lvgl/src/themes/simple/../../core/../misc/lv_style.h **** 
  70:Drivers/lvgl/src/themes/simple/../../core/../misc/lv_style.h **** #define LV_STYLE_CONST_PROPS_END { .prop = LV_STYLE_PROP_INV, .value = { .num = 0 } }
  71:Drivers/lvgl/src/themes/simple/../../core/../misc/lv_style.h **** 
  72:Drivers/lvgl/src/themes/simple/../../core/../misc/lv_style.h **** #if LV_GRADIENT_MAX_STOPS < 2
  73:Drivers/lvgl/src/themes/simple/../../core/../misc/lv_style.h **** #error LVGL needs at least 2 stops for gradients. Please increase the LV_GRADIENT_MAX_STOPS
  74:Drivers/lvgl/src/themes/simple/../../core/../misc/lv_style.h **** #endif
  75:Drivers/lvgl/src/themes/simple/../../core/../misc/lv_style.h **** 
  76:Drivers/lvgl/src/themes/simple/../../core/../misc/lv_style.h **** #define LV_GRAD_LEFT    LV_PCT(0)
  77:Drivers/lvgl/src/themes/simple/../../core/../misc/lv_style.h **** #define LV_GRAD_RIGHT   LV_PCT(100)
  78:Drivers/lvgl/src/themes/simple/../../core/../misc/lv_style.h **** #define LV_GRAD_TOP     LV_PCT(0)
  79:Drivers/lvgl/src/themes/simple/../../core/../misc/lv_style.h **** #define LV_GRAD_BOTTOM  LV_PCT(100)
  80:Drivers/lvgl/src/themes/simple/../../core/../misc/lv_style.h **** #define LV_GRAD_CENTER  LV_PCT(50)
  81:Drivers/lvgl/src/themes/simple/../../core/../misc/lv_style.h **** 
  82:Drivers/lvgl/src/themes/simple/../../core/../misc/lv_style.h **** /**********************
  83:Drivers/lvgl/src/themes/simple/../../core/../misc/lv_style.h ****  *      TYPEDEFS
  84:Drivers/lvgl/src/themes/simple/../../core/../misc/lv_style.h ****  **********************/
  85:Drivers/lvgl/src/themes/simple/../../core/../misc/lv_style.h **** 
  86:Drivers/lvgl/src/themes/simple/../../core/../misc/lv_style.h **** /**
  87:Drivers/lvgl/src/themes/simple/../../core/../misc/lv_style.h ****  * Possible options for blending opaque drawings
  88:Drivers/lvgl/src/themes/simple/../../core/../misc/lv_style.h ****  */
  89:Drivers/lvgl/src/themes/simple/../../core/../misc/lv_style.h **** typedef enum {
  90:Drivers/lvgl/src/themes/simple/../../core/../misc/lv_style.h ****     LV_BLEND_MODE_NORMAL,     /**< Simply mix according to the opacity value*/
  91:Drivers/lvgl/src/themes/simple/../../core/../misc/lv_style.h ****     LV_BLEND_MODE_ADDITIVE,   /**< Add the respective color channels*/
  92:Drivers/lvgl/src/themes/simple/../../core/../misc/lv_style.h ****     LV_BLEND_MODE_SUBTRACTIVE,/**< Subtract the foreground from the background*/
  93:Drivers/lvgl/src/themes/simple/../../core/../misc/lv_style.h ****     LV_BLEND_MODE_MULTIPLY,   /**< Multiply the foreground and background*/
  94:Drivers/lvgl/src/themes/simple/../../core/../misc/lv_style.h ****     LV_BLEND_MODE_DIFFERENCE, /**< Absolute difference between foreground and background*/
  95:Drivers/lvgl/src/themes/simple/../../core/../misc/lv_style.h **** } lv_blend_mode_t;
  96:Drivers/lvgl/src/themes/simple/../../core/../misc/lv_style.h **** 
  97:Drivers/lvgl/src/themes/simple/../../core/../misc/lv_style.h **** /**
  98:Drivers/lvgl/src/themes/simple/../../core/../misc/lv_style.h ****  * Some options to apply decorations on texts.
  99:Drivers/lvgl/src/themes/simple/../../core/../misc/lv_style.h ****  * 'OR'ed values can be used.
 100:Drivers/lvgl/src/themes/simple/../../core/../misc/lv_style.h ****  */
ARM GAS  /tmp/ccFdPeTq.s 			page 28


 101:Drivers/lvgl/src/themes/simple/../../core/../misc/lv_style.h **** typedef enum {
 102:Drivers/lvgl/src/themes/simple/../../core/../misc/lv_style.h ****     LV_TEXT_DECOR_NONE          = 0x00,
 103:Drivers/lvgl/src/themes/simple/../../core/../misc/lv_style.h ****     LV_TEXT_DECOR_UNDERLINE     = 0x01,
 104:Drivers/lvgl/src/themes/simple/../../core/../misc/lv_style.h ****     LV_TEXT_DECOR_STRIKETHROUGH = 0x02,
 105:Drivers/lvgl/src/themes/simple/../../core/../misc/lv_style.h **** } lv_text_decor_t;
 106:Drivers/lvgl/src/themes/simple/../../core/../misc/lv_style.h **** 
 107:Drivers/lvgl/src/themes/simple/../../core/../misc/lv_style.h **** /**
 108:Drivers/lvgl/src/themes/simple/../../core/../misc/lv_style.h ****  * Selects on which sides border should be drawn
 109:Drivers/lvgl/src/themes/simple/../../core/../misc/lv_style.h ****  * 'OR'ed values can be used.
 110:Drivers/lvgl/src/themes/simple/../../core/../misc/lv_style.h ****  */
 111:Drivers/lvgl/src/themes/simple/../../core/../misc/lv_style.h **** typedef enum {
 112:Drivers/lvgl/src/themes/simple/../../core/../misc/lv_style.h ****     LV_BORDER_SIDE_NONE     = 0x00,
 113:Drivers/lvgl/src/themes/simple/../../core/../misc/lv_style.h ****     LV_BORDER_SIDE_BOTTOM   = 0x01,
 114:Drivers/lvgl/src/themes/simple/../../core/../misc/lv_style.h ****     LV_BORDER_SIDE_TOP      = 0x02,
 115:Drivers/lvgl/src/themes/simple/../../core/../misc/lv_style.h ****     LV_BORDER_SIDE_LEFT     = 0x04,
 116:Drivers/lvgl/src/themes/simple/../../core/../misc/lv_style.h ****     LV_BORDER_SIDE_RIGHT    = 0x08,
 117:Drivers/lvgl/src/themes/simple/../../core/../misc/lv_style.h ****     LV_BORDER_SIDE_FULL     = 0x0F,
 118:Drivers/lvgl/src/themes/simple/../../core/../misc/lv_style.h ****     LV_BORDER_SIDE_INTERNAL = 0x10, /**< FOR matrix-like objects (e.g. Button matrix)*/
 119:Drivers/lvgl/src/themes/simple/../../core/../misc/lv_style.h **** } lv_border_side_t;
 120:Drivers/lvgl/src/themes/simple/../../core/../misc/lv_style.h **** 
 121:Drivers/lvgl/src/themes/simple/../../core/../misc/lv_style.h **** /**
 122:Drivers/lvgl/src/themes/simple/../../core/../misc/lv_style.h ****  * A common type to handle all the property types in the same way.
 123:Drivers/lvgl/src/themes/simple/../../core/../misc/lv_style.h ****  */
 124:Drivers/lvgl/src/themes/simple/../../core/../misc/lv_style.h **** typedef union {
 125:Drivers/lvgl/src/themes/simple/../../core/../misc/lv_style.h ****     int32_t num;         /**< Number integer number (opacity, enums, booleans or "normal" numbers)*
 126:Drivers/lvgl/src/themes/simple/../../core/../misc/lv_style.h ****     const void * ptr;    /**< Constant pointers  (font, cone text, etc)*/
 127:Drivers/lvgl/src/themes/simple/../../core/../misc/lv_style.h ****     lv_color_t color;    /**< Colors*/
 128:Drivers/lvgl/src/themes/simple/../../core/../misc/lv_style.h **** } lv_style_value_t;
 129:Drivers/lvgl/src/themes/simple/../../core/../misc/lv_style.h **** 
 130:Drivers/lvgl/src/themes/simple/../../core/../misc/lv_style.h **** /**
 131:Drivers/lvgl/src/themes/simple/../../core/../misc/lv_style.h ****  * Enumeration of all built in style properties
 132:Drivers/lvgl/src/themes/simple/../../core/../misc/lv_style.h ****  *
 133:Drivers/lvgl/src/themes/simple/../../core/../misc/lv_style.h ****  * Props are split into groups of 16. When adding a new prop to a group, ensure it does not overflo
 134:Drivers/lvgl/src/themes/simple/../../core/../misc/lv_style.h ****  */
 135:Drivers/lvgl/src/themes/simple/../../core/../misc/lv_style.h **** enum {
 136:Drivers/lvgl/src/themes/simple/../../core/../misc/lv_style.h ****     LV_STYLE_PROP_INV               = 0,
 137:Drivers/lvgl/src/themes/simple/../../core/../misc/lv_style.h **** 
 138:Drivers/lvgl/src/themes/simple/../../core/../misc/lv_style.h ****     /*Group 0*/
 139:Drivers/lvgl/src/themes/simple/../../core/../misc/lv_style.h ****     LV_STYLE_WIDTH                  = 1,
 140:Drivers/lvgl/src/themes/simple/../../core/../misc/lv_style.h ****     LV_STYLE_HEIGHT                 = 2,
 141:Drivers/lvgl/src/themes/simple/../../core/../misc/lv_style.h ****     LV_STYLE_LENGTH                 = 3,
 142:Drivers/lvgl/src/themes/simple/../../core/../misc/lv_style.h **** 
 143:Drivers/lvgl/src/themes/simple/../../core/../misc/lv_style.h ****     LV_STYLE_MIN_WIDTH              = 4,
 144:Drivers/lvgl/src/themes/simple/../../core/../misc/lv_style.h ****     LV_STYLE_MAX_WIDTH              = 5,
 145:Drivers/lvgl/src/themes/simple/../../core/../misc/lv_style.h ****     LV_STYLE_MIN_HEIGHT             = 6,
 146:Drivers/lvgl/src/themes/simple/../../core/../misc/lv_style.h ****     LV_STYLE_MAX_HEIGHT             = 7,
 147:Drivers/lvgl/src/themes/simple/../../core/../misc/lv_style.h **** 
 148:Drivers/lvgl/src/themes/simple/../../core/../misc/lv_style.h ****     LV_STYLE_X                      = 8,
 149:Drivers/lvgl/src/themes/simple/../../core/../misc/lv_style.h ****     LV_STYLE_Y                      = 9,
 150:Drivers/lvgl/src/themes/simple/../../core/../misc/lv_style.h ****     LV_STYLE_ALIGN                  = 10,
 151:Drivers/lvgl/src/themes/simple/../../core/../misc/lv_style.h **** 
 152:Drivers/lvgl/src/themes/simple/../../core/../misc/lv_style.h ****     LV_STYLE_RADIUS                 = 12,
 153:Drivers/lvgl/src/themes/simple/../../core/../misc/lv_style.h ****     LV_STYLE_RADIAL_OFFSET          = 13,
 154:Drivers/lvgl/src/themes/simple/../../core/../misc/lv_style.h ****     LV_STYLE_PAD_RADIAL             = 14,
 155:Drivers/lvgl/src/themes/simple/../../core/../misc/lv_style.h **** 
 156:Drivers/lvgl/src/themes/simple/../../core/../misc/lv_style.h ****     /*Group 1*/
 157:Drivers/lvgl/src/themes/simple/../../core/../misc/lv_style.h ****     LV_STYLE_PAD_TOP                = 16,
ARM GAS  /tmp/ccFdPeTq.s 			page 29


 158:Drivers/lvgl/src/themes/simple/../../core/../misc/lv_style.h ****     LV_STYLE_PAD_BOTTOM             = 17,
 159:Drivers/lvgl/src/themes/simple/../../core/../misc/lv_style.h ****     LV_STYLE_PAD_LEFT               = 18,
 160:Drivers/lvgl/src/themes/simple/../../core/../misc/lv_style.h ****     LV_STYLE_PAD_RIGHT              = 19,
 161:Drivers/lvgl/src/themes/simple/../../core/../misc/lv_style.h **** 
 162:Drivers/lvgl/src/themes/simple/../../core/../misc/lv_style.h ****     LV_STYLE_PAD_ROW                = 20,
 163:Drivers/lvgl/src/themes/simple/../../core/../misc/lv_style.h ****     LV_STYLE_PAD_COLUMN             = 21,
 164:Drivers/lvgl/src/themes/simple/../../core/../misc/lv_style.h ****     LV_STYLE_LAYOUT                 = 22,
 165:Drivers/lvgl/src/themes/simple/../../core/../misc/lv_style.h **** 
 166:Drivers/lvgl/src/themes/simple/../../core/../misc/lv_style.h ****     LV_STYLE_MARGIN_TOP             = 24,
 167:Drivers/lvgl/src/themes/simple/../../core/../misc/lv_style.h ****     LV_STYLE_MARGIN_BOTTOM          = 25,
 168:Drivers/lvgl/src/themes/simple/../../core/../misc/lv_style.h ****     LV_STYLE_MARGIN_LEFT            = 26,
 169:Drivers/lvgl/src/themes/simple/../../core/../misc/lv_style.h ****     LV_STYLE_MARGIN_RIGHT           = 27,
 170:Drivers/lvgl/src/themes/simple/../../core/../misc/lv_style.h **** 
 171:Drivers/lvgl/src/themes/simple/../../core/../misc/lv_style.h ****     /*Group 2*/
 172:Drivers/lvgl/src/themes/simple/../../core/../misc/lv_style.h ****     LV_STYLE_BG_COLOR               = 28,
 173:Drivers/lvgl/src/themes/simple/../../core/../misc/lv_style.h ****     LV_STYLE_BG_OPA                 = 29,
 174:Drivers/lvgl/src/themes/simple/../../core/../misc/lv_style.h **** 
 175:Drivers/lvgl/src/themes/simple/../../core/../misc/lv_style.h ****     LV_STYLE_BG_GRAD_DIR            = 32,
 176:Drivers/lvgl/src/themes/simple/../../core/../misc/lv_style.h ****     LV_STYLE_BG_MAIN_STOP           = 33,
 177:Drivers/lvgl/src/themes/simple/../../core/../misc/lv_style.h ****     LV_STYLE_BG_GRAD_STOP           = 34,
 178:Drivers/lvgl/src/themes/simple/../../core/../misc/lv_style.h ****     LV_STYLE_BG_GRAD_COLOR          = 35,
 179:Drivers/lvgl/src/themes/simple/../../core/../misc/lv_style.h **** 
 180:Drivers/lvgl/src/themes/simple/../../core/../misc/lv_style.h ****     LV_STYLE_BG_MAIN_OPA            = 36,
 181:Drivers/lvgl/src/themes/simple/../../core/../misc/lv_style.h ****     LV_STYLE_BG_GRAD_OPA            = 37,
 182:Drivers/lvgl/src/themes/simple/../../core/../misc/lv_style.h ****     LV_STYLE_BG_GRAD                = 38,
 183:Drivers/lvgl/src/themes/simple/../../core/../misc/lv_style.h ****     LV_STYLE_BASE_DIR               = 39,
 184:Drivers/lvgl/src/themes/simple/../../core/../misc/lv_style.h **** 
 185:Drivers/lvgl/src/themes/simple/../../core/../misc/lv_style.h ****     LV_STYLE_BG_IMAGE_SRC             = 40,
 186:Drivers/lvgl/src/themes/simple/../../core/../misc/lv_style.h ****     LV_STYLE_BG_IMAGE_OPA             = 41,
 187:Drivers/lvgl/src/themes/simple/../../core/../misc/lv_style.h ****     LV_STYLE_BG_IMAGE_RECOLOR         = 42,
 188:Drivers/lvgl/src/themes/simple/../../core/../misc/lv_style.h ****     LV_STYLE_BG_IMAGE_RECOLOR_OPA     = 43,
 189:Drivers/lvgl/src/themes/simple/../../core/../misc/lv_style.h **** 
 190:Drivers/lvgl/src/themes/simple/../../core/../misc/lv_style.h ****     LV_STYLE_BG_IMAGE_TILED           = 44,
 191:Drivers/lvgl/src/themes/simple/../../core/../misc/lv_style.h ****     LV_STYLE_CLIP_CORNER            = 45,
 192:Drivers/lvgl/src/themes/simple/../../core/../misc/lv_style.h **** 
 193:Drivers/lvgl/src/themes/simple/../../core/../misc/lv_style.h ****     /*Group 3*/
 194:Drivers/lvgl/src/themes/simple/../../core/../misc/lv_style.h ****     LV_STYLE_BORDER_WIDTH           = 48,
 195:Drivers/lvgl/src/themes/simple/../../core/../misc/lv_style.h ****     LV_STYLE_BORDER_COLOR           = 49,
 196:Drivers/lvgl/src/themes/simple/../../core/../misc/lv_style.h ****     LV_STYLE_BORDER_OPA             = 50,
 197:Drivers/lvgl/src/themes/simple/../../core/../misc/lv_style.h **** 
 198:Drivers/lvgl/src/themes/simple/../../core/../misc/lv_style.h ****     LV_STYLE_BORDER_SIDE            = 52,
 199:Drivers/lvgl/src/themes/simple/../../core/../misc/lv_style.h ****     LV_STYLE_BORDER_POST            = 53,
 200:Drivers/lvgl/src/themes/simple/../../core/../misc/lv_style.h **** 
 201:Drivers/lvgl/src/themes/simple/../../core/../misc/lv_style.h ****     LV_STYLE_OUTLINE_WIDTH          = 56,
 202:Drivers/lvgl/src/themes/simple/../../core/../misc/lv_style.h ****     LV_STYLE_OUTLINE_COLOR          = 57,
 203:Drivers/lvgl/src/themes/simple/../../core/../misc/lv_style.h ****     LV_STYLE_OUTLINE_OPA            = 58,
 204:Drivers/lvgl/src/themes/simple/../../core/../misc/lv_style.h ****     LV_STYLE_OUTLINE_PAD            = 59,
 205:Drivers/lvgl/src/themes/simple/../../core/../misc/lv_style.h **** 
 206:Drivers/lvgl/src/themes/simple/../../core/../misc/lv_style.h ****     /*Group 4*/
 207:Drivers/lvgl/src/themes/simple/../../core/../misc/lv_style.h ****     LV_STYLE_SHADOW_WIDTH           = 60,
 208:Drivers/lvgl/src/themes/simple/../../core/../misc/lv_style.h ****     LV_STYLE_SHADOW_COLOR           = 61,
 209:Drivers/lvgl/src/themes/simple/../../core/../misc/lv_style.h ****     LV_STYLE_SHADOW_OPA             = 62,
 210:Drivers/lvgl/src/themes/simple/../../core/../misc/lv_style.h **** 
 211:Drivers/lvgl/src/themes/simple/../../core/../misc/lv_style.h ****     LV_STYLE_SHADOW_OFFSET_X        = 64,
 212:Drivers/lvgl/src/themes/simple/../../core/../misc/lv_style.h ****     LV_STYLE_SHADOW_OFFSET_Y        = 65,
 213:Drivers/lvgl/src/themes/simple/../../core/../misc/lv_style.h ****     LV_STYLE_SHADOW_SPREAD          = 66,
 214:Drivers/lvgl/src/themes/simple/../../core/../misc/lv_style.h **** 
ARM GAS  /tmp/ccFdPeTq.s 			page 30


 215:Drivers/lvgl/src/themes/simple/../../core/../misc/lv_style.h ****     LV_STYLE_IMAGE_OPA                = 68,
 216:Drivers/lvgl/src/themes/simple/../../core/../misc/lv_style.h ****     LV_STYLE_IMAGE_RECOLOR            = 69,
 217:Drivers/lvgl/src/themes/simple/../../core/../misc/lv_style.h ****     LV_STYLE_IMAGE_RECOLOR_OPA        = 70,
 218:Drivers/lvgl/src/themes/simple/../../core/../misc/lv_style.h **** 
 219:Drivers/lvgl/src/themes/simple/../../core/../misc/lv_style.h ****     LV_STYLE_LINE_WIDTH             = 72,
 220:Drivers/lvgl/src/themes/simple/../../core/../misc/lv_style.h ****     LV_STYLE_LINE_DASH_WIDTH        = 73,
 221:Drivers/lvgl/src/themes/simple/../../core/../misc/lv_style.h ****     LV_STYLE_LINE_DASH_GAP          = 74,
 222:Drivers/lvgl/src/themes/simple/../../core/../misc/lv_style.h ****     LV_STYLE_LINE_ROUNDED           = 75,
 223:Drivers/lvgl/src/themes/simple/../../core/../misc/lv_style.h ****     LV_STYLE_LINE_COLOR             = 76,
 224:Drivers/lvgl/src/themes/simple/../../core/../misc/lv_style.h ****     LV_STYLE_LINE_OPA               = 77,
 225:Drivers/lvgl/src/themes/simple/../../core/../misc/lv_style.h **** 
 226:Drivers/lvgl/src/themes/simple/../../core/../misc/lv_style.h ****     /*Group 5*/
 227:Drivers/lvgl/src/themes/simple/../../core/../misc/lv_style.h ****     LV_STYLE_ARC_WIDTH              = 80,
 228:Drivers/lvgl/src/themes/simple/../../core/../misc/lv_style.h ****     LV_STYLE_ARC_ROUNDED            = 81,
 229:Drivers/lvgl/src/themes/simple/../../core/../misc/lv_style.h ****     LV_STYLE_ARC_COLOR              = 82,
 230:Drivers/lvgl/src/themes/simple/../../core/../misc/lv_style.h ****     LV_STYLE_ARC_OPA                = 83,
 231:Drivers/lvgl/src/themes/simple/../../core/../misc/lv_style.h ****     LV_STYLE_ARC_IMAGE_SRC            = 84,
 232:Drivers/lvgl/src/themes/simple/../../core/../misc/lv_style.h **** 
 233:Drivers/lvgl/src/themes/simple/../../core/../misc/lv_style.h ****     LV_STYLE_TEXT_COLOR             = 88,
 234:Drivers/lvgl/src/themes/simple/../../core/../misc/lv_style.h ****     LV_STYLE_TEXT_OPA               = 89,
 235:Drivers/lvgl/src/themes/simple/../../core/../misc/lv_style.h ****     LV_STYLE_TEXT_FONT              = 90,
 236:Drivers/lvgl/src/themes/simple/../../core/../misc/lv_style.h **** 
 237:Drivers/lvgl/src/themes/simple/../../core/../misc/lv_style.h ****     LV_STYLE_TEXT_LETTER_SPACE      = 91,
 238:Drivers/lvgl/src/themes/simple/../../core/../misc/lv_style.h ****     LV_STYLE_TEXT_LINE_SPACE        = 92,
 239:Drivers/lvgl/src/themes/simple/../../core/../misc/lv_style.h ****     LV_STYLE_TEXT_DECOR             = 93,
 240:Drivers/lvgl/src/themes/simple/../../core/../misc/lv_style.h ****     LV_STYLE_TEXT_ALIGN             = 94,
 241:Drivers/lvgl/src/themes/simple/../../core/../misc/lv_style.h ****     LV_STYLE_TEXT_OUTLINE_STROKE_WIDTH = 95,
 242:Drivers/lvgl/src/themes/simple/../../core/../misc/lv_style.h ****     LV_STYLE_TEXT_OUTLINE_STROKE_OPA   = 96,
 243:Drivers/lvgl/src/themes/simple/../../core/../misc/lv_style.h ****     LV_STYLE_TEXT_OUTLINE_STROKE_COLOR = 97,
 244:Drivers/lvgl/src/themes/simple/../../core/../misc/lv_style.h **** 
 245:Drivers/lvgl/src/themes/simple/../../core/../misc/lv_style.h ****     LV_STYLE_OPA                    = 98,
 246:Drivers/lvgl/src/themes/simple/../../core/../misc/lv_style.h ****     LV_STYLE_OPA_LAYERED            = 99,
 247:Drivers/lvgl/src/themes/simple/../../core/../misc/lv_style.h ****     LV_STYLE_COLOR_FILTER_DSC       = 100,
 248:Drivers/lvgl/src/themes/simple/../../core/../misc/lv_style.h ****     LV_STYLE_COLOR_FILTER_OPA       = 101,
 249:Drivers/lvgl/src/themes/simple/../../core/../misc/lv_style.h ****     LV_STYLE_ANIM                   = 102,
 250:Drivers/lvgl/src/themes/simple/../../core/../misc/lv_style.h ****     LV_STYLE_ANIM_DURATION          = 103,
 251:Drivers/lvgl/src/themes/simple/../../core/../misc/lv_style.h ****     LV_STYLE_TRANSITION             = 104,
 252:Drivers/lvgl/src/themes/simple/../../core/../misc/lv_style.h ****     LV_STYLE_BLEND_MODE             = 105,
 253:Drivers/lvgl/src/themes/simple/../../core/../misc/lv_style.h ****     LV_STYLE_TRANSFORM_WIDTH        = 106,
 254:Drivers/lvgl/src/themes/simple/../../core/../misc/lv_style.h ****     LV_STYLE_TRANSFORM_HEIGHT       = 107,
 255:Drivers/lvgl/src/themes/simple/../../core/../misc/lv_style.h ****     LV_STYLE_TRANSLATE_X            = 108,
 256:Drivers/lvgl/src/themes/simple/../../core/../misc/lv_style.h ****     LV_STYLE_TRANSLATE_Y            = 109,
 257:Drivers/lvgl/src/themes/simple/../../core/../misc/lv_style.h ****     LV_STYLE_TRANSFORM_SCALE_X      = 110,
 258:Drivers/lvgl/src/themes/simple/../../core/../misc/lv_style.h ****     LV_STYLE_TRANSFORM_SCALE_Y      = 111,
 259:Drivers/lvgl/src/themes/simple/../../core/../misc/lv_style.h ****     LV_STYLE_TRANSFORM_ROTATION     = 112,
 260:Drivers/lvgl/src/themes/simple/../../core/../misc/lv_style.h ****     LV_STYLE_TRANSFORM_PIVOT_X      = 113,
 261:Drivers/lvgl/src/themes/simple/../../core/../misc/lv_style.h ****     LV_STYLE_TRANSFORM_PIVOT_Y      = 114,
 262:Drivers/lvgl/src/themes/simple/../../core/../misc/lv_style.h ****     LV_STYLE_TRANSFORM_SKEW_X       = 115,
 263:Drivers/lvgl/src/themes/simple/../../core/../misc/lv_style.h ****     LV_STYLE_TRANSFORM_SKEW_Y       = 116,
 264:Drivers/lvgl/src/themes/simple/../../core/../misc/lv_style.h ****     LV_STYLE_BITMAP_MASK_SRC        = 117,
 265:Drivers/lvgl/src/themes/simple/../../core/../misc/lv_style.h ****     LV_STYLE_ROTARY_SENSITIVITY     = 118,
 266:Drivers/lvgl/src/themes/simple/../../core/../misc/lv_style.h ****     LV_STYLE_TRANSLATE_RADIAL       = 119,
 267:Drivers/lvgl/src/themes/simple/../../core/../misc/lv_style.h ****     LV_STYLE_RECOLOR                = 120,
 268:Drivers/lvgl/src/themes/simple/../../core/../misc/lv_style.h ****     LV_STYLE_RECOLOR_OPA            = 121,
 269:Drivers/lvgl/src/themes/simple/../../core/../misc/lv_style.h **** 
 270:Drivers/lvgl/src/themes/simple/../../core/../misc/lv_style.h ****     LV_STYLE_FLEX_FLOW              = 122,
 271:Drivers/lvgl/src/themes/simple/../../core/../misc/lv_style.h ****     LV_STYLE_FLEX_MAIN_PLACE        = 123,
ARM GAS  /tmp/ccFdPeTq.s 			page 31


 272:Drivers/lvgl/src/themes/simple/../../core/../misc/lv_style.h ****     LV_STYLE_FLEX_CROSS_PLACE       = 124,
 273:Drivers/lvgl/src/themes/simple/../../core/../misc/lv_style.h ****     LV_STYLE_FLEX_TRACK_PLACE       = 125,
 274:Drivers/lvgl/src/themes/simple/../../core/../misc/lv_style.h ****     LV_STYLE_FLEX_GROW              = 126,
 275:Drivers/lvgl/src/themes/simple/../../core/../misc/lv_style.h **** 
 276:Drivers/lvgl/src/themes/simple/../../core/../misc/lv_style.h ****     LV_STYLE_GRID_COLUMN_ALIGN      = 127,
 277:Drivers/lvgl/src/themes/simple/../../core/../misc/lv_style.h ****     LV_STYLE_GRID_ROW_ALIGN         = 128,
 278:Drivers/lvgl/src/themes/simple/../../core/../misc/lv_style.h ****     LV_STYLE_GRID_ROW_DSC_ARRAY     = 129,
 279:Drivers/lvgl/src/themes/simple/../../core/../misc/lv_style.h ****     LV_STYLE_GRID_COLUMN_DSC_ARRAY  = 130,
 280:Drivers/lvgl/src/themes/simple/../../core/../misc/lv_style.h ****     LV_STYLE_GRID_CELL_COLUMN_POS   = 131,
 281:Drivers/lvgl/src/themes/simple/../../core/../misc/lv_style.h ****     LV_STYLE_GRID_CELL_COLUMN_SPAN  = 132,
 282:Drivers/lvgl/src/themes/simple/../../core/../misc/lv_style.h ****     LV_STYLE_GRID_CELL_X_ALIGN      = 133,
 283:Drivers/lvgl/src/themes/simple/../../core/../misc/lv_style.h ****     LV_STYLE_GRID_CELL_ROW_POS      = 134,
 284:Drivers/lvgl/src/themes/simple/../../core/../misc/lv_style.h ****     LV_STYLE_GRID_CELL_ROW_SPAN     = 135,
 285:Drivers/lvgl/src/themes/simple/../../core/../misc/lv_style.h ****     LV_STYLE_GRID_CELL_Y_ALIGN      = 136,
 286:Drivers/lvgl/src/themes/simple/../../core/../misc/lv_style.h **** 
 287:Drivers/lvgl/src/themes/simple/../../core/../misc/lv_style.h ****     LV_STYLE_LAST_BUILT_IN_PROP     = 137,
 288:Drivers/lvgl/src/themes/simple/../../core/../misc/lv_style.h **** 
 289:Drivers/lvgl/src/themes/simple/../../core/../misc/lv_style.h ****     LV_STYLE_NUM_BUILT_IN_PROPS     = LV_STYLE_LAST_BUILT_IN_PROP + 1,
 290:Drivers/lvgl/src/themes/simple/../../core/../misc/lv_style.h **** 
 291:Drivers/lvgl/src/themes/simple/../../core/../misc/lv_style.h ****     LV_STYLE_PROP_ANY                = 0xFF,
 292:Drivers/lvgl/src/themes/simple/../../core/../misc/lv_style.h ****     LV_STYLE_PROP_CONST             = 0xFF /* magic value for const styles */
 293:Drivers/lvgl/src/themes/simple/../../core/../misc/lv_style.h **** };
 294:Drivers/lvgl/src/themes/simple/../../core/../misc/lv_style.h **** 
 295:Drivers/lvgl/src/themes/simple/../../core/../misc/lv_style.h **** typedef enum {
 296:Drivers/lvgl/src/themes/simple/../../core/../misc/lv_style.h ****     LV_STYLE_RES_NOT_FOUND,
 297:Drivers/lvgl/src/themes/simple/../../core/../misc/lv_style.h ****     LV_STYLE_RES_FOUND,
 298:Drivers/lvgl/src/themes/simple/../../core/../misc/lv_style.h **** } lv_style_res_t;
 299:Drivers/lvgl/src/themes/simple/../../core/../misc/lv_style.h **** 
 300:Drivers/lvgl/src/themes/simple/../../core/../misc/lv_style.h **** /**
 301:Drivers/lvgl/src/themes/simple/../../core/../misc/lv_style.h ****  * Descriptor for style transitions
 302:Drivers/lvgl/src/themes/simple/../../core/../misc/lv_style.h ****  */
 303:Drivers/lvgl/src/themes/simple/../../core/../misc/lv_style.h **** typedef struct {
 304:Drivers/lvgl/src/themes/simple/../../core/../misc/lv_style.h ****     const lv_style_prop_t * props; /**< An array with the properties to animate.*/
 305:Drivers/lvgl/src/themes/simple/../../core/../misc/lv_style.h ****     void * user_data;              /**< A custom user data that will be passed to the animation's u
 306:Drivers/lvgl/src/themes/simple/../../core/../misc/lv_style.h ****     lv_anim_path_cb_t path_xcb;    /**< A path for the animation.*/
 307:Drivers/lvgl/src/themes/simple/../../core/../misc/lv_style.h ****     uint32_t time;                 /**< Duration of the transition in [ms]*/
 308:Drivers/lvgl/src/themes/simple/../../core/../misc/lv_style.h ****     uint32_t delay;                /**< Delay before the transition in [ms]*/
 309:Drivers/lvgl/src/themes/simple/../../core/../misc/lv_style.h **** } lv_style_transition_dsc_t;
 310:Drivers/lvgl/src/themes/simple/../../core/../misc/lv_style.h **** 
 311:Drivers/lvgl/src/themes/simple/../../core/../misc/lv_style.h **** /**
 312:Drivers/lvgl/src/themes/simple/../../core/../misc/lv_style.h ****  * Descriptor of a constant style property.
 313:Drivers/lvgl/src/themes/simple/../../core/../misc/lv_style.h ****  */
 314:Drivers/lvgl/src/themes/simple/../../core/../misc/lv_style.h **** typedef struct {
 315:Drivers/lvgl/src/themes/simple/../../core/../misc/lv_style.h ****     lv_style_prop_t prop;
 316:Drivers/lvgl/src/themes/simple/../../core/../misc/lv_style.h ****     lv_style_value_t value;
 317:Drivers/lvgl/src/themes/simple/../../core/../misc/lv_style.h **** } lv_style_const_prop_t;
 318:Drivers/lvgl/src/themes/simple/../../core/../misc/lv_style.h **** 
 319:Drivers/lvgl/src/themes/simple/../../core/../misc/lv_style.h **** /**
 320:Drivers/lvgl/src/themes/simple/../../core/../misc/lv_style.h ****  * Descriptor of a style (a collection of properties and values).
 321:Drivers/lvgl/src/themes/simple/../../core/../misc/lv_style.h ****  */
 322:Drivers/lvgl/src/themes/simple/../../core/../misc/lv_style.h **** typedef struct {
 323:Drivers/lvgl/src/themes/simple/../../core/../misc/lv_style.h **** 
 324:Drivers/lvgl/src/themes/simple/../../core/../misc/lv_style.h **** #if LV_USE_ASSERT_STYLE
 325:Drivers/lvgl/src/themes/simple/../../core/../misc/lv_style.h ****     uint32_t sentinel;
 326:Drivers/lvgl/src/themes/simple/../../core/../misc/lv_style.h **** #endif
 327:Drivers/lvgl/src/themes/simple/../../core/../misc/lv_style.h **** 
 328:Drivers/lvgl/src/themes/simple/../../core/../misc/lv_style.h ****     void * values_and_props;
ARM GAS  /tmp/ccFdPeTq.s 			page 32


 329:Drivers/lvgl/src/themes/simple/../../core/../misc/lv_style.h **** 
 330:Drivers/lvgl/src/themes/simple/../../core/../misc/lv_style.h ****     uint32_t has_group;
 331:Drivers/lvgl/src/themes/simple/../../core/../misc/lv_style.h ****     uint8_t prop_cnt;   /**< 255 means it's a constant style*/
 332:Drivers/lvgl/src/themes/simple/../../core/../misc/lv_style.h **** } lv_style_t;
 333:Drivers/lvgl/src/themes/simple/../../core/../misc/lv_style.h **** 
 334:Drivers/lvgl/src/themes/simple/../../core/../misc/lv_style.h **** /**********************
 335:Drivers/lvgl/src/themes/simple/../../core/../misc/lv_style.h ****  * GLOBAL PROTOTYPES
 336:Drivers/lvgl/src/themes/simple/../../core/../misc/lv_style.h ****  **********************/
 337:Drivers/lvgl/src/themes/simple/../../core/../misc/lv_style.h **** 
 338:Drivers/lvgl/src/themes/simple/../../core/../misc/lv_style.h **** /**
 339:Drivers/lvgl/src/themes/simple/../../core/../misc/lv_style.h ****  * Initialize a style
 340:Drivers/lvgl/src/themes/simple/../../core/../misc/lv_style.h ****  * @param style pointer to a style to initialize
 341:Drivers/lvgl/src/themes/simple/../../core/../misc/lv_style.h ****  * @note Do not call `lv_style_init` on styles that already have some properties
 342:Drivers/lvgl/src/themes/simple/../../core/../misc/lv_style.h ****  *       because this function won't free the used memory, just sets a default state for the style.
 343:Drivers/lvgl/src/themes/simple/../../core/../misc/lv_style.h ****  *       In other words be sure to initialize styles only once!
 344:Drivers/lvgl/src/themes/simple/../../core/../misc/lv_style.h ****  */
 345:Drivers/lvgl/src/themes/simple/../../core/../misc/lv_style.h **** void lv_style_init(lv_style_t * style);
 346:Drivers/lvgl/src/themes/simple/../../core/../misc/lv_style.h **** 
 347:Drivers/lvgl/src/themes/simple/../../core/../misc/lv_style.h **** /**
 348:Drivers/lvgl/src/themes/simple/../../core/../misc/lv_style.h ****  * Clear all properties from a style and free all allocated memories.
 349:Drivers/lvgl/src/themes/simple/../../core/../misc/lv_style.h ****  * @param style pointer to a style
 350:Drivers/lvgl/src/themes/simple/../../core/../misc/lv_style.h ****  */
 351:Drivers/lvgl/src/themes/simple/../../core/../misc/lv_style.h **** void lv_style_reset(lv_style_t * style);
 352:Drivers/lvgl/src/themes/simple/../../core/../misc/lv_style.h **** 
 353:Drivers/lvgl/src/themes/simple/../../core/../misc/lv_style.h **** /**
 354:Drivers/lvgl/src/themes/simple/../../core/../misc/lv_style.h ****  * Copy all properties of a style to an other.
 355:Drivers/lvgl/src/themes/simple/../../core/../misc/lv_style.h ****  * It has the same affect callying the same `lv_set_style_...`
 356:Drivers/lvgl/src/themes/simple/../../core/../misc/lv_style.h ****  * functions on both styles.
 357:Drivers/lvgl/src/themes/simple/../../core/../misc/lv_style.h ****  * It means new memory will be allocated to store the properties in
 358:Drivers/lvgl/src/themes/simple/../../core/../misc/lv_style.h ****  * the destination style.
 359:Drivers/lvgl/src/themes/simple/../../core/../misc/lv_style.h ****  * After the copy the destination style is fully independent of the source
 360:Drivers/lvgl/src/themes/simple/../../core/../misc/lv_style.h ****  * and source can removed without affecting the destination style.
 361:Drivers/lvgl/src/themes/simple/../../core/../misc/lv_style.h ****  * @param dst   the destination to copy into (can not the a constant style)
 362:Drivers/lvgl/src/themes/simple/../../core/../misc/lv_style.h ****  * @param src   the source style to copy from.
 363:Drivers/lvgl/src/themes/simple/../../core/../misc/lv_style.h ****  */
 364:Drivers/lvgl/src/themes/simple/../../core/../misc/lv_style.h **** void lv_style_copy(lv_style_t * dst, const lv_style_t * src);
 365:Drivers/lvgl/src/themes/simple/../../core/../misc/lv_style.h **** 
 366:Drivers/lvgl/src/themes/simple/../../core/../misc/lv_style.h **** 
 367:Drivers/lvgl/src/themes/simple/../../core/../misc/lv_style.h **** /**
 368:Drivers/lvgl/src/themes/simple/../../core/../misc/lv_style.h ****  * Check if a style is constant
 369:Drivers/lvgl/src/themes/simple/../../core/../misc/lv_style.h ****  * @param style     pointer to a style
 370:Drivers/lvgl/src/themes/simple/../../core/../misc/lv_style.h ****  * @return          true: the style is constant
 371:Drivers/lvgl/src/themes/simple/../../core/../misc/lv_style.h ****  */
 372:Drivers/lvgl/src/themes/simple/../../core/../misc/lv_style.h **** static inline bool lv_style_is_const(const lv_style_t * style)
 373:Drivers/lvgl/src/themes/simple/../../core/../misc/lv_style.h **** {
 374:Drivers/lvgl/src/themes/simple/../../core/../misc/lv_style.h ****     if(style->prop_cnt == 255) return true;
 375:Drivers/lvgl/src/themes/simple/../../core/../misc/lv_style.h ****     return false;
 376:Drivers/lvgl/src/themes/simple/../../core/../misc/lv_style.h **** }
 377:Drivers/lvgl/src/themes/simple/../../core/../misc/lv_style.h **** 
 378:Drivers/lvgl/src/themes/simple/../../core/../misc/lv_style.h **** 
 379:Drivers/lvgl/src/themes/simple/../../core/../misc/lv_style.h **** /**
 380:Drivers/lvgl/src/themes/simple/../../core/../misc/lv_style.h ****  * Register a new style property for custom usage
 381:Drivers/lvgl/src/themes/simple/../../core/../misc/lv_style.h ****  * @return a new property ID, or LV_STYLE_PROP_INV if there are no more available.
 382:Drivers/lvgl/src/themes/simple/../../core/../misc/lv_style.h ****  *
 383:Drivers/lvgl/src/themes/simple/../../core/../misc/lv_style.h ****  * Example:
 384:Drivers/lvgl/src/themes/simple/../../core/../misc/lv_style.h ****  * @code
 385:Drivers/lvgl/src/themes/simple/../../core/../misc/lv_style.h ****  * lv_style_prop_t MY_PROP;
ARM GAS  /tmp/ccFdPeTq.s 			page 33


 386:Drivers/lvgl/src/themes/simple/../../core/../misc/lv_style.h ****  * static inline void lv_style_set_my_prop(lv_style_t * style, lv_color_t value) {
 387:Drivers/lvgl/src/themes/simple/../../core/../misc/lv_style.h ****  * lv_style_value_t v = {.color = value}; lv_style_set_prop(style, MY_PROP, v); }
 388:Drivers/lvgl/src/themes/simple/../../core/../misc/lv_style.h ****  *
 389:Drivers/lvgl/src/themes/simple/../../core/../misc/lv_style.h ****  * ...
 390:Drivers/lvgl/src/themes/simple/../../core/../misc/lv_style.h ****  * MY_PROP = lv_style_register_prop();
 391:Drivers/lvgl/src/themes/simple/../../core/../misc/lv_style.h ****  * ...
 392:Drivers/lvgl/src/themes/simple/../../core/../misc/lv_style.h ****  * lv_style_set_my_prop(&style1, lv_palette_main(LV_PALETTE_RED));
 393:Drivers/lvgl/src/themes/simple/../../core/../misc/lv_style.h ****  * @endcode
 394:Drivers/lvgl/src/themes/simple/../../core/../misc/lv_style.h ****  */
 395:Drivers/lvgl/src/themes/simple/../../core/../misc/lv_style.h **** lv_style_prop_t lv_style_register_prop(uint8_t flag);
 396:Drivers/lvgl/src/themes/simple/../../core/../misc/lv_style.h **** 
 397:Drivers/lvgl/src/themes/simple/../../core/../misc/lv_style.h **** /**
 398:Drivers/lvgl/src/themes/simple/../../core/../misc/lv_style.h ****  * Get the number of custom properties that have been registered thus far.
 399:Drivers/lvgl/src/themes/simple/../../core/../misc/lv_style.h ****  */
 400:Drivers/lvgl/src/themes/simple/../../core/../misc/lv_style.h **** lv_style_prop_t lv_style_get_num_custom_props(void);
 401:Drivers/lvgl/src/themes/simple/../../core/../misc/lv_style.h **** 
 402:Drivers/lvgl/src/themes/simple/../../core/../misc/lv_style.h **** /**
 403:Drivers/lvgl/src/themes/simple/../../core/../misc/lv_style.h ****  * Remove a property from a style
 404:Drivers/lvgl/src/themes/simple/../../core/../misc/lv_style.h ****  * @param style pointer to a style
 405:Drivers/lvgl/src/themes/simple/../../core/../misc/lv_style.h ****  * @param prop  a style property ORed with a state.
 406:Drivers/lvgl/src/themes/simple/../../core/../misc/lv_style.h ****  * @return true: the property was found and removed; false: the property wasn't found
 407:Drivers/lvgl/src/themes/simple/../../core/../misc/lv_style.h ****  */
 408:Drivers/lvgl/src/themes/simple/../../core/../misc/lv_style.h **** bool lv_style_remove_prop(lv_style_t * style, lv_style_prop_t prop);
 409:Drivers/lvgl/src/themes/simple/../../core/../misc/lv_style.h **** 
 410:Drivers/lvgl/src/themes/simple/../../core/../misc/lv_style.h **** /**
 411:Drivers/lvgl/src/themes/simple/../../core/../misc/lv_style.h ****  * Set the value of property in a style.
 412:Drivers/lvgl/src/themes/simple/../../core/../misc/lv_style.h ****  * This function shouldn't be used directly by the user.
 413:Drivers/lvgl/src/themes/simple/../../core/../misc/lv_style.h ****  * Instead use `lv_style_set_<prop_name>()`. E.g. `lv_style_set_bg_color()`
 414:Drivers/lvgl/src/themes/simple/../../core/../misc/lv_style.h ****  * @param style pointer to style
 415:Drivers/lvgl/src/themes/simple/../../core/../misc/lv_style.h ****  * @param prop the ID of a property (e.g. `LV_STYLE_BG_COLOR`)
 416:Drivers/lvgl/src/themes/simple/../../core/../misc/lv_style.h ****  * @param value `lv_style_value_t` variable in which a field is set according to the type of `prop`
 417:Drivers/lvgl/src/themes/simple/../../core/../misc/lv_style.h ****  */
 418:Drivers/lvgl/src/themes/simple/../../core/../misc/lv_style.h **** void lv_style_set_prop(lv_style_t * style, lv_style_prop_t prop, lv_style_value_t value);
 419:Drivers/lvgl/src/themes/simple/../../core/../misc/lv_style.h **** 
 420:Drivers/lvgl/src/themes/simple/../../core/../misc/lv_style.h **** /**
 421:Drivers/lvgl/src/themes/simple/../../core/../misc/lv_style.h ****  * Get the value of a property
 422:Drivers/lvgl/src/themes/simple/../../core/../misc/lv_style.h ****  * @param style pointer to a style
 423:Drivers/lvgl/src/themes/simple/../../core/../misc/lv_style.h ****  * @param prop  the ID of a property
 424:Drivers/lvgl/src/themes/simple/../../core/../misc/lv_style.h ****  * @param value pointer to a `lv_style_value_t` variable to store the value
 425:Drivers/lvgl/src/themes/simple/../../core/../misc/lv_style.h ****  * @return LV_RESULT_INVALID: the property wasn't found in the style (`value` is unchanged)
 426:Drivers/lvgl/src/themes/simple/../../core/../misc/lv_style.h ****  *         LV_RESULT_OK: the property was fond, and `value` is set accordingly
 427:Drivers/lvgl/src/themes/simple/../../core/../misc/lv_style.h ****  * @note For performance reasons there are no sanity check on `style`
 428:Drivers/lvgl/src/themes/simple/../../core/../misc/lv_style.h ****  */
 429:Drivers/lvgl/src/themes/simple/../../core/../misc/lv_style.h **** lv_style_res_t lv_style_get_prop(const lv_style_t * style, lv_style_prop_t prop, lv_style_value_t *
 430:Drivers/lvgl/src/themes/simple/../../core/../misc/lv_style.h **** 
 431:Drivers/lvgl/src/themes/simple/../../core/../misc/lv_style.h **** /**
 432:Drivers/lvgl/src/themes/simple/../../core/../misc/lv_style.h ****  * Initialize a transition descriptor.
 433:Drivers/lvgl/src/themes/simple/../../core/../misc/lv_style.h ****  * @param tr        pointer to a transition descriptor to initialize
 434:Drivers/lvgl/src/themes/simple/../../core/../misc/lv_style.h ****  * @param props     an array with the properties to transition. The last element must be zero.
 435:Drivers/lvgl/src/themes/simple/../../core/../misc/lv_style.h ****  * @param path_cb   an animation path (ease) callback. If `NULL` liner path will be used.
 436:Drivers/lvgl/src/themes/simple/../../core/../misc/lv_style.h ****  * @param time      duration of the transition in [ms]
 437:Drivers/lvgl/src/themes/simple/../../core/../misc/lv_style.h ****  * @param delay     delay before the transition in [ms]
 438:Drivers/lvgl/src/themes/simple/../../core/../misc/lv_style.h ****  * @param user_data any custom data that will be saved in the transition animation and will be avai
 439:Drivers/lvgl/src/themes/simple/../../core/../misc/lv_style.h ****  *
 440:Drivers/lvgl/src/themes/simple/../../core/../misc/lv_style.h ****  * Example:
 441:Drivers/lvgl/src/themes/simple/../../core/../misc/lv_style.h ****  * @code
 442:Drivers/lvgl/src/themes/simple/../../core/../misc/lv_style.h ****  * const static lv_style_prop_t trans_props[] = { LV_STYLE_BG_OPA, LV_STYLE_BG_COLOR, 0 };
ARM GAS  /tmp/ccFdPeTq.s 			page 34


 443:Drivers/lvgl/src/themes/simple/../../core/../misc/lv_style.h ****  * static lv_style_transition_dsc_t trans1;
 444:Drivers/lvgl/src/themes/simple/../../core/../misc/lv_style.h ****  * lv_style_transition_dsc_init(&trans1, trans_props, NULL, 300, 0, NULL);
 445:Drivers/lvgl/src/themes/simple/../../core/../misc/lv_style.h ****  * @endcode
 446:Drivers/lvgl/src/themes/simple/../../core/../misc/lv_style.h ****  */
 447:Drivers/lvgl/src/themes/simple/../../core/../misc/lv_style.h **** void lv_style_transition_dsc_init(lv_style_transition_dsc_t * tr, const lv_style_prop_t props[],
 448:Drivers/lvgl/src/themes/simple/../../core/../misc/lv_style.h ****                                   lv_anim_path_cb_t path_cb, uint32_t time, uint32_t delay, void * 
 449:Drivers/lvgl/src/themes/simple/../../core/../misc/lv_style.h **** 
 450:Drivers/lvgl/src/themes/simple/../../core/../misc/lv_style.h **** /**
 451:Drivers/lvgl/src/themes/simple/../../core/../misc/lv_style.h ****  * Get the default value of a property
 452:Drivers/lvgl/src/themes/simple/../../core/../misc/lv_style.h ****  * @param prop the ID of a property
 453:Drivers/lvgl/src/themes/simple/../../core/../misc/lv_style.h ****  * @return the default value
 454:Drivers/lvgl/src/themes/simple/../../core/../misc/lv_style.h ****  */
 455:Drivers/lvgl/src/themes/simple/../../core/../misc/lv_style.h **** lv_style_value_t lv_style_prop_get_default(lv_style_prop_t prop);
 456:Drivers/lvgl/src/themes/simple/../../core/../misc/lv_style.h **** 
 457:Drivers/lvgl/src/themes/simple/../../core/../misc/lv_style.h **** /**
 458:Drivers/lvgl/src/themes/simple/../../core/../misc/lv_style.h ****  * Get the value of a property
 459:Drivers/lvgl/src/themes/simple/../../core/../misc/lv_style.h ****  * @param style pointer to a style
 460:Drivers/lvgl/src/themes/simple/../../core/../misc/lv_style.h ****  * @param prop  the ID of a property
 461:Drivers/lvgl/src/themes/simple/../../core/../misc/lv_style.h ****  * @param value pointer to a `lv_style_value_t` variable to store the value
 462:Drivers/lvgl/src/themes/simple/../../core/../misc/lv_style.h ****  * @return LV_RESULT_INVALID: the property wasn't found in the style (`value` is unchanged)
 463:Drivers/lvgl/src/themes/simple/../../core/../misc/lv_style.h ****  *         LV_RESULT_OK: the property was fond, and `value` is set accordingly
 464:Drivers/lvgl/src/themes/simple/../../core/../misc/lv_style.h ****  * @note For performance reasons there are no sanity check on `style`
 465:Drivers/lvgl/src/themes/simple/../../core/../misc/lv_style.h ****  * @note This function is the same as ::lv_style_get_prop but inlined. Use it only on performance c
 466:Drivers/lvgl/src/themes/simple/../../core/../misc/lv_style.h ****  */
 467:Drivers/lvgl/src/themes/simple/../../core/../misc/lv_style.h **** static inline lv_style_res_t lv_style_get_prop_inlined(const lv_style_t * style, lv_style_prop_t pr
 468:Drivers/lvgl/src/themes/simple/../../core/../misc/lv_style.h ****                                                        lv_style_value_t * value)
 469:Drivers/lvgl/src/themes/simple/../../core/../misc/lv_style.h **** {
 470:Drivers/lvgl/src/themes/simple/../../core/../misc/lv_style.h ****     if(lv_style_is_const(style)) {
 471:Drivers/lvgl/src/themes/simple/../../core/../misc/lv_style.h ****         lv_style_const_prop_t * props = (lv_style_const_prop_t *)style->values_and_props;
 472:Drivers/lvgl/src/themes/simple/../../core/../misc/lv_style.h ****         uint32_t i;
 473:Drivers/lvgl/src/themes/simple/../../core/../misc/lv_style.h ****         for(i = 0; props[i].prop != LV_STYLE_PROP_INV; i++) {
 474:Drivers/lvgl/src/themes/simple/../../core/../misc/lv_style.h ****             if(props[i].prop == prop) {
 475:Drivers/lvgl/src/themes/simple/../../core/../misc/lv_style.h ****                 *value = props[i].value;
 476:Drivers/lvgl/src/themes/simple/../../core/../misc/lv_style.h ****                 return LV_STYLE_RES_FOUND;
 477:Drivers/lvgl/src/themes/simple/../../core/../misc/lv_style.h ****             }
 478:Drivers/lvgl/src/themes/simple/../../core/../misc/lv_style.h ****         }
 479:Drivers/lvgl/src/themes/simple/../../core/../misc/lv_style.h ****     }
 480:Drivers/lvgl/src/themes/simple/../../core/../misc/lv_style.h ****     else {
 481:Drivers/lvgl/src/themes/simple/../../core/../misc/lv_style.h ****         lv_style_prop_t * props = (lv_style_prop_t *)style->values_and_props + style->prop_cnt * si
 482:Drivers/lvgl/src/themes/simple/../../core/../misc/lv_style.h ****         uint32_t i;
 483:Drivers/lvgl/src/themes/simple/../../core/../misc/lv_style.h ****         for(i = 0; i < style->prop_cnt; i++) {
 484:Drivers/lvgl/src/themes/simple/../../core/../misc/lv_style.h ****             if(props[i] == prop) {
 485:Drivers/lvgl/src/themes/simple/../../core/../misc/lv_style.h ****                 lv_style_value_t * values = (lv_style_value_t *)style->values_and_props;
 486:Drivers/lvgl/src/themes/simple/../../core/../misc/lv_style.h ****                 *value = values[i];
 487:Drivers/lvgl/src/themes/simple/../../core/../misc/lv_style.h ****                 return LV_STYLE_RES_FOUND;
 488:Drivers/lvgl/src/themes/simple/../../core/../misc/lv_style.h ****             }
 489:Drivers/lvgl/src/themes/simple/../../core/../misc/lv_style.h ****         }
 490:Drivers/lvgl/src/themes/simple/../../core/../misc/lv_style.h ****     }
 491:Drivers/lvgl/src/themes/simple/../../core/../misc/lv_style.h ****     return LV_STYLE_RES_NOT_FOUND;
 492:Drivers/lvgl/src/themes/simple/../../core/../misc/lv_style.h **** }
 493:Drivers/lvgl/src/themes/simple/../../core/../misc/lv_style.h **** 
 494:Drivers/lvgl/src/themes/simple/../../core/../misc/lv_style.h **** /**
 495:Drivers/lvgl/src/themes/simple/../../core/../misc/lv_style.h ****  * Checks if a style is empty (has no properties)
 496:Drivers/lvgl/src/themes/simple/../../core/../misc/lv_style.h ****  * @param style pointer to a style
 497:Drivers/lvgl/src/themes/simple/../../core/../misc/lv_style.h ****  * @return true if the style is empty
 498:Drivers/lvgl/src/themes/simple/../../core/../misc/lv_style.h ****  */
 499:Drivers/lvgl/src/themes/simple/../../core/../misc/lv_style.h **** bool lv_style_is_empty(const lv_style_t * style);
ARM GAS  /tmp/ccFdPeTq.s 			page 35


 500:Drivers/lvgl/src/themes/simple/../../core/../misc/lv_style.h **** 
 501:Drivers/lvgl/src/themes/simple/../../core/../misc/lv_style.h **** /**
 502:Drivers/lvgl/src/themes/simple/../../core/../misc/lv_style.h ****  * Tell the group of a property. If the a property from a group is set in a style the (1 << group) 
 503:Drivers/lvgl/src/themes/simple/../../core/../misc/lv_style.h ****  * It allows early skipping the style if the property is not exists in the style at all.
 504:Drivers/lvgl/src/themes/simple/../../core/../misc/lv_style.h ****  * @param prop a style property
 505:Drivers/lvgl/src/themes/simple/../../core/../misc/lv_style.h ****  * @return the group [0..30] 30 means all the custom properties with index > 120
 506:Drivers/lvgl/src/themes/simple/../../core/../misc/lv_style.h ****  */
 507:Drivers/lvgl/src/themes/simple/../../core/../misc/lv_style.h **** static inline uint32_t lv_style_get_prop_group(lv_style_prop_t prop)
 508:Drivers/lvgl/src/themes/simple/../../core/../misc/lv_style.h **** {
 509:Drivers/lvgl/src/themes/simple/../../core/../misc/lv_style.h ****     uint32_t group = prop >> 2;
 510:Drivers/lvgl/src/themes/simple/../../core/../misc/lv_style.h ****     if(group > 30) group = 31;    /*The MSB marks all the custom properties*/
 511:Drivers/lvgl/src/themes/simple/../../core/../misc/lv_style.h ****     return group;
 512:Drivers/lvgl/src/themes/simple/../../core/../misc/lv_style.h **** 
 513:Drivers/lvgl/src/themes/simple/../../core/../misc/lv_style.h **** }
 514:Drivers/lvgl/src/themes/simple/../../core/../misc/lv_style.h **** 
 515:Drivers/lvgl/src/themes/simple/../../core/../misc/lv_style.h **** /**
 516:Drivers/lvgl/src/themes/simple/../../core/../misc/lv_style.h ****  * Get the flags of a built-in or custom property.
 517:Drivers/lvgl/src/themes/simple/../../core/../misc/lv_style.h ****  *
 518:Drivers/lvgl/src/themes/simple/../../core/../misc/lv_style.h ****  * @param prop a style property
 519:Drivers/lvgl/src/themes/simple/../../core/../misc/lv_style.h ****  * @return the flags of the property
 520:Drivers/lvgl/src/themes/simple/../../core/../misc/lv_style.h ****  */
 521:Drivers/lvgl/src/themes/simple/../../core/../misc/lv_style.h **** uint8_t lv_style_prop_lookup_flags(lv_style_prop_t prop);
 522:Drivers/lvgl/src/themes/simple/../../core/../misc/lv_style.h **** 
 523:Drivers/lvgl/src/themes/simple/../../core/../misc/lv_style.h **** #include "lv_style_gen.h"
 524:Drivers/lvgl/src/themes/simple/../../core/../misc/lv_style.h **** 
 525:Drivers/lvgl/src/themes/simple/../../core/../misc/lv_style.h **** static inline void lv_style_set_size(lv_style_t * style, int32_t width, int32_t height)
 526:Drivers/lvgl/src/themes/simple/../../core/../misc/lv_style.h **** {
 527:Drivers/lvgl/src/themes/simple/../../core/../misc/lv_style.h ****     lv_style_set_width(style, width);
 528:Drivers/lvgl/src/themes/simple/../../core/../misc/lv_style.h ****     lv_style_set_height(style, height);
 529:Drivers/lvgl/src/themes/simple/../../core/../misc/lv_style.h **** }
 530:Drivers/lvgl/src/themes/simple/../../core/../misc/lv_style.h **** 
 531:Drivers/lvgl/src/themes/simple/../../core/../misc/lv_style.h **** static inline void lv_style_set_pad_all(lv_style_t * style, int32_t value)
 532:Drivers/lvgl/src/themes/simple/../../core/../misc/lv_style.h **** {
 869              		.loc 2 532 1 view -0
 870              		.cfi_startproc
 871              		@ args = 0, pretend = 0, frame = 0
 872              		@ frame_needed = 0, uses_anonymous_args = 0
 873              		.loc 2 532 1 is_stmt 0 view .LVU191
 874 0000 38B5     		push	{r3, r4, r5, lr}
 875              	.LCFI1:
 876              		.cfi_def_cfa_offset 16
 877              		.cfi_offset 3, -16
 878              		.cfi_offset 4, -12
 879              		.cfi_offset 5, -8
 880              		.cfi_offset 14, -4
 881 0002 0446     		mov	r4, r0
 882 0004 0D46     		mov	r5, r1
 533:Drivers/lvgl/src/themes/simple/../../core/../misc/lv_style.h ****     lv_style_set_pad_left(style, value);
 883              		.loc 2 533 5 is_stmt 1 view .LVU192
 884 0006 FFF7FEFF 		bl	lv_style_set_pad_left
 885              	.LVL114:
 534:Drivers/lvgl/src/themes/simple/../../core/../misc/lv_style.h ****     lv_style_set_pad_right(style, value);
 886              		.loc 2 534 5 view .LVU193
 887 000a 2946     		mov	r1, r5
 888 000c 2046     		mov	r0, r4
 889 000e FFF7FEFF 		bl	lv_style_set_pad_right
 890              	.LVL115:
ARM GAS  /tmp/ccFdPeTq.s 			page 36


 535:Drivers/lvgl/src/themes/simple/../../core/../misc/lv_style.h ****     lv_style_set_pad_top(style, value);
 891              		.loc 2 535 5 view .LVU194
 892 0012 2946     		mov	r1, r5
 893 0014 2046     		mov	r0, r4
 894 0016 FFF7FEFF 		bl	lv_style_set_pad_top
 895              	.LVL116:
 536:Drivers/lvgl/src/themes/simple/../../core/../misc/lv_style.h ****     lv_style_set_pad_bottom(style, value);
 896              		.loc 2 536 5 view .LVU195
 897 001a 2946     		mov	r1, r5
 898 001c 2046     		mov	r0, r4
 899 001e FFF7FEFF 		bl	lv_style_set_pad_bottom
 900              	.LVL117:
 537:Drivers/lvgl/src/themes/simple/../../core/../misc/lv_style.h **** }
 901              		.loc 2 537 1 is_stmt 0 view .LVU196
 902 0022 38BD     		pop	{r3, r4, r5, pc}
 903              		.loc 2 537 1 view .LVU197
 904              		.cfi_endproc
 905              	.LFE9:
 907              		.section	.text.lv_theme_simple_is_inited,"ax",%progbits
 908              		.align	1
 909              		.global	lv_theme_simple_is_inited
 910              		.syntax unified
 911              		.thumb
 912              		.thumb_func
 914              	lv_theme_simple_is_inited:
 915              	.LFB194:
 146:Drivers/lvgl/src/themes/simple/lv_theme_simple.c ****     my_theme_t * theme = theme_def;
 916              		.loc 1 146 1 is_stmt 1 view -0
 917              		.cfi_startproc
 918              		@ args = 0, pretend = 0, frame = 0
 919              		@ frame_needed = 0, uses_anonymous_args = 0
 920              		@ link register save eliminated.
 147:Drivers/lvgl/src/themes/simple/lv_theme_simple.c ****     if(theme == NULL) return false;
 921              		.loc 1 147 5 view .LVU199
 147:Drivers/lvgl/src/themes/simple/lv_theme_simple.c ****     if(theme == NULL) return false;
 922              		.loc 1 147 18 is_stmt 0 view .LVU200
 923 0000 044B     		ldr	r3, .L52
 924 0002 D3F8B831 		ldr	r3, [r3, #440]
 925              	.LVL118:
 148:Drivers/lvgl/src/themes/simple/lv_theme_simple.c ****     return theme->inited;
 926              		.loc 1 148 5 is_stmt 1 view .LVU201
 148:Drivers/lvgl/src/themes/simple/lv_theme_simple.c ****     return theme->inited;
 927              		.loc 1 148 7 is_stmt 0 view .LVU202
 928 0006 13B1     		cbz	r3, .L51
 149:Drivers/lvgl/src/themes/simple/lv_theme_simple.c **** }
 929              		.loc 1 149 5 is_stmt 1 view .LVU203
 149:Drivers/lvgl/src/themes/simple/lv_theme_simple.c **** }
 930              		.loc 1 149 17 is_stmt 0 view .LVU204
 931 0008 93F8A000 		ldrb	r0, [r3, #160]	@ zero_extendqisi2
 932 000c 7047     		bx	lr
 933              	.L51:
 148:Drivers/lvgl/src/themes/simple/lv_theme_simple.c ****     return theme->inited;
 934              		.loc 1 148 30 discriminator 1 view .LVU205
 935 000e 0020     		movs	r0, #0
 150:Drivers/lvgl/src/themes/simple/lv_theme_simple.c **** 
 936              		.loc 1 150 1 view .LVU206
 937 0010 7047     		bx	lr
ARM GAS  /tmp/ccFdPeTq.s 			page 37


 938              	.L53:
 939 0012 00BF     		.align	2
 940              	.L52:
 941 0014 00000000 		.word	lv_global
 942              		.cfi_endproc
 943              	.LFE194:
 945              		.section	.text.style_init_reset,"ax",%progbits
 946              		.align	1
 947              		.syntax unified
 948              		.thumb
 949              		.thumb_func
 951              	style_init_reset:
 952              	.LVL119:
 953              	.LFB199:
 423:Drivers/lvgl/src/themes/simple/lv_theme_simple.c **** 
 424:Drivers/lvgl/src/themes/simple/lv_theme_simple.c **** /**********************
 425:Drivers/lvgl/src/themes/simple/lv_theme_simple.c ****  *   STATIC FUNCTIONS
 426:Drivers/lvgl/src/themes/simple/lv_theme_simple.c ****  **********************/
 427:Drivers/lvgl/src/themes/simple/lv_theme_simple.c **** 
 428:Drivers/lvgl/src/themes/simple/lv_theme_simple.c **** static void style_init_reset(lv_style_t * style)
 429:Drivers/lvgl/src/themes/simple/lv_theme_simple.c **** {
 954              		.loc 1 429 1 is_stmt 1 view -0
 955              		.cfi_startproc
 956              		@ args = 0, pretend = 0, frame = 0
 957              		@ frame_needed = 0, uses_anonymous_args = 0
 958              		.loc 1 429 1 is_stmt 0 view .LVU208
 959 0000 10B5     		push	{r4, lr}
 960              	.LCFI2:
 961              		.cfi_def_cfa_offset 8
 962              		.cfi_offset 4, -8
 963              		.cfi_offset 14, -4
 964 0002 0446     		mov	r4, r0
 430:Drivers/lvgl/src/themes/simple/lv_theme_simple.c ****     if(lv_theme_simple_is_inited()) {
 965              		.loc 1 430 5 is_stmt 1 view .LVU209
 966              		.loc 1 430 8 is_stmt 0 view .LVU210
 967 0004 FFF7FEFF 		bl	lv_theme_simple_is_inited
 968              	.LVL120:
 969              		.loc 1 430 7 discriminator 1 view .LVU211
 970 0008 18B1     		cbz	r0, .L55
 431:Drivers/lvgl/src/themes/simple/lv_theme_simple.c ****         lv_style_reset(style);
 971              		.loc 1 431 9 is_stmt 1 view .LVU212
 972 000a 2046     		mov	r0, r4
 973 000c FFF7FEFF 		bl	lv_style_reset
 974              	.LVL121:
 975              	.L54:
 432:Drivers/lvgl/src/themes/simple/lv_theme_simple.c ****     }
 433:Drivers/lvgl/src/themes/simple/lv_theme_simple.c ****     else {
 434:Drivers/lvgl/src/themes/simple/lv_theme_simple.c ****         lv_style_init(style);
 435:Drivers/lvgl/src/themes/simple/lv_theme_simple.c ****     }
 436:Drivers/lvgl/src/themes/simple/lv_theme_simple.c **** }
 976              		.loc 1 436 1 is_stmt 0 view .LVU213
 977 0010 10BD     		pop	{r4, pc}
 978              	.LVL122:
 979              	.L55:
 434:Drivers/lvgl/src/themes/simple/lv_theme_simple.c ****     }
 980              		.loc 1 434 9 is_stmt 1 view .LVU214
 981 0012 2046     		mov	r0, r4
ARM GAS  /tmp/ccFdPeTq.s 			page 38


 982 0014 FFF7FEFF 		bl	lv_style_init
 983              	.LVL123:
 984              		.loc 1 436 1 is_stmt 0 view .LVU215
 985 0018 FAE7     		b	.L54
 986              		.cfi_endproc
 987              	.LFE199:
 989              		.section	.text.style_init,"ax",%progbits
 990              		.align	1
 991              		.syntax unified
 992              		.thumb
 993              		.thumb_func
 995              	style_init:
 996              	.LVL124:
 997              	.LFB193:
  78:Drivers/lvgl/src/themes/simple/lv_theme_simple.c ****     style_init_reset(&theme->styles.scrollbar);
 998              		.loc 1 78 1 is_stmt 1 view -0
 999              		.cfi_startproc
 1000              		@ args = 0, pretend = 0, frame = 64
 1001              		@ frame_needed = 0, uses_anonymous_args = 0
  78:Drivers/lvgl/src/themes/simple/lv_theme_simple.c ****     style_init_reset(&theme->styles.scrollbar);
 1002              		.loc 1 78 1 is_stmt 0 view .LVU217
 1003 0000 30B5     		push	{r4, r5, lr}
 1004              	.LCFI3:
 1005              		.cfi_def_cfa_offset 12
 1006              		.cfi_offset 4, -12
 1007              		.cfi_offset 5, -8
 1008              		.cfi_offset 14, -4
 1009 0002 91B0     		sub	sp, sp, #68
 1010              	.LCFI4:
 1011              		.cfi_def_cfa_offset 80
 1012 0004 0446     		mov	r4, r0
  79:Drivers/lvgl/src/themes/simple/lv_theme_simple.c ****     lv_style_set_bg_opa(&theme->styles.scrollbar, LV_OPA_COVER);
 1013              		.loc 1 79 5 is_stmt 1 view .LVU218
 1014 0006 00F17005 		add	r5, r0, #112
 1015 000a 2846     		mov	r0, r5
 1016              	.LVL125:
  79:Drivers/lvgl/src/themes/simple/lv_theme_simple.c ****     lv_style_set_bg_opa(&theme->styles.scrollbar, LV_OPA_COVER);
 1017              		.loc 1 79 5 is_stmt 0 view .LVU219
 1018 000c FFF7FEFF 		bl	style_init_reset
 1019              	.LVL126:
  80:Drivers/lvgl/src/themes/simple/lv_theme_simple.c ****     lv_style_set_bg_color(&theme->styles.scrollbar, COLOR_DARK);
 1020              		.loc 1 80 5 is_stmt 1 view .LVU220
 1021 0010 FF21     		movs	r1, #255
 1022 0012 2846     		mov	r0, r5
 1023 0014 FFF7FEFF 		bl	lv_style_set_bg_opa
 1024              	.LVL127:
  81:Drivers/lvgl/src/themes/simple/lv_theme_simple.c ****     lv_style_set_width(&theme->styles.scrollbar,  SCROLLBAR_WIDTH);
 1025              		.loc 1 81 5 view .LVU221
 1026 0018 1220     		movs	r0, #18
 1027 001a FFF7FEFF 		bl	lv_palette_main
 1028              	.LVL128:
 1029 001e 8DF80000 		strb	r0, [sp]
 1030 0022 C0F30723 		ubfx	r3, r0, #8, #8
 1031 0026 8DF80130 		strb	r3, [sp, #1]
 1032 002a C0F30740 		ubfx	r0, r0, #16, #8
 1033 002e 8DF80200 		strb	r0, [sp, #2]
  81:Drivers/lvgl/src/themes/simple/lv_theme_simple.c ****     lv_style_set_width(&theme->styles.scrollbar,  SCROLLBAR_WIDTH);
ARM GAS  /tmp/ccFdPeTq.s 			page 39


 1034              		.loc 1 81 5 is_stmt 0 discriminator 1 view .LVU222
 1035 0032 0099     		ldr	r1, [sp]
 1036 0034 2846     		mov	r0, r5
 1037 0036 FFF7FEFF 		bl	lv_style_set_bg_color
 1038              	.LVL129:
  82:Drivers/lvgl/src/themes/simple/lv_theme_simple.c **** 
 1039              		.loc 1 82 5 is_stmt 1 view .LVU223
 1040 003a 0221     		movs	r1, #2
 1041 003c 2846     		mov	r0, r5
 1042 003e FFF7FEFF 		bl	lv_style_set_width
 1043              	.LVL130:
  84:Drivers/lvgl/src/themes/simple/lv_theme_simple.c ****     lv_style_set_bg_opa(&theme->styles.scr, LV_OPA_COVER);
 1044              		.loc 1 84 5 view .LVU224
 1045 0042 04F12805 		add	r5, r4, #40
 1046 0046 2846     		mov	r0, r5
 1047 0048 FFF7FEFF 		bl	style_init_reset
 1048              	.LVL131:
  85:Drivers/lvgl/src/themes/simple/lv_theme_simple.c ****     lv_style_set_bg_color(&theme->styles.scr, COLOR_SCR);
 1049              		.loc 1 85 5 view .LVU225
 1050 004c FF21     		movs	r1, #255
 1051 004e 2846     		mov	r0, r5
 1052 0050 FFF7FEFF 		bl	lv_style_set_bg_opa
 1053              	.LVL132:
  86:Drivers/lvgl/src/themes/simple/lv_theme_simple.c ****     lv_style_set_text_color(&theme->styles.scr, COLOR_DIM);
 1054              		.loc 1 86 5 view .LVU226
 1055 0054 0421     		movs	r1, #4
 1056 0056 1220     		movs	r0, #18
 1057 0058 FFF7FEFF 		bl	lv_palette_lighten
 1058              	.LVL133:
 1059 005c 8DF80400 		strb	r0, [sp, #4]
 1060 0060 C0F30723 		ubfx	r3, r0, #8, #8
 1061 0064 8DF80530 		strb	r3, [sp, #5]
 1062 0068 C0F30740 		ubfx	r0, r0, #16, #8
 1063 006c 8DF80600 		strb	r0, [sp, #6]
  86:Drivers/lvgl/src/themes/simple/lv_theme_simple.c ****     lv_style_set_text_color(&theme->styles.scr, COLOR_DIM);
 1064              		.loc 1 86 5 is_stmt 0 discriminator 1 view .LVU227
 1065 0070 0199     		ldr	r1, [sp, #4]
 1066 0072 2846     		mov	r0, r5
 1067 0074 FFF7FEFF 		bl	lv_style_set_bg_color
 1068              	.LVL134:
  87:Drivers/lvgl/src/themes/simple/lv_theme_simple.c **** 
 1069              		.loc 1 87 5 is_stmt 1 view .LVU228
 1070 0078 0221     		movs	r1, #2
 1071 007a 1220     		movs	r0, #18
 1072 007c FFF7FEFF 		bl	lv_palette_darken
 1073              	.LVL135:
 1074 0080 8DF80800 		strb	r0, [sp, #8]
 1075 0084 C0F30723 		ubfx	r3, r0, #8, #8
 1076 0088 8DF80930 		strb	r3, [sp, #9]
 1077 008c C0F30740 		ubfx	r0, r0, #16, #8
 1078 0090 8DF80A00 		strb	r0, [sp, #10]
  87:Drivers/lvgl/src/themes/simple/lv_theme_simple.c **** 
 1079              		.loc 1 87 5 is_stmt 0 discriminator 1 view .LVU229
 1080 0094 0299     		ldr	r1, [sp, #8]
 1081 0096 2846     		mov	r0, r5
 1082 0098 FFF7FEFF 		bl	lv_style_set_text_color
 1083              	.LVL136:
ARM GAS  /tmp/ccFdPeTq.s 			page 40


  89:Drivers/lvgl/src/themes/simple/lv_theme_simple.c ****     lv_style_set_bg_opa(&theme->styles.transp, LV_OPA_TRANSP);
 1084              		.loc 1 89 5 is_stmt 1 view .LVU230
 1085 009c 04F13405 		add	r5, r4, #52
 1086 00a0 2846     		mov	r0, r5
 1087 00a2 FFF7FEFF 		bl	style_init_reset
 1088              	.LVL137:
  90:Drivers/lvgl/src/themes/simple/lv_theme_simple.c **** 
 1089              		.loc 1 90 5 view .LVU231
 1090 00a6 0021     		movs	r1, #0
 1091 00a8 2846     		mov	r0, r5
 1092 00aa FFF7FEFF 		bl	lv_style_set_bg_opa
 1093              	.LVL138:
  92:Drivers/lvgl/src/themes/simple/lv_theme_simple.c ****     lv_style_set_bg_opa(&theme->styles.white, LV_OPA_COVER);
 1094              		.loc 1 92 5 view .LVU232
 1095 00ae 04F14005 		add	r5, r4, #64
 1096 00b2 2846     		mov	r0, r5
 1097 00b4 FFF7FEFF 		bl	style_init_reset
 1098              	.LVL139:
  93:Drivers/lvgl/src/themes/simple/lv_theme_simple.c ****     lv_style_set_bg_color(&theme->styles.white, COLOR_WHITE);
 1099              		.loc 1 93 5 view .LVU233
 1100 00b8 FF21     		movs	r1, #255
 1101 00ba 2846     		mov	r0, r5
 1102 00bc FFF7FEFF 		bl	lv_style_set_bg_opa
 1103              	.LVL140:
  94:Drivers/lvgl/src/themes/simple/lv_theme_simple.c ****     lv_style_set_line_width(&theme->styles.white, 1);
 1104              		.loc 1 94 5 view .LVU234
 1105 00c0 FFF7FEFF 		bl	lv_color_white
 1106              	.LVL141:
 1107 00c4 8DF80C00 		strb	r0, [sp, #12]
 1108 00c8 C0F30723 		ubfx	r3, r0, #8, #8
 1109 00cc 8DF80D30 		strb	r3, [sp, #13]
 1110 00d0 C0F30740 		ubfx	r0, r0, #16, #8
 1111 00d4 8DF80E00 		strb	r0, [sp, #14]
  94:Drivers/lvgl/src/themes/simple/lv_theme_simple.c ****     lv_style_set_line_width(&theme->styles.white, 1);
 1112              		.loc 1 94 5 is_stmt 0 discriminator 1 view .LVU235
 1113 00d8 0399     		ldr	r1, [sp, #12]
 1114 00da 2846     		mov	r0, r5
 1115 00dc FFF7FEFF 		bl	lv_style_set_bg_color
 1116              	.LVL142:
  95:Drivers/lvgl/src/themes/simple/lv_theme_simple.c ****     lv_style_set_line_color(&theme->styles.white, COLOR_WHITE);
 1117              		.loc 1 95 5 is_stmt 1 view .LVU236
 1118 00e0 0121     		movs	r1, #1
 1119 00e2 2846     		mov	r0, r5
 1120 00e4 FFF7FEFF 		bl	lv_style_set_line_width
 1121              	.LVL143:
  96:Drivers/lvgl/src/themes/simple/lv_theme_simple.c ****     lv_style_set_arc_width(&theme->styles.white, 2);
 1122              		.loc 1 96 5 view .LVU237
 1123 00e8 FFF7FEFF 		bl	lv_color_white
 1124              	.LVL144:
 1125 00ec 8DF81000 		strb	r0, [sp, #16]
 1126 00f0 C0F30723 		ubfx	r3, r0, #8, #8
 1127 00f4 8DF81130 		strb	r3, [sp, #17]
 1128 00f8 C0F30740 		ubfx	r0, r0, #16, #8
 1129 00fc 8DF81200 		strb	r0, [sp, #18]
  96:Drivers/lvgl/src/themes/simple/lv_theme_simple.c ****     lv_style_set_arc_width(&theme->styles.white, 2);
 1130              		.loc 1 96 5 is_stmt 0 discriminator 1 view .LVU238
 1131 0100 0499     		ldr	r1, [sp, #16]
ARM GAS  /tmp/ccFdPeTq.s 			page 41


 1132 0102 2846     		mov	r0, r5
 1133 0104 FFF7FEFF 		bl	lv_style_set_line_color
 1134              	.LVL145:
  97:Drivers/lvgl/src/themes/simple/lv_theme_simple.c ****     lv_style_set_arc_color(&theme->styles.white, COLOR_WHITE);
 1135              		.loc 1 97 5 is_stmt 1 view .LVU239
 1136 0108 0221     		movs	r1, #2
 1137 010a 2846     		mov	r0, r5
 1138 010c FFF7FEFF 		bl	lv_style_set_arc_width
 1139              	.LVL146:
  98:Drivers/lvgl/src/themes/simple/lv_theme_simple.c **** 
 1140              		.loc 1 98 5 view .LVU240
 1141 0110 FFF7FEFF 		bl	lv_color_white
 1142              	.LVL147:
 1143 0114 8DF81400 		strb	r0, [sp, #20]
 1144 0118 C0F30723 		ubfx	r3, r0, #8, #8
 1145 011c 8DF81530 		strb	r3, [sp, #21]
 1146 0120 C0F30740 		ubfx	r0, r0, #16, #8
 1147 0124 8DF81600 		strb	r0, [sp, #22]
  98:Drivers/lvgl/src/themes/simple/lv_theme_simple.c **** 
 1148              		.loc 1 98 5 is_stmt 0 discriminator 1 view .LVU241
 1149 0128 0599     		ldr	r1, [sp, #20]
 1150 012a 2846     		mov	r0, r5
 1151 012c FFF7FEFF 		bl	lv_style_set_arc_color
 1152              	.LVL148:
 100:Drivers/lvgl/src/themes/simple/lv_theme_simple.c ****     lv_style_set_bg_opa(&theme->styles.light, LV_OPA_COVER);
 1153              		.loc 1 100 5 is_stmt 1 view .LVU242
 1154 0130 04F14C05 		add	r5, r4, #76
 1155 0134 2846     		mov	r0, r5
 1156 0136 FFF7FEFF 		bl	style_init_reset
 1157              	.LVL149:
 101:Drivers/lvgl/src/themes/simple/lv_theme_simple.c ****     lv_style_set_bg_color(&theme->styles.light, COLOR_LIGHT);
 1158              		.loc 1 101 5 view .LVU243
 1159 013a FF21     		movs	r1, #255
 1160 013c 2846     		mov	r0, r5
 1161 013e FFF7FEFF 		bl	lv_style_set_bg_opa
 1162              	.LVL150:
 102:Drivers/lvgl/src/themes/simple/lv_theme_simple.c ****     lv_style_set_line_width(&theme->styles.light, 1);
 1163              		.loc 1 102 5 view .LVU244
 1164 0142 0221     		movs	r1, #2
 1165 0144 1220     		movs	r0, #18
 1166 0146 FFF7FEFF 		bl	lv_palette_lighten
 1167              	.LVL151:
 1168 014a 8DF81800 		strb	r0, [sp, #24]
 1169 014e C0F30723 		ubfx	r3, r0, #8, #8
 1170 0152 8DF81930 		strb	r3, [sp, #25]
 1171 0156 C0F30740 		ubfx	r0, r0, #16, #8
 1172 015a 8DF81A00 		strb	r0, [sp, #26]
 102:Drivers/lvgl/src/themes/simple/lv_theme_simple.c ****     lv_style_set_line_width(&theme->styles.light, 1);
 1173              		.loc 1 102 5 is_stmt 0 discriminator 1 view .LVU245
 1174 015e 0699     		ldr	r1, [sp, #24]
 1175 0160 2846     		mov	r0, r5
 1176 0162 FFF7FEFF 		bl	lv_style_set_bg_color
 1177              	.LVL152:
 103:Drivers/lvgl/src/themes/simple/lv_theme_simple.c ****     lv_style_set_line_color(&theme->styles.light, COLOR_LIGHT);
 1178              		.loc 1 103 5 is_stmt 1 view .LVU246
 1179 0166 0121     		movs	r1, #1
 1180 0168 2846     		mov	r0, r5
ARM GAS  /tmp/ccFdPeTq.s 			page 42


 1181 016a FFF7FEFF 		bl	lv_style_set_line_width
 1182              	.LVL153:
 104:Drivers/lvgl/src/themes/simple/lv_theme_simple.c ****     lv_style_set_arc_width(&theme->styles.light, 2);
 1183              		.loc 1 104 5 view .LVU247
 1184 016e 0221     		movs	r1, #2
 1185 0170 1220     		movs	r0, #18
 1186 0172 FFF7FEFF 		bl	lv_palette_lighten
 1187              	.LVL154:
 1188 0176 8DF81C00 		strb	r0, [sp, #28]
 1189 017a C0F30723 		ubfx	r3, r0, #8, #8
 1190 017e 8DF81D30 		strb	r3, [sp, #29]
 1191 0182 C0F30740 		ubfx	r0, r0, #16, #8
 1192 0186 8DF81E00 		strb	r0, [sp, #30]
 104:Drivers/lvgl/src/themes/simple/lv_theme_simple.c ****     lv_style_set_arc_width(&theme->styles.light, 2);
 1193              		.loc 1 104 5 is_stmt 0 discriminator 1 view .LVU248
 1194 018a 0799     		ldr	r1, [sp, #28]
 1195 018c 2846     		mov	r0, r5
 1196 018e FFF7FEFF 		bl	lv_style_set_line_color
 1197              	.LVL155:
 105:Drivers/lvgl/src/themes/simple/lv_theme_simple.c ****     lv_style_set_arc_color(&theme->styles.light, COLOR_LIGHT);
 1198              		.loc 1 105 5 is_stmt 1 view .LVU249
 1199 0192 0221     		movs	r1, #2
 1200 0194 2846     		mov	r0, r5
 1201 0196 FFF7FEFF 		bl	lv_style_set_arc_width
 1202              	.LVL156:
 106:Drivers/lvgl/src/themes/simple/lv_theme_simple.c **** 
 1203              		.loc 1 106 5 view .LVU250
 1204 019a 0221     		movs	r1, #2
 1205 019c 1220     		movs	r0, #18
 1206 019e FFF7FEFF 		bl	lv_palette_lighten
 1207              	.LVL157:
 1208 01a2 8DF82000 		strb	r0, [sp, #32]
 1209 01a6 C0F30723 		ubfx	r3, r0, #8, #8
 1210 01aa 8DF82130 		strb	r3, [sp, #33]
 1211 01ae C0F30740 		ubfx	r0, r0, #16, #8
 1212 01b2 8DF82200 		strb	r0, [sp, #34]
 106:Drivers/lvgl/src/themes/simple/lv_theme_simple.c **** 
 1213              		.loc 1 106 5 is_stmt 0 discriminator 1 view .LVU251
 1214 01b6 0899     		ldr	r1, [sp, #32]
 1215 01b8 2846     		mov	r0, r5
 1216 01ba FFF7FEFF 		bl	lv_style_set_arc_color
 1217              	.LVL158:
 108:Drivers/lvgl/src/themes/simple/lv_theme_simple.c ****     lv_style_set_bg_opa(&theme->styles.dark, LV_OPA_COVER);
 1218              		.loc 1 108 5 is_stmt 1 view .LVU252
 1219 01be 04F15805 		add	r5, r4, #88
 1220 01c2 2846     		mov	r0, r5
 1221 01c4 FFF7FEFF 		bl	style_init_reset
 1222              	.LVL159:
 109:Drivers/lvgl/src/themes/simple/lv_theme_simple.c ****     lv_style_set_bg_color(&theme->styles.dark, COLOR_DARK);
 1223              		.loc 1 109 5 view .LVU253
 1224 01c8 FF21     		movs	r1, #255
 1225 01ca 2846     		mov	r0, r5
 1226 01cc FFF7FEFF 		bl	lv_style_set_bg_opa
 1227              	.LVL160:
 110:Drivers/lvgl/src/themes/simple/lv_theme_simple.c ****     lv_style_set_line_width(&theme->styles.dark, 1);
 1228              		.loc 1 110 5 view .LVU254
 1229 01d0 1220     		movs	r0, #18
ARM GAS  /tmp/ccFdPeTq.s 			page 43


 1230 01d2 FFF7FEFF 		bl	lv_palette_main
 1231              	.LVL161:
 1232 01d6 8DF82400 		strb	r0, [sp, #36]
 1233 01da C0F30723 		ubfx	r3, r0, #8, #8
 1234 01de 8DF82530 		strb	r3, [sp, #37]
 1235 01e2 C0F30740 		ubfx	r0, r0, #16, #8
 1236 01e6 8DF82600 		strb	r0, [sp, #38]
 110:Drivers/lvgl/src/themes/simple/lv_theme_simple.c ****     lv_style_set_line_width(&theme->styles.dark, 1);
 1237              		.loc 1 110 5 is_stmt 0 discriminator 1 view .LVU255
 1238 01ea 0999     		ldr	r1, [sp, #36]
 1239 01ec 2846     		mov	r0, r5
 1240 01ee FFF7FEFF 		bl	lv_style_set_bg_color
 1241              	.LVL162:
 111:Drivers/lvgl/src/themes/simple/lv_theme_simple.c ****     lv_style_set_line_color(&theme->styles.dark, COLOR_DARK);
 1242              		.loc 1 111 5 is_stmt 1 view .LVU256
 1243 01f2 0121     		movs	r1, #1
 1244 01f4 2846     		mov	r0, r5
 1245 01f6 FFF7FEFF 		bl	lv_style_set_line_width
 1246              	.LVL163:
 112:Drivers/lvgl/src/themes/simple/lv_theme_simple.c ****     lv_style_set_arc_width(&theme->styles.dark, 2);
 1247              		.loc 1 112 5 view .LVU257
 1248 01fa 1220     		movs	r0, #18
 1249 01fc FFF7FEFF 		bl	lv_palette_main
 1250              	.LVL164:
 1251 0200 8DF82800 		strb	r0, [sp, #40]
 1252 0204 C0F30723 		ubfx	r3, r0, #8, #8
 1253 0208 8DF82930 		strb	r3, [sp, #41]
 1254 020c C0F30740 		ubfx	r0, r0, #16, #8
 1255 0210 8DF82A00 		strb	r0, [sp, #42]
 112:Drivers/lvgl/src/themes/simple/lv_theme_simple.c ****     lv_style_set_arc_width(&theme->styles.dark, 2);
 1256              		.loc 1 112 5 is_stmt 0 discriminator 1 view .LVU258
 1257 0214 0A99     		ldr	r1, [sp, #40]
 1258 0216 2846     		mov	r0, r5
 1259 0218 FFF7FEFF 		bl	lv_style_set_line_color
 1260              	.LVL165:
 113:Drivers/lvgl/src/themes/simple/lv_theme_simple.c ****     lv_style_set_arc_color(&theme->styles.dark, COLOR_DARK);
 1261              		.loc 1 113 5 is_stmt 1 view .LVU259
 1262 021c 0221     		movs	r1, #2
 1263 021e 2846     		mov	r0, r5
 1264 0220 FFF7FEFF 		bl	lv_style_set_arc_width
 1265              	.LVL166:
 114:Drivers/lvgl/src/themes/simple/lv_theme_simple.c **** 
 1266              		.loc 1 114 5 view .LVU260
 1267 0224 1220     		movs	r0, #18
 1268 0226 FFF7FEFF 		bl	lv_palette_main
 1269              	.LVL167:
 1270 022a 8DF82C00 		strb	r0, [sp, #44]
 1271 022e C0F30723 		ubfx	r3, r0, #8, #8
 1272 0232 8DF82D30 		strb	r3, [sp, #45]
 1273 0236 C0F30740 		ubfx	r0, r0, #16, #8
 1274 023a 8DF82E00 		strb	r0, [sp, #46]
 114:Drivers/lvgl/src/themes/simple/lv_theme_simple.c **** 
 1275              		.loc 1 114 5 is_stmt 0 discriminator 1 view .LVU261
 1276 023e 0B99     		ldr	r1, [sp, #44]
 1277 0240 2846     		mov	r0, r5
 1278 0242 FFF7FEFF 		bl	lv_style_set_arc_color
 1279              	.LVL168:
ARM GAS  /tmp/ccFdPeTq.s 			page 44


 116:Drivers/lvgl/src/themes/simple/lv_theme_simple.c ****     lv_style_set_bg_opa(&theme->styles.dim, LV_OPA_COVER);
 1280              		.loc 1 116 5 is_stmt 1 view .LVU262
 1281 0246 04F16405 		add	r5, r4, #100
 1282 024a 2846     		mov	r0, r5
 1283 024c FFF7FEFF 		bl	style_init_reset
 1284              	.LVL169:
 117:Drivers/lvgl/src/themes/simple/lv_theme_simple.c ****     lv_style_set_bg_color(&theme->styles.dim, COLOR_DIM);
 1285              		.loc 1 117 5 view .LVU263
 1286 0250 FF21     		movs	r1, #255
 1287 0252 2846     		mov	r0, r5
 1288 0254 FFF7FEFF 		bl	lv_style_set_bg_opa
 1289              	.LVL170:
 118:Drivers/lvgl/src/themes/simple/lv_theme_simple.c ****     lv_style_set_line_width(&theme->styles.dim, 1);
 1290              		.loc 1 118 5 view .LVU264
 1291 0258 0221     		movs	r1, #2
 1292 025a 1220     		movs	r0, #18
 1293 025c FFF7FEFF 		bl	lv_palette_darken
 1294              	.LVL171:
 1295 0260 8DF83000 		strb	r0, [sp, #48]
 1296 0264 C0F30723 		ubfx	r3, r0, #8, #8
 1297 0268 8DF83130 		strb	r3, [sp, #49]
 1298 026c C0F30740 		ubfx	r0, r0, #16, #8
 1299 0270 8DF83200 		strb	r0, [sp, #50]
 118:Drivers/lvgl/src/themes/simple/lv_theme_simple.c ****     lv_style_set_line_width(&theme->styles.dim, 1);
 1300              		.loc 1 118 5 is_stmt 0 discriminator 1 view .LVU265
 1301 0274 0C99     		ldr	r1, [sp, #48]
 1302 0276 2846     		mov	r0, r5
 1303 0278 FFF7FEFF 		bl	lv_style_set_bg_color
 1304              	.LVL172:
 119:Drivers/lvgl/src/themes/simple/lv_theme_simple.c ****     lv_style_set_line_color(&theme->styles.dim, COLOR_DIM);
 1305              		.loc 1 119 5 is_stmt 1 view .LVU266
 1306 027c 0121     		movs	r1, #1
 1307 027e 2846     		mov	r0, r5
 1308 0280 FFF7FEFF 		bl	lv_style_set_line_width
 1309              	.LVL173:
 120:Drivers/lvgl/src/themes/simple/lv_theme_simple.c ****     lv_style_set_arc_width(&theme->styles.dim, 2);
 1310              		.loc 1 120 5 view .LVU267
 1311 0284 0221     		movs	r1, #2
 1312 0286 1220     		movs	r0, #18
 1313 0288 FFF7FEFF 		bl	lv_palette_darken
 1314              	.LVL174:
 1315 028c 8DF83400 		strb	r0, [sp, #52]
 1316 0290 C0F30723 		ubfx	r3, r0, #8, #8
 1317 0294 8DF83530 		strb	r3, [sp, #53]
 1318 0298 C0F30740 		ubfx	r0, r0, #16, #8
 1319 029c 8DF83600 		strb	r0, [sp, #54]
 120:Drivers/lvgl/src/themes/simple/lv_theme_simple.c ****     lv_style_set_arc_width(&theme->styles.dim, 2);
 1320              		.loc 1 120 5 is_stmt 0 discriminator 1 view .LVU268
 1321 02a0 0D99     		ldr	r1, [sp, #52]
 1322 02a2 2846     		mov	r0, r5
 1323 02a4 FFF7FEFF 		bl	lv_style_set_line_color
 1324              	.LVL175:
 121:Drivers/lvgl/src/themes/simple/lv_theme_simple.c ****     lv_style_set_arc_color(&theme->styles.dim, COLOR_DIM);
 1325              		.loc 1 121 5 is_stmt 1 view .LVU269
 1326 02a8 0221     		movs	r1, #2
 1327 02aa 2846     		mov	r0, r5
 1328 02ac FFF7FEFF 		bl	lv_style_set_arc_width
ARM GAS  /tmp/ccFdPeTq.s 			page 45


 1329              	.LVL176:
 122:Drivers/lvgl/src/themes/simple/lv_theme_simple.c **** 
 1330              		.loc 1 122 5 view .LVU270
 1331 02b0 0221     		movs	r1, #2
 1332 02b2 1220     		movs	r0, #18
 1333 02b4 FFF7FEFF 		bl	lv_palette_darken
 1334              	.LVL177:
 1335 02b8 8DF83800 		strb	r0, [sp, #56]
 1336 02bc C0F30723 		ubfx	r3, r0, #8, #8
 1337 02c0 8DF83930 		strb	r3, [sp, #57]
 1338 02c4 C0F30740 		ubfx	r0, r0, #16, #8
 1339 02c8 8DF83A00 		strb	r0, [sp, #58]
 122:Drivers/lvgl/src/themes/simple/lv_theme_simple.c **** 
 1340              		.loc 1 122 5 is_stmt 0 discriminator 1 view .LVU271
 1341 02cc 0E99     		ldr	r1, [sp, #56]
 1342 02ce 2846     		mov	r0, r5
 1343 02d0 FFF7FEFF 		bl	lv_style_set_arc_color
 1344              	.LVL178:
 125:Drivers/lvgl/src/themes/simple/lv_theme_simple.c ****     lv_style_set_arc_width(&theme->styles.arc_line, 6);
 1345              		.loc 1 125 5 is_stmt 1 view .LVU272
 1346 02d4 04F17C05 		add	r5, r4, #124
 1347 02d8 2846     		mov	r0, r5
 1348 02da FFF7FEFF 		bl	style_init_reset
 1349              	.LVL179:
 126:Drivers/lvgl/src/themes/simple/lv_theme_simple.c ****     style_init_reset(&theme->styles.arc_knob);
 1350              		.loc 1 126 5 view .LVU273
 1351 02de 0621     		movs	r1, #6
 1352 02e0 2846     		mov	r0, r5
 1353 02e2 FFF7FEFF 		bl	lv_style_set_arc_width
 1354              	.LVL180:
 127:Drivers/lvgl/src/themes/simple/lv_theme_simple.c ****     lv_style_set_pad_all(&theme->styles.arc_knob, 5);
 1355              		.loc 1 127 5 view .LVU274
 1356 02e6 04F18805 		add	r5, r4, #136
 1357 02ea 2846     		mov	r0, r5
 1358 02ec FFF7FEFF 		bl	style_init_reset
 1359              	.LVL181:
 128:Drivers/lvgl/src/themes/simple/lv_theme_simple.c **** #endif
 1360              		.loc 1 128 5 view .LVU275
 1361 02f0 0521     		movs	r1, #5
 1362 02f2 2846     		mov	r0, r5
 1363 02f4 FFF7FEFF 		bl	lv_style_set_pad_all
 1364              	.LVL182:
 132:Drivers/lvgl/src/themes/simple/lv_theme_simple.c ****     lv_style_set_border_side(&theme->styles.ta_cursor, LV_BORDER_SIDE_LEFT);
 1365              		.loc 1 132 5 view .LVU276
 1366 02f8 9434     		adds	r4, r4, #148
 1367              	.LVL183:
 132:Drivers/lvgl/src/themes/simple/lv_theme_simple.c ****     lv_style_set_border_side(&theme->styles.ta_cursor, LV_BORDER_SIDE_LEFT);
 1368              		.loc 1 132 5 is_stmt 0 view .LVU277
 1369 02fa 2046     		mov	r0, r4
 1370 02fc FFF7FEFF 		bl	style_init_reset
 1371              	.LVL184:
 133:Drivers/lvgl/src/themes/simple/lv_theme_simple.c ****     lv_style_set_border_color(&theme->styles.ta_cursor, COLOR_DIM);
 1372              		.loc 1 133 5 is_stmt 1 view .LVU278
 1373 0300 0421     		movs	r1, #4
 1374 0302 2046     		mov	r0, r4
 1375 0304 FFF7FEFF 		bl	lv_style_set_border_side
 1376              	.LVL185:
ARM GAS  /tmp/ccFdPeTq.s 			page 46


 134:Drivers/lvgl/src/themes/simple/lv_theme_simple.c ****     lv_style_set_border_width(&theme->styles.ta_cursor, 2);
 1377              		.loc 1 134 5 view .LVU279
 1378 0308 0221     		movs	r1, #2
 1379 030a 1220     		movs	r0, #18
 1380 030c FFF7FEFF 		bl	lv_palette_darken
 1381              	.LVL186:
 1382 0310 8DF83C00 		strb	r0, [sp, #60]
 1383 0314 C0F30723 		ubfx	r3, r0, #8, #8
 1384 0318 8DF83D30 		strb	r3, [sp, #61]
 1385 031c C0F30740 		ubfx	r0, r0, #16, #8
 1386 0320 8DF83E00 		strb	r0, [sp, #62]
 134:Drivers/lvgl/src/themes/simple/lv_theme_simple.c ****     lv_style_set_border_width(&theme->styles.ta_cursor, 2);
 1387              		.loc 1 134 5 is_stmt 0 discriminator 1 view .LVU280
 1388 0324 0F99     		ldr	r1, [sp, #60]
 1389 0326 2046     		mov	r0, r4
 1390 0328 FFF7FEFF 		bl	lv_style_set_border_color
 1391              	.LVL187:
 135:Drivers/lvgl/src/themes/simple/lv_theme_simple.c ****     lv_style_set_bg_opa(&theme->styles.ta_cursor, LV_OPA_TRANSP);
 1392              		.loc 1 135 5 is_stmt 1 view .LVU281
 1393 032c 0221     		movs	r1, #2
 1394 032e 2046     		mov	r0, r4
 1395 0330 FFF7FEFF 		bl	lv_style_set_border_width
 1396              	.LVL188:
 136:Drivers/lvgl/src/themes/simple/lv_theme_simple.c ****     lv_style_set_anim_duration(&theme->styles.ta_cursor, 500);
 1397              		.loc 1 136 5 view .LVU282
 1398 0334 0021     		movs	r1, #0
 1399 0336 2046     		mov	r0, r4
 1400 0338 FFF7FEFF 		bl	lv_style_set_bg_opa
 1401              	.LVL189:
 137:Drivers/lvgl/src/themes/simple/lv_theme_simple.c **** #endif
 1402              		.loc 1 137 5 view .LVU283
 1403 033c 4FF4FA71 		mov	r1, #500
 1404 0340 2046     		mov	r0, r4
 1405 0342 FFF7FEFF 		bl	lv_style_set_anim_duration
 1406              	.LVL190:
 139:Drivers/lvgl/src/themes/simple/lv_theme_simple.c **** 
 1407              		.loc 1 139 1 is_stmt 0 view .LVU284
 1408 0346 11B0     		add	sp, sp, #68
 1409              	.LCFI5:
 1410              		.cfi_def_cfa_offset 12
 1411              		@ sp needed
 1412 0348 30BD     		pop	{r4, r5, pc}
 139:Drivers/lvgl/src/themes/simple/lv_theme_simple.c **** 
 1413              		.loc 1 139 1 view .LVU285
 1414              		.cfi_endproc
 1415              	.LFE193:
 1417              		.section	.text.lv_theme_simple_get,"ax",%progbits
 1418              		.align	1
 1419              		.global	lv_theme_simple_get
 1420              		.syntax unified
 1421              		.thumb
 1422              		.thumb_func
 1424              	lv_theme_simple_get:
 1425              	.LFB195:
 153:Drivers/lvgl/src/themes/simple/lv_theme_simple.c ****     if(!lv_theme_simple_is_inited()) {
 1426              		.loc 1 153 1 is_stmt 1 view -0
 1427              		.cfi_startproc
ARM GAS  /tmp/ccFdPeTq.s 			page 47


 1428              		@ args = 0, pretend = 0, frame = 0
 1429              		@ frame_needed = 0, uses_anonymous_args = 0
 1430 0000 08B5     		push	{r3, lr}
 1431              	.LCFI6:
 1432              		.cfi_def_cfa_offset 8
 1433              		.cfi_offset 3, -8
 1434              		.cfi_offset 14, -4
 154:Drivers/lvgl/src/themes/simple/lv_theme_simple.c ****         return NULL;
 1435              		.loc 1 154 5 view .LVU287
 154:Drivers/lvgl/src/themes/simple/lv_theme_simple.c ****         return NULL;
 1436              		.loc 1 154 9 is_stmt 0 view .LVU288
 1437 0002 FFF7FEFF 		bl	lv_theme_simple_is_inited
 1438              	.LVL191:
 154:Drivers/lvgl/src/themes/simple/lv_theme_simple.c ****         return NULL;
 1439              		.loc 1 154 7 discriminator 1 view .LVU289
 1440 0006 18B1     		cbz	r0, .L62
 158:Drivers/lvgl/src/themes/simple/lv_theme_simple.c **** }
 1441              		.loc 1 158 5 is_stmt 1 view .LVU290
 158:Drivers/lvgl/src/themes/simple/lv_theme_simple.c **** }
 1442              		.loc 1 158 12 is_stmt 0 view .LVU291
 1443 0008 024B     		ldr	r3, .L64
 1444 000a D3F8B801 		ldr	r0, [r3, #440]
 1445              	.L60:
 159:Drivers/lvgl/src/themes/simple/lv_theme_simple.c **** 
 1446              		.loc 1 159 1 view .LVU292
 1447 000e 08BD     		pop	{r3, pc}
 1448              	.L62:
 155:Drivers/lvgl/src/themes/simple/lv_theme_simple.c ****     }
 1449              		.loc 1 155 16 view .LVU293
 1450 0010 0020     		movs	r0, #0
 1451 0012 FCE7     		b	.L60
 1452              	.L65:
 1453              		.align	2
 1454              	.L64:
 1455 0014 00000000 		.word	lv_global
 1456              		.cfi_endproc
 1457              	.LFE195:
 1459              		.section	.text.lv_theme_simple_deinit,"ax",%progbits
 1460              		.align	1
 1461              		.global	lv_theme_simple_deinit
 1462              		.syntax unified
 1463              		.thumb
 1464              		.thumb_func
 1466              	lv_theme_simple_deinit:
 1467              	.LFB196:
 162:Drivers/lvgl/src/themes/simple/lv_theme_simple.c ****     my_theme_t * theme = theme_def;
 1468              		.loc 1 162 1 is_stmt 1 view -0
 1469              		.cfi_startproc
 1470              		@ args = 0, pretend = 0, frame = 0
 1471              		@ frame_needed = 0, uses_anonymous_args = 0
 1472 0000 38B5     		push	{r3, r4, r5, lr}
 1473              	.LCFI7:
 1474              		.cfi_def_cfa_offset 16
 1475              		.cfi_offset 3, -16
 1476              		.cfi_offset 4, -12
 1477              		.cfi_offset 5, -8
 1478              		.cfi_offset 14, -4
ARM GAS  /tmp/ccFdPeTq.s 			page 48


 163:Drivers/lvgl/src/themes/simple/lv_theme_simple.c ****     if(theme) {
 1479              		.loc 1 163 5 view .LVU295
 163:Drivers/lvgl/src/themes/simple/lv_theme_simple.c ****     if(theme) {
 1480              		.loc 1 163 18 is_stmt 0 view .LVU296
 1481 0002 0E4B     		ldr	r3, .L72
 1482 0004 D3F8B851 		ldr	r5, [r3, #440]
 1483              	.LVL192:
 164:Drivers/lvgl/src/themes/simple/lv_theme_simple.c ****         if(theme->inited) {
 1484              		.loc 1 164 5 is_stmt 1 view .LVU297
 164:Drivers/lvgl/src/themes/simple/lv_theme_simple.c ****         if(theme->inited) {
 1485              		.loc 1 164 7 is_stmt 0 view .LVU298
 1486 0008 B5B1     		cbz	r5, .L66
 165:Drivers/lvgl/src/themes/simple/lv_theme_simple.c ****             lv_style_t * theme_styles = (lv_style_t *)(&(theme->styles));
 1487              		.loc 1 165 9 is_stmt 1 view .LVU299
 165:Drivers/lvgl/src/themes/simple/lv_theme_simple.c ****             lv_style_t * theme_styles = (lv_style_t *)(&(theme->styles));
 1488              		.loc 1 165 17 is_stmt 0 view .LVU300
 1489 000a 95F8A030 		ldrb	r3, [r5, #160]	@ zero_extendqisi2
 165:Drivers/lvgl/src/themes/simple/lv_theme_simple.c ****             lv_style_t * theme_styles = (lv_style_t *)(&(theme->styles));
 1490              		.loc 1 165 11 view .LVU301
 1491 000e 5BB1     		cbz	r3, .L68
 1492              	.LBB2:
 166:Drivers/lvgl/src/themes/simple/lv_theme_simple.c ****             uint32_t i;
 1493              		.loc 1 166 13 is_stmt 1 view .LVU302
 166:Drivers/lvgl/src/themes/simple/lv_theme_simple.c ****             uint32_t i;
 1494              		.loc 1 166 26 is_stmt 0 view .LVU303
 1495 0010 2835     		adds	r5, r5, #40
 1496              	.LVL193:
 167:Drivers/lvgl/src/themes/simple/lv_theme_simple.c ****             for(i = 0; i < sizeof(my_theme_styles_t) / sizeof(lv_style_t); i++) {
 1497              		.loc 1 167 13 is_stmt 1 view .LVU304
 168:Drivers/lvgl/src/themes/simple/lv_theme_simple.c ****                 lv_style_reset(theme_styles + i);
 1498              		.loc 1 168 13 view .LVU305
 168:Drivers/lvgl/src/themes/simple/lv_theme_simple.c ****                 lv_style_reset(theme_styles + i);
 1499              		.loc 1 168 19 is_stmt 0 view .LVU306
 1500 0012 0024     		movs	r4, #0
 168:Drivers/lvgl/src/themes/simple/lv_theme_simple.c ****                 lv_style_reset(theme_styles + i);
 1501              		.loc 1 168 13 view .LVU307
 1502 0014 06E0     		b	.L69
 1503              	.LVL194:
 1504              	.L70:
 169:Drivers/lvgl/src/themes/simple/lv_theme_simple.c ****             }
 1505              		.loc 1 169 17 is_stmt 1 view .LVU308
 169:Drivers/lvgl/src/themes/simple/lv_theme_simple.c ****             }
 1506              		.loc 1 169 45 is_stmt 0 view .LVU309
 1507 0016 04EB4403 		add	r3, r4, r4, lsl #1
 1508 001a 9800     		lsls	r0, r3, #2
 169:Drivers/lvgl/src/themes/simple/lv_theme_simple.c ****             }
 1509              		.loc 1 169 17 view .LVU310
 1510 001c 2844     		add	r0, r0, r5
 1511 001e FFF7FEFF 		bl	lv_style_reset
 1512              	.LVL195:
 168:Drivers/lvgl/src/themes/simple/lv_theme_simple.c ****                 lv_style_reset(theme_styles + i);
 1513              		.loc 1 168 77 is_stmt 1 discriminator 3 view .LVU311
 1514 0022 0134     		adds	r4, r4, #1
 1515              	.LVL196:
 1516              	.L69:
 168:Drivers/lvgl/src/themes/simple/lv_theme_simple.c ****                 lv_style_reset(theme_styles + i);
 1517              		.loc 1 168 26 discriminator 1 view .LVU312
ARM GAS  /tmp/ccFdPeTq.s 			page 49


 1518 0024 092C     		cmp	r4, #9
 1519 0026 F6D9     		bls	.L70
 1520              	.LVL197:
 1521              	.L68:
 168:Drivers/lvgl/src/themes/simple/lv_theme_simple.c ****                 lv_style_reset(theme_styles + i);
 1522              		.loc 1 168 26 is_stmt 0 discriminator 1 view .LVU313
 1523              	.LBE2:
 172:Drivers/lvgl/src/themes/simple/lv_theme_simple.c ****         theme_def = NULL;
 1524              		.loc 1 172 9 is_stmt 1 view .LVU314
 1525 0028 044C     		ldr	r4, .L72
 1526 002a D4F8B801 		ldr	r0, [r4, #440]
 1527 002e FFF7FEFF 		bl	lv_free
 1528              	.LVL198:
 173:Drivers/lvgl/src/themes/simple/lv_theme_simple.c ****     }
 1529              		.loc 1 173 9 view .LVU315
 173:Drivers/lvgl/src/themes/simple/lv_theme_simple.c ****     }
 1530              		.loc 1 173 19 is_stmt 0 view .LVU316
 1531 0032 0023     		movs	r3, #0
 1532 0034 C4F8B831 		str	r3, [r4, #440]
 1533              	.L66:
 175:Drivers/lvgl/src/themes/simple/lv_theme_simple.c **** 
 1534              		.loc 1 175 1 view .LVU317
 1535 0038 38BD     		pop	{r3, r4, r5, pc}
 1536              	.L73:
 1537 003a 00BF     		.align	2
 1538              	.L72:
 1539 003c 00000000 		.word	lv_global
 1540              		.cfi_endproc
 1541              	.LFE196:
 1543              		.section	.text.lv_theme_simple_init,"ax",%progbits
 1544              		.align	1
 1545              		.global	lv_theme_simple_init
 1546              		.syntax unified
 1547              		.thumb
 1548              		.thumb_func
 1550              	lv_theme_simple_init:
 1551              	.LVL199:
 1552              	.LFB197:
 178:Drivers/lvgl/src/themes/simple/lv_theme_simple.c ****     /*This trick is required only to avoid the garbage collection of
 1553              		.loc 1 178 1 is_stmt 1 view -0
 1554              		.cfi_startproc
 1555              		@ args = 0, pretend = 0, frame = 0
 1556              		@ frame_needed = 0, uses_anonymous_args = 0
 178:Drivers/lvgl/src/themes/simple/lv_theme_simple.c ****     /*This trick is required only to avoid the garbage collection of
 1557              		.loc 1 178 1 is_stmt 0 view .LVU319
 1558 0000 38B5     		push	{r3, r4, r5, lr}
 1559              	.LCFI8:
 1560              		.cfi_def_cfa_offset 16
 1561              		.cfi_offset 3, -16
 1562              		.cfi_offset 4, -12
 1563              		.cfi_offset 5, -8
 1564              		.cfi_offset 14, -4
 1565 0002 0546     		mov	r5, r0
 182:Drivers/lvgl/src/themes/simple/lv_theme_simple.c ****         theme_def  = lv_malloc_zeroed(sizeof(my_theme_t));
 1566              		.loc 1 182 5 is_stmt 1 view .LVU320
 182:Drivers/lvgl/src/themes/simple/lv_theme_simple.c ****         theme_def  = lv_malloc_zeroed(sizeof(my_theme_t));
 1567              		.loc 1 182 9 is_stmt 0 view .LVU321
ARM GAS  /tmp/ccFdPeTq.s 			page 50


 1568 0004 FFF7FEFF 		bl	lv_theme_simple_is_inited
 1569              	.LVL200:
 182:Drivers/lvgl/src/themes/simple/lv_theme_simple.c ****         theme_def  = lv_malloc_zeroed(sizeof(my_theme_t));
 1570              		.loc 1 182 7 discriminator 1 view .LVU322
 1571 0008 E0B1     		cbz	r0, .L79
 1572              	.L75:
 186:Drivers/lvgl/src/themes/simple/lv_theme_simple.c **** 
 1573              		.loc 1 186 5 is_stmt 1 view .LVU323
 186:Drivers/lvgl/src/themes/simple/lv_theme_simple.c **** 
 1574              		.loc 1 186 18 is_stmt 0 view .LVU324
 1575 000a 124B     		ldr	r3, .L80
 1576 000c D3F8B841 		ldr	r4, [r3, #440]
 1577              	.LVL201:
 188:Drivers/lvgl/src/themes/simple/lv_theme_simple.c ****     theme->base.font_small = LV_FONT_DEFAULT;
 1578              		.loc 1 188 5 is_stmt 1 view .LVU325
 188:Drivers/lvgl/src/themes/simple/lv_theme_simple.c ****     theme->base.font_small = LV_FONT_DEFAULT;
 1579              		.loc 1 188 22 is_stmt 0 view .LVU326
 1580 0010 E560     		str	r5, [r4, #12]
 189:Drivers/lvgl/src/themes/simple/lv_theme_simple.c ****     theme->base.font_normal = LV_FONT_DEFAULT;
 1581              		.loc 1 189 5 is_stmt 1 view .LVU327
 189:Drivers/lvgl/src/themes/simple/lv_theme_simple.c ****     theme->base.font_normal = LV_FONT_DEFAULT;
 1582              		.loc 1 189 28 is_stmt 0 view .LVU328
 1583 0012 114B     		ldr	r3, .L80+4
 1584 0014 A361     		str	r3, [r4, #24]
 190:Drivers/lvgl/src/themes/simple/lv_theme_simple.c ****     theme->base.font_large = LV_FONT_DEFAULT;
 1585              		.loc 1 190 5 is_stmt 1 view .LVU329
 190:Drivers/lvgl/src/themes/simple/lv_theme_simple.c ****     theme->base.font_large = LV_FONT_DEFAULT;
 1586              		.loc 1 190 29 is_stmt 0 view .LVU330
 1587 0016 E361     		str	r3, [r4, #28]
 191:Drivers/lvgl/src/themes/simple/lv_theme_simple.c ****     theme->base.apply_cb = theme_apply;
 1588              		.loc 1 191 5 is_stmt 1 view .LVU331
 191:Drivers/lvgl/src/themes/simple/lv_theme_simple.c ****     theme->base.apply_cb = theme_apply;
 1589              		.loc 1 191 28 is_stmt 0 view .LVU332
 1590 0018 2362     		str	r3, [r4, #32]
 192:Drivers/lvgl/src/themes/simple/lv_theme_simple.c **** 
 1591              		.loc 1 192 5 is_stmt 1 view .LVU333
 192:Drivers/lvgl/src/themes/simple/lv_theme_simple.c **** 
 1592              		.loc 1 192 26 is_stmt 0 view .LVU334
 1593 001a 104B     		ldr	r3, .L80+8
 1594 001c 2360     		str	r3, [r4]
 194:Drivers/lvgl/src/themes/simple/lv_theme_simple.c **** 
 1595              		.loc 1 194 5 is_stmt 1 view .LVU335
 1596 001e 2046     		mov	r0, r4
 1597 0020 FFF7FEFF 		bl	style_init
 1598              	.LVL202:
 196:Drivers/lvgl/src/themes/simple/lv_theme_simple.c ****         lv_obj_report_style_change(NULL);
 1599              		.loc 1 196 5 view .LVU336
 196:Drivers/lvgl/src/themes/simple/lv_theme_simple.c ****         lv_obj_report_style_change(NULL);
 1600              		.loc 1 196 7 is_stmt 0 view .LVU337
 1601 0024 25B1     		cbz	r5, .L76
 196:Drivers/lvgl/src/themes/simple/lv_theme_simple.c ****         lv_obj_report_style_change(NULL);
 1602              		.loc 1 196 24 discriminator 1 view .LVU338
 1603 0026 2846     		mov	r0, r5
 1604 0028 FFF7FEFF 		bl	lv_display_get_theme
 1605              	.LVL203:
 196:Drivers/lvgl/src/themes/simple/lv_theme_simple.c ****         lv_obj_report_style_change(NULL);
 1606              		.loc 1 196 21 discriminator 1 view .LVU339
ARM GAS  /tmp/ccFdPeTq.s 			page 51


 1607 002c 8442     		cmp	r4, r0
 1608 002e 02D1     		bne	.L77
 1609              	.L76:
 197:Drivers/lvgl/src/themes/simple/lv_theme_simple.c ****     }
 1610              		.loc 1 197 9 is_stmt 1 view .LVU340
 1611 0030 0020     		movs	r0, #0
 1612 0032 FFF7FEFF 		bl	lv_obj_report_style_change
 1613              	.LVL204:
 1614              	.L77:
 200:Drivers/lvgl/src/themes/simple/lv_theme_simple.c **** 
 1615              		.loc 1 200 5 view .LVU341
 200:Drivers/lvgl/src/themes/simple/lv_theme_simple.c **** 
 1616              		.loc 1 200 19 is_stmt 0 view .LVU342
 1617 0036 0123     		movs	r3, #1
 1618 0038 84F8A030 		strb	r3, [r4, #160]
 202:Drivers/lvgl/src/themes/simple/lv_theme_simple.c **** }
 1619              		.loc 1 202 5 is_stmt 1 view .LVU343
 203:Drivers/lvgl/src/themes/simple/lv_theme_simple.c **** 
 1620              		.loc 1 203 1 is_stmt 0 view .LVU344
 1621 003c 054B     		ldr	r3, .L80
 1622 003e D3F8B801 		ldr	r0, [r3, #440]
 1623 0042 38BD     		pop	{r3, r4, r5, pc}
 1624              	.LVL205:
 1625              	.L79:
 183:Drivers/lvgl/src/themes/simple/lv_theme_simple.c ****     }
 1626              		.loc 1 183 9 is_stmt 1 view .LVU345
 183:Drivers/lvgl/src/themes/simple/lv_theme_simple.c ****     }
 1627              		.loc 1 183 22 is_stmt 0 view .LVU346
 1628 0044 A420     		movs	r0, #164
 1629 0046 FFF7FEFF 		bl	lv_malloc_zeroed
 1630              	.LVL206:
 183:Drivers/lvgl/src/themes/simple/lv_theme_simple.c ****     }
 1631              		.loc 1 183 20 discriminator 1 view .LVU347
 1632 004a 024B     		ldr	r3, .L80
 1633 004c C3F8B801 		str	r0, [r3, #440]
 1634 0050 DBE7     		b	.L75
 1635              	.L81:
 1636 0052 00BF     		.align	2
 1637              	.L80:
 1638 0054 00000000 		.word	lv_global
 1639 0058 00000000 		.word	lv_font_montserrat_14
 1640 005c 00000000 		.word	theme_apply
 1641              		.cfi_endproc
 1642              	.LFE197:
 1644              		.text
 1645              	.Letext0:
 1646              		.file 3 "/usr/arm-none-eabi/include/machine/_default_types.h"
 1647              		.file 4 "/usr/arm-none-eabi/include/sys/_stdint.h"
 1648              		.file 5 "/usr/lib/gcc/arm-none-eabi/14.2.0/include/stddef.h"
 1649              		.file 6 "Drivers/lvgl/src/themes/simple/../../core/../misc/lv_types.h"
 1650              		.file 7 "Drivers/lvgl/src/themes/simple/../../core/../draw/lv_draw.h"
 1651              		.file 8 "Drivers/lvgl/src/themes/simple/../../core/../draw/lv_draw_private.h"
 1652              		.file 9 "Drivers/lvgl/src/themes/simple/../../core/../misc/lv_timer_private.h"
 1653              		.file 10 "Drivers/lvgl/src/themes/simple/../lv_theme_private.h"
 1654              		.file 11 "Drivers/lvgl/src/themes/simple/../../core/../misc/../font/lv_font.h"
 1655              		.file 12 "Drivers/lvgl/src/themes/simple/../../core/../draw/../misc/cache/lv_cache_private.h"
 1656              		.file 13 "Drivers/lvgl/src/themes/simple/../../core/../draw/lv_draw_buf_private.h"
ARM GAS  /tmp/ccFdPeTq.s 			page 52


 1657              		.file 14 "Drivers/lvgl/src/themes/simple/../../core/../misc/../font/../draw/lv_draw_buf.h"
 1658              		.file 15 "Drivers/lvgl/src/themes/simple/../../core/../misc/../font/../draw/../misc/lv_area.h"
 1659              		.file 16 "Drivers/lvgl/src/themes/simple/../../core/../misc/../font/../draw/../misc/lv_color.h"
 1660              		.file 17 "Drivers/lvgl/src/themes/simple/../../core/../misc/../font/../draw/../misc/lv_palette.h"
 1661              		.file 18 "Drivers/lvgl/src/themes/simple/../../core/../misc/../font/../draw/lv_image_dsc.h"
 1662              		.file 19 "Drivers/lvgl/src/themes/simple/../../core/../misc/../tick/lv_tick.h"
 1663              		.file 20 "Drivers/lvgl/src/themes/simple/../../core/../misc/lv_ll.h"
 1664              		.file 21 "Drivers/lvgl/src/themes/simple/../../core/../misc/lv_timer.h"
 1665              		.file 22 "Drivers/lvgl/src/themes/simple/../../core/../misc/../layouts/lv_layout.h"
 1666              		.file 23 "Drivers/lvgl/src/themes/simple/../../core/lv_obj_style.h"
 1667              		.file 24 "Drivers/lvgl/src/themes/simple/../../core/lv_obj.h"
 1668              		.file 25 "Drivers/lvgl/src/themes/simple/../lv_theme.h"
 1669              		.file 26 "Drivers/lvgl/src/themes/simple/../../../src/widgets/arc/lv_arc.h"
 1670              		.file 27 "Drivers/lvgl/src/themes/simple/../../../src/widgets/bar/lv_bar.h"
 1671              		.file 28 "Drivers/lvgl/src/themes/simple/../../../src/widgets/button/lv_button.h"
 1672              		.file 29 "Drivers/lvgl/src/themes/simple/../../../src/widgets/buttonmatrix/lv_buttonmatrix.h"
 1673              		.file 30 "Drivers/lvgl/src/themes/simple/../../../src/widgets/calendar/lv_calendar.h"
 1674              		.file 31 "Drivers/lvgl/src/themes/simple/../../../src/widgets/chart/lv_chart.h"
 1675              		.file 32 "Drivers/lvgl/src/themes/simple/../../../src/widgets/checkbox/lv_checkbox.h"
 1676              		.file 33 "Drivers/lvgl/src/themes/simple/../../../src/widgets/dropdown/lv_dropdown.h"
 1677              		.file 34 "Drivers/lvgl/src/themes/simple/../../../src/widgets/keyboard/lv_keyboard.h"
 1678              		.file 35 "Drivers/lvgl/src/themes/simple/../../../src/widgets/led/lv_led.h"
 1679              		.file 36 "Drivers/lvgl/src/themes/simple/../../../src/widgets/list/lv_list.h"
 1680              		.file 37 "Drivers/lvgl/src/themes/simple/../../../src/widgets/msgbox/lv_msgbox.h"
 1681              		.file 38 "Drivers/lvgl/src/themes/simple/../../../src/widgets/roller/lv_roller.h"
 1682              		.file 39 "Drivers/lvgl/src/themes/simple/../../../src/widgets/slider/lv_slider.h"
 1683              		.file 40 "Drivers/lvgl/src/themes/simple/../../../src/widgets/spinbox/../textarea/lv_textarea.h"
 1684              		.file 41 "Drivers/lvgl/src/themes/simple/../../../src/widgets/spinbox/lv_spinbox.h"
 1685              		.file 42 "Drivers/lvgl/src/themes/simple/../../../src/widgets/spinner/lv_spinner.h"
 1686              		.file 43 "Drivers/lvgl/src/themes/simple/../../../src/widgets/switch/lv_switch.h"
 1687              		.file 44 "Drivers/lvgl/src/themes/simple/../../../src/widgets/table/lv_table.h"
 1688              		.file 45 "Drivers/lvgl/src/themes/simple/../../../src/widgets/tabview/lv_tabview.h"
 1689              		.file 46 "Drivers/lvgl/src/themes/simple/../../../src/widgets/tileview/lv_tileview.h"
 1690              		.file 47 "Drivers/lvgl/src/themes/simple/../../../src/widgets/win/lv_win.h"
 1691              		.file 48 "Drivers/lvgl/src/themes/simple/../../core/../draw/sw/../../osal/lv_os_none.h"
 1692              		.file 49 "Drivers/lvgl/src/themes/simple/../../core/../misc/lv_anim_private.h"
 1693              		.file 50 "Drivers/lvgl/src/themes/simple/../../core/../tick/lv_tick_private.h"
 1694              		.file 51 "Drivers/lvgl/src/themes/simple/../../core/../draw/sw/lv_draw_sw_mask_private.h"
 1695              		.file 52 "Drivers/lvgl/src/themes/simple/../../core/../layouts/lv_layout_private.h"
 1696              		.file 53 "Drivers/lvgl/src/themes/simple/../../core/lv_global.h"
 1697              		.file 54 "Drivers/lvgl/src/themes/simple/../../core/../misc/lv_style_gen.h"
 1698              		.file 55 "Drivers/lvgl/src/themes/simple/../../core/lv_obj_tree.h"
 1699              		.file 56 "Drivers/lvgl/src/themes/simple/../../core/../display/lv_display.h"
 1700              		.file 57 "Drivers/lvgl/src/themes/simple/../../core/../misc/../font/../draw/../misc/../stdlib/lv_m
ARM GAS  /tmp/ccFdPeTq.s 			page 53

