ARM GAS  /tmp/ccu0iwlI.s 			page 1


   1              		.cpu cortex-m7
   2              		.arch armv7e-m
   3              		.fpu fpv5-sp-d16
   4              		.eabi_attribute 27, 1
   5              		.eabi_attribute 28, 1
   6              		.eabi_attribute 20, 1
   7              		.eabi_attribute 21, 1
   8              		.eabi_attribute 23, 3
   9              		.eabi_attribute 24, 1
  10              		.eabi_attribute 25, 1
  11              		.eabi_attribute 26, 1
  12              		.eabi_attribute 30, 1
  13              		.eabi_attribute 34, 1
  14              		.eabi_attribute 18, 4
  15              		.file	"lv_timer.c"
  16              		.text
  17              	.Ltext0:
  18              		.cfi_sections	.debug_frame
  19              		.file 1 "Drivers/lvgl/src/misc/lv_timer.c"
  20              		.section	.text.lv_timer_handler_resume,"ax",%progbits
  21              		.align	1
  22              		.syntax unified
  23              		.thumb
  24              		.thumb_func
  26              	lv_timer_handler_resume:
  27              	.LFB211:
   1:Drivers/lvgl/src/misc/lv_timer.c **** /**
   2:Drivers/lvgl/src/misc/lv_timer.c ****  * @file lv_timer.c
   3:Drivers/lvgl/src/misc/lv_timer.c ****  */
   4:Drivers/lvgl/src/misc/lv_timer.c **** 
   5:Drivers/lvgl/src/misc/lv_timer.c **** /*********************
   6:Drivers/lvgl/src/misc/lv_timer.c ****  *      INCLUDES
   7:Drivers/lvgl/src/misc/lv_timer.c ****  *********************/
   8:Drivers/lvgl/src/misc/lv_timer.c **** #include "lv_timer_private.h"
   9:Drivers/lvgl/src/misc/lv_timer.c **** #include "../core/lv_global.h"
  10:Drivers/lvgl/src/misc/lv_timer.c **** #include "../tick/lv_tick.h"
  11:Drivers/lvgl/src/misc/lv_timer.c **** #include "../stdlib/lv_mem.h"
  12:Drivers/lvgl/src/misc/lv_timer.c **** #include "../stdlib/lv_sprintf.h"
  13:Drivers/lvgl/src/misc/lv_timer.c **** #include "lv_assert.h"
  14:Drivers/lvgl/src/misc/lv_timer.c **** #include "lv_ll.h"
  15:Drivers/lvgl/src/misc/lv_timer.c **** #include "lv_profiler.h"
  16:Drivers/lvgl/src/misc/lv_timer.c **** 
  17:Drivers/lvgl/src/misc/lv_timer.c **** /*********************
  18:Drivers/lvgl/src/misc/lv_timer.c ****  *      DEFINES
  19:Drivers/lvgl/src/misc/lv_timer.c ****  *********************/
  20:Drivers/lvgl/src/misc/lv_timer.c **** 
  21:Drivers/lvgl/src/misc/lv_timer.c **** #define IDLE_MEAS_PERIOD 500 /*[ms]*/
  22:Drivers/lvgl/src/misc/lv_timer.c **** #define DEF_PERIOD 500
  23:Drivers/lvgl/src/misc/lv_timer.c **** 
  24:Drivers/lvgl/src/misc/lv_timer.c **** #define state LV_GLOBAL_DEFAULT()->timer_state
  25:Drivers/lvgl/src/misc/lv_timer.c **** #define timer_ll_p &(state.timer_ll)
  26:Drivers/lvgl/src/misc/lv_timer.c **** 
  27:Drivers/lvgl/src/misc/lv_timer.c **** /**********************
  28:Drivers/lvgl/src/misc/lv_timer.c ****  *      TYPEDEFS
  29:Drivers/lvgl/src/misc/lv_timer.c ****  **********************/
  30:Drivers/lvgl/src/misc/lv_timer.c **** 
  31:Drivers/lvgl/src/misc/lv_timer.c **** /**********************
ARM GAS  /tmp/ccu0iwlI.s 			page 2


  32:Drivers/lvgl/src/misc/lv_timer.c ****  *  STATIC PROTOTYPES
  33:Drivers/lvgl/src/misc/lv_timer.c ****  **********************/
  34:Drivers/lvgl/src/misc/lv_timer.c **** static bool lv_timer_exec(lv_timer_t * timer);
  35:Drivers/lvgl/src/misc/lv_timer.c **** static uint32_t lv_timer_time_remaining(lv_timer_t * timer);
  36:Drivers/lvgl/src/misc/lv_timer.c **** static void lv_timer_handler_resume(void);
  37:Drivers/lvgl/src/misc/lv_timer.c **** 
  38:Drivers/lvgl/src/misc/lv_timer.c **** /**********************
  39:Drivers/lvgl/src/misc/lv_timer.c ****  *  STATIC VARIABLES
  40:Drivers/lvgl/src/misc/lv_timer.c ****  **********************/
  41:Drivers/lvgl/src/misc/lv_timer.c **** 
  42:Drivers/lvgl/src/misc/lv_timer.c **** /**********************
  43:Drivers/lvgl/src/misc/lv_timer.c ****  *      MACROS
  44:Drivers/lvgl/src/misc/lv_timer.c ****  **********************/
  45:Drivers/lvgl/src/misc/lv_timer.c **** #if LV_USE_LOG && LV_LOG_TRACE_TIMER
  46:Drivers/lvgl/src/misc/lv_timer.c ****     #define LV_TRACE_TIMER(...) LV_LOG_TRACE(__VA_ARGS__)
  47:Drivers/lvgl/src/misc/lv_timer.c **** #else
  48:Drivers/lvgl/src/misc/lv_timer.c ****     #define LV_TRACE_TIMER(...)
  49:Drivers/lvgl/src/misc/lv_timer.c **** #endif
  50:Drivers/lvgl/src/misc/lv_timer.c **** 
  51:Drivers/lvgl/src/misc/lv_timer.c **** /**********************
  52:Drivers/lvgl/src/misc/lv_timer.c ****  *   GLOBAL FUNCTIONS
  53:Drivers/lvgl/src/misc/lv_timer.c ****  **********************/
  54:Drivers/lvgl/src/misc/lv_timer.c **** 
  55:Drivers/lvgl/src/misc/lv_timer.c **** void lv_timer_core_init(void)
  56:Drivers/lvgl/src/misc/lv_timer.c **** {
  57:Drivers/lvgl/src/misc/lv_timer.c ****     lv_ll_init(timer_ll_p, sizeof(lv_timer_t));
  58:Drivers/lvgl/src/misc/lv_timer.c **** 
  59:Drivers/lvgl/src/misc/lv_timer.c ****     /*Initially enable the lv_timer handling*/
  60:Drivers/lvgl/src/misc/lv_timer.c ****     lv_timer_enable(true);
  61:Drivers/lvgl/src/misc/lv_timer.c **** }
  62:Drivers/lvgl/src/misc/lv_timer.c **** 
  63:Drivers/lvgl/src/misc/lv_timer.c **** LV_ATTRIBUTE_TIMER_HANDLER uint32_t lv_timer_handler(void)
  64:Drivers/lvgl/src/misc/lv_timer.c **** {
  65:Drivers/lvgl/src/misc/lv_timer.c ****     LV_TRACE_TIMER("begin");
  66:Drivers/lvgl/src/misc/lv_timer.c **** 
  67:Drivers/lvgl/src/misc/lv_timer.c ****     lv_timer_state_t * state_p = &state;
  68:Drivers/lvgl/src/misc/lv_timer.c ****     /*Avoid concurrent running of the timer handler*/
  69:Drivers/lvgl/src/misc/lv_timer.c ****     if(state_p->already_running) {
  70:Drivers/lvgl/src/misc/lv_timer.c ****         LV_TRACE_TIMER("already running, concurrent calls are not allow, returning");
  71:Drivers/lvgl/src/misc/lv_timer.c ****         return 1;
  72:Drivers/lvgl/src/misc/lv_timer.c ****     }
  73:Drivers/lvgl/src/misc/lv_timer.c ****     state_p->already_running = true;
  74:Drivers/lvgl/src/misc/lv_timer.c **** 
  75:Drivers/lvgl/src/misc/lv_timer.c ****     if(state_p->lv_timer_run == false) {
  76:Drivers/lvgl/src/misc/lv_timer.c ****         state_p->already_running = false; /*Release mutex*/
  77:Drivers/lvgl/src/misc/lv_timer.c ****         return 1;
  78:Drivers/lvgl/src/misc/lv_timer.c ****     }
  79:Drivers/lvgl/src/misc/lv_timer.c **** 
  80:Drivers/lvgl/src/misc/lv_timer.c ****     LV_PROFILER_TIMER_BEGIN;
  81:Drivers/lvgl/src/misc/lv_timer.c ****     lv_lock();
  82:Drivers/lvgl/src/misc/lv_timer.c **** 
  83:Drivers/lvgl/src/misc/lv_timer.c ****     uint32_t handler_start = lv_tick_get();
  84:Drivers/lvgl/src/misc/lv_timer.c **** 
  85:Drivers/lvgl/src/misc/lv_timer.c ****     if(handler_start == 0) {
  86:Drivers/lvgl/src/misc/lv_timer.c ****         state.run_cnt++;
  87:Drivers/lvgl/src/misc/lv_timer.c ****         if(state.run_cnt > 100) {
  88:Drivers/lvgl/src/misc/lv_timer.c ****             state.run_cnt = 0;
ARM GAS  /tmp/ccu0iwlI.s 			page 3


  89:Drivers/lvgl/src/misc/lv_timer.c ****             LV_LOG_WARN("It seems lv_tick_inc() is not called.");
  90:Drivers/lvgl/src/misc/lv_timer.c ****         }
  91:Drivers/lvgl/src/misc/lv_timer.c ****     }
  92:Drivers/lvgl/src/misc/lv_timer.c **** 
  93:Drivers/lvgl/src/misc/lv_timer.c ****     /*Run all timer from the list*/
  94:Drivers/lvgl/src/misc/lv_timer.c ****     lv_timer_t * next;
  95:Drivers/lvgl/src/misc/lv_timer.c ****     lv_timer_t * timer_active;
  96:Drivers/lvgl/src/misc/lv_timer.c ****     lv_ll_t * timer_head = timer_ll_p;
  97:Drivers/lvgl/src/misc/lv_timer.c ****     do {
  98:Drivers/lvgl/src/misc/lv_timer.c ****         state_p->timer_deleted             = false;
  99:Drivers/lvgl/src/misc/lv_timer.c ****         state_p->timer_created             = false;
 100:Drivers/lvgl/src/misc/lv_timer.c **** 
 101:Drivers/lvgl/src/misc/lv_timer.c ****         timer_active = lv_ll_get_head(timer_head);
 102:Drivers/lvgl/src/misc/lv_timer.c ****         while(timer_active) {
 103:Drivers/lvgl/src/misc/lv_timer.c ****             /*The timer might be deleted if it runs only once ('repeat_count = 1')
 104:Drivers/lvgl/src/misc/lv_timer.c ****              *So get next element until the current is surely valid*/
 105:Drivers/lvgl/src/misc/lv_timer.c ****             next = lv_ll_get_next(timer_head, timer_active);
 106:Drivers/lvgl/src/misc/lv_timer.c **** 
 107:Drivers/lvgl/src/misc/lv_timer.c ****             if(lv_timer_exec(timer_active)) {
 108:Drivers/lvgl/src/misc/lv_timer.c ****                 /*If a timer was created or deleted then this or the next item might be corrupted*/
 109:Drivers/lvgl/src/misc/lv_timer.c ****                 if(state_p->timer_created || state_p->timer_deleted) {
 110:Drivers/lvgl/src/misc/lv_timer.c ****                     LV_TRACE_TIMER("Start from the first timer again because a timer was created or
 111:Drivers/lvgl/src/misc/lv_timer.c ****                     break;
 112:Drivers/lvgl/src/misc/lv_timer.c ****                 }
 113:Drivers/lvgl/src/misc/lv_timer.c ****             }
 114:Drivers/lvgl/src/misc/lv_timer.c **** 
 115:Drivers/lvgl/src/misc/lv_timer.c ****             timer_active = next; /*Load the next timer*/
 116:Drivers/lvgl/src/misc/lv_timer.c ****         }
 117:Drivers/lvgl/src/misc/lv_timer.c ****     } while(timer_active);
 118:Drivers/lvgl/src/misc/lv_timer.c **** 
 119:Drivers/lvgl/src/misc/lv_timer.c ****     uint32_t time_until_next = LV_NO_TIMER_READY;
 120:Drivers/lvgl/src/misc/lv_timer.c ****     next = lv_ll_get_head(timer_head);
 121:Drivers/lvgl/src/misc/lv_timer.c ****     while(next) {
 122:Drivers/lvgl/src/misc/lv_timer.c ****         if(!next->paused) {
 123:Drivers/lvgl/src/misc/lv_timer.c ****             uint32_t delay = lv_timer_time_remaining(next);
 124:Drivers/lvgl/src/misc/lv_timer.c ****             if(delay < time_until_next)
 125:Drivers/lvgl/src/misc/lv_timer.c ****                 time_until_next = delay;
 126:Drivers/lvgl/src/misc/lv_timer.c ****         }
 127:Drivers/lvgl/src/misc/lv_timer.c **** 
 128:Drivers/lvgl/src/misc/lv_timer.c ****         next = lv_ll_get_next(timer_head, next); /*Find the next timer*/
 129:Drivers/lvgl/src/misc/lv_timer.c ****     }
 130:Drivers/lvgl/src/misc/lv_timer.c **** 
 131:Drivers/lvgl/src/misc/lv_timer.c ****     state_p->busy_time += lv_tick_elaps(handler_start);
 132:Drivers/lvgl/src/misc/lv_timer.c ****     uint32_t idle_period_time = lv_tick_elaps(state_p->idle_period_start);
 133:Drivers/lvgl/src/misc/lv_timer.c ****     if(idle_period_time >= IDLE_MEAS_PERIOD) {
 134:Drivers/lvgl/src/misc/lv_timer.c ****         state_p->idle_last         = (state_p->busy_time * 100) / idle_period_time;  /*Calculate th
 135:Drivers/lvgl/src/misc/lv_timer.c ****         state_p->idle_last         = state_p->idle_last > 100 ? 0 : 100 - state_p->idle_last; /*But
 136:Drivers/lvgl/src/misc/lv_timer.c ****         state_p->busy_time         = 0;
 137:Drivers/lvgl/src/misc/lv_timer.c ****         state_p->idle_period_start = lv_tick_get();
 138:Drivers/lvgl/src/misc/lv_timer.c ****     }
 139:Drivers/lvgl/src/misc/lv_timer.c **** 
 140:Drivers/lvgl/src/misc/lv_timer.c ****     state_p->timer_time_until_next = time_until_next;
 141:Drivers/lvgl/src/misc/lv_timer.c ****     state_p->already_running = false; /*Release the mutex*/
 142:Drivers/lvgl/src/misc/lv_timer.c **** 
 143:Drivers/lvgl/src/misc/lv_timer.c ****     LV_TRACE_TIMER("finished (%" LV_PRIu32 " ms until the next timer call)", time_until_next);
 144:Drivers/lvgl/src/misc/lv_timer.c ****     lv_unlock();
 145:Drivers/lvgl/src/misc/lv_timer.c **** 
ARM GAS  /tmp/ccu0iwlI.s 			page 4


 146:Drivers/lvgl/src/misc/lv_timer.c ****     LV_PROFILER_TIMER_END;
 147:Drivers/lvgl/src/misc/lv_timer.c ****     return time_until_next;
 148:Drivers/lvgl/src/misc/lv_timer.c **** }
 149:Drivers/lvgl/src/misc/lv_timer.c **** 
 150:Drivers/lvgl/src/misc/lv_timer.c **** LV_ATTRIBUTE_TIMER_HANDLER void lv_timer_periodic_handler(void)
 151:Drivers/lvgl/src/misc/lv_timer.c **** {
 152:Drivers/lvgl/src/misc/lv_timer.c ****     lv_timer_state_t * state_p = &state;
 153:Drivers/lvgl/src/misc/lv_timer.c ****     if(lv_tick_elaps(state_p->periodic_last_tick) >= state_p->timer_time_until_next) {
 154:Drivers/lvgl/src/misc/lv_timer.c ****         LV_TRACE_TIMER("calling lv_timer_handler()");
 155:Drivers/lvgl/src/misc/lv_timer.c ****         lv_timer_handler();
 156:Drivers/lvgl/src/misc/lv_timer.c ****         state_p->periodic_last_tick = lv_tick_get();
 157:Drivers/lvgl/src/misc/lv_timer.c ****     }
 158:Drivers/lvgl/src/misc/lv_timer.c **** }
 159:Drivers/lvgl/src/misc/lv_timer.c **** 
 160:Drivers/lvgl/src/misc/lv_timer.c **** lv_timer_t * lv_timer_create_basic(void)
 161:Drivers/lvgl/src/misc/lv_timer.c **** {
 162:Drivers/lvgl/src/misc/lv_timer.c ****     return lv_timer_create(NULL, DEF_PERIOD, NULL);
 163:Drivers/lvgl/src/misc/lv_timer.c **** }
 164:Drivers/lvgl/src/misc/lv_timer.c **** 
 165:Drivers/lvgl/src/misc/lv_timer.c **** lv_timer_t * lv_timer_create(lv_timer_cb_t timer_xcb, uint32_t period, void * user_data)
 166:Drivers/lvgl/src/misc/lv_timer.c **** {
 167:Drivers/lvgl/src/misc/lv_timer.c ****     lv_timer_t * new_timer = NULL;
 168:Drivers/lvgl/src/misc/lv_timer.c **** 
 169:Drivers/lvgl/src/misc/lv_timer.c ****     new_timer = lv_ll_ins_head(timer_ll_p);
 170:Drivers/lvgl/src/misc/lv_timer.c ****     LV_ASSERT_MALLOC(new_timer);
 171:Drivers/lvgl/src/misc/lv_timer.c ****     if(new_timer == NULL) return NULL;
 172:Drivers/lvgl/src/misc/lv_timer.c **** 
 173:Drivers/lvgl/src/misc/lv_timer.c ****     new_timer->period = period;
 174:Drivers/lvgl/src/misc/lv_timer.c ****     new_timer->timer_cb = timer_xcb;
 175:Drivers/lvgl/src/misc/lv_timer.c ****     new_timer->repeat_count = -1;
 176:Drivers/lvgl/src/misc/lv_timer.c ****     new_timer->paused = 0;
 177:Drivers/lvgl/src/misc/lv_timer.c ****     new_timer->last_run = lv_tick_get();
 178:Drivers/lvgl/src/misc/lv_timer.c ****     new_timer->user_data = user_data;
 179:Drivers/lvgl/src/misc/lv_timer.c ****     new_timer->auto_delete = true;
 180:Drivers/lvgl/src/misc/lv_timer.c **** 
 181:Drivers/lvgl/src/misc/lv_timer.c ****     state.timer_created = true;
 182:Drivers/lvgl/src/misc/lv_timer.c **** 
 183:Drivers/lvgl/src/misc/lv_timer.c ****     lv_timer_handler_resume();
 184:Drivers/lvgl/src/misc/lv_timer.c **** 
 185:Drivers/lvgl/src/misc/lv_timer.c ****     return new_timer;
 186:Drivers/lvgl/src/misc/lv_timer.c **** }
 187:Drivers/lvgl/src/misc/lv_timer.c **** 
 188:Drivers/lvgl/src/misc/lv_timer.c **** void lv_timer_set_cb(lv_timer_t * timer, lv_timer_cb_t timer_cb)
 189:Drivers/lvgl/src/misc/lv_timer.c **** {
 190:Drivers/lvgl/src/misc/lv_timer.c ****     LV_ASSERT_NULL(timer);
 191:Drivers/lvgl/src/misc/lv_timer.c ****     timer->timer_cb = timer_cb;
 192:Drivers/lvgl/src/misc/lv_timer.c **** }
 193:Drivers/lvgl/src/misc/lv_timer.c **** 
 194:Drivers/lvgl/src/misc/lv_timer.c **** void lv_timer_delete(lv_timer_t * timer)
 195:Drivers/lvgl/src/misc/lv_timer.c **** {
 196:Drivers/lvgl/src/misc/lv_timer.c ****     lv_ll_remove(timer_ll_p, timer);
 197:Drivers/lvgl/src/misc/lv_timer.c ****     state.timer_deleted = true;
 198:Drivers/lvgl/src/misc/lv_timer.c **** 
 199:Drivers/lvgl/src/misc/lv_timer.c ****     lv_free(timer);
 200:Drivers/lvgl/src/misc/lv_timer.c **** }
 201:Drivers/lvgl/src/misc/lv_timer.c **** 
 202:Drivers/lvgl/src/misc/lv_timer.c **** void lv_timer_pause(lv_timer_t * timer)
ARM GAS  /tmp/ccu0iwlI.s 			page 5


 203:Drivers/lvgl/src/misc/lv_timer.c **** {
 204:Drivers/lvgl/src/misc/lv_timer.c ****     LV_ASSERT_NULL(timer);
 205:Drivers/lvgl/src/misc/lv_timer.c ****     timer->paused = true;
 206:Drivers/lvgl/src/misc/lv_timer.c **** }
 207:Drivers/lvgl/src/misc/lv_timer.c **** 
 208:Drivers/lvgl/src/misc/lv_timer.c **** void lv_timer_resume(lv_timer_t * timer)
 209:Drivers/lvgl/src/misc/lv_timer.c **** {
 210:Drivers/lvgl/src/misc/lv_timer.c ****     LV_ASSERT_NULL(timer);
 211:Drivers/lvgl/src/misc/lv_timer.c ****     timer->paused = false;
 212:Drivers/lvgl/src/misc/lv_timer.c ****     lv_timer_handler_resume();
 213:Drivers/lvgl/src/misc/lv_timer.c **** }
 214:Drivers/lvgl/src/misc/lv_timer.c **** 
 215:Drivers/lvgl/src/misc/lv_timer.c **** void lv_timer_set_period(lv_timer_t * timer, uint32_t period)
 216:Drivers/lvgl/src/misc/lv_timer.c **** {
 217:Drivers/lvgl/src/misc/lv_timer.c ****     LV_ASSERT_NULL(timer);
 218:Drivers/lvgl/src/misc/lv_timer.c ****     timer->period = period;
 219:Drivers/lvgl/src/misc/lv_timer.c **** }
 220:Drivers/lvgl/src/misc/lv_timer.c **** 
 221:Drivers/lvgl/src/misc/lv_timer.c **** void lv_timer_ready(lv_timer_t * timer)
 222:Drivers/lvgl/src/misc/lv_timer.c **** {
 223:Drivers/lvgl/src/misc/lv_timer.c ****     LV_ASSERT_NULL(timer);
 224:Drivers/lvgl/src/misc/lv_timer.c ****     timer->last_run = lv_tick_get() - timer->period - 1;
 225:Drivers/lvgl/src/misc/lv_timer.c **** }
 226:Drivers/lvgl/src/misc/lv_timer.c **** 
 227:Drivers/lvgl/src/misc/lv_timer.c **** void lv_timer_set_repeat_count(lv_timer_t * timer, int32_t repeat_count)
 228:Drivers/lvgl/src/misc/lv_timer.c **** {
 229:Drivers/lvgl/src/misc/lv_timer.c ****     LV_ASSERT_NULL(timer);
 230:Drivers/lvgl/src/misc/lv_timer.c ****     timer->repeat_count = repeat_count;
 231:Drivers/lvgl/src/misc/lv_timer.c **** }
 232:Drivers/lvgl/src/misc/lv_timer.c **** 
 233:Drivers/lvgl/src/misc/lv_timer.c **** void lv_timer_set_auto_delete(lv_timer_t * timer, bool auto_delete)
 234:Drivers/lvgl/src/misc/lv_timer.c **** {
 235:Drivers/lvgl/src/misc/lv_timer.c ****     LV_ASSERT_NULL(timer);
 236:Drivers/lvgl/src/misc/lv_timer.c ****     timer->auto_delete = auto_delete;
 237:Drivers/lvgl/src/misc/lv_timer.c **** }
 238:Drivers/lvgl/src/misc/lv_timer.c **** 
 239:Drivers/lvgl/src/misc/lv_timer.c **** void lv_timer_set_user_data(lv_timer_t * timer, void * user_data)
 240:Drivers/lvgl/src/misc/lv_timer.c **** {
 241:Drivers/lvgl/src/misc/lv_timer.c ****     LV_ASSERT_NULL(timer);
 242:Drivers/lvgl/src/misc/lv_timer.c ****     timer->user_data = user_data;
 243:Drivers/lvgl/src/misc/lv_timer.c **** }
 244:Drivers/lvgl/src/misc/lv_timer.c **** 
 245:Drivers/lvgl/src/misc/lv_timer.c **** void lv_timer_reset(lv_timer_t * timer)
 246:Drivers/lvgl/src/misc/lv_timer.c **** {
 247:Drivers/lvgl/src/misc/lv_timer.c ****     LV_ASSERT_NULL(timer);
 248:Drivers/lvgl/src/misc/lv_timer.c ****     timer->last_run = lv_tick_get();
 249:Drivers/lvgl/src/misc/lv_timer.c ****     lv_timer_handler_resume();
 250:Drivers/lvgl/src/misc/lv_timer.c **** }
 251:Drivers/lvgl/src/misc/lv_timer.c **** 
 252:Drivers/lvgl/src/misc/lv_timer.c **** void lv_timer_enable(bool en)
 253:Drivers/lvgl/src/misc/lv_timer.c **** {
 254:Drivers/lvgl/src/misc/lv_timer.c ****     state.lv_timer_run = en;
 255:Drivers/lvgl/src/misc/lv_timer.c ****     if(en) lv_timer_handler_resume();
 256:Drivers/lvgl/src/misc/lv_timer.c **** }
 257:Drivers/lvgl/src/misc/lv_timer.c **** 
 258:Drivers/lvgl/src/misc/lv_timer.c **** void lv_timer_core_deinit(void)
 259:Drivers/lvgl/src/misc/lv_timer.c **** {
ARM GAS  /tmp/ccu0iwlI.s 			page 6


 260:Drivers/lvgl/src/misc/lv_timer.c ****     lv_timer_enable(false);
 261:Drivers/lvgl/src/misc/lv_timer.c **** 
 262:Drivers/lvgl/src/misc/lv_timer.c ****     lv_ll_clear(timer_ll_p);
 263:Drivers/lvgl/src/misc/lv_timer.c **** }
 264:Drivers/lvgl/src/misc/lv_timer.c **** 
 265:Drivers/lvgl/src/misc/lv_timer.c **** uint32_t lv_timer_get_idle(void)
 266:Drivers/lvgl/src/misc/lv_timer.c **** {
 267:Drivers/lvgl/src/misc/lv_timer.c ****     return state.idle_last;
 268:Drivers/lvgl/src/misc/lv_timer.c **** }
 269:Drivers/lvgl/src/misc/lv_timer.c **** 
 270:Drivers/lvgl/src/misc/lv_timer.c **** uint32_t lv_timer_get_time_until_next(void)
 271:Drivers/lvgl/src/misc/lv_timer.c **** {
 272:Drivers/lvgl/src/misc/lv_timer.c ****     return state.timer_time_until_next;
 273:Drivers/lvgl/src/misc/lv_timer.c **** }
 274:Drivers/lvgl/src/misc/lv_timer.c **** 
 275:Drivers/lvgl/src/misc/lv_timer.c **** lv_timer_t * lv_timer_get_next(lv_timer_t * timer)
 276:Drivers/lvgl/src/misc/lv_timer.c **** {
 277:Drivers/lvgl/src/misc/lv_timer.c ****     if(timer == NULL) return lv_ll_get_head(timer_ll_p);
 278:Drivers/lvgl/src/misc/lv_timer.c ****     else return lv_ll_get_next(timer_ll_p, timer);
 279:Drivers/lvgl/src/misc/lv_timer.c **** }
 280:Drivers/lvgl/src/misc/lv_timer.c **** 
 281:Drivers/lvgl/src/misc/lv_timer.c **** LV_ATTRIBUTE_TIMER_HANDLER uint32_t lv_timer_handler_run_in_period(uint32_t period)
 282:Drivers/lvgl/src/misc/lv_timer.c **** {
 283:Drivers/lvgl/src/misc/lv_timer.c ****     static uint32_t last_tick = 0;
 284:Drivers/lvgl/src/misc/lv_timer.c **** 
 285:Drivers/lvgl/src/misc/lv_timer.c ****     if(lv_tick_elaps(last_tick) >= period) {
 286:Drivers/lvgl/src/misc/lv_timer.c ****         last_tick = lv_tick_get();
 287:Drivers/lvgl/src/misc/lv_timer.c ****         return lv_timer_handler();
 288:Drivers/lvgl/src/misc/lv_timer.c ****     }
 289:Drivers/lvgl/src/misc/lv_timer.c ****     return 1;
 290:Drivers/lvgl/src/misc/lv_timer.c **** }
 291:Drivers/lvgl/src/misc/lv_timer.c **** 
 292:Drivers/lvgl/src/misc/lv_timer.c **** void * lv_timer_get_user_data(lv_timer_t * timer)
 293:Drivers/lvgl/src/misc/lv_timer.c **** {
 294:Drivers/lvgl/src/misc/lv_timer.c ****     return timer->user_data;
 295:Drivers/lvgl/src/misc/lv_timer.c **** }
 296:Drivers/lvgl/src/misc/lv_timer.c **** 
 297:Drivers/lvgl/src/misc/lv_timer.c **** bool lv_timer_get_paused(lv_timer_t * timer)
 298:Drivers/lvgl/src/misc/lv_timer.c **** {
 299:Drivers/lvgl/src/misc/lv_timer.c ****     return timer->paused;
 300:Drivers/lvgl/src/misc/lv_timer.c **** }
 301:Drivers/lvgl/src/misc/lv_timer.c **** 
 302:Drivers/lvgl/src/misc/lv_timer.c **** /**********************
 303:Drivers/lvgl/src/misc/lv_timer.c ****  *   STATIC FUNCTIONS
 304:Drivers/lvgl/src/misc/lv_timer.c ****  **********************/
 305:Drivers/lvgl/src/misc/lv_timer.c **** 
 306:Drivers/lvgl/src/misc/lv_timer.c **** /**
 307:Drivers/lvgl/src/misc/lv_timer.c ****  * Execute timer if its remaining time is zero
 308:Drivers/lvgl/src/misc/lv_timer.c ****  * @param timer pointer to lv_timer
 309:Drivers/lvgl/src/misc/lv_timer.c ****  * @return true: execute, false: not executed
 310:Drivers/lvgl/src/misc/lv_timer.c ****  */
 311:Drivers/lvgl/src/misc/lv_timer.c **** static bool lv_timer_exec(lv_timer_t * timer)
 312:Drivers/lvgl/src/misc/lv_timer.c **** {
 313:Drivers/lvgl/src/misc/lv_timer.c ****     if(timer->paused) return false;
 314:Drivers/lvgl/src/misc/lv_timer.c **** 
 315:Drivers/lvgl/src/misc/lv_timer.c ****     bool exec = false;
 316:Drivers/lvgl/src/misc/lv_timer.c ****     if(lv_timer_time_remaining(timer) == 0) {
ARM GAS  /tmp/ccu0iwlI.s 			page 7


 317:Drivers/lvgl/src/misc/lv_timer.c ****         /* Decrement the repeat count before executing the timer_cb.
 318:Drivers/lvgl/src/misc/lv_timer.c ****          * If any timer is deleted `if(timer->repeat_count == 0)` is not executed below
 319:Drivers/lvgl/src/misc/lv_timer.c ****          * but at least the repeat count is zero and the timer can be deleted in the next round*/
 320:Drivers/lvgl/src/misc/lv_timer.c ****         int32_t original_repeat_count = timer->repeat_count;
 321:Drivers/lvgl/src/misc/lv_timer.c ****         if(timer->repeat_count > 0) timer->repeat_count--;
 322:Drivers/lvgl/src/misc/lv_timer.c ****         timer->last_run = lv_tick_get();
 323:Drivers/lvgl/src/misc/lv_timer.c ****         LV_TRACE_TIMER("calling timer callback: %p", *((void **)&timer->timer_cb));
 324:Drivers/lvgl/src/misc/lv_timer.c **** 
 325:Drivers/lvgl/src/misc/lv_timer.c ****         if(timer->timer_cb && original_repeat_count != 0) {
 326:Drivers/lvgl/src/misc/lv_timer.c ****             LV_PROFILER_TIMER_BEGIN_TAG("timer_cb");
 327:Drivers/lvgl/src/misc/lv_timer.c ****             timer->timer_cb(timer);
 328:Drivers/lvgl/src/misc/lv_timer.c ****             LV_PROFILER_TIMER_END_TAG("timer_cb");
 329:Drivers/lvgl/src/misc/lv_timer.c ****         }
 330:Drivers/lvgl/src/misc/lv_timer.c **** 
 331:Drivers/lvgl/src/misc/lv_timer.c ****         if(!state.timer_deleted) {
 332:Drivers/lvgl/src/misc/lv_timer.c ****             LV_TRACE_TIMER("timer callback %p finished", *((void **)&timer->timer_cb));
 333:Drivers/lvgl/src/misc/lv_timer.c ****         }
 334:Drivers/lvgl/src/misc/lv_timer.c ****         else {
 335:Drivers/lvgl/src/misc/lv_timer.c ****             LV_TRACE_TIMER("timer callback finished");
 336:Drivers/lvgl/src/misc/lv_timer.c ****         }
 337:Drivers/lvgl/src/misc/lv_timer.c **** 
 338:Drivers/lvgl/src/misc/lv_timer.c ****         LV_ASSERT_MEM_INTEGRITY();
 339:Drivers/lvgl/src/misc/lv_timer.c ****         exec = true;
 340:Drivers/lvgl/src/misc/lv_timer.c ****     }
 341:Drivers/lvgl/src/misc/lv_timer.c **** 
 342:Drivers/lvgl/src/misc/lv_timer.c ****     if(state.timer_deleted == false) { /*The timer might be deleted by itself as well*/
 343:Drivers/lvgl/src/misc/lv_timer.c ****         if(timer->repeat_count == 0) { /*The repeat count is over, delete the timer*/
 344:Drivers/lvgl/src/misc/lv_timer.c ****             if(timer->auto_delete) {
 345:Drivers/lvgl/src/misc/lv_timer.c ****                 LV_TRACE_TIMER("deleting timer with %p callback because the repeat count is over", 
 346:Drivers/lvgl/src/misc/lv_timer.c ****                 lv_timer_delete(timer);
 347:Drivers/lvgl/src/misc/lv_timer.c ****             }
 348:Drivers/lvgl/src/misc/lv_timer.c ****             else {
 349:Drivers/lvgl/src/misc/lv_timer.c ****                 LV_TRACE_TIMER("pausing timer with %p callback because the repeat count is over", *
 350:Drivers/lvgl/src/misc/lv_timer.c ****                 lv_timer_pause(timer);
 351:Drivers/lvgl/src/misc/lv_timer.c ****             }
 352:Drivers/lvgl/src/misc/lv_timer.c ****         }
 353:Drivers/lvgl/src/misc/lv_timer.c ****     }
 354:Drivers/lvgl/src/misc/lv_timer.c **** 
 355:Drivers/lvgl/src/misc/lv_timer.c ****     return exec;
 356:Drivers/lvgl/src/misc/lv_timer.c **** }
 357:Drivers/lvgl/src/misc/lv_timer.c **** 
 358:Drivers/lvgl/src/misc/lv_timer.c **** /**
 359:Drivers/lvgl/src/misc/lv_timer.c ****  * Find out how much time remains before a timer must be run.
 360:Drivers/lvgl/src/misc/lv_timer.c ****  * @param timer pointer to lv_timer
 361:Drivers/lvgl/src/misc/lv_timer.c ****  * @return the time remaining, or 0 if it needs to be run again
 362:Drivers/lvgl/src/misc/lv_timer.c ****  */
 363:Drivers/lvgl/src/misc/lv_timer.c **** static uint32_t lv_timer_time_remaining(lv_timer_t * timer)
 364:Drivers/lvgl/src/misc/lv_timer.c **** {
 365:Drivers/lvgl/src/misc/lv_timer.c ****     /*Check if at least 'period' time elapsed*/
 366:Drivers/lvgl/src/misc/lv_timer.c ****     uint32_t elp = lv_tick_elaps(timer->last_run);
 367:Drivers/lvgl/src/misc/lv_timer.c ****     if(elp >= timer->period)
 368:Drivers/lvgl/src/misc/lv_timer.c ****         return 0;
 369:Drivers/lvgl/src/misc/lv_timer.c ****     return timer->period - elp;
 370:Drivers/lvgl/src/misc/lv_timer.c **** }
 371:Drivers/lvgl/src/misc/lv_timer.c **** 
 372:Drivers/lvgl/src/misc/lv_timer.c **** /**
 373:Drivers/lvgl/src/misc/lv_timer.c ****  * Call the ready lv_timer
ARM GAS  /tmp/ccu0iwlI.s 			page 8


 374:Drivers/lvgl/src/misc/lv_timer.c ****  */
 375:Drivers/lvgl/src/misc/lv_timer.c **** static void lv_timer_handler_resume(void)
 376:Drivers/lvgl/src/misc/lv_timer.c **** {
  28              		.loc 1 376 1 view -0
  29              		.cfi_startproc
  30              		@ args = 0, pretend = 0, frame = 0
  31              		@ frame_needed = 0, uses_anonymous_args = 0
  32 0000 08B5     		push	{r3, lr}
  33              	.LCFI0:
  34              		.cfi_def_cfa_offset 8
  35              		.cfi_offset 3, -8
  36              		.cfi_offset 14, -4
 377:Drivers/lvgl/src/misc/lv_timer.c ****     /*If there is a timer which is ready to run then resume the timer loop*/
 378:Drivers/lvgl/src/misc/lv_timer.c ****     state.timer_time_until_next = 0;
  37              		.loc 1 378 5 view .LVU1
  38              		.loc 1 378 33 is_stmt 0 view .LVU2
  39 0002 064B     		ldr	r3, .L4
  40 0004 0022     		movs	r2, #0
  41 0006 C3F88420 		str	r2, [r3, #132]
 379:Drivers/lvgl/src/misc/lv_timer.c ****     if(state.resume_cb) {
  42              		.loc 1 379 5 is_stmt 1 view .LVU3
  43              		.loc 1 379 13 is_stmt 0 view .LVU4
  44 000a D3F89C30 		ldr	r3, [r3, #156]
  45              		.loc 1 379 7 view .LVU5
  46 000e 1BB1     		cbz	r3, .L1
 380:Drivers/lvgl/src/misc/lv_timer.c ****         state.resume_cb(state.resume_data);
  47              		.loc 1 380 9 is_stmt 1 view .LVU6
  48 0010 024A     		ldr	r2, .L4
  49 0012 D2F8A000 		ldr	r0, [r2, #160]
  50 0016 9847     		blx	r3
  51              	.LVL0:
  52              	.L1:
 381:Drivers/lvgl/src/misc/lv_timer.c ****     }
 382:Drivers/lvgl/src/misc/lv_timer.c **** }
  53              		.loc 1 382 1 is_stmt 0 view .LVU7
  54 0018 08BD     		pop	{r3, pc}
  55              	.L5:
  56 001a 00BF     		.align	2
  57              	.L4:
  58 001c 00000000 		.word	lv_global
  59              		.cfi_endproc
  60              	.LFE211:
  62              		.section	.text.lv_timer_time_remaining,"ax",%progbits
  63              		.align	1
  64              		.syntax unified
  65              		.thumb
  66              		.thumb_func
  68              	lv_timer_time_remaining:
  69              	.LVL1:
  70              	.LFB210:
 364:Drivers/lvgl/src/misc/lv_timer.c ****     /*Check if at least 'period' time elapsed*/
  71              		.loc 1 364 1 is_stmt 1 view -0
  72              		.cfi_startproc
  73              		@ args = 0, pretend = 0, frame = 0
  74              		@ frame_needed = 0, uses_anonymous_args = 0
 364:Drivers/lvgl/src/misc/lv_timer.c ****     /*Check if at least 'period' time elapsed*/
  75              		.loc 1 364 1 is_stmt 0 view .LVU9
ARM GAS  /tmp/ccu0iwlI.s 			page 9


  76 0000 10B5     		push	{r4, lr}
  77              	.LCFI1:
  78              		.cfi_def_cfa_offset 8
  79              		.cfi_offset 4, -8
  80              		.cfi_offset 14, -4
  81 0002 0446     		mov	r4, r0
 366:Drivers/lvgl/src/misc/lv_timer.c ****     if(elp >= timer->period)
  82              		.loc 1 366 5 is_stmt 1 view .LVU10
 366:Drivers/lvgl/src/misc/lv_timer.c ****     if(elp >= timer->period)
  83              		.loc 1 366 20 is_stmt 0 view .LVU11
  84 0004 4068     		ldr	r0, [r0, #4]
  85              	.LVL2:
 366:Drivers/lvgl/src/misc/lv_timer.c ****     if(elp >= timer->period)
  86              		.loc 1 366 20 view .LVU12
  87 0006 FFF7FEFF 		bl	lv_tick_elaps
  88              	.LVL3:
 367:Drivers/lvgl/src/misc/lv_timer.c ****         return 0;
  89              		.loc 1 367 5 is_stmt 1 view .LVU13
 367:Drivers/lvgl/src/misc/lv_timer.c ****         return 0;
  90              		.loc 1 367 20 is_stmt 0 view .LVU14
  91 000a 2368     		ldr	r3, [r4]
 367:Drivers/lvgl/src/misc/lv_timer.c ****         return 0;
  92              		.loc 1 367 7 view .LVU15
  93 000c 8342     		cmp	r3, r0
  94 000e 01D9     		bls	.L8
 369:Drivers/lvgl/src/misc/lv_timer.c **** }
  95              		.loc 1 369 5 is_stmt 1 view .LVU16
 369:Drivers/lvgl/src/misc/lv_timer.c **** }
  96              		.loc 1 369 26 is_stmt 0 view .LVU17
  97 0010 181A     		subs	r0, r3, r0
  98              	.LVL4:
  99              	.L6:
 370:Drivers/lvgl/src/misc/lv_timer.c **** 
 100              		.loc 1 370 1 view .LVU18
 101 0012 10BD     		pop	{r4, pc}
 102              	.LVL5:
 103              	.L8:
 368:Drivers/lvgl/src/misc/lv_timer.c ****     return timer->period - elp;
 104              		.loc 1 368 16 view .LVU19
 105 0014 0020     		movs	r0, #0
 106              	.LVL6:
 368:Drivers/lvgl/src/misc/lv_timer.c ****     return timer->period - elp;
 107              		.loc 1 368 16 view .LVU20
 108 0016 FCE7     		b	.L6
 109              		.cfi_endproc
 110              	.LFE210:
 112              		.section	.text.lv_timer_create,"ax",%progbits
 113              		.align	1
 114              		.global	lv_timer_create
 115              		.syntax unified
 116              		.thumb
 117              		.thumb_func
 119              	lv_timer_create:
 120              	.LVL7:
 121              	.LFB190:
 166:Drivers/lvgl/src/misc/lv_timer.c ****     lv_timer_t * new_timer = NULL;
 122              		.loc 1 166 1 is_stmt 1 view -0
ARM GAS  /tmp/ccu0iwlI.s 			page 10


 123              		.cfi_startproc
 124              		@ args = 0, pretend = 0, frame = 0
 125              		@ frame_needed = 0, uses_anonymous_args = 0
 166:Drivers/lvgl/src/misc/lv_timer.c ****     lv_timer_t * new_timer = NULL;
 126              		.loc 1 166 1 is_stmt 0 view .LVU22
 127 0000 F8B5     		push	{r3, r4, r5, r6, r7, lr}
 128              	.LCFI2:
 129              		.cfi_def_cfa_offset 24
 130              		.cfi_offset 3, -24
 131              		.cfi_offset 4, -20
 132              		.cfi_offset 5, -16
 133              		.cfi_offset 6, -12
 134              		.cfi_offset 7, -8
 135              		.cfi_offset 14, -4
 136 0002 0646     		mov	r6, r0
 137 0004 0F46     		mov	r7, r1
 138 0006 1546     		mov	r5, r2
 167:Drivers/lvgl/src/misc/lv_timer.c **** 
 139              		.loc 1 167 5 is_stmt 1 view .LVU23
 140              	.LVL8:
 169:Drivers/lvgl/src/misc/lv_timer.c ****     LV_ASSERT_MALLOC(new_timer);
 141              		.loc 1 169 5 view .LVU24
 169:Drivers/lvgl/src/misc/lv_timer.c ****     LV_ASSERT_MALLOC(new_timer);
 142              		.loc 1 169 17 is_stmt 0 view .LVU25
 143 0008 0F48     		ldr	r0, .L14
 144              	.LVL9:
 169:Drivers/lvgl/src/misc/lv_timer.c ****     LV_ASSERT_MALLOC(new_timer);
 145              		.loc 1 169 17 view .LVU26
 146 000a FFF7FEFF 		bl	lv_ll_ins_head
 147              	.LVL10:
 170:Drivers/lvgl/src/misc/lv_timer.c ****     if(new_timer == NULL) return NULL;
 148              		.loc 1 170 5 is_stmt 1 view .LVU27
 170:Drivers/lvgl/src/misc/lv_timer.c ****     if(new_timer == NULL) return NULL;
 149              		.loc 1 170 5 view .LVU28
 150 000e C8B1     		cbz	r0, .L12
 151 0010 0446     		mov	r4, r0
 170:Drivers/lvgl/src/misc/lv_timer.c ****     if(new_timer == NULL) return NULL;
 152              		.loc 1 170 5 discriminator 2 view .LVU29
 170:Drivers/lvgl/src/misc/lv_timer.c ****     if(new_timer == NULL) return NULL;
 153              		.loc 1 170 32 discriminator 2 view .LVU30
 171:Drivers/lvgl/src/misc/lv_timer.c **** 
 154              		.loc 1 171 5 view .LVU31
 173:Drivers/lvgl/src/misc/lv_timer.c ****     new_timer->timer_cb = timer_xcb;
 155              		.loc 1 173 5 view .LVU32
 173:Drivers/lvgl/src/misc/lv_timer.c ****     new_timer->timer_cb = timer_xcb;
 156              		.loc 1 173 23 is_stmt 0 view .LVU33
 157 0012 0760     		str	r7, [r0]
 174:Drivers/lvgl/src/misc/lv_timer.c ****     new_timer->repeat_count = -1;
 158              		.loc 1 174 5 is_stmt 1 view .LVU34
 174:Drivers/lvgl/src/misc/lv_timer.c ****     new_timer->repeat_count = -1;
 159              		.loc 1 174 25 is_stmt 0 view .LVU35
 160 0014 8660     		str	r6, [r0, #8]
 175:Drivers/lvgl/src/misc/lv_timer.c ****     new_timer->paused = 0;
 161              		.loc 1 175 5 is_stmt 1 view .LVU36
 175:Drivers/lvgl/src/misc/lv_timer.c ****     new_timer->paused = 0;
 162              		.loc 1 175 29 is_stmt 0 view .LVU37
 163 0016 4FF0FF33 		mov	r3, #-1
ARM GAS  /tmp/ccu0iwlI.s 			page 11


 164 001a 0361     		str	r3, [r0, #16]
 176:Drivers/lvgl/src/misc/lv_timer.c ****     new_timer->last_run = lv_tick_get();
 165              		.loc 1 176 5 is_stmt 1 view .LVU38
 176:Drivers/lvgl/src/misc/lv_timer.c ****     new_timer->last_run = lv_tick_get();
 166              		.loc 1 176 23 is_stmt 0 view .LVU39
 167 001c 037D     		ldrb	r3, [r0, #20]	@ zero_extendqisi2
 168 001e 23F00103 		bic	r3, r3, #1
 169 0022 0375     		strb	r3, [r0, #20]
 177:Drivers/lvgl/src/misc/lv_timer.c ****     new_timer->user_data = user_data;
 170              		.loc 1 177 5 is_stmt 1 view .LVU40
 177:Drivers/lvgl/src/misc/lv_timer.c ****     new_timer->user_data = user_data;
 171              		.loc 1 177 27 is_stmt 0 view .LVU41
 172 0024 FFF7FEFF 		bl	lv_tick_get
 173              	.LVL11:
 177:Drivers/lvgl/src/misc/lv_timer.c ****     new_timer->user_data = user_data;
 174              		.loc 1 177 25 discriminator 1 view .LVU42
 175 0028 6060     		str	r0, [r4, #4]
 178:Drivers/lvgl/src/misc/lv_timer.c ****     new_timer->auto_delete = true;
 176              		.loc 1 178 5 is_stmt 1 view .LVU43
 178:Drivers/lvgl/src/misc/lv_timer.c ****     new_timer->auto_delete = true;
 177              		.loc 1 178 26 is_stmt 0 view .LVU44
 178 002a E560     		str	r5, [r4, #12]
 179:Drivers/lvgl/src/misc/lv_timer.c **** 
 179              		.loc 1 179 5 is_stmt 1 view .LVU45
 179:Drivers/lvgl/src/misc/lv_timer.c **** 
 180              		.loc 1 179 28 is_stmt 0 view .LVU46
 181 002c 237D     		ldrb	r3, [r4, #20]	@ zero_extendqisi2
 182 002e 43F00203 		orr	r3, r3, #2
 183 0032 2375     		strb	r3, [r4, #20]
 181:Drivers/lvgl/src/misc/lv_timer.c **** 
 184              		.loc 1 181 5 is_stmt 1 view .LVU47
 181:Drivers/lvgl/src/misc/lv_timer.c **** 
 185              		.loc 1 181 25 is_stmt 0 view .LVU48
 186 0034 054B     		ldr	r3, .L14+4
 187 0036 0122     		movs	r2, #1
 188 0038 83F88320 		strb	r2, [r3, #131]
 183:Drivers/lvgl/src/misc/lv_timer.c **** 
 189              		.loc 1 183 5 is_stmt 1 view .LVU49
 190 003c FFF7FEFF 		bl	lv_timer_handler_resume
 191              	.LVL12:
 185:Drivers/lvgl/src/misc/lv_timer.c **** }
 192              		.loc 1 185 5 view .LVU50
 186:Drivers/lvgl/src/misc/lv_timer.c **** 
 193              		.loc 1 186 1 is_stmt 0 view .LVU51
 194 0040 2046     		mov	r0, r4
 195 0042 F8BD     		pop	{r3, r4, r5, r6, r7, pc}
 196              	.LVL13:
 197              	.L12:
 170:Drivers/lvgl/src/misc/lv_timer.c ****     if(new_timer == NULL) return NULL;
 198              		.loc 1 170 5 is_stmt 1 discriminator 1 view .LVU52
 170:Drivers/lvgl/src/misc/lv_timer.c ****     if(new_timer == NULL) return NULL;
 199              		.loc 1 170 5 discriminator 1 view .LVU53
 170:Drivers/lvgl/src/misc/lv_timer.c ****     if(new_timer == NULL) return NULL;
 200              		.loc 1 170 5 discriminator 1 view .LVU54
 170:Drivers/lvgl/src/misc/lv_timer.c ****     if(new_timer == NULL) return NULL;
 201              		.loc 1 170 5 discriminator 1 view .LVU55
 170:Drivers/lvgl/src/misc/lv_timer.c ****     if(new_timer == NULL) return NULL;
ARM GAS  /tmp/ccu0iwlI.s 			page 12


 202              		.loc 1 170 5 discriminator 1 view .LVU56
 203 0044 FEE7     		b	.L12
 204              	.L15:
 205 0046 00BF     		.align	2
 206              	.L14:
 207 0048 74000000 		.word	lv_global+116
 208 004c 00000000 		.word	lv_global
 209              		.cfi_endproc
 210              	.LFE190:
 212              		.section	.text.lv_timer_create_basic,"ax",%progbits
 213              		.align	1
 214              		.global	lv_timer_create_basic
 215              		.syntax unified
 216              		.thumb
 217              		.thumb_func
 219              	lv_timer_create_basic:
 220              	.LFB189:
 161:Drivers/lvgl/src/misc/lv_timer.c ****     return lv_timer_create(NULL, DEF_PERIOD, NULL);
 221              		.loc 1 161 1 view -0
 222              		.cfi_startproc
 223              		@ args = 0, pretend = 0, frame = 0
 224              		@ frame_needed = 0, uses_anonymous_args = 0
 225 0000 08B5     		push	{r3, lr}
 226              	.LCFI3:
 227              		.cfi_def_cfa_offset 8
 228              		.cfi_offset 3, -8
 229              		.cfi_offset 14, -4
 162:Drivers/lvgl/src/misc/lv_timer.c **** }
 230              		.loc 1 162 5 view .LVU58
 162:Drivers/lvgl/src/misc/lv_timer.c **** }
 231              		.loc 1 162 12 is_stmt 0 view .LVU59
 232 0002 0022     		movs	r2, #0
 233 0004 4FF4FA71 		mov	r1, #500
 234 0008 1046     		mov	r0, r2
 235 000a FFF7FEFF 		bl	lv_timer_create
 236              	.LVL14:
 163:Drivers/lvgl/src/misc/lv_timer.c **** 
 237              		.loc 1 163 1 view .LVU60
 238 000e 08BD     		pop	{r3, pc}
 239              		.cfi_endproc
 240              	.LFE189:
 242              		.section	.text.lv_timer_set_cb,"ax",%progbits
 243              		.align	1
 244              		.global	lv_timer_set_cb
 245              		.syntax unified
 246              		.thumb
 247              		.thumb_func
 249              	lv_timer_set_cb:
 250              	.LVL15:
 251              	.LFB191:
 189:Drivers/lvgl/src/misc/lv_timer.c ****     LV_ASSERT_NULL(timer);
 252              		.loc 1 189 1 is_stmt 1 view -0
 253              		.cfi_startproc
 254              		@ args = 0, pretend = 0, frame = 0
 255              		@ frame_needed = 0, uses_anonymous_args = 0
 256              		@ link register save eliminated.
 190:Drivers/lvgl/src/misc/lv_timer.c ****     timer->timer_cb = timer_cb;
ARM GAS  /tmp/ccu0iwlI.s 			page 13


 257              		.loc 1 190 5 view .LVU62
 190:Drivers/lvgl/src/misc/lv_timer.c ****     timer->timer_cb = timer_cb;
 258              		.loc 1 190 5 view .LVU63
 259 0000 08B1     		cbz	r0, .L20
 190:Drivers/lvgl/src/misc/lv_timer.c ****     timer->timer_cb = timer_cb;
 260              		.loc 1 190 5 discriminator 2 view .LVU64
 190:Drivers/lvgl/src/misc/lv_timer.c ****     timer->timer_cb = timer_cb;
 261              		.loc 1 190 26 discriminator 2 view .LVU65
 191:Drivers/lvgl/src/misc/lv_timer.c **** }
 262              		.loc 1 191 5 view .LVU66
 191:Drivers/lvgl/src/misc/lv_timer.c **** }
 263              		.loc 1 191 21 is_stmt 0 view .LVU67
 264 0002 8160     		str	r1, [r0, #8]
 192:Drivers/lvgl/src/misc/lv_timer.c **** 
 265              		.loc 1 192 1 view .LVU68
 266 0004 7047     		bx	lr
 267              	.L20:
 190:Drivers/lvgl/src/misc/lv_timer.c ****     timer->timer_cb = timer_cb;
 268              		.loc 1 190 5 is_stmt 1 discriminator 1 view .LVU69
 190:Drivers/lvgl/src/misc/lv_timer.c ****     timer->timer_cb = timer_cb;
 269              		.loc 1 190 5 discriminator 1 view .LVU70
 190:Drivers/lvgl/src/misc/lv_timer.c ****     timer->timer_cb = timer_cb;
 270              		.loc 1 190 5 discriminator 1 view .LVU71
 190:Drivers/lvgl/src/misc/lv_timer.c ****     timer->timer_cb = timer_cb;
 271              		.loc 1 190 5 discriminator 1 view .LVU72
 190:Drivers/lvgl/src/misc/lv_timer.c ****     timer->timer_cb = timer_cb;
 272              		.loc 1 190 5 discriminator 1 view .LVU73
 273 0006 FEE7     		b	.L20
 274              		.cfi_endproc
 275              	.LFE191:
 277              		.section	.text.lv_timer_delete,"ax",%progbits
 278              		.align	1
 279              		.global	lv_timer_delete
 280              		.syntax unified
 281              		.thumb
 282              		.thumb_func
 284              	lv_timer_delete:
 285              	.LVL16:
 286              	.LFB192:
 195:Drivers/lvgl/src/misc/lv_timer.c ****     lv_ll_remove(timer_ll_p, timer);
 287              		.loc 1 195 1 view -0
 288              		.cfi_startproc
 289              		@ args = 0, pretend = 0, frame = 0
 290              		@ frame_needed = 0, uses_anonymous_args = 0
 195:Drivers/lvgl/src/misc/lv_timer.c ****     lv_ll_remove(timer_ll_p, timer);
 291              		.loc 1 195 1 is_stmt 0 view .LVU75
 292 0000 38B5     		push	{r3, r4, r5, lr}
 293              	.LCFI4:
 294              		.cfi_def_cfa_offset 16
 295              		.cfi_offset 3, -16
 296              		.cfi_offset 4, -12
 297              		.cfi_offset 5, -8
 298              		.cfi_offset 14, -4
 299 0002 0446     		mov	r4, r0
 196:Drivers/lvgl/src/misc/lv_timer.c ****     state.timer_deleted = true;
 300              		.loc 1 196 5 is_stmt 1 view .LVU76
 301 0004 054D     		ldr	r5, .L23
ARM GAS  /tmp/ccu0iwlI.s 			page 14


 302 0006 0146     		mov	r1, r0
 303 0008 2846     		mov	r0, r5
 304              	.LVL17:
 196:Drivers/lvgl/src/misc/lv_timer.c ****     state.timer_deleted = true;
 305              		.loc 1 196 5 is_stmt 0 view .LVU77
 306 000a FFF7FEFF 		bl	lv_ll_remove
 307              	.LVL18:
 197:Drivers/lvgl/src/misc/lv_timer.c **** 
 308              		.loc 1 197 5 is_stmt 1 view .LVU78
 197:Drivers/lvgl/src/misc/lv_timer.c **** 
 309              		.loc 1 197 25 is_stmt 0 view .LVU79
 310 000e 0123     		movs	r3, #1
 311 0010 AB73     		strb	r3, [r5, #14]
 199:Drivers/lvgl/src/misc/lv_timer.c **** }
 312              		.loc 1 199 5 is_stmt 1 view .LVU80
 313 0012 2046     		mov	r0, r4
 314 0014 FFF7FEFF 		bl	lv_free
 315              	.LVL19:
 200:Drivers/lvgl/src/misc/lv_timer.c **** 
 316              		.loc 1 200 1 is_stmt 0 view .LVU81
 317 0018 38BD     		pop	{r3, r4, r5, pc}
 318              	.LVL20:
 319              	.L24:
 200:Drivers/lvgl/src/misc/lv_timer.c **** 
 320              		.loc 1 200 1 view .LVU82
 321 001a 00BF     		.align	2
 322              	.L23:
 323 001c 74000000 		.word	lv_global+116
 324              		.cfi_endproc
 325              	.LFE192:
 327              		.section	.text.lv_timer_pause,"ax",%progbits
 328              		.align	1
 329              		.global	lv_timer_pause
 330              		.syntax unified
 331              		.thumb
 332              		.thumb_func
 334              	lv_timer_pause:
 335              	.LVL21:
 336              	.LFB193:
 203:Drivers/lvgl/src/misc/lv_timer.c ****     LV_ASSERT_NULL(timer);
 337              		.loc 1 203 1 is_stmt 1 view -0
 338              		.cfi_startproc
 339              		@ args = 0, pretend = 0, frame = 0
 340              		@ frame_needed = 0, uses_anonymous_args = 0
 341              		@ link register save eliminated.
 204:Drivers/lvgl/src/misc/lv_timer.c ****     timer->paused = true;
 342              		.loc 1 204 5 view .LVU84
 204:Drivers/lvgl/src/misc/lv_timer.c ****     timer->paused = true;
 343              		.loc 1 204 5 view .LVU85
 344 0000 20B1     		cbz	r0, .L27
 204:Drivers/lvgl/src/misc/lv_timer.c ****     timer->paused = true;
 345              		.loc 1 204 5 discriminator 2 view .LVU86
 204:Drivers/lvgl/src/misc/lv_timer.c ****     timer->paused = true;
 346              		.loc 1 204 26 discriminator 2 view .LVU87
 205:Drivers/lvgl/src/misc/lv_timer.c **** }
 347              		.loc 1 205 5 view .LVU88
 205:Drivers/lvgl/src/misc/lv_timer.c **** }
ARM GAS  /tmp/ccu0iwlI.s 			page 15


 348              		.loc 1 205 19 is_stmt 0 view .LVU89
 349 0002 037D     		ldrb	r3, [r0, #20]	@ zero_extendqisi2
 350 0004 43F00103 		orr	r3, r3, #1
 351 0008 0375     		strb	r3, [r0, #20]
 206:Drivers/lvgl/src/misc/lv_timer.c **** 
 352              		.loc 1 206 1 view .LVU90
 353 000a 7047     		bx	lr
 354              	.L27:
 204:Drivers/lvgl/src/misc/lv_timer.c ****     timer->paused = true;
 355              		.loc 1 204 5 is_stmt 1 discriminator 1 view .LVU91
 204:Drivers/lvgl/src/misc/lv_timer.c ****     timer->paused = true;
 356              		.loc 1 204 5 discriminator 1 view .LVU92
 204:Drivers/lvgl/src/misc/lv_timer.c ****     timer->paused = true;
 357              		.loc 1 204 5 discriminator 1 view .LVU93
 204:Drivers/lvgl/src/misc/lv_timer.c ****     timer->paused = true;
 358              		.loc 1 204 5 discriminator 1 view .LVU94
 204:Drivers/lvgl/src/misc/lv_timer.c ****     timer->paused = true;
 359              		.loc 1 204 5 discriminator 1 view .LVU95
 360 000c FEE7     		b	.L27
 361              		.cfi_endproc
 362              	.LFE193:
 364              		.section	.text.lv_timer_exec,"ax",%progbits
 365              		.align	1
 366              		.syntax unified
 367              		.thumb
 368              		.thumb_func
 370              	lv_timer_exec:
 371              	.LVL22:
 372              	.LFB209:
 312:Drivers/lvgl/src/misc/lv_timer.c ****     if(timer->paused) return false;
 373              		.loc 1 312 1 view -0
 374              		.cfi_startproc
 375              		@ args = 0, pretend = 0, frame = 0
 376              		@ frame_needed = 0, uses_anonymous_args = 0
 312:Drivers/lvgl/src/misc/lv_timer.c ****     if(timer->paused) return false;
 377              		.loc 1 312 1 is_stmt 0 view .LVU97
 378 0000 38B5     		push	{r3, r4, r5, lr}
 379              	.LCFI5:
 380              		.cfi_def_cfa_offset 16
 381              		.cfi_offset 3, -16
 382              		.cfi_offset 4, -12
 383              		.cfi_offset 5, -8
 384              		.cfi_offset 14, -4
 313:Drivers/lvgl/src/misc/lv_timer.c **** 
 385              		.loc 1 313 5 is_stmt 1 view .LVU98
 313:Drivers/lvgl/src/misc/lv_timer.c **** 
 386              		.loc 1 313 8 is_stmt 0 view .LVU99
 387 0002 037D     		ldrb	r3, [r0, #20]	@ zero_extendqisi2
 313:Drivers/lvgl/src/misc/lv_timer.c **** 
 388              		.loc 1 313 7 view .LVU100
 389 0004 13F0010F 		tst	r3, #1
 390 0008 02D0     		beq	.L37
 313:Drivers/lvgl/src/misc/lv_timer.c **** 
 391              		.loc 1 313 30 discriminator 1 view .LVU101
 392 000a 0025     		movs	r5, #0
 393              	.LVL23:
 394              	.L29:
ARM GAS  /tmp/ccu0iwlI.s 			page 16


 356:Drivers/lvgl/src/misc/lv_timer.c **** 
 395              		.loc 1 356 1 view .LVU102
 396 000c 2846     		mov	r0, r5
 397 000e 38BD     		pop	{r3, r4, r5, pc}
 398              	.LVL24:
 399              	.L37:
 356:Drivers/lvgl/src/misc/lv_timer.c **** 
 400              		.loc 1 356 1 view .LVU103
 401 0010 0446     		mov	r4, r0
 315:Drivers/lvgl/src/misc/lv_timer.c ****     if(lv_timer_time_remaining(timer) == 0) {
 402              		.loc 1 315 5 is_stmt 1 view .LVU104
 403              	.LVL25:
 316:Drivers/lvgl/src/misc/lv_timer.c ****         /* Decrement the repeat count before executing the timer_cb.
 404              		.loc 1 316 5 view .LVU105
 316:Drivers/lvgl/src/misc/lv_timer.c ****         /* Decrement the repeat count before executing the timer_cb.
 405              		.loc 1 316 8 is_stmt 0 view .LVU106
 406 0012 FFF7FEFF 		bl	lv_timer_time_remaining
 407              	.LVL26:
 316:Drivers/lvgl/src/misc/lv_timer.c ****         /* Decrement the repeat count before executing the timer_cb.
 408              		.loc 1 316 7 discriminator 1 view .LVU107
 409 0016 E8B9     		cbnz	r0, .L35
 410              	.LBB7:
 320:Drivers/lvgl/src/misc/lv_timer.c ****         if(timer->repeat_count > 0) timer->repeat_count--;
 411              		.loc 1 320 9 is_stmt 1 view .LVU108
 320:Drivers/lvgl/src/misc/lv_timer.c ****         if(timer->repeat_count > 0) timer->repeat_count--;
 412              		.loc 1 320 17 is_stmt 0 view .LVU109
 413 0018 2569     		ldr	r5, [r4, #16]
 414              	.LVL27:
 321:Drivers/lvgl/src/misc/lv_timer.c ****         timer->last_run = lv_tick_get();
 415              		.loc 1 321 9 is_stmt 1 view .LVU110
 321:Drivers/lvgl/src/misc/lv_timer.c ****         timer->last_run = lv_tick_get();
 416              		.loc 1 321 11 is_stmt 0 view .LVU111
 417 001a 002D     		cmp	r5, #0
 418 001c 01DD     		ble	.L31
 321:Drivers/lvgl/src/misc/lv_timer.c ****         timer->last_run = lv_tick_get();
 419              		.loc 1 321 37 is_stmt 1 discriminator 1 view .LVU112
 321:Drivers/lvgl/src/misc/lv_timer.c ****         timer->last_run = lv_tick_get();
 420              		.loc 1 321 56 is_stmt 0 discriminator 1 view .LVU113
 421 001e 6B1E     		subs	r3, r5, #1
 422 0020 2361     		str	r3, [r4, #16]
 423              	.L31:
 322:Drivers/lvgl/src/misc/lv_timer.c ****         LV_TRACE_TIMER("calling timer callback: %p", *((void **)&timer->timer_cb));
 424              		.loc 1 322 9 is_stmt 1 view .LVU114
 322:Drivers/lvgl/src/misc/lv_timer.c ****         LV_TRACE_TIMER("calling timer callback: %p", *((void **)&timer->timer_cb));
 425              		.loc 1 322 27 is_stmt 0 view .LVU115
 426 0022 FFF7FEFF 		bl	lv_tick_get
 427              	.LVL28:
 322:Drivers/lvgl/src/misc/lv_timer.c ****         LV_TRACE_TIMER("calling timer callback: %p", *((void **)&timer->timer_cb));
 428              		.loc 1 322 25 discriminator 1 view .LVU116
 429 0026 6060     		str	r0, [r4, #4]
 323:Drivers/lvgl/src/misc/lv_timer.c **** 
 430              		.loc 1 323 83 is_stmt 1 view .LVU117
 325:Drivers/lvgl/src/misc/lv_timer.c ****             LV_PROFILER_TIMER_BEGIN_TAG("timer_cb");
 431              		.loc 1 325 9 view .LVU118
 325:Drivers/lvgl/src/misc/lv_timer.c ****             LV_PROFILER_TIMER_BEGIN_TAG("timer_cb");
 432              		.loc 1 325 17 is_stmt 0 view .LVU119
 433 0028 A368     		ldr	r3, [r4, #8]
ARM GAS  /tmp/ccu0iwlI.s 			page 17


 325:Drivers/lvgl/src/misc/lv_timer.c ****             LV_PROFILER_TIMER_BEGIN_TAG("timer_cb");
 434              		.loc 1 325 11 view .LVU120
 435 002a 13B1     		cbz	r3, .L32
 325:Drivers/lvgl/src/misc/lv_timer.c ****             LV_PROFILER_TIMER_BEGIN_TAG("timer_cb");
 436              		.loc 1 325 28 discriminator 1 view .LVU121
 437 002c 0DB1     		cbz	r5, .L32
 326:Drivers/lvgl/src/misc/lv_timer.c ****             timer->timer_cb(timer);
 438              		.loc 1 326 52 is_stmt 1 view .LVU122
 327:Drivers/lvgl/src/misc/lv_timer.c ****             LV_PROFILER_TIMER_END_TAG("timer_cb");
 439              		.loc 1 327 13 view .LVU123
 440 002e 2046     		mov	r0, r4
 441 0030 9847     		blx	r3
 442              	.LVL29:
 443              	.L32:
 328:Drivers/lvgl/src/misc/lv_timer.c ****         }
 444              		.loc 1 328 50 view .LVU124
 331:Drivers/lvgl/src/misc/lv_timer.c ****             LV_TRACE_TIMER("timer callback %p finished", *((void **)&timer->timer_cb));
 445              		.loc 1 331 9 view .LVU125
 332:Drivers/lvgl/src/misc/lv_timer.c ****         }
 446              		.loc 1 332 87 view .LVU126
 335:Drivers/lvgl/src/misc/lv_timer.c ****         }
 447              		.loc 1 335 54 view .LVU127
 338:Drivers/lvgl/src/misc/lv_timer.c ****         exec = true;
 448              		.loc 1 338 34 view .LVU128
 339:Drivers/lvgl/src/misc/lv_timer.c ****     }
 449              		.loc 1 339 9 view .LVU129
 339:Drivers/lvgl/src/misc/lv_timer.c ****     }
 450              		.loc 1 339 14 is_stmt 0 view .LVU130
 451 0032 0125     		movs	r5, #1
 452              	.LVL30:
 453              	.L30:
 339:Drivers/lvgl/src/misc/lv_timer.c ****     }
 454              		.loc 1 339 14 view .LVU131
 455              	.LBE7:
 342:Drivers/lvgl/src/misc/lv_timer.c ****         if(timer->repeat_count == 0) { /*The repeat count is over, delete the timer*/
 456              		.loc 1 342 5 is_stmt 1 view .LVU132
 342:Drivers/lvgl/src/misc/lv_timer.c ****         if(timer->repeat_count == 0) { /*The repeat count is over, delete the timer*/
 457              		.loc 1 342 13 is_stmt 0 view .LVU133
 458 0034 0A4B     		ldr	r3, .L38
 459 0036 93F88230 		ldrb	r3, [r3, #130]	@ zero_extendqisi2
 342:Drivers/lvgl/src/misc/lv_timer.c ****         if(timer->repeat_count == 0) { /*The repeat count is over, delete the timer*/
 460              		.loc 1 342 7 view .LVU134
 461 003a 002B     		cmp	r3, #0
 462 003c E6D1     		bne	.L29
 343:Drivers/lvgl/src/misc/lv_timer.c ****             if(timer->auto_delete) {
 463              		.loc 1 343 9 is_stmt 1 view .LVU135
 343:Drivers/lvgl/src/misc/lv_timer.c ****             if(timer->auto_delete) {
 464              		.loc 1 343 17 is_stmt 0 view .LVU136
 465 003e 2369     		ldr	r3, [r4, #16]
 343:Drivers/lvgl/src/misc/lv_timer.c ****             if(timer->auto_delete) {
 466              		.loc 1 343 11 view .LVU137
 467 0040 002B     		cmp	r3, #0
 468 0042 E3D1     		bne	.L29
 344:Drivers/lvgl/src/misc/lv_timer.c ****                 LV_TRACE_TIMER("deleting timer with %p callback because the repeat count is over", 
 469              		.loc 1 344 13 is_stmt 1 view .LVU138
 344:Drivers/lvgl/src/misc/lv_timer.c ****                 LV_TRACE_TIMER("deleting timer with %p callback because the repeat count is over", 
 470              		.loc 1 344 16 is_stmt 0 view .LVU139
ARM GAS  /tmp/ccu0iwlI.s 			page 18


 471 0044 237D     		ldrb	r3, [r4, #20]	@ zero_extendqisi2
 344:Drivers/lvgl/src/misc/lv_timer.c ****                 LV_TRACE_TIMER("deleting timer with %p callback because the repeat count is over", 
 472              		.loc 1 344 15 view .LVU140
 473 0046 13F0020F 		tst	r3, #2
 474 004a 05D0     		beq	.L33
 345:Drivers/lvgl/src/misc/lv_timer.c ****                 lv_timer_delete(timer);
 475              		.loc 1 345 129 is_stmt 1 view .LVU141
 346:Drivers/lvgl/src/misc/lv_timer.c ****             }
 476              		.loc 1 346 17 view .LVU142
 477 004c 2046     		mov	r0, r4
 478 004e FFF7FEFF 		bl	lv_timer_delete
 479              	.LVL31:
 480 0052 DBE7     		b	.L29
 481              	.LVL32:
 482              	.L35:
 315:Drivers/lvgl/src/misc/lv_timer.c ****     if(lv_timer_time_remaining(timer) == 0) {
 483              		.loc 1 315 10 is_stmt 0 view .LVU143
 484 0054 0025     		movs	r5, #0
 485 0056 EDE7     		b	.L30
 486              	.LVL33:
 487              	.L33:
 349:Drivers/lvgl/src/misc/lv_timer.c ****                 lv_timer_pause(timer);
 488              		.loc 1 349 128 is_stmt 1 view .LVU144
 350:Drivers/lvgl/src/misc/lv_timer.c ****             }
 489              		.loc 1 350 17 view .LVU145
 490 0058 2046     		mov	r0, r4
 491 005a FFF7FEFF 		bl	lv_timer_pause
 492              	.LVL34:
 493 005e D5E7     		b	.L29
 494              	.L39:
 495              		.align	2
 496              	.L38:
 497 0060 00000000 		.word	lv_global
 498              		.cfi_endproc
 499              	.LFE209:
 501              		.section	.text.lv_timer_handler,"ax",%progbits
 502              		.align	1
 503              		.global	lv_timer_handler
 504              		.syntax unified
 505              		.thumb
 506              		.thumb_func
 508              	lv_timer_handler:
 509              	.LFB187:
  64:Drivers/lvgl/src/misc/lv_timer.c ****     LV_TRACE_TIMER("begin");
 510              		.loc 1 64 1 view -0
 511              		.cfi_startproc
 512              		@ args = 0, pretend = 0, frame = 0
 513              		@ frame_needed = 0, uses_anonymous_args = 0
 514 0000 70B5     		push	{r4, r5, r6, lr}
 515              	.LCFI6:
 516              		.cfi_def_cfa_offset 16
 517              		.cfi_offset 4, -16
 518              		.cfi_offset 5, -12
 519              		.cfi_offset 6, -8
 520              		.cfi_offset 14, -4
  65:Drivers/lvgl/src/misc/lv_timer.c **** 
 521              		.loc 1 65 28 view .LVU147
ARM GAS  /tmp/ccu0iwlI.s 			page 19


  67:Drivers/lvgl/src/misc/lv_timer.c ****     /*Avoid concurrent running of the timer handler*/
 522              		.loc 1 67 5 view .LVU148
 523              	.LVL35:
  69:Drivers/lvgl/src/misc/lv_timer.c ****         LV_TRACE_TIMER("already running, concurrent calls are not allow, returning");
 524              		.loc 1 69 5 view .LVU149
  69:Drivers/lvgl/src/misc/lv_timer.c ****         LV_TRACE_TIMER("already running, concurrent calls are not allow, returning");
 525              		.loc 1 69 15 is_stmt 0 view .LVU150
 526 0002 474B     		ldr	r3, .L60
 527 0004 93F88830 		ldrb	r3, [r3, #136]	@ zero_extendqisi2
  69:Drivers/lvgl/src/misc/lv_timer.c ****         LV_TRACE_TIMER("already running, concurrent calls are not allow, returning");
 528              		.loc 1 69 7 view .LVU151
 529 0008 002B     		cmp	r3, #0
 530 000a 40F08680 		bne	.L53
  73:Drivers/lvgl/src/misc/lv_timer.c **** 
 531              		.loc 1 73 5 is_stmt 1 view .LVU152
  73:Drivers/lvgl/src/misc/lv_timer.c **** 
 532              		.loc 1 73 30 is_stmt 0 view .LVU153
 533 000e 444B     		ldr	r3, .L60
 534 0010 0122     		movs	r2, #1
 535 0012 83F88820 		strb	r2, [r3, #136]
  75:Drivers/lvgl/src/misc/lv_timer.c ****         state_p->already_running = false; /*Release mutex*/
 536              		.loc 1 75 5 is_stmt 1 view .LVU154
  75:Drivers/lvgl/src/misc/lv_timer.c ****         state_p->already_running = false; /*Release mutex*/
 537              		.loc 1 75 15 is_stmt 0 view .LVU155
 538 0016 93F88030 		ldrb	r3, [r3, #128]	@ zero_extendqisi2
  75:Drivers/lvgl/src/misc/lv_timer.c ****         state_p->already_running = false; /*Release mutex*/
 539              		.loc 1 75 7 view .LVU156
 540 001a 2BB9     		cbnz	r3, .L42
  76:Drivers/lvgl/src/misc/lv_timer.c ****         return 1;
 541              		.loc 1 76 9 is_stmt 1 view .LVU157
  76:Drivers/lvgl/src/misc/lv_timer.c ****         return 1;
 542              		.loc 1 76 34 is_stmt 0 view .LVU158
 543 001c 404B     		ldr	r3, .L60
 544 001e 0022     		movs	r2, #0
 545 0020 83F88820 		strb	r2, [r3, #136]
  77:Drivers/lvgl/src/misc/lv_timer.c ****     }
 546              		.loc 1 77 9 is_stmt 1 view .LVU159
  77:Drivers/lvgl/src/misc/lv_timer.c ****     }
 547              		.loc 1 77 16 is_stmt 0 view .LVU160
 548 0024 0125     		movs	r5, #1
 549 0026 79E0     		b	.L40
 550              	.L42:
  80:Drivers/lvgl/src/misc/lv_timer.c ****     lv_lock();
 551              		.loc 1 80 28 is_stmt 1 view .LVU161
  81:Drivers/lvgl/src/misc/lv_timer.c **** 
 552              		.loc 1 81 5 view .LVU162
  83:Drivers/lvgl/src/misc/lv_timer.c **** 
 553              		.loc 1 83 5 view .LVU163
  83:Drivers/lvgl/src/misc/lv_timer.c **** 
 554              		.loc 1 83 30 is_stmt 0 view .LVU164
 555 0028 FFF7FEFF 		bl	lv_tick_get
 556              	.LVL36:
  85:Drivers/lvgl/src/misc/lv_timer.c ****         state.run_cnt++;
 557              		.loc 1 85 5 is_stmt 1 view .LVU165
  85:Drivers/lvgl/src/misc/lv_timer.c ****         state.run_cnt++;
 558              		.loc 1 85 7 is_stmt 0 view .LVU166
 559 002c 0646     		mov	r6, r0
ARM GAS  /tmp/ccu0iwlI.s 			page 20


 560 002e F8B9     		cbnz	r0, .L47
  86:Drivers/lvgl/src/misc/lv_timer.c ****         if(state.run_cnt > 100) {
 561              		.loc 1 86 9 is_stmt 1 view .LVU167
  86:Drivers/lvgl/src/misc/lv_timer.c ****         if(state.run_cnt > 100) {
 562              		.loc 1 86 14 is_stmt 0 view .LVU168
 563 0030 3B4A     		ldr	r2, .L60
 564 0032 D2F89830 		ldr	r3, [r2, #152]
  86:Drivers/lvgl/src/misc/lv_timer.c ****         if(state.run_cnt > 100) {
 565              		.loc 1 86 22 view .LVU169
 566 0036 0133     		adds	r3, r3, #1
 567 0038 C2F89830 		str	r3, [r2, #152]
  87:Drivers/lvgl/src/misc/lv_timer.c ****             state.run_cnt = 0;
 568              		.loc 1 87 9 is_stmt 1 view .LVU170
  87:Drivers/lvgl/src/misc/lv_timer.c ****             state.run_cnt = 0;
 569              		.loc 1 87 11 is_stmt 0 view .LVU171
 570 003c 642B     		cmp	r3, #100
 571 003e 17D9     		bls	.L47
  88:Drivers/lvgl/src/misc/lv_timer.c ****             LV_LOG_WARN("It seems lv_tick_inc() is not called.");
 572              		.loc 1 88 13 is_stmt 1 view .LVU172
  88:Drivers/lvgl/src/misc/lv_timer.c ****             LV_LOG_WARN("It seems lv_tick_inc() is not called.");
 573              		.loc 1 88 27 is_stmt 0 view .LVU173
 574 0040 1346     		mov	r3, r2
 575 0042 0022     		movs	r2, #0
 576 0044 C3F89820 		str	r2, [r3, #152]
 577 0048 12E0     		b	.L47
 578              	.LVL37:
 579              	.L54:
  88:Drivers/lvgl/src/misc/lv_timer.c ****             LV_LOG_WARN("It seems lv_tick_inc() is not called.");
 580              		.loc 1 88 27 view .LVU174
 581 004a 2C46     		mov	r4, r5
 582              	.LVL38:
 583              	.L44:
 102:Drivers/lvgl/src/misc/lv_timer.c ****             /*The timer might be deleted if it runs only once ('repeat_count = 1')
 584              		.loc 1 102 15 is_stmt 1 view .LVU175
 585 004c 7CB1     		cbz	r4, .L45
 105:Drivers/lvgl/src/misc/lv_timer.c **** 
 586              		.loc 1 105 13 view .LVU176
 105:Drivers/lvgl/src/misc/lv_timer.c **** 
 587              		.loc 1 105 20 is_stmt 0 view .LVU177
 588 004e 2146     		mov	r1, r4
 589 0050 3448     		ldr	r0, .L60+4
 590              	.LVL39:
 105:Drivers/lvgl/src/misc/lv_timer.c **** 
 591              		.loc 1 105 20 view .LVU178
 592 0052 FFF7FEFF 		bl	lv_ll_get_next
 593              	.LVL40:
 105:Drivers/lvgl/src/misc/lv_timer.c **** 
 594              		.loc 1 105 20 view .LVU179
 595 0056 0546     		mov	r5, r0
 596              	.LVL41:
 107:Drivers/lvgl/src/misc/lv_timer.c ****                 /*If a timer was created or deleted then this or the next item might be corrupted*/
 597              		.loc 1 107 13 is_stmt 1 view .LVU180
 107:Drivers/lvgl/src/misc/lv_timer.c ****                 /*If a timer was created or deleted then this or the next item might be corrupted*/
 598              		.loc 1 107 16 is_stmt 0 view .LVU181
 599 0058 2046     		mov	r0, r4
 600              	.LVL42:
 107:Drivers/lvgl/src/misc/lv_timer.c ****                 /*If a timer was created or deleted then this or the next item might be corrupted*/
ARM GAS  /tmp/ccu0iwlI.s 			page 21


 601              		.loc 1 107 16 view .LVU182
 602 005a FFF7FEFF 		bl	lv_timer_exec
 603              	.LVL43:
 107:Drivers/lvgl/src/misc/lv_timer.c ****                 /*If a timer was created or deleted then this or the next item might be corrupted*/
 604              		.loc 1 107 15 discriminator 1 view .LVU183
 605 005e 0028     		cmp	r0, #0
 606 0060 F3D0     		beq	.L54
 109:Drivers/lvgl/src/misc/lv_timer.c ****                     LV_TRACE_TIMER("Start from the first timer again because a timer was created or
 607              		.loc 1 109 17 is_stmt 1 view .LVU184
 109:Drivers/lvgl/src/misc/lv_timer.c ****                     LV_TRACE_TIMER("Start from the first timer again because a timer was created or
 608              		.loc 1 109 43 is_stmt 0 view .LVU185
 609 0062 2F4B     		ldr	r3, .L60
 610 0064 B3F88230 		ldrh	r3, [r3, #130]
 109:Drivers/lvgl/src/misc/lv_timer.c ****                     LV_TRACE_TIMER("Start from the first timer again because a timer was created or
 611              		.loc 1 109 19 view .LVU186
 612 0068 0BB9     		cbnz	r3, .L45
 613 006a 2C46     		mov	r4, r5
 614              	.LVL44:
 109:Drivers/lvgl/src/misc/lv_timer.c ****                     LV_TRACE_TIMER("Start from the first timer again because a timer was created or
 615              		.loc 1 109 19 view .LVU187
 616 006c EEE7     		b	.L44
 617              	.LVL45:
 618              	.L45:
 117:Drivers/lvgl/src/misc/lv_timer.c **** 
 619              		.loc 1 117 13 is_stmt 1 view .LVU188
 620 006e 54B1     		cbz	r4, .L58
 621              	.LVL46:
 622              	.L47:
  97:Drivers/lvgl/src/misc/lv_timer.c ****         state_p->timer_deleted             = false;
 623              		.loc 1 97 5 view .LVU189
  98:Drivers/lvgl/src/misc/lv_timer.c ****         state_p->timer_created             = false;
 624              		.loc 1 98 9 view .LVU190
  98:Drivers/lvgl/src/misc/lv_timer.c ****         state_p->timer_created             = false;
 625              		.loc 1 98 44 is_stmt 0 view .LVU191
 626 0070 2B48     		ldr	r0, .L60
 627 0072 0023     		movs	r3, #0
 628 0074 80F88230 		strb	r3, [r0, #130]
  99:Drivers/lvgl/src/misc/lv_timer.c **** 
 629              		.loc 1 99 9 is_stmt 1 view .LVU192
  99:Drivers/lvgl/src/misc/lv_timer.c **** 
 630              		.loc 1 99 44 is_stmt 0 view .LVU193
 631 0078 80F88330 		strb	r3, [r0, #131]
 101:Drivers/lvgl/src/misc/lv_timer.c ****         while(timer_active) {
 632              		.loc 1 101 9 is_stmt 1 view .LVU194
 101:Drivers/lvgl/src/misc/lv_timer.c ****         while(timer_active) {
 633              		.loc 1 101 24 is_stmt 0 view .LVU195
 634 007c 7430     		adds	r0, r0, #116
 635 007e FFF7FEFF 		bl	lv_ll_get_head
 636              	.LVL47:
 637 0082 0446     		mov	r4, r0
 638              	.LVL48:
 102:Drivers/lvgl/src/misc/lv_timer.c ****             /*The timer might be deleted if it runs only once ('repeat_count = 1')
 639              		.loc 1 102 9 is_stmt 1 view .LVU196
 102:Drivers/lvgl/src/misc/lv_timer.c ****             /*The timer might be deleted if it runs only once ('repeat_count = 1')
 640              		.loc 1 102 14 is_stmt 0 view .LVU197
 641 0084 E2E7     		b	.L44
 642              	.LVL49:
ARM GAS  /tmp/ccu0iwlI.s 			page 22


 643              	.L58:
 119:Drivers/lvgl/src/misc/lv_timer.c ****     next = lv_ll_get_head(timer_head);
 644              		.loc 1 119 5 is_stmt 1 view .LVU198
 120:Drivers/lvgl/src/misc/lv_timer.c ****     while(next) {
 645              		.loc 1 120 5 view .LVU199
 120:Drivers/lvgl/src/misc/lv_timer.c ****     while(next) {
 646              		.loc 1 120 12 is_stmt 0 view .LVU200
 647 0086 2748     		ldr	r0, .L60+4
 648              	.LVL50:
 120:Drivers/lvgl/src/misc/lv_timer.c ****     while(next) {
 649              		.loc 1 120 12 view .LVU201
 650 0088 FFF7FEFF 		bl	lv_ll_get_head
 651              	.LVL51:
 120:Drivers/lvgl/src/misc/lv_timer.c ****     while(next) {
 652              		.loc 1 120 12 view .LVU202
 653 008c 0446     		mov	r4, r0
 654              	.LVL52:
 121:Drivers/lvgl/src/misc/lv_timer.c ****         if(!next->paused) {
 655              		.loc 1 121 5 is_stmt 1 view .LVU203
 119:Drivers/lvgl/src/misc/lv_timer.c ****     next = lv_ll_get_head(timer_head);
 656              		.loc 1 119 14 is_stmt 0 view .LVU204
 657 008e 4FF0FF35 		mov	r5, #-1
 121:Drivers/lvgl/src/misc/lv_timer.c ****         if(!next->paused) {
 658              		.loc 1 121 10 view .LVU205
 659 0092 04E0     		b	.L48
 660              	.LVL53:
 661              	.L49:
 128:Drivers/lvgl/src/misc/lv_timer.c ****     }
 662              		.loc 1 128 9 is_stmt 1 view .LVU206
 128:Drivers/lvgl/src/misc/lv_timer.c ****     }
 663              		.loc 1 128 16 is_stmt 0 view .LVU207
 664 0094 2146     		mov	r1, r4
 665 0096 2348     		ldr	r0, .L60+4
 666              	.LVL54:
 128:Drivers/lvgl/src/misc/lv_timer.c ****     }
 667              		.loc 1 128 16 view .LVU208
 668 0098 FFF7FEFF 		bl	lv_ll_get_next
 669              	.LVL55:
 128:Drivers/lvgl/src/misc/lv_timer.c ****     }
 670              		.loc 1 128 16 view .LVU209
 671 009c 0446     		mov	r4, r0
 672              	.LVL56:
 673              	.L48:
 121:Drivers/lvgl/src/misc/lv_timer.c ****         if(!next->paused) {
 674              		.loc 1 121 11 is_stmt 1 view .LVU210
 675 009e 54B1     		cbz	r4, .L59
 122:Drivers/lvgl/src/misc/lv_timer.c ****             uint32_t delay = lv_timer_time_remaining(next);
 676              		.loc 1 122 9 view .LVU211
 122:Drivers/lvgl/src/misc/lv_timer.c ****             uint32_t delay = lv_timer_time_remaining(next);
 677              		.loc 1 122 12 is_stmt 0 view .LVU212
 678 00a0 237D     		ldrb	r3, [r4, #20]	@ zero_extendqisi2
 122:Drivers/lvgl/src/misc/lv_timer.c ****             uint32_t delay = lv_timer_time_remaining(next);
 679              		.loc 1 122 11 view .LVU213
 680 00a2 13F0010F 		tst	r3, #1
 681 00a6 F5D1     		bne	.L49
 682              	.LBB8:
 123:Drivers/lvgl/src/misc/lv_timer.c ****             if(delay < time_until_next)
ARM GAS  /tmp/ccu0iwlI.s 			page 23


 683              		.loc 1 123 13 is_stmt 1 view .LVU214
 123:Drivers/lvgl/src/misc/lv_timer.c ****             if(delay < time_until_next)
 684              		.loc 1 123 30 is_stmt 0 view .LVU215
 685 00a8 2046     		mov	r0, r4
 686 00aa FFF7FEFF 		bl	lv_timer_time_remaining
 687              	.LVL57:
 124:Drivers/lvgl/src/misc/lv_timer.c ****                 time_until_next = delay;
 688              		.loc 1 124 13 is_stmt 1 view .LVU216
 124:Drivers/lvgl/src/misc/lv_timer.c ****                 time_until_next = delay;
 689              		.loc 1 124 15 is_stmt 0 view .LVU217
 690 00ae 8542     		cmp	r5, r0
 691 00b0 F0D9     		bls	.L49
 125:Drivers/lvgl/src/misc/lv_timer.c ****         }
 692              		.loc 1 125 33 view .LVU218
 693 00b2 0546     		mov	r5, r0
 694              	.LVL58:
 125:Drivers/lvgl/src/misc/lv_timer.c ****         }
 695              		.loc 1 125 33 view .LVU219
 696 00b4 EEE7     		b	.L49
 697              	.LVL59:
 698              	.L59:
 125:Drivers/lvgl/src/misc/lv_timer.c ****         }
 699              		.loc 1 125 33 view .LVU220
 700              	.LBE8:
 131:Drivers/lvgl/src/misc/lv_timer.c ****     uint32_t idle_period_time = lv_tick_elaps(state_p->idle_period_start);
 701              		.loc 1 131 5 is_stmt 1 view .LVU221
 131:Drivers/lvgl/src/misc/lv_timer.c ****     uint32_t idle_period_time = lv_tick_elaps(state_p->idle_period_start);
 702              		.loc 1 131 27 is_stmt 0 view .LVU222
 703 00b6 3046     		mov	r0, r6
 704 00b8 FFF7FEFF 		bl	lv_tick_elaps
 705              	.LVL60:
 131:Drivers/lvgl/src/misc/lv_timer.c ****     uint32_t idle_period_time = lv_tick_elaps(state_p->idle_period_start);
 706              		.loc 1 131 12 discriminator 1 view .LVU223
 707 00bc 184B     		ldr	r3, .L60
 708 00be D3F89020 		ldr	r2, [r3, #144]
 131:Drivers/lvgl/src/misc/lv_timer.c ****     uint32_t idle_period_time = lv_tick_elaps(state_p->idle_period_start);
 709              		.loc 1 131 24 discriminator 1 view .LVU224
 710 00c2 0244     		add	r2, r2, r0
 711 00c4 C3F89020 		str	r2, [r3, #144]
 132:Drivers/lvgl/src/misc/lv_timer.c ****     if(idle_period_time >= IDLE_MEAS_PERIOD) {
 712              		.loc 1 132 5 is_stmt 1 view .LVU225
 132:Drivers/lvgl/src/misc/lv_timer.c ****     if(idle_period_time >= IDLE_MEAS_PERIOD) {
 713              		.loc 1 132 33 is_stmt 0 view .LVU226
 714 00c8 D3F89400 		ldr	r0, [r3, #148]
 715 00cc FFF7FEFF 		bl	lv_tick_elaps
 716              	.LVL61:
 133:Drivers/lvgl/src/misc/lv_timer.c ****         state_p->idle_last         = (state_p->busy_time * 100) / idle_period_time;  /*Calculate th
 717              		.loc 1 133 5 is_stmt 1 view .LVU227
 133:Drivers/lvgl/src/misc/lv_timer.c ****         state_p->idle_last         = (state_p->busy_time * 100) / idle_period_time;  /*Calculate th
 718              		.loc 1 133 7 is_stmt 0 view .LVU228
 719 00d0 B0F5FA7F 		cmp	r0, #500
 720 00d4 18D3     		bcc	.L51
 134:Drivers/lvgl/src/misc/lv_timer.c ****         state_p->idle_last         = state_p->idle_last > 100 ? 0 : 100 - state_p->idle_last; /*But
 721              		.loc 1 134 9 is_stmt 1 view .LVU229
 134:Drivers/lvgl/src/misc/lv_timer.c ****         state_p->idle_last         = state_p->idle_last > 100 ? 0 : 100 - state_p->idle_last; /*But
 722              		.loc 1 134 46 is_stmt 0 view .LVU230
 723 00d6 124A     		ldr	r2, .L60
ARM GAS  /tmp/ccu0iwlI.s 			page 24


 724 00d8 D2F89030 		ldr	r3, [r2, #144]
 134:Drivers/lvgl/src/misc/lv_timer.c ****         state_p->idle_last         = state_p->idle_last > 100 ? 0 : 100 - state_p->idle_last; /*But
 725              		.loc 1 134 58 view .LVU231
 726 00dc 6421     		movs	r1, #100
 727 00de 01FB03F3 		mul	r3, r1, r3
 134:Drivers/lvgl/src/misc/lv_timer.c ****         state_p->idle_last         = state_p->idle_last > 100 ? 0 : 100 - state_p->idle_last; /*But
 728              		.loc 1 134 65 view .LVU232
 729 00e2 B3FBF0F3 		udiv	r3, r3, r0
 134:Drivers/lvgl/src/misc/lv_timer.c ****         state_p->idle_last         = state_p->idle_last > 100 ? 0 : 100 - state_p->idle_last; /*But
 730              		.loc 1 134 36 view .LVU233
 731 00e6 DBB2     		uxtb	r3, r3
 732 00e8 82F88130 		strb	r3, [r2, #129]
 135:Drivers/lvgl/src/misc/lv_timer.c ****         state_p->busy_time         = 0;
 733              		.loc 1 135 9 is_stmt 1 view .LVU234
 135:Drivers/lvgl/src/misc/lv_timer.c ****         state_p->busy_time         = 0;
 734              		.loc 1 135 36 is_stmt 0 view .LVU235
 735 00ec 8B42     		cmp	r3, r1
 736 00ee 12D8     		bhi	.L56
 135:Drivers/lvgl/src/misc/lv_timer.c ****         state_p->busy_time         = 0;
 737              		.loc 1 135 36 discriminator 1 view .LVU236
 738 00f0 CB1A     		subs	r3, r1, r3
 739 00f2 DBB2     		uxtb	r3, r3
 740              	.L52:
 135:Drivers/lvgl/src/misc/lv_timer.c ****         state_p->busy_time         = 0;
 741              		.loc 1 135 36 discriminator 4 view .LVU237
 742 00f4 0A4C     		ldr	r4, .L60
 743              	.LVL62:
 135:Drivers/lvgl/src/misc/lv_timer.c ****         state_p->busy_time         = 0;
 744              		.loc 1 135 36 discriminator 4 view .LVU238
 745 00f6 84F88130 		strb	r3, [r4, #129]
 136:Drivers/lvgl/src/misc/lv_timer.c ****         state_p->idle_period_start = lv_tick_get();
 746              		.loc 1 136 9 is_stmt 1 view .LVU239
 136:Drivers/lvgl/src/misc/lv_timer.c ****         state_p->idle_period_start = lv_tick_get();
 747              		.loc 1 136 36 is_stmt 0 view .LVU240
 748 00fa 0023     		movs	r3, #0
 749 00fc C4F89030 		str	r3, [r4, #144]
 137:Drivers/lvgl/src/misc/lv_timer.c ****     }
 750              		.loc 1 137 9 is_stmt 1 view .LVU241
 137:Drivers/lvgl/src/misc/lv_timer.c ****     }
 751              		.loc 1 137 38 is_stmt 0 view .LVU242
 752 0100 FFF7FEFF 		bl	lv_tick_get
 753              	.LVL63:
 137:Drivers/lvgl/src/misc/lv_timer.c ****     }
 754              		.loc 1 137 36 discriminator 1 view .LVU243
 755 0104 C4F89400 		str	r0, [r4, #148]
 756              	.L51:
 140:Drivers/lvgl/src/misc/lv_timer.c ****     state_p->already_running = false; /*Release the mutex*/
 757              		.loc 1 140 5 is_stmt 1 view .LVU244
 140:Drivers/lvgl/src/misc/lv_timer.c ****     state_p->already_running = false; /*Release the mutex*/
 758              		.loc 1 140 36 is_stmt 0 view .LVU245
 759 0108 054B     		ldr	r3, .L60
 760 010a C3F88450 		str	r5, [r3, #132]
 141:Drivers/lvgl/src/misc/lv_timer.c **** 
 761              		.loc 1 141 5 is_stmt 1 view .LVU246
 141:Drivers/lvgl/src/misc/lv_timer.c **** 
 762              		.loc 1 141 30 is_stmt 0 view .LVU247
 763 010e 0022     		movs	r2, #0
ARM GAS  /tmp/ccu0iwlI.s 			page 25


 764 0110 83F88820 		strb	r2, [r3, #136]
 143:Drivers/lvgl/src/misc/lv_timer.c ****     lv_unlock();
 765              		.loc 1 143 94 is_stmt 1 view .LVU248
 144:Drivers/lvgl/src/misc/lv_timer.c **** 
 766              		.loc 1 144 5 view .LVU249
 146:Drivers/lvgl/src/misc/lv_timer.c ****     return time_until_next;
 767              		.loc 1 146 26 view .LVU250
 147:Drivers/lvgl/src/misc/lv_timer.c **** }
 768              		.loc 1 147 5 view .LVU251
 147:Drivers/lvgl/src/misc/lv_timer.c **** }
 769              		.loc 1 147 12 is_stmt 0 view .LVU252
 770 0114 02E0     		b	.L40
 771              	.LVL64:
 772              	.L56:
 135:Drivers/lvgl/src/misc/lv_timer.c ****         state_p->busy_time         = 0;
 773              		.loc 1 135 36 discriminator 2 view .LVU253
 774 0116 0023     		movs	r3, #0
 775 0118 ECE7     		b	.L52
 776              	.LVL65:
 777              	.L53:
  71:Drivers/lvgl/src/misc/lv_timer.c ****     }
 778              		.loc 1 71 16 view .LVU254
 779 011a 0125     		movs	r5, #1
 780              	.L40:
 148:Drivers/lvgl/src/misc/lv_timer.c **** 
 781              		.loc 1 148 1 view .LVU255
 782 011c 2846     		mov	r0, r5
 783 011e 70BD     		pop	{r4, r5, r6, pc}
 784              	.L61:
 785              		.align	2
 786              	.L60:
 787 0120 00000000 		.word	lv_global
 788 0124 74000000 		.word	lv_global+116
 789              		.cfi_endproc
 790              	.LFE187:
 792              		.section	.text.lv_timer_periodic_handler,"ax",%progbits
 793              		.align	1
 794              		.global	lv_timer_periodic_handler
 795              		.syntax unified
 796              		.thumb
 797              		.thumb_func
 799              	lv_timer_periodic_handler:
 800              	.LFB188:
 151:Drivers/lvgl/src/misc/lv_timer.c ****     lv_timer_state_t * state_p = &state;
 801              		.loc 1 151 1 is_stmt 1 view -0
 802              		.cfi_startproc
 803              		@ args = 0, pretend = 0, frame = 0
 804              		@ frame_needed = 0, uses_anonymous_args = 0
 805 0000 10B5     		push	{r4, lr}
 806              	.LCFI7:
 807              		.cfi_def_cfa_offset 8
 808              		.cfi_offset 4, -8
 809              		.cfi_offset 14, -4
 152:Drivers/lvgl/src/misc/lv_timer.c ****     if(lv_tick_elaps(state_p->periodic_last_tick) >= state_p->timer_time_until_next) {
 810              		.loc 1 152 5 view .LVU257
 811              	.LVL66:
 153:Drivers/lvgl/src/misc/lv_timer.c ****         LV_TRACE_TIMER("calling lv_timer_handler()");
ARM GAS  /tmp/ccu0iwlI.s 			page 26


 812              		.loc 1 153 5 view .LVU258
 153:Drivers/lvgl/src/misc/lv_timer.c ****         LV_TRACE_TIMER("calling lv_timer_handler()");
 813              		.loc 1 153 8 is_stmt 0 view .LVU259
 814 0002 084C     		ldr	r4, .L66
 815 0004 D4F88C00 		ldr	r0, [r4, #140]
 816 0008 FFF7FEFF 		bl	lv_tick_elaps
 817              	.LVL67:
 153:Drivers/lvgl/src/misc/lv_timer.c ****         LV_TRACE_TIMER("calling lv_timer_handler()");
 818              		.loc 1 153 61 discriminator 1 view .LVU260
 819 000c D4F88430 		ldr	r3, [r4, #132]
 153:Drivers/lvgl/src/misc/lv_timer.c ****         LV_TRACE_TIMER("calling lv_timer_handler()");
 820              		.loc 1 153 7 discriminator 1 view .LVU261
 821 0010 9842     		cmp	r0, r3
 822 0012 00D2     		bcs	.L65
 823              	.L62:
 158:Drivers/lvgl/src/misc/lv_timer.c **** 
 824              		.loc 1 158 1 view .LVU262
 825 0014 10BD     		pop	{r4, pc}
 826              	.L65:
 154:Drivers/lvgl/src/misc/lv_timer.c ****         lv_timer_handler();
 827              		.loc 1 154 53 is_stmt 1 view .LVU263
 155:Drivers/lvgl/src/misc/lv_timer.c ****         state_p->periodic_last_tick = lv_tick_get();
 828              		.loc 1 155 9 view .LVU264
 829 0016 FFF7FEFF 		bl	lv_timer_handler
 830              	.LVL68:
 156:Drivers/lvgl/src/misc/lv_timer.c ****     }
 831              		.loc 1 156 9 view .LVU265
 156:Drivers/lvgl/src/misc/lv_timer.c ****     }
 832              		.loc 1 156 39 is_stmt 0 view .LVU266
 833 001a FFF7FEFF 		bl	lv_tick_get
 834              	.LVL69:
 156:Drivers/lvgl/src/misc/lv_timer.c ****     }
 835              		.loc 1 156 37 discriminator 1 view .LVU267
 836 001e C4F88C00 		str	r0, [r4, #140]
 158:Drivers/lvgl/src/misc/lv_timer.c **** 
 837              		.loc 1 158 1 view .LVU268
 838 0022 F7E7     		b	.L62
 839              	.L67:
 840              		.align	2
 841              	.L66:
 842 0024 00000000 		.word	lv_global
 843              		.cfi_endproc
 844              	.LFE188:
 846              		.section	.text.lv_timer_resume,"ax",%progbits
 847              		.align	1
 848              		.global	lv_timer_resume
 849              		.syntax unified
 850              		.thumb
 851              		.thumb_func
 853              	lv_timer_resume:
 854              	.LVL70:
 855              	.LFB194:
 209:Drivers/lvgl/src/misc/lv_timer.c ****     LV_ASSERT_NULL(timer);
 856              		.loc 1 209 1 is_stmt 1 view -0
 857              		.cfi_startproc
 858              		@ args = 0, pretend = 0, frame = 0
 859              		@ frame_needed = 0, uses_anonymous_args = 0
ARM GAS  /tmp/ccu0iwlI.s 			page 27


 210:Drivers/lvgl/src/misc/lv_timer.c ****     timer->paused = false;
 860              		.loc 1 210 5 view .LVU270
 210:Drivers/lvgl/src/misc/lv_timer.c ****     timer->paused = false;
 861              		.loc 1 210 5 view .LVU271
 862 0000 38B1     		cbz	r0, .L70
 209:Drivers/lvgl/src/misc/lv_timer.c ****     LV_ASSERT_NULL(timer);
 863              		.loc 1 209 1 is_stmt 0 view .LVU272
 864 0002 08B5     		push	{r3, lr}
 865              	.LCFI8:
 866              		.cfi_def_cfa_offset 8
 867              		.cfi_offset 3, -8
 868              		.cfi_offset 14, -4
 210:Drivers/lvgl/src/misc/lv_timer.c ****     timer->paused = false;
 869              		.loc 1 210 5 is_stmt 1 discriminator 2 view .LVU273
 210:Drivers/lvgl/src/misc/lv_timer.c ****     timer->paused = false;
 870              		.loc 1 210 26 discriminator 2 view .LVU274
 211:Drivers/lvgl/src/misc/lv_timer.c ****     lv_timer_handler_resume();
 871              		.loc 1 211 5 view .LVU275
 211:Drivers/lvgl/src/misc/lv_timer.c ****     lv_timer_handler_resume();
 872              		.loc 1 211 19 is_stmt 0 view .LVU276
 873 0004 037D     		ldrb	r3, [r0, #20]	@ zero_extendqisi2
 874 0006 23F00103 		bic	r3, r3, #1
 875 000a 0375     		strb	r3, [r0, #20]
 212:Drivers/lvgl/src/misc/lv_timer.c **** }
 876              		.loc 1 212 5 is_stmt 1 view .LVU277
 877 000c FFF7FEFF 		bl	lv_timer_handler_resume
 878              	.LVL71:
 213:Drivers/lvgl/src/misc/lv_timer.c **** 
 879              		.loc 1 213 1 is_stmt 0 view .LVU278
 880 0010 08BD     		pop	{r3, pc}
 881              	.LVL72:
 882              	.L70:
 883              	.LCFI9:
 884              		.cfi_def_cfa_offset 0
 885              		.cfi_restore 3
 886              		.cfi_restore 14
 210:Drivers/lvgl/src/misc/lv_timer.c ****     timer->paused = false;
 887              		.loc 1 210 5 is_stmt 1 discriminator 1 view .LVU279
 210:Drivers/lvgl/src/misc/lv_timer.c ****     timer->paused = false;
 888              		.loc 1 210 5 discriminator 1 view .LVU280
 210:Drivers/lvgl/src/misc/lv_timer.c ****     timer->paused = false;
 889              		.loc 1 210 5 discriminator 1 view .LVU281
 210:Drivers/lvgl/src/misc/lv_timer.c ****     timer->paused = false;
 890              		.loc 1 210 5 discriminator 1 view .LVU282
 210:Drivers/lvgl/src/misc/lv_timer.c ****     timer->paused = false;
 891              		.loc 1 210 5 discriminator 1 view .LVU283
 892 0012 FEE7     		b	.L70
 893              		.cfi_endproc
 894              	.LFE194:
 896              		.section	.text.lv_timer_set_period,"ax",%progbits
 897              		.align	1
 898              		.global	lv_timer_set_period
 899              		.syntax unified
 900              		.thumb
 901              		.thumb_func
 903              	lv_timer_set_period:
 904              	.LVL73:
ARM GAS  /tmp/ccu0iwlI.s 			page 28


 905              	.LFB195:
 216:Drivers/lvgl/src/misc/lv_timer.c ****     LV_ASSERT_NULL(timer);
 906              		.loc 1 216 1 view -0
 907              		.cfi_startproc
 908              		@ args = 0, pretend = 0, frame = 0
 909              		@ frame_needed = 0, uses_anonymous_args = 0
 910              		@ link register save eliminated.
 217:Drivers/lvgl/src/misc/lv_timer.c ****     timer->period = period;
 911              		.loc 1 217 5 view .LVU285
 217:Drivers/lvgl/src/misc/lv_timer.c ****     timer->period = period;
 912              		.loc 1 217 5 view .LVU286
 913 0000 08B1     		cbz	r0, .L75
 217:Drivers/lvgl/src/misc/lv_timer.c ****     timer->period = period;
 914              		.loc 1 217 5 discriminator 2 view .LVU287
 217:Drivers/lvgl/src/misc/lv_timer.c ****     timer->period = period;
 915              		.loc 1 217 26 discriminator 2 view .LVU288
 218:Drivers/lvgl/src/misc/lv_timer.c **** }
 916              		.loc 1 218 5 view .LVU289
 218:Drivers/lvgl/src/misc/lv_timer.c **** }
 917              		.loc 1 218 19 is_stmt 0 view .LVU290
 918 0002 0160     		str	r1, [r0]
 219:Drivers/lvgl/src/misc/lv_timer.c **** 
 919              		.loc 1 219 1 view .LVU291
 920 0004 7047     		bx	lr
 921              	.L75:
 217:Drivers/lvgl/src/misc/lv_timer.c ****     timer->period = period;
 922              		.loc 1 217 5 is_stmt 1 discriminator 1 view .LVU292
 217:Drivers/lvgl/src/misc/lv_timer.c ****     timer->period = period;
 923              		.loc 1 217 5 discriminator 1 view .LVU293
 217:Drivers/lvgl/src/misc/lv_timer.c ****     timer->period = period;
 924              		.loc 1 217 5 discriminator 1 view .LVU294
 217:Drivers/lvgl/src/misc/lv_timer.c ****     timer->period = period;
 925              		.loc 1 217 5 discriminator 1 view .LVU295
 217:Drivers/lvgl/src/misc/lv_timer.c ****     timer->period = period;
 926              		.loc 1 217 5 discriminator 1 view .LVU296
 927 0006 FEE7     		b	.L75
 928              		.cfi_endproc
 929              	.LFE195:
 931              		.section	.text.lv_timer_ready,"ax",%progbits
 932              		.align	1
 933              		.global	lv_timer_ready
 934              		.syntax unified
 935              		.thumb
 936              		.thumb_func
 938              	lv_timer_ready:
 939              	.LVL74:
 940              	.LFB196:
 222:Drivers/lvgl/src/misc/lv_timer.c ****     LV_ASSERT_NULL(timer);
 941              		.loc 1 222 1 view -0
 942              		.cfi_startproc
 943              		@ args = 0, pretend = 0, frame = 0
 944              		@ frame_needed = 0, uses_anonymous_args = 0
 223:Drivers/lvgl/src/misc/lv_timer.c ****     timer->last_run = lv_tick_get() - timer->period - 1;
 945              		.loc 1 223 5 view .LVU298
 223:Drivers/lvgl/src/misc/lv_timer.c ****     timer->last_run = lv_tick_get() - timer->period - 1;
 946              		.loc 1 223 5 view .LVU299
 947 0000 40B1     		cbz	r0, .L78
ARM GAS  /tmp/ccu0iwlI.s 			page 29


 222:Drivers/lvgl/src/misc/lv_timer.c ****     LV_ASSERT_NULL(timer);
 948              		.loc 1 222 1 is_stmt 0 view .LVU300
 949 0002 10B5     		push	{r4, lr}
 950              	.LCFI10:
 951              		.cfi_def_cfa_offset 8
 952              		.cfi_offset 4, -8
 953              		.cfi_offset 14, -4
 954 0004 0446     		mov	r4, r0
 223:Drivers/lvgl/src/misc/lv_timer.c ****     timer->last_run = lv_tick_get() - timer->period - 1;
 955              		.loc 1 223 5 is_stmt 1 discriminator 2 view .LVU301
 223:Drivers/lvgl/src/misc/lv_timer.c ****     timer->last_run = lv_tick_get() - timer->period - 1;
 956              		.loc 1 223 26 discriminator 2 view .LVU302
 224:Drivers/lvgl/src/misc/lv_timer.c **** }
 957              		.loc 1 224 5 view .LVU303
 224:Drivers/lvgl/src/misc/lv_timer.c **** }
 958              		.loc 1 224 23 is_stmt 0 view .LVU304
 959 0006 FFF7FEFF 		bl	lv_tick_get
 960              	.LVL75:
 224:Drivers/lvgl/src/misc/lv_timer.c **** }
 961              		.loc 1 224 44 discriminator 1 view .LVU305
 962 000a 2368     		ldr	r3, [r4]
 224:Drivers/lvgl/src/misc/lv_timer.c **** }
 963              		.loc 1 224 37 discriminator 1 view .LVU306
 964 000c C31A     		subs	r3, r0, r3
 224:Drivers/lvgl/src/misc/lv_timer.c **** }
 965              		.loc 1 224 53 discriminator 1 view .LVU307
 966 000e 013B     		subs	r3, r3, #1
 224:Drivers/lvgl/src/misc/lv_timer.c **** }
 967              		.loc 1 224 21 discriminator 1 view .LVU308
 968 0010 6360     		str	r3, [r4, #4]
 225:Drivers/lvgl/src/misc/lv_timer.c **** 
 969              		.loc 1 225 1 view .LVU309
 970 0012 10BD     		pop	{r4, pc}
 971              	.LVL76:
 972              	.L78:
 973              	.LCFI11:
 974              		.cfi_def_cfa_offset 0
 975              		.cfi_restore 4
 976              		.cfi_restore 14
 223:Drivers/lvgl/src/misc/lv_timer.c ****     timer->last_run = lv_tick_get() - timer->period - 1;
 977              		.loc 1 223 5 is_stmt 1 discriminator 1 view .LVU310
 223:Drivers/lvgl/src/misc/lv_timer.c ****     timer->last_run = lv_tick_get() - timer->period - 1;
 978              		.loc 1 223 5 discriminator 1 view .LVU311
 223:Drivers/lvgl/src/misc/lv_timer.c ****     timer->last_run = lv_tick_get() - timer->period - 1;
 979              		.loc 1 223 5 discriminator 1 view .LVU312
 223:Drivers/lvgl/src/misc/lv_timer.c ****     timer->last_run = lv_tick_get() - timer->period - 1;
 980              		.loc 1 223 5 discriminator 1 view .LVU313
 223:Drivers/lvgl/src/misc/lv_timer.c ****     timer->last_run = lv_tick_get() - timer->period - 1;
 981              		.loc 1 223 5 discriminator 1 view .LVU314
 982 0014 FEE7     		b	.L78
 983              		.cfi_endproc
 984              	.LFE196:
 986              		.section	.text.lv_timer_set_repeat_count,"ax",%progbits
 987              		.align	1
 988              		.global	lv_timer_set_repeat_count
 989              		.syntax unified
 990              		.thumb
ARM GAS  /tmp/ccu0iwlI.s 			page 30


 991              		.thumb_func
 993              	lv_timer_set_repeat_count:
 994              	.LVL77:
 995              	.LFB197:
 228:Drivers/lvgl/src/misc/lv_timer.c ****     LV_ASSERT_NULL(timer);
 996              		.loc 1 228 1 view -0
 997              		.cfi_startproc
 998              		@ args = 0, pretend = 0, frame = 0
 999              		@ frame_needed = 0, uses_anonymous_args = 0
 1000              		@ link register save eliminated.
 229:Drivers/lvgl/src/misc/lv_timer.c ****     timer->repeat_count = repeat_count;
 1001              		.loc 1 229 5 view .LVU316
 229:Drivers/lvgl/src/misc/lv_timer.c ****     timer->repeat_count = repeat_count;
 1002              		.loc 1 229 5 view .LVU317
 1003 0000 08B1     		cbz	r0, .L83
 229:Drivers/lvgl/src/misc/lv_timer.c ****     timer->repeat_count = repeat_count;
 1004              		.loc 1 229 5 discriminator 2 view .LVU318
 229:Drivers/lvgl/src/misc/lv_timer.c ****     timer->repeat_count = repeat_count;
 1005              		.loc 1 229 26 discriminator 2 view .LVU319
 230:Drivers/lvgl/src/misc/lv_timer.c **** }
 1006              		.loc 1 230 5 view .LVU320
 230:Drivers/lvgl/src/misc/lv_timer.c **** }
 1007              		.loc 1 230 25 is_stmt 0 view .LVU321
 1008 0002 0161     		str	r1, [r0, #16]
 231:Drivers/lvgl/src/misc/lv_timer.c **** 
 1009              		.loc 1 231 1 view .LVU322
 1010 0004 7047     		bx	lr
 1011              	.L83:
 229:Drivers/lvgl/src/misc/lv_timer.c ****     timer->repeat_count = repeat_count;
 1012              		.loc 1 229 5 is_stmt 1 discriminator 1 view .LVU323
 229:Drivers/lvgl/src/misc/lv_timer.c ****     timer->repeat_count = repeat_count;
 1013              		.loc 1 229 5 discriminator 1 view .LVU324
 229:Drivers/lvgl/src/misc/lv_timer.c ****     timer->repeat_count = repeat_count;
 1014              		.loc 1 229 5 discriminator 1 view .LVU325
 229:Drivers/lvgl/src/misc/lv_timer.c ****     timer->repeat_count = repeat_count;
 1015              		.loc 1 229 5 discriminator 1 view .LVU326
 229:Drivers/lvgl/src/misc/lv_timer.c ****     timer->repeat_count = repeat_count;
 1016              		.loc 1 229 5 discriminator 1 view .LVU327
 1017 0006 FEE7     		b	.L83
 1018              		.cfi_endproc
 1019              	.LFE197:
 1021              		.section	.text.lv_timer_set_auto_delete,"ax",%progbits
 1022              		.align	1
 1023              		.global	lv_timer_set_auto_delete
 1024              		.syntax unified
 1025              		.thumb
 1026              		.thumb_func
 1028              	lv_timer_set_auto_delete:
 1029              	.LVL78:
 1030              	.LFB198:
 234:Drivers/lvgl/src/misc/lv_timer.c ****     LV_ASSERT_NULL(timer);
 1031              		.loc 1 234 1 view -0
 1032              		.cfi_startproc
 1033              		@ args = 0, pretend = 0, frame = 0
 1034              		@ frame_needed = 0, uses_anonymous_args = 0
 1035              		@ link register save eliminated.
 235:Drivers/lvgl/src/misc/lv_timer.c ****     timer->auto_delete = auto_delete;
ARM GAS  /tmp/ccu0iwlI.s 			page 31


 1036              		.loc 1 235 5 view .LVU329
 235:Drivers/lvgl/src/misc/lv_timer.c ****     timer->auto_delete = auto_delete;
 1037              		.loc 1 235 5 view .LVU330
 1038 0000 20B1     		cbz	r0, .L86
 235:Drivers/lvgl/src/misc/lv_timer.c ****     timer->auto_delete = auto_delete;
 1039              		.loc 1 235 5 discriminator 2 view .LVU331
 235:Drivers/lvgl/src/misc/lv_timer.c ****     timer->auto_delete = auto_delete;
 1040              		.loc 1 235 26 discriminator 2 view .LVU332
 236:Drivers/lvgl/src/misc/lv_timer.c **** }
 1041              		.loc 1 236 5 view .LVU333
 236:Drivers/lvgl/src/misc/lv_timer.c **** }
 1042              		.loc 1 236 24 is_stmt 0 view .LVU334
 1043 0002 027D     		ldrb	r2, [r0, #20]	@ zero_extendqisi2
 1044 0004 61F34102 		bfi	r2, r1, #1, #1
 1045 0008 0275     		strb	r2, [r0, #20]
 237:Drivers/lvgl/src/misc/lv_timer.c **** 
 1046              		.loc 1 237 1 view .LVU335
 1047 000a 7047     		bx	lr
 1048              	.L86:
 235:Drivers/lvgl/src/misc/lv_timer.c ****     timer->auto_delete = auto_delete;
 1049              		.loc 1 235 5 is_stmt 1 discriminator 1 view .LVU336
 235:Drivers/lvgl/src/misc/lv_timer.c ****     timer->auto_delete = auto_delete;
 1050              		.loc 1 235 5 discriminator 1 view .LVU337
 235:Drivers/lvgl/src/misc/lv_timer.c ****     timer->auto_delete = auto_delete;
 1051              		.loc 1 235 5 discriminator 1 view .LVU338
 235:Drivers/lvgl/src/misc/lv_timer.c ****     timer->auto_delete = auto_delete;
 1052              		.loc 1 235 5 discriminator 1 view .LVU339
 235:Drivers/lvgl/src/misc/lv_timer.c ****     timer->auto_delete = auto_delete;
 1053              		.loc 1 235 5 discriminator 1 view .LVU340
 1054 000c FEE7     		b	.L86
 1055              		.cfi_endproc
 1056              	.LFE198:
 1058              		.section	.text.lv_timer_set_user_data,"ax",%progbits
 1059              		.align	1
 1060              		.global	lv_timer_set_user_data
 1061              		.syntax unified
 1062              		.thumb
 1063              		.thumb_func
 1065              	lv_timer_set_user_data:
 1066              	.LVL79:
 1067              	.LFB199:
 240:Drivers/lvgl/src/misc/lv_timer.c ****     LV_ASSERT_NULL(timer);
 1068              		.loc 1 240 1 view -0
 1069              		.cfi_startproc
 1070              		@ args = 0, pretend = 0, frame = 0
 1071              		@ frame_needed = 0, uses_anonymous_args = 0
 1072              		@ link register save eliminated.
 241:Drivers/lvgl/src/misc/lv_timer.c ****     timer->user_data = user_data;
 1073              		.loc 1 241 5 view .LVU342
 241:Drivers/lvgl/src/misc/lv_timer.c ****     timer->user_data = user_data;
 1074              		.loc 1 241 5 view .LVU343
 1075 0000 08B1     		cbz	r0, .L89
 241:Drivers/lvgl/src/misc/lv_timer.c ****     timer->user_data = user_data;
 1076              		.loc 1 241 5 discriminator 2 view .LVU344
 241:Drivers/lvgl/src/misc/lv_timer.c ****     timer->user_data = user_data;
 1077              		.loc 1 241 26 discriminator 2 view .LVU345
 242:Drivers/lvgl/src/misc/lv_timer.c **** }
ARM GAS  /tmp/ccu0iwlI.s 			page 32


 1078              		.loc 1 242 5 view .LVU346
 242:Drivers/lvgl/src/misc/lv_timer.c **** }
 1079              		.loc 1 242 22 is_stmt 0 view .LVU347
 1080 0002 C160     		str	r1, [r0, #12]
 243:Drivers/lvgl/src/misc/lv_timer.c **** 
 1081              		.loc 1 243 1 view .LVU348
 1082 0004 7047     		bx	lr
 1083              	.L89:
 241:Drivers/lvgl/src/misc/lv_timer.c ****     timer->user_data = user_data;
 1084              		.loc 1 241 5 is_stmt 1 discriminator 1 view .LVU349
 241:Drivers/lvgl/src/misc/lv_timer.c ****     timer->user_data = user_data;
 1085              		.loc 1 241 5 discriminator 1 view .LVU350
 241:Drivers/lvgl/src/misc/lv_timer.c ****     timer->user_data = user_data;
 1086              		.loc 1 241 5 discriminator 1 view .LVU351
 241:Drivers/lvgl/src/misc/lv_timer.c ****     timer->user_data = user_data;
 1087              		.loc 1 241 5 discriminator 1 view .LVU352
 241:Drivers/lvgl/src/misc/lv_timer.c ****     timer->user_data = user_data;
 1088              		.loc 1 241 5 discriminator 1 view .LVU353
 1089 0006 FEE7     		b	.L89
 1090              		.cfi_endproc
 1091              	.LFE199:
 1093              		.section	.text.lv_timer_reset,"ax",%progbits
 1094              		.align	1
 1095              		.global	lv_timer_reset
 1096              		.syntax unified
 1097              		.thumb
 1098              		.thumb_func
 1100              	lv_timer_reset:
 1101              	.LVL80:
 1102              	.LFB200:
 246:Drivers/lvgl/src/misc/lv_timer.c ****     LV_ASSERT_NULL(timer);
 1103              		.loc 1 246 1 view -0
 1104              		.cfi_startproc
 1105              		@ args = 0, pretend = 0, frame = 0
 1106              		@ frame_needed = 0, uses_anonymous_args = 0
 247:Drivers/lvgl/src/misc/lv_timer.c ****     timer->last_run = lv_tick_get();
 1107              		.loc 1 247 5 view .LVU355
 247:Drivers/lvgl/src/misc/lv_timer.c ****     timer->last_run = lv_tick_get();
 1108              		.loc 1 247 5 view .LVU356
 1109 0000 38B1     		cbz	r0, .L92
 246:Drivers/lvgl/src/misc/lv_timer.c ****     LV_ASSERT_NULL(timer);
 1110              		.loc 1 246 1 is_stmt 0 view .LVU357
 1111 0002 10B5     		push	{r4, lr}
 1112              	.LCFI12:
 1113              		.cfi_def_cfa_offset 8
 1114              		.cfi_offset 4, -8
 1115              		.cfi_offset 14, -4
 1116 0004 0446     		mov	r4, r0
 247:Drivers/lvgl/src/misc/lv_timer.c ****     timer->last_run = lv_tick_get();
 1117              		.loc 1 247 5 is_stmt 1 discriminator 2 view .LVU358
 247:Drivers/lvgl/src/misc/lv_timer.c ****     timer->last_run = lv_tick_get();
 1118              		.loc 1 247 26 discriminator 2 view .LVU359
 248:Drivers/lvgl/src/misc/lv_timer.c ****     lv_timer_handler_resume();
 1119              		.loc 1 248 5 view .LVU360
 248:Drivers/lvgl/src/misc/lv_timer.c ****     lv_timer_handler_resume();
 1120              		.loc 1 248 23 is_stmt 0 view .LVU361
 1121 0006 FFF7FEFF 		bl	lv_tick_get
ARM GAS  /tmp/ccu0iwlI.s 			page 33


 1122              	.LVL81:
 248:Drivers/lvgl/src/misc/lv_timer.c ****     lv_timer_handler_resume();
 1123              		.loc 1 248 21 discriminator 1 view .LVU362
 1124 000a 6060     		str	r0, [r4, #4]
 249:Drivers/lvgl/src/misc/lv_timer.c **** }
 1125              		.loc 1 249 5 is_stmt 1 view .LVU363
 1126 000c FFF7FEFF 		bl	lv_timer_handler_resume
 1127              	.LVL82:
 250:Drivers/lvgl/src/misc/lv_timer.c **** 
 1128              		.loc 1 250 1 is_stmt 0 view .LVU364
 1129 0010 10BD     		pop	{r4, pc}
 1130              	.LVL83:
 1131              	.L92:
 1132              	.LCFI13:
 1133              		.cfi_def_cfa_offset 0
 1134              		.cfi_restore 4
 1135              		.cfi_restore 14
 247:Drivers/lvgl/src/misc/lv_timer.c ****     timer->last_run = lv_tick_get();
 1136              		.loc 1 247 5 is_stmt 1 discriminator 1 view .LVU365
 247:Drivers/lvgl/src/misc/lv_timer.c ****     timer->last_run = lv_tick_get();
 1137              		.loc 1 247 5 discriminator 1 view .LVU366
 247:Drivers/lvgl/src/misc/lv_timer.c ****     timer->last_run = lv_tick_get();
 1138              		.loc 1 247 5 discriminator 1 view .LVU367
 247:Drivers/lvgl/src/misc/lv_timer.c ****     timer->last_run = lv_tick_get();
 1139              		.loc 1 247 5 discriminator 1 view .LVU368
 247:Drivers/lvgl/src/misc/lv_timer.c ****     timer->last_run = lv_tick_get();
 1140              		.loc 1 247 5 discriminator 1 view .LVU369
 1141 0012 FEE7     		b	.L92
 1142              		.cfi_endproc
 1143              	.LFE200:
 1145              		.section	.text.lv_timer_enable,"ax",%progbits
 1146              		.align	1
 1147              		.global	lv_timer_enable
 1148              		.syntax unified
 1149              		.thumb
 1150              		.thumb_func
 1152              	lv_timer_enable:
 1153              	.LVL84:
 1154              	.LFB201:
 253:Drivers/lvgl/src/misc/lv_timer.c ****     state.lv_timer_run = en;
 1155              		.loc 1 253 1 view -0
 1156              		.cfi_startproc
 1157              		@ args = 0, pretend = 0, frame = 0
 1158              		@ frame_needed = 0, uses_anonymous_args = 0
 253:Drivers/lvgl/src/misc/lv_timer.c ****     state.lv_timer_run = en;
 1159              		.loc 1 253 1 is_stmt 0 view .LVU371
 1160 0000 08B5     		push	{r3, lr}
 1161              	.LCFI14:
 1162              		.cfi_def_cfa_offset 8
 1163              		.cfi_offset 3, -8
 1164              		.cfi_offset 14, -4
 254:Drivers/lvgl/src/misc/lv_timer.c ****     if(en) lv_timer_handler_resume();
 1165              		.loc 1 254 5 is_stmt 1 view .LVU372
 254:Drivers/lvgl/src/misc/lv_timer.c ****     if(en) lv_timer_handler_resume();
 1166              		.loc 1 254 24 is_stmt 0 view .LVU373
 1167 0002 044B     		ldr	r3, .L99
 1168 0004 83F88000 		strb	r0, [r3, #128]
ARM GAS  /tmp/ccu0iwlI.s 			page 34


 255:Drivers/lvgl/src/misc/lv_timer.c **** }
 1169              		.loc 1 255 5 is_stmt 1 view .LVU374
 255:Drivers/lvgl/src/misc/lv_timer.c **** }
 1170              		.loc 1 255 7 is_stmt 0 view .LVU375
 1171 0008 00B9     		cbnz	r0, .L98
 1172              	.LVL85:
 1173              	.L95:
 256:Drivers/lvgl/src/misc/lv_timer.c **** 
 1174              		.loc 1 256 1 view .LVU376
 1175 000a 08BD     		pop	{r3, pc}
 1176              	.LVL86:
 1177              	.L98:
 255:Drivers/lvgl/src/misc/lv_timer.c **** }
 1178              		.loc 1 255 12 is_stmt 1 discriminator 1 view .LVU377
 1179 000c FFF7FEFF 		bl	lv_timer_handler_resume
 1180              	.LVL87:
 256:Drivers/lvgl/src/misc/lv_timer.c **** 
 1181              		.loc 1 256 1 is_stmt 0 view .LVU378
 1182 0010 FBE7     		b	.L95
 1183              	.L100:
 1184 0012 00BF     		.align	2
 1185              	.L99:
 1186 0014 00000000 		.word	lv_global
 1187              		.cfi_endproc
 1188              	.LFE201:
 1190              		.section	.text.lv_timer_core_init,"ax",%progbits
 1191              		.align	1
 1192              		.global	lv_timer_core_init
 1193              		.syntax unified
 1194              		.thumb
 1195              		.thumb_func
 1197              	lv_timer_core_init:
 1198              	.LFB186:
  56:Drivers/lvgl/src/misc/lv_timer.c ****     lv_ll_init(timer_ll_p, sizeof(lv_timer_t));
 1199              		.loc 1 56 1 is_stmt 1 view -0
 1200              		.cfi_startproc
 1201              		@ args = 0, pretend = 0, frame = 0
 1202              		@ frame_needed = 0, uses_anonymous_args = 0
 1203 0000 08B5     		push	{r3, lr}
 1204              	.LCFI15:
 1205              		.cfi_def_cfa_offset 8
 1206              		.cfi_offset 3, -8
 1207              		.cfi_offset 14, -4
  57:Drivers/lvgl/src/misc/lv_timer.c **** 
 1208              		.loc 1 57 5 view .LVU380
 1209 0002 1821     		movs	r1, #24
 1210 0004 0348     		ldr	r0, .L103
 1211 0006 FFF7FEFF 		bl	lv_ll_init
 1212              	.LVL88:
  60:Drivers/lvgl/src/misc/lv_timer.c **** }
 1213              		.loc 1 60 5 view .LVU381
 1214 000a 0120     		movs	r0, #1
 1215 000c FFF7FEFF 		bl	lv_timer_enable
 1216              	.LVL89:
  61:Drivers/lvgl/src/misc/lv_timer.c **** 
 1217              		.loc 1 61 1 is_stmt 0 view .LVU382
 1218 0010 08BD     		pop	{r3, pc}
ARM GAS  /tmp/ccu0iwlI.s 			page 35


 1219              	.L104:
 1220 0012 00BF     		.align	2
 1221              	.L103:
 1222 0014 74000000 		.word	lv_global+116
 1223              		.cfi_endproc
 1224              	.LFE186:
 1226              		.section	.text.lv_timer_core_deinit,"ax",%progbits
 1227              		.align	1
 1228              		.global	lv_timer_core_deinit
 1229              		.syntax unified
 1230              		.thumb
 1231              		.thumb_func
 1233              	lv_timer_core_deinit:
 1234              	.LFB202:
 259:Drivers/lvgl/src/misc/lv_timer.c ****     lv_timer_enable(false);
 1235              		.loc 1 259 1 is_stmt 1 view -0
 1236              		.cfi_startproc
 1237              		@ args = 0, pretend = 0, frame = 0
 1238              		@ frame_needed = 0, uses_anonymous_args = 0
 1239 0000 08B5     		push	{r3, lr}
 1240              	.LCFI16:
 1241              		.cfi_def_cfa_offset 8
 1242              		.cfi_offset 3, -8
 1243              		.cfi_offset 14, -4
 260:Drivers/lvgl/src/misc/lv_timer.c **** 
 1244              		.loc 1 260 5 view .LVU384
 1245 0002 0020     		movs	r0, #0
 1246 0004 FFF7FEFF 		bl	lv_timer_enable
 1247              	.LVL90:
 262:Drivers/lvgl/src/misc/lv_timer.c **** }
 1248              		.loc 1 262 5 view .LVU385
 1249 0008 0148     		ldr	r0, .L107
 1250 000a FFF7FEFF 		bl	lv_ll_clear
 1251              	.LVL91:
 263:Drivers/lvgl/src/misc/lv_timer.c **** 
 1252              		.loc 1 263 1 is_stmt 0 view .LVU386
 1253 000e 08BD     		pop	{r3, pc}
 1254              	.L108:
 1255              		.align	2
 1256              	.L107:
 1257 0010 74000000 		.word	lv_global+116
 1258              		.cfi_endproc
 1259              	.LFE202:
 1261              		.section	.text.lv_timer_get_idle,"ax",%progbits
 1262              		.align	1
 1263              		.global	lv_timer_get_idle
 1264              		.syntax unified
 1265              		.thumb
 1266              		.thumb_func
 1268              	lv_timer_get_idle:
 1269              	.LFB203:
 266:Drivers/lvgl/src/misc/lv_timer.c ****     return state.idle_last;
 1270              		.loc 1 266 1 is_stmt 1 view -0
 1271              		.cfi_startproc
 1272              		@ args = 0, pretend = 0, frame = 0
 1273              		@ frame_needed = 0, uses_anonymous_args = 0
 1274              		@ link register save eliminated.
ARM GAS  /tmp/ccu0iwlI.s 			page 36


 267:Drivers/lvgl/src/misc/lv_timer.c **** }
 1275              		.loc 1 267 5 view .LVU388
 268:Drivers/lvgl/src/misc/lv_timer.c **** 
 1276              		.loc 1 268 1 is_stmt 0 view .LVU389
 1277 0000 014B     		ldr	r3, .L110
 1278 0002 93F88100 		ldrb	r0, [r3, #129]	@ zero_extendqisi2
 1279 0006 7047     		bx	lr
 1280              	.L111:
 1281              		.align	2
 1282              	.L110:
 1283 0008 00000000 		.word	lv_global
 1284              		.cfi_endproc
 1285              	.LFE203:
 1287              		.section	.text.lv_timer_get_time_until_next,"ax",%progbits
 1288              		.align	1
 1289              		.global	lv_timer_get_time_until_next
 1290              		.syntax unified
 1291              		.thumb
 1292              		.thumb_func
 1294              	lv_timer_get_time_until_next:
 1295              	.LFB204:
 271:Drivers/lvgl/src/misc/lv_timer.c ****     return state.timer_time_until_next;
 1296              		.loc 1 271 1 is_stmt 1 view -0
 1297              		.cfi_startproc
 1298              		@ args = 0, pretend = 0, frame = 0
 1299              		@ frame_needed = 0, uses_anonymous_args = 0
 1300              		@ link register save eliminated.
 272:Drivers/lvgl/src/misc/lv_timer.c **** }
 1301              		.loc 1 272 5 view .LVU391
 273:Drivers/lvgl/src/misc/lv_timer.c **** 
 1302              		.loc 1 273 1 is_stmt 0 view .LVU392
 1303 0000 014B     		ldr	r3, .L113
 1304 0002 D3F88400 		ldr	r0, [r3, #132]
 1305 0006 7047     		bx	lr
 1306              	.L114:
 1307              		.align	2
 1308              	.L113:
 1309 0008 00000000 		.word	lv_global
 1310              		.cfi_endproc
 1311              	.LFE204:
 1313              		.section	.text.lv_timer_get_next,"ax",%progbits
 1314              		.align	1
 1315              		.global	lv_timer_get_next
 1316              		.syntax unified
 1317              		.thumb
 1318              		.thumb_func
 1320              	lv_timer_get_next:
 1321              	.LVL92:
 1322              	.LFB205:
 276:Drivers/lvgl/src/misc/lv_timer.c ****     if(timer == NULL) return lv_ll_get_head(timer_ll_p);
 1323              		.loc 1 276 1 is_stmt 1 view -0
 1324              		.cfi_startproc
 1325              		@ args = 0, pretend = 0, frame = 0
 1326              		@ frame_needed = 0, uses_anonymous_args = 0
 276:Drivers/lvgl/src/misc/lv_timer.c ****     if(timer == NULL) return lv_ll_get_head(timer_ll_p);
 1327              		.loc 1 276 1 is_stmt 0 view .LVU394
 1328 0000 08B5     		push	{r3, lr}
ARM GAS  /tmp/ccu0iwlI.s 			page 37


 1329              	.LCFI17:
 1330              		.cfi_def_cfa_offset 8
 1331              		.cfi_offset 3, -8
 1332              		.cfi_offset 14, -4
 277:Drivers/lvgl/src/misc/lv_timer.c ****     else return lv_ll_get_next(timer_ll_p, timer);
 1333              		.loc 1 277 5 is_stmt 1 view .LVU395
 277:Drivers/lvgl/src/misc/lv_timer.c ****     else return lv_ll_get_next(timer_ll_p, timer);
 1334              		.loc 1 277 7 is_stmt 0 view .LVU396
 1335 0002 20B1     		cbz	r0, .L119
 1336 0004 0146     		mov	r1, r0
 278:Drivers/lvgl/src/misc/lv_timer.c **** }
 1337              		.loc 1 278 10 is_stmt 1 view .LVU397
 278:Drivers/lvgl/src/misc/lv_timer.c **** }
 1338              		.loc 1 278 17 is_stmt 0 view .LVU398
 1339 0006 0448     		ldr	r0, .L120
 1340              	.LVL93:
 278:Drivers/lvgl/src/misc/lv_timer.c **** }
 1341              		.loc 1 278 17 view .LVU399
 1342 0008 FFF7FEFF 		bl	lv_ll_get_next
 1343              	.LVL94:
 1344              	.L115:
 279:Drivers/lvgl/src/misc/lv_timer.c **** 
 1345              		.loc 1 279 1 view .LVU400
 1346 000c 08BD     		pop	{r3, pc}
 1347              	.LVL95:
 1348              	.L119:
 277:Drivers/lvgl/src/misc/lv_timer.c ****     else return lv_ll_get_next(timer_ll_p, timer);
 1349              		.loc 1 277 23 is_stmt 1 discriminator 1 view .LVU401
 277:Drivers/lvgl/src/misc/lv_timer.c ****     else return lv_ll_get_next(timer_ll_p, timer);
 1350              		.loc 1 277 30 is_stmt 0 discriminator 1 view .LVU402
 1351 000e 0248     		ldr	r0, .L120
 1352              	.LVL96:
 277:Drivers/lvgl/src/misc/lv_timer.c ****     else return lv_ll_get_next(timer_ll_p, timer);
 1353              		.loc 1 277 30 discriminator 1 view .LVU403
 1354 0010 FFF7FEFF 		bl	lv_ll_get_head
 1355              	.LVL97:
 277:Drivers/lvgl/src/misc/lv_timer.c ****     else return lv_ll_get_next(timer_ll_p, timer);
 1356              		.loc 1 277 30 view .LVU404
 1357 0014 FAE7     		b	.L115
 1358              	.L121:
 1359 0016 00BF     		.align	2
 1360              	.L120:
 1361 0018 74000000 		.word	lv_global+116
 1362              		.cfi_endproc
 1363              	.LFE205:
 1365              		.section	.text.lv_timer_handler_run_in_period,"ax",%progbits
 1366              		.align	1
 1367              		.global	lv_timer_handler_run_in_period
 1368              		.syntax unified
 1369              		.thumb
 1370              		.thumb_func
 1372              	lv_timer_handler_run_in_period:
 1373              	.LVL98:
 1374              	.LFB206:
 282:Drivers/lvgl/src/misc/lv_timer.c ****     static uint32_t last_tick = 0;
 1375              		.loc 1 282 1 is_stmt 1 view -0
 1376              		.cfi_startproc
ARM GAS  /tmp/ccu0iwlI.s 			page 38


 1377              		@ args = 0, pretend = 0, frame = 0
 1378              		@ frame_needed = 0, uses_anonymous_args = 0
 282:Drivers/lvgl/src/misc/lv_timer.c ****     static uint32_t last_tick = 0;
 1379              		.loc 1 282 1 is_stmt 0 view .LVU406
 1380 0000 10B5     		push	{r4, lr}
 1381              	.LCFI18:
 1382              		.cfi_def_cfa_offset 8
 1383              		.cfi_offset 4, -8
 1384              		.cfi_offset 14, -4
 1385 0002 0446     		mov	r4, r0
 283:Drivers/lvgl/src/misc/lv_timer.c **** 
 1386              		.loc 1 283 5 is_stmt 1 view .LVU407
 285:Drivers/lvgl/src/misc/lv_timer.c ****         last_tick = lv_tick_get();
 1387              		.loc 1 285 5 view .LVU408
 285:Drivers/lvgl/src/misc/lv_timer.c ****         last_tick = lv_tick_get();
 1388              		.loc 1 285 8 is_stmt 0 view .LVU409
 1389 0004 074B     		ldr	r3, .L127
 1390 0006 1868     		ldr	r0, [r3]
 1391              	.LVL99:
 285:Drivers/lvgl/src/misc/lv_timer.c ****         last_tick = lv_tick_get();
 1392              		.loc 1 285 8 view .LVU410
 1393 0008 FFF7FEFF 		bl	lv_tick_elaps
 1394              	.LVL100:
 285:Drivers/lvgl/src/misc/lv_timer.c ****         last_tick = lv_tick_get();
 1395              		.loc 1 285 7 discriminator 1 view .LVU411
 1396 000c A042     		cmp	r0, r4
 1397 000e 01D2     		bcs	.L126
 289:Drivers/lvgl/src/misc/lv_timer.c **** }
 1398              		.loc 1 289 12 view .LVU412
 1399 0010 0120     		movs	r0, #1
 1400              	.L122:
 290:Drivers/lvgl/src/misc/lv_timer.c **** 
 1401              		.loc 1 290 1 view .LVU413
 1402 0012 10BD     		pop	{r4, pc}
 1403              	.LVL101:
 1404              	.L126:
 286:Drivers/lvgl/src/misc/lv_timer.c ****         return lv_timer_handler();
 1405              		.loc 1 286 9 is_stmt 1 view .LVU414
 286:Drivers/lvgl/src/misc/lv_timer.c ****         return lv_timer_handler();
 1406              		.loc 1 286 21 is_stmt 0 view .LVU415
 1407 0014 FFF7FEFF 		bl	lv_tick_get
 1408              	.LVL102:
 286:Drivers/lvgl/src/misc/lv_timer.c ****         return lv_timer_handler();
 1409              		.loc 1 286 19 discriminator 1 view .LVU416
 1410 0018 024B     		ldr	r3, .L127
 1411 001a 1860     		str	r0, [r3]
 287:Drivers/lvgl/src/misc/lv_timer.c ****     }
 1412              		.loc 1 287 9 is_stmt 1 view .LVU417
 287:Drivers/lvgl/src/misc/lv_timer.c ****     }
 1413              		.loc 1 287 16 is_stmt 0 view .LVU418
 1414 001c FFF7FEFF 		bl	lv_timer_handler
 1415              	.LVL103:
 1416 0020 F7E7     		b	.L122
 1417              	.L128:
 1418 0022 00BF     		.align	2
 1419              	.L127:
 1420 0024 00000000 		.word	last_tick.0
ARM GAS  /tmp/ccu0iwlI.s 			page 39


 1421              		.cfi_endproc
 1422              	.LFE206:
 1424              		.section	.text.lv_timer_get_user_data,"ax",%progbits
 1425              		.align	1
 1426              		.global	lv_timer_get_user_data
 1427              		.syntax unified
 1428              		.thumb
 1429              		.thumb_func
 1431              	lv_timer_get_user_data:
 1432              	.LVL104:
 1433              	.LFB207:
 293:Drivers/lvgl/src/misc/lv_timer.c ****     return timer->user_data;
 1434              		.loc 1 293 1 is_stmt 1 view -0
 1435              		.cfi_startproc
 1436              		@ args = 0, pretend = 0, frame = 0
 1437              		@ frame_needed = 0, uses_anonymous_args = 0
 1438              		@ link register save eliminated.
 294:Drivers/lvgl/src/misc/lv_timer.c **** }
 1439              		.loc 1 294 5 view .LVU420
 295:Drivers/lvgl/src/misc/lv_timer.c **** 
 1440              		.loc 1 295 1 is_stmt 0 view .LVU421
 1441 0000 C068     		ldr	r0, [r0, #12]
 1442              	.LVL105:
 295:Drivers/lvgl/src/misc/lv_timer.c **** 
 1443              		.loc 1 295 1 view .LVU422
 1444 0002 7047     		bx	lr
 1445              		.cfi_endproc
 1446              	.LFE207:
 1448              		.section	.text.lv_timer_get_paused,"ax",%progbits
 1449              		.align	1
 1450              		.global	lv_timer_get_paused
 1451              		.syntax unified
 1452              		.thumb
 1453              		.thumb_func
 1455              	lv_timer_get_paused:
 1456              	.LVL106:
 1457              	.LFB208:
 298:Drivers/lvgl/src/misc/lv_timer.c ****     return timer->paused;
 1458              		.loc 1 298 1 is_stmt 1 view -0
 1459              		.cfi_startproc
 1460              		@ args = 0, pretend = 0, frame = 0
 1461              		@ frame_needed = 0, uses_anonymous_args = 0
 1462              		@ link register save eliminated.
 299:Drivers/lvgl/src/misc/lv_timer.c **** }
 1463              		.loc 1 299 5 view .LVU424
 299:Drivers/lvgl/src/misc/lv_timer.c **** }
 1464              		.loc 1 299 17 is_stmt 0 view .LVU425
 1465 0000 007D     		ldrb	r0, [r0, #20]	@ zero_extendqisi2
 1466              	.LVL107:
 300:Drivers/lvgl/src/misc/lv_timer.c **** 
 1467              		.loc 1 300 1 view .LVU426
 1468 0002 00F00100 		and	r0, r0, #1
 1469 0006 7047     		bx	lr
 1470              		.cfi_endproc
 1471              	.LFE208:
 1473              		.section	.text.lv_timer_handler_set_resume_cb,"ax",%progbits
 1474              		.align	1
ARM GAS  /tmp/ccu0iwlI.s 			page 40


 1475              		.global	lv_timer_handler_set_resume_cb
 1476              		.syntax unified
 1477              		.thumb
 1478              		.thumb_func
 1480              	lv_timer_handler_set_resume_cb:
 1481              	.LVL108:
 1482              	.LFB212:
 383:Drivers/lvgl/src/misc/lv_timer.c **** 
 384:Drivers/lvgl/src/misc/lv_timer.c **** void lv_timer_handler_set_resume_cb(lv_timer_handler_resume_cb_t cb, void * data)
 385:Drivers/lvgl/src/misc/lv_timer.c **** {
 1483              		.loc 1 385 1 is_stmt 1 view -0
 1484              		.cfi_startproc
 1485              		@ args = 0, pretend = 0, frame = 0
 1486              		@ frame_needed = 0, uses_anonymous_args = 0
 1487              		@ link register save eliminated.
 386:Drivers/lvgl/src/misc/lv_timer.c ****     state.resume_cb = cb;
 1488              		.loc 1 386 5 view .LVU428
 1489              		.loc 1 386 21 is_stmt 0 view .LVU429
 1490 0000 024B     		ldr	r3, .L132
 1491 0002 C3F89C00 		str	r0, [r3, #156]
 387:Drivers/lvgl/src/misc/lv_timer.c ****     state.resume_data = data;
 1492              		.loc 1 387 5 is_stmt 1 view .LVU430
 1493              		.loc 1 387 23 is_stmt 0 view .LVU431
 1494 0006 C3F8A010 		str	r1, [r3, #160]
 388:Drivers/lvgl/src/misc/lv_timer.c **** }
 1495              		.loc 1 388 1 view .LVU432
 1496 000a 7047     		bx	lr
 1497              	.L133:
 1498              		.align	2
 1499              	.L132:
 1500 000c 00000000 		.word	lv_global
 1501              		.cfi_endproc
 1502              	.LFE212:
 1504              		.section	.bss.last_tick.0,"aw",%nobits
 1505              		.align	2
 1508              	last_tick.0:
 1509 0000 00000000 		.space	4
 1510              		.text
 1511              	.Letext0:
 1512              		.file 2 "/usr/arm-none-eabi/include/machine/_default_types.h"
 1513              		.file 3 "/usr/arm-none-eabi/include/sys/_stdint.h"
 1514              		.file 4 "/usr/lib/gcc/arm-none-eabi/14.2.0/include/stddef.h"
 1515              		.file 5 "Drivers/lvgl/src/misc/../tick/../misc/lv_types.h"
 1516              		.file 6 "Drivers/lvgl/src/misc/../core/../draw/lv_draw.h"
 1517              		.file 7 "Drivers/lvgl/src/misc/../core/../draw/lv_draw_private.h"
 1518              		.file 8 "Drivers/lvgl/src/misc/lv_timer_private.h"
 1519              		.file 9 "Drivers/lvgl/src/misc/../core/../draw/../misc/cache/lv_cache_private.h"
 1520              		.file 10 "Drivers/lvgl/src/misc/../core/../draw/lv_draw_buf_private.h"
 1521              		.file 11 "Drivers/lvgl/src/misc/../core/../draw/../misc/../font/../draw/lv_draw_buf.h"
 1522              		.file 12 "Drivers/lvgl/src/misc/../tick/lv_tick.h"
 1523              		.file 13 "Drivers/lvgl/src/misc/lv_ll.h"
 1524              		.file 14 "Drivers/lvgl/src/misc/lv_timer.h"
 1525              		.file 15 "Drivers/lvgl/src/misc/../core/../draw/../misc/../font/../draw/../misc/lv_area.h"
 1526              		.file 16 "Drivers/lvgl/src/misc/../core/../draw/../misc/../font/../draw/../misc/lv_color.h"
 1527              		.file 17 "Drivers/lvgl/src/misc/../core/../draw/../misc/../font/../draw/lv_image_dsc.h"
 1528              		.file 18 "Drivers/lvgl/src/misc/../core/../draw/../misc/../layouts/lv_layout.h"
 1529              		.file 19 "Drivers/lvgl/src/misc/../core/../draw/sw/../../osal/lv_os_none.h"
ARM GAS  /tmp/ccu0iwlI.s 			page 41


 1530              		.file 20 "Drivers/lvgl/src/misc/../core/../misc/lv_anim_private.h"
 1531              		.file 21 "Drivers/lvgl/src/misc/../core/../tick/lv_tick_private.h"
 1532              		.file 22 "Drivers/lvgl/src/misc/../core/../draw/sw/lv_draw_sw_mask_private.h"
 1533              		.file 23 "Drivers/lvgl/src/misc/../core/../layouts/lv_layout_private.h"
 1534              		.file 24 "Drivers/lvgl/src/misc/../core/lv_global.h"
 1535              		.file 25 "Drivers/lvgl/src/misc/../core/../draw/../misc/../font/../draw/../misc/../stdlib/lv_mem.h
 1536              		.file 26 "Drivers/lvgl/src/misc/../core/../draw/sw/../../osal/lv_os.h"
ARM GAS  /tmp/ccu0iwlI.s 			page 42

