ARM GAS  /tmp/cc5yLr5h.s 			page 1


   1              		.cpu cortex-m7
   2              		.arch armv7e-m
   3              		.fpu fpv5-sp-d16
   4              		.eabi_attribute 27, 1
   5              		.eabi_attribute 28, 1
   6              		.eabi_attribute 20, 1
   7              		.eabi_attribute 21, 1
   8              		.eabi_attribute 23, 3
   9              		.eabi_attribute 24, 1
  10              		.eabi_attribute 25, 1
  11              		.eabi_attribute 26, 1
  12              		.eabi_attribute 30, 1
  13              		.eabi_attribute 34, 1
  14              		.eabi_attribute 18, 4
  15              		.file	"lv_utils.c"
  16              		.text
  17              	.Ltext0:
  18              		.cfi_sections	.debug_frame
  19              		.file 1 "Drivers/lvgl/src/misc/lv_utils.c"
  20              		.section	.text.lv_utils_bsearch,"ax",%progbits
  21              		.align	1
  22              		.global	lv_utils_bsearch
  23              		.syntax unified
  24              		.thumb
  25              		.thumb_func
  27              	lv_utils_bsearch:
  28              	.LVL0:
  29              	.LFB4:
   1:Drivers/lvgl/src/misc/lv_utils.c **** /**
   2:Drivers/lvgl/src/misc/lv_utils.c ****  * @file lv_utils.c
   3:Drivers/lvgl/src/misc/lv_utils.c ****  *
   4:Drivers/lvgl/src/misc/lv_utils.c ****  */
   5:Drivers/lvgl/src/misc/lv_utils.c **** 
   6:Drivers/lvgl/src/misc/lv_utils.c **** /*********************
   7:Drivers/lvgl/src/misc/lv_utils.c ****  *      INCLUDES
   8:Drivers/lvgl/src/misc/lv_utils.c ****  *********************/
   9:Drivers/lvgl/src/misc/lv_utils.c **** #include "lv_utils.h"
  10:Drivers/lvgl/src/misc/lv_utils.c **** #include "lv_fs.h"
  11:Drivers/lvgl/src/misc/lv_utils.c **** #include "lv_types.h"
  12:Drivers/lvgl/src/misc/lv_utils.c **** #include "cache/lv_image_cache.h"
  13:Drivers/lvgl/src/misc/lv_utils.c **** 
  14:Drivers/lvgl/src/misc/lv_utils.c **** /*********************
  15:Drivers/lvgl/src/misc/lv_utils.c ****  *      DEFINES
  16:Drivers/lvgl/src/misc/lv_utils.c ****  *********************/
  17:Drivers/lvgl/src/misc/lv_utils.c **** 
  18:Drivers/lvgl/src/misc/lv_utils.c **** /**********************
  19:Drivers/lvgl/src/misc/lv_utils.c ****  *      TYPEDEFS
  20:Drivers/lvgl/src/misc/lv_utils.c ****  **********************/
  21:Drivers/lvgl/src/misc/lv_utils.c **** 
  22:Drivers/lvgl/src/misc/lv_utils.c **** /**********************
  23:Drivers/lvgl/src/misc/lv_utils.c ****  *  STATIC PROTOTYPES
  24:Drivers/lvgl/src/misc/lv_utils.c ****  **********************/
  25:Drivers/lvgl/src/misc/lv_utils.c **** 
  26:Drivers/lvgl/src/misc/lv_utils.c **** /**********************
  27:Drivers/lvgl/src/misc/lv_utils.c ****  *  STATIC VARIABLES
  28:Drivers/lvgl/src/misc/lv_utils.c ****  **********************/
  29:Drivers/lvgl/src/misc/lv_utils.c **** 
ARM GAS  /tmp/cc5yLr5h.s 			page 2


  30:Drivers/lvgl/src/misc/lv_utils.c **** /**********************
  31:Drivers/lvgl/src/misc/lv_utils.c ****  *      MACROS
  32:Drivers/lvgl/src/misc/lv_utils.c ****  **********************/
  33:Drivers/lvgl/src/misc/lv_utils.c **** 
  34:Drivers/lvgl/src/misc/lv_utils.c **** /**********************
  35:Drivers/lvgl/src/misc/lv_utils.c ****  *   GLOBAL FUNCTIONS
  36:Drivers/lvgl/src/misc/lv_utils.c ****  **********************/
  37:Drivers/lvgl/src/misc/lv_utils.c **** 
  38:Drivers/lvgl/src/misc/lv_utils.c **** void * lv_utils_bsearch(const void * key, const void * base, size_t n, size_t size,
  39:Drivers/lvgl/src/misc/lv_utils.c ****                         int (*cmp)(const void * pRef, const void * pElement))
  40:Drivers/lvgl/src/misc/lv_utils.c **** {
  30              		.loc 1 40 1 view -0
  31              		.cfi_startproc
  32              		@ args = 4, pretend = 0, frame = 0
  33              		@ frame_needed = 0, uses_anonymous_args = 0
  34              		.loc 1 40 1 is_stmt 0 view .LVU1
  35 0000 2DE9F047 		push	{r4, r5, r6, r7, r8, r9, r10, lr}
  36              	.LCFI0:
  37              		.cfi_def_cfa_offset 32
  38              		.cfi_offset 4, -32
  39              		.cfi_offset 5, -28
  40              		.cfi_offset 6, -24
  41              		.cfi_offset 7, -20
  42              		.cfi_offset 8, -16
  43              		.cfi_offset 9, -12
  44              		.cfi_offset 10, -8
  45              		.cfi_offset 14, -4
  46 0004 8146     		mov	r9, r0
  47 0006 8846     		mov	r8, r1
  48 0008 1446     		mov	r4, r2
  49 000a 1F46     		mov	r7, r3
  50 000c DDF820A0 		ldr	r10, [sp, #32]
  41:Drivers/lvgl/src/misc/lv_utils.c ****     const char * middle;
  51              		.loc 1 41 5 is_stmt 1 view .LVU2
  42:Drivers/lvgl/src/misc/lv_utils.c ****     int32_t c;
  52              		.loc 1 42 5 view .LVU3
  43:Drivers/lvgl/src/misc/lv_utils.c **** 
  44:Drivers/lvgl/src/misc/lv_utils.c ****     for(middle = base; n != 0;) {
  53              		.loc 1 44 5 view .LVU4
  54              	.LVL1:
  55              		.loc 1 44 5 is_stmt 0 view .LVU5
  56 0010 05E0     		b	.L2
  57              	.LVL2:
  58              	.L9:
  45:Drivers/lvgl/src/misc/lv_utils.c ****         middle += (n / 2) * size;
  46:Drivers/lvgl/src/misc/lv_utils.c ****         if((c = (*cmp)(key, middle)) > 0) {
  47:Drivers/lvgl/src/misc/lv_utils.c ****             n    = (n / 2) - ((n & 1) == 0);
  59              		.loc 1 47 13 is_stmt 1 view .LVU6
  60              		.loc 1 47 39 is_stmt 0 view .LVU7
  61 0012 E443     		mvns	r4, r4
  62              	.LVL3:
  63              		.loc 1 47 39 view .LVU8
  64 0014 04F00104 		and	r4, r4, #1
  65              	.LVL4:
  66              		.loc 1 47 18 view .LVU9
  67 0018 2C1B     		subs	r4, r5, r4
  68              	.LVL5:
ARM GAS  /tmp/cc5yLr5h.s 			page 3


  48:Drivers/lvgl/src/misc/lv_utils.c ****             base = (middle += size);
  69              		.loc 1 48 13 is_stmt 1 view .LVU10
  70              		.loc 1 48 28 is_stmt 0 view .LVU11
  71 001a 06EB0708 		add	r8, r6, r7
  72              	.LVL6:
  73              	.L2:
  44:Drivers/lvgl/src/misc/lv_utils.c ****         middle += (n / 2) * size;
  74              		.loc 1 44 26 is_stmt 1 discriminator 1 view .LVU12
  75 001e 5CB1     		cbz	r4, .L8
  45:Drivers/lvgl/src/misc/lv_utils.c ****         middle += (n / 2) * size;
  76              		.loc 1 45 9 view .LVU13
  45:Drivers/lvgl/src/misc/lv_utils.c ****         middle += (n / 2) * size;
  77              		.loc 1 45 22 is_stmt 0 view .LVU14
  78 0020 6508     		lsrs	r5, r4, #1
  45:Drivers/lvgl/src/misc/lv_utils.c ****         middle += (n / 2) * size;
  79              		.loc 1 45 16 view .LVU15
  80 0022 07FB0586 		mla	r6, r7, r5, r8
  81              	.LVL7:
  46:Drivers/lvgl/src/misc/lv_utils.c ****             n    = (n / 2) - ((n & 1) == 0);
  82              		.loc 1 46 9 is_stmt 1 view .LVU16
  46:Drivers/lvgl/src/misc/lv_utils.c ****             n    = (n / 2) - ((n & 1) == 0);
  83              		.loc 1 46 18 is_stmt 0 view .LVU17
  84 0026 3146     		mov	r1, r6
  85 0028 4846     		mov	r0, r9
  86 002a D047     		blx	r10
  87              	.LVL8:
  46:Drivers/lvgl/src/misc/lv_utils.c ****             n    = (n / 2) - ((n & 1) == 0);
  88              		.loc 1 46 11 discriminator 1 view .LVU18
  89 002c 0028     		cmp	r0, #0
  46:Drivers/lvgl/src/misc/lv_utils.c ****             n    = (n / 2) - ((n & 1) == 0);
  90              		.loc 1 46 11 discriminator 1 view .LVU19
  91 002e F0DC     		bgt	.L9
  49:Drivers/lvgl/src/misc/lv_utils.c ****         }
  50:Drivers/lvgl/src/misc/lv_utils.c ****         else if(c < 0) {
  92              		.loc 1 50 14 is_stmt 1 view .LVU20
  93              		.loc 1 50 16 is_stmt 0 view .LVU21
  94 0030 0028     		cmp	r0, #0
  95 0032 02DA     		bge	.L1
  51:Drivers/lvgl/src/misc/lv_utils.c ****             n /= 2;
  96              		.loc 1 51 15 view .LVU22
  97 0034 2C46     		mov	r4, r5
  98              	.LVL9:
  99              		.loc 1 51 15 view .LVU23
 100 0036 F2E7     		b	.L2
 101              	.LVL10:
 102              	.L8:
  52:Drivers/lvgl/src/misc/lv_utils.c ****             middle = base;
  53:Drivers/lvgl/src/misc/lv_utils.c ****         }
  54:Drivers/lvgl/src/misc/lv_utils.c ****         else {
  55:Drivers/lvgl/src/misc/lv_utils.c ****             return (char *)middle;
  56:Drivers/lvgl/src/misc/lv_utils.c ****         }
  57:Drivers/lvgl/src/misc/lv_utils.c ****     }
  58:Drivers/lvgl/src/misc/lv_utils.c ****     return NULL;
 103              		.loc 1 58 12 view .LVU24
 104 0038 0026     		movs	r6, #0
 105              	.LVL11:
 106              	.L1:
ARM GAS  /tmp/cc5yLr5h.s 			page 4


  59:Drivers/lvgl/src/misc/lv_utils.c **** }
 107              		.loc 1 59 1 view .LVU25
 108 003a 3046     		mov	r0, r6
 109 003c BDE8F087 		pop	{r4, r5, r6, r7, r8, r9, r10, pc}
 110              		.loc 1 59 1 view .LVU26
 111              		.cfi_endproc
 112              	.LFE4:
 114              		.section	.text.lv_draw_buf_save_to_file,"ax",%progbits
 115              		.align	1
 116              		.global	lv_draw_buf_save_to_file
 117              		.syntax unified
 118              		.thumb
 119              		.thumb_func
 121              	lv_draw_buf_save_to_file:
 122              	.LVL12:
 123              	.LFB5:
  60:Drivers/lvgl/src/misc/lv_utils.c **** 
  61:Drivers/lvgl/src/misc/lv_utils.c **** lv_result_t lv_draw_buf_save_to_file(const lv_draw_buf_t * draw_buf, const char * path)
  62:Drivers/lvgl/src/misc/lv_utils.c **** {
 124              		.loc 1 62 1 is_stmt 1 view -0
 125              		.cfi_startproc
 126              		@ args = 0, pretend = 0, frame = 16
 127              		@ frame_needed = 0, uses_anonymous_args = 0
 128              		.loc 1 62 1 is_stmt 0 view .LVU28
 129 0000 70B5     		push	{r4, r5, r6, lr}
 130              	.LCFI1:
 131              		.cfi_def_cfa_offset 16
 132              		.cfi_offset 4, -16
 133              		.cfi_offset 5, -12
 134              		.cfi_offset 6, -8
 135              		.cfi_offset 14, -4
 136 0002 84B0     		sub	sp, sp, #16
 137              	.LCFI2:
 138              		.cfi_def_cfa_offset 32
 139 0004 0646     		mov	r6, r0
 140 0006 0C46     		mov	r4, r1
  63:Drivers/lvgl/src/misc/lv_utils.c ****     lv_fs_file_t file;
 141              		.loc 1 63 5 is_stmt 1 view .LVU29
  64:Drivers/lvgl/src/misc/lv_utils.c ****     lv_fs_res_t res = lv_fs_open(&file, path, LV_FS_MODE_WR);
 142              		.loc 1 64 5 view .LVU30
 143              		.loc 1 64 23 is_stmt 0 view .LVU31
 144 0008 0122     		movs	r2, #1
 145 000a 01A8     		add	r0, sp, #4
 146              	.LVL13:
 147              		.loc 1 64 23 view .LVU32
 148 000c FFF7FEFF 		bl	lv_fs_open
 149              	.LVL14:
  65:Drivers/lvgl/src/misc/lv_utils.c ****     if(res != LV_FS_RES_OK) {
 150              		.loc 1 65 5 is_stmt 1 view .LVU33
 151              		.loc 1 65 7 is_stmt 0 view .LVU34
 152 0010 18B1     		cbz	r0, .L18
  66:Drivers/lvgl/src/misc/lv_utils.c ****         LV_LOG_ERROR("create file %s failed", path);
  67:Drivers/lvgl/src/misc/lv_utils.c ****         return LV_RESULT_INVALID;
 153              		.loc 1 67 16 view .LVU35
 154 0012 0025     		movs	r5, #0
 155              	.LVL15:
 156              	.L11:
ARM GAS  /tmp/cc5yLr5h.s 			page 5


  68:Drivers/lvgl/src/misc/lv_utils.c ****     }
  69:Drivers/lvgl/src/misc/lv_utils.c **** 
  70:Drivers/lvgl/src/misc/lv_utils.c ****     /*Image content modified, invalidate image cache.*/
  71:Drivers/lvgl/src/misc/lv_utils.c ****     lv_image_cache_drop(path);
  72:Drivers/lvgl/src/misc/lv_utils.c **** 
  73:Drivers/lvgl/src/misc/lv_utils.c ****     uint32_t bw;
  74:Drivers/lvgl/src/misc/lv_utils.c ****     res = lv_fs_write(&file, &draw_buf->header, sizeof(draw_buf->header), &bw);
  75:Drivers/lvgl/src/misc/lv_utils.c ****     if(res != LV_FS_RES_OK || bw != sizeof(draw_buf->header)) {
  76:Drivers/lvgl/src/misc/lv_utils.c ****         LV_LOG_ERROR("write draw_buf->header failed");
  77:Drivers/lvgl/src/misc/lv_utils.c ****         lv_fs_close(&file);
  78:Drivers/lvgl/src/misc/lv_utils.c ****         return LV_RESULT_INVALID;
  79:Drivers/lvgl/src/misc/lv_utils.c ****     }
  80:Drivers/lvgl/src/misc/lv_utils.c **** 
  81:Drivers/lvgl/src/misc/lv_utils.c ****     res = lv_fs_write(&file, draw_buf->data, draw_buf->data_size, &bw);
  82:Drivers/lvgl/src/misc/lv_utils.c ****     if(res != LV_FS_RES_OK || bw != draw_buf->data_size) {
  83:Drivers/lvgl/src/misc/lv_utils.c ****         LV_LOG_ERROR("write draw_buf->data failed");
  84:Drivers/lvgl/src/misc/lv_utils.c ****         lv_fs_close(&file);
  85:Drivers/lvgl/src/misc/lv_utils.c ****         return LV_RESULT_INVALID;
  86:Drivers/lvgl/src/misc/lv_utils.c ****     }
  87:Drivers/lvgl/src/misc/lv_utils.c **** 
  88:Drivers/lvgl/src/misc/lv_utils.c ****     lv_fs_close(&file);
  89:Drivers/lvgl/src/misc/lv_utils.c ****     LV_LOG_TRACE("saved draw_buf to %s", path);
  90:Drivers/lvgl/src/misc/lv_utils.c ****     return LV_RESULT_OK;
  91:Drivers/lvgl/src/misc/lv_utils.c **** }
 157              		.loc 1 91 1 view .LVU36
 158 0014 2846     		mov	r0, r5
 159 0016 04B0     		add	sp, sp, #16
 160              	.LCFI3:
 161              		.cfi_remember_state
 162              		.cfi_def_cfa_offset 16
 163              		@ sp needed
 164 0018 70BD     		pop	{r4, r5, r6, pc}
 165              	.LVL16:
 166              	.L18:
 167              	.LCFI4:
 168              		.cfi_restore_state
 169              		.loc 1 91 1 view .LVU37
 170 001a 0546     		mov	r5, r0
  71:Drivers/lvgl/src/misc/lv_utils.c **** 
 171              		.loc 1 71 5 is_stmt 1 view .LVU38
 172 001c 2046     		mov	r0, r4
 173              	.LVL17:
  71:Drivers/lvgl/src/misc/lv_utils.c **** 
 174              		.loc 1 71 5 is_stmt 0 view .LVU39
 175 001e FFF7FEFF 		bl	lv_image_cache_drop
 176              	.LVL18:
  73:Drivers/lvgl/src/misc/lv_utils.c ****     res = lv_fs_write(&file, &draw_buf->header, sizeof(draw_buf->header), &bw);
 177              		.loc 1 73 5 is_stmt 1 view .LVU40
  74:Drivers/lvgl/src/misc/lv_utils.c ****     if(res != LV_FS_RES_OK || bw != sizeof(draw_buf->header)) {
 178              		.loc 1 74 5 view .LVU41
  74:Drivers/lvgl/src/misc/lv_utils.c ****     if(res != LV_FS_RES_OK || bw != sizeof(draw_buf->header)) {
 179              		.loc 1 74 11 is_stmt 0 view .LVU42
 180 0022 6B46     		mov	r3, sp
 181 0024 0C22     		movs	r2, #12
 182 0026 3146     		mov	r1, r6
 183 0028 01A8     		add	r0, sp, #4
 184 002a FFF7FEFF 		bl	lv_fs_write
ARM GAS  /tmp/cc5yLr5h.s 			page 6


 185              	.LVL19:
  75:Drivers/lvgl/src/misc/lv_utils.c ****         LV_LOG_ERROR("write draw_buf->header failed");
 186              		.loc 1 75 5 is_stmt 1 view .LVU43
  75:Drivers/lvgl/src/misc/lv_utils.c ****         LV_LOG_ERROR("write draw_buf->header failed");
 187              		.loc 1 75 7 is_stmt 0 view .LVU44
 188 002e 0446     		mov	r4, r0
 189              	.LVL20:
  75:Drivers/lvgl/src/misc/lv_utils.c ****         LV_LOG_ERROR("write draw_buf->header failed");
 190              		.loc 1 75 7 view .LVU45
 191 0030 10B9     		cbnz	r0, .L12
  75:Drivers/lvgl/src/misc/lv_utils.c ****         LV_LOG_ERROR("write draw_buf->header failed");
 192              		.loc 1 75 34 discriminator 1 view .LVU46
 193 0032 009B     		ldr	r3, [sp]
  75:Drivers/lvgl/src/misc/lv_utils.c ****         LV_LOG_ERROR("write draw_buf->header failed");
 194              		.loc 1 75 28 discriminator 1 view .LVU47
 195 0034 0C2B     		cmp	r3, #12
 196 0036 03D0     		beq	.L13
 197              	.L12:
  76:Drivers/lvgl/src/misc/lv_utils.c ****         lv_fs_close(&file);
 198              		.loc 1 76 9 is_stmt 1 view .LVU48
  76:Drivers/lvgl/src/misc/lv_utils.c ****         lv_fs_close(&file);
 199              		.loc 1 76 9 view .LVU49
  76:Drivers/lvgl/src/misc/lv_utils.c ****         lv_fs_close(&file);
 200              		.loc 1 76 9 view .LVU50
  77:Drivers/lvgl/src/misc/lv_utils.c ****         return LV_RESULT_INVALID;
 201              		.loc 1 77 9 view .LVU51
 202 0038 01A8     		add	r0, sp, #4
 203              	.LVL21:
  77:Drivers/lvgl/src/misc/lv_utils.c ****         return LV_RESULT_INVALID;
 204              		.loc 1 77 9 is_stmt 0 view .LVU52
 205 003a FFF7FEFF 		bl	lv_fs_close
 206              	.LVL22:
  78:Drivers/lvgl/src/misc/lv_utils.c ****     }
 207              		.loc 1 78 9 is_stmt 1 view .LVU53
  78:Drivers/lvgl/src/misc/lv_utils.c ****     }
 208              		.loc 1 78 16 is_stmt 0 view .LVU54
 209 003e E9E7     		b	.L11
 210              	.LVL23:
 211              	.L13:
  81:Drivers/lvgl/src/misc/lv_utils.c ****     if(res != LV_FS_RES_OK || bw != draw_buf->data_size) {
 212              		.loc 1 81 5 is_stmt 1 view .LVU55
  81:Drivers/lvgl/src/misc/lv_utils.c ****     if(res != LV_FS_RES_OK || bw != draw_buf->data_size) {
 213              		.loc 1 81 11 is_stmt 0 view .LVU56
 214 0040 6B46     		mov	r3, sp
 215 0042 F268     		ldr	r2, [r6, #12]
 216 0044 3169     		ldr	r1, [r6, #16]
 217 0046 01A8     		add	r0, sp, #4
 218              	.LVL24:
  81:Drivers/lvgl/src/misc/lv_utils.c ****     if(res != LV_FS_RES_OK || bw != draw_buf->data_size) {
 219              		.loc 1 81 11 view .LVU57
 220 0048 FFF7FEFF 		bl	lv_fs_write
 221              	.LVL25:
  82:Drivers/lvgl/src/misc/lv_utils.c ****         LV_LOG_ERROR("write draw_buf->data failed");
 222              		.loc 1 82 5 is_stmt 1 view .LVU58
  82:Drivers/lvgl/src/misc/lv_utils.c ****         LV_LOG_ERROR("write draw_buf->data failed");
 223              		.loc 1 82 7 is_stmt 0 view .LVU59
 224 004c 18B9     		cbnz	r0, .L14
ARM GAS  /tmp/cc5yLr5h.s 			page 7


  82:Drivers/lvgl/src/misc/lv_utils.c ****         LV_LOG_ERROR("write draw_buf->data failed");
 225              		.loc 1 82 45 discriminator 1 view .LVU60
 226 004e F268     		ldr	r2, [r6, #12]
  82:Drivers/lvgl/src/misc/lv_utils.c ****         LV_LOG_ERROR("write draw_buf->data failed");
 227              		.loc 1 82 34 discriminator 1 view .LVU61
 228 0050 009B     		ldr	r3, [sp]
  82:Drivers/lvgl/src/misc/lv_utils.c ****         LV_LOG_ERROR("write draw_buf->data failed");
 229              		.loc 1 82 28 discriminator 1 view .LVU62
 230 0052 9A42     		cmp	r2, r3
 231 0054 04D0     		beq	.L15
 232              	.L14:
  83:Drivers/lvgl/src/misc/lv_utils.c ****         lv_fs_close(&file);
 233              		.loc 1 83 9 is_stmt 1 view .LVU63
  83:Drivers/lvgl/src/misc/lv_utils.c ****         lv_fs_close(&file);
 234              		.loc 1 83 9 view .LVU64
  83:Drivers/lvgl/src/misc/lv_utils.c ****         lv_fs_close(&file);
 235              		.loc 1 83 9 view .LVU65
  84:Drivers/lvgl/src/misc/lv_utils.c ****         return LV_RESULT_INVALID;
 236              		.loc 1 84 9 view .LVU66
 237 0056 01A8     		add	r0, sp, #4
 238              	.LVL26:
  84:Drivers/lvgl/src/misc/lv_utils.c ****         return LV_RESULT_INVALID;
 239              		.loc 1 84 9 is_stmt 0 view .LVU67
 240 0058 FFF7FEFF 		bl	lv_fs_close
 241              	.LVL27:
  85:Drivers/lvgl/src/misc/lv_utils.c ****     }
 242              		.loc 1 85 9 is_stmt 1 view .LVU68
  85:Drivers/lvgl/src/misc/lv_utils.c ****     }
 243              		.loc 1 85 16 is_stmt 0 view .LVU69
 244 005c 2546     		mov	r5, r4
 245 005e D9E7     		b	.L11
 246              	.LVL28:
 247              	.L15:
  88:Drivers/lvgl/src/misc/lv_utils.c ****     LV_LOG_TRACE("saved draw_buf to %s", path);
 248              		.loc 1 88 5 is_stmt 1 view .LVU70
 249 0060 01A8     		add	r0, sp, #4
 250              	.LVL29:
  88:Drivers/lvgl/src/misc/lv_utils.c ****     LV_LOG_TRACE("saved draw_buf to %s", path);
 251              		.loc 1 88 5 is_stmt 0 view .LVU71
 252 0062 FFF7FEFF 		bl	lv_fs_close
 253              	.LVL30:
  89:Drivers/lvgl/src/misc/lv_utils.c ****     return LV_RESULT_OK;
 254              		.loc 1 89 5 is_stmt 1 view .LVU72
  89:Drivers/lvgl/src/misc/lv_utils.c ****     return LV_RESULT_OK;
 255              		.loc 1 89 5 view .LVU73
  89:Drivers/lvgl/src/misc/lv_utils.c ****     return LV_RESULT_OK;
 256              		.loc 1 89 5 view .LVU74
  90:Drivers/lvgl/src/misc/lv_utils.c **** }
 257              		.loc 1 90 5 view .LVU75
  90:Drivers/lvgl/src/misc/lv_utils.c **** }
 258              		.loc 1 90 12 is_stmt 0 view .LVU76
 259 0066 0125     		movs	r5, #1
 260 0068 D4E7     		b	.L11
 261              		.cfi_endproc
 262              	.LFE5:
 264              		.text
 265              	.Letext0:
ARM GAS  /tmp/cc5yLr5h.s 			page 8


 266              		.file 2 "/usr/arm-none-eabi/include/machine/_default_types.h"
 267              		.file 3 "/usr/arm-none-eabi/include/sys/_stdint.h"
 268              		.file 4 "/usr/lib/gcc/arm-none-eabi/14.2.0/include/stddef.h"
 269              		.file 5 "Drivers/lvgl/src/misc/lv_types.h"
 270              		.file 6 "Drivers/lvgl/src/misc/../draw/lv_draw_buf.h"
 271              		.file 7 "Drivers/lvgl/src/misc/../draw/lv_image_dsc.h"
 272              		.file 8 "Drivers/lvgl/src/misc/lv_fs.h"
 273              		.file 9 "Drivers/lvgl/src/misc/cache/lv_image_cache.h"
ARM GAS  /tmp/cc5yLr5h.s 			page 9

