ARM GAS  /tmp/cc4Armzt.s 			page 1


   1              		.cpu cortex-m7
   2              		.arch armv7e-m
   3              		.fpu fpv5-sp-d16
   4              		.eabi_attribute 27, 1
   5              		.eabi_attribute 28, 1
   6              		.eabi_attribute 20, 1
   7              		.eabi_attribute 21, 1
   8              		.eabi_attribute 23, 3
   9              		.eabi_attribute 24, 1
  10              		.eabi_attribute 25, 1
  11              		.eabi_attribute 26, 1
  12              		.eabi_attribute 30, 1
  13              		.eabi_attribute 34, 1
  14              		.eabi_attribute 18, 4
  15              		.file	"lv_win.c"
  16              		.text
  17              	.Ltext0:
  18              		.cfi_sections	.debug_frame
  19              		.file 1 "Drivers/lvgl/src/widgets/win/lv_win.c"
  20              		.section	.text.lv_win_constructor,"ax",%progbits
  21              		.align	1
  22              		.syntax unified
  23              		.thumb
  24              		.thumb_func
  26              	lv_win_constructor:
  27              	.LVL0:
  28              	.LFB183:
   1:Drivers/lvgl/src/widgets/win/lv_win.c **** /**
   2:Drivers/lvgl/src/widgets/win/lv_win.c ****  * @file lv_win.c
   3:Drivers/lvgl/src/widgets/win/lv_win.c ****  *
   4:Drivers/lvgl/src/widgets/win/lv_win.c ****  */
   5:Drivers/lvgl/src/widgets/win/lv_win.c **** 
   6:Drivers/lvgl/src/widgets/win/lv_win.c **** /*********************
   7:Drivers/lvgl/src/widgets/win/lv_win.c ****  *      INCLUDES
   8:Drivers/lvgl/src/widgets/win/lv_win.c ****  *********************/
   9:Drivers/lvgl/src/widgets/win/lv_win.c **** #include "lv_win_private.h"
  10:Drivers/lvgl/src/widgets/win/lv_win.c **** #include "../../core/lv_obj_class_private.h"
  11:Drivers/lvgl/src/widgets/win/lv_win.c **** #include "../../lvgl.h"
  12:Drivers/lvgl/src/widgets/win/lv_win.c **** #if LV_USE_WIN
  13:Drivers/lvgl/src/widgets/win/lv_win.c **** 
  14:Drivers/lvgl/src/widgets/win/lv_win.c **** /*********************
  15:Drivers/lvgl/src/widgets/win/lv_win.c ****  *      DEFINES
  16:Drivers/lvgl/src/widgets/win/lv_win.c ****  *********************/
  17:Drivers/lvgl/src/widgets/win/lv_win.c **** 
  18:Drivers/lvgl/src/widgets/win/lv_win.c **** /**********************
  19:Drivers/lvgl/src/widgets/win/lv_win.c ****  *      TYPEDEFS
  20:Drivers/lvgl/src/widgets/win/lv_win.c ****  **********************/
  21:Drivers/lvgl/src/widgets/win/lv_win.c **** 
  22:Drivers/lvgl/src/widgets/win/lv_win.c **** /**********************
  23:Drivers/lvgl/src/widgets/win/lv_win.c ****  *  STATIC PROTOTYPES
  24:Drivers/lvgl/src/widgets/win/lv_win.c ****  **********************/
  25:Drivers/lvgl/src/widgets/win/lv_win.c **** static void lv_win_constructor(const lv_obj_class_t * class_p, lv_obj_t * obj);
  26:Drivers/lvgl/src/widgets/win/lv_win.c **** 
  27:Drivers/lvgl/src/widgets/win/lv_win.c **** /**********************
  28:Drivers/lvgl/src/widgets/win/lv_win.c ****  *  STATIC VARIABLES
  29:Drivers/lvgl/src/widgets/win/lv_win.c ****  **********************/
  30:Drivers/lvgl/src/widgets/win/lv_win.c **** const lv_obj_class_t lv_win_class = {
ARM GAS  /tmp/cc4Armzt.s 			page 2


  31:Drivers/lvgl/src/widgets/win/lv_win.c ****     .constructor_cb = lv_win_constructor,
  32:Drivers/lvgl/src/widgets/win/lv_win.c ****     .width_def = LV_PCT(100),
  33:Drivers/lvgl/src/widgets/win/lv_win.c ****     .height_def = LV_PCT(100),
  34:Drivers/lvgl/src/widgets/win/lv_win.c ****     .base_class = &lv_obj_class,
  35:Drivers/lvgl/src/widgets/win/lv_win.c ****     .instance_size = sizeof(lv_win_t),
  36:Drivers/lvgl/src/widgets/win/lv_win.c ****     .name = "lv_win",
  37:Drivers/lvgl/src/widgets/win/lv_win.c **** };
  38:Drivers/lvgl/src/widgets/win/lv_win.c **** /**********************
  39:Drivers/lvgl/src/widgets/win/lv_win.c ****  *      MACROS
  40:Drivers/lvgl/src/widgets/win/lv_win.c ****  **********************/
  41:Drivers/lvgl/src/widgets/win/lv_win.c **** 
  42:Drivers/lvgl/src/widgets/win/lv_win.c **** /**********************
  43:Drivers/lvgl/src/widgets/win/lv_win.c ****  *   GLOBAL FUNCTIONS
  44:Drivers/lvgl/src/widgets/win/lv_win.c ****  **********************/
  45:Drivers/lvgl/src/widgets/win/lv_win.c **** 
  46:Drivers/lvgl/src/widgets/win/lv_win.c **** lv_obj_t * lv_win_create(lv_obj_t * parent)
  47:Drivers/lvgl/src/widgets/win/lv_win.c **** {
  48:Drivers/lvgl/src/widgets/win/lv_win.c ****     LV_LOG_INFO("begin");
  49:Drivers/lvgl/src/widgets/win/lv_win.c ****     lv_obj_t * obj = lv_obj_class_create_obj(&lv_win_class, parent);
  50:Drivers/lvgl/src/widgets/win/lv_win.c ****     lv_obj_class_init_obj(obj);
  51:Drivers/lvgl/src/widgets/win/lv_win.c ****     return obj;
  52:Drivers/lvgl/src/widgets/win/lv_win.c **** }
  53:Drivers/lvgl/src/widgets/win/lv_win.c **** 
  54:Drivers/lvgl/src/widgets/win/lv_win.c **** lv_obj_t * lv_win_add_title(lv_obj_t * win, const char * txt)
  55:Drivers/lvgl/src/widgets/win/lv_win.c **** {
  56:Drivers/lvgl/src/widgets/win/lv_win.c ****     lv_obj_t * header = lv_win_get_header(win);
  57:Drivers/lvgl/src/widgets/win/lv_win.c ****     lv_obj_t * title = lv_label_create(header);
  58:Drivers/lvgl/src/widgets/win/lv_win.c ****     lv_label_set_long_mode(title, LV_LABEL_LONG_MODE_DOTS);
  59:Drivers/lvgl/src/widgets/win/lv_win.c ****     lv_label_set_text(title, txt);
  60:Drivers/lvgl/src/widgets/win/lv_win.c ****     lv_obj_set_flex_grow(title, 1);
  61:Drivers/lvgl/src/widgets/win/lv_win.c ****     return title;
  62:Drivers/lvgl/src/widgets/win/lv_win.c **** }
  63:Drivers/lvgl/src/widgets/win/lv_win.c **** 
  64:Drivers/lvgl/src/widgets/win/lv_win.c **** lv_obj_t * lv_win_add_button(lv_obj_t * win, const void * icon, int32_t btn_w)
  65:Drivers/lvgl/src/widgets/win/lv_win.c **** {
  66:Drivers/lvgl/src/widgets/win/lv_win.c ****     lv_obj_t * header = lv_win_get_header(win);
  67:Drivers/lvgl/src/widgets/win/lv_win.c ****     lv_obj_t * btn = lv_button_create(header);
  68:Drivers/lvgl/src/widgets/win/lv_win.c ****     lv_obj_set_size(btn, btn_w, LV_PCT(100));
  69:Drivers/lvgl/src/widgets/win/lv_win.c **** 
  70:Drivers/lvgl/src/widgets/win/lv_win.c ****     if(icon) {
  71:Drivers/lvgl/src/widgets/win/lv_win.c ****         lv_obj_t * img = lv_image_create(btn);
  72:Drivers/lvgl/src/widgets/win/lv_win.c ****         lv_image_set_src(img, icon);
  73:Drivers/lvgl/src/widgets/win/lv_win.c ****         lv_obj_align(img, LV_ALIGN_CENTER, 0, 0);
  74:Drivers/lvgl/src/widgets/win/lv_win.c ****     }
  75:Drivers/lvgl/src/widgets/win/lv_win.c **** 
  76:Drivers/lvgl/src/widgets/win/lv_win.c ****     return btn;
  77:Drivers/lvgl/src/widgets/win/lv_win.c **** }
  78:Drivers/lvgl/src/widgets/win/lv_win.c **** 
  79:Drivers/lvgl/src/widgets/win/lv_win.c **** lv_obj_t * lv_win_get_header(lv_obj_t * win)
  80:Drivers/lvgl/src/widgets/win/lv_win.c **** {
  81:Drivers/lvgl/src/widgets/win/lv_win.c ****     return lv_obj_get_child(win, 0);
  82:Drivers/lvgl/src/widgets/win/lv_win.c **** }
  83:Drivers/lvgl/src/widgets/win/lv_win.c **** 
  84:Drivers/lvgl/src/widgets/win/lv_win.c **** lv_obj_t * lv_win_get_content(lv_obj_t * win)
  85:Drivers/lvgl/src/widgets/win/lv_win.c **** {
  86:Drivers/lvgl/src/widgets/win/lv_win.c ****     return lv_obj_get_child(win, 1);
  87:Drivers/lvgl/src/widgets/win/lv_win.c **** }
ARM GAS  /tmp/cc4Armzt.s 			page 3


  88:Drivers/lvgl/src/widgets/win/lv_win.c **** 
  89:Drivers/lvgl/src/widgets/win/lv_win.c **** /**********************
  90:Drivers/lvgl/src/widgets/win/lv_win.c ****  *   STATIC FUNCTIONS
  91:Drivers/lvgl/src/widgets/win/lv_win.c ****  **********************/
  92:Drivers/lvgl/src/widgets/win/lv_win.c **** 
  93:Drivers/lvgl/src/widgets/win/lv_win.c **** static void lv_win_constructor(const lv_obj_class_t * class_p, lv_obj_t * obj)
  94:Drivers/lvgl/src/widgets/win/lv_win.c **** {
  29              		.loc 1 94 1 view -0
  30              		.cfi_startproc
  31              		@ args = 0, pretend = 0, frame = 0
  32              		@ frame_needed = 0, uses_anonymous_args = 0
  33              		.loc 1 94 1 is_stmt 0 view .LVU1
  34 0000 70B5     		push	{r4, r5, r6, lr}
  35              	.LCFI0:
  36              		.cfi_def_cfa_offset 16
  37              		.cfi_offset 4, -16
  38              		.cfi_offset 5, -12
  39              		.cfi_offset 6, -8
  40              		.cfi_offset 14, -4
  41 0002 0C46     		mov	r4, r1
  95:Drivers/lvgl/src/widgets/win/lv_win.c ****     LV_UNUSED(class_p);
  42              		.loc 1 95 5 is_stmt 1 view .LVU2
  96:Drivers/lvgl/src/widgets/win/lv_win.c ****     lv_obj_t * parent = lv_obj_get_parent(obj);
  43              		.loc 1 96 5 view .LVU3
  44              		.loc 1 96 25 is_stmt 0 view .LVU4
  45 0004 0846     		mov	r0, r1
  46              	.LVL1:
  47              		.loc 1 96 25 view .LVU5
  48 0006 FFF7FEFF 		bl	lv_obj_get_parent
  49              	.LVL2:
  50              		.loc 1 96 25 view .LVU6
  51 000a 0646     		mov	r6, r0
  52              	.LVL3:
  97:Drivers/lvgl/src/widgets/win/lv_win.c ****     lv_obj_set_size(obj, lv_obj_get_width(parent), lv_obj_get_height(parent));
  53              		.loc 1 97 5 is_stmt 1 view .LVU7
  54 000c FFF7FEFF 		bl	lv_obj_get_width
  55              	.LVL4:
  56              		.loc 1 97 5 is_stmt 0 view .LVU8
  57 0010 0546     		mov	r5, r0
  58              		.loc 1 97 5 discriminator 1 view .LVU9
  59 0012 3046     		mov	r0, r6
  60 0014 FFF7FEFF 		bl	lv_obj_get_height
  61              	.LVL5:
  62 0018 0246     		mov	r2, r0
  63              		.loc 1 97 5 discriminator 2 view .LVU10
  64 001a 2946     		mov	r1, r5
  65 001c 2046     		mov	r0, r4
  66 001e FFF7FEFF 		bl	lv_obj_set_size
  67              	.LVL6:
  98:Drivers/lvgl/src/widgets/win/lv_win.c ****     lv_obj_set_flex_flow(obj, LV_FLEX_FLOW_COLUMN);
  68              		.loc 1 98 5 is_stmt 1 view .LVU11
  69 0022 0121     		movs	r1, #1
  70 0024 2046     		mov	r0, r4
  71 0026 FFF7FEFF 		bl	lv_obj_set_flex_flow
  72              	.LVL7:
  99:Drivers/lvgl/src/widgets/win/lv_win.c **** 
 100:Drivers/lvgl/src/widgets/win/lv_win.c ****     lv_obj_t * header = lv_obj_create(obj);
ARM GAS  /tmp/cc4Armzt.s 			page 4


  73              		.loc 1 100 5 view .LVU12
  74              		.loc 1 100 25 is_stmt 0 view .LVU13
  75 002a 2046     		mov	r0, r4
  76 002c FFF7FEFF 		bl	lv_obj_create
  77              	.LVL8:
  78 0030 0546     		mov	r5, r0
  79              	.LVL9:
 101:Drivers/lvgl/src/widgets/win/lv_win.c ****     lv_obj_set_size(header, LV_PCT(100), lv_display_get_dpi(lv_obj_get_display(obj)) / 2);
  80              		.loc 1 101 5 is_stmt 1 view .LVU14
  81              		.loc 1 101 61 is_stmt 0 view .LVU15
  82 0032 2046     		mov	r0, r4
  83              	.LVL10:
  84              		.loc 1 101 61 view .LVU16
  85 0034 FFF7FEFF 		bl	lv_obj_get_display
  86              	.LVL11:
  87              		.loc 1 101 42 discriminator 1 view .LVU17
  88 0038 FFF7FEFF 		bl	lv_display_get_dpi
  89              	.LVL12:
  90              		.loc 1 101 5 discriminator 2 view .LVU18
  91 003c 021E     		subs	r2, r0, #0
  92 003e 1BDB     		blt	.L4
  93              	.L2:
  94 0040 0E4E     		ldr	r6, .L5
  95              	.LVL13:
  96              		.loc 1 101 5 discriminator 2 view .LVU19
  97 0042 5210     		asrs	r2, r2, #1
  98 0044 3146     		mov	r1, r6
  99 0046 2846     		mov	r0, r5
 100 0048 FFF7FEFF 		bl	lv_obj_set_size
 101              	.LVL14:
 102:Drivers/lvgl/src/widgets/win/lv_win.c ****     lv_obj_set_flex_flow(header, LV_FLEX_FLOW_ROW);
 102              		.loc 1 102 5 is_stmt 1 view .LVU20
 103 004c 0021     		movs	r1, #0
 104 004e 2846     		mov	r0, r5
 105 0050 FFF7FEFF 		bl	lv_obj_set_flex_flow
 106              	.LVL15:
 103:Drivers/lvgl/src/widgets/win/lv_win.c ****     lv_obj_set_flex_align(header, LV_FLEX_ALIGN_START, LV_FLEX_ALIGN_CENTER, LV_FLEX_ALIGN_CENTER);
 107              		.loc 1 103 5 view .LVU21
 108 0054 0223     		movs	r3, #2
 109 0056 1A46     		mov	r2, r3
 110 0058 0021     		movs	r1, #0
 111 005a 2846     		mov	r0, r5
 112 005c FFF7FEFF 		bl	lv_obj_set_flex_align
 113              	.LVL16:
 104:Drivers/lvgl/src/widgets/win/lv_win.c **** 
 105:Drivers/lvgl/src/widgets/win/lv_win.c ****     lv_obj_t * cont = lv_obj_create(obj);
 114              		.loc 1 105 5 view .LVU22
 115              		.loc 1 105 23 is_stmt 0 view .LVU23
 116 0060 2046     		mov	r0, r4
 117 0062 FFF7FEFF 		bl	lv_obj_create
 118              	.LVL17:
 119 0066 0446     		mov	r4, r0
 120              	.LVL18:
 106:Drivers/lvgl/src/widgets/win/lv_win.c ****     lv_obj_set_flex_grow(cont, 1);
 121              		.loc 1 106 5 is_stmt 1 view .LVU24
 122 0068 0121     		movs	r1, #1
 123 006a FFF7FEFF 		bl	lv_obj_set_flex_grow
ARM GAS  /tmp/cc4Armzt.s 			page 5


 124              	.LVL19:
 107:Drivers/lvgl/src/widgets/win/lv_win.c ****     lv_obj_set_width(cont, LV_PCT(100));
 125              		.loc 1 107 5 view .LVU25
 126 006e 3146     		mov	r1, r6
 127 0070 2046     		mov	r0, r4
 128 0072 FFF7FEFF 		bl	lv_obj_set_width
 129              	.LVL20:
 108:Drivers/lvgl/src/widgets/win/lv_win.c **** }
 130              		.loc 1 108 1 is_stmt 0 view .LVU26
 131 0076 70BD     		pop	{r4, r5, r6, pc}
 132              	.LVL21:
 133              	.L4:
 101:Drivers/lvgl/src/widgets/win/lv_win.c ****     lv_obj_set_flex_flow(header, LV_FLEX_FLOW_ROW);
 134              		.loc 1 101 5 discriminator 2 view .LVU27
 135 0078 0132     		adds	r2, r2, #1
 136 007a E1E7     		b	.L2
 137              	.L6:
 138              		.align	2
 139              	.L5:
 140 007c 64000020 		.word	536871012
 141              		.cfi_endproc
 142              	.LFE183:
 144              		.section	.text.lv_win_create,"ax",%progbits
 145              		.align	1
 146              		.global	lv_win_create
 147              		.syntax unified
 148              		.thumb
 149              		.thumb_func
 151              	lv_win_create:
 152              	.LVL22:
 153              	.LFB178:
  47:Drivers/lvgl/src/widgets/win/lv_win.c ****     LV_LOG_INFO("begin");
 154              		.loc 1 47 1 is_stmt 1 view -0
 155              		.cfi_startproc
 156              		@ args = 0, pretend = 0, frame = 0
 157              		@ frame_needed = 0, uses_anonymous_args = 0
  47:Drivers/lvgl/src/widgets/win/lv_win.c ****     LV_LOG_INFO("begin");
 158              		.loc 1 47 1 is_stmt 0 view .LVU29
 159 0000 10B5     		push	{r4, lr}
 160              	.LCFI1:
 161              		.cfi_def_cfa_offset 8
 162              		.cfi_offset 4, -8
 163              		.cfi_offset 14, -4
 164 0002 0146     		mov	r1, r0
  48:Drivers/lvgl/src/widgets/win/lv_win.c ****     lv_obj_t * obj = lv_obj_class_create_obj(&lv_win_class, parent);
 165              		.loc 1 48 5 is_stmt 1 view .LVU30
  48:Drivers/lvgl/src/widgets/win/lv_win.c ****     lv_obj_t * obj = lv_obj_class_create_obj(&lv_win_class, parent);
 166              		.loc 1 48 5 view .LVU31
  48:Drivers/lvgl/src/widgets/win/lv_win.c ****     lv_obj_t * obj = lv_obj_class_create_obj(&lv_win_class, parent);
 167              		.loc 1 48 5 view .LVU32
  49:Drivers/lvgl/src/widgets/win/lv_win.c ****     lv_obj_class_init_obj(obj);
 168              		.loc 1 49 5 view .LVU33
  49:Drivers/lvgl/src/widgets/win/lv_win.c ****     lv_obj_class_init_obj(obj);
 169              		.loc 1 49 22 is_stmt 0 view .LVU34
 170 0004 0348     		ldr	r0, .L9
 171              	.LVL23:
  49:Drivers/lvgl/src/widgets/win/lv_win.c ****     lv_obj_class_init_obj(obj);
ARM GAS  /tmp/cc4Armzt.s 			page 6


 172              		.loc 1 49 22 view .LVU35
 173 0006 FFF7FEFF 		bl	lv_obj_class_create_obj
 174              	.LVL24:
  49:Drivers/lvgl/src/widgets/win/lv_win.c ****     lv_obj_class_init_obj(obj);
 175              		.loc 1 49 22 view .LVU36
 176 000a 0446     		mov	r4, r0
 177              	.LVL25:
  50:Drivers/lvgl/src/widgets/win/lv_win.c ****     return obj;
 178              		.loc 1 50 5 is_stmt 1 view .LVU37
 179 000c FFF7FEFF 		bl	lv_obj_class_init_obj
 180              	.LVL26:
  51:Drivers/lvgl/src/widgets/win/lv_win.c **** }
 181              		.loc 1 51 5 view .LVU38
  52:Drivers/lvgl/src/widgets/win/lv_win.c **** 
 182              		.loc 1 52 1 is_stmt 0 view .LVU39
 183 0010 2046     		mov	r0, r4
 184 0012 10BD     		pop	{r4, pc}
 185              	.LVL27:
 186              	.L10:
  52:Drivers/lvgl/src/widgets/win/lv_win.c **** 
 187              		.loc 1 52 1 view .LVU40
 188              		.align	2
 189              	.L9:
 190 0014 00000000 		.word	lv_win_class
 191              		.cfi_endproc
 192              	.LFE178:
 194              		.section	.text.lv_win_get_header,"ax",%progbits
 195              		.align	1
 196              		.global	lv_win_get_header
 197              		.syntax unified
 198              		.thumb
 199              		.thumb_func
 201              	lv_win_get_header:
 202              	.LVL28:
 203              	.LFB181:
  80:Drivers/lvgl/src/widgets/win/lv_win.c ****     return lv_obj_get_child(win, 0);
 204              		.loc 1 80 1 is_stmt 1 view -0
 205              		.cfi_startproc
 206              		@ args = 0, pretend = 0, frame = 0
 207              		@ frame_needed = 0, uses_anonymous_args = 0
  80:Drivers/lvgl/src/widgets/win/lv_win.c ****     return lv_obj_get_child(win, 0);
 208              		.loc 1 80 1 is_stmt 0 view .LVU42
 209 0000 08B5     		push	{r3, lr}
 210              	.LCFI2:
 211              		.cfi_def_cfa_offset 8
 212              		.cfi_offset 3, -8
 213              		.cfi_offset 14, -4
  81:Drivers/lvgl/src/widgets/win/lv_win.c **** }
 214              		.loc 1 81 5 is_stmt 1 view .LVU43
  81:Drivers/lvgl/src/widgets/win/lv_win.c **** }
 215              		.loc 1 81 12 is_stmt 0 view .LVU44
 216 0002 0021     		movs	r1, #0
 217 0004 FFF7FEFF 		bl	lv_obj_get_child
 218              	.LVL29:
  82:Drivers/lvgl/src/widgets/win/lv_win.c **** 
 219              		.loc 1 82 1 view .LVU45
 220 0008 08BD     		pop	{r3, pc}
ARM GAS  /tmp/cc4Armzt.s 			page 7


 221              		.cfi_endproc
 222              	.LFE181:
 224              		.section	.text.lv_win_add_title,"ax",%progbits
 225              		.align	1
 226              		.global	lv_win_add_title
 227              		.syntax unified
 228              		.thumb
 229              		.thumb_func
 231              	lv_win_add_title:
 232              	.LVL30:
 233              	.LFB179:
  55:Drivers/lvgl/src/widgets/win/lv_win.c ****     lv_obj_t * header = lv_win_get_header(win);
 234              		.loc 1 55 1 is_stmt 1 view -0
 235              		.cfi_startproc
 236              		@ args = 0, pretend = 0, frame = 0
 237              		@ frame_needed = 0, uses_anonymous_args = 0
  55:Drivers/lvgl/src/widgets/win/lv_win.c ****     lv_obj_t * header = lv_win_get_header(win);
 238              		.loc 1 55 1 is_stmt 0 view .LVU47
 239 0000 38B5     		push	{r3, r4, r5, lr}
 240              	.LCFI3:
 241              		.cfi_def_cfa_offset 16
 242              		.cfi_offset 3, -16
 243              		.cfi_offset 4, -12
 244              		.cfi_offset 5, -8
 245              		.cfi_offset 14, -4
 246 0002 0D46     		mov	r5, r1
  56:Drivers/lvgl/src/widgets/win/lv_win.c ****     lv_obj_t * title = lv_label_create(header);
 247              		.loc 1 56 5 is_stmt 1 view .LVU48
  56:Drivers/lvgl/src/widgets/win/lv_win.c ****     lv_obj_t * title = lv_label_create(header);
 248              		.loc 1 56 25 is_stmt 0 view .LVU49
 249 0004 FFF7FEFF 		bl	lv_win_get_header
 250              	.LVL31:
  57:Drivers/lvgl/src/widgets/win/lv_win.c ****     lv_label_set_long_mode(title, LV_LABEL_LONG_MODE_DOTS);
 251              		.loc 1 57 5 is_stmt 1 view .LVU50
  57:Drivers/lvgl/src/widgets/win/lv_win.c ****     lv_label_set_long_mode(title, LV_LABEL_LONG_MODE_DOTS);
 252              		.loc 1 57 24 is_stmt 0 view .LVU51
 253 0008 FFF7FEFF 		bl	lv_label_create
 254              	.LVL32:
  57:Drivers/lvgl/src/widgets/win/lv_win.c ****     lv_label_set_long_mode(title, LV_LABEL_LONG_MODE_DOTS);
 255              		.loc 1 57 24 view .LVU52
 256 000c 0446     		mov	r4, r0
 257              	.LVL33:
  58:Drivers/lvgl/src/widgets/win/lv_win.c ****     lv_label_set_text(title, txt);
 258              		.loc 1 58 5 is_stmt 1 view .LVU53
 259 000e 0121     		movs	r1, #1
 260 0010 FFF7FEFF 		bl	lv_label_set_long_mode
 261              	.LVL34:
  59:Drivers/lvgl/src/widgets/win/lv_win.c ****     lv_obj_set_flex_grow(title, 1);
 262              		.loc 1 59 5 view .LVU54
 263 0014 2946     		mov	r1, r5
 264 0016 2046     		mov	r0, r4
 265 0018 FFF7FEFF 		bl	lv_label_set_text
 266              	.LVL35:
  60:Drivers/lvgl/src/widgets/win/lv_win.c ****     return title;
 267              		.loc 1 60 5 view .LVU55
 268 001c 0121     		movs	r1, #1
 269 001e 2046     		mov	r0, r4
ARM GAS  /tmp/cc4Armzt.s 			page 8


 270 0020 FFF7FEFF 		bl	lv_obj_set_flex_grow
 271              	.LVL36:
  61:Drivers/lvgl/src/widgets/win/lv_win.c **** }
 272              		.loc 1 61 5 view .LVU56
  62:Drivers/lvgl/src/widgets/win/lv_win.c **** 
 273              		.loc 1 62 1 is_stmt 0 view .LVU57
 274 0024 2046     		mov	r0, r4
 275 0026 38BD     		pop	{r3, r4, r5, pc}
  62:Drivers/lvgl/src/widgets/win/lv_win.c **** 
 276              		.loc 1 62 1 view .LVU58
 277              		.cfi_endproc
 278              	.LFE179:
 280              		.section	.text.lv_win_add_button,"ax",%progbits
 281              		.align	1
 282              		.global	lv_win_add_button
 283              		.syntax unified
 284              		.thumb
 285              		.thumb_func
 287              	lv_win_add_button:
 288              	.LVL37:
 289              	.LFB180:
  65:Drivers/lvgl/src/widgets/win/lv_win.c ****     lv_obj_t * header = lv_win_get_header(win);
 290              		.loc 1 65 1 is_stmt 1 view -0
 291              		.cfi_startproc
 292              		@ args = 0, pretend = 0, frame = 0
 293              		@ frame_needed = 0, uses_anonymous_args = 0
  65:Drivers/lvgl/src/widgets/win/lv_win.c ****     lv_obj_t * header = lv_win_get_header(win);
 294              		.loc 1 65 1 is_stmt 0 view .LVU60
 295 0000 70B5     		push	{r4, r5, r6, lr}
 296              	.LCFI4:
 297              		.cfi_def_cfa_offset 16
 298              		.cfi_offset 4, -16
 299              		.cfi_offset 5, -12
 300              		.cfi_offset 6, -8
 301              		.cfi_offset 14, -4
 302 0002 0D46     		mov	r5, r1
 303 0004 1646     		mov	r6, r2
  66:Drivers/lvgl/src/widgets/win/lv_win.c ****     lv_obj_t * btn = lv_button_create(header);
 304              		.loc 1 66 5 is_stmt 1 view .LVU61
  66:Drivers/lvgl/src/widgets/win/lv_win.c ****     lv_obj_t * btn = lv_button_create(header);
 305              		.loc 1 66 25 is_stmt 0 view .LVU62
 306 0006 FFF7FEFF 		bl	lv_win_get_header
 307              	.LVL38:
  67:Drivers/lvgl/src/widgets/win/lv_win.c ****     lv_obj_set_size(btn, btn_w, LV_PCT(100));
 308              		.loc 1 67 5 is_stmt 1 view .LVU63
  67:Drivers/lvgl/src/widgets/win/lv_win.c ****     lv_obj_set_size(btn, btn_w, LV_PCT(100));
 309              		.loc 1 67 22 is_stmt 0 view .LVU64
 310 000a FFF7FEFF 		bl	lv_button_create
 311              	.LVL39:
  67:Drivers/lvgl/src/widgets/win/lv_win.c ****     lv_obj_set_size(btn, btn_w, LV_PCT(100));
 312              		.loc 1 67 22 view .LVU65
 313 000e 0446     		mov	r4, r0
 314              	.LVL40:
  68:Drivers/lvgl/src/widgets/win/lv_win.c **** 
 315              		.loc 1 68 5 is_stmt 1 view .LVU66
 316 0010 094A     		ldr	r2, .L18
 317 0012 3146     		mov	r1, r6
ARM GAS  /tmp/cc4Armzt.s 			page 9


 318 0014 FFF7FEFF 		bl	lv_obj_set_size
 319              	.LVL41:
  70:Drivers/lvgl/src/widgets/win/lv_win.c ****         lv_obj_t * img = lv_image_create(btn);
 320              		.loc 1 70 5 view .LVU67
  70:Drivers/lvgl/src/widgets/win/lv_win.c ****         lv_obj_t * img = lv_image_create(btn);
 321              		.loc 1 70 7 is_stmt 0 view .LVU68
 322 0018 65B1     		cbz	r5, .L15
 323              	.LBB2:
  71:Drivers/lvgl/src/widgets/win/lv_win.c ****         lv_image_set_src(img, icon);
 324              		.loc 1 71 9 is_stmt 1 view .LVU69
  71:Drivers/lvgl/src/widgets/win/lv_win.c ****         lv_image_set_src(img, icon);
 325              		.loc 1 71 26 is_stmt 0 view .LVU70
 326 001a 2046     		mov	r0, r4
 327 001c FFF7FEFF 		bl	lv_image_create
 328              	.LVL42:
 329 0020 0646     		mov	r6, r0
 330              	.LVL43:
  72:Drivers/lvgl/src/widgets/win/lv_win.c ****         lv_obj_align(img, LV_ALIGN_CENTER, 0, 0);
 331              		.loc 1 72 9 is_stmt 1 view .LVU71
 332 0022 2946     		mov	r1, r5
 333 0024 FFF7FEFF 		bl	lv_image_set_src
 334              	.LVL44:
  73:Drivers/lvgl/src/widgets/win/lv_win.c ****     }
 335              		.loc 1 73 9 view .LVU72
 336 0028 0023     		movs	r3, #0
 337 002a 1A46     		mov	r2, r3
 338 002c 0921     		movs	r1, #9
 339 002e 3046     		mov	r0, r6
 340 0030 FFF7FEFF 		bl	lv_obj_align
 341              	.LVL45:
 342              	.LBE2:
  76:Drivers/lvgl/src/widgets/win/lv_win.c **** }
 343              		.loc 1 76 5 view .LVU73
 344              	.L15:
  77:Drivers/lvgl/src/widgets/win/lv_win.c **** 
 345              		.loc 1 77 1 is_stmt 0 view .LVU74
 346 0034 2046     		mov	r0, r4
 347 0036 70BD     		pop	{r4, r5, r6, pc}
 348              	.LVL46:
 349              	.L19:
  77:Drivers/lvgl/src/widgets/win/lv_win.c **** 
 350              		.loc 1 77 1 view .LVU75
 351              		.align	2
 352              	.L18:
 353 0038 64000020 		.word	536871012
 354              		.cfi_endproc
 355              	.LFE180:
 357              		.section	.text.lv_win_get_content,"ax",%progbits
 358              		.align	1
 359              		.global	lv_win_get_content
 360              		.syntax unified
 361              		.thumb
 362              		.thumb_func
 364              	lv_win_get_content:
 365              	.LVL47:
 366              	.LFB182:
  85:Drivers/lvgl/src/widgets/win/lv_win.c ****     return lv_obj_get_child(win, 1);
ARM GAS  /tmp/cc4Armzt.s 			page 10


 367              		.loc 1 85 1 is_stmt 1 view -0
 368              		.cfi_startproc
 369              		@ args = 0, pretend = 0, frame = 0
 370              		@ frame_needed = 0, uses_anonymous_args = 0
  85:Drivers/lvgl/src/widgets/win/lv_win.c ****     return lv_obj_get_child(win, 1);
 371              		.loc 1 85 1 is_stmt 0 view .LVU77
 372 0000 08B5     		push	{r3, lr}
 373              	.LCFI5:
 374              		.cfi_def_cfa_offset 8
 375              		.cfi_offset 3, -8
 376              		.cfi_offset 14, -4
  86:Drivers/lvgl/src/widgets/win/lv_win.c **** }
 377              		.loc 1 86 5 is_stmt 1 view .LVU78
  86:Drivers/lvgl/src/widgets/win/lv_win.c **** }
 378              		.loc 1 86 12 is_stmt 0 view .LVU79
 379 0002 0121     		movs	r1, #1
 380 0004 FFF7FEFF 		bl	lv_obj_get_child
 381              	.LVL48:
  87:Drivers/lvgl/src/widgets/win/lv_win.c **** 
 382              		.loc 1 87 1 view .LVU80
 383 0008 08BD     		pop	{r3, pc}
 384              		.cfi_endproc
 385              	.LFE182:
 387              		.global	lv_win_class
 388              		.section	.rodata.str1.4,"aMS",%progbits,1
 389              		.align	2
 390              	.LC0:
 391 0000 6C765F77 		.ascii	"lv_win\000"
 391      696E00
 392              		.section	.rodata.lv_win_class,"a"
 393              		.align	2
 396              	lv_win_class:
 397 0000 00000000 		.word	lv_obj_class
 398 0004 00000000 		.word	lv_win_constructor
 399 0008 00000000 		.space	12
 399      00000000 
 399      00000000 
 400 0014 00000000 		.word	.LC0
 401 0018 64000020 		.word	536871012
 402 001c 64000020 		.word	536871012
 403 0020 C0       		.byte	192
 404 0021 02       		.byte	2
 405 0022 00       		.byte	0
 406 0023 00       		.space	1
 407              		.text
 408              	.Letext0:
 409              		.file 2 "/usr/arm-none-eabi/include/machine/_default_types.h"
 410              		.file 3 "/usr/arm-none-eabi/include/sys/_stdint.h"
 411              		.file 4 "Drivers/lvgl/src/widgets/win/../../core/../misc/lv_types.h"
 412              		.file 5 "Drivers/lvgl/src/widgets/win/../../core/lv_obj_private.h"
 413              		.file 6 "Drivers/lvgl/src/widgets/win/../../core/lv_obj_class_private.h"
 414              		.file 7 "Drivers/lvgl/src/widgets/win/../../core/../display/../misc/lv_array.h"
 415              		.file 8 "Drivers/lvgl/src/widgets/win/../../core/../misc/../font/../draw/../misc/lv_area.h"
 416              		.file 9 "Drivers/lvgl/src/widgets/win/../../core/../misc/../layouts/flex/lv_flex.h"
 417              		.file 10 "Drivers/lvgl/src/widgets/win/../../core/../display/../misc/lv_event.h"
 418              		.file 11 "Drivers/lvgl/src/widgets/win/../../core/../indev/lv_indev.h"
 419              		.file 12 "Drivers/lvgl/src/widgets/win/../../core/lv_obj.h"
ARM GAS  /tmp/cc4Armzt.s 			page 11


 420              		.file 13 "Drivers/lvgl/src/widgets/win/lv_win.h"
 421              		.file 14 "Drivers/lvgl/src/widgets/win/../../../src/widgets/bar/../label/lv_label.h"
 422              		.file 15 "Drivers/lvgl/src/widgets/win/../../../src/widgets/bar/lv_bar.h"
 423              		.file 16 "Drivers/lvgl/src/widgets/win/../../core/lv_obj_pos.h"
 424              		.file 17 "Drivers/lvgl/src/widgets/win/../../../src/widgets/animimage/../image/lv_image.h"
 425              		.file 18 "Drivers/lvgl/src/widgets/win/../../core/lv_obj_tree.h"
 426              		.file 19 "Drivers/lvgl/src/widgets/win/../../../src/widgets/button/lv_button.h"
 427              		.file 20 "Drivers/lvgl/src/widgets/win/../../core/lv_obj_class.h"
 428              		.file 21 "Drivers/lvgl/src/widgets/win/../../core/../display/lv_display.h"
ARM GAS  /tmp/cc4Armzt.s 			page 12

