ARM GAS  /tmp/cc0I35xZ.s 			page 1


   1              		.cpu cortex-m7
   2              		.arch armv7e-m
   3              		.fpu fpv5-sp-d16
   4              		.eabi_attribute 27, 1
   5              		.eabi_attribute 28, 1
   6              		.eabi_attribute 20, 1
   7              		.eabi_attribute 21, 1
   8              		.eabi_attribute 23, 3
   9              		.eabi_attribute 24, 1
  10              		.eabi_attribute 25, 1
  11              		.eabi_attribute 26, 1
  12              		.eabi_attribute 30, 1
  13              		.eabi_attribute 34, 1
  14              		.eabi_attribute 18, 4
  15              		.file	"stm32746g_discovery_sdram.c"
  16              		.text
  17              	.Ltext0:
  18              		.cfi_sections	.debug_frame
  19              		.file 1 "Drivers/BSP/STM32746G-Discovery/stm32746g_discovery_sdram.c"
  20              		.section	.text.BSP_SDRAM_Initialization_sequence,"ax",%progbits
  21              		.align	1
  22              		.global	BSP_SDRAM_Initialization_sequence
  23              		.syntax unified
  24              		.thumb
  25              		.thumb_func
  27              	BSP_SDRAM_Initialization_sequence:
  28              	.LVL0:
  29              	.LFB143:
   1:Drivers/BSP/STM32746G-Discovery/stm32746g_discovery_sdram.c **** /**
   2:Drivers/BSP/STM32746G-Discovery/stm32746g_discovery_sdram.c ****   ******************************************************************************
   3:Drivers/BSP/STM32746G-Discovery/stm32746g_discovery_sdram.c ****   * @file    stm32746g_discovery_sdram.c
   4:Drivers/BSP/STM32746G-Discovery/stm32746g_discovery_sdram.c ****   * @author  MCD Application Team
   5:Drivers/BSP/STM32746G-Discovery/stm32746g_discovery_sdram.c ****   * @brief   This file includes the SDRAM driver for the MT48LC4M32B2B5-7 memory 
   6:Drivers/BSP/STM32746G-Discovery/stm32746g_discovery_sdram.c ****   *          device mounted on STM32746G-Discovery board.
   7:Drivers/BSP/STM32746G-Discovery/stm32746g_discovery_sdram.c ****   *
   8:Drivers/BSP/STM32746G-Discovery/stm32746g_discovery_sdram.c ****   ******************************************************************************
   9:Drivers/BSP/STM32746G-Discovery/stm32746g_discovery_sdram.c ****   * @attention
  10:Drivers/BSP/STM32746G-Discovery/stm32746g_discovery_sdram.c ****   *
  11:Drivers/BSP/STM32746G-Discovery/stm32746g_discovery_sdram.c ****   * Copyright (c) 2016 STMicroelectronics.
  12:Drivers/BSP/STM32746G-Discovery/stm32746g_discovery_sdram.c ****   * All rights reserved.
  13:Drivers/BSP/STM32746G-Discovery/stm32746g_discovery_sdram.c ****   *
  14:Drivers/BSP/STM32746G-Discovery/stm32746g_discovery_sdram.c ****   * This software is licensed under terms that can be found in the LICENSE file
  15:Drivers/BSP/STM32746G-Discovery/stm32746g_discovery_sdram.c ****   * in the root directory of this software component.
  16:Drivers/BSP/STM32746G-Discovery/stm32746g_discovery_sdram.c ****   * If no LICENSE file comes with this software, it is provided AS-IS.
  17:Drivers/BSP/STM32746G-Discovery/stm32746g_discovery_sdram.c ****   *
  18:Drivers/BSP/STM32746G-Discovery/stm32746g_discovery_sdram.c ****   ******************************************************************************
  19:Drivers/BSP/STM32746G-Discovery/stm32746g_discovery_sdram.c ****   @verbatim
  20:Drivers/BSP/STM32746G-Discovery/stm32746g_discovery_sdram.c ****    1. How To use this driver:
  21:Drivers/BSP/STM32746G-Discovery/stm32746g_discovery_sdram.c ****    --------------------------
  22:Drivers/BSP/STM32746G-Discovery/stm32746g_discovery_sdram.c ****       - This driver is used to drive the MT48LC4M32B2B5-7 SDRAM external memory mounted
  23:Drivers/BSP/STM32746G-Discovery/stm32746g_discovery_sdram.c ****         on STM32746G-Discovery board.
  24:Drivers/BSP/STM32746G-Discovery/stm32746g_discovery_sdram.c ****       - This driver does not need a specific component driver for the SDRAM device
  25:Drivers/BSP/STM32746G-Discovery/stm32746g_discovery_sdram.c ****         to be included with.
  26:Drivers/BSP/STM32746G-Discovery/stm32746g_discovery_sdram.c ****    
  27:Drivers/BSP/STM32746G-Discovery/stm32746g_discovery_sdram.c ****    2. Driver description:
  28:Drivers/BSP/STM32746G-Discovery/stm32746g_discovery_sdram.c ****    ---------------------
  29:Drivers/BSP/STM32746G-Discovery/stm32746g_discovery_sdram.c ****      + Initialization steps:
ARM GAS  /tmp/cc0I35xZ.s 			page 2


  30:Drivers/BSP/STM32746G-Discovery/stm32746g_discovery_sdram.c ****         o Initialize the SDRAM external memory using the BSP_SDRAM_Init() function. This 
  31:Drivers/BSP/STM32746G-Discovery/stm32746g_discovery_sdram.c ****           function includes the MSP layer hardware resources initialization and the
  32:Drivers/BSP/STM32746G-Discovery/stm32746g_discovery_sdram.c ****           FMC controller configuration to interface with the external SDRAM memory.
  33:Drivers/BSP/STM32746G-Discovery/stm32746g_discovery_sdram.c ****         o It contains the SDRAM initialization sequence to program the SDRAM external 
  34:Drivers/BSP/STM32746G-Discovery/stm32746g_discovery_sdram.c ****           device using the function BSP_SDRAM_Initialization_sequence(). Note that this 
  35:Drivers/BSP/STM32746G-Discovery/stm32746g_discovery_sdram.c ****           sequence is standard for all SDRAM devices, but can include some differences
  36:Drivers/BSP/STM32746G-Discovery/stm32746g_discovery_sdram.c ****           from a device to another. If it is the case, the right sequence should be 
  37:Drivers/BSP/STM32746G-Discovery/stm32746g_discovery_sdram.c ****           implemented separately.
  38:Drivers/BSP/STM32746G-Discovery/stm32746g_discovery_sdram.c ****      
  39:Drivers/BSP/STM32746G-Discovery/stm32746g_discovery_sdram.c ****      + SDRAM read/write operations
  40:Drivers/BSP/STM32746G-Discovery/stm32746g_discovery_sdram.c ****         o SDRAM external memory can be accessed with read/write operations once it is
  41:Drivers/BSP/STM32746G-Discovery/stm32746g_discovery_sdram.c ****           initialized.
  42:Drivers/BSP/STM32746G-Discovery/stm32746g_discovery_sdram.c ****           Read/write operation can be performed with AHB access using the functions
  43:Drivers/BSP/STM32746G-Discovery/stm32746g_discovery_sdram.c ****           BSP_SDRAM_ReadData()/BSP_SDRAM_WriteData(), or by DMA transfer using the functions
  44:Drivers/BSP/STM32746G-Discovery/stm32746g_discovery_sdram.c ****           BSP_SDRAM_ReadData_DMA()/BSP_SDRAM_WriteData_DMA().
  45:Drivers/BSP/STM32746G-Discovery/stm32746g_discovery_sdram.c ****         o The AHB access is performed with 32-bit width transaction, the DMA transfer
  46:Drivers/BSP/STM32746G-Discovery/stm32746g_discovery_sdram.c ****           configuration is fixed at single (no burst) word transfer (see the 
  47:Drivers/BSP/STM32746G-Discovery/stm32746g_discovery_sdram.c ****           SDRAM_MspInit() static function).
  48:Drivers/BSP/STM32746G-Discovery/stm32746g_discovery_sdram.c ****         o User can implement his own functions for read/write access with his desired 
  49:Drivers/BSP/STM32746G-Discovery/stm32746g_discovery_sdram.c ****           configurations.
  50:Drivers/BSP/STM32746G-Discovery/stm32746g_discovery_sdram.c ****         o If interrupt mode is used for DMA transfer, the function BSP_SDRAM_DMA_IRQHandler()
  51:Drivers/BSP/STM32746G-Discovery/stm32746g_discovery_sdram.c ****           is called in IRQ handler file, to serve the generated interrupt once the DMA 
  52:Drivers/BSP/STM32746G-Discovery/stm32746g_discovery_sdram.c ****           transfer is complete.
  53:Drivers/BSP/STM32746G-Discovery/stm32746g_discovery_sdram.c ****         o You can send a command to the SDRAM device in runtime using the function 
  54:Drivers/BSP/STM32746G-Discovery/stm32746g_discovery_sdram.c ****           BSP_SDRAM_Sendcmd(), and giving the desired command as parameter chosen between 
  55:Drivers/BSP/STM32746G-Discovery/stm32746g_discovery_sdram.c ****           the predefined commands of the "FMC_SDRAM_CommandTypeDef" structure. 
  56:Drivers/BSP/STM32746G-Discovery/stm32746g_discovery_sdram.c ****  
  57:Drivers/BSP/STM32746G-Discovery/stm32746g_discovery_sdram.c ****   @endverbatim
  58:Drivers/BSP/STM32746G-Discovery/stm32746g_discovery_sdram.c ****   ******************************************************************************
  59:Drivers/BSP/STM32746G-Discovery/stm32746g_discovery_sdram.c ****   */
  60:Drivers/BSP/STM32746G-Discovery/stm32746g_discovery_sdram.c **** 
  61:Drivers/BSP/STM32746G-Discovery/stm32746g_discovery_sdram.c **** /* Dependencies
  62:Drivers/BSP/STM32746G-Discovery/stm32746g_discovery_sdram.c **** - stm32f7xx_hal_sdram.c
  63:Drivers/BSP/STM32746G-Discovery/stm32746g_discovery_sdram.c **** - stm32f7xx_ll_fmc.c
  64:Drivers/BSP/STM32746G-Discovery/stm32746g_discovery_sdram.c **** - stm32f7xx_hal_dma.c  
  65:Drivers/BSP/STM32746G-Discovery/stm32746g_discovery_sdram.c **** - stm32f7xx_hal_gpio.c
  66:Drivers/BSP/STM32746G-Discovery/stm32746g_discovery_sdram.c **** - stm32f7xx_hal_cortex.c
  67:Drivers/BSP/STM32746G-Discovery/stm32746g_discovery_sdram.c **** - stm32f7xx_hal_rcc_ex.h
  68:Drivers/BSP/STM32746G-Discovery/stm32746g_discovery_sdram.c **** EndDependencies */
  69:Drivers/BSP/STM32746G-Discovery/stm32746g_discovery_sdram.c **** 
  70:Drivers/BSP/STM32746G-Discovery/stm32746g_discovery_sdram.c **** /* Includes ------------------------------------------------------------------*/
  71:Drivers/BSP/STM32746G-Discovery/stm32746g_discovery_sdram.c **** #include "stm32746g_discovery_sdram.h"
  72:Drivers/BSP/STM32746G-Discovery/stm32746g_discovery_sdram.c **** 
  73:Drivers/BSP/STM32746G-Discovery/stm32746g_discovery_sdram.c **** /** @addtogroup BSP
  74:Drivers/BSP/STM32746G-Discovery/stm32746g_discovery_sdram.c ****   * @{
  75:Drivers/BSP/STM32746G-Discovery/stm32746g_discovery_sdram.c ****   */
  76:Drivers/BSP/STM32746G-Discovery/stm32746g_discovery_sdram.c **** 
  77:Drivers/BSP/STM32746G-Discovery/stm32746g_discovery_sdram.c **** /** @addtogroup STM32746G_DISCOVERY
  78:Drivers/BSP/STM32746G-Discovery/stm32746g_discovery_sdram.c ****   * @{
  79:Drivers/BSP/STM32746G-Discovery/stm32746g_discovery_sdram.c ****   */ 
  80:Drivers/BSP/STM32746G-Discovery/stm32746g_discovery_sdram.c ****   
  81:Drivers/BSP/STM32746G-Discovery/stm32746g_discovery_sdram.c **** /** @defgroup STM32746G_DISCOVERY_SDRAM STM32746G_DISCOVERY_SDRAM
  82:Drivers/BSP/STM32746G-Discovery/stm32746g_discovery_sdram.c ****   * @{
  83:Drivers/BSP/STM32746G-Discovery/stm32746g_discovery_sdram.c ****   */ 
  84:Drivers/BSP/STM32746G-Discovery/stm32746g_discovery_sdram.c **** 
  85:Drivers/BSP/STM32746G-Discovery/stm32746g_discovery_sdram.c **** /** @defgroup STM32746G_DISCOVERY_SDRAM_Private_Types_Definitions STM32746G_DISCOVERY_SDRAM Private
  86:Drivers/BSP/STM32746G-Discovery/stm32746g_discovery_sdram.c ****   * @{
ARM GAS  /tmp/cc0I35xZ.s 			page 3


  87:Drivers/BSP/STM32746G-Discovery/stm32746g_discovery_sdram.c ****   */ 
  88:Drivers/BSP/STM32746G-Discovery/stm32746g_discovery_sdram.c **** /**
  89:Drivers/BSP/STM32746G-Discovery/stm32746g_discovery_sdram.c ****   * @}
  90:Drivers/BSP/STM32746G-Discovery/stm32746g_discovery_sdram.c ****   */
  91:Drivers/BSP/STM32746G-Discovery/stm32746g_discovery_sdram.c **** 
  92:Drivers/BSP/STM32746G-Discovery/stm32746g_discovery_sdram.c **** /** @defgroup STM32746G_DISCOVERY_SDRAM_Private_Defines STM32746G_DISCOVERY_SDRAM Private Defines
  93:Drivers/BSP/STM32746G-Discovery/stm32746g_discovery_sdram.c ****   * @{
  94:Drivers/BSP/STM32746G-Discovery/stm32746g_discovery_sdram.c ****   */
  95:Drivers/BSP/STM32746G-Discovery/stm32746g_discovery_sdram.c **** /**
  96:Drivers/BSP/STM32746G-Discovery/stm32746g_discovery_sdram.c ****   * @}
  97:Drivers/BSP/STM32746G-Discovery/stm32746g_discovery_sdram.c ****   */
  98:Drivers/BSP/STM32746G-Discovery/stm32746g_discovery_sdram.c **** 
  99:Drivers/BSP/STM32746G-Discovery/stm32746g_discovery_sdram.c **** /** @defgroup STM32746G_DISCOVERY_SDRAM_Private_Macros STM32746G_DISCOVERY_SDRAM Private Macros
 100:Drivers/BSP/STM32746G-Discovery/stm32746g_discovery_sdram.c ****   * @{
 101:Drivers/BSP/STM32746G-Discovery/stm32746g_discovery_sdram.c ****   */  
 102:Drivers/BSP/STM32746G-Discovery/stm32746g_discovery_sdram.c **** /**
 103:Drivers/BSP/STM32746G-Discovery/stm32746g_discovery_sdram.c ****   * @}
 104:Drivers/BSP/STM32746G-Discovery/stm32746g_discovery_sdram.c ****   */
 105:Drivers/BSP/STM32746G-Discovery/stm32746g_discovery_sdram.c **** 
 106:Drivers/BSP/STM32746G-Discovery/stm32746g_discovery_sdram.c **** /** @defgroup STM32746G_DISCOVERY_SDRAM_Private_Variables STM32746G_DISCOVERY_SDRAM Private Variabl
 107:Drivers/BSP/STM32746G-Discovery/stm32746g_discovery_sdram.c ****   * @{
 108:Drivers/BSP/STM32746G-Discovery/stm32746g_discovery_sdram.c ****   */       
 109:Drivers/BSP/STM32746G-Discovery/stm32746g_discovery_sdram.c **** SDRAM_HandleTypeDef sdramHandle;
 110:Drivers/BSP/STM32746G-Discovery/stm32746g_discovery_sdram.c **** static FMC_SDRAM_TimingTypeDef Timing;
 111:Drivers/BSP/STM32746G-Discovery/stm32746g_discovery_sdram.c **** static FMC_SDRAM_CommandTypeDef Command;
 112:Drivers/BSP/STM32746G-Discovery/stm32746g_discovery_sdram.c **** /**
 113:Drivers/BSP/STM32746G-Discovery/stm32746g_discovery_sdram.c ****   * @}
 114:Drivers/BSP/STM32746G-Discovery/stm32746g_discovery_sdram.c ****   */ 
 115:Drivers/BSP/STM32746G-Discovery/stm32746g_discovery_sdram.c **** 
 116:Drivers/BSP/STM32746G-Discovery/stm32746g_discovery_sdram.c **** /** @defgroup STM32746G_DISCOVERY_SDRAM_Private_Function_Prototypes STM32746G_DISCOVERY_SDRAM Priva
 117:Drivers/BSP/STM32746G-Discovery/stm32746g_discovery_sdram.c ****   * @{
 118:Drivers/BSP/STM32746G-Discovery/stm32746g_discovery_sdram.c ****   */ 
 119:Drivers/BSP/STM32746G-Discovery/stm32746g_discovery_sdram.c **** /**
 120:Drivers/BSP/STM32746G-Discovery/stm32746g_discovery_sdram.c ****   * @}
 121:Drivers/BSP/STM32746G-Discovery/stm32746g_discovery_sdram.c ****   */
 122:Drivers/BSP/STM32746G-Discovery/stm32746g_discovery_sdram.c ****     
 123:Drivers/BSP/STM32746G-Discovery/stm32746g_discovery_sdram.c **** /** @defgroup STM32746G_DISCOVERY_SDRAM_Exported_Functions STM32746G_DISCOVERY_SDRAM Exported Funct
 124:Drivers/BSP/STM32746G-Discovery/stm32746g_discovery_sdram.c ****   * @{
 125:Drivers/BSP/STM32746G-Discovery/stm32746g_discovery_sdram.c ****   */ 
 126:Drivers/BSP/STM32746G-Discovery/stm32746g_discovery_sdram.c **** 
 127:Drivers/BSP/STM32746G-Discovery/stm32746g_discovery_sdram.c **** /**
 128:Drivers/BSP/STM32746G-Discovery/stm32746g_discovery_sdram.c ****   * @brief  Initializes the SDRAM device.
 129:Drivers/BSP/STM32746G-Discovery/stm32746g_discovery_sdram.c ****   * @retval SDRAM status
 130:Drivers/BSP/STM32746G-Discovery/stm32746g_discovery_sdram.c ****   */
 131:Drivers/BSP/STM32746G-Discovery/stm32746g_discovery_sdram.c **** uint8_t BSP_SDRAM_Init(void)
 132:Drivers/BSP/STM32746G-Discovery/stm32746g_discovery_sdram.c **** { 
 133:Drivers/BSP/STM32746G-Discovery/stm32746g_discovery_sdram.c ****   static uint8_t sdramstatus = SDRAM_ERROR;
 134:Drivers/BSP/STM32746G-Discovery/stm32746g_discovery_sdram.c ****   /* SDRAM device configuration */
 135:Drivers/BSP/STM32746G-Discovery/stm32746g_discovery_sdram.c ****   sdramHandle.Instance = FMC_SDRAM_DEVICE;
 136:Drivers/BSP/STM32746G-Discovery/stm32746g_discovery_sdram.c ****     
 137:Drivers/BSP/STM32746G-Discovery/stm32746g_discovery_sdram.c ****   /* Timing configuration for 100Mhz as SD clock frequency (System clock is up to 200Mhz) */
 138:Drivers/BSP/STM32746G-Discovery/stm32746g_discovery_sdram.c ****   Timing.LoadToActiveDelay    = 2;
 139:Drivers/BSP/STM32746G-Discovery/stm32746g_discovery_sdram.c ****   Timing.ExitSelfRefreshDelay = 7;
 140:Drivers/BSP/STM32746G-Discovery/stm32746g_discovery_sdram.c ****   Timing.SelfRefreshTime      = 4;
 141:Drivers/BSP/STM32746G-Discovery/stm32746g_discovery_sdram.c ****   Timing.RowCycleDelay        = 7;
 142:Drivers/BSP/STM32746G-Discovery/stm32746g_discovery_sdram.c ****   Timing.WriteRecoveryTime    = 2;
 143:Drivers/BSP/STM32746G-Discovery/stm32746g_discovery_sdram.c ****   Timing.RPDelay              = 2;
ARM GAS  /tmp/cc0I35xZ.s 			page 4


 144:Drivers/BSP/STM32746G-Discovery/stm32746g_discovery_sdram.c ****   Timing.RCDDelay             = 2;
 145:Drivers/BSP/STM32746G-Discovery/stm32746g_discovery_sdram.c ****   
 146:Drivers/BSP/STM32746G-Discovery/stm32746g_discovery_sdram.c ****   sdramHandle.Init.SDBank             = FMC_SDRAM_BANK1;
 147:Drivers/BSP/STM32746G-Discovery/stm32746g_discovery_sdram.c ****   sdramHandle.Init.ColumnBitsNumber   = FMC_SDRAM_COLUMN_BITS_NUM_8;
 148:Drivers/BSP/STM32746G-Discovery/stm32746g_discovery_sdram.c ****   sdramHandle.Init.RowBitsNumber      = FMC_SDRAM_ROW_BITS_NUM_12;
 149:Drivers/BSP/STM32746G-Discovery/stm32746g_discovery_sdram.c ****   sdramHandle.Init.MemoryDataWidth    = SDRAM_MEMORY_WIDTH;
 150:Drivers/BSP/STM32746G-Discovery/stm32746g_discovery_sdram.c ****   sdramHandle.Init.InternalBankNumber = FMC_SDRAM_INTERN_BANKS_NUM_4;
 151:Drivers/BSP/STM32746G-Discovery/stm32746g_discovery_sdram.c ****   sdramHandle.Init.CASLatency         = FMC_SDRAM_CAS_LATENCY_2;
 152:Drivers/BSP/STM32746G-Discovery/stm32746g_discovery_sdram.c ****   sdramHandle.Init.WriteProtection    = FMC_SDRAM_WRITE_PROTECTION_DISABLE;
 153:Drivers/BSP/STM32746G-Discovery/stm32746g_discovery_sdram.c ****   sdramHandle.Init.SDClockPeriod      = SDCLOCK_PERIOD;
 154:Drivers/BSP/STM32746G-Discovery/stm32746g_discovery_sdram.c ****   sdramHandle.Init.ReadBurst          = FMC_SDRAM_RBURST_ENABLE;
 155:Drivers/BSP/STM32746G-Discovery/stm32746g_discovery_sdram.c ****   sdramHandle.Init.ReadPipeDelay      = FMC_SDRAM_RPIPE_DELAY_0;
 156:Drivers/BSP/STM32746G-Discovery/stm32746g_discovery_sdram.c ****   
 157:Drivers/BSP/STM32746G-Discovery/stm32746g_discovery_sdram.c ****   /* SDRAM controller initialization */
 158:Drivers/BSP/STM32746G-Discovery/stm32746g_discovery_sdram.c **** 
 159:Drivers/BSP/STM32746G-Discovery/stm32746g_discovery_sdram.c ****   BSP_SDRAM_MspInit(&sdramHandle, NULL); /* __weak function can be rewritten by the application */
 160:Drivers/BSP/STM32746G-Discovery/stm32746g_discovery_sdram.c **** 
 161:Drivers/BSP/STM32746G-Discovery/stm32746g_discovery_sdram.c ****   if(HAL_SDRAM_Init(&sdramHandle, &Timing) != HAL_OK)
 162:Drivers/BSP/STM32746G-Discovery/stm32746g_discovery_sdram.c ****   {
 163:Drivers/BSP/STM32746G-Discovery/stm32746g_discovery_sdram.c ****     sdramstatus = SDRAM_ERROR;
 164:Drivers/BSP/STM32746G-Discovery/stm32746g_discovery_sdram.c ****   }
 165:Drivers/BSP/STM32746G-Discovery/stm32746g_discovery_sdram.c ****   else
 166:Drivers/BSP/STM32746G-Discovery/stm32746g_discovery_sdram.c ****   {
 167:Drivers/BSP/STM32746G-Discovery/stm32746g_discovery_sdram.c ****     sdramstatus = SDRAM_OK;
 168:Drivers/BSP/STM32746G-Discovery/stm32746g_discovery_sdram.c ****   }
 169:Drivers/BSP/STM32746G-Discovery/stm32746g_discovery_sdram.c ****   
 170:Drivers/BSP/STM32746G-Discovery/stm32746g_discovery_sdram.c ****   /* SDRAM initialization sequence */
 171:Drivers/BSP/STM32746G-Discovery/stm32746g_discovery_sdram.c ****   BSP_SDRAM_Initialization_sequence(REFRESH_COUNT);
 172:Drivers/BSP/STM32746G-Discovery/stm32746g_discovery_sdram.c ****   
 173:Drivers/BSP/STM32746G-Discovery/stm32746g_discovery_sdram.c ****   return sdramstatus;
 174:Drivers/BSP/STM32746G-Discovery/stm32746g_discovery_sdram.c **** }
 175:Drivers/BSP/STM32746G-Discovery/stm32746g_discovery_sdram.c **** 
 176:Drivers/BSP/STM32746G-Discovery/stm32746g_discovery_sdram.c **** /**
 177:Drivers/BSP/STM32746G-Discovery/stm32746g_discovery_sdram.c ****   * @brief  DeInitializes the SDRAM device.
 178:Drivers/BSP/STM32746G-Discovery/stm32746g_discovery_sdram.c ****   * @retval SDRAM status
 179:Drivers/BSP/STM32746G-Discovery/stm32746g_discovery_sdram.c ****   */
 180:Drivers/BSP/STM32746G-Discovery/stm32746g_discovery_sdram.c **** uint8_t BSP_SDRAM_DeInit(void)
 181:Drivers/BSP/STM32746G-Discovery/stm32746g_discovery_sdram.c **** { 
 182:Drivers/BSP/STM32746G-Discovery/stm32746g_discovery_sdram.c ****   static uint8_t sdramstatus = SDRAM_ERROR;
 183:Drivers/BSP/STM32746G-Discovery/stm32746g_discovery_sdram.c ****   /* SDRAM device de-initialization */
 184:Drivers/BSP/STM32746G-Discovery/stm32746g_discovery_sdram.c ****   sdramHandle.Instance = FMC_SDRAM_DEVICE;
 185:Drivers/BSP/STM32746G-Discovery/stm32746g_discovery_sdram.c **** 
 186:Drivers/BSP/STM32746G-Discovery/stm32746g_discovery_sdram.c ****   if(HAL_SDRAM_DeInit(&sdramHandle) != HAL_OK)
 187:Drivers/BSP/STM32746G-Discovery/stm32746g_discovery_sdram.c ****   {
 188:Drivers/BSP/STM32746G-Discovery/stm32746g_discovery_sdram.c ****     sdramstatus = SDRAM_ERROR;
 189:Drivers/BSP/STM32746G-Discovery/stm32746g_discovery_sdram.c ****   }
 190:Drivers/BSP/STM32746G-Discovery/stm32746g_discovery_sdram.c ****   else
 191:Drivers/BSP/STM32746G-Discovery/stm32746g_discovery_sdram.c ****   {
 192:Drivers/BSP/STM32746G-Discovery/stm32746g_discovery_sdram.c ****     sdramstatus = SDRAM_OK;
 193:Drivers/BSP/STM32746G-Discovery/stm32746g_discovery_sdram.c ****   }
 194:Drivers/BSP/STM32746G-Discovery/stm32746g_discovery_sdram.c ****   
 195:Drivers/BSP/STM32746G-Discovery/stm32746g_discovery_sdram.c ****   /* SDRAM controller de-initialization */
 196:Drivers/BSP/STM32746G-Discovery/stm32746g_discovery_sdram.c ****   BSP_SDRAM_MspDeInit(&sdramHandle, NULL);
 197:Drivers/BSP/STM32746G-Discovery/stm32746g_discovery_sdram.c ****   
 198:Drivers/BSP/STM32746G-Discovery/stm32746g_discovery_sdram.c ****   return sdramstatus;
 199:Drivers/BSP/STM32746G-Discovery/stm32746g_discovery_sdram.c **** }
 200:Drivers/BSP/STM32746G-Discovery/stm32746g_discovery_sdram.c **** 
ARM GAS  /tmp/cc0I35xZ.s 			page 5


 201:Drivers/BSP/STM32746G-Discovery/stm32746g_discovery_sdram.c **** /**
 202:Drivers/BSP/STM32746G-Discovery/stm32746g_discovery_sdram.c ****   * @brief  Programs the SDRAM device.
 203:Drivers/BSP/STM32746G-Discovery/stm32746g_discovery_sdram.c ****   * @param  RefreshCount: SDRAM refresh counter value 
 204:Drivers/BSP/STM32746G-Discovery/stm32746g_discovery_sdram.c ****   * @retval None
 205:Drivers/BSP/STM32746G-Discovery/stm32746g_discovery_sdram.c ****   */
 206:Drivers/BSP/STM32746G-Discovery/stm32746g_discovery_sdram.c **** void BSP_SDRAM_Initialization_sequence(uint32_t RefreshCount)
 207:Drivers/BSP/STM32746G-Discovery/stm32746g_discovery_sdram.c **** {
  30              		.loc 1 207 1 view -0
  31              		.cfi_startproc
  32              		@ args = 0, pretend = 0, frame = 8
  33              		@ frame_needed = 0, uses_anonymous_args = 0
  34              		.loc 1 207 1 is_stmt 0 view .LVU1
  35 0000 2DE9F043 		push	{r4, r5, r6, r7, r8, r9, lr}
  36              	.LCFI0:
  37              		.cfi_def_cfa_offset 28
  38              		.cfi_offset 4, -28
  39              		.cfi_offset 5, -24
  40              		.cfi_offset 6, -20
  41              		.cfi_offset 7, -16
  42              		.cfi_offset 8, -12
  43              		.cfi_offset 9, -8
  44              		.cfi_offset 14, -4
  45 0004 83B0     		sub	sp, sp, #12
  46              	.LCFI1:
  47              		.cfi_def_cfa_offset 40
  48 0006 8146     		mov	r9, r0
 208:Drivers/BSP/STM32746G-Discovery/stm32746g_discovery_sdram.c ****   __IO uint32_t tmpmrd = 0;
  49              		.loc 1 208 3 is_stmt 1 view .LVU2
  50              		.loc 1 208 17 is_stmt 0 view .LVU3
  51 0008 4FF00008 		mov	r8, #0
  52 000c CDF80480 		str	r8, [sp, #4]
 209:Drivers/BSP/STM32746G-Discovery/stm32746g_discovery_sdram.c ****   
 210:Drivers/BSP/STM32746G-Discovery/stm32746g_discovery_sdram.c ****   /* Step 1: Configure a clock configuration enable command */
 211:Drivers/BSP/STM32746G-Discovery/stm32746g_discovery_sdram.c ****   Command.CommandMode            = FMC_SDRAM_CMD_CLK_ENABLE;
  53              		.loc 1 211 3 is_stmt 1 view .LVU4
  54              		.loc 1 211 34 is_stmt 0 view .LVU5
  55 0010 204C     		ldr	r4, .L3
  56 0012 0126     		movs	r6, #1
  57 0014 2660     		str	r6, [r4]
 212:Drivers/BSP/STM32746G-Discovery/stm32746g_discovery_sdram.c ****   Command.CommandTarget          = FMC_SDRAM_CMD_TARGET_BANK1;
  58              		.loc 1 212 3 is_stmt 1 view .LVU6
  59              		.loc 1 212 34 is_stmt 0 view .LVU7
  60 0016 1027     		movs	r7, #16
  61 0018 6760     		str	r7, [r4, #4]
 213:Drivers/BSP/STM32746G-Discovery/stm32746g_discovery_sdram.c ****   Command.AutoRefreshNumber      = 1;
  62              		.loc 1 213 3 is_stmt 1 view .LVU8
  63              		.loc 1 213 34 is_stmt 0 view .LVU9
  64 001a A660     		str	r6, [r4, #8]
 214:Drivers/BSP/STM32746G-Discovery/stm32746g_discovery_sdram.c ****   Command.ModeRegisterDefinition = 0;
  65              		.loc 1 214 3 is_stmt 1 view .LVU10
  66              		.loc 1 214 34 is_stmt 0 view .LVU11
  67 001c C4F80C80 		str	r8, [r4, #12]
 215:Drivers/BSP/STM32746G-Discovery/stm32746g_discovery_sdram.c **** 
 216:Drivers/BSP/STM32746G-Discovery/stm32746g_discovery_sdram.c ****   /* Send the command */
 217:Drivers/BSP/STM32746G-Discovery/stm32746g_discovery_sdram.c ****   HAL_SDRAM_SendCommand(&sdramHandle, &Command, SDRAM_TIMEOUT);
  68              		.loc 1 217 3 is_stmt 1 view .LVU12
  69 0020 1D4D     		ldr	r5, .L3+4
ARM GAS  /tmp/cc0I35xZ.s 			page 6


  70 0022 4FF6FF72 		movw	r2, #65535
  71 0026 2146     		mov	r1, r4
  72 0028 2846     		mov	r0, r5
  73              	.LVL1:
  74              		.loc 1 217 3 is_stmt 0 view .LVU13
  75 002a FFF7FEFF 		bl	HAL_SDRAM_SendCommand
  76              	.LVL2:
 218:Drivers/BSP/STM32746G-Discovery/stm32746g_discovery_sdram.c **** 
 219:Drivers/BSP/STM32746G-Discovery/stm32746g_discovery_sdram.c ****   /* Step 2: Insert 100 us minimum delay */ 
 220:Drivers/BSP/STM32746G-Discovery/stm32746g_discovery_sdram.c ****   /* Inserted delay is equal to 1 ms due to systick time base unit (ms) */
 221:Drivers/BSP/STM32746G-Discovery/stm32746g_discovery_sdram.c ****   HAL_Delay(1);
  77              		.loc 1 221 3 is_stmt 1 view .LVU14
  78 002e 3046     		mov	r0, r6
  79 0030 FFF7FEFF 		bl	HAL_Delay
  80              	.LVL3:
 222:Drivers/BSP/STM32746G-Discovery/stm32746g_discovery_sdram.c ****     
 223:Drivers/BSP/STM32746G-Discovery/stm32746g_discovery_sdram.c ****   /* Step 3: Configure a PALL (precharge all) command */ 
 224:Drivers/BSP/STM32746G-Discovery/stm32746g_discovery_sdram.c ****   Command.CommandMode            = FMC_SDRAM_CMD_PALL;
  81              		.loc 1 224 3 view .LVU15
  82              		.loc 1 224 34 is_stmt 0 view .LVU16
  83 0034 0223     		movs	r3, #2
  84 0036 2360     		str	r3, [r4]
 225:Drivers/BSP/STM32746G-Discovery/stm32746g_discovery_sdram.c ****   Command.CommandTarget          = FMC_SDRAM_CMD_TARGET_BANK1;
  85              		.loc 1 225 3 is_stmt 1 view .LVU17
  86              		.loc 1 225 34 is_stmt 0 view .LVU18
  87 0038 6760     		str	r7, [r4, #4]
 226:Drivers/BSP/STM32746G-Discovery/stm32746g_discovery_sdram.c ****   Command.AutoRefreshNumber      = 1;
  88              		.loc 1 226 3 is_stmt 1 view .LVU19
  89              		.loc 1 226 34 is_stmt 0 view .LVU20
  90 003a A660     		str	r6, [r4, #8]
 227:Drivers/BSP/STM32746G-Discovery/stm32746g_discovery_sdram.c ****   Command.ModeRegisterDefinition = 0;
  91              		.loc 1 227 3 is_stmt 1 view .LVU21
  92              		.loc 1 227 34 is_stmt 0 view .LVU22
  93 003c C4F80C80 		str	r8, [r4, #12]
 228:Drivers/BSP/STM32746G-Discovery/stm32746g_discovery_sdram.c **** 
 229:Drivers/BSP/STM32746G-Discovery/stm32746g_discovery_sdram.c ****   /* Send the command */
 230:Drivers/BSP/STM32746G-Discovery/stm32746g_discovery_sdram.c ****   HAL_SDRAM_SendCommand(&sdramHandle, &Command, SDRAM_TIMEOUT);  
  94              		.loc 1 230 3 is_stmt 1 view .LVU23
  95 0040 4FF6FF72 		movw	r2, #65535
  96 0044 2146     		mov	r1, r4
  97 0046 2846     		mov	r0, r5
  98 0048 FFF7FEFF 		bl	HAL_SDRAM_SendCommand
  99              	.LVL4:
 231:Drivers/BSP/STM32746G-Discovery/stm32746g_discovery_sdram.c ****   
 232:Drivers/BSP/STM32746G-Discovery/stm32746g_discovery_sdram.c ****   /* Step 4: Configure an Auto Refresh command */ 
 233:Drivers/BSP/STM32746G-Discovery/stm32746g_discovery_sdram.c ****   Command.CommandMode            = FMC_SDRAM_CMD_AUTOREFRESH_MODE;
 100              		.loc 1 233 3 view .LVU24
 101              		.loc 1 233 34 is_stmt 0 view .LVU25
 102 004c 0323     		movs	r3, #3
 103 004e 2360     		str	r3, [r4]
 234:Drivers/BSP/STM32746G-Discovery/stm32746g_discovery_sdram.c ****   Command.CommandTarget          = FMC_SDRAM_CMD_TARGET_BANK1;
 104              		.loc 1 234 3 is_stmt 1 view .LVU26
 105              		.loc 1 234 34 is_stmt 0 view .LVU27
 106 0050 6760     		str	r7, [r4, #4]
 235:Drivers/BSP/STM32746G-Discovery/stm32746g_discovery_sdram.c ****   Command.AutoRefreshNumber      = 8;
 107              		.loc 1 235 3 is_stmt 1 view .LVU28
 108              		.loc 1 235 34 is_stmt 0 view .LVU29
ARM GAS  /tmp/cc0I35xZ.s 			page 7


 109 0052 0823     		movs	r3, #8
 110 0054 A360     		str	r3, [r4, #8]
 236:Drivers/BSP/STM32746G-Discovery/stm32746g_discovery_sdram.c ****   Command.ModeRegisterDefinition = 0;
 111              		.loc 1 236 3 is_stmt 1 view .LVU30
 112              		.loc 1 236 34 is_stmt 0 view .LVU31
 113 0056 C4F80C80 		str	r8, [r4, #12]
 237:Drivers/BSP/STM32746G-Discovery/stm32746g_discovery_sdram.c **** 
 238:Drivers/BSP/STM32746G-Discovery/stm32746g_discovery_sdram.c ****   /* Send the command */
 239:Drivers/BSP/STM32746G-Discovery/stm32746g_discovery_sdram.c ****   HAL_SDRAM_SendCommand(&sdramHandle, &Command, SDRAM_TIMEOUT);
 114              		.loc 1 239 3 is_stmt 1 view .LVU32
 115 005a 4FF6FF72 		movw	r2, #65535
 116 005e 2146     		mov	r1, r4
 117 0060 2846     		mov	r0, r5
 118 0062 FFF7FEFF 		bl	HAL_SDRAM_SendCommand
 119              	.LVL5:
 240:Drivers/BSP/STM32746G-Discovery/stm32746g_discovery_sdram.c ****   
 241:Drivers/BSP/STM32746G-Discovery/stm32746g_discovery_sdram.c ****   /* Step 5: Program the external memory mode register */
 242:Drivers/BSP/STM32746G-Discovery/stm32746g_discovery_sdram.c ****   tmpmrd = (uint32_t)SDRAM_MODEREG_BURST_LENGTH_1          |\
 120              		.loc 1 242 3 view .LVU33
 121              		.loc 1 242 10 is_stmt 0 view .LVU34
 122 0066 4FF40873 		mov	r3, #544
 123 006a 0193     		str	r3, [sp, #4]
 243:Drivers/BSP/STM32746G-Discovery/stm32746g_discovery_sdram.c ****                      SDRAM_MODEREG_BURST_TYPE_SEQUENTIAL   |\
 244:Drivers/BSP/STM32746G-Discovery/stm32746g_discovery_sdram.c ****                      SDRAM_MODEREG_CAS_LATENCY_2           |\
 245:Drivers/BSP/STM32746G-Discovery/stm32746g_discovery_sdram.c ****                      SDRAM_MODEREG_OPERATING_MODE_STANDARD |\
 246:Drivers/BSP/STM32746G-Discovery/stm32746g_discovery_sdram.c ****                      SDRAM_MODEREG_WRITEBURST_MODE_SINGLE;
 247:Drivers/BSP/STM32746G-Discovery/stm32746g_discovery_sdram.c ****   
 248:Drivers/BSP/STM32746G-Discovery/stm32746g_discovery_sdram.c ****   Command.CommandMode            = FMC_SDRAM_CMD_LOAD_MODE;
 124              		.loc 1 248 3 is_stmt 1 view .LVU35
 125              		.loc 1 248 34 is_stmt 0 view .LVU36
 126 006c 0423     		movs	r3, #4
 127 006e 2360     		str	r3, [r4]
 249:Drivers/BSP/STM32746G-Discovery/stm32746g_discovery_sdram.c ****   Command.CommandTarget          = FMC_SDRAM_CMD_TARGET_BANK1;
 128              		.loc 1 249 3 is_stmt 1 view .LVU37
 129              		.loc 1 249 34 is_stmt 0 view .LVU38
 130 0070 6760     		str	r7, [r4, #4]
 250:Drivers/BSP/STM32746G-Discovery/stm32746g_discovery_sdram.c ****   Command.AutoRefreshNumber      = 1;
 131              		.loc 1 250 3 is_stmt 1 view .LVU39
 132              		.loc 1 250 34 is_stmt 0 view .LVU40
 133 0072 A660     		str	r6, [r4, #8]
 251:Drivers/BSP/STM32746G-Discovery/stm32746g_discovery_sdram.c ****   Command.ModeRegisterDefinition = tmpmrd;
 134              		.loc 1 251 3 is_stmt 1 view .LVU41
 135              		.loc 1 251 34 is_stmt 0 view .LVU42
 136 0074 019B     		ldr	r3, [sp, #4]
 137 0076 E360     		str	r3, [r4, #12]
 252:Drivers/BSP/STM32746G-Discovery/stm32746g_discovery_sdram.c **** 
 253:Drivers/BSP/STM32746G-Discovery/stm32746g_discovery_sdram.c ****   /* Send the command */
 254:Drivers/BSP/STM32746G-Discovery/stm32746g_discovery_sdram.c ****   HAL_SDRAM_SendCommand(&sdramHandle, &Command, SDRAM_TIMEOUT);
 138              		.loc 1 254 3 is_stmt 1 view .LVU43
 139 0078 4FF6FF72 		movw	r2, #65535
 140 007c 2146     		mov	r1, r4
 141 007e 2846     		mov	r0, r5
 142 0080 FFF7FEFF 		bl	HAL_SDRAM_SendCommand
 143              	.LVL6:
 255:Drivers/BSP/STM32746G-Discovery/stm32746g_discovery_sdram.c ****   
 256:Drivers/BSP/STM32746G-Discovery/stm32746g_discovery_sdram.c ****   /* Step 6: Set the refresh rate counter */
 257:Drivers/BSP/STM32746G-Discovery/stm32746g_discovery_sdram.c ****   /* Set the device refresh rate */
ARM GAS  /tmp/cc0I35xZ.s 			page 8


 258:Drivers/BSP/STM32746G-Discovery/stm32746g_discovery_sdram.c ****   HAL_SDRAM_ProgramRefreshRate(&sdramHandle, RefreshCount); 
 144              		.loc 1 258 3 view .LVU44
 145 0084 4946     		mov	r1, r9
 146 0086 2846     		mov	r0, r5
 147 0088 FFF7FEFF 		bl	HAL_SDRAM_ProgramRefreshRate
 148              	.LVL7:
 259:Drivers/BSP/STM32746G-Discovery/stm32746g_discovery_sdram.c **** }
 149              		.loc 1 259 1 is_stmt 0 view .LVU45
 150 008c 03B0     		add	sp, sp, #12
 151              	.LCFI2:
 152              		.cfi_def_cfa_offset 28
 153              		@ sp needed
 154 008e BDE8F083 		pop	{r4, r5, r6, r7, r8, r9, pc}
 155              	.LVL8:
 156              	.L4:
 157              		.loc 1 259 1 view .LVU46
 158 0092 00BF     		.align	2
 159              	.L3:
 160 0094 00000000 		.word	Command
 161 0098 00000000 		.word	sdramHandle
 162              		.cfi_endproc
 163              	.LFE143:
 165              		.section	.text.BSP_SDRAM_ReadData,"ax",%progbits
 166              		.align	1
 167              		.global	BSP_SDRAM_ReadData
 168              		.syntax unified
 169              		.thumb
 170              		.thumb_func
 172              	BSP_SDRAM_ReadData:
 173              	.LVL9:
 174              	.LFB144:
 260:Drivers/BSP/STM32746G-Discovery/stm32746g_discovery_sdram.c **** 
 261:Drivers/BSP/STM32746G-Discovery/stm32746g_discovery_sdram.c **** /**
 262:Drivers/BSP/STM32746G-Discovery/stm32746g_discovery_sdram.c ****   * @brief  Reads an amount of data from the SDRAM memory in polling mode.
 263:Drivers/BSP/STM32746G-Discovery/stm32746g_discovery_sdram.c ****   * @param  uwStartAddress: Read start address
 264:Drivers/BSP/STM32746G-Discovery/stm32746g_discovery_sdram.c ****   * @param  pData: Pointer to data to be read  
 265:Drivers/BSP/STM32746G-Discovery/stm32746g_discovery_sdram.c ****   * @param  uwDataSize: Size of read data from the memory
 266:Drivers/BSP/STM32746G-Discovery/stm32746g_discovery_sdram.c ****   * @retval SDRAM status
 267:Drivers/BSP/STM32746G-Discovery/stm32746g_discovery_sdram.c ****   */
 268:Drivers/BSP/STM32746G-Discovery/stm32746g_discovery_sdram.c **** uint8_t BSP_SDRAM_ReadData(uint32_t uwStartAddress, uint32_t *pData, uint32_t uwDataSize)
 269:Drivers/BSP/STM32746G-Discovery/stm32746g_discovery_sdram.c **** {
 175              		.loc 1 269 1 is_stmt 1 view -0
 176              		.cfi_startproc
 177              		@ args = 0, pretend = 0, frame = 0
 178              		@ frame_needed = 0, uses_anonymous_args = 0
 179              		.loc 1 269 1 is_stmt 0 view .LVU48
 180 0000 08B5     		push	{r3, lr}
 181              	.LCFI3:
 182              		.cfi_def_cfa_offset 8
 183              		.cfi_offset 3, -8
 184              		.cfi_offset 14, -4
 185 0002 1346     		mov	r3, r2
 270:Drivers/BSP/STM32746G-Discovery/stm32746g_discovery_sdram.c ****   if(HAL_SDRAM_Read_32b(&sdramHandle, (uint32_t *)uwStartAddress, pData, uwDataSize) != HAL_OK)
 186              		.loc 1 270 3 is_stmt 1 view .LVU49
 187              		.loc 1 270 6 is_stmt 0 view .LVU50
 188 0004 0A46     		mov	r2, r1
 189              	.LVL10:
ARM GAS  /tmp/cc0I35xZ.s 			page 9


 190              		.loc 1 270 6 view .LVU51
 191 0006 0146     		mov	r1, r0
 192              	.LVL11:
 193              		.loc 1 270 6 view .LVU52
 194 0008 0248     		ldr	r0, .L8
 195              	.LVL12:
 196              		.loc 1 270 6 view .LVU53
 197 000a FFF7FEFF 		bl	HAL_SDRAM_Read_32b
 198              	.LVL13:
 199              		.loc 1 270 5 discriminator 1 view .LVU54
 200 000e 00B1     		cbz	r0, .L6
 271:Drivers/BSP/STM32746G-Discovery/stm32746g_discovery_sdram.c ****   {
 272:Drivers/BSP/STM32746G-Discovery/stm32746g_discovery_sdram.c ****     return SDRAM_ERROR;
 201              		.loc 1 272 12 view .LVU55
 202 0010 0120     		movs	r0, #1
 203              	.L6:
 273:Drivers/BSP/STM32746G-Discovery/stm32746g_discovery_sdram.c ****   }
 274:Drivers/BSP/STM32746G-Discovery/stm32746g_discovery_sdram.c ****   else
 275:Drivers/BSP/STM32746G-Discovery/stm32746g_discovery_sdram.c ****   {
 276:Drivers/BSP/STM32746G-Discovery/stm32746g_discovery_sdram.c ****     return SDRAM_OK;
 277:Drivers/BSP/STM32746G-Discovery/stm32746g_discovery_sdram.c ****   } 
 278:Drivers/BSP/STM32746G-Discovery/stm32746g_discovery_sdram.c **** }
 204              		.loc 1 278 1 view .LVU56
 205 0012 08BD     		pop	{r3, pc}
 206              	.L9:
 207              		.align	2
 208              	.L8:
 209 0014 00000000 		.word	sdramHandle
 210              		.cfi_endproc
 211              	.LFE144:
 213              		.section	.text.BSP_SDRAM_ReadData_DMA,"ax",%progbits
 214              		.align	1
 215              		.global	BSP_SDRAM_ReadData_DMA
 216              		.syntax unified
 217              		.thumb
 218              		.thumb_func
 220              	BSP_SDRAM_ReadData_DMA:
 221              	.LVL14:
 222              	.LFB145:
 279:Drivers/BSP/STM32746G-Discovery/stm32746g_discovery_sdram.c **** 
 280:Drivers/BSP/STM32746G-Discovery/stm32746g_discovery_sdram.c **** /**
 281:Drivers/BSP/STM32746G-Discovery/stm32746g_discovery_sdram.c ****   * @brief  Reads an amount of data from the SDRAM memory in DMA mode.
 282:Drivers/BSP/STM32746G-Discovery/stm32746g_discovery_sdram.c ****   * @param  uwStartAddress: Read start address
 283:Drivers/BSP/STM32746G-Discovery/stm32746g_discovery_sdram.c ****   * @param  pData: Pointer to data to be read  
 284:Drivers/BSP/STM32746G-Discovery/stm32746g_discovery_sdram.c ****   * @param  uwDataSize: Size of read data from the memory
 285:Drivers/BSP/STM32746G-Discovery/stm32746g_discovery_sdram.c ****   * @retval SDRAM status
 286:Drivers/BSP/STM32746G-Discovery/stm32746g_discovery_sdram.c ****   */
 287:Drivers/BSP/STM32746G-Discovery/stm32746g_discovery_sdram.c **** uint8_t BSP_SDRAM_ReadData_DMA(uint32_t uwStartAddress, uint32_t *pData, uint32_t uwDataSize)
 288:Drivers/BSP/STM32746G-Discovery/stm32746g_discovery_sdram.c **** {
 223              		.loc 1 288 1 is_stmt 1 view -0
 224              		.cfi_startproc
 225              		@ args = 0, pretend = 0, frame = 0
 226              		@ frame_needed = 0, uses_anonymous_args = 0
 227              		.loc 1 288 1 is_stmt 0 view .LVU58
 228 0000 08B5     		push	{r3, lr}
 229              	.LCFI4:
 230              		.cfi_def_cfa_offset 8
ARM GAS  /tmp/cc0I35xZ.s 			page 10


 231              		.cfi_offset 3, -8
 232              		.cfi_offset 14, -4
 233 0002 1346     		mov	r3, r2
 289:Drivers/BSP/STM32746G-Discovery/stm32746g_discovery_sdram.c ****   if(HAL_SDRAM_Read_DMA(&sdramHandle, (uint32_t *)uwStartAddress, pData, uwDataSize) != HAL_OK)
 234              		.loc 1 289 3 is_stmt 1 view .LVU59
 235              		.loc 1 289 6 is_stmt 0 view .LVU60
 236 0004 0A46     		mov	r2, r1
 237              	.LVL15:
 238              		.loc 1 289 6 view .LVU61
 239 0006 0146     		mov	r1, r0
 240              	.LVL16:
 241              		.loc 1 289 6 view .LVU62
 242 0008 0248     		ldr	r0, .L13
 243              	.LVL17:
 244              		.loc 1 289 6 view .LVU63
 245 000a FFF7FEFF 		bl	HAL_SDRAM_Read_DMA
 246              	.LVL18:
 247              		.loc 1 289 5 discriminator 1 view .LVU64
 248 000e 00B1     		cbz	r0, .L11
 290:Drivers/BSP/STM32746G-Discovery/stm32746g_discovery_sdram.c ****   {
 291:Drivers/BSP/STM32746G-Discovery/stm32746g_discovery_sdram.c ****     return SDRAM_ERROR;
 249              		.loc 1 291 12 view .LVU65
 250 0010 0120     		movs	r0, #1
 251              	.L11:
 292:Drivers/BSP/STM32746G-Discovery/stm32746g_discovery_sdram.c ****   }
 293:Drivers/BSP/STM32746G-Discovery/stm32746g_discovery_sdram.c ****   else
 294:Drivers/BSP/STM32746G-Discovery/stm32746g_discovery_sdram.c ****   {
 295:Drivers/BSP/STM32746G-Discovery/stm32746g_discovery_sdram.c ****     return SDRAM_OK;
 296:Drivers/BSP/STM32746G-Discovery/stm32746g_discovery_sdram.c ****   }     
 297:Drivers/BSP/STM32746G-Discovery/stm32746g_discovery_sdram.c **** }
 252              		.loc 1 297 1 view .LVU66
 253 0012 08BD     		pop	{r3, pc}
 254              	.L14:
 255              		.align	2
 256              	.L13:
 257 0014 00000000 		.word	sdramHandle
 258              		.cfi_endproc
 259              	.LFE145:
 261              		.section	.text.BSP_SDRAM_WriteData,"ax",%progbits
 262              		.align	1
 263              		.global	BSP_SDRAM_WriteData
 264              		.syntax unified
 265              		.thumb
 266              		.thumb_func
 268              	BSP_SDRAM_WriteData:
 269              	.LVL19:
 270              	.LFB146:
 298:Drivers/BSP/STM32746G-Discovery/stm32746g_discovery_sdram.c **** 
 299:Drivers/BSP/STM32746G-Discovery/stm32746g_discovery_sdram.c **** /**
 300:Drivers/BSP/STM32746G-Discovery/stm32746g_discovery_sdram.c ****   * @brief  Writes an amount of data to the SDRAM memory in polling mode.
 301:Drivers/BSP/STM32746G-Discovery/stm32746g_discovery_sdram.c ****   * @param  uwStartAddress: Write start address
 302:Drivers/BSP/STM32746G-Discovery/stm32746g_discovery_sdram.c ****   * @param  pData: Pointer to data to be written  
 303:Drivers/BSP/STM32746G-Discovery/stm32746g_discovery_sdram.c ****   * @param  uwDataSize: Size of written data from the memory
 304:Drivers/BSP/STM32746G-Discovery/stm32746g_discovery_sdram.c ****   * @retval SDRAM status
 305:Drivers/BSP/STM32746G-Discovery/stm32746g_discovery_sdram.c ****   */
 306:Drivers/BSP/STM32746G-Discovery/stm32746g_discovery_sdram.c **** uint8_t BSP_SDRAM_WriteData(uint32_t uwStartAddress, uint32_t *pData, uint32_t uwDataSize) 
 307:Drivers/BSP/STM32746G-Discovery/stm32746g_discovery_sdram.c **** {
ARM GAS  /tmp/cc0I35xZ.s 			page 11


 271              		.loc 1 307 1 is_stmt 1 view -0
 272              		.cfi_startproc
 273              		@ args = 0, pretend = 0, frame = 0
 274              		@ frame_needed = 0, uses_anonymous_args = 0
 275              		.loc 1 307 1 is_stmt 0 view .LVU68
 276 0000 08B5     		push	{r3, lr}
 277              	.LCFI5:
 278              		.cfi_def_cfa_offset 8
 279              		.cfi_offset 3, -8
 280              		.cfi_offset 14, -4
 281 0002 1346     		mov	r3, r2
 308:Drivers/BSP/STM32746G-Discovery/stm32746g_discovery_sdram.c ****   if(HAL_SDRAM_Write_32b(&sdramHandle, (uint32_t *)uwStartAddress, pData, uwDataSize) != HAL_OK)
 282              		.loc 1 308 3 is_stmt 1 view .LVU69
 283              		.loc 1 308 6 is_stmt 0 view .LVU70
 284 0004 0A46     		mov	r2, r1
 285              	.LVL20:
 286              		.loc 1 308 6 view .LVU71
 287 0006 0146     		mov	r1, r0
 288              	.LVL21:
 289              		.loc 1 308 6 view .LVU72
 290 0008 0248     		ldr	r0, .L18
 291              	.LVL22:
 292              		.loc 1 308 6 view .LVU73
 293 000a FFF7FEFF 		bl	HAL_SDRAM_Write_32b
 294              	.LVL23:
 295              		.loc 1 308 5 discriminator 1 view .LVU74
 296 000e 00B1     		cbz	r0, .L16
 309:Drivers/BSP/STM32746G-Discovery/stm32746g_discovery_sdram.c ****   {
 310:Drivers/BSP/STM32746G-Discovery/stm32746g_discovery_sdram.c ****     return SDRAM_ERROR;
 297              		.loc 1 310 12 view .LVU75
 298 0010 0120     		movs	r0, #1
 299              	.L16:
 311:Drivers/BSP/STM32746G-Discovery/stm32746g_discovery_sdram.c ****   }
 312:Drivers/BSP/STM32746G-Discovery/stm32746g_discovery_sdram.c ****   else
 313:Drivers/BSP/STM32746G-Discovery/stm32746g_discovery_sdram.c ****   {
 314:Drivers/BSP/STM32746G-Discovery/stm32746g_discovery_sdram.c ****     return SDRAM_OK;
 315:Drivers/BSP/STM32746G-Discovery/stm32746g_discovery_sdram.c ****   }
 316:Drivers/BSP/STM32746G-Discovery/stm32746g_discovery_sdram.c **** }
 300              		.loc 1 316 1 view .LVU76
 301 0012 08BD     		pop	{r3, pc}
 302              	.L19:
 303              		.align	2
 304              	.L18:
 305 0014 00000000 		.word	sdramHandle
 306              		.cfi_endproc
 307              	.LFE146:
 309              		.section	.text.BSP_SDRAM_WriteData_DMA,"ax",%progbits
 310              		.align	1
 311              		.global	BSP_SDRAM_WriteData_DMA
 312              		.syntax unified
 313              		.thumb
 314              		.thumb_func
 316              	BSP_SDRAM_WriteData_DMA:
 317              	.LVL24:
 318              	.LFB147:
 317:Drivers/BSP/STM32746G-Discovery/stm32746g_discovery_sdram.c **** 
 318:Drivers/BSP/STM32746G-Discovery/stm32746g_discovery_sdram.c **** /**
ARM GAS  /tmp/cc0I35xZ.s 			page 12


 319:Drivers/BSP/STM32746G-Discovery/stm32746g_discovery_sdram.c ****   * @brief  Writes an amount of data to the SDRAM memory in DMA mode.
 320:Drivers/BSP/STM32746G-Discovery/stm32746g_discovery_sdram.c ****   * @param  uwStartAddress: Write start address
 321:Drivers/BSP/STM32746G-Discovery/stm32746g_discovery_sdram.c ****   * @param  pData: Pointer to data to be written  
 322:Drivers/BSP/STM32746G-Discovery/stm32746g_discovery_sdram.c ****   * @param  uwDataSize: Size of written data from the memory
 323:Drivers/BSP/STM32746G-Discovery/stm32746g_discovery_sdram.c ****   * @retval SDRAM status
 324:Drivers/BSP/STM32746G-Discovery/stm32746g_discovery_sdram.c ****   */
 325:Drivers/BSP/STM32746G-Discovery/stm32746g_discovery_sdram.c **** uint8_t BSP_SDRAM_WriteData_DMA(uint32_t uwStartAddress, uint32_t *pData, uint32_t uwDataSize) 
 326:Drivers/BSP/STM32746G-Discovery/stm32746g_discovery_sdram.c **** {
 319              		.loc 1 326 1 is_stmt 1 view -0
 320              		.cfi_startproc
 321              		@ args = 0, pretend = 0, frame = 0
 322              		@ frame_needed = 0, uses_anonymous_args = 0
 323              		.loc 1 326 1 is_stmt 0 view .LVU78
 324 0000 08B5     		push	{r3, lr}
 325              	.LCFI6:
 326              		.cfi_def_cfa_offset 8
 327              		.cfi_offset 3, -8
 328              		.cfi_offset 14, -4
 329 0002 1346     		mov	r3, r2
 327:Drivers/BSP/STM32746G-Discovery/stm32746g_discovery_sdram.c ****   if(HAL_SDRAM_Write_DMA(&sdramHandle, (uint32_t *)uwStartAddress, pData, uwDataSize) != HAL_OK)
 330              		.loc 1 327 3 is_stmt 1 view .LVU79
 331              		.loc 1 327 6 is_stmt 0 view .LVU80
 332 0004 0A46     		mov	r2, r1
 333              	.LVL25:
 334              		.loc 1 327 6 view .LVU81
 335 0006 0146     		mov	r1, r0
 336              	.LVL26:
 337              		.loc 1 327 6 view .LVU82
 338 0008 0248     		ldr	r0, .L23
 339              	.LVL27:
 340              		.loc 1 327 6 view .LVU83
 341 000a FFF7FEFF 		bl	HAL_SDRAM_Write_DMA
 342              	.LVL28:
 343              		.loc 1 327 5 discriminator 1 view .LVU84
 344 000e 00B1     		cbz	r0, .L21
 328:Drivers/BSP/STM32746G-Discovery/stm32746g_discovery_sdram.c ****   {
 329:Drivers/BSP/STM32746G-Discovery/stm32746g_discovery_sdram.c ****     return SDRAM_ERROR;
 345              		.loc 1 329 12 view .LVU85
 346 0010 0120     		movs	r0, #1
 347              	.L21:
 330:Drivers/BSP/STM32746G-Discovery/stm32746g_discovery_sdram.c ****   }
 331:Drivers/BSP/STM32746G-Discovery/stm32746g_discovery_sdram.c ****   else
 332:Drivers/BSP/STM32746G-Discovery/stm32746g_discovery_sdram.c ****   {
 333:Drivers/BSP/STM32746G-Discovery/stm32746g_discovery_sdram.c ****     return SDRAM_OK;
 334:Drivers/BSP/STM32746G-Discovery/stm32746g_discovery_sdram.c ****   } 
 335:Drivers/BSP/STM32746G-Discovery/stm32746g_discovery_sdram.c **** }
 348              		.loc 1 335 1 view .LVU86
 349 0012 08BD     		pop	{r3, pc}
 350              	.L24:
 351              		.align	2
 352              	.L23:
 353 0014 00000000 		.word	sdramHandle
 354              		.cfi_endproc
 355              	.LFE147:
 357              		.section	.text.BSP_SDRAM_Sendcmd,"ax",%progbits
 358              		.align	1
 359              		.global	BSP_SDRAM_Sendcmd
ARM GAS  /tmp/cc0I35xZ.s 			page 13


 360              		.syntax unified
 361              		.thumb
 362              		.thumb_func
 364              	BSP_SDRAM_Sendcmd:
 365              	.LVL29:
 366              	.LFB148:
 336:Drivers/BSP/STM32746G-Discovery/stm32746g_discovery_sdram.c **** 
 337:Drivers/BSP/STM32746G-Discovery/stm32746g_discovery_sdram.c **** /**
 338:Drivers/BSP/STM32746G-Discovery/stm32746g_discovery_sdram.c ****   * @brief  Sends command to the SDRAM bank.
 339:Drivers/BSP/STM32746G-Discovery/stm32746g_discovery_sdram.c ****   * @param  SdramCmd: Pointer to SDRAM command structure 
 340:Drivers/BSP/STM32746G-Discovery/stm32746g_discovery_sdram.c ****   * @retval SDRAM status
 341:Drivers/BSP/STM32746G-Discovery/stm32746g_discovery_sdram.c ****   */  
 342:Drivers/BSP/STM32746G-Discovery/stm32746g_discovery_sdram.c **** uint8_t BSP_SDRAM_Sendcmd(FMC_SDRAM_CommandTypeDef *SdramCmd)
 343:Drivers/BSP/STM32746G-Discovery/stm32746g_discovery_sdram.c **** {
 367              		.loc 1 343 1 is_stmt 1 view -0
 368              		.cfi_startproc
 369              		@ args = 0, pretend = 0, frame = 0
 370              		@ frame_needed = 0, uses_anonymous_args = 0
 371              		.loc 1 343 1 is_stmt 0 view .LVU88
 372 0000 08B5     		push	{r3, lr}
 373              	.LCFI7:
 374              		.cfi_def_cfa_offset 8
 375              		.cfi_offset 3, -8
 376              		.cfi_offset 14, -4
 377 0002 0146     		mov	r1, r0
 344:Drivers/BSP/STM32746G-Discovery/stm32746g_discovery_sdram.c ****   if(HAL_SDRAM_SendCommand(&sdramHandle, SdramCmd, SDRAM_TIMEOUT) != HAL_OK)
 378              		.loc 1 344 3 is_stmt 1 view .LVU89
 379              		.loc 1 344 6 is_stmt 0 view .LVU90
 380 0004 4FF6FF72 		movw	r2, #65535
 381 0008 0248     		ldr	r0, .L28
 382              	.LVL30:
 383              		.loc 1 344 6 view .LVU91
 384 000a FFF7FEFF 		bl	HAL_SDRAM_SendCommand
 385              	.LVL31:
 386              		.loc 1 344 5 discriminator 1 view .LVU92
 387 000e 00B1     		cbz	r0, .L26
 345:Drivers/BSP/STM32746G-Discovery/stm32746g_discovery_sdram.c ****   {
 346:Drivers/BSP/STM32746G-Discovery/stm32746g_discovery_sdram.c ****     return SDRAM_ERROR;
 388              		.loc 1 346 12 view .LVU93
 389 0010 0120     		movs	r0, #1
 390              	.L26:
 347:Drivers/BSP/STM32746G-Discovery/stm32746g_discovery_sdram.c ****   }
 348:Drivers/BSP/STM32746G-Discovery/stm32746g_discovery_sdram.c ****   else
 349:Drivers/BSP/STM32746G-Discovery/stm32746g_discovery_sdram.c ****   {
 350:Drivers/BSP/STM32746G-Discovery/stm32746g_discovery_sdram.c ****     return SDRAM_OK;
 351:Drivers/BSP/STM32746G-Discovery/stm32746g_discovery_sdram.c ****   }
 352:Drivers/BSP/STM32746G-Discovery/stm32746g_discovery_sdram.c **** }
 391              		.loc 1 352 1 view .LVU94
 392 0012 08BD     		pop	{r3, pc}
 393              	.L29:
 394              		.align	2
 395              	.L28:
 396 0014 00000000 		.word	sdramHandle
 397              		.cfi_endproc
 398              	.LFE148:
 400              		.section	.text.BSP_SDRAM_MspInit,"ax",%progbits
 401              		.align	1
ARM GAS  /tmp/cc0I35xZ.s 			page 14


 402              		.weak	BSP_SDRAM_MspInit
 403              		.syntax unified
 404              		.thumb
 405              		.thumb_func
 407              	BSP_SDRAM_MspInit:
 408              	.LVL32:
 409              	.LFB149:
 353:Drivers/BSP/STM32746G-Discovery/stm32746g_discovery_sdram.c **** 
 354:Drivers/BSP/STM32746G-Discovery/stm32746g_discovery_sdram.c **** /**
 355:Drivers/BSP/STM32746G-Discovery/stm32746g_discovery_sdram.c ****   * @brief  Initializes SDRAM MSP.
 356:Drivers/BSP/STM32746G-Discovery/stm32746g_discovery_sdram.c ****   * @param  hsdram: SDRAM handle
 357:Drivers/BSP/STM32746G-Discovery/stm32746g_discovery_sdram.c ****   * @param  Params
 358:Drivers/BSP/STM32746G-Discovery/stm32746g_discovery_sdram.c ****   * @retval None
 359:Drivers/BSP/STM32746G-Discovery/stm32746g_discovery_sdram.c ****   */
 360:Drivers/BSP/STM32746G-Discovery/stm32746g_discovery_sdram.c **** __weak void BSP_SDRAM_MspInit(SDRAM_HandleTypeDef  *hsdram, void *Params)
 361:Drivers/BSP/STM32746G-Discovery/stm32746g_discovery_sdram.c **** {  
 410              		.loc 1 361 1 is_stmt 1 view -0
 411              		.cfi_startproc
 412              		@ args = 0, pretend = 0, frame = 56
 413              		@ frame_needed = 0, uses_anonymous_args = 0
 414              		.loc 1 361 1 is_stmt 0 view .LVU96
 415 0000 70B5     		push	{r4, r5, r6, lr}
 416              	.LCFI8:
 417              		.cfi_def_cfa_offset 16
 418              		.cfi_offset 4, -16
 419              		.cfi_offset 5, -12
 420              		.cfi_offset 6, -8
 421              		.cfi_offset 14, -4
 422 0002 8EB0     		sub	sp, sp, #56
 423              	.LCFI9:
 424              		.cfi_def_cfa_offset 72
 425 0004 0646     		mov	r6, r0
 362:Drivers/BSP/STM32746G-Discovery/stm32746g_discovery_sdram.c ****   static DMA_HandleTypeDef dma_handle;
 426              		.loc 1 362 3 is_stmt 1 view .LVU97
 363:Drivers/BSP/STM32746G-Discovery/stm32746g_discovery_sdram.c ****   GPIO_InitTypeDef gpio_init_structure;
 427              		.loc 1 363 3 view .LVU98
 364:Drivers/BSP/STM32746G-Discovery/stm32746g_discovery_sdram.c ****   
 365:Drivers/BSP/STM32746G-Discovery/stm32746g_discovery_sdram.c ****   /* Enable FMC clock */
 366:Drivers/BSP/STM32746G-Discovery/stm32746g_discovery_sdram.c ****   __HAL_RCC_FMC_CLK_ENABLE();
 428              		.loc 1 366 3 view .LVU99
 429              	.LBB2:
 430              		.loc 1 366 3 view .LVU100
 431              		.loc 1 366 3 view .LVU101
 432 0006 534B     		ldr	r3, .L32
 433 0008 9A6B     		ldr	r2, [r3, #56]
 434 000a 42F00102 		orr	r2, r2, #1
 435 000e 9A63     		str	r2, [r3, #56]
 436              		.loc 1 366 3 view .LVU102
 437 0010 9A6B     		ldr	r2, [r3, #56]
 438 0012 02F00102 		and	r2, r2, #1
 439 0016 0192     		str	r2, [sp, #4]
 440              		.loc 1 366 3 view .LVU103
 441 0018 019A     		ldr	r2, [sp, #4]
 442              	.LBE2:
 443              		.loc 1 366 3 view .LVU104
 367:Drivers/BSP/STM32746G-Discovery/stm32746g_discovery_sdram.c ****   
 368:Drivers/BSP/STM32746G-Discovery/stm32746g_discovery_sdram.c ****   /* Enable chosen DMAx clock */
ARM GAS  /tmp/cc0I35xZ.s 			page 15


 369:Drivers/BSP/STM32746G-Discovery/stm32746g_discovery_sdram.c ****   __DMAx_CLK_ENABLE();
 444              		.loc 1 369 3 view .LVU105
 445              	.LBB3:
 446              		.loc 1 369 3 view .LVU106
 447              		.loc 1 369 3 view .LVU107
 448 001a 1A6B     		ldr	r2, [r3, #48]
 449 001c 42F48002 		orr	r2, r2, #4194304
 450 0020 1A63     		str	r2, [r3, #48]
 451              		.loc 1 369 3 view .LVU108
 452 0022 1A6B     		ldr	r2, [r3, #48]
 453 0024 02F48002 		and	r2, r2, #4194304
 454 0028 0292     		str	r2, [sp, #8]
 455              		.loc 1 369 3 view .LVU109
 456 002a 029A     		ldr	r2, [sp, #8]
 457              	.LBE3:
 458              		.loc 1 369 3 view .LVU110
 370:Drivers/BSP/STM32746G-Discovery/stm32746g_discovery_sdram.c **** 
 371:Drivers/BSP/STM32746G-Discovery/stm32746g_discovery_sdram.c ****   /* Enable GPIOs clock */
 372:Drivers/BSP/STM32746G-Discovery/stm32746g_discovery_sdram.c ****   __HAL_RCC_GPIOC_CLK_ENABLE();
 459              		.loc 1 372 3 view .LVU111
 460              	.LBB4:
 461              		.loc 1 372 3 view .LVU112
 462              		.loc 1 372 3 view .LVU113
 463 002c 1A6B     		ldr	r2, [r3, #48]
 464 002e 42F00402 		orr	r2, r2, #4
 465 0032 1A63     		str	r2, [r3, #48]
 466              		.loc 1 372 3 view .LVU114
 467 0034 1A6B     		ldr	r2, [r3, #48]
 468 0036 02F00402 		and	r2, r2, #4
 469 003a 0392     		str	r2, [sp, #12]
 470              		.loc 1 372 3 view .LVU115
 471 003c 039A     		ldr	r2, [sp, #12]
 472              	.LBE4:
 473              		.loc 1 372 3 view .LVU116
 373:Drivers/BSP/STM32746G-Discovery/stm32746g_discovery_sdram.c ****   __HAL_RCC_GPIOD_CLK_ENABLE();
 474              		.loc 1 373 3 view .LVU117
 475              	.LBB5:
 476              		.loc 1 373 3 view .LVU118
 477              		.loc 1 373 3 view .LVU119
 478 003e 1A6B     		ldr	r2, [r3, #48]
 479 0040 42F00802 		orr	r2, r2, #8
 480 0044 1A63     		str	r2, [r3, #48]
 481              		.loc 1 373 3 view .LVU120
 482 0046 1A6B     		ldr	r2, [r3, #48]
 483 0048 02F00802 		and	r2, r2, #8
 484 004c 0492     		str	r2, [sp, #16]
 485              		.loc 1 373 3 view .LVU121
 486 004e 049A     		ldr	r2, [sp, #16]
 487              	.LBE5:
 488              		.loc 1 373 3 view .LVU122
 374:Drivers/BSP/STM32746G-Discovery/stm32746g_discovery_sdram.c ****   __HAL_RCC_GPIOE_CLK_ENABLE();
 489              		.loc 1 374 3 view .LVU123
 490              	.LBB6:
 491              		.loc 1 374 3 view .LVU124
 492              		.loc 1 374 3 view .LVU125
 493 0050 1A6B     		ldr	r2, [r3, #48]
 494 0052 42F01002 		orr	r2, r2, #16
ARM GAS  /tmp/cc0I35xZ.s 			page 16


 495 0056 1A63     		str	r2, [r3, #48]
 496              		.loc 1 374 3 view .LVU126
 497 0058 1A6B     		ldr	r2, [r3, #48]
 498 005a 02F01002 		and	r2, r2, #16
 499 005e 0592     		str	r2, [sp, #20]
 500              		.loc 1 374 3 view .LVU127
 501 0060 059A     		ldr	r2, [sp, #20]
 502              	.LBE6:
 503              		.loc 1 374 3 view .LVU128
 375:Drivers/BSP/STM32746G-Discovery/stm32746g_discovery_sdram.c ****   __HAL_RCC_GPIOF_CLK_ENABLE();
 504              		.loc 1 375 3 view .LVU129
 505              	.LBB7:
 506              		.loc 1 375 3 view .LVU130
 507              		.loc 1 375 3 view .LVU131
 508 0062 1A6B     		ldr	r2, [r3, #48]
 509 0064 42F02002 		orr	r2, r2, #32
 510 0068 1A63     		str	r2, [r3, #48]
 511              		.loc 1 375 3 view .LVU132
 512 006a 1A6B     		ldr	r2, [r3, #48]
 513 006c 02F02002 		and	r2, r2, #32
 514 0070 0692     		str	r2, [sp, #24]
 515              		.loc 1 375 3 view .LVU133
 516 0072 069A     		ldr	r2, [sp, #24]
 517              	.LBE7:
 518              		.loc 1 375 3 view .LVU134
 376:Drivers/BSP/STM32746G-Discovery/stm32746g_discovery_sdram.c ****   __HAL_RCC_GPIOG_CLK_ENABLE();
 519              		.loc 1 376 3 view .LVU135
 520              	.LBB8:
 521              		.loc 1 376 3 view .LVU136
 522              		.loc 1 376 3 view .LVU137
 523 0074 1A6B     		ldr	r2, [r3, #48]
 524 0076 42F04002 		orr	r2, r2, #64
 525 007a 1A63     		str	r2, [r3, #48]
 526              		.loc 1 376 3 view .LVU138
 527 007c 1A6B     		ldr	r2, [r3, #48]
 528 007e 02F04002 		and	r2, r2, #64
 529 0082 0792     		str	r2, [sp, #28]
 530              		.loc 1 376 3 view .LVU139
 531 0084 079A     		ldr	r2, [sp, #28]
 532              	.LBE8:
 533              		.loc 1 376 3 view .LVU140
 377:Drivers/BSP/STM32746G-Discovery/stm32746g_discovery_sdram.c ****   __HAL_RCC_GPIOH_CLK_ENABLE();
 534              		.loc 1 377 3 view .LVU141
 535              	.LBB9:
 536              		.loc 1 377 3 view .LVU142
 537              		.loc 1 377 3 view .LVU143
 538 0086 1A6B     		ldr	r2, [r3, #48]
 539 0088 42F08002 		orr	r2, r2, #128
 540 008c 1A63     		str	r2, [r3, #48]
 541              		.loc 1 377 3 view .LVU144
 542 008e 1B6B     		ldr	r3, [r3, #48]
 543 0090 03F08003 		and	r3, r3, #128
 544 0094 0893     		str	r3, [sp, #32]
 545              		.loc 1 377 3 view .LVU145
 546 0096 089B     		ldr	r3, [sp, #32]
 547              	.LBE9:
 548              		.loc 1 377 3 view .LVU146
ARM GAS  /tmp/cc0I35xZ.s 			page 17


 378:Drivers/BSP/STM32746G-Discovery/stm32746g_discovery_sdram.c ****   
 379:Drivers/BSP/STM32746G-Discovery/stm32746g_discovery_sdram.c ****   /* Common GPIO configuration */
 380:Drivers/BSP/STM32746G-Discovery/stm32746g_discovery_sdram.c ****   gpio_init_structure.Mode      = GPIO_MODE_AF_PP;
 549              		.loc 1 380 3 view .LVU147
 550              		.loc 1 380 33 is_stmt 0 view .LVU148
 551 0098 0223     		movs	r3, #2
 552 009a 0A93     		str	r3, [sp, #40]
 381:Drivers/BSP/STM32746G-Discovery/stm32746g_discovery_sdram.c ****   gpio_init_structure.Pull      = GPIO_PULLUP;
 553              		.loc 1 381 3 is_stmt 1 view .LVU149
 554              		.loc 1 381 33 is_stmt 0 view .LVU150
 555 009c 0122     		movs	r2, #1
 556 009e 0B92     		str	r2, [sp, #44]
 382:Drivers/BSP/STM32746G-Discovery/stm32746g_discovery_sdram.c ****   gpio_init_structure.Speed     = GPIO_SPEED_FAST;
 557              		.loc 1 382 3 is_stmt 1 view .LVU151
 558              		.loc 1 382 33 is_stmt 0 view .LVU152
 559 00a0 0C93     		str	r3, [sp, #48]
 383:Drivers/BSP/STM32746G-Discovery/stm32746g_discovery_sdram.c ****   gpio_init_structure.Alternate = GPIO_AF12_FMC;
 560              		.loc 1 383 3 is_stmt 1 view .LVU153
 561              		.loc 1 383 33 is_stmt 0 view .LVU154
 562 00a2 0C23     		movs	r3, #12
 563 00a4 0D93     		str	r3, [sp, #52]
 384:Drivers/BSP/STM32746G-Discovery/stm32746g_discovery_sdram.c ****   
 385:Drivers/BSP/STM32746G-Discovery/stm32746g_discovery_sdram.c ****   /* GPIOC configuration */
 386:Drivers/BSP/STM32746G-Discovery/stm32746g_discovery_sdram.c ****   gpio_init_structure.Pin   = GPIO_PIN_3;
 564              		.loc 1 386 3 is_stmt 1 view .LVU155
 565              		.loc 1 386 29 is_stmt 0 view .LVU156
 566 00a6 0823     		movs	r3, #8
 567 00a8 0993     		str	r3, [sp, #36]
 387:Drivers/BSP/STM32746G-Discovery/stm32746g_discovery_sdram.c ****   HAL_GPIO_Init(GPIOC, &gpio_init_structure);
 568              		.loc 1 387 3 is_stmt 1 view .LVU157
 569 00aa 09AC     		add	r4, sp, #36
 570 00ac 2146     		mov	r1, r4
 571              	.LVL33:
 572              		.loc 1 387 3 is_stmt 0 view .LVU158
 573 00ae 2A48     		ldr	r0, .L32+4
 574              	.LVL34:
 575              		.loc 1 387 3 view .LVU159
 576 00b0 FFF7FEFF 		bl	HAL_GPIO_Init
 577              	.LVL35:
 388:Drivers/BSP/STM32746G-Discovery/stm32746g_discovery_sdram.c **** 
 389:Drivers/BSP/STM32746G-Discovery/stm32746g_discovery_sdram.c ****   /* GPIOD configuration */
 390:Drivers/BSP/STM32746G-Discovery/stm32746g_discovery_sdram.c ****   gpio_init_structure.Pin   = GPIO_PIN_0 | GPIO_PIN_1 | GPIO_PIN_8 | GPIO_PIN_9 |
 578              		.loc 1 390 3 is_stmt 1 view .LVU160
 579              		.loc 1 390 29 is_stmt 0 view .LVU161
 580 00b4 4CF20373 		movw	r3, #50947
 581 00b8 0993     		str	r3, [sp, #36]
 391:Drivers/BSP/STM32746G-Discovery/stm32746g_discovery_sdram.c ****                               GPIO_PIN_10 | GPIO_PIN_14 | GPIO_PIN_15;
 392:Drivers/BSP/STM32746G-Discovery/stm32746g_discovery_sdram.c ****   HAL_GPIO_Init(GPIOD, &gpio_init_structure);
 582              		.loc 1 392 3 is_stmt 1 view .LVU162
 583 00ba 2146     		mov	r1, r4
 584 00bc 2748     		ldr	r0, .L32+8
 585 00be FFF7FEFF 		bl	HAL_GPIO_Init
 586              	.LVL36:
 393:Drivers/BSP/STM32746G-Discovery/stm32746g_discovery_sdram.c **** 
 394:Drivers/BSP/STM32746G-Discovery/stm32746g_discovery_sdram.c ****   /* GPIOE configuration */  
 395:Drivers/BSP/STM32746G-Discovery/stm32746g_discovery_sdram.c ****   gpio_init_structure.Pin   = GPIO_PIN_0 | GPIO_PIN_1 | GPIO_PIN_7| GPIO_PIN_8 | GPIO_PIN_9 |\
 587              		.loc 1 395 3 view .LVU163
ARM GAS  /tmp/cc0I35xZ.s 			page 18


 588              		.loc 1 395 29 is_stmt 0 view .LVU164
 589 00c2 4FF68373 		movw	r3, #65411
 590 00c6 0993     		str	r3, [sp, #36]
 396:Drivers/BSP/STM32746G-Discovery/stm32746g_discovery_sdram.c ****                               GPIO_PIN_10 | GPIO_PIN_11 | GPIO_PIN_12 | GPIO_PIN_13 | GPIO_PIN_14 |
 397:Drivers/BSP/STM32746G-Discovery/stm32746g_discovery_sdram.c ****                               GPIO_PIN_15;
 398:Drivers/BSP/STM32746G-Discovery/stm32746g_discovery_sdram.c ****   HAL_GPIO_Init(GPIOE, &gpio_init_structure);
 591              		.loc 1 398 3 is_stmt 1 view .LVU165
 592 00c8 2146     		mov	r1, r4
 593 00ca 2548     		ldr	r0, .L32+12
 594 00cc FFF7FEFF 		bl	HAL_GPIO_Init
 595              	.LVL37:
 399:Drivers/BSP/STM32746G-Discovery/stm32746g_discovery_sdram.c ****   
 400:Drivers/BSP/STM32746G-Discovery/stm32746g_discovery_sdram.c ****   /* GPIOF configuration */  
 401:Drivers/BSP/STM32746G-Discovery/stm32746g_discovery_sdram.c ****   gpio_init_structure.Pin   = GPIO_PIN_0 | GPIO_PIN_1 | GPIO_PIN_2| GPIO_PIN_3 | GPIO_PIN_4 |\
 596              		.loc 1 401 3 view .LVU166
 597              		.loc 1 401 29 is_stmt 0 view .LVU167
 598 00d0 4FF63F03 		movw	r3, #63551
 599 00d4 0993     		str	r3, [sp, #36]
 402:Drivers/BSP/STM32746G-Discovery/stm32746g_discovery_sdram.c ****                               GPIO_PIN_5 | GPIO_PIN_11 | GPIO_PIN_12 | GPIO_PIN_13 | GPIO_PIN_14 |\
 403:Drivers/BSP/STM32746G-Discovery/stm32746g_discovery_sdram.c ****                               GPIO_PIN_15;
 404:Drivers/BSP/STM32746G-Discovery/stm32746g_discovery_sdram.c ****   HAL_GPIO_Init(GPIOF, &gpio_init_structure);
 600              		.loc 1 404 3 is_stmt 1 view .LVU168
 601 00d6 2146     		mov	r1, r4
 602 00d8 2248     		ldr	r0, .L32+16
 603 00da FFF7FEFF 		bl	HAL_GPIO_Init
 604              	.LVL38:
 405:Drivers/BSP/STM32746G-Discovery/stm32746g_discovery_sdram.c ****   
 406:Drivers/BSP/STM32746G-Discovery/stm32746g_discovery_sdram.c ****   /* GPIOG configuration */  
 407:Drivers/BSP/STM32746G-Discovery/stm32746g_discovery_sdram.c ****   gpio_init_structure.Pin   = GPIO_PIN_0 | GPIO_PIN_1 | GPIO_PIN_4| GPIO_PIN_5 | GPIO_PIN_8 |\
 605              		.loc 1 407 3 view .LVU169
 606              		.loc 1 407 29 is_stmt 0 view .LVU170
 607 00de 48F23313 		movw	r3, #33075
 608 00e2 0993     		str	r3, [sp, #36]
 408:Drivers/BSP/STM32746G-Discovery/stm32746g_discovery_sdram.c ****                               GPIO_PIN_15;
 409:Drivers/BSP/STM32746G-Discovery/stm32746g_discovery_sdram.c ****   HAL_GPIO_Init(GPIOG, &gpio_init_structure);
 609              		.loc 1 409 3 is_stmt 1 view .LVU171
 610 00e4 2146     		mov	r1, r4
 611 00e6 2048     		ldr	r0, .L32+20
 612 00e8 FFF7FEFF 		bl	HAL_GPIO_Init
 613              	.LVL39:
 410:Drivers/BSP/STM32746G-Discovery/stm32746g_discovery_sdram.c **** 
 411:Drivers/BSP/STM32746G-Discovery/stm32746g_discovery_sdram.c ****   /* GPIOH configuration */  
 412:Drivers/BSP/STM32746G-Discovery/stm32746g_discovery_sdram.c ****   gpio_init_structure.Pin   = GPIO_PIN_3 | GPIO_PIN_5;
 614              		.loc 1 412 3 view .LVU172
 615              		.loc 1 412 29 is_stmt 0 view .LVU173
 616 00ec 2823     		movs	r3, #40
 617 00ee 0993     		str	r3, [sp, #36]
 413:Drivers/BSP/STM32746G-Discovery/stm32746g_discovery_sdram.c ****   HAL_GPIO_Init(GPIOH, &gpio_init_structure); 
 618              		.loc 1 413 3 is_stmt 1 view .LVU174
 619 00f0 2146     		mov	r1, r4
 620 00f2 1E48     		ldr	r0, .L32+24
 621 00f4 FFF7FEFF 		bl	HAL_GPIO_Init
 622              	.LVL40:
 414:Drivers/BSP/STM32746G-Discovery/stm32746g_discovery_sdram.c ****   
 415:Drivers/BSP/STM32746G-Discovery/stm32746g_discovery_sdram.c ****   /* Configure common DMA parameters */
 416:Drivers/BSP/STM32746G-Discovery/stm32746g_discovery_sdram.c ****   dma_handle.Init.Channel             = SDRAM_DMAx_CHANNEL;
 623              		.loc 1 416 3 view .LVU175
ARM GAS  /tmp/cc0I35xZ.s 			page 19


 624              		.loc 1 416 39 is_stmt 0 view .LVU176
 625 00f8 1D4C     		ldr	r4, .L32+28
 626 00fa 0025     		movs	r5, #0
 627 00fc 6560     		str	r5, [r4, #4]
 417:Drivers/BSP/STM32746G-Discovery/stm32746g_discovery_sdram.c ****   dma_handle.Init.Direction           = DMA_MEMORY_TO_MEMORY;
 628              		.loc 1 417 3 is_stmt 1 view .LVU177
 629              		.loc 1 417 39 is_stmt 0 view .LVU178
 630 00fe 8023     		movs	r3, #128
 631 0100 A360     		str	r3, [r4, #8]
 418:Drivers/BSP/STM32746G-Discovery/stm32746g_discovery_sdram.c ****   dma_handle.Init.PeriphInc           = DMA_PINC_ENABLE;
 632              		.loc 1 418 3 is_stmt 1 view .LVU179
 633              		.loc 1 418 39 is_stmt 0 view .LVU180
 634 0102 4FF40073 		mov	r3, #512
 635 0106 E360     		str	r3, [r4, #12]
 419:Drivers/BSP/STM32746G-Discovery/stm32746g_discovery_sdram.c ****   dma_handle.Init.MemInc              = DMA_MINC_ENABLE;
 636              		.loc 1 419 3 is_stmt 1 view .LVU181
 637              		.loc 1 419 39 is_stmt 0 view .LVU182
 638 0108 4FF48063 		mov	r3, #1024
 639 010c 2361     		str	r3, [r4, #16]
 420:Drivers/BSP/STM32746G-Discovery/stm32746g_discovery_sdram.c ****   dma_handle.Init.PeriphDataAlignment = DMA_PDATAALIGN_WORD;
 640              		.loc 1 420 3 is_stmt 1 view .LVU183
 641              		.loc 1 420 39 is_stmt 0 view .LVU184
 642 010e 4FF48053 		mov	r3, #4096
 643 0112 6361     		str	r3, [r4, #20]
 421:Drivers/BSP/STM32746G-Discovery/stm32746g_discovery_sdram.c ****   dma_handle.Init.MemDataAlignment    = DMA_MDATAALIGN_WORD;
 644              		.loc 1 421 3 is_stmt 1 view .LVU185
 645              		.loc 1 421 39 is_stmt 0 view .LVU186
 646 0114 4FF48043 		mov	r3, #16384
 647 0118 A361     		str	r3, [r4, #24]
 422:Drivers/BSP/STM32746G-Discovery/stm32746g_discovery_sdram.c ****   dma_handle.Init.Mode                = DMA_NORMAL;
 648              		.loc 1 422 3 is_stmt 1 view .LVU187
 649              		.loc 1 422 39 is_stmt 0 view .LVU188
 650 011a E561     		str	r5, [r4, #28]
 423:Drivers/BSP/STM32746G-Discovery/stm32746g_discovery_sdram.c ****   dma_handle.Init.Priority            = DMA_PRIORITY_HIGH;
 651              		.loc 1 423 3 is_stmt 1 view .LVU189
 652              		.loc 1 423 39 is_stmt 0 view .LVU190
 653 011c 4FF40033 		mov	r3, #131072
 654 0120 2362     		str	r3, [r4, #32]
 424:Drivers/BSP/STM32746G-Discovery/stm32746g_discovery_sdram.c ****   dma_handle.Init.FIFOMode            = DMA_FIFOMODE_DISABLE;         
 655              		.loc 1 424 3 is_stmt 1 view .LVU191
 656              		.loc 1 424 39 is_stmt 0 view .LVU192
 657 0122 6562     		str	r5, [r4, #36]
 425:Drivers/BSP/STM32746G-Discovery/stm32746g_discovery_sdram.c ****   dma_handle.Init.FIFOThreshold       = DMA_FIFO_THRESHOLD_FULL;
 658              		.loc 1 425 3 is_stmt 1 view .LVU193
 659              		.loc 1 425 39 is_stmt 0 view .LVU194
 660 0124 0323     		movs	r3, #3
 661 0126 A362     		str	r3, [r4, #40]
 426:Drivers/BSP/STM32746G-Discovery/stm32746g_discovery_sdram.c ****   dma_handle.Init.MemBurst            = DMA_MBURST_SINGLE;
 662              		.loc 1 426 3 is_stmt 1 view .LVU195
 663              		.loc 1 426 39 is_stmt 0 view .LVU196
 664 0128 E562     		str	r5, [r4, #44]
 427:Drivers/BSP/STM32746G-Discovery/stm32746g_discovery_sdram.c ****   dma_handle.Init.PeriphBurst         = DMA_PBURST_SINGLE; 
 665              		.loc 1 427 3 is_stmt 1 view .LVU197
 666              		.loc 1 427 39 is_stmt 0 view .LVU198
 667 012a 2563     		str	r5, [r4, #48]
 428:Drivers/BSP/STM32746G-Discovery/stm32746g_discovery_sdram.c ****   
 429:Drivers/BSP/STM32746G-Discovery/stm32746g_discovery_sdram.c ****   dma_handle.Instance = SDRAM_DMAx_STREAM;
ARM GAS  /tmp/cc0I35xZ.s 			page 20


 668              		.loc 1 429 3 is_stmt 1 view .LVU199
 669              		.loc 1 429 23 is_stmt 0 view .LVU200
 670 012c 114B     		ldr	r3, .L32+32
 671 012e 2360     		str	r3, [r4]
 430:Drivers/BSP/STM32746G-Discovery/stm32746g_discovery_sdram.c ****   
 431:Drivers/BSP/STM32746G-Discovery/stm32746g_discovery_sdram.c ****    /* Associate the DMA handle */
 432:Drivers/BSP/STM32746G-Discovery/stm32746g_discovery_sdram.c ****   __HAL_LINKDMA(hsdram, hdma, dma_handle);
 672              		.loc 1 432 3 is_stmt 1 view .LVU201
 673              		.loc 1 432 3 view .LVU202
 674 0130 3463     		str	r4, [r6, #48]
 675              		.loc 1 432 3 view .LVU203
 676 0132 A663     		str	r6, [r4, #56]
 677              		.loc 1 432 3 view .LVU204
 433:Drivers/BSP/STM32746G-Discovery/stm32746g_discovery_sdram.c ****   
 434:Drivers/BSP/STM32746G-Discovery/stm32746g_discovery_sdram.c ****   /* Deinitialize the stream for new transfer */
 435:Drivers/BSP/STM32746G-Discovery/stm32746g_discovery_sdram.c ****   HAL_DMA_DeInit(&dma_handle);
 678              		.loc 1 435 3 view .LVU205
 679 0134 2046     		mov	r0, r4
 680 0136 FFF7FEFF 		bl	HAL_DMA_DeInit
 681              	.LVL41:
 436:Drivers/BSP/STM32746G-Discovery/stm32746g_discovery_sdram.c ****   
 437:Drivers/BSP/STM32746G-Discovery/stm32746g_discovery_sdram.c ****   /* Configure the DMA stream */
 438:Drivers/BSP/STM32746G-Discovery/stm32746g_discovery_sdram.c ****   HAL_DMA_Init(&dma_handle); 
 682              		.loc 1 438 3 view .LVU206
 683 013a 2046     		mov	r0, r4
 684 013c FFF7FEFF 		bl	HAL_DMA_Init
 685              	.LVL42:
 439:Drivers/BSP/STM32746G-Discovery/stm32746g_discovery_sdram.c ****   
 440:Drivers/BSP/STM32746G-Discovery/stm32746g_discovery_sdram.c ****   /* NVIC configuration for DMA transfer complete interrupt */
 441:Drivers/BSP/STM32746G-Discovery/stm32746g_discovery_sdram.c ****   HAL_NVIC_SetPriority(SDRAM_DMAx_IRQn, 0x0F, 0);
 686              		.loc 1 441 3 view .LVU207
 687 0140 2A46     		mov	r2, r5
 688 0142 0F21     		movs	r1, #15
 689 0144 3820     		movs	r0, #56
 690 0146 FFF7FEFF 		bl	HAL_NVIC_SetPriority
 691              	.LVL43:
 442:Drivers/BSP/STM32746G-Discovery/stm32746g_discovery_sdram.c ****   HAL_NVIC_EnableIRQ(SDRAM_DMAx_IRQn);
 692              		.loc 1 442 3 view .LVU208
 693 014a 3820     		movs	r0, #56
 694 014c FFF7FEFF 		bl	HAL_NVIC_EnableIRQ
 695              	.LVL44:
 443:Drivers/BSP/STM32746G-Discovery/stm32746g_discovery_sdram.c **** }
 696              		.loc 1 443 1 is_stmt 0 view .LVU209
 697 0150 0EB0     		add	sp, sp, #56
 698              	.LCFI10:
 699              		.cfi_def_cfa_offset 16
 700              		@ sp needed
 701 0152 70BD     		pop	{r4, r5, r6, pc}
 702              	.LVL45:
 703              	.L33:
 704              		.loc 1 443 1 view .LVU210
 705              		.align	2
 706              	.L32:
 707 0154 00380240 		.word	1073887232
 708 0158 00080240 		.word	1073874944
 709 015c 000C0240 		.word	1073875968
 710 0160 00100240 		.word	1073876992
ARM GAS  /tmp/cc0I35xZ.s 			page 21


 711 0164 00140240 		.word	1073878016
 712 0168 00180240 		.word	1073879040
 713 016c 001C0240 		.word	1073880064
 714 0170 00000000 		.word	dma_handle.1
 715 0174 10640240 		.word	1073898512
 716              		.cfi_endproc
 717              	.LFE149:
 719              		.section	.text.BSP_SDRAM_Init,"ax",%progbits
 720              		.align	1
 721              		.global	BSP_SDRAM_Init
 722              		.syntax unified
 723              		.thumb
 724              		.thumb_func
 726              	BSP_SDRAM_Init:
 727              	.LFB141:
 132:Drivers/BSP/STM32746G-Discovery/stm32746g_discovery_sdram.c ****   static uint8_t sdramstatus = SDRAM_ERROR;
 728              		.loc 1 132 1 is_stmt 1 view -0
 729              		.cfi_startproc
 730              		@ args = 0, pretend = 0, frame = 0
 731              		@ frame_needed = 0, uses_anonymous_args = 0
 732 0000 38B5     		push	{r3, r4, r5, lr}
 733              	.LCFI11:
 734              		.cfi_def_cfa_offset 16
 735              		.cfi_offset 3, -16
 736              		.cfi_offset 4, -12
 737              		.cfi_offset 5, -8
 738              		.cfi_offset 14, -4
 133:Drivers/BSP/STM32746G-Discovery/stm32746g_discovery_sdram.c ****   /* SDRAM device configuration */
 739              		.loc 1 133 3 view .LVU212
 135:Drivers/BSP/STM32746G-Discovery/stm32746g_discovery_sdram.c ****     
 740              		.loc 1 135 3 view .LVU213
 135:Drivers/BSP/STM32746G-Discovery/stm32746g_discovery_sdram.c ****     
 741              		.loc 1 135 24 is_stmt 0 view .LVU214
 742 0002 1B4C     		ldr	r4, .L38
 743 0004 1B4B     		ldr	r3, .L38+4
 744 0006 2360     		str	r3, [r4]
 138:Drivers/BSP/STM32746G-Discovery/stm32746g_discovery_sdram.c ****   Timing.ExitSelfRefreshDelay = 7;
 745              		.loc 1 138 3 is_stmt 1 view .LVU215
 138:Drivers/BSP/STM32746G-Discovery/stm32746g_discovery_sdram.c ****   Timing.ExitSelfRefreshDelay = 7;
 746              		.loc 1 138 31 is_stmt 0 view .LVU216
 747 0008 1B4D     		ldr	r5, .L38+8
 748 000a 0223     		movs	r3, #2
 749 000c 2B60     		str	r3, [r5]
 139:Drivers/BSP/STM32746G-Discovery/stm32746g_discovery_sdram.c ****   Timing.SelfRefreshTime      = 4;
 750              		.loc 1 139 3 is_stmt 1 view .LVU217
 139:Drivers/BSP/STM32746G-Discovery/stm32746g_discovery_sdram.c ****   Timing.SelfRefreshTime      = 4;
 751              		.loc 1 139 31 is_stmt 0 view .LVU218
 752 000e 0721     		movs	r1, #7
 753 0010 6960     		str	r1, [r5, #4]
 140:Drivers/BSP/STM32746G-Discovery/stm32746g_discovery_sdram.c ****   Timing.RowCycleDelay        = 7;
 754              		.loc 1 140 3 is_stmt 1 view .LVU219
 140:Drivers/BSP/STM32746G-Discovery/stm32746g_discovery_sdram.c ****   Timing.RowCycleDelay        = 7;
 755              		.loc 1 140 31 is_stmt 0 view .LVU220
 756 0012 0422     		movs	r2, #4
 757 0014 AA60     		str	r2, [r5, #8]
 141:Drivers/BSP/STM32746G-Discovery/stm32746g_discovery_sdram.c ****   Timing.WriteRecoveryTime    = 2;
 758              		.loc 1 141 3 is_stmt 1 view .LVU221
ARM GAS  /tmp/cc0I35xZ.s 			page 22


 141:Drivers/BSP/STM32746G-Discovery/stm32746g_discovery_sdram.c ****   Timing.WriteRecoveryTime    = 2;
 759              		.loc 1 141 31 is_stmt 0 view .LVU222
 760 0016 E960     		str	r1, [r5, #12]
 142:Drivers/BSP/STM32746G-Discovery/stm32746g_discovery_sdram.c ****   Timing.RPDelay              = 2;
 761              		.loc 1 142 3 is_stmt 1 view .LVU223
 142:Drivers/BSP/STM32746G-Discovery/stm32746g_discovery_sdram.c ****   Timing.RPDelay              = 2;
 762              		.loc 1 142 31 is_stmt 0 view .LVU224
 763 0018 2B61     		str	r3, [r5, #16]
 143:Drivers/BSP/STM32746G-Discovery/stm32746g_discovery_sdram.c ****   Timing.RCDDelay             = 2;
 764              		.loc 1 143 3 is_stmt 1 view .LVU225
 143:Drivers/BSP/STM32746G-Discovery/stm32746g_discovery_sdram.c ****   Timing.RCDDelay             = 2;
 765              		.loc 1 143 31 is_stmt 0 view .LVU226
 766 001a 6B61     		str	r3, [r5, #20]
 144:Drivers/BSP/STM32746G-Discovery/stm32746g_discovery_sdram.c ****   
 767              		.loc 1 144 3 is_stmt 1 view .LVU227
 144:Drivers/BSP/STM32746G-Discovery/stm32746g_discovery_sdram.c ****   
 768              		.loc 1 144 31 is_stmt 0 view .LVU228
 769 001c AB61     		str	r3, [r5, #24]
 146:Drivers/BSP/STM32746G-Discovery/stm32746g_discovery_sdram.c ****   sdramHandle.Init.ColumnBitsNumber   = FMC_SDRAM_COLUMN_BITS_NUM_8;
 770              		.loc 1 146 3 is_stmt 1 view .LVU229
 146:Drivers/BSP/STM32746G-Discovery/stm32746g_discovery_sdram.c ****   sdramHandle.Init.ColumnBitsNumber   = FMC_SDRAM_COLUMN_BITS_NUM_8;
 771              		.loc 1 146 39 is_stmt 0 view .LVU230
 772 001e 0021     		movs	r1, #0
 773 0020 6160     		str	r1, [r4, #4]
 147:Drivers/BSP/STM32746G-Discovery/stm32746g_discovery_sdram.c ****   sdramHandle.Init.RowBitsNumber      = FMC_SDRAM_ROW_BITS_NUM_12;
 774              		.loc 1 147 3 is_stmt 1 view .LVU231
 147:Drivers/BSP/STM32746G-Discovery/stm32746g_discovery_sdram.c ****   sdramHandle.Init.RowBitsNumber      = FMC_SDRAM_ROW_BITS_NUM_12;
 775              		.loc 1 147 39 is_stmt 0 view .LVU232
 776 0022 A160     		str	r1, [r4, #8]
 148:Drivers/BSP/STM32746G-Discovery/stm32746g_discovery_sdram.c ****   sdramHandle.Init.MemoryDataWidth    = SDRAM_MEMORY_WIDTH;
 777              		.loc 1 148 3 is_stmt 1 view .LVU233
 148:Drivers/BSP/STM32746G-Discovery/stm32746g_discovery_sdram.c ****   sdramHandle.Init.MemoryDataWidth    = SDRAM_MEMORY_WIDTH;
 778              		.loc 1 148 39 is_stmt 0 view .LVU234
 779 0024 E260     		str	r2, [r4, #12]
 149:Drivers/BSP/STM32746G-Discovery/stm32746g_discovery_sdram.c ****   sdramHandle.Init.InternalBankNumber = FMC_SDRAM_INTERN_BANKS_NUM_4;
 780              		.loc 1 149 3 is_stmt 1 view .LVU235
 149:Drivers/BSP/STM32746G-Discovery/stm32746g_discovery_sdram.c ****   sdramHandle.Init.InternalBankNumber = FMC_SDRAM_INTERN_BANKS_NUM_4;
 781              		.loc 1 149 39 is_stmt 0 view .LVU236
 782 0026 1023     		movs	r3, #16
 783 0028 2361     		str	r3, [r4, #16]
 150:Drivers/BSP/STM32746G-Discovery/stm32746g_discovery_sdram.c ****   sdramHandle.Init.CASLatency         = FMC_SDRAM_CAS_LATENCY_2;
 784              		.loc 1 150 3 is_stmt 1 view .LVU237
 150:Drivers/BSP/STM32746G-Discovery/stm32746g_discovery_sdram.c ****   sdramHandle.Init.CASLatency         = FMC_SDRAM_CAS_LATENCY_2;
 785              		.loc 1 150 39 is_stmt 0 view .LVU238
 786 002a 4023     		movs	r3, #64
 787 002c 6361     		str	r3, [r4, #20]
 151:Drivers/BSP/STM32746G-Discovery/stm32746g_discovery_sdram.c ****   sdramHandle.Init.WriteProtection    = FMC_SDRAM_WRITE_PROTECTION_DISABLE;
 788              		.loc 1 151 3 is_stmt 1 view .LVU239
 151:Drivers/BSP/STM32746G-Discovery/stm32746g_discovery_sdram.c ****   sdramHandle.Init.WriteProtection    = FMC_SDRAM_WRITE_PROTECTION_DISABLE;
 789              		.loc 1 151 39 is_stmt 0 view .LVU240
 790 002e 4FF48073 		mov	r3, #256
 791 0032 A361     		str	r3, [r4, #24]
 152:Drivers/BSP/STM32746G-Discovery/stm32746g_discovery_sdram.c ****   sdramHandle.Init.SDClockPeriod      = SDCLOCK_PERIOD;
 792              		.loc 1 152 3 is_stmt 1 view .LVU241
 152:Drivers/BSP/STM32746G-Discovery/stm32746g_discovery_sdram.c ****   sdramHandle.Init.SDClockPeriod      = SDCLOCK_PERIOD;
 793              		.loc 1 152 39 is_stmt 0 view .LVU242
 794 0034 E161     		str	r1, [r4, #28]
ARM GAS  /tmp/cc0I35xZ.s 			page 23


 153:Drivers/BSP/STM32746G-Discovery/stm32746g_discovery_sdram.c ****   sdramHandle.Init.ReadBurst          = FMC_SDRAM_RBURST_ENABLE;
 795              		.loc 1 153 3 is_stmt 1 view .LVU243
 153:Drivers/BSP/STM32746G-Discovery/stm32746g_discovery_sdram.c ****   sdramHandle.Init.ReadBurst          = FMC_SDRAM_RBURST_ENABLE;
 796              		.loc 1 153 39 is_stmt 0 view .LVU244
 797 0036 4FF40063 		mov	r3, #2048
 798 003a 2362     		str	r3, [r4, #32]
 154:Drivers/BSP/STM32746G-Discovery/stm32746g_discovery_sdram.c ****   sdramHandle.Init.ReadPipeDelay      = FMC_SDRAM_RPIPE_DELAY_0;
 799              		.loc 1 154 3 is_stmt 1 view .LVU245
 154:Drivers/BSP/STM32746G-Discovery/stm32746g_discovery_sdram.c ****   sdramHandle.Init.ReadPipeDelay      = FMC_SDRAM_RPIPE_DELAY_0;
 800              		.loc 1 154 39 is_stmt 0 view .LVU246
 801 003c 4FF48053 		mov	r3, #4096
 802 0040 6362     		str	r3, [r4, #36]
 155:Drivers/BSP/STM32746G-Discovery/stm32746g_discovery_sdram.c ****   
 803              		.loc 1 155 3 is_stmt 1 view .LVU247
 155:Drivers/BSP/STM32746G-Discovery/stm32746g_discovery_sdram.c ****   
 804              		.loc 1 155 39 is_stmt 0 view .LVU248
 805 0042 A162     		str	r1, [r4, #40]
 159:Drivers/BSP/STM32746G-Discovery/stm32746g_discovery_sdram.c **** 
 806              		.loc 1 159 3 is_stmt 1 view .LVU249
 807 0044 2046     		mov	r0, r4
 808 0046 FFF7FEFF 		bl	BSP_SDRAM_MspInit
 809              	.LVL46:
 161:Drivers/BSP/STM32746G-Discovery/stm32746g_discovery_sdram.c ****   {
 810              		.loc 1 161 3 view .LVU250
 161:Drivers/BSP/STM32746G-Discovery/stm32746g_discovery_sdram.c ****   {
 811              		.loc 1 161 6 is_stmt 0 view .LVU251
 812 004a 2946     		mov	r1, r5
 813 004c 2046     		mov	r0, r4
 814 004e FFF7FEFF 		bl	HAL_SDRAM_Init
 815              	.LVL47:
 161:Drivers/BSP/STM32746G-Discovery/stm32746g_discovery_sdram.c ****   {
 816              		.loc 1 161 5 discriminator 1 view .LVU252
 817 0052 48B1     		cbz	r0, .L35
 163:Drivers/BSP/STM32746G-Discovery/stm32746g_discovery_sdram.c ****   }
 818              		.loc 1 163 5 is_stmt 1 view .LVU253
 163:Drivers/BSP/STM32746G-Discovery/stm32746g_discovery_sdram.c ****   }
 819              		.loc 1 163 17 is_stmt 0 view .LVU254
 820 0054 094B     		ldr	r3, .L38+12
 821 0056 0122     		movs	r2, #1
 822 0058 1A70     		strb	r2, [r3]
 823              	.L36:
 171:Drivers/BSP/STM32746G-Discovery/stm32746g_discovery_sdram.c ****   
 824              		.loc 1 171 3 is_stmt 1 view .LVU255
 825 005a 40F20360 		movw	r0, #1539
 826 005e FFF7FEFF 		bl	BSP_SDRAM_Initialization_sequence
 827              	.LVL48:
 173:Drivers/BSP/STM32746G-Discovery/stm32746g_discovery_sdram.c **** }
 828              		.loc 1 173 3 view .LVU256
 174:Drivers/BSP/STM32746G-Discovery/stm32746g_discovery_sdram.c **** 
 829              		.loc 1 174 1 is_stmt 0 view .LVU257
 830 0062 064B     		ldr	r3, .L38+12
 831 0064 1878     		ldrb	r0, [r3]	@ zero_extendqisi2
 832 0066 38BD     		pop	{r3, r4, r5, pc}
 833              	.L35:
 167:Drivers/BSP/STM32746G-Discovery/stm32746g_discovery_sdram.c ****   }
 834              		.loc 1 167 5 is_stmt 1 view .LVU258
 167:Drivers/BSP/STM32746G-Discovery/stm32746g_discovery_sdram.c ****   }
ARM GAS  /tmp/cc0I35xZ.s 			page 24


 835              		.loc 1 167 17 is_stmt 0 view .LVU259
 836 0068 044B     		ldr	r3, .L38+12
 837 006a 0022     		movs	r2, #0
 838 006c 1A70     		strb	r2, [r3]
 839 006e F4E7     		b	.L36
 840              	.L39:
 841              		.align	2
 842              	.L38:
 843 0070 00000000 		.word	sdramHandle
 844 0074 400100A0 		.word	-1610612416
 845 0078 00000000 		.word	Timing
 846 007c 00000000 		.word	sdramstatus.3
 847              		.cfi_endproc
 848              	.LFE141:
 850              		.section	.text.BSP_SDRAM_MspDeInit,"ax",%progbits
 851              		.align	1
 852              		.weak	BSP_SDRAM_MspDeInit
 853              		.syntax unified
 854              		.thumb
 855              		.thumb_func
 857              	BSP_SDRAM_MspDeInit:
 858              	.LVL49:
 859              	.LFB150:
 444:Drivers/BSP/STM32746G-Discovery/stm32746g_discovery_sdram.c **** 
 445:Drivers/BSP/STM32746G-Discovery/stm32746g_discovery_sdram.c **** /**
 446:Drivers/BSP/STM32746G-Discovery/stm32746g_discovery_sdram.c ****   * @brief  DeInitializes SDRAM MSP.
 447:Drivers/BSP/STM32746G-Discovery/stm32746g_discovery_sdram.c ****   * @param  hsdram: SDRAM handle
 448:Drivers/BSP/STM32746G-Discovery/stm32746g_discovery_sdram.c ****   * @param  Params
 449:Drivers/BSP/STM32746G-Discovery/stm32746g_discovery_sdram.c ****   * @retval None
 450:Drivers/BSP/STM32746G-Discovery/stm32746g_discovery_sdram.c ****   */
 451:Drivers/BSP/STM32746G-Discovery/stm32746g_discovery_sdram.c **** __weak void BSP_SDRAM_MspDeInit(SDRAM_HandleTypeDef  *hsdram, void *Params)
 452:Drivers/BSP/STM32746G-Discovery/stm32746g_discovery_sdram.c **** {  
 860              		.loc 1 452 1 is_stmt 1 view -0
 861              		.cfi_startproc
 862              		@ args = 0, pretend = 0, frame = 0
 863              		@ frame_needed = 0, uses_anonymous_args = 0
 864              		.loc 1 452 1 is_stmt 0 view .LVU261
 865 0000 08B5     		push	{r3, lr}
 866              	.LCFI12:
 867              		.cfi_def_cfa_offset 8
 868              		.cfi_offset 3, -8
 869              		.cfi_offset 14, -4
 453:Drivers/BSP/STM32746G-Discovery/stm32746g_discovery_sdram.c ****     static DMA_HandleTypeDef dma_handle;
 870              		.loc 1 453 5 is_stmt 1 view .LVU262
 454:Drivers/BSP/STM32746G-Discovery/stm32746g_discovery_sdram.c ****   
 455:Drivers/BSP/STM32746G-Discovery/stm32746g_discovery_sdram.c ****     /* Disable NVIC configuration for DMA interrupt */
 456:Drivers/BSP/STM32746G-Discovery/stm32746g_discovery_sdram.c ****     HAL_NVIC_DisableIRQ(SDRAM_DMAx_IRQn);
 871              		.loc 1 456 5 view .LVU263
 872 0002 3820     		movs	r0, #56
 873              	.LVL50:
 874              		.loc 1 456 5 is_stmt 0 view .LVU264
 875 0004 FFF7FEFF 		bl	HAL_NVIC_DisableIRQ
 876              	.LVL51:
 457:Drivers/BSP/STM32746G-Discovery/stm32746g_discovery_sdram.c **** 
 458:Drivers/BSP/STM32746G-Discovery/stm32746g_discovery_sdram.c ****     /* Deinitialize the stream for new transfer */
 459:Drivers/BSP/STM32746G-Discovery/stm32746g_discovery_sdram.c ****     dma_handle.Instance = SDRAM_DMAx_STREAM;
 877              		.loc 1 459 5 is_stmt 1 view .LVU265
ARM GAS  /tmp/cc0I35xZ.s 			page 25


 878              		.loc 1 459 25 is_stmt 0 view .LVU266
 879 0008 0248     		ldr	r0, .L42
 880 000a 034B     		ldr	r3, .L42+4
 881 000c 0360     		str	r3, [r0]
 460:Drivers/BSP/STM32746G-Discovery/stm32746g_discovery_sdram.c ****     HAL_DMA_DeInit(&dma_handle);
 882              		.loc 1 460 5 is_stmt 1 view .LVU267
 883 000e FFF7FEFF 		bl	HAL_DMA_DeInit
 884              	.LVL52:
 461:Drivers/BSP/STM32746G-Discovery/stm32746g_discovery_sdram.c **** 
 462:Drivers/BSP/STM32746G-Discovery/stm32746g_discovery_sdram.c ****     /* GPIO pins clock, FMC clock and DMA clock can be shut down in the applications
 463:Drivers/BSP/STM32746G-Discovery/stm32746g_discovery_sdram.c ****        by surcharging this __weak function */ 
 464:Drivers/BSP/STM32746G-Discovery/stm32746g_discovery_sdram.c **** }
 885              		.loc 1 464 1 is_stmt 0 view .LVU268
 886 0012 08BD     		pop	{r3, pc}
 887              	.L43:
 888              		.align	2
 889              	.L42:
 890 0014 00000000 		.word	dma_handle.0
 891 0018 10640240 		.word	1073898512
 892              		.cfi_endproc
 893              	.LFE150:
 895              		.section	.text.BSP_SDRAM_DeInit,"ax",%progbits
 896              		.align	1
 897              		.global	BSP_SDRAM_DeInit
 898              		.syntax unified
 899              		.thumb
 900              		.thumb_func
 902              	BSP_SDRAM_DeInit:
 903              	.LFB142:
 181:Drivers/BSP/STM32746G-Discovery/stm32746g_discovery_sdram.c ****   static uint8_t sdramstatus = SDRAM_ERROR;
 904              		.loc 1 181 1 is_stmt 1 view -0
 905              		.cfi_startproc
 906              		@ args = 0, pretend = 0, frame = 0
 907              		@ frame_needed = 0, uses_anonymous_args = 0
 908 0000 08B5     		push	{r3, lr}
 909              	.LCFI13:
 910              		.cfi_def_cfa_offset 8
 911              		.cfi_offset 3, -8
 912              		.cfi_offset 14, -4
 182:Drivers/BSP/STM32746G-Discovery/stm32746g_discovery_sdram.c ****   /* SDRAM device de-initialization */
 913              		.loc 1 182 3 view .LVU270
 184:Drivers/BSP/STM32746G-Discovery/stm32746g_discovery_sdram.c **** 
 914              		.loc 1 184 3 view .LVU271
 184:Drivers/BSP/STM32746G-Discovery/stm32746g_discovery_sdram.c **** 
 915              		.loc 1 184 24 is_stmt 0 view .LVU272
 916 0002 0A48     		ldr	r0, .L48
 917 0004 0A4B     		ldr	r3, .L48+4
 918 0006 0360     		str	r3, [r0]
 186:Drivers/BSP/STM32746G-Discovery/stm32746g_discovery_sdram.c ****   {
 919              		.loc 1 186 3 is_stmt 1 view .LVU273
 186:Drivers/BSP/STM32746G-Discovery/stm32746g_discovery_sdram.c ****   {
 920              		.loc 1 186 6 is_stmt 0 view .LVU274
 921 0008 FFF7FEFF 		bl	HAL_SDRAM_DeInit
 922              	.LVL53:
 186:Drivers/BSP/STM32746G-Discovery/stm32746g_discovery_sdram.c ****   {
 923              		.loc 1 186 5 discriminator 1 view .LVU275
 924 000c 48B1     		cbz	r0, .L45
ARM GAS  /tmp/cc0I35xZ.s 			page 26


 188:Drivers/BSP/STM32746G-Discovery/stm32746g_discovery_sdram.c ****   }
 925              		.loc 1 188 5 is_stmt 1 view .LVU276
 188:Drivers/BSP/STM32746G-Discovery/stm32746g_discovery_sdram.c ****   }
 926              		.loc 1 188 17 is_stmt 0 view .LVU277
 927 000e 094B     		ldr	r3, .L48+8
 928 0010 0122     		movs	r2, #1
 929 0012 1A70     		strb	r2, [r3]
 930              	.L46:
 196:Drivers/BSP/STM32746G-Discovery/stm32746g_discovery_sdram.c ****   
 931              		.loc 1 196 3 is_stmt 1 view .LVU278
 932 0014 0021     		movs	r1, #0
 933 0016 0548     		ldr	r0, .L48
 934 0018 FFF7FEFF 		bl	BSP_SDRAM_MspDeInit
 935              	.LVL54:
 198:Drivers/BSP/STM32746G-Discovery/stm32746g_discovery_sdram.c **** }
 936              		.loc 1 198 3 view .LVU279
 199:Drivers/BSP/STM32746G-Discovery/stm32746g_discovery_sdram.c **** 
 937              		.loc 1 199 1 is_stmt 0 view .LVU280
 938 001c 054B     		ldr	r3, .L48+8
 939 001e 1878     		ldrb	r0, [r3]	@ zero_extendqisi2
 940 0020 08BD     		pop	{r3, pc}
 941              	.L45:
 192:Drivers/BSP/STM32746G-Discovery/stm32746g_discovery_sdram.c ****   }
 942              		.loc 1 192 5 is_stmt 1 view .LVU281
 192:Drivers/BSP/STM32746G-Discovery/stm32746g_discovery_sdram.c ****   }
 943              		.loc 1 192 17 is_stmt 0 view .LVU282
 944 0022 044B     		ldr	r3, .L48+8
 945 0024 0022     		movs	r2, #0
 946 0026 1A70     		strb	r2, [r3]
 947 0028 F4E7     		b	.L46
 948              	.L49:
 949 002a 00BF     		.align	2
 950              	.L48:
 951 002c 00000000 		.word	sdramHandle
 952 0030 400100A0 		.word	-1610612416
 953 0034 00000000 		.word	sdramstatus.2
 954              		.cfi_endproc
 955              	.LFE142:
 957              		.section	.bss.dma_handle.0,"aw",%nobits
 958              		.align	2
 961              	dma_handle.0:
 962 0000 00000000 		.space	96
 962      00000000 
 962      00000000 
 962      00000000 
 962      00000000 
 963              		.section	.bss.dma_handle.1,"aw",%nobits
 964              		.align	2
 967              	dma_handle.1:
 968 0000 00000000 		.space	96
 968      00000000 
 968      00000000 
 968      00000000 
 968      00000000 
 969              		.section	.data.sdramstatus.2,"aw"
 972              	sdramstatus.2:
 973 0000 01       		.byte	1
ARM GAS  /tmp/cc0I35xZ.s 			page 27


 974              		.section	.data.sdramstatus.3,"aw"
 977              	sdramstatus.3:
 978 0000 01       		.byte	1
 979              		.section	.bss.Command,"aw",%nobits
 980              		.align	2
 983              	Command:
 984 0000 00000000 		.space	16
 984      00000000 
 984      00000000 
 984      00000000 
 985              		.section	.bss.Timing,"aw",%nobits
 986              		.align	2
 989              	Timing:
 990 0000 00000000 		.space	28
 990      00000000 
 990      00000000 
 990      00000000 
 990      00000000 
 991              		.global	sdramHandle
 992              		.section	.bss.sdramHandle,"aw",%nobits
 993              		.align	2
 996              	sdramHandle:
 997 0000 00000000 		.space	52
 997      00000000 
 997      00000000 
 997      00000000 
 997      00000000 
 998              		.text
 999              	.Letext0:
 1000              		.file 2 "Drivers/CMSIS/Device/ST/STM32F7xx/Include/stm32f746xx.h"
 1001              		.file 3 "/usr/arm-none-eabi/include/machine/_default_types.h"
 1002              		.file 4 "/usr/arm-none-eabi/include/sys/_stdint.h"
 1003              		.file 5 "Drivers/STM32F7xx_HAL_Driver/Inc/stm32f7xx_hal_def.h"
 1004              		.file 6 "Drivers/STM32F7xx_HAL_Driver/Inc/stm32f7xx_hal_gpio.h"
 1005              		.file 7 "Drivers/STM32F7xx_HAL_Driver/Inc/stm32f7xx_hal_dma.h"
 1006              		.file 8 "Drivers/STM32F7xx_HAL_Driver/Inc/stm32f7xx_ll_fmc.h"
 1007              		.file 9 "Drivers/STM32F7xx_HAL_Driver/Inc/stm32f7xx_hal_sdram.h"
 1008              		.file 10 "Drivers/STM32F7xx_HAL_Driver/Inc/stm32f7xx_hal_cortex.h"
 1009              		.file 11 "Drivers/STM32F7xx_HAL_Driver/Inc/stm32f7xx_hal.h"
ARM GAS  /tmp/cc0I35xZ.s 			page 28

