ARM GAS  /tmp/cctN4fdd.s 			page 1


   1              		.cpu cortex-m7
   2              		.arch armv7e-m
   3              		.fpu fpv5-sp-d16
   4              		.eabi_attribute 27, 1
   5              		.eabi_attribute 28, 1
   6              		.eabi_attribute 20, 1
   7              		.eabi_attribute 21, 1
   8              		.eabi_attribute 23, 3
   9              		.eabi_attribute 24, 1
  10              		.eabi_attribute 25, 1
  11              		.eabi_attribute 26, 1
  12              		.eabi_attribute 30, 1
  13              		.eabi_attribute 34, 1
  14              		.eabi_attribute 18, 4
  15              		.file	"stm32746g_discovery_ts.c"
  16              		.text
  17              	.Ltext0:
  18              		.cfi_sections	.debug_frame
  19              		.file 1 "Drivers/BSP/STM32746G-Discovery/stm32746g_discovery_ts.c"
  20              		.section	.text.BSP_TS_Init,"ax",%progbits
  21              		.align	1
  22              		.global	BSP_TS_Init
  23              		.syntax unified
  24              		.thumb
  25              		.thumb_func
  27              	BSP_TS_Init:
  28              	.LVL0:
  29              	.LFB141:
   1:Drivers/BSP/STM32746G-Discovery/stm32746g_discovery_ts.c **** /**
   2:Drivers/BSP/STM32746G-Discovery/stm32746g_discovery_ts.c ****   ******************************************************************************
   3:Drivers/BSP/STM32746G-Discovery/stm32746g_discovery_ts.c ****   * @file    stm32746g_discovery_ts.c
   4:Drivers/BSP/STM32746G-Discovery/stm32746g_discovery_ts.c ****   * @author  MCD Application Team
   5:Drivers/BSP/STM32746G-Discovery/stm32746g_discovery_ts.c ****   * @brief   This file provides a set of functions needed to manage the Touch 
   6:Drivers/BSP/STM32746G-Discovery/stm32746g_discovery_ts.c ****   *          Screen on STM32746G-Discovery board.
   7:Drivers/BSP/STM32746G-Discovery/stm32746g_discovery_ts.c ****   *
   8:Drivers/BSP/STM32746G-Discovery/stm32746g_discovery_ts.c ****   ******************************************************************************
   9:Drivers/BSP/STM32746G-Discovery/stm32746g_discovery_ts.c ****   * @attention
  10:Drivers/BSP/STM32746G-Discovery/stm32746g_discovery_ts.c ****   *
  11:Drivers/BSP/STM32746G-Discovery/stm32746g_discovery_ts.c ****   * Copyright (c) 2016 STMicroelectronics.
  12:Drivers/BSP/STM32746G-Discovery/stm32746g_discovery_ts.c ****   * All rights reserved.
  13:Drivers/BSP/STM32746G-Discovery/stm32746g_discovery_ts.c ****   *
  14:Drivers/BSP/STM32746G-Discovery/stm32746g_discovery_ts.c ****   * This software is licensed under terms that can be found in the LICENSE file
  15:Drivers/BSP/STM32746G-Discovery/stm32746g_discovery_ts.c ****   * in the root directory of this software component.
  16:Drivers/BSP/STM32746G-Discovery/stm32746g_discovery_ts.c ****   * If no LICENSE file comes with this software, it is provided AS-IS.
  17:Drivers/BSP/STM32746G-Discovery/stm32746g_discovery_ts.c ****   *
  18:Drivers/BSP/STM32746G-Discovery/stm32746g_discovery_ts.c ****   ******************************************************************************
  19:Drivers/BSP/STM32746G-Discovery/stm32746g_discovery_ts.c ****   @verbatim
  20:Drivers/BSP/STM32746G-Discovery/stm32746g_discovery_ts.c ****    1. How To use this driver:
  21:Drivers/BSP/STM32746G-Discovery/stm32746g_discovery_ts.c ****    --------------------------
  22:Drivers/BSP/STM32746G-Discovery/stm32746g_discovery_ts.c ****       - This driver is used to drive the touch screen module of the STM32746G-Discovery
  23:Drivers/BSP/STM32746G-Discovery/stm32746g_discovery_ts.c ****         board on the RK043FN48H-CT672B 480x272 LCD screen with capacitive touch screen.
  24:Drivers/BSP/STM32746G-Discovery/stm32746g_discovery_ts.c ****       - The FT5336 component driver must be included in project files according to
  25:Drivers/BSP/STM32746G-Discovery/stm32746g_discovery_ts.c ****         the touch screen driver present on this board.
  26:Drivers/BSP/STM32746G-Discovery/stm32746g_discovery_ts.c ****    
  27:Drivers/BSP/STM32746G-Discovery/stm32746g_discovery_ts.c ****    2. Driver description:
  28:Drivers/BSP/STM32746G-Discovery/stm32746g_discovery_ts.c ****    ---------------------
  29:Drivers/BSP/STM32746G-Discovery/stm32746g_discovery_ts.c ****      + Initialization steps:
ARM GAS  /tmp/cctN4fdd.s 			page 2


  30:Drivers/BSP/STM32746G-Discovery/stm32746g_discovery_ts.c ****         o Initialize the TS module using the BSP_TS_Init() function. This 
  31:Drivers/BSP/STM32746G-Discovery/stm32746g_discovery_ts.c ****           function includes the MSP layer hardware resources initialization and the
  32:Drivers/BSP/STM32746G-Discovery/stm32746g_discovery_ts.c ****           communication layer configuration to start the TS use. The LCD size properties
  33:Drivers/BSP/STM32746G-Discovery/stm32746g_discovery_ts.c ****           (x and y) are passed as parameters.
  34:Drivers/BSP/STM32746G-Discovery/stm32746g_discovery_ts.c ****         o If TS interrupt mode is desired, you must configure the TS interrupt mode
  35:Drivers/BSP/STM32746G-Discovery/stm32746g_discovery_ts.c ****           by calling the function BSP_TS_ITConfig(). The TS interrupt mode is generated
  36:Drivers/BSP/STM32746G-Discovery/stm32746g_discovery_ts.c ****           as an external interrupt whenever a touch is detected. 
  37:Drivers/BSP/STM32746G-Discovery/stm32746g_discovery_ts.c ****           The interrupt mode internally uses the IO functionalities driver driven by
  38:Drivers/BSP/STM32746G-Discovery/stm32746g_discovery_ts.c ****           the IO expander, to configure the IT line.
  39:Drivers/BSP/STM32746G-Discovery/stm32746g_discovery_ts.c ****      
  40:Drivers/BSP/STM32746G-Discovery/stm32746g_discovery_ts.c ****      + Touch screen use
  41:Drivers/BSP/STM32746G-Discovery/stm32746g_discovery_ts.c ****         o The touch screen state is captured whenever the function BSP_TS_GetState() is 
  42:Drivers/BSP/STM32746G-Discovery/stm32746g_discovery_ts.c ****           used. This function returns information about the last LCD touch occurred
  43:Drivers/BSP/STM32746G-Discovery/stm32746g_discovery_ts.c ****           in the TS_StateTypeDef structure.
  44:Drivers/BSP/STM32746G-Discovery/stm32746g_discovery_ts.c ****         o If TS interrupt mode is used, the function BSP_TS_ITGetStatus() is needed to get
  45:Drivers/BSP/STM32746G-Discovery/stm32746g_discovery_ts.c ****           the interrupt status. To clear the IT pending bits, you should call the 
  46:Drivers/BSP/STM32746G-Discovery/stm32746g_discovery_ts.c ****           function BSP_TS_ITClear().
  47:Drivers/BSP/STM32746G-Discovery/stm32746g_discovery_ts.c ****         o The IT is handled using the corresponding external interrupt IRQ handler,
  48:Drivers/BSP/STM32746G-Discovery/stm32746g_discovery_ts.c ****           the user IT callback treatment is implemented on the same external interrupt
  49:Drivers/BSP/STM32746G-Discovery/stm32746g_discovery_ts.c ****           callback.
  50:Drivers/BSP/STM32746G-Discovery/stm32746g_discovery_ts.c ****   @endverbatim
  51:Drivers/BSP/STM32746G-Discovery/stm32746g_discovery_ts.c ****   ******************************************************************************
  52:Drivers/BSP/STM32746G-Discovery/stm32746g_discovery_ts.c ****   */ 
  53:Drivers/BSP/STM32746G-Discovery/stm32746g_discovery_ts.c **** 
  54:Drivers/BSP/STM32746G-Discovery/stm32746g_discovery_ts.c **** /* Dependencies
  55:Drivers/BSP/STM32746G-Discovery/stm32746g_discovery_ts.c **** - stm32746g_discovery_lcd.c
  56:Drivers/BSP/STM32746G-Discovery/stm32746g_discovery_ts.c **** - ft5336.c
  57:Drivers/BSP/STM32746G-Discovery/stm32746g_discovery_ts.c **** EndDependencies */
  58:Drivers/BSP/STM32746G-Discovery/stm32746g_discovery_ts.c **** 
  59:Drivers/BSP/STM32746G-Discovery/stm32746g_discovery_ts.c **** /* Includes ------------------------------------------------------------------*/
  60:Drivers/BSP/STM32746G-Discovery/stm32746g_discovery_ts.c **** #include "stm32746g_discovery_ts.h"
  61:Drivers/BSP/STM32746G-Discovery/stm32746g_discovery_ts.c **** 
  62:Drivers/BSP/STM32746G-Discovery/stm32746g_discovery_ts.c **** /** @addtogroup BSP
  63:Drivers/BSP/STM32746G-Discovery/stm32746g_discovery_ts.c ****   * @{
  64:Drivers/BSP/STM32746G-Discovery/stm32746g_discovery_ts.c ****   */
  65:Drivers/BSP/STM32746G-Discovery/stm32746g_discovery_ts.c **** 
  66:Drivers/BSP/STM32746G-Discovery/stm32746g_discovery_ts.c **** /** @addtogroup STM32746G_DISCOVERY
  67:Drivers/BSP/STM32746G-Discovery/stm32746g_discovery_ts.c ****   * @{
  68:Drivers/BSP/STM32746G-Discovery/stm32746g_discovery_ts.c ****   */ 
  69:Drivers/BSP/STM32746G-Discovery/stm32746g_discovery_ts.c ****   
  70:Drivers/BSP/STM32746G-Discovery/stm32746g_discovery_ts.c **** /** @defgroup STM32746G_DISCOVERY_TS STM32746G_DISCOVERY_TS
  71:Drivers/BSP/STM32746G-Discovery/stm32746g_discovery_ts.c ****   * @{
  72:Drivers/BSP/STM32746G-Discovery/stm32746g_discovery_ts.c ****   */   
  73:Drivers/BSP/STM32746G-Discovery/stm32746g_discovery_ts.c **** 
  74:Drivers/BSP/STM32746G-Discovery/stm32746g_discovery_ts.c **** /** @defgroup STM32746G_DISCOVERY_TS_Private_Types_Definitions STM32746G_DISCOVERY_TS Types Definit
  75:Drivers/BSP/STM32746G-Discovery/stm32746g_discovery_ts.c ****   * @{
  76:Drivers/BSP/STM32746G-Discovery/stm32746g_discovery_ts.c ****   */ 
  77:Drivers/BSP/STM32746G-Discovery/stm32746g_discovery_ts.c **** /**
  78:Drivers/BSP/STM32746G-Discovery/stm32746g_discovery_ts.c ****   * @}
  79:Drivers/BSP/STM32746G-Discovery/stm32746g_discovery_ts.c ****   */ 
  80:Drivers/BSP/STM32746G-Discovery/stm32746g_discovery_ts.c **** 
  81:Drivers/BSP/STM32746G-Discovery/stm32746g_discovery_ts.c **** /** @defgroup STM32746G_DISCOVERY_TS_Private_Defines STM32746G_DISCOVERY_TS Types Defines
  82:Drivers/BSP/STM32746G-Discovery/stm32746g_discovery_ts.c ****   * @{
  83:Drivers/BSP/STM32746G-Discovery/stm32746g_discovery_ts.c ****   */ 
  84:Drivers/BSP/STM32746G-Discovery/stm32746g_discovery_ts.c **** /**
  85:Drivers/BSP/STM32746G-Discovery/stm32746g_discovery_ts.c ****   * @}
  86:Drivers/BSP/STM32746G-Discovery/stm32746g_discovery_ts.c ****   */ 
ARM GAS  /tmp/cctN4fdd.s 			page 3


  87:Drivers/BSP/STM32746G-Discovery/stm32746g_discovery_ts.c **** 
  88:Drivers/BSP/STM32746G-Discovery/stm32746g_discovery_ts.c **** /** @defgroup STM32746G_DISCOVERY_TS_Private_Macros STM32746G_DISCOVERY_TS Private Macros
  89:Drivers/BSP/STM32746G-Discovery/stm32746g_discovery_ts.c ****   * @{
  90:Drivers/BSP/STM32746G-Discovery/stm32746g_discovery_ts.c ****   */ 
  91:Drivers/BSP/STM32746G-Discovery/stm32746g_discovery_ts.c **** /**
  92:Drivers/BSP/STM32746G-Discovery/stm32746g_discovery_ts.c ****   * @}
  93:Drivers/BSP/STM32746G-Discovery/stm32746g_discovery_ts.c ****   */
  94:Drivers/BSP/STM32746G-Discovery/stm32746g_discovery_ts.c **** 
  95:Drivers/BSP/STM32746G-Discovery/stm32746g_discovery_ts.c **** /** @defgroup STM32746G_DISCOVERY_TS_Imported_Variables STM32746G_DISCOVERY_TS Imported Variables
  96:Drivers/BSP/STM32746G-Discovery/stm32746g_discovery_ts.c ****   * @{
  97:Drivers/BSP/STM32746G-Discovery/stm32746g_discovery_ts.c ****   */
  98:Drivers/BSP/STM32746G-Discovery/stm32746g_discovery_ts.c ****   /**
  99:Drivers/BSP/STM32746G-Discovery/stm32746g_discovery_ts.c ****     * @}
 100:Drivers/BSP/STM32746G-Discovery/stm32746g_discovery_ts.c ****     */
 101:Drivers/BSP/STM32746G-Discovery/stm32746g_discovery_ts.c **** 
 102:Drivers/BSP/STM32746G-Discovery/stm32746g_discovery_ts.c **** /** @defgroup STM32746G_DISCOVERY_TS_Private_Variables STM32746G_DISCOVERY_TS Private Variables
 103:Drivers/BSP/STM32746G-Discovery/stm32746g_discovery_ts.c ****   * @{
 104:Drivers/BSP/STM32746G-Discovery/stm32746g_discovery_ts.c ****   */ 
 105:Drivers/BSP/STM32746G-Discovery/stm32746g_discovery_ts.c **** static TS_DrvTypeDef *tsDriver;
 106:Drivers/BSP/STM32746G-Discovery/stm32746g_discovery_ts.c **** static uint16_t tsXBoundary, tsYBoundary; 
 107:Drivers/BSP/STM32746G-Discovery/stm32746g_discovery_ts.c **** static uint8_t  tsOrientation;
 108:Drivers/BSP/STM32746G-Discovery/stm32746g_discovery_ts.c **** static uint8_t  I2cAddress;
 109:Drivers/BSP/STM32746G-Discovery/stm32746g_discovery_ts.c **** /**
 110:Drivers/BSP/STM32746G-Discovery/stm32746g_discovery_ts.c ****   * @}
 111:Drivers/BSP/STM32746G-Discovery/stm32746g_discovery_ts.c ****   */ 
 112:Drivers/BSP/STM32746G-Discovery/stm32746g_discovery_ts.c **** 
 113:Drivers/BSP/STM32746G-Discovery/stm32746g_discovery_ts.c **** /** @defgroup STM32746G_DISCOVERY_TS_Private_Function_Prototypes STM32746G_DISCOVERY_TS Private Fun
 114:Drivers/BSP/STM32746G-Discovery/stm32746g_discovery_ts.c ****   * @{
 115:Drivers/BSP/STM32746G-Discovery/stm32746g_discovery_ts.c ****   */ 
 116:Drivers/BSP/STM32746G-Discovery/stm32746g_discovery_ts.c **** /**
 117:Drivers/BSP/STM32746G-Discovery/stm32746g_discovery_ts.c ****   * @}
 118:Drivers/BSP/STM32746G-Discovery/stm32746g_discovery_ts.c ****   */ 
 119:Drivers/BSP/STM32746G-Discovery/stm32746g_discovery_ts.c **** 
 120:Drivers/BSP/STM32746G-Discovery/stm32746g_discovery_ts.c **** /** @defgroup STM32746G_DISCOVERY_TS_Exported_Functions STM32746G_DISCOVERY_TS Exported Functions
 121:Drivers/BSP/STM32746G-Discovery/stm32746g_discovery_ts.c ****   * @{
 122:Drivers/BSP/STM32746G-Discovery/stm32746g_discovery_ts.c ****   */ 
 123:Drivers/BSP/STM32746G-Discovery/stm32746g_discovery_ts.c **** 
 124:Drivers/BSP/STM32746G-Discovery/stm32746g_discovery_ts.c **** /**
 125:Drivers/BSP/STM32746G-Discovery/stm32746g_discovery_ts.c ****   * @brief  Initializes and configures the touch screen functionalities and 
 126:Drivers/BSP/STM32746G-Discovery/stm32746g_discovery_ts.c ****   *         configures all necessary hardware resources (GPIOs, I2C, clocks..).
 127:Drivers/BSP/STM32746G-Discovery/stm32746g_discovery_ts.c ****   * @param  ts_SizeX: Maximum X size of the TS area on LCD
 128:Drivers/BSP/STM32746G-Discovery/stm32746g_discovery_ts.c ****   * @param  ts_SizeY: Maximum Y size of the TS area on LCD
 129:Drivers/BSP/STM32746G-Discovery/stm32746g_discovery_ts.c ****   * @retval TS_OK if all initializations are OK. Other value if error.
 130:Drivers/BSP/STM32746G-Discovery/stm32746g_discovery_ts.c ****   */
 131:Drivers/BSP/STM32746G-Discovery/stm32746g_discovery_ts.c **** uint8_t BSP_TS_Init(uint16_t ts_SizeX, uint16_t ts_SizeY)
 132:Drivers/BSP/STM32746G-Discovery/stm32746g_discovery_ts.c **** {
  30              		.loc 1 132 1 view -0
  31              		.cfi_startproc
  32              		@ args = 0, pretend = 0, frame = 0
  33              		@ frame_needed = 0, uses_anonymous_args = 0
  34              		.loc 1 132 1 is_stmt 0 view .LVU1
  35 0000 10B5     		push	{r4, lr}
  36              	.LCFI0:
  37              		.cfi_def_cfa_offset 8
  38              		.cfi_offset 4, -8
  39              		.cfi_offset 14, -4
 133:Drivers/BSP/STM32746G-Discovery/stm32746g_discovery_ts.c ****   uint8_t status = TS_OK;
ARM GAS  /tmp/cctN4fdd.s 			page 4


  40              		.loc 1 133 3 is_stmt 1 view .LVU2
  41              	.LVL1:
 134:Drivers/BSP/STM32746G-Discovery/stm32746g_discovery_ts.c ****   tsXBoundary = ts_SizeX;
  42              		.loc 1 134 3 view .LVU3
  43              		.loc 1 134 15 is_stmt 0 view .LVU4
  44 0002 0D4B     		ldr	r3, .L6
  45 0004 1880     		strh	r0, [r3]	@ movhi
 135:Drivers/BSP/STM32746G-Discovery/stm32746g_discovery_ts.c ****   tsYBoundary = ts_SizeY;
  46              		.loc 1 135 3 is_stmt 1 view .LVU5
  47              		.loc 1 135 15 is_stmt 0 view .LVU6
  48 0006 0D4B     		ldr	r3, .L6+4
  49 0008 1980     		strh	r1, [r3]	@ movhi
 136:Drivers/BSP/STM32746G-Discovery/stm32746g_discovery_ts.c ****   
 137:Drivers/BSP/STM32746G-Discovery/stm32746g_discovery_ts.c ****   /* Read ID and verify if the touch screen driver is ready */
 138:Drivers/BSP/STM32746G-Discovery/stm32746g_discovery_ts.c ****   ft5336_ts_drv.Init(TS_I2C_ADDRESS);
  50              		.loc 1 138 3 is_stmt 1 view .LVU7
  51              		.loc 1 138 16 is_stmt 0 view .LVU8
  52 000a 0D4C     		ldr	r4, .L6+8
  53 000c 2368     		ldr	r3, [r4]
  54              		.loc 1 138 3 view .LVU9
  55 000e 7020     		movs	r0, #112
  56              	.LVL2:
  57              		.loc 1 138 3 view .LVU10
  58 0010 9847     		blx	r3
  59              	.LVL3:
 139:Drivers/BSP/STM32746G-Discovery/stm32746g_discovery_ts.c ****   if(ft5336_ts_drv.ReadID(TS_I2C_ADDRESS) == FT5336_ID_VALUE)
  60              		.loc 1 139 3 is_stmt 1 view .LVU11
  61              		.loc 1 139 19 is_stmt 0 view .LVU12
  62 0012 6368     		ldr	r3, [r4, #4]
  63              		.loc 1 139 6 view .LVU13
  64 0014 7020     		movs	r0, #112
  65 0016 9847     		blx	r3
  66              	.LVL4:
  67              		.loc 1 139 5 discriminator 1 view .LVU14
  68 0018 5128     		cmp	r0, #81
  69 001a 01D0     		beq	.L5
 140:Drivers/BSP/STM32746G-Discovery/stm32746g_discovery_ts.c ****   { 
 141:Drivers/BSP/STM32746G-Discovery/stm32746g_discovery_ts.c ****     /* Initialize the TS driver structure */
 142:Drivers/BSP/STM32746G-Discovery/stm32746g_discovery_ts.c ****     tsDriver = &ft5336_ts_drv;
 143:Drivers/BSP/STM32746G-Discovery/stm32746g_discovery_ts.c ****     I2cAddress = TS_I2C_ADDRESS;
 144:Drivers/BSP/STM32746G-Discovery/stm32746g_discovery_ts.c ****     tsOrientation = TS_SWAP_XY;
 145:Drivers/BSP/STM32746G-Discovery/stm32746g_discovery_ts.c **** 
 146:Drivers/BSP/STM32746G-Discovery/stm32746g_discovery_ts.c ****     /* Initialize the TS driver */
 147:Drivers/BSP/STM32746G-Discovery/stm32746g_discovery_ts.c ****     tsDriver->Start(I2cAddress);
 148:Drivers/BSP/STM32746G-Discovery/stm32746g_discovery_ts.c ****   }
 149:Drivers/BSP/STM32746G-Discovery/stm32746g_discovery_ts.c ****   else
 150:Drivers/BSP/STM32746G-Discovery/stm32746g_discovery_ts.c ****   {
 151:Drivers/BSP/STM32746G-Discovery/stm32746g_discovery_ts.c ****     status = TS_DEVICE_NOT_FOUND;
  70              		.loc 1 151 12 view .LVU15
  71 001c 0320     		movs	r0, #3
  72              	.L2:
  73              	.LVL5:
 152:Drivers/BSP/STM32746G-Discovery/stm32746g_discovery_ts.c ****   }
 153:Drivers/BSP/STM32746G-Discovery/stm32746g_discovery_ts.c **** 
 154:Drivers/BSP/STM32746G-Discovery/stm32746g_discovery_ts.c ****   return status;
  74              		.loc 1 154 3 is_stmt 1 view .LVU16
 155:Drivers/BSP/STM32746G-Discovery/stm32746g_discovery_ts.c **** }
ARM GAS  /tmp/cctN4fdd.s 			page 5


  75              		.loc 1 155 1 is_stmt 0 view .LVU17
  76 001e 10BD     		pop	{r4, pc}
  77              	.LVL6:
  78              	.L5:
 142:Drivers/BSP/STM32746G-Discovery/stm32746g_discovery_ts.c ****     I2cAddress = TS_I2C_ADDRESS;
  79              		.loc 1 142 5 is_stmt 1 view .LVU18
 142:Drivers/BSP/STM32746G-Discovery/stm32746g_discovery_ts.c ****     I2cAddress = TS_I2C_ADDRESS;
  80              		.loc 1 142 14 is_stmt 0 view .LVU19
  81 0020 084A     		ldr	r2, .L6+12
  82 0022 1460     		str	r4, [r2]
 143:Drivers/BSP/STM32746G-Discovery/stm32746g_discovery_ts.c ****     tsOrientation = TS_SWAP_XY;
  83              		.loc 1 143 5 is_stmt 1 view .LVU20
 143:Drivers/BSP/STM32746G-Discovery/stm32746g_discovery_ts.c ****     tsOrientation = TS_SWAP_XY;
  84              		.loc 1 143 16 is_stmt 0 view .LVU21
  85 0024 7020     		movs	r0, #112
  86 0026 084A     		ldr	r2, .L6+16
  87 0028 1070     		strb	r0, [r2]
 144:Drivers/BSP/STM32746G-Discovery/stm32746g_discovery_ts.c **** 
  88              		.loc 1 144 5 is_stmt 1 view .LVU22
 144:Drivers/BSP/STM32746G-Discovery/stm32746g_discovery_ts.c **** 
  89              		.loc 1 144 19 is_stmt 0 view .LVU23
  90 002a 084A     		ldr	r2, .L6+20
  91 002c 0821     		movs	r1, #8
  92 002e 1170     		strb	r1, [r2]
 147:Drivers/BSP/STM32746G-Discovery/stm32746g_discovery_ts.c ****   }
  93              		.loc 1 147 5 is_stmt 1 view .LVU24
 147:Drivers/BSP/STM32746G-Discovery/stm32746g_discovery_ts.c ****   }
  94              		.loc 1 147 13 is_stmt 0 view .LVU25
  95 0030 E368     		ldr	r3, [r4, #12]
 147:Drivers/BSP/STM32746G-Discovery/stm32746g_discovery_ts.c ****   }
  96              		.loc 1 147 5 view .LVU26
  97 0032 9847     		blx	r3
  98              	.LVL7:
 133:Drivers/BSP/STM32746G-Discovery/stm32746g_discovery_ts.c ****   tsXBoundary = ts_SizeX;
  99              		.loc 1 133 11 view .LVU27
 100 0034 0020     		movs	r0, #0
 101 0036 F2E7     		b	.L2
 102              	.L7:
 103              		.align	2
 104              	.L6:
 105 0038 00000000 		.word	tsXBoundary
 106 003c 00000000 		.word	tsYBoundary
 107 0040 00000000 		.word	ft5336_ts_drv
 108 0044 00000000 		.word	tsDriver
 109 0048 00000000 		.word	I2cAddress
 110 004c 00000000 		.word	tsOrientation
 111              		.cfi_endproc
 112              	.LFE141:
 114              		.section	.text.BSP_TS_DeInit,"ax",%progbits
 115              		.align	1
 116              		.global	BSP_TS_DeInit
 117              		.syntax unified
 118              		.thumb
 119              		.thumb_func
 121              	BSP_TS_DeInit:
 122              	.LFB142:
 156:Drivers/BSP/STM32746G-Discovery/stm32746g_discovery_ts.c **** 
ARM GAS  /tmp/cctN4fdd.s 			page 6


 157:Drivers/BSP/STM32746G-Discovery/stm32746g_discovery_ts.c **** /**
 158:Drivers/BSP/STM32746G-Discovery/stm32746g_discovery_ts.c ****   * @brief  DeInitializes the TouchScreen.
 159:Drivers/BSP/STM32746G-Discovery/stm32746g_discovery_ts.c ****   * @retval TS state
 160:Drivers/BSP/STM32746G-Discovery/stm32746g_discovery_ts.c ****   */
 161:Drivers/BSP/STM32746G-Discovery/stm32746g_discovery_ts.c **** uint8_t BSP_TS_DeInit(void)
 162:Drivers/BSP/STM32746G-Discovery/stm32746g_discovery_ts.c **** { 
 123              		.loc 1 162 1 is_stmt 1 view -0
 124              		.cfi_startproc
 125              		@ args = 0, pretend = 0, frame = 0
 126              		@ frame_needed = 0, uses_anonymous_args = 0
 127              		@ link register save eliminated.
 163:Drivers/BSP/STM32746G-Discovery/stm32746g_discovery_ts.c ****   /* Actually ts_driver does not provide a DeInit function */
 164:Drivers/BSP/STM32746G-Discovery/stm32746g_discovery_ts.c ****   return TS_OK;
 128              		.loc 1 164 3 view .LVU29
 165:Drivers/BSP/STM32746G-Discovery/stm32746g_discovery_ts.c **** }
 129              		.loc 1 165 1 is_stmt 0 view .LVU30
 130 0000 0020     		movs	r0, #0
 131 0002 7047     		bx	lr
 132              		.cfi_endproc
 133              	.LFE142:
 135              		.section	.text.BSP_TS_ITConfig,"ax",%progbits
 136              		.align	1
 137              		.global	BSP_TS_ITConfig
 138              		.syntax unified
 139              		.thumb
 140              		.thumb_func
 142              	BSP_TS_ITConfig:
 143              	.LFB143:
 166:Drivers/BSP/STM32746G-Discovery/stm32746g_discovery_ts.c **** 
 167:Drivers/BSP/STM32746G-Discovery/stm32746g_discovery_ts.c **** /**
 168:Drivers/BSP/STM32746G-Discovery/stm32746g_discovery_ts.c ****   * @brief  Configures and enables the touch screen interrupts.
 169:Drivers/BSP/STM32746G-Discovery/stm32746g_discovery_ts.c ****   * @retval TS_OK if all initializations are OK. Other value if error.
 170:Drivers/BSP/STM32746G-Discovery/stm32746g_discovery_ts.c ****   */
 171:Drivers/BSP/STM32746G-Discovery/stm32746g_discovery_ts.c **** uint8_t BSP_TS_ITConfig(void)
 172:Drivers/BSP/STM32746G-Discovery/stm32746g_discovery_ts.c **** {
 144              		.loc 1 172 1 is_stmt 1 view -0
 145              		.cfi_startproc
 146              		@ args = 0, pretend = 0, frame = 24
 147              		@ frame_needed = 0, uses_anonymous_args = 0
 148 0000 10B5     		push	{r4, lr}
 149              	.LCFI1:
 150              		.cfi_def_cfa_offset 8
 151              		.cfi_offset 4, -8
 152              		.cfi_offset 14, -4
 153 0002 86B0     		sub	sp, sp, #24
 154              	.LCFI2:
 155              		.cfi_def_cfa_offset 32
 173:Drivers/BSP/STM32746G-Discovery/stm32746g_discovery_ts.c ****   GPIO_InitTypeDef gpio_init_structure;
 156              		.loc 1 173 3 view .LVU32
 174:Drivers/BSP/STM32746G-Discovery/stm32746g_discovery_ts.c **** 
 175:Drivers/BSP/STM32746G-Discovery/stm32746g_discovery_ts.c ****   /* Configure Interrupt mode for SD detection pin */
 176:Drivers/BSP/STM32746G-Discovery/stm32746g_discovery_ts.c ****   gpio_init_structure.Pin = TS_INT_PIN;
 157              		.loc 1 176 3 view .LVU33
 158              		.loc 1 176 27 is_stmt 0 view .LVU34
 159 0004 4FF40053 		mov	r3, #8192
 160 0008 0193     		str	r3, [sp, #4]
 177:Drivers/BSP/STM32746G-Discovery/stm32746g_discovery_ts.c ****   gpio_init_structure.Pull = GPIO_NOPULL;
ARM GAS  /tmp/cctN4fdd.s 			page 7


 161              		.loc 1 177 3 is_stmt 1 view .LVU35
 162              		.loc 1 177 28 is_stmt 0 view .LVU36
 163 000a 0024     		movs	r4, #0
 164 000c 0394     		str	r4, [sp, #12]
 178:Drivers/BSP/STM32746G-Discovery/stm32746g_discovery_ts.c ****   gpio_init_structure.Speed = GPIO_SPEED_FAST;
 165              		.loc 1 178 3 is_stmt 1 view .LVU37
 166              		.loc 1 178 29 is_stmt 0 view .LVU38
 167 000e 0223     		movs	r3, #2
 168 0010 0493     		str	r3, [sp, #16]
 179:Drivers/BSP/STM32746G-Discovery/stm32746g_discovery_ts.c ****   gpio_init_structure.Mode = GPIO_MODE_IT_RISING;
 169              		.loc 1 179 3 is_stmt 1 view .LVU39
 170              		.loc 1 179 28 is_stmt 0 view .LVU40
 171 0012 4FF48813 		mov	r3, #1114112
 172 0016 0293     		str	r3, [sp, #8]
 180:Drivers/BSP/STM32746G-Discovery/stm32746g_discovery_ts.c ****   HAL_GPIO_Init(TS_INT_GPIO_PORT, &gpio_init_structure);
 173              		.loc 1 180 3 is_stmt 1 view .LVU41
 174 0018 01A9     		add	r1, sp, #4
 175 001a 0A48     		ldr	r0, .L11
 176 001c FFF7FEFF 		bl	HAL_GPIO_Init
 177              	.LVL8:
 181:Drivers/BSP/STM32746G-Discovery/stm32746g_discovery_ts.c **** 
 182:Drivers/BSP/STM32746G-Discovery/stm32746g_discovery_ts.c ****   /* Enable and set Touch screen EXTI Interrupt to the lowest priority */
 183:Drivers/BSP/STM32746G-Discovery/stm32746g_discovery_ts.c ****   HAL_NVIC_SetPriority((IRQn_Type)(TS_INT_EXTI_IRQn), 0x0F, 0x00);
 178              		.loc 1 183 3 view .LVU42
 179 0020 2246     		mov	r2, r4
 180 0022 0F21     		movs	r1, #15
 181 0024 2820     		movs	r0, #40
 182 0026 FFF7FEFF 		bl	HAL_NVIC_SetPriority
 183              	.LVL9:
 184:Drivers/BSP/STM32746G-Discovery/stm32746g_discovery_ts.c ****   HAL_NVIC_EnableIRQ((IRQn_Type)(TS_INT_EXTI_IRQn));
 184              		.loc 1 184 3 view .LVU43
 185 002a 2820     		movs	r0, #40
 186 002c FFF7FEFF 		bl	HAL_NVIC_EnableIRQ
 187              	.LVL10:
 185:Drivers/BSP/STM32746G-Discovery/stm32746g_discovery_ts.c **** 
 186:Drivers/BSP/STM32746G-Discovery/stm32746g_discovery_ts.c ****   /* Enable the TS ITs */
 187:Drivers/BSP/STM32746G-Discovery/stm32746g_discovery_ts.c ****   tsDriver->EnableIT(I2cAddress);
 188              		.loc 1 187 3 view .LVU44
 189              		.loc 1 187 11 is_stmt 0 view .LVU45
 190 0030 054B     		ldr	r3, .L11+4
 191 0032 1B68     		ldr	r3, [r3]
 192 0034 9B69     		ldr	r3, [r3, #24]
 193              		.loc 1 187 3 view .LVU46
 194 0036 054A     		ldr	r2, .L11+8
 195 0038 1078     		ldrb	r0, [r2]	@ zero_extendqisi2
 196 003a 9847     		blx	r3
 197              	.LVL11:
 188:Drivers/BSP/STM32746G-Discovery/stm32746g_discovery_ts.c **** 
 189:Drivers/BSP/STM32746G-Discovery/stm32746g_discovery_ts.c ****   return TS_OK;  
 198              		.loc 1 189 3 is_stmt 1 view .LVU47
 190:Drivers/BSP/STM32746G-Discovery/stm32746g_discovery_ts.c **** }
 199              		.loc 1 190 1 is_stmt 0 view .LVU48
 200 003c 2046     		mov	r0, r4
 201 003e 06B0     		add	sp, sp, #24
 202              	.LCFI3:
 203              		.cfi_def_cfa_offset 8
 204              		@ sp needed
ARM GAS  /tmp/cctN4fdd.s 			page 8


 205 0040 10BD     		pop	{r4, pc}
 206              	.L12:
 207 0042 00BF     		.align	2
 208              	.L11:
 209 0044 00200240 		.word	1073881088
 210 0048 00000000 		.word	tsDriver
 211 004c 00000000 		.word	I2cAddress
 212              		.cfi_endproc
 213              	.LFE143:
 215              		.section	.text.BSP_TS_ITGetStatus,"ax",%progbits
 216              		.align	1
 217              		.global	BSP_TS_ITGetStatus
 218              		.syntax unified
 219              		.thumb
 220              		.thumb_func
 222              	BSP_TS_ITGetStatus:
 223              	.LFB144:
 191:Drivers/BSP/STM32746G-Discovery/stm32746g_discovery_ts.c **** 
 192:Drivers/BSP/STM32746G-Discovery/stm32746g_discovery_ts.c **** /**
 193:Drivers/BSP/STM32746G-Discovery/stm32746g_discovery_ts.c ****   * @brief  Gets the touch screen interrupt status.
 194:Drivers/BSP/STM32746G-Discovery/stm32746g_discovery_ts.c ****   * @retval TS_OK if all initializations are OK. Other value if error.
 195:Drivers/BSP/STM32746G-Discovery/stm32746g_discovery_ts.c ****   */
 196:Drivers/BSP/STM32746G-Discovery/stm32746g_discovery_ts.c **** uint8_t BSP_TS_ITGetStatus(void)
 197:Drivers/BSP/STM32746G-Discovery/stm32746g_discovery_ts.c **** {
 224              		.loc 1 197 1 is_stmt 1 view -0
 225              		.cfi_startproc
 226              		@ args = 0, pretend = 0, frame = 0
 227              		@ frame_needed = 0, uses_anonymous_args = 0
 228 0000 08B5     		push	{r3, lr}
 229              	.LCFI4:
 230              		.cfi_def_cfa_offset 8
 231              		.cfi_offset 3, -8
 232              		.cfi_offset 14, -4
 198:Drivers/BSP/STM32746G-Discovery/stm32746g_discovery_ts.c ****   /* Return the TS IT status */
 199:Drivers/BSP/STM32746G-Discovery/stm32746g_discovery_ts.c ****   return (tsDriver->GetITStatus(I2cAddress));
 233              		.loc 1 199 3 view .LVU50
 234              		.loc 1 199 19 is_stmt 0 view .LVU51
 235 0002 034B     		ldr	r3, .L15
 236 0004 1B68     		ldr	r3, [r3]
 237 0006 1B6A     		ldr	r3, [r3, #32]
 238              		.loc 1 199 11 view .LVU52
 239 0008 024A     		ldr	r2, .L15+4
 240 000a 1078     		ldrb	r0, [r2]	@ zero_extendqisi2
 241 000c 9847     		blx	r3
 242              	.LVL12:
 200:Drivers/BSP/STM32746G-Discovery/stm32746g_discovery_ts.c **** }
 243              		.loc 1 200 1 view .LVU53
 244 000e 08BD     		pop	{r3, pc}
 245              	.L16:
 246              		.align	2
 247              	.L15:
 248 0010 00000000 		.word	tsDriver
 249 0014 00000000 		.word	I2cAddress
 250              		.cfi_endproc
 251              	.LFE144:
 253              		.section	.text.BSP_TS_Get_GestureId,"ax",%progbits
 254              		.align	1
ARM GAS  /tmp/cctN4fdd.s 			page 9


 255              		.global	BSP_TS_Get_GestureId
 256              		.syntax unified
 257              		.thumb
 258              		.thumb_func
 260              	BSP_TS_Get_GestureId:
 261              	.LVL13:
 262              	.LFB146:
 201:Drivers/BSP/STM32746G-Discovery/stm32746g_discovery_ts.c **** 
 202:Drivers/BSP/STM32746G-Discovery/stm32746g_discovery_ts.c **** /**
 203:Drivers/BSP/STM32746G-Discovery/stm32746g_discovery_ts.c ****   * @brief  Returns status and positions of the touch screen.
 204:Drivers/BSP/STM32746G-Discovery/stm32746g_discovery_ts.c ****   * @param  TS_State: Pointer to touch screen current state structure
 205:Drivers/BSP/STM32746G-Discovery/stm32746g_discovery_ts.c ****   * @retval TS_OK if all initializations are OK. Other value if error.
 206:Drivers/BSP/STM32746G-Discovery/stm32746g_discovery_ts.c ****   */
 207:Drivers/BSP/STM32746G-Discovery/stm32746g_discovery_ts.c **** uint8_t BSP_TS_GetState(TS_StateTypeDef *TS_State)
 208:Drivers/BSP/STM32746G-Discovery/stm32746g_discovery_ts.c **** {
 209:Drivers/BSP/STM32746G-Discovery/stm32746g_discovery_ts.c ****   static uint32_t _x[TS_MAX_NB_TOUCH] = {0, 0};
 210:Drivers/BSP/STM32746G-Discovery/stm32746g_discovery_ts.c ****   static uint32_t _y[TS_MAX_NB_TOUCH] = {0, 0};
 211:Drivers/BSP/STM32746G-Discovery/stm32746g_discovery_ts.c ****   uint8_t ts_status = TS_OK;
 212:Drivers/BSP/STM32746G-Discovery/stm32746g_discovery_ts.c ****   uint16_t x[TS_MAX_NB_TOUCH];
 213:Drivers/BSP/STM32746G-Discovery/stm32746g_discovery_ts.c ****   uint16_t y[TS_MAX_NB_TOUCH];
 214:Drivers/BSP/STM32746G-Discovery/stm32746g_discovery_ts.c ****   uint16_t brute_x[TS_MAX_NB_TOUCH];
 215:Drivers/BSP/STM32746G-Discovery/stm32746g_discovery_ts.c ****   uint16_t brute_y[TS_MAX_NB_TOUCH];
 216:Drivers/BSP/STM32746G-Discovery/stm32746g_discovery_ts.c ****   uint16_t x_diff;
 217:Drivers/BSP/STM32746G-Discovery/stm32746g_discovery_ts.c ****   uint16_t y_diff;
 218:Drivers/BSP/STM32746G-Discovery/stm32746g_discovery_ts.c ****   uint32_t index;
 219:Drivers/BSP/STM32746G-Discovery/stm32746g_discovery_ts.c **** #if (TS_MULTI_TOUCH_SUPPORTED == 1)
 220:Drivers/BSP/STM32746G-Discovery/stm32746g_discovery_ts.c ****   uint32_t weight = 0;
 221:Drivers/BSP/STM32746G-Discovery/stm32746g_discovery_ts.c ****   uint32_t area = 0;
 222:Drivers/BSP/STM32746G-Discovery/stm32746g_discovery_ts.c ****   uint32_t event = 0;
 223:Drivers/BSP/STM32746G-Discovery/stm32746g_discovery_ts.c **** #endif /* TS_MULTI_TOUCH_SUPPORTED == 1 */
 224:Drivers/BSP/STM32746G-Discovery/stm32746g_discovery_ts.c **** 
 225:Drivers/BSP/STM32746G-Discovery/stm32746g_discovery_ts.c ****   /* Check and update the number of touches active detected */
 226:Drivers/BSP/STM32746G-Discovery/stm32746g_discovery_ts.c ****   TS_State->touchDetected = tsDriver->DetectTouch(I2cAddress);
 227:Drivers/BSP/STM32746G-Discovery/stm32746g_discovery_ts.c ****   
 228:Drivers/BSP/STM32746G-Discovery/stm32746g_discovery_ts.c ****   if(TS_State->touchDetected)
 229:Drivers/BSP/STM32746G-Discovery/stm32746g_discovery_ts.c ****   {
 230:Drivers/BSP/STM32746G-Discovery/stm32746g_discovery_ts.c ****     for(index=0; index < TS_State->touchDetected; index++)
 231:Drivers/BSP/STM32746G-Discovery/stm32746g_discovery_ts.c ****     {
 232:Drivers/BSP/STM32746G-Discovery/stm32746g_discovery_ts.c ****       /* Get each touch coordinates */
 233:Drivers/BSP/STM32746G-Discovery/stm32746g_discovery_ts.c ****       tsDriver->GetXY(I2cAddress, &(brute_x[index]), &(brute_y[index]));
 234:Drivers/BSP/STM32746G-Discovery/stm32746g_discovery_ts.c **** 
 235:Drivers/BSP/STM32746G-Discovery/stm32746g_discovery_ts.c ****       if(tsOrientation == TS_SWAP_NONE)
 236:Drivers/BSP/STM32746G-Discovery/stm32746g_discovery_ts.c ****       {
 237:Drivers/BSP/STM32746G-Discovery/stm32746g_discovery_ts.c ****         x[index] = brute_x[index];
 238:Drivers/BSP/STM32746G-Discovery/stm32746g_discovery_ts.c ****         y[index] = brute_y[index];
 239:Drivers/BSP/STM32746G-Discovery/stm32746g_discovery_ts.c ****       }
 240:Drivers/BSP/STM32746G-Discovery/stm32746g_discovery_ts.c **** 
 241:Drivers/BSP/STM32746G-Discovery/stm32746g_discovery_ts.c ****       if(tsOrientation & TS_SWAP_X)
 242:Drivers/BSP/STM32746G-Discovery/stm32746g_discovery_ts.c ****       {
 243:Drivers/BSP/STM32746G-Discovery/stm32746g_discovery_ts.c ****         x[index] = 4096 - brute_x[index];
 244:Drivers/BSP/STM32746G-Discovery/stm32746g_discovery_ts.c ****       }
 245:Drivers/BSP/STM32746G-Discovery/stm32746g_discovery_ts.c **** 
 246:Drivers/BSP/STM32746G-Discovery/stm32746g_discovery_ts.c ****       if(tsOrientation & TS_SWAP_Y)
 247:Drivers/BSP/STM32746G-Discovery/stm32746g_discovery_ts.c ****       {
 248:Drivers/BSP/STM32746G-Discovery/stm32746g_discovery_ts.c ****         y[index] = 4096 - brute_y[index];
 249:Drivers/BSP/STM32746G-Discovery/stm32746g_discovery_ts.c ****       }
 250:Drivers/BSP/STM32746G-Discovery/stm32746g_discovery_ts.c **** 
ARM GAS  /tmp/cctN4fdd.s 			page 10


 251:Drivers/BSP/STM32746G-Discovery/stm32746g_discovery_ts.c ****       if(tsOrientation & TS_SWAP_XY)
 252:Drivers/BSP/STM32746G-Discovery/stm32746g_discovery_ts.c ****       {
 253:Drivers/BSP/STM32746G-Discovery/stm32746g_discovery_ts.c ****         y[index] = brute_x[index];
 254:Drivers/BSP/STM32746G-Discovery/stm32746g_discovery_ts.c ****         x[index] = brute_y[index];
 255:Drivers/BSP/STM32746G-Discovery/stm32746g_discovery_ts.c ****       }
 256:Drivers/BSP/STM32746G-Discovery/stm32746g_discovery_ts.c **** 
 257:Drivers/BSP/STM32746G-Discovery/stm32746g_discovery_ts.c ****       x_diff = x[index] > _x[index]? (x[index] - _x[index]): (_x[index] - x[index]);
 258:Drivers/BSP/STM32746G-Discovery/stm32746g_discovery_ts.c ****       y_diff = y[index] > _y[index]? (y[index] - _y[index]): (_y[index] - y[index]);
 259:Drivers/BSP/STM32746G-Discovery/stm32746g_discovery_ts.c **** 
 260:Drivers/BSP/STM32746G-Discovery/stm32746g_discovery_ts.c ****       if ((x_diff + y_diff) > 5)
 261:Drivers/BSP/STM32746G-Discovery/stm32746g_discovery_ts.c ****       {
 262:Drivers/BSP/STM32746G-Discovery/stm32746g_discovery_ts.c ****         _x[index] = x[index];
 263:Drivers/BSP/STM32746G-Discovery/stm32746g_discovery_ts.c ****         _y[index] = y[index];
 264:Drivers/BSP/STM32746G-Discovery/stm32746g_discovery_ts.c ****       }
 265:Drivers/BSP/STM32746G-Discovery/stm32746g_discovery_ts.c **** 
 266:Drivers/BSP/STM32746G-Discovery/stm32746g_discovery_ts.c ****       if(I2cAddress == FT5336_I2C_SLAVE_ADDRESS)
 267:Drivers/BSP/STM32746G-Discovery/stm32746g_discovery_ts.c ****       {
 268:Drivers/BSP/STM32746G-Discovery/stm32746g_discovery_ts.c ****         TS_State->touchX[index] = x[index];
 269:Drivers/BSP/STM32746G-Discovery/stm32746g_discovery_ts.c ****         TS_State->touchY[index] = y[index];
 270:Drivers/BSP/STM32746G-Discovery/stm32746g_discovery_ts.c ****       }
 271:Drivers/BSP/STM32746G-Discovery/stm32746g_discovery_ts.c ****       else
 272:Drivers/BSP/STM32746G-Discovery/stm32746g_discovery_ts.c ****       {
 273:Drivers/BSP/STM32746G-Discovery/stm32746g_discovery_ts.c ****         /* 2^12 = 4096 : indexes are expressed on a dynamic of 4096 */
 274:Drivers/BSP/STM32746G-Discovery/stm32746g_discovery_ts.c ****         TS_State->touchX[index] = (tsXBoundary * _x[index]) >> 12;
 275:Drivers/BSP/STM32746G-Discovery/stm32746g_discovery_ts.c ****         TS_State->touchY[index] = (tsYBoundary * _y[index]) >> 12;
 276:Drivers/BSP/STM32746G-Discovery/stm32746g_discovery_ts.c ****       }
 277:Drivers/BSP/STM32746G-Discovery/stm32746g_discovery_ts.c **** 
 278:Drivers/BSP/STM32746G-Discovery/stm32746g_discovery_ts.c **** #if (TS_MULTI_TOUCH_SUPPORTED == 1)
 279:Drivers/BSP/STM32746G-Discovery/stm32746g_discovery_ts.c **** 
 280:Drivers/BSP/STM32746G-Discovery/stm32746g_discovery_ts.c ****       /* Get touch info related to the current touch */
 281:Drivers/BSP/STM32746G-Discovery/stm32746g_discovery_ts.c ****       ft5336_TS_GetTouchInfo(I2cAddress, index, &weight, &area, &event);
 282:Drivers/BSP/STM32746G-Discovery/stm32746g_discovery_ts.c **** 
 283:Drivers/BSP/STM32746G-Discovery/stm32746g_discovery_ts.c ****       /* Update TS_State structure */
 284:Drivers/BSP/STM32746G-Discovery/stm32746g_discovery_ts.c ****       TS_State->touchWeight[index] = weight;
 285:Drivers/BSP/STM32746G-Discovery/stm32746g_discovery_ts.c ****       TS_State->touchArea[index]   = area;
 286:Drivers/BSP/STM32746G-Discovery/stm32746g_discovery_ts.c **** 
 287:Drivers/BSP/STM32746G-Discovery/stm32746g_discovery_ts.c ****       /* Remap touch event */
 288:Drivers/BSP/STM32746G-Discovery/stm32746g_discovery_ts.c ****       switch(event)
 289:Drivers/BSP/STM32746G-Discovery/stm32746g_discovery_ts.c ****       {
 290:Drivers/BSP/STM32746G-Discovery/stm32746g_discovery_ts.c ****         case FT5336_TOUCH_EVT_FLAG_PRESS_DOWN	:
 291:Drivers/BSP/STM32746G-Discovery/stm32746g_discovery_ts.c ****           TS_State->touchEventId[index] = TOUCH_EVENT_PRESS_DOWN;
 292:Drivers/BSP/STM32746G-Discovery/stm32746g_discovery_ts.c ****           break;
 293:Drivers/BSP/STM32746G-Discovery/stm32746g_discovery_ts.c ****         case FT5336_TOUCH_EVT_FLAG_LIFT_UP :
 294:Drivers/BSP/STM32746G-Discovery/stm32746g_discovery_ts.c ****           TS_State->touchEventId[index] = TOUCH_EVENT_LIFT_UP;
 295:Drivers/BSP/STM32746G-Discovery/stm32746g_discovery_ts.c ****           break;
 296:Drivers/BSP/STM32746G-Discovery/stm32746g_discovery_ts.c ****         case FT5336_TOUCH_EVT_FLAG_CONTACT :
 297:Drivers/BSP/STM32746G-Discovery/stm32746g_discovery_ts.c ****           TS_State->touchEventId[index] = TOUCH_EVENT_CONTACT;
 298:Drivers/BSP/STM32746G-Discovery/stm32746g_discovery_ts.c ****           break;
 299:Drivers/BSP/STM32746G-Discovery/stm32746g_discovery_ts.c ****         case FT5336_TOUCH_EVT_FLAG_NO_EVENT :
 300:Drivers/BSP/STM32746G-Discovery/stm32746g_discovery_ts.c ****           TS_State->touchEventId[index] = TOUCH_EVENT_NO_EVT;
 301:Drivers/BSP/STM32746G-Discovery/stm32746g_discovery_ts.c ****           break;
 302:Drivers/BSP/STM32746G-Discovery/stm32746g_discovery_ts.c ****         default :
 303:Drivers/BSP/STM32746G-Discovery/stm32746g_discovery_ts.c ****           ts_status = TS_ERROR;
 304:Drivers/BSP/STM32746G-Discovery/stm32746g_discovery_ts.c ****           break;
 305:Drivers/BSP/STM32746G-Discovery/stm32746g_discovery_ts.c ****       } /* of switch(event) */
 306:Drivers/BSP/STM32746G-Discovery/stm32746g_discovery_ts.c **** 
 307:Drivers/BSP/STM32746G-Discovery/stm32746g_discovery_ts.c **** #endif /* TS_MULTI_TOUCH_SUPPORTED == 1 */
ARM GAS  /tmp/cctN4fdd.s 			page 11


 308:Drivers/BSP/STM32746G-Discovery/stm32746g_discovery_ts.c **** 
 309:Drivers/BSP/STM32746G-Discovery/stm32746g_discovery_ts.c ****     } /* of for(index=0; index < TS_State->touchDetected; index++) */
 310:Drivers/BSP/STM32746G-Discovery/stm32746g_discovery_ts.c **** 
 311:Drivers/BSP/STM32746G-Discovery/stm32746g_discovery_ts.c **** #if (TS_MULTI_TOUCH_SUPPORTED == 1)
 312:Drivers/BSP/STM32746G-Discovery/stm32746g_discovery_ts.c ****     /* Get gesture Id */
 313:Drivers/BSP/STM32746G-Discovery/stm32746g_discovery_ts.c ****     ts_status = BSP_TS_Get_GestureId(TS_State);
 314:Drivers/BSP/STM32746G-Discovery/stm32746g_discovery_ts.c **** #endif /* TS_MULTI_TOUCH_SUPPORTED == 1 */
 315:Drivers/BSP/STM32746G-Discovery/stm32746g_discovery_ts.c **** 
 316:Drivers/BSP/STM32746G-Discovery/stm32746g_discovery_ts.c ****   } /* end of if(TS_State->touchDetected != 0) */
 317:Drivers/BSP/STM32746G-Discovery/stm32746g_discovery_ts.c **** 
 318:Drivers/BSP/STM32746G-Discovery/stm32746g_discovery_ts.c ****   return (ts_status);
 319:Drivers/BSP/STM32746G-Discovery/stm32746g_discovery_ts.c **** }
 320:Drivers/BSP/STM32746G-Discovery/stm32746g_discovery_ts.c **** 
 321:Drivers/BSP/STM32746G-Discovery/stm32746g_discovery_ts.c **** #if (TS_MULTI_TOUCH_SUPPORTED == 1)
 322:Drivers/BSP/STM32746G-Discovery/stm32746g_discovery_ts.c **** /**
 323:Drivers/BSP/STM32746G-Discovery/stm32746g_discovery_ts.c ****   * @brief  Update gesture Id following a touch detected.
 324:Drivers/BSP/STM32746G-Discovery/stm32746g_discovery_ts.c ****   * @param  TS_State: Pointer to touch screen current state structure
 325:Drivers/BSP/STM32746G-Discovery/stm32746g_discovery_ts.c ****   * @retval TS_OK if all initializations are OK. Other value if error.
 326:Drivers/BSP/STM32746G-Discovery/stm32746g_discovery_ts.c ****   */
 327:Drivers/BSP/STM32746G-Discovery/stm32746g_discovery_ts.c **** uint8_t BSP_TS_Get_GestureId(TS_StateTypeDef *TS_State)
 328:Drivers/BSP/STM32746G-Discovery/stm32746g_discovery_ts.c **** {
 263              		.loc 1 328 1 is_stmt 1 view -0
 264              		.cfi_startproc
 265              		@ args = 0, pretend = 0, frame = 8
 266              		@ frame_needed = 0, uses_anonymous_args = 0
 267              		.loc 1 328 1 is_stmt 0 view .LVU55
 268 0000 10B5     		push	{r4, lr}
 269              	.LCFI5:
 270              		.cfi_def_cfa_offset 8
 271              		.cfi_offset 4, -8
 272              		.cfi_offset 14, -4
 273 0002 82B0     		sub	sp, sp, #8
 274              	.LCFI6:
 275              		.cfi_def_cfa_offset 16
 276 0004 0446     		mov	r4, r0
 329:Drivers/BSP/STM32746G-Discovery/stm32746g_discovery_ts.c ****   uint32_t gestureId = 0;
 277              		.loc 1 329 3 is_stmt 1 view .LVU56
 278              		.loc 1 329 12 is_stmt 0 view .LVU57
 279 0006 0023     		movs	r3, #0
 280 0008 0193     		str	r3, [sp, #4]
 330:Drivers/BSP/STM32746G-Discovery/stm32746g_discovery_ts.c ****   uint8_t  ts_status = TS_OK;
 281              		.loc 1 330 3 is_stmt 1 view .LVU58
 282              	.LVL14:
 331:Drivers/BSP/STM32746G-Discovery/stm32746g_discovery_ts.c **** 
 332:Drivers/BSP/STM32746G-Discovery/stm32746g_discovery_ts.c ****   /* Get gesture Id */
 333:Drivers/BSP/STM32746G-Discovery/stm32746g_discovery_ts.c ****   ft5336_TS_GetGestureID(I2cAddress, &gestureId);
 283              		.loc 1 333 3 view .LVU59
 284 000a 01A9     		add	r1, sp, #4
 285 000c 1E4B     		ldr	r3, .L31
 286 000e 1878     		ldrb	r0, [r3]	@ zero_extendqisi2
 287              	.LVL15:
 288              		.loc 1 333 3 is_stmt 0 view .LVU60
 289 0010 FFF7FEFF 		bl	ft5336_TS_GetGestureID
 290              	.LVL16:
 334:Drivers/BSP/STM32746G-Discovery/stm32746g_discovery_ts.c **** 
 335:Drivers/BSP/STM32746G-Discovery/stm32746g_discovery_ts.c ****   /* Remap gesture Id to a TS_GestureIdTypeDef value */
 336:Drivers/BSP/STM32746G-Discovery/stm32746g_discovery_ts.c ****   switch(gestureId)
ARM GAS  /tmp/cctN4fdd.s 			page 12


 291              		.loc 1 336 3 is_stmt 1 view .LVU61
 292 0014 019B     		ldr	r3, [sp, #4]
 293 0016 1C2B     		cmp	r3, #28
 294 0018 12D8     		bhi	.L18
 295 001a 1C2B     		cmp	r3, #28
 296 001c 31D8     		bhi	.L28
 297 001e DFE803F0 		tbb	[pc, r3]
 298              	.L21:
 299 0022 19       		.byte	(.L25-.L21)/2
 300 0023 30       		.byte	(.L28-.L21)/2
 301 0024 30       		.byte	(.L28-.L21)/2
 302 0025 30       		.byte	(.L28-.L21)/2
 303 0026 30       		.byte	(.L28-.L21)/2
 304 0027 30       		.byte	(.L28-.L21)/2
 305 0028 30       		.byte	(.L28-.L21)/2
 306 0029 30       		.byte	(.L28-.L21)/2
 307 002a 30       		.byte	(.L28-.L21)/2
 308 002b 30       		.byte	(.L28-.L21)/2
 309 002c 30       		.byte	(.L28-.L21)/2
 310 002d 30       		.byte	(.L28-.L21)/2
 311 002e 30       		.byte	(.L28-.L21)/2
 312 002f 30       		.byte	(.L28-.L21)/2
 313 0030 30       		.byte	(.L28-.L21)/2
 314 0031 30       		.byte	(.L28-.L21)/2
 315 0032 1C       		.byte	(.L24-.L21)/2
 316 0033 30       		.byte	(.L28-.L21)/2
 317 0034 30       		.byte	(.L28-.L21)/2
 318 0035 30       		.byte	(.L28-.L21)/2
 319 0036 20       		.byte	(.L23-.L21)/2
 320 0037 30       		.byte	(.L28-.L21)/2
 321 0038 30       		.byte	(.L28-.L21)/2
 322 0039 30       		.byte	(.L28-.L21)/2
 323 003a 24       		.byte	(.L22-.L21)/2
 324 003b 30       		.byte	(.L28-.L21)/2
 325 003c 30       		.byte	(.L28-.L21)/2
 326 003d 30       		.byte	(.L28-.L21)/2
 327 003e 28       		.byte	(.L20-.L21)/2
 328 003f 00       		.p2align 1
 329              	.L18:
 330 0040 402B     		cmp	r3, #64
 331 0042 1AD0     		beq	.L26
 332 0044 492B     		cmp	r3, #73
 333 0046 03D1     		bne	.L30
 337:Drivers/BSP/STM32746G-Discovery/stm32746g_discovery_ts.c ****   {
 338:Drivers/BSP/STM32746G-Discovery/stm32746g_discovery_ts.c ****     case FT5336_GEST_ID_NO_GESTURE :
 339:Drivers/BSP/STM32746G-Discovery/stm32746g_discovery_ts.c ****       TS_State->gestureId = GEST_ID_NO_GESTURE;
 340:Drivers/BSP/STM32746G-Discovery/stm32746g_discovery_ts.c ****       break;
 341:Drivers/BSP/STM32746G-Discovery/stm32746g_discovery_ts.c ****     case FT5336_GEST_ID_MOVE_UP :
 342:Drivers/BSP/STM32746G-Discovery/stm32746g_discovery_ts.c ****       TS_State->gestureId = GEST_ID_MOVE_UP;
 343:Drivers/BSP/STM32746G-Discovery/stm32746g_discovery_ts.c ****       break;
 344:Drivers/BSP/STM32746G-Discovery/stm32746g_discovery_ts.c ****     case FT5336_GEST_ID_MOVE_RIGHT :
 345:Drivers/BSP/STM32746G-Discovery/stm32746g_discovery_ts.c ****       TS_State->gestureId = GEST_ID_MOVE_RIGHT;
 346:Drivers/BSP/STM32746G-Discovery/stm32746g_discovery_ts.c ****       break;
 347:Drivers/BSP/STM32746G-Discovery/stm32746g_discovery_ts.c ****     case FT5336_GEST_ID_MOVE_DOWN :
 348:Drivers/BSP/STM32746G-Discovery/stm32746g_discovery_ts.c ****       TS_State->gestureId = GEST_ID_MOVE_DOWN;
 349:Drivers/BSP/STM32746G-Discovery/stm32746g_discovery_ts.c ****       break;
 350:Drivers/BSP/STM32746G-Discovery/stm32746g_discovery_ts.c ****     case FT5336_GEST_ID_MOVE_LEFT :
ARM GAS  /tmp/cctN4fdd.s 			page 13


 351:Drivers/BSP/STM32746G-Discovery/stm32746g_discovery_ts.c ****       TS_State->gestureId = GEST_ID_MOVE_LEFT;
 352:Drivers/BSP/STM32746G-Discovery/stm32746g_discovery_ts.c ****       break;
 353:Drivers/BSP/STM32746G-Discovery/stm32746g_discovery_ts.c ****     case FT5336_GEST_ID_ZOOM_IN :
 354:Drivers/BSP/STM32746G-Discovery/stm32746g_discovery_ts.c ****       TS_State->gestureId = GEST_ID_ZOOM_IN;
 355:Drivers/BSP/STM32746G-Discovery/stm32746g_discovery_ts.c ****       break;
 356:Drivers/BSP/STM32746G-Discovery/stm32746g_discovery_ts.c ****     case FT5336_GEST_ID_ZOOM_OUT :
 357:Drivers/BSP/STM32746G-Discovery/stm32746g_discovery_ts.c ****       TS_State->gestureId = GEST_ID_ZOOM_OUT;
 334              		.loc 1 357 7 view .LVU62
 335              		.loc 1 357 27 is_stmt 0 view .LVU63
 336 0048 0623     		movs	r3, #6
 337 004a A362     		str	r3, [r4, #40]
 358:Drivers/BSP/STM32746G-Discovery/stm32746g_discovery_ts.c ****       break;
 338              		.loc 1 358 7 is_stmt 1 view .LVU64
 330:Drivers/BSP/STM32746G-Discovery/stm32746g_discovery_ts.c **** 
 339              		.loc 1 330 12 is_stmt 0 view .LVU65
 340 004c 0020     		movs	r0, #0
 341              		.loc 1 358 7 view .LVU66
 342 004e 19E0     		b	.L19
 343              	.L30:
 336:Drivers/BSP/STM32746G-Discovery/stm32746g_discovery_ts.c ****   {
 344              		.loc 1 336 3 view .LVU67
 345 0050 0120     		movs	r0, #1
 346 0052 17E0     		b	.L19
 347              	.L25:
 339:Drivers/BSP/STM32746G-Discovery/stm32746g_discovery_ts.c ****       break;
 348              		.loc 1 339 7 is_stmt 1 view .LVU68
 339:Drivers/BSP/STM32746G-Discovery/stm32746g_discovery_ts.c ****       break;
 349              		.loc 1 339 27 is_stmt 0 view .LVU69
 350 0054 0020     		movs	r0, #0
 351 0056 A062     		str	r0, [r4, #40]
 340:Drivers/BSP/STM32746G-Discovery/stm32746g_discovery_ts.c ****     case FT5336_GEST_ID_MOVE_UP :
 352              		.loc 1 340 7 is_stmt 1 view .LVU70
 353 0058 14E0     		b	.L19
 354              	.L24:
 342:Drivers/BSP/STM32746G-Discovery/stm32746g_discovery_ts.c ****       break;
 355              		.loc 1 342 7 view .LVU71
 342:Drivers/BSP/STM32746G-Discovery/stm32746g_discovery_ts.c ****       break;
 356              		.loc 1 342 27 is_stmt 0 view .LVU72
 357 005a 0123     		movs	r3, #1
 358 005c A362     		str	r3, [r4, #40]
 343:Drivers/BSP/STM32746G-Discovery/stm32746g_discovery_ts.c ****     case FT5336_GEST_ID_MOVE_RIGHT :
 359              		.loc 1 343 7 is_stmt 1 view .LVU73
 330:Drivers/BSP/STM32746G-Discovery/stm32746g_discovery_ts.c **** 
 360              		.loc 1 330 12 is_stmt 0 view .LVU74
 361 005e 0020     		movs	r0, #0
 343:Drivers/BSP/STM32746G-Discovery/stm32746g_discovery_ts.c ****     case FT5336_GEST_ID_MOVE_RIGHT :
 362              		.loc 1 343 7 view .LVU75
 363 0060 10E0     		b	.L19
 364              	.L23:
 345:Drivers/BSP/STM32746G-Discovery/stm32746g_discovery_ts.c ****       break;
 365              		.loc 1 345 7 is_stmt 1 view .LVU76
 345:Drivers/BSP/STM32746G-Discovery/stm32746g_discovery_ts.c ****       break;
 366              		.loc 1 345 27 is_stmt 0 view .LVU77
 367 0062 0223     		movs	r3, #2
 368 0064 A362     		str	r3, [r4, #40]
 346:Drivers/BSP/STM32746G-Discovery/stm32746g_discovery_ts.c ****     case FT5336_GEST_ID_MOVE_DOWN :
 369              		.loc 1 346 7 is_stmt 1 view .LVU78
ARM GAS  /tmp/cctN4fdd.s 			page 14


 330:Drivers/BSP/STM32746G-Discovery/stm32746g_discovery_ts.c **** 
 370              		.loc 1 330 12 is_stmt 0 view .LVU79
 371 0066 0020     		movs	r0, #0
 346:Drivers/BSP/STM32746G-Discovery/stm32746g_discovery_ts.c ****     case FT5336_GEST_ID_MOVE_DOWN :
 372              		.loc 1 346 7 view .LVU80
 373 0068 0CE0     		b	.L19
 374              	.L22:
 348:Drivers/BSP/STM32746G-Discovery/stm32746g_discovery_ts.c ****       break;
 375              		.loc 1 348 7 is_stmt 1 view .LVU81
 348:Drivers/BSP/STM32746G-Discovery/stm32746g_discovery_ts.c ****       break;
 376              		.loc 1 348 27 is_stmt 0 view .LVU82
 377 006a 0323     		movs	r3, #3
 378 006c A362     		str	r3, [r4, #40]
 349:Drivers/BSP/STM32746G-Discovery/stm32746g_discovery_ts.c ****     case FT5336_GEST_ID_MOVE_LEFT :
 379              		.loc 1 349 7 is_stmt 1 view .LVU83
 330:Drivers/BSP/STM32746G-Discovery/stm32746g_discovery_ts.c **** 
 380              		.loc 1 330 12 is_stmt 0 view .LVU84
 381 006e 0020     		movs	r0, #0
 349:Drivers/BSP/STM32746G-Discovery/stm32746g_discovery_ts.c ****     case FT5336_GEST_ID_MOVE_LEFT :
 382              		.loc 1 349 7 view .LVU85
 383 0070 08E0     		b	.L19
 384              	.L20:
 351:Drivers/BSP/STM32746G-Discovery/stm32746g_discovery_ts.c ****       break;
 385              		.loc 1 351 7 is_stmt 1 view .LVU86
 351:Drivers/BSP/STM32746G-Discovery/stm32746g_discovery_ts.c ****       break;
 386              		.loc 1 351 27 is_stmt 0 view .LVU87
 387 0072 0423     		movs	r3, #4
 388 0074 A362     		str	r3, [r4, #40]
 352:Drivers/BSP/STM32746G-Discovery/stm32746g_discovery_ts.c ****     case FT5336_GEST_ID_ZOOM_IN :
 389              		.loc 1 352 7 is_stmt 1 view .LVU88
 330:Drivers/BSP/STM32746G-Discovery/stm32746g_discovery_ts.c **** 
 390              		.loc 1 330 12 is_stmt 0 view .LVU89
 391 0076 0020     		movs	r0, #0
 352:Drivers/BSP/STM32746G-Discovery/stm32746g_discovery_ts.c ****     case FT5336_GEST_ID_ZOOM_IN :
 392              		.loc 1 352 7 view .LVU90
 393 0078 04E0     		b	.L19
 394              	.L26:
 354:Drivers/BSP/STM32746G-Discovery/stm32746g_discovery_ts.c ****       break;
 395              		.loc 1 354 7 is_stmt 1 view .LVU91
 354:Drivers/BSP/STM32746G-Discovery/stm32746g_discovery_ts.c ****       break;
 396              		.loc 1 354 27 is_stmt 0 view .LVU92
 397 007a 0523     		movs	r3, #5
 398 007c A362     		str	r3, [r4, #40]
 355:Drivers/BSP/STM32746G-Discovery/stm32746g_discovery_ts.c ****     case FT5336_GEST_ID_ZOOM_OUT :
 399              		.loc 1 355 7 is_stmt 1 view .LVU93
 330:Drivers/BSP/STM32746G-Discovery/stm32746g_discovery_ts.c **** 
 400              		.loc 1 330 12 is_stmt 0 view .LVU94
 401 007e 0020     		movs	r0, #0
 355:Drivers/BSP/STM32746G-Discovery/stm32746g_discovery_ts.c ****     case FT5336_GEST_ID_ZOOM_OUT :
 402              		.loc 1 355 7 view .LVU95
 403 0080 00E0     		b	.L19
 404              	.L28:
 336:Drivers/BSP/STM32746G-Discovery/stm32746g_discovery_ts.c ****   {
 405              		.loc 1 336 3 view .LVU96
 406 0082 0120     		movs	r0, #1
 407              	.L19:
 408              	.LVL17:
ARM GAS  /tmp/cctN4fdd.s 			page 15


 359:Drivers/BSP/STM32746G-Discovery/stm32746g_discovery_ts.c ****     default :
 360:Drivers/BSP/STM32746G-Discovery/stm32746g_discovery_ts.c ****       ts_status = TS_ERROR;
 361:Drivers/BSP/STM32746G-Discovery/stm32746g_discovery_ts.c ****       break;
 362:Drivers/BSP/STM32746G-Discovery/stm32746g_discovery_ts.c ****   } /* of switch(gestureId) */
 363:Drivers/BSP/STM32746G-Discovery/stm32746g_discovery_ts.c **** 
 364:Drivers/BSP/STM32746G-Discovery/stm32746g_discovery_ts.c ****   return(ts_status);
 409              		.loc 1 364 3 is_stmt 1 view .LVU97
 365:Drivers/BSP/STM32746G-Discovery/stm32746g_discovery_ts.c **** }
 410              		.loc 1 365 1 is_stmt 0 view .LVU98
 411 0084 02B0     		add	sp, sp, #8
 412              	.LCFI7:
 413              		.cfi_def_cfa_offset 8
 414              		@ sp needed
 415 0086 10BD     		pop	{r4, pc}
 416              	.LVL18:
 417              	.L32:
 418              		.loc 1 365 1 view .LVU99
 419              		.align	2
 420              	.L31:
 421 0088 00000000 		.word	I2cAddress
 422              		.cfi_endproc
 423              	.LFE146:
 425              		.section	.text.BSP_TS_GetState,"ax",%progbits
 426              		.align	1
 427              		.global	BSP_TS_GetState
 428              		.syntax unified
 429              		.thumb
 430              		.thumb_func
 432              	BSP_TS_GetState:
 433              	.LVL19:
 434              	.LFB145:
 208:Drivers/BSP/STM32746G-Discovery/stm32746g_discovery_ts.c ****   static uint32_t _x[TS_MAX_NB_TOUCH] = {0, 0};
 435              		.loc 1 208 1 is_stmt 1 view -0
 436              		.cfi_startproc
 437              		@ args = 0, pretend = 0, frame = 64
 438              		@ frame_needed = 0, uses_anonymous_args = 0
 208:Drivers/BSP/STM32746G-Discovery/stm32746g_discovery_ts.c ****   static uint32_t _x[TS_MAX_NB_TOUCH] = {0, 0};
 439              		.loc 1 208 1 is_stmt 0 view .LVU101
 440 0000 70B5     		push	{r4, r5, r6, lr}
 441              	.LCFI8:
 442              		.cfi_def_cfa_offset 16
 443              		.cfi_offset 4, -16
 444              		.cfi_offset 5, -12
 445              		.cfi_offset 6, -8
 446              		.cfi_offset 14, -4
 447 0002 92B0     		sub	sp, sp, #72
 448              	.LCFI9:
 449              		.cfi_def_cfa_offset 88
 450 0004 0546     		mov	r5, r0
 209:Drivers/BSP/STM32746G-Discovery/stm32746g_discovery_ts.c ****   static uint32_t _y[TS_MAX_NB_TOUCH] = {0, 0};
 451              		.loc 1 209 3 is_stmt 1 view .LVU102
 210:Drivers/BSP/STM32746G-Discovery/stm32746g_discovery_ts.c ****   uint8_t ts_status = TS_OK;
 452              		.loc 1 210 3 view .LVU103
 211:Drivers/BSP/STM32746G-Discovery/stm32746g_discovery_ts.c ****   uint16_t x[TS_MAX_NB_TOUCH];
 453              		.loc 1 211 3 view .LVU104
 454              	.LVL20:
 212:Drivers/BSP/STM32746G-Discovery/stm32746g_discovery_ts.c ****   uint16_t y[TS_MAX_NB_TOUCH];
ARM GAS  /tmp/cctN4fdd.s 			page 16


 455              		.loc 1 212 3 view .LVU105
 213:Drivers/BSP/STM32746G-Discovery/stm32746g_discovery_ts.c ****   uint16_t brute_x[TS_MAX_NB_TOUCH];
 456              		.loc 1 213 3 view .LVU106
 214:Drivers/BSP/STM32746G-Discovery/stm32746g_discovery_ts.c ****   uint16_t brute_y[TS_MAX_NB_TOUCH];
 457              		.loc 1 214 3 view .LVU107
 215:Drivers/BSP/STM32746G-Discovery/stm32746g_discovery_ts.c ****   uint16_t x_diff;
 458              		.loc 1 215 3 view .LVU108
 216:Drivers/BSP/STM32746G-Discovery/stm32746g_discovery_ts.c ****   uint16_t y_diff;
 459              		.loc 1 216 3 view .LVU109
 217:Drivers/BSP/STM32746G-Discovery/stm32746g_discovery_ts.c ****   uint32_t index;
 460              		.loc 1 217 3 view .LVU110
 218:Drivers/BSP/STM32746G-Discovery/stm32746g_discovery_ts.c **** #if (TS_MULTI_TOUCH_SUPPORTED == 1)
 461              		.loc 1 218 3 view .LVU111
 220:Drivers/BSP/STM32746G-Discovery/stm32746g_discovery_ts.c ****   uint32_t area = 0;
 462              		.loc 1 220 3 view .LVU112
 220:Drivers/BSP/STM32746G-Discovery/stm32746g_discovery_ts.c ****   uint32_t area = 0;
 463              		.loc 1 220 12 is_stmt 0 view .LVU113
 464 0006 0023     		movs	r3, #0
 465 0008 0593     		str	r3, [sp, #20]
 221:Drivers/BSP/STM32746G-Discovery/stm32746g_discovery_ts.c ****   uint32_t event = 0;
 466              		.loc 1 221 3 is_stmt 1 view .LVU114
 221:Drivers/BSP/STM32746G-Discovery/stm32746g_discovery_ts.c ****   uint32_t event = 0;
 467              		.loc 1 221 12 is_stmt 0 view .LVU115
 468 000a 0493     		str	r3, [sp, #16]
 222:Drivers/BSP/STM32746G-Discovery/stm32746g_discovery_ts.c **** #endif /* TS_MULTI_TOUCH_SUPPORTED == 1 */
 469              		.loc 1 222 3 is_stmt 1 view .LVU116
 222:Drivers/BSP/STM32746G-Discovery/stm32746g_discovery_ts.c **** #endif /* TS_MULTI_TOUCH_SUPPORTED == 1 */
 470              		.loc 1 222 12 is_stmt 0 view .LVU117
 471 000c 0393     		str	r3, [sp, #12]
 226:Drivers/BSP/STM32746G-Discovery/stm32746g_discovery_ts.c ****   
 472              		.loc 1 226 3 is_stmt 1 view .LVU118
 226:Drivers/BSP/STM32746G-Discovery/stm32746g_discovery_ts.c ****   
 473              		.loc 1 226 37 is_stmt 0 view .LVU119
 474 000e 694B     		ldr	r3, .L60
 475 0010 1B68     		ldr	r3, [r3]
 476 0012 1B69     		ldr	r3, [r3, #16]
 226:Drivers/BSP/STM32746G-Discovery/stm32746g_discovery_ts.c ****   
 477              		.loc 1 226 29 view .LVU120
 478 0014 684A     		ldr	r2, .L60+4
 479 0016 1078     		ldrb	r0, [r2]	@ zero_extendqisi2
 480              	.LVL21:
 226:Drivers/BSP/STM32746G-Discovery/stm32746g_discovery_ts.c ****   
 481              		.loc 1 226 29 view .LVU121
 482 0018 9847     		blx	r3
 483              	.LVL22:
 226:Drivers/BSP/STM32746G-Discovery/stm32746g_discovery_ts.c ****   
 484              		.loc 1 226 27 discriminator 1 view .LVU122
 485 001a 2870     		strb	r0, [r5]
 228:Drivers/BSP/STM32746G-Discovery/stm32746g_discovery_ts.c ****   {
 486              		.loc 1 228 3 is_stmt 1 view .LVU123
 228:Drivers/BSP/STM32746G-Discovery/stm32746g_discovery_ts.c ****   {
 487              		.loc 1 228 5 is_stmt 0 view .LVU124
 488 001c 0028     		cmp	r0, #0
 489 001e 40F0C380 		bne	.L54
 490              	.LVL23:
 491              	.L35:
 318:Drivers/BSP/STM32746G-Discovery/stm32746g_discovery_ts.c **** }
ARM GAS  /tmp/cctN4fdd.s 			page 17


 492              		.loc 1 318 3 is_stmt 1 view .LVU125
 319:Drivers/BSP/STM32746G-Discovery/stm32746g_discovery_ts.c **** 
 493              		.loc 1 319 1 is_stmt 0 view .LVU126
 494 0022 12B0     		add	sp, sp, #72
 495              	.LCFI10:
 496              		.cfi_remember_state
 497              		.cfi_def_cfa_offset 16
 498              		@ sp needed
 499 0024 70BD     		pop	{r4, r5, r6, pc}
 500              	.LVL24:
 501              	.L58:
 502              	.LCFI11:
 503              		.cfi_restore_state
 237:Drivers/BSP/STM32746G-Discovery/stm32746g_discovery_ts.c ****         y[index] = brute_y[index];
 504              		.loc 1 237 9 is_stmt 1 view .LVU127
 237:Drivers/BSP/STM32746G-Discovery/stm32746g_discovery_ts.c ****         y[index] = brute_y[index];
 505              		.loc 1 237 27 is_stmt 0 view .LVU128
 506 0026 12AA     		add	r2, sp, #72
 507 0028 02EB4402 		add	r2, r2, r4, lsl #1
 508 002c 32F8241C 		ldrh	r1, [r2, #-36]
 237:Drivers/BSP/STM32746G-Discovery/stm32746g_discovery_ts.c ****         y[index] = brute_y[index];
 509              		.loc 1 237 18 view .LVU129
 510 0030 22F80C1C 		strh	r1, [r2, #-12]	@ movhi
 238:Drivers/BSP/STM32746G-Discovery/stm32746g_discovery_ts.c ****       }
 511              		.loc 1 238 9 is_stmt 1 view .LVU130
 238:Drivers/BSP/STM32746G-Discovery/stm32746g_discovery_ts.c ****       }
 512              		.loc 1 238 27 is_stmt 0 view .LVU131
 513 0034 32F8301C 		ldrh	r1, [r2, #-48]
 238:Drivers/BSP/STM32746G-Discovery/stm32746g_discovery_ts.c ****       }
 514              		.loc 1 238 18 view .LVU132
 515 0038 22F8181C 		strh	r1, [r2, #-24]	@ movhi
 516 003c 27E0     		b	.L36
 517              	.L40:
 257:Drivers/BSP/STM32746G-Discovery/stm32746g_discovery_ts.c ****       y_diff = y[index] > _y[index]? (y[index] - _y[index]): (_y[index] - y[index]);
 518              		.loc 1 257 73 discriminator 2 view .LVU133
 519 003e 9BB2     		uxth	r3, r3
 257:Drivers/BSP/STM32746G-Discovery/stm32746g_discovery_ts.c ****       y_diff = y[index] > _y[index]? (y[index] - _y[index]): (_y[index] - y[index]);
 520              		.loc 1 257 14 discriminator 2 view .LVU134
 521 0040 5B1A     		subs	r3, r3, r1
 522 0042 9BB2     		uxth	r3, r3
 523 0044 56E0     		b	.L41
 524              	.LVL25:
 525              	.L42:
 258:Drivers/BSP/STM32746G-Discovery/stm32746g_discovery_ts.c **** 
 526              		.loc 1 258 73 discriminator 2 view .LVU135
 527 0046 92B2     		uxth	r2, r2
 258:Drivers/BSP/STM32746G-Discovery/stm32746g_discovery_ts.c **** 
 528              		.loc 1 258 14 discriminator 2 view .LVU136
 529 0048 921B     		subs	r2, r2, r6
 530 004a 92B2     		uxth	r2, r2
 531 004c 5FE0     		b	.L43
 532              	.LVL26:
 533              	.L59:
 268:Drivers/BSP/STM32746G-Discovery/stm32746g_discovery_ts.c ****         TS_State->touchY[index] = y[index];
 534              		.loc 1 268 9 is_stmt 1 view .LVU137
 268:Drivers/BSP/STM32746G-Discovery/stm32746g_discovery_ts.c ****         TS_State->touchY[index] = y[index];
 535              		.loc 1 268 33 is_stmt 0 view .LVU138
ARM GAS  /tmp/cctN4fdd.s 			page 18


 536 004e 05EB4403 		add	r3, r5, r4, lsl #1
 537 0052 5980     		strh	r1, [r3, #2]	@ movhi
 269:Drivers/BSP/STM32746G-Discovery/stm32746g_discovery_ts.c ****       }
 538              		.loc 1 269 9 is_stmt 1 view .LVU139
 269:Drivers/BSP/STM32746G-Discovery/stm32746g_discovery_ts.c ****       }
 539              		.loc 1 269 33 is_stmt 0 view .LVU140
 540 0054 231D     		adds	r3, r4, #4
 541 0056 05EB4303 		add	r3, r5, r3, lsl #1
 542 005a 9E80     		strh	r6, [r3, #4]	@ movhi
 543 005c 7BE0     		b	.L46
 544              	.LVL27:
 545              	.L52:
 291:Drivers/BSP/STM32746G-Discovery/stm32746g_discovery_ts.c ****           break;
 546              		.loc 1 291 11 is_stmt 1 view .LVU141
 291:Drivers/BSP/STM32746G-Discovery/stm32746g_discovery_ts.c ****           break;
 547              		.loc 1 291 41 is_stmt 0 view .LVU142
 548 005e 2B19     		adds	r3, r5, r4
 549 0060 0122     		movs	r2, #1
 550 0062 DA76     		strb	r2, [r3, #27]
 292:Drivers/BSP/STM32746G-Discovery/stm32746g_discovery_ts.c ****         case FT5336_TOUCH_EVT_FLAG_LIFT_UP :
 551              		.loc 1 292 11 is_stmt 1 view .LVU143
 552              	.L47:
 230:Drivers/BSP/STM32746G-Discovery/stm32746g_discovery_ts.c ****     {
 553              		.loc 1 230 56 discriminator 2 view .LVU144
 554 0064 0134     		adds	r4, r4, #1
 555              	.LVL28:
 556              	.L34:
 230:Drivers/BSP/STM32746G-Discovery/stm32746g_discovery_ts.c ****     {
 557              		.loc 1 230 24 discriminator 1 view .LVU145
 230:Drivers/BSP/STM32746G-Discovery/stm32746g_discovery_ts.c ****     {
 558              		.loc 1 230 34 is_stmt 0 discriminator 1 view .LVU146
 559 0066 2B78     		ldrb	r3, [r5]	@ zero_extendqisi2
 230:Drivers/BSP/STM32746G-Discovery/stm32746g_discovery_ts.c ****     {
 560              		.loc 1 230 24 discriminator 1 view .LVU147
 561 0068 A342     		cmp	r3, r4
 562 006a 40F29F80 		bls	.L57
 233:Drivers/BSP/STM32746G-Discovery/stm32746g_discovery_ts.c **** 
 563              		.loc 1 233 7 is_stmt 1 view .LVU148
 233:Drivers/BSP/STM32746G-Discovery/stm32746g_discovery_ts.c **** 
 564              		.loc 1 233 15 is_stmt 0 view .LVU149
 565 006e 514B     		ldr	r3, .L60
 566 0070 1B68     		ldr	r3, [r3]
 567 0072 5B69     		ldr	r3, [r3, #20]
 233:Drivers/BSP/STM32746G-Discovery/stm32746g_discovery_ts.c **** 
 568              		.loc 1 233 7 view .LVU150
 569 0074 06AA     		add	r2, sp, #24
 570 0076 02EB4402 		add	r2, r2, r4, lsl #1
 571 007a 09A9     		add	r1, sp, #36
 572 007c 01EB4401 		add	r1, r1, r4, lsl #1
 573 0080 4D48     		ldr	r0, .L60+4
 574 0082 0078     		ldrb	r0, [r0]	@ zero_extendqisi2
 575 0084 9847     		blx	r3
 576              	.LVL29:
 235:Drivers/BSP/STM32746G-Discovery/stm32746g_discovery_ts.c ****       {
 577              		.loc 1 235 7 is_stmt 1 view .LVU151
 235:Drivers/BSP/STM32746G-Discovery/stm32746g_discovery_ts.c ****       {
 578              		.loc 1 235 24 is_stmt 0 view .LVU152
ARM GAS  /tmp/cctN4fdd.s 			page 19


 579 0086 4D4B     		ldr	r3, .L60+8
 580 0088 1B78     		ldrb	r3, [r3]	@ zero_extendqisi2
 235:Drivers/BSP/STM32746G-Discovery/stm32746g_discovery_ts.c ****       {
 581              		.loc 1 235 9 view .LVU153
 582 008a 012B     		cmp	r3, #1
 583 008c CBD0     		beq	.L58
 584              	.L36:
 241:Drivers/BSP/STM32746G-Discovery/stm32746g_discovery_ts.c ****       {
 585              		.loc 1 241 7 is_stmt 1 view .LVU154
 241:Drivers/BSP/STM32746G-Discovery/stm32746g_discovery_ts.c ****       {
 586              		.loc 1 241 9 is_stmt 0 view .LVU155
 587 008e 13F0020F 		tst	r3, #2
 588 0092 08D0     		beq	.L37
 243:Drivers/BSP/STM32746G-Discovery/stm32746g_discovery_ts.c ****       }
 589              		.loc 1 243 9 is_stmt 1 view .LVU156
 243:Drivers/BSP/STM32746G-Discovery/stm32746g_discovery_ts.c ****       }
 590              		.loc 1 243 34 is_stmt 0 view .LVU157
 591 0094 12AA     		add	r2, sp, #72
 592 0096 02EB4401 		add	r1, r2, r4, lsl #1
 593 009a 31F8242C 		ldrh	r2, [r1, #-36]
 243:Drivers/BSP/STM32746G-Discovery/stm32746g_discovery_ts.c ****       }
 594              		.loc 1 243 25 view .LVU158
 595 009e C2F58052 		rsb	r2, r2, #4096
 243:Drivers/BSP/STM32746G-Discovery/stm32746g_discovery_ts.c ****       }
 596              		.loc 1 243 18 view .LVU159
 597 00a2 21F80C2C 		strh	r2, [r1, #-12]	@ movhi
 598              	.L37:
 246:Drivers/BSP/STM32746G-Discovery/stm32746g_discovery_ts.c ****       {
 599              		.loc 1 246 7 is_stmt 1 view .LVU160
 246:Drivers/BSP/STM32746G-Discovery/stm32746g_discovery_ts.c ****       {
 600              		.loc 1 246 9 is_stmt 0 view .LVU161
 601 00a6 13F0040F 		tst	r3, #4
 602 00aa 08D0     		beq	.L38
 248:Drivers/BSP/STM32746G-Discovery/stm32746g_discovery_ts.c ****       }
 603              		.loc 1 248 9 is_stmt 1 view .LVU162
 248:Drivers/BSP/STM32746G-Discovery/stm32746g_discovery_ts.c ****       }
 604              		.loc 1 248 34 is_stmt 0 view .LVU163
 605 00ac 12AA     		add	r2, sp, #72
 606 00ae 02EB4401 		add	r1, r2, r4, lsl #1
 607 00b2 31F8302C 		ldrh	r2, [r1, #-48]
 248:Drivers/BSP/STM32746G-Discovery/stm32746g_discovery_ts.c ****       }
 608              		.loc 1 248 25 view .LVU164
 609 00b6 C2F58052 		rsb	r2, r2, #4096
 248:Drivers/BSP/STM32746G-Discovery/stm32746g_discovery_ts.c ****       }
 610              		.loc 1 248 18 view .LVU165
 611 00ba 21F8182C 		strh	r2, [r1, #-24]	@ movhi
 612              	.L38:
 251:Drivers/BSP/STM32746G-Discovery/stm32746g_discovery_ts.c ****       {
 613              		.loc 1 251 7 is_stmt 1 view .LVU166
 251:Drivers/BSP/STM32746G-Discovery/stm32746g_discovery_ts.c ****       {
 614              		.loc 1 251 9 is_stmt 0 view .LVU167
 615 00be 13F0080F 		tst	r3, #8
 616 00c2 0AD0     		beq	.L39
 253:Drivers/BSP/STM32746G-Discovery/stm32746g_discovery_ts.c ****         x[index] = brute_y[index];
 617              		.loc 1 253 9 is_stmt 1 view .LVU168
 253:Drivers/BSP/STM32746G-Discovery/stm32746g_discovery_ts.c ****         x[index] = brute_y[index];
 618              		.loc 1 253 27 is_stmt 0 view .LVU169
ARM GAS  /tmp/cctN4fdd.s 			page 20


 619 00c4 12AB     		add	r3, sp, #72
 620 00c6 03EB4403 		add	r3, r3, r4, lsl #1
 621 00ca 33F8242C 		ldrh	r2, [r3, #-36]
 253:Drivers/BSP/STM32746G-Discovery/stm32746g_discovery_ts.c ****         x[index] = brute_y[index];
 622              		.loc 1 253 18 view .LVU170
 623 00ce 23F8182C 		strh	r2, [r3, #-24]	@ movhi
 254:Drivers/BSP/STM32746G-Discovery/stm32746g_discovery_ts.c ****       }
 624              		.loc 1 254 9 is_stmt 1 view .LVU171
 254:Drivers/BSP/STM32746G-Discovery/stm32746g_discovery_ts.c ****       }
 625              		.loc 1 254 27 is_stmt 0 view .LVU172
 626 00d2 33F8302C 		ldrh	r2, [r3, #-48]
 254:Drivers/BSP/STM32746G-Discovery/stm32746g_discovery_ts.c ****       }
 627              		.loc 1 254 18 view .LVU173
 628 00d6 23F80C2C 		strh	r2, [r3, #-12]	@ movhi
 629              	.L39:
 257:Drivers/BSP/STM32746G-Discovery/stm32746g_discovery_ts.c ****       y_diff = y[index] > _y[index]? (y[index] - _y[index]): (_y[index] - y[index]);
 630              		.loc 1 257 7 is_stmt 1 view .LVU174
 257:Drivers/BSP/STM32746G-Discovery/stm32746g_discovery_ts.c ****       y_diff = y[index] > _y[index]? (y[index] - _y[index]): (_y[index] - y[index]);
 631              		.loc 1 257 17 is_stmt 0 view .LVU175
 632 00da 12AB     		add	r3, sp, #72
 633 00dc 03EB4403 		add	r3, r3, r4, lsl #1
 634 00e0 33F80C1C 		ldrh	r1, [r3, #-12]
 257:Drivers/BSP/STM32746G-Discovery/stm32746g_discovery_ts.c ****       y_diff = y[index] > _y[index]? (y[index] - _y[index]): (_y[index] - y[index]);
 635              		.loc 1 257 29 view .LVU176
 636 00e4 364B     		ldr	r3, .L60+12
 637 00e6 53F82430 		ldr	r3, [r3, r4, lsl #2]
 257:Drivers/BSP/STM32746G-Discovery/stm32746g_discovery_ts.c ****       y_diff = y[index] > _y[index]? (y[index] - _y[index]): (_y[index] - y[index]);
 638              		.loc 1 257 14 view .LVU177
 639 00ea 9942     		cmp	r1, r3
 640 00ec A7D9     		bls	.L40
 257:Drivers/BSP/STM32746G-Discovery/stm32746g_discovery_ts.c ****       y_diff = y[index] > _y[index]? (y[index] - _y[index]): (_y[index] - y[index]);
 641              		.loc 1 257 48 discriminator 1 view .LVU178
 642 00ee 9BB2     		uxth	r3, r3
 257:Drivers/BSP/STM32746G-Discovery/stm32746g_discovery_ts.c ****       y_diff = y[index] > _y[index]? (y[index] - _y[index]): (_y[index] - y[index]);
 643              		.loc 1 257 14 discriminator 1 view .LVU179
 644 00f0 CB1A     		subs	r3, r1, r3
 645 00f2 9BB2     		uxth	r3, r3
 646              	.L41:
 647              	.LVL30:
 258:Drivers/BSP/STM32746G-Discovery/stm32746g_discovery_ts.c **** 
 648              		.loc 1 258 7 is_stmt 1 view .LVU180
 258:Drivers/BSP/STM32746G-Discovery/stm32746g_discovery_ts.c **** 
 649              		.loc 1 258 17 is_stmt 0 view .LVU181
 650 00f4 12AA     		add	r2, sp, #72
 651 00f6 02EB4402 		add	r2, r2, r4, lsl #1
 652 00fa 32F8186C 		ldrh	r6, [r2, #-24]
 258:Drivers/BSP/STM32746G-Discovery/stm32746g_discovery_ts.c **** 
 653              		.loc 1 258 29 view .LVU182
 654 00fe 314A     		ldr	r2, .L60+16
 655 0100 52F82420 		ldr	r2, [r2, r4, lsl #2]
 258:Drivers/BSP/STM32746G-Discovery/stm32746g_discovery_ts.c **** 
 656              		.loc 1 258 14 view .LVU183
 657 0104 9642     		cmp	r6, r2
 658 0106 9ED9     		bls	.L42
 258:Drivers/BSP/STM32746G-Discovery/stm32746g_discovery_ts.c **** 
 659              		.loc 1 258 48 discriminator 1 view .LVU184
 660 0108 92B2     		uxth	r2, r2
ARM GAS  /tmp/cctN4fdd.s 			page 21


 258:Drivers/BSP/STM32746G-Discovery/stm32746g_discovery_ts.c **** 
 661              		.loc 1 258 14 discriminator 1 view .LVU185
 662 010a B21A     		subs	r2, r6, r2
 663 010c 92B2     		uxth	r2, r2
 664              	.L43:
 665              	.LVL31:
 260:Drivers/BSP/STM32746G-Discovery/stm32746g_discovery_ts.c ****       {
 666              		.loc 1 260 7 is_stmt 1 view .LVU186
 260:Drivers/BSP/STM32746G-Discovery/stm32746g_discovery_ts.c ****       {
 667              		.loc 1 260 19 is_stmt 0 view .LVU187
 668 010e 1344     		add	r3, r3, r2
 669              	.LVL32:
 260:Drivers/BSP/STM32746G-Discovery/stm32746g_discovery_ts.c ****       {
 670              		.loc 1 260 10 view .LVU188
 671 0110 052B     		cmp	r3, #5
 672 0112 05DD     		ble	.L44
 262:Drivers/BSP/STM32746G-Discovery/stm32746g_discovery_ts.c ****         _y[index] = y[index];
 673              		.loc 1 262 9 is_stmt 1 view .LVU189
 262:Drivers/BSP/STM32746G-Discovery/stm32746g_discovery_ts.c ****         _y[index] = y[index];
 674              		.loc 1 262 19 is_stmt 0 view .LVU190
 675 0114 2A4B     		ldr	r3, .L60+12
 676 0116 43F82410 		str	r1, [r3, r4, lsl #2]
 263:Drivers/BSP/STM32746G-Discovery/stm32746g_discovery_ts.c ****       }
 677              		.loc 1 263 9 is_stmt 1 view .LVU191
 263:Drivers/BSP/STM32746G-Discovery/stm32746g_discovery_ts.c ****       }
 678              		.loc 1 263 19 is_stmt 0 view .LVU192
 679 011a 2A4B     		ldr	r3, .L60+16
 680 011c 43F82460 		str	r6, [r3, r4, lsl #2]
 681              	.L44:
 266:Drivers/BSP/STM32746G-Discovery/stm32746g_discovery_ts.c ****       {
 682              		.loc 1 266 7 is_stmt 1 view .LVU193
 266:Drivers/BSP/STM32746G-Discovery/stm32746g_discovery_ts.c ****       {
 683              		.loc 1 266 21 is_stmt 0 view .LVU194
 684 0120 254B     		ldr	r3, .L60+4
 685 0122 1878     		ldrb	r0, [r3]	@ zero_extendqisi2
 266:Drivers/BSP/STM32746G-Discovery/stm32746g_discovery_ts.c ****       {
 686              		.loc 1 266 9 view .LVU195
 687 0124 7028     		cmp	r0, #112
 688 0126 92D0     		beq	.L59
 274:Drivers/BSP/STM32746G-Discovery/stm32746g_discovery_ts.c ****         TS_State->touchY[index] = (tsYBoundary * _y[index]) >> 12;
 689              		.loc 1 274 9 is_stmt 1 view .LVU196
 274:Drivers/BSP/STM32746G-Discovery/stm32746g_discovery_ts.c ****         TS_State->touchY[index] = (tsYBoundary * _y[index]) >> 12;
 690              		.loc 1 274 52 is_stmt 0 view .LVU197
 691 0128 254B     		ldr	r3, .L60+12
 692 012a 53F82420 		ldr	r2, [r3, r4, lsl #2]
 693              	.LVL33:
 274:Drivers/BSP/STM32746G-Discovery/stm32746g_discovery_ts.c ****         TS_State->touchY[index] = (tsYBoundary * _y[index]) >> 12;
 694              		.loc 1 274 48 view .LVU198
 695 012e 264B     		ldr	r3, .L60+20
 696 0130 1B88     		ldrh	r3, [r3]
 697 0132 02FB03F3 		mul	r3, r2, r3
 274:Drivers/BSP/STM32746G-Discovery/stm32746g_discovery_ts.c ****         TS_State->touchY[index] = (tsYBoundary * _y[index]) >> 12;
 698              		.loc 1 274 61 view .LVU199
 699 0136 1B0B     		lsrs	r3, r3, #12
 274:Drivers/BSP/STM32746G-Discovery/stm32746g_discovery_ts.c ****         TS_State->touchY[index] = (tsYBoundary * _y[index]) >> 12;
 700              		.loc 1 274 33 view .LVU200
 701 0138 05EB4402 		add	r2, r5, r4, lsl #1
ARM GAS  /tmp/cctN4fdd.s 			page 22


 702 013c 5380     		strh	r3, [r2, #2]	@ movhi
 275:Drivers/BSP/STM32746G-Discovery/stm32746g_discovery_ts.c ****       }
 703              		.loc 1 275 9 is_stmt 1 view .LVU201
 275:Drivers/BSP/STM32746G-Discovery/stm32746g_discovery_ts.c ****       }
 704              		.loc 1 275 52 is_stmt 0 view .LVU202
 705 013e 214B     		ldr	r3, .L60+16
 706 0140 53F82420 		ldr	r2, [r3, r4, lsl #2]
 275:Drivers/BSP/STM32746G-Discovery/stm32746g_discovery_ts.c ****       }
 707              		.loc 1 275 48 view .LVU203
 708 0144 214B     		ldr	r3, .L60+24
 709 0146 1B88     		ldrh	r3, [r3]
 710 0148 02FB03F3 		mul	r3, r2, r3
 275:Drivers/BSP/STM32746G-Discovery/stm32746g_discovery_ts.c ****       }
 711              		.loc 1 275 61 view .LVU204
 712 014c 1B0B     		lsrs	r3, r3, #12
 275:Drivers/BSP/STM32746G-Discovery/stm32746g_discovery_ts.c ****       }
 713              		.loc 1 275 33 view .LVU205
 714 014e 221D     		adds	r2, r4, #4
 715 0150 05EB4202 		add	r2, r5, r2, lsl #1
 716 0154 9380     		strh	r3, [r2, #4]	@ movhi
 717              	.L46:
 281:Drivers/BSP/STM32746G-Discovery/stm32746g_discovery_ts.c **** 
 718              		.loc 1 281 7 is_stmt 1 view .LVU206
 719 0156 03AB     		add	r3, sp, #12
 720 0158 0093     		str	r3, [sp]
 721 015a 04AB     		add	r3, sp, #16
 722 015c 05AA     		add	r2, sp, #20
 723 015e 2146     		mov	r1, r4
 724 0160 FFF7FEFF 		bl	ft5336_TS_GetTouchInfo
 725              	.LVL34:
 284:Drivers/BSP/STM32746G-Discovery/stm32746g_discovery_ts.c ****       TS_State->touchArea[index]   = area;
 726              		.loc 1 284 7 view .LVU207
 284:Drivers/BSP/STM32746G-Discovery/stm32746g_discovery_ts.c ****       TS_State->touchArea[index]   = area;
 727              		.loc 1 284 36 is_stmt 0 view .LVU208
 728 0164 2B19     		adds	r3, r5, r4
 729 0166 059A     		ldr	r2, [sp, #20]
 730 0168 9A75     		strb	r2, [r3, #22]
 285:Drivers/BSP/STM32746G-Discovery/stm32746g_discovery_ts.c **** 
 731              		.loc 1 285 7 is_stmt 1 view .LVU209
 285:Drivers/BSP/STM32746G-Discovery/stm32746g_discovery_ts.c **** 
 732              		.loc 1 285 36 is_stmt 0 view .LVU210
 733 016a 049A     		ldr	r2, [sp, #16]
 734 016c 83F82020 		strb	r2, [r3, #32]
 288:Drivers/BSP/STM32746G-Discovery/stm32746g_discovery_ts.c ****       {
 735              		.loc 1 288 7 is_stmt 1 view .LVU211
 736 0170 039B     		ldr	r3, [sp, #12]
 737 0172 032B     		cmp	r3, #3
 738 0174 3FF676AF 		bhi	.L47
 739 0178 01A2     		adr	r2, .L49
 740 017a 52F823F0 		ldr	pc, [r2, r3, lsl #2]
 741 017e 00BF     		.p2align 2
 742              	.L49:
 743 0180 5F000000 		.word	.L52+1
 744 0184 91010000 		.word	.L51+1
 745 0188 99010000 		.word	.L50+1
 746 018c A1010000 		.word	.L48+1
 747              		.p2align 1
ARM GAS  /tmp/cctN4fdd.s 			page 23


 748              	.L51:
 294:Drivers/BSP/STM32746G-Discovery/stm32746g_discovery_ts.c ****           break;
 749              		.loc 1 294 11 view .LVU212
 294:Drivers/BSP/STM32746G-Discovery/stm32746g_discovery_ts.c ****           break;
 750              		.loc 1 294 41 is_stmt 0 view .LVU213
 751 0190 2B19     		adds	r3, r5, r4
 752 0192 0222     		movs	r2, #2
 753 0194 DA76     		strb	r2, [r3, #27]
 295:Drivers/BSP/STM32746G-Discovery/stm32746g_discovery_ts.c ****         case FT5336_TOUCH_EVT_FLAG_CONTACT :
 754              		.loc 1 295 11 is_stmt 1 view .LVU214
 755 0196 65E7     		b	.L47
 756              	.L50:
 297:Drivers/BSP/STM32746G-Discovery/stm32746g_discovery_ts.c ****           break;
 757              		.loc 1 297 11 view .LVU215
 297:Drivers/BSP/STM32746G-Discovery/stm32746g_discovery_ts.c ****           break;
 758              		.loc 1 297 41 is_stmt 0 view .LVU216
 759 0198 2B19     		adds	r3, r5, r4
 760 019a 0322     		movs	r2, #3
 761 019c DA76     		strb	r2, [r3, #27]
 298:Drivers/BSP/STM32746G-Discovery/stm32746g_discovery_ts.c ****         case FT5336_TOUCH_EVT_FLAG_NO_EVENT :
 762              		.loc 1 298 11 is_stmt 1 view .LVU217
 763 019e 61E7     		b	.L47
 764              	.L48:
 300:Drivers/BSP/STM32746G-Discovery/stm32746g_discovery_ts.c ****           break;
 765              		.loc 1 300 11 view .LVU218
 300:Drivers/BSP/STM32746G-Discovery/stm32746g_discovery_ts.c ****           break;
 766              		.loc 1 300 41 is_stmt 0 view .LVU219
 767 01a0 2B19     		adds	r3, r5, r4
 768 01a2 0022     		movs	r2, #0
 769 01a4 DA76     		strb	r2, [r3, #27]
 301:Drivers/BSP/STM32746G-Discovery/stm32746g_discovery_ts.c ****         default :
 770              		.loc 1 301 11 is_stmt 1 view .LVU220
 771 01a6 5DE7     		b	.L47
 772              	.LVL35:
 773              	.L54:
 230:Drivers/BSP/STM32746G-Discovery/stm32746g_discovery_ts.c ****     {
 774              		.loc 1 230 14 is_stmt 0 view .LVU221
 775 01a8 0024     		movs	r4, #0
 776 01aa 5CE7     		b	.L34
 777              	.LVL36:
 778              	.L57:
 313:Drivers/BSP/STM32746G-Discovery/stm32746g_discovery_ts.c **** #endif /* TS_MULTI_TOUCH_SUPPORTED == 1 */
 779              		.loc 1 313 5 is_stmt 1 view .LVU222
 313:Drivers/BSP/STM32746G-Discovery/stm32746g_discovery_ts.c **** #endif /* TS_MULTI_TOUCH_SUPPORTED == 1 */
 780              		.loc 1 313 17 is_stmt 0 view .LVU223
 781 01ac 2846     		mov	r0, r5
 782 01ae FFF7FEFF 		bl	BSP_TS_Get_GestureId
 783              	.LVL37:
 784 01b2 36E7     		b	.L35
 785              	.L61:
 786              		.align	2
 787              	.L60:
 788 01b4 00000000 		.word	tsDriver
 789 01b8 00000000 		.word	I2cAddress
 790 01bc 00000000 		.word	tsOrientation
 791 01c0 00000000 		.word	_x.1
 792 01c4 00000000 		.word	_y.0
ARM GAS  /tmp/cctN4fdd.s 			page 24


 793 01c8 00000000 		.word	tsXBoundary
 794 01cc 00000000 		.word	tsYBoundary
 795              		.cfi_endproc
 796              	.LFE145:
 798              		.section	.text.BSP_TS_ITClear,"ax",%progbits
 799              		.align	1
 800              		.global	BSP_TS_ITClear
 801              		.syntax unified
 802              		.thumb
 803              		.thumb_func
 805              	BSP_TS_ITClear:
 806              	.LFB147:
 366:Drivers/BSP/STM32746G-Discovery/stm32746g_discovery_ts.c **** #endif /* TS_MULTI_TOUCH_SUPPORTED == 1 */
 367:Drivers/BSP/STM32746G-Discovery/stm32746g_discovery_ts.c **** 
 368:Drivers/BSP/STM32746G-Discovery/stm32746g_discovery_ts.c **** /**
 369:Drivers/BSP/STM32746G-Discovery/stm32746g_discovery_ts.c ****   * @brief  Clears all touch screen interrupts.
 370:Drivers/BSP/STM32746G-Discovery/stm32746g_discovery_ts.c ****   */
 371:Drivers/BSP/STM32746G-Discovery/stm32746g_discovery_ts.c **** void BSP_TS_ITClear(void)
 372:Drivers/BSP/STM32746G-Discovery/stm32746g_discovery_ts.c **** {
 807              		.loc 1 372 1 is_stmt 1 view -0
 808              		.cfi_startproc
 809              		@ args = 0, pretend = 0, frame = 0
 810              		@ frame_needed = 0, uses_anonymous_args = 0
 811 0000 08B5     		push	{r3, lr}
 812              	.LCFI12:
 813              		.cfi_def_cfa_offset 8
 814              		.cfi_offset 3, -8
 815              		.cfi_offset 14, -4
 373:Drivers/BSP/STM32746G-Discovery/stm32746g_discovery_ts.c ****   /* Clear TS IT pending bits */
 374:Drivers/BSP/STM32746G-Discovery/stm32746g_discovery_ts.c ****   tsDriver->ClearIT(I2cAddress); 
 816              		.loc 1 374 3 view .LVU225
 817              		.loc 1 374 11 is_stmt 0 view .LVU226
 818 0002 034B     		ldr	r3, .L64
 819 0004 1B68     		ldr	r3, [r3]
 820 0006 DB69     		ldr	r3, [r3, #28]
 821              		.loc 1 374 3 view .LVU227
 822 0008 024A     		ldr	r2, .L64+4
 823 000a 1078     		ldrb	r0, [r2]	@ zero_extendqisi2
 824 000c 9847     		blx	r3
 825              	.LVL38:
 375:Drivers/BSP/STM32746G-Discovery/stm32746g_discovery_ts.c **** }
 826              		.loc 1 375 1 view .LVU228
 827 000e 08BD     		pop	{r3, pc}
 828              	.L65:
 829              		.align	2
 830              	.L64:
 831 0010 00000000 		.word	tsDriver
 832 0014 00000000 		.word	I2cAddress
 833              		.cfi_endproc
 834              	.LFE147:
 836              		.section	.text.BSP_TS_ResetTouchData,"ax",%progbits
 837              		.align	1
 838              		.global	BSP_TS_ResetTouchData
 839              		.syntax unified
 840              		.thumb
 841              		.thumb_func
 843              	BSP_TS_ResetTouchData:
ARM GAS  /tmp/cctN4fdd.s 			page 25


 844              	.LVL39:
 845              	.LFB148:
 376:Drivers/BSP/STM32746G-Discovery/stm32746g_discovery_ts.c **** 
 377:Drivers/BSP/STM32746G-Discovery/stm32746g_discovery_ts.c **** 
 378:Drivers/BSP/STM32746G-Discovery/stm32746g_discovery_ts.c **** /** @defgroup STM32756G_DISCOVERY_TS_Private_Functions TS Private Functions
 379:Drivers/BSP/STM32746G-Discovery/stm32746g_discovery_ts.c ****   * @{
 380:Drivers/BSP/STM32746G-Discovery/stm32746g_discovery_ts.c ****   */
 381:Drivers/BSP/STM32746G-Discovery/stm32746g_discovery_ts.c **** 
 382:Drivers/BSP/STM32746G-Discovery/stm32746g_discovery_ts.c **** 
 383:Drivers/BSP/STM32746G-Discovery/stm32746g_discovery_ts.c **** /**
 384:Drivers/BSP/STM32746G-Discovery/stm32746g_discovery_ts.c ****   * @brief  Function used to reset all touch data before a new acquisition
 385:Drivers/BSP/STM32746G-Discovery/stm32746g_discovery_ts.c ****   *         of touch information.
 386:Drivers/BSP/STM32746G-Discovery/stm32746g_discovery_ts.c ****   * @param  TS_State: Pointer to touch screen current state structure
 387:Drivers/BSP/STM32746G-Discovery/stm32746g_discovery_ts.c ****   * @retval TS_OK if OK, TE_ERROR if problem found.
 388:Drivers/BSP/STM32746G-Discovery/stm32746g_discovery_ts.c ****   */
 389:Drivers/BSP/STM32746G-Discovery/stm32746g_discovery_ts.c **** uint8_t BSP_TS_ResetTouchData(TS_StateTypeDef *TS_State)
 390:Drivers/BSP/STM32746G-Discovery/stm32746g_discovery_ts.c **** {
 846              		.loc 1 390 1 is_stmt 1 view -0
 847              		.cfi_startproc
 848              		@ args = 0, pretend = 0, frame = 0
 849              		@ frame_needed = 0, uses_anonymous_args = 0
 850              		@ link register save eliminated.
 391:Drivers/BSP/STM32746G-Discovery/stm32746g_discovery_ts.c ****   uint8_t ts_status = TS_ERROR;
 851              		.loc 1 391 3 view .LVU230
 392:Drivers/BSP/STM32746G-Discovery/stm32746g_discovery_ts.c ****   uint32_t index;
 852              		.loc 1 392 3 view .LVU231
 393:Drivers/BSP/STM32746G-Discovery/stm32746g_discovery_ts.c **** 
 394:Drivers/BSP/STM32746G-Discovery/stm32746g_discovery_ts.c ****   if (TS_State != (TS_StateTypeDef *)NULL)
 853              		.loc 1 394 3 view .LVU232
 854              		.loc 1 394 6 is_stmt 0 view .LVU233
 855 0000 8446     		mov	ip, r0
 856 0002 B0B1     		cbz	r0, .L70
 395:Drivers/BSP/STM32746G-Discovery/stm32746g_discovery_ts.c ****   {
 396:Drivers/BSP/STM32746G-Discovery/stm32746g_discovery_ts.c ****     TS_State->gestureId = GEST_ID_NO_GESTURE;
 857              		.loc 1 396 5 is_stmt 1 view .LVU234
 858              		.loc 1 396 25 is_stmt 0 view .LVU235
 859 0004 0023     		movs	r3, #0
 860 0006 8362     		str	r3, [r0, #40]
 397:Drivers/BSP/STM32746G-Discovery/stm32746g_discovery_ts.c ****     TS_State->touchDetected = 0;
 861              		.loc 1 397 5 is_stmt 1 view .LVU236
 862              		.loc 1 397 29 is_stmt 0 view .LVU237
 863 0008 0370     		strb	r3, [r0]
 398:Drivers/BSP/STM32746G-Discovery/stm32746g_discovery_ts.c **** 
 399:Drivers/BSP/STM32746G-Discovery/stm32746g_discovery_ts.c ****     for(index = 0; index < TS_MAX_NB_TOUCH; index++)
 864              		.loc 1 399 5 is_stmt 1 view .LVU238
 865              	.LVL40:
 866              		.loc 1 399 5 is_stmt 0 view .LVU239
 867 000a 0EE0     		b	.L68
 868              	.LVL41:
 869              	.L69:
 400:Drivers/BSP/STM32746G-Discovery/stm32746g_discovery_ts.c ****     {
 401:Drivers/BSP/STM32746G-Discovery/stm32746g_discovery_ts.c ****       TS_State->touchX[index]       = 0;
 870              		.loc 1 401 7 is_stmt 1 view .LVU240
 871              		.loc 1 401 37 is_stmt 0 view .LVU241
 872 000c 0CEB4301 		add	r1, ip, r3, lsl #1
 873 0010 0022     		movs	r2, #0
 874 0012 4A80     		strh	r2, [r1, #2]	@ movhi
ARM GAS  /tmp/cctN4fdd.s 			page 26


 402:Drivers/BSP/STM32746G-Discovery/stm32746g_discovery_ts.c ****       TS_State->touchY[index]       = 0;
 875              		.loc 1 402 7 is_stmt 1 view .LVU242
 876              		.loc 1 402 37 is_stmt 0 view .LVU243
 877 0014 191D     		adds	r1, r3, #4
 878 0016 0CEB4101 		add	r1, ip, r1, lsl #1
 879 001a 8A80     		strh	r2, [r1, #4]	@ movhi
 403:Drivers/BSP/STM32746G-Discovery/stm32746g_discovery_ts.c ****       TS_State->touchArea[index]    = 0;
 880              		.loc 1 403 7 is_stmt 1 view .LVU244
 881              		.loc 1 403 37 is_stmt 0 view .LVU245
 882 001c 0CEB0301 		add	r1, ip, r3
 883 0020 81F82020 		strb	r2, [r1, #32]
 404:Drivers/BSP/STM32746G-Discovery/stm32746g_discovery_ts.c ****       TS_State->touchEventId[index] = TOUCH_EVENT_NO_EVT;
 884              		.loc 1 404 7 is_stmt 1 view .LVU246
 885              		.loc 1 404 37 is_stmt 0 view .LVU247
 886 0024 CA76     		strb	r2, [r1, #27]
 405:Drivers/BSP/STM32746G-Discovery/stm32746g_discovery_ts.c ****       TS_State->touchWeight[index]  = 0;
 887              		.loc 1 405 7 is_stmt 1 view .LVU248
 888              		.loc 1 405 37 is_stmt 0 view .LVU249
 889 0026 8A75     		strb	r2, [r1, #22]
 399:Drivers/BSP/STM32746G-Discovery/stm32746g_discovery_ts.c ****     {
 890              		.loc 1 399 50 is_stmt 1 discriminator 3 view .LVU250
 891 0028 0133     		adds	r3, r3, #1
 892              	.LVL42:
 893              	.L68:
 399:Drivers/BSP/STM32746G-Discovery/stm32746g_discovery_ts.c ****     {
 894              		.loc 1 399 26 discriminator 1 view .LVU251
 895 002a 042B     		cmp	r3, #4
 896 002c EED9     		bls	.L69
 406:Drivers/BSP/STM32746G-Discovery/stm32746g_discovery_ts.c ****     }
 407:Drivers/BSP/STM32746G-Discovery/stm32746g_discovery_ts.c **** 
 408:Drivers/BSP/STM32746G-Discovery/stm32746g_discovery_ts.c ****     ts_status = TS_OK;
 897              		.loc 1 408 15 is_stmt 0 view .LVU252
 898 002e 0020     		movs	r0, #0
 899              	.LVL43:
 900              		.loc 1 408 15 view .LVU253
 901 0030 7047     		bx	lr
 902              	.LVL44:
 903              	.L70:
 391:Drivers/BSP/STM32746G-Discovery/stm32746g_discovery_ts.c ****   uint32_t index;
 904              		.loc 1 391 11 view .LVU254
 905 0032 0120     		movs	r0, #1
 906              	.LVL45:
 409:Drivers/BSP/STM32746G-Discovery/stm32746g_discovery_ts.c **** 
 410:Drivers/BSP/STM32746G-Discovery/stm32746g_discovery_ts.c ****   } /* of if (TS_State != (TS_StateTypeDef *)NULL) */
 411:Drivers/BSP/STM32746G-Discovery/stm32746g_discovery_ts.c **** 
 412:Drivers/BSP/STM32746G-Discovery/stm32746g_discovery_ts.c ****   return (ts_status);
 907              		.loc 1 412 3 is_stmt 1 view .LVU255
 413:Drivers/BSP/STM32746G-Discovery/stm32746g_discovery_ts.c **** }
 908              		.loc 1 413 1 is_stmt 0 view .LVU256
 909 0034 7047     		bx	lr
 910              		.cfi_endproc
 911              	.LFE148:
 913              		.section	.bss._y.0,"aw",%nobits
 914              		.align	2
 917              	_y.0:
 918 0000 00000000 		.space	20
 918      00000000 
ARM GAS  /tmp/cctN4fdd.s 			page 27


 918      00000000 
 918      00000000 
 918      00000000 
 919              		.section	.bss._x.1,"aw",%nobits
 920              		.align	2
 923              	_x.1:
 924 0000 00000000 		.space	20
 924      00000000 
 924      00000000 
 924      00000000 
 924      00000000 
 925              		.section	.bss.I2cAddress,"aw",%nobits
 928              	I2cAddress:
 929 0000 00       		.space	1
 930              		.section	.bss.tsOrientation,"aw",%nobits
 933              	tsOrientation:
 934 0000 00       		.space	1
 935              		.section	.bss.tsYBoundary,"aw",%nobits
 936              		.align	1
 939              	tsYBoundary:
 940 0000 0000     		.space	2
 941              		.section	.bss.tsXBoundary,"aw",%nobits
 942              		.align	1
 945              	tsXBoundary:
 946 0000 0000     		.space	2
 947              		.section	.bss.tsDriver,"aw",%nobits
 948              		.align	2
 951              	tsDriver:
 952 0000 00000000 		.space	4
 953              		.text
 954              	.Letext0:
 955              		.file 2 "Drivers/CMSIS/Device/ST/STM32F7xx/Include/stm32f746xx.h"
 956              		.file 3 "/usr/arm-none-eabi/include/machine/_default_types.h"
 957              		.file 4 "/usr/arm-none-eabi/include/sys/_stdint.h"
 958              		.file 5 "Drivers/STM32F7xx_HAL_Driver/Inc/stm32f7xx_hal_gpio.h"
 959              		.file 6 "Drivers/BSP/STM32746G-Discovery/../Components/ft5336/../Common/ts.h"
 960              		.file 7 "Drivers/BSP/STM32746G-Discovery/stm32746g_discovery_ts.h"
 961              		.file 8 "Drivers/BSP/STM32746G-Discovery/../Components/ft5336/ft5336.h"
 962              		.file 9 "Drivers/STM32F7xx_HAL_Driver/Inc/stm32f7xx_hal_cortex.h"
ARM GAS  /tmp/cctN4fdd.s 			page 28

