ARM GAS  /tmp/ccGVQGsk.s 			page 1


   1              		.cpu cortex-m7
   2              		.arch armv7e-m
   3              		.fpu fpv5-sp-d16
   4              		.eabi_attribute 27, 1
   5              		.eabi_attribute 28, 1
   6              		.eabi_attribute 20, 1
   7              		.eabi_attribute 21, 1
   8              		.eabi_attribute 23, 3
   9              		.eabi_attribute 24, 1
  10              		.eabi_attribute 25, 1
  11              		.eabi_attribute 26, 1
  12              		.eabi_attribute 30, 1
  13              		.eabi_attribute 34, 1
  14              		.eabi_attribute 18, 4
  15              		.file	"stm32746g_discovery.c"
  16              		.text
  17              	.Ltext0:
  18              		.cfi_sections	.debug_frame
  19              		.file 1 "Drivers/BSP/STM32746G-Discovery/stm32746g_discovery.c"
  20              		.section	.text.I2Cx_MspInit,"ax",%progbits
  21              		.align	1
  22              		.syntax unified
  23              		.thumb
  24              		.thumb_func
  26              	I2Cx_MspInit:
  27              	.LVL0:
  28              	.LFB152:
   1:Drivers/BSP/STM32746G-Discovery/stm32746g_discovery.c **** /**
   2:Drivers/BSP/STM32746G-Discovery/stm32746g_discovery.c ****   ******************************************************************************
   3:Drivers/BSP/STM32746G-Discovery/stm32746g_discovery.c ****   * @file    stm32746g_discovery.c
   4:Drivers/BSP/STM32746G-Discovery/stm32746g_discovery.c ****   * @author  MCD Application Team
   5:Drivers/BSP/STM32746G-Discovery/stm32746g_discovery.c ****   * @brief   This file provides a set of firmware functions to manage LEDs, 
   6:Drivers/BSP/STM32746G-Discovery/stm32746g_discovery.c ****   *          push-buttons and COM ports available on STM32746G-Discovery
   7:Drivers/BSP/STM32746G-Discovery/stm32746g_discovery.c ****   *          board(MB1191) from STMicroelectronics.
   8:Drivers/BSP/STM32746G-Discovery/stm32746g_discovery.c ****   ******************************************************************************
   9:Drivers/BSP/STM32746G-Discovery/stm32746g_discovery.c ****   * @attention
  10:Drivers/BSP/STM32746G-Discovery/stm32746g_discovery.c ****   *
  11:Drivers/BSP/STM32746G-Discovery/stm32746g_discovery.c ****   * Copyright (c) 2016 STMicroelectronics.
  12:Drivers/BSP/STM32746G-Discovery/stm32746g_discovery.c ****   * All rights reserved.
  13:Drivers/BSP/STM32746G-Discovery/stm32746g_discovery.c ****   *
  14:Drivers/BSP/STM32746G-Discovery/stm32746g_discovery.c ****   * This software is licensed under terms that can be found in the LICENSE file
  15:Drivers/BSP/STM32746G-Discovery/stm32746g_discovery.c ****   * in the root directory of this software component.
  16:Drivers/BSP/STM32746G-Discovery/stm32746g_discovery.c ****   * If no LICENSE file comes with this software, it is provided AS-IS.
  17:Drivers/BSP/STM32746G-Discovery/stm32746g_discovery.c ****   *
  18:Drivers/BSP/STM32746G-Discovery/stm32746g_discovery.c ****   ******************************************************************************
  19:Drivers/BSP/STM32746G-Discovery/stm32746g_discovery.c ****   */
  20:Drivers/BSP/STM32746G-Discovery/stm32746g_discovery.c **** 
  21:Drivers/BSP/STM32746G-Discovery/stm32746g_discovery.c **** /* Dependencies
  22:Drivers/BSP/STM32746G-Discovery/stm32746g_discovery.c **** - stm32f7xx_hal_cortex.c
  23:Drivers/BSP/STM32746G-Discovery/stm32746g_discovery.c **** - stm32f7xx_hal_gpio.c
  24:Drivers/BSP/STM32746G-Discovery/stm32746g_discovery.c **** - stm32f7xx_hal_uart.c
  25:Drivers/BSP/STM32746G-Discovery/stm32746g_discovery.c **** - stm32f7xx_hal_i2c.c
  26:Drivers/BSP/STM32746G-Discovery/stm32746g_discovery.c **** EndDependencies */
  27:Drivers/BSP/STM32746G-Discovery/stm32746g_discovery.c **** 
  28:Drivers/BSP/STM32746G-Discovery/stm32746g_discovery.c **** /* Includes ------------------------------------------------------------------*/
  29:Drivers/BSP/STM32746G-Discovery/stm32746g_discovery.c **** #include "stm32746g_discovery.h"
  30:Drivers/BSP/STM32746G-Discovery/stm32746g_discovery.c **** 
ARM GAS  /tmp/ccGVQGsk.s 			page 2


  31:Drivers/BSP/STM32746G-Discovery/stm32746g_discovery.c **** /** @addtogroup BSP
  32:Drivers/BSP/STM32746G-Discovery/stm32746g_discovery.c ****   * @{
  33:Drivers/BSP/STM32746G-Discovery/stm32746g_discovery.c ****   */ 
  34:Drivers/BSP/STM32746G-Discovery/stm32746g_discovery.c **** 
  35:Drivers/BSP/STM32746G-Discovery/stm32746g_discovery.c **** /** @addtogroup STM32746G_DISCOVERY
  36:Drivers/BSP/STM32746G-Discovery/stm32746g_discovery.c ****   * @{
  37:Drivers/BSP/STM32746G-Discovery/stm32746g_discovery.c ****   */
  38:Drivers/BSP/STM32746G-Discovery/stm32746g_discovery.c **** 
  39:Drivers/BSP/STM32746G-Discovery/stm32746g_discovery.c **** /** @defgroup STM32746G_DISCOVERY_LOW_LEVEL STM32746G_DISCOVERY_LOW_LEVEL
  40:Drivers/BSP/STM32746G-Discovery/stm32746g_discovery.c ****   * @{
  41:Drivers/BSP/STM32746G-Discovery/stm32746g_discovery.c ****   */
  42:Drivers/BSP/STM32746G-Discovery/stm32746g_discovery.c **** 
  43:Drivers/BSP/STM32746G-Discovery/stm32746g_discovery.c **** /** @defgroup STM32746G_DISCOVERY_LOW_LEVEL_Private_TypesDefinitions STM32746G_DISCOVERY_LOW_LEVEL 
  44:Drivers/BSP/STM32746G-Discovery/stm32746g_discovery.c ****   * @{
  45:Drivers/BSP/STM32746G-Discovery/stm32746g_discovery.c ****   */
  46:Drivers/BSP/STM32746G-Discovery/stm32746g_discovery.c **** /**
  47:Drivers/BSP/STM32746G-Discovery/stm32746g_discovery.c ****   * @}
  48:Drivers/BSP/STM32746G-Discovery/stm32746g_discovery.c ****   */
  49:Drivers/BSP/STM32746G-Discovery/stm32746g_discovery.c **** 
  50:Drivers/BSP/STM32746G-Discovery/stm32746g_discovery.c **** /** @defgroup STM32746G_DISCOVERY_LOW_LEVEL_Private_Defines STM32746G_DISCOVERY_LOW_LEVEL Private D
  51:Drivers/BSP/STM32746G-Discovery/stm32746g_discovery.c ****   * @{
  52:Drivers/BSP/STM32746G-Discovery/stm32746g_discovery.c ****   */
  53:Drivers/BSP/STM32746G-Discovery/stm32746g_discovery.c **** /**
  54:Drivers/BSP/STM32746G-Discovery/stm32746g_discovery.c ****  * @brief STM32746G DISCOVERY BSP Driver version number
  55:Drivers/BSP/STM32746G-Discovery/stm32746g_discovery.c ****    */
  56:Drivers/BSP/STM32746G-Discovery/stm32746g_discovery.c **** #define __STM32746G_DISCO_BSP_VERSION_MAIN   (0x02) /*!< [31:24] main version */
  57:Drivers/BSP/STM32746G-Discovery/stm32746g_discovery.c **** #define __STM32746G_DISCO_BSP_VERSION_SUB1   (0x01) /*!< [23:16] sub1 version */
  58:Drivers/BSP/STM32746G-Discovery/stm32746g_discovery.c **** #define __STM32746G_DISCO_BSP_VERSION_SUB2   (0x01) /*!< [15:8]  sub2 version */
  59:Drivers/BSP/STM32746G-Discovery/stm32746g_discovery.c **** #define __STM32746G_DISCO_BSP_VERSION_RC     (0x00) /*!< [7:0]  release candidate */
  60:Drivers/BSP/STM32746G-Discovery/stm32746g_discovery.c **** #define __STM32746G_DISCO_BSP_VERSION         ((__STM32746G_DISCO_BSP_VERSION_MAIN << 24)\
  61:Drivers/BSP/STM32746G-Discovery/stm32746g_discovery.c ****                                              |(__STM32746G_DISCO_BSP_VERSION_SUB1 << 16)\
  62:Drivers/BSP/STM32746G-Discovery/stm32746g_discovery.c ****                                              |(__STM32746G_DISCO_BSP_VERSION_SUB2 << 8 )\
  63:Drivers/BSP/STM32746G-Discovery/stm32746g_discovery.c ****                                              |(__STM32746G_DISCO_BSP_VERSION_RC))
  64:Drivers/BSP/STM32746G-Discovery/stm32746g_discovery.c **** /**
  65:Drivers/BSP/STM32746G-Discovery/stm32746g_discovery.c ****   * @}
  66:Drivers/BSP/STM32746G-Discovery/stm32746g_discovery.c ****   */
  67:Drivers/BSP/STM32746G-Discovery/stm32746g_discovery.c **** 
  68:Drivers/BSP/STM32746G-Discovery/stm32746g_discovery.c **** /** @defgroup STM32746G_DISCOVERY_LOW_LEVEL_Private_Macros STM32746G_DISCOVERY_LOW_LEVEL Private Ma
  69:Drivers/BSP/STM32746G-Discovery/stm32746g_discovery.c ****   * @{
  70:Drivers/BSP/STM32746G-Discovery/stm32746g_discovery.c ****   */
  71:Drivers/BSP/STM32746G-Discovery/stm32746g_discovery.c **** /**
  72:Drivers/BSP/STM32746G-Discovery/stm32746g_discovery.c ****   * @}
  73:Drivers/BSP/STM32746G-Discovery/stm32746g_discovery.c ****   */
  74:Drivers/BSP/STM32746G-Discovery/stm32746g_discovery.c **** 
  75:Drivers/BSP/STM32746G-Discovery/stm32746g_discovery.c **** /** @defgroup STM32746G_DISCOVERY_LOW_LEVEL_Private_Variables STM32746G_DISCOVERY_LOW_LEVEL Private
  76:Drivers/BSP/STM32746G-Discovery/stm32746g_discovery.c ****   * @{
  77:Drivers/BSP/STM32746G-Discovery/stm32746g_discovery.c ****   */
  78:Drivers/BSP/STM32746G-Discovery/stm32746g_discovery.c **** 
  79:Drivers/BSP/STM32746G-Discovery/stm32746g_discovery.c **** const uint32_t GPIO_PIN[LEDn] = {LED1_PIN};
  80:Drivers/BSP/STM32746G-Discovery/stm32746g_discovery.c **** 
  81:Drivers/BSP/STM32746G-Discovery/stm32746g_discovery.c **** GPIO_TypeDef* BUTTON_PORT[BUTTONn] = {WAKEUP_BUTTON_GPIO_PORT,
  82:Drivers/BSP/STM32746G-Discovery/stm32746g_discovery.c ****                                       TAMPER_BUTTON_GPIO_PORT,
  83:Drivers/BSP/STM32746G-Discovery/stm32746g_discovery.c ****                                       KEY_BUTTON_GPIO_PORT};
  84:Drivers/BSP/STM32746G-Discovery/stm32746g_discovery.c **** 
  85:Drivers/BSP/STM32746G-Discovery/stm32746g_discovery.c **** const uint16_t BUTTON_PIN[BUTTONn] = {WAKEUP_BUTTON_PIN,
  86:Drivers/BSP/STM32746G-Discovery/stm32746g_discovery.c ****                                       TAMPER_BUTTON_PIN,
  87:Drivers/BSP/STM32746G-Discovery/stm32746g_discovery.c ****                                       KEY_BUTTON_PIN};
ARM GAS  /tmp/ccGVQGsk.s 			page 3


  88:Drivers/BSP/STM32746G-Discovery/stm32746g_discovery.c **** 
  89:Drivers/BSP/STM32746G-Discovery/stm32746g_discovery.c **** const uint16_t BUTTON_IRQn[BUTTONn] = {WAKEUP_BUTTON_EXTI_IRQn,
  90:Drivers/BSP/STM32746G-Discovery/stm32746g_discovery.c ****                                        TAMPER_BUTTON_EXTI_IRQn,
  91:Drivers/BSP/STM32746G-Discovery/stm32746g_discovery.c ****                                        KEY_BUTTON_EXTI_IRQn};
  92:Drivers/BSP/STM32746G-Discovery/stm32746g_discovery.c **** 
  93:Drivers/BSP/STM32746G-Discovery/stm32746g_discovery.c **** USART_TypeDef* COM_USART[COMn] = {DISCOVERY_COM1};
  94:Drivers/BSP/STM32746G-Discovery/stm32746g_discovery.c **** 
  95:Drivers/BSP/STM32746G-Discovery/stm32746g_discovery.c **** GPIO_TypeDef* COM_TX_PORT[COMn] = {DISCOVERY_COM1_TX_GPIO_PORT};
  96:Drivers/BSP/STM32746G-Discovery/stm32746g_discovery.c **** 
  97:Drivers/BSP/STM32746G-Discovery/stm32746g_discovery.c **** GPIO_TypeDef* COM_RX_PORT[COMn] = {DISCOVERY_COM1_RX_GPIO_PORT};
  98:Drivers/BSP/STM32746G-Discovery/stm32746g_discovery.c **** 
  99:Drivers/BSP/STM32746G-Discovery/stm32746g_discovery.c **** const uint16_t COM_TX_PIN[COMn] = {DISCOVERY_COM1_TX_PIN};
 100:Drivers/BSP/STM32746G-Discovery/stm32746g_discovery.c **** 
 101:Drivers/BSP/STM32746G-Discovery/stm32746g_discovery.c **** const uint16_t COM_RX_PIN[COMn] = {DISCOVERY_COM1_RX_PIN};
 102:Drivers/BSP/STM32746G-Discovery/stm32746g_discovery.c **** 
 103:Drivers/BSP/STM32746G-Discovery/stm32746g_discovery.c **** const uint16_t COM_TX_AF[COMn] = {DISCOVERY_COM1_TX_AF};
 104:Drivers/BSP/STM32746G-Discovery/stm32746g_discovery.c **** 
 105:Drivers/BSP/STM32746G-Discovery/stm32746g_discovery.c **** const uint16_t COM_RX_AF[COMn] = {DISCOVERY_COM1_RX_AF};
 106:Drivers/BSP/STM32746G-Discovery/stm32746g_discovery.c **** 
 107:Drivers/BSP/STM32746G-Discovery/stm32746g_discovery.c **** static I2C_HandleTypeDef hI2cAudioHandler = {0};
 108:Drivers/BSP/STM32746G-Discovery/stm32746g_discovery.c **** static I2C_HandleTypeDef hI2cExtHandler = {0};
 109:Drivers/BSP/STM32746G-Discovery/stm32746g_discovery.c **** 
 110:Drivers/BSP/STM32746G-Discovery/stm32746g_discovery.c **** /**
 111:Drivers/BSP/STM32746G-Discovery/stm32746g_discovery.c ****   * @}
 112:Drivers/BSP/STM32746G-Discovery/stm32746g_discovery.c ****   */
 113:Drivers/BSP/STM32746G-Discovery/stm32746g_discovery.c **** 
 114:Drivers/BSP/STM32746G-Discovery/stm32746g_discovery.c **** /** @defgroup STM32746G_DISCOVERY_LOW_LEVEL_Private_FunctionPrototypes STM32746G_DISCOVERY_LOW_LEVE
 115:Drivers/BSP/STM32746G-Discovery/stm32746g_discovery.c ****   * @{
 116:Drivers/BSP/STM32746G-Discovery/stm32746g_discovery.c ****   */
 117:Drivers/BSP/STM32746G-Discovery/stm32746g_discovery.c **** static void     I2Cx_MspInit(I2C_HandleTypeDef *i2c_handler);
 118:Drivers/BSP/STM32746G-Discovery/stm32746g_discovery.c **** static void     I2Cx_Init(I2C_HandleTypeDef *i2c_handler);
 119:Drivers/BSP/STM32746G-Discovery/stm32746g_discovery.c **** 
 120:Drivers/BSP/STM32746G-Discovery/stm32746g_discovery.c **** static HAL_StatusTypeDef I2Cx_ReadMultiple(I2C_HandleTypeDef *i2c_handler, uint8_t Addr, uint16_t R
 121:Drivers/BSP/STM32746G-Discovery/stm32746g_discovery.c **** static HAL_StatusTypeDef I2Cx_WriteMultiple(I2C_HandleTypeDef *i2c_handler, uint8_t Addr, uint16_t 
 122:Drivers/BSP/STM32746G-Discovery/stm32746g_discovery.c **** static HAL_StatusTypeDef I2Cx_IsDeviceReady(I2C_HandleTypeDef *i2c_handler, uint16_t DevAddress, ui
 123:Drivers/BSP/STM32746G-Discovery/stm32746g_discovery.c **** static void              I2Cx_Error(I2C_HandleTypeDef *i2c_handler, uint8_t Addr);
 124:Drivers/BSP/STM32746G-Discovery/stm32746g_discovery.c **** 
 125:Drivers/BSP/STM32746G-Discovery/stm32746g_discovery.c **** /* AUDIO IO functions */
 126:Drivers/BSP/STM32746G-Discovery/stm32746g_discovery.c **** void            AUDIO_IO_Init(void);
 127:Drivers/BSP/STM32746G-Discovery/stm32746g_discovery.c **** void            AUDIO_IO_DeInit(void);
 128:Drivers/BSP/STM32746G-Discovery/stm32746g_discovery.c **** void            AUDIO_IO_Write(uint8_t Addr, uint16_t Reg, uint16_t Value);
 129:Drivers/BSP/STM32746G-Discovery/stm32746g_discovery.c **** uint16_t        AUDIO_IO_Read(uint8_t Addr, uint16_t Reg);
 130:Drivers/BSP/STM32746G-Discovery/stm32746g_discovery.c **** void            AUDIO_IO_Delay(uint32_t Delay);
 131:Drivers/BSP/STM32746G-Discovery/stm32746g_discovery.c **** 
 132:Drivers/BSP/STM32746G-Discovery/stm32746g_discovery.c **** /* TOUCHSCREEN IO functions */
 133:Drivers/BSP/STM32746G-Discovery/stm32746g_discovery.c **** void            TS_IO_Init(void);
 134:Drivers/BSP/STM32746G-Discovery/stm32746g_discovery.c **** void            TS_IO_Write(uint8_t Addr, uint8_t Reg, uint8_t Value);
 135:Drivers/BSP/STM32746G-Discovery/stm32746g_discovery.c **** uint8_t         TS_IO_Read(uint8_t Addr, uint8_t Reg);
 136:Drivers/BSP/STM32746G-Discovery/stm32746g_discovery.c **** void            TS_IO_Delay(uint32_t Delay);
 137:Drivers/BSP/STM32746G-Discovery/stm32746g_discovery.c **** 
 138:Drivers/BSP/STM32746G-Discovery/stm32746g_discovery.c **** /* CAMERA IO functions */
 139:Drivers/BSP/STM32746G-Discovery/stm32746g_discovery.c **** void            CAMERA_IO_Init(void);
 140:Drivers/BSP/STM32746G-Discovery/stm32746g_discovery.c **** void            CAMERA_Delay(uint32_t Delay);
 141:Drivers/BSP/STM32746G-Discovery/stm32746g_discovery.c **** void            CAMERA_IO_Write(uint8_t Addr, uint8_t Reg, uint8_t Value);
 142:Drivers/BSP/STM32746G-Discovery/stm32746g_discovery.c **** uint8_t         CAMERA_IO_Read(uint8_t Addr, uint8_t Reg);
 143:Drivers/BSP/STM32746G-Discovery/stm32746g_discovery.c **** 
 144:Drivers/BSP/STM32746G-Discovery/stm32746g_discovery.c **** /* I2C EEPROM IO function */
ARM GAS  /tmp/ccGVQGsk.s 			page 4


 145:Drivers/BSP/STM32746G-Discovery/stm32746g_discovery.c **** void                EEPROM_IO_Init(void);
 146:Drivers/BSP/STM32746G-Discovery/stm32746g_discovery.c **** HAL_StatusTypeDef   EEPROM_IO_WriteData(uint16_t DevAddress, uint16_t MemAddress, uint8_t* pBuffer,
 147:Drivers/BSP/STM32746G-Discovery/stm32746g_discovery.c **** HAL_StatusTypeDef   EEPROM_IO_ReadData(uint16_t DevAddress, uint16_t MemAddress, uint8_t* pBuffer, 
 148:Drivers/BSP/STM32746G-Discovery/stm32746g_discovery.c **** HAL_StatusTypeDef   EEPROM_IO_IsDeviceReady(uint16_t DevAddress, uint32_t Trials);
 149:Drivers/BSP/STM32746G-Discovery/stm32746g_discovery.c **** /**
 150:Drivers/BSP/STM32746G-Discovery/stm32746g_discovery.c ****   * @}
 151:Drivers/BSP/STM32746G-Discovery/stm32746g_discovery.c ****   */
 152:Drivers/BSP/STM32746G-Discovery/stm32746g_discovery.c **** 
 153:Drivers/BSP/STM32746G-Discovery/stm32746g_discovery.c **** /** @defgroup STM32746G_DISCOVERY_LOW_LEVEL_Exported_Functions STM32746G_DISCOVERY_LOW_LEVELSTM3274
 154:Drivers/BSP/STM32746G-Discovery/stm32746g_discovery.c ****   * @{
 155:Drivers/BSP/STM32746G-Discovery/stm32746g_discovery.c ****   */ 
 156:Drivers/BSP/STM32746G-Discovery/stm32746g_discovery.c **** 
 157:Drivers/BSP/STM32746G-Discovery/stm32746g_discovery.c ****   /**
 158:Drivers/BSP/STM32746G-Discovery/stm32746g_discovery.c ****   * @brief  This method returns the STM32746G DISCOVERY BSP Driver revision
 159:Drivers/BSP/STM32746G-Discovery/stm32746g_discovery.c ****   * @retval version: 0xXYZR (8bits for each decimal, R for RC)
 160:Drivers/BSP/STM32746G-Discovery/stm32746g_discovery.c ****   */
 161:Drivers/BSP/STM32746G-Discovery/stm32746g_discovery.c **** uint32_t BSP_GetVersion(void)
 162:Drivers/BSP/STM32746G-Discovery/stm32746g_discovery.c **** {
 163:Drivers/BSP/STM32746G-Discovery/stm32746g_discovery.c ****   return __STM32746G_DISCO_BSP_VERSION;
 164:Drivers/BSP/STM32746G-Discovery/stm32746g_discovery.c **** }
 165:Drivers/BSP/STM32746G-Discovery/stm32746g_discovery.c **** 
 166:Drivers/BSP/STM32746G-Discovery/stm32746g_discovery.c **** /**
 167:Drivers/BSP/STM32746G-Discovery/stm32746g_discovery.c ****   * @brief  Configures LED on GPIO.
 168:Drivers/BSP/STM32746G-Discovery/stm32746g_discovery.c ****   * @param  Led: LED to be configured. 
 169:Drivers/BSP/STM32746G-Discovery/stm32746g_discovery.c ****   *          This parameter can be one of the following values:
 170:Drivers/BSP/STM32746G-Discovery/stm32746g_discovery.c ****   *            @arg  LED1
 171:Drivers/BSP/STM32746G-Discovery/stm32746g_discovery.c ****   * @retval None
 172:Drivers/BSP/STM32746G-Discovery/stm32746g_discovery.c ****   */
 173:Drivers/BSP/STM32746G-Discovery/stm32746g_discovery.c **** void BSP_LED_Init(Led_TypeDef Led)
 174:Drivers/BSP/STM32746G-Discovery/stm32746g_discovery.c **** {
 175:Drivers/BSP/STM32746G-Discovery/stm32746g_discovery.c ****   GPIO_InitTypeDef  gpio_init_structure;
 176:Drivers/BSP/STM32746G-Discovery/stm32746g_discovery.c ****   GPIO_TypeDef*     gpio_led;
 177:Drivers/BSP/STM32746G-Discovery/stm32746g_discovery.c **** 
 178:Drivers/BSP/STM32746G-Discovery/stm32746g_discovery.c ****   if (Led == LED1)
 179:Drivers/BSP/STM32746G-Discovery/stm32746g_discovery.c ****   {
 180:Drivers/BSP/STM32746G-Discovery/stm32746g_discovery.c ****     gpio_led = LED1_GPIO_PORT;
 181:Drivers/BSP/STM32746G-Discovery/stm32746g_discovery.c ****     /* Enable the GPIO_LED clock */
 182:Drivers/BSP/STM32746G-Discovery/stm32746g_discovery.c ****     LED1_GPIO_CLK_ENABLE();
 183:Drivers/BSP/STM32746G-Discovery/stm32746g_discovery.c **** 
 184:Drivers/BSP/STM32746G-Discovery/stm32746g_discovery.c ****     /* Configure the GPIO_LED pin */
 185:Drivers/BSP/STM32746G-Discovery/stm32746g_discovery.c ****     gpio_init_structure.Pin = GPIO_PIN[Led];
 186:Drivers/BSP/STM32746G-Discovery/stm32746g_discovery.c ****     gpio_init_structure.Mode = GPIO_MODE_OUTPUT_PP;
 187:Drivers/BSP/STM32746G-Discovery/stm32746g_discovery.c ****     gpio_init_structure.Pull = GPIO_PULLUP;
 188:Drivers/BSP/STM32746G-Discovery/stm32746g_discovery.c ****     gpio_init_structure.Speed = GPIO_SPEED_HIGH;
 189:Drivers/BSP/STM32746G-Discovery/stm32746g_discovery.c ****   
 190:Drivers/BSP/STM32746G-Discovery/stm32746g_discovery.c ****     HAL_GPIO_Init(gpio_led, &gpio_init_structure);
 191:Drivers/BSP/STM32746G-Discovery/stm32746g_discovery.c ****     
 192:Drivers/BSP/STM32746G-Discovery/stm32746g_discovery.c ****     /* By default, turn off LED */
 193:Drivers/BSP/STM32746G-Discovery/stm32746g_discovery.c ****     HAL_GPIO_WritePin(gpio_led, GPIO_PIN[Led], GPIO_PIN_RESET);
 194:Drivers/BSP/STM32746G-Discovery/stm32746g_discovery.c ****   }
 195:Drivers/BSP/STM32746G-Discovery/stm32746g_discovery.c **** }
 196:Drivers/BSP/STM32746G-Discovery/stm32746g_discovery.c **** 
 197:Drivers/BSP/STM32746G-Discovery/stm32746g_discovery.c **** /**
 198:Drivers/BSP/STM32746G-Discovery/stm32746g_discovery.c ****   * @brief  DeInit LEDs.
 199:Drivers/BSP/STM32746G-Discovery/stm32746g_discovery.c ****   * @param  Led: LED to be configured. 
 200:Drivers/BSP/STM32746G-Discovery/stm32746g_discovery.c ****   *          This parameter can be one of the following values:
 201:Drivers/BSP/STM32746G-Discovery/stm32746g_discovery.c ****   *            @arg  LED1
ARM GAS  /tmp/ccGVQGsk.s 			page 5


 202:Drivers/BSP/STM32746G-Discovery/stm32746g_discovery.c ****   * @note Led DeInit does not disable the GPIO clock
 203:Drivers/BSP/STM32746G-Discovery/stm32746g_discovery.c ****   * @retval None
 204:Drivers/BSP/STM32746G-Discovery/stm32746g_discovery.c ****   */
 205:Drivers/BSP/STM32746G-Discovery/stm32746g_discovery.c **** void BSP_LED_DeInit(Led_TypeDef Led)
 206:Drivers/BSP/STM32746G-Discovery/stm32746g_discovery.c **** {
 207:Drivers/BSP/STM32746G-Discovery/stm32746g_discovery.c ****   GPIO_InitTypeDef  gpio_init_structure;
 208:Drivers/BSP/STM32746G-Discovery/stm32746g_discovery.c ****   GPIO_TypeDef*     gpio_led;
 209:Drivers/BSP/STM32746G-Discovery/stm32746g_discovery.c **** 
 210:Drivers/BSP/STM32746G-Discovery/stm32746g_discovery.c ****   if (Led == LED1)
 211:Drivers/BSP/STM32746G-Discovery/stm32746g_discovery.c ****   {
 212:Drivers/BSP/STM32746G-Discovery/stm32746g_discovery.c ****     gpio_led = LED1_GPIO_PORT;
 213:Drivers/BSP/STM32746G-Discovery/stm32746g_discovery.c ****     /* Turn off LED */
 214:Drivers/BSP/STM32746G-Discovery/stm32746g_discovery.c ****     HAL_GPIO_WritePin(gpio_led, GPIO_PIN[Led], GPIO_PIN_RESET);
 215:Drivers/BSP/STM32746G-Discovery/stm32746g_discovery.c ****     /* Configure the GPIO_LED pin */
 216:Drivers/BSP/STM32746G-Discovery/stm32746g_discovery.c ****     gpio_init_structure.Pin = GPIO_PIN[Led];
 217:Drivers/BSP/STM32746G-Discovery/stm32746g_discovery.c ****     HAL_GPIO_DeInit(gpio_led, gpio_init_structure.Pin);
 218:Drivers/BSP/STM32746G-Discovery/stm32746g_discovery.c ****   }
 219:Drivers/BSP/STM32746G-Discovery/stm32746g_discovery.c **** }
 220:Drivers/BSP/STM32746G-Discovery/stm32746g_discovery.c **** 
 221:Drivers/BSP/STM32746G-Discovery/stm32746g_discovery.c **** /**
 222:Drivers/BSP/STM32746G-Discovery/stm32746g_discovery.c ****   * @brief  Turns selected LED On.
 223:Drivers/BSP/STM32746G-Discovery/stm32746g_discovery.c ****   * @param  Led: LED to be set on 
 224:Drivers/BSP/STM32746G-Discovery/stm32746g_discovery.c ****   *          This parameter can be one of the following values:
 225:Drivers/BSP/STM32746G-Discovery/stm32746g_discovery.c ****   *            @arg  LED1
 226:Drivers/BSP/STM32746G-Discovery/stm32746g_discovery.c ****   * @retval None
 227:Drivers/BSP/STM32746G-Discovery/stm32746g_discovery.c ****   */
 228:Drivers/BSP/STM32746G-Discovery/stm32746g_discovery.c **** void BSP_LED_On(Led_TypeDef Led)
 229:Drivers/BSP/STM32746G-Discovery/stm32746g_discovery.c **** {
 230:Drivers/BSP/STM32746G-Discovery/stm32746g_discovery.c ****   GPIO_TypeDef*     gpio_led;
 231:Drivers/BSP/STM32746G-Discovery/stm32746g_discovery.c **** 
 232:Drivers/BSP/STM32746G-Discovery/stm32746g_discovery.c ****   if (Led == LED1)	/* Switch On LED connected to GPIO */
 233:Drivers/BSP/STM32746G-Discovery/stm32746g_discovery.c ****   {
 234:Drivers/BSP/STM32746G-Discovery/stm32746g_discovery.c ****     gpio_led = LED1_GPIO_PORT;
 235:Drivers/BSP/STM32746G-Discovery/stm32746g_discovery.c ****     HAL_GPIO_WritePin(gpio_led, GPIO_PIN[Led], GPIO_PIN_SET);
 236:Drivers/BSP/STM32746G-Discovery/stm32746g_discovery.c ****   }
 237:Drivers/BSP/STM32746G-Discovery/stm32746g_discovery.c **** }
 238:Drivers/BSP/STM32746G-Discovery/stm32746g_discovery.c **** 
 239:Drivers/BSP/STM32746G-Discovery/stm32746g_discovery.c **** /**
 240:Drivers/BSP/STM32746G-Discovery/stm32746g_discovery.c ****   * @brief  Turns selected LED Off. 
 241:Drivers/BSP/STM32746G-Discovery/stm32746g_discovery.c ****   * @param  Led: LED to be set off
 242:Drivers/BSP/STM32746G-Discovery/stm32746g_discovery.c ****   *          This parameter can be one of the following values:
 243:Drivers/BSP/STM32746G-Discovery/stm32746g_discovery.c ****   *            @arg  LED1
 244:Drivers/BSP/STM32746G-Discovery/stm32746g_discovery.c ****   * @retval None
 245:Drivers/BSP/STM32746G-Discovery/stm32746g_discovery.c ****   */
 246:Drivers/BSP/STM32746G-Discovery/stm32746g_discovery.c **** void BSP_LED_Off(Led_TypeDef Led)
 247:Drivers/BSP/STM32746G-Discovery/stm32746g_discovery.c **** {
 248:Drivers/BSP/STM32746G-Discovery/stm32746g_discovery.c ****   GPIO_TypeDef*     gpio_led;
 249:Drivers/BSP/STM32746G-Discovery/stm32746g_discovery.c **** 
 250:Drivers/BSP/STM32746G-Discovery/stm32746g_discovery.c ****   if (Led == LED1) /* Switch Off LED connected to GPIO */
 251:Drivers/BSP/STM32746G-Discovery/stm32746g_discovery.c ****   {
 252:Drivers/BSP/STM32746G-Discovery/stm32746g_discovery.c ****     gpio_led = LED1_GPIO_PORT;
 253:Drivers/BSP/STM32746G-Discovery/stm32746g_discovery.c ****     HAL_GPIO_WritePin(gpio_led, GPIO_PIN[Led], GPIO_PIN_RESET);
 254:Drivers/BSP/STM32746G-Discovery/stm32746g_discovery.c ****   }
 255:Drivers/BSP/STM32746G-Discovery/stm32746g_discovery.c **** }
 256:Drivers/BSP/STM32746G-Discovery/stm32746g_discovery.c **** 
 257:Drivers/BSP/STM32746G-Discovery/stm32746g_discovery.c **** /**
 258:Drivers/BSP/STM32746G-Discovery/stm32746g_discovery.c ****   * @brief  Toggles the selected LED.
ARM GAS  /tmp/ccGVQGsk.s 			page 6


 259:Drivers/BSP/STM32746G-Discovery/stm32746g_discovery.c ****   * @param  Led: LED to be toggled
 260:Drivers/BSP/STM32746G-Discovery/stm32746g_discovery.c ****   *          This parameter can be one of the following values:
 261:Drivers/BSP/STM32746G-Discovery/stm32746g_discovery.c ****   *            @arg  LED1
 262:Drivers/BSP/STM32746G-Discovery/stm32746g_discovery.c ****   * @retval None
 263:Drivers/BSP/STM32746G-Discovery/stm32746g_discovery.c ****   */
 264:Drivers/BSP/STM32746G-Discovery/stm32746g_discovery.c **** void BSP_LED_Toggle(Led_TypeDef Led)
 265:Drivers/BSP/STM32746G-Discovery/stm32746g_discovery.c **** {
 266:Drivers/BSP/STM32746G-Discovery/stm32746g_discovery.c ****   GPIO_TypeDef*     gpio_led;
 267:Drivers/BSP/STM32746G-Discovery/stm32746g_discovery.c **** 
 268:Drivers/BSP/STM32746G-Discovery/stm32746g_discovery.c ****   if (Led == LED1)	/* Toggle LED connected to GPIO */
 269:Drivers/BSP/STM32746G-Discovery/stm32746g_discovery.c ****   {
 270:Drivers/BSP/STM32746G-Discovery/stm32746g_discovery.c ****     gpio_led = LED1_GPIO_PORT;
 271:Drivers/BSP/STM32746G-Discovery/stm32746g_discovery.c ****     HAL_GPIO_TogglePin(gpio_led, GPIO_PIN[Led]);
 272:Drivers/BSP/STM32746G-Discovery/stm32746g_discovery.c ****   }
 273:Drivers/BSP/STM32746G-Discovery/stm32746g_discovery.c **** }
 274:Drivers/BSP/STM32746G-Discovery/stm32746g_discovery.c **** 
 275:Drivers/BSP/STM32746G-Discovery/stm32746g_discovery.c **** /**
 276:Drivers/BSP/STM32746G-Discovery/stm32746g_discovery.c ****   * @brief  Configures button GPIO and EXTI Line.
 277:Drivers/BSP/STM32746G-Discovery/stm32746g_discovery.c ****   * @param  Button: Button to be configured
 278:Drivers/BSP/STM32746G-Discovery/stm32746g_discovery.c ****   *          This parameter can be one of the following values:
 279:Drivers/BSP/STM32746G-Discovery/stm32746g_discovery.c ****   *            @arg  BUTTON_WAKEUP: Wakeup Push Button 
 280:Drivers/BSP/STM32746G-Discovery/stm32746g_discovery.c ****   *            @arg  BUTTON_TAMPER: Tamper Push Button  
 281:Drivers/BSP/STM32746G-Discovery/stm32746g_discovery.c ****   *            @arg  BUTTON_KEY: Key Push Button
 282:Drivers/BSP/STM32746G-Discovery/stm32746g_discovery.c ****   * @param  ButtonMode: Button mode
 283:Drivers/BSP/STM32746G-Discovery/stm32746g_discovery.c ****   *          This parameter can be one of the following values:
 284:Drivers/BSP/STM32746G-Discovery/stm32746g_discovery.c ****   *            @arg  BUTTON_MODE_GPIO: Button will be used as simple IO
 285:Drivers/BSP/STM32746G-Discovery/stm32746g_discovery.c ****   *            @arg  BUTTON_MODE_EXTI: Button will be connected to EXTI line 
 286:Drivers/BSP/STM32746G-Discovery/stm32746g_discovery.c ****   *                                    with interrupt generation capability
 287:Drivers/BSP/STM32746G-Discovery/stm32746g_discovery.c ****   * @note On STM32746G-Discovery board, the three buttons (Wakeup, Tamper and key buttons)
 288:Drivers/BSP/STM32746G-Discovery/stm32746g_discovery.c ****   *       are mapped on the same push button named "User"
 289:Drivers/BSP/STM32746G-Discovery/stm32746g_discovery.c ****   *       on the board serigraphy.
 290:Drivers/BSP/STM32746G-Discovery/stm32746g_discovery.c ****   * @retval None
 291:Drivers/BSP/STM32746G-Discovery/stm32746g_discovery.c ****   */
 292:Drivers/BSP/STM32746G-Discovery/stm32746g_discovery.c **** void BSP_PB_Init(Button_TypeDef Button, ButtonMode_TypeDef ButtonMode)
 293:Drivers/BSP/STM32746G-Discovery/stm32746g_discovery.c **** {
 294:Drivers/BSP/STM32746G-Discovery/stm32746g_discovery.c ****   GPIO_InitTypeDef gpio_init_structure;
 295:Drivers/BSP/STM32746G-Discovery/stm32746g_discovery.c ****   
 296:Drivers/BSP/STM32746G-Discovery/stm32746g_discovery.c ****   /* Enable the BUTTON clock */
 297:Drivers/BSP/STM32746G-Discovery/stm32746g_discovery.c ****   BUTTONx_GPIO_CLK_ENABLE(Button);
 298:Drivers/BSP/STM32746G-Discovery/stm32746g_discovery.c ****   
 299:Drivers/BSP/STM32746G-Discovery/stm32746g_discovery.c ****   if(ButtonMode == BUTTON_MODE_GPIO)
 300:Drivers/BSP/STM32746G-Discovery/stm32746g_discovery.c ****   {
 301:Drivers/BSP/STM32746G-Discovery/stm32746g_discovery.c ****     /* Configure Button pin as input */
 302:Drivers/BSP/STM32746G-Discovery/stm32746g_discovery.c ****     gpio_init_structure.Pin = BUTTON_PIN[Button];
 303:Drivers/BSP/STM32746G-Discovery/stm32746g_discovery.c ****     gpio_init_structure.Mode = GPIO_MODE_INPUT;
 304:Drivers/BSP/STM32746G-Discovery/stm32746g_discovery.c ****     gpio_init_structure.Pull = GPIO_NOPULL;
 305:Drivers/BSP/STM32746G-Discovery/stm32746g_discovery.c ****     gpio_init_structure.Speed = GPIO_SPEED_FAST;
 306:Drivers/BSP/STM32746G-Discovery/stm32746g_discovery.c ****     HAL_GPIO_Init(BUTTON_PORT[Button], &gpio_init_structure);
 307:Drivers/BSP/STM32746G-Discovery/stm32746g_discovery.c ****   }
 308:Drivers/BSP/STM32746G-Discovery/stm32746g_discovery.c ****   
 309:Drivers/BSP/STM32746G-Discovery/stm32746g_discovery.c ****   if(ButtonMode == BUTTON_MODE_EXTI)
 310:Drivers/BSP/STM32746G-Discovery/stm32746g_discovery.c ****   {
 311:Drivers/BSP/STM32746G-Discovery/stm32746g_discovery.c ****     /* Configure Button pin as input with External interrupt */
 312:Drivers/BSP/STM32746G-Discovery/stm32746g_discovery.c ****     gpio_init_structure.Pin = BUTTON_PIN[Button];
 313:Drivers/BSP/STM32746G-Discovery/stm32746g_discovery.c ****     gpio_init_structure.Pull = GPIO_NOPULL;
 314:Drivers/BSP/STM32746G-Discovery/stm32746g_discovery.c ****     gpio_init_structure.Speed = GPIO_SPEED_FAST;
 315:Drivers/BSP/STM32746G-Discovery/stm32746g_discovery.c ****     
ARM GAS  /tmp/ccGVQGsk.s 			page 7


 316:Drivers/BSP/STM32746G-Discovery/stm32746g_discovery.c ****     if(Button != BUTTON_WAKEUP)
 317:Drivers/BSP/STM32746G-Discovery/stm32746g_discovery.c ****     {
 318:Drivers/BSP/STM32746G-Discovery/stm32746g_discovery.c ****       gpio_init_structure.Mode = GPIO_MODE_IT_FALLING; 
 319:Drivers/BSP/STM32746G-Discovery/stm32746g_discovery.c ****     }
 320:Drivers/BSP/STM32746G-Discovery/stm32746g_discovery.c ****     else
 321:Drivers/BSP/STM32746G-Discovery/stm32746g_discovery.c ****     {
 322:Drivers/BSP/STM32746G-Discovery/stm32746g_discovery.c ****       gpio_init_structure.Mode = GPIO_MODE_IT_RISING;
 323:Drivers/BSP/STM32746G-Discovery/stm32746g_discovery.c ****     }
 324:Drivers/BSP/STM32746G-Discovery/stm32746g_discovery.c ****     
 325:Drivers/BSP/STM32746G-Discovery/stm32746g_discovery.c ****     HAL_GPIO_Init(BUTTON_PORT[Button], &gpio_init_structure);
 326:Drivers/BSP/STM32746G-Discovery/stm32746g_discovery.c ****     
 327:Drivers/BSP/STM32746G-Discovery/stm32746g_discovery.c ****     /* Enable and set Button EXTI Interrupt to the lowest priority */
 328:Drivers/BSP/STM32746G-Discovery/stm32746g_discovery.c ****     HAL_NVIC_SetPriority((IRQn_Type)(BUTTON_IRQn[Button]), 0x0F, 0x00);
 329:Drivers/BSP/STM32746G-Discovery/stm32746g_discovery.c ****     HAL_NVIC_EnableIRQ((IRQn_Type)(BUTTON_IRQn[Button]));
 330:Drivers/BSP/STM32746G-Discovery/stm32746g_discovery.c ****   }
 331:Drivers/BSP/STM32746G-Discovery/stm32746g_discovery.c **** }
 332:Drivers/BSP/STM32746G-Discovery/stm32746g_discovery.c **** 
 333:Drivers/BSP/STM32746G-Discovery/stm32746g_discovery.c **** /**
 334:Drivers/BSP/STM32746G-Discovery/stm32746g_discovery.c ****   * @brief  Push Button DeInit.
 335:Drivers/BSP/STM32746G-Discovery/stm32746g_discovery.c ****   * @param  Button: Button to be configured
 336:Drivers/BSP/STM32746G-Discovery/stm32746g_discovery.c ****   *          This parameter can be one of the following values:
 337:Drivers/BSP/STM32746G-Discovery/stm32746g_discovery.c ****   *            @arg  BUTTON_WAKEUP: Wakeup Push Button 
 338:Drivers/BSP/STM32746G-Discovery/stm32746g_discovery.c ****   *            @arg  BUTTON_TAMPER: Tamper Push Button  
 339:Drivers/BSP/STM32746G-Discovery/stm32746g_discovery.c ****   *            @arg  BUTTON_KEY: Key Push Button
 340:Drivers/BSP/STM32746G-Discovery/stm32746g_discovery.c ****   * @note On STM32746G-Discovery board, the three buttons (Wakeup, Tamper and key buttons) 
 341:Drivers/BSP/STM32746G-Discovery/stm32746g_discovery.c ****   *       are mapped on the same push button named "User"
 342:Drivers/BSP/STM32746G-Discovery/stm32746g_discovery.c ****   *       on the board serigraphy.
 343:Drivers/BSP/STM32746G-Discovery/stm32746g_discovery.c ****   * @note PB DeInit does not disable the GPIO clock
 344:Drivers/BSP/STM32746G-Discovery/stm32746g_discovery.c ****   * @retval None
 345:Drivers/BSP/STM32746G-Discovery/stm32746g_discovery.c ****   */
 346:Drivers/BSP/STM32746G-Discovery/stm32746g_discovery.c **** void BSP_PB_DeInit(Button_TypeDef Button)
 347:Drivers/BSP/STM32746G-Discovery/stm32746g_discovery.c **** {
 348:Drivers/BSP/STM32746G-Discovery/stm32746g_discovery.c ****     GPIO_InitTypeDef gpio_init_structure;
 349:Drivers/BSP/STM32746G-Discovery/stm32746g_discovery.c **** 
 350:Drivers/BSP/STM32746G-Discovery/stm32746g_discovery.c ****     gpio_init_structure.Pin = BUTTON_PIN[Button];
 351:Drivers/BSP/STM32746G-Discovery/stm32746g_discovery.c ****     HAL_NVIC_DisableIRQ((IRQn_Type)(BUTTON_IRQn[Button]));
 352:Drivers/BSP/STM32746G-Discovery/stm32746g_discovery.c ****     HAL_GPIO_DeInit(BUTTON_PORT[Button], gpio_init_structure.Pin);
 353:Drivers/BSP/STM32746G-Discovery/stm32746g_discovery.c **** }
 354:Drivers/BSP/STM32746G-Discovery/stm32746g_discovery.c **** 
 355:Drivers/BSP/STM32746G-Discovery/stm32746g_discovery.c **** 
 356:Drivers/BSP/STM32746G-Discovery/stm32746g_discovery.c **** /**
 357:Drivers/BSP/STM32746G-Discovery/stm32746g_discovery.c ****   * @brief  Returns the selected button state.
 358:Drivers/BSP/STM32746G-Discovery/stm32746g_discovery.c ****   * @param  Button: Button to be checked
 359:Drivers/BSP/STM32746G-Discovery/stm32746g_discovery.c ****   *          This parameter can be one of the following values:
 360:Drivers/BSP/STM32746G-Discovery/stm32746g_discovery.c ****   *            @arg  BUTTON_WAKEUP: Wakeup Push Button 
 361:Drivers/BSP/STM32746G-Discovery/stm32746g_discovery.c ****   *            @arg  BUTTON_TAMPER: Tamper Push Button 
 362:Drivers/BSP/STM32746G-Discovery/stm32746g_discovery.c ****   *            @arg  BUTTON_KEY: Key Push Button
 363:Drivers/BSP/STM32746G-Discovery/stm32746g_discovery.c ****   * @note On STM32746G-Discovery board, the three buttons (Wakeup, Tamper and key buttons) 
 364:Drivers/BSP/STM32746G-Discovery/stm32746g_discovery.c ****   *       are mapped on the same push button named "User"
 365:Drivers/BSP/STM32746G-Discovery/stm32746g_discovery.c ****   *       on the board serigraphy.
 366:Drivers/BSP/STM32746G-Discovery/stm32746g_discovery.c ****   * @retval The Button GPIO pin value
 367:Drivers/BSP/STM32746G-Discovery/stm32746g_discovery.c ****   */
 368:Drivers/BSP/STM32746G-Discovery/stm32746g_discovery.c **** uint32_t BSP_PB_GetState(Button_TypeDef Button)
 369:Drivers/BSP/STM32746G-Discovery/stm32746g_discovery.c **** {
 370:Drivers/BSP/STM32746G-Discovery/stm32746g_discovery.c ****   return HAL_GPIO_ReadPin(BUTTON_PORT[Button], BUTTON_PIN[Button]);
 371:Drivers/BSP/STM32746G-Discovery/stm32746g_discovery.c **** }
 372:Drivers/BSP/STM32746G-Discovery/stm32746g_discovery.c **** 
ARM GAS  /tmp/ccGVQGsk.s 			page 8


 373:Drivers/BSP/STM32746G-Discovery/stm32746g_discovery.c **** /**
 374:Drivers/BSP/STM32746G-Discovery/stm32746g_discovery.c ****   * @brief  Configures COM port.
 375:Drivers/BSP/STM32746G-Discovery/stm32746g_discovery.c ****   * @param  COM: COM port to be configured.
 376:Drivers/BSP/STM32746G-Discovery/stm32746g_discovery.c ****   *          This parameter can be one of the following values:
 377:Drivers/BSP/STM32746G-Discovery/stm32746g_discovery.c ****   *            @arg  COM1 
 378:Drivers/BSP/STM32746G-Discovery/stm32746g_discovery.c ****   *            @arg  COM2 
 379:Drivers/BSP/STM32746G-Discovery/stm32746g_discovery.c ****   * @param  huart: Pointer to a UART_HandleTypeDef structure that contains the
 380:Drivers/BSP/STM32746G-Discovery/stm32746g_discovery.c ****   *                configuration information for the specified USART peripheral.
 381:Drivers/BSP/STM32746G-Discovery/stm32746g_discovery.c ****   * @retval None
 382:Drivers/BSP/STM32746G-Discovery/stm32746g_discovery.c ****   */
 383:Drivers/BSP/STM32746G-Discovery/stm32746g_discovery.c **** void BSP_COM_Init(COM_TypeDef COM, UART_HandleTypeDef *huart)
 384:Drivers/BSP/STM32746G-Discovery/stm32746g_discovery.c **** {
 385:Drivers/BSP/STM32746G-Discovery/stm32746g_discovery.c ****   GPIO_InitTypeDef gpio_init_structure;
 386:Drivers/BSP/STM32746G-Discovery/stm32746g_discovery.c **** 
 387:Drivers/BSP/STM32746G-Discovery/stm32746g_discovery.c ****   /* Enable GPIO clock */
 388:Drivers/BSP/STM32746G-Discovery/stm32746g_discovery.c ****   DISCOVERY_COMx_TX_GPIO_CLK_ENABLE(COM);
 389:Drivers/BSP/STM32746G-Discovery/stm32746g_discovery.c ****   DISCOVERY_COMx_RX_GPIO_CLK_ENABLE(COM);
 390:Drivers/BSP/STM32746G-Discovery/stm32746g_discovery.c **** 
 391:Drivers/BSP/STM32746G-Discovery/stm32746g_discovery.c ****   /* Enable USART clock */
 392:Drivers/BSP/STM32746G-Discovery/stm32746g_discovery.c ****   DISCOVERY_COMx_CLK_ENABLE(COM);
 393:Drivers/BSP/STM32746G-Discovery/stm32746g_discovery.c **** 
 394:Drivers/BSP/STM32746G-Discovery/stm32746g_discovery.c ****   /* Configure USART Tx as alternate function */
 395:Drivers/BSP/STM32746G-Discovery/stm32746g_discovery.c ****   gpio_init_structure.Pin = COM_TX_PIN[COM];
 396:Drivers/BSP/STM32746G-Discovery/stm32746g_discovery.c ****   gpio_init_structure.Mode = GPIO_MODE_AF_PP;
 397:Drivers/BSP/STM32746G-Discovery/stm32746g_discovery.c ****   gpio_init_structure.Speed = GPIO_SPEED_FAST;
 398:Drivers/BSP/STM32746G-Discovery/stm32746g_discovery.c ****   gpio_init_structure.Pull = GPIO_PULLUP;
 399:Drivers/BSP/STM32746G-Discovery/stm32746g_discovery.c ****   gpio_init_structure.Alternate = COM_TX_AF[COM];
 400:Drivers/BSP/STM32746G-Discovery/stm32746g_discovery.c ****   HAL_GPIO_Init(COM_TX_PORT[COM], &gpio_init_structure);
 401:Drivers/BSP/STM32746G-Discovery/stm32746g_discovery.c **** 
 402:Drivers/BSP/STM32746G-Discovery/stm32746g_discovery.c ****   /* Configure USART Rx as alternate function */
 403:Drivers/BSP/STM32746G-Discovery/stm32746g_discovery.c ****   gpio_init_structure.Pin = COM_RX_PIN[COM];
 404:Drivers/BSP/STM32746G-Discovery/stm32746g_discovery.c ****   gpio_init_structure.Mode = GPIO_MODE_AF_PP;
 405:Drivers/BSP/STM32746G-Discovery/stm32746g_discovery.c ****   gpio_init_structure.Alternate = COM_RX_AF[COM];
 406:Drivers/BSP/STM32746G-Discovery/stm32746g_discovery.c ****   HAL_GPIO_Init(COM_RX_PORT[COM], &gpio_init_structure);
 407:Drivers/BSP/STM32746G-Discovery/stm32746g_discovery.c **** 
 408:Drivers/BSP/STM32746G-Discovery/stm32746g_discovery.c ****   /* USART configuration */
 409:Drivers/BSP/STM32746G-Discovery/stm32746g_discovery.c ****   huart->Instance = COM_USART[COM];
 410:Drivers/BSP/STM32746G-Discovery/stm32746g_discovery.c ****   HAL_UART_Init(huart);
 411:Drivers/BSP/STM32746G-Discovery/stm32746g_discovery.c **** }
 412:Drivers/BSP/STM32746G-Discovery/stm32746g_discovery.c **** 
 413:Drivers/BSP/STM32746G-Discovery/stm32746g_discovery.c **** /**
 414:Drivers/BSP/STM32746G-Discovery/stm32746g_discovery.c ****   * @brief  DeInit COM port.
 415:Drivers/BSP/STM32746G-Discovery/stm32746g_discovery.c ****   * @param  COM: COM port to be configured.
 416:Drivers/BSP/STM32746G-Discovery/stm32746g_discovery.c ****   *          This parameter can be one of the following values:
 417:Drivers/BSP/STM32746G-Discovery/stm32746g_discovery.c ****   *            @arg  COM1 
 418:Drivers/BSP/STM32746G-Discovery/stm32746g_discovery.c ****   *            @arg  COM2 
 419:Drivers/BSP/STM32746G-Discovery/stm32746g_discovery.c ****   * @param  huart: Pointer to a UART_HandleTypeDef structure that contains the
 420:Drivers/BSP/STM32746G-Discovery/stm32746g_discovery.c ****   *                configuration information for the specified USART peripheral.
 421:Drivers/BSP/STM32746G-Discovery/stm32746g_discovery.c ****   * @retval None
 422:Drivers/BSP/STM32746G-Discovery/stm32746g_discovery.c ****   */
 423:Drivers/BSP/STM32746G-Discovery/stm32746g_discovery.c **** void BSP_COM_DeInit(COM_TypeDef COM, UART_HandleTypeDef *huart)
 424:Drivers/BSP/STM32746G-Discovery/stm32746g_discovery.c **** {
 425:Drivers/BSP/STM32746G-Discovery/stm32746g_discovery.c ****   /* USART configuration */
 426:Drivers/BSP/STM32746G-Discovery/stm32746g_discovery.c ****   huart->Instance = COM_USART[COM];
 427:Drivers/BSP/STM32746G-Discovery/stm32746g_discovery.c ****   HAL_UART_DeInit(huart);
 428:Drivers/BSP/STM32746G-Discovery/stm32746g_discovery.c **** 
 429:Drivers/BSP/STM32746G-Discovery/stm32746g_discovery.c ****   /* Enable USART clock */
ARM GAS  /tmp/ccGVQGsk.s 			page 9


 430:Drivers/BSP/STM32746G-Discovery/stm32746g_discovery.c ****   DISCOVERY_COMx_CLK_DISABLE(COM);
 431:Drivers/BSP/STM32746G-Discovery/stm32746g_discovery.c **** 
 432:Drivers/BSP/STM32746G-Discovery/stm32746g_discovery.c ****   /* DeInit GPIO pins can be done in the application 
 433:Drivers/BSP/STM32746G-Discovery/stm32746g_discovery.c ****      (by surcharging this __weak function) */
 434:Drivers/BSP/STM32746G-Discovery/stm32746g_discovery.c **** 
 435:Drivers/BSP/STM32746G-Discovery/stm32746g_discovery.c ****   /* GPIO pins clock, DMA clock can be shut down in the application 
 436:Drivers/BSP/STM32746G-Discovery/stm32746g_discovery.c ****      by surcharging this __weak function */
 437:Drivers/BSP/STM32746G-Discovery/stm32746g_discovery.c **** }
 438:Drivers/BSP/STM32746G-Discovery/stm32746g_discovery.c **** 
 439:Drivers/BSP/STM32746G-Discovery/stm32746g_discovery.c **** /*******************************************************************************
 440:Drivers/BSP/STM32746G-Discovery/stm32746g_discovery.c ****                             BUS OPERATIONS
 441:Drivers/BSP/STM32746G-Discovery/stm32746g_discovery.c **** *******************************************************************************/
 442:Drivers/BSP/STM32746G-Discovery/stm32746g_discovery.c **** 
 443:Drivers/BSP/STM32746G-Discovery/stm32746g_discovery.c **** /******************************* I2C Routines *********************************/
 444:Drivers/BSP/STM32746G-Discovery/stm32746g_discovery.c **** /**
 445:Drivers/BSP/STM32746G-Discovery/stm32746g_discovery.c ****   * @brief  Initializes I2C MSP.
 446:Drivers/BSP/STM32746G-Discovery/stm32746g_discovery.c ****   * @param  i2c_handler : I2C handler
 447:Drivers/BSP/STM32746G-Discovery/stm32746g_discovery.c ****   * @retval None
 448:Drivers/BSP/STM32746G-Discovery/stm32746g_discovery.c ****   */
 449:Drivers/BSP/STM32746G-Discovery/stm32746g_discovery.c **** static void I2Cx_MspInit(I2C_HandleTypeDef *i2c_handler)
 450:Drivers/BSP/STM32746G-Discovery/stm32746g_discovery.c **** {
  29              		.loc 1 450 1 view -0
  30              		.cfi_startproc
  31              		@ args = 0, pretend = 0, frame = 40
  32              		@ frame_needed = 0, uses_anonymous_args = 0
  33              		.loc 1 450 1 is_stmt 0 view .LVU1
  34 0000 F0B5     		push	{r4, r5, r6, r7, lr}
  35              	.LCFI0:
  36              		.cfi_def_cfa_offset 20
  37              		.cfi_offset 4, -20
  38              		.cfi_offset 5, -16
  39              		.cfi_offset 6, -12
  40              		.cfi_offset 7, -8
  41              		.cfi_offset 14, -4
  42 0002 8BB0     		sub	sp, sp, #44
  43              	.LCFI1:
  44              		.cfi_def_cfa_offset 64
 451:Drivers/BSP/STM32746G-Discovery/stm32746g_discovery.c ****   GPIO_InitTypeDef  gpio_init_structure;
  45              		.loc 1 451 3 is_stmt 1 view .LVU2
 452:Drivers/BSP/STM32746G-Discovery/stm32746g_discovery.c ****   
 453:Drivers/BSP/STM32746G-Discovery/stm32746g_discovery.c ****   if (i2c_handler == (I2C_HandleTypeDef*)(&hI2cAudioHandler))
  46              		.loc 1 453 3 view .LVU3
  47              		.loc 1 453 6 is_stmt 0 view .LVU4
  48 0004 454B     		ldr	r3, .L6
  49 0006 8342     		cmp	r3, r0
  50 0008 44D0     		beq	.L5
 454:Drivers/BSP/STM32746G-Discovery/stm32746g_discovery.c ****   {
 455:Drivers/BSP/STM32746G-Discovery/stm32746g_discovery.c ****     /* AUDIO and LCD I2C MSP init */
 456:Drivers/BSP/STM32746G-Discovery/stm32746g_discovery.c **** 
 457:Drivers/BSP/STM32746G-Discovery/stm32746g_discovery.c ****     /*** Configure the GPIOs ***/
 458:Drivers/BSP/STM32746G-Discovery/stm32746g_discovery.c ****     /* Enable GPIO clock */
 459:Drivers/BSP/STM32746G-Discovery/stm32746g_discovery.c ****     DISCOVERY_AUDIO_I2Cx_SCL_SDA_GPIO_CLK_ENABLE();
 460:Drivers/BSP/STM32746G-Discovery/stm32746g_discovery.c **** 
 461:Drivers/BSP/STM32746G-Discovery/stm32746g_discovery.c ****     /* Configure I2C Tx as alternate function */
 462:Drivers/BSP/STM32746G-Discovery/stm32746g_discovery.c ****     gpio_init_structure.Pin = DISCOVERY_AUDIO_I2Cx_SCL_PIN;
 463:Drivers/BSP/STM32746G-Discovery/stm32746g_discovery.c ****     gpio_init_structure.Mode = GPIO_MODE_AF_OD;
 464:Drivers/BSP/STM32746G-Discovery/stm32746g_discovery.c ****     gpio_init_structure.Pull = GPIO_NOPULL;
ARM GAS  /tmp/ccGVQGsk.s 			page 10


 465:Drivers/BSP/STM32746G-Discovery/stm32746g_discovery.c ****     gpio_init_structure.Speed = GPIO_SPEED_FAST;
 466:Drivers/BSP/STM32746G-Discovery/stm32746g_discovery.c ****     gpio_init_structure.Alternate = DISCOVERY_AUDIO_I2Cx_SCL_SDA_AF;
 467:Drivers/BSP/STM32746G-Discovery/stm32746g_discovery.c ****     HAL_GPIO_Init(DISCOVERY_AUDIO_I2Cx_SCL_SDA_GPIO_PORT, &gpio_init_structure);
 468:Drivers/BSP/STM32746G-Discovery/stm32746g_discovery.c **** 
 469:Drivers/BSP/STM32746G-Discovery/stm32746g_discovery.c ****     /* Configure I2C Rx as alternate function */
 470:Drivers/BSP/STM32746G-Discovery/stm32746g_discovery.c ****     gpio_init_structure.Pin = DISCOVERY_AUDIO_I2Cx_SDA_PIN;
 471:Drivers/BSP/STM32746G-Discovery/stm32746g_discovery.c ****     HAL_GPIO_Init(DISCOVERY_AUDIO_I2Cx_SCL_SDA_GPIO_PORT, &gpio_init_structure);
 472:Drivers/BSP/STM32746G-Discovery/stm32746g_discovery.c **** 
 473:Drivers/BSP/STM32746G-Discovery/stm32746g_discovery.c ****     /*** Configure the I2C peripheral ***/
 474:Drivers/BSP/STM32746G-Discovery/stm32746g_discovery.c ****     /* Enable I2C clock */
 475:Drivers/BSP/STM32746G-Discovery/stm32746g_discovery.c ****     DISCOVERY_AUDIO_I2Cx_CLK_ENABLE();
 476:Drivers/BSP/STM32746G-Discovery/stm32746g_discovery.c **** 
 477:Drivers/BSP/STM32746G-Discovery/stm32746g_discovery.c ****     /* Force the I2C peripheral clock reset */
 478:Drivers/BSP/STM32746G-Discovery/stm32746g_discovery.c ****     DISCOVERY_AUDIO_I2Cx_FORCE_RESET();
 479:Drivers/BSP/STM32746G-Discovery/stm32746g_discovery.c **** 
 480:Drivers/BSP/STM32746G-Discovery/stm32746g_discovery.c ****     /* Release the I2C peripheral clock reset */
 481:Drivers/BSP/STM32746G-Discovery/stm32746g_discovery.c ****     DISCOVERY_AUDIO_I2Cx_RELEASE_RESET();
 482:Drivers/BSP/STM32746G-Discovery/stm32746g_discovery.c **** 
 483:Drivers/BSP/STM32746G-Discovery/stm32746g_discovery.c ****     /* Enable and set I2Cx Interrupt to a lower priority */
 484:Drivers/BSP/STM32746G-Discovery/stm32746g_discovery.c ****     HAL_NVIC_SetPriority(DISCOVERY_AUDIO_I2Cx_EV_IRQn, 0x0F, 0);
 485:Drivers/BSP/STM32746G-Discovery/stm32746g_discovery.c ****     HAL_NVIC_EnableIRQ(DISCOVERY_AUDIO_I2Cx_EV_IRQn);
 486:Drivers/BSP/STM32746G-Discovery/stm32746g_discovery.c **** 
 487:Drivers/BSP/STM32746G-Discovery/stm32746g_discovery.c ****     /* Enable and set I2Cx Interrupt to a lower priority */
 488:Drivers/BSP/STM32746G-Discovery/stm32746g_discovery.c ****     HAL_NVIC_SetPriority(DISCOVERY_AUDIO_I2Cx_ER_IRQn, 0x0F, 0);
 489:Drivers/BSP/STM32746G-Discovery/stm32746g_discovery.c ****     HAL_NVIC_EnableIRQ(DISCOVERY_AUDIO_I2Cx_ER_IRQn);
 490:Drivers/BSP/STM32746G-Discovery/stm32746g_discovery.c ****   }
 491:Drivers/BSP/STM32746G-Discovery/stm32746g_discovery.c ****   else
 492:Drivers/BSP/STM32746G-Discovery/stm32746g_discovery.c ****   {
 493:Drivers/BSP/STM32746G-Discovery/stm32746g_discovery.c ****     /* External, camera and Arduino connector I2C MSP init */
 494:Drivers/BSP/STM32746G-Discovery/stm32746g_discovery.c **** 
 495:Drivers/BSP/STM32746G-Discovery/stm32746g_discovery.c ****     /*** Configure the GPIOs ***/
 496:Drivers/BSP/STM32746G-Discovery/stm32746g_discovery.c ****     /* Enable GPIO clock */
 497:Drivers/BSP/STM32746G-Discovery/stm32746g_discovery.c ****     DISCOVERY_EXT_I2Cx_SCL_SDA_GPIO_CLK_ENABLE();
  51              		.loc 1 497 5 is_stmt 1 view .LVU5
  52              	.LBB2:
  53              		.loc 1 497 5 view .LVU6
  54              		.loc 1 497 5 view .LVU7
  55 000a 454C     		ldr	r4, .L6+4
  56 000c 236B     		ldr	r3, [r4, #48]
  57 000e 43F00203 		orr	r3, r3, #2
  58 0012 2363     		str	r3, [r4, #48]
  59              		.loc 1 497 5 view .LVU8
  60 0014 236B     		ldr	r3, [r4, #48]
  61 0016 03F00203 		and	r3, r3, #2
  62 001a 0393     		str	r3, [sp, #12]
  63              		.loc 1 497 5 view .LVU9
  64 001c 039B     		ldr	r3, [sp, #12]
  65              	.LBE2:
  66              		.loc 1 497 5 view .LVU10
 498:Drivers/BSP/STM32746G-Discovery/stm32746g_discovery.c **** 
 499:Drivers/BSP/STM32746G-Discovery/stm32746g_discovery.c ****     /* Configure I2C Tx as alternate function */
 500:Drivers/BSP/STM32746G-Discovery/stm32746g_discovery.c ****     gpio_init_structure.Pin = DISCOVERY_EXT_I2Cx_SCL_PIN;
  67              		.loc 1 500 5 view .LVU11
  68              		.loc 1 500 29 is_stmt 0 view .LVU12
  69 001e 4FF48073 		mov	r3, #256
  70 0022 0593     		str	r3, [sp, #20]
 501:Drivers/BSP/STM32746G-Discovery/stm32746g_discovery.c ****     gpio_init_structure.Mode = GPIO_MODE_AF_OD;
ARM GAS  /tmp/ccGVQGsk.s 			page 11


  71              		.loc 1 501 5 is_stmt 1 view .LVU13
  72              		.loc 1 501 30 is_stmt 0 view .LVU14
  73 0024 1223     		movs	r3, #18
  74 0026 0693     		str	r3, [sp, #24]
 502:Drivers/BSP/STM32746G-Discovery/stm32746g_discovery.c ****     gpio_init_structure.Pull = GPIO_NOPULL;
  75              		.loc 1 502 5 is_stmt 1 view .LVU15
  76              		.loc 1 502 30 is_stmt 0 view .LVU16
  77 0028 0025     		movs	r5, #0
  78 002a 0795     		str	r5, [sp, #28]
 503:Drivers/BSP/STM32746G-Discovery/stm32746g_discovery.c ****     gpio_init_structure.Speed = GPIO_SPEED_FAST;
  79              		.loc 1 503 5 is_stmt 1 view .LVU17
  80              		.loc 1 503 31 is_stmt 0 view .LVU18
  81 002c 0223     		movs	r3, #2
  82 002e 0893     		str	r3, [sp, #32]
 504:Drivers/BSP/STM32746G-Discovery/stm32746g_discovery.c ****     gpio_init_structure.Alternate = DISCOVERY_EXT_I2Cx_SCL_SDA_AF;
  83              		.loc 1 504 5 is_stmt 1 view .LVU19
  84              		.loc 1 504 35 is_stmt 0 view .LVU20
  85 0030 0423     		movs	r3, #4
  86 0032 0993     		str	r3, [sp, #36]
 505:Drivers/BSP/STM32746G-Discovery/stm32746g_discovery.c ****     HAL_GPIO_Init(DISCOVERY_EXT_I2Cx_SCL_SDA_GPIO_PORT, &gpio_init_structure);
  87              		.loc 1 505 5 is_stmt 1 view .LVU21
  88 0034 05AF     		add	r7, sp, #20
  89 0036 3B4E     		ldr	r6, .L6+8
  90 0038 3946     		mov	r1, r7
  91 003a 3046     		mov	r0, r6
  92              	.LVL1:
  93              		.loc 1 505 5 is_stmt 0 view .LVU22
  94 003c FFF7FEFF 		bl	HAL_GPIO_Init
  95              	.LVL2:
 506:Drivers/BSP/STM32746G-Discovery/stm32746g_discovery.c **** 
 507:Drivers/BSP/STM32746G-Discovery/stm32746g_discovery.c ****     /* Configure I2C Rx as alternate function */
 508:Drivers/BSP/STM32746G-Discovery/stm32746g_discovery.c ****     gpio_init_structure.Pin = DISCOVERY_EXT_I2Cx_SDA_PIN;
  96              		.loc 1 508 5 is_stmt 1 view .LVU23
  97              		.loc 1 508 29 is_stmt 0 view .LVU24
  98 0040 4FF40073 		mov	r3, #512
  99 0044 0593     		str	r3, [sp, #20]
 509:Drivers/BSP/STM32746G-Discovery/stm32746g_discovery.c ****     HAL_GPIO_Init(DISCOVERY_EXT_I2Cx_SCL_SDA_GPIO_PORT, &gpio_init_structure);
 100              		.loc 1 509 5 is_stmt 1 view .LVU25
 101 0046 3946     		mov	r1, r7
 102 0048 3046     		mov	r0, r6
 103 004a FFF7FEFF 		bl	HAL_GPIO_Init
 104              	.LVL3:
 510:Drivers/BSP/STM32746G-Discovery/stm32746g_discovery.c **** 
 511:Drivers/BSP/STM32746G-Discovery/stm32746g_discovery.c ****     /*** Configure the I2C peripheral ***/
 512:Drivers/BSP/STM32746G-Discovery/stm32746g_discovery.c ****     /* Enable I2C clock */
 513:Drivers/BSP/STM32746G-Discovery/stm32746g_discovery.c ****     DISCOVERY_EXT_I2Cx_CLK_ENABLE();
 105              		.loc 1 513 5 view .LVU26
 106              	.LBB3:
 107              		.loc 1 513 5 view .LVU27
 108              		.loc 1 513 5 view .LVU28
 109 004e 236C     		ldr	r3, [r4, #64]
 110 0050 43F40013 		orr	r3, r3, #2097152
 111 0054 2364     		str	r3, [r4, #64]
 112              		.loc 1 513 5 view .LVU29
 113 0056 236C     		ldr	r3, [r4, #64]
 114 0058 03F40013 		and	r3, r3, #2097152
 115 005c 0493     		str	r3, [sp, #16]
ARM GAS  /tmp/ccGVQGsk.s 			page 12


 116              		.loc 1 513 5 view .LVU30
 117 005e 049B     		ldr	r3, [sp, #16]
 118              	.LBE3:
 119              		.loc 1 513 5 view .LVU31
 514:Drivers/BSP/STM32746G-Discovery/stm32746g_discovery.c **** 
 515:Drivers/BSP/STM32746G-Discovery/stm32746g_discovery.c ****     /* Force the I2C peripheral clock reset */
 516:Drivers/BSP/STM32746G-Discovery/stm32746g_discovery.c ****     DISCOVERY_EXT_I2Cx_FORCE_RESET();
 120              		.loc 1 516 5 view .LVU32
 121 0060 236A     		ldr	r3, [r4, #32]
 122 0062 43F40013 		orr	r3, r3, #2097152
 123 0066 2362     		str	r3, [r4, #32]
 517:Drivers/BSP/STM32746G-Discovery/stm32746g_discovery.c **** 
 518:Drivers/BSP/STM32746G-Discovery/stm32746g_discovery.c ****     /* Release the I2C peripheral clock reset */
 519:Drivers/BSP/STM32746G-Discovery/stm32746g_discovery.c ****     DISCOVERY_EXT_I2Cx_RELEASE_RESET();
 124              		.loc 1 519 5 view .LVU33
 125 0068 236A     		ldr	r3, [r4, #32]
 126 006a 23F40013 		bic	r3, r3, #2097152
 127 006e 2362     		str	r3, [r4, #32]
 520:Drivers/BSP/STM32746G-Discovery/stm32746g_discovery.c **** 
 521:Drivers/BSP/STM32746G-Discovery/stm32746g_discovery.c ****     /* Enable and set I2Cx Interrupt to a lower priority */
 522:Drivers/BSP/STM32746G-Discovery/stm32746g_discovery.c ****     HAL_NVIC_SetPriority(DISCOVERY_EXT_I2Cx_EV_IRQn, 0x0F, 0);
 128              		.loc 1 522 5 view .LVU34
 129 0070 2A46     		mov	r2, r5
 130 0072 0F21     		movs	r1, #15
 131 0074 1F20     		movs	r0, #31
 132 0076 FFF7FEFF 		bl	HAL_NVIC_SetPriority
 133              	.LVL4:
 523:Drivers/BSP/STM32746G-Discovery/stm32746g_discovery.c ****     HAL_NVIC_EnableIRQ(DISCOVERY_EXT_I2Cx_EV_IRQn);
 134              		.loc 1 523 5 view .LVU35
 135 007a 1F20     		movs	r0, #31
 136 007c FFF7FEFF 		bl	HAL_NVIC_EnableIRQ
 137              	.LVL5:
 524:Drivers/BSP/STM32746G-Discovery/stm32746g_discovery.c **** 
 525:Drivers/BSP/STM32746G-Discovery/stm32746g_discovery.c ****     /* Enable and set I2Cx Interrupt to a lower priority */
 526:Drivers/BSP/STM32746G-Discovery/stm32746g_discovery.c ****     HAL_NVIC_SetPriority(DISCOVERY_EXT_I2Cx_ER_IRQn, 0x0F, 0);
 138              		.loc 1 526 5 view .LVU36
 139 0080 2A46     		mov	r2, r5
 140 0082 0F21     		movs	r1, #15
 141 0084 2020     		movs	r0, #32
 142 0086 FFF7FEFF 		bl	HAL_NVIC_SetPriority
 143              	.LVL6:
 527:Drivers/BSP/STM32746G-Discovery/stm32746g_discovery.c ****     HAL_NVIC_EnableIRQ(DISCOVERY_EXT_I2Cx_ER_IRQn);
 144              		.loc 1 527 5 view .LVU37
 145 008a 2020     		movs	r0, #32
 146 008c FFF7FEFF 		bl	HAL_NVIC_EnableIRQ
 147              	.LVL7:
 148              	.L1:
 528:Drivers/BSP/STM32746G-Discovery/stm32746g_discovery.c ****   }
 529:Drivers/BSP/STM32746G-Discovery/stm32746g_discovery.c **** }
 149              		.loc 1 529 1 is_stmt 0 view .LVU38
 150 0090 0BB0     		add	sp, sp, #44
 151              	.LCFI2:
 152              		.cfi_remember_state
 153              		.cfi_def_cfa_offset 20
 154              		@ sp needed
 155 0092 F0BD     		pop	{r4, r5, r6, r7, pc}
 156              	.LVL8:
ARM GAS  /tmp/ccGVQGsk.s 			page 13


 157              	.L5:
 158              	.LCFI3:
 159              		.cfi_restore_state
 459:Drivers/BSP/STM32746G-Discovery/stm32746g_discovery.c **** 
 160              		.loc 1 459 5 is_stmt 1 view .LVU39
 161              	.LBB4:
 459:Drivers/BSP/STM32746G-Discovery/stm32746g_discovery.c **** 
 162              		.loc 1 459 5 view .LVU40
 459:Drivers/BSP/STM32746G-Discovery/stm32746g_discovery.c **** 
 163              		.loc 1 459 5 view .LVU41
 164 0094 224C     		ldr	r4, .L6+4
 165 0096 236B     		ldr	r3, [r4, #48]
 166 0098 43F08003 		orr	r3, r3, #128
 167 009c 2363     		str	r3, [r4, #48]
 459:Drivers/BSP/STM32746G-Discovery/stm32746g_discovery.c **** 
 168              		.loc 1 459 5 view .LVU42
 169 009e 236B     		ldr	r3, [r4, #48]
 170 00a0 03F08003 		and	r3, r3, #128
 171 00a4 0193     		str	r3, [sp, #4]
 459:Drivers/BSP/STM32746G-Discovery/stm32746g_discovery.c **** 
 172              		.loc 1 459 5 view .LVU43
 173 00a6 019B     		ldr	r3, [sp, #4]
 174              	.LBE4:
 459:Drivers/BSP/STM32746G-Discovery/stm32746g_discovery.c **** 
 175              		.loc 1 459 5 view .LVU44
 462:Drivers/BSP/STM32746G-Discovery/stm32746g_discovery.c ****     gpio_init_structure.Mode = GPIO_MODE_AF_OD;
 176              		.loc 1 462 5 view .LVU45
 462:Drivers/BSP/STM32746G-Discovery/stm32746g_discovery.c ****     gpio_init_structure.Mode = GPIO_MODE_AF_OD;
 177              		.loc 1 462 29 is_stmt 0 view .LVU46
 178 00a8 8023     		movs	r3, #128
 179 00aa 0593     		str	r3, [sp, #20]
 463:Drivers/BSP/STM32746G-Discovery/stm32746g_discovery.c ****     gpio_init_structure.Pull = GPIO_NOPULL;
 180              		.loc 1 463 5 is_stmt 1 view .LVU47
 463:Drivers/BSP/STM32746G-Discovery/stm32746g_discovery.c ****     gpio_init_structure.Pull = GPIO_NOPULL;
 181              		.loc 1 463 30 is_stmt 0 view .LVU48
 182 00ac 1223     		movs	r3, #18
 183 00ae 0693     		str	r3, [sp, #24]
 464:Drivers/BSP/STM32746G-Discovery/stm32746g_discovery.c ****     gpio_init_structure.Speed = GPIO_SPEED_FAST;
 184              		.loc 1 464 5 is_stmt 1 view .LVU49
 464:Drivers/BSP/STM32746G-Discovery/stm32746g_discovery.c ****     gpio_init_structure.Speed = GPIO_SPEED_FAST;
 185              		.loc 1 464 30 is_stmt 0 view .LVU50
 186 00b0 0025     		movs	r5, #0
 187 00b2 0795     		str	r5, [sp, #28]
 465:Drivers/BSP/STM32746G-Discovery/stm32746g_discovery.c ****     gpio_init_structure.Alternate = DISCOVERY_AUDIO_I2Cx_SCL_SDA_AF;
 188              		.loc 1 465 5 is_stmt 1 view .LVU51
 465:Drivers/BSP/STM32746G-Discovery/stm32746g_discovery.c ****     gpio_init_structure.Alternate = DISCOVERY_AUDIO_I2Cx_SCL_SDA_AF;
 189              		.loc 1 465 31 is_stmt 0 view .LVU52
 190 00b4 0223     		movs	r3, #2
 191 00b6 0893     		str	r3, [sp, #32]
 466:Drivers/BSP/STM32746G-Discovery/stm32746g_discovery.c ****     HAL_GPIO_Init(DISCOVERY_AUDIO_I2Cx_SCL_SDA_GPIO_PORT, &gpio_init_structure);
 192              		.loc 1 466 5 is_stmt 1 view .LVU53
 466:Drivers/BSP/STM32746G-Discovery/stm32746g_discovery.c ****     HAL_GPIO_Init(DISCOVERY_AUDIO_I2Cx_SCL_SDA_GPIO_PORT, &gpio_init_structure);
 193              		.loc 1 466 35 is_stmt 0 view .LVU54
 194 00b8 0423     		movs	r3, #4
 195 00ba 0993     		str	r3, [sp, #36]
 467:Drivers/BSP/STM32746G-Discovery/stm32746g_discovery.c **** 
 196              		.loc 1 467 5 is_stmt 1 view .LVU55
ARM GAS  /tmp/ccGVQGsk.s 			page 14


 197 00bc 05AF     		add	r7, sp, #20
 198 00be 1A4E     		ldr	r6, .L6+12
 199 00c0 3946     		mov	r1, r7
 200 00c2 3046     		mov	r0, r6
 201              	.LVL9:
 467:Drivers/BSP/STM32746G-Discovery/stm32746g_discovery.c **** 
 202              		.loc 1 467 5 is_stmt 0 view .LVU56
 203 00c4 FFF7FEFF 		bl	HAL_GPIO_Init
 204              	.LVL10:
 470:Drivers/BSP/STM32746G-Discovery/stm32746g_discovery.c ****     HAL_GPIO_Init(DISCOVERY_AUDIO_I2Cx_SCL_SDA_GPIO_PORT, &gpio_init_structure);
 205              		.loc 1 470 5 is_stmt 1 view .LVU57
 470:Drivers/BSP/STM32746G-Discovery/stm32746g_discovery.c ****     HAL_GPIO_Init(DISCOVERY_AUDIO_I2Cx_SCL_SDA_GPIO_PORT, &gpio_init_structure);
 206              		.loc 1 470 29 is_stmt 0 view .LVU58
 207 00c8 4FF48073 		mov	r3, #256
 208 00cc 0593     		str	r3, [sp, #20]
 471:Drivers/BSP/STM32746G-Discovery/stm32746g_discovery.c **** 
 209              		.loc 1 471 5 is_stmt 1 view .LVU59
 210 00ce 3946     		mov	r1, r7
 211 00d0 3046     		mov	r0, r6
 212 00d2 FFF7FEFF 		bl	HAL_GPIO_Init
 213              	.LVL11:
 475:Drivers/BSP/STM32746G-Discovery/stm32746g_discovery.c **** 
 214              		.loc 1 475 5 view .LVU60
 215              	.LBB5:
 475:Drivers/BSP/STM32746G-Discovery/stm32746g_discovery.c **** 
 216              		.loc 1 475 5 view .LVU61
 475:Drivers/BSP/STM32746G-Discovery/stm32746g_discovery.c **** 
 217              		.loc 1 475 5 view .LVU62
 218 00d6 236C     		ldr	r3, [r4, #64]
 219 00d8 43F40003 		orr	r3, r3, #8388608
 220 00dc 2364     		str	r3, [r4, #64]
 475:Drivers/BSP/STM32746G-Discovery/stm32746g_discovery.c **** 
 221              		.loc 1 475 5 view .LVU63
 222 00de 236C     		ldr	r3, [r4, #64]
 223 00e0 03F40003 		and	r3, r3, #8388608
 224 00e4 0293     		str	r3, [sp, #8]
 475:Drivers/BSP/STM32746G-Discovery/stm32746g_discovery.c **** 
 225              		.loc 1 475 5 view .LVU64
 226 00e6 029B     		ldr	r3, [sp, #8]
 227              	.LBE5:
 475:Drivers/BSP/STM32746G-Discovery/stm32746g_discovery.c **** 
 228              		.loc 1 475 5 view .LVU65
 478:Drivers/BSP/STM32746G-Discovery/stm32746g_discovery.c **** 
 229              		.loc 1 478 5 view .LVU66
 230 00e8 236A     		ldr	r3, [r4, #32]
 231 00ea 43F40003 		orr	r3, r3, #8388608
 232 00ee 2362     		str	r3, [r4, #32]
 481:Drivers/BSP/STM32746G-Discovery/stm32746g_discovery.c **** 
 233              		.loc 1 481 5 view .LVU67
 234 00f0 236A     		ldr	r3, [r4, #32]
 235 00f2 23F40003 		bic	r3, r3, #8388608
 236 00f6 2362     		str	r3, [r4, #32]
 484:Drivers/BSP/STM32746G-Discovery/stm32746g_discovery.c ****     HAL_NVIC_EnableIRQ(DISCOVERY_AUDIO_I2Cx_EV_IRQn);
 237              		.loc 1 484 5 view .LVU68
 238 00f8 2A46     		mov	r2, r5
 239 00fa 0F21     		movs	r1, #15
 240 00fc 4820     		movs	r0, #72
ARM GAS  /tmp/ccGVQGsk.s 			page 15


 241 00fe FFF7FEFF 		bl	HAL_NVIC_SetPriority
 242              	.LVL12:
 485:Drivers/BSP/STM32746G-Discovery/stm32746g_discovery.c **** 
 243              		.loc 1 485 5 view .LVU69
 244 0102 4820     		movs	r0, #72
 245 0104 FFF7FEFF 		bl	HAL_NVIC_EnableIRQ
 246              	.LVL13:
 488:Drivers/BSP/STM32746G-Discovery/stm32746g_discovery.c ****     HAL_NVIC_EnableIRQ(DISCOVERY_AUDIO_I2Cx_ER_IRQn);
 247              		.loc 1 488 5 view .LVU70
 248 0108 2A46     		mov	r2, r5
 249 010a 0F21     		movs	r1, #15
 250 010c 4920     		movs	r0, #73
 251 010e FFF7FEFF 		bl	HAL_NVIC_SetPriority
 252              	.LVL14:
 489:Drivers/BSP/STM32746G-Discovery/stm32746g_discovery.c ****   }
 253              		.loc 1 489 5 view .LVU71
 254 0112 4920     		movs	r0, #73
 255 0114 FFF7FEFF 		bl	HAL_NVIC_EnableIRQ
 256              	.LVL15:
 257 0118 BAE7     		b	.L1
 258              	.L7:
 259 011a 00BF     		.align	2
 260              	.L6:
 261 011c 00000000 		.word	hI2cAudioHandler
 262 0120 00380240 		.word	1073887232
 263 0124 00040240 		.word	1073873920
 264 0128 001C0240 		.word	1073880064
 265              		.cfi_endproc
 266              	.LFE152:
 268              		.section	.text.I2Cx_Init,"ax",%progbits
 269              		.align	1
 270              		.syntax unified
 271              		.thumb
 272              		.thumb_func
 274              	I2Cx_Init:
 275              	.LVL16:
 276              	.LFB153:
 530:Drivers/BSP/STM32746G-Discovery/stm32746g_discovery.c **** 
 531:Drivers/BSP/STM32746G-Discovery/stm32746g_discovery.c **** /**
 532:Drivers/BSP/STM32746G-Discovery/stm32746g_discovery.c ****   * @brief  Initializes I2C HAL.
 533:Drivers/BSP/STM32746G-Discovery/stm32746g_discovery.c ****   * @param  i2c_handler : I2C handler
 534:Drivers/BSP/STM32746G-Discovery/stm32746g_discovery.c ****   * @retval None
 535:Drivers/BSP/STM32746G-Discovery/stm32746g_discovery.c ****   */
 536:Drivers/BSP/STM32746G-Discovery/stm32746g_discovery.c **** static void I2Cx_Init(I2C_HandleTypeDef *i2c_handler)
 537:Drivers/BSP/STM32746G-Discovery/stm32746g_discovery.c **** {
 277              		.loc 1 537 1 view -0
 278              		.cfi_startproc
 279              		@ args = 0, pretend = 0, frame = 0
 280              		@ frame_needed = 0, uses_anonymous_args = 0
 281              		.loc 1 537 1 is_stmt 0 view .LVU73
 282 0000 10B5     		push	{r4, lr}
 283              	.LCFI4:
 284              		.cfi_def_cfa_offset 8
 285              		.cfi_offset 4, -8
 286              		.cfi_offset 14, -4
 287 0002 0446     		mov	r4, r0
 538:Drivers/BSP/STM32746G-Discovery/stm32746g_discovery.c ****   if(HAL_I2C_GetState(i2c_handler) == HAL_I2C_STATE_RESET)
ARM GAS  /tmp/ccGVQGsk.s 			page 16


 288              		.loc 1 538 3 is_stmt 1 view .LVU74
 289              		.loc 1 538 6 is_stmt 0 view .LVU75
 290 0004 FFF7FEFF 		bl	HAL_I2C_GetState
 291              	.LVL17:
 292              		.loc 1 538 5 discriminator 1 view .LVU76
 293 0008 A0B9     		cbnz	r0, .L8
 539:Drivers/BSP/STM32746G-Discovery/stm32746g_discovery.c ****   {
 540:Drivers/BSP/STM32746G-Discovery/stm32746g_discovery.c ****     if (i2c_handler == (I2C_HandleTypeDef*)(&hI2cAudioHandler))
 294              		.loc 1 540 5 is_stmt 1 view .LVU77
 295              		.loc 1 540 8 is_stmt 0 view .LVU78
 296 000a 0C4B     		ldr	r3, .L14
 297 000c 9C42     		cmp	r4, r3
 298 000e 12D0     		beq	.L13
 541:Drivers/BSP/STM32746G-Discovery/stm32746g_discovery.c ****     {
 542:Drivers/BSP/STM32746G-Discovery/stm32746g_discovery.c ****       /* Audio and LCD I2C configuration */
 543:Drivers/BSP/STM32746G-Discovery/stm32746g_discovery.c ****       i2c_handler->Instance = DISCOVERY_AUDIO_I2Cx;
 544:Drivers/BSP/STM32746G-Discovery/stm32746g_discovery.c ****     }
 545:Drivers/BSP/STM32746G-Discovery/stm32746g_discovery.c ****     else
 546:Drivers/BSP/STM32746G-Discovery/stm32746g_discovery.c ****     {
 547:Drivers/BSP/STM32746G-Discovery/stm32746g_discovery.c ****       /* External, camera and Arduino connector  I2C configuration */
 548:Drivers/BSP/STM32746G-Discovery/stm32746g_discovery.c ****       i2c_handler->Instance = DISCOVERY_EXT_I2Cx;
 299              		.loc 1 548 7 is_stmt 1 view .LVU79
 300              		.loc 1 548 29 is_stmt 0 view .LVU80
 301 0010 0B4B     		ldr	r3, .L14+4
 302 0012 2360     		str	r3, [r4]
 303              	.L11:
 549:Drivers/BSP/STM32746G-Discovery/stm32746g_discovery.c ****     }
 550:Drivers/BSP/STM32746G-Discovery/stm32746g_discovery.c ****     i2c_handler->Init.Timing           = DISCOVERY_I2Cx_TIMING;
 304              		.loc 1 550 5 is_stmt 1 view .LVU81
 305              		.loc 1 550 40 is_stmt 0 view .LVU82
 306 0014 0B4B     		ldr	r3, .L14+8
 307 0016 6360     		str	r3, [r4, #4]
 551:Drivers/BSP/STM32746G-Discovery/stm32746g_discovery.c ****     i2c_handler->Init.OwnAddress1      = 0;
 308              		.loc 1 551 5 is_stmt 1 view .LVU83
 309              		.loc 1 551 40 is_stmt 0 view .LVU84
 310 0018 0023     		movs	r3, #0
 311 001a A360     		str	r3, [r4, #8]
 552:Drivers/BSP/STM32746G-Discovery/stm32746g_discovery.c ****     i2c_handler->Init.AddressingMode   = I2C_ADDRESSINGMODE_7BIT;
 312              		.loc 1 552 5 is_stmt 1 view .LVU85
 313              		.loc 1 552 40 is_stmt 0 view .LVU86
 314 001c 0122     		movs	r2, #1
 315 001e E260     		str	r2, [r4, #12]
 553:Drivers/BSP/STM32746G-Discovery/stm32746g_discovery.c ****     i2c_handler->Init.DualAddressMode  = I2C_DUALADDRESS_DISABLE;
 316              		.loc 1 553 5 is_stmt 1 view .LVU87
 317              		.loc 1 553 40 is_stmt 0 view .LVU88
 318 0020 2361     		str	r3, [r4, #16]
 554:Drivers/BSP/STM32746G-Discovery/stm32746g_discovery.c ****     i2c_handler->Init.OwnAddress2      = 0;
 319              		.loc 1 554 5 is_stmt 1 view .LVU89
 320              		.loc 1 554 40 is_stmt 0 view .LVU90
 321 0022 6361     		str	r3, [r4, #20]
 555:Drivers/BSP/STM32746G-Discovery/stm32746g_discovery.c ****     i2c_handler->Init.GeneralCallMode  = I2C_GENERALCALL_DISABLE;
 322              		.loc 1 555 5 is_stmt 1 view .LVU91
 323              		.loc 1 555 40 is_stmt 0 view .LVU92
 324 0024 E361     		str	r3, [r4, #28]
 556:Drivers/BSP/STM32746G-Discovery/stm32746g_discovery.c ****     i2c_handler->Init.NoStretchMode    = I2C_NOSTRETCH_DISABLE;
 325              		.loc 1 556 5 is_stmt 1 view .LVU93
 326              		.loc 1 556 40 is_stmt 0 view .LVU94
ARM GAS  /tmp/ccGVQGsk.s 			page 17


 327 0026 2362     		str	r3, [r4, #32]
 557:Drivers/BSP/STM32746G-Discovery/stm32746g_discovery.c **** 
 558:Drivers/BSP/STM32746G-Discovery/stm32746g_discovery.c ****     /* Init the I2C */
 559:Drivers/BSP/STM32746G-Discovery/stm32746g_discovery.c ****     I2Cx_MspInit(i2c_handler);
 328              		.loc 1 559 5 is_stmt 1 view .LVU95
 329 0028 2046     		mov	r0, r4
 330 002a FFF7FEFF 		bl	I2Cx_MspInit
 331              	.LVL18:
 560:Drivers/BSP/STM32746G-Discovery/stm32746g_discovery.c ****     HAL_I2C_Init(i2c_handler);
 332              		.loc 1 560 5 view .LVU96
 333 002e 2046     		mov	r0, r4
 334 0030 FFF7FEFF 		bl	HAL_I2C_Init
 335              	.LVL19:
 336              	.L8:
 561:Drivers/BSP/STM32746G-Discovery/stm32746g_discovery.c ****   }
 562:Drivers/BSP/STM32746G-Discovery/stm32746g_discovery.c **** }
 337              		.loc 1 562 1 is_stmt 0 view .LVU97
 338 0034 10BD     		pop	{r4, pc}
 339              	.LVL20:
 340              	.L13:
 543:Drivers/BSP/STM32746G-Discovery/stm32746g_discovery.c ****     }
 341              		.loc 1 543 7 is_stmt 1 view .LVU98
 543:Drivers/BSP/STM32746G-Discovery/stm32746g_discovery.c ****     }
 342              		.loc 1 543 29 is_stmt 0 view .LVU99
 343 0036 044B     		ldr	r3, .L14+12
 344 0038 2360     		str	r3, [r4]
 345 003a EBE7     		b	.L11
 346              	.L15:
 347              		.align	2
 348              	.L14:
 349 003c 00000000 		.word	hI2cAudioHandler
 350 0040 00540040 		.word	1073763328
 351 0044 32279140 		.word	1083254578
 352 0048 005C0040 		.word	1073765376
 353              		.cfi_endproc
 354              	.LFE153:
 356              		.section	.text.I2Cx_Error,"ax",%progbits
 357              		.align	1
 358              		.syntax unified
 359              		.thumb
 360              		.thumb_func
 362              	I2Cx_Error:
 363              	.LVL21:
 364              	.LFB157:
 563:Drivers/BSP/STM32746G-Discovery/stm32746g_discovery.c **** 
 564:Drivers/BSP/STM32746G-Discovery/stm32746g_discovery.c **** /**
 565:Drivers/BSP/STM32746G-Discovery/stm32746g_discovery.c ****   * @brief  Reads multiple data.
 566:Drivers/BSP/STM32746G-Discovery/stm32746g_discovery.c ****   * @param  i2c_handler : I2C handler
 567:Drivers/BSP/STM32746G-Discovery/stm32746g_discovery.c ****   * @param  Addr: I2C address
 568:Drivers/BSP/STM32746G-Discovery/stm32746g_discovery.c ****   * @param  Reg: Reg address 
 569:Drivers/BSP/STM32746G-Discovery/stm32746g_discovery.c ****   * @param  MemAddress: Memory address 
 570:Drivers/BSP/STM32746G-Discovery/stm32746g_discovery.c ****   * @param  Buffer: Pointer to data buffer
 571:Drivers/BSP/STM32746G-Discovery/stm32746g_discovery.c ****   * @param  Length: Length of the data
 572:Drivers/BSP/STM32746G-Discovery/stm32746g_discovery.c ****   * @retval Number of read data
 573:Drivers/BSP/STM32746G-Discovery/stm32746g_discovery.c ****   */
 574:Drivers/BSP/STM32746G-Discovery/stm32746g_discovery.c **** static HAL_StatusTypeDef I2Cx_ReadMultiple(I2C_HandleTypeDef *i2c_handler,
 575:Drivers/BSP/STM32746G-Discovery/stm32746g_discovery.c ****                                            uint8_t Addr,
ARM GAS  /tmp/ccGVQGsk.s 			page 18


 576:Drivers/BSP/STM32746G-Discovery/stm32746g_discovery.c ****                                            uint16_t Reg,
 577:Drivers/BSP/STM32746G-Discovery/stm32746g_discovery.c ****                                            uint16_t MemAddress,
 578:Drivers/BSP/STM32746G-Discovery/stm32746g_discovery.c ****                                            uint8_t *Buffer,
 579:Drivers/BSP/STM32746G-Discovery/stm32746g_discovery.c ****                                            uint16_t Length)
 580:Drivers/BSP/STM32746G-Discovery/stm32746g_discovery.c **** {
 581:Drivers/BSP/STM32746G-Discovery/stm32746g_discovery.c ****   HAL_StatusTypeDef status = HAL_OK;
 582:Drivers/BSP/STM32746G-Discovery/stm32746g_discovery.c **** 
 583:Drivers/BSP/STM32746G-Discovery/stm32746g_discovery.c ****   status = HAL_I2C_Mem_Read(i2c_handler, Addr, (uint16_t)Reg, MemAddress, Buffer, Length, 1000);
 584:Drivers/BSP/STM32746G-Discovery/stm32746g_discovery.c **** 
 585:Drivers/BSP/STM32746G-Discovery/stm32746g_discovery.c ****   /* Check the communication status */
 586:Drivers/BSP/STM32746G-Discovery/stm32746g_discovery.c ****   if(status != HAL_OK)
 587:Drivers/BSP/STM32746G-Discovery/stm32746g_discovery.c ****   {
 588:Drivers/BSP/STM32746G-Discovery/stm32746g_discovery.c ****     /* I2C error occurred */
 589:Drivers/BSP/STM32746G-Discovery/stm32746g_discovery.c ****     I2Cx_Error(i2c_handler, Addr);
 590:Drivers/BSP/STM32746G-Discovery/stm32746g_discovery.c ****   }
 591:Drivers/BSP/STM32746G-Discovery/stm32746g_discovery.c ****   return status;    
 592:Drivers/BSP/STM32746G-Discovery/stm32746g_discovery.c **** }
 593:Drivers/BSP/STM32746G-Discovery/stm32746g_discovery.c **** 
 594:Drivers/BSP/STM32746G-Discovery/stm32746g_discovery.c **** /**
 595:Drivers/BSP/STM32746G-Discovery/stm32746g_discovery.c ****   * @brief  Writes a value in a register of the device through BUS in using DMA mode.
 596:Drivers/BSP/STM32746G-Discovery/stm32746g_discovery.c ****   * @param  i2c_handler : I2C handler
 597:Drivers/BSP/STM32746G-Discovery/stm32746g_discovery.c ****   * @param  Addr: Device address on BUS Bus.  
 598:Drivers/BSP/STM32746G-Discovery/stm32746g_discovery.c ****   * @param  Reg: The target register address to write
 599:Drivers/BSP/STM32746G-Discovery/stm32746g_discovery.c ****   * @param  MemAddress: Memory address 
 600:Drivers/BSP/STM32746G-Discovery/stm32746g_discovery.c ****   * @param  Buffer: The target register value to be written 
 601:Drivers/BSP/STM32746G-Discovery/stm32746g_discovery.c ****   * @param  Length: buffer size to be written
 602:Drivers/BSP/STM32746G-Discovery/stm32746g_discovery.c ****   * @retval HAL status
 603:Drivers/BSP/STM32746G-Discovery/stm32746g_discovery.c ****   */
 604:Drivers/BSP/STM32746G-Discovery/stm32746g_discovery.c **** static HAL_StatusTypeDef I2Cx_WriteMultiple(I2C_HandleTypeDef *i2c_handler,
 605:Drivers/BSP/STM32746G-Discovery/stm32746g_discovery.c ****                                             uint8_t Addr,
 606:Drivers/BSP/STM32746G-Discovery/stm32746g_discovery.c ****                                             uint16_t Reg,
 607:Drivers/BSP/STM32746G-Discovery/stm32746g_discovery.c ****                                             uint16_t MemAddress,
 608:Drivers/BSP/STM32746G-Discovery/stm32746g_discovery.c ****                                             uint8_t *Buffer,
 609:Drivers/BSP/STM32746G-Discovery/stm32746g_discovery.c ****                                             uint16_t Length)
 610:Drivers/BSP/STM32746G-Discovery/stm32746g_discovery.c **** {
 611:Drivers/BSP/STM32746G-Discovery/stm32746g_discovery.c ****   HAL_StatusTypeDef status = HAL_OK;
 612:Drivers/BSP/STM32746G-Discovery/stm32746g_discovery.c ****   
 613:Drivers/BSP/STM32746G-Discovery/stm32746g_discovery.c ****   status = HAL_I2C_Mem_Write(i2c_handler, Addr, (uint16_t)Reg, MemAddress, Buffer, Length, 1000);
 614:Drivers/BSP/STM32746G-Discovery/stm32746g_discovery.c ****   
 615:Drivers/BSP/STM32746G-Discovery/stm32746g_discovery.c ****   /* Check the communication status */
 616:Drivers/BSP/STM32746G-Discovery/stm32746g_discovery.c ****   if(status != HAL_OK)
 617:Drivers/BSP/STM32746G-Discovery/stm32746g_discovery.c ****   {
 618:Drivers/BSP/STM32746G-Discovery/stm32746g_discovery.c ****     /* Re-Initiaize the I2C Bus */
 619:Drivers/BSP/STM32746G-Discovery/stm32746g_discovery.c ****     I2Cx_Error(i2c_handler, Addr);
 620:Drivers/BSP/STM32746G-Discovery/stm32746g_discovery.c ****   }
 621:Drivers/BSP/STM32746G-Discovery/stm32746g_discovery.c ****   return status;
 622:Drivers/BSP/STM32746G-Discovery/stm32746g_discovery.c **** }
 623:Drivers/BSP/STM32746G-Discovery/stm32746g_discovery.c **** 
 624:Drivers/BSP/STM32746G-Discovery/stm32746g_discovery.c **** /**
 625:Drivers/BSP/STM32746G-Discovery/stm32746g_discovery.c ****   * @brief  Checks if target device is ready for communication. 
 626:Drivers/BSP/STM32746G-Discovery/stm32746g_discovery.c ****   * @note   This function is used with Memory devices
 627:Drivers/BSP/STM32746G-Discovery/stm32746g_discovery.c ****   * @param  i2c_handler : I2C handler
 628:Drivers/BSP/STM32746G-Discovery/stm32746g_discovery.c ****   * @param  DevAddress: Target device address
 629:Drivers/BSP/STM32746G-Discovery/stm32746g_discovery.c ****   * @param  Trials: Number of trials
 630:Drivers/BSP/STM32746G-Discovery/stm32746g_discovery.c ****   * @retval HAL status
 631:Drivers/BSP/STM32746G-Discovery/stm32746g_discovery.c ****   */
 632:Drivers/BSP/STM32746G-Discovery/stm32746g_discovery.c **** static HAL_StatusTypeDef I2Cx_IsDeviceReady(I2C_HandleTypeDef *i2c_handler, uint16_t DevAddress, ui
ARM GAS  /tmp/ccGVQGsk.s 			page 19


 633:Drivers/BSP/STM32746G-Discovery/stm32746g_discovery.c **** { 
 634:Drivers/BSP/STM32746G-Discovery/stm32746g_discovery.c ****   return (HAL_I2C_IsDeviceReady(i2c_handler, DevAddress, Trials, 1000));
 635:Drivers/BSP/STM32746G-Discovery/stm32746g_discovery.c **** }
 636:Drivers/BSP/STM32746G-Discovery/stm32746g_discovery.c **** 
 637:Drivers/BSP/STM32746G-Discovery/stm32746g_discovery.c **** /**
 638:Drivers/BSP/STM32746G-Discovery/stm32746g_discovery.c ****   * @brief  Manages error callback by re-initializing I2C.
 639:Drivers/BSP/STM32746G-Discovery/stm32746g_discovery.c ****   * @param  i2c_handler : I2C handler
 640:Drivers/BSP/STM32746G-Discovery/stm32746g_discovery.c ****   * @param  Addr: I2C Address
 641:Drivers/BSP/STM32746G-Discovery/stm32746g_discovery.c ****   * @retval None
 642:Drivers/BSP/STM32746G-Discovery/stm32746g_discovery.c ****   */
 643:Drivers/BSP/STM32746G-Discovery/stm32746g_discovery.c **** static void I2Cx_Error(I2C_HandleTypeDef *i2c_handler, uint8_t Addr)
 644:Drivers/BSP/STM32746G-Discovery/stm32746g_discovery.c **** {
 365              		.loc 1 644 1 is_stmt 1 view -0
 366              		.cfi_startproc
 367              		@ args = 0, pretend = 0, frame = 0
 368              		@ frame_needed = 0, uses_anonymous_args = 0
 369              		.loc 1 644 1 is_stmt 0 view .LVU101
 370 0000 10B5     		push	{r4, lr}
 371              	.LCFI5:
 372              		.cfi_def_cfa_offset 8
 373              		.cfi_offset 4, -8
 374              		.cfi_offset 14, -4
 375 0002 0446     		mov	r4, r0
 645:Drivers/BSP/STM32746G-Discovery/stm32746g_discovery.c ****   /* De-initialize the I2C communication bus */
 646:Drivers/BSP/STM32746G-Discovery/stm32746g_discovery.c ****   HAL_I2C_DeInit(i2c_handler);
 376              		.loc 1 646 3 is_stmt 1 view .LVU102
 377 0004 FFF7FEFF 		bl	HAL_I2C_DeInit
 378              	.LVL22:
 647:Drivers/BSP/STM32746G-Discovery/stm32746g_discovery.c ****   
 648:Drivers/BSP/STM32746G-Discovery/stm32746g_discovery.c ****   /* Re-Initialize the I2C communication bus */
 649:Drivers/BSP/STM32746G-Discovery/stm32746g_discovery.c ****   I2Cx_Init(i2c_handler);
 379              		.loc 1 649 3 view .LVU103
 380 0008 2046     		mov	r0, r4
 381 000a FFF7FEFF 		bl	I2Cx_Init
 382              	.LVL23:
 650:Drivers/BSP/STM32746G-Discovery/stm32746g_discovery.c **** }
 383              		.loc 1 650 1 is_stmt 0 view .LVU104
 384 000e 10BD     		pop	{r4, pc}
 385              		.loc 1 650 1 view .LVU105
 386              		.cfi_endproc
 387              	.LFE157:
 389              		.section	.text.I2Cx_WriteMultiple,"ax",%progbits
 390              		.align	1
 391              		.syntax unified
 392              		.thumb
 393              		.thumb_func
 395              	I2Cx_WriteMultiple:
 396              	.LVL24:
 397              	.LFB155:
 610:Drivers/BSP/STM32746G-Discovery/stm32746g_discovery.c ****   HAL_StatusTypeDef status = HAL_OK;
 398              		.loc 1 610 1 is_stmt 1 view -0
 399              		.cfi_startproc
 400              		@ args = 8, pretend = 0, frame = 0
 401              		@ frame_needed = 0, uses_anonymous_args = 0
 610:Drivers/BSP/STM32746G-Discovery/stm32746g_discovery.c ****   HAL_StatusTypeDef status = HAL_OK;
 402              		.loc 1 610 1 is_stmt 0 view .LVU107
 403 0000 70B5     		push	{r4, r5, r6, lr}
ARM GAS  /tmp/ccGVQGsk.s 			page 20


 404              	.LCFI6:
 405              		.cfi_def_cfa_offset 16
 406              		.cfi_offset 4, -16
 407              		.cfi_offset 5, -12
 408              		.cfi_offset 6, -8
 409              		.cfi_offset 14, -4
 410 0002 84B0     		sub	sp, sp, #16
 411              	.LCFI7:
 412              		.cfi_def_cfa_offset 32
 413 0004 0446     		mov	r4, r0
 414 0006 0D46     		mov	r5, r1
 611:Drivers/BSP/STM32746G-Discovery/stm32746g_discovery.c ****   
 415              		.loc 1 611 3 is_stmt 1 view .LVU108
 416              	.LVL25:
 613:Drivers/BSP/STM32746G-Discovery/stm32746g_discovery.c ****   
 417              		.loc 1 613 3 view .LVU109
 613:Drivers/BSP/STM32746G-Discovery/stm32746g_discovery.c ****   
 418              		.loc 1 613 12 is_stmt 0 view .LVU110
 419 0008 4FF47A76 		mov	r6, #1000
 420 000c 0296     		str	r6, [sp, #8]
 421 000e BDF82460 		ldrh	r6, [sp, #36]
 422 0012 0196     		str	r6, [sp, #4]
 423 0014 089E     		ldr	r6, [sp, #32]
 424 0016 0096     		str	r6, [sp]
 425 0018 FFF7FEFF 		bl	HAL_I2C_Mem_Write
 426              	.LVL26:
 616:Drivers/BSP/STM32746G-Discovery/stm32746g_discovery.c ****   {
 427              		.loc 1 616 3 is_stmt 1 view .LVU111
 616:Drivers/BSP/STM32746G-Discovery/stm32746g_discovery.c ****   {
 428              		.loc 1 616 5 is_stmt 0 view .LVU112
 429 001c 0646     		mov	r6, r0
 430 001e 10B9     		cbnz	r0, .L21
 431              	.LVL27:
 432              	.L19:
 621:Drivers/BSP/STM32746G-Discovery/stm32746g_discovery.c **** }
 433              		.loc 1 621 3 is_stmt 1 view .LVU113
 622:Drivers/BSP/STM32746G-Discovery/stm32746g_discovery.c **** 
 434              		.loc 1 622 1 is_stmt 0 view .LVU114
 435 0020 3046     		mov	r0, r6
 436 0022 04B0     		add	sp, sp, #16
 437              	.LCFI8:
 438              		.cfi_remember_state
 439              		.cfi_def_cfa_offset 16
 440              		@ sp needed
 441 0024 70BD     		pop	{r4, r5, r6, pc}
 442              	.LVL28:
 443              	.L21:
 444              	.LCFI9:
 445              		.cfi_restore_state
 619:Drivers/BSP/STM32746G-Discovery/stm32746g_discovery.c ****   }
 446              		.loc 1 619 5 is_stmt 1 view .LVU115
 447 0026 2946     		mov	r1, r5
 448 0028 2046     		mov	r0, r4
 449              	.LVL29:
 619:Drivers/BSP/STM32746G-Discovery/stm32746g_discovery.c ****   }
 450              		.loc 1 619 5 is_stmt 0 view .LVU116
 451 002a FFF7FEFF 		bl	I2Cx_Error
ARM GAS  /tmp/ccGVQGsk.s 			page 21


 452              	.LVL30:
 453 002e F7E7     		b	.L19
 454              		.cfi_endproc
 455              	.LFE155:
 457              		.section	.text.I2Cx_ReadMultiple,"ax",%progbits
 458              		.align	1
 459              		.syntax unified
 460              		.thumb
 461              		.thumb_func
 463              	I2Cx_ReadMultiple:
 464              	.LVL31:
 465              	.LFB154:
 580:Drivers/BSP/STM32746G-Discovery/stm32746g_discovery.c ****   HAL_StatusTypeDef status = HAL_OK;
 466              		.loc 1 580 1 is_stmt 1 view -0
 467              		.cfi_startproc
 468              		@ args = 8, pretend = 0, frame = 0
 469              		@ frame_needed = 0, uses_anonymous_args = 0
 580:Drivers/BSP/STM32746G-Discovery/stm32746g_discovery.c ****   HAL_StatusTypeDef status = HAL_OK;
 470              		.loc 1 580 1 is_stmt 0 view .LVU118
 471 0000 70B5     		push	{r4, r5, r6, lr}
 472              	.LCFI10:
 473              		.cfi_def_cfa_offset 16
 474              		.cfi_offset 4, -16
 475              		.cfi_offset 5, -12
 476              		.cfi_offset 6, -8
 477              		.cfi_offset 14, -4
 478 0002 84B0     		sub	sp, sp, #16
 479              	.LCFI11:
 480              		.cfi_def_cfa_offset 32
 481 0004 0446     		mov	r4, r0
 482 0006 0D46     		mov	r5, r1
 581:Drivers/BSP/STM32746G-Discovery/stm32746g_discovery.c **** 
 483              		.loc 1 581 3 is_stmt 1 view .LVU119
 484              	.LVL32:
 583:Drivers/BSP/STM32746G-Discovery/stm32746g_discovery.c **** 
 485              		.loc 1 583 3 view .LVU120
 583:Drivers/BSP/STM32746G-Discovery/stm32746g_discovery.c **** 
 486              		.loc 1 583 12 is_stmt 0 view .LVU121
 487 0008 4FF47A76 		mov	r6, #1000
 488 000c 0296     		str	r6, [sp, #8]
 489 000e BDF82460 		ldrh	r6, [sp, #36]
 490 0012 0196     		str	r6, [sp, #4]
 491 0014 089E     		ldr	r6, [sp, #32]
 492 0016 0096     		str	r6, [sp]
 493 0018 FFF7FEFF 		bl	HAL_I2C_Mem_Read
 494              	.LVL33:
 586:Drivers/BSP/STM32746G-Discovery/stm32746g_discovery.c ****   {
 495              		.loc 1 586 3 is_stmt 1 view .LVU122
 586:Drivers/BSP/STM32746G-Discovery/stm32746g_discovery.c ****   {
 496              		.loc 1 586 5 is_stmt 0 view .LVU123
 497 001c 0646     		mov	r6, r0
 498 001e 10B9     		cbnz	r0, .L25
 499              	.LVL34:
 500              	.L23:
 591:Drivers/BSP/STM32746G-Discovery/stm32746g_discovery.c **** }
 501              		.loc 1 591 3 is_stmt 1 view .LVU124
 592:Drivers/BSP/STM32746G-Discovery/stm32746g_discovery.c **** 
ARM GAS  /tmp/ccGVQGsk.s 			page 22


 502              		.loc 1 592 1 is_stmt 0 view .LVU125
 503 0020 3046     		mov	r0, r6
 504 0022 04B0     		add	sp, sp, #16
 505              	.LCFI12:
 506              		.cfi_remember_state
 507              		.cfi_def_cfa_offset 16
 508              		@ sp needed
 509 0024 70BD     		pop	{r4, r5, r6, pc}
 510              	.LVL35:
 511              	.L25:
 512              	.LCFI13:
 513              		.cfi_restore_state
 589:Drivers/BSP/STM32746G-Discovery/stm32746g_discovery.c ****   }
 514              		.loc 1 589 5 is_stmt 1 view .LVU126
 515 0026 2946     		mov	r1, r5
 516 0028 2046     		mov	r0, r4
 517              	.LVL36:
 589:Drivers/BSP/STM32746G-Discovery/stm32746g_discovery.c ****   }
 518              		.loc 1 589 5 is_stmt 0 view .LVU127
 519 002a FFF7FEFF 		bl	I2Cx_Error
 520              	.LVL37:
 521 002e F7E7     		b	.L23
 522              		.cfi_endproc
 523              	.LFE154:
 525              		.section	.text.I2Cx_IsDeviceReady,"ax",%progbits
 526              		.align	1
 527              		.syntax unified
 528              		.thumb
 529              		.thumb_func
 531              	I2Cx_IsDeviceReady:
 532              	.LVL38:
 533              	.LFB156:
 633:Drivers/BSP/STM32746G-Discovery/stm32746g_discovery.c ****   return (HAL_I2C_IsDeviceReady(i2c_handler, DevAddress, Trials, 1000));
 534              		.loc 1 633 1 is_stmt 1 view -0
 535              		.cfi_startproc
 536              		@ args = 0, pretend = 0, frame = 0
 537              		@ frame_needed = 0, uses_anonymous_args = 0
 633:Drivers/BSP/STM32746G-Discovery/stm32746g_discovery.c ****   return (HAL_I2C_IsDeviceReady(i2c_handler, DevAddress, Trials, 1000));
 538              		.loc 1 633 1 is_stmt 0 view .LVU129
 539 0000 08B5     		push	{r3, lr}
 540              	.LCFI14:
 541              		.cfi_def_cfa_offset 8
 542              		.cfi_offset 3, -8
 543              		.cfi_offset 14, -4
 634:Drivers/BSP/STM32746G-Discovery/stm32746g_discovery.c **** }
 544              		.loc 1 634 3 is_stmt 1 view .LVU130
 634:Drivers/BSP/STM32746G-Discovery/stm32746g_discovery.c **** }
 545              		.loc 1 634 11 is_stmt 0 view .LVU131
 546 0002 4FF47A73 		mov	r3, #1000
 547 0006 FFF7FEFF 		bl	HAL_I2C_IsDeviceReady
 548              	.LVL39:
 635:Drivers/BSP/STM32746G-Discovery/stm32746g_discovery.c **** 
 549              		.loc 1 635 1 view .LVU132
 550 000a 08BD     		pop	{r3, pc}
 551              		.cfi_endproc
 552              	.LFE156:
 554              		.section	.text.BSP_GetVersion,"ax",%progbits
ARM GAS  /tmp/ccGVQGsk.s 			page 23


 555              		.align	1
 556              		.global	BSP_GetVersion
 557              		.syntax unified
 558              		.thumb
 559              		.thumb_func
 561              	BSP_GetVersion:
 562              	.LFB141:
 162:Drivers/BSP/STM32746G-Discovery/stm32746g_discovery.c ****   return __STM32746G_DISCO_BSP_VERSION;
 563              		.loc 1 162 1 is_stmt 1 view -0
 564              		.cfi_startproc
 565              		@ args = 0, pretend = 0, frame = 0
 566              		@ frame_needed = 0, uses_anonymous_args = 0
 567              		@ link register save eliminated.
 163:Drivers/BSP/STM32746G-Discovery/stm32746g_discovery.c **** }
 568              		.loc 1 163 3 view .LVU134
 164:Drivers/BSP/STM32746G-Discovery/stm32746g_discovery.c **** 
 569              		.loc 1 164 1 is_stmt 0 view .LVU135
 570 0000 0048     		ldr	r0, .L29
 571 0002 7047     		bx	lr
 572              	.L30:
 573              		.align	2
 574              	.L29:
 575 0004 00010102 		.word	33620224
 576              		.cfi_endproc
 577              	.LFE141:
 579              		.section	.text.BSP_LED_Init,"ax",%progbits
 580              		.align	1
 581              		.global	BSP_LED_Init
 582              		.syntax unified
 583              		.thumb
 584              		.thumb_func
 586              	BSP_LED_Init:
 587              	.LVL40:
 588              	.LFB142:
 174:Drivers/BSP/STM32746G-Discovery/stm32746g_discovery.c ****   GPIO_InitTypeDef  gpio_init_structure;
 589              		.loc 1 174 1 is_stmt 1 view -0
 590              		.cfi_startproc
 591              		@ args = 0, pretend = 0, frame = 24
 592              		@ frame_needed = 0, uses_anonymous_args = 0
 175:Drivers/BSP/STM32746G-Discovery/stm32746g_discovery.c ****   GPIO_TypeDef*     gpio_led;
 593              		.loc 1 175 3 view .LVU137
 176:Drivers/BSP/STM32746G-Discovery/stm32746g_discovery.c **** 
 594              		.loc 1 176 3 view .LVU138
 178:Drivers/BSP/STM32746G-Discovery/stm32746g_discovery.c ****   {
 595              		.loc 1 178 3 view .LVU139
 178:Drivers/BSP/STM32746G-Discovery/stm32746g_discovery.c ****   {
 596              		.loc 1 178 6 is_stmt 0 view .LVU140
 597 0000 00B1     		cbz	r0, .L37
 598 0002 7047     		bx	lr
 599              	.L37:
 174:Drivers/BSP/STM32746G-Discovery/stm32746g_discovery.c ****   GPIO_InitTypeDef  gpio_init_structure;
 600              		.loc 1 174 1 view .LVU141
 601 0004 30B5     		push	{r4, r5, lr}
 602              	.LCFI15:
 603              		.cfi_def_cfa_offset 12
 604              		.cfi_offset 4, -12
 605              		.cfi_offset 5, -8
ARM GAS  /tmp/ccGVQGsk.s 			page 24


 606              		.cfi_offset 14, -4
 607 0006 87B0     		sub	sp, sp, #28
 608              	.LCFI16:
 609              		.cfi_def_cfa_offset 40
 180:Drivers/BSP/STM32746G-Discovery/stm32746g_discovery.c ****     /* Enable the GPIO_LED clock */
 610              		.loc 1 180 5 is_stmt 1 view .LVU142
 611              	.LVL41:
 182:Drivers/BSP/STM32746G-Discovery/stm32746g_discovery.c **** 
 612              		.loc 1 182 5 view .LVU143
 613              	.LBB6:
 182:Drivers/BSP/STM32746G-Discovery/stm32746g_discovery.c **** 
 614              		.loc 1 182 5 view .LVU144
 182:Drivers/BSP/STM32746G-Discovery/stm32746g_discovery.c **** 
 615              		.loc 1 182 5 view .LVU145
 616 0008 0E4B     		ldr	r3, .L38
 617 000a 1A6B     		ldr	r2, [r3, #48]
 618 000c 42F48072 		orr	r2, r2, #256
 619 0010 1A63     		str	r2, [r3, #48]
 182:Drivers/BSP/STM32746G-Discovery/stm32746g_discovery.c **** 
 620              		.loc 1 182 5 view .LVU146
 621 0012 1B6B     		ldr	r3, [r3, #48]
 622 0014 03F48073 		and	r3, r3, #256
 623 0018 0093     		str	r3, [sp]
 182:Drivers/BSP/STM32746G-Discovery/stm32746g_discovery.c **** 
 624              		.loc 1 182 5 view .LVU147
 625 001a 009B     		ldr	r3, [sp]
 626              	.LBE6:
 182:Drivers/BSP/STM32746G-Discovery/stm32746g_discovery.c **** 
 627              		.loc 1 182 5 view .LVU148
 185:Drivers/BSP/STM32746G-Discovery/stm32746g_discovery.c ****     gpio_init_structure.Mode = GPIO_MODE_OUTPUT_PP;
 628              		.loc 1 185 5 view .LVU149
 185:Drivers/BSP/STM32746G-Discovery/stm32746g_discovery.c ****     gpio_init_structure.Mode = GPIO_MODE_OUTPUT_PP;
 629              		.loc 1 185 29 is_stmt 0 view .LVU150
 630 001c 0225     		movs	r5, #2
 631 001e 0195     		str	r5, [sp, #4]
 186:Drivers/BSP/STM32746G-Discovery/stm32746g_discovery.c ****     gpio_init_structure.Pull = GPIO_PULLUP;
 632              		.loc 1 186 5 is_stmt 1 view .LVU151
 186:Drivers/BSP/STM32746G-Discovery/stm32746g_discovery.c ****     gpio_init_structure.Pull = GPIO_PULLUP;
 633              		.loc 1 186 30 is_stmt 0 view .LVU152
 634 0020 0123     		movs	r3, #1
 635 0022 0293     		str	r3, [sp, #8]
 187:Drivers/BSP/STM32746G-Discovery/stm32746g_discovery.c ****     gpio_init_structure.Speed = GPIO_SPEED_HIGH;
 636              		.loc 1 187 5 is_stmt 1 view .LVU153
 187:Drivers/BSP/STM32746G-Discovery/stm32746g_discovery.c ****     gpio_init_structure.Speed = GPIO_SPEED_HIGH;
 637              		.loc 1 187 30 is_stmt 0 view .LVU154
 638 0024 0393     		str	r3, [sp, #12]
 188:Drivers/BSP/STM32746G-Discovery/stm32746g_discovery.c ****   
 639              		.loc 1 188 5 is_stmt 1 view .LVU155
 188:Drivers/BSP/STM32746G-Discovery/stm32746g_discovery.c ****   
 640              		.loc 1 188 31 is_stmt 0 view .LVU156
 641 0026 0323     		movs	r3, #3
 642 0028 0493     		str	r3, [sp, #16]
 190:Drivers/BSP/STM32746G-Discovery/stm32746g_discovery.c ****     
 643              		.loc 1 190 5 is_stmt 1 view .LVU157
 644 002a 074C     		ldr	r4, .L38+4
 645 002c 01A9     		add	r1, sp, #4
 646 002e 2046     		mov	r0, r4
ARM GAS  /tmp/ccGVQGsk.s 			page 25


 647              	.LVL42:
 190:Drivers/BSP/STM32746G-Discovery/stm32746g_discovery.c ****     
 648              		.loc 1 190 5 is_stmt 0 view .LVU158
 649 0030 FFF7FEFF 		bl	HAL_GPIO_Init
 650              	.LVL43:
 193:Drivers/BSP/STM32746G-Discovery/stm32746g_discovery.c ****   }
 651              		.loc 1 193 5 is_stmt 1 view .LVU159
 652 0034 0022     		movs	r2, #0
 653 0036 2946     		mov	r1, r5
 654 0038 2046     		mov	r0, r4
 655 003a FFF7FEFF 		bl	HAL_GPIO_WritePin
 656              	.LVL44:
 195:Drivers/BSP/STM32746G-Discovery/stm32746g_discovery.c **** 
 657              		.loc 1 195 1 is_stmt 0 view .LVU160
 658 003e 07B0     		add	sp, sp, #28
 659              	.LCFI17:
 660              		.cfi_def_cfa_offset 12
 661              		@ sp needed
 662 0040 30BD     		pop	{r4, r5, pc}
 663              	.L39:
 664 0042 00BF     		.align	2
 665              	.L38:
 666 0044 00380240 		.word	1073887232
 667 0048 00200240 		.word	1073881088
 668              		.cfi_endproc
 669              	.LFE142:
 671              		.section	.text.BSP_LED_DeInit,"ax",%progbits
 672              		.align	1
 673              		.global	BSP_LED_DeInit
 674              		.syntax unified
 675              		.thumb
 676              		.thumb_func
 678              	BSP_LED_DeInit:
 679              	.LVL45:
 680              	.LFB143:
 206:Drivers/BSP/STM32746G-Discovery/stm32746g_discovery.c ****   GPIO_InitTypeDef  gpio_init_structure;
 681              		.loc 1 206 1 is_stmt 1 view -0
 682              		.cfi_startproc
 683              		@ args = 0, pretend = 0, frame = 24
 684              		@ frame_needed = 0, uses_anonymous_args = 0
 207:Drivers/BSP/STM32746G-Discovery/stm32746g_discovery.c ****   GPIO_TypeDef*     gpio_led;
 685              		.loc 1 207 3 view .LVU162
 208:Drivers/BSP/STM32746G-Discovery/stm32746g_discovery.c **** 
 686              		.loc 1 208 3 view .LVU163
 210:Drivers/BSP/STM32746G-Discovery/stm32746g_discovery.c ****   {
 687              		.loc 1 210 3 view .LVU164
 210:Drivers/BSP/STM32746G-Discovery/stm32746g_discovery.c ****   {
 688              		.loc 1 210 6 is_stmt 0 view .LVU165
 689 0000 00B1     		cbz	r0, .L46
 690 0002 7047     		bx	lr
 691              	.L46:
 206:Drivers/BSP/STM32746G-Discovery/stm32746g_discovery.c ****   GPIO_InitTypeDef  gpio_init_structure;
 692              		.loc 1 206 1 view .LVU166
 693 0004 10B5     		push	{r4, lr}
 694              	.LCFI18:
 695              		.cfi_def_cfa_offset 8
 696              		.cfi_offset 4, -8
ARM GAS  /tmp/ccGVQGsk.s 			page 26


 697              		.cfi_offset 14, -4
 698 0006 86B0     		sub	sp, sp, #24
 699              	.LCFI19:
 700              		.cfi_def_cfa_offset 32
 212:Drivers/BSP/STM32746G-Discovery/stm32746g_discovery.c ****     /* Turn off LED */
 701              		.loc 1 212 5 is_stmt 1 view .LVU167
 702              	.LVL46:
 214:Drivers/BSP/STM32746G-Discovery/stm32746g_discovery.c ****     /* Configure the GPIO_LED pin */
 703              		.loc 1 214 5 view .LVU168
 704 0008 064C     		ldr	r4, .L47
 705 000a 0022     		movs	r2, #0
 706 000c 0221     		movs	r1, #2
 707 000e 2046     		mov	r0, r4
 708              	.LVL47:
 214:Drivers/BSP/STM32746G-Discovery/stm32746g_discovery.c ****     /* Configure the GPIO_LED pin */
 709              		.loc 1 214 5 is_stmt 0 view .LVU169
 710 0010 FFF7FEFF 		bl	HAL_GPIO_WritePin
 711              	.LVL48:
 216:Drivers/BSP/STM32746G-Discovery/stm32746g_discovery.c ****     HAL_GPIO_DeInit(gpio_led, gpio_init_structure.Pin);
 712              		.loc 1 216 5 is_stmt 1 view .LVU170
 216:Drivers/BSP/STM32746G-Discovery/stm32746g_discovery.c ****     HAL_GPIO_DeInit(gpio_led, gpio_init_structure.Pin);
 713              		.loc 1 216 29 is_stmt 0 view .LVU171
 714 0014 0221     		movs	r1, #2
 715 0016 0191     		str	r1, [sp, #4]
 217:Drivers/BSP/STM32746G-Discovery/stm32746g_discovery.c ****   }
 716              		.loc 1 217 5 is_stmt 1 view .LVU172
 717 0018 2046     		mov	r0, r4
 718 001a FFF7FEFF 		bl	HAL_GPIO_DeInit
 719              	.LVL49:
 219:Drivers/BSP/STM32746G-Discovery/stm32746g_discovery.c **** 
 720              		.loc 1 219 1 is_stmt 0 view .LVU173
 721 001e 06B0     		add	sp, sp, #24
 722              	.LCFI20:
 723              		.cfi_def_cfa_offset 8
 724              		@ sp needed
 725 0020 10BD     		pop	{r4, pc}
 726              	.L48:
 727 0022 00BF     		.align	2
 728              	.L47:
 729 0024 00200240 		.word	1073881088
 730              		.cfi_endproc
 731              	.LFE143:
 733              		.section	.text.BSP_LED_On,"ax",%progbits
 734              		.align	1
 735              		.global	BSP_LED_On
 736              		.syntax unified
 737              		.thumb
 738              		.thumb_func
 740              	BSP_LED_On:
 741              	.LVL50:
 742              	.LFB144:
 229:Drivers/BSP/STM32746G-Discovery/stm32746g_discovery.c ****   GPIO_TypeDef*     gpio_led;
 743              		.loc 1 229 1 is_stmt 1 view -0
 744              		.cfi_startproc
 745              		@ args = 0, pretend = 0, frame = 0
 746              		@ frame_needed = 0, uses_anonymous_args = 0
 230:Drivers/BSP/STM32746G-Discovery/stm32746g_discovery.c **** 
ARM GAS  /tmp/ccGVQGsk.s 			page 27


 747              		.loc 1 230 3 view .LVU175
 232:Drivers/BSP/STM32746G-Discovery/stm32746g_discovery.c ****   {
 748              		.loc 1 232 3 view .LVU176
 232:Drivers/BSP/STM32746G-Discovery/stm32746g_discovery.c ****   {
 749              		.loc 1 232 6 is_stmt 0 view .LVU177
 750 0000 00B1     		cbz	r0, .L55
 751 0002 7047     		bx	lr
 752              	.L55:
 229:Drivers/BSP/STM32746G-Discovery/stm32746g_discovery.c ****   GPIO_TypeDef*     gpio_led;
 753              		.loc 1 229 1 view .LVU178
 754 0004 08B5     		push	{r3, lr}
 755              	.LCFI21:
 756              		.cfi_def_cfa_offset 8
 757              		.cfi_offset 3, -8
 758              		.cfi_offset 14, -4
 234:Drivers/BSP/STM32746G-Discovery/stm32746g_discovery.c ****     HAL_GPIO_WritePin(gpio_led, GPIO_PIN[Led], GPIO_PIN_SET);
 759              		.loc 1 234 5 is_stmt 1 view .LVU179
 760              	.LVL51:
 235:Drivers/BSP/STM32746G-Discovery/stm32746g_discovery.c ****   }
 761              		.loc 1 235 5 view .LVU180
 762 0006 0122     		movs	r2, #1
 763 0008 0221     		movs	r1, #2
 764 000a 0248     		ldr	r0, .L56
 765              	.LVL52:
 235:Drivers/BSP/STM32746G-Discovery/stm32746g_discovery.c ****   }
 766              		.loc 1 235 5 is_stmt 0 view .LVU181
 767 000c FFF7FEFF 		bl	HAL_GPIO_WritePin
 768              	.LVL53:
 237:Drivers/BSP/STM32746G-Discovery/stm32746g_discovery.c **** 
 769              		.loc 1 237 1 view .LVU182
 770 0010 08BD     		pop	{r3, pc}
 771              	.L57:
 772 0012 00BF     		.align	2
 773              	.L56:
 774 0014 00200240 		.word	1073881088
 775              		.cfi_endproc
 776              	.LFE144:
 778              		.section	.text.BSP_LED_Off,"ax",%progbits
 779              		.align	1
 780              		.global	BSP_LED_Off
 781              		.syntax unified
 782              		.thumb
 783              		.thumb_func
 785              	BSP_LED_Off:
 786              	.LVL54:
 787              	.LFB145:
 247:Drivers/BSP/STM32746G-Discovery/stm32746g_discovery.c ****   GPIO_TypeDef*     gpio_led;
 788              		.loc 1 247 1 is_stmt 1 view -0
 789              		.cfi_startproc
 790              		@ args = 0, pretend = 0, frame = 0
 791              		@ frame_needed = 0, uses_anonymous_args = 0
 248:Drivers/BSP/STM32746G-Discovery/stm32746g_discovery.c **** 
 792              		.loc 1 248 3 view .LVU184
 250:Drivers/BSP/STM32746G-Discovery/stm32746g_discovery.c ****   {
 793              		.loc 1 250 3 view .LVU185
 250:Drivers/BSP/STM32746G-Discovery/stm32746g_discovery.c ****   {
 794              		.loc 1 250 6 is_stmt 0 view .LVU186
ARM GAS  /tmp/ccGVQGsk.s 			page 28


 795 0000 00B1     		cbz	r0, .L64
 796 0002 7047     		bx	lr
 797              	.L64:
 247:Drivers/BSP/STM32746G-Discovery/stm32746g_discovery.c ****   GPIO_TypeDef*     gpio_led;
 798              		.loc 1 247 1 view .LVU187
 799 0004 08B5     		push	{r3, lr}
 800              	.LCFI22:
 801              		.cfi_def_cfa_offset 8
 802              		.cfi_offset 3, -8
 803              		.cfi_offset 14, -4
 252:Drivers/BSP/STM32746G-Discovery/stm32746g_discovery.c ****     HAL_GPIO_WritePin(gpio_led, GPIO_PIN[Led], GPIO_PIN_RESET);
 804              		.loc 1 252 5 is_stmt 1 view .LVU188
 805              	.LVL55:
 253:Drivers/BSP/STM32746G-Discovery/stm32746g_discovery.c ****   }
 806              		.loc 1 253 5 view .LVU189
 807 0006 0022     		movs	r2, #0
 808 0008 0221     		movs	r1, #2
 809 000a 0248     		ldr	r0, .L65
 810              	.LVL56:
 253:Drivers/BSP/STM32746G-Discovery/stm32746g_discovery.c ****   }
 811              		.loc 1 253 5 is_stmt 0 view .LVU190
 812 000c FFF7FEFF 		bl	HAL_GPIO_WritePin
 813              	.LVL57:
 255:Drivers/BSP/STM32746G-Discovery/stm32746g_discovery.c **** 
 814              		.loc 1 255 1 view .LVU191
 815 0010 08BD     		pop	{r3, pc}
 816              	.L66:
 817 0012 00BF     		.align	2
 818              	.L65:
 819 0014 00200240 		.word	1073881088
 820              		.cfi_endproc
 821              	.LFE145:
 823              		.section	.text.BSP_LED_Toggle,"ax",%progbits
 824              		.align	1
 825              		.global	BSP_LED_Toggle
 826              		.syntax unified
 827              		.thumb
 828              		.thumb_func
 830              	BSP_LED_Toggle:
 831              	.LVL58:
 832              	.LFB146:
 265:Drivers/BSP/STM32746G-Discovery/stm32746g_discovery.c ****   GPIO_TypeDef*     gpio_led;
 833              		.loc 1 265 1 is_stmt 1 view -0
 834              		.cfi_startproc
 835              		@ args = 0, pretend = 0, frame = 0
 836              		@ frame_needed = 0, uses_anonymous_args = 0
 266:Drivers/BSP/STM32746G-Discovery/stm32746g_discovery.c **** 
 837              		.loc 1 266 3 view .LVU193
 268:Drivers/BSP/STM32746G-Discovery/stm32746g_discovery.c ****   {
 838              		.loc 1 268 3 view .LVU194
 268:Drivers/BSP/STM32746G-Discovery/stm32746g_discovery.c ****   {
 839              		.loc 1 268 6 is_stmt 0 view .LVU195
 840 0000 00B1     		cbz	r0, .L73
 841 0002 7047     		bx	lr
 842              	.L73:
 265:Drivers/BSP/STM32746G-Discovery/stm32746g_discovery.c ****   GPIO_TypeDef*     gpio_led;
 843              		.loc 1 265 1 view .LVU196
ARM GAS  /tmp/ccGVQGsk.s 			page 29


 844 0004 08B5     		push	{r3, lr}
 845              	.LCFI23:
 846              		.cfi_def_cfa_offset 8
 847              		.cfi_offset 3, -8
 848              		.cfi_offset 14, -4
 270:Drivers/BSP/STM32746G-Discovery/stm32746g_discovery.c ****     HAL_GPIO_TogglePin(gpio_led, GPIO_PIN[Led]);
 849              		.loc 1 270 5 is_stmt 1 view .LVU197
 850              	.LVL59:
 271:Drivers/BSP/STM32746G-Discovery/stm32746g_discovery.c ****   }
 851              		.loc 1 271 5 view .LVU198
 852 0006 0221     		movs	r1, #2
 853 0008 0148     		ldr	r0, .L74
 854              	.LVL60:
 271:Drivers/BSP/STM32746G-Discovery/stm32746g_discovery.c ****   }
 855              		.loc 1 271 5 is_stmt 0 view .LVU199
 856 000a FFF7FEFF 		bl	HAL_GPIO_TogglePin
 857              	.LVL61:
 273:Drivers/BSP/STM32746G-Discovery/stm32746g_discovery.c **** 
 858              		.loc 1 273 1 view .LVU200
 859 000e 08BD     		pop	{r3, pc}
 860              	.L75:
 861              		.align	2
 862              	.L74:
 863 0010 00200240 		.word	1073881088
 864              		.cfi_endproc
 865              	.LFE146:
 867              		.section	.text.BSP_PB_Init,"ax",%progbits
 868              		.align	1
 869              		.global	BSP_PB_Init
 870              		.syntax unified
 871              		.thumb
 872              		.thumb_func
 874              	BSP_PB_Init:
 875              	.LVL62:
 876              	.LFB147:
 293:Drivers/BSP/STM32746G-Discovery/stm32746g_discovery.c ****   GPIO_InitTypeDef gpio_init_structure;
 877              		.loc 1 293 1 is_stmt 1 view -0
 878              		.cfi_startproc
 879              		@ args = 0, pretend = 0, frame = 32
 880              		@ frame_needed = 0, uses_anonymous_args = 0
 293:Drivers/BSP/STM32746G-Discovery/stm32746g_discovery.c ****   GPIO_InitTypeDef gpio_init_structure;
 881              		.loc 1 293 1 is_stmt 0 view .LVU202
 882 0000 30B5     		push	{r4, r5, lr}
 883              	.LCFI24:
 884              		.cfi_def_cfa_offset 12
 885              		.cfi_offset 4, -12
 886              		.cfi_offset 5, -8
 887              		.cfi_offset 14, -4
 888 0002 89B0     		sub	sp, sp, #36
 889              	.LCFI25:
 890              		.cfi_def_cfa_offset 48
 891 0004 0C46     		mov	r4, r1
 294:Drivers/BSP/STM32746G-Discovery/stm32746g_discovery.c ****   
 892              		.loc 1 294 3 is_stmt 1 view .LVU203
 297:Drivers/BSP/STM32746G-Discovery/stm32746g_discovery.c ****   
 893              		.loc 1 297 3 view .LVU204
 297:Drivers/BSP/STM32746G-Discovery/stm32746g_discovery.c ****   
ARM GAS  /tmp/ccGVQGsk.s 			page 30


 894              		.loc 1 297 3 view .LVU205
 895 0006 0546     		mov	r5, r0
 896 0008 70B9     		cbnz	r0, .L77
 297:Drivers/BSP/STM32746G-Discovery/stm32746g_discovery.c ****   
 897              		.loc 1 297 3 discriminator 1 view .LVU206
 898              	.LBB7:
 297:Drivers/BSP/STM32746G-Discovery/stm32746g_discovery.c ****   
 899              		.loc 1 297 3 discriminator 1 view .LVU207
 297:Drivers/BSP/STM32746G-Discovery/stm32746g_discovery.c ****   
 900              		.loc 1 297 3 discriminator 1 view .LVU208
 901 000a 2C4B     		ldr	r3, .L88
 902 000c 1A6B     		ldr	r2, [r3, #48]
 903 000e 42F48072 		orr	r2, r2, #256
 904 0012 1A63     		str	r2, [r3, #48]
 297:Drivers/BSP/STM32746G-Discovery/stm32746g_discovery.c ****   
 905              		.loc 1 297 3 view .LVU209
 297:Drivers/BSP/STM32746G-Discovery/stm32746g_discovery.c ****   
 906              		.loc 1 297 3 is_stmt 0 discriminator 1 view .LVU210
 907 0014 1B6B     		ldr	r3, [r3, #48]
 908 0016 03F48073 		and	r3, r3, #256
 909 001a 0093     		str	r3, [sp]
 297:Drivers/BSP/STM32746G-Discovery/stm32746g_discovery.c ****   
 910              		.loc 1 297 3 is_stmt 1 view .LVU211
 297:Drivers/BSP/STM32746G-Discovery/stm32746g_discovery.c ****   
 911              		.loc 1 297 3 is_stmt 0 discriminator 1 view .LVU212
 912 001c 009B     		ldr	r3, [sp]
 913              	.LBE7:
 297:Drivers/BSP/STM32746G-Discovery/stm32746g_discovery.c ****   
 914              		.loc 1 297 3 is_stmt 1 view .LVU213
 915              	.L78:
 297:Drivers/BSP/STM32746G-Discovery/stm32746g_discovery.c ****   
 916              		.loc 1 297 3 discriminator 7 view .LVU214
 297:Drivers/BSP/STM32746G-Discovery/stm32746g_discovery.c ****   
 917              		.loc 1 297 3 discriminator 7 view .LVU215
 299:Drivers/BSP/STM32746G-Discovery/stm32746g_discovery.c ****   {
 918              		.loc 1 299 3 view .LVU216
 299:Drivers/BSP/STM32746G-Discovery/stm32746g_discovery.c ****   {
 919              		.loc 1 299 5 is_stmt 0 view .LVU217
 920 001e DCB1     		cbz	r4, .L85
 921              	.LVL63:
 922              	.L80:
 309:Drivers/BSP/STM32746G-Discovery/stm32746g_discovery.c ****   {
 923              		.loc 1 309 3 is_stmt 1 view .LVU218
 309:Drivers/BSP/STM32746G-Discovery/stm32746g_discovery.c ****   {
 924              		.loc 1 309 5 is_stmt 0 view .LVU219
 925 0020 012C     		cmp	r4, #1
 926 0022 29D0     		beq	.L86
 927              	.LVL64:
 928              	.L76:
 331:Drivers/BSP/STM32746G-Discovery/stm32746g_discovery.c **** 
 929              		.loc 1 331 1 view .LVU220
 930 0024 09B0     		add	sp, sp, #36
 931              	.LCFI26:
 932              		.cfi_remember_state
 933              		.cfi_def_cfa_offset 12
 934              		@ sp needed
 935 0026 30BD     		pop	{r4, r5, pc}
ARM GAS  /tmp/ccGVQGsk.s 			page 31


 936              	.LVL65:
 937              	.L77:
 938              	.LCFI27:
 939              		.cfi_restore_state
 297:Drivers/BSP/STM32746G-Discovery/stm32746g_discovery.c ****   
 940              		.loc 1 297 3 is_stmt 1 discriminator 2 view .LVU221
 941 0028 0128     		cmp	r0, #1
 942 002a 0AD0     		beq	.L87
 297:Drivers/BSP/STM32746G-Discovery/stm32746g_discovery.c ****   
 943              		.loc 1 297 3 discriminator 5 view .LVU222
 944              	.LBB8:
 297:Drivers/BSP/STM32746G-Discovery/stm32746g_discovery.c ****   
 945              		.loc 1 297 3 discriminator 5 view .LVU223
 297:Drivers/BSP/STM32746G-Discovery/stm32746g_discovery.c ****   
 946              		.loc 1 297 3 discriminator 5 view .LVU224
 947 002c 234B     		ldr	r3, .L88
 948 002e 1A6B     		ldr	r2, [r3, #48]
 949 0030 42F48072 		orr	r2, r2, #256
 950 0034 1A63     		str	r2, [r3, #48]
 297:Drivers/BSP/STM32746G-Discovery/stm32746g_discovery.c ****   
 951              		.loc 1 297 3 view .LVU225
 297:Drivers/BSP/STM32746G-Discovery/stm32746g_discovery.c ****   
 952              		.loc 1 297 3 is_stmt 0 discriminator 5 view .LVU226
 953 0036 1B6B     		ldr	r3, [r3, #48]
 954 0038 03F48073 		and	r3, r3, #256
 955 003c 0293     		str	r3, [sp, #8]
 297:Drivers/BSP/STM32746G-Discovery/stm32746g_discovery.c ****   
 956              		.loc 1 297 3 is_stmt 1 view .LVU227
 297:Drivers/BSP/STM32746G-Discovery/stm32746g_discovery.c ****   
 957              		.loc 1 297 3 is_stmt 0 discriminator 5 view .LVU228
 958 003e 029B     		ldr	r3, [sp, #8]
 959 0040 EDE7     		b	.L78
 960              	.L87:
 961              	.LBE8:
 297:Drivers/BSP/STM32746G-Discovery/stm32746g_discovery.c ****   
 962              		.loc 1 297 3 is_stmt 1 discriminator 4 view .LVU229
 963              	.LBB9:
 297:Drivers/BSP/STM32746G-Discovery/stm32746g_discovery.c ****   
 964              		.loc 1 297 3 discriminator 4 view .LVU230
 297:Drivers/BSP/STM32746G-Discovery/stm32746g_discovery.c ****   
 965              		.loc 1 297 3 discriminator 4 view .LVU231
 966 0042 1E4B     		ldr	r3, .L88
 967 0044 1A6B     		ldr	r2, [r3, #48]
 968 0046 42F48072 		orr	r2, r2, #256
 969 004a 1A63     		str	r2, [r3, #48]
 297:Drivers/BSP/STM32746G-Discovery/stm32746g_discovery.c ****   
 970              		.loc 1 297 3 view .LVU232
 297:Drivers/BSP/STM32746G-Discovery/stm32746g_discovery.c ****   
 971              		.loc 1 297 3 is_stmt 0 discriminator 4 view .LVU233
 972 004c 1B6B     		ldr	r3, [r3, #48]
 973 004e 03F48073 		and	r3, r3, #256
 974 0052 0193     		str	r3, [sp, #4]
 297:Drivers/BSP/STM32746G-Discovery/stm32746g_discovery.c ****   
 975              		.loc 1 297 3 is_stmt 1 view .LVU234
 297:Drivers/BSP/STM32746G-Discovery/stm32746g_discovery.c ****   
 976              		.loc 1 297 3 is_stmt 0 discriminator 4 view .LVU235
 977 0054 019B     		ldr	r3, [sp, #4]
ARM GAS  /tmp/ccGVQGsk.s 			page 32


 978              	.LBE9:
 297:Drivers/BSP/STM32746G-Discovery/stm32746g_discovery.c ****   
 979              		.loc 1 297 3 is_stmt 1 view .LVU236
 980 0056 E2E7     		b	.L78
 981              	.L85:
 302:Drivers/BSP/STM32746G-Discovery/stm32746g_discovery.c ****     gpio_init_structure.Mode = GPIO_MODE_INPUT;
 982              		.loc 1 302 5 view .LVU237
 302:Drivers/BSP/STM32746G-Discovery/stm32746g_discovery.c ****     gpio_init_structure.Mode = GPIO_MODE_INPUT;
 983              		.loc 1 302 41 is_stmt 0 view .LVU238
 984 0058 194B     		ldr	r3, .L88+4
 985 005a 33F81530 		ldrh	r3, [r3, r5, lsl #1]
 302:Drivers/BSP/STM32746G-Discovery/stm32746g_discovery.c ****     gpio_init_structure.Mode = GPIO_MODE_INPUT;
 986              		.loc 1 302 29 view .LVU239
 987 005e 0393     		str	r3, [sp, #12]
 303:Drivers/BSP/STM32746G-Discovery/stm32746g_discovery.c ****     gpio_init_structure.Pull = GPIO_NOPULL;
 988              		.loc 1 303 5 is_stmt 1 view .LVU240
 303:Drivers/BSP/STM32746G-Discovery/stm32746g_discovery.c ****     gpio_init_structure.Pull = GPIO_NOPULL;
 989              		.loc 1 303 30 is_stmt 0 view .LVU241
 990 0060 0023     		movs	r3, #0
 991 0062 0493     		str	r3, [sp, #16]
 304:Drivers/BSP/STM32746G-Discovery/stm32746g_discovery.c ****     gpio_init_structure.Speed = GPIO_SPEED_FAST;
 992              		.loc 1 304 5 is_stmt 1 view .LVU242
 304:Drivers/BSP/STM32746G-Discovery/stm32746g_discovery.c ****     gpio_init_structure.Speed = GPIO_SPEED_FAST;
 993              		.loc 1 304 30 is_stmt 0 view .LVU243
 994 0064 0593     		str	r3, [sp, #20]
 305:Drivers/BSP/STM32746G-Discovery/stm32746g_discovery.c ****     HAL_GPIO_Init(BUTTON_PORT[Button], &gpio_init_structure);
 995              		.loc 1 305 5 is_stmt 1 view .LVU244
 305:Drivers/BSP/STM32746G-Discovery/stm32746g_discovery.c ****     HAL_GPIO_Init(BUTTON_PORT[Button], &gpio_init_structure);
 996              		.loc 1 305 31 is_stmt 0 view .LVU245
 997 0066 0223     		movs	r3, #2
 998 0068 0693     		str	r3, [sp, #24]
 306:Drivers/BSP/STM32746G-Discovery/stm32746g_discovery.c ****   }
 999              		.loc 1 306 5 is_stmt 1 view .LVU246
 1000 006a 03A9     		add	r1, sp, #12
 1001              	.LVL66:
 306:Drivers/BSP/STM32746G-Discovery/stm32746g_discovery.c ****   }
 1002              		.loc 1 306 5 is_stmt 0 view .LVU247
 1003 006c 154B     		ldr	r3, .L88+8
 1004 006e 53F82500 		ldr	r0, [r3, r5, lsl #2]
 1005              	.LVL67:
 306:Drivers/BSP/STM32746G-Discovery/stm32746g_discovery.c ****   }
 1006              		.loc 1 306 5 view .LVU248
 1007 0072 FFF7FEFF 		bl	HAL_GPIO_Init
 1008              	.LVL68:
 1009 0076 D3E7     		b	.L80
 1010              	.L86:
 312:Drivers/BSP/STM32746G-Discovery/stm32746g_discovery.c ****     gpio_init_structure.Pull = GPIO_NOPULL;
 1011              		.loc 1 312 5 is_stmt 1 view .LVU249
 312:Drivers/BSP/STM32746G-Discovery/stm32746g_discovery.c ****     gpio_init_structure.Pull = GPIO_NOPULL;
 1012              		.loc 1 312 41 is_stmt 0 view .LVU250
 1013 0078 114B     		ldr	r3, .L88+4
 1014 007a 33F81530 		ldrh	r3, [r3, r5, lsl #1]
 312:Drivers/BSP/STM32746G-Discovery/stm32746g_discovery.c ****     gpio_init_structure.Pull = GPIO_NOPULL;
 1015              		.loc 1 312 29 view .LVU251
 1016 007e 0393     		str	r3, [sp, #12]
 313:Drivers/BSP/STM32746G-Discovery/stm32746g_discovery.c ****     gpio_init_structure.Speed = GPIO_SPEED_FAST;
 1017              		.loc 1 313 5 is_stmt 1 view .LVU252
ARM GAS  /tmp/ccGVQGsk.s 			page 33


 313:Drivers/BSP/STM32746G-Discovery/stm32746g_discovery.c ****     gpio_init_structure.Speed = GPIO_SPEED_FAST;
 1018              		.loc 1 313 30 is_stmt 0 view .LVU253
 1019 0080 0023     		movs	r3, #0
 1020 0082 0593     		str	r3, [sp, #20]
 314:Drivers/BSP/STM32746G-Discovery/stm32746g_discovery.c ****     
 1021              		.loc 1 314 5 is_stmt 1 view .LVU254
 314:Drivers/BSP/STM32746G-Discovery/stm32746g_discovery.c ****     
 1022              		.loc 1 314 31 is_stmt 0 view .LVU255
 1023 0084 0223     		movs	r3, #2
 1024 0086 0693     		str	r3, [sp, #24]
 316:Drivers/BSP/STM32746G-Discovery/stm32746g_discovery.c ****     {
 1025              		.loc 1 316 5 is_stmt 1 view .LVU256
 316:Drivers/BSP/STM32746G-Discovery/stm32746g_discovery.c ****     {
 1026              		.loc 1 316 7 is_stmt 0 view .LVU257
 1027 0088 A5B1     		cbz	r5, .L82
 318:Drivers/BSP/STM32746G-Discovery/stm32746g_discovery.c ****     }
 1028              		.loc 1 318 7 is_stmt 1 view .LVU258
 318:Drivers/BSP/STM32746G-Discovery/stm32746g_discovery.c ****     }
 1029              		.loc 1 318 32 is_stmt 0 view .LVU259
 1030 008a 4FF40413 		mov	r3, #2162688
 1031 008e 0493     		str	r3, [sp, #16]
 1032              	.L83:
 325:Drivers/BSP/STM32746G-Discovery/stm32746g_discovery.c ****     
 1033              		.loc 1 325 5 is_stmt 1 view .LVU260
 1034 0090 03A9     		add	r1, sp, #12
 1035 0092 0C4B     		ldr	r3, .L88+8
 1036 0094 53F82500 		ldr	r0, [r3, r5, lsl #2]
 1037 0098 FFF7FEFF 		bl	HAL_GPIO_Init
 1038              	.LVL69:
 328:Drivers/BSP/STM32746G-Discovery/stm32746g_discovery.c ****     HAL_NVIC_EnableIRQ((IRQn_Type)(BUTTON_IRQn[Button]));
 1039              		.loc 1 328 5 view .LVU261
 328:Drivers/BSP/STM32746G-Discovery/stm32746g_discovery.c ****     HAL_NVIC_EnableIRQ((IRQn_Type)(BUTTON_IRQn[Button]));
 1040              		.loc 1 328 49 is_stmt 0 view .LVU262
 1041 009c 0A4B     		ldr	r3, .L88+12
 328:Drivers/BSP/STM32746G-Discovery/stm32746g_discovery.c ****     HAL_NVIC_EnableIRQ((IRQn_Type)(BUTTON_IRQn[Button]));
 1042              		.loc 1 328 5 view .LVU263
 1043 009e 13F91540 		ldrsb	r4, [r3, r5, lsl #1]
 1044              	.LVL70:
 328:Drivers/BSP/STM32746G-Discovery/stm32746g_discovery.c ****     HAL_NVIC_EnableIRQ((IRQn_Type)(BUTTON_IRQn[Button]));
 1045              		.loc 1 328 5 view .LVU264
 1046 00a2 0022     		movs	r2, #0
 1047 00a4 0F21     		movs	r1, #15
 1048 00a6 2046     		mov	r0, r4
 1049 00a8 FFF7FEFF 		bl	HAL_NVIC_SetPriority
 1050              	.LVL71:
 329:Drivers/BSP/STM32746G-Discovery/stm32746g_discovery.c ****   }
 1051              		.loc 1 329 5 is_stmt 1 view .LVU265
 1052 00ac 2046     		mov	r0, r4
 1053 00ae FFF7FEFF 		bl	HAL_NVIC_EnableIRQ
 1054              	.LVL72:
 331:Drivers/BSP/STM32746G-Discovery/stm32746g_discovery.c **** 
 1055              		.loc 1 331 1 is_stmt 0 view .LVU266
 1056 00b2 B7E7     		b	.L76
 1057              	.L82:
 322:Drivers/BSP/STM32746G-Discovery/stm32746g_discovery.c ****     }
 1058              		.loc 1 322 7 is_stmt 1 view .LVU267
 322:Drivers/BSP/STM32746G-Discovery/stm32746g_discovery.c ****     }
ARM GAS  /tmp/ccGVQGsk.s 			page 34


 1059              		.loc 1 322 32 is_stmt 0 view .LVU268
 1060 00b4 4FF48813 		mov	r3, #1114112
 1061 00b8 0493     		str	r3, [sp, #16]
 1062 00ba E9E7     		b	.L83
 1063              	.L89:
 1064              		.align	2
 1065              	.L88:
 1066 00bc 00380240 		.word	1073887232
 1067 00c0 00000000 		.word	BUTTON_PIN
 1068 00c4 00000000 		.word	BUTTON_PORT
 1069 00c8 00000000 		.word	BUTTON_IRQn
 1070              		.cfi_endproc
 1071              	.LFE147:
 1073              		.section	.text.BSP_PB_DeInit,"ax",%progbits
 1074              		.align	1
 1075              		.global	BSP_PB_DeInit
 1076              		.syntax unified
 1077              		.thumb
 1078              		.thumb_func
 1080              	BSP_PB_DeInit:
 1081              	.LVL73:
 1082              	.LFB148:
 347:Drivers/BSP/STM32746G-Discovery/stm32746g_discovery.c ****     GPIO_InitTypeDef gpio_init_structure;
 1083              		.loc 1 347 1 is_stmt 1 view -0
 1084              		.cfi_startproc
 1085              		@ args = 0, pretend = 0, frame = 24
 1086              		@ frame_needed = 0, uses_anonymous_args = 0
 347:Drivers/BSP/STM32746G-Discovery/stm32746g_discovery.c ****     GPIO_InitTypeDef gpio_init_structure;
 1087              		.loc 1 347 1 is_stmt 0 view .LVU270
 1088 0000 30B5     		push	{r4, r5, lr}
 1089              	.LCFI28:
 1090              		.cfi_def_cfa_offset 12
 1091              		.cfi_offset 4, -12
 1092              		.cfi_offset 5, -8
 1093              		.cfi_offset 14, -4
 1094 0002 87B0     		sub	sp, sp, #28
 1095              	.LCFI29:
 1096              		.cfi_def_cfa_offset 40
 1097 0004 0446     		mov	r4, r0
 348:Drivers/BSP/STM32746G-Discovery/stm32746g_discovery.c **** 
 1098              		.loc 1 348 5 is_stmt 1 view .LVU271
 350:Drivers/BSP/STM32746G-Discovery/stm32746g_discovery.c ****     HAL_NVIC_DisableIRQ((IRQn_Type)(BUTTON_IRQn[Button]));
 1099              		.loc 1 350 5 view .LVU272
 350:Drivers/BSP/STM32746G-Discovery/stm32746g_discovery.c ****     HAL_NVIC_DisableIRQ((IRQn_Type)(BUTTON_IRQn[Button]));
 1100              		.loc 1 350 41 is_stmt 0 view .LVU273
 1101 0006 084B     		ldr	r3, .L92
 1102 0008 33F81050 		ldrh	r5, [r3, r0, lsl #1]
 350:Drivers/BSP/STM32746G-Discovery/stm32746g_discovery.c ****     HAL_NVIC_DisableIRQ((IRQn_Type)(BUTTON_IRQn[Button]));
 1103              		.loc 1 350 29 view .LVU274
 1104 000c 0195     		str	r5, [sp, #4]
 351:Drivers/BSP/STM32746G-Discovery/stm32746g_discovery.c ****     HAL_GPIO_DeInit(BUTTON_PORT[Button], gpio_init_structure.Pin);
 1105              		.loc 1 351 5 is_stmt 1 view .LVU275
 1106 000e 074B     		ldr	r3, .L92+4
 1107 0010 13F91000 		ldrsb	r0, [r3, r0, lsl #1]
 1108              	.LVL74:
 351:Drivers/BSP/STM32746G-Discovery/stm32746g_discovery.c ****     HAL_GPIO_DeInit(BUTTON_PORT[Button], gpio_init_structure.Pin);
 1109              		.loc 1 351 5 is_stmt 0 view .LVU276
ARM GAS  /tmp/ccGVQGsk.s 			page 35


 1110 0014 FFF7FEFF 		bl	HAL_NVIC_DisableIRQ
 1111              	.LVL75:
 352:Drivers/BSP/STM32746G-Discovery/stm32746g_discovery.c **** }
 1112              		.loc 1 352 5 is_stmt 1 view .LVU277
 1113 0018 2946     		mov	r1, r5
 1114 001a 054B     		ldr	r3, .L92+8
 1115 001c 53F82400 		ldr	r0, [r3, r4, lsl #2]
 1116 0020 FFF7FEFF 		bl	HAL_GPIO_DeInit
 1117              	.LVL76:
 353:Drivers/BSP/STM32746G-Discovery/stm32746g_discovery.c **** 
 1118              		.loc 1 353 1 is_stmt 0 view .LVU278
 1119 0024 07B0     		add	sp, sp, #28
 1120              	.LCFI30:
 1121              		.cfi_def_cfa_offset 12
 1122              		@ sp needed
 1123 0026 30BD     		pop	{r4, r5, pc}
 1124              	.LVL77:
 1125              	.L93:
 353:Drivers/BSP/STM32746G-Discovery/stm32746g_discovery.c **** 
 1126              		.loc 1 353 1 view .LVU279
 1127              		.align	2
 1128              	.L92:
 1129 0028 00000000 		.word	BUTTON_PIN
 1130 002c 00000000 		.word	BUTTON_IRQn
 1131 0030 00000000 		.word	BUTTON_PORT
 1132              		.cfi_endproc
 1133              	.LFE148:
 1135              		.section	.text.BSP_PB_GetState,"ax",%progbits
 1136              		.align	1
 1137              		.global	BSP_PB_GetState
 1138              		.syntax unified
 1139              		.thumb
 1140              		.thumb_func
 1142              	BSP_PB_GetState:
 1143              	.LVL78:
 1144              	.LFB149:
 369:Drivers/BSP/STM32746G-Discovery/stm32746g_discovery.c ****   return HAL_GPIO_ReadPin(BUTTON_PORT[Button], BUTTON_PIN[Button]);
 1145              		.loc 1 369 1 is_stmt 1 view -0
 1146              		.cfi_startproc
 1147              		@ args = 0, pretend = 0, frame = 0
 1148              		@ frame_needed = 0, uses_anonymous_args = 0
 369:Drivers/BSP/STM32746G-Discovery/stm32746g_discovery.c ****   return HAL_GPIO_ReadPin(BUTTON_PORT[Button], BUTTON_PIN[Button]);
 1149              		.loc 1 369 1 is_stmt 0 view .LVU281
 1150 0000 08B5     		push	{r3, lr}
 1151              	.LCFI31:
 1152              		.cfi_def_cfa_offset 8
 1153              		.cfi_offset 3, -8
 1154              		.cfi_offset 14, -4
 370:Drivers/BSP/STM32746G-Discovery/stm32746g_discovery.c **** }
 1155              		.loc 1 370 3 is_stmt 1 view .LVU282
 370:Drivers/BSP/STM32746G-Discovery/stm32746g_discovery.c **** }
 1156              		.loc 1 370 10 is_stmt 0 view .LVU283
 1157 0002 044B     		ldr	r3, .L96
 1158 0004 33F81010 		ldrh	r1, [r3, r0, lsl #1]
 1159 0008 034B     		ldr	r3, .L96+4
 1160 000a 53F82000 		ldr	r0, [r3, r0, lsl #2]
 1161              	.LVL79:
ARM GAS  /tmp/ccGVQGsk.s 			page 36


 370:Drivers/BSP/STM32746G-Discovery/stm32746g_discovery.c **** }
 1162              		.loc 1 370 10 view .LVU284
 1163 000e FFF7FEFF 		bl	HAL_GPIO_ReadPin
 1164              	.LVL80:
 371:Drivers/BSP/STM32746G-Discovery/stm32746g_discovery.c **** 
 1165              		.loc 1 371 1 view .LVU285
 1166 0012 08BD     		pop	{r3, pc}
 1167              	.L97:
 1168              		.align	2
 1169              	.L96:
 1170 0014 00000000 		.word	BUTTON_PIN
 1171 0018 00000000 		.word	BUTTON_PORT
 1172              		.cfi_endproc
 1173              	.LFE149:
 1175              		.section	.text.BSP_COM_Init,"ax",%progbits
 1176              		.align	1
 1177              		.global	BSP_COM_Init
 1178              		.syntax unified
 1179              		.thumb
 1180              		.thumb_func
 1182              	BSP_COM_Init:
 1183              	.LVL81:
 1184              	.LFB150:
 384:Drivers/BSP/STM32746G-Discovery/stm32746g_discovery.c ****   GPIO_InitTypeDef gpio_init_structure;
 1185              		.loc 1 384 1 is_stmt 1 view -0
 1186              		.cfi_startproc
 1187              		@ args = 0, pretend = 0, frame = 32
 1188              		@ frame_needed = 0, uses_anonymous_args = 0
 384:Drivers/BSP/STM32746G-Discovery/stm32746g_discovery.c ****   GPIO_InitTypeDef gpio_init_structure;
 1189              		.loc 1 384 1 is_stmt 0 view .LVU287
 1190 0000 2DE9F041 		push	{r4, r5, r6, r7, r8, lr}
 1191              	.LCFI32:
 1192              		.cfi_def_cfa_offset 24
 1193              		.cfi_offset 4, -24
 1194              		.cfi_offset 5, -20
 1195              		.cfi_offset 6, -16
 1196              		.cfi_offset 7, -12
 1197              		.cfi_offset 8, -8
 1198              		.cfi_offset 14, -4
 1199 0004 88B0     		sub	sp, sp, #32
 1200              	.LCFI33:
 1201              		.cfi_def_cfa_offset 56
 1202 0006 0C46     		mov	r4, r1
 385:Drivers/BSP/STM32746G-Discovery/stm32746g_discovery.c **** 
 1203              		.loc 1 385 3 is_stmt 1 view .LVU288
 388:Drivers/BSP/STM32746G-Discovery/stm32746g_discovery.c ****   DISCOVERY_COMx_RX_GPIO_CLK_ENABLE(COM);
 1204              		.loc 1 388 3 view .LVU289
 388:Drivers/BSP/STM32746G-Discovery/stm32746g_discovery.c ****   DISCOVERY_COMx_RX_GPIO_CLK_ENABLE(COM);
 1205              		.loc 1 388 3 view .LVU290
 1206 0008 0546     		mov	r5, r0
 1207 000a 90B9     		cbnz	r0, .L99
 388:Drivers/BSP/STM32746G-Discovery/stm32746g_discovery.c ****   DISCOVERY_COMx_RX_GPIO_CLK_ENABLE(COM);
 1208              		.loc 1 388 3 discriminator 1 view .LVU291
 1209              	.LBB10:
 388:Drivers/BSP/STM32746G-Discovery/stm32746g_discovery.c ****   DISCOVERY_COMx_RX_GPIO_CLK_ENABLE(COM);
 1210              		.loc 1 388 3 discriminator 1 view .LVU292
 388:Drivers/BSP/STM32746G-Discovery/stm32746g_discovery.c ****   DISCOVERY_COMx_RX_GPIO_CLK_ENABLE(COM);
ARM GAS  /tmp/ccGVQGsk.s 			page 37


 1211              		.loc 1 388 3 discriminator 1 view .LVU293
 1212 000c 224B     		ldr	r3, .L102
 1213 000e 1A6B     		ldr	r2, [r3, #48]
 1214 0010 42F00102 		orr	r2, r2, #1
 1215 0014 1A63     		str	r2, [r3, #48]
 388:Drivers/BSP/STM32746G-Discovery/stm32746g_discovery.c ****   DISCOVERY_COMx_RX_GPIO_CLK_ENABLE(COM);
 1216              		.loc 1 388 3 view .LVU294
 388:Drivers/BSP/STM32746G-Discovery/stm32746g_discovery.c ****   DISCOVERY_COMx_RX_GPIO_CLK_ENABLE(COM);
 1217              		.loc 1 388 3 is_stmt 0 discriminator 1 view .LVU295
 1218 0016 1A6B     		ldr	r2, [r3, #48]
 1219 0018 02F00102 		and	r2, r2, #1
 1220 001c 0092     		str	r2, [sp]
 388:Drivers/BSP/STM32746G-Discovery/stm32746g_discovery.c ****   DISCOVERY_COMx_RX_GPIO_CLK_ENABLE(COM);
 1221              		.loc 1 388 3 is_stmt 1 view .LVU296
 388:Drivers/BSP/STM32746G-Discovery/stm32746g_discovery.c ****   DISCOVERY_COMx_RX_GPIO_CLK_ENABLE(COM);
 1222              		.loc 1 388 3 is_stmt 0 discriminator 1 view .LVU297
 1223 001e 009A     		ldr	r2, [sp]
 1224              	.LBE10:
 388:Drivers/BSP/STM32746G-Discovery/stm32746g_discovery.c ****   DISCOVERY_COMx_RX_GPIO_CLK_ENABLE(COM);
 1225              		.loc 1 388 3 is_stmt 1 discriminator 3 view .LVU298
 388:Drivers/BSP/STM32746G-Discovery/stm32746g_discovery.c ****   DISCOVERY_COMx_RX_GPIO_CLK_ENABLE(COM);
 1226              		.loc 1 388 3 discriminator 3 view .LVU299
 389:Drivers/BSP/STM32746G-Discovery/stm32746g_discovery.c **** 
 1227              		.loc 1 389 3 view .LVU300
 389:Drivers/BSP/STM32746G-Discovery/stm32746g_discovery.c **** 
 1228              		.loc 1 389 3 view .LVU301
 389:Drivers/BSP/STM32746G-Discovery/stm32746g_discovery.c **** 
 1229              		.loc 1 389 3 discriminator 1 view .LVU302
 1230              	.LBB11:
 389:Drivers/BSP/STM32746G-Discovery/stm32746g_discovery.c **** 
 1231              		.loc 1 389 3 discriminator 1 view .LVU303
 389:Drivers/BSP/STM32746G-Discovery/stm32746g_discovery.c **** 
 1232              		.loc 1 389 3 discriminator 1 view .LVU304
 1233 0020 1A6B     		ldr	r2, [r3, #48]
 1234 0022 42F00202 		orr	r2, r2, #2
 1235 0026 1A63     		str	r2, [r3, #48]
 389:Drivers/BSP/STM32746G-Discovery/stm32746g_discovery.c **** 
 1236              		.loc 1 389 3 view .LVU305
 389:Drivers/BSP/STM32746G-Discovery/stm32746g_discovery.c **** 
 1237              		.loc 1 389 3 is_stmt 0 discriminator 1 view .LVU306
 1238 0028 1B6B     		ldr	r3, [r3, #48]
 1239 002a 03F00203 		and	r3, r3, #2
 1240 002e 0193     		str	r3, [sp, #4]
 389:Drivers/BSP/STM32746G-Discovery/stm32746g_discovery.c **** 
 1241              		.loc 1 389 3 is_stmt 1 view .LVU307
 389:Drivers/BSP/STM32746G-Discovery/stm32746g_discovery.c **** 
 1242              		.loc 1 389 3 is_stmt 0 discriminator 1 view .LVU308
 1243 0030 019B     		ldr	r3, [sp, #4]
 1244              	.L99:
 1245              	.LBE11:
 389:Drivers/BSP/STM32746G-Discovery/stm32746g_discovery.c **** 
 1246              		.loc 1 389 3 is_stmt 1 discriminator 3 view .LVU309
 389:Drivers/BSP/STM32746G-Discovery/stm32746g_discovery.c **** 
 1247              		.loc 1 389 3 discriminator 3 view .LVU310
 392:Drivers/BSP/STM32746G-Discovery/stm32746g_discovery.c **** 
 1248              		.loc 1 392 3 view .LVU311
 392:Drivers/BSP/STM32746G-Discovery/stm32746g_discovery.c **** 
ARM GAS  /tmp/ccGVQGsk.s 			page 38


 1249              		.loc 1 392 3 view .LVU312
 1250 0032 4DB9     		cbnz	r5, .L100
 392:Drivers/BSP/STM32746G-Discovery/stm32746g_discovery.c **** 
 1251              		.loc 1 392 3 discriminator 1 view .LVU313
 1252              	.LBB12:
 392:Drivers/BSP/STM32746G-Discovery/stm32746g_discovery.c **** 
 1253              		.loc 1 392 3 discriminator 1 view .LVU314
 392:Drivers/BSP/STM32746G-Discovery/stm32746g_discovery.c **** 
 1254              		.loc 1 392 3 discriminator 1 view .LVU315
 1255 0034 184B     		ldr	r3, .L102
 1256 0036 5A6C     		ldr	r2, [r3, #68]
 1257 0038 42F01002 		orr	r2, r2, #16
 1258 003c 5A64     		str	r2, [r3, #68]
 392:Drivers/BSP/STM32746G-Discovery/stm32746g_discovery.c **** 
 1259              		.loc 1 392 3 view .LVU316
 392:Drivers/BSP/STM32746G-Discovery/stm32746g_discovery.c **** 
 1260              		.loc 1 392 3 is_stmt 0 discriminator 1 view .LVU317
 1261 003e 5B6C     		ldr	r3, [r3, #68]
 1262 0040 03F01003 		and	r3, r3, #16
 1263 0044 0293     		str	r3, [sp, #8]
 392:Drivers/BSP/STM32746G-Discovery/stm32746g_discovery.c **** 
 1264              		.loc 1 392 3 is_stmt 1 view .LVU318
 392:Drivers/BSP/STM32746G-Discovery/stm32746g_discovery.c **** 
 1265              		.loc 1 392 3 is_stmt 0 discriminator 1 view .LVU319
 1266 0046 029B     		ldr	r3, [sp, #8]
 1267              	.L100:
 1268              	.LBE12:
 392:Drivers/BSP/STM32746G-Discovery/stm32746g_discovery.c **** 
 1269              		.loc 1 392 3 is_stmt 1 discriminator 3 view .LVU320
 392:Drivers/BSP/STM32746G-Discovery/stm32746g_discovery.c **** 
 1270              		.loc 1 392 3 discriminator 3 view .LVU321
 395:Drivers/BSP/STM32746G-Discovery/stm32746g_discovery.c ****   gpio_init_structure.Mode = GPIO_MODE_AF_PP;
 1271              		.loc 1 395 3 view .LVU322
 395:Drivers/BSP/STM32746G-Discovery/stm32746g_discovery.c ****   gpio_init_structure.Mode = GPIO_MODE_AF_PP;
 1272              		.loc 1 395 27 is_stmt 0 view .LVU323
 1273 0048 4FF40073 		mov	r3, #512
 1274 004c 0393     		str	r3, [sp, #12]
 396:Drivers/BSP/STM32746G-Discovery/stm32746g_discovery.c ****   gpio_init_structure.Speed = GPIO_SPEED_FAST;
 1275              		.loc 1 396 3 is_stmt 1 view .LVU324
 396:Drivers/BSP/STM32746G-Discovery/stm32746g_discovery.c ****   gpio_init_structure.Speed = GPIO_SPEED_FAST;
 1276              		.loc 1 396 28 is_stmt 0 view .LVU325
 1277 004e 0226     		movs	r6, #2
 1278 0050 0496     		str	r6, [sp, #16]
 397:Drivers/BSP/STM32746G-Discovery/stm32746g_discovery.c ****   gpio_init_structure.Pull = GPIO_PULLUP;
 1279              		.loc 1 397 3 is_stmt 1 view .LVU326
 397:Drivers/BSP/STM32746G-Discovery/stm32746g_discovery.c ****   gpio_init_structure.Pull = GPIO_PULLUP;
 1280              		.loc 1 397 29 is_stmt 0 view .LVU327
 1281 0052 0696     		str	r6, [sp, #24]
 398:Drivers/BSP/STM32746G-Discovery/stm32746g_discovery.c ****   gpio_init_structure.Alternate = COM_TX_AF[COM];
 1282              		.loc 1 398 3 is_stmt 1 view .LVU328
 398:Drivers/BSP/STM32746G-Discovery/stm32746g_discovery.c ****   gpio_init_structure.Alternate = COM_TX_AF[COM];
 1283              		.loc 1 398 28 is_stmt 0 view .LVU329
 1284 0054 0123     		movs	r3, #1
 1285 0056 0593     		str	r3, [sp, #20]
 399:Drivers/BSP/STM32746G-Discovery/stm32746g_discovery.c ****   HAL_GPIO_Init(COM_TX_PORT[COM], &gpio_init_structure);
 1286              		.loc 1 399 3 is_stmt 1 view .LVU330
 399:Drivers/BSP/STM32746G-Discovery/stm32746g_discovery.c ****   HAL_GPIO_Init(COM_TX_PORT[COM], &gpio_init_structure);
ARM GAS  /tmp/ccGVQGsk.s 			page 39


 1287              		.loc 1 399 33 is_stmt 0 view .LVU331
 1288 0058 4FF00708 		mov	r8, #7
 1289 005c CDF81C80 		str	r8, [sp, #28]
 400:Drivers/BSP/STM32746G-Discovery/stm32746g_discovery.c **** 
 1290              		.loc 1 400 3 is_stmt 1 view .LVU332
 1291 0060 03AF     		add	r7, sp, #12
 1292 0062 3946     		mov	r1, r7
 1293              	.LVL82:
 400:Drivers/BSP/STM32746G-Discovery/stm32746g_discovery.c **** 
 1294              		.loc 1 400 3 is_stmt 0 view .LVU333
 1295 0064 0D4B     		ldr	r3, .L102+4
 1296 0066 53F82500 		ldr	r0, [r3, r5, lsl #2]
 1297              	.LVL83:
 400:Drivers/BSP/STM32746G-Discovery/stm32746g_discovery.c **** 
 1298              		.loc 1 400 3 view .LVU334
 1299 006a FFF7FEFF 		bl	HAL_GPIO_Init
 1300              	.LVL84:
 403:Drivers/BSP/STM32746G-Discovery/stm32746g_discovery.c ****   gpio_init_structure.Mode = GPIO_MODE_AF_PP;
 1301              		.loc 1 403 3 is_stmt 1 view .LVU335
 403:Drivers/BSP/STM32746G-Discovery/stm32746g_discovery.c ****   gpio_init_structure.Mode = GPIO_MODE_AF_PP;
 1302              		.loc 1 403 27 is_stmt 0 view .LVU336
 1303 006e 8023     		movs	r3, #128
 1304 0070 0393     		str	r3, [sp, #12]
 404:Drivers/BSP/STM32746G-Discovery/stm32746g_discovery.c ****   gpio_init_structure.Alternate = COM_RX_AF[COM];
 1305              		.loc 1 404 3 is_stmt 1 view .LVU337
 404:Drivers/BSP/STM32746G-Discovery/stm32746g_discovery.c ****   gpio_init_structure.Alternate = COM_RX_AF[COM];
 1306              		.loc 1 404 28 is_stmt 0 view .LVU338
 1307 0072 0496     		str	r6, [sp, #16]
 405:Drivers/BSP/STM32746G-Discovery/stm32746g_discovery.c ****   HAL_GPIO_Init(COM_RX_PORT[COM], &gpio_init_structure);
 1308              		.loc 1 405 3 is_stmt 1 view .LVU339
 405:Drivers/BSP/STM32746G-Discovery/stm32746g_discovery.c ****   HAL_GPIO_Init(COM_RX_PORT[COM], &gpio_init_structure);
 1309              		.loc 1 405 33 is_stmt 0 view .LVU340
 1310 0074 CDF81C80 		str	r8, [sp, #28]
 406:Drivers/BSP/STM32746G-Discovery/stm32746g_discovery.c **** 
 1311              		.loc 1 406 3 is_stmt 1 view .LVU341
 1312 0078 3946     		mov	r1, r7
 1313 007a 094B     		ldr	r3, .L102+8
 1314 007c 53F82500 		ldr	r0, [r3, r5, lsl #2]
 1315 0080 FFF7FEFF 		bl	HAL_GPIO_Init
 1316              	.LVL85:
 409:Drivers/BSP/STM32746G-Discovery/stm32746g_discovery.c ****   HAL_UART_Init(huart);
 1317              		.loc 1 409 3 view .LVU342
 409:Drivers/BSP/STM32746G-Discovery/stm32746g_discovery.c ****   HAL_UART_Init(huart);
 1318              		.loc 1 409 30 is_stmt 0 view .LVU343
 1319 0084 074B     		ldr	r3, .L102+12
 1320 0086 53F82530 		ldr	r3, [r3, r5, lsl #2]
 409:Drivers/BSP/STM32746G-Discovery/stm32746g_discovery.c ****   HAL_UART_Init(huart);
 1321              		.loc 1 409 19 view .LVU344
 1322 008a 2360     		str	r3, [r4]
 410:Drivers/BSP/STM32746G-Discovery/stm32746g_discovery.c **** }
 1323              		.loc 1 410 3 is_stmt 1 view .LVU345
 1324 008c 2046     		mov	r0, r4
 1325 008e FFF7FEFF 		bl	HAL_UART_Init
 1326              	.LVL86:
 411:Drivers/BSP/STM32746G-Discovery/stm32746g_discovery.c **** 
 1327              		.loc 1 411 1 is_stmt 0 view .LVU346
 1328 0092 08B0     		add	sp, sp, #32
ARM GAS  /tmp/ccGVQGsk.s 			page 40


 1329              	.LCFI34:
 1330              		.cfi_def_cfa_offset 24
 1331              		@ sp needed
 1332 0094 BDE8F081 		pop	{r4, r5, r6, r7, r8, pc}
 1333              	.LVL87:
 1334              	.L103:
 411:Drivers/BSP/STM32746G-Discovery/stm32746g_discovery.c **** 
 1335              		.loc 1 411 1 view .LVU347
 1336              		.align	2
 1337              	.L102:
 1338 0098 00380240 		.word	1073887232
 1339 009c 00000000 		.word	COM_TX_PORT
 1340 00a0 00000000 		.word	COM_RX_PORT
 1341 00a4 00000000 		.word	COM_USART
 1342              		.cfi_endproc
 1343              	.LFE150:
 1345              		.section	.text.BSP_COM_DeInit,"ax",%progbits
 1346              		.align	1
 1347              		.global	BSP_COM_DeInit
 1348              		.syntax unified
 1349              		.thumb
 1350              		.thumb_func
 1352              	BSP_COM_DeInit:
 1353              	.LVL88:
 1354              	.LFB151:
 424:Drivers/BSP/STM32746G-Discovery/stm32746g_discovery.c ****   /* USART configuration */
 1355              		.loc 1 424 1 is_stmt 1 view -0
 1356              		.cfi_startproc
 1357              		@ args = 0, pretend = 0, frame = 0
 1358              		@ frame_needed = 0, uses_anonymous_args = 0
 424:Drivers/BSP/STM32746G-Discovery/stm32746g_discovery.c ****   /* USART configuration */
 1359              		.loc 1 424 1 is_stmt 0 view .LVU349
 1360 0000 10B5     		push	{r4, lr}
 1361              	.LCFI35:
 1362              		.cfi_def_cfa_offset 8
 1363              		.cfi_offset 4, -8
 1364              		.cfi_offset 14, -4
 1365 0002 0446     		mov	r4, r0
 1366 0004 0846     		mov	r0, r1
 1367              	.LVL89:
 426:Drivers/BSP/STM32746G-Discovery/stm32746g_discovery.c ****   HAL_UART_DeInit(huart);
 1368              		.loc 1 426 3 is_stmt 1 view .LVU350
 426:Drivers/BSP/STM32746G-Discovery/stm32746g_discovery.c ****   HAL_UART_DeInit(huart);
 1369              		.loc 1 426 30 is_stmt 0 view .LVU351
 1370 0006 064B     		ldr	r3, .L107
 1371 0008 53F82430 		ldr	r3, [r3, r4, lsl #2]
 426:Drivers/BSP/STM32746G-Discovery/stm32746g_discovery.c ****   HAL_UART_DeInit(huart);
 1372              		.loc 1 426 19 view .LVU352
 1373 000c 0B60     		str	r3, [r1]
 427:Drivers/BSP/STM32746G-Discovery/stm32746g_discovery.c **** 
 1374              		.loc 1 427 3 is_stmt 1 view .LVU353
 1375 000e FFF7FEFF 		bl	HAL_UART_DeInit
 1376              	.LVL90:
 430:Drivers/BSP/STM32746G-Discovery/stm32746g_discovery.c **** 
 1377              		.loc 1 430 3 view .LVU354
 1378 0012 24B9     		cbnz	r4, .L104
 430:Drivers/BSP/STM32746G-Discovery/stm32746g_discovery.c **** 
ARM GAS  /tmp/ccGVQGsk.s 			page 41


 1379              		.loc 1 430 3 is_stmt 0 discriminator 1 view .LVU355
 1380 0014 034A     		ldr	r2, .L107+4
 1381 0016 536C     		ldr	r3, [r2, #68]
 1382 0018 23F01003 		bic	r3, r3, #16
 1383 001c 5364     		str	r3, [r2, #68]
 1384              	.L104:
 437:Drivers/BSP/STM32746G-Discovery/stm32746g_discovery.c **** 
 1385              		.loc 1 437 1 view .LVU356
 1386 001e 10BD     		pop	{r4, pc}
 1387              	.LVL91:
 1388              	.L108:
 437:Drivers/BSP/STM32746G-Discovery/stm32746g_discovery.c **** 
 1389              		.loc 1 437 1 view .LVU357
 1390              		.align	2
 1391              	.L107:
 1392 0020 00000000 		.word	COM_USART
 1393 0024 00380240 		.word	1073887232
 1394              		.cfi_endproc
 1395              	.LFE151:
 1397              		.section	.text.AUDIO_IO_Init,"ax",%progbits
 1398              		.align	1
 1399              		.global	AUDIO_IO_Init
 1400              		.syntax unified
 1401              		.thumb
 1402              		.thumb_func
 1404              	AUDIO_IO_Init:
 1405              	.LFB158:
 651:Drivers/BSP/STM32746G-Discovery/stm32746g_discovery.c **** 
 652:Drivers/BSP/STM32746G-Discovery/stm32746g_discovery.c **** /*******************************************************************************
 653:Drivers/BSP/STM32746G-Discovery/stm32746g_discovery.c ****                             LINK OPERATIONS
 654:Drivers/BSP/STM32746G-Discovery/stm32746g_discovery.c **** *******************************************************************************/
 655:Drivers/BSP/STM32746G-Discovery/stm32746g_discovery.c **** 
 656:Drivers/BSP/STM32746G-Discovery/stm32746g_discovery.c **** /********************************* LINK AUDIO *********************************/
 657:Drivers/BSP/STM32746G-Discovery/stm32746g_discovery.c **** 
 658:Drivers/BSP/STM32746G-Discovery/stm32746g_discovery.c **** /**
 659:Drivers/BSP/STM32746G-Discovery/stm32746g_discovery.c ****   * @brief  Initializes Audio low level.
 660:Drivers/BSP/STM32746G-Discovery/stm32746g_discovery.c ****   * @retval None
 661:Drivers/BSP/STM32746G-Discovery/stm32746g_discovery.c ****   */
 662:Drivers/BSP/STM32746G-Discovery/stm32746g_discovery.c **** void AUDIO_IO_Init(void) 
 663:Drivers/BSP/STM32746G-Discovery/stm32746g_discovery.c **** {
 1406              		.loc 1 663 1 is_stmt 1 view -0
 1407              		.cfi_startproc
 1408              		@ args = 0, pretend = 0, frame = 0
 1409              		@ frame_needed = 0, uses_anonymous_args = 0
 1410 0000 08B5     		push	{r3, lr}
 1411              	.LCFI36:
 1412              		.cfi_def_cfa_offset 8
 1413              		.cfi_offset 3, -8
 1414              		.cfi_offset 14, -4
 664:Drivers/BSP/STM32746G-Discovery/stm32746g_discovery.c ****   I2Cx_Init(&hI2cAudioHandler);
 1415              		.loc 1 664 3 view .LVU359
 1416 0002 0248     		ldr	r0, .L111
 1417 0004 FFF7FEFF 		bl	I2Cx_Init
 1418              	.LVL92:
 665:Drivers/BSP/STM32746G-Discovery/stm32746g_discovery.c **** }
 1419              		.loc 1 665 1 is_stmt 0 view .LVU360
 1420 0008 08BD     		pop	{r3, pc}
ARM GAS  /tmp/ccGVQGsk.s 			page 42


 1421              	.L112:
 1422 000a 00BF     		.align	2
 1423              	.L111:
 1424 000c 00000000 		.word	hI2cAudioHandler
 1425              		.cfi_endproc
 1426              	.LFE158:
 1428              		.section	.text.AUDIO_IO_DeInit,"ax",%progbits
 1429              		.align	1
 1430              		.global	AUDIO_IO_DeInit
 1431              		.syntax unified
 1432              		.thumb
 1433              		.thumb_func
 1435              	AUDIO_IO_DeInit:
 1436              	.LFB159:
 666:Drivers/BSP/STM32746G-Discovery/stm32746g_discovery.c **** 
 667:Drivers/BSP/STM32746G-Discovery/stm32746g_discovery.c **** /**
 668:Drivers/BSP/STM32746G-Discovery/stm32746g_discovery.c ****   * @brief  Deinitializes Audio low level.
 669:Drivers/BSP/STM32746G-Discovery/stm32746g_discovery.c ****   * @retval None
 670:Drivers/BSP/STM32746G-Discovery/stm32746g_discovery.c ****   */
 671:Drivers/BSP/STM32746G-Discovery/stm32746g_discovery.c **** void AUDIO_IO_DeInit(void)
 672:Drivers/BSP/STM32746G-Discovery/stm32746g_discovery.c **** {
 1437              		.loc 1 672 1 is_stmt 1 view -0
 1438              		.cfi_startproc
 1439              		@ args = 0, pretend = 0, frame = 0
 1440              		@ frame_needed = 0, uses_anonymous_args = 0
 1441              		@ link register save eliminated.
 673:Drivers/BSP/STM32746G-Discovery/stm32746g_discovery.c **** }
 1442              		.loc 1 673 1 view .LVU362
 1443 0000 7047     		bx	lr
 1444              		.cfi_endproc
 1445              	.LFE159:
 1447              		.section	.text.AUDIO_IO_Write,"ax",%progbits
 1448              		.align	1
 1449              		.global	AUDIO_IO_Write
 1450              		.syntax unified
 1451              		.thumb
 1452              		.thumb_func
 1454              	AUDIO_IO_Write:
 1455              	.LVL93:
 1456              	.LFB160:
 674:Drivers/BSP/STM32746G-Discovery/stm32746g_discovery.c **** 
 675:Drivers/BSP/STM32746G-Discovery/stm32746g_discovery.c **** /**
 676:Drivers/BSP/STM32746G-Discovery/stm32746g_discovery.c ****   * @brief  Writes a single data.
 677:Drivers/BSP/STM32746G-Discovery/stm32746g_discovery.c ****   * @param  Addr: I2C address
 678:Drivers/BSP/STM32746G-Discovery/stm32746g_discovery.c ****   * @param  Reg: Reg address 
 679:Drivers/BSP/STM32746G-Discovery/stm32746g_discovery.c ****   * @param  Value: Data to be written
 680:Drivers/BSP/STM32746G-Discovery/stm32746g_discovery.c ****   * @retval None
 681:Drivers/BSP/STM32746G-Discovery/stm32746g_discovery.c ****   */
 682:Drivers/BSP/STM32746G-Discovery/stm32746g_discovery.c **** void AUDIO_IO_Write(uint8_t Addr, uint16_t Reg, uint16_t Value)
 683:Drivers/BSP/STM32746G-Discovery/stm32746g_discovery.c **** {
 1457              		.loc 1 683 1 view -0
 1458              		.cfi_startproc
 1459              		@ args = 0, pretend = 0, frame = 8
 1460              		@ frame_needed = 0, uses_anonymous_args = 0
 1461              		.loc 1 683 1 is_stmt 0 view .LVU364
 1462 0000 00B5     		push	{lr}
 1463              	.LCFI37:
ARM GAS  /tmp/ccGVQGsk.s 			page 43


 1464              		.cfi_def_cfa_offset 4
 1465              		.cfi_offset 14, -4
 1466 0002 85B0     		sub	sp, sp, #20
 1467              	.LCFI38:
 1468              		.cfi_def_cfa_offset 24
 1469 0004 ADF80E20 		strh	r2, [sp, #14]	@ movhi
 684:Drivers/BSP/STM32746G-Discovery/stm32746g_discovery.c ****   uint16_t tmp = Value;
 1470              		.loc 1 684 3 is_stmt 1 view .LVU365
 1471              		.loc 1 684 12 is_stmt 0 view .LVU366
 1472 0008 92B2     		uxth	r2, r2
 1473              	.LVL94:
 685:Drivers/BSP/STM32746G-Discovery/stm32746g_discovery.c ****   
 686:Drivers/BSP/STM32746G-Discovery/stm32746g_discovery.c ****   Value = ((uint16_t)(tmp >> 8) & 0x00FF);
 1474              		.loc 1 686 3 is_stmt 1 view .LVU367
 1475              		.loc 1 686 12 is_stmt 0 view .LVU368
 1476 000a 130A     		lsrs	r3, r2, #8
 1477              		.loc 1 686 9 view .LVU369
 1478 000c ADF80E30 		strh	r3, [sp, #14]	@ movhi
 1479              	.LVL95:
 687:Drivers/BSP/STM32746G-Discovery/stm32746g_discovery.c ****   
 688:Drivers/BSP/STM32746G-Discovery/stm32746g_discovery.c ****   Value |= ((uint16_t)(tmp << 8)& 0xFF00);
 1480              		.loc 1 688 3 is_stmt 1 view .LVU370
 1481              		.loc 1 688 9 is_stmt 0 view .LVU371
 1482 0010 43EA0223 		orr	r3, r3, r2, lsl #8
 1483 0014 ADF80E30 		strh	r3, [sp, #14]	@ movhi
 689:Drivers/BSP/STM32746G-Discovery/stm32746g_discovery.c ****   
 690:Drivers/BSP/STM32746G-Discovery/stm32746g_discovery.c ****   I2Cx_WriteMultiple(&hI2cAudioHandler, Addr, Reg, I2C_MEMADD_SIZE_16BIT,(uint8_t*)&Value, 2);
 1484              		.loc 1 690 3 is_stmt 1 view .LVU372
 1485 0018 0223     		movs	r3, #2
 1486 001a 0193     		str	r3, [sp, #4]
 1487 001c 0DF10E02 		add	r2, sp, #14
 1488              	.LVL96:
 1489              		.loc 1 690 3 is_stmt 0 view .LVU373
 1490 0020 0092     		str	r2, [sp]
 1491 0022 0A46     		mov	r2, r1
 1492 0024 0146     		mov	r1, r0
 1493              	.LVL97:
 1494              		.loc 1 690 3 view .LVU374
 1495 0026 0348     		ldr	r0, .L116
 1496              	.LVL98:
 1497              		.loc 1 690 3 view .LVU375
 1498 0028 FFF7FEFF 		bl	I2Cx_WriteMultiple
 1499              	.LVL99:
 691:Drivers/BSP/STM32746G-Discovery/stm32746g_discovery.c **** }
 1500              		.loc 1 691 1 view .LVU376
 1501 002c 05B0     		add	sp, sp, #20
 1502              	.LCFI39:
 1503              		.cfi_def_cfa_offset 4
 1504              		@ sp needed
 1505 002e 5DF804FB 		ldr	pc, [sp], #4
 1506              	.L117:
 1507 0032 00BF     		.align	2
 1508              	.L116:
 1509 0034 00000000 		.word	hI2cAudioHandler
 1510              		.cfi_endproc
 1511              	.LFE160:
 1513              		.section	.text.AUDIO_IO_Read,"ax",%progbits
ARM GAS  /tmp/ccGVQGsk.s 			page 44


 1514              		.align	1
 1515              		.global	AUDIO_IO_Read
 1516              		.syntax unified
 1517              		.thumb
 1518              		.thumb_func
 1520              	AUDIO_IO_Read:
 1521              	.LVL100:
 1522              	.LFB161:
 692:Drivers/BSP/STM32746G-Discovery/stm32746g_discovery.c **** 
 693:Drivers/BSP/STM32746G-Discovery/stm32746g_discovery.c **** /**
 694:Drivers/BSP/STM32746G-Discovery/stm32746g_discovery.c ****   * @brief  Reads a single data.
 695:Drivers/BSP/STM32746G-Discovery/stm32746g_discovery.c ****   * @param  Addr: I2C address
 696:Drivers/BSP/STM32746G-Discovery/stm32746g_discovery.c ****   * @param  Reg: Reg address 
 697:Drivers/BSP/STM32746G-Discovery/stm32746g_discovery.c ****   * @retval Data to be read
 698:Drivers/BSP/STM32746G-Discovery/stm32746g_discovery.c ****   */
 699:Drivers/BSP/STM32746G-Discovery/stm32746g_discovery.c **** uint16_t AUDIO_IO_Read(uint8_t Addr, uint16_t Reg)
 700:Drivers/BSP/STM32746G-Discovery/stm32746g_discovery.c **** {
 1523              		.loc 1 700 1 is_stmt 1 view -0
 1524              		.cfi_startproc
 1525              		@ args = 0, pretend = 0, frame = 8
 1526              		@ frame_needed = 0, uses_anonymous_args = 0
 1527              		.loc 1 700 1 is_stmt 0 view .LVU378
 1528 0000 00B5     		push	{lr}
 1529              	.LCFI40:
 1530              		.cfi_def_cfa_offset 4
 1531              		.cfi_offset 14, -4
 1532 0002 85B0     		sub	sp, sp, #20
 1533              	.LCFI41:
 1534              		.cfi_def_cfa_offset 24
 1535 0004 0A46     		mov	r2, r1
 701:Drivers/BSP/STM32746G-Discovery/stm32746g_discovery.c ****   uint16_t read_value = 0, tmp = 0;
 1536              		.loc 1 701 3 is_stmt 1 view .LVU379
 1537              		.loc 1 701 12 is_stmt 0 view .LVU380
 1538 0006 0023     		movs	r3, #0
 1539 0008 ADF80E30 		strh	r3, [sp, #14]	@ movhi
 1540              	.LVL101:
 702:Drivers/BSP/STM32746G-Discovery/stm32746g_discovery.c ****   
 703:Drivers/BSP/STM32746G-Discovery/stm32746g_discovery.c ****   I2Cx_ReadMultiple(&hI2cAudioHandler, Addr, Reg, I2C_MEMADD_SIZE_16BIT, (uint8_t*)&read_value, 2);
 1541              		.loc 1 703 3 is_stmt 1 view .LVU381
 1542 000c 0223     		movs	r3, #2
 1543 000e 0193     		str	r3, [sp, #4]
 1544 0010 0DF10E01 		add	r1, sp, #14
 1545              	.LVL102:
 1546              		.loc 1 703 3 is_stmt 0 view .LVU382
 1547 0014 0091     		str	r1, [sp]
 1548 0016 0146     		mov	r1, r0
 1549 0018 0648     		ldr	r0, .L120
 1550              	.LVL103:
 1551              		.loc 1 703 3 view .LVU383
 1552 001a FFF7FEFF 		bl	I2Cx_ReadMultiple
 1553              	.LVL104:
 704:Drivers/BSP/STM32746G-Discovery/stm32746g_discovery.c ****   
 705:Drivers/BSP/STM32746G-Discovery/stm32746g_discovery.c ****   tmp = ((uint16_t)(read_value >> 8) & 0x00FF);
 1554              		.loc 1 705 3 is_stmt 1 view .LVU384
 1555              		.loc 1 705 10 is_stmt 0 view .LVU385
 1556 001e BDF80E30 		ldrh	r3, [sp, #14]
 1557              	.LVL105:
ARM GAS  /tmp/ccGVQGsk.s 			page 45


 706:Drivers/BSP/STM32746G-Discovery/stm32746g_discovery.c ****   
 707:Drivers/BSP/STM32746G-Discovery/stm32746g_discovery.c ****   tmp |= ((uint16_t)(read_value << 8)& 0xFF00);
 1558              		.loc 1 707 3 is_stmt 1 view .LVU386
 1559              		.loc 1 707 7 is_stmt 0 view .LVU387
 1560 0022 1802     		lsls	r0, r3, #8
 1561 0024 40EA1320 		orr	r0, r0, r3, lsr #8
 1562 0028 80B2     		uxth	r0, r0
 1563              	.LVL106:
 708:Drivers/BSP/STM32746G-Discovery/stm32746g_discovery.c ****   
 709:Drivers/BSP/STM32746G-Discovery/stm32746g_discovery.c ****   read_value = tmp;
 1564              		.loc 1 709 3 is_stmt 1 view .LVU388
 1565              		.loc 1 709 14 is_stmt 0 view .LVU389
 1566 002a ADF80E00 		strh	r0, [sp, #14]	@ movhi
 710:Drivers/BSP/STM32746G-Discovery/stm32746g_discovery.c ****   
 711:Drivers/BSP/STM32746G-Discovery/stm32746g_discovery.c ****   return read_value;
 1567              		.loc 1 711 3 is_stmt 1 view .LVU390
 712:Drivers/BSP/STM32746G-Discovery/stm32746g_discovery.c **** }
 1568              		.loc 1 712 1 is_stmt 0 view .LVU391
 1569 002e 05B0     		add	sp, sp, #20
 1570              	.LCFI42:
 1571              		.cfi_def_cfa_offset 4
 1572              		@ sp needed
 1573 0030 5DF804FB 		ldr	pc, [sp], #4
 1574              	.L121:
 1575              		.align	2
 1576              	.L120:
 1577 0034 00000000 		.word	hI2cAudioHandler
 1578              		.cfi_endproc
 1579              	.LFE161:
 1581              		.section	.text.AUDIO_IO_Delay,"ax",%progbits
 1582              		.align	1
 1583              		.global	AUDIO_IO_Delay
 1584              		.syntax unified
 1585              		.thumb
 1586              		.thumb_func
 1588              	AUDIO_IO_Delay:
 1589              	.LVL107:
 1590              	.LFB162:
 713:Drivers/BSP/STM32746G-Discovery/stm32746g_discovery.c **** 
 714:Drivers/BSP/STM32746G-Discovery/stm32746g_discovery.c **** /**
 715:Drivers/BSP/STM32746G-Discovery/stm32746g_discovery.c ****   * @brief  AUDIO Codec delay 
 716:Drivers/BSP/STM32746G-Discovery/stm32746g_discovery.c ****   * @param  Delay: Delay in ms
 717:Drivers/BSP/STM32746G-Discovery/stm32746g_discovery.c ****   * @retval None
 718:Drivers/BSP/STM32746G-Discovery/stm32746g_discovery.c ****   */
 719:Drivers/BSP/STM32746G-Discovery/stm32746g_discovery.c **** void AUDIO_IO_Delay(uint32_t Delay)
 720:Drivers/BSP/STM32746G-Discovery/stm32746g_discovery.c **** {
 1591              		.loc 1 720 1 is_stmt 1 view -0
 1592              		.cfi_startproc
 1593              		@ args = 0, pretend = 0, frame = 0
 1594              		@ frame_needed = 0, uses_anonymous_args = 0
 1595              		.loc 1 720 1 is_stmt 0 view .LVU393
 1596 0000 08B5     		push	{r3, lr}
 1597              	.LCFI43:
 1598              		.cfi_def_cfa_offset 8
 1599              		.cfi_offset 3, -8
 1600              		.cfi_offset 14, -4
 721:Drivers/BSP/STM32746G-Discovery/stm32746g_discovery.c ****   HAL_Delay(Delay);
ARM GAS  /tmp/ccGVQGsk.s 			page 46


 1601              		.loc 1 721 3 is_stmt 1 view .LVU394
 1602 0002 FFF7FEFF 		bl	HAL_Delay
 1603              	.LVL108:
 722:Drivers/BSP/STM32746G-Discovery/stm32746g_discovery.c **** }
 1604              		.loc 1 722 1 is_stmt 0 view .LVU395
 1605 0006 08BD     		pop	{r3, pc}
 1606              		.cfi_endproc
 1607              	.LFE162:
 1609              		.section	.text.CAMERA_IO_Init,"ax",%progbits
 1610              		.align	1
 1611              		.global	CAMERA_IO_Init
 1612              		.syntax unified
 1613              		.thumb
 1614              		.thumb_func
 1616              	CAMERA_IO_Init:
 1617              	.LFB163:
 723:Drivers/BSP/STM32746G-Discovery/stm32746g_discovery.c **** 
 724:Drivers/BSP/STM32746G-Discovery/stm32746g_discovery.c **** /********************************* LINK CAMERA ********************************/
 725:Drivers/BSP/STM32746G-Discovery/stm32746g_discovery.c **** 
 726:Drivers/BSP/STM32746G-Discovery/stm32746g_discovery.c **** /**
 727:Drivers/BSP/STM32746G-Discovery/stm32746g_discovery.c ****   * @brief  Initializes Camera low level.
 728:Drivers/BSP/STM32746G-Discovery/stm32746g_discovery.c ****   * @retval None
 729:Drivers/BSP/STM32746G-Discovery/stm32746g_discovery.c ****   */
 730:Drivers/BSP/STM32746G-Discovery/stm32746g_discovery.c **** void CAMERA_IO_Init(void) 
 731:Drivers/BSP/STM32746G-Discovery/stm32746g_discovery.c **** {
 1618              		.loc 1 731 1 is_stmt 1 view -0
 1619              		.cfi_startproc
 1620              		@ args = 0, pretend = 0, frame = 0
 1621              		@ frame_needed = 0, uses_anonymous_args = 0
 1622 0000 08B5     		push	{r3, lr}
 1623              	.LCFI44:
 1624              		.cfi_def_cfa_offset 8
 1625              		.cfi_offset 3, -8
 1626              		.cfi_offset 14, -4
 732:Drivers/BSP/STM32746G-Discovery/stm32746g_discovery.c ****   I2Cx_Init(&hI2cExtHandler);
 1627              		.loc 1 732 3 view .LVU397
 1628 0002 0248     		ldr	r0, .L126
 1629 0004 FFF7FEFF 		bl	I2Cx_Init
 1630              	.LVL109:
 733:Drivers/BSP/STM32746G-Discovery/stm32746g_discovery.c **** }
 1631              		.loc 1 733 1 is_stmt 0 view .LVU398
 1632 0008 08BD     		pop	{r3, pc}
 1633              	.L127:
 1634 000a 00BF     		.align	2
 1635              	.L126:
 1636 000c 00000000 		.word	hI2cExtHandler
 1637              		.cfi_endproc
 1638              	.LFE163:
 1640              		.section	.text.CAMERA_IO_Write,"ax",%progbits
 1641              		.align	1
 1642              		.global	CAMERA_IO_Write
 1643              		.syntax unified
 1644              		.thumb
 1645              		.thumb_func
 1647              	CAMERA_IO_Write:
 1648              	.LVL110:
 1649              	.LFB164:
ARM GAS  /tmp/ccGVQGsk.s 			page 47


 734:Drivers/BSP/STM32746G-Discovery/stm32746g_discovery.c **** 
 735:Drivers/BSP/STM32746G-Discovery/stm32746g_discovery.c **** /**
 736:Drivers/BSP/STM32746G-Discovery/stm32746g_discovery.c ****   * @brief  Camera writes single data.
 737:Drivers/BSP/STM32746G-Discovery/stm32746g_discovery.c ****   * @param  Addr: I2C address
 738:Drivers/BSP/STM32746G-Discovery/stm32746g_discovery.c ****   * @param  Reg: Register address 
 739:Drivers/BSP/STM32746G-Discovery/stm32746g_discovery.c ****   * @param  Value: Data to be written
 740:Drivers/BSP/STM32746G-Discovery/stm32746g_discovery.c ****   * @retval None
 741:Drivers/BSP/STM32746G-Discovery/stm32746g_discovery.c ****   */
 742:Drivers/BSP/STM32746G-Discovery/stm32746g_discovery.c **** void CAMERA_IO_Write(uint8_t Addr, uint8_t Reg, uint8_t Value)
 743:Drivers/BSP/STM32746G-Discovery/stm32746g_discovery.c **** {
 1650              		.loc 1 743 1 is_stmt 1 view -0
 1651              		.cfi_startproc
 1652              		@ args = 0, pretend = 0, frame = 8
 1653              		@ frame_needed = 0, uses_anonymous_args = 0
 1654              		.loc 1 743 1 is_stmt 0 view .LVU400
 1655 0000 00B5     		push	{lr}
 1656              	.LCFI45:
 1657              		.cfi_def_cfa_offset 4
 1658              		.cfi_offset 14, -4
 1659 0002 85B0     		sub	sp, sp, #20
 1660              	.LCFI46:
 1661              		.cfi_def_cfa_offset 24
 1662 0004 8DF80F20 		strb	r2, [sp, #15]
 744:Drivers/BSP/STM32746G-Discovery/stm32746g_discovery.c ****   I2Cx_WriteMultiple(&hI2cExtHandler, Addr, (uint16_t)Reg, I2C_MEMADD_SIZE_8BIT,(uint8_t*)&Value, 1
 1663              		.loc 1 744 3 is_stmt 1 view .LVU401
 1664 0008 0123     		movs	r3, #1
 1665 000a 0193     		str	r3, [sp, #4]
 1666 000c 0DF10F02 		add	r2, sp, #15
 1667              	.LVL111:
 1668              		.loc 1 744 3 is_stmt 0 view .LVU402
 1669 0010 0092     		str	r2, [sp]
 1670 0012 0A46     		mov	r2, r1
 1671              	.LVL112:
 1672              		.loc 1 744 3 view .LVU403
 1673 0014 0146     		mov	r1, r0
 1674              	.LVL113:
 1675              		.loc 1 744 3 view .LVU404
 1676 0016 0348     		ldr	r0, .L130
 1677              	.LVL114:
 1678              		.loc 1 744 3 view .LVU405
 1679 0018 FFF7FEFF 		bl	I2Cx_WriteMultiple
 1680              	.LVL115:
 745:Drivers/BSP/STM32746G-Discovery/stm32746g_discovery.c **** }
 1681              		.loc 1 745 1 view .LVU406
 1682 001c 05B0     		add	sp, sp, #20
 1683              	.LCFI47:
 1684              		.cfi_def_cfa_offset 4
 1685              		@ sp needed
 1686 001e 5DF804FB 		ldr	pc, [sp], #4
 1687              	.L131:
 1688 0022 00BF     		.align	2
 1689              	.L130:
 1690 0024 00000000 		.word	hI2cExtHandler
 1691              		.cfi_endproc
 1692              	.LFE164:
 1694              		.section	.text.CAMERA_IO_Read,"ax",%progbits
 1695              		.align	1
ARM GAS  /tmp/ccGVQGsk.s 			page 48


 1696              		.global	CAMERA_IO_Read
 1697              		.syntax unified
 1698              		.thumb
 1699              		.thumb_func
 1701              	CAMERA_IO_Read:
 1702              	.LVL116:
 1703              	.LFB165:
 746:Drivers/BSP/STM32746G-Discovery/stm32746g_discovery.c **** 
 747:Drivers/BSP/STM32746G-Discovery/stm32746g_discovery.c **** /**
 748:Drivers/BSP/STM32746G-Discovery/stm32746g_discovery.c ****   * @brief  Camera reads single data.
 749:Drivers/BSP/STM32746G-Discovery/stm32746g_discovery.c ****   * @param  Addr: I2C address
 750:Drivers/BSP/STM32746G-Discovery/stm32746g_discovery.c ****   * @param  Reg: Register address 
 751:Drivers/BSP/STM32746G-Discovery/stm32746g_discovery.c ****   * @retval Read data
 752:Drivers/BSP/STM32746G-Discovery/stm32746g_discovery.c ****   */
 753:Drivers/BSP/STM32746G-Discovery/stm32746g_discovery.c **** uint8_t CAMERA_IO_Read(uint8_t Addr, uint8_t Reg)
 754:Drivers/BSP/STM32746G-Discovery/stm32746g_discovery.c **** {
 1704              		.loc 1 754 1 is_stmt 1 view -0
 1705              		.cfi_startproc
 1706              		@ args = 0, pretend = 0, frame = 8
 1707              		@ frame_needed = 0, uses_anonymous_args = 0
 1708              		.loc 1 754 1 is_stmt 0 view .LVU408
 1709 0000 00B5     		push	{lr}
 1710              	.LCFI48:
 1711              		.cfi_def_cfa_offset 4
 1712              		.cfi_offset 14, -4
 1713 0002 85B0     		sub	sp, sp, #20
 1714              	.LCFI49:
 1715              		.cfi_def_cfa_offset 24
 1716 0004 0A46     		mov	r2, r1
 755:Drivers/BSP/STM32746G-Discovery/stm32746g_discovery.c ****   uint8_t read_value = 0;
 1717              		.loc 1 755 3 is_stmt 1 view .LVU409
 1718              		.loc 1 755 11 is_stmt 0 view .LVU410
 1719 0006 0023     		movs	r3, #0
 1720 0008 8DF80F30 		strb	r3, [sp, #15]
 756:Drivers/BSP/STM32746G-Discovery/stm32746g_discovery.c **** 
 757:Drivers/BSP/STM32746G-Discovery/stm32746g_discovery.c ****   I2Cx_ReadMultiple(&hI2cExtHandler, Addr, Reg, I2C_MEMADD_SIZE_8BIT, (uint8_t*)&read_value, 1);
 1721              		.loc 1 757 3 is_stmt 1 view .LVU411
 1722 000c 0123     		movs	r3, #1
 1723 000e 0193     		str	r3, [sp, #4]
 1724 0010 0DF10F01 		add	r1, sp, #15
 1725              	.LVL117:
 1726              		.loc 1 757 3 is_stmt 0 view .LVU412
 1727 0014 0091     		str	r1, [sp]
 1728 0016 0146     		mov	r1, r0
 1729 0018 0348     		ldr	r0, .L134
 1730              	.LVL118:
 1731              		.loc 1 757 3 view .LVU413
 1732 001a FFF7FEFF 		bl	I2Cx_ReadMultiple
 1733              	.LVL119:
 758:Drivers/BSP/STM32746G-Discovery/stm32746g_discovery.c **** 
 759:Drivers/BSP/STM32746G-Discovery/stm32746g_discovery.c ****   return read_value;
 1734              		.loc 1 759 3 is_stmt 1 view .LVU414
 760:Drivers/BSP/STM32746G-Discovery/stm32746g_discovery.c **** }
 1735              		.loc 1 760 1 is_stmt 0 view .LVU415
 1736 001e 9DF80F00 		ldrb	r0, [sp, #15]	@ zero_extendqisi2
 1737 0022 05B0     		add	sp, sp, #20
 1738              	.LCFI50:
ARM GAS  /tmp/ccGVQGsk.s 			page 49


 1739              		.cfi_def_cfa_offset 4
 1740              		@ sp needed
 1741 0024 5DF804FB 		ldr	pc, [sp], #4
 1742              	.L135:
 1743              		.align	2
 1744              	.L134:
 1745 0028 00000000 		.word	hI2cExtHandler
 1746              		.cfi_endproc
 1747              	.LFE165:
 1749              		.section	.text.CAMERA_Delay,"ax",%progbits
 1750              		.align	1
 1751              		.global	CAMERA_Delay
 1752              		.syntax unified
 1753              		.thumb
 1754              		.thumb_func
 1756              	CAMERA_Delay:
 1757              	.LVL120:
 1758              	.LFB166:
 761:Drivers/BSP/STM32746G-Discovery/stm32746g_discovery.c **** 
 762:Drivers/BSP/STM32746G-Discovery/stm32746g_discovery.c **** /**
 763:Drivers/BSP/STM32746G-Discovery/stm32746g_discovery.c ****   * @brief  Camera delay 
 764:Drivers/BSP/STM32746G-Discovery/stm32746g_discovery.c ****   * @param  Delay: Delay in ms
 765:Drivers/BSP/STM32746G-Discovery/stm32746g_discovery.c ****   * @retval None
 766:Drivers/BSP/STM32746G-Discovery/stm32746g_discovery.c ****   */
 767:Drivers/BSP/STM32746G-Discovery/stm32746g_discovery.c **** void CAMERA_Delay(uint32_t Delay)
 768:Drivers/BSP/STM32746G-Discovery/stm32746g_discovery.c **** {
 1759              		.loc 1 768 1 is_stmt 1 view -0
 1760              		.cfi_startproc
 1761              		@ args = 0, pretend = 0, frame = 0
 1762              		@ frame_needed = 0, uses_anonymous_args = 0
 1763              		.loc 1 768 1 is_stmt 0 view .LVU417
 1764 0000 08B5     		push	{r3, lr}
 1765              	.LCFI51:
 1766              		.cfi_def_cfa_offset 8
 1767              		.cfi_offset 3, -8
 1768              		.cfi_offset 14, -4
 769:Drivers/BSP/STM32746G-Discovery/stm32746g_discovery.c ****   HAL_Delay(Delay);
 1769              		.loc 1 769 3 is_stmt 1 view .LVU418
 1770 0002 FFF7FEFF 		bl	HAL_Delay
 1771              	.LVL121:
 770:Drivers/BSP/STM32746G-Discovery/stm32746g_discovery.c **** }
 1772              		.loc 1 770 1 is_stmt 0 view .LVU419
 1773 0006 08BD     		pop	{r3, pc}
 1774              		.cfi_endproc
 1775              	.LFE166:
 1777              		.section	.text.EEPROM_IO_Init,"ax",%progbits
 1778              		.align	1
 1779              		.global	EEPROM_IO_Init
 1780              		.syntax unified
 1781              		.thumb
 1782              		.thumb_func
 1784              	EEPROM_IO_Init:
 1785              	.LFB167:
 771:Drivers/BSP/STM32746G-Discovery/stm32746g_discovery.c **** 
 772:Drivers/BSP/STM32746G-Discovery/stm32746g_discovery.c **** /******************************** LINK I2C EEPROM *****************************/
 773:Drivers/BSP/STM32746G-Discovery/stm32746g_discovery.c **** 
 774:Drivers/BSP/STM32746G-Discovery/stm32746g_discovery.c **** /**
ARM GAS  /tmp/ccGVQGsk.s 			page 50


 775:Drivers/BSP/STM32746G-Discovery/stm32746g_discovery.c ****   * @brief  Initializes peripherals used by the I2C EEPROM driver.
 776:Drivers/BSP/STM32746G-Discovery/stm32746g_discovery.c ****   * @retval None
 777:Drivers/BSP/STM32746G-Discovery/stm32746g_discovery.c ****   */
 778:Drivers/BSP/STM32746G-Discovery/stm32746g_discovery.c **** void EEPROM_IO_Init(void)
 779:Drivers/BSP/STM32746G-Discovery/stm32746g_discovery.c **** {
 1786              		.loc 1 779 1 is_stmt 1 view -0
 1787              		.cfi_startproc
 1788              		@ args = 0, pretend = 0, frame = 0
 1789              		@ frame_needed = 0, uses_anonymous_args = 0
 1790 0000 08B5     		push	{r3, lr}
 1791              	.LCFI52:
 1792              		.cfi_def_cfa_offset 8
 1793              		.cfi_offset 3, -8
 1794              		.cfi_offset 14, -4
 780:Drivers/BSP/STM32746G-Discovery/stm32746g_discovery.c ****   I2Cx_Init(&hI2cExtHandler);
 1795              		.loc 1 780 3 view .LVU421
 1796 0002 0248     		ldr	r0, .L140
 1797 0004 FFF7FEFF 		bl	I2Cx_Init
 1798              	.LVL122:
 781:Drivers/BSP/STM32746G-Discovery/stm32746g_discovery.c **** }
 1799              		.loc 1 781 1 is_stmt 0 view .LVU422
 1800 0008 08BD     		pop	{r3, pc}
 1801              	.L141:
 1802 000a 00BF     		.align	2
 1803              	.L140:
 1804 000c 00000000 		.word	hI2cExtHandler
 1805              		.cfi_endproc
 1806              	.LFE167:
 1808              		.section	.text.EEPROM_IO_WriteData,"ax",%progbits
 1809              		.align	1
 1810              		.global	EEPROM_IO_WriteData
 1811              		.syntax unified
 1812              		.thumb
 1813              		.thumb_func
 1815              	EEPROM_IO_WriteData:
 1816              	.LVL123:
 1817              	.LFB168:
 782:Drivers/BSP/STM32746G-Discovery/stm32746g_discovery.c **** 
 783:Drivers/BSP/STM32746G-Discovery/stm32746g_discovery.c **** /**
 784:Drivers/BSP/STM32746G-Discovery/stm32746g_discovery.c ****   * @brief  Write data to I2C EEPROM driver in using DMA channel.
 785:Drivers/BSP/STM32746G-Discovery/stm32746g_discovery.c ****   * @param  DevAddress: Target device address
 786:Drivers/BSP/STM32746G-Discovery/stm32746g_discovery.c ****   * @param  MemAddress: Internal memory address
 787:Drivers/BSP/STM32746G-Discovery/stm32746g_discovery.c ****   * @param  pBuffer: Pointer to data buffer
 788:Drivers/BSP/STM32746G-Discovery/stm32746g_discovery.c ****   * @param  BufferSize: Amount of data to be sent
 789:Drivers/BSP/STM32746G-Discovery/stm32746g_discovery.c ****   * @retval HAL status
 790:Drivers/BSP/STM32746G-Discovery/stm32746g_discovery.c ****   */
 791:Drivers/BSP/STM32746G-Discovery/stm32746g_discovery.c **** HAL_StatusTypeDef EEPROM_IO_WriteData(uint16_t DevAddress, uint16_t MemAddress, uint8_t* pBuffer, u
 792:Drivers/BSP/STM32746G-Discovery/stm32746g_discovery.c **** {
 1818              		.loc 1 792 1 is_stmt 1 view -0
 1819              		.cfi_startproc
 1820              		@ args = 0, pretend = 0, frame = 0
 1821              		@ frame_needed = 0, uses_anonymous_args = 0
 1822              		.loc 1 792 1 is_stmt 0 view .LVU424
 1823 0000 00B5     		push	{lr}
 1824              	.LCFI53:
 1825              		.cfi_def_cfa_offset 4
 1826              		.cfi_offset 14, -4
ARM GAS  /tmp/ccGVQGsk.s 			page 51


 1827 0002 83B0     		sub	sp, sp, #12
 1828              	.LCFI54:
 1829              		.cfi_def_cfa_offset 16
 793:Drivers/BSP/STM32746G-Discovery/stm32746g_discovery.c ****   return (I2Cx_WriteMultiple(&hI2cExtHandler, DevAddress, MemAddress, I2C_MEMADD_SIZE_16BIT, pBuffe
 1830              		.loc 1 793 3 is_stmt 1 view .LVU425
 1831              		.loc 1 793 11 is_stmt 0 view .LVU426
 1832 0004 9BB2     		uxth	r3, r3
 1833              	.LVL124:
 1834              		.loc 1 793 11 view .LVU427
 1835 0006 0193     		str	r3, [sp, #4]
 1836 0008 0092     		str	r2, [sp]
 1837 000a 0223     		movs	r3, #2
 1838 000c 0A46     		mov	r2, r1
 1839              	.LVL125:
 1840              		.loc 1 793 11 view .LVU428
 1841 000e C1B2     		uxtb	r1, r0
 1842              	.LVL126:
 1843              		.loc 1 793 11 view .LVU429
 1844 0010 0248     		ldr	r0, .L144
 1845              	.LVL127:
 1846              		.loc 1 793 11 view .LVU430
 1847 0012 FFF7FEFF 		bl	I2Cx_WriteMultiple
 1848              	.LVL128:
 794:Drivers/BSP/STM32746G-Discovery/stm32746g_discovery.c **** }
 1849              		.loc 1 794 1 view .LVU431
 1850 0016 03B0     		add	sp, sp, #12
 1851              	.LCFI55:
 1852              		.cfi_def_cfa_offset 4
 1853              		@ sp needed
 1854 0018 5DF804FB 		ldr	pc, [sp], #4
 1855              	.L145:
 1856              		.align	2
 1857              	.L144:
 1858 001c 00000000 		.word	hI2cExtHandler
 1859              		.cfi_endproc
 1860              	.LFE168:
 1862              		.section	.text.EEPROM_IO_ReadData,"ax",%progbits
 1863              		.align	1
 1864              		.global	EEPROM_IO_ReadData
 1865              		.syntax unified
 1866              		.thumb
 1867              		.thumb_func
 1869              	EEPROM_IO_ReadData:
 1870              	.LVL129:
 1871              	.LFB169:
 795:Drivers/BSP/STM32746G-Discovery/stm32746g_discovery.c **** 
 796:Drivers/BSP/STM32746G-Discovery/stm32746g_discovery.c **** /**
 797:Drivers/BSP/STM32746G-Discovery/stm32746g_discovery.c ****   * @brief  Read data from I2C EEPROM driver in using DMA channel.
 798:Drivers/BSP/STM32746G-Discovery/stm32746g_discovery.c ****   * @param  DevAddress: Target device address
 799:Drivers/BSP/STM32746G-Discovery/stm32746g_discovery.c ****   * @param  MemAddress: Internal memory address
 800:Drivers/BSP/STM32746G-Discovery/stm32746g_discovery.c ****   * @param  pBuffer: Pointer to data buffer
 801:Drivers/BSP/STM32746G-Discovery/stm32746g_discovery.c ****   * @param  BufferSize: Amount of data to be read
 802:Drivers/BSP/STM32746G-Discovery/stm32746g_discovery.c ****   * @retval HAL status
 803:Drivers/BSP/STM32746G-Discovery/stm32746g_discovery.c ****   */
 804:Drivers/BSP/STM32746G-Discovery/stm32746g_discovery.c **** HAL_StatusTypeDef EEPROM_IO_ReadData(uint16_t DevAddress, uint16_t MemAddress, uint8_t* pBuffer, ui
 805:Drivers/BSP/STM32746G-Discovery/stm32746g_discovery.c **** {
 1872              		.loc 1 805 1 is_stmt 1 view -0
ARM GAS  /tmp/ccGVQGsk.s 			page 52


 1873              		.cfi_startproc
 1874              		@ args = 0, pretend = 0, frame = 0
 1875              		@ frame_needed = 0, uses_anonymous_args = 0
 1876              		.loc 1 805 1 is_stmt 0 view .LVU433
 1877 0000 00B5     		push	{lr}
 1878              	.LCFI56:
 1879              		.cfi_def_cfa_offset 4
 1880              		.cfi_offset 14, -4
 1881 0002 83B0     		sub	sp, sp, #12
 1882              	.LCFI57:
 1883              		.cfi_def_cfa_offset 16
 806:Drivers/BSP/STM32746G-Discovery/stm32746g_discovery.c ****   return (I2Cx_ReadMultiple(&hI2cExtHandler, DevAddress, MemAddress, I2C_MEMADD_SIZE_16BIT, pBuffer
 1884              		.loc 1 806 3 is_stmt 1 view .LVU434
 1885              		.loc 1 806 11 is_stmt 0 view .LVU435
 1886 0004 9BB2     		uxth	r3, r3
 1887              	.LVL130:
 1888              		.loc 1 806 11 view .LVU436
 1889 0006 0193     		str	r3, [sp, #4]
 1890 0008 0092     		str	r2, [sp]
 1891 000a 0223     		movs	r3, #2
 1892 000c 0A46     		mov	r2, r1
 1893              	.LVL131:
 1894              		.loc 1 806 11 view .LVU437
 1895 000e C1B2     		uxtb	r1, r0
 1896              	.LVL132:
 1897              		.loc 1 806 11 view .LVU438
 1898 0010 0248     		ldr	r0, .L148
 1899              	.LVL133:
 1900              		.loc 1 806 11 view .LVU439
 1901 0012 FFF7FEFF 		bl	I2Cx_ReadMultiple
 1902              	.LVL134:
 807:Drivers/BSP/STM32746G-Discovery/stm32746g_discovery.c **** }
 1903              		.loc 1 807 1 view .LVU440
 1904 0016 03B0     		add	sp, sp, #12
 1905              	.LCFI58:
 1906              		.cfi_def_cfa_offset 4
 1907              		@ sp needed
 1908 0018 5DF804FB 		ldr	pc, [sp], #4
 1909              	.L149:
 1910              		.align	2
 1911              	.L148:
 1912 001c 00000000 		.word	hI2cExtHandler
 1913              		.cfi_endproc
 1914              	.LFE169:
 1916              		.section	.text.EEPROM_IO_IsDeviceReady,"ax",%progbits
 1917              		.align	1
 1918              		.global	EEPROM_IO_IsDeviceReady
 1919              		.syntax unified
 1920              		.thumb
 1921              		.thumb_func
 1923              	EEPROM_IO_IsDeviceReady:
 1924              	.LVL135:
 1925              	.LFB170:
 808:Drivers/BSP/STM32746G-Discovery/stm32746g_discovery.c **** 
 809:Drivers/BSP/STM32746G-Discovery/stm32746g_discovery.c **** /**
 810:Drivers/BSP/STM32746G-Discovery/stm32746g_discovery.c ****   * @brief  Checks if target device is ready for communication. 
 811:Drivers/BSP/STM32746G-Discovery/stm32746g_discovery.c ****   * @note   This function is used with Memory devices
ARM GAS  /tmp/ccGVQGsk.s 			page 53


 812:Drivers/BSP/STM32746G-Discovery/stm32746g_discovery.c ****   * @param  DevAddress: Target device address
 813:Drivers/BSP/STM32746G-Discovery/stm32746g_discovery.c ****   * @param  Trials: Number of trials
 814:Drivers/BSP/STM32746G-Discovery/stm32746g_discovery.c ****   * @retval HAL status
 815:Drivers/BSP/STM32746G-Discovery/stm32746g_discovery.c ****   */
 816:Drivers/BSP/STM32746G-Discovery/stm32746g_discovery.c **** HAL_StatusTypeDef EEPROM_IO_IsDeviceReady(uint16_t DevAddress, uint32_t Trials)
 817:Drivers/BSP/STM32746G-Discovery/stm32746g_discovery.c **** { 
 1926              		.loc 1 817 1 is_stmt 1 view -0
 1927              		.cfi_startproc
 1928              		@ args = 0, pretend = 0, frame = 0
 1929              		@ frame_needed = 0, uses_anonymous_args = 0
 1930              		.loc 1 817 1 is_stmt 0 view .LVU442
 1931 0000 08B5     		push	{r3, lr}
 1932              	.LCFI59:
 1933              		.cfi_def_cfa_offset 8
 1934              		.cfi_offset 3, -8
 1935              		.cfi_offset 14, -4
 1936 0002 0A46     		mov	r2, r1
 818:Drivers/BSP/STM32746G-Discovery/stm32746g_discovery.c ****   return (I2Cx_IsDeviceReady(&hI2cExtHandler, DevAddress, Trials));
 1937              		.loc 1 818 3 is_stmt 1 view .LVU443
 1938              		.loc 1 818 11 is_stmt 0 view .LVU444
 1939 0004 0146     		mov	r1, r0
 1940              	.LVL136:
 1941              		.loc 1 818 11 view .LVU445
 1942 0006 0248     		ldr	r0, .L152
 1943              	.LVL137:
 1944              		.loc 1 818 11 view .LVU446
 1945 0008 FFF7FEFF 		bl	I2Cx_IsDeviceReady
 1946              	.LVL138:
 819:Drivers/BSP/STM32746G-Discovery/stm32746g_discovery.c **** }
 1947              		.loc 1 819 1 view .LVU447
 1948 000c 08BD     		pop	{r3, pc}
 1949              	.L153:
 1950 000e 00BF     		.align	2
 1951              	.L152:
 1952 0010 00000000 		.word	hI2cExtHandler
 1953              		.cfi_endproc
 1954              	.LFE170:
 1956              		.section	.text.TS_IO_Init,"ax",%progbits
 1957              		.align	1
 1958              		.global	TS_IO_Init
 1959              		.syntax unified
 1960              		.thumb
 1961              		.thumb_func
 1963              	TS_IO_Init:
 1964              	.LFB171:
 820:Drivers/BSP/STM32746G-Discovery/stm32746g_discovery.c **** 
 821:Drivers/BSP/STM32746G-Discovery/stm32746g_discovery.c **** /********************************* LINK TOUCHSCREEN *********************************/
 822:Drivers/BSP/STM32746G-Discovery/stm32746g_discovery.c **** 
 823:Drivers/BSP/STM32746G-Discovery/stm32746g_discovery.c **** /**
 824:Drivers/BSP/STM32746G-Discovery/stm32746g_discovery.c ****   * @brief  Initializes Touchscreen low level.
 825:Drivers/BSP/STM32746G-Discovery/stm32746g_discovery.c ****   * @retval None
 826:Drivers/BSP/STM32746G-Discovery/stm32746g_discovery.c ****   */
 827:Drivers/BSP/STM32746G-Discovery/stm32746g_discovery.c **** void TS_IO_Init(void)
 828:Drivers/BSP/STM32746G-Discovery/stm32746g_discovery.c **** {
 1965              		.loc 1 828 1 is_stmt 1 view -0
 1966              		.cfi_startproc
 1967              		@ args = 0, pretend = 0, frame = 0
ARM GAS  /tmp/ccGVQGsk.s 			page 54


 1968              		@ frame_needed = 0, uses_anonymous_args = 0
 1969 0000 08B5     		push	{r3, lr}
 1970              	.LCFI60:
 1971              		.cfi_def_cfa_offset 8
 1972              		.cfi_offset 3, -8
 1973              		.cfi_offset 14, -4
 829:Drivers/BSP/STM32746G-Discovery/stm32746g_discovery.c ****   I2Cx_Init(&hI2cAudioHandler);
 1974              		.loc 1 829 3 view .LVU449
 1975 0002 0248     		ldr	r0, .L156
 1976 0004 FFF7FEFF 		bl	I2Cx_Init
 1977              	.LVL139:
 830:Drivers/BSP/STM32746G-Discovery/stm32746g_discovery.c **** }
 1978              		.loc 1 830 1 is_stmt 0 view .LVU450
 1979 0008 08BD     		pop	{r3, pc}
 1980              	.L157:
 1981 000a 00BF     		.align	2
 1982              	.L156:
 1983 000c 00000000 		.word	hI2cAudioHandler
 1984              		.cfi_endproc
 1985              	.LFE171:
 1987              		.section	.text.TS_IO_Write,"ax",%progbits
 1988              		.align	1
 1989              		.global	TS_IO_Write
 1990              		.syntax unified
 1991              		.thumb
 1992              		.thumb_func
 1994              	TS_IO_Write:
 1995              	.LVL140:
 1996              	.LFB172:
 831:Drivers/BSP/STM32746G-Discovery/stm32746g_discovery.c **** 
 832:Drivers/BSP/STM32746G-Discovery/stm32746g_discovery.c **** /**
 833:Drivers/BSP/STM32746G-Discovery/stm32746g_discovery.c ****   * @brief  Writes a single data.
 834:Drivers/BSP/STM32746G-Discovery/stm32746g_discovery.c ****   * @param  Addr: I2C address
 835:Drivers/BSP/STM32746G-Discovery/stm32746g_discovery.c ****   * @param  Reg: Reg address
 836:Drivers/BSP/STM32746G-Discovery/stm32746g_discovery.c ****   * @param  Value: Data to be written
 837:Drivers/BSP/STM32746G-Discovery/stm32746g_discovery.c ****   * @retval None
 838:Drivers/BSP/STM32746G-Discovery/stm32746g_discovery.c ****   */
 839:Drivers/BSP/STM32746G-Discovery/stm32746g_discovery.c **** void TS_IO_Write(uint8_t Addr, uint8_t Reg, uint8_t Value)
 840:Drivers/BSP/STM32746G-Discovery/stm32746g_discovery.c **** {
 1997              		.loc 1 840 1 is_stmt 1 view -0
 1998              		.cfi_startproc
 1999              		@ args = 0, pretend = 0, frame = 8
 2000              		@ frame_needed = 0, uses_anonymous_args = 0
 2001              		.loc 1 840 1 is_stmt 0 view .LVU452
 2002 0000 00B5     		push	{lr}
 2003              	.LCFI61:
 2004              		.cfi_def_cfa_offset 4
 2005              		.cfi_offset 14, -4
 2006 0002 85B0     		sub	sp, sp, #20
 2007              	.LCFI62:
 2008              		.cfi_def_cfa_offset 24
 2009 0004 8DF80F20 		strb	r2, [sp, #15]
 841:Drivers/BSP/STM32746G-Discovery/stm32746g_discovery.c ****   I2Cx_WriteMultiple(&hI2cAudioHandler, Addr, (uint16_t)Reg, I2C_MEMADD_SIZE_8BIT,(uint8_t*)&Value,
 2010              		.loc 1 841 3 is_stmt 1 view .LVU453
 2011 0008 0123     		movs	r3, #1
 2012 000a 0193     		str	r3, [sp, #4]
 2013 000c 0DF10F02 		add	r2, sp, #15
ARM GAS  /tmp/ccGVQGsk.s 			page 55


 2014              	.LVL141:
 2015              		.loc 1 841 3 is_stmt 0 view .LVU454
 2016 0010 0092     		str	r2, [sp]
 2017 0012 0A46     		mov	r2, r1
 2018              	.LVL142:
 2019              		.loc 1 841 3 view .LVU455
 2020 0014 0146     		mov	r1, r0
 2021              	.LVL143:
 2022              		.loc 1 841 3 view .LVU456
 2023 0016 0348     		ldr	r0, .L160
 2024              	.LVL144:
 2025              		.loc 1 841 3 view .LVU457
 2026 0018 FFF7FEFF 		bl	I2Cx_WriteMultiple
 2027              	.LVL145:
 842:Drivers/BSP/STM32746G-Discovery/stm32746g_discovery.c **** }
 2028              		.loc 1 842 1 view .LVU458
 2029 001c 05B0     		add	sp, sp, #20
 2030              	.LCFI63:
 2031              		.cfi_def_cfa_offset 4
 2032              		@ sp needed
 2033 001e 5DF804FB 		ldr	pc, [sp], #4
 2034              	.L161:
 2035 0022 00BF     		.align	2
 2036              	.L160:
 2037 0024 00000000 		.word	hI2cAudioHandler
 2038              		.cfi_endproc
 2039              	.LFE172:
 2041              		.section	.text.TS_IO_Read,"ax",%progbits
 2042              		.align	1
 2043              		.global	TS_IO_Read
 2044              		.syntax unified
 2045              		.thumb
 2046              		.thumb_func
 2048              	TS_IO_Read:
 2049              	.LVL146:
 2050              	.LFB173:
 843:Drivers/BSP/STM32746G-Discovery/stm32746g_discovery.c **** 
 844:Drivers/BSP/STM32746G-Discovery/stm32746g_discovery.c **** /**
 845:Drivers/BSP/STM32746G-Discovery/stm32746g_discovery.c ****   * @brief  Reads a single data.
 846:Drivers/BSP/STM32746G-Discovery/stm32746g_discovery.c ****   * @param  Addr: I2C address
 847:Drivers/BSP/STM32746G-Discovery/stm32746g_discovery.c ****   * @param  Reg: Reg address
 848:Drivers/BSP/STM32746G-Discovery/stm32746g_discovery.c ****   * @retval Data to be read
 849:Drivers/BSP/STM32746G-Discovery/stm32746g_discovery.c ****   */
 850:Drivers/BSP/STM32746G-Discovery/stm32746g_discovery.c **** uint8_t TS_IO_Read(uint8_t Addr, uint8_t Reg)
 851:Drivers/BSP/STM32746G-Discovery/stm32746g_discovery.c **** {
 2051              		.loc 1 851 1 is_stmt 1 view -0
 2052              		.cfi_startproc
 2053              		@ args = 0, pretend = 0, frame = 8
 2054              		@ frame_needed = 0, uses_anonymous_args = 0
 2055              		.loc 1 851 1 is_stmt 0 view .LVU460
 2056 0000 00B5     		push	{lr}
 2057              	.LCFI64:
 2058              		.cfi_def_cfa_offset 4
 2059              		.cfi_offset 14, -4
 2060 0002 85B0     		sub	sp, sp, #20
 2061              	.LCFI65:
 2062              		.cfi_def_cfa_offset 24
ARM GAS  /tmp/ccGVQGsk.s 			page 56


 2063 0004 0A46     		mov	r2, r1
 852:Drivers/BSP/STM32746G-Discovery/stm32746g_discovery.c ****   uint8_t read_value = 0;
 2064              		.loc 1 852 3 is_stmt 1 view .LVU461
 2065              		.loc 1 852 11 is_stmt 0 view .LVU462
 2066 0006 0023     		movs	r3, #0
 2067 0008 8DF80F30 		strb	r3, [sp, #15]
 853:Drivers/BSP/STM32746G-Discovery/stm32746g_discovery.c **** 
 854:Drivers/BSP/STM32746G-Discovery/stm32746g_discovery.c ****   I2Cx_ReadMultiple(&hI2cAudioHandler, Addr, Reg, I2C_MEMADD_SIZE_8BIT, (uint8_t*)&read_value, 1);
 2068              		.loc 1 854 3 is_stmt 1 view .LVU463
 2069 000c 0123     		movs	r3, #1
 2070 000e 0193     		str	r3, [sp, #4]
 2071 0010 0DF10F01 		add	r1, sp, #15
 2072              	.LVL147:
 2073              		.loc 1 854 3 is_stmt 0 view .LVU464
 2074 0014 0091     		str	r1, [sp]
 2075 0016 0146     		mov	r1, r0
 2076 0018 0348     		ldr	r0, .L164
 2077              	.LVL148:
 2078              		.loc 1 854 3 view .LVU465
 2079 001a FFF7FEFF 		bl	I2Cx_ReadMultiple
 2080              	.LVL149:
 855:Drivers/BSP/STM32746G-Discovery/stm32746g_discovery.c **** 
 856:Drivers/BSP/STM32746G-Discovery/stm32746g_discovery.c ****   return read_value;
 2081              		.loc 1 856 3 is_stmt 1 view .LVU466
 857:Drivers/BSP/STM32746G-Discovery/stm32746g_discovery.c **** }
 2082              		.loc 1 857 1 is_stmt 0 view .LVU467
 2083 001e 9DF80F00 		ldrb	r0, [sp, #15]	@ zero_extendqisi2
 2084 0022 05B0     		add	sp, sp, #20
 2085              	.LCFI66:
 2086              		.cfi_def_cfa_offset 4
 2087              		@ sp needed
 2088 0024 5DF804FB 		ldr	pc, [sp], #4
 2089              	.L165:
 2090              		.align	2
 2091              	.L164:
 2092 0028 00000000 		.word	hI2cAudioHandler
 2093              		.cfi_endproc
 2094              	.LFE173:
 2096              		.section	.text.TS_IO_Delay,"ax",%progbits
 2097              		.align	1
 2098              		.global	TS_IO_Delay
 2099              		.syntax unified
 2100              		.thumb
 2101              		.thumb_func
 2103              	TS_IO_Delay:
 2104              	.LVL150:
 2105              	.LFB174:
 858:Drivers/BSP/STM32746G-Discovery/stm32746g_discovery.c **** 
 859:Drivers/BSP/STM32746G-Discovery/stm32746g_discovery.c **** /**
 860:Drivers/BSP/STM32746G-Discovery/stm32746g_discovery.c ****   * @brief  TS delay
 861:Drivers/BSP/STM32746G-Discovery/stm32746g_discovery.c ****   * @param  Delay: Delay in ms
 862:Drivers/BSP/STM32746G-Discovery/stm32746g_discovery.c ****   * @retval None
 863:Drivers/BSP/STM32746G-Discovery/stm32746g_discovery.c ****   */
 864:Drivers/BSP/STM32746G-Discovery/stm32746g_discovery.c **** void TS_IO_Delay(uint32_t Delay)
 865:Drivers/BSP/STM32746G-Discovery/stm32746g_discovery.c **** {
 2106              		.loc 1 865 1 is_stmt 1 view -0
 2107              		.cfi_startproc
ARM GAS  /tmp/ccGVQGsk.s 			page 57


 2108              		@ args = 0, pretend = 0, frame = 0
 2109              		@ frame_needed = 0, uses_anonymous_args = 0
 2110              		.loc 1 865 1 is_stmt 0 view .LVU469
 2111 0000 08B5     		push	{r3, lr}
 2112              	.LCFI67:
 2113              		.cfi_def_cfa_offset 8
 2114              		.cfi_offset 3, -8
 2115              		.cfi_offset 14, -4
 866:Drivers/BSP/STM32746G-Discovery/stm32746g_discovery.c ****   HAL_Delay(Delay);
 2116              		.loc 1 866 3 is_stmt 1 view .LVU470
 2117 0002 FFF7FEFF 		bl	HAL_Delay
 2118              	.LVL151:
 867:Drivers/BSP/STM32746G-Discovery/stm32746g_discovery.c **** }
 2119              		.loc 1 867 1 is_stmt 0 view .LVU471
 2120 0006 08BD     		pop	{r3, pc}
 2121              		.cfi_endproc
 2122              	.LFE174:
 2124              		.section	.bss.hI2cExtHandler,"aw",%nobits
 2125              		.align	2
 2128              	hI2cExtHandler:
 2129 0000 00000000 		.space	84
 2129      00000000 
 2129      00000000 
 2129      00000000 
 2129      00000000 
 2130              		.section	.bss.hI2cAudioHandler,"aw",%nobits
 2131              		.align	2
 2134              	hI2cAudioHandler:
 2135 0000 00000000 		.space	84
 2135      00000000 
 2135      00000000 
 2135      00000000 
 2135      00000000 
 2136              		.global	COM_RX_AF
 2137              		.section	.rodata.COM_RX_AF,"a"
 2138              		.align	2
 2141              	COM_RX_AF:
 2142 0000 0700     		.short	7
 2143              		.global	COM_TX_AF
 2144              		.section	.rodata.COM_TX_AF,"a"
 2145              		.align	2
 2148              	COM_TX_AF:
 2149 0000 0700     		.short	7
 2150              		.global	COM_RX_PIN
 2151              		.section	.rodata.COM_RX_PIN,"a"
 2152              		.align	2
 2155              	COM_RX_PIN:
 2156 0000 8000     		.short	128
 2157              		.global	COM_TX_PIN
 2158              		.section	.rodata.COM_TX_PIN,"a"
 2159              		.align	2
 2162              	COM_TX_PIN:
 2163 0000 0002     		.short	512
 2164              		.global	COM_RX_PORT
 2165              		.section	.data.COM_RX_PORT,"aw"
 2166              		.align	2
 2169              	COM_RX_PORT:
ARM GAS  /tmp/ccGVQGsk.s 			page 58


 2170 0000 00040240 		.word	1073873920
 2171              		.global	COM_TX_PORT
 2172              		.section	.data.COM_TX_PORT,"aw"
 2173              		.align	2
 2176              	COM_TX_PORT:
 2177 0000 00000240 		.word	1073872896
 2178              		.global	COM_USART
 2179              		.section	.data.COM_USART,"aw"
 2180              		.align	2
 2183              	COM_USART:
 2184 0000 00100140 		.word	1073811456
 2185              		.global	BUTTON_IRQn
 2186              		.section	.rodata.BUTTON_IRQn,"a"
 2187              		.align	2
 2190              	BUTTON_IRQn:
 2191 0000 2800     		.short	40
 2192 0002 2800     		.short	40
 2193 0004 2800     		.short	40
 2194              		.global	BUTTON_PIN
 2195              		.section	.rodata.BUTTON_PIN,"a"
 2196              		.align	2
 2199              	BUTTON_PIN:
 2200 0000 0008     		.short	2048
 2201 0002 0008     		.short	2048
 2202 0004 0008     		.short	2048
 2203              		.global	BUTTON_PORT
 2204              		.section	.data.BUTTON_PORT,"aw"
 2205              		.align	2
 2208              	BUTTON_PORT:
 2209 0000 00200240 		.word	1073881088
 2210 0004 00200240 		.word	1073881088
 2211 0008 00200240 		.word	1073881088
 2212              		.global	GPIO_PIN
 2213              		.section	.rodata.GPIO_PIN,"a"
 2214              		.align	2
 2217              	GPIO_PIN:
 2218 0000 02000000 		.word	2
 2219              		.text
 2220              	.Letext0:
 2221              		.file 2 "Drivers/CMSIS/Device/ST/STM32F7xx/Include/stm32f746xx.h"
 2222              		.file 3 "/usr/arm-none-eabi/include/machine/_default_types.h"
 2223              		.file 4 "/usr/arm-none-eabi/include/sys/_stdint.h"
 2224              		.file 5 "Drivers/STM32F7xx_HAL_Driver/Inc/stm32f7xx_hal_def.h"
 2225              		.file 6 "Drivers/STM32F7xx_HAL_Driver/Inc/stm32f7xx_hal_gpio.h"
 2226              		.file 7 "Drivers/STM32F7xx_HAL_Driver/Inc/stm32f7xx_hal_dma.h"
 2227              		.file 8 "Drivers/STM32F7xx_HAL_Driver/Inc/stm32f7xx_hal_i2c.h"
 2228              		.file 9 "Drivers/STM32F7xx_HAL_Driver/Inc/stm32f7xx_hal_uart.h"
 2229              		.file 10 "Drivers/BSP/STM32746G-Discovery/stm32746g_discovery.h"
 2230              		.file 11 "Drivers/STM32F7xx_HAL_Driver/Inc/stm32f7xx_hal.h"
 2231              		.file 12 "Drivers/STM32F7xx_HAL_Driver/Inc/stm32f7xx_hal_cortex.h"
ARM GAS  /tmp/ccGVQGsk.s 			page 59

