ARM GAS  /tmp/ccDBRchF.s 			page 1


   1              		.cpu cortex-m7
   2              		.arch armv7e-m
   3              		.fpu fpv5-sp-d16
   4              		.eabi_attribute 27, 1
   5              		.eabi_attribute 28, 1
   6              		.eabi_attribute 20, 1
   7              		.eabi_attribute 21, 1
   8              		.eabi_attribute 23, 3
   9              		.eabi_attribute 24, 1
  10              		.eabi_attribute 25, 1
  11              		.eabi_attribute 26, 1
  12              		.eabi_attribute 30, 1
  13              		.eabi_attribute 34, 1
  14              		.eabi_attribute 18, 4
  15              		.file	"ui.c"
  16              		.text
  17              	.Ltext0:
  18              		.cfi_sections	.debug_frame
  19              		.file 1 "Drivers/ui/ui.c"
  20              		.section	.text.getLvglObjectFromIndex,"ax",%progbits
  21              		.align	1
  22              		.syntax unified
  23              		.thumb
  24              		.thumb_func
  26              	getLvglObjectFromIndex:
  27              	.LVL0:
  28              	.LFB178:
   1:Drivers/ui/ui.c **** #if defined(EEZ_FOR_LVGL)
   2:Drivers/ui/ui.c **** #include <eez/core/vars.h>
   3:Drivers/ui/ui.c **** #endif
   4:Drivers/ui/ui.c **** 
   5:Drivers/ui/ui.c **** #include "ui.h"
   6:Drivers/ui/ui.c **** #include "screens.h"
   7:Drivers/ui/ui.c **** #include "images.h"
   8:Drivers/ui/ui.c **** #include "actions.h"
   9:Drivers/ui/ui.c **** #include "vars.h"
  10:Drivers/ui/ui.c **** 
  11:Drivers/ui/ui.c **** 
  12:Drivers/ui/ui.c **** 
  13:Drivers/ui/ui.c **** 
  14:Drivers/ui/ui.c **** 
  15:Drivers/ui/ui.c **** 
  16:Drivers/ui/ui.c **** 
  17:Drivers/ui/ui.c **** #if defined(EEZ_FOR_LVGL)
  18:Drivers/ui/ui.c **** 
  19:Drivers/ui/ui.c **** void ui_init() {
  20:Drivers/ui/ui.c ****     eez_flow_init(assets, sizeof(assets), (lv_obj_t **)&objects, sizeof(objects), images, sizeof(im
  21:Drivers/ui/ui.c **** }
  22:Drivers/ui/ui.c **** 
  23:Drivers/ui/ui.c **** void ui_tick() {
  24:Drivers/ui/ui.c ****     eez_flow_tick();
  25:Drivers/ui/ui.c ****     tick_screen(g_currentScreen);
  26:Drivers/ui/ui.c **** }
  27:Drivers/ui/ui.c **** 
  28:Drivers/ui/ui.c **** #else
  29:Drivers/ui/ui.c **** 
  30:Drivers/ui/ui.c **** #include <string.h>
ARM GAS  /tmp/ccDBRchF.s 			page 2


  31:Drivers/ui/ui.c **** 
  32:Drivers/ui/ui.c **** static int16_t currentScreen = -1;
  33:Drivers/ui/ui.c **** 
  34:Drivers/ui/ui.c **** static lv_obj_t *getLvglObjectFromIndex(int32_t index) {
  29              		.loc 1 34 56 view -0
  30              		.cfi_startproc
  31              		@ args = 0, pretend = 0, frame = 0
  32              		@ frame_needed = 0, uses_anonymous_args = 0
  33              		@ link register save eliminated.
  35:Drivers/ui/ui.c ****     if (index == -1) {
  34              		.loc 1 35 5 view .LVU1
  35              		.loc 1 35 8 is_stmt 0 view .LVU2
  36 0000 B0F1FF3F 		cmp	r0, #-1
  37 0004 03D0     		beq	.L3
  36:Drivers/ui/ui.c ****         return 0;
  37:Drivers/ui/ui.c ****     }
  38:Drivers/ui/ui.c ****     return ((lv_obj_t **)&objects)[index];
  38              		.loc 1 38 5 is_stmt 1 view .LVU3
  39              		.loc 1 38 35 is_stmt 0 view .LVU4
  40 0006 034B     		ldr	r3, .L4
  41 0008 53F82000 		ldr	r0, [r3, r0, lsl #2]
  42              	.LVL1:
  43              		.loc 1 38 35 view .LVU5
  44 000c 7047     		bx	lr
  45              	.LVL2:
  46              	.L3:
  36:Drivers/ui/ui.c ****         return 0;
  47              		.loc 1 36 16 view .LVU6
  48 000e 0020     		movs	r0, #0
  49              	.LVL3:
  39:Drivers/ui/ui.c **** }
  50              		.loc 1 39 1 view .LVU7
  51 0010 7047     		bx	lr
  52              	.L5:
  53 0012 00BF     		.align	2
  54              	.L4:
  55 0014 00000000 		.word	objects
  56              		.cfi_endproc
  57              	.LFE178:
  59              		.section	.text.loadScreen,"ax",%progbits
  60              		.align	1
  61              		.global	loadScreen
  62              		.syntax unified
  63              		.thumb
  64              		.thumb_func
  66              	loadScreen:
  67              	.LVL4:
  68              	.LFB179:
  40:Drivers/ui/ui.c **** 
  41:Drivers/ui/ui.c **** void loadScreen(enum ScreensEnum screenId) {
  69              		.loc 1 41 44 is_stmt 1 view -0
  70              		.cfi_startproc
  71              		@ args = 0, pretend = 0, frame = 0
  72              		@ frame_needed = 0, uses_anonymous_args = 0
  73              		.loc 1 41 44 is_stmt 0 view .LVU9
  74 0000 00B5     		push	{lr}
  75              	.LCFI0:
ARM GAS  /tmp/ccDBRchF.s 			page 3


  76              		.cfi_def_cfa_offset 4
  77              		.cfi_offset 14, -4
  78 0002 83B0     		sub	sp, sp, #12
  79              	.LCFI1:
  80              		.cfi_def_cfa_offset 16
  42:Drivers/ui/ui.c ****     currentScreen = screenId - 1;
  81              		.loc 1 42 5 is_stmt 1 view .LVU10
  82              		.loc 1 42 30 is_stmt 0 view .LVU11
  83 0004 0138     		subs	r0, r0, #1
  84              	.LVL5:
  85              		.loc 1 42 30 view .LVU12
  86 0006 00B2     		sxth	r0, r0
  87              	.LVL6:
  88              		.loc 1 42 19 view .LVU13
  89 0008 064B     		ldr	r3, .L8
  90 000a 1880     		strh	r0, [r3]	@ movhi
  43:Drivers/ui/ui.c ****     lv_obj_t *screen = getLvglObjectFromIndex(currentScreen);
  91              		.loc 1 43 5 is_stmt 1 view .LVU14
  92              		.loc 1 43 24 is_stmt 0 view .LVU15
  93 000c FFF7FEFF 		bl	getLvglObjectFromIndex
  94              	.LVL7:
  44:Drivers/ui/ui.c ****     lv_scr_load_anim(screen, LV_SCR_LOAD_ANIM_FADE_IN, 200, 0, false);
  95              		.loc 1 44 5 is_stmt 1 view .LVU16
  96 0010 0023     		movs	r3, #0
  97 0012 0093     		str	r3, [sp]
  98 0014 C822     		movs	r2, #200
  99 0016 0921     		movs	r1, #9
 100 0018 FFF7FEFF 		bl	lv_screen_load_anim
 101              	.LVL8:
  45:Drivers/ui/ui.c **** }
 102              		.loc 1 45 1 is_stmt 0 view .LVU17
 103 001c 03B0     		add	sp, sp, #12
 104              	.LCFI2:
 105              		.cfi_def_cfa_offset 4
 106              		@ sp needed
 107 001e 5DF804FB 		ldr	pc, [sp], #4
 108              	.L9:
 109 0022 00BF     		.align	2
 110              	.L8:
 111 0024 00000000 		.word	currentScreen
 112              		.cfi_endproc
 113              	.LFE179:
 115              		.section	.text.ui_init,"ax",%progbits
 116              		.align	1
 117              		.global	ui_init
 118              		.syntax unified
 119              		.thumb
 120              		.thumb_func
 122              	ui_init:
 123              	.LFB180:
  46:Drivers/ui/ui.c **** 
  47:Drivers/ui/ui.c **** void ui_init() {
 124              		.loc 1 47 16 is_stmt 1 view -0
 125              		.cfi_startproc
 126              		@ args = 0, pretend = 0, frame = 0
 127              		@ frame_needed = 0, uses_anonymous_args = 0
 128 0000 08B5     		push	{r3, lr}
ARM GAS  /tmp/ccDBRchF.s 			page 4


 129              	.LCFI3:
 130              		.cfi_def_cfa_offset 8
 131              		.cfi_offset 3, -8
 132              		.cfi_offset 14, -4
  48:Drivers/ui/ui.c ****     create_screens();
 133              		.loc 1 48 5 view .LVU19
 134 0002 FFF7FEFF 		bl	create_screens
 135              	.LVL9:
  49:Drivers/ui/ui.c ****     loadScreen(SCREEN_ID_MAIN);
 136              		.loc 1 49 5 view .LVU20
 137 0006 0120     		movs	r0, #1
 138 0008 FFF7FEFF 		bl	loadScreen
 139              	.LVL10:
  50:Drivers/ui/ui.c **** 
  51:Drivers/ui/ui.c **** }
 140              		.loc 1 51 1 is_stmt 0 view .LVU21
 141 000c 08BD     		pop	{r3, pc}
 142              		.cfi_endproc
 143              	.LFE180:
 145              		.section	.text.ui_tick,"ax",%progbits
 146              		.align	1
 147              		.global	ui_tick
 148              		.syntax unified
 149              		.thumb
 150              		.thumb_func
 152              	ui_tick:
 153              	.LFB181:
  52:Drivers/ui/ui.c **** 
  53:Drivers/ui/ui.c **** void ui_tick() {
 154              		.loc 1 53 16 is_stmt 1 view -0
 155              		.cfi_startproc
 156              		@ args = 0, pretend = 0, frame = 0
 157              		@ frame_needed = 0, uses_anonymous_args = 0
 158 0000 08B5     		push	{r3, lr}
 159              	.LCFI4:
 160              		.cfi_def_cfa_offset 8
 161              		.cfi_offset 3, -8
 162              		.cfi_offset 14, -4
  54:Drivers/ui/ui.c ****     tick_screen(currentScreen);
 163              		.loc 1 54 5 view .LVU23
 164 0002 034B     		ldr	r3, .L14
 165 0004 B3F90000 		ldrsh	r0, [r3]
 166 0008 FFF7FEFF 		bl	tick_screen
 167              	.LVL11:
  55:Drivers/ui/ui.c **** }
 168              		.loc 1 55 1 is_stmt 0 view .LVU24
 169 000c 08BD     		pop	{r3, pc}
 170              	.L15:
 171 000e 00BF     		.align	2
 172              	.L14:
 173 0010 00000000 		.word	currentScreen
 174              		.cfi_endproc
 175              	.LFE181:
 177              		.section	.data.currentScreen,"aw"
 178              		.align	1
 181              	currentScreen:
 182 0000 FFFF     		.short	-1
ARM GAS  /tmp/ccDBRchF.s 			page 5


 183              		.text
 184              	.Letext0:
 185              		.file 2 "/usr/arm-none-eabi/include/machine/_default_types.h"
 186              		.file 3 "/usr/arm-none-eabi/include/sys/_stdint.h"
 187              		.file 4 "Drivers/lvgl/src/misc/lv_types.h"
 188              		.file 5 "Drivers/lvgl/src/core/../display/lv_display.h"
 189              		.file 6 "Drivers/lvgl/src/core/../indev/lv_indev.h"
 190              		.file 7 "Drivers/lvgl/src/core/lv_obj.h"
 191              		.file 8 "Drivers/lvgl/src/widgets/bar/lv_bar.h"
 192              		.file 9 "Drivers/ui/screens.h"
ARM GAS  /tmp/ccDBRchF.s 			page 6

