ARM GAS  /tmp/ccDyhIXb.s 			page 1


   1              		.cpu cortex-m7
   2              		.arch armv7e-m
   3              		.fpu fpv5-sp-d16
   4              		.eabi_attribute 27, 1
   5              		.eabi_attribute 28, 1
   6              		.eabi_attribute 20, 1
   7              		.eabi_attribute 21, 1
   8              		.eabi_attribute 23, 3
   9              		.eabi_attribute 24, 1
  10              		.eabi_attribute 25, 1
  11              		.eabi_attribute 26, 1
  12              		.eabi_attribute 30, 1
  13              		.eabi_attribute 34, 1
  14              		.eabi_attribute 18, 4
  15              		.file	"usbh_core.c"
  16              		.text
  17              	.Ltext0:
  18              		.cfi_sections	.debug_frame
  19              		.file 1 "Middlewares/ST/STM32_USB_Host_Library/Core/Src/usbh_core.c"
  20              		.section	.text.USBH_HandleSof,"ax",%progbits
  21              		.align	1
  22              		.syntax unified
  23              		.thumb
  24              		.thumb_func
  26              	USBH_HandleSof:
  27              	.LVL0:
  28              	.LFB159:
   1:Middlewares/ST/STM32_USB_Host_Library/Core/Src/usbh_core.c **** /**
   2:Middlewares/ST/STM32_USB_Host_Library/Core/Src/usbh_core.c ****   ******************************************************************************
   3:Middlewares/ST/STM32_USB_Host_Library/Core/Src/usbh_core.c ****   * @file    usbh_core.c
   4:Middlewares/ST/STM32_USB_Host_Library/Core/Src/usbh_core.c ****   * @author  MCD Application Team
   5:Middlewares/ST/STM32_USB_Host_Library/Core/Src/usbh_core.c ****   * @brief   This file implements the functions for the core state machine process
   6:Middlewares/ST/STM32_USB_Host_Library/Core/Src/usbh_core.c ****   *          the enumeration and the control transfer process
   7:Middlewares/ST/STM32_USB_Host_Library/Core/Src/usbh_core.c ****   ******************************************************************************
   8:Middlewares/ST/STM32_USB_Host_Library/Core/Src/usbh_core.c ****   * @attention
   9:Middlewares/ST/STM32_USB_Host_Library/Core/Src/usbh_core.c ****   *
  10:Middlewares/ST/STM32_USB_Host_Library/Core/Src/usbh_core.c ****   * Copyright (c) 2015 STMicroelectronics.
  11:Middlewares/ST/STM32_USB_Host_Library/Core/Src/usbh_core.c ****   * All rights reserved.
  12:Middlewares/ST/STM32_USB_Host_Library/Core/Src/usbh_core.c ****   *
  13:Middlewares/ST/STM32_USB_Host_Library/Core/Src/usbh_core.c ****   * This software is licensed under terms that can be found in the LICENSE file
  14:Middlewares/ST/STM32_USB_Host_Library/Core/Src/usbh_core.c ****   * in the root directory of this software component.
  15:Middlewares/ST/STM32_USB_Host_Library/Core/Src/usbh_core.c ****   * If no LICENSE file comes with this software, it is provided AS-IS.
  16:Middlewares/ST/STM32_USB_Host_Library/Core/Src/usbh_core.c ****   *
  17:Middlewares/ST/STM32_USB_Host_Library/Core/Src/usbh_core.c ****   ******************************************************************************
  18:Middlewares/ST/STM32_USB_Host_Library/Core/Src/usbh_core.c ****   */
  19:Middlewares/ST/STM32_USB_Host_Library/Core/Src/usbh_core.c **** 
  20:Middlewares/ST/STM32_USB_Host_Library/Core/Src/usbh_core.c **** /* Includes ------------------------------------------------------------------*/
  21:Middlewares/ST/STM32_USB_Host_Library/Core/Src/usbh_core.c **** #include "usbh_core.h"
  22:Middlewares/ST/STM32_USB_Host_Library/Core/Src/usbh_core.c **** 
  23:Middlewares/ST/STM32_USB_Host_Library/Core/Src/usbh_core.c **** 
  24:Middlewares/ST/STM32_USB_Host_Library/Core/Src/usbh_core.c **** /** @addtogroup USBH_LIB
  25:Middlewares/ST/STM32_USB_Host_Library/Core/Src/usbh_core.c ****   * @{
  26:Middlewares/ST/STM32_USB_Host_Library/Core/Src/usbh_core.c ****   */
  27:Middlewares/ST/STM32_USB_Host_Library/Core/Src/usbh_core.c **** 
  28:Middlewares/ST/STM32_USB_Host_Library/Core/Src/usbh_core.c **** /** @addtogroup USBH_LIB_CORE
  29:Middlewares/ST/STM32_USB_Host_Library/Core/Src/usbh_core.c ****   * @{
  30:Middlewares/ST/STM32_USB_Host_Library/Core/Src/usbh_core.c ****   */
ARM GAS  /tmp/ccDyhIXb.s 			page 2


  31:Middlewares/ST/STM32_USB_Host_Library/Core/Src/usbh_core.c **** 
  32:Middlewares/ST/STM32_USB_Host_Library/Core/Src/usbh_core.c **** /** @defgroup USBH_CORE
  33:Middlewares/ST/STM32_USB_Host_Library/Core/Src/usbh_core.c ****   * @brief This file handles the basic enumeration when a device is connected
  34:Middlewares/ST/STM32_USB_Host_Library/Core/Src/usbh_core.c ****   *          to the host.
  35:Middlewares/ST/STM32_USB_Host_Library/Core/Src/usbh_core.c ****   * @{
  36:Middlewares/ST/STM32_USB_Host_Library/Core/Src/usbh_core.c ****   */
  37:Middlewares/ST/STM32_USB_Host_Library/Core/Src/usbh_core.c **** 
  38:Middlewares/ST/STM32_USB_Host_Library/Core/Src/usbh_core.c **** 
  39:Middlewares/ST/STM32_USB_Host_Library/Core/Src/usbh_core.c **** /** @defgroup USBH_CORE_Private_Defines
  40:Middlewares/ST/STM32_USB_Host_Library/Core/Src/usbh_core.c ****   * @{
  41:Middlewares/ST/STM32_USB_Host_Library/Core/Src/usbh_core.c ****   */
  42:Middlewares/ST/STM32_USB_Host_Library/Core/Src/usbh_core.c **** #define USBH_ADDRESS_DEFAULT                     0x00U
  43:Middlewares/ST/STM32_USB_Host_Library/Core/Src/usbh_core.c **** #define USBH_ADDRESS_ASSIGNED                    0x01U
  44:Middlewares/ST/STM32_USB_Host_Library/Core/Src/usbh_core.c **** #define USBH_MPS_DEFAULT                         0x40U
  45:Middlewares/ST/STM32_USB_Host_Library/Core/Src/usbh_core.c **** /**
  46:Middlewares/ST/STM32_USB_Host_Library/Core/Src/usbh_core.c ****   * @}
  47:Middlewares/ST/STM32_USB_Host_Library/Core/Src/usbh_core.c ****   */
  48:Middlewares/ST/STM32_USB_Host_Library/Core/Src/usbh_core.c **** 
  49:Middlewares/ST/STM32_USB_Host_Library/Core/Src/usbh_core.c **** /** @defgroup USBH_CORE_Private_Macros
  50:Middlewares/ST/STM32_USB_Host_Library/Core/Src/usbh_core.c ****   * @{
  51:Middlewares/ST/STM32_USB_Host_Library/Core/Src/usbh_core.c ****   */
  52:Middlewares/ST/STM32_USB_Host_Library/Core/Src/usbh_core.c **** /**
  53:Middlewares/ST/STM32_USB_Host_Library/Core/Src/usbh_core.c ****   * @}
  54:Middlewares/ST/STM32_USB_Host_Library/Core/Src/usbh_core.c ****   */
  55:Middlewares/ST/STM32_USB_Host_Library/Core/Src/usbh_core.c **** 
  56:Middlewares/ST/STM32_USB_Host_Library/Core/Src/usbh_core.c **** 
  57:Middlewares/ST/STM32_USB_Host_Library/Core/Src/usbh_core.c **** /** @defgroup USBH_CORE_Private_Variables
  58:Middlewares/ST/STM32_USB_Host_Library/Core/Src/usbh_core.c ****   * @{
  59:Middlewares/ST/STM32_USB_Host_Library/Core/Src/usbh_core.c ****   */
  60:Middlewares/ST/STM32_USB_Host_Library/Core/Src/usbh_core.c **** #if (USBH_USE_OS == 1U)
  61:Middlewares/ST/STM32_USB_Host_Library/Core/Src/usbh_core.c **** #if (osCMSIS >= 0x20000U)
  62:Middlewares/ST/STM32_USB_Host_Library/Core/Src/usbh_core.c **** osThreadAttr_t USBH_Thread_Atrr;
  63:Middlewares/ST/STM32_USB_Host_Library/Core/Src/usbh_core.c **** #endif
  64:Middlewares/ST/STM32_USB_Host_Library/Core/Src/usbh_core.c **** #endif /* (USBH_USE_OS == 1U) */
  65:Middlewares/ST/STM32_USB_Host_Library/Core/Src/usbh_core.c **** 
  66:Middlewares/ST/STM32_USB_Host_Library/Core/Src/usbh_core.c **** 
  67:Middlewares/ST/STM32_USB_Host_Library/Core/Src/usbh_core.c **** /**
  68:Middlewares/ST/STM32_USB_Host_Library/Core/Src/usbh_core.c ****   * @}
  69:Middlewares/ST/STM32_USB_Host_Library/Core/Src/usbh_core.c ****   */
  70:Middlewares/ST/STM32_USB_Host_Library/Core/Src/usbh_core.c **** 
  71:Middlewares/ST/STM32_USB_Host_Library/Core/Src/usbh_core.c **** 
  72:Middlewares/ST/STM32_USB_Host_Library/Core/Src/usbh_core.c **** /** @defgroup USBH_CORE_Private_Functions
  73:Middlewares/ST/STM32_USB_Host_Library/Core/Src/usbh_core.c ****   * @{
  74:Middlewares/ST/STM32_USB_Host_Library/Core/Src/usbh_core.c ****   */
  75:Middlewares/ST/STM32_USB_Host_Library/Core/Src/usbh_core.c **** static USBH_StatusTypeDef USBH_HandleEnum(USBH_HandleTypeDef *phost);
  76:Middlewares/ST/STM32_USB_Host_Library/Core/Src/usbh_core.c **** static void USBH_HandleSof(USBH_HandleTypeDef *phost);
  77:Middlewares/ST/STM32_USB_Host_Library/Core/Src/usbh_core.c **** static USBH_StatusTypeDef DeInitStateMachine(USBH_HandleTypeDef *phost);
  78:Middlewares/ST/STM32_USB_Host_Library/Core/Src/usbh_core.c **** 
  79:Middlewares/ST/STM32_USB_Host_Library/Core/Src/usbh_core.c **** #if (USBH_USE_OS == 1U)
  80:Middlewares/ST/STM32_USB_Host_Library/Core/Src/usbh_core.c **** #if (osCMSIS < 0x20000U)
  81:Middlewares/ST/STM32_USB_Host_Library/Core/Src/usbh_core.c **** static void USBH_Process_OS(void const *argument);
  82:Middlewares/ST/STM32_USB_Host_Library/Core/Src/usbh_core.c **** #else
  83:Middlewares/ST/STM32_USB_Host_Library/Core/Src/usbh_core.c **** static void USBH_Process_OS(void *argument);
  84:Middlewares/ST/STM32_USB_Host_Library/Core/Src/usbh_core.c **** #endif /* (osCMSIS < 0x20000U) */
  85:Middlewares/ST/STM32_USB_Host_Library/Core/Src/usbh_core.c **** #endif /* (USBH_USE_OS == 1U) */
  86:Middlewares/ST/STM32_USB_Host_Library/Core/Src/usbh_core.c **** 
  87:Middlewares/ST/STM32_USB_Host_Library/Core/Src/usbh_core.c **** 
ARM GAS  /tmp/ccDyhIXb.s 			page 3


  88:Middlewares/ST/STM32_USB_Host_Library/Core/Src/usbh_core.c **** /**
  89:Middlewares/ST/STM32_USB_Host_Library/Core/Src/usbh_core.c ****   * @brief  HCD_Init
  90:Middlewares/ST/STM32_USB_Host_Library/Core/Src/usbh_core.c ****   *         Initialize the HOST Core.
  91:Middlewares/ST/STM32_USB_Host_Library/Core/Src/usbh_core.c ****   * @param  phost: Host Handle
  92:Middlewares/ST/STM32_USB_Host_Library/Core/Src/usbh_core.c ****   * @param  pUsrFunc: User Callback
  93:Middlewares/ST/STM32_USB_Host_Library/Core/Src/usbh_core.c ****   * @retval USBH Status
  94:Middlewares/ST/STM32_USB_Host_Library/Core/Src/usbh_core.c ****   */
  95:Middlewares/ST/STM32_USB_Host_Library/Core/Src/usbh_core.c **** USBH_StatusTypeDef USBH_Init(USBH_HandleTypeDef *phost,
  96:Middlewares/ST/STM32_USB_Host_Library/Core/Src/usbh_core.c ****                              void (*pUsrFunc)(USBH_HandleTypeDef *phost,
  97:Middlewares/ST/STM32_USB_Host_Library/Core/Src/usbh_core.c ****                                               uint8_t id), uint8_t id)
  98:Middlewares/ST/STM32_USB_Host_Library/Core/Src/usbh_core.c **** {
  99:Middlewares/ST/STM32_USB_Host_Library/Core/Src/usbh_core.c ****   /* Check whether the USB Host handle is valid */
 100:Middlewares/ST/STM32_USB_Host_Library/Core/Src/usbh_core.c ****   if (phost == NULL)
 101:Middlewares/ST/STM32_USB_Host_Library/Core/Src/usbh_core.c ****   {
 102:Middlewares/ST/STM32_USB_Host_Library/Core/Src/usbh_core.c ****     USBH_ErrLog("Invalid Host handle");
 103:Middlewares/ST/STM32_USB_Host_Library/Core/Src/usbh_core.c ****     return USBH_FAIL;
 104:Middlewares/ST/STM32_USB_Host_Library/Core/Src/usbh_core.c ****   }
 105:Middlewares/ST/STM32_USB_Host_Library/Core/Src/usbh_core.c **** 
 106:Middlewares/ST/STM32_USB_Host_Library/Core/Src/usbh_core.c ****   /* Set DRiver ID */
 107:Middlewares/ST/STM32_USB_Host_Library/Core/Src/usbh_core.c ****   phost->id = id;
 108:Middlewares/ST/STM32_USB_Host_Library/Core/Src/usbh_core.c **** 
 109:Middlewares/ST/STM32_USB_Host_Library/Core/Src/usbh_core.c ****   /* Unlink class*/
 110:Middlewares/ST/STM32_USB_Host_Library/Core/Src/usbh_core.c ****   phost->pActiveClass = NULL;
 111:Middlewares/ST/STM32_USB_Host_Library/Core/Src/usbh_core.c ****   phost->ClassNumber = 0U;
 112:Middlewares/ST/STM32_USB_Host_Library/Core/Src/usbh_core.c **** 
 113:Middlewares/ST/STM32_USB_Host_Library/Core/Src/usbh_core.c ****   /* Restore default states and prepare EP0 */
 114:Middlewares/ST/STM32_USB_Host_Library/Core/Src/usbh_core.c ****   (void)DeInitStateMachine(phost);
 115:Middlewares/ST/STM32_USB_Host_Library/Core/Src/usbh_core.c **** 
 116:Middlewares/ST/STM32_USB_Host_Library/Core/Src/usbh_core.c ****   /* Restore default Device connection states */
 117:Middlewares/ST/STM32_USB_Host_Library/Core/Src/usbh_core.c ****   phost->device.PortEnabled = 0U;
 118:Middlewares/ST/STM32_USB_Host_Library/Core/Src/usbh_core.c ****   phost->device.is_connected = 0U;
 119:Middlewares/ST/STM32_USB_Host_Library/Core/Src/usbh_core.c ****   phost->device.is_disconnected = 0U;
 120:Middlewares/ST/STM32_USB_Host_Library/Core/Src/usbh_core.c ****   phost->device.is_ReEnumerated = 0U;
 121:Middlewares/ST/STM32_USB_Host_Library/Core/Src/usbh_core.c **** 
 122:Middlewares/ST/STM32_USB_Host_Library/Core/Src/usbh_core.c ****   /* Assign User process */
 123:Middlewares/ST/STM32_USB_Host_Library/Core/Src/usbh_core.c ****   if (pUsrFunc != NULL)
 124:Middlewares/ST/STM32_USB_Host_Library/Core/Src/usbh_core.c ****   {
 125:Middlewares/ST/STM32_USB_Host_Library/Core/Src/usbh_core.c ****     phost->pUser = pUsrFunc;
 126:Middlewares/ST/STM32_USB_Host_Library/Core/Src/usbh_core.c ****   }
 127:Middlewares/ST/STM32_USB_Host_Library/Core/Src/usbh_core.c **** 
 128:Middlewares/ST/STM32_USB_Host_Library/Core/Src/usbh_core.c **** #if (USBH_USE_OS == 1U)
 129:Middlewares/ST/STM32_USB_Host_Library/Core/Src/usbh_core.c **** #if (osCMSIS < 0x20000U)
 130:Middlewares/ST/STM32_USB_Host_Library/Core/Src/usbh_core.c **** 
 131:Middlewares/ST/STM32_USB_Host_Library/Core/Src/usbh_core.c ****   /* Create USB Host Queue */
 132:Middlewares/ST/STM32_USB_Host_Library/Core/Src/usbh_core.c ****   osMessageQDef(USBH_Queue, MSGQUEUE_OBJECTS, uint16_t);
 133:Middlewares/ST/STM32_USB_Host_Library/Core/Src/usbh_core.c ****   phost->os_event = osMessageCreate(osMessageQ(USBH_Queue), NULL);
 134:Middlewares/ST/STM32_USB_Host_Library/Core/Src/usbh_core.c **** 
 135:Middlewares/ST/STM32_USB_Host_Library/Core/Src/usbh_core.c ****   /* Create USB Host Task */
 136:Middlewares/ST/STM32_USB_Host_Library/Core/Src/usbh_core.c **** #if defined (USBH_PROCESS_STACK_SIZE)
 137:Middlewares/ST/STM32_USB_Host_Library/Core/Src/usbh_core.c ****   osThreadDef(USBH_Thread, USBH_Process_OS, USBH_PROCESS_PRIO, 0U, USBH_PROCESS_STACK_SIZE);
 138:Middlewares/ST/STM32_USB_Host_Library/Core/Src/usbh_core.c **** #else
 139:Middlewares/ST/STM32_USB_Host_Library/Core/Src/usbh_core.c ****   osThreadDef(USBH_Thread, USBH_Process_OS, USBH_PROCESS_PRIO, 0U, 8U * configMINIMAL_STACK_SIZE);
 140:Middlewares/ST/STM32_USB_Host_Library/Core/Src/usbh_core.c **** #endif /* defined (USBH_PROCESS_STACK_SIZE) */
 141:Middlewares/ST/STM32_USB_Host_Library/Core/Src/usbh_core.c **** 
 142:Middlewares/ST/STM32_USB_Host_Library/Core/Src/usbh_core.c ****   phost->thread = osThreadCreate(osThread(USBH_Thread), phost);
 143:Middlewares/ST/STM32_USB_Host_Library/Core/Src/usbh_core.c **** 
 144:Middlewares/ST/STM32_USB_Host_Library/Core/Src/usbh_core.c **** #else
ARM GAS  /tmp/ccDyhIXb.s 			page 4


 145:Middlewares/ST/STM32_USB_Host_Library/Core/Src/usbh_core.c **** 
 146:Middlewares/ST/STM32_USB_Host_Library/Core/Src/usbh_core.c ****   /* Create USB Host Queue */
 147:Middlewares/ST/STM32_USB_Host_Library/Core/Src/usbh_core.c ****   phost->os_event = osMessageQueueNew(MSGQUEUE_OBJECTS, sizeof(uint32_t), NULL);
 148:Middlewares/ST/STM32_USB_Host_Library/Core/Src/usbh_core.c **** 
 149:Middlewares/ST/STM32_USB_Host_Library/Core/Src/usbh_core.c ****   /* Create USB Host Task */
 150:Middlewares/ST/STM32_USB_Host_Library/Core/Src/usbh_core.c ****   USBH_Thread_Atrr.name = "USBH_Queue";
 151:Middlewares/ST/STM32_USB_Host_Library/Core/Src/usbh_core.c **** 
 152:Middlewares/ST/STM32_USB_Host_Library/Core/Src/usbh_core.c **** #if defined (USBH_PROCESS_STACK_SIZE)
 153:Middlewares/ST/STM32_USB_Host_Library/Core/Src/usbh_core.c ****   USBH_Thread_Atrr.stack_size = USBH_PROCESS_STACK_SIZE;
 154:Middlewares/ST/STM32_USB_Host_Library/Core/Src/usbh_core.c **** #else
 155:Middlewares/ST/STM32_USB_Host_Library/Core/Src/usbh_core.c ****   USBH_Thread_Atrr.stack_size = (8U * configMINIMAL_STACK_SIZE);
 156:Middlewares/ST/STM32_USB_Host_Library/Core/Src/usbh_core.c **** #endif /* defined (USBH_PROCESS_STACK_SIZE) */
 157:Middlewares/ST/STM32_USB_Host_Library/Core/Src/usbh_core.c **** 
 158:Middlewares/ST/STM32_USB_Host_Library/Core/Src/usbh_core.c ****   USBH_Thread_Atrr.priority = USBH_PROCESS_PRIO;
 159:Middlewares/ST/STM32_USB_Host_Library/Core/Src/usbh_core.c ****   phost->thread = osThreadNew(USBH_Process_OS, phost, &USBH_Thread_Atrr);
 160:Middlewares/ST/STM32_USB_Host_Library/Core/Src/usbh_core.c **** 
 161:Middlewares/ST/STM32_USB_Host_Library/Core/Src/usbh_core.c **** #endif /* (osCMSIS < 0x20000U) */
 162:Middlewares/ST/STM32_USB_Host_Library/Core/Src/usbh_core.c **** #endif /* (USBH_USE_OS == 1U) */
 163:Middlewares/ST/STM32_USB_Host_Library/Core/Src/usbh_core.c **** 
 164:Middlewares/ST/STM32_USB_Host_Library/Core/Src/usbh_core.c ****   /* Initialize low level driver */
 165:Middlewares/ST/STM32_USB_Host_Library/Core/Src/usbh_core.c ****   (void)USBH_LL_Init(phost);
 166:Middlewares/ST/STM32_USB_Host_Library/Core/Src/usbh_core.c **** 
 167:Middlewares/ST/STM32_USB_Host_Library/Core/Src/usbh_core.c ****   return USBH_OK;
 168:Middlewares/ST/STM32_USB_Host_Library/Core/Src/usbh_core.c **** }
 169:Middlewares/ST/STM32_USB_Host_Library/Core/Src/usbh_core.c **** 
 170:Middlewares/ST/STM32_USB_Host_Library/Core/Src/usbh_core.c **** 
 171:Middlewares/ST/STM32_USB_Host_Library/Core/Src/usbh_core.c **** /**
 172:Middlewares/ST/STM32_USB_Host_Library/Core/Src/usbh_core.c ****   * @brief  HCD_Init
 173:Middlewares/ST/STM32_USB_Host_Library/Core/Src/usbh_core.c ****   *         De-Initialize the Host portion of the driver.
 174:Middlewares/ST/STM32_USB_Host_Library/Core/Src/usbh_core.c ****   * @param  phost: Host Handle
 175:Middlewares/ST/STM32_USB_Host_Library/Core/Src/usbh_core.c ****   * @retval USBH Status
 176:Middlewares/ST/STM32_USB_Host_Library/Core/Src/usbh_core.c ****   */
 177:Middlewares/ST/STM32_USB_Host_Library/Core/Src/usbh_core.c **** USBH_StatusTypeDef USBH_DeInit(USBH_HandleTypeDef *phost)
 178:Middlewares/ST/STM32_USB_Host_Library/Core/Src/usbh_core.c **** {
 179:Middlewares/ST/STM32_USB_Host_Library/Core/Src/usbh_core.c ****   (void)DeInitStateMachine(phost);
 180:Middlewares/ST/STM32_USB_Host_Library/Core/Src/usbh_core.c **** 
 181:Middlewares/ST/STM32_USB_Host_Library/Core/Src/usbh_core.c ****   /* Restore default Device connection states */
 182:Middlewares/ST/STM32_USB_Host_Library/Core/Src/usbh_core.c ****   phost->device.PortEnabled = 0U;
 183:Middlewares/ST/STM32_USB_Host_Library/Core/Src/usbh_core.c ****   phost->device.is_connected = 0U;
 184:Middlewares/ST/STM32_USB_Host_Library/Core/Src/usbh_core.c ****   phost->device.is_disconnected = 0U;
 185:Middlewares/ST/STM32_USB_Host_Library/Core/Src/usbh_core.c ****   phost->device.is_ReEnumerated = 0U;
 186:Middlewares/ST/STM32_USB_Host_Library/Core/Src/usbh_core.c ****   phost->device.RstCnt = 0U;
 187:Middlewares/ST/STM32_USB_Host_Library/Core/Src/usbh_core.c ****   phost->device.EnumCnt = 0U;
 188:Middlewares/ST/STM32_USB_Host_Library/Core/Src/usbh_core.c **** 
 189:Middlewares/ST/STM32_USB_Host_Library/Core/Src/usbh_core.c ****   if (phost->pData != NULL)
 190:Middlewares/ST/STM32_USB_Host_Library/Core/Src/usbh_core.c ****   {
 191:Middlewares/ST/STM32_USB_Host_Library/Core/Src/usbh_core.c ****     (void)USBH_LL_Stop(phost);
 192:Middlewares/ST/STM32_USB_Host_Library/Core/Src/usbh_core.c ****   }
 193:Middlewares/ST/STM32_USB_Host_Library/Core/Src/usbh_core.c **** 
 194:Middlewares/ST/STM32_USB_Host_Library/Core/Src/usbh_core.c **** #if (USBH_USE_OS == 1U)
 195:Middlewares/ST/STM32_USB_Host_Library/Core/Src/usbh_core.c **** #if (osCMSIS < 0x20000U)
 196:Middlewares/ST/STM32_USB_Host_Library/Core/Src/usbh_core.c **** 
 197:Middlewares/ST/STM32_USB_Host_Library/Core/Src/usbh_core.c ****   /* Free allocated resource for USBH process */
 198:Middlewares/ST/STM32_USB_Host_Library/Core/Src/usbh_core.c ****   (void)osThreadTerminate(phost->thread);
 199:Middlewares/ST/STM32_USB_Host_Library/Core/Src/usbh_core.c ****   (void)osMessageDelete(phost->os_event);
 200:Middlewares/ST/STM32_USB_Host_Library/Core/Src/usbh_core.c **** 
 201:Middlewares/ST/STM32_USB_Host_Library/Core/Src/usbh_core.c **** #else
ARM GAS  /tmp/ccDyhIXb.s 			page 5


 202:Middlewares/ST/STM32_USB_Host_Library/Core/Src/usbh_core.c **** 
 203:Middlewares/ST/STM32_USB_Host_Library/Core/Src/usbh_core.c ****   /* Free allocated resource for USBH process */
 204:Middlewares/ST/STM32_USB_Host_Library/Core/Src/usbh_core.c ****   (void)osThreadTerminate(phost->thread);
 205:Middlewares/ST/STM32_USB_Host_Library/Core/Src/usbh_core.c ****   (void)osMessageQueueDelete(phost->os_event);
 206:Middlewares/ST/STM32_USB_Host_Library/Core/Src/usbh_core.c **** 
 207:Middlewares/ST/STM32_USB_Host_Library/Core/Src/usbh_core.c **** #endif /* (osCMSIS < 0x20000U) */
 208:Middlewares/ST/STM32_USB_Host_Library/Core/Src/usbh_core.c **** #endif /* (USBH_USE_OS == 1U) */
 209:Middlewares/ST/STM32_USB_Host_Library/Core/Src/usbh_core.c **** 
 210:Middlewares/ST/STM32_USB_Host_Library/Core/Src/usbh_core.c ****   return USBH_OK;
 211:Middlewares/ST/STM32_USB_Host_Library/Core/Src/usbh_core.c **** }
 212:Middlewares/ST/STM32_USB_Host_Library/Core/Src/usbh_core.c **** 
 213:Middlewares/ST/STM32_USB_Host_Library/Core/Src/usbh_core.c **** 
 214:Middlewares/ST/STM32_USB_Host_Library/Core/Src/usbh_core.c **** /**
 215:Middlewares/ST/STM32_USB_Host_Library/Core/Src/usbh_core.c ****   * @brief  DeInitStateMachine
 216:Middlewares/ST/STM32_USB_Host_Library/Core/Src/usbh_core.c ****   *         De-Initialize the Host state machine.
 217:Middlewares/ST/STM32_USB_Host_Library/Core/Src/usbh_core.c ****   * @param  phost: Host Handle
 218:Middlewares/ST/STM32_USB_Host_Library/Core/Src/usbh_core.c ****   * @retval USBH Status
 219:Middlewares/ST/STM32_USB_Host_Library/Core/Src/usbh_core.c ****   */
 220:Middlewares/ST/STM32_USB_Host_Library/Core/Src/usbh_core.c **** static USBH_StatusTypeDef DeInitStateMachine(USBH_HandleTypeDef *phost)
 221:Middlewares/ST/STM32_USB_Host_Library/Core/Src/usbh_core.c **** {
 222:Middlewares/ST/STM32_USB_Host_Library/Core/Src/usbh_core.c ****   uint32_t i;
 223:Middlewares/ST/STM32_USB_Host_Library/Core/Src/usbh_core.c **** 
 224:Middlewares/ST/STM32_USB_Host_Library/Core/Src/usbh_core.c ****   /* Clear Pipes flags*/
 225:Middlewares/ST/STM32_USB_Host_Library/Core/Src/usbh_core.c ****   for (i = 0U; i < USBH_MAX_PIPES_NBR; i++)
 226:Middlewares/ST/STM32_USB_Host_Library/Core/Src/usbh_core.c ****   {
 227:Middlewares/ST/STM32_USB_Host_Library/Core/Src/usbh_core.c ****     phost->Pipes[i] = 0U;
 228:Middlewares/ST/STM32_USB_Host_Library/Core/Src/usbh_core.c ****   }
 229:Middlewares/ST/STM32_USB_Host_Library/Core/Src/usbh_core.c **** 
 230:Middlewares/ST/STM32_USB_Host_Library/Core/Src/usbh_core.c ****   for (i = 0U; i < USBH_MAX_DATA_BUFFER; i++)
 231:Middlewares/ST/STM32_USB_Host_Library/Core/Src/usbh_core.c ****   {
 232:Middlewares/ST/STM32_USB_Host_Library/Core/Src/usbh_core.c ****     phost->device.Data[i] = 0U;
 233:Middlewares/ST/STM32_USB_Host_Library/Core/Src/usbh_core.c ****   }
 234:Middlewares/ST/STM32_USB_Host_Library/Core/Src/usbh_core.c **** 
 235:Middlewares/ST/STM32_USB_Host_Library/Core/Src/usbh_core.c ****   phost->gState = HOST_IDLE;
 236:Middlewares/ST/STM32_USB_Host_Library/Core/Src/usbh_core.c ****   phost->EnumState = ENUM_IDLE;
 237:Middlewares/ST/STM32_USB_Host_Library/Core/Src/usbh_core.c ****   phost->RequestState = CMD_SEND;
 238:Middlewares/ST/STM32_USB_Host_Library/Core/Src/usbh_core.c ****   phost->Timer = 0U;
 239:Middlewares/ST/STM32_USB_Host_Library/Core/Src/usbh_core.c **** 
 240:Middlewares/ST/STM32_USB_Host_Library/Core/Src/usbh_core.c ****   phost->Control.state = CTRL_SETUP;
 241:Middlewares/ST/STM32_USB_Host_Library/Core/Src/usbh_core.c ****   phost->Control.pipe_size = USBH_MPS_DEFAULT;
 242:Middlewares/ST/STM32_USB_Host_Library/Core/Src/usbh_core.c ****   phost->Control.errorcount = 0U;
 243:Middlewares/ST/STM32_USB_Host_Library/Core/Src/usbh_core.c **** 
 244:Middlewares/ST/STM32_USB_Host_Library/Core/Src/usbh_core.c ****   phost->device.address = USBH_ADDRESS_DEFAULT;
 245:Middlewares/ST/STM32_USB_Host_Library/Core/Src/usbh_core.c ****   phost->device.speed = (uint8_t)USBH_SPEED_FULL;
 246:Middlewares/ST/STM32_USB_Host_Library/Core/Src/usbh_core.c ****   phost->device.RstCnt = 0U;
 247:Middlewares/ST/STM32_USB_Host_Library/Core/Src/usbh_core.c ****   phost->device.EnumCnt = 0U;
 248:Middlewares/ST/STM32_USB_Host_Library/Core/Src/usbh_core.c **** 
 249:Middlewares/ST/STM32_USB_Host_Library/Core/Src/usbh_core.c ****   /* Reset the device struct */
 250:Middlewares/ST/STM32_USB_Host_Library/Core/Src/usbh_core.c ****   USBH_memset(&phost->device.CfgDesc_Raw, 0, sizeof(phost->device.CfgDesc_Raw));
 251:Middlewares/ST/STM32_USB_Host_Library/Core/Src/usbh_core.c ****   USBH_memset(&phost->device.Data, 0, sizeof(phost->device.Data));
 252:Middlewares/ST/STM32_USB_Host_Library/Core/Src/usbh_core.c ****   USBH_memset(&phost->device.DevDesc, 0, sizeof(phost->device.DevDesc));
 253:Middlewares/ST/STM32_USB_Host_Library/Core/Src/usbh_core.c ****   USBH_memset(&phost->device.CfgDesc, 0, sizeof(phost->device.CfgDesc));
 254:Middlewares/ST/STM32_USB_Host_Library/Core/Src/usbh_core.c **** 
 255:Middlewares/ST/STM32_USB_Host_Library/Core/Src/usbh_core.c ****   return USBH_OK;
 256:Middlewares/ST/STM32_USB_Host_Library/Core/Src/usbh_core.c **** }
 257:Middlewares/ST/STM32_USB_Host_Library/Core/Src/usbh_core.c **** 
 258:Middlewares/ST/STM32_USB_Host_Library/Core/Src/usbh_core.c **** 
ARM GAS  /tmp/ccDyhIXb.s 			page 6


 259:Middlewares/ST/STM32_USB_Host_Library/Core/Src/usbh_core.c **** /**
 260:Middlewares/ST/STM32_USB_Host_Library/Core/Src/usbh_core.c ****   * @brief  USBH_RegisterClass
 261:Middlewares/ST/STM32_USB_Host_Library/Core/Src/usbh_core.c ****   *         Link class driver to Host Core.
 262:Middlewares/ST/STM32_USB_Host_Library/Core/Src/usbh_core.c ****   * @param  phost : Host Handle
 263:Middlewares/ST/STM32_USB_Host_Library/Core/Src/usbh_core.c ****   * @param  pclass: Class handle
 264:Middlewares/ST/STM32_USB_Host_Library/Core/Src/usbh_core.c ****   * @retval USBH Status
 265:Middlewares/ST/STM32_USB_Host_Library/Core/Src/usbh_core.c ****   */
 266:Middlewares/ST/STM32_USB_Host_Library/Core/Src/usbh_core.c **** USBH_StatusTypeDef USBH_RegisterClass(USBH_HandleTypeDef *phost, USBH_ClassTypeDef *pclass)
 267:Middlewares/ST/STM32_USB_Host_Library/Core/Src/usbh_core.c **** {
 268:Middlewares/ST/STM32_USB_Host_Library/Core/Src/usbh_core.c ****   USBH_StatusTypeDef status = USBH_OK;
 269:Middlewares/ST/STM32_USB_Host_Library/Core/Src/usbh_core.c **** 
 270:Middlewares/ST/STM32_USB_Host_Library/Core/Src/usbh_core.c ****   if (pclass != NULL)
 271:Middlewares/ST/STM32_USB_Host_Library/Core/Src/usbh_core.c ****   {
 272:Middlewares/ST/STM32_USB_Host_Library/Core/Src/usbh_core.c ****     if (phost->ClassNumber < USBH_MAX_NUM_SUPPORTED_CLASS)
 273:Middlewares/ST/STM32_USB_Host_Library/Core/Src/usbh_core.c ****     {
 274:Middlewares/ST/STM32_USB_Host_Library/Core/Src/usbh_core.c ****       /* link the class to the USB Host handle */
 275:Middlewares/ST/STM32_USB_Host_Library/Core/Src/usbh_core.c ****       phost->pClass[phost->ClassNumber++] = pclass;
 276:Middlewares/ST/STM32_USB_Host_Library/Core/Src/usbh_core.c ****       status = USBH_OK;
 277:Middlewares/ST/STM32_USB_Host_Library/Core/Src/usbh_core.c ****     }
 278:Middlewares/ST/STM32_USB_Host_Library/Core/Src/usbh_core.c ****     else
 279:Middlewares/ST/STM32_USB_Host_Library/Core/Src/usbh_core.c ****     {
 280:Middlewares/ST/STM32_USB_Host_Library/Core/Src/usbh_core.c ****       USBH_ErrLog("Max Class Number reached");
 281:Middlewares/ST/STM32_USB_Host_Library/Core/Src/usbh_core.c ****       status = USBH_FAIL;
 282:Middlewares/ST/STM32_USB_Host_Library/Core/Src/usbh_core.c ****     }
 283:Middlewares/ST/STM32_USB_Host_Library/Core/Src/usbh_core.c ****   }
 284:Middlewares/ST/STM32_USB_Host_Library/Core/Src/usbh_core.c ****   else
 285:Middlewares/ST/STM32_USB_Host_Library/Core/Src/usbh_core.c ****   {
 286:Middlewares/ST/STM32_USB_Host_Library/Core/Src/usbh_core.c ****     USBH_ErrLog("Invalid Class handle");
 287:Middlewares/ST/STM32_USB_Host_Library/Core/Src/usbh_core.c ****     status = USBH_FAIL;
 288:Middlewares/ST/STM32_USB_Host_Library/Core/Src/usbh_core.c ****   }
 289:Middlewares/ST/STM32_USB_Host_Library/Core/Src/usbh_core.c **** 
 290:Middlewares/ST/STM32_USB_Host_Library/Core/Src/usbh_core.c ****   return status;
 291:Middlewares/ST/STM32_USB_Host_Library/Core/Src/usbh_core.c **** }
 292:Middlewares/ST/STM32_USB_Host_Library/Core/Src/usbh_core.c **** 
 293:Middlewares/ST/STM32_USB_Host_Library/Core/Src/usbh_core.c **** 
 294:Middlewares/ST/STM32_USB_Host_Library/Core/Src/usbh_core.c **** /**
 295:Middlewares/ST/STM32_USB_Host_Library/Core/Src/usbh_core.c ****   * @brief  USBH_SelectInterface
 296:Middlewares/ST/STM32_USB_Host_Library/Core/Src/usbh_core.c ****   *         Select current interface.
 297:Middlewares/ST/STM32_USB_Host_Library/Core/Src/usbh_core.c ****   * @param  phost: Host Handle
 298:Middlewares/ST/STM32_USB_Host_Library/Core/Src/usbh_core.c ****   * @param  interface: Interface number
 299:Middlewares/ST/STM32_USB_Host_Library/Core/Src/usbh_core.c ****   * @retval USBH Status
 300:Middlewares/ST/STM32_USB_Host_Library/Core/Src/usbh_core.c ****   */
 301:Middlewares/ST/STM32_USB_Host_Library/Core/Src/usbh_core.c **** USBH_StatusTypeDef USBH_SelectInterface(USBH_HandleTypeDef *phost, uint8_t interface)
 302:Middlewares/ST/STM32_USB_Host_Library/Core/Src/usbh_core.c **** {
 303:Middlewares/ST/STM32_USB_Host_Library/Core/Src/usbh_core.c ****   USBH_StatusTypeDef status = USBH_OK;
 304:Middlewares/ST/STM32_USB_Host_Library/Core/Src/usbh_core.c **** 
 305:Middlewares/ST/STM32_USB_Host_Library/Core/Src/usbh_core.c ****   if (interface < phost->device.CfgDesc.bNumInterfaces)
 306:Middlewares/ST/STM32_USB_Host_Library/Core/Src/usbh_core.c ****   {
 307:Middlewares/ST/STM32_USB_Host_Library/Core/Src/usbh_core.c ****     phost->device.current_interface = interface;
 308:Middlewares/ST/STM32_USB_Host_Library/Core/Src/usbh_core.c ****     USBH_UsrLog("Switching to Interface (#%d)", interface);
 309:Middlewares/ST/STM32_USB_Host_Library/Core/Src/usbh_core.c ****     USBH_UsrLog("Class    : %xh", phost->device.CfgDesc.Itf_Desc[interface].bInterfaceClass);
 310:Middlewares/ST/STM32_USB_Host_Library/Core/Src/usbh_core.c ****     USBH_UsrLog("SubClass : %xh", phost->device.CfgDesc.Itf_Desc[interface].bInterfaceSubClass);
 311:Middlewares/ST/STM32_USB_Host_Library/Core/Src/usbh_core.c ****     USBH_UsrLog("Protocol : %xh", phost->device.CfgDesc.Itf_Desc[interface].bInterfaceProtocol);
 312:Middlewares/ST/STM32_USB_Host_Library/Core/Src/usbh_core.c ****   }
 313:Middlewares/ST/STM32_USB_Host_Library/Core/Src/usbh_core.c ****   else
 314:Middlewares/ST/STM32_USB_Host_Library/Core/Src/usbh_core.c ****   {
 315:Middlewares/ST/STM32_USB_Host_Library/Core/Src/usbh_core.c ****     USBH_ErrLog("Cannot Select This Interface.");
ARM GAS  /tmp/ccDyhIXb.s 			page 7


 316:Middlewares/ST/STM32_USB_Host_Library/Core/Src/usbh_core.c ****     status = USBH_FAIL;
 317:Middlewares/ST/STM32_USB_Host_Library/Core/Src/usbh_core.c ****   }
 318:Middlewares/ST/STM32_USB_Host_Library/Core/Src/usbh_core.c **** 
 319:Middlewares/ST/STM32_USB_Host_Library/Core/Src/usbh_core.c ****   return status;
 320:Middlewares/ST/STM32_USB_Host_Library/Core/Src/usbh_core.c **** }
 321:Middlewares/ST/STM32_USB_Host_Library/Core/Src/usbh_core.c **** 
 322:Middlewares/ST/STM32_USB_Host_Library/Core/Src/usbh_core.c **** 
 323:Middlewares/ST/STM32_USB_Host_Library/Core/Src/usbh_core.c **** /**
 324:Middlewares/ST/STM32_USB_Host_Library/Core/Src/usbh_core.c ****   * @brief  USBH_GetActiveClass
 325:Middlewares/ST/STM32_USB_Host_Library/Core/Src/usbh_core.c ****   *         Return Device Class.
 326:Middlewares/ST/STM32_USB_Host_Library/Core/Src/usbh_core.c ****   * @param  phost: Host Handle
 327:Middlewares/ST/STM32_USB_Host_Library/Core/Src/usbh_core.c ****   * @param  interface: Interface index
 328:Middlewares/ST/STM32_USB_Host_Library/Core/Src/usbh_core.c ****   * @retval Class Code
 329:Middlewares/ST/STM32_USB_Host_Library/Core/Src/usbh_core.c ****   */
 330:Middlewares/ST/STM32_USB_Host_Library/Core/Src/usbh_core.c **** uint8_t USBH_GetActiveClass(USBH_HandleTypeDef *phost)
 331:Middlewares/ST/STM32_USB_Host_Library/Core/Src/usbh_core.c **** {
 332:Middlewares/ST/STM32_USB_Host_Library/Core/Src/usbh_core.c ****   return (phost->device.CfgDesc.Itf_Desc[0].bInterfaceClass);
 333:Middlewares/ST/STM32_USB_Host_Library/Core/Src/usbh_core.c **** }
 334:Middlewares/ST/STM32_USB_Host_Library/Core/Src/usbh_core.c **** 
 335:Middlewares/ST/STM32_USB_Host_Library/Core/Src/usbh_core.c **** 
 336:Middlewares/ST/STM32_USB_Host_Library/Core/Src/usbh_core.c **** /**
 337:Middlewares/ST/STM32_USB_Host_Library/Core/Src/usbh_core.c ****   * @brief  USBH_FindInterface
 338:Middlewares/ST/STM32_USB_Host_Library/Core/Src/usbh_core.c ****   *         Find the interface index for a specific class.
 339:Middlewares/ST/STM32_USB_Host_Library/Core/Src/usbh_core.c ****   * @param  phost: Host Handle
 340:Middlewares/ST/STM32_USB_Host_Library/Core/Src/usbh_core.c ****   * @param  Class: Class code
 341:Middlewares/ST/STM32_USB_Host_Library/Core/Src/usbh_core.c ****   * @param  SubClass: SubClass code
 342:Middlewares/ST/STM32_USB_Host_Library/Core/Src/usbh_core.c ****   * @param  Protocol: Protocol code
 343:Middlewares/ST/STM32_USB_Host_Library/Core/Src/usbh_core.c ****   * @retval interface index in the configuration structure
 344:Middlewares/ST/STM32_USB_Host_Library/Core/Src/usbh_core.c ****   * @note : (1)interface index 0xFF means interface index not found
 345:Middlewares/ST/STM32_USB_Host_Library/Core/Src/usbh_core.c ****   */
 346:Middlewares/ST/STM32_USB_Host_Library/Core/Src/usbh_core.c **** uint8_t USBH_FindInterface(USBH_HandleTypeDef *phost, uint8_t Class, uint8_t SubClass, uint8_t Prot
 347:Middlewares/ST/STM32_USB_Host_Library/Core/Src/usbh_core.c **** {
 348:Middlewares/ST/STM32_USB_Host_Library/Core/Src/usbh_core.c ****   USBH_InterfaceDescTypeDef *pif;
 349:Middlewares/ST/STM32_USB_Host_Library/Core/Src/usbh_core.c ****   USBH_CfgDescTypeDef *pcfg;
 350:Middlewares/ST/STM32_USB_Host_Library/Core/Src/usbh_core.c ****   uint8_t if_ix = 0U;
 351:Middlewares/ST/STM32_USB_Host_Library/Core/Src/usbh_core.c **** 
 352:Middlewares/ST/STM32_USB_Host_Library/Core/Src/usbh_core.c ****   pif = (USBH_InterfaceDescTypeDef *)NULL;
 353:Middlewares/ST/STM32_USB_Host_Library/Core/Src/usbh_core.c ****   pcfg = &phost->device.CfgDesc;
 354:Middlewares/ST/STM32_USB_Host_Library/Core/Src/usbh_core.c **** 
 355:Middlewares/ST/STM32_USB_Host_Library/Core/Src/usbh_core.c ****   while (if_ix < USBH_MAX_NUM_INTERFACES)
 356:Middlewares/ST/STM32_USB_Host_Library/Core/Src/usbh_core.c ****   {
 357:Middlewares/ST/STM32_USB_Host_Library/Core/Src/usbh_core.c ****     pif = &pcfg->Itf_Desc[if_ix];
 358:Middlewares/ST/STM32_USB_Host_Library/Core/Src/usbh_core.c ****     if (((pif->bInterfaceClass == Class) || (Class == 0xFFU)) &&
 359:Middlewares/ST/STM32_USB_Host_Library/Core/Src/usbh_core.c ****         ((pif->bInterfaceSubClass == SubClass) || (SubClass == 0xFFU)) &&
 360:Middlewares/ST/STM32_USB_Host_Library/Core/Src/usbh_core.c ****         ((pif->bInterfaceProtocol == Protocol) || (Protocol == 0xFFU)))
 361:Middlewares/ST/STM32_USB_Host_Library/Core/Src/usbh_core.c ****     {
 362:Middlewares/ST/STM32_USB_Host_Library/Core/Src/usbh_core.c ****       return  if_ix;
 363:Middlewares/ST/STM32_USB_Host_Library/Core/Src/usbh_core.c ****     }
 364:Middlewares/ST/STM32_USB_Host_Library/Core/Src/usbh_core.c ****     if_ix++;
 365:Middlewares/ST/STM32_USB_Host_Library/Core/Src/usbh_core.c ****   }
 366:Middlewares/ST/STM32_USB_Host_Library/Core/Src/usbh_core.c ****   return 0xFFU;
 367:Middlewares/ST/STM32_USB_Host_Library/Core/Src/usbh_core.c **** }
 368:Middlewares/ST/STM32_USB_Host_Library/Core/Src/usbh_core.c **** 
 369:Middlewares/ST/STM32_USB_Host_Library/Core/Src/usbh_core.c **** 
 370:Middlewares/ST/STM32_USB_Host_Library/Core/Src/usbh_core.c **** /**
 371:Middlewares/ST/STM32_USB_Host_Library/Core/Src/usbh_core.c ****   * @brief  USBH_FindInterfaceIndex
 372:Middlewares/ST/STM32_USB_Host_Library/Core/Src/usbh_core.c ****   *         Find the interface index for a specific class interface and alternate setting number.
ARM GAS  /tmp/ccDyhIXb.s 			page 8


 373:Middlewares/ST/STM32_USB_Host_Library/Core/Src/usbh_core.c ****   * @param  phost: Host Handle
 374:Middlewares/ST/STM32_USB_Host_Library/Core/Src/usbh_core.c ****   * @param  interface_number: interface number
 375:Middlewares/ST/STM32_USB_Host_Library/Core/Src/usbh_core.c ****   * @param  alt_settings    : alternate setting number
 376:Middlewares/ST/STM32_USB_Host_Library/Core/Src/usbh_core.c ****   * @retval interface index in the configuration structure
 377:Middlewares/ST/STM32_USB_Host_Library/Core/Src/usbh_core.c ****   * @note : (1)interface index 0xFF means interface index not found
 378:Middlewares/ST/STM32_USB_Host_Library/Core/Src/usbh_core.c ****   */
 379:Middlewares/ST/STM32_USB_Host_Library/Core/Src/usbh_core.c **** uint8_t USBH_FindInterfaceIndex(USBH_HandleTypeDef *phost, uint8_t interface_number, uint8_t alt_se
 380:Middlewares/ST/STM32_USB_Host_Library/Core/Src/usbh_core.c **** {
 381:Middlewares/ST/STM32_USB_Host_Library/Core/Src/usbh_core.c ****   USBH_InterfaceDescTypeDef *pif;
 382:Middlewares/ST/STM32_USB_Host_Library/Core/Src/usbh_core.c ****   USBH_CfgDescTypeDef *pcfg;
 383:Middlewares/ST/STM32_USB_Host_Library/Core/Src/usbh_core.c ****   uint8_t if_ix = 0U;
 384:Middlewares/ST/STM32_USB_Host_Library/Core/Src/usbh_core.c **** 
 385:Middlewares/ST/STM32_USB_Host_Library/Core/Src/usbh_core.c ****   pif = (USBH_InterfaceDescTypeDef *)NULL;
 386:Middlewares/ST/STM32_USB_Host_Library/Core/Src/usbh_core.c ****   pcfg = &phost->device.CfgDesc;
 387:Middlewares/ST/STM32_USB_Host_Library/Core/Src/usbh_core.c **** 
 388:Middlewares/ST/STM32_USB_Host_Library/Core/Src/usbh_core.c ****   while (if_ix < USBH_MAX_NUM_INTERFACES)
 389:Middlewares/ST/STM32_USB_Host_Library/Core/Src/usbh_core.c ****   {
 390:Middlewares/ST/STM32_USB_Host_Library/Core/Src/usbh_core.c ****     pif = &pcfg->Itf_Desc[if_ix];
 391:Middlewares/ST/STM32_USB_Host_Library/Core/Src/usbh_core.c ****     if ((pif->bInterfaceNumber == interface_number) && (pif->bAlternateSetting == alt_settings))
 392:Middlewares/ST/STM32_USB_Host_Library/Core/Src/usbh_core.c ****     {
 393:Middlewares/ST/STM32_USB_Host_Library/Core/Src/usbh_core.c ****       return  if_ix;
 394:Middlewares/ST/STM32_USB_Host_Library/Core/Src/usbh_core.c ****     }
 395:Middlewares/ST/STM32_USB_Host_Library/Core/Src/usbh_core.c ****     if_ix++;
 396:Middlewares/ST/STM32_USB_Host_Library/Core/Src/usbh_core.c ****   }
 397:Middlewares/ST/STM32_USB_Host_Library/Core/Src/usbh_core.c ****   return 0xFFU;
 398:Middlewares/ST/STM32_USB_Host_Library/Core/Src/usbh_core.c **** }
 399:Middlewares/ST/STM32_USB_Host_Library/Core/Src/usbh_core.c **** 
 400:Middlewares/ST/STM32_USB_Host_Library/Core/Src/usbh_core.c **** 
 401:Middlewares/ST/STM32_USB_Host_Library/Core/Src/usbh_core.c **** /**
 402:Middlewares/ST/STM32_USB_Host_Library/Core/Src/usbh_core.c ****   * @brief  USBH_Start
 403:Middlewares/ST/STM32_USB_Host_Library/Core/Src/usbh_core.c ****   *         Start the USB Host Core.
 404:Middlewares/ST/STM32_USB_Host_Library/Core/Src/usbh_core.c ****   * @param  phost: Host Handle
 405:Middlewares/ST/STM32_USB_Host_Library/Core/Src/usbh_core.c ****   * @retval USBH Status
 406:Middlewares/ST/STM32_USB_Host_Library/Core/Src/usbh_core.c ****   */
 407:Middlewares/ST/STM32_USB_Host_Library/Core/Src/usbh_core.c **** USBH_StatusTypeDef USBH_Start(USBH_HandleTypeDef *phost)
 408:Middlewares/ST/STM32_USB_Host_Library/Core/Src/usbh_core.c **** {
 409:Middlewares/ST/STM32_USB_Host_Library/Core/Src/usbh_core.c ****   /* Start the low level driver  */
 410:Middlewares/ST/STM32_USB_Host_Library/Core/Src/usbh_core.c ****   (void)USBH_LL_Start(phost);
 411:Middlewares/ST/STM32_USB_Host_Library/Core/Src/usbh_core.c **** 
 412:Middlewares/ST/STM32_USB_Host_Library/Core/Src/usbh_core.c ****   /* Activate VBUS on the port */
 413:Middlewares/ST/STM32_USB_Host_Library/Core/Src/usbh_core.c ****   (void)USBH_LL_DriverVBUS(phost, TRUE);
 414:Middlewares/ST/STM32_USB_Host_Library/Core/Src/usbh_core.c **** 
 415:Middlewares/ST/STM32_USB_Host_Library/Core/Src/usbh_core.c ****   return USBH_OK;
 416:Middlewares/ST/STM32_USB_Host_Library/Core/Src/usbh_core.c **** }
 417:Middlewares/ST/STM32_USB_Host_Library/Core/Src/usbh_core.c **** 
 418:Middlewares/ST/STM32_USB_Host_Library/Core/Src/usbh_core.c **** 
 419:Middlewares/ST/STM32_USB_Host_Library/Core/Src/usbh_core.c **** /**
 420:Middlewares/ST/STM32_USB_Host_Library/Core/Src/usbh_core.c ****   * @brief  USBH_Stop
 421:Middlewares/ST/STM32_USB_Host_Library/Core/Src/usbh_core.c ****   *         Stop the USB Host Core.
 422:Middlewares/ST/STM32_USB_Host_Library/Core/Src/usbh_core.c ****   * @param  phost: Host Handle
 423:Middlewares/ST/STM32_USB_Host_Library/Core/Src/usbh_core.c ****   * @retval USBH Status
 424:Middlewares/ST/STM32_USB_Host_Library/Core/Src/usbh_core.c ****   */
 425:Middlewares/ST/STM32_USB_Host_Library/Core/Src/usbh_core.c **** USBH_StatusTypeDef USBH_Stop(USBH_HandleTypeDef *phost)
 426:Middlewares/ST/STM32_USB_Host_Library/Core/Src/usbh_core.c **** {
 427:Middlewares/ST/STM32_USB_Host_Library/Core/Src/usbh_core.c ****   /* DeActivate VBUS on the port */
 428:Middlewares/ST/STM32_USB_Host_Library/Core/Src/usbh_core.c ****   (void)USBH_LL_DriverVBUS(phost, FALSE);
 429:Middlewares/ST/STM32_USB_Host_Library/Core/Src/usbh_core.c **** 
ARM GAS  /tmp/ccDyhIXb.s 			page 9


 430:Middlewares/ST/STM32_USB_Host_Library/Core/Src/usbh_core.c ****   /* Stop and cleanup the low level driver  */
 431:Middlewares/ST/STM32_USB_Host_Library/Core/Src/usbh_core.c ****   (void)USBH_LL_Stop(phost);
 432:Middlewares/ST/STM32_USB_Host_Library/Core/Src/usbh_core.c **** 
 433:Middlewares/ST/STM32_USB_Host_Library/Core/Src/usbh_core.c ****   /* Free Control Pipes */
 434:Middlewares/ST/STM32_USB_Host_Library/Core/Src/usbh_core.c ****   (void)USBH_FreePipe(phost, phost->Control.pipe_in);
 435:Middlewares/ST/STM32_USB_Host_Library/Core/Src/usbh_core.c ****   (void)USBH_FreePipe(phost, phost->Control.pipe_out);
 436:Middlewares/ST/STM32_USB_Host_Library/Core/Src/usbh_core.c **** 
 437:Middlewares/ST/STM32_USB_Host_Library/Core/Src/usbh_core.c ****   return USBH_OK;
 438:Middlewares/ST/STM32_USB_Host_Library/Core/Src/usbh_core.c **** }
 439:Middlewares/ST/STM32_USB_Host_Library/Core/Src/usbh_core.c **** 
 440:Middlewares/ST/STM32_USB_Host_Library/Core/Src/usbh_core.c **** 
 441:Middlewares/ST/STM32_USB_Host_Library/Core/Src/usbh_core.c **** /**
 442:Middlewares/ST/STM32_USB_Host_Library/Core/Src/usbh_core.c ****   * @brief  HCD_ReEnumerate
 443:Middlewares/ST/STM32_USB_Host_Library/Core/Src/usbh_core.c ****   *         Perform a new Enumeration phase.
 444:Middlewares/ST/STM32_USB_Host_Library/Core/Src/usbh_core.c ****   * @param  phost: Host Handle
 445:Middlewares/ST/STM32_USB_Host_Library/Core/Src/usbh_core.c ****   * @retval USBH Status
 446:Middlewares/ST/STM32_USB_Host_Library/Core/Src/usbh_core.c ****   */
 447:Middlewares/ST/STM32_USB_Host_Library/Core/Src/usbh_core.c **** USBH_StatusTypeDef USBH_ReEnumerate(USBH_HandleTypeDef *phost)
 448:Middlewares/ST/STM32_USB_Host_Library/Core/Src/usbh_core.c **** {
 449:Middlewares/ST/STM32_USB_Host_Library/Core/Src/usbh_core.c ****   if (USBH_IsPortEnabled(phost) != 0U)
 450:Middlewares/ST/STM32_USB_Host_Library/Core/Src/usbh_core.c ****   {
 451:Middlewares/ST/STM32_USB_Host_Library/Core/Src/usbh_core.c ****     phost->device.is_ReEnumerated = 1U;
 452:Middlewares/ST/STM32_USB_Host_Library/Core/Src/usbh_core.c **** 
 453:Middlewares/ST/STM32_USB_Host_Library/Core/Src/usbh_core.c ****     /* Stop Host */
 454:Middlewares/ST/STM32_USB_Host_Library/Core/Src/usbh_core.c ****     (void)USBH_Stop(phost);
 455:Middlewares/ST/STM32_USB_Host_Library/Core/Src/usbh_core.c **** 
 456:Middlewares/ST/STM32_USB_Host_Library/Core/Src/usbh_core.c ****     phost->device.is_disconnected = 1U;
 457:Middlewares/ST/STM32_USB_Host_Library/Core/Src/usbh_core.c ****   }
 458:Middlewares/ST/STM32_USB_Host_Library/Core/Src/usbh_core.c **** 
 459:Middlewares/ST/STM32_USB_Host_Library/Core/Src/usbh_core.c **** #if (USBH_USE_OS == 1U)
 460:Middlewares/ST/STM32_USB_Host_Library/Core/Src/usbh_core.c ****   USBH_OS_PutMessage(phost, USBH_PORT_EVENT, 0U, 0U);
 461:Middlewares/ST/STM32_USB_Host_Library/Core/Src/usbh_core.c **** #endif /* (USBH_USE_OS == 1U) */
 462:Middlewares/ST/STM32_USB_Host_Library/Core/Src/usbh_core.c **** 
 463:Middlewares/ST/STM32_USB_Host_Library/Core/Src/usbh_core.c ****   return USBH_OK;
 464:Middlewares/ST/STM32_USB_Host_Library/Core/Src/usbh_core.c **** }
 465:Middlewares/ST/STM32_USB_Host_Library/Core/Src/usbh_core.c **** 
 466:Middlewares/ST/STM32_USB_Host_Library/Core/Src/usbh_core.c **** 
 467:Middlewares/ST/STM32_USB_Host_Library/Core/Src/usbh_core.c **** /**
 468:Middlewares/ST/STM32_USB_Host_Library/Core/Src/usbh_core.c ****   * @brief  USBH_Process
 469:Middlewares/ST/STM32_USB_Host_Library/Core/Src/usbh_core.c ****   *         Background process of the USB Core.
 470:Middlewares/ST/STM32_USB_Host_Library/Core/Src/usbh_core.c ****   * @param  phost: Host Handle
 471:Middlewares/ST/STM32_USB_Host_Library/Core/Src/usbh_core.c ****   * @retval USBH Status
 472:Middlewares/ST/STM32_USB_Host_Library/Core/Src/usbh_core.c ****   */
 473:Middlewares/ST/STM32_USB_Host_Library/Core/Src/usbh_core.c **** USBH_StatusTypeDef USBH_Process(USBH_HandleTypeDef *phost)
 474:Middlewares/ST/STM32_USB_Host_Library/Core/Src/usbh_core.c **** {
 475:Middlewares/ST/STM32_USB_Host_Library/Core/Src/usbh_core.c ****   __IO USBH_StatusTypeDef status = USBH_FAIL;
 476:Middlewares/ST/STM32_USB_Host_Library/Core/Src/usbh_core.c ****   uint8_t idx = 0U;
 477:Middlewares/ST/STM32_USB_Host_Library/Core/Src/usbh_core.c **** 
 478:Middlewares/ST/STM32_USB_Host_Library/Core/Src/usbh_core.c ****   /* check for Host pending port disconnect event */
 479:Middlewares/ST/STM32_USB_Host_Library/Core/Src/usbh_core.c ****   if (phost->device.is_disconnected == 1U)
 480:Middlewares/ST/STM32_USB_Host_Library/Core/Src/usbh_core.c ****   {
 481:Middlewares/ST/STM32_USB_Host_Library/Core/Src/usbh_core.c ****     phost->gState = HOST_DEV_DISCONNECTED;
 482:Middlewares/ST/STM32_USB_Host_Library/Core/Src/usbh_core.c ****   }
 483:Middlewares/ST/STM32_USB_Host_Library/Core/Src/usbh_core.c **** 
 484:Middlewares/ST/STM32_USB_Host_Library/Core/Src/usbh_core.c ****   switch (phost->gState)
 485:Middlewares/ST/STM32_USB_Host_Library/Core/Src/usbh_core.c ****   {
 486:Middlewares/ST/STM32_USB_Host_Library/Core/Src/usbh_core.c ****     case HOST_IDLE :
ARM GAS  /tmp/ccDyhIXb.s 			page 10


 487:Middlewares/ST/STM32_USB_Host_Library/Core/Src/usbh_core.c **** 
 488:Middlewares/ST/STM32_USB_Host_Library/Core/Src/usbh_core.c ****       if ((phost->device.is_connected) != 0U)
 489:Middlewares/ST/STM32_USB_Host_Library/Core/Src/usbh_core.c ****       {
 490:Middlewares/ST/STM32_USB_Host_Library/Core/Src/usbh_core.c ****         USBH_UsrLog("USB Device Connected");
 491:Middlewares/ST/STM32_USB_Host_Library/Core/Src/usbh_core.c **** 
 492:Middlewares/ST/STM32_USB_Host_Library/Core/Src/usbh_core.c ****         /* Wait for 200 ms after connection */
 493:Middlewares/ST/STM32_USB_Host_Library/Core/Src/usbh_core.c ****         phost->gState = HOST_DEV_WAIT_FOR_ATTACHMENT;
 494:Middlewares/ST/STM32_USB_Host_Library/Core/Src/usbh_core.c ****         USBH_Delay(200U);
 495:Middlewares/ST/STM32_USB_Host_Library/Core/Src/usbh_core.c ****         (void)USBH_LL_ResetPort(phost);
 496:Middlewares/ST/STM32_USB_Host_Library/Core/Src/usbh_core.c **** 
 497:Middlewares/ST/STM32_USB_Host_Library/Core/Src/usbh_core.c ****         /* Make sure to start with Default address */
 498:Middlewares/ST/STM32_USB_Host_Library/Core/Src/usbh_core.c ****         phost->device.address = USBH_ADDRESS_DEFAULT;
 499:Middlewares/ST/STM32_USB_Host_Library/Core/Src/usbh_core.c ****         phost->Timeout = 0U;
 500:Middlewares/ST/STM32_USB_Host_Library/Core/Src/usbh_core.c **** 
 501:Middlewares/ST/STM32_USB_Host_Library/Core/Src/usbh_core.c **** #if (USBH_USE_OS == 1U)
 502:Middlewares/ST/STM32_USB_Host_Library/Core/Src/usbh_core.c ****         USBH_OS_PutMessage(phost, USBH_PORT_EVENT, 0U, 0U);
 503:Middlewares/ST/STM32_USB_Host_Library/Core/Src/usbh_core.c **** #endif /* (USBH_USE_OS == 1U) */
 504:Middlewares/ST/STM32_USB_Host_Library/Core/Src/usbh_core.c ****       }
 505:Middlewares/ST/STM32_USB_Host_Library/Core/Src/usbh_core.c ****       break;
 506:Middlewares/ST/STM32_USB_Host_Library/Core/Src/usbh_core.c **** 
 507:Middlewares/ST/STM32_USB_Host_Library/Core/Src/usbh_core.c ****     case HOST_DEV_WAIT_FOR_ATTACHMENT: /* Wait for Port Enabled */
 508:Middlewares/ST/STM32_USB_Host_Library/Core/Src/usbh_core.c **** 
 509:Middlewares/ST/STM32_USB_Host_Library/Core/Src/usbh_core.c ****       if (phost->device.PortEnabled == 1U)
 510:Middlewares/ST/STM32_USB_Host_Library/Core/Src/usbh_core.c ****       {
 511:Middlewares/ST/STM32_USB_Host_Library/Core/Src/usbh_core.c ****         USBH_UsrLog("USB Device Reset Completed");
 512:Middlewares/ST/STM32_USB_Host_Library/Core/Src/usbh_core.c ****         phost->device.RstCnt = 0U;
 513:Middlewares/ST/STM32_USB_Host_Library/Core/Src/usbh_core.c ****         phost->gState = HOST_DEV_ATTACHED;
 514:Middlewares/ST/STM32_USB_Host_Library/Core/Src/usbh_core.c ****       }
 515:Middlewares/ST/STM32_USB_Host_Library/Core/Src/usbh_core.c ****       else
 516:Middlewares/ST/STM32_USB_Host_Library/Core/Src/usbh_core.c ****       {
 517:Middlewares/ST/STM32_USB_Host_Library/Core/Src/usbh_core.c ****         if (phost->Timeout > USBH_DEV_RESET_TIMEOUT)
 518:Middlewares/ST/STM32_USB_Host_Library/Core/Src/usbh_core.c ****         {
 519:Middlewares/ST/STM32_USB_Host_Library/Core/Src/usbh_core.c ****           phost->device.RstCnt++;
 520:Middlewares/ST/STM32_USB_Host_Library/Core/Src/usbh_core.c ****           if (phost->device.RstCnt > 3U)
 521:Middlewares/ST/STM32_USB_Host_Library/Core/Src/usbh_core.c ****           {
 522:Middlewares/ST/STM32_USB_Host_Library/Core/Src/usbh_core.c ****             /* Buggy Device can't complete reset */
 523:Middlewares/ST/STM32_USB_Host_Library/Core/Src/usbh_core.c ****             USBH_UsrLog("USB Reset Failed, Please unplug the Device.");
 524:Middlewares/ST/STM32_USB_Host_Library/Core/Src/usbh_core.c ****             phost->gState = HOST_ABORT_STATE;
 525:Middlewares/ST/STM32_USB_Host_Library/Core/Src/usbh_core.c ****           }
 526:Middlewares/ST/STM32_USB_Host_Library/Core/Src/usbh_core.c ****           else
 527:Middlewares/ST/STM32_USB_Host_Library/Core/Src/usbh_core.c ****           {
 528:Middlewares/ST/STM32_USB_Host_Library/Core/Src/usbh_core.c ****             phost->gState = HOST_IDLE;
 529:Middlewares/ST/STM32_USB_Host_Library/Core/Src/usbh_core.c ****           }
 530:Middlewares/ST/STM32_USB_Host_Library/Core/Src/usbh_core.c ****         }
 531:Middlewares/ST/STM32_USB_Host_Library/Core/Src/usbh_core.c ****         else
 532:Middlewares/ST/STM32_USB_Host_Library/Core/Src/usbh_core.c ****         {
 533:Middlewares/ST/STM32_USB_Host_Library/Core/Src/usbh_core.c ****           phost->Timeout += 10U;
 534:Middlewares/ST/STM32_USB_Host_Library/Core/Src/usbh_core.c ****           USBH_Delay(10U);
 535:Middlewares/ST/STM32_USB_Host_Library/Core/Src/usbh_core.c ****         }
 536:Middlewares/ST/STM32_USB_Host_Library/Core/Src/usbh_core.c ****       }
 537:Middlewares/ST/STM32_USB_Host_Library/Core/Src/usbh_core.c **** 
 538:Middlewares/ST/STM32_USB_Host_Library/Core/Src/usbh_core.c **** #if (USBH_USE_OS == 1U)
 539:Middlewares/ST/STM32_USB_Host_Library/Core/Src/usbh_core.c ****       USBH_OS_PutMessage(phost, USBH_PORT_EVENT, 0U, 0U);
 540:Middlewares/ST/STM32_USB_Host_Library/Core/Src/usbh_core.c **** #endif /* (USBH_USE_OS == 1U) */
 541:Middlewares/ST/STM32_USB_Host_Library/Core/Src/usbh_core.c ****       break;
 542:Middlewares/ST/STM32_USB_Host_Library/Core/Src/usbh_core.c **** 
 543:Middlewares/ST/STM32_USB_Host_Library/Core/Src/usbh_core.c ****     case HOST_DEV_ATTACHED :
ARM GAS  /tmp/ccDyhIXb.s 			page 11


 544:Middlewares/ST/STM32_USB_Host_Library/Core/Src/usbh_core.c **** 
 545:Middlewares/ST/STM32_USB_Host_Library/Core/Src/usbh_core.c ****       if (phost->pUser != NULL)
 546:Middlewares/ST/STM32_USB_Host_Library/Core/Src/usbh_core.c ****       {
 547:Middlewares/ST/STM32_USB_Host_Library/Core/Src/usbh_core.c ****         phost->pUser(phost, HOST_USER_CONNECTION);
 548:Middlewares/ST/STM32_USB_Host_Library/Core/Src/usbh_core.c ****       }
 549:Middlewares/ST/STM32_USB_Host_Library/Core/Src/usbh_core.c **** 
 550:Middlewares/ST/STM32_USB_Host_Library/Core/Src/usbh_core.c ****       /* Wait for 100 ms after Reset */
 551:Middlewares/ST/STM32_USB_Host_Library/Core/Src/usbh_core.c ****       USBH_Delay(100U);
 552:Middlewares/ST/STM32_USB_Host_Library/Core/Src/usbh_core.c **** 
 553:Middlewares/ST/STM32_USB_Host_Library/Core/Src/usbh_core.c ****       phost->device.speed = (uint8_t)USBH_LL_GetSpeed(phost);
 554:Middlewares/ST/STM32_USB_Host_Library/Core/Src/usbh_core.c **** 
 555:Middlewares/ST/STM32_USB_Host_Library/Core/Src/usbh_core.c **** #if defined (USBH_IN_NAK_PROCESS) && (USBH_IN_NAK_PROCESS == 1U)
 556:Middlewares/ST/STM32_USB_Host_Library/Core/Src/usbh_core.c ****       phost->NakTimeout = USBH_NAK_SOF_COUNT;
 557:Middlewares/ST/STM32_USB_Host_Library/Core/Src/usbh_core.c **** #endif /* defined (USBH_IN_NAK_PROCESS) && (USBH_IN_NAK_PROCESS == 1U) */
 558:Middlewares/ST/STM32_USB_Host_Library/Core/Src/usbh_core.c **** 
 559:Middlewares/ST/STM32_USB_Host_Library/Core/Src/usbh_core.c ****       phost->gState = HOST_ENUMERATION;
 560:Middlewares/ST/STM32_USB_Host_Library/Core/Src/usbh_core.c **** 
 561:Middlewares/ST/STM32_USB_Host_Library/Core/Src/usbh_core.c ****       phost->Control.pipe_out = USBH_AllocPipe(phost, 0x00U);
 562:Middlewares/ST/STM32_USB_Host_Library/Core/Src/usbh_core.c ****       phost->Control.pipe_in  = USBH_AllocPipe(phost, 0x80U);
 563:Middlewares/ST/STM32_USB_Host_Library/Core/Src/usbh_core.c **** 
 564:Middlewares/ST/STM32_USB_Host_Library/Core/Src/usbh_core.c ****       /* Open Control pipes */
 565:Middlewares/ST/STM32_USB_Host_Library/Core/Src/usbh_core.c ****       (void)USBH_OpenPipe(phost, phost->Control.pipe_in, 0x80U,
 566:Middlewares/ST/STM32_USB_Host_Library/Core/Src/usbh_core.c ****                           phost->device.address, phost->device.speed,
 567:Middlewares/ST/STM32_USB_Host_Library/Core/Src/usbh_core.c ****                           USBH_EP_CONTROL, (uint16_t)phost->Control.pipe_size);
 568:Middlewares/ST/STM32_USB_Host_Library/Core/Src/usbh_core.c **** 
 569:Middlewares/ST/STM32_USB_Host_Library/Core/Src/usbh_core.c ****       /* Open Control pipes */
 570:Middlewares/ST/STM32_USB_Host_Library/Core/Src/usbh_core.c ****       (void)USBH_OpenPipe(phost, phost->Control.pipe_out, 0x00U,
 571:Middlewares/ST/STM32_USB_Host_Library/Core/Src/usbh_core.c ****                           phost->device.address, phost->device.speed,
 572:Middlewares/ST/STM32_USB_Host_Library/Core/Src/usbh_core.c ****                           USBH_EP_CONTROL, (uint16_t)phost->Control.pipe_size);
 573:Middlewares/ST/STM32_USB_Host_Library/Core/Src/usbh_core.c **** 
 574:Middlewares/ST/STM32_USB_Host_Library/Core/Src/usbh_core.c **** #if (USBH_USE_OS == 1U)
 575:Middlewares/ST/STM32_USB_Host_Library/Core/Src/usbh_core.c ****       USBH_OS_PutMessage(phost, USBH_PORT_EVENT, 0U, 0U);
 576:Middlewares/ST/STM32_USB_Host_Library/Core/Src/usbh_core.c **** #endif /* (USBH_USE_OS == 1U) */
 577:Middlewares/ST/STM32_USB_Host_Library/Core/Src/usbh_core.c ****       break;
 578:Middlewares/ST/STM32_USB_Host_Library/Core/Src/usbh_core.c **** 
 579:Middlewares/ST/STM32_USB_Host_Library/Core/Src/usbh_core.c ****     case HOST_ENUMERATION:
 580:Middlewares/ST/STM32_USB_Host_Library/Core/Src/usbh_core.c ****       /* Check for enumeration status */
 581:Middlewares/ST/STM32_USB_Host_Library/Core/Src/usbh_core.c ****       status = USBH_HandleEnum(phost);
 582:Middlewares/ST/STM32_USB_Host_Library/Core/Src/usbh_core.c ****       if (status == USBH_OK)
 583:Middlewares/ST/STM32_USB_Host_Library/Core/Src/usbh_core.c ****       {
 584:Middlewares/ST/STM32_USB_Host_Library/Core/Src/usbh_core.c ****         /* The function shall return USBH_OK when full enumeration is complete */
 585:Middlewares/ST/STM32_USB_Host_Library/Core/Src/usbh_core.c ****         USBH_UsrLog("Enumeration done.");
 586:Middlewares/ST/STM32_USB_Host_Library/Core/Src/usbh_core.c **** 
 587:Middlewares/ST/STM32_USB_Host_Library/Core/Src/usbh_core.c ****         phost->device.current_interface = 0U;
 588:Middlewares/ST/STM32_USB_Host_Library/Core/Src/usbh_core.c **** 
 589:Middlewares/ST/STM32_USB_Host_Library/Core/Src/usbh_core.c ****         if (phost->device.DevDesc.bNumConfigurations == 1U)
 590:Middlewares/ST/STM32_USB_Host_Library/Core/Src/usbh_core.c ****         {
 591:Middlewares/ST/STM32_USB_Host_Library/Core/Src/usbh_core.c ****           USBH_UsrLog("This device has only 1 configuration.");
 592:Middlewares/ST/STM32_USB_Host_Library/Core/Src/usbh_core.c ****           phost->gState = HOST_SET_CONFIGURATION;
 593:Middlewares/ST/STM32_USB_Host_Library/Core/Src/usbh_core.c ****         }
 594:Middlewares/ST/STM32_USB_Host_Library/Core/Src/usbh_core.c ****         else
 595:Middlewares/ST/STM32_USB_Host_Library/Core/Src/usbh_core.c ****         {
 596:Middlewares/ST/STM32_USB_Host_Library/Core/Src/usbh_core.c ****           phost->gState = HOST_INPUT;
 597:Middlewares/ST/STM32_USB_Host_Library/Core/Src/usbh_core.c ****         }
 598:Middlewares/ST/STM32_USB_Host_Library/Core/Src/usbh_core.c **** 
 599:Middlewares/ST/STM32_USB_Host_Library/Core/Src/usbh_core.c **** #if (USBH_USE_OS == 1U)
 600:Middlewares/ST/STM32_USB_Host_Library/Core/Src/usbh_core.c ****         USBH_OS_PutMessage(phost, USBH_STATE_CHANGED_EVENT, 0U, 0U);
ARM GAS  /tmp/ccDyhIXb.s 			page 12


 601:Middlewares/ST/STM32_USB_Host_Library/Core/Src/usbh_core.c **** #endif /* (USBH_USE_OS == 1U) */
 602:Middlewares/ST/STM32_USB_Host_Library/Core/Src/usbh_core.c ****       }
 603:Middlewares/ST/STM32_USB_Host_Library/Core/Src/usbh_core.c ****       break;
 604:Middlewares/ST/STM32_USB_Host_Library/Core/Src/usbh_core.c **** 
 605:Middlewares/ST/STM32_USB_Host_Library/Core/Src/usbh_core.c ****     case HOST_INPUT:
 606:Middlewares/ST/STM32_USB_Host_Library/Core/Src/usbh_core.c ****     {
 607:Middlewares/ST/STM32_USB_Host_Library/Core/Src/usbh_core.c ****       /* user callback for end of device basic enumeration */
 608:Middlewares/ST/STM32_USB_Host_Library/Core/Src/usbh_core.c ****       if (phost->pUser != NULL)
 609:Middlewares/ST/STM32_USB_Host_Library/Core/Src/usbh_core.c ****       {
 610:Middlewares/ST/STM32_USB_Host_Library/Core/Src/usbh_core.c ****         phost->pUser(phost, HOST_USER_SELECT_CONFIGURATION);
 611:Middlewares/ST/STM32_USB_Host_Library/Core/Src/usbh_core.c ****         phost->gState = HOST_SET_CONFIGURATION;
 612:Middlewares/ST/STM32_USB_Host_Library/Core/Src/usbh_core.c **** 
 613:Middlewares/ST/STM32_USB_Host_Library/Core/Src/usbh_core.c **** #if (USBH_USE_OS == 1U)
 614:Middlewares/ST/STM32_USB_Host_Library/Core/Src/usbh_core.c ****         USBH_OS_PutMessage(phost, USBH_STATE_CHANGED_EVENT, 0U, 0U);
 615:Middlewares/ST/STM32_USB_Host_Library/Core/Src/usbh_core.c **** #endif /* (USBH_USE_OS == 1U) */
 616:Middlewares/ST/STM32_USB_Host_Library/Core/Src/usbh_core.c ****       }
 617:Middlewares/ST/STM32_USB_Host_Library/Core/Src/usbh_core.c ****     }
 618:Middlewares/ST/STM32_USB_Host_Library/Core/Src/usbh_core.c ****     break;
 619:Middlewares/ST/STM32_USB_Host_Library/Core/Src/usbh_core.c **** 
 620:Middlewares/ST/STM32_USB_Host_Library/Core/Src/usbh_core.c ****     case HOST_SET_CONFIGURATION:
 621:Middlewares/ST/STM32_USB_Host_Library/Core/Src/usbh_core.c ****       /* set configuration */
 622:Middlewares/ST/STM32_USB_Host_Library/Core/Src/usbh_core.c ****       if (USBH_SetCfg(phost, (uint16_t)phost->device.CfgDesc.bConfigurationValue) == USBH_OK)
 623:Middlewares/ST/STM32_USB_Host_Library/Core/Src/usbh_core.c ****       {
 624:Middlewares/ST/STM32_USB_Host_Library/Core/Src/usbh_core.c ****         phost->gState = HOST_SET_WAKEUP_FEATURE;
 625:Middlewares/ST/STM32_USB_Host_Library/Core/Src/usbh_core.c ****         USBH_UsrLog("Default configuration set.");
 626:Middlewares/ST/STM32_USB_Host_Library/Core/Src/usbh_core.c ****       }
 627:Middlewares/ST/STM32_USB_Host_Library/Core/Src/usbh_core.c **** 
 628:Middlewares/ST/STM32_USB_Host_Library/Core/Src/usbh_core.c **** #if (USBH_USE_OS == 1U)
 629:Middlewares/ST/STM32_USB_Host_Library/Core/Src/usbh_core.c ****       USBH_OS_PutMessage(phost, USBH_PORT_EVENT, 0U, 0U);
 630:Middlewares/ST/STM32_USB_Host_Library/Core/Src/usbh_core.c **** #endif /* (USBH_USE_OS == 1U) */
 631:Middlewares/ST/STM32_USB_Host_Library/Core/Src/usbh_core.c ****       break;
 632:Middlewares/ST/STM32_USB_Host_Library/Core/Src/usbh_core.c **** 
 633:Middlewares/ST/STM32_USB_Host_Library/Core/Src/usbh_core.c ****     case  HOST_SET_WAKEUP_FEATURE:
 634:Middlewares/ST/STM32_USB_Host_Library/Core/Src/usbh_core.c **** 
 635:Middlewares/ST/STM32_USB_Host_Library/Core/Src/usbh_core.c ****       if (((phost->device.CfgDesc.bmAttributes) & (1U << 5)) != 0U)
 636:Middlewares/ST/STM32_USB_Host_Library/Core/Src/usbh_core.c ****       {
 637:Middlewares/ST/STM32_USB_Host_Library/Core/Src/usbh_core.c ****         status = USBH_SetFeature(phost, FEATURE_SELECTOR_REMOTEWAKEUP);
 638:Middlewares/ST/STM32_USB_Host_Library/Core/Src/usbh_core.c **** 
 639:Middlewares/ST/STM32_USB_Host_Library/Core/Src/usbh_core.c ****         if (status == USBH_OK)
 640:Middlewares/ST/STM32_USB_Host_Library/Core/Src/usbh_core.c ****         {
 641:Middlewares/ST/STM32_USB_Host_Library/Core/Src/usbh_core.c ****           USBH_UsrLog("Device remote wakeup enabled");
 642:Middlewares/ST/STM32_USB_Host_Library/Core/Src/usbh_core.c ****           phost->gState = HOST_CHECK_CLASS;
 643:Middlewares/ST/STM32_USB_Host_Library/Core/Src/usbh_core.c ****         }
 644:Middlewares/ST/STM32_USB_Host_Library/Core/Src/usbh_core.c ****         else if (status == USBH_NOT_SUPPORTED)
 645:Middlewares/ST/STM32_USB_Host_Library/Core/Src/usbh_core.c ****         {
 646:Middlewares/ST/STM32_USB_Host_Library/Core/Src/usbh_core.c ****           USBH_UsrLog("Remote wakeup not supported by the device");
 647:Middlewares/ST/STM32_USB_Host_Library/Core/Src/usbh_core.c ****           phost->gState = HOST_CHECK_CLASS;
 648:Middlewares/ST/STM32_USB_Host_Library/Core/Src/usbh_core.c ****         }
 649:Middlewares/ST/STM32_USB_Host_Library/Core/Src/usbh_core.c ****         else
 650:Middlewares/ST/STM32_USB_Host_Library/Core/Src/usbh_core.c ****         {
 651:Middlewares/ST/STM32_USB_Host_Library/Core/Src/usbh_core.c ****           /* .. */
 652:Middlewares/ST/STM32_USB_Host_Library/Core/Src/usbh_core.c ****         }
 653:Middlewares/ST/STM32_USB_Host_Library/Core/Src/usbh_core.c ****       }
 654:Middlewares/ST/STM32_USB_Host_Library/Core/Src/usbh_core.c ****       else
 655:Middlewares/ST/STM32_USB_Host_Library/Core/Src/usbh_core.c ****       {
 656:Middlewares/ST/STM32_USB_Host_Library/Core/Src/usbh_core.c ****         phost->gState = HOST_CHECK_CLASS;
 657:Middlewares/ST/STM32_USB_Host_Library/Core/Src/usbh_core.c ****       }
ARM GAS  /tmp/ccDyhIXb.s 			page 13


 658:Middlewares/ST/STM32_USB_Host_Library/Core/Src/usbh_core.c **** 
 659:Middlewares/ST/STM32_USB_Host_Library/Core/Src/usbh_core.c **** #if (USBH_USE_OS == 1U)
 660:Middlewares/ST/STM32_USB_Host_Library/Core/Src/usbh_core.c ****       USBH_OS_PutMessage(phost, USBH_PORT_EVENT, 0U, 0U);
 661:Middlewares/ST/STM32_USB_Host_Library/Core/Src/usbh_core.c **** #endif /* (USBH_USE_OS == 1U) */
 662:Middlewares/ST/STM32_USB_Host_Library/Core/Src/usbh_core.c ****       break;
 663:Middlewares/ST/STM32_USB_Host_Library/Core/Src/usbh_core.c **** 
 664:Middlewares/ST/STM32_USB_Host_Library/Core/Src/usbh_core.c ****     case HOST_CHECK_CLASS:
 665:Middlewares/ST/STM32_USB_Host_Library/Core/Src/usbh_core.c **** 
 666:Middlewares/ST/STM32_USB_Host_Library/Core/Src/usbh_core.c ****       if (phost->ClassNumber == 0U)
 667:Middlewares/ST/STM32_USB_Host_Library/Core/Src/usbh_core.c ****       {
 668:Middlewares/ST/STM32_USB_Host_Library/Core/Src/usbh_core.c ****         USBH_UsrLog("No Class has been registered.");
 669:Middlewares/ST/STM32_USB_Host_Library/Core/Src/usbh_core.c ****       }
 670:Middlewares/ST/STM32_USB_Host_Library/Core/Src/usbh_core.c ****       else
 671:Middlewares/ST/STM32_USB_Host_Library/Core/Src/usbh_core.c ****       {
 672:Middlewares/ST/STM32_USB_Host_Library/Core/Src/usbh_core.c ****         phost->pActiveClass = NULL;
 673:Middlewares/ST/STM32_USB_Host_Library/Core/Src/usbh_core.c **** 
 674:Middlewares/ST/STM32_USB_Host_Library/Core/Src/usbh_core.c ****         for (idx = 0U; idx < USBH_MAX_NUM_SUPPORTED_CLASS; idx++)
 675:Middlewares/ST/STM32_USB_Host_Library/Core/Src/usbh_core.c ****         {
 676:Middlewares/ST/STM32_USB_Host_Library/Core/Src/usbh_core.c ****           if (phost->pClass[idx]->ClassCode == phost->device.CfgDesc.Itf_Desc[0].bInterfaceClass)
 677:Middlewares/ST/STM32_USB_Host_Library/Core/Src/usbh_core.c ****           {
 678:Middlewares/ST/STM32_USB_Host_Library/Core/Src/usbh_core.c ****             phost->pActiveClass = phost->pClass[idx];
 679:Middlewares/ST/STM32_USB_Host_Library/Core/Src/usbh_core.c ****             break;
 680:Middlewares/ST/STM32_USB_Host_Library/Core/Src/usbh_core.c ****           }
 681:Middlewares/ST/STM32_USB_Host_Library/Core/Src/usbh_core.c ****         }
 682:Middlewares/ST/STM32_USB_Host_Library/Core/Src/usbh_core.c **** 
 683:Middlewares/ST/STM32_USB_Host_Library/Core/Src/usbh_core.c ****         if (phost->pActiveClass != NULL)
 684:Middlewares/ST/STM32_USB_Host_Library/Core/Src/usbh_core.c ****         {
 685:Middlewares/ST/STM32_USB_Host_Library/Core/Src/usbh_core.c ****           if (phost->pActiveClass->Init(phost) == USBH_OK)
 686:Middlewares/ST/STM32_USB_Host_Library/Core/Src/usbh_core.c ****           {
 687:Middlewares/ST/STM32_USB_Host_Library/Core/Src/usbh_core.c ****             phost->gState = HOST_CLASS_REQUEST;
 688:Middlewares/ST/STM32_USB_Host_Library/Core/Src/usbh_core.c ****             USBH_UsrLog("%s class started.", phost->pActiveClass->Name);
 689:Middlewares/ST/STM32_USB_Host_Library/Core/Src/usbh_core.c **** 
 690:Middlewares/ST/STM32_USB_Host_Library/Core/Src/usbh_core.c ****             /* Inform user that a class has been activated */
 691:Middlewares/ST/STM32_USB_Host_Library/Core/Src/usbh_core.c ****             phost->pUser(phost, HOST_USER_CLASS_SELECTED);
 692:Middlewares/ST/STM32_USB_Host_Library/Core/Src/usbh_core.c ****           }
 693:Middlewares/ST/STM32_USB_Host_Library/Core/Src/usbh_core.c ****           else
 694:Middlewares/ST/STM32_USB_Host_Library/Core/Src/usbh_core.c ****           {
 695:Middlewares/ST/STM32_USB_Host_Library/Core/Src/usbh_core.c ****             phost->gState = HOST_ABORT_STATE;
 696:Middlewares/ST/STM32_USB_Host_Library/Core/Src/usbh_core.c ****             USBH_UsrLog("Device not supporting %s class.", phost->pActiveClass->Name);
 697:Middlewares/ST/STM32_USB_Host_Library/Core/Src/usbh_core.c ****           }
 698:Middlewares/ST/STM32_USB_Host_Library/Core/Src/usbh_core.c ****         }
 699:Middlewares/ST/STM32_USB_Host_Library/Core/Src/usbh_core.c ****         else
 700:Middlewares/ST/STM32_USB_Host_Library/Core/Src/usbh_core.c ****         {
 701:Middlewares/ST/STM32_USB_Host_Library/Core/Src/usbh_core.c ****           phost->gState = HOST_ABORT_STATE;
 702:Middlewares/ST/STM32_USB_Host_Library/Core/Src/usbh_core.c ****           USBH_UsrLog("No registered class for this device.");
 703:Middlewares/ST/STM32_USB_Host_Library/Core/Src/usbh_core.c ****         }
 704:Middlewares/ST/STM32_USB_Host_Library/Core/Src/usbh_core.c ****       }
 705:Middlewares/ST/STM32_USB_Host_Library/Core/Src/usbh_core.c **** 
 706:Middlewares/ST/STM32_USB_Host_Library/Core/Src/usbh_core.c **** #if (USBH_USE_OS == 1U)
 707:Middlewares/ST/STM32_USB_Host_Library/Core/Src/usbh_core.c ****       USBH_OS_PutMessage(phost, USBH_STATE_CHANGED_EVENT, 0U, 0U);
 708:Middlewares/ST/STM32_USB_Host_Library/Core/Src/usbh_core.c **** #endif /* (USBH_USE_OS == 1U) */
 709:Middlewares/ST/STM32_USB_Host_Library/Core/Src/usbh_core.c ****       break;
 710:Middlewares/ST/STM32_USB_Host_Library/Core/Src/usbh_core.c **** 
 711:Middlewares/ST/STM32_USB_Host_Library/Core/Src/usbh_core.c ****     case HOST_CLASS_REQUEST:
 712:Middlewares/ST/STM32_USB_Host_Library/Core/Src/usbh_core.c ****       /* process class standard control requests state machine */
 713:Middlewares/ST/STM32_USB_Host_Library/Core/Src/usbh_core.c ****       if (phost->pActiveClass != NULL)
 714:Middlewares/ST/STM32_USB_Host_Library/Core/Src/usbh_core.c ****       {
ARM GAS  /tmp/ccDyhIXb.s 			page 14


 715:Middlewares/ST/STM32_USB_Host_Library/Core/Src/usbh_core.c ****         status = phost->pActiveClass->Requests(phost);
 716:Middlewares/ST/STM32_USB_Host_Library/Core/Src/usbh_core.c **** 
 717:Middlewares/ST/STM32_USB_Host_Library/Core/Src/usbh_core.c ****         if (status == USBH_OK)
 718:Middlewares/ST/STM32_USB_Host_Library/Core/Src/usbh_core.c ****         {
 719:Middlewares/ST/STM32_USB_Host_Library/Core/Src/usbh_core.c ****           phost->gState = HOST_CLASS;
 720:Middlewares/ST/STM32_USB_Host_Library/Core/Src/usbh_core.c ****         }
 721:Middlewares/ST/STM32_USB_Host_Library/Core/Src/usbh_core.c ****         else if (status == USBH_FAIL)
 722:Middlewares/ST/STM32_USB_Host_Library/Core/Src/usbh_core.c ****         {
 723:Middlewares/ST/STM32_USB_Host_Library/Core/Src/usbh_core.c ****           phost->gState = HOST_ABORT_STATE;
 724:Middlewares/ST/STM32_USB_Host_Library/Core/Src/usbh_core.c ****           USBH_ErrLog("Device not responding Please Unplug.");
 725:Middlewares/ST/STM32_USB_Host_Library/Core/Src/usbh_core.c ****         }
 726:Middlewares/ST/STM32_USB_Host_Library/Core/Src/usbh_core.c ****         else
 727:Middlewares/ST/STM32_USB_Host_Library/Core/Src/usbh_core.c ****         {
 728:Middlewares/ST/STM32_USB_Host_Library/Core/Src/usbh_core.c ****           /* .. */
 729:Middlewares/ST/STM32_USB_Host_Library/Core/Src/usbh_core.c ****         }
 730:Middlewares/ST/STM32_USB_Host_Library/Core/Src/usbh_core.c ****       }
 731:Middlewares/ST/STM32_USB_Host_Library/Core/Src/usbh_core.c ****       else
 732:Middlewares/ST/STM32_USB_Host_Library/Core/Src/usbh_core.c ****       {
 733:Middlewares/ST/STM32_USB_Host_Library/Core/Src/usbh_core.c ****         phost->gState = HOST_ABORT_STATE;
 734:Middlewares/ST/STM32_USB_Host_Library/Core/Src/usbh_core.c ****         USBH_ErrLog("Invalid Class Driver.");
 735:Middlewares/ST/STM32_USB_Host_Library/Core/Src/usbh_core.c ****       }
 736:Middlewares/ST/STM32_USB_Host_Library/Core/Src/usbh_core.c **** 
 737:Middlewares/ST/STM32_USB_Host_Library/Core/Src/usbh_core.c **** #if (USBH_USE_OS == 1U)
 738:Middlewares/ST/STM32_USB_Host_Library/Core/Src/usbh_core.c ****         USBH_OS_PutMessage(phost, USBH_STATE_CHANGED_EVENT, 0U, 0U);
 739:Middlewares/ST/STM32_USB_Host_Library/Core/Src/usbh_core.c **** #endif /* (USBH_USE_OS == 1U) */
 740:Middlewares/ST/STM32_USB_Host_Library/Core/Src/usbh_core.c ****       break;
 741:Middlewares/ST/STM32_USB_Host_Library/Core/Src/usbh_core.c **** 
 742:Middlewares/ST/STM32_USB_Host_Library/Core/Src/usbh_core.c ****     case HOST_CLASS:
 743:Middlewares/ST/STM32_USB_Host_Library/Core/Src/usbh_core.c ****       /* process class state machine */
 744:Middlewares/ST/STM32_USB_Host_Library/Core/Src/usbh_core.c ****       if (phost->pActiveClass != NULL)
 745:Middlewares/ST/STM32_USB_Host_Library/Core/Src/usbh_core.c ****       {
 746:Middlewares/ST/STM32_USB_Host_Library/Core/Src/usbh_core.c ****         phost->pActiveClass->BgndProcess(phost);
 747:Middlewares/ST/STM32_USB_Host_Library/Core/Src/usbh_core.c ****       }
 748:Middlewares/ST/STM32_USB_Host_Library/Core/Src/usbh_core.c ****       break;
 749:Middlewares/ST/STM32_USB_Host_Library/Core/Src/usbh_core.c **** 
 750:Middlewares/ST/STM32_USB_Host_Library/Core/Src/usbh_core.c ****     case HOST_DEV_DISCONNECTED :
 751:Middlewares/ST/STM32_USB_Host_Library/Core/Src/usbh_core.c ****       phost->device.is_disconnected = 0U;
 752:Middlewares/ST/STM32_USB_Host_Library/Core/Src/usbh_core.c **** 
 753:Middlewares/ST/STM32_USB_Host_Library/Core/Src/usbh_core.c ****       (void)DeInitStateMachine(phost);
 754:Middlewares/ST/STM32_USB_Host_Library/Core/Src/usbh_core.c **** 
 755:Middlewares/ST/STM32_USB_Host_Library/Core/Src/usbh_core.c ****       /* Re-Initilaize Host for new Enumeration */
 756:Middlewares/ST/STM32_USB_Host_Library/Core/Src/usbh_core.c ****       if (phost->pActiveClass != NULL)
 757:Middlewares/ST/STM32_USB_Host_Library/Core/Src/usbh_core.c ****       {
 758:Middlewares/ST/STM32_USB_Host_Library/Core/Src/usbh_core.c ****         phost->pActiveClass->DeInit(phost);
 759:Middlewares/ST/STM32_USB_Host_Library/Core/Src/usbh_core.c ****         phost->pActiveClass = NULL;
 760:Middlewares/ST/STM32_USB_Host_Library/Core/Src/usbh_core.c ****       }
 761:Middlewares/ST/STM32_USB_Host_Library/Core/Src/usbh_core.c **** 
 762:Middlewares/ST/STM32_USB_Host_Library/Core/Src/usbh_core.c ****       if (phost->pUser != NULL)
 763:Middlewares/ST/STM32_USB_Host_Library/Core/Src/usbh_core.c ****       {
 764:Middlewares/ST/STM32_USB_Host_Library/Core/Src/usbh_core.c ****         phost->pUser(phost, HOST_USER_DISCONNECTION);
 765:Middlewares/ST/STM32_USB_Host_Library/Core/Src/usbh_core.c ****       }
 766:Middlewares/ST/STM32_USB_Host_Library/Core/Src/usbh_core.c ****       USBH_UsrLog("USB Device disconnected");
 767:Middlewares/ST/STM32_USB_Host_Library/Core/Src/usbh_core.c **** 
 768:Middlewares/ST/STM32_USB_Host_Library/Core/Src/usbh_core.c ****       if (phost->device.is_ReEnumerated == 1U)
 769:Middlewares/ST/STM32_USB_Host_Library/Core/Src/usbh_core.c ****       {
 770:Middlewares/ST/STM32_USB_Host_Library/Core/Src/usbh_core.c ****         phost->device.is_ReEnumerated = 0U;
 771:Middlewares/ST/STM32_USB_Host_Library/Core/Src/usbh_core.c **** 
ARM GAS  /tmp/ccDyhIXb.s 			page 15


 772:Middlewares/ST/STM32_USB_Host_Library/Core/Src/usbh_core.c ****         /* Start the host and re-enable Vbus */
 773:Middlewares/ST/STM32_USB_Host_Library/Core/Src/usbh_core.c ****         (void)USBH_Start(phost);
 774:Middlewares/ST/STM32_USB_Host_Library/Core/Src/usbh_core.c ****       }
 775:Middlewares/ST/STM32_USB_Host_Library/Core/Src/usbh_core.c ****       else
 776:Middlewares/ST/STM32_USB_Host_Library/Core/Src/usbh_core.c ****       {
 777:Middlewares/ST/STM32_USB_Host_Library/Core/Src/usbh_core.c ****         /* Device Disconnection Completed, start USB Driver */
 778:Middlewares/ST/STM32_USB_Host_Library/Core/Src/usbh_core.c ****         (void)USBH_LL_Start(phost);
 779:Middlewares/ST/STM32_USB_Host_Library/Core/Src/usbh_core.c ****       }
 780:Middlewares/ST/STM32_USB_Host_Library/Core/Src/usbh_core.c **** 
 781:Middlewares/ST/STM32_USB_Host_Library/Core/Src/usbh_core.c **** #if (USBH_USE_OS == 1U)
 782:Middlewares/ST/STM32_USB_Host_Library/Core/Src/usbh_core.c ****       USBH_OS_PutMessage(phost, USBH_PORT_EVENT, 0U, 0U);
 783:Middlewares/ST/STM32_USB_Host_Library/Core/Src/usbh_core.c **** #endif /* (USBH_USE_OS == 1U) */
 784:Middlewares/ST/STM32_USB_Host_Library/Core/Src/usbh_core.c ****       break;
 785:Middlewares/ST/STM32_USB_Host_Library/Core/Src/usbh_core.c **** 
 786:Middlewares/ST/STM32_USB_Host_Library/Core/Src/usbh_core.c ****     case HOST_ABORT_STATE:
 787:Middlewares/ST/STM32_USB_Host_Library/Core/Src/usbh_core.c ****     default :
 788:Middlewares/ST/STM32_USB_Host_Library/Core/Src/usbh_core.c ****       break;
 789:Middlewares/ST/STM32_USB_Host_Library/Core/Src/usbh_core.c ****   }
 790:Middlewares/ST/STM32_USB_Host_Library/Core/Src/usbh_core.c ****   return USBH_OK;
 791:Middlewares/ST/STM32_USB_Host_Library/Core/Src/usbh_core.c **** }
 792:Middlewares/ST/STM32_USB_Host_Library/Core/Src/usbh_core.c **** 
 793:Middlewares/ST/STM32_USB_Host_Library/Core/Src/usbh_core.c **** 
 794:Middlewares/ST/STM32_USB_Host_Library/Core/Src/usbh_core.c **** /**
 795:Middlewares/ST/STM32_USB_Host_Library/Core/Src/usbh_core.c ****   * @brief  USBH_HandleEnum
 796:Middlewares/ST/STM32_USB_Host_Library/Core/Src/usbh_core.c ****   *         This function includes the complete enumeration process
 797:Middlewares/ST/STM32_USB_Host_Library/Core/Src/usbh_core.c ****   * @param  phost: Host Handle
 798:Middlewares/ST/STM32_USB_Host_Library/Core/Src/usbh_core.c ****   * @retval USBH_Status
 799:Middlewares/ST/STM32_USB_Host_Library/Core/Src/usbh_core.c ****   */
 800:Middlewares/ST/STM32_USB_Host_Library/Core/Src/usbh_core.c **** static USBH_StatusTypeDef USBH_HandleEnum(USBH_HandleTypeDef *phost)
 801:Middlewares/ST/STM32_USB_Host_Library/Core/Src/usbh_core.c **** {
 802:Middlewares/ST/STM32_USB_Host_Library/Core/Src/usbh_core.c ****   USBH_StatusTypeDef Status = USBH_BUSY;
 803:Middlewares/ST/STM32_USB_Host_Library/Core/Src/usbh_core.c ****   USBH_StatusTypeDef ReqStatus = USBH_BUSY;
 804:Middlewares/ST/STM32_USB_Host_Library/Core/Src/usbh_core.c **** 
 805:Middlewares/ST/STM32_USB_Host_Library/Core/Src/usbh_core.c ****   switch (phost->EnumState)
 806:Middlewares/ST/STM32_USB_Host_Library/Core/Src/usbh_core.c ****   {
 807:Middlewares/ST/STM32_USB_Host_Library/Core/Src/usbh_core.c ****     case ENUM_IDLE:
 808:Middlewares/ST/STM32_USB_Host_Library/Core/Src/usbh_core.c ****       /* Get Device Desc for only 1st 8 bytes : To get EP0 MaxPacketSize */
 809:Middlewares/ST/STM32_USB_Host_Library/Core/Src/usbh_core.c ****       ReqStatus = USBH_Get_DevDesc(phost, 8U);
 810:Middlewares/ST/STM32_USB_Host_Library/Core/Src/usbh_core.c ****       if (ReqStatus == USBH_OK)
 811:Middlewares/ST/STM32_USB_Host_Library/Core/Src/usbh_core.c ****       {
 812:Middlewares/ST/STM32_USB_Host_Library/Core/Src/usbh_core.c ****         phost->Control.pipe_size = phost->device.DevDesc.bMaxPacketSize;
 813:Middlewares/ST/STM32_USB_Host_Library/Core/Src/usbh_core.c **** 
 814:Middlewares/ST/STM32_USB_Host_Library/Core/Src/usbh_core.c ****         phost->EnumState = ENUM_GET_FULL_DEV_DESC;
 815:Middlewares/ST/STM32_USB_Host_Library/Core/Src/usbh_core.c **** 
 816:Middlewares/ST/STM32_USB_Host_Library/Core/Src/usbh_core.c ****         /* modify control channels configuration for MaxPacket size */
 817:Middlewares/ST/STM32_USB_Host_Library/Core/Src/usbh_core.c ****         (void)USBH_OpenPipe(phost, phost->Control.pipe_in, 0x80U, phost->device.address,
 818:Middlewares/ST/STM32_USB_Host_Library/Core/Src/usbh_core.c ****                             phost->device.speed, USBH_EP_CONTROL,
 819:Middlewares/ST/STM32_USB_Host_Library/Core/Src/usbh_core.c ****                             (uint16_t)phost->Control.pipe_size);
 820:Middlewares/ST/STM32_USB_Host_Library/Core/Src/usbh_core.c **** 
 821:Middlewares/ST/STM32_USB_Host_Library/Core/Src/usbh_core.c ****         /* Open Control pipes */
 822:Middlewares/ST/STM32_USB_Host_Library/Core/Src/usbh_core.c ****         (void)USBH_OpenPipe(phost, phost->Control.pipe_out, 0x00U, phost->device.address,
 823:Middlewares/ST/STM32_USB_Host_Library/Core/Src/usbh_core.c ****                             phost->device.speed, USBH_EP_CONTROL,
 824:Middlewares/ST/STM32_USB_Host_Library/Core/Src/usbh_core.c ****                             (uint16_t)phost->Control.pipe_size);
 825:Middlewares/ST/STM32_USB_Host_Library/Core/Src/usbh_core.c ****       }
 826:Middlewares/ST/STM32_USB_Host_Library/Core/Src/usbh_core.c ****       else if (ReqStatus == USBH_NOT_SUPPORTED)
 827:Middlewares/ST/STM32_USB_Host_Library/Core/Src/usbh_core.c ****       {
 828:Middlewares/ST/STM32_USB_Host_Library/Core/Src/usbh_core.c ****         USBH_ErrLog("Control error: Get Device Descriptor request failed");
ARM GAS  /tmp/ccDyhIXb.s 			page 16


 829:Middlewares/ST/STM32_USB_Host_Library/Core/Src/usbh_core.c ****         phost->device.EnumCnt++;
 830:Middlewares/ST/STM32_USB_Host_Library/Core/Src/usbh_core.c ****         if (phost->device.EnumCnt > 3U)
 831:Middlewares/ST/STM32_USB_Host_Library/Core/Src/usbh_core.c ****         {
 832:Middlewares/ST/STM32_USB_Host_Library/Core/Src/usbh_core.c ****           /* Buggy Device can't complete get device desc request */
 833:Middlewares/ST/STM32_USB_Host_Library/Core/Src/usbh_core.c ****           USBH_UsrLog("Control error, Device not Responding Please unplug the Device.");
 834:Middlewares/ST/STM32_USB_Host_Library/Core/Src/usbh_core.c ****           phost->gState = HOST_ABORT_STATE;
 835:Middlewares/ST/STM32_USB_Host_Library/Core/Src/usbh_core.c ****         }
 836:Middlewares/ST/STM32_USB_Host_Library/Core/Src/usbh_core.c ****         else
 837:Middlewares/ST/STM32_USB_Host_Library/Core/Src/usbh_core.c ****         {
 838:Middlewares/ST/STM32_USB_Host_Library/Core/Src/usbh_core.c ****           /* free control pipes */
 839:Middlewares/ST/STM32_USB_Host_Library/Core/Src/usbh_core.c ****           (void)USBH_FreePipe(phost, phost->Control.pipe_out);
 840:Middlewares/ST/STM32_USB_Host_Library/Core/Src/usbh_core.c ****           (void)USBH_FreePipe(phost, phost->Control.pipe_in);
 841:Middlewares/ST/STM32_USB_Host_Library/Core/Src/usbh_core.c **** 
 842:Middlewares/ST/STM32_USB_Host_Library/Core/Src/usbh_core.c ****           /* Reset the USB Device */
 843:Middlewares/ST/STM32_USB_Host_Library/Core/Src/usbh_core.c ****           phost->gState = HOST_IDLE;
 844:Middlewares/ST/STM32_USB_Host_Library/Core/Src/usbh_core.c ****         }
 845:Middlewares/ST/STM32_USB_Host_Library/Core/Src/usbh_core.c ****       }
 846:Middlewares/ST/STM32_USB_Host_Library/Core/Src/usbh_core.c ****       else
 847:Middlewares/ST/STM32_USB_Host_Library/Core/Src/usbh_core.c ****       {
 848:Middlewares/ST/STM32_USB_Host_Library/Core/Src/usbh_core.c ****         /* .. */
 849:Middlewares/ST/STM32_USB_Host_Library/Core/Src/usbh_core.c ****       }
 850:Middlewares/ST/STM32_USB_Host_Library/Core/Src/usbh_core.c ****       break;
 851:Middlewares/ST/STM32_USB_Host_Library/Core/Src/usbh_core.c **** 
 852:Middlewares/ST/STM32_USB_Host_Library/Core/Src/usbh_core.c ****     case ENUM_GET_FULL_DEV_DESC:
 853:Middlewares/ST/STM32_USB_Host_Library/Core/Src/usbh_core.c ****       /* Get FULL Device Desc  */
 854:Middlewares/ST/STM32_USB_Host_Library/Core/Src/usbh_core.c ****       ReqStatus = USBH_Get_DevDesc(phost, USB_DEVICE_DESC_SIZE);
 855:Middlewares/ST/STM32_USB_Host_Library/Core/Src/usbh_core.c ****       if (ReqStatus == USBH_OK)
 856:Middlewares/ST/STM32_USB_Host_Library/Core/Src/usbh_core.c ****       {
 857:Middlewares/ST/STM32_USB_Host_Library/Core/Src/usbh_core.c ****         USBH_UsrLog("PID: %xh", phost->device.DevDesc.idProduct);
 858:Middlewares/ST/STM32_USB_Host_Library/Core/Src/usbh_core.c ****         USBH_UsrLog("VID: %xh", phost->device.DevDesc.idVendor);
 859:Middlewares/ST/STM32_USB_Host_Library/Core/Src/usbh_core.c **** 
 860:Middlewares/ST/STM32_USB_Host_Library/Core/Src/usbh_core.c ****         phost->EnumState = ENUM_SET_ADDR;
 861:Middlewares/ST/STM32_USB_Host_Library/Core/Src/usbh_core.c ****       }
 862:Middlewares/ST/STM32_USB_Host_Library/Core/Src/usbh_core.c ****       else if (ReqStatus == USBH_NOT_SUPPORTED)
 863:Middlewares/ST/STM32_USB_Host_Library/Core/Src/usbh_core.c ****       {
 864:Middlewares/ST/STM32_USB_Host_Library/Core/Src/usbh_core.c ****         USBH_ErrLog("Control error: Get Full Device Descriptor request failed");
 865:Middlewares/ST/STM32_USB_Host_Library/Core/Src/usbh_core.c ****         phost->device.EnumCnt++;
 866:Middlewares/ST/STM32_USB_Host_Library/Core/Src/usbh_core.c ****         if (phost->device.EnumCnt > 3U)
 867:Middlewares/ST/STM32_USB_Host_Library/Core/Src/usbh_core.c ****         {
 868:Middlewares/ST/STM32_USB_Host_Library/Core/Src/usbh_core.c ****           /* Buggy Device can't complete get device desc request */
 869:Middlewares/ST/STM32_USB_Host_Library/Core/Src/usbh_core.c ****           USBH_UsrLog("Control error, Device not Responding Please unplug the Device.");
 870:Middlewares/ST/STM32_USB_Host_Library/Core/Src/usbh_core.c ****           phost->gState = HOST_ABORT_STATE;
 871:Middlewares/ST/STM32_USB_Host_Library/Core/Src/usbh_core.c ****         }
 872:Middlewares/ST/STM32_USB_Host_Library/Core/Src/usbh_core.c ****         else
 873:Middlewares/ST/STM32_USB_Host_Library/Core/Src/usbh_core.c ****         {
 874:Middlewares/ST/STM32_USB_Host_Library/Core/Src/usbh_core.c ****           /* Free control pipes */
 875:Middlewares/ST/STM32_USB_Host_Library/Core/Src/usbh_core.c ****           (void)USBH_FreePipe(phost, phost->Control.pipe_out);
 876:Middlewares/ST/STM32_USB_Host_Library/Core/Src/usbh_core.c ****           (void)USBH_FreePipe(phost, phost->Control.pipe_in);
 877:Middlewares/ST/STM32_USB_Host_Library/Core/Src/usbh_core.c **** 
 878:Middlewares/ST/STM32_USB_Host_Library/Core/Src/usbh_core.c ****           /* Reset the USB Device */
 879:Middlewares/ST/STM32_USB_Host_Library/Core/Src/usbh_core.c ****           phost->EnumState = ENUM_IDLE;
 880:Middlewares/ST/STM32_USB_Host_Library/Core/Src/usbh_core.c ****           phost->gState = HOST_IDLE;
 881:Middlewares/ST/STM32_USB_Host_Library/Core/Src/usbh_core.c ****         }
 882:Middlewares/ST/STM32_USB_Host_Library/Core/Src/usbh_core.c ****       }
 883:Middlewares/ST/STM32_USB_Host_Library/Core/Src/usbh_core.c ****       else
 884:Middlewares/ST/STM32_USB_Host_Library/Core/Src/usbh_core.c ****       {
 885:Middlewares/ST/STM32_USB_Host_Library/Core/Src/usbh_core.c ****         /* .. */
ARM GAS  /tmp/ccDyhIXb.s 			page 17


 886:Middlewares/ST/STM32_USB_Host_Library/Core/Src/usbh_core.c ****       }
 887:Middlewares/ST/STM32_USB_Host_Library/Core/Src/usbh_core.c ****       break;
 888:Middlewares/ST/STM32_USB_Host_Library/Core/Src/usbh_core.c **** 
 889:Middlewares/ST/STM32_USB_Host_Library/Core/Src/usbh_core.c ****     case ENUM_SET_ADDR:
 890:Middlewares/ST/STM32_USB_Host_Library/Core/Src/usbh_core.c ****       /* set address */
 891:Middlewares/ST/STM32_USB_Host_Library/Core/Src/usbh_core.c ****       ReqStatus = USBH_SetAddress(phost, USBH_DEVICE_ADDRESS);
 892:Middlewares/ST/STM32_USB_Host_Library/Core/Src/usbh_core.c ****       if (ReqStatus == USBH_OK)
 893:Middlewares/ST/STM32_USB_Host_Library/Core/Src/usbh_core.c ****       {
 894:Middlewares/ST/STM32_USB_Host_Library/Core/Src/usbh_core.c ****         USBH_Delay(2U);
 895:Middlewares/ST/STM32_USB_Host_Library/Core/Src/usbh_core.c ****         phost->device.address = USBH_DEVICE_ADDRESS;
 896:Middlewares/ST/STM32_USB_Host_Library/Core/Src/usbh_core.c **** 
 897:Middlewares/ST/STM32_USB_Host_Library/Core/Src/usbh_core.c ****         /* user callback for device address assigned */
 898:Middlewares/ST/STM32_USB_Host_Library/Core/Src/usbh_core.c ****         USBH_UsrLog("Address (#%d) assigned.", phost->device.address);
 899:Middlewares/ST/STM32_USB_Host_Library/Core/Src/usbh_core.c ****         phost->EnumState = ENUM_GET_CFG_DESC;
 900:Middlewares/ST/STM32_USB_Host_Library/Core/Src/usbh_core.c **** 
 901:Middlewares/ST/STM32_USB_Host_Library/Core/Src/usbh_core.c ****         /* modify control channels to update device address */
 902:Middlewares/ST/STM32_USB_Host_Library/Core/Src/usbh_core.c ****         (void)USBH_OpenPipe(phost, phost->Control.pipe_in, 0x80U,  phost->device.address,
 903:Middlewares/ST/STM32_USB_Host_Library/Core/Src/usbh_core.c ****                             phost->device.speed, USBH_EP_CONTROL,
 904:Middlewares/ST/STM32_USB_Host_Library/Core/Src/usbh_core.c ****                             (uint16_t)phost->Control.pipe_size);
 905:Middlewares/ST/STM32_USB_Host_Library/Core/Src/usbh_core.c **** 
 906:Middlewares/ST/STM32_USB_Host_Library/Core/Src/usbh_core.c ****         /* Open Control pipes */
 907:Middlewares/ST/STM32_USB_Host_Library/Core/Src/usbh_core.c ****         (void)USBH_OpenPipe(phost, phost->Control.pipe_out, 0x00U, phost->device.address,
 908:Middlewares/ST/STM32_USB_Host_Library/Core/Src/usbh_core.c ****                             phost->device.speed, USBH_EP_CONTROL,
 909:Middlewares/ST/STM32_USB_Host_Library/Core/Src/usbh_core.c ****                             (uint16_t)phost->Control.pipe_size);
 910:Middlewares/ST/STM32_USB_Host_Library/Core/Src/usbh_core.c ****       }
 911:Middlewares/ST/STM32_USB_Host_Library/Core/Src/usbh_core.c ****       else if (ReqStatus == USBH_NOT_SUPPORTED)
 912:Middlewares/ST/STM32_USB_Host_Library/Core/Src/usbh_core.c ****       {
 913:Middlewares/ST/STM32_USB_Host_Library/Core/Src/usbh_core.c ****         USBH_ErrLog("Control error: Device Set Address request failed");
 914:Middlewares/ST/STM32_USB_Host_Library/Core/Src/usbh_core.c **** 
 915:Middlewares/ST/STM32_USB_Host_Library/Core/Src/usbh_core.c ****         /* Buggy Device can't complete get device desc request */
 916:Middlewares/ST/STM32_USB_Host_Library/Core/Src/usbh_core.c ****         USBH_UsrLog("Control error, Device not Responding Please unplug the Device.");
 917:Middlewares/ST/STM32_USB_Host_Library/Core/Src/usbh_core.c ****         phost->gState = HOST_ABORT_STATE;
 918:Middlewares/ST/STM32_USB_Host_Library/Core/Src/usbh_core.c ****         phost->EnumState = ENUM_IDLE;
 919:Middlewares/ST/STM32_USB_Host_Library/Core/Src/usbh_core.c ****       }
 920:Middlewares/ST/STM32_USB_Host_Library/Core/Src/usbh_core.c ****       else
 921:Middlewares/ST/STM32_USB_Host_Library/Core/Src/usbh_core.c ****       {
 922:Middlewares/ST/STM32_USB_Host_Library/Core/Src/usbh_core.c ****         /* .. */
 923:Middlewares/ST/STM32_USB_Host_Library/Core/Src/usbh_core.c ****       }
 924:Middlewares/ST/STM32_USB_Host_Library/Core/Src/usbh_core.c ****       break;
 925:Middlewares/ST/STM32_USB_Host_Library/Core/Src/usbh_core.c **** 
 926:Middlewares/ST/STM32_USB_Host_Library/Core/Src/usbh_core.c ****     case ENUM_GET_CFG_DESC:
 927:Middlewares/ST/STM32_USB_Host_Library/Core/Src/usbh_core.c ****       /* get standard configuration descriptor */
 928:Middlewares/ST/STM32_USB_Host_Library/Core/Src/usbh_core.c ****       ReqStatus = USBH_Get_CfgDesc(phost, USB_CONFIGURATION_DESC_SIZE);
 929:Middlewares/ST/STM32_USB_Host_Library/Core/Src/usbh_core.c ****       if (ReqStatus == USBH_OK)
 930:Middlewares/ST/STM32_USB_Host_Library/Core/Src/usbh_core.c ****       {
 931:Middlewares/ST/STM32_USB_Host_Library/Core/Src/usbh_core.c ****         phost->EnumState = ENUM_GET_FULL_CFG_DESC;
 932:Middlewares/ST/STM32_USB_Host_Library/Core/Src/usbh_core.c ****       }
 933:Middlewares/ST/STM32_USB_Host_Library/Core/Src/usbh_core.c ****       else if (ReqStatus == USBH_NOT_SUPPORTED)
 934:Middlewares/ST/STM32_USB_Host_Library/Core/Src/usbh_core.c ****       {
 935:Middlewares/ST/STM32_USB_Host_Library/Core/Src/usbh_core.c ****         USBH_ErrLog("Control error: Get Device configuration descriptor request failed");
 936:Middlewares/ST/STM32_USB_Host_Library/Core/Src/usbh_core.c ****         phost->device.EnumCnt++;
 937:Middlewares/ST/STM32_USB_Host_Library/Core/Src/usbh_core.c ****         if (phost->device.EnumCnt > 3U)
 938:Middlewares/ST/STM32_USB_Host_Library/Core/Src/usbh_core.c ****         {
 939:Middlewares/ST/STM32_USB_Host_Library/Core/Src/usbh_core.c ****           /* Buggy Device can't complete get device desc request */
 940:Middlewares/ST/STM32_USB_Host_Library/Core/Src/usbh_core.c ****           USBH_UsrLog("Control error, Device not Responding Please unplug the Device.");
 941:Middlewares/ST/STM32_USB_Host_Library/Core/Src/usbh_core.c ****           phost->gState = HOST_ABORT_STATE;
 942:Middlewares/ST/STM32_USB_Host_Library/Core/Src/usbh_core.c ****         }
ARM GAS  /tmp/ccDyhIXb.s 			page 18


 943:Middlewares/ST/STM32_USB_Host_Library/Core/Src/usbh_core.c ****         else
 944:Middlewares/ST/STM32_USB_Host_Library/Core/Src/usbh_core.c ****         {
 945:Middlewares/ST/STM32_USB_Host_Library/Core/Src/usbh_core.c ****           /* Free control pipes */
 946:Middlewares/ST/STM32_USB_Host_Library/Core/Src/usbh_core.c ****           (void)USBH_FreePipe(phost, phost->Control.pipe_out);
 947:Middlewares/ST/STM32_USB_Host_Library/Core/Src/usbh_core.c ****           (void)USBH_FreePipe(phost, phost->Control.pipe_in);
 948:Middlewares/ST/STM32_USB_Host_Library/Core/Src/usbh_core.c **** 
 949:Middlewares/ST/STM32_USB_Host_Library/Core/Src/usbh_core.c ****           /* Reset the USB Device */
 950:Middlewares/ST/STM32_USB_Host_Library/Core/Src/usbh_core.c ****           phost->EnumState = ENUM_IDLE;
 951:Middlewares/ST/STM32_USB_Host_Library/Core/Src/usbh_core.c ****           phost->gState = HOST_IDLE;
 952:Middlewares/ST/STM32_USB_Host_Library/Core/Src/usbh_core.c ****         }
 953:Middlewares/ST/STM32_USB_Host_Library/Core/Src/usbh_core.c ****       }
 954:Middlewares/ST/STM32_USB_Host_Library/Core/Src/usbh_core.c ****       else
 955:Middlewares/ST/STM32_USB_Host_Library/Core/Src/usbh_core.c ****       {
 956:Middlewares/ST/STM32_USB_Host_Library/Core/Src/usbh_core.c ****         /* .. */
 957:Middlewares/ST/STM32_USB_Host_Library/Core/Src/usbh_core.c ****       }
 958:Middlewares/ST/STM32_USB_Host_Library/Core/Src/usbh_core.c ****       break;
 959:Middlewares/ST/STM32_USB_Host_Library/Core/Src/usbh_core.c **** 
 960:Middlewares/ST/STM32_USB_Host_Library/Core/Src/usbh_core.c ****     case ENUM_GET_FULL_CFG_DESC:
 961:Middlewares/ST/STM32_USB_Host_Library/Core/Src/usbh_core.c ****       /* get FULL config descriptor (config, interface, endpoints) */
 962:Middlewares/ST/STM32_USB_Host_Library/Core/Src/usbh_core.c ****       ReqStatus = USBH_Get_CfgDesc(phost, phost->device.CfgDesc.wTotalLength);
 963:Middlewares/ST/STM32_USB_Host_Library/Core/Src/usbh_core.c ****       if (ReqStatus == USBH_OK)
 964:Middlewares/ST/STM32_USB_Host_Library/Core/Src/usbh_core.c ****       {
 965:Middlewares/ST/STM32_USB_Host_Library/Core/Src/usbh_core.c ****         phost->EnumState = ENUM_GET_MFC_STRING_DESC;
 966:Middlewares/ST/STM32_USB_Host_Library/Core/Src/usbh_core.c ****       }
 967:Middlewares/ST/STM32_USB_Host_Library/Core/Src/usbh_core.c ****       else if (ReqStatus == USBH_NOT_SUPPORTED)
 968:Middlewares/ST/STM32_USB_Host_Library/Core/Src/usbh_core.c ****       {
 969:Middlewares/ST/STM32_USB_Host_Library/Core/Src/usbh_core.c ****         USBH_ErrLog("Control error: Get Device configuration descriptor request failed");
 970:Middlewares/ST/STM32_USB_Host_Library/Core/Src/usbh_core.c ****         phost->device.EnumCnt++;
 971:Middlewares/ST/STM32_USB_Host_Library/Core/Src/usbh_core.c ****         if (phost->device.EnumCnt > 3U)
 972:Middlewares/ST/STM32_USB_Host_Library/Core/Src/usbh_core.c ****         {
 973:Middlewares/ST/STM32_USB_Host_Library/Core/Src/usbh_core.c ****           /* Buggy Device can't complete get device desc request */
 974:Middlewares/ST/STM32_USB_Host_Library/Core/Src/usbh_core.c ****           USBH_UsrLog("Control error, Device not Responding Please unplug the Device.");
 975:Middlewares/ST/STM32_USB_Host_Library/Core/Src/usbh_core.c ****           phost->gState = HOST_ABORT_STATE;
 976:Middlewares/ST/STM32_USB_Host_Library/Core/Src/usbh_core.c ****         }
 977:Middlewares/ST/STM32_USB_Host_Library/Core/Src/usbh_core.c ****         else
 978:Middlewares/ST/STM32_USB_Host_Library/Core/Src/usbh_core.c ****         {
 979:Middlewares/ST/STM32_USB_Host_Library/Core/Src/usbh_core.c ****           /* Free control pipes */
 980:Middlewares/ST/STM32_USB_Host_Library/Core/Src/usbh_core.c ****           (void)USBH_FreePipe(phost, phost->Control.pipe_out);
 981:Middlewares/ST/STM32_USB_Host_Library/Core/Src/usbh_core.c ****           (void)USBH_FreePipe(phost, phost->Control.pipe_in);
 982:Middlewares/ST/STM32_USB_Host_Library/Core/Src/usbh_core.c **** 
 983:Middlewares/ST/STM32_USB_Host_Library/Core/Src/usbh_core.c ****           /* Reset the USB Device */
 984:Middlewares/ST/STM32_USB_Host_Library/Core/Src/usbh_core.c ****           phost->EnumState = ENUM_IDLE;
 985:Middlewares/ST/STM32_USB_Host_Library/Core/Src/usbh_core.c ****           phost->gState = HOST_IDLE;
 986:Middlewares/ST/STM32_USB_Host_Library/Core/Src/usbh_core.c ****         }
 987:Middlewares/ST/STM32_USB_Host_Library/Core/Src/usbh_core.c ****       }
 988:Middlewares/ST/STM32_USB_Host_Library/Core/Src/usbh_core.c ****       else
 989:Middlewares/ST/STM32_USB_Host_Library/Core/Src/usbh_core.c ****       {
 990:Middlewares/ST/STM32_USB_Host_Library/Core/Src/usbh_core.c ****         /* .. */
 991:Middlewares/ST/STM32_USB_Host_Library/Core/Src/usbh_core.c ****       }
 992:Middlewares/ST/STM32_USB_Host_Library/Core/Src/usbh_core.c ****       break;
 993:Middlewares/ST/STM32_USB_Host_Library/Core/Src/usbh_core.c **** 
 994:Middlewares/ST/STM32_USB_Host_Library/Core/Src/usbh_core.c ****     case ENUM_GET_MFC_STRING_DESC:
 995:Middlewares/ST/STM32_USB_Host_Library/Core/Src/usbh_core.c ****       if (phost->device.DevDesc.iManufacturer != 0U)
 996:Middlewares/ST/STM32_USB_Host_Library/Core/Src/usbh_core.c ****       {
 997:Middlewares/ST/STM32_USB_Host_Library/Core/Src/usbh_core.c ****         /* Check that Manufacturer String is available */
 998:Middlewares/ST/STM32_USB_Host_Library/Core/Src/usbh_core.c ****         ReqStatus = USBH_Get_StringDesc(phost, phost->device.DevDesc.iManufacturer,
 999:Middlewares/ST/STM32_USB_Host_Library/Core/Src/usbh_core.c ****                                         phost->device.Data, 0xFFU);
ARM GAS  /tmp/ccDyhIXb.s 			page 19


1000:Middlewares/ST/STM32_USB_Host_Library/Core/Src/usbh_core.c ****         if (ReqStatus == USBH_OK)
1001:Middlewares/ST/STM32_USB_Host_Library/Core/Src/usbh_core.c ****         {
1002:Middlewares/ST/STM32_USB_Host_Library/Core/Src/usbh_core.c ****           /* User callback for Manufacturing string */
1003:Middlewares/ST/STM32_USB_Host_Library/Core/Src/usbh_core.c ****           USBH_UsrLog("Manufacturer : %s", (char *)(void *)phost->device.Data);
1004:Middlewares/ST/STM32_USB_Host_Library/Core/Src/usbh_core.c ****           phost->EnumState = ENUM_GET_PRODUCT_STRING_DESC;
1005:Middlewares/ST/STM32_USB_Host_Library/Core/Src/usbh_core.c **** 
1006:Middlewares/ST/STM32_USB_Host_Library/Core/Src/usbh_core.c **** #if (USBH_USE_OS == 1U)
1007:Middlewares/ST/STM32_USB_Host_Library/Core/Src/usbh_core.c ****           USBH_OS_PutMessage(phost, USBH_STATE_CHANGED_EVENT, 0U, 0U);
1008:Middlewares/ST/STM32_USB_Host_Library/Core/Src/usbh_core.c **** #endif /* (USBH_USE_OS == 1U) */
1009:Middlewares/ST/STM32_USB_Host_Library/Core/Src/usbh_core.c ****         }
1010:Middlewares/ST/STM32_USB_Host_Library/Core/Src/usbh_core.c ****         else if (ReqStatus == USBH_NOT_SUPPORTED)
1011:Middlewares/ST/STM32_USB_Host_Library/Core/Src/usbh_core.c ****         {
1012:Middlewares/ST/STM32_USB_Host_Library/Core/Src/usbh_core.c ****           USBH_UsrLog("Manufacturer : N/A");
1013:Middlewares/ST/STM32_USB_Host_Library/Core/Src/usbh_core.c ****           phost->EnumState = ENUM_GET_PRODUCT_STRING_DESC;
1014:Middlewares/ST/STM32_USB_Host_Library/Core/Src/usbh_core.c **** 
1015:Middlewares/ST/STM32_USB_Host_Library/Core/Src/usbh_core.c **** #if (USBH_USE_OS == 1U)
1016:Middlewares/ST/STM32_USB_Host_Library/Core/Src/usbh_core.c ****           USBH_OS_PutMessage(phost, USBH_STATE_CHANGED_EVENT, 0U, 0U);
1017:Middlewares/ST/STM32_USB_Host_Library/Core/Src/usbh_core.c **** #endif /* (USBH_USE_OS == 1U) */
1018:Middlewares/ST/STM32_USB_Host_Library/Core/Src/usbh_core.c ****         }
1019:Middlewares/ST/STM32_USB_Host_Library/Core/Src/usbh_core.c ****         else
1020:Middlewares/ST/STM32_USB_Host_Library/Core/Src/usbh_core.c ****         {
1021:Middlewares/ST/STM32_USB_Host_Library/Core/Src/usbh_core.c ****           /* .. */
1022:Middlewares/ST/STM32_USB_Host_Library/Core/Src/usbh_core.c ****         }
1023:Middlewares/ST/STM32_USB_Host_Library/Core/Src/usbh_core.c ****       }
1024:Middlewares/ST/STM32_USB_Host_Library/Core/Src/usbh_core.c ****       else
1025:Middlewares/ST/STM32_USB_Host_Library/Core/Src/usbh_core.c ****       {
1026:Middlewares/ST/STM32_USB_Host_Library/Core/Src/usbh_core.c ****         USBH_UsrLog("Manufacturer : N/A");
1027:Middlewares/ST/STM32_USB_Host_Library/Core/Src/usbh_core.c ****         phost->EnumState = ENUM_GET_PRODUCT_STRING_DESC;
1028:Middlewares/ST/STM32_USB_Host_Library/Core/Src/usbh_core.c **** 
1029:Middlewares/ST/STM32_USB_Host_Library/Core/Src/usbh_core.c **** #if (USBH_USE_OS == 1U)
1030:Middlewares/ST/STM32_USB_Host_Library/Core/Src/usbh_core.c ****         USBH_OS_PutMessage(phost, USBH_STATE_CHANGED_EVENT, 0U, 0U);
1031:Middlewares/ST/STM32_USB_Host_Library/Core/Src/usbh_core.c **** #endif /* (USBH_USE_OS == 1U) */
1032:Middlewares/ST/STM32_USB_Host_Library/Core/Src/usbh_core.c ****       }
1033:Middlewares/ST/STM32_USB_Host_Library/Core/Src/usbh_core.c ****       break;
1034:Middlewares/ST/STM32_USB_Host_Library/Core/Src/usbh_core.c **** 
1035:Middlewares/ST/STM32_USB_Host_Library/Core/Src/usbh_core.c ****     case ENUM_GET_PRODUCT_STRING_DESC:
1036:Middlewares/ST/STM32_USB_Host_Library/Core/Src/usbh_core.c ****       if (phost->device.DevDesc.iProduct != 0U)
1037:Middlewares/ST/STM32_USB_Host_Library/Core/Src/usbh_core.c ****       {
1038:Middlewares/ST/STM32_USB_Host_Library/Core/Src/usbh_core.c ****         /* Check that Product string is available */
1039:Middlewares/ST/STM32_USB_Host_Library/Core/Src/usbh_core.c ****         ReqStatus = USBH_Get_StringDesc(phost, phost->device.DevDesc.iProduct,
1040:Middlewares/ST/STM32_USB_Host_Library/Core/Src/usbh_core.c ****                                         phost->device.Data, 0xFFU);
1041:Middlewares/ST/STM32_USB_Host_Library/Core/Src/usbh_core.c ****         if (ReqStatus == USBH_OK)
1042:Middlewares/ST/STM32_USB_Host_Library/Core/Src/usbh_core.c ****         {
1043:Middlewares/ST/STM32_USB_Host_Library/Core/Src/usbh_core.c ****           /* User callback for Product string */
1044:Middlewares/ST/STM32_USB_Host_Library/Core/Src/usbh_core.c ****           USBH_UsrLog("Product : %s", (char *)(void *)phost->device.Data);
1045:Middlewares/ST/STM32_USB_Host_Library/Core/Src/usbh_core.c ****           phost->EnumState = ENUM_GET_SERIALNUM_STRING_DESC;
1046:Middlewares/ST/STM32_USB_Host_Library/Core/Src/usbh_core.c ****         }
1047:Middlewares/ST/STM32_USB_Host_Library/Core/Src/usbh_core.c ****         else if (ReqStatus == USBH_NOT_SUPPORTED)
1048:Middlewares/ST/STM32_USB_Host_Library/Core/Src/usbh_core.c ****         {
1049:Middlewares/ST/STM32_USB_Host_Library/Core/Src/usbh_core.c ****           USBH_UsrLog("Product : N/A");
1050:Middlewares/ST/STM32_USB_Host_Library/Core/Src/usbh_core.c ****           phost->EnumState = ENUM_GET_SERIALNUM_STRING_DESC;
1051:Middlewares/ST/STM32_USB_Host_Library/Core/Src/usbh_core.c **** 
1052:Middlewares/ST/STM32_USB_Host_Library/Core/Src/usbh_core.c **** #if (USBH_USE_OS == 1U)
1053:Middlewares/ST/STM32_USB_Host_Library/Core/Src/usbh_core.c ****           USBH_OS_PutMessage(phost, USBH_STATE_CHANGED_EVENT, 0U, 0U);
1054:Middlewares/ST/STM32_USB_Host_Library/Core/Src/usbh_core.c **** #endif /* (USBH_USE_OS == 1U) */
1055:Middlewares/ST/STM32_USB_Host_Library/Core/Src/usbh_core.c ****         }
1056:Middlewares/ST/STM32_USB_Host_Library/Core/Src/usbh_core.c ****         else
ARM GAS  /tmp/ccDyhIXb.s 			page 20


1057:Middlewares/ST/STM32_USB_Host_Library/Core/Src/usbh_core.c ****         {
1058:Middlewares/ST/STM32_USB_Host_Library/Core/Src/usbh_core.c ****           /* .. */
1059:Middlewares/ST/STM32_USB_Host_Library/Core/Src/usbh_core.c ****         }
1060:Middlewares/ST/STM32_USB_Host_Library/Core/Src/usbh_core.c ****       }
1061:Middlewares/ST/STM32_USB_Host_Library/Core/Src/usbh_core.c ****       else
1062:Middlewares/ST/STM32_USB_Host_Library/Core/Src/usbh_core.c ****       {
1063:Middlewares/ST/STM32_USB_Host_Library/Core/Src/usbh_core.c ****         USBH_UsrLog("Product : N/A");
1064:Middlewares/ST/STM32_USB_Host_Library/Core/Src/usbh_core.c ****         phost->EnumState = ENUM_GET_SERIALNUM_STRING_DESC;
1065:Middlewares/ST/STM32_USB_Host_Library/Core/Src/usbh_core.c **** 
1066:Middlewares/ST/STM32_USB_Host_Library/Core/Src/usbh_core.c **** #if (USBH_USE_OS == 1U)
1067:Middlewares/ST/STM32_USB_Host_Library/Core/Src/usbh_core.c ****         USBH_OS_PutMessage(phost, USBH_STATE_CHANGED_EVENT, 0U, 0U);
1068:Middlewares/ST/STM32_USB_Host_Library/Core/Src/usbh_core.c **** #endif /* (USBH_USE_OS == 1U) */
1069:Middlewares/ST/STM32_USB_Host_Library/Core/Src/usbh_core.c ****       }
1070:Middlewares/ST/STM32_USB_Host_Library/Core/Src/usbh_core.c ****       break;
1071:Middlewares/ST/STM32_USB_Host_Library/Core/Src/usbh_core.c **** 
1072:Middlewares/ST/STM32_USB_Host_Library/Core/Src/usbh_core.c ****     case ENUM_GET_SERIALNUM_STRING_DESC:
1073:Middlewares/ST/STM32_USB_Host_Library/Core/Src/usbh_core.c ****       if (phost->device.DevDesc.iSerialNumber != 0U)
1074:Middlewares/ST/STM32_USB_Host_Library/Core/Src/usbh_core.c ****       {
1075:Middlewares/ST/STM32_USB_Host_Library/Core/Src/usbh_core.c ****         /* Check that Serial number string is available */
1076:Middlewares/ST/STM32_USB_Host_Library/Core/Src/usbh_core.c ****         ReqStatus = USBH_Get_StringDesc(phost, phost->device.DevDesc.iSerialNumber,
1077:Middlewares/ST/STM32_USB_Host_Library/Core/Src/usbh_core.c ****                                         phost->device.Data, 0xFFU);
1078:Middlewares/ST/STM32_USB_Host_Library/Core/Src/usbh_core.c ****         if (ReqStatus == USBH_OK)
1079:Middlewares/ST/STM32_USB_Host_Library/Core/Src/usbh_core.c ****         {
1080:Middlewares/ST/STM32_USB_Host_Library/Core/Src/usbh_core.c ****           /* User callback for Serial number string */
1081:Middlewares/ST/STM32_USB_Host_Library/Core/Src/usbh_core.c ****           USBH_UsrLog("Serial Number : %s", (char *)(void *)phost->device.Data);
1082:Middlewares/ST/STM32_USB_Host_Library/Core/Src/usbh_core.c ****           Status = USBH_OK;
1083:Middlewares/ST/STM32_USB_Host_Library/Core/Src/usbh_core.c ****         }
1084:Middlewares/ST/STM32_USB_Host_Library/Core/Src/usbh_core.c ****         else if (ReqStatus == USBH_NOT_SUPPORTED)
1085:Middlewares/ST/STM32_USB_Host_Library/Core/Src/usbh_core.c ****         {
1086:Middlewares/ST/STM32_USB_Host_Library/Core/Src/usbh_core.c ****           USBH_UsrLog("Serial Number : N/A");
1087:Middlewares/ST/STM32_USB_Host_Library/Core/Src/usbh_core.c ****           Status = USBH_OK;
1088:Middlewares/ST/STM32_USB_Host_Library/Core/Src/usbh_core.c ****         }
1089:Middlewares/ST/STM32_USB_Host_Library/Core/Src/usbh_core.c ****         else
1090:Middlewares/ST/STM32_USB_Host_Library/Core/Src/usbh_core.c ****         {
1091:Middlewares/ST/STM32_USB_Host_Library/Core/Src/usbh_core.c ****           /* .. */
1092:Middlewares/ST/STM32_USB_Host_Library/Core/Src/usbh_core.c ****         }
1093:Middlewares/ST/STM32_USB_Host_Library/Core/Src/usbh_core.c ****       }
1094:Middlewares/ST/STM32_USB_Host_Library/Core/Src/usbh_core.c ****       else
1095:Middlewares/ST/STM32_USB_Host_Library/Core/Src/usbh_core.c ****       {
1096:Middlewares/ST/STM32_USB_Host_Library/Core/Src/usbh_core.c ****         USBH_UsrLog("Serial Number : N/A");
1097:Middlewares/ST/STM32_USB_Host_Library/Core/Src/usbh_core.c ****         Status = USBH_OK;
1098:Middlewares/ST/STM32_USB_Host_Library/Core/Src/usbh_core.c ****       }
1099:Middlewares/ST/STM32_USB_Host_Library/Core/Src/usbh_core.c ****       break;
1100:Middlewares/ST/STM32_USB_Host_Library/Core/Src/usbh_core.c **** 
1101:Middlewares/ST/STM32_USB_Host_Library/Core/Src/usbh_core.c ****     default:
1102:Middlewares/ST/STM32_USB_Host_Library/Core/Src/usbh_core.c ****       break;
1103:Middlewares/ST/STM32_USB_Host_Library/Core/Src/usbh_core.c ****   }
1104:Middlewares/ST/STM32_USB_Host_Library/Core/Src/usbh_core.c ****   return Status;
1105:Middlewares/ST/STM32_USB_Host_Library/Core/Src/usbh_core.c **** }
1106:Middlewares/ST/STM32_USB_Host_Library/Core/Src/usbh_core.c **** 
1107:Middlewares/ST/STM32_USB_Host_Library/Core/Src/usbh_core.c **** 
1108:Middlewares/ST/STM32_USB_Host_Library/Core/Src/usbh_core.c **** /**
1109:Middlewares/ST/STM32_USB_Host_Library/Core/Src/usbh_core.c ****   * @brief  USBH_LL_SetTimer
1110:Middlewares/ST/STM32_USB_Host_Library/Core/Src/usbh_core.c ****   *         Set the initial Host Timer tick
1111:Middlewares/ST/STM32_USB_Host_Library/Core/Src/usbh_core.c ****   * @param  phost: Host Handle
1112:Middlewares/ST/STM32_USB_Host_Library/Core/Src/usbh_core.c ****   * @retval None
1113:Middlewares/ST/STM32_USB_Host_Library/Core/Src/usbh_core.c ****   */
ARM GAS  /tmp/ccDyhIXb.s 			page 21


1114:Middlewares/ST/STM32_USB_Host_Library/Core/Src/usbh_core.c **** void USBH_LL_SetTimer(USBH_HandleTypeDef *phost, uint32_t time)
1115:Middlewares/ST/STM32_USB_Host_Library/Core/Src/usbh_core.c **** {
1116:Middlewares/ST/STM32_USB_Host_Library/Core/Src/usbh_core.c ****   phost->Timer = time;
1117:Middlewares/ST/STM32_USB_Host_Library/Core/Src/usbh_core.c **** }
1118:Middlewares/ST/STM32_USB_Host_Library/Core/Src/usbh_core.c **** 
1119:Middlewares/ST/STM32_USB_Host_Library/Core/Src/usbh_core.c **** 
1120:Middlewares/ST/STM32_USB_Host_Library/Core/Src/usbh_core.c **** /**
1121:Middlewares/ST/STM32_USB_Host_Library/Core/Src/usbh_core.c ****   * @brief  USBH_LL_IncTimer
1122:Middlewares/ST/STM32_USB_Host_Library/Core/Src/usbh_core.c ****   *         Increment Host Timer tick
1123:Middlewares/ST/STM32_USB_Host_Library/Core/Src/usbh_core.c ****   * @param  phost: Host Handle
1124:Middlewares/ST/STM32_USB_Host_Library/Core/Src/usbh_core.c ****   * @retval None
1125:Middlewares/ST/STM32_USB_Host_Library/Core/Src/usbh_core.c ****   */
1126:Middlewares/ST/STM32_USB_Host_Library/Core/Src/usbh_core.c **** void USBH_LL_IncTimer(USBH_HandleTypeDef *phost)
1127:Middlewares/ST/STM32_USB_Host_Library/Core/Src/usbh_core.c **** {
1128:Middlewares/ST/STM32_USB_Host_Library/Core/Src/usbh_core.c ****   phost->Timer++;
1129:Middlewares/ST/STM32_USB_Host_Library/Core/Src/usbh_core.c ****   USBH_HandleSof(phost);
1130:Middlewares/ST/STM32_USB_Host_Library/Core/Src/usbh_core.c **** }
1131:Middlewares/ST/STM32_USB_Host_Library/Core/Src/usbh_core.c **** 
1132:Middlewares/ST/STM32_USB_Host_Library/Core/Src/usbh_core.c **** 
1133:Middlewares/ST/STM32_USB_Host_Library/Core/Src/usbh_core.c **** /**
1134:Middlewares/ST/STM32_USB_Host_Library/Core/Src/usbh_core.c ****   * @brief  USBH_HandleSof
1135:Middlewares/ST/STM32_USB_Host_Library/Core/Src/usbh_core.c ****   *         Call SOF process
1136:Middlewares/ST/STM32_USB_Host_Library/Core/Src/usbh_core.c ****   * @param  phost: Host Handle
1137:Middlewares/ST/STM32_USB_Host_Library/Core/Src/usbh_core.c ****   * @retval None
1138:Middlewares/ST/STM32_USB_Host_Library/Core/Src/usbh_core.c ****   */
1139:Middlewares/ST/STM32_USB_Host_Library/Core/Src/usbh_core.c **** static void USBH_HandleSof(USBH_HandleTypeDef *phost)
1140:Middlewares/ST/STM32_USB_Host_Library/Core/Src/usbh_core.c **** {
  29              		.loc 1 1140 1 view -0
  30              		.cfi_startproc
  31              		@ args = 0, pretend = 0, frame = 0
  32              		@ frame_needed = 0, uses_anonymous_args = 0
  33              		.loc 1 1140 1 is_stmt 0 view .LVU1
  34 0000 08B5     		push	{r3, lr}
  35              	.LCFI0:
  36              		.cfi_def_cfa_offset 8
  37              		.cfi_offset 3, -8
  38              		.cfi_offset 14, -4
1141:Middlewares/ST/STM32_USB_Host_Library/Core/Src/usbh_core.c ****   if ((phost->gState == HOST_CLASS) && (phost->pActiveClass != NULL))
  39              		.loc 1 1141 3 is_stmt 1 view .LVU2
  40              		.loc 1 1141 13 is_stmt 0 view .LVU3
  41 0002 0378     		ldrb	r3, [r0]	@ zero_extendqisi2
  42              		.loc 1 1141 6 view .LVU4
  43 0004 0B2B     		cmp	r3, #11
  44 0006 00D0     		beq	.L4
  45              	.LVL1:
  46              	.L1:
1142:Middlewares/ST/STM32_USB_Host_Library/Core/Src/usbh_core.c ****   {
1143:Middlewares/ST/STM32_USB_Host_Library/Core/Src/usbh_core.c ****     phost->pActiveClass->SOFProcess(phost);
1144:Middlewares/ST/STM32_USB_Host_Library/Core/Src/usbh_core.c ****   }
1145:Middlewares/ST/STM32_USB_Host_Library/Core/Src/usbh_core.c **** }
  47              		.loc 1 1145 1 view .LVU5
  48 0008 08BD     		pop	{r3, pc}
  49              	.LVL2:
  50              	.L4:
1141:Middlewares/ST/STM32_USB_Host_Library/Core/Src/usbh_core.c ****   if ((phost->gState == HOST_CLASS) && (phost->pActiveClass != NULL))
  51              		.loc 1 1141 46 discriminator 1 view .LVU6
  52 000a D0F87C33 		ldr	r3, [r0, #892]
ARM GAS  /tmp/ccDyhIXb.s 			page 22


1141:Middlewares/ST/STM32_USB_Host_Library/Core/Src/usbh_core.c ****   if ((phost->gState == HOST_CLASS) && (phost->pActiveClass != NULL))
  53              		.loc 1 1141 37 discriminator 1 view .LVU7
  54 000e 002B     		cmp	r3, #0
  55 0010 FAD0     		beq	.L1
1143:Middlewares/ST/STM32_USB_Host_Library/Core/Src/usbh_core.c ****   }
  56              		.loc 1 1143 5 is_stmt 1 view .LVU8
1143:Middlewares/ST/STM32_USB_Host_Library/Core/Src/usbh_core.c ****   }
  57              		.loc 1 1143 24 is_stmt 0 view .LVU9
  58 0012 9B69     		ldr	r3, [r3, #24]
1143:Middlewares/ST/STM32_USB_Host_Library/Core/Src/usbh_core.c ****   }
  59              		.loc 1 1143 5 view .LVU10
  60 0014 9847     		blx	r3
  61              	.LVL3:
  62              		.loc 1 1145 1 view .LVU11
  63 0016 F7E7     		b	.L1
  64              		.cfi_endproc
  65              	.LFE159:
  67              		.section	.text.DeInitStateMachine,"ax",%progbits
  68              		.align	1
  69              		.syntax unified
  70              		.thumb
  71              		.thumb_func
  73              	DeInitStateMachine:
  74              	.LVL4:
  75              	.LFB146:
 221:Middlewares/ST/STM32_USB_Host_Library/Core/Src/usbh_core.c ****   uint32_t i;
  76              		.loc 1 221 1 is_stmt 1 view -0
  77              		.cfi_startproc
  78              		@ args = 0, pretend = 0, frame = 0
  79              		@ frame_needed = 0, uses_anonymous_args = 0
 221:Middlewares/ST/STM32_USB_Host_Library/Core/Src/usbh_core.c ****   uint32_t i;
  80              		.loc 1 221 1 is_stmt 0 view .LVU13
  81 0000 38B5     		push	{r3, r4, r5, lr}
  82              	.LCFI1:
  83              		.cfi_def_cfa_offset 16
  84              		.cfi_offset 3, -16
  85              		.cfi_offset 4, -12
  86              		.cfi_offset 5, -8
  87              		.cfi_offset 14, -4
  88 0002 0446     		mov	r4, r0
 222:Middlewares/ST/STM32_USB_Host_Library/Core/Src/usbh_core.c **** 
  89              		.loc 1 222 3 is_stmt 1 view .LVU14
 225:Middlewares/ST/STM32_USB_Host_Library/Core/Src/usbh_core.c ****   {
  90              		.loc 1 225 3 view .LVU15
  91              	.LVL5:
 225:Middlewares/ST/STM32_USB_Host_Library/Core/Src/usbh_core.c ****   {
  92              		.loc 1 225 10 is_stmt 0 view .LVU16
  93 0004 0023     		movs	r3, #0
 225:Middlewares/ST/STM32_USB_Host_Library/Core/Src/usbh_core.c ****   {
  94              		.loc 1 225 3 view .LVU17
  95 0006 06E0     		b	.L6
  96              	.LVL6:
  97              	.L7:
 227:Middlewares/ST/STM32_USB_Host_Library/Core/Src/usbh_core.c ****   }
  98              		.loc 1 227 5 is_stmt 1 view .LVU18
 227:Middlewares/ST/STM32_USB_Host_Library/Core/Src/usbh_core.c ****   }
  99              		.loc 1 227 21 is_stmt 0 view .LVU19
ARM GAS  /tmp/ccDyhIXb.s 			page 23


 100 0008 03F1E002 		add	r2, r3, #224
 101 000c 04EB8202 		add	r2, r4, r2, lsl #2
 102 0010 0021     		movs	r1, #0
 103 0012 5160     		str	r1, [r2, #4]
 225:Middlewares/ST/STM32_USB_Host_Library/Core/Src/usbh_core.c ****   {
 104              		.loc 1 225 41 is_stmt 1 discriminator 3 view .LVU20
 105 0014 0133     		adds	r3, r3, #1
 106              	.LVL7:
 107              	.L6:
 225:Middlewares/ST/STM32_USB_Host_Library/Core/Src/usbh_core.c ****   {
 108              		.loc 1 225 18 discriminator 1 view .LVU21
 109 0016 0F2B     		cmp	r3, #15
 110 0018 F6D9     		bls	.L7
 230:Middlewares/ST/STM32_USB_Host_Library/Core/Src/usbh_core.c ****   {
 111              		.loc 1 230 10 is_stmt 0 view .LVU22
 112 001a 0023     		movs	r3, #0
 113              	.LVL8:
 230:Middlewares/ST/STM32_USB_Host_Library/Core/Src/usbh_core.c ****   {
 114              		.loc 1 230 10 view .LVU23
 115 001c 04E0     		b	.L8
 116              	.LVL9:
 117              	.L9:
 232:Middlewares/ST/STM32_USB_Host_Library/Core/Src/usbh_core.c ****   }
 118              		.loc 1 232 5 is_stmt 1 view .LVU24
 232:Middlewares/ST/STM32_USB_Host_Library/Core/Src/usbh_core.c ****   }
 119              		.loc 1 232 27 is_stmt 0 view .LVU25
 120 001e E218     		adds	r2, r4, r3
 121 0020 0021     		movs	r1, #0
 122 0022 82F81C11 		strb	r1, [r2, #284]
 230:Middlewares/ST/STM32_USB_Host_Library/Core/Src/usbh_core.c ****   {
 123              		.loc 1 230 43 is_stmt 1 discriminator 3 view .LVU26
 124 0026 0133     		adds	r3, r3, #1
 125              	.LVL10:
 126              	.L8:
 230:Middlewares/ST/STM32_USB_Host_Library/Core/Src/usbh_core.c ****   {
 127              		.loc 1 230 18 discriminator 1 view .LVU27
 128 0028 B3F5007F 		cmp	r3, #512
 129 002c F7D3     		bcc	.L9
 235:Middlewares/ST/STM32_USB_Host_Library/Core/Src/usbh_core.c ****   phost->EnumState = ENUM_IDLE;
 130              		.loc 1 235 3 view .LVU28
 235:Middlewares/ST/STM32_USB_Host_Library/Core/Src/usbh_core.c ****   phost->EnumState = ENUM_IDLE;
 131              		.loc 1 235 17 is_stmt 0 view .LVU29
 132 002e 0025     		movs	r5, #0
 133 0030 2570     		strb	r5, [r4]
 236:Middlewares/ST/STM32_USB_Host_Library/Core/Src/usbh_core.c ****   phost->RequestState = CMD_SEND;
 134              		.loc 1 236 3 is_stmt 1 view .LVU30
 236:Middlewares/ST/STM32_USB_Host_Library/Core/Src/usbh_core.c ****   phost->RequestState = CMD_SEND;
 135              		.loc 1 236 20 is_stmt 0 view .LVU31
 136 0032 6570     		strb	r5, [r4, #1]
 237:Middlewares/ST/STM32_USB_Host_Library/Core/Src/usbh_core.c ****   phost->Timer = 0U;
 137              		.loc 1 237 3 is_stmt 1 view .LVU32
 237:Middlewares/ST/STM32_USB_Host_Library/Core/Src/usbh_core.c ****   phost->Timer = 0U;
 138              		.loc 1 237 23 is_stmt 0 view .LVU33
 139 0034 0123     		movs	r3, #1
 140              	.LVL11:
 237:Middlewares/ST/STM32_USB_Host_Library/Core/Src/usbh_core.c ****   phost->Timer = 0U;
 141              		.loc 1 237 23 view .LVU34
ARM GAS  /tmp/ccDyhIXb.s 			page 24


 142 0036 A370     		strb	r3, [r4, #2]
 238:Middlewares/ST/STM32_USB_Host_Library/Core/Src/usbh_core.c **** 
 143              		.loc 1 238 3 is_stmt 1 view .LVU35
 238:Middlewares/ST/STM32_USB_Host_Library/Core/Src/usbh_core.c **** 
 144              		.loc 1 238 16 is_stmt 0 view .LVU36
 145 0038 C4F8C453 		str	r5, [r4, #964]
 240:Middlewares/ST/STM32_USB_Host_Library/Core/Src/usbh_core.c ****   phost->Control.pipe_size = USBH_MPS_DEFAULT;
 146              		.loc 1 240 3 is_stmt 1 view .LVU37
 240:Middlewares/ST/STM32_USB_Host_Library/Core/Src/usbh_core.c ****   phost->Control.pipe_size = USBH_MPS_DEFAULT;
 147              		.loc 1 240 24 is_stmt 0 view .LVU38
 148 003c 2376     		strb	r3, [r4, #24]
 241:Middlewares/ST/STM32_USB_Host_Library/Core/Src/usbh_core.c ****   phost->Control.errorcount = 0U;
 149              		.loc 1 241 3 is_stmt 1 view .LVU39
 241:Middlewares/ST/STM32_USB_Host_Library/Core/Src/usbh_core.c ****   phost->Control.errorcount = 0U;
 150              		.loc 1 241 28 is_stmt 0 view .LVU40
 151 003e 4022     		movs	r2, #64
 152 0040 A271     		strb	r2, [r4, #6]
 242:Middlewares/ST/STM32_USB_Host_Library/Core/Src/usbh_core.c **** 
 153              		.loc 1 242 3 is_stmt 1 view .LVU41
 242:Middlewares/ST/STM32_USB_Host_Library/Core/Src/usbh_core.c **** 
 154              		.loc 1 242 29 is_stmt 0 view .LVU42
 155 0042 6576     		strb	r5, [r4, #25]
 244:Middlewares/ST/STM32_USB_Host_Library/Core/Src/usbh_core.c ****   phost->device.speed = (uint8_t)USBH_SPEED_FULL;
 156              		.loc 1 244 3 is_stmt 1 view .LVU43
 244:Middlewares/ST/STM32_USB_Host_Library/Core/Src/usbh_core.c ****   phost->device.speed = (uint8_t)USBH_SPEED_FULL;
 157              		.loc 1 244 25 is_stmt 0 view .LVU44
 158 0044 84F81C53 		strb	r5, [r4, #796]
 245:Middlewares/ST/STM32_USB_Host_Library/Core/Src/usbh_core.c ****   phost->device.RstCnt = 0U;
 159              		.loc 1 245 3 is_stmt 1 view .LVU45
 245:Middlewares/ST/STM32_USB_Host_Library/Core/Src/usbh_core.c ****   phost->device.RstCnt = 0U;
 160              		.loc 1 245 23 is_stmt 0 view .LVU46
 161 0048 84F81D33 		strb	r3, [r4, #797]
 246:Middlewares/ST/STM32_USB_Host_Library/Core/Src/usbh_core.c ****   phost->device.EnumCnt = 0U;
 162              		.loc 1 246 3 is_stmt 1 view .LVU47
 246:Middlewares/ST/STM32_USB_Host_Library/Core/Src/usbh_core.c ****   phost->device.EnumCnt = 0U;
 163              		.loc 1 246 24 is_stmt 0 view .LVU48
 164 004c 84F81F53 		strb	r5, [r4, #799]
 247:Middlewares/ST/STM32_USB_Host_Library/Core/Src/usbh_core.c **** 
 165              		.loc 1 247 3 is_stmt 1 view .LVU49
 247:Middlewares/ST/STM32_USB_Host_Library/Core/Src/usbh_core.c **** 
 166              		.loc 1 247 25 is_stmt 0 view .LVU50
 167 0050 84F81E53 		strb	r5, [r4, #798]
 250:Middlewares/ST/STM32_USB_Host_Library/Core/Src/usbh_core.c ****   USBH_memset(&phost->device.Data, 0, sizeof(phost->device.Data));
 168              		.loc 1 250 3 is_stmt 1 view .LVU51
 169 0054 4FF48072 		mov	r2, #256
 170 0058 2946     		mov	r1, r5
 171 005a 04F11C00 		add	r0, r4, #28
 172              	.LVL12:
 250:Middlewares/ST/STM32_USB_Host_Library/Core/Src/usbh_core.c ****   USBH_memset(&phost->device.Data, 0, sizeof(phost->device.Data));
 173              		.loc 1 250 3 is_stmt 0 view .LVU52
 174 005e FFF7FEFF 		bl	memset
 175              	.LVL13:
 251:Middlewares/ST/STM32_USB_Host_Library/Core/Src/usbh_core.c ****   USBH_memset(&phost->device.DevDesc, 0, sizeof(phost->device.DevDesc));
 176              		.loc 1 251 3 is_stmt 1 view .LVU53
 177 0062 4FF40072 		mov	r2, #512
 178 0066 2946     		mov	r1, r5
 179 0068 04F58E70 		add	r0, r4, #284
ARM GAS  /tmp/ccDyhIXb.s 			page 25


 180 006c FFF7FEFF 		bl	memset
 181              	.LVL14:
 252:Middlewares/ST/STM32_USB_Host_Library/Core/Src/usbh_core.c ****   USBH_memset(&phost->device.CfgDesc, 0, sizeof(phost->device.CfgDesc));
 182              		.loc 1 252 3 view .LVU54
 183 0070 C4F82653 		str	r5, [r4, #806]	@ unaligned
 184 0074 C4F82A53 		str	r5, [r4, #810]	@ unaligned
 185 0078 C4F82E53 		str	r5, [r4, #814]	@ unaligned
 186 007c C4F83253 		str	r5, [r4, #818]	@ unaligned
 187 0080 A4F83653 		strh	r5, [r4, #822]	@ unaligned
 253:Middlewares/ST/STM32_USB_Host_Library/Core/Src/usbh_core.c **** 
 188              		.loc 1 253 3 view .LVU55
 189 0084 3E22     		movs	r2, #62
 190 0086 2946     		mov	r1, r5
 191 0088 04F54E70 		add	r0, r4, #824
 192 008c FFF7FEFF 		bl	memset
 193              	.LVL15:
 255:Middlewares/ST/STM32_USB_Host_Library/Core/Src/usbh_core.c **** }
 194              		.loc 1 255 3 view .LVU56
 256:Middlewares/ST/STM32_USB_Host_Library/Core/Src/usbh_core.c **** 
 195              		.loc 1 256 1 is_stmt 0 view .LVU57
 196 0090 2846     		mov	r0, r5
 197 0092 38BD     		pop	{r3, r4, r5, pc}
 256:Middlewares/ST/STM32_USB_Host_Library/Core/Src/usbh_core.c **** 
 198              		.loc 1 256 1 view .LVU58
 199              		.cfi_endproc
 200              	.LFE146:
 202              		.section	.text.USBH_HandleEnum,"ax",%progbits
 203              		.align	1
 204              		.syntax unified
 205              		.thumb
 206              		.thumb_func
 208              	USBH_HandleEnum:
 209              	.LVL16:
 210              	.LFB156:
 801:Middlewares/ST/STM32_USB_Host_Library/Core/Src/usbh_core.c ****   USBH_StatusTypeDef Status = USBH_BUSY;
 211              		.loc 1 801 1 is_stmt 1 view -0
 212              		.cfi_startproc
 213              		@ args = 0, pretend = 0, frame = 0
 214              		@ frame_needed = 0, uses_anonymous_args = 0
 801:Middlewares/ST/STM32_USB_Host_Library/Core/Src/usbh_core.c ****   USBH_StatusTypeDef Status = USBH_BUSY;
 215              		.loc 1 801 1 is_stmt 0 view .LVU60
 216 0000 70B5     		push	{r4, r5, r6, lr}
 217              	.LCFI2:
 218              		.cfi_def_cfa_offset 16
 219              		.cfi_offset 4, -16
 220              		.cfi_offset 5, -12
 221              		.cfi_offset 6, -8
 222              		.cfi_offset 14, -4
 223 0002 84B0     		sub	sp, sp, #16
 224              	.LCFI3:
 225              		.cfi_def_cfa_offset 32
 226 0004 0446     		mov	r4, r0
 802:Middlewares/ST/STM32_USB_Host_Library/Core/Src/usbh_core.c ****   USBH_StatusTypeDef ReqStatus = USBH_BUSY;
 227              		.loc 1 802 3 is_stmt 1 view .LVU61
 228              	.LVL17:
 803:Middlewares/ST/STM32_USB_Host_Library/Core/Src/usbh_core.c **** 
 229              		.loc 1 803 3 view .LVU62
ARM GAS  /tmp/ccDyhIXb.s 			page 26


 805:Middlewares/ST/STM32_USB_Host_Library/Core/Src/usbh_core.c ****   {
 230              		.loc 1 805 3 view .LVU63
 805:Middlewares/ST/STM32_USB_Host_Library/Core/Src/usbh_core.c ****   {
 231              		.loc 1 805 16 is_stmt 0 view .LVU64
 232 0006 4578     		ldrb	r5, [r0, #1]	@ zero_extendqisi2
 805:Middlewares/ST/STM32_USB_Host_Library/Core/Src/usbh_core.c ****   {
 233              		.loc 1 805 3 view .LVU65
 234 0008 072D     		cmp	r5, #7
 235 000a 00F22C81 		bhi	.L35
 236 000e DFE815F0 		tbh	[pc, r5, lsl #1]
 237              	.L14:
 238 0012 0800     		.2byte	(.L21-.L14)/2
 239 0014 4800     		.2byte	(.L20-.L14)/2
 240 0016 6900     		.2byte	(.L19-.L14)/2
 241 0018 9A00     		.2byte	(.L18-.L14)/2
 242 001a BF00     		.2byte	(.L17-.L14)/2
 243 001c E500     		.2byte	(.L16-.L14)/2
 244 001e 0001     		.2byte	(.L15-.L14)/2
 245 0020 1901     		.2byte	(.L13-.L14)/2
 246              		.p2align 1
 247              	.L21:
 809:Middlewares/ST/STM32_USB_Host_Library/Core/Src/usbh_core.c ****       if (ReqStatus == USBH_OK)
 248              		.loc 1 809 7 is_stmt 1 view .LVU66
 809:Middlewares/ST/STM32_USB_Host_Library/Core/Src/usbh_core.c ****       if (ReqStatus == USBH_OK)
 249              		.loc 1 809 19 is_stmt 0 view .LVU67
 250 0022 0821     		movs	r1, #8
 251 0024 FFF7FEFF 		bl	USBH_Get_DevDesc
 252              	.LVL18:
 810:Middlewares/ST/STM32_USB_Host_Library/Core/Src/usbh_core.c ****       {
 253              		.loc 1 810 7 is_stmt 1 view .LVU68
 810:Middlewares/ST/STM32_USB_Host_Library/Core/Src/usbh_core.c ****       {
 254              		.loc 1 810 10 is_stmt 0 view .LVU69
 255 0028 18B1     		cbz	r0, .L44
 826:Middlewares/ST/STM32_USB_Host_Library/Core/Src/usbh_core.c ****       {
 256              		.loc 1 826 12 is_stmt 1 view .LVU70
 826:Middlewares/ST/STM32_USB_Host_Library/Core/Src/usbh_core.c ****       {
 257              		.loc 1 826 15 is_stmt 0 view .LVU71
 258 002a 0328     		cmp	r0, #3
 259 002c 21D0     		beq	.L45
 802:Middlewares/ST/STM32_USB_Host_Library/Core/Src/usbh_core.c ****   USBH_StatusTypeDef ReqStatus = USBH_BUSY;
 260              		.loc 1 802 22 view .LVU72
 261 002e 0125     		movs	r5, #1
 262 0030 DAE0     		b	.L12
 263              	.L44:
 812:Middlewares/ST/STM32_USB_Host_Library/Core/Src/usbh_core.c **** 
 264              		.loc 1 812 9 is_stmt 1 view .LVU73
 812:Middlewares/ST/STM32_USB_Host_Library/Core/Src/usbh_core.c **** 
 265              		.loc 1 812 57 is_stmt 0 view .LVU74
 266 0032 94F82D33 		ldrb	r3, [r4, #813]	@ zero_extendqisi2
 812:Middlewares/ST/STM32_USB_Host_Library/Core/Src/usbh_core.c **** 
 267              		.loc 1 812 34 view .LVU75
 268 0036 A371     		strb	r3, [r4, #6]
 814:Middlewares/ST/STM32_USB_Host_Library/Core/Src/usbh_core.c **** 
 269              		.loc 1 814 9 is_stmt 1 view .LVU76
 814:Middlewares/ST/STM32_USB_Host_Library/Core/Src/usbh_core.c **** 
 270              		.loc 1 814 26 is_stmt 0 view .LVU77
 271 0038 0125     		movs	r5, #1
ARM GAS  /tmp/ccDyhIXb.s 			page 27


 272 003a 6570     		strb	r5, [r4, #1]
 817:Middlewares/ST/STM32_USB_Host_Library/Core/Src/usbh_core.c ****                             phost->device.speed, USBH_EP_CONTROL,
 273              		.loc 1 817 9 is_stmt 1 view .LVU78
 817:Middlewares/ST/STM32_USB_Host_Library/Core/Src/usbh_core.c ****                             phost->device.speed, USBH_EP_CONTROL,
 274              		.loc 1 817 15 is_stmt 0 view .LVU79
 275 003c 0293     		str	r3, [sp, #8]
 276 003e 0026     		movs	r6, #0
 277 0040 0196     		str	r6, [sp, #4]
 278 0042 94F81D33 		ldrb	r3, [r4, #797]	@ zero_extendqisi2
 279 0046 0093     		str	r3, [sp]
 280 0048 94F81C33 		ldrb	r3, [r4, #796]	@ zero_extendqisi2
 281 004c 8022     		movs	r2, #128
 282 004e 2179     		ldrb	r1, [r4, #4]	@ zero_extendqisi2
 283 0050 2046     		mov	r0, r4
 284              	.LVL19:
 817:Middlewares/ST/STM32_USB_Host_Library/Core/Src/usbh_core.c ****                             phost->device.speed, USBH_EP_CONTROL,
 285              		.loc 1 817 15 view .LVU80
 286 0052 FFF7FEFF 		bl	USBH_OpenPipe
 287              	.LVL20:
 822:Middlewares/ST/STM32_USB_Host_Library/Core/Src/usbh_core.c ****                             phost->device.speed, USBH_EP_CONTROL,
 288              		.loc 1 822 9 is_stmt 1 view .LVU81
 824:Middlewares/ST/STM32_USB_Host_Library/Core/Src/usbh_core.c ****       }
 289              		.loc 1 824 53 is_stmt 0 view .LVU82
 290 0056 A379     		ldrb	r3, [r4, #6]	@ zero_extendqisi2
 822:Middlewares/ST/STM32_USB_Host_Library/Core/Src/usbh_core.c ****                             phost->device.speed, USBH_EP_CONTROL,
 291              		.loc 1 822 15 view .LVU83
 292 0058 0293     		str	r3, [sp, #8]
 293 005a 0196     		str	r6, [sp, #4]
 294 005c 94F81D33 		ldrb	r3, [r4, #797]	@ zero_extendqisi2
 295 0060 0093     		str	r3, [sp]
 296 0062 94F81C33 		ldrb	r3, [r4, #796]	@ zero_extendqisi2
 297 0066 3246     		mov	r2, r6
 298 0068 6179     		ldrb	r1, [r4, #5]	@ zero_extendqisi2
 299 006a 2046     		mov	r0, r4
 300 006c FFF7FEFF 		bl	USBH_OpenPipe
 301              	.LVL21:
 302 0070 BAE0     		b	.L12
 303              	.LVL22:
 304              	.L45:
 828:Middlewares/ST/STM32_USB_Host_Library/Core/Src/usbh_core.c ****         phost->device.EnumCnt++;
 305              		.loc 1 828 9 is_stmt 1 view .LVU84
 828:Middlewares/ST/STM32_USB_Host_Library/Core/Src/usbh_core.c ****         phost->device.EnumCnt++;
 306              		.loc 1 828 9 view .LVU85
 828:Middlewares/ST/STM32_USB_Host_Library/Core/Src/usbh_core.c ****         phost->device.EnumCnt++;
 307              		.loc 1 828 9 view .LVU86
 829:Middlewares/ST/STM32_USB_Host_Library/Core/Src/usbh_core.c ****         if (phost->device.EnumCnt > 3U)
 308              		.loc 1 829 9 view .LVU87
 829:Middlewares/ST/STM32_USB_Host_Library/Core/Src/usbh_core.c ****         if (phost->device.EnumCnt > 3U)
 309              		.loc 1 829 22 is_stmt 0 view .LVU88
 310 0072 94F81E33 		ldrb	r3, [r4, #798]	@ zero_extendqisi2
 829:Middlewares/ST/STM32_USB_Host_Library/Core/Src/usbh_core.c ****         if (phost->device.EnumCnt > 3U)
 311              		.loc 1 829 30 view .LVU89
 312 0076 0133     		adds	r3, r3, #1
 313 0078 DBB2     		uxtb	r3, r3
 314 007a 84F81E33 		strb	r3, [r4, #798]
 830:Middlewares/ST/STM32_USB_Host_Library/Core/Src/usbh_core.c ****         {
 315              		.loc 1 830 9 is_stmt 1 view .LVU90
ARM GAS  /tmp/ccDyhIXb.s 			page 28


 830:Middlewares/ST/STM32_USB_Host_Library/Core/Src/usbh_core.c ****         {
 316              		.loc 1 830 12 is_stmt 0 view .LVU91
 317 007e 032B     		cmp	r3, #3
 318 0080 03D9     		bls	.L23
 833:Middlewares/ST/STM32_USB_Host_Library/Core/Src/usbh_core.c ****           phost->gState = HOST_ABORT_STATE;
 319              		.loc 1 833 11 is_stmt 1 view .LVU92
 833:Middlewares/ST/STM32_USB_Host_Library/Core/Src/usbh_core.c ****           phost->gState = HOST_ABORT_STATE;
 320              		.loc 1 833 11 view .LVU93
 833:Middlewares/ST/STM32_USB_Host_Library/Core/Src/usbh_core.c ****           phost->gState = HOST_ABORT_STATE;
 321              		.loc 1 833 11 view .LVU94
 834:Middlewares/ST/STM32_USB_Host_Library/Core/Src/usbh_core.c ****         }
 322              		.loc 1 834 11 view .LVU95
 834:Middlewares/ST/STM32_USB_Host_Library/Core/Src/usbh_core.c ****         }
 323              		.loc 1 834 25 is_stmt 0 view .LVU96
 324 0082 0D23     		movs	r3, #13
 325 0084 2370     		strb	r3, [r4]
 802:Middlewares/ST/STM32_USB_Host_Library/Core/Src/usbh_core.c ****   USBH_StatusTypeDef ReqStatus = USBH_BUSY;
 326              		.loc 1 802 22 view .LVU97
 327 0086 0125     		movs	r5, #1
 328 0088 AEE0     		b	.L12
 329              	.L23:
 839:Middlewares/ST/STM32_USB_Host_Library/Core/Src/usbh_core.c ****           (void)USBH_FreePipe(phost, phost->Control.pipe_in);
 330              		.loc 1 839 11 is_stmt 1 view .LVU98
 839:Middlewares/ST/STM32_USB_Host_Library/Core/Src/usbh_core.c ****           (void)USBH_FreePipe(phost, phost->Control.pipe_in);
 331              		.loc 1 839 17 is_stmt 0 view .LVU99
 332 008a 6179     		ldrb	r1, [r4, #5]	@ zero_extendqisi2
 333 008c 2046     		mov	r0, r4
 334              	.LVL23:
 839:Middlewares/ST/STM32_USB_Host_Library/Core/Src/usbh_core.c ****           (void)USBH_FreePipe(phost, phost->Control.pipe_in);
 335              		.loc 1 839 17 view .LVU100
 336 008e FFF7FEFF 		bl	USBH_FreePipe
 337              	.LVL24:
 840:Middlewares/ST/STM32_USB_Host_Library/Core/Src/usbh_core.c **** 
 338              		.loc 1 840 11 is_stmt 1 view .LVU101
 840:Middlewares/ST/STM32_USB_Host_Library/Core/Src/usbh_core.c **** 
 339              		.loc 1 840 17 is_stmt 0 view .LVU102
 340 0092 2179     		ldrb	r1, [r4, #4]	@ zero_extendqisi2
 341 0094 2046     		mov	r0, r4
 342 0096 FFF7FEFF 		bl	USBH_FreePipe
 343              	.LVL25:
 843:Middlewares/ST/STM32_USB_Host_Library/Core/Src/usbh_core.c ****         }
 344              		.loc 1 843 11 is_stmt 1 view .LVU103
 843:Middlewares/ST/STM32_USB_Host_Library/Core/Src/usbh_core.c ****         }
 345              		.loc 1 843 25 is_stmt 0 view .LVU104
 346 009a 0023     		movs	r3, #0
 347 009c 2370     		strb	r3, [r4]
 802:Middlewares/ST/STM32_USB_Host_Library/Core/Src/usbh_core.c ****   USBH_StatusTypeDef ReqStatus = USBH_BUSY;
 348              		.loc 1 802 22 view .LVU105
 349 009e 0125     		movs	r5, #1
 350 00a0 A2E0     		b	.L12
 351              	.LVL26:
 352              	.L20:
 854:Middlewares/ST/STM32_USB_Host_Library/Core/Src/usbh_core.c ****       if (ReqStatus == USBH_OK)
 353              		.loc 1 854 7 is_stmt 1 view .LVU106
 854:Middlewares/ST/STM32_USB_Host_Library/Core/Src/usbh_core.c ****       if (ReqStatus == USBH_OK)
 354              		.loc 1 854 19 is_stmt 0 view .LVU107
 355 00a2 1221     		movs	r1, #18
ARM GAS  /tmp/ccDyhIXb.s 			page 29


 356 00a4 FFF7FEFF 		bl	USBH_Get_DevDesc
 357              	.LVL27:
 855:Middlewares/ST/STM32_USB_Host_Library/Core/Src/usbh_core.c ****       {
 358              		.loc 1 855 7 is_stmt 1 view .LVU108
 855:Middlewares/ST/STM32_USB_Host_Library/Core/Src/usbh_core.c ****       {
 359              		.loc 1 855 10 is_stmt 0 view .LVU109
 360 00a8 10B9     		cbnz	r0, .L24
 857:Middlewares/ST/STM32_USB_Host_Library/Core/Src/usbh_core.c ****         USBH_UsrLog("VID: %xh", phost->device.DevDesc.idVendor);
 361              		.loc 1 857 9 is_stmt 1 view .LVU110
 857:Middlewares/ST/STM32_USB_Host_Library/Core/Src/usbh_core.c ****         USBH_UsrLog("VID: %xh", phost->device.DevDesc.idVendor);
 362              		.loc 1 857 9 view .LVU111
 857:Middlewares/ST/STM32_USB_Host_Library/Core/Src/usbh_core.c ****         USBH_UsrLog("VID: %xh", phost->device.DevDesc.idVendor);
 363              		.loc 1 857 9 view .LVU112
 858:Middlewares/ST/STM32_USB_Host_Library/Core/Src/usbh_core.c **** 
 364              		.loc 1 858 9 view .LVU113
 858:Middlewares/ST/STM32_USB_Host_Library/Core/Src/usbh_core.c **** 
 365              		.loc 1 858 9 view .LVU114
 858:Middlewares/ST/STM32_USB_Host_Library/Core/Src/usbh_core.c **** 
 366              		.loc 1 858 9 view .LVU115
 860:Middlewares/ST/STM32_USB_Host_Library/Core/Src/usbh_core.c ****       }
 367              		.loc 1 860 9 view .LVU116
 860:Middlewares/ST/STM32_USB_Host_Library/Core/Src/usbh_core.c ****       }
 368              		.loc 1 860 26 is_stmt 0 view .LVU117
 369 00aa 0223     		movs	r3, #2
 370 00ac 6370     		strb	r3, [r4, #1]
 371 00ae 9BE0     		b	.L12
 372              	.L24:
 862:Middlewares/ST/STM32_USB_Host_Library/Core/Src/usbh_core.c ****       {
 373              		.loc 1 862 12 is_stmt 1 view .LVU118
 862:Middlewares/ST/STM32_USB_Host_Library/Core/Src/usbh_core.c ****       {
 374              		.loc 1 862 15 is_stmt 0 view .LVU119
 375 00b0 0328     		cmp	r0, #3
 376 00b2 40F09980 		bne	.L12
 864:Middlewares/ST/STM32_USB_Host_Library/Core/Src/usbh_core.c ****         phost->device.EnumCnt++;
 377              		.loc 1 864 9 is_stmt 1 view .LVU120
 864:Middlewares/ST/STM32_USB_Host_Library/Core/Src/usbh_core.c ****         phost->device.EnumCnt++;
 378              		.loc 1 864 9 view .LVU121
 864:Middlewares/ST/STM32_USB_Host_Library/Core/Src/usbh_core.c ****         phost->device.EnumCnt++;
 379              		.loc 1 864 9 view .LVU122
 865:Middlewares/ST/STM32_USB_Host_Library/Core/Src/usbh_core.c ****         if (phost->device.EnumCnt > 3U)
 380              		.loc 1 865 9 view .LVU123
 865:Middlewares/ST/STM32_USB_Host_Library/Core/Src/usbh_core.c ****         if (phost->device.EnumCnt > 3U)
 381              		.loc 1 865 22 is_stmt 0 view .LVU124
 382 00b6 94F81E33 		ldrb	r3, [r4, #798]	@ zero_extendqisi2
 865:Middlewares/ST/STM32_USB_Host_Library/Core/Src/usbh_core.c ****         if (phost->device.EnumCnt > 3U)
 383              		.loc 1 865 30 view .LVU125
 384 00ba 0133     		adds	r3, r3, #1
 385 00bc DBB2     		uxtb	r3, r3
 386 00be 84F81E33 		strb	r3, [r4, #798]
 866:Middlewares/ST/STM32_USB_Host_Library/Core/Src/usbh_core.c ****         {
 387              		.loc 1 866 9 is_stmt 1 view .LVU126
 866:Middlewares/ST/STM32_USB_Host_Library/Core/Src/usbh_core.c ****         {
 388              		.loc 1 866 12 is_stmt 0 view .LVU127
 389 00c2 032B     		cmp	r3, #3
 390 00c4 02D9     		bls	.L25
 869:Middlewares/ST/STM32_USB_Host_Library/Core/Src/usbh_core.c ****           phost->gState = HOST_ABORT_STATE;
 391              		.loc 1 869 11 is_stmt 1 view .LVU128
ARM GAS  /tmp/ccDyhIXb.s 			page 30


 869:Middlewares/ST/STM32_USB_Host_Library/Core/Src/usbh_core.c ****           phost->gState = HOST_ABORT_STATE;
 392              		.loc 1 869 11 view .LVU129
 869:Middlewares/ST/STM32_USB_Host_Library/Core/Src/usbh_core.c ****           phost->gState = HOST_ABORT_STATE;
 393              		.loc 1 869 11 view .LVU130
 870:Middlewares/ST/STM32_USB_Host_Library/Core/Src/usbh_core.c ****         }
 394              		.loc 1 870 11 view .LVU131
 870:Middlewares/ST/STM32_USB_Host_Library/Core/Src/usbh_core.c ****         }
 395              		.loc 1 870 25 is_stmt 0 view .LVU132
 396 00c6 0D23     		movs	r3, #13
 397 00c8 2370     		strb	r3, [r4]
 398 00ca 8DE0     		b	.L12
 399              	.L25:
 875:Middlewares/ST/STM32_USB_Host_Library/Core/Src/usbh_core.c ****           (void)USBH_FreePipe(phost, phost->Control.pipe_in);
 400              		.loc 1 875 11 is_stmt 1 view .LVU133
 875:Middlewares/ST/STM32_USB_Host_Library/Core/Src/usbh_core.c ****           (void)USBH_FreePipe(phost, phost->Control.pipe_in);
 401              		.loc 1 875 17 is_stmt 0 view .LVU134
 402 00cc 6179     		ldrb	r1, [r4, #5]	@ zero_extendqisi2
 403 00ce 2046     		mov	r0, r4
 404              	.LVL28:
 875:Middlewares/ST/STM32_USB_Host_Library/Core/Src/usbh_core.c ****           (void)USBH_FreePipe(phost, phost->Control.pipe_in);
 405              		.loc 1 875 17 view .LVU135
 406 00d0 FFF7FEFF 		bl	USBH_FreePipe
 407              	.LVL29:
 876:Middlewares/ST/STM32_USB_Host_Library/Core/Src/usbh_core.c **** 
 408              		.loc 1 876 11 is_stmt 1 view .LVU136
 876:Middlewares/ST/STM32_USB_Host_Library/Core/Src/usbh_core.c **** 
 409              		.loc 1 876 17 is_stmt 0 view .LVU137
 410 00d4 2179     		ldrb	r1, [r4, #4]	@ zero_extendqisi2
 411 00d6 2046     		mov	r0, r4
 412 00d8 FFF7FEFF 		bl	USBH_FreePipe
 413              	.LVL30:
 879:Middlewares/ST/STM32_USB_Host_Library/Core/Src/usbh_core.c ****           phost->gState = HOST_IDLE;
 414              		.loc 1 879 11 is_stmt 1 view .LVU138
 879:Middlewares/ST/STM32_USB_Host_Library/Core/Src/usbh_core.c ****           phost->gState = HOST_IDLE;
 415              		.loc 1 879 28 is_stmt 0 view .LVU139
 416 00dc 0023     		movs	r3, #0
 417 00de 6370     		strb	r3, [r4, #1]
 880:Middlewares/ST/STM32_USB_Host_Library/Core/Src/usbh_core.c ****         }
 418              		.loc 1 880 11 is_stmt 1 view .LVU140
 880:Middlewares/ST/STM32_USB_Host_Library/Core/Src/usbh_core.c ****         }
 419              		.loc 1 880 25 is_stmt 0 view .LVU141
 420 00e0 2370     		strb	r3, [r4]
 421 00e2 81E0     		b	.L12
 422              	.LVL31:
 423              	.L19:
 891:Middlewares/ST/STM32_USB_Host_Library/Core/Src/usbh_core.c ****       if (ReqStatus == USBH_OK)
 424              		.loc 1 891 7 is_stmt 1 view .LVU142
 891:Middlewares/ST/STM32_USB_Host_Library/Core/Src/usbh_core.c ****       if (ReqStatus == USBH_OK)
 425              		.loc 1 891 19 is_stmt 0 view .LVU143
 426 00e4 0121     		movs	r1, #1
 427 00e6 FFF7FEFF 		bl	USBH_SetAddress
 428              	.LVL32:
 892:Middlewares/ST/STM32_USB_Host_Library/Core/Src/usbh_core.c ****       {
 429              		.loc 1 892 7 is_stmt 1 view .LVU144
 892:Middlewares/ST/STM32_USB_Host_Library/Core/Src/usbh_core.c ****       {
 430              		.loc 1 892 10 is_stmt 0 view .LVU145
 431 00ea 18B1     		cbz	r0, .L46
ARM GAS  /tmp/ccDyhIXb.s 			page 31


 911:Middlewares/ST/STM32_USB_Host_Library/Core/Src/usbh_core.c ****       {
 432              		.loc 1 911 12 is_stmt 1 view .LVU146
 911:Middlewares/ST/STM32_USB_Host_Library/Core/Src/usbh_core.c ****       {
 433              		.loc 1 911 15 is_stmt 0 view .LVU147
 434 00ec 0328     		cmp	r0, #3
 435 00ee 24D0     		beq	.L47
 802:Middlewares/ST/STM32_USB_Host_Library/Core/Src/usbh_core.c ****   USBH_StatusTypeDef ReqStatus = USBH_BUSY;
 436              		.loc 1 802 22 view .LVU148
 437 00f0 0125     		movs	r5, #1
 438 00f2 79E0     		b	.L12
 439              	.L46:
 894:Middlewares/ST/STM32_USB_Host_Library/Core/Src/usbh_core.c ****         phost->device.address = USBH_DEVICE_ADDRESS;
 440              		.loc 1 894 9 is_stmt 1 view .LVU149
 441 00f4 0220     		movs	r0, #2
 442              	.LVL33:
 894:Middlewares/ST/STM32_USB_Host_Library/Core/Src/usbh_core.c ****         phost->device.address = USBH_DEVICE_ADDRESS;
 443              		.loc 1 894 9 is_stmt 0 view .LVU150
 444 00f6 FFF7FEFF 		bl	USBH_Delay
 445              	.LVL34:
 895:Middlewares/ST/STM32_USB_Host_Library/Core/Src/usbh_core.c **** 
 446              		.loc 1 895 9 is_stmt 1 view .LVU151
 895:Middlewares/ST/STM32_USB_Host_Library/Core/Src/usbh_core.c **** 
 447              		.loc 1 895 31 is_stmt 0 view .LVU152
 448 00fa 0125     		movs	r5, #1
 449 00fc 84F81C53 		strb	r5, [r4, #796]
 898:Middlewares/ST/STM32_USB_Host_Library/Core/Src/usbh_core.c ****         phost->EnumState = ENUM_GET_CFG_DESC;
 450              		.loc 1 898 9 is_stmt 1 view .LVU153
 898:Middlewares/ST/STM32_USB_Host_Library/Core/Src/usbh_core.c ****         phost->EnumState = ENUM_GET_CFG_DESC;
 451              		.loc 1 898 9 view .LVU154
 898:Middlewares/ST/STM32_USB_Host_Library/Core/Src/usbh_core.c ****         phost->EnumState = ENUM_GET_CFG_DESC;
 452              		.loc 1 898 9 view .LVU155
 899:Middlewares/ST/STM32_USB_Host_Library/Core/Src/usbh_core.c **** 
 453              		.loc 1 899 9 view .LVU156
 899:Middlewares/ST/STM32_USB_Host_Library/Core/Src/usbh_core.c **** 
 454              		.loc 1 899 26 is_stmt 0 view .LVU157
 455 0100 0323     		movs	r3, #3
 456 0102 6370     		strb	r3, [r4, #1]
 902:Middlewares/ST/STM32_USB_Host_Library/Core/Src/usbh_core.c ****                             phost->device.speed, USBH_EP_CONTROL,
 457              		.loc 1 902 9 is_stmt 1 view .LVU158
 904:Middlewares/ST/STM32_USB_Host_Library/Core/Src/usbh_core.c **** 
 458              		.loc 1 904 53 is_stmt 0 view .LVU159
 459 0104 A379     		ldrb	r3, [r4, #6]	@ zero_extendqisi2
 902:Middlewares/ST/STM32_USB_Host_Library/Core/Src/usbh_core.c ****                             phost->device.speed, USBH_EP_CONTROL,
 460              		.loc 1 902 15 view .LVU160
 461 0106 0293     		str	r3, [sp, #8]
 462 0108 0026     		movs	r6, #0
 463 010a 0196     		str	r6, [sp, #4]
 464 010c 94F81D33 		ldrb	r3, [r4, #797]	@ zero_extendqisi2
 465 0110 0093     		str	r3, [sp]
 466 0112 2B46     		mov	r3, r5
 467 0114 8022     		movs	r2, #128
 468 0116 2179     		ldrb	r1, [r4, #4]	@ zero_extendqisi2
 469 0118 2046     		mov	r0, r4
 470 011a FFF7FEFF 		bl	USBH_OpenPipe
 471              	.LVL35:
 907:Middlewares/ST/STM32_USB_Host_Library/Core/Src/usbh_core.c ****                             phost->device.speed, USBH_EP_CONTROL,
 472              		.loc 1 907 9 is_stmt 1 view .LVU161
ARM GAS  /tmp/ccDyhIXb.s 			page 32


 909:Middlewares/ST/STM32_USB_Host_Library/Core/Src/usbh_core.c ****       }
 473              		.loc 1 909 53 is_stmt 0 view .LVU162
 474 011e A379     		ldrb	r3, [r4, #6]	@ zero_extendqisi2
 907:Middlewares/ST/STM32_USB_Host_Library/Core/Src/usbh_core.c ****                             phost->device.speed, USBH_EP_CONTROL,
 475              		.loc 1 907 15 view .LVU163
 476 0120 0293     		str	r3, [sp, #8]
 477 0122 0196     		str	r6, [sp, #4]
 478 0124 94F81D33 		ldrb	r3, [r4, #797]	@ zero_extendqisi2
 479 0128 0093     		str	r3, [sp]
 480 012a 94F81C33 		ldrb	r3, [r4, #796]	@ zero_extendqisi2
 481 012e 3246     		mov	r2, r6
 482 0130 6179     		ldrb	r1, [r4, #5]	@ zero_extendqisi2
 483 0132 2046     		mov	r0, r4
 484 0134 FFF7FEFF 		bl	USBH_OpenPipe
 485              	.LVL36:
 486 0138 56E0     		b	.L12
 487              	.LVL37:
 488              	.L47:
 913:Middlewares/ST/STM32_USB_Host_Library/Core/Src/usbh_core.c **** 
 489              		.loc 1 913 9 is_stmt 1 view .LVU164
 913:Middlewares/ST/STM32_USB_Host_Library/Core/Src/usbh_core.c **** 
 490              		.loc 1 913 9 view .LVU165
 913:Middlewares/ST/STM32_USB_Host_Library/Core/Src/usbh_core.c **** 
 491              		.loc 1 913 9 view .LVU166
 916:Middlewares/ST/STM32_USB_Host_Library/Core/Src/usbh_core.c ****         phost->gState = HOST_ABORT_STATE;
 492              		.loc 1 916 9 view .LVU167
 916:Middlewares/ST/STM32_USB_Host_Library/Core/Src/usbh_core.c ****         phost->gState = HOST_ABORT_STATE;
 493              		.loc 1 916 9 view .LVU168
 916:Middlewares/ST/STM32_USB_Host_Library/Core/Src/usbh_core.c ****         phost->gState = HOST_ABORT_STATE;
 494              		.loc 1 916 9 view .LVU169
 917:Middlewares/ST/STM32_USB_Host_Library/Core/Src/usbh_core.c ****         phost->EnumState = ENUM_IDLE;
 495              		.loc 1 917 9 view .LVU170
 917:Middlewares/ST/STM32_USB_Host_Library/Core/Src/usbh_core.c ****         phost->EnumState = ENUM_IDLE;
 496              		.loc 1 917 23 is_stmt 0 view .LVU171
 497 013a 0D23     		movs	r3, #13
 498 013c 2370     		strb	r3, [r4]
 918:Middlewares/ST/STM32_USB_Host_Library/Core/Src/usbh_core.c ****       }
 499              		.loc 1 918 9 is_stmt 1 view .LVU172
 918:Middlewares/ST/STM32_USB_Host_Library/Core/Src/usbh_core.c ****       }
 500              		.loc 1 918 26 is_stmt 0 view .LVU173
 501 013e 0023     		movs	r3, #0
 502 0140 6370     		strb	r3, [r4, #1]
 802:Middlewares/ST/STM32_USB_Host_Library/Core/Src/usbh_core.c ****   USBH_StatusTypeDef ReqStatus = USBH_BUSY;
 503              		.loc 1 802 22 view .LVU174
 504 0142 0125     		movs	r5, #1
 505 0144 50E0     		b	.L12
 506              	.LVL38:
 507              	.L18:
 928:Middlewares/ST/STM32_USB_Host_Library/Core/Src/usbh_core.c ****       if (ReqStatus == USBH_OK)
 508              		.loc 1 928 7 is_stmt 1 view .LVU175
 928:Middlewares/ST/STM32_USB_Host_Library/Core/Src/usbh_core.c ****       if (ReqStatus == USBH_OK)
 509              		.loc 1 928 19 is_stmt 0 view .LVU176
 510 0146 0921     		movs	r1, #9
 511 0148 FFF7FEFF 		bl	USBH_Get_CfgDesc
 512              	.LVL39:
 929:Middlewares/ST/STM32_USB_Host_Library/Core/Src/usbh_core.c ****       {
 513              		.loc 1 929 7 is_stmt 1 view .LVU177
ARM GAS  /tmp/ccDyhIXb.s 			page 33


 929:Middlewares/ST/STM32_USB_Host_Library/Core/Src/usbh_core.c ****       {
 514              		.loc 1 929 10 is_stmt 0 view .LVU178
 515 014c 18B9     		cbnz	r0, .L27
 931:Middlewares/ST/STM32_USB_Host_Library/Core/Src/usbh_core.c ****       }
 516              		.loc 1 931 9 is_stmt 1 view .LVU179
 931:Middlewares/ST/STM32_USB_Host_Library/Core/Src/usbh_core.c ****       }
 517              		.loc 1 931 26 is_stmt 0 view .LVU180
 518 014e 0423     		movs	r3, #4
 519 0150 6370     		strb	r3, [r4, #1]
 802:Middlewares/ST/STM32_USB_Host_Library/Core/Src/usbh_core.c ****   USBH_StatusTypeDef ReqStatus = USBH_BUSY;
 520              		.loc 1 802 22 view .LVU181
 521 0152 0125     		movs	r5, #1
 522 0154 48E0     		b	.L12
 523              	.L27:
 933:Middlewares/ST/STM32_USB_Host_Library/Core/Src/usbh_core.c ****       {
 524              		.loc 1 933 12 is_stmt 1 view .LVU182
 933:Middlewares/ST/STM32_USB_Host_Library/Core/Src/usbh_core.c ****       {
 525              		.loc 1 933 15 is_stmt 0 view .LVU183
 526 0156 0328     		cmp	r0, #3
 527 0158 01D0     		beq	.L48
 802:Middlewares/ST/STM32_USB_Host_Library/Core/Src/usbh_core.c ****   USBH_StatusTypeDef ReqStatus = USBH_BUSY;
 528              		.loc 1 802 22 view .LVU184
 529 015a 0125     		movs	r5, #1
 530 015c 44E0     		b	.L12
 531              	.L48:
 935:Middlewares/ST/STM32_USB_Host_Library/Core/Src/usbh_core.c ****         phost->device.EnumCnt++;
 532              		.loc 1 935 9 is_stmt 1 view .LVU185
 935:Middlewares/ST/STM32_USB_Host_Library/Core/Src/usbh_core.c ****         phost->device.EnumCnt++;
 533              		.loc 1 935 9 view .LVU186
 935:Middlewares/ST/STM32_USB_Host_Library/Core/Src/usbh_core.c ****         phost->device.EnumCnt++;
 534              		.loc 1 935 9 view .LVU187
 936:Middlewares/ST/STM32_USB_Host_Library/Core/Src/usbh_core.c ****         if (phost->device.EnumCnt > 3U)
 535              		.loc 1 936 9 view .LVU188
 936:Middlewares/ST/STM32_USB_Host_Library/Core/Src/usbh_core.c ****         if (phost->device.EnumCnt > 3U)
 536              		.loc 1 936 22 is_stmt 0 view .LVU189
 537 015e 94F81E33 		ldrb	r3, [r4, #798]	@ zero_extendqisi2
 936:Middlewares/ST/STM32_USB_Host_Library/Core/Src/usbh_core.c ****         if (phost->device.EnumCnt > 3U)
 538              		.loc 1 936 30 view .LVU190
 539 0162 0133     		adds	r3, r3, #1
 540 0164 DBB2     		uxtb	r3, r3
 541 0166 84F81E33 		strb	r3, [r4, #798]
 937:Middlewares/ST/STM32_USB_Host_Library/Core/Src/usbh_core.c ****         {
 542              		.loc 1 937 9 is_stmt 1 view .LVU191
 937:Middlewares/ST/STM32_USB_Host_Library/Core/Src/usbh_core.c ****         {
 543              		.loc 1 937 12 is_stmt 0 view .LVU192
 544 016a 032B     		cmp	r3, #3
 545 016c 03D9     		bls	.L28
 940:Middlewares/ST/STM32_USB_Host_Library/Core/Src/usbh_core.c ****           phost->gState = HOST_ABORT_STATE;
 546              		.loc 1 940 11 is_stmt 1 view .LVU193
 940:Middlewares/ST/STM32_USB_Host_Library/Core/Src/usbh_core.c ****           phost->gState = HOST_ABORT_STATE;
 547              		.loc 1 940 11 view .LVU194
 940:Middlewares/ST/STM32_USB_Host_Library/Core/Src/usbh_core.c ****           phost->gState = HOST_ABORT_STATE;
 548              		.loc 1 940 11 view .LVU195
 941:Middlewares/ST/STM32_USB_Host_Library/Core/Src/usbh_core.c ****         }
 549              		.loc 1 941 11 view .LVU196
 941:Middlewares/ST/STM32_USB_Host_Library/Core/Src/usbh_core.c ****         }
 550              		.loc 1 941 25 is_stmt 0 view .LVU197
ARM GAS  /tmp/ccDyhIXb.s 			page 34


 551 016e 0D23     		movs	r3, #13
 552 0170 2370     		strb	r3, [r4]
 802:Middlewares/ST/STM32_USB_Host_Library/Core/Src/usbh_core.c ****   USBH_StatusTypeDef ReqStatus = USBH_BUSY;
 553              		.loc 1 802 22 view .LVU198
 554 0172 0125     		movs	r5, #1
 555 0174 38E0     		b	.L12
 556              	.L28:
 946:Middlewares/ST/STM32_USB_Host_Library/Core/Src/usbh_core.c ****           (void)USBH_FreePipe(phost, phost->Control.pipe_in);
 557              		.loc 1 946 11 is_stmt 1 view .LVU199
 946:Middlewares/ST/STM32_USB_Host_Library/Core/Src/usbh_core.c ****           (void)USBH_FreePipe(phost, phost->Control.pipe_in);
 558              		.loc 1 946 17 is_stmt 0 view .LVU200
 559 0176 6179     		ldrb	r1, [r4, #5]	@ zero_extendqisi2
 560 0178 2046     		mov	r0, r4
 561              	.LVL40:
 946:Middlewares/ST/STM32_USB_Host_Library/Core/Src/usbh_core.c ****           (void)USBH_FreePipe(phost, phost->Control.pipe_in);
 562              		.loc 1 946 17 view .LVU201
 563 017a FFF7FEFF 		bl	USBH_FreePipe
 564              	.LVL41:
 947:Middlewares/ST/STM32_USB_Host_Library/Core/Src/usbh_core.c **** 
 565              		.loc 1 947 11 is_stmt 1 view .LVU202
 947:Middlewares/ST/STM32_USB_Host_Library/Core/Src/usbh_core.c **** 
 566              		.loc 1 947 17 is_stmt 0 view .LVU203
 567 017e 2179     		ldrb	r1, [r4, #4]	@ zero_extendqisi2
 568 0180 2046     		mov	r0, r4
 569 0182 FFF7FEFF 		bl	USBH_FreePipe
 570              	.LVL42:
 950:Middlewares/ST/STM32_USB_Host_Library/Core/Src/usbh_core.c ****           phost->gState = HOST_IDLE;
 571              		.loc 1 950 11 is_stmt 1 view .LVU204
 950:Middlewares/ST/STM32_USB_Host_Library/Core/Src/usbh_core.c ****           phost->gState = HOST_IDLE;
 572              		.loc 1 950 28 is_stmt 0 view .LVU205
 573 0186 0023     		movs	r3, #0
 574 0188 6370     		strb	r3, [r4, #1]
 951:Middlewares/ST/STM32_USB_Host_Library/Core/Src/usbh_core.c ****         }
 575              		.loc 1 951 11 is_stmt 1 view .LVU206
 951:Middlewares/ST/STM32_USB_Host_Library/Core/Src/usbh_core.c ****         }
 576              		.loc 1 951 25 is_stmt 0 view .LVU207
 577 018a 2370     		strb	r3, [r4]
 802:Middlewares/ST/STM32_USB_Host_Library/Core/Src/usbh_core.c ****   USBH_StatusTypeDef ReqStatus = USBH_BUSY;
 578              		.loc 1 802 22 view .LVU208
 579 018c 0125     		movs	r5, #1
 580 018e 2BE0     		b	.L12
 581              	.LVL43:
 582              	.L17:
 962:Middlewares/ST/STM32_USB_Host_Library/Core/Src/usbh_core.c ****       if (ReqStatus == USBH_OK)
 583              		.loc 1 962 7 is_stmt 1 view .LVU209
 962:Middlewares/ST/STM32_USB_Host_Library/Core/Src/usbh_core.c ****       if (ReqStatus == USBH_OK)
 584              		.loc 1 962 19 is_stmt 0 view .LVU210
 585 0190 B0F83A13 		ldrh	r1, [r0, #826]
 586 0194 FFF7FEFF 		bl	USBH_Get_CfgDesc
 587              	.LVL44:
 963:Middlewares/ST/STM32_USB_Host_Library/Core/Src/usbh_core.c ****       {
 588              		.loc 1 963 7 is_stmt 1 view .LVU211
 963:Middlewares/ST/STM32_USB_Host_Library/Core/Src/usbh_core.c ****       {
 589              		.loc 1 963 10 is_stmt 0 view .LVU212
 590 0198 18B9     		cbnz	r0, .L29
 965:Middlewares/ST/STM32_USB_Host_Library/Core/Src/usbh_core.c ****       }
 591              		.loc 1 965 9 is_stmt 1 view .LVU213
ARM GAS  /tmp/ccDyhIXb.s 			page 35


 965:Middlewares/ST/STM32_USB_Host_Library/Core/Src/usbh_core.c ****       }
 592              		.loc 1 965 26 is_stmt 0 view .LVU214
 593 019a 0523     		movs	r3, #5
 594 019c 6370     		strb	r3, [r4, #1]
 802:Middlewares/ST/STM32_USB_Host_Library/Core/Src/usbh_core.c ****   USBH_StatusTypeDef ReqStatus = USBH_BUSY;
 595              		.loc 1 802 22 view .LVU215
 596 019e 0125     		movs	r5, #1
 597 01a0 22E0     		b	.L12
 598              	.L29:
 967:Middlewares/ST/STM32_USB_Host_Library/Core/Src/usbh_core.c ****       {
 599              		.loc 1 967 12 is_stmt 1 view .LVU216
 967:Middlewares/ST/STM32_USB_Host_Library/Core/Src/usbh_core.c ****       {
 600              		.loc 1 967 15 is_stmt 0 view .LVU217
 601 01a2 0328     		cmp	r0, #3
 602 01a4 01D0     		beq	.L49
 802:Middlewares/ST/STM32_USB_Host_Library/Core/Src/usbh_core.c ****   USBH_StatusTypeDef ReqStatus = USBH_BUSY;
 603              		.loc 1 802 22 view .LVU218
 604 01a6 0125     		movs	r5, #1
 605 01a8 1EE0     		b	.L12
 606              	.L49:
 969:Middlewares/ST/STM32_USB_Host_Library/Core/Src/usbh_core.c ****         phost->device.EnumCnt++;
 607              		.loc 1 969 9 is_stmt 1 view .LVU219
 969:Middlewares/ST/STM32_USB_Host_Library/Core/Src/usbh_core.c ****         phost->device.EnumCnt++;
 608              		.loc 1 969 9 view .LVU220
 969:Middlewares/ST/STM32_USB_Host_Library/Core/Src/usbh_core.c ****         phost->device.EnumCnt++;
 609              		.loc 1 969 9 view .LVU221
 970:Middlewares/ST/STM32_USB_Host_Library/Core/Src/usbh_core.c ****         if (phost->device.EnumCnt > 3U)
 610              		.loc 1 970 9 view .LVU222
 970:Middlewares/ST/STM32_USB_Host_Library/Core/Src/usbh_core.c ****         if (phost->device.EnumCnt > 3U)
 611              		.loc 1 970 22 is_stmt 0 view .LVU223
 612 01aa 94F81E33 		ldrb	r3, [r4, #798]	@ zero_extendqisi2
 970:Middlewares/ST/STM32_USB_Host_Library/Core/Src/usbh_core.c ****         if (phost->device.EnumCnt > 3U)
 613              		.loc 1 970 30 view .LVU224
 614 01ae 0133     		adds	r3, r3, #1
 615 01b0 DBB2     		uxtb	r3, r3
 616 01b2 84F81E33 		strb	r3, [r4, #798]
 971:Middlewares/ST/STM32_USB_Host_Library/Core/Src/usbh_core.c ****         {
 617              		.loc 1 971 9 is_stmt 1 view .LVU225
 971:Middlewares/ST/STM32_USB_Host_Library/Core/Src/usbh_core.c ****         {
 618              		.loc 1 971 12 is_stmt 0 view .LVU226
 619 01b6 032B     		cmp	r3, #3
 620 01b8 03D9     		bls	.L30
 974:Middlewares/ST/STM32_USB_Host_Library/Core/Src/usbh_core.c ****           phost->gState = HOST_ABORT_STATE;
 621              		.loc 1 974 11 is_stmt 1 view .LVU227
 974:Middlewares/ST/STM32_USB_Host_Library/Core/Src/usbh_core.c ****           phost->gState = HOST_ABORT_STATE;
 622              		.loc 1 974 11 view .LVU228
 974:Middlewares/ST/STM32_USB_Host_Library/Core/Src/usbh_core.c ****           phost->gState = HOST_ABORT_STATE;
 623              		.loc 1 974 11 view .LVU229
 975:Middlewares/ST/STM32_USB_Host_Library/Core/Src/usbh_core.c ****         }
 624              		.loc 1 975 11 view .LVU230
 975:Middlewares/ST/STM32_USB_Host_Library/Core/Src/usbh_core.c ****         }
 625              		.loc 1 975 25 is_stmt 0 view .LVU231
 626 01ba 0D23     		movs	r3, #13
 627 01bc 2370     		strb	r3, [r4]
 802:Middlewares/ST/STM32_USB_Host_Library/Core/Src/usbh_core.c ****   USBH_StatusTypeDef ReqStatus = USBH_BUSY;
 628              		.loc 1 802 22 view .LVU232
 629 01be 0125     		movs	r5, #1
ARM GAS  /tmp/ccDyhIXb.s 			page 36


 630 01c0 12E0     		b	.L12
 631              	.L30:
 980:Middlewares/ST/STM32_USB_Host_Library/Core/Src/usbh_core.c ****           (void)USBH_FreePipe(phost, phost->Control.pipe_in);
 632              		.loc 1 980 11 is_stmt 1 view .LVU233
 980:Middlewares/ST/STM32_USB_Host_Library/Core/Src/usbh_core.c ****           (void)USBH_FreePipe(phost, phost->Control.pipe_in);
 633              		.loc 1 980 17 is_stmt 0 view .LVU234
 634 01c2 6179     		ldrb	r1, [r4, #5]	@ zero_extendqisi2
 635 01c4 2046     		mov	r0, r4
 636              	.LVL45:
 980:Middlewares/ST/STM32_USB_Host_Library/Core/Src/usbh_core.c ****           (void)USBH_FreePipe(phost, phost->Control.pipe_in);
 637              		.loc 1 980 17 view .LVU235
 638 01c6 FFF7FEFF 		bl	USBH_FreePipe
 639              	.LVL46:
 981:Middlewares/ST/STM32_USB_Host_Library/Core/Src/usbh_core.c **** 
 640              		.loc 1 981 11 is_stmt 1 view .LVU236
 981:Middlewares/ST/STM32_USB_Host_Library/Core/Src/usbh_core.c **** 
 641              		.loc 1 981 17 is_stmt 0 view .LVU237
 642 01ca 2179     		ldrb	r1, [r4, #4]	@ zero_extendqisi2
 643 01cc 2046     		mov	r0, r4
 644 01ce FFF7FEFF 		bl	USBH_FreePipe
 645              	.LVL47:
 984:Middlewares/ST/STM32_USB_Host_Library/Core/Src/usbh_core.c ****           phost->gState = HOST_IDLE;
 646              		.loc 1 984 11 is_stmt 1 view .LVU238
 984:Middlewares/ST/STM32_USB_Host_Library/Core/Src/usbh_core.c ****           phost->gState = HOST_IDLE;
 647              		.loc 1 984 28 is_stmt 0 view .LVU239
 648 01d2 0023     		movs	r3, #0
 649 01d4 6370     		strb	r3, [r4, #1]
 985:Middlewares/ST/STM32_USB_Host_Library/Core/Src/usbh_core.c ****         }
 650              		.loc 1 985 11 is_stmt 1 view .LVU240
 985:Middlewares/ST/STM32_USB_Host_Library/Core/Src/usbh_core.c ****         }
 651              		.loc 1 985 25 is_stmt 0 view .LVU241
 652 01d6 2370     		strb	r3, [r4]
 802:Middlewares/ST/STM32_USB_Host_Library/Core/Src/usbh_core.c ****   USBH_StatusTypeDef ReqStatus = USBH_BUSY;
 653              		.loc 1 802 22 view .LVU242
 654 01d8 0125     		movs	r5, #1
 655 01da 05E0     		b	.L12
 656              	.LVL48:
 657              	.L16:
 995:Middlewares/ST/STM32_USB_Host_Library/Core/Src/usbh_core.c ****       {
 658              		.loc 1 995 7 is_stmt 1 view .LVU243
 995:Middlewares/ST/STM32_USB_Host_Library/Core/Src/usbh_core.c ****       {
 659              		.loc 1 995 32 is_stmt 0 view .LVU244
 660 01dc 90F83413 		ldrb	r1, [r0, #820]	@ zero_extendqisi2
 995:Middlewares/ST/STM32_USB_Host_Library/Core/Src/usbh_core.c ****       {
 661              		.loc 1 995 10 view .LVU245
 662 01e0 29B9     		cbnz	r1, .L50
1026:Middlewares/ST/STM32_USB_Host_Library/Core/Src/usbh_core.c ****         phost->EnumState = ENUM_GET_PRODUCT_STRING_DESC;
 663              		.loc 1 1026 9 is_stmt 1 view .LVU246
1026:Middlewares/ST/STM32_USB_Host_Library/Core/Src/usbh_core.c ****         phost->EnumState = ENUM_GET_PRODUCT_STRING_DESC;
 664              		.loc 1 1026 9 view .LVU247
1026:Middlewares/ST/STM32_USB_Host_Library/Core/Src/usbh_core.c ****         phost->EnumState = ENUM_GET_PRODUCT_STRING_DESC;
 665              		.loc 1 1026 9 view .LVU248
1027:Middlewares/ST/STM32_USB_Host_Library/Core/Src/usbh_core.c **** 
 666              		.loc 1 1027 9 view .LVU249
1027:Middlewares/ST/STM32_USB_Host_Library/Core/Src/usbh_core.c **** 
 667              		.loc 1 1027 26 is_stmt 0 view .LVU250
 668 01e2 0623     		movs	r3, #6
ARM GAS  /tmp/ccDyhIXb.s 			page 37


 669 01e4 4370     		strb	r3, [r0, #1]
 802:Middlewares/ST/STM32_USB_Host_Library/Core/Src/usbh_core.c ****   USBH_StatusTypeDef ReqStatus = USBH_BUSY;
 670              		.loc 1 802 22 view .LVU251
 671 01e6 0125     		movs	r5, #1
 672              	.LVL49:
 673              	.L12:
1104:Middlewares/ST/STM32_USB_Host_Library/Core/Src/usbh_core.c **** }
 674              		.loc 1 1104 3 is_stmt 1 view .LVU252
1105:Middlewares/ST/STM32_USB_Host_Library/Core/Src/usbh_core.c **** 
 675              		.loc 1 1105 1 is_stmt 0 view .LVU253
 676 01e8 2846     		mov	r0, r5
 677 01ea 04B0     		add	sp, sp, #16
 678              	.LCFI4:
 679              		.cfi_remember_state
 680              		.cfi_def_cfa_offset 16
 681              		@ sp needed
 682 01ec 70BD     		pop	{r4, r5, r6, pc}
 683              	.LVL50:
 684              	.L50:
 685              	.LCFI5:
 686              		.cfi_restore_state
 998:Middlewares/ST/STM32_USB_Host_Library/Core/Src/usbh_core.c ****                                         phost->device.Data, 0xFFU);
 687              		.loc 1 998 9 is_stmt 1 view .LVU254
 998:Middlewares/ST/STM32_USB_Host_Library/Core/Src/usbh_core.c ****                                         phost->device.Data, 0xFFU);
 688              		.loc 1 998 21 is_stmt 0 view .LVU255
 689 01ee FF23     		movs	r3, #255
 690 01f0 00F58E72 		add	r2, r0, #284
 691 01f4 FFF7FEFF 		bl	USBH_Get_StringDesc
 692              	.LVL51:
1000:Middlewares/ST/STM32_USB_Host_Library/Core/Src/usbh_core.c ****         {
 693              		.loc 1 1000 9 is_stmt 1 view .LVU256
1000:Middlewares/ST/STM32_USB_Host_Library/Core/Src/usbh_core.c ****         {
 694              		.loc 1 1000 12 is_stmt 0 view .LVU257
 695 01f8 18B9     		cbnz	r0, .L32
1003:Middlewares/ST/STM32_USB_Host_Library/Core/Src/usbh_core.c ****           phost->EnumState = ENUM_GET_PRODUCT_STRING_DESC;
 696              		.loc 1 1003 11 is_stmt 1 view .LVU258
1003:Middlewares/ST/STM32_USB_Host_Library/Core/Src/usbh_core.c ****           phost->EnumState = ENUM_GET_PRODUCT_STRING_DESC;
 697              		.loc 1 1003 11 view .LVU259
1003:Middlewares/ST/STM32_USB_Host_Library/Core/Src/usbh_core.c ****           phost->EnumState = ENUM_GET_PRODUCT_STRING_DESC;
 698              		.loc 1 1003 11 view .LVU260
1004:Middlewares/ST/STM32_USB_Host_Library/Core/Src/usbh_core.c **** 
 699              		.loc 1 1004 11 view .LVU261
1004:Middlewares/ST/STM32_USB_Host_Library/Core/Src/usbh_core.c **** 
 700              		.loc 1 1004 28 is_stmt 0 view .LVU262
 701 01fa 0623     		movs	r3, #6
 702 01fc 6370     		strb	r3, [r4, #1]
 802:Middlewares/ST/STM32_USB_Host_Library/Core/Src/usbh_core.c ****   USBH_StatusTypeDef ReqStatus = USBH_BUSY;
 703              		.loc 1 802 22 view .LVU263
 704 01fe 0125     		movs	r5, #1
 705 0200 F2E7     		b	.L12
 706              	.L32:
1010:Middlewares/ST/STM32_USB_Host_Library/Core/Src/usbh_core.c ****         {
 707              		.loc 1 1010 14 is_stmt 1 view .LVU264
1010:Middlewares/ST/STM32_USB_Host_Library/Core/Src/usbh_core.c ****         {
 708              		.loc 1 1010 17 is_stmt 0 view .LVU265
 709 0202 0328     		cmp	r0, #3
 710 0204 01D0     		beq	.L51
ARM GAS  /tmp/ccDyhIXb.s 			page 38


 802:Middlewares/ST/STM32_USB_Host_Library/Core/Src/usbh_core.c ****   USBH_StatusTypeDef ReqStatus = USBH_BUSY;
 711              		.loc 1 802 22 view .LVU266
 712 0206 0125     		movs	r5, #1
 713 0208 EEE7     		b	.L12
 714              	.L51:
1012:Middlewares/ST/STM32_USB_Host_Library/Core/Src/usbh_core.c ****           phost->EnumState = ENUM_GET_PRODUCT_STRING_DESC;
 715              		.loc 1 1012 11 is_stmt 1 view .LVU267
1012:Middlewares/ST/STM32_USB_Host_Library/Core/Src/usbh_core.c ****           phost->EnumState = ENUM_GET_PRODUCT_STRING_DESC;
 716              		.loc 1 1012 11 view .LVU268
1012:Middlewares/ST/STM32_USB_Host_Library/Core/Src/usbh_core.c ****           phost->EnumState = ENUM_GET_PRODUCT_STRING_DESC;
 717              		.loc 1 1012 11 view .LVU269
1013:Middlewares/ST/STM32_USB_Host_Library/Core/Src/usbh_core.c **** 
 718              		.loc 1 1013 11 view .LVU270
1013:Middlewares/ST/STM32_USB_Host_Library/Core/Src/usbh_core.c **** 
 719              		.loc 1 1013 28 is_stmt 0 view .LVU271
 720 020a 0623     		movs	r3, #6
 721 020c 6370     		strb	r3, [r4, #1]
 802:Middlewares/ST/STM32_USB_Host_Library/Core/Src/usbh_core.c ****   USBH_StatusTypeDef ReqStatus = USBH_BUSY;
 722              		.loc 1 802 22 view .LVU272
 723 020e 0125     		movs	r5, #1
 724 0210 EAE7     		b	.L12
 725              	.LVL52:
 726              	.L15:
1036:Middlewares/ST/STM32_USB_Host_Library/Core/Src/usbh_core.c ****       {
 727              		.loc 1 1036 7 is_stmt 1 view .LVU273
1036:Middlewares/ST/STM32_USB_Host_Library/Core/Src/usbh_core.c ****       {
 728              		.loc 1 1036 32 is_stmt 0 view .LVU274
 729 0212 90F83513 		ldrb	r1, [r0, #821]	@ zero_extendqisi2
1036:Middlewares/ST/STM32_USB_Host_Library/Core/Src/usbh_core.c ****       {
 730              		.loc 1 1036 10 view .LVU275
 731 0216 19B9     		cbnz	r1, .L52
1063:Middlewares/ST/STM32_USB_Host_Library/Core/Src/usbh_core.c ****         phost->EnumState = ENUM_GET_SERIALNUM_STRING_DESC;
 732              		.loc 1 1063 9 is_stmt 1 view .LVU276
1063:Middlewares/ST/STM32_USB_Host_Library/Core/Src/usbh_core.c ****         phost->EnumState = ENUM_GET_SERIALNUM_STRING_DESC;
 733              		.loc 1 1063 9 view .LVU277
1063:Middlewares/ST/STM32_USB_Host_Library/Core/Src/usbh_core.c ****         phost->EnumState = ENUM_GET_SERIALNUM_STRING_DESC;
 734              		.loc 1 1063 9 view .LVU278
1064:Middlewares/ST/STM32_USB_Host_Library/Core/Src/usbh_core.c **** 
 735              		.loc 1 1064 9 view .LVU279
1064:Middlewares/ST/STM32_USB_Host_Library/Core/Src/usbh_core.c **** 
 736              		.loc 1 1064 26 is_stmt 0 view .LVU280
 737 0218 0723     		movs	r3, #7
 738 021a 4370     		strb	r3, [r0, #1]
 802:Middlewares/ST/STM32_USB_Host_Library/Core/Src/usbh_core.c ****   USBH_StatusTypeDef ReqStatus = USBH_BUSY;
 739              		.loc 1 802 22 view .LVU281
 740 021c 0125     		movs	r5, #1
 741 021e E3E7     		b	.L12
 742              	.L52:
1039:Middlewares/ST/STM32_USB_Host_Library/Core/Src/usbh_core.c ****                                         phost->device.Data, 0xFFU);
 743              		.loc 1 1039 9 is_stmt 1 view .LVU282
1039:Middlewares/ST/STM32_USB_Host_Library/Core/Src/usbh_core.c ****                                         phost->device.Data, 0xFFU);
 744              		.loc 1 1039 21 is_stmt 0 view .LVU283
 745 0220 FF23     		movs	r3, #255
 746 0222 00F58E72 		add	r2, r0, #284
 747 0226 FFF7FEFF 		bl	USBH_Get_StringDesc
 748              	.LVL53:
1041:Middlewares/ST/STM32_USB_Host_Library/Core/Src/usbh_core.c ****         {
ARM GAS  /tmp/ccDyhIXb.s 			page 39


 749              		.loc 1 1041 9 is_stmt 1 view .LVU284
1041:Middlewares/ST/STM32_USB_Host_Library/Core/Src/usbh_core.c ****         {
 750              		.loc 1 1041 12 is_stmt 0 view .LVU285
 751 022a 18B9     		cbnz	r0, .L34
1044:Middlewares/ST/STM32_USB_Host_Library/Core/Src/usbh_core.c ****           phost->EnumState = ENUM_GET_SERIALNUM_STRING_DESC;
 752              		.loc 1 1044 11 is_stmt 1 view .LVU286
1044:Middlewares/ST/STM32_USB_Host_Library/Core/Src/usbh_core.c ****           phost->EnumState = ENUM_GET_SERIALNUM_STRING_DESC;
 753              		.loc 1 1044 11 view .LVU287
1044:Middlewares/ST/STM32_USB_Host_Library/Core/Src/usbh_core.c ****           phost->EnumState = ENUM_GET_SERIALNUM_STRING_DESC;
 754              		.loc 1 1044 11 view .LVU288
1045:Middlewares/ST/STM32_USB_Host_Library/Core/Src/usbh_core.c ****         }
 755              		.loc 1 1045 11 view .LVU289
1045:Middlewares/ST/STM32_USB_Host_Library/Core/Src/usbh_core.c ****         }
 756              		.loc 1 1045 28 is_stmt 0 view .LVU290
 757 022c 0723     		movs	r3, #7
 758 022e 6370     		strb	r3, [r4, #1]
 802:Middlewares/ST/STM32_USB_Host_Library/Core/Src/usbh_core.c ****   USBH_StatusTypeDef ReqStatus = USBH_BUSY;
 759              		.loc 1 802 22 view .LVU291
 760 0230 0125     		movs	r5, #1
 761 0232 D9E7     		b	.L12
 762              	.L34:
1047:Middlewares/ST/STM32_USB_Host_Library/Core/Src/usbh_core.c ****         {
 763              		.loc 1 1047 14 is_stmt 1 view .LVU292
1047:Middlewares/ST/STM32_USB_Host_Library/Core/Src/usbh_core.c ****         {
 764              		.loc 1 1047 17 is_stmt 0 view .LVU293
 765 0234 0328     		cmp	r0, #3
 766 0236 01D0     		beq	.L53
 802:Middlewares/ST/STM32_USB_Host_Library/Core/Src/usbh_core.c ****   USBH_StatusTypeDef ReqStatus = USBH_BUSY;
 767              		.loc 1 802 22 view .LVU294
 768 0238 0125     		movs	r5, #1
 769 023a D5E7     		b	.L12
 770              	.L53:
1049:Middlewares/ST/STM32_USB_Host_Library/Core/Src/usbh_core.c ****           phost->EnumState = ENUM_GET_SERIALNUM_STRING_DESC;
 771              		.loc 1 1049 11 is_stmt 1 view .LVU295
1049:Middlewares/ST/STM32_USB_Host_Library/Core/Src/usbh_core.c ****           phost->EnumState = ENUM_GET_SERIALNUM_STRING_DESC;
 772              		.loc 1 1049 11 view .LVU296
1049:Middlewares/ST/STM32_USB_Host_Library/Core/Src/usbh_core.c ****           phost->EnumState = ENUM_GET_SERIALNUM_STRING_DESC;
 773              		.loc 1 1049 11 view .LVU297
1050:Middlewares/ST/STM32_USB_Host_Library/Core/Src/usbh_core.c **** 
 774              		.loc 1 1050 11 view .LVU298
1050:Middlewares/ST/STM32_USB_Host_Library/Core/Src/usbh_core.c **** 
 775              		.loc 1 1050 28 is_stmt 0 view .LVU299
 776 023c 0723     		movs	r3, #7
 777 023e 6370     		strb	r3, [r4, #1]
 802:Middlewares/ST/STM32_USB_Host_Library/Core/Src/usbh_core.c ****   USBH_StatusTypeDef ReqStatus = USBH_BUSY;
 778              		.loc 1 802 22 view .LVU300
 779 0240 0125     		movs	r5, #1
 780 0242 D1E7     		b	.L12
 781              	.LVL54:
 782              	.L13:
1073:Middlewares/ST/STM32_USB_Host_Library/Core/Src/usbh_core.c ****       {
 783              		.loc 1 1073 7 is_stmt 1 view .LVU301
1073:Middlewares/ST/STM32_USB_Host_Library/Core/Src/usbh_core.c ****       {
 784              		.loc 1 1073 32 is_stmt 0 view .LVU302
 785 0244 90F83653 		ldrb	r5, [r0, #822]	@ zero_extendqisi2
1073:Middlewares/ST/STM32_USB_Host_Library/Core/Src/usbh_core.c ****       {
 786              		.loc 1 1073 10 view .LVU303
ARM GAS  /tmp/ccDyhIXb.s 			page 40


 787 0248 002D     		cmp	r5, #0
 788 024a CDD0     		beq	.L12
1076:Middlewares/ST/STM32_USB_Host_Library/Core/Src/usbh_core.c ****                                         phost->device.Data, 0xFFU);
 789              		.loc 1 1076 9 is_stmt 1 view .LVU304
1076:Middlewares/ST/STM32_USB_Host_Library/Core/Src/usbh_core.c ****                                         phost->device.Data, 0xFFU);
 790              		.loc 1 1076 21 is_stmt 0 view .LVU305
 791 024c FF23     		movs	r3, #255
 792 024e 00F58E72 		add	r2, r0, #284
 793 0252 2946     		mov	r1, r5
 794 0254 FFF7FEFF 		bl	USBH_Get_StringDesc
 795              	.LVL55:
1078:Middlewares/ST/STM32_USB_Host_Library/Core/Src/usbh_core.c ****         {
 796              		.loc 1 1078 9 is_stmt 1 view .LVU306
1078:Middlewares/ST/STM32_USB_Host_Library/Core/Src/usbh_core.c ****         {
 797              		.loc 1 1078 12 is_stmt 0 view .LVU307
 798 0258 0546     		mov	r5, r0
 799 025a 0028     		cmp	r0, #0
 800 025c C4D0     		beq	.L12
1084:Middlewares/ST/STM32_USB_Host_Library/Core/Src/usbh_core.c ****         {
 801              		.loc 1 1084 14 is_stmt 1 view .LVU308
1084:Middlewares/ST/STM32_USB_Host_Library/Core/Src/usbh_core.c ****         {
 802              		.loc 1 1084 17 is_stmt 0 view .LVU309
 803 025e 0328     		cmp	r0, #3
 804 0260 03D0     		beq	.L42
 802:Middlewares/ST/STM32_USB_Host_Library/Core/Src/usbh_core.c ****   USBH_StatusTypeDef ReqStatus = USBH_BUSY;
 805              		.loc 1 802 22 view .LVU310
 806 0262 0125     		movs	r5, #1
 807 0264 C0E7     		b	.L12
 808              	.LVL56:
 809              	.L35:
 805:Middlewares/ST/STM32_USB_Host_Library/Core/Src/usbh_core.c ****   {
 810              		.loc 1 805 3 view .LVU311
 811 0266 0125     		movs	r5, #1
 812 0268 BEE7     		b	.L12
 813              	.LVL57:
 814              	.L42:
1087:Middlewares/ST/STM32_USB_Host_Library/Core/Src/usbh_core.c ****         }
 815              		.loc 1 1087 18 view .LVU312
 816 026a 0025     		movs	r5, #0
 817 026c BCE7     		b	.L12
 818              		.cfi_endproc
 819              	.LFE156:
 821              		.section	.text.USBH_Init,"ax",%progbits
 822              		.align	1
 823              		.global	USBH_Init
 824              		.syntax unified
 825              		.thumb
 826              		.thumb_func
 828              	USBH_Init:
 829              	.LVL58:
 830              	.LFB144:
  98:Middlewares/ST/STM32_USB_Host_Library/Core/Src/usbh_core.c ****   /* Check whether the USB Host handle is valid */
 831              		.loc 1 98 1 is_stmt 1 view -0
 832              		.cfi_startproc
 833              		@ args = 0, pretend = 0, frame = 0
 834              		@ frame_needed = 0, uses_anonymous_args = 0
 100:Middlewares/ST/STM32_USB_Host_Library/Core/Src/usbh_core.c ****   {
ARM GAS  /tmp/ccDyhIXb.s 			page 41


 835              		.loc 1 100 3 view .LVU314
 100:Middlewares/ST/STM32_USB_Host_Library/Core/Src/usbh_core.c ****   {
 836              		.loc 1 100 6 is_stmt 0 view .LVU315
 837 0000 D8B1     		cbz	r0, .L57
  98:Middlewares/ST/STM32_USB_Host_Library/Core/Src/usbh_core.c ****   /* Check whether the USB Host handle is valid */
 838              		.loc 1 98 1 view .LVU316
 839 0002 70B5     		push	{r4, r5, r6, lr}
 840              	.LCFI6:
 841              		.cfi_def_cfa_offset 16
 842              		.cfi_offset 4, -16
 843              		.cfi_offset 5, -12
 844              		.cfi_offset 6, -8
 845              		.cfi_offset 14, -4
 846 0004 0E46     		mov	r6, r1
 847 0006 0446     		mov	r4, r0
 107:Middlewares/ST/STM32_USB_Host_Library/Core/Src/usbh_core.c **** 
 848              		.loc 1 107 3 is_stmt 1 view .LVU317
 107:Middlewares/ST/STM32_USB_Host_Library/Core/Src/usbh_core.c **** 
 849              		.loc 1 107 13 is_stmt 0 view .LVU318
 850 0008 80F8CC23 		strb	r2, [r0, #972]
 110:Middlewares/ST/STM32_USB_Host_Library/Core/Src/usbh_core.c ****   phost->ClassNumber = 0U;
 851              		.loc 1 110 3 is_stmt 1 view .LVU319
 110:Middlewares/ST/STM32_USB_Host_Library/Core/Src/usbh_core.c ****   phost->ClassNumber = 0U;
 852              		.loc 1 110 23 is_stmt 0 view .LVU320
 853 000c 0025     		movs	r5, #0
 854 000e C0F87C53 		str	r5, [r0, #892]
 111:Middlewares/ST/STM32_USB_Host_Library/Core/Src/usbh_core.c **** 
 855              		.loc 1 111 3 is_stmt 1 view .LVU321
 111:Middlewares/ST/STM32_USB_Host_Library/Core/Src/usbh_core.c **** 
 856              		.loc 1 111 22 is_stmt 0 view .LVU322
 857 0012 C0F88053 		str	r5, [r0, #896]
 114:Middlewares/ST/STM32_USB_Host_Library/Core/Src/usbh_core.c **** 
 858              		.loc 1 114 3 is_stmt 1 view .LVU323
 114:Middlewares/ST/STM32_USB_Host_Library/Core/Src/usbh_core.c **** 
 859              		.loc 1 114 9 is_stmt 0 view .LVU324
 860 0016 FFF7FEFF 		bl	DeInitStateMachine
 861              	.LVL59:
 117:Middlewares/ST/STM32_USB_Host_Library/Core/Src/usbh_core.c ****   phost->device.is_connected = 0U;
 862              		.loc 1 117 3 is_stmt 1 view .LVU325
 117:Middlewares/ST/STM32_USB_Host_Library/Core/Src/usbh_core.c ****   phost->device.is_connected = 0U;
 863              		.loc 1 117 29 is_stmt 0 view .LVU326
 864 001a 84F82353 		strb	r5, [r4, #803]
 118:Middlewares/ST/STM32_USB_Host_Library/Core/Src/usbh_core.c ****   phost->device.is_disconnected = 0U;
 865              		.loc 1 118 3 is_stmt 1 view .LVU327
 118:Middlewares/ST/STM32_USB_Host_Library/Core/Src/usbh_core.c ****   phost->device.is_disconnected = 0U;
 866              		.loc 1 118 30 is_stmt 0 view .LVU328
 867 001e 84F82053 		strb	r5, [r4, #800]
 119:Middlewares/ST/STM32_USB_Host_Library/Core/Src/usbh_core.c ****   phost->device.is_ReEnumerated = 0U;
 868              		.loc 1 119 3 is_stmt 1 view .LVU329
 119:Middlewares/ST/STM32_USB_Host_Library/Core/Src/usbh_core.c ****   phost->device.is_ReEnumerated = 0U;
 869              		.loc 1 119 33 is_stmt 0 view .LVU330
 870 0022 84F82153 		strb	r5, [r4, #801]
 120:Middlewares/ST/STM32_USB_Host_Library/Core/Src/usbh_core.c **** 
 871              		.loc 1 120 3 is_stmt 1 view .LVU331
 120:Middlewares/ST/STM32_USB_Host_Library/Core/Src/usbh_core.c **** 
 872              		.loc 1 120 33 is_stmt 0 view .LVU332
 873 0026 84F82253 		strb	r5, [r4, #802]
ARM GAS  /tmp/ccDyhIXb.s 			page 42


 123:Middlewares/ST/STM32_USB_Host_Library/Core/Src/usbh_core.c ****   {
 874              		.loc 1 123 3 is_stmt 1 view .LVU333
 123:Middlewares/ST/STM32_USB_Host_Library/Core/Src/usbh_core.c ****   {
 875              		.loc 1 123 6 is_stmt 0 view .LVU334
 876 002a 0EB1     		cbz	r6, .L56
 125:Middlewares/ST/STM32_USB_Host_Library/Core/Src/usbh_core.c ****   }
 877              		.loc 1 125 5 is_stmt 1 view .LVU335
 125:Middlewares/ST/STM32_USB_Host_Library/Core/Src/usbh_core.c ****   }
 878              		.loc 1 125 18 is_stmt 0 view .LVU336
 879 002c C4F8D463 		str	r6, [r4, #980]
 880              	.L56:
 165:Middlewares/ST/STM32_USB_Host_Library/Core/Src/usbh_core.c **** 
 881              		.loc 1 165 3 is_stmt 1 view .LVU337
 165:Middlewares/ST/STM32_USB_Host_Library/Core/Src/usbh_core.c **** 
 882              		.loc 1 165 9 is_stmt 0 view .LVU338
 883 0030 2046     		mov	r0, r4
 884 0032 FFF7FEFF 		bl	USBH_LL_Init
 885              	.LVL60:
 167:Middlewares/ST/STM32_USB_Host_Library/Core/Src/usbh_core.c **** }
 886              		.loc 1 167 3 is_stmt 1 view .LVU339
 167:Middlewares/ST/STM32_USB_Host_Library/Core/Src/usbh_core.c **** }
 887              		.loc 1 167 10 is_stmt 0 view .LVU340
 888 0036 0020     		movs	r0, #0
 168:Middlewares/ST/STM32_USB_Host_Library/Core/Src/usbh_core.c **** 
 889              		.loc 1 168 1 view .LVU341
 890 0038 70BD     		pop	{r4, r5, r6, pc}
 891              	.LVL61:
 892              	.L57:
 893              	.LCFI7:
 894              		.cfi_def_cfa_offset 0
 895              		.cfi_restore 4
 896              		.cfi_restore 5
 897              		.cfi_restore 6
 898              		.cfi_restore 14
 103:Middlewares/ST/STM32_USB_Host_Library/Core/Src/usbh_core.c ****   }
 899              		.loc 1 103 12 view .LVU342
 900 003a 0220     		movs	r0, #2
 901              	.LVL62:
 168:Middlewares/ST/STM32_USB_Host_Library/Core/Src/usbh_core.c **** 
 902              		.loc 1 168 1 view .LVU343
 903 003c 7047     		bx	lr
 904              		.cfi_endproc
 905              	.LFE144:
 907              		.section	.text.USBH_DeInit,"ax",%progbits
 908              		.align	1
 909              		.global	USBH_DeInit
 910              		.syntax unified
 911              		.thumb
 912              		.thumb_func
 914              	USBH_DeInit:
 915              	.LVL63:
 916              	.LFB145:
 178:Middlewares/ST/STM32_USB_Host_Library/Core/Src/usbh_core.c ****   (void)DeInitStateMachine(phost);
 917              		.loc 1 178 1 is_stmt 1 view -0
 918              		.cfi_startproc
 919              		@ args = 0, pretend = 0, frame = 0
 920              		@ frame_needed = 0, uses_anonymous_args = 0
ARM GAS  /tmp/ccDyhIXb.s 			page 43


 178:Middlewares/ST/STM32_USB_Host_Library/Core/Src/usbh_core.c ****   (void)DeInitStateMachine(phost);
 921              		.loc 1 178 1 is_stmt 0 view .LVU345
 922 0000 10B5     		push	{r4, lr}
 923              	.LCFI8:
 924              		.cfi_def_cfa_offset 8
 925              		.cfi_offset 4, -8
 926              		.cfi_offset 14, -4
 927 0002 0446     		mov	r4, r0
 179:Middlewares/ST/STM32_USB_Host_Library/Core/Src/usbh_core.c **** 
 928              		.loc 1 179 3 is_stmt 1 view .LVU346
 179:Middlewares/ST/STM32_USB_Host_Library/Core/Src/usbh_core.c **** 
 929              		.loc 1 179 9 is_stmt 0 view .LVU347
 930 0004 FFF7FEFF 		bl	DeInitStateMachine
 931              	.LVL64:
 182:Middlewares/ST/STM32_USB_Host_Library/Core/Src/usbh_core.c ****   phost->device.is_connected = 0U;
 932              		.loc 1 182 3 is_stmt 1 view .LVU348
 182:Middlewares/ST/STM32_USB_Host_Library/Core/Src/usbh_core.c ****   phost->device.is_connected = 0U;
 933              		.loc 1 182 29 is_stmt 0 view .LVU349
 934 0008 0023     		movs	r3, #0
 935 000a 84F82333 		strb	r3, [r4, #803]
 183:Middlewares/ST/STM32_USB_Host_Library/Core/Src/usbh_core.c ****   phost->device.is_disconnected = 0U;
 936              		.loc 1 183 3 is_stmt 1 view .LVU350
 183:Middlewares/ST/STM32_USB_Host_Library/Core/Src/usbh_core.c ****   phost->device.is_disconnected = 0U;
 937              		.loc 1 183 30 is_stmt 0 view .LVU351
 938 000e 84F82033 		strb	r3, [r4, #800]
 184:Middlewares/ST/STM32_USB_Host_Library/Core/Src/usbh_core.c ****   phost->device.is_ReEnumerated = 0U;
 939              		.loc 1 184 3 is_stmt 1 view .LVU352
 184:Middlewares/ST/STM32_USB_Host_Library/Core/Src/usbh_core.c ****   phost->device.is_ReEnumerated = 0U;
 940              		.loc 1 184 33 is_stmt 0 view .LVU353
 941 0012 84F82133 		strb	r3, [r4, #801]
 185:Middlewares/ST/STM32_USB_Host_Library/Core/Src/usbh_core.c ****   phost->device.RstCnt = 0U;
 942              		.loc 1 185 3 is_stmt 1 view .LVU354
 185:Middlewares/ST/STM32_USB_Host_Library/Core/Src/usbh_core.c ****   phost->device.RstCnt = 0U;
 943              		.loc 1 185 33 is_stmt 0 view .LVU355
 944 0016 84F82233 		strb	r3, [r4, #802]
 186:Middlewares/ST/STM32_USB_Host_Library/Core/Src/usbh_core.c ****   phost->device.EnumCnt = 0U;
 945              		.loc 1 186 3 is_stmt 1 view .LVU356
 186:Middlewares/ST/STM32_USB_Host_Library/Core/Src/usbh_core.c ****   phost->device.EnumCnt = 0U;
 946              		.loc 1 186 24 is_stmt 0 view .LVU357
 947 001a 84F81F33 		strb	r3, [r4, #799]
 187:Middlewares/ST/STM32_USB_Host_Library/Core/Src/usbh_core.c **** 
 948              		.loc 1 187 3 is_stmt 1 view .LVU358
 187:Middlewares/ST/STM32_USB_Host_Library/Core/Src/usbh_core.c **** 
 949              		.loc 1 187 25 is_stmt 0 view .LVU359
 950 001e 84F81E33 		strb	r3, [r4, #798]
 189:Middlewares/ST/STM32_USB_Host_Library/Core/Src/usbh_core.c ****   {
 951              		.loc 1 189 3 is_stmt 1 view .LVU360
 189:Middlewares/ST/STM32_USB_Host_Library/Core/Src/usbh_core.c ****   {
 952              		.loc 1 189 12 is_stmt 0 view .LVU361
 953 0022 D4F8D033 		ldr	r3, [r4, #976]
 189:Middlewares/ST/STM32_USB_Host_Library/Core/Src/usbh_core.c ****   {
 954              		.loc 1 189 6 view .LVU362
 955 0026 13B1     		cbz	r3, .L63
 191:Middlewares/ST/STM32_USB_Host_Library/Core/Src/usbh_core.c ****   }
 956              		.loc 1 191 5 is_stmt 1 view .LVU363
 191:Middlewares/ST/STM32_USB_Host_Library/Core/Src/usbh_core.c ****   }
 957              		.loc 1 191 11 is_stmt 0 view .LVU364
ARM GAS  /tmp/ccDyhIXb.s 			page 44


 958 0028 2046     		mov	r0, r4
 959 002a FFF7FEFF 		bl	USBH_LL_Stop
 960              	.LVL65:
 961              	.L63:
 210:Middlewares/ST/STM32_USB_Host_Library/Core/Src/usbh_core.c **** }
 962              		.loc 1 210 3 is_stmt 1 view .LVU365
 211:Middlewares/ST/STM32_USB_Host_Library/Core/Src/usbh_core.c **** 
 963              		.loc 1 211 1 is_stmt 0 view .LVU366
 964 002e 0020     		movs	r0, #0
 965 0030 10BD     		pop	{r4, pc}
 211:Middlewares/ST/STM32_USB_Host_Library/Core/Src/usbh_core.c **** 
 966              		.loc 1 211 1 view .LVU367
 967              		.cfi_endproc
 968              	.LFE145:
 970              		.section	.text.USBH_RegisterClass,"ax",%progbits
 971              		.align	1
 972              		.global	USBH_RegisterClass
 973              		.syntax unified
 974              		.thumb
 975              		.thumb_func
 977              	USBH_RegisterClass:
 978              	.LVL66:
 979              	.LFB147:
 267:Middlewares/ST/STM32_USB_Host_Library/Core/Src/usbh_core.c ****   USBH_StatusTypeDef status = USBH_OK;
 980              		.loc 1 267 1 is_stmt 1 view -0
 981              		.cfi_startproc
 982              		@ args = 0, pretend = 0, frame = 0
 983              		@ frame_needed = 0, uses_anonymous_args = 0
 984              		@ link register save eliminated.
 268:Middlewares/ST/STM32_USB_Host_Library/Core/Src/usbh_core.c **** 
 985              		.loc 1 268 3 view .LVU369
 270:Middlewares/ST/STM32_USB_Host_Library/Core/Src/usbh_core.c ****   {
 986              		.loc 1 270 3 view .LVU370
 270:Middlewares/ST/STM32_USB_Host_Library/Core/Src/usbh_core.c ****   {
 987              		.loc 1 270 6 is_stmt 0 view .LVU371
 988 0000 0A46     		mov	r2, r1
 989 0002 51B1     		cbz	r1, .L67
 272:Middlewares/ST/STM32_USB_Host_Library/Core/Src/usbh_core.c ****     {
 990              		.loc 1 272 5 is_stmt 1 view .LVU372
 272:Middlewares/ST/STM32_USB_Host_Library/Core/Src/usbh_core.c ****     {
 991              		.loc 1 272 14 is_stmt 0 view .LVU373
 992 0004 D0F88033 		ldr	r3, [r0, #896]
 272:Middlewares/ST/STM32_USB_Host_Library/Core/Src/usbh_core.c ****     {
 993              		.loc 1 272 8 view .LVU374
 994 0008 4BB9     		cbnz	r3, .L68
 275:Middlewares/ST/STM32_USB_Host_Library/Core/Src/usbh_core.c ****       status = USBH_OK;
 995              		.loc 1 275 7 is_stmt 1 view .LVU375
 275:Middlewares/ST/STM32_USB_Host_Library/Core/Src/usbh_core.c ****       status = USBH_OK;
 996              		.loc 1 275 39 is_stmt 0 view .LVU376
 997 000a 591C     		adds	r1, r3, #1
 998              	.LVL67:
 275:Middlewares/ST/STM32_USB_Host_Library/Core/Src/usbh_core.c ****       status = USBH_OK;
 999              		.loc 1 275 39 view .LVU377
 1000 000c C0F88013 		str	r1, [r0, #896]
 275:Middlewares/ST/STM32_USB_Host_Library/Core/Src/usbh_core.c ****       status = USBH_OK;
 1001              		.loc 1 275 43 view .LVU378
 1002 0010 DE33     		adds	r3, r3, #222
ARM GAS  /tmp/ccDyhIXb.s 			page 45


 1003 0012 40F82320 		str	r2, [r0, r3, lsl #2]
 276:Middlewares/ST/STM32_USB_Host_Library/Core/Src/usbh_core.c ****     }
 1004              		.loc 1 276 7 is_stmt 1 view .LVU379
 276:Middlewares/ST/STM32_USB_Host_Library/Core/Src/usbh_core.c ****     }
 1005              		.loc 1 276 14 is_stmt 0 view .LVU380
 1006 0016 0020     		movs	r0, #0
 1007              	.LVL68:
 276:Middlewares/ST/STM32_USB_Host_Library/Core/Src/usbh_core.c ****     }
 1008              		.loc 1 276 14 view .LVU381
 1009 0018 7047     		bx	lr
 1010              	.LVL69:
 1011              	.L67:
 287:Middlewares/ST/STM32_USB_Host_Library/Core/Src/usbh_core.c ****   }
 1012              		.loc 1 287 12 view .LVU382
 1013 001a 0220     		movs	r0, #2
 1014              	.LVL70:
 287:Middlewares/ST/STM32_USB_Host_Library/Core/Src/usbh_core.c ****   }
 1015              		.loc 1 287 12 view .LVU383
 1016 001c 7047     		bx	lr
 1017              	.LVL71:
 1018              	.L68:
 281:Middlewares/ST/STM32_USB_Host_Library/Core/Src/usbh_core.c ****     }
 1019              		.loc 1 281 14 view .LVU384
 1020 001e 0220     		movs	r0, #2
 1021              	.LVL72:
 290:Middlewares/ST/STM32_USB_Host_Library/Core/Src/usbh_core.c **** }
 1022              		.loc 1 290 3 is_stmt 1 view .LVU385
 291:Middlewares/ST/STM32_USB_Host_Library/Core/Src/usbh_core.c **** 
 1023              		.loc 1 291 1 is_stmt 0 view .LVU386
 1024 0020 7047     		bx	lr
 1025              		.cfi_endproc
 1026              	.LFE147:
 1028              		.section	.text.USBH_SelectInterface,"ax",%progbits
 1029              		.align	1
 1030              		.global	USBH_SelectInterface
 1031              		.syntax unified
 1032              		.thumb
 1033              		.thumb_func
 1035              	USBH_SelectInterface:
 1036              	.LVL73:
 1037              	.LFB148:
 302:Middlewares/ST/STM32_USB_Host_Library/Core/Src/usbh_core.c ****   USBH_StatusTypeDef status = USBH_OK;
 1038              		.loc 1 302 1 is_stmt 1 view -0
 1039              		.cfi_startproc
 1040              		@ args = 0, pretend = 0, frame = 0
 1041              		@ frame_needed = 0, uses_anonymous_args = 0
 1042              		@ link register save eliminated.
 303:Middlewares/ST/STM32_USB_Host_Library/Core/Src/usbh_core.c **** 
 1043              		.loc 1 303 3 view .LVU388
 305:Middlewares/ST/STM32_USB_Host_Library/Core/Src/usbh_core.c ****   {
 1044              		.loc 1 305 3 view .LVU389
 305:Middlewares/ST/STM32_USB_Host_Library/Core/Src/usbh_core.c ****   {
 1045              		.loc 1 305 40 is_stmt 0 view .LVU390
 1046 0000 90F83C33 		ldrb	r3, [r0, #828]	@ zero_extendqisi2
 305:Middlewares/ST/STM32_USB_Host_Library/Core/Src/usbh_core.c ****   {
 1047              		.loc 1 305 6 view .LVU391
 1048 0004 8B42     		cmp	r3, r1
ARM GAS  /tmp/ccDyhIXb.s 			page 46


 1049 0006 03D9     		bls	.L71
 307:Middlewares/ST/STM32_USB_Host_Library/Core/Src/usbh_core.c ****     USBH_UsrLog("Switching to Interface (#%d)", interface);
 1050              		.loc 1 307 5 is_stmt 1 view .LVU392
 307:Middlewares/ST/STM32_USB_Host_Library/Core/Src/usbh_core.c ****     USBH_UsrLog("Switching to Interface (#%d)", interface);
 1051              		.loc 1 307 37 is_stmt 0 view .LVU393
 1052 0008 80F82413 		strb	r1, [r0, #804]
 308:Middlewares/ST/STM32_USB_Host_Library/Core/Src/usbh_core.c ****     USBH_UsrLog("Class    : %xh", phost->device.CfgDesc.Itf_Desc[interface].bInterfaceClass);
 1053              		.loc 1 308 5 is_stmt 1 view .LVU394
 308:Middlewares/ST/STM32_USB_Host_Library/Core/Src/usbh_core.c ****     USBH_UsrLog("Class    : %xh", phost->device.CfgDesc.Itf_Desc[interface].bInterfaceClass);
 1054              		.loc 1 308 5 view .LVU395
 308:Middlewares/ST/STM32_USB_Host_Library/Core/Src/usbh_core.c ****     USBH_UsrLog("Class    : %xh", phost->device.CfgDesc.Itf_Desc[interface].bInterfaceClass);
 1055              		.loc 1 308 5 view .LVU396
 309:Middlewares/ST/STM32_USB_Host_Library/Core/Src/usbh_core.c ****     USBH_UsrLog("SubClass : %xh", phost->device.CfgDesc.Itf_Desc[interface].bInterfaceSubClass);
 1056              		.loc 1 309 5 view .LVU397
 309:Middlewares/ST/STM32_USB_Host_Library/Core/Src/usbh_core.c ****     USBH_UsrLog("SubClass : %xh", phost->device.CfgDesc.Itf_Desc[interface].bInterfaceSubClass);
 1057              		.loc 1 309 5 view .LVU398
 309:Middlewares/ST/STM32_USB_Host_Library/Core/Src/usbh_core.c ****     USBH_UsrLog("SubClass : %xh", phost->device.CfgDesc.Itf_Desc[interface].bInterfaceSubClass);
 1058              		.loc 1 309 5 view .LVU399
 310:Middlewares/ST/STM32_USB_Host_Library/Core/Src/usbh_core.c ****     USBH_UsrLog("Protocol : %xh", phost->device.CfgDesc.Itf_Desc[interface].bInterfaceProtocol);
 1059              		.loc 1 310 5 view .LVU400
 310:Middlewares/ST/STM32_USB_Host_Library/Core/Src/usbh_core.c ****     USBH_UsrLog("Protocol : %xh", phost->device.CfgDesc.Itf_Desc[interface].bInterfaceProtocol);
 1060              		.loc 1 310 5 view .LVU401
 310:Middlewares/ST/STM32_USB_Host_Library/Core/Src/usbh_core.c ****     USBH_UsrLog("Protocol : %xh", phost->device.CfgDesc.Itf_Desc[interface].bInterfaceProtocol);
 1061              		.loc 1 310 5 view .LVU402
 311:Middlewares/ST/STM32_USB_Host_Library/Core/Src/usbh_core.c ****   }
 1062              		.loc 1 311 5 view .LVU403
 311:Middlewares/ST/STM32_USB_Host_Library/Core/Src/usbh_core.c ****   }
 1063              		.loc 1 311 5 view .LVU404
 311:Middlewares/ST/STM32_USB_Host_Library/Core/Src/usbh_core.c ****   }
 1064              		.loc 1 311 5 view .LVU405
 303:Middlewares/ST/STM32_USB_Host_Library/Core/Src/usbh_core.c **** 
 1065              		.loc 1 303 22 is_stmt 0 view .LVU406
 1066 000c 0020     		movs	r0, #0
 1067              	.LVL74:
 303:Middlewares/ST/STM32_USB_Host_Library/Core/Src/usbh_core.c **** 
 1068              		.loc 1 303 22 view .LVU407
 1069 000e 7047     		bx	lr
 1070              	.LVL75:
 1071              	.L71:
 316:Middlewares/ST/STM32_USB_Host_Library/Core/Src/usbh_core.c ****   }
 1072              		.loc 1 316 12 view .LVU408
 1073 0010 0220     		movs	r0, #2
 1074              	.LVL76:
 319:Middlewares/ST/STM32_USB_Host_Library/Core/Src/usbh_core.c **** }
 1075              		.loc 1 319 3 is_stmt 1 view .LVU409
 320:Middlewares/ST/STM32_USB_Host_Library/Core/Src/usbh_core.c **** 
 1076              		.loc 1 320 1 is_stmt 0 view .LVU410
 1077 0012 7047     		bx	lr
 1078              		.cfi_endproc
 1079              	.LFE148:
 1081              		.section	.text.USBH_GetActiveClass,"ax",%progbits
 1082              		.align	1
 1083              		.global	USBH_GetActiveClass
 1084              		.syntax unified
 1085              		.thumb
 1086              		.thumb_func
 1088              	USBH_GetActiveClass:
ARM GAS  /tmp/ccDyhIXb.s 			page 47


 1089              	.LVL77:
 1090              	.LFB149:
 331:Middlewares/ST/STM32_USB_Host_Library/Core/Src/usbh_core.c ****   return (phost->device.CfgDesc.Itf_Desc[0].bInterfaceClass);
 1091              		.loc 1 331 1 is_stmt 1 view -0
 1092              		.cfi_startproc
 1093              		@ args = 0, pretend = 0, frame = 0
 1094              		@ frame_needed = 0, uses_anonymous_args = 0
 1095              		@ link register save eliminated.
 332:Middlewares/ST/STM32_USB_Host_Library/Core/Src/usbh_core.c **** }
 1096              		.loc 1 332 3 view .LVU412
 333:Middlewares/ST/STM32_USB_Host_Library/Core/Src/usbh_core.c **** 
 1097              		.loc 1 333 1 is_stmt 0 view .LVU413
 1098 0000 90F84703 		ldrb	r0, [r0, #839]	@ zero_extendqisi2
 1099              	.LVL78:
 333:Middlewares/ST/STM32_USB_Host_Library/Core/Src/usbh_core.c **** 
 1100              		.loc 1 333 1 view .LVU414
 1101 0004 7047     		bx	lr
 1102              		.cfi_endproc
 1103              	.LFE149:
 1105              		.section	.text.USBH_FindInterface,"ax",%progbits
 1106              		.align	1
 1107              		.global	USBH_FindInterface
 1108              		.syntax unified
 1109              		.thumb
 1110              		.thumb_func
 1112              	USBH_FindInterface:
 1113              	.LVL79:
 1114              	.LFB150:
 347:Middlewares/ST/STM32_USB_Host_Library/Core/Src/usbh_core.c ****   USBH_InterfaceDescTypeDef *pif;
 1115              		.loc 1 347 1 is_stmt 1 view -0
 1116              		.cfi_startproc
 1117              		@ args = 0, pretend = 0, frame = 0
 1118              		@ frame_needed = 0, uses_anonymous_args = 0
 347:Middlewares/ST/STM32_USB_Host_Library/Core/Src/usbh_core.c ****   USBH_InterfaceDescTypeDef *pif;
 1119              		.loc 1 347 1 is_stmt 0 view .LVU416
 1120 0000 10B5     		push	{r4, lr}
 1121              	.LCFI9:
 1122              		.cfi_def_cfa_offset 8
 1123              		.cfi_offset 4, -8
 1124              		.cfi_offset 14, -4
 1125 0002 0446     		mov	r4, r0
 348:Middlewares/ST/STM32_USB_Host_Library/Core/Src/usbh_core.c ****   USBH_CfgDescTypeDef *pcfg;
 1126              		.loc 1 348 3 is_stmt 1 view .LVU417
 349:Middlewares/ST/STM32_USB_Host_Library/Core/Src/usbh_core.c ****   uint8_t if_ix = 0U;
 1127              		.loc 1 349 3 view .LVU418
 350:Middlewares/ST/STM32_USB_Host_Library/Core/Src/usbh_core.c **** 
 1128              		.loc 1 350 3 view .LVU419
 1129              	.LVL80:
 352:Middlewares/ST/STM32_USB_Host_Library/Core/Src/usbh_core.c ****   pcfg = &phost->device.CfgDesc;
 1130              		.loc 1 352 3 view .LVU420
 353:Middlewares/ST/STM32_USB_Host_Library/Core/Src/usbh_core.c **** 
 1131              		.loc 1 353 3 view .LVU421
 355:Middlewares/ST/STM32_USB_Host_Library/Core/Src/usbh_core.c ****   {
 1132              		.loc 1 355 3 view .LVU422
 350:Middlewares/ST/STM32_USB_Host_Library/Core/Src/usbh_core.c **** 
 1133              		.loc 1 350 11 is_stmt 0 view .LVU423
 1134 0004 0020     		movs	r0, #0
ARM GAS  /tmp/ccDyhIXb.s 			page 48


 1135              	.LVL81:
 355:Middlewares/ST/STM32_USB_Host_Library/Core/Src/usbh_core.c ****   {
 1136              		.loc 1 355 9 view .LVU424
 1137 0006 0BE0     		b	.L74
 1138              	.LVL82:
 1139              	.L77:
 360:Middlewares/ST/STM32_USB_Host_Library/Core/Src/usbh_core.c ****     {
 1140              		.loc 1 360 14 view .LVU425
 1141 0008 4FF01A0C 		mov	ip, #26
 1142 000c 0CFB0E4E 		mla	lr, ip, lr, r4
 1143 0010 9EF849C3 		ldrb	ip, [lr, #841]	@ zero_extendqisi2
 359:Middlewares/ST/STM32_USB_Host_Library/Core/Src/usbh_core.c ****         ((pif->bInterfaceProtocol == Protocol) || (Protocol == 0xFFU)))
 1144              		.loc 1 359 72 discriminator 1 view .LVU426
 1145 0014 9C45     		cmp	ip, r3
 1146 0016 1CD0     		beq	.L78
 360:Middlewares/ST/STM32_USB_Host_Library/Core/Src/usbh_core.c ****     {
 1147              		.loc 1 360 48 view .LVU427
 1148 0018 FF2B     		cmp	r3, #255
 1149 001a 1AD0     		beq	.L78
 1150              	.L76:
 364:Middlewares/ST/STM32_USB_Host_Library/Core/Src/usbh_core.c ****   }
 1151              		.loc 1 364 5 is_stmt 1 view .LVU428
 364:Middlewares/ST/STM32_USB_Host_Library/Core/Src/usbh_core.c ****   }
 1152              		.loc 1 364 10 is_stmt 0 view .LVU429
 1153 001c 0130     		adds	r0, r0, #1
 1154              	.LVL83:
 364:Middlewares/ST/STM32_USB_Host_Library/Core/Src/usbh_core.c ****   }
 1155              		.loc 1 364 10 view .LVU430
 1156 001e C0B2     		uxtb	r0, r0
 1157              	.LVL84:
 1158              	.L74:
 355:Middlewares/ST/STM32_USB_Host_Library/Core/Src/usbh_core.c ****   {
 1159              		.loc 1 355 16 is_stmt 1 view .LVU431
 1160 0020 0128     		cmp	r0, #1
 1161 0022 15D8     		bhi	.L81
 357:Middlewares/ST/STM32_USB_Host_Library/Core/Src/usbh_core.c ****     if (((pif->bInterfaceClass == Class) || (Class == 0xFFU)) &&
 1162              		.loc 1 357 5 view .LVU432
 357:Middlewares/ST/STM32_USB_Host_Library/Core/Src/usbh_core.c ****     if (((pif->bInterfaceClass == Class) || (Class == 0xFFU)) &&
 1163              		.loc 1 357 26 is_stmt 0 view .LVU433
 1164 0024 8646     		mov	lr, r0
 1165              	.LVL85:
 358:Middlewares/ST/STM32_USB_Host_Library/Core/Src/usbh_core.c ****         ((pif->bInterfaceSubClass == SubClass) || (SubClass == 0xFFU)) &&
 1166              		.loc 1 358 5 is_stmt 1 view .LVU434
 358:Middlewares/ST/STM32_USB_Host_Library/Core/Src/usbh_core.c ****         ((pif->bInterfaceSubClass == SubClass) || (SubClass == 0xFFU)) &&
 1167              		.loc 1 358 14 is_stmt 0 view .LVU435
 1168 0026 4FF01A0C 		mov	ip, #26
 1169 002a 0CFB004C 		mla	ip, ip, r0, r4
 1170 002e 9CF847C3 		ldrb	ip, [ip, #839]	@ zero_extendqisi2
 358:Middlewares/ST/STM32_USB_Host_Library/Core/Src/usbh_core.c ****         ((pif->bInterfaceSubClass == SubClass) || (SubClass == 0xFFU)) &&
 1171              		.loc 1 358 8 view .LVU436
 1172 0032 8C45     		cmp	ip, r1
 1173 0034 01D0     		beq	.L75
 358:Middlewares/ST/STM32_USB_Host_Library/Core/Src/usbh_core.c ****         ((pif->bInterfaceSubClass == SubClass) || (SubClass == 0xFFU)) &&
 1174              		.loc 1 358 42 discriminator 2 view .LVU437
 1175 0036 FF29     		cmp	r1, #255
 1176 0038 F0D1     		bne	.L76
 1177              	.L75:
ARM GAS  /tmp/ccDyhIXb.s 			page 49


 359:Middlewares/ST/STM32_USB_Host_Library/Core/Src/usbh_core.c ****         ((pif->bInterfaceProtocol == Protocol) || (Protocol == 0xFFU)))
 1178              		.loc 1 359 14 view .LVU438
 1179 003a 4FF01A0C 		mov	ip, #26
 1180 003e 0CFB0E4C 		mla	ip, ip, lr, r4
 1181 0042 9CF848C3 		ldrb	ip, [ip, #840]	@ zero_extendqisi2
 358:Middlewares/ST/STM32_USB_Host_Library/Core/Src/usbh_core.c ****         ((pif->bInterfaceSubClass == SubClass) || (SubClass == 0xFFU)) &&
 1182              		.loc 1 358 63 discriminator 3 view .LVU439
 1183 0046 9445     		cmp	ip, r2
 1184 0048 DED0     		beq	.L77
 359:Middlewares/ST/STM32_USB_Host_Library/Core/Src/usbh_core.c ****         ((pif->bInterfaceProtocol == Protocol) || (Protocol == 0xFFU)))
 1185              		.loc 1 359 48 view .LVU440
 1186 004a FF2A     		cmp	r2, #255
 1187 004c E6D1     		bne	.L76
 1188 004e DBE7     		b	.L77
 1189              	.LVL86:
 1190              	.L81:
 366:Middlewares/ST/STM32_USB_Host_Library/Core/Src/usbh_core.c **** }
 1191              		.loc 1 366 10 view .LVU441
 1192 0050 FF20     		movs	r0, #255
 1193              	.LVL87:
 1194              	.L78:
 367:Middlewares/ST/STM32_USB_Host_Library/Core/Src/usbh_core.c **** 
 1195              		.loc 1 367 1 view .LVU442
 1196 0052 10BD     		pop	{r4, pc}
 367:Middlewares/ST/STM32_USB_Host_Library/Core/Src/usbh_core.c **** 
 1197              		.loc 1 367 1 view .LVU443
 1198              		.cfi_endproc
 1199              	.LFE150:
 1201              		.section	.text.USBH_FindInterfaceIndex,"ax",%progbits
 1202              		.align	1
 1203              		.global	USBH_FindInterfaceIndex
 1204              		.syntax unified
 1205              		.thumb
 1206              		.thumb_func
 1208              	USBH_FindInterfaceIndex:
 1209              	.LVL88:
 1210              	.LFB151:
 380:Middlewares/ST/STM32_USB_Host_Library/Core/Src/usbh_core.c ****   USBH_InterfaceDescTypeDef *pif;
 1211              		.loc 1 380 1 is_stmt 1 view -0
 1212              		.cfi_startproc
 1213              		@ args = 0, pretend = 0, frame = 0
 1214              		@ frame_needed = 0, uses_anonymous_args = 0
 1215              		@ link register save eliminated.
 380:Middlewares/ST/STM32_USB_Host_Library/Core/Src/usbh_core.c ****   USBH_InterfaceDescTypeDef *pif;
 1216              		.loc 1 380 1 is_stmt 0 view .LVU445
 1217 0000 8446     		mov	ip, r0
 381:Middlewares/ST/STM32_USB_Host_Library/Core/Src/usbh_core.c ****   USBH_CfgDescTypeDef *pcfg;
 1218              		.loc 1 381 3 is_stmt 1 view .LVU446
 382:Middlewares/ST/STM32_USB_Host_Library/Core/Src/usbh_core.c ****   uint8_t if_ix = 0U;
 1219              		.loc 1 382 3 view .LVU447
 383:Middlewares/ST/STM32_USB_Host_Library/Core/Src/usbh_core.c **** 
 1220              		.loc 1 383 3 view .LVU448
 1221              	.LVL89:
 385:Middlewares/ST/STM32_USB_Host_Library/Core/Src/usbh_core.c ****   pcfg = &phost->device.CfgDesc;
 1222              		.loc 1 385 3 view .LVU449
 386:Middlewares/ST/STM32_USB_Host_Library/Core/Src/usbh_core.c **** 
 1223              		.loc 1 386 3 view .LVU450
ARM GAS  /tmp/ccDyhIXb.s 			page 50


 388:Middlewares/ST/STM32_USB_Host_Library/Core/Src/usbh_core.c ****   {
 1224              		.loc 1 388 3 view .LVU451
 383:Middlewares/ST/STM32_USB_Host_Library/Core/Src/usbh_core.c **** 
 1225              		.loc 1 383 11 is_stmt 0 view .LVU452
 1226 0002 0020     		movs	r0, #0
 1227              	.LVL90:
 388:Middlewares/ST/STM32_USB_Host_Library/Core/Src/usbh_core.c ****   {
 1228              		.loc 1 388 9 view .LVU453
 1229 0004 01E0     		b	.L83
 1230              	.LVL91:
 1231              	.L84:
 395:Middlewares/ST/STM32_USB_Host_Library/Core/Src/usbh_core.c ****   }
 1232              		.loc 1 395 5 is_stmt 1 view .LVU454
 395:Middlewares/ST/STM32_USB_Host_Library/Core/Src/usbh_core.c ****   }
 1233              		.loc 1 395 10 is_stmt 0 view .LVU455
 1234 0006 0130     		adds	r0, r0, #1
 1235              	.LVL92:
 395:Middlewares/ST/STM32_USB_Host_Library/Core/Src/usbh_core.c ****   }
 1236              		.loc 1 395 10 view .LVU456
 1237 0008 C0B2     		uxtb	r0, r0
 1238              	.LVL93:
 1239              	.L83:
 388:Middlewares/ST/STM32_USB_Host_Library/Core/Src/usbh_core.c ****   {
 1240              		.loc 1 388 16 is_stmt 1 view .LVU457
 1241 000a 0128     		cmp	r0, #1
 1242 000c 0ED8     		bhi	.L87
 390:Middlewares/ST/STM32_USB_Host_Library/Core/Src/usbh_core.c ****     if ((pif->bInterfaceNumber == interface_number) && (pif->bAlternateSetting == alt_settings))
 1243              		.loc 1 390 5 view .LVU458
 1244              	.LVL94:
 391:Middlewares/ST/STM32_USB_Host_Library/Core/Src/usbh_core.c ****     {
 1245              		.loc 1 391 5 view .LVU459
 391:Middlewares/ST/STM32_USB_Host_Library/Core/Src/usbh_core.c ****     {
 1246              		.loc 1 391 13 is_stmt 0 view .LVU460
 1247 000e 1A23     		movs	r3, #26
 1248 0010 03FB00C3 		mla	r3, r3, r0, ip
 1249 0014 93F84433 		ldrb	r3, [r3, #836]	@ zero_extendqisi2
 391:Middlewares/ST/STM32_USB_Host_Library/Core/Src/usbh_core.c ****     {
 1250              		.loc 1 391 8 view .LVU461
 1251 0018 8B42     		cmp	r3, r1
 1252 001a F4D1     		bne	.L84
 391:Middlewares/ST/STM32_USB_Host_Library/Core/Src/usbh_core.c ****     {
 1253              		.loc 1 391 60 discriminator 1 view .LVU462
 1254 001c 1A23     		movs	r3, #26
 1255 001e 03FB00C3 		mla	r3, r3, r0, ip
 1256 0022 93F84533 		ldrb	r3, [r3, #837]	@ zero_extendqisi2
 391:Middlewares/ST/STM32_USB_Host_Library/Core/Src/usbh_core.c ****     {
 1257              		.loc 1 391 53 discriminator 1 view .LVU463
 1258 0026 9342     		cmp	r3, r2
 1259 0028 EDD1     		bne	.L84
 1260 002a 00E0     		b	.L85
 1261              	.LVL95:
 1262              	.L87:
 397:Middlewares/ST/STM32_USB_Host_Library/Core/Src/usbh_core.c **** }
 1263              		.loc 1 397 10 view .LVU464
 1264 002c FF20     		movs	r0, #255
 1265              	.LVL96:
 1266              	.L85:
ARM GAS  /tmp/ccDyhIXb.s 			page 51


 398:Middlewares/ST/STM32_USB_Host_Library/Core/Src/usbh_core.c **** 
 1267              		.loc 1 398 1 view .LVU465
 1268 002e 7047     		bx	lr
 1269              		.cfi_endproc
 1270              	.LFE151:
 1272              		.section	.text.USBH_Start,"ax",%progbits
 1273              		.align	1
 1274              		.global	USBH_Start
 1275              		.syntax unified
 1276              		.thumb
 1277              		.thumb_func
 1279              	USBH_Start:
 1280              	.LVL97:
 1281              	.LFB152:
 408:Middlewares/ST/STM32_USB_Host_Library/Core/Src/usbh_core.c ****   /* Start the low level driver  */
 1282              		.loc 1 408 1 is_stmt 1 view -0
 1283              		.cfi_startproc
 1284              		@ args = 0, pretend = 0, frame = 0
 1285              		@ frame_needed = 0, uses_anonymous_args = 0
 408:Middlewares/ST/STM32_USB_Host_Library/Core/Src/usbh_core.c ****   /* Start the low level driver  */
 1286              		.loc 1 408 1 is_stmt 0 view .LVU467
 1287 0000 10B5     		push	{r4, lr}
 1288              	.LCFI10:
 1289              		.cfi_def_cfa_offset 8
 1290              		.cfi_offset 4, -8
 1291              		.cfi_offset 14, -4
 1292 0002 0446     		mov	r4, r0
 410:Middlewares/ST/STM32_USB_Host_Library/Core/Src/usbh_core.c **** 
 1293              		.loc 1 410 3 is_stmt 1 view .LVU468
 410:Middlewares/ST/STM32_USB_Host_Library/Core/Src/usbh_core.c **** 
 1294              		.loc 1 410 9 is_stmt 0 view .LVU469
 1295 0004 FFF7FEFF 		bl	USBH_LL_Start
 1296              	.LVL98:
 413:Middlewares/ST/STM32_USB_Host_Library/Core/Src/usbh_core.c **** 
 1297              		.loc 1 413 3 is_stmt 1 view .LVU470
 413:Middlewares/ST/STM32_USB_Host_Library/Core/Src/usbh_core.c **** 
 1298              		.loc 1 413 9 is_stmt 0 view .LVU471
 1299 0008 0121     		movs	r1, #1
 1300 000a 2046     		mov	r0, r4
 1301 000c FFF7FEFF 		bl	USBH_LL_DriverVBUS
 1302              	.LVL99:
 415:Middlewares/ST/STM32_USB_Host_Library/Core/Src/usbh_core.c **** }
 1303              		.loc 1 415 3 is_stmt 1 view .LVU472
 416:Middlewares/ST/STM32_USB_Host_Library/Core/Src/usbh_core.c **** 
 1304              		.loc 1 416 1 is_stmt 0 view .LVU473
 1305 0010 0020     		movs	r0, #0
 1306 0012 10BD     		pop	{r4, pc}
 416:Middlewares/ST/STM32_USB_Host_Library/Core/Src/usbh_core.c **** 
 1307              		.loc 1 416 1 view .LVU474
 1308              		.cfi_endproc
 1309              	.LFE152:
 1311              		.section	.text.USBH_Stop,"ax",%progbits
 1312              		.align	1
 1313              		.global	USBH_Stop
 1314              		.syntax unified
 1315              		.thumb
 1316              		.thumb_func
ARM GAS  /tmp/ccDyhIXb.s 			page 52


 1318              	USBH_Stop:
 1319              	.LVL100:
 1320              	.LFB153:
 426:Middlewares/ST/STM32_USB_Host_Library/Core/Src/usbh_core.c ****   /* DeActivate VBUS on the port */
 1321              		.loc 1 426 1 is_stmt 1 view -0
 1322              		.cfi_startproc
 1323              		@ args = 0, pretend = 0, frame = 0
 1324              		@ frame_needed = 0, uses_anonymous_args = 0
 426:Middlewares/ST/STM32_USB_Host_Library/Core/Src/usbh_core.c ****   /* DeActivate VBUS on the port */
 1325              		.loc 1 426 1 is_stmt 0 view .LVU476
 1326 0000 10B5     		push	{r4, lr}
 1327              	.LCFI11:
 1328              		.cfi_def_cfa_offset 8
 1329              		.cfi_offset 4, -8
 1330              		.cfi_offset 14, -4
 1331 0002 0446     		mov	r4, r0
 428:Middlewares/ST/STM32_USB_Host_Library/Core/Src/usbh_core.c **** 
 1332              		.loc 1 428 3 is_stmt 1 view .LVU477
 428:Middlewares/ST/STM32_USB_Host_Library/Core/Src/usbh_core.c **** 
 1333              		.loc 1 428 9 is_stmt 0 view .LVU478
 1334 0004 0021     		movs	r1, #0
 1335 0006 FFF7FEFF 		bl	USBH_LL_DriverVBUS
 1336              	.LVL101:
 431:Middlewares/ST/STM32_USB_Host_Library/Core/Src/usbh_core.c **** 
 1337              		.loc 1 431 3 is_stmt 1 view .LVU479
 431:Middlewares/ST/STM32_USB_Host_Library/Core/Src/usbh_core.c **** 
 1338              		.loc 1 431 9 is_stmt 0 view .LVU480
 1339 000a 2046     		mov	r0, r4
 1340 000c FFF7FEFF 		bl	USBH_LL_Stop
 1341              	.LVL102:
 434:Middlewares/ST/STM32_USB_Host_Library/Core/Src/usbh_core.c ****   (void)USBH_FreePipe(phost, phost->Control.pipe_out);
 1342              		.loc 1 434 3 is_stmt 1 view .LVU481
 434:Middlewares/ST/STM32_USB_Host_Library/Core/Src/usbh_core.c ****   (void)USBH_FreePipe(phost, phost->Control.pipe_out);
 1343              		.loc 1 434 9 is_stmt 0 view .LVU482
 1344 0010 2179     		ldrb	r1, [r4, #4]	@ zero_extendqisi2
 1345 0012 2046     		mov	r0, r4
 1346 0014 FFF7FEFF 		bl	USBH_FreePipe
 1347              	.LVL103:
 435:Middlewares/ST/STM32_USB_Host_Library/Core/Src/usbh_core.c **** 
 1348              		.loc 1 435 3 is_stmt 1 view .LVU483
 435:Middlewares/ST/STM32_USB_Host_Library/Core/Src/usbh_core.c **** 
 1349              		.loc 1 435 9 is_stmt 0 view .LVU484
 1350 0018 6179     		ldrb	r1, [r4, #5]	@ zero_extendqisi2
 1351 001a 2046     		mov	r0, r4
 1352 001c FFF7FEFF 		bl	USBH_FreePipe
 1353              	.LVL104:
 437:Middlewares/ST/STM32_USB_Host_Library/Core/Src/usbh_core.c **** }
 1354              		.loc 1 437 3 is_stmt 1 view .LVU485
 438:Middlewares/ST/STM32_USB_Host_Library/Core/Src/usbh_core.c **** 
 1355              		.loc 1 438 1 is_stmt 0 view .LVU486
 1356 0020 0020     		movs	r0, #0
 1357 0022 10BD     		pop	{r4, pc}
 438:Middlewares/ST/STM32_USB_Host_Library/Core/Src/usbh_core.c **** 
 1358              		.loc 1 438 1 view .LVU487
 1359              		.cfi_endproc
 1360              	.LFE153:
 1362              		.section	.text.USBH_Process,"ax",%progbits
ARM GAS  /tmp/ccDyhIXb.s 			page 53


 1363              		.align	1
 1364              		.global	USBH_Process
 1365              		.syntax unified
 1366              		.thumb
 1367              		.thumb_func
 1369              	USBH_Process:
 1370              	.LVL105:
 1371              	.LFB155:
 474:Middlewares/ST/STM32_USB_Host_Library/Core/Src/usbh_core.c ****   __IO USBH_StatusTypeDef status = USBH_FAIL;
 1372              		.loc 1 474 1 is_stmt 1 view -0
 1373              		.cfi_startproc
 1374              		@ args = 0, pretend = 0, frame = 8
 1375              		@ frame_needed = 0, uses_anonymous_args = 0
 474:Middlewares/ST/STM32_USB_Host_Library/Core/Src/usbh_core.c ****   __IO USBH_StatusTypeDef status = USBH_FAIL;
 1376              		.loc 1 474 1 is_stmt 0 view .LVU489
 1377 0000 30B5     		push	{r4, r5, lr}
 1378              	.LCFI12:
 1379              		.cfi_def_cfa_offset 12
 1380              		.cfi_offset 4, -12
 1381              		.cfi_offset 5, -8
 1382              		.cfi_offset 14, -4
 1383 0002 87B0     		sub	sp, sp, #28
 1384              	.LCFI13:
 1385              		.cfi_def_cfa_offset 40
 1386 0004 0446     		mov	r4, r0
 475:Middlewares/ST/STM32_USB_Host_Library/Core/Src/usbh_core.c ****   uint8_t idx = 0U;
 1387              		.loc 1 475 3 is_stmt 1 view .LVU490
 475:Middlewares/ST/STM32_USB_Host_Library/Core/Src/usbh_core.c ****   uint8_t idx = 0U;
 1388              		.loc 1 475 27 is_stmt 0 view .LVU491
 1389 0006 0223     		movs	r3, #2
 1390 0008 8DF81730 		strb	r3, [sp, #23]
 476:Middlewares/ST/STM32_USB_Host_Library/Core/Src/usbh_core.c **** 
 1391              		.loc 1 476 3 is_stmt 1 view .LVU492
 1392              	.LVL106:
 479:Middlewares/ST/STM32_USB_Host_Library/Core/Src/usbh_core.c ****   {
 1393              		.loc 1 479 3 view .LVU493
 479:Middlewares/ST/STM32_USB_Host_Library/Core/Src/usbh_core.c ****   {
 1394              		.loc 1 479 20 is_stmt 0 view .LVU494
 1395 000c 90F82133 		ldrb	r3, [r0, #801]	@ zero_extendqisi2
 479:Middlewares/ST/STM32_USB_Host_Library/Core/Src/usbh_core.c ****   {
 1396              		.loc 1 479 6 view .LVU495
 1397 0010 012B     		cmp	r3, #1
 1398 0012 10D0     		beq	.L127
 1399              	.L93:
 484:Middlewares/ST/STM32_USB_Host_Library/Core/Src/usbh_core.c ****   {
 1400              		.loc 1 484 3 is_stmt 1 view .LVU496
 484:Middlewares/ST/STM32_USB_Host_Library/Core/Src/usbh_core.c ****   {
 1401              		.loc 1 484 16 is_stmt 0 view .LVU497
 1402 0014 2378     		ldrb	r3, [r4]	@ zero_extendqisi2
 484:Middlewares/ST/STM32_USB_Host_Library/Core/Src/usbh_core.c ****   {
 1403              		.loc 1 484 3 view .LVU498
 1404 0016 0B2B     		cmp	r3, #11
 1405 0018 7BD8     		bhi	.L94
 1406 001a DFE813F0 		tbh	[pc, r3, lsl #1]
 1407              	.L96:
 1408 001e 0F00     		.2byte	(.L106-.L96)/2
 1409 0020 2100     		.2byte	(.L105-.L96)/2
ARM GAS  /tmp/ccDyhIXb.s 			page 54


 1410 0022 4500     		.2byte	(.L104-.L96)/2
 1411 0024 0F01     		.2byte	(.L103-.L96)/2
 1412 0026 7A00     		.2byte	(.L94-.L96)/2
 1413 0028 7D00     		.2byte	(.L102-.L96)/2
 1414 002a ED00     		.2byte	(.L101-.L96)/2
 1415 002c 9200     		.2byte	(.L100-.L96)/2
 1416 002e 9C00     		.2byte	(.L99-.L96)/2
 1417 0030 A600     		.2byte	(.L98-.L96)/2
 1418 0032 C100     		.2byte	(.L97-.L96)/2
 1419 0034 0601     		.2byte	(.L95-.L96)/2
 1420              		.p2align 1
 1421              	.L127:
 481:Middlewares/ST/STM32_USB_Host_Library/Core/Src/usbh_core.c ****   }
 1422              		.loc 1 481 5 is_stmt 1 view .LVU499
 481:Middlewares/ST/STM32_USB_Host_Library/Core/Src/usbh_core.c ****   }
 1423              		.loc 1 481 19 is_stmt 0 view .LVU500
 1424 0036 0323     		movs	r3, #3
 1425 0038 0370     		strb	r3, [r0]
 1426 003a EBE7     		b	.L93
 1427              	.L106:
 488:Middlewares/ST/STM32_USB_Host_Library/Core/Src/usbh_core.c ****       {
 1428              		.loc 1 488 7 is_stmt 1 view .LVU501
 488:Middlewares/ST/STM32_USB_Host_Library/Core/Src/usbh_core.c ****       {
 1429              		.loc 1 488 25 is_stmt 0 view .LVU502
 1430 003c 94F82033 		ldrb	r3, [r4, #800]	@ zero_extendqisi2
 488:Middlewares/ST/STM32_USB_Host_Library/Core/Src/usbh_core.c ****       {
 1431              		.loc 1 488 10 view .LVU503
 1432 0040 002B     		cmp	r3, #0
 1433 0042 66D0     		beq	.L94
 490:Middlewares/ST/STM32_USB_Host_Library/Core/Src/usbh_core.c **** 
 1434              		.loc 1 490 9 is_stmt 1 view .LVU504
 490:Middlewares/ST/STM32_USB_Host_Library/Core/Src/usbh_core.c **** 
 1435              		.loc 1 490 9 view .LVU505
 490:Middlewares/ST/STM32_USB_Host_Library/Core/Src/usbh_core.c **** 
 1436              		.loc 1 490 9 view .LVU506
 493:Middlewares/ST/STM32_USB_Host_Library/Core/Src/usbh_core.c ****         USBH_Delay(200U);
 1437              		.loc 1 493 9 view .LVU507
 493:Middlewares/ST/STM32_USB_Host_Library/Core/Src/usbh_core.c ****         USBH_Delay(200U);
 1438              		.loc 1 493 23 is_stmt 0 view .LVU508
 1439 0044 0123     		movs	r3, #1
 1440 0046 2370     		strb	r3, [r4]
 494:Middlewares/ST/STM32_USB_Host_Library/Core/Src/usbh_core.c ****         (void)USBH_LL_ResetPort(phost);
 1441              		.loc 1 494 9 is_stmt 1 view .LVU509
 1442 0048 C820     		movs	r0, #200
 1443              	.LVL107:
 494:Middlewares/ST/STM32_USB_Host_Library/Core/Src/usbh_core.c ****         (void)USBH_LL_ResetPort(phost);
 1444              		.loc 1 494 9 is_stmt 0 view .LVU510
 1445 004a FFF7FEFF 		bl	USBH_Delay
 1446              	.LVL108:
 495:Middlewares/ST/STM32_USB_Host_Library/Core/Src/usbh_core.c **** 
 1447              		.loc 1 495 9 is_stmt 1 view .LVU511
 495:Middlewares/ST/STM32_USB_Host_Library/Core/Src/usbh_core.c **** 
 1448              		.loc 1 495 15 is_stmt 0 view .LVU512
 1449 004e 2046     		mov	r0, r4
 1450 0050 FFF7FEFF 		bl	USBH_LL_ResetPort
 1451              	.LVL109:
 498:Middlewares/ST/STM32_USB_Host_Library/Core/Src/usbh_core.c ****         phost->Timeout = 0U;
ARM GAS  /tmp/ccDyhIXb.s 			page 55


 1452              		.loc 1 498 9 is_stmt 1 view .LVU513
 498:Middlewares/ST/STM32_USB_Host_Library/Core/Src/usbh_core.c ****         phost->Timeout = 0U;
 1453              		.loc 1 498 31 is_stmt 0 view .LVU514
 1454 0054 0023     		movs	r3, #0
 1455 0056 84F81C33 		strb	r3, [r4, #796]
 499:Middlewares/ST/STM32_USB_Host_Library/Core/Src/usbh_core.c **** 
 1456              		.loc 1 499 9 is_stmt 1 view .LVU515
 499:Middlewares/ST/STM32_USB_Host_Library/Core/Src/usbh_core.c **** 
 1457              		.loc 1 499 24 is_stmt 0 view .LVU516
 1458 005a C4F8C833 		str	r3, [r4, #968]
 1459 005e 58E0     		b	.L94
 1460              	.LVL110:
 1461              	.L105:
 509:Middlewares/ST/STM32_USB_Host_Library/Core/Src/usbh_core.c ****       {
 1462              		.loc 1 509 7 is_stmt 1 view .LVU517
 509:Middlewares/ST/STM32_USB_Host_Library/Core/Src/usbh_core.c ****       {
 1463              		.loc 1 509 24 is_stmt 0 view .LVU518
 1464 0060 94F82333 		ldrb	r3, [r4, #803]	@ zero_extendqisi2
 509:Middlewares/ST/STM32_USB_Host_Library/Core/Src/usbh_core.c ****       {
 1465              		.loc 1 509 10 view .LVU519
 1466 0064 012B     		cmp	r3, #1
 1467 0066 0FD0     		beq	.L128
 517:Middlewares/ST/STM32_USB_Host_Library/Core/Src/usbh_core.c ****         {
 1468              		.loc 1 517 9 is_stmt 1 view .LVU520
 517:Middlewares/ST/STM32_USB_Host_Library/Core/Src/usbh_core.c ****         {
 1469              		.loc 1 517 18 is_stmt 0 view .LVU521
 1470 0068 D4F8C833 		ldr	r3, [r4, #968]
 517:Middlewares/ST/STM32_USB_Host_Library/Core/Src/usbh_core.c ****         {
 1471              		.loc 1 517 12 view .LVU522
 1472 006c B3F57A7F 		cmp	r3, #1000
 1473 0070 13D9     		bls	.L108
 519:Middlewares/ST/STM32_USB_Host_Library/Core/Src/usbh_core.c ****           if (phost->device.RstCnt > 3U)
 1474              		.loc 1 519 11 is_stmt 1 view .LVU523
 519:Middlewares/ST/STM32_USB_Host_Library/Core/Src/usbh_core.c ****           if (phost->device.RstCnt > 3U)
 1475              		.loc 1 519 24 is_stmt 0 view .LVU524
 1476 0072 94F81F33 		ldrb	r3, [r4, #799]	@ zero_extendqisi2
 519:Middlewares/ST/STM32_USB_Host_Library/Core/Src/usbh_core.c ****           if (phost->device.RstCnt > 3U)
 1477              		.loc 1 519 31 view .LVU525
 1478 0076 0133     		adds	r3, r3, #1
 1479 0078 DBB2     		uxtb	r3, r3
 1480 007a 84F81F33 		strb	r3, [r4, #799]
 520:Middlewares/ST/STM32_USB_Host_Library/Core/Src/usbh_core.c ****           {
 1481              		.loc 1 520 11 is_stmt 1 view .LVU526
 520:Middlewares/ST/STM32_USB_Host_Library/Core/Src/usbh_core.c ****           {
 1482              		.loc 1 520 14 is_stmt 0 view .LVU527
 1483 007e 032B     		cmp	r3, #3
 1484 0080 08D9     		bls	.L109
 523:Middlewares/ST/STM32_USB_Host_Library/Core/Src/usbh_core.c ****             phost->gState = HOST_ABORT_STATE;
 1485              		.loc 1 523 13 is_stmt 1 view .LVU528
 523:Middlewares/ST/STM32_USB_Host_Library/Core/Src/usbh_core.c ****             phost->gState = HOST_ABORT_STATE;
 1486              		.loc 1 523 13 view .LVU529
 523:Middlewares/ST/STM32_USB_Host_Library/Core/Src/usbh_core.c ****             phost->gState = HOST_ABORT_STATE;
 1487              		.loc 1 523 13 view .LVU530
 524:Middlewares/ST/STM32_USB_Host_Library/Core/Src/usbh_core.c ****           }
 1488              		.loc 1 524 13 view .LVU531
 524:Middlewares/ST/STM32_USB_Host_Library/Core/Src/usbh_core.c ****           }
 1489              		.loc 1 524 27 is_stmt 0 view .LVU532
ARM GAS  /tmp/ccDyhIXb.s 			page 56


 1490 0082 0D23     		movs	r3, #13
 1491 0084 2370     		strb	r3, [r4]
 1492 0086 44E0     		b	.L94
 1493              	.L128:
 511:Middlewares/ST/STM32_USB_Host_Library/Core/Src/usbh_core.c ****         phost->device.RstCnt = 0U;
 1494              		.loc 1 511 9 is_stmt 1 view .LVU533
 511:Middlewares/ST/STM32_USB_Host_Library/Core/Src/usbh_core.c ****         phost->device.RstCnt = 0U;
 1495              		.loc 1 511 9 view .LVU534
 511:Middlewares/ST/STM32_USB_Host_Library/Core/Src/usbh_core.c ****         phost->device.RstCnt = 0U;
 1496              		.loc 1 511 9 view .LVU535
 512:Middlewares/ST/STM32_USB_Host_Library/Core/Src/usbh_core.c ****         phost->gState = HOST_DEV_ATTACHED;
 1497              		.loc 1 512 9 view .LVU536
 512:Middlewares/ST/STM32_USB_Host_Library/Core/Src/usbh_core.c ****         phost->gState = HOST_DEV_ATTACHED;
 1498              		.loc 1 512 30 is_stmt 0 view .LVU537
 1499 0088 0023     		movs	r3, #0
 1500 008a 84F81F33 		strb	r3, [r4, #799]
 513:Middlewares/ST/STM32_USB_Host_Library/Core/Src/usbh_core.c ****       }
 1501              		.loc 1 513 9 is_stmt 1 view .LVU538
 513:Middlewares/ST/STM32_USB_Host_Library/Core/Src/usbh_core.c ****       }
 1502              		.loc 1 513 23 is_stmt 0 view .LVU539
 1503 008e 0223     		movs	r3, #2
 1504 0090 2370     		strb	r3, [r4]
 1505 0092 3EE0     		b	.L94
 1506              	.L109:
 528:Middlewares/ST/STM32_USB_Host_Library/Core/Src/usbh_core.c ****           }
 1507              		.loc 1 528 13 is_stmt 1 view .LVU540
 528:Middlewares/ST/STM32_USB_Host_Library/Core/Src/usbh_core.c ****           }
 1508              		.loc 1 528 27 is_stmt 0 view .LVU541
 1509 0094 0023     		movs	r3, #0
 1510 0096 2370     		strb	r3, [r4]
 1511 0098 3BE0     		b	.L94
 1512              	.L108:
 533:Middlewares/ST/STM32_USB_Host_Library/Core/Src/usbh_core.c ****           USBH_Delay(10U);
 1513              		.loc 1 533 11 is_stmt 1 view .LVU542
 533:Middlewares/ST/STM32_USB_Host_Library/Core/Src/usbh_core.c ****           USBH_Delay(10U);
 1514              		.loc 1 533 26 is_stmt 0 view .LVU543
 1515 009a 0A33     		adds	r3, r3, #10
 1516 009c C4F8C833 		str	r3, [r4, #968]
 534:Middlewares/ST/STM32_USB_Host_Library/Core/Src/usbh_core.c ****         }
 1517              		.loc 1 534 11 is_stmt 1 view .LVU544
 1518 00a0 0A20     		movs	r0, #10
 1519              	.LVL111:
 534:Middlewares/ST/STM32_USB_Host_Library/Core/Src/usbh_core.c ****         }
 1520              		.loc 1 534 11 is_stmt 0 view .LVU545
 1521 00a2 FFF7FEFF 		bl	USBH_Delay
 1522              	.LVL112:
 1523 00a6 34E0     		b	.L94
 1524              	.LVL113:
 1525              	.L104:
 545:Middlewares/ST/STM32_USB_Host_Library/Core/Src/usbh_core.c ****       {
 1526              		.loc 1 545 7 is_stmt 1 view .LVU546
 545:Middlewares/ST/STM32_USB_Host_Library/Core/Src/usbh_core.c ****       {
 1527              		.loc 1 545 16 is_stmt 0 view .LVU547
 1528 00a8 D4F8D433 		ldr	r3, [r4, #980]
 545:Middlewares/ST/STM32_USB_Host_Library/Core/Src/usbh_core.c ****       {
 1529              		.loc 1 545 10 view .LVU548
 1530 00ac 13B1     		cbz	r3, .L110
ARM GAS  /tmp/ccDyhIXb.s 			page 57


 547:Middlewares/ST/STM32_USB_Host_Library/Core/Src/usbh_core.c ****       }
 1531              		.loc 1 547 9 is_stmt 1 view .LVU549
 1532 00ae 0421     		movs	r1, #4
 1533 00b0 2046     		mov	r0, r4
 1534              	.LVL114:
 547:Middlewares/ST/STM32_USB_Host_Library/Core/Src/usbh_core.c ****       }
 1535              		.loc 1 547 9 is_stmt 0 view .LVU550
 1536 00b2 9847     		blx	r3
 1537              	.LVL115:
 1538              	.L110:
 551:Middlewares/ST/STM32_USB_Host_Library/Core/Src/usbh_core.c **** 
 1539              		.loc 1 551 7 is_stmt 1 view .LVU551
 1540 00b4 6420     		movs	r0, #100
 1541 00b6 FFF7FEFF 		bl	USBH_Delay
 1542              	.LVL116:
 553:Middlewares/ST/STM32_USB_Host_Library/Core/Src/usbh_core.c **** 
 1543              		.loc 1 553 7 view .LVU552
 553:Middlewares/ST/STM32_USB_Host_Library/Core/Src/usbh_core.c **** 
 1544              		.loc 1 553 38 is_stmt 0 view .LVU553
 1545 00ba 2046     		mov	r0, r4
 1546 00bc FFF7FEFF 		bl	USBH_LL_GetSpeed
 1547              	.LVL117:
 553:Middlewares/ST/STM32_USB_Host_Library/Core/Src/usbh_core.c **** 
 1548              		.loc 1 553 27 discriminator 1 view .LVU554
 1549 00c0 84F81D03 		strb	r0, [r4, #797]
 559:Middlewares/ST/STM32_USB_Host_Library/Core/Src/usbh_core.c **** 
 1550              		.loc 1 559 7 is_stmt 1 view .LVU555
 559:Middlewares/ST/STM32_USB_Host_Library/Core/Src/usbh_core.c **** 
 1551              		.loc 1 559 21 is_stmt 0 view .LVU556
 1552 00c4 0523     		movs	r3, #5
 1553 00c6 2370     		strb	r3, [r4]
 561:Middlewares/ST/STM32_USB_Host_Library/Core/Src/usbh_core.c ****       phost->Control.pipe_in  = USBH_AllocPipe(phost, 0x80U);
 1554              		.loc 1 561 7 is_stmt 1 view .LVU557
 561:Middlewares/ST/STM32_USB_Host_Library/Core/Src/usbh_core.c ****       phost->Control.pipe_in  = USBH_AllocPipe(phost, 0x80U);
 1555              		.loc 1 561 33 is_stmt 0 view .LVU558
 1556 00c8 0021     		movs	r1, #0
 1557 00ca 2046     		mov	r0, r4
 1558 00cc FFF7FEFF 		bl	USBH_AllocPipe
 1559              	.LVL118:
 561:Middlewares/ST/STM32_USB_Host_Library/Core/Src/usbh_core.c ****       phost->Control.pipe_in  = USBH_AllocPipe(phost, 0x80U);
 1560              		.loc 1 561 31 discriminator 1 view .LVU559
 1561 00d0 6071     		strb	r0, [r4, #5]
 562:Middlewares/ST/STM32_USB_Host_Library/Core/Src/usbh_core.c **** 
 1562              		.loc 1 562 7 is_stmt 1 view .LVU560
 562:Middlewares/ST/STM32_USB_Host_Library/Core/Src/usbh_core.c **** 
 1563              		.loc 1 562 33 is_stmt 0 view .LVU561
 1564 00d2 8021     		movs	r1, #128
 1565 00d4 2046     		mov	r0, r4
 1566 00d6 FFF7FEFF 		bl	USBH_AllocPipe
 1567              	.LVL119:
 1568 00da 0146     		mov	r1, r0
 562:Middlewares/ST/STM32_USB_Host_Library/Core/Src/usbh_core.c **** 
 1569              		.loc 1 562 31 discriminator 1 view .LVU562
 1570 00dc 2071     		strb	r0, [r4, #4]
 565:Middlewares/ST/STM32_USB_Host_Library/Core/Src/usbh_core.c ****                           phost->device.address, phost->device.speed,
 1571              		.loc 1 565 7 is_stmt 1 view .LVU563
 567:Middlewares/ST/STM32_USB_Host_Library/Core/Src/usbh_core.c **** 
ARM GAS  /tmp/ccDyhIXb.s 			page 58


 1572              		.loc 1 567 68 is_stmt 0 view .LVU564
 1573 00de A379     		ldrb	r3, [r4, #6]	@ zero_extendqisi2
 565:Middlewares/ST/STM32_USB_Host_Library/Core/Src/usbh_core.c ****                           phost->device.address, phost->device.speed,
 1574              		.loc 1 565 13 view .LVU565
 1575 00e0 0293     		str	r3, [sp, #8]
 1576 00e2 0025     		movs	r5, #0
 1577 00e4 0195     		str	r5, [sp, #4]
 1578 00e6 94F81D33 		ldrb	r3, [r4, #797]	@ zero_extendqisi2
 1579 00ea 0093     		str	r3, [sp]
 1580 00ec 94F81C33 		ldrb	r3, [r4, #796]	@ zero_extendqisi2
 1581 00f0 8022     		movs	r2, #128
 1582 00f2 2046     		mov	r0, r4
 1583 00f4 FFF7FEFF 		bl	USBH_OpenPipe
 1584              	.LVL120:
 570:Middlewares/ST/STM32_USB_Host_Library/Core/Src/usbh_core.c ****                           phost->device.address, phost->device.speed,
 1585              		.loc 1 570 7 is_stmt 1 view .LVU566
 572:Middlewares/ST/STM32_USB_Host_Library/Core/Src/usbh_core.c **** 
 1586              		.loc 1 572 68 is_stmt 0 view .LVU567
 1587 00f8 A379     		ldrb	r3, [r4, #6]	@ zero_extendqisi2
 570:Middlewares/ST/STM32_USB_Host_Library/Core/Src/usbh_core.c ****                           phost->device.address, phost->device.speed,
 1588              		.loc 1 570 13 view .LVU568
 1589 00fa 0293     		str	r3, [sp, #8]
 1590 00fc 0195     		str	r5, [sp, #4]
 1591 00fe 94F81D33 		ldrb	r3, [r4, #797]	@ zero_extendqisi2
 1592 0102 0093     		str	r3, [sp]
 1593 0104 94F81C33 		ldrb	r3, [r4, #796]	@ zero_extendqisi2
 1594 0108 2A46     		mov	r2, r5
 1595 010a 6179     		ldrb	r1, [r4, #5]	@ zero_extendqisi2
 1596 010c 2046     		mov	r0, r4
 1597 010e FFF7FEFF 		bl	USBH_OpenPipe
 1598              	.LVL121:
 577:Middlewares/ST/STM32_USB_Host_Library/Core/Src/usbh_core.c **** 
 1599              		.loc 1 577 7 is_stmt 1 view .LVU569
 1600              	.L94:
 790:Middlewares/ST/STM32_USB_Host_Library/Core/Src/usbh_core.c **** }
 1601              		.loc 1 790 3 view .LVU570
 791:Middlewares/ST/STM32_USB_Host_Library/Core/Src/usbh_core.c **** 
 1602              		.loc 1 791 1 is_stmt 0 view .LVU571
 1603 0112 0020     		movs	r0, #0
 1604 0114 07B0     		add	sp, sp, #28
 1605              	.LCFI14:
 1606              		.cfi_remember_state
 1607              		.cfi_def_cfa_offset 12
 1608              		@ sp needed
 1609 0116 30BD     		pop	{r4, r5, pc}
 1610              	.LVL122:
 1611              	.L102:
 1612              	.LCFI15:
 1613              		.cfi_restore_state
 581:Middlewares/ST/STM32_USB_Host_Library/Core/Src/usbh_core.c ****       if (status == USBH_OK)
 1614              		.loc 1 581 7 is_stmt 1 view .LVU572
 581:Middlewares/ST/STM32_USB_Host_Library/Core/Src/usbh_core.c ****       if (status == USBH_OK)
 1615              		.loc 1 581 16 is_stmt 0 view .LVU573
 1616 0118 2046     		mov	r0, r4
 1617              	.LVL123:
 581:Middlewares/ST/STM32_USB_Host_Library/Core/Src/usbh_core.c ****       if (status == USBH_OK)
 1618              		.loc 1 581 16 view .LVU574
ARM GAS  /tmp/ccDyhIXb.s 			page 59


 1619 011a FFF7FEFF 		bl	USBH_HandleEnum
 1620              	.LVL124:
 581:Middlewares/ST/STM32_USB_Host_Library/Core/Src/usbh_core.c ****       if (status == USBH_OK)
 1621              		.loc 1 581 14 discriminator 1 view .LVU575
 1622 011e 8DF81700 		strb	r0, [sp, #23]
 582:Middlewares/ST/STM32_USB_Host_Library/Core/Src/usbh_core.c ****       {
 1623              		.loc 1 582 7 is_stmt 1 view .LVU576
 582:Middlewares/ST/STM32_USB_Host_Library/Core/Src/usbh_core.c ****       {
 1624              		.loc 1 582 18 is_stmt 0 view .LVU577
 1625 0122 9DF81730 		ldrb	r3, [sp, #23]	@ zero_extendqisi2
 582:Middlewares/ST/STM32_USB_Host_Library/Core/Src/usbh_core.c ****       {
 1626              		.loc 1 582 10 view .LVU578
 1627 0126 002B     		cmp	r3, #0
 1628 0128 F3D1     		bne	.L94
 585:Middlewares/ST/STM32_USB_Host_Library/Core/Src/usbh_core.c **** 
 1629              		.loc 1 585 9 is_stmt 1 view .LVU579
 585:Middlewares/ST/STM32_USB_Host_Library/Core/Src/usbh_core.c **** 
 1630              		.loc 1 585 9 view .LVU580
 585:Middlewares/ST/STM32_USB_Host_Library/Core/Src/usbh_core.c **** 
 1631              		.loc 1 585 9 view .LVU581
 587:Middlewares/ST/STM32_USB_Host_Library/Core/Src/usbh_core.c **** 
 1632              		.loc 1 587 9 view .LVU582
 587:Middlewares/ST/STM32_USB_Host_Library/Core/Src/usbh_core.c **** 
 1633              		.loc 1 587 41 is_stmt 0 view .LVU583
 1634 012a 84F82433 		strb	r3, [r4, #804]
 589:Middlewares/ST/STM32_USB_Host_Library/Core/Src/usbh_core.c ****         {
 1635              		.loc 1 589 9 is_stmt 1 view .LVU584
 589:Middlewares/ST/STM32_USB_Host_Library/Core/Src/usbh_core.c ****         {
 1636              		.loc 1 589 34 is_stmt 0 view .LVU585
 1637 012e 94F83733 		ldrb	r3, [r4, #823]	@ zero_extendqisi2
 589:Middlewares/ST/STM32_USB_Host_Library/Core/Src/usbh_core.c ****         {
 1638              		.loc 1 589 12 view .LVU586
 1639 0132 012B     		cmp	r3, #1
 1640 0134 02D0     		beq	.L129
 596:Middlewares/ST/STM32_USB_Host_Library/Core/Src/usbh_core.c ****         }
 1641              		.loc 1 596 11 is_stmt 1 view .LVU587
 596:Middlewares/ST/STM32_USB_Host_Library/Core/Src/usbh_core.c ****         }
 1642              		.loc 1 596 25 is_stmt 0 view .LVU588
 1643 0136 0723     		movs	r3, #7
 1644 0138 2370     		strb	r3, [r4]
 1645 013a EAE7     		b	.L94
 1646              	.L129:
 591:Middlewares/ST/STM32_USB_Host_Library/Core/Src/usbh_core.c ****           phost->gState = HOST_SET_CONFIGURATION;
 1647              		.loc 1 591 11 is_stmt 1 view .LVU589
 591:Middlewares/ST/STM32_USB_Host_Library/Core/Src/usbh_core.c ****           phost->gState = HOST_SET_CONFIGURATION;
 1648              		.loc 1 591 11 view .LVU590
 591:Middlewares/ST/STM32_USB_Host_Library/Core/Src/usbh_core.c ****           phost->gState = HOST_SET_CONFIGURATION;
 1649              		.loc 1 591 11 view .LVU591
 592:Middlewares/ST/STM32_USB_Host_Library/Core/Src/usbh_core.c ****         }
 1650              		.loc 1 592 11 view .LVU592
 592:Middlewares/ST/STM32_USB_Host_Library/Core/Src/usbh_core.c ****         }
 1651              		.loc 1 592 25 is_stmt 0 view .LVU593
 1652 013c 0823     		movs	r3, #8
 1653 013e 2370     		strb	r3, [r4]
 1654 0140 E7E7     		b	.L94
 1655              	.LVL125:
 1656              	.L100:
ARM GAS  /tmp/ccDyhIXb.s 			page 60


 608:Middlewares/ST/STM32_USB_Host_Library/Core/Src/usbh_core.c ****       {
 1657              		.loc 1 608 7 is_stmt 1 view .LVU594
 608:Middlewares/ST/STM32_USB_Host_Library/Core/Src/usbh_core.c ****       {
 1658              		.loc 1 608 16 is_stmt 0 view .LVU595
 1659 0142 D4F8D433 		ldr	r3, [r4, #980]
 608:Middlewares/ST/STM32_USB_Host_Library/Core/Src/usbh_core.c ****       {
 1660              		.loc 1 608 10 view .LVU596
 1661 0146 002B     		cmp	r3, #0
 1662 0148 E3D0     		beq	.L94
 610:Middlewares/ST/STM32_USB_Host_Library/Core/Src/usbh_core.c ****         phost->gState = HOST_SET_CONFIGURATION;
 1663              		.loc 1 610 9 is_stmt 1 view .LVU597
 1664 014a 0121     		movs	r1, #1
 1665 014c 2046     		mov	r0, r4
 1666              	.LVL126:
 610:Middlewares/ST/STM32_USB_Host_Library/Core/Src/usbh_core.c ****         phost->gState = HOST_SET_CONFIGURATION;
 1667              		.loc 1 610 9 is_stmt 0 view .LVU598
 1668 014e 9847     		blx	r3
 1669              	.LVL127:
 611:Middlewares/ST/STM32_USB_Host_Library/Core/Src/usbh_core.c **** 
 1670              		.loc 1 611 9 is_stmt 1 view .LVU599
 611:Middlewares/ST/STM32_USB_Host_Library/Core/Src/usbh_core.c **** 
 1671              		.loc 1 611 23 is_stmt 0 view .LVU600
 1672 0150 0823     		movs	r3, #8
 1673 0152 2370     		strb	r3, [r4]
 1674 0154 DDE7     		b	.L94
 1675              	.LVL128:
 1676              	.L99:
 622:Middlewares/ST/STM32_USB_Host_Library/Core/Src/usbh_core.c ****       {
 1677              		.loc 1 622 7 is_stmt 1 view .LVU601
 622:Middlewares/ST/STM32_USB_Host_Library/Core/Src/usbh_core.c ****       {
 1678              		.loc 1 622 11 is_stmt 0 view .LVU602
 1679 0156 94F83D13 		ldrb	r1, [r4, #829]	@ zero_extendqisi2
 1680 015a 2046     		mov	r0, r4
 1681              	.LVL129:
 622:Middlewares/ST/STM32_USB_Host_Library/Core/Src/usbh_core.c ****       {
 1682              		.loc 1 622 11 view .LVU603
 1683 015c FFF7FEFF 		bl	USBH_SetCfg
 1684              	.LVL130:
 622:Middlewares/ST/STM32_USB_Host_Library/Core/Src/usbh_core.c ****       {
 1685              		.loc 1 622 10 discriminator 1 view .LVU604
 1686 0160 0028     		cmp	r0, #0
 1687 0162 D6D1     		bne	.L94
 624:Middlewares/ST/STM32_USB_Host_Library/Core/Src/usbh_core.c ****         USBH_UsrLog("Default configuration set.");
 1688              		.loc 1 624 9 is_stmt 1 view .LVU605
 624:Middlewares/ST/STM32_USB_Host_Library/Core/Src/usbh_core.c ****         USBH_UsrLog("Default configuration set.");
 1689              		.loc 1 624 23 is_stmt 0 view .LVU606
 1690 0164 0923     		movs	r3, #9
 1691 0166 2370     		strb	r3, [r4]
 1692 0168 D3E7     		b	.L94
 1693              	.LVL131:
 1694              	.L98:
 635:Middlewares/ST/STM32_USB_Host_Library/Core/Src/usbh_core.c ****       {
 1695              		.loc 1 635 7 is_stmt 1 view .LVU607
 635:Middlewares/ST/STM32_USB_Host_Library/Core/Src/usbh_core.c ****       {
 1696              		.loc 1 635 34 is_stmt 0 view .LVU608
 1697 016a 94F83F33 		ldrb	r3, [r4, #831]	@ zero_extendqisi2
 635:Middlewares/ST/STM32_USB_Host_Library/Core/Src/usbh_core.c ****       {
ARM GAS  /tmp/ccDyhIXb.s 			page 61


 1698              		.loc 1 635 10 view .LVU609
 1699 016e 13F0200F 		tst	r3, #32
 1700 0172 02D1     		bne	.L130
 656:Middlewares/ST/STM32_USB_Host_Library/Core/Src/usbh_core.c ****       }
 1701              		.loc 1 656 9 is_stmt 1 view .LVU610
 656:Middlewares/ST/STM32_USB_Host_Library/Core/Src/usbh_core.c ****       }
 1702              		.loc 1 656 23 is_stmt 0 view .LVU611
 1703 0174 0A23     		movs	r3, #10
 1704 0176 2370     		strb	r3, [r4]
 1705 0178 CBE7     		b	.L94
 1706              	.L130:
 637:Middlewares/ST/STM32_USB_Host_Library/Core/Src/usbh_core.c **** 
 1707              		.loc 1 637 9 is_stmt 1 view .LVU612
 637:Middlewares/ST/STM32_USB_Host_Library/Core/Src/usbh_core.c **** 
 1708              		.loc 1 637 18 is_stmt 0 view .LVU613
 1709 017a 0121     		movs	r1, #1
 1710 017c 2046     		mov	r0, r4
 1711              	.LVL132:
 637:Middlewares/ST/STM32_USB_Host_Library/Core/Src/usbh_core.c **** 
 1712              		.loc 1 637 18 view .LVU614
 1713 017e FFF7FEFF 		bl	USBH_SetFeature
 1714              	.LVL133:
 637:Middlewares/ST/STM32_USB_Host_Library/Core/Src/usbh_core.c **** 
 1715              		.loc 1 637 16 discriminator 1 view .LVU615
 1716 0182 8DF81700 		strb	r0, [sp, #23]
 639:Middlewares/ST/STM32_USB_Host_Library/Core/Src/usbh_core.c ****         {
 1717              		.loc 1 639 9 is_stmt 1 view .LVU616
 639:Middlewares/ST/STM32_USB_Host_Library/Core/Src/usbh_core.c ****         {
 1718              		.loc 1 639 20 is_stmt 0 view .LVU617
 1719 0186 9DF81730 		ldrb	r3, [sp, #23]	@ zero_extendqisi2
 639:Middlewares/ST/STM32_USB_Host_Library/Core/Src/usbh_core.c ****         {
 1720              		.loc 1 639 12 view .LVU618
 1721 018a 13B9     		cbnz	r3, .L113
 641:Middlewares/ST/STM32_USB_Host_Library/Core/Src/usbh_core.c ****           phost->gState = HOST_CHECK_CLASS;
 1722              		.loc 1 641 11 is_stmt 1 view .LVU619
 641:Middlewares/ST/STM32_USB_Host_Library/Core/Src/usbh_core.c ****           phost->gState = HOST_CHECK_CLASS;
 1723              		.loc 1 641 11 view .LVU620
 641:Middlewares/ST/STM32_USB_Host_Library/Core/Src/usbh_core.c ****           phost->gState = HOST_CHECK_CLASS;
 1724              		.loc 1 641 11 view .LVU621
 642:Middlewares/ST/STM32_USB_Host_Library/Core/Src/usbh_core.c ****         }
 1725              		.loc 1 642 11 view .LVU622
 642:Middlewares/ST/STM32_USB_Host_Library/Core/Src/usbh_core.c ****         }
 1726              		.loc 1 642 25 is_stmt 0 view .LVU623
 1727 018c 0A23     		movs	r3, #10
 1728 018e 2370     		strb	r3, [r4]
 1729 0190 BFE7     		b	.L94
 1730              	.L113:
 644:Middlewares/ST/STM32_USB_Host_Library/Core/Src/usbh_core.c ****         {
 1731              		.loc 1 644 14 is_stmt 1 view .LVU624
 644:Middlewares/ST/STM32_USB_Host_Library/Core/Src/usbh_core.c ****         {
 1732              		.loc 1 644 25 is_stmt 0 view .LVU625
 1733 0192 9DF81730 		ldrb	r3, [sp, #23]	@ zero_extendqisi2
 644:Middlewares/ST/STM32_USB_Host_Library/Core/Src/usbh_core.c ****         {
 1734              		.loc 1 644 17 view .LVU626
 1735 0196 032B     		cmp	r3, #3
 1736 0198 BBD1     		bne	.L94
 646:Middlewares/ST/STM32_USB_Host_Library/Core/Src/usbh_core.c ****           phost->gState = HOST_CHECK_CLASS;
ARM GAS  /tmp/ccDyhIXb.s 			page 62


 1737              		.loc 1 646 11 is_stmt 1 view .LVU627
 646:Middlewares/ST/STM32_USB_Host_Library/Core/Src/usbh_core.c ****           phost->gState = HOST_CHECK_CLASS;
 1738              		.loc 1 646 11 view .LVU628
 646:Middlewares/ST/STM32_USB_Host_Library/Core/Src/usbh_core.c ****           phost->gState = HOST_CHECK_CLASS;
 1739              		.loc 1 646 11 view .LVU629
 647:Middlewares/ST/STM32_USB_Host_Library/Core/Src/usbh_core.c ****         }
 1740              		.loc 1 647 11 view .LVU630
 647:Middlewares/ST/STM32_USB_Host_Library/Core/Src/usbh_core.c ****         }
 1741              		.loc 1 647 25 is_stmt 0 view .LVU631
 1742 019a 0A23     		movs	r3, #10
 1743 019c 2370     		strb	r3, [r4]
 1744 019e B8E7     		b	.L94
 1745              	.LVL134:
 1746              	.L97:
 666:Middlewares/ST/STM32_USB_Host_Library/Core/Src/usbh_core.c ****       {
 1747              		.loc 1 666 7 is_stmt 1 view .LVU632
 666:Middlewares/ST/STM32_USB_Host_Library/Core/Src/usbh_core.c ****       {
 1748              		.loc 1 666 16 is_stmt 0 view .LVU633
 1749 01a0 D4F88033 		ldr	r3, [r4, #896]
 666:Middlewares/ST/STM32_USB_Host_Library/Core/Src/usbh_core.c ****       {
 1750              		.loc 1 666 10 view .LVU634
 1751 01a4 002B     		cmp	r3, #0
 1752 01a6 B4D0     		beq	.L94
 672:Middlewares/ST/STM32_USB_Host_Library/Core/Src/usbh_core.c **** 
 1753              		.loc 1 672 9 is_stmt 1 view .LVU635
 672:Middlewares/ST/STM32_USB_Host_Library/Core/Src/usbh_core.c **** 
 1754              		.loc 1 672 29 is_stmt 0 view .LVU636
 1755 01a8 0023     		movs	r3, #0
 1756 01aa C4F87C33 		str	r3, [r4, #892]
 674:Middlewares/ST/STM32_USB_Host_Library/Core/Src/usbh_core.c ****         {
 1757              		.loc 1 674 9 is_stmt 1 view .LVU637
 1758              	.LVL135:
 1759              	.L114:
 674:Middlewares/ST/STM32_USB_Host_Library/Core/Src/usbh_core.c ****         {
 1760              		.loc 1 674 28 discriminator 1 view .LVU638
 1761 01ae 73B1     		cbz	r3, .L117
 1762              	.L116:
 683:Middlewares/ST/STM32_USB_Host_Library/Core/Src/usbh_core.c ****         {
 1763              		.loc 1 683 9 view .LVU639
 683:Middlewares/ST/STM32_USB_Host_Library/Core/Src/usbh_core.c ****         {
 1764              		.loc 1 683 18 is_stmt 0 view .LVU640
 1765 01b0 D4F87C33 		ldr	r3, [r4, #892]
 1766              	.LVL136:
 683:Middlewares/ST/STM32_USB_Host_Library/Core/Src/usbh_core.c ****         {
 1767              		.loc 1 683 12 view .LVU641
 1768 01b4 EBB1     		cbz	r3, .L118
 685:Middlewares/ST/STM32_USB_Host_Library/Core/Src/usbh_core.c ****           {
 1769              		.loc 1 685 11 is_stmt 1 view .LVU642
 685:Middlewares/ST/STM32_USB_Host_Library/Core/Src/usbh_core.c ****           {
 1770              		.loc 1 685 34 is_stmt 0 view .LVU643
 1771 01b6 9B68     		ldr	r3, [r3, #8]
 685:Middlewares/ST/STM32_USB_Host_Library/Core/Src/usbh_core.c ****           {
 1772              		.loc 1 685 15 view .LVU644
 1773 01b8 2046     		mov	r0, r4
 1774 01ba 9847     		blx	r3
 1775              	.LVL137:
 685:Middlewares/ST/STM32_USB_Host_Library/Core/Src/usbh_core.c ****           {
ARM GAS  /tmp/ccDyhIXb.s 			page 63


 1776              		.loc 1 685 14 discriminator 1 view .LVU645
 1777 01bc B0B9     		cbnz	r0, .L119
 687:Middlewares/ST/STM32_USB_Host_Library/Core/Src/usbh_core.c ****             USBH_UsrLog("%s class started.", phost->pActiveClass->Name);
 1778              		.loc 1 687 13 is_stmt 1 view .LVU646
 687:Middlewares/ST/STM32_USB_Host_Library/Core/Src/usbh_core.c ****             USBH_UsrLog("%s class started.", phost->pActiveClass->Name);
 1779              		.loc 1 687 27 is_stmt 0 view .LVU647
 1780 01be 0623     		movs	r3, #6
 1781 01c0 2370     		strb	r3, [r4]
 688:Middlewares/ST/STM32_USB_Host_Library/Core/Src/usbh_core.c **** 
 1782              		.loc 1 688 13 is_stmt 1 view .LVU648
 688:Middlewares/ST/STM32_USB_Host_Library/Core/Src/usbh_core.c **** 
 1783              		.loc 1 688 13 view .LVU649
 688:Middlewares/ST/STM32_USB_Host_Library/Core/Src/usbh_core.c **** 
 1784              		.loc 1 688 13 view .LVU650
 691:Middlewares/ST/STM32_USB_Host_Library/Core/Src/usbh_core.c ****           }
 1785              		.loc 1 691 13 view .LVU651
 691:Middlewares/ST/STM32_USB_Host_Library/Core/Src/usbh_core.c ****           }
 1786              		.loc 1 691 18 is_stmt 0 view .LVU652
 1787 01c2 D4F8D433 		ldr	r3, [r4, #980]
 691:Middlewares/ST/STM32_USB_Host_Library/Core/Src/usbh_core.c ****           }
 1788              		.loc 1 691 13 view .LVU653
 1789 01c6 0321     		movs	r1, #3
 1790 01c8 2046     		mov	r0, r4
 1791 01ca 9847     		blx	r3
 1792              	.LVL138:
 1793 01cc A1E7     		b	.L94
 1794              	.LVL139:
 1795              	.L117:
 676:Middlewares/ST/STM32_USB_Host_Library/Core/Src/usbh_core.c ****           {
 1796              		.loc 1 676 11 is_stmt 1 view .LVU654
 676:Middlewares/ST/STM32_USB_Host_Library/Core/Src/usbh_core.c ****           {
 1797              		.loc 1 676 28 is_stmt 0 view .LVU655
 1798 01ce 03F1DE02 		add	r2, r3, #222
 1799 01d2 54F82220 		ldr	r2, [r4, r2, lsl #2]
 676:Middlewares/ST/STM32_USB_Host_Library/Core/Src/usbh_core.c ****           {
 1800              		.loc 1 676 33 view .LVU656
 1801 01d6 1079     		ldrb	r0, [r2, #4]	@ zero_extendqisi2
 676:Middlewares/ST/STM32_USB_Host_Library/Core/Src/usbh_core.c ****           {
 1802              		.loc 1 676 81 view .LVU657
 1803 01d8 94F84713 		ldrb	r1, [r4, #839]	@ zero_extendqisi2
 676:Middlewares/ST/STM32_USB_Host_Library/Core/Src/usbh_core.c ****           {
 1804              		.loc 1 676 14 view .LVU658
 1805 01dc 8842     		cmp	r0, r1
 1806 01de 02D0     		beq	.L131
 674:Middlewares/ST/STM32_USB_Host_Library/Core/Src/usbh_core.c ****         {
 1807              		.loc 1 674 63 is_stmt 1 discriminator 2 view .LVU659
 1808 01e0 0133     		adds	r3, r3, #1
 1809              	.LVL140:
 674:Middlewares/ST/STM32_USB_Host_Library/Core/Src/usbh_core.c ****         {
 1810              		.loc 1 674 63 is_stmt 0 discriminator 2 view .LVU660
 1811 01e2 DBB2     		uxtb	r3, r3
 1812 01e4 E3E7     		b	.L114
 1813              	.LVL141:
 1814              	.L131:
 678:Middlewares/ST/STM32_USB_Host_Library/Core/Src/usbh_core.c ****             break;
 1815              		.loc 1 678 13 is_stmt 1 view .LVU661
 678:Middlewares/ST/STM32_USB_Host_Library/Core/Src/usbh_core.c ****             break;
ARM GAS  /tmp/ccDyhIXb.s 			page 64


 1816              		.loc 1 678 33 is_stmt 0 view .LVU662
 1817 01e6 C4F87C23 		str	r2, [r4, #892]
 679:Middlewares/ST/STM32_USB_Host_Library/Core/Src/usbh_core.c ****           }
 1818              		.loc 1 679 13 is_stmt 1 view .LVU663
 1819 01ea E1E7     		b	.L116
 1820              	.LVL142:
 1821              	.L119:
 695:Middlewares/ST/STM32_USB_Host_Library/Core/Src/usbh_core.c ****             USBH_UsrLog("Device not supporting %s class.", phost->pActiveClass->Name);
 1822              		.loc 1 695 13 view .LVU664
 695:Middlewares/ST/STM32_USB_Host_Library/Core/Src/usbh_core.c ****             USBH_UsrLog("Device not supporting %s class.", phost->pActiveClass->Name);
 1823              		.loc 1 695 27 is_stmt 0 view .LVU665
 1824 01ec 0D23     		movs	r3, #13
 1825 01ee 2370     		strb	r3, [r4]
 1826 01f0 8FE7     		b	.L94
 1827              	.L118:
 701:Middlewares/ST/STM32_USB_Host_Library/Core/Src/usbh_core.c ****           USBH_UsrLog("No registered class for this device.");
 1828              		.loc 1 701 11 is_stmt 1 view .LVU666
 701:Middlewares/ST/STM32_USB_Host_Library/Core/Src/usbh_core.c ****           USBH_UsrLog("No registered class for this device.");
 1829              		.loc 1 701 25 is_stmt 0 view .LVU667
 1830 01f2 0D23     		movs	r3, #13
 1831 01f4 2370     		strb	r3, [r4]
 1832 01f6 8CE7     		b	.L94
 1833              	.LVL143:
 1834              	.L101:
 713:Middlewares/ST/STM32_USB_Host_Library/Core/Src/usbh_core.c ****       {
 1835              		.loc 1 713 7 is_stmt 1 view .LVU668
 713:Middlewares/ST/STM32_USB_Host_Library/Core/Src/usbh_core.c ****       {
 1836              		.loc 1 713 16 is_stmt 0 view .LVU669
 1837 01f8 D4F87C33 		ldr	r3, [r4, #892]
 713:Middlewares/ST/STM32_USB_Host_Library/Core/Src/usbh_core.c ****       {
 1838              		.loc 1 713 10 view .LVU670
 1839 01fc 93B1     		cbz	r3, .L120
 715:Middlewares/ST/STM32_USB_Host_Library/Core/Src/usbh_core.c **** 
 1840              		.loc 1 715 9 is_stmt 1 view .LVU671
 715:Middlewares/ST/STM32_USB_Host_Library/Core/Src/usbh_core.c **** 
 1841              		.loc 1 715 37 is_stmt 0 view .LVU672
 1842 01fe 1B69     		ldr	r3, [r3, #16]
 715:Middlewares/ST/STM32_USB_Host_Library/Core/Src/usbh_core.c **** 
 1843              		.loc 1 715 18 view .LVU673
 1844 0200 2046     		mov	r0, r4
 1845              	.LVL144:
 715:Middlewares/ST/STM32_USB_Host_Library/Core/Src/usbh_core.c **** 
 1846              		.loc 1 715 18 view .LVU674
 1847 0202 9847     		blx	r3
 1848              	.LVL145:
 715:Middlewares/ST/STM32_USB_Host_Library/Core/Src/usbh_core.c **** 
 1849              		.loc 1 715 16 discriminator 1 view .LVU675
 1850 0204 8DF81700 		strb	r0, [sp, #23]
 717:Middlewares/ST/STM32_USB_Host_Library/Core/Src/usbh_core.c ****         {
 1851              		.loc 1 717 9 is_stmt 1 view .LVU676
 717:Middlewares/ST/STM32_USB_Host_Library/Core/Src/usbh_core.c ****         {
 1852              		.loc 1 717 20 is_stmt 0 view .LVU677
 1853 0208 9DF81730 		ldrb	r3, [sp, #23]	@ zero_extendqisi2
 717:Middlewares/ST/STM32_USB_Host_Library/Core/Src/usbh_core.c ****         {
 1854              		.loc 1 717 12 view .LVU678
 1855 020c 13B9     		cbnz	r3, .L121
 719:Middlewares/ST/STM32_USB_Host_Library/Core/Src/usbh_core.c ****         }
ARM GAS  /tmp/ccDyhIXb.s 			page 65


 1856              		.loc 1 719 11 is_stmt 1 view .LVU679
 719:Middlewares/ST/STM32_USB_Host_Library/Core/Src/usbh_core.c ****         }
 1857              		.loc 1 719 25 is_stmt 0 view .LVU680
 1858 020e 0B23     		movs	r3, #11
 1859 0210 2370     		strb	r3, [r4]
 1860 0212 7EE7     		b	.L94
 1861              	.L121:
 721:Middlewares/ST/STM32_USB_Host_Library/Core/Src/usbh_core.c ****         {
 1862              		.loc 1 721 14 is_stmt 1 view .LVU681
 721:Middlewares/ST/STM32_USB_Host_Library/Core/Src/usbh_core.c ****         {
 1863              		.loc 1 721 25 is_stmt 0 view .LVU682
 1864 0214 9DF81730 		ldrb	r3, [sp, #23]	@ zero_extendqisi2
 721:Middlewares/ST/STM32_USB_Host_Library/Core/Src/usbh_core.c ****         {
 1865              		.loc 1 721 17 view .LVU683
 1866 0218 022B     		cmp	r3, #2
 1867 021a 7FF47AAF 		bne	.L94
 723:Middlewares/ST/STM32_USB_Host_Library/Core/Src/usbh_core.c ****           USBH_ErrLog("Device not responding Please Unplug.");
 1868              		.loc 1 723 11 is_stmt 1 view .LVU684
 723:Middlewares/ST/STM32_USB_Host_Library/Core/Src/usbh_core.c ****           USBH_ErrLog("Device not responding Please Unplug.");
 1869              		.loc 1 723 25 is_stmt 0 view .LVU685
 1870 021e 0D23     		movs	r3, #13
 1871 0220 2370     		strb	r3, [r4]
 724:Middlewares/ST/STM32_USB_Host_Library/Core/Src/usbh_core.c ****         }
 1872              		.loc 1 724 11 is_stmt 1 view .LVU686
 724:Middlewares/ST/STM32_USB_Host_Library/Core/Src/usbh_core.c ****         }
 1873              		.loc 1 724 11 view .LVU687
 724:Middlewares/ST/STM32_USB_Host_Library/Core/Src/usbh_core.c ****         }
 1874              		.loc 1 724 11 view .LVU688
 1875 0222 76E7     		b	.L94
 1876              	.LVL146:
 1877              	.L120:
 733:Middlewares/ST/STM32_USB_Host_Library/Core/Src/usbh_core.c ****         USBH_ErrLog("Invalid Class Driver.");
 1878              		.loc 1 733 9 view .LVU689
 733:Middlewares/ST/STM32_USB_Host_Library/Core/Src/usbh_core.c ****         USBH_ErrLog("Invalid Class Driver.");
 1879              		.loc 1 733 23 is_stmt 0 view .LVU690
 1880 0224 0D23     		movs	r3, #13
 1881 0226 2370     		strb	r3, [r4]
 1882 0228 73E7     		b	.L94
 1883              	.L95:
 744:Middlewares/ST/STM32_USB_Host_Library/Core/Src/usbh_core.c ****       {
 1884              		.loc 1 744 7 is_stmt 1 view .LVU691
 744:Middlewares/ST/STM32_USB_Host_Library/Core/Src/usbh_core.c ****       {
 1885              		.loc 1 744 16 is_stmt 0 view .LVU692
 1886 022a D4F87C33 		ldr	r3, [r4, #892]
 744:Middlewares/ST/STM32_USB_Host_Library/Core/Src/usbh_core.c ****       {
 1887              		.loc 1 744 10 view .LVU693
 1888 022e 002B     		cmp	r3, #0
 1889 0230 3FF46FAF 		beq	.L94
 746:Middlewares/ST/STM32_USB_Host_Library/Core/Src/usbh_core.c ****       }
 1890              		.loc 1 746 9 is_stmt 1 view .LVU694
 746:Middlewares/ST/STM32_USB_Host_Library/Core/Src/usbh_core.c ****       }
 1891              		.loc 1 746 28 is_stmt 0 view .LVU695
 1892 0234 5B69     		ldr	r3, [r3, #20]
 746:Middlewares/ST/STM32_USB_Host_Library/Core/Src/usbh_core.c ****       }
 1893              		.loc 1 746 9 view .LVU696
 1894 0236 2046     		mov	r0, r4
 1895              	.LVL147:
ARM GAS  /tmp/ccDyhIXb.s 			page 66


 746:Middlewares/ST/STM32_USB_Host_Library/Core/Src/usbh_core.c ****       }
 1896              		.loc 1 746 9 view .LVU697
 1897 0238 9847     		blx	r3
 1898              	.LVL148:
 1899 023a 6AE7     		b	.L94
 1900              	.LVL149:
 1901              	.L103:
 751:Middlewares/ST/STM32_USB_Host_Library/Core/Src/usbh_core.c **** 
 1902              		.loc 1 751 7 is_stmt 1 view .LVU698
 751:Middlewares/ST/STM32_USB_Host_Library/Core/Src/usbh_core.c **** 
 1903              		.loc 1 751 37 is_stmt 0 view .LVU699
 1904 023c 0023     		movs	r3, #0
 1905 023e 84F82133 		strb	r3, [r4, #801]
 753:Middlewares/ST/STM32_USB_Host_Library/Core/Src/usbh_core.c **** 
 1906              		.loc 1 753 7 is_stmt 1 view .LVU700
 753:Middlewares/ST/STM32_USB_Host_Library/Core/Src/usbh_core.c **** 
 1907              		.loc 1 753 13 is_stmt 0 view .LVU701
 1908 0242 2046     		mov	r0, r4
 1909              	.LVL150:
 753:Middlewares/ST/STM32_USB_Host_Library/Core/Src/usbh_core.c **** 
 1910              		.loc 1 753 13 view .LVU702
 1911 0244 FFF7FEFF 		bl	DeInitStateMachine
 1912              	.LVL151:
 756:Middlewares/ST/STM32_USB_Host_Library/Core/Src/usbh_core.c ****       {
 1913              		.loc 1 756 7 is_stmt 1 view .LVU703
 756:Middlewares/ST/STM32_USB_Host_Library/Core/Src/usbh_core.c ****       {
 1914              		.loc 1 756 16 is_stmt 0 view .LVU704
 1915 0248 D4F87C33 		ldr	r3, [r4, #892]
 756:Middlewares/ST/STM32_USB_Host_Library/Core/Src/usbh_core.c ****       {
 1916              		.loc 1 756 10 view .LVU705
 1917 024c 2BB1     		cbz	r3, .L122
 758:Middlewares/ST/STM32_USB_Host_Library/Core/Src/usbh_core.c ****         phost->pActiveClass = NULL;
 1918              		.loc 1 758 9 is_stmt 1 view .LVU706
 758:Middlewares/ST/STM32_USB_Host_Library/Core/Src/usbh_core.c ****         phost->pActiveClass = NULL;
 1919              		.loc 1 758 28 is_stmt 0 view .LVU707
 1920 024e DB68     		ldr	r3, [r3, #12]
 758:Middlewares/ST/STM32_USB_Host_Library/Core/Src/usbh_core.c ****         phost->pActiveClass = NULL;
 1921              		.loc 1 758 9 view .LVU708
 1922 0250 2046     		mov	r0, r4
 1923 0252 9847     		blx	r3
 1924              	.LVL152:
 759:Middlewares/ST/STM32_USB_Host_Library/Core/Src/usbh_core.c ****       }
 1925              		.loc 1 759 9 is_stmt 1 view .LVU709
 759:Middlewares/ST/STM32_USB_Host_Library/Core/Src/usbh_core.c ****       }
 1926              		.loc 1 759 29 is_stmt 0 view .LVU710
 1927 0254 0023     		movs	r3, #0
 1928 0256 C4F87C33 		str	r3, [r4, #892]
 1929              	.L122:
 762:Middlewares/ST/STM32_USB_Host_Library/Core/Src/usbh_core.c ****       {
 1930              		.loc 1 762 7 is_stmt 1 view .LVU711
 762:Middlewares/ST/STM32_USB_Host_Library/Core/Src/usbh_core.c ****       {
 1931              		.loc 1 762 16 is_stmt 0 view .LVU712
 1932 025a D4F8D433 		ldr	r3, [r4, #980]
 762:Middlewares/ST/STM32_USB_Host_Library/Core/Src/usbh_core.c ****       {
 1933              		.loc 1 762 10 view .LVU713
 1934 025e 13B1     		cbz	r3, .L123
 764:Middlewares/ST/STM32_USB_Host_Library/Core/Src/usbh_core.c ****       }
ARM GAS  /tmp/ccDyhIXb.s 			page 67


 1935              		.loc 1 764 9 is_stmt 1 view .LVU714
 1936 0260 0521     		movs	r1, #5
 1937 0262 2046     		mov	r0, r4
 1938 0264 9847     		blx	r3
 1939              	.LVL153:
 1940              	.L123:
 766:Middlewares/ST/STM32_USB_Host_Library/Core/Src/usbh_core.c **** 
 1941              		.loc 1 766 7 view .LVU715
 766:Middlewares/ST/STM32_USB_Host_Library/Core/Src/usbh_core.c **** 
 1942              		.loc 1 766 7 view .LVU716
 766:Middlewares/ST/STM32_USB_Host_Library/Core/Src/usbh_core.c **** 
 1943              		.loc 1 766 7 view .LVU717
 768:Middlewares/ST/STM32_USB_Host_Library/Core/Src/usbh_core.c ****       {
 1944              		.loc 1 768 7 view .LVU718
 768:Middlewares/ST/STM32_USB_Host_Library/Core/Src/usbh_core.c ****       {
 1945              		.loc 1 768 24 is_stmt 0 view .LVU719
 1946 0266 94F82233 		ldrb	r3, [r4, #802]	@ zero_extendqisi2
 768:Middlewares/ST/STM32_USB_Host_Library/Core/Src/usbh_core.c ****       {
 1947              		.loc 1 768 10 view .LVU720
 1948 026a 012B     		cmp	r3, #1
 1949 026c 03D0     		beq	.L132
 778:Middlewares/ST/STM32_USB_Host_Library/Core/Src/usbh_core.c ****       }
 1950              		.loc 1 778 9 is_stmt 1 view .LVU721
 778:Middlewares/ST/STM32_USB_Host_Library/Core/Src/usbh_core.c ****       }
 1951              		.loc 1 778 15 is_stmt 0 view .LVU722
 1952 026e 2046     		mov	r0, r4
 1953 0270 FFF7FEFF 		bl	USBH_LL_Start
 1954              	.LVL154:
 1955 0274 4DE7     		b	.L94
 1956              	.L132:
 770:Middlewares/ST/STM32_USB_Host_Library/Core/Src/usbh_core.c **** 
 1957              		.loc 1 770 9 is_stmt 1 view .LVU723
 770:Middlewares/ST/STM32_USB_Host_Library/Core/Src/usbh_core.c **** 
 1958              		.loc 1 770 39 is_stmt 0 view .LVU724
 1959 0276 0023     		movs	r3, #0
 1960 0278 84F82233 		strb	r3, [r4, #802]
 773:Middlewares/ST/STM32_USB_Host_Library/Core/Src/usbh_core.c ****       }
 1961              		.loc 1 773 9 is_stmt 1 view .LVU725
 773:Middlewares/ST/STM32_USB_Host_Library/Core/Src/usbh_core.c ****       }
 1962              		.loc 1 773 15 is_stmt 0 view .LVU726
 1963 027c 2046     		mov	r0, r4
 1964 027e FFF7FEFF 		bl	USBH_Start
 1965              	.LVL155:
 1966 0282 46E7     		b	.L94
 1967              		.cfi_endproc
 1968              	.LFE155:
 1970              		.section	.text.USBH_LL_SetTimer,"ax",%progbits
 1971              		.align	1
 1972              		.global	USBH_LL_SetTimer
 1973              		.syntax unified
 1974              		.thumb
 1975              		.thumb_func
 1977              	USBH_LL_SetTimer:
 1978              	.LVL156:
 1979              	.LFB157:
1115:Middlewares/ST/STM32_USB_Host_Library/Core/Src/usbh_core.c ****   phost->Timer = time;
 1980              		.loc 1 1115 1 is_stmt 1 view -0
ARM GAS  /tmp/ccDyhIXb.s 			page 68


 1981              		.cfi_startproc
 1982              		@ args = 0, pretend = 0, frame = 0
 1983              		@ frame_needed = 0, uses_anonymous_args = 0
 1984              		@ link register save eliminated.
1116:Middlewares/ST/STM32_USB_Host_Library/Core/Src/usbh_core.c **** }
 1985              		.loc 1 1116 3 view .LVU728
1116:Middlewares/ST/STM32_USB_Host_Library/Core/Src/usbh_core.c **** }
 1986              		.loc 1 1116 16 is_stmt 0 view .LVU729
 1987 0000 C0F8C413 		str	r1, [r0, #964]
1117:Middlewares/ST/STM32_USB_Host_Library/Core/Src/usbh_core.c **** 
 1988              		.loc 1 1117 1 view .LVU730
 1989 0004 7047     		bx	lr
 1990              		.cfi_endproc
 1991              	.LFE157:
 1993              		.section	.text.USBH_LL_IncTimer,"ax",%progbits
 1994              		.align	1
 1995              		.global	USBH_LL_IncTimer
 1996              		.syntax unified
 1997              		.thumb
 1998              		.thumb_func
 2000              	USBH_LL_IncTimer:
 2001              	.LVL157:
 2002              	.LFB158:
1127:Middlewares/ST/STM32_USB_Host_Library/Core/Src/usbh_core.c ****   phost->Timer++;
 2003              		.loc 1 1127 1 is_stmt 1 view -0
 2004              		.cfi_startproc
 2005              		@ args = 0, pretend = 0, frame = 0
 2006              		@ frame_needed = 0, uses_anonymous_args = 0
1127:Middlewares/ST/STM32_USB_Host_Library/Core/Src/usbh_core.c ****   phost->Timer++;
 2007              		.loc 1 1127 1 is_stmt 0 view .LVU732
 2008 0000 08B5     		push	{r3, lr}
 2009              	.LCFI16:
 2010              		.cfi_def_cfa_offset 8
 2011              		.cfi_offset 3, -8
 2012              		.cfi_offset 14, -4
1128:Middlewares/ST/STM32_USB_Host_Library/Core/Src/usbh_core.c ****   USBH_HandleSof(phost);
 2013              		.loc 1 1128 3 is_stmt 1 view .LVU733
1128:Middlewares/ST/STM32_USB_Host_Library/Core/Src/usbh_core.c ****   USBH_HandleSof(phost);
 2014              		.loc 1 1128 8 is_stmt 0 view .LVU734
 2015 0002 D0F8C423 		ldr	r2, [r0, #964]
1128:Middlewares/ST/STM32_USB_Host_Library/Core/Src/usbh_core.c ****   USBH_HandleSof(phost);
 2016              		.loc 1 1128 15 view .LVU735
 2017 0006 0132     		adds	r2, r2, #1
 2018 0008 C0F8C423 		str	r2, [r0, #964]
1129:Middlewares/ST/STM32_USB_Host_Library/Core/Src/usbh_core.c **** }
 2019              		.loc 1 1129 3 is_stmt 1 view .LVU736
 2020 000c FFF7FEFF 		bl	USBH_HandleSof
 2021              	.LVL158:
1130:Middlewares/ST/STM32_USB_Host_Library/Core/Src/usbh_core.c **** 
 2022              		.loc 1 1130 1 is_stmt 0 view .LVU737
 2023 0010 08BD     		pop	{r3, pc}
 2024              		.cfi_endproc
 2025              	.LFE158:
 2027              		.section	.text.USBH_LL_PortEnabled,"ax",%progbits
 2028              		.align	1
 2029              		.global	USBH_LL_PortEnabled
 2030              		.syntax unified
ARM GAS  /tmp/ccDyhIXb.s 			page 69


 2031              		.thumb
 2032              		.thumb_func
 2034              	USBH_LL_PortEnabled:
 2035              	.LVL159:
 2036              	.LFB160:
1146:Middlewares/ST/STM32_USB_Host_Library/Core/Src/usbh_core.c **** 
1147:Middlewares/ST/STM32_USB_Host_Library/Core/Src/usbh_core.c **** 
1148:Middlewares/ST/STM32_USB_Host_Library/Core/Src/usbh_core.c **** /**
1149:Middlewares/ST/STM32_USB_Host_Library/Core/Src/usbh_core.c ****   * @brief  USBH_PortEnabled
1150:Middlewares/ST/STM32_USB_Host_Library/Core/Src/usbh_core.c ****   *         Port Enabled
1151:Middlewares/ST/STM32_USB_Host_Library/Core/Src/usbh_core.c ****   * @param  phost: Host Handle
1152:Middlewares/ST/STM32_USB_Host_Library/Core/Src/usbh_core.c ****   * @retval None
1153:Middlewares/ST/STM32_USB_Host_Library/Core/Src/usbh_core.c ****   */
1154:Middlewares/ST/STM32_USB_Host_Library/Core/Src/usbh_core.c **** void USBH_LL_PortEnabled(USBH_HandleTypeDef *phost)
1155:Middlewares/ST/STM32_USB_Host_Library/Core/Src/usbh_core.c **** {
 2037              		.loc 1 1155 1 is_stmt 1 view -0
 2038              		.cfi_startproc
 2039              		@ args = 0, pretend = 0, frame = 0
 2040              		@ frame_needed = 0, uses_anonymous_args = 0
 2041              		@ link register save eliminated.
1156:Middlewares/ST/STM32_USB_Host_Library/Core/Src/usbh_core.c ****   phost->device.PortEnabled = 1U;
 2042              		.loc 1 1156 3 view .LVU739
 2043              		.loc 1 1156 29 is_stmt 0 view .LVU740
 2044 0000 0123     		movs	r3, #1
 2045 0002 80F82333 		strb	r3, [r0, #803]
1157:Middlewares/ST/STM32_USB_Host_Library/Core/Src/usbh_core.c **** 
1158:Middlewares/ST/STM32_USB_Host_Library/Core/Src/usbh_core.c **** #if (USBH_USE_OS == 1U)
1159:Middlewares/ST/STM32_USB_Host_Library/Core/Src/usbh_core.c ****   USBH_OS_PutMessage(phost, USBH_PORT_EVENT, 0U, 0U);
1160:Middlewares/ST/STM32_USB_Host_Library/Core/Src/usbh_core.c **** #endif /* (USBH_USE_OS == 1U) */
1161:Middlewares/ST/STM32_USB_Host_Library/Core/Src/usbh_core.c **** 
1162:Middlewares/ST/STM32_USB_Host_Library/Core/Src/usbh_core.c ****   return;
 2046              		.loc 1 1162 3 is_stmt 1 view .LVU741
1163:Middlewares/ST/STM32_USB_Host_Library/Core/Src/usbh_core.c **** }
 2047              		.loc 1 1163 1 is_stmt 0 view .LVU742
 2048 0006 7047     		bx	lr
 2049              		.cfi_endproc
 2050              	.LFE160:
 2052              		.section	.text.USBH_LL_PortDisabled,"ax",%progbits
 2053              		.align	1
 2054              		.global	USBH_LL_PortDisabled
 2055              		.syntax unified
 2056              		.thumb
 2057              		.thumb_func
 2059              	USBH_LL_PortDisabled:
 2060              	.LVL160:
 2061              	.LFB161:
1164:Middlewares/ST/STM32_USB_Host_Library/Core/Src/usbh_core.c **** 
1165:Middlewares/ST/STM32_USB_Host_Library/Core/Src/usbh_core.c **** 
1166:Middlewares/ST/STM32_USB_Host_Library/Core/Src/usbh_core.c **** /**
1167:Middlewares/ST/STM32_USB_Host_Library/Core/Src/usbh_core.c ****   * @brief  USBH_LL_PortDisabled
1168:Middlewares/ST/STM32_USB_Host_Library/Core/Src/usbh_core.c ****   *         Port Disabled
1169:Middlewares/ST/STM32_USB_Host_Library/Core/Src/usbh_core.c ****   * @param  phost: Host Handle
1170:Middlewares/ST/STM32_USB_Host_Library/Core/Src/usbh_core.c ****   * @retval None
1171:Middlewares/ST/STM32_USB_Host_Library/Core/Src/usbh_core.c ****   */
1172:Middlewares/ST/STM32_USB_Host_Library/Core/Src/usbh_core.c **** void USBH_LL_PortDisabled(USBH_HandleTypeDef *phost)
1173:Middlewares/ST/STM32_USB_Host_Library/Core/Src/usbh_core.c **** {
 2062              		.loc 1 1173 1 is_stmt 1 view -0
ARM GAS  /tmp/ccDyhIXb.s 			page 70


 2063              		.cfi_startproc
 2064              		@ args = 0, pretend = 0, frame = 0
 2065              		@ frame_needed = 0, uses_anonymous_args = 0
 2066              		@ link register save eliminated.
1174:Middlewares/ST/STM32_USB_Host_Library/Core/Src/usbh_core.c ****   phost->device.PortEnabled = 0U;
 2067              		.loc 1 1174 3 view .LVU744
 2068              		.loc 1 1174 29 is_stmt 0 view .LVU745
 2069 0000 0023     		movs	r3, #0
 2070 0002 80F82333 		strb	r3, [r0, #803]
1175:Middlewares/ST/STM32_USB_Host_Library/Core/Src/usbh_core.c ****   phost->device.is_disconnected = 1U;
 2071              		.loc 1 1175 3 is_stmt 1 view .LVU746
 2072              		.loc 1 1175 33 is_stmt 0 view .LVU747
 2073 0006 0123     		movs	r3, #1
 2074 0008 80F82133 		strb	r3, [r0, #801]
1176:Middlewares/ST/STM32_USB_Host_Library/Core/Src/usbh_core.c **** 
1177:Middlewares/ST/STM32_USB_Host_Library/Core/Src/usbh_core.c ****   return;
 2075              		.loc 1 1177 3 is_stmt 1 view .LVU748
1178:Middlewares/ST/STM32_USB_Host_Library/Core/Src/usbh_core.c **** }
 2076              		.loc 1 1178 1 is_stmt 0 view .LVU749
 2077 000c 7047     		bx	lr
 2078              		.cfi_endproc
 2079              	.LFE161:
 2081              		.section	.text.USBH_IsPortEnabled,"ax",%progbits
 2082              		.align	1
 2083              		.global	USBH_IsPortEnabled
 2084              		.syntax unified
 2085              		.thumb
 2086              		.thumb_func
 2088              	USBH_IsPortEnabled:
 2089              	.LVL161:
 2090              	.LFB162:
1179:Middlewares/ST/STM32_USB_Host_Library/Core/Src/usbh_core.c **** 
1180:Middlewares/ST/STM32_USB_Host_Library/Core/Src/usbh_core.c **** 
1181:Middlewares/ST/STM32_USB_Host_Library/Core/Src/usbh_core.c **** /**
1182:Middlewares/ST/STM32_USB_Host_Library/Core/Src/usbh_core.c ****   * @brief  HCD_IsPortEnabled
1183:Middlewares/ST/STM32_USB_Host_Library/Core/Src/usbh_core.c ****   *         Is Port Enabled
1184:Middlewares/ST/STM32_USB_Host_Library/Core/Src/usbh_core.c ****   * @param  phost: Host Handle
1185:Middlewares/ST/STM32_USB_Host_Library/Core/Src/usbh_core.c ****   * @retval None
1186:Middlewares/ST/STM32_USB_Host_Library/Core/Src/usbh_core.c ****   */
1187:Middlewares/ST/STM32_USB_Host_Library/Core/Src/usbh_core.c **** uint8_t USBH_IsPortEnabled(USBH_HandleTypeDef *phost)
1188:Middlewares/ST/STM32_USB_Host_Library/Core/Src/usbh_core.c **** {
 2091              		.loc 1 1188 1 is_stmt 1 view -0
 2092              		.cfi_startproc
 2093              		@ args = 0, pretend = 0, frame = 0
 2094              		@ frame_needed = 0, uses_anonymous_args = 0
 2095              		@ link register save eliminated.
1189:Middlewares/ST/STM32_USB_Host_Library/Core/Src/usbh_core.c ****   return (phost->device.PortEnabled);
 2096              		.loc 1 1189 3 view .LVU751
 2097              		.loc 1 1189 24 is_stmt 0 view .LVU752
 2098 0000 90F82303 		ldrb	r0, [r0, #803]	@ zero_extendqisi2
 2099              	.LVL162:
1190:Middlewares/ST/STM32_USB_Host_Library/Core/Src/usbh_core.c **** }
 2100              		.loc 1 1190 1 view .LVU753
 2101 0004 7047     		bx	lr
 2102              		.cfi_endproc
 2103              	.LFE162:
 2105              		.section	.text.USBH_ReEnumerate,"ax",%progbits
ARM GAS  /tmp/ccDyhIXb.s 			page 71


 2106              		.align	1
 2107              		.global	USBH_ReEnumerate
 2108              		.syntax unified
 2109              		.thumb
 2110              		.thumb_func
 2112              	USBH_ReEnumerate:
 2113              	.LVL163:
 2114              	.LFB154:
 448:Middlewares/ST/STM32_USB_Host_Library/Core/Src/usbh_core.c ****   if (USBH_IsPortEnabled(phost) != 0U)
 2115              		.loc 1 448 1 is_stmt 1 view -0
 2116              		.cfi_startproc
 2117              		@ args = 0, pretend = 0, frame = 0
 2118              		@ frame_needed = 0, uses_anonymous_args = 0
 448:Middlewares/ST/STM32_USB_Host_Library/Core/Src/usbh_core.c ****   if (USBH_IsPortEnabled(phost) != 0U)
 2119              		.loc 1 448 1 is_stmt 0 view .LVU755
 2120 0000 38B5     		push	{r3, r4, r5, lr}
 2121              	.LCFI17:
 2122              		.cfi_def_cfa_offset 16
 2123              		.cfi_offset 3, -16
 2124              		.cfi_offset 4, -12
 2125              		.cfi_offset 5, -8
 2126              		.cfi_offset 14, -4
 2127 0002 0446     		mov	r4, r0
 449:Middlewares/ST/STM32_USB_Host_Library/Core/Src/usbh_core.c ****   {
 2128              		.loc 1 449 3 is_stmt 1 view .LVU756
 449:Middlewares/ST/STM32_USB_Host_Library/Core/Src/usbh_core.c ****   {
 2129              		.loc 1 449 7 is_stmt 0 view .LVU757
 2130 0004 FFF7FEFF 		bl	USBH_IsPortEnabled
 2131              	.LVL164:
 449:Middlewares/ST/STM32_USB_Host_Library/Core/Src/usbh_core.c ****   {
 2132              		.loc 1 449 6 discriminator 1 view .LVU758
 2133 0008 08B9     		cbnz	r0, .L142
 2134              	.L140:
 463:Middlewares/ST/STM32_USB_Host_Library/Core/Src/usbh_core.c **** }
 2135              		.loc 1 463 3 is_stmt 1 view .LVU759
 464:Middlewares/ST/STM32_USB_Host_Library/Core/Src/usbh_core.c **** 
 2136              		.loc 1 464 1 is_stmt 0 view .LVU760
 2137 000a 0020     		movs	r0, #0
 2138 000c 38BD     		pop	{r3, r4, r5, pc}
 2139              	.LVL165:
 2140              	.L142:
 451:Middlewares/ST/STM32_USB_Host_Library/Core/Src/usbh_core.c **** 
 2141              		.loc 1 451 5 is_stmt 1 view .LVU761
 451:Middlewares/ST/STM32_USB_Host_Library/Core/Src/usbh_core.c **** 
 2142              		.loc 1 451 35 is_stmt 0 view .LVU762
 2143 000e 0125     		movs	r5, #1
 2144 0010 84F82253 		strb	r5, [r4, #802]
 454:Middlewares/ST/STM32_USB_Host_Library/Core/Src/usbh_core.c **** 
 2145              		.loc 1 454 5 is_stmt 1 view .LVU763
 454:Middlewares/ST/STM32_USB_Host_Library/Core/Src/usbh_core.c **** 
 2146              		.loc 1 454 11 is_stmt 0 view .LVU764
 2147 0014 2046     		mov	r0, r4
 2148 0016 FFF7FEFF 		bl	USBH_Stop
 2149              	.LVL166:
 456:Middlewares/ST/STM32_USB_Host_Library/Core/Src/usbh_core.c ****   }
 2150              		.loc 1 456 5 is_stmt 1 view .LVU765
 456:Middlewares/ST/STM32_USB_Host_Library/Core/Src/usbh_core.c ****   }
ARM GAS  /tmp/ccDyhIXb.s 			page 72


 2151              		.loc 1 456 35 is_stmt 0 view .LVU766
 2152 001a 84F82153 		strb	r5, [r4, #801]
 2153 001e F4E7     		b	.L140
 2154              		.cfi_endproc
 2155              	.LFE154:
 2157              		.section	.text.USBH_LL_Connect,"ax",%progbits
 2158              		.align	1
 2159              		.global	USBH_LL_Connect
 2160              		.syntax unified
 2161              		.thumb
 2162              		.thumb_func
 2164              	USBH_LL_Connect:
 2165              	.LVL167:
 2166              	.LFB163:
1191:Middlewares/ST/STM32_USB_Host_Library/Core/Src/usbh_core.c **** 
1192:Middlewares/ST/STM32_USB_Host_Library/Core/Src/usbh_core.c **** 
1193:Middlewares/ST/STM32_USB_Host_Library/Core/Src/usbh_core.c **** /**
1194:Middlewares/ST/STM32_USB_Host_Library/Core/Src/usbh_core.c ****   * @brief  USBH_LL_Connect
1195:Middlewares/ST/STM32_USB_Host_Library/Core/Src/usbh_core.c ****   *         Handle USB Host connection event
1196:Middlewares/ST/STM32_USB_Host_Library/Core/Src/usbh_core.c ****   * @param  phost: Host Handle
1197:Middlewares/ST/STM32_USB_Host_Library/Core/Src/usbh_core.c ****   * @retval USBH_Status
1198:Middlewares/ST/STM32_USB_Host_Library/Core/Src/usbh_core.c ****   */
1199:Middlewares/ST/STM32_USB_Host_Library/Core/Src/usbh_core.c **** USBH_StatusTypeDef USBH_LL_Connect(USBH_HandleTypeDef *phost)
1200:Middlewares/ST/STM32_USB_Host_Library/Core/Src/usbh_core.c **** {
 2167              		.loc 1 1200 1 is_stmt 1 view -0
 2168              		.cfi_startproc
 2169              		@ args = 0, pretend = 0, frame = 0
 2170              		@ frame_needed = 0, uses_anonymous_args = 0
 2171              		@ link register save eliminated.
 2172              		.loc 1 1200 1 is_stmt 0 view .LVU768
 2173 0000 0346     		mov	r3, r0
1201:Middlewares/ST/STM32_USB_Host_Library/Core/Src/usbh_core.c ****   phost->device.is_connected = 1U;
 2174              		.loc 1 1201 3 is_stmt 1 view .LVU769
 2175              		.loc 1 1201 30 is_stmt 0 view .LVU770
 2176 0002 0122     		movs	r2, #1
 2177 0004 80F82023 		strb	r2, [r0, #800]
1202:Middlewares/ST/STM32_USB_Host_Library/Core/Src/usbh_core.c ****   phost->device.is_disconnected = 0U;
 2178              		.loc 1 1202 3 is_stmt 1 view .LVU771
 2179              		.loc 1 1202 33 is_stmt 0 view .LVU772
 2180 0008 0020     		movs	r0, #0
 2181              	.LVL168:
 2182              		.loc 1 1202 33 view .LVU773
 2183 000a 83F82103 		strb	r0, [r3, #801]
1203:Middlewares/ST/STM32_USB_Host_Library/Core/Src/usbh_core.c ****   phost->device.is_ReEnumerated = 0U;
 2184              		.loc 1 1203 3 is_stmt 1 view .LVU774
 2185              		.loc 1 1203 33 is_stmt 0 view .LVU775
 2186 000e 83F82203 		strb	r0, [r3, #802]
1204:Middlewares/ST/STM32_USB_Host_Library/Core/Src/usbh_core.c **** 
1205:Middlewares/ST/STM32_USB_Host_Library/Core/Src/usbh_core.c **** #if (USBH_USE_OS == 1U)
1206:Middlewares/ST/STM32_USB_Host_Library/Core/Src/usbh_core.c ****   USBH_OS_PutMessage(phost, USBH_PORT_EVENT, 0U, 0U);
1207:Middlewares/ST/STM32_USB_Host_Library/Core/Src/usbh_core.c **** #endif /* (USBH_USE_OS == 1U) */
1208:Middlewares/ST/STM32_USB_Host_Library/Core/Src/usbh_core.c **** 
1209:Middlewares/ST/STM32_USB_Host_Library/Core/Src/usbh_core.c ****   return USBH_OK;
 2187              		.loc 1 1209 3 is_stmt 1 view .LVU776
1210:Middlewares/ST/STM32_USB_Host_Library/Core/Src/usbh_core.c **** }
 2188              		.loc 1 1210 1 is_stmt 0 view .LVU777
 2189 0012 7047     		bx	lr
ARM GAS  /tmp/ccDyhIXb.s 			page 73


 2190              		.cfi_endproc
 2191              	.LFE163:
 2193              		.section	.text.USBH_LL_Disconnect,"ax",%progbits
 2194              		.align	1
 2195              		.global	USBH_LL_Disconnect
 2196              		.syntax unified
 2197              		.thumb
 2198              		.thumb_func
 2200              	USBH_LL_Disconnect:
 2201              	.LVL169:
 2202              	.LFB164:
1211:Middlewares/ST/STM32_USB_Host_Library/Core/Src/usbh_core.c **** 
1212:Middlewares/ST/STM32_USB_Host_Library/Core/Src/usbh_core.c **** 
1213:Middlewares/ST/STM32_USB_Host_Library/Core/Src/usbh_core.c **** /**
1214:Middlewares/ST/STM32_USB_Host_Library/Core/Src/usbh_core.c ****   * @brief  USBH_LL_Disconnect
1215:Middlewares/ST/STM32_USB_Host_Library/Core/Src/usbh_core.c ****   *         Handle USB Host disconnection event
1216:Middlewares/ST/STM32_USB_Host_Library/Core/Src/usbh_core.c ****   * @param  phost: Host Handle
1217:Middlewares/ST/STM32_USB_Host_Library/Core/Src/usbh_core.c ****   * @retval USBH_Status
1218:Middlewares/ST/STM32_USB_Host_Library/Core/Src/usbh_core.c ****   */
1219:Middlewares/ST/STM32_USB_Host_Library/Core/Src/usbh_core.c **** USBH_StatusTypeDef USBH_LL_Disconnect(USBH_HandleTypeDef *phost)
1220:Middlewares/ST/STM32_USB_Host_Library/Core/Src/usbh_core.c **** {
 2203              		.loc 1 1220 1 is_stmt 1 view -0
 2204              		.cfi_startproc
 2205              		@ args = 0, pretend = 0, frame = 0
 2206              		@ frame_needed = 0, uses_anonymous_args = 0
 2207              		.loc 1 1220 1 is_stmt 0 view .LVU779
 2208 0000 38B5     		push	{r3, r4, r5, lr}
 2209              	.LCFI18:
 2210              		.cfi_def_cfa_offset 16
 2211              		.cfi_offset 3, -16
 2212              		.cfi_offset 4, -12
 2213              		.cfi_offset 5, -8
 2214              		.cfi_offset 14, -4
 2215 0002 0446     		mov	r4, r0
1221:Middlewares/ST/STM32_USB_Host_Library/Core/Src/usbh_core.c ****   /* update device connection states */
1222:Middlewares/ST/STM32_USB_Host_Library/Core/Src/usbh_core.c ****   phost->device.is_disconnected = 1U;
 2216              		.loc 1 1222 3 is_stmt 1 view .LVU780
 2217              		.loc 1 1222 33 is_stmt 0 view .LVU781
 2218 0004 0123     		movs	r3, #1
 2219 0006 80F82133 		strb	r3, [r0, #801]
1223:Middlewares/ST/STM32_USB_Host_Library/Core/Src/usbh_core.c ****   phost->device.is_connected = 0U;
 2220              		.loc 1 1223 3 is_stmt 1 view .LVU782
 2221              		.loc 1 1223 30 is_stmt 0 view .LVU783
 2222 000a 0025     		movs	r5, #0
 2223 000c 80F82053 		strb	r5, [r0, #800]
1224:Middlewares/ST/STM32_USB_Host_Library/Core/Src/usbh_core.c ****   phost->device.PortEnabled = 0U;
 2224              		.loc 1 1224 3 is_stmt 1 view .LVU784
 2225              		.loc 1 1224 29 is_stmt 0 view .LVU785
 2226 0010 80F82353 		strb	r5, [r0, #803]
1225:Middlewares/ST/STM32_USB_Host_Library/Core/Src/usbh_core.c **** 
1226:Middlewares/ST/STM32_USB_Host_Library/Core/Src/usbh_core.c ****   /* Stop Host */
1227:Middlewares/ST/STM32_USB_Host_Library/Core/Src/usbh_core.c ****   (void)USBH_LL_Stop(phost);
 2227              		.loc 1 1227 3 is_stmt 1 view .LVU786
 2228              		.loc 1 1227 9 is_stmt 0 view .LVU787
 2229 0014 FFF7FEFF 		bl	USBH_LL_Stop
 2230              	.LVL170:
1228:Middlewares/ST/STM32_USB_Host_Library/Core/Src/usbh_core.c **** 
ARM GAS  /tmp/ccDyhIXb.s 			page 74


1229:Middlewares/ST/STM32_USB_Host_Library/Core/Src/usbh_core.c ****   /* FRee Control Pipes */
1230:Middlewares/ST/STM32_USB_Host_Library/Core/Src/usbh_core.c ****   (void)USBH_FreePipe(phost, phost->Control.pipe_in);
 2231              		.loc 1 1230 3 is_stmt 1 view .LVU788
 2232              		.loc 1 1230 9 is_stmt 0 view .LVU789
 2233 0018 2179     		ldrb	r1, [r4, #4]	@ zero_extendqisi2
 2234 001a 2046     		mov	r0, r4
 2235 001c FFF7FEFF 		bl	USBH_FreePipe
 2236              	.LVL171:
1231:Middlewares/ST/STM32_USB_Host_Library/Core/Src/usbh_core.c ****   (void)USBH_FreePipe(phost, phost->Control.pipe_out);
 2237              		.loc 1 1231 3 is_stmt 1 view .LVU790
 2238              		.loc 1 1231 9 is_stmt 0 view .LVU791
 2239 0020 6179     		ldrb	r1, [r4, #5]	@ zero_extendqisi2
 2240 0022 2046     		mov	r0, r4
 2241 0024 FFF7FEFF 		bl	USBH_FreePipe
 2242              	.LVL172:
1232:Middlewares/ST/STM32_USB_Host_Library/Core/Src/usbh_core.c **** 
1233:Middlewares/ST/STM32_USB_Host_Library/Core/Src/usbh_core.c **** #if (USBH_USE_OS == 1U)
1234:Middlewares/ST/STM32_USB_Host_Library/Core/Src/usbh_core.c ****   USBH_OS_PutMessage(phost, USBH_PORT_EVENT, 0U, 0U);
1235:Middlewares/ST/STM32_USB_Host_Library/Core/Src/usbh_core.c **** #endif /* (USBH_USE_OS == 1U) */
1236:Middlewares/ST/STM32_USB_Host_Library/Core/Src/usbh_core.c **** 
1237:Middlewares/ST/STM32_USB_Host_Library/Core/Src/usbh_core.c ****   return USBH_OK;
 2243              		.loc 1 1237 3 is_stmt 1 view .LVU792
1238:Middlewares/ST/STM32_USB_Host_Library/Core/Src/usbh_core.c **** }
 2244              		.loc 1 1238 1 is_stmt 0 view .LVU793
 2245 0028 2846     		mov	r0, r5
 2246 002a 38BD     		pop	{r3, r4, r5, pc}
 2247              		.loc 1 1238 1 view .LVU794
 2248              		.cfi_endproc
 2249              	.LFE164:
 2251              		.text
 2252              	.Letext0:
 2253              		.file 2 "/usr/arm-none-eabi/include/machine/_default_types.h"
 2254              		.file 3 "/usr/arm-none-eabi/include/sys/_stdint.h"
 2255              		.file 4 "Middlewares/ST/STM32_USB_Host_Library/Core/Inc/usbh_def.h"
 2256              		.file 5 "Middlewares/ST/STM32_USB_Host_Library/Core/Inc/usbh_ctlreq.h"
 2257              		.file 6 "Middlewares/ST/STM32_USB_Host_Library/Core/Inc/usbh_pipes.h"
 2258              		.file 7 "Middlewares/ST/STM32_USB_Host_Library/Core/Inc/usbh_core.h"
 2259              		.file 8 "/usr/arm-none-eabi/include/string.h"
 2260              		.file 9 "<built-in>"
ARM GAS  /tmp/ccDyhIXb.s 			page 75


DEFINED SYMBOLS
                            *ABS*:00000000 usbh_core.c
     /tmp/ccDyhIXb.s:21     .text.USBH_HandleSof:00000000 $t
     /tmp/ccDyhIXb.s:26     .text.USBH_HandleSof:00000000 USBH_HandleSof
     /tmp/ccDyhIXb.s:68     .text.DeInitStateMachine:00000000 $t
     /tmp/ccDyhIXb.s:73     .text.DeInitStateMachine:00000000 DeInitStateMachine
     /tmp/ccDyhIXb.s:203    .text.USBH_HandleEnum:00000000 $t
     /tmp/ccDyhIXb.s:208    .text.USBH_HandleEnum:00000000 USBH_HandleEnum
     /tmp/ccDyhIXb.s:238    .text.USBH_HandleEnum:00000012 $d
     /tmp/ccDyhIXb.s:246    .text.USBH_HandleEnum:00000022 $t
     /tmp/ccDyhIXb.s:822    .text.USBH_Init:00000000 $t
     /tmp/ccDyhIXb.s:828    .text.USBH_Init:00000000 USBH_Init
     /tmp/ccDyhIXb.s:908    .text.USBH_DeInit:00000000 $t
     /tmp/ccDyhIXb.s:914    .text.USBH_DeInit:00000000 USBH_DeInit
     /tmp/ccDyhIXb.s:971    .text.USBH_RegisterClass:00000000 $t
     /tmp/ccDyhIXb.s:977    .text.USBH_RegisterClass:00000000 USBH_RegisterClass
     /tmp/ccDyhIXb.s:1029   .text.USBH_SelectInterface:00000000 $t
     /tmp/ccDyhIXb.s:1035   .text.USBH_SelectInterface:00000000 USBH_SelectInterface
     /tmp/ccDyhIXb.s:1082   .text.USBH_GetActiveClass:00000000 $t
     /tmp/ccDyhIXb.s:1088   .text.USBH_GetActiveClass:00000000 USBH_GetActiveClass
     /tmp/ccDyhIXb.s:1106   .text.USBH_FindInterface:00000000 $t
     /tmp/ccDyhIXb.s:1112   .text.USBH_FindInterface:00000000 USBH_FindInterface
     /tmp/ccDyhIXb.s:1202   .text.USBH_FindInterfaceIndex:00000000 $t
     /tmp/ccDyhIXb.s:1208   .text.USBH_FindInterfaceIndex:00000000 USBH_FindInterfaceIndex
     /tmp/ccDyhIXb.s:1273   .text.USBH_Start:00000000 $t
     /tmp/ccDyhIXb.s:1279   .text.USBH_Start:00000000 USBH_Start
     /tmp/ccDyhIXb.s:1312   .text.USBH_Stop:00000000 $t
     /tmp/ccDyhIXb.s:1318   .text.USBH_Stop:00000000 USBH_Stop
     /tmp/ccDyhIXb.s:1363   .text.USBH_Process:00000000 $t
     /tmp/ccDyhIXb.s:1369   .text.USBH_Process:00000000 USBH_Process
     /tmp/ccDyhIXb.s:1408   .text.USBH_Process:0000001e $d
     /tmp/ccDyhIXb.s:1420   .text.USBH_Process:00000036 $t
     /tmp/ccDyhIXb.s:1971   .text.USBH_LL_SetTimer:00000000 $t
     /tmp/ccDyhIXb.s:1977   .text.USBH_LL_SetTimer:00000000 USBH_LL_SetTimer
     /tmp/ccDyhIXb.s:1994   .text.USBH_LL_IncTimer:00000000 $t
     /tmp/ccDyhIXb.s:2000   .text.USBH_LL_IncTimer:00000000 USBH_LL_IncTimer
     /tmp/ccDyhIXb.s:2028   .text.USBH_LL_PortEnabled:00000000 $t
     /tmp/ccDyhIXb.s:2034   .text.USBH_LL_PortEnabled:00000000 USBH_LL_PortEnabled
     /tmp/ccDyhIXb.s:2053   .text.USBH_LL_PortDisabled:00000000 $t
     /tmp/ccDyhIXb.s:2059   .text.USBH_LL_PortDisabled:00000000 USBH_LL_PortDisabled
     /tmp/ccDyhIXb.s:2082   .text.USBH_IsPortEnabled:00000000 $t
     /tmp/ccDyhIXb.s:2088   .text.USBH_IsPortEnabled:00000000 USBH_IsPortEnabled
     /tmp/ccDyhIXb.s:2106   .text.USBH_ReEnumerate:00000000 $t
     /tmp/ccDyhIXb.s:2112   .text.USBH_ReEnumerate:00000000 USBH_ReEnumerate
     /tmp/ccDyhIXb.s:2158   .text.USBH_LL_Connect:00000000 $t
     /tmp/ccDyhIXb.s:2164   .text.USBH_LL_Connect:00000000 USBH_LL_Connect
     /tmp/ccDyhIXb.s:2194   .text.USBH_LL_Disconnect:00000000 $t
     /tmp/ccDyhIXb.s:2200   .text.USBH_LL_Disconnect:00000000 USBH_LL_Disconnect

UNDEFINED SYMBOLS
memset
USBH_Get_DevDesc
USBH_OpenPipe
USBH_FreePipe
USBH_SetAddress
USBH_Delay
USBH_Get_CfgDesc
ARM GAS  /tmp/ccDyhIXb.s 			page 76


USBH_Get_StringDesc
USBH_LL_Init
USBH_LL_Stop
USBH_LL_Start
USBH_LL_DriverVBUS
USBH_LL_ResetPort
USBH_LL_GetSpeed
USBH_AllocPipe
USBH_SetCfg
USBH_SetFeature
